ARM Linker, RVCT2.2 [Build 686]

================================================================================

Image Symbol Table

    Local Symbols

    Symbol Name                              Value     Ov Type        Size  Object(Section)

    ../../unhosted.s                         0x00000000   Number         0  switch8.o ABSOLUTE
    M:\\epoc32\\build\\euser\\c_e18a23aea4fd210f\\edll_lib\\armv5\\udeb\\uc_dll_.cpp 0x00000000   Number         0  uc_dll_.o ABSOLUTE
    M:\\sf\\os\\kernelhwsrv\\kernel\\eka\\compsupp\\rvct\\ucppinit.cpp 0x00000000   Number         0  ucppinit.o ABSOLUTE
    M:\epoc32\build\euser\c_e18a23aea4fd210f\edll_lib\armv5\udeb\uc_dll_.cpp 0x00000000   Number         0  uc_dll_.o ABSOLUTE
    M:\sf\os\kernelhwsrv\kernel\eka\compsupp\rvct\dllexp.cpp 0x00000000   Number         0  dllexp.o ABSOLUTE
    M:\sf\os\kernelhwsrv\kernel\eka\compsupp\rvct\ucppfini.cpp 0x00000000   Number         0  ucppfini.o ABSOLUTE
    M:\sf\os\kernelhwsrv\kernel\eka\compsupp\rvct\ucppinit.cpp 0x00000000   Number         0  ucppinit.o ABSOLUTE
    M:\sf\os\kernelhwsrv\kernel\eka\euser\epoc\arm\uc_dll.cpp 0x00000000   Number         0  uc_dll.o ABSOLUTE
    S:\sf\mw\qt\src\3rdparty\phonon\phonon\abstractaudiooutput.cpp 0x00000000   Number         0  abstractaudiooutput.o ABSOLUTE
    S:\sf\mw\qt\src\3rdparty\phonon\phonon\abstractaudiooutput_p.cpp 0x00000000   Number         0  abstractaudiooutput_p.o ABSOLUTE
    S:\sf\mw\qt\src\3rdparty\phonon\phonon\abstractmediastream.cpp 0x00000000   Number         0  abstractmediastream.o ABSOLUTE
    S:\sf\mw\qt\src\3rdparty\phonon\phonon\abstractvideooutput.cpp 0x00000000   Number         0  abstractvideooutput.o ABSOLUTE
    S:\sf\mw\qt\src\3rdparty\phonon\phonon\abstractvideooutput_p.cpp 0x00000000   Number         0  abstractvideooutput_p.o ABSOLUTE
    S:\sf\mw\qt\src\3rdparty\phonon\phonon\audiodataoutput.cpp 0x00000000   Number         0  audiodataoutput.o ABSOLUTE
    S:\sf\mw\qt\src\3rdparty\phonon\phonon\audiooutput.cpp 0x00000000   Number         0  audiooutput.o ABSOLUTE
    S:\sf\mw\qt\src\3rdparty\phonon\phonon\audiooutputinterface.cpp 0x00000000   Number         0  audiooutputinterface.o ABSOLUTE
    S:\sf\mw\qt\src\3rdparty\phonon\phonon\backendcapabilities.cpp 0x00000000   Number         0  backendcapabilities.o ABSOLUTE
    S:\sf\mw\qt\src\3rdparty\phonon\phonon\effect.cpp 0x00000000   Number         0  effect.o ABSOLUTE
    S:\sf\mw\qt\src\3rdparty\phonon\phonon\effectparameter.cpp 0x00000000   Number         0  effectparameter.o ABSOLUTE
    S:\sf\mw\qt\src\3rdparty\phonon\phonon\effectwidget.cpp 0x00000000   Number         0  effectwidget.o ABSOLUTE
    S:\sf\mw\qt\src\3rdparty\phonon\phonon\factory.cpp 0x00000000   Number         0  factory.o ABSOLUTE
    S:\sf\mw\qt\src\3rdparty\phonon\phonon\globalconfig.cpp 0x00000000   Number         0  globalconfig.o ABSOLUTE
    S:\sf\mw\qt\src\3rdparty\phonon\phonon\iodevicestream.cpp 0x00000000   Number         0  iodevicestream.o ABSOLUTE
    S:\sf\mw\qt\src\3rdparty\phonon\phonon\mediacontroller.cpp 0x00000000   Number         0  mediacontroller.o ABSOLUTE
    S:\sf\mw\qt\src\3rdparty\phonon\phonon\medianode.cpp 0x00000000   Number         0  medianode.o ABSOLUTE
    S:\sf\mw\qt\src\3rdparty\phonon\phonon\mediaobject.cpp 0x00000000   Number         0  mediaobject.o ABSOLUTE
    S:\sf\mw\qt\src\3rdparty\phonon\phonon\mediasource.cpp 0x00000000   Number         0  mediasource.o ABSOLUTE
    S:\sf\mw\qt\src\3rdparty\phonon\phonon\objectdescription.cpp 0x00000000   Number         0  objectdescription.o ABSOLUTE
    S:\sf\mw\qt\src\3rdparty\phonon\phonon\objectdescriptionmodel.cpp 0x00000000   Number         0  objectdescriptionmodel.o ABSOLUTE
    S:\sf\mw\qt\src\3rdparty\phonon\phonon\path.cpp 0x00000000   Number         0  path.o ABSOLUTE
    S:\sf\mw\qt\src\3rdparty\phonon\phonon\phononnamespace.cpp 0x00000000   Number         0  phononnamespace.o ABSOLUTE
    S:\sf\mw\qt\src\3rdparty\phonon\phonon\platform.cpp 0x00000000   Number         0  platform.o ABSOLUTE
    S:\sf\mw\qt\src\3rdparty\phonon\phonon\pulsesupport.cpp 0x00000000   Number         0  pulsesupport.o ABSOLUTE
    S:\sf\mw\qt\src\3rdparty\phonon\phonon\seekslider.cpp 0x00000000   Number         0  seekslider.o ABSOLUTE
    S:\sf\mw\qt\src\3rdparty\phonon\phonon\streaminterface.cpp 0x00000000   Number         0  streaminterface.o ABSOLUTE
    S:\sf\mw\qt\src\3rdparty\phonon\phonon\swiftslider.cpp 0x00000000   Number         0  swiftslider.o ABSOLUTE
    S:\sf\mw\qt\src\3rdparty\phonon\phonon\videoplayer.cpp 0x00000000   Number         0  videoplayer.o ABSOLUTE
    S:\sf\mw\qt\src\3rdparty\phonon\phonon\videowidget.cpp 0x00000000   Number         0  videowidget.o ABSOLUTE
    S:\sf\mw\qt\src\3rdparty\phonon\phonon\volumefadereffect.cpp 0x00000000   Number         0  volumefadereffect.o ABSOLUTE
    S:\sf\mw\qt\src\3rdparty\phonon\phonon\volumeslider.cpp 0x00000000   Number         0  volumeslider.o ABSOLUTE
    S:\sf\mw\qt\src\phonon\tmp\moc\debug_shared\moc_audiodataoutput.cpp 0x00000000   Number         0  moc_audiodataoutput.o ABSOLUTE
    .emb_text                                0x00008000   Section       40  uc_dll_.o(.emb_text)
    Symbian$$eit_base                        0x00008014   Data           4  uc_dll_.o(.emb_text)
    Symbian$$eit_limit                       0x00008018   Data           4  uc_dll_.o(.emb_text)
    Symbian$$code_seg_base                   0x0000801c   Data           4  uc_dll_.o(.emb_text)
    Symbian$$code_seg_limit                  0x00008020   Data           4  uc_dll_.o(.emb_text)
    Symbian$$reserved                        0x00008024   Data           4  uc_dll_.o(.emb_text)
    .emb_text                                0x00008028   Section       52  ucppinit.o(.emb_text)
    loop                                     0x0000803c   ARM Code       0  ucppinit.o(.emb_text)
    ret                                      0x00008044   ARM Code       0  ucppinit.o(.emb_text)
    base                                     0x00008054   Data           0  ucppinit.o(.emb_text)
    limit                                    0x00008058   Data           0  ucppinit.o(.emb_text)
    .text                                    0x000089e4   Section      272  abstractaudiooutput.o(.text)
    .text                                    0x00008af4   Section       56  abstractaudiooutput_p.o(.text)
    .text                                    0x00008b2c   Section     1148  abstractmediastream.o(.text)
    |L1.972|                                 0x00008ef8   Data           0  abstractmediastream.o(.text)
    .text                                    0x00008fa8   Section       28  abstractvideooutput.o(.text)
    .text                                    0x00008fc4   Section        6  abstractvideooutput_p.o(.text)
    .text                                    0x00008fcc   Section     1472  audiodataoutput.o(.text)
    |L1.1084|                                0x00009408   Data           0  audiodataoutput.o(.text)
    .text                                    0x0000958c   Section     4844  audiooutput.o(.text)
    Phonon::callSetOutputDevice(Phonon::AudioOutputPrivate*, const Phonon::ObjectDescription<(Phonon::ObjectDescriptionType)0>&) 0x00009cbd   Thumb Code   134  audiooutput.o(.text)
    |L1.2168|                                0x00009e04   Data           0  audiooutput.o(.text)
    Phonon::callSetOutputDevice(Phonon::AudioOutputPrivate*, int) 0x0000a791   Thumb Code   232  audiooutput.o(.text)
    .text                                    0x0000a878   Section       18  audiooutputinterface.o(.text)
    __C1::operator ->()                      0x0000a88d   Thumb Code   156  backendcapabilities.o(.text)
    .text                                    0x0000a88c   Section     1208  backendcapabilities.o(.text)
    __C1::destroy()                          0x0000ad11   Thumb Code    42  backendcapabilities.o(.text)
    .text                                    0x0000ad44   Section     1096  effect.o(.text)
    .text                                    0x0000b18c   Section      720  effectparameter.o(.text)
    .text                                    0x0000b45c   Section     2872  effectwidget.o(.text)
    __sti___16_effectwidget_cpp              0x0000bf69   Thumb Code    26  effectwidget.o(.text)
    .text                                    0x0000bf94   Section     5872  factory.o(.text)
    Phonon::__N6Phonon4__C1E::operator ->()  0x0000c2d3   Thumb Code   460  factory.o(.text)
    |L1.952|                                 0x0000c34c   Data           0  factory.o(.text)
    |L1.988|                                 0x0000c370   Data           0  factory.o(.text)
    |L1.1048|                                0x0000c3ac   Data           0  factory.o(.text)
    |L1.1152|                                0x0000c414   Data           0  factory.o(.text)
    Phonon::__N6Phonon4__C1E::destroy()      0x0000d5ff   Thumb Code    44  factory.o(.text)
    .text                                    0x0000d684   Section     4292  globalconfig.o(.text)
    Phonon::sortDevicesByCategoryPriority(const Phonon::GlobalConfig*, const Phonon::QSettingsGroup*, Phonon::ObjectDescriptionType, Phonon::Category, QList<int>&) 0x0000d831   Thumb Code   952  globalconfig.o(.text)
    |L1.740|                                 0x0000d968   Data           0  globalconfig.o(.text)
    |L1.796|                                 0x0000d9a0   Data           0  globalconfig.o(.text)
    Phonon::filter(Phonon::ObjectDescriptionType, Phonon::BackendInterface*, QList<int>*, int) 0x0000dbe9   Thumb Code   428  globalconfig.o(.text)
    |L1.2128|                                0x0000ded4   Data           0  globalconfig.o(.text)
    |L1.2144|                                0x0000dee4   Data           0  globalconfig.o(.text)
    Phonon::isHiddenAudioCaptureDevice(const Phonon::GlobalConfig*, int) 0x0000df9f   Thumb Code   118  globalconfig.o(.text)
    Phonon::isHiddenAudioOutputDevice(const Phonon::GlobalConfig*, int) 0x0000e015   Thumb Code   118  globalconfig.o(.text)
    Phonon::reindexList(const Phonon::GlobalConfig*, Phonon::Category, QList<int>, bool) 0x0000e257   Thumb Code   528  globalconfig.o(.text)
    |L1.3252|                                0x0000e338   Data           0  globalconfig.o(.text)
    |L1.3284|                                0x0000e358   Data           0  globalconfig.o(.text)
    .text                                    0x0000e748   Section      436  iodevicestream.o(.text)
    .text                                    0x0000e8fc   Section     3148  mediacontroller.o(.text)
    .text                                    0x0000f548   Section      784  medianode.o(.text)
    .text                                    0x0000f858   Section     6640  mediaobject.o(.text)
    |L1.1036|                                0x0000fc64   Data           0  mediaobject.o(.text)
    |L1.2264|                                0x00010130   Data           0  mediaobject.o(.text)
    |L1.2280|                                0x00010140   Data           0  mediaobject.o(.text)
    |L1.4616|                                0x00010a60   Data           0  mediaobject.o(.text)
    |L1.4676|                                0x00010a9c   Data           0  mediaobject.o(.text)
    |L1.4696|                                0x00010ab0   Data           0  mediaobject.o(.text)
    Phonon::isPlayable(Phonon::MediaSource::Type) 0x000111f1   Thumb Code    18  mediaobject.o(.text)
    .text                                    0x00011248   Section     1400  mediasource.o(.text)
    .text                                    0x000117c0   Section      916  objectdescription.o(.text)
    .text                                    0x00011b54   Section     2300  objectdescriptionmodel.o(.text)
    .text                                    0x00012450   Section     4796  path.o(.text)
    |L1.1092|                                0x00012894   Data           0  path.o(.text)
    registerPhononMetaTypes()                0x0001370d   Thumb Code    54  phononnamespace.o(.text)
    .text                                    0x0001370c   Section      332  phononnamespace.o(.text)
    __sti___19_phononnamespace_cpp           0x000137dd   Thumb Code    12  phononnamespace.o(.text)
    .text                                    0x00013858   Section      644  platform.o(.text)
    .text                                    0x00013adc   Section      652  pulsesupport.o(.text)
    .text                                    0x00013d68   Section     2200  seekslider.o(.text)
    .text                                    0x00014600   Section      788  streaminterface.o(.text)
    .text                                    0x00014914   Section      712  swiftslider.o(.text)
    .text                                    0x00014bdc   Section     1128  videoplayer.o(.text)
    .text                                    0x00015044   Section     2556  videowidget.o(.text)
    |L1.992|                                 0x00015424   Data           0  videowidget.o(.text)
    .text                                    0x00015a40   Section     1080  volumefadereffect.o(.text)
    .text                                    0x00015e78   Section     2924  volumeslider.o(.text)
    |L1.1000|                                0x00016260   Data           0  volumeslider.o(.text)
    |L1.1024|                                0x00016278   Data           0  volumeslider.o(.text)
    .text                                    0x000169e4   Section      340  moc_audiodataoutput.o(.text)
    .text                                    0x00016b38   Section       24  switch8.o(.text)
    .text                                    0x00016b50   Section       80  uc_dll.o(.text)
    .text                                    0x00016ba0   Section      180  ucppfini.o(.text)
    .text                                    0x00016c54   Section        4  dllexp.o(.text)
    .text.clean                              0x00016c58   Section       20  abstractaudiooutput.o(.text.clean)
    .text.clean                              0x00016c6c   Section       84  abstractmediastream.o(.text.clean)
    .text.clean                              0x00016cc0   Section       14  audiodataoutput.o(.text.clean)
    .text.clean                              0x00016cce   Section      574  audiooutput.o(.text.clean)
    .text.clean                              0x00016f0c   Section      148  backendcapabilities.o(.text.clean)
    .text.clean                              0x00016fa0   Section       66  effect.o(.text.clean)
    .text.clean                              0x00016fe2   Section       28  effectparameter.o(.text.clean)
    .text.clean                              0x00016ffe   Section      322  effectwidget.o(.text.clean)
    .text.clean                              0x00017140   Section      720  factory.o(.text.clean)
    .text.clean                              0x00017410   Section      632  globalconfig.o(.text.clean)
    .text.clean                              0x00017688   Section       30  iodevicestream.o(.text.clean)
    .text.clean                              0x000176a6   Section      366  mediacontroller.o(.text.clean)
    .text.clean                              0x00017814   Section       72  medianode.o(.text.clean)
    .text.clean                              0x0001785c   Section      310  mediaobject.o(.text.clean)
    .text.clean                              0x00017992   Section      224  mediasource.o(.text.clean)
    .text.clean                              0x00017a72   Section      138  objectdescription.o(.text.clean)
    .text.clean                              0x00017afc   Section      256  objectdescriptionmodel.o(.text.clean)
    .text.clean                              0x00017bfc   Section      326  path.o(.text.clean)
    .text.clean                              0x00017d42   Section       60  platform.o(.text.clean)
    .text.clean                              0x00017d7e   Section       42  pulsesupport.o(.text.clean)
    .text.clean                              0x00017da8   Section      130  seekslider.o(.text.clean)
    .text.clean                              0x00017e2a   Section       24  streaminterface.o(.text.clean)
    .text.clean                              0x00017e42   Section       20  swiftslider.o(.text.clean)
    .text.clean                              0x00017e56   Section      116  videoplayer.o(.text.clean)
    .text.clean                              0x00017eca   Section      100  videowidget.o(.text.clean)
    .text.clean                              0x00017f2e   Section       14  volumefadereffect.o(.text.clean)
    .text.clean                              0x00017f3c   Section      252  volumeslider.o(.text.clean)
    i._Z20qvariant_cast_helperRK8QVariantNS_4TypeEPv 0x00018038   Section       32  globalconfig.o(i._Z20qvariant_cast_helperRK8QVariantNS_4TypeEPv)
    i._Z3powff                               0x00018058   Section       16  audiooutput.o(i._Z3powff)
    i._Z6qDebugv                             0x00018068   Section       92  audiooutput.o(i._Z6qDebugv)
    i._Z6qDebugv.clean                       0x000180c4   Section       24  audiooutput.o(i._Z6qDebugv.clean)
    i._Z6qRoundf                             0x000180dc   Section      156  volumeslider.o(i._Z6qRoundf)
    i._ZN10QByteArrayC1ERKS_                 0x00018178   Section       20  globalconfig.o(i._ZN10QByteArrayC1ERKS_)
    i._ZN10QByteArrayD1Ev                    0x0001818c   Section       24  audiooutput.o(i._ZN10QByteArrayD1Ev)
    i._ZN11QMetaObject12invokeMethodEP7QObjectPKcN2Qt14ConnectionTypeE16QGenericArgumentS6_S6_S6_S6_S6_S6_S6_S6_S6_ 0x000181a4   Section      130  audiodataoutput.o(i._ZN11QMetaObject12invokeMethodEP7QObjectPKcN2Qt14ConnectionTypeE16QGenericArgumentS6_S6_S6_S6_S6_S6_S6_S6_S6_)
    i._ZN11QModelIndexC1ERKS_                0x00018226   Section       18  objectdescriptionmodel.o(i._ZN11QModelIndexC1ERKS_)
    i._ZN11QModelIndexC1Ev                   0x00018238   Section       16  objectdescriptionmodel.o(i._ZN11QModelIndexC1Ev)
    i._ZN11QModelIndexD1Ev                   0x00018248   Section        8  objectdescriptionmodel.o(i._ZN11QModelIndexD1Ev)
    i._ZN11QStringListC1ERK7QString          0x00018250   Section       26  audiooutput.o(i._ZN11QStringListC1ERK7QString)
    i._ZN11QStringListC1ERK7QString.clean    0x0001826a   Section       10  audiooutput.o(i._ZN11QStringListC1ERK7QString.clean)
    i._ZN11QStringListC1Ev                   0x00018274   Section       14  audiooutput.o(i._ZN11QStringListC1Ev)
    i._ZN11QStringListD1Ev                   0x00018282   Section       14  audiooutput.o(i._ZN11QStringListD1Ev)
    i._ZN13QConcatenableI7QStringE8appendToERKS0_RP5QChar 0x00018290   Section       42  factory.o(i._ZN13QConcatenableI7QStringE8appendToERKS0_RP5QChar)
    i._ZN15QBasicAtomicInt3refEv             0x000182ba   Section       24  audiodataoutput.o(i._ZN15QBasicAtomicInt3refEv)
    i._ZN15QBasicAtomicInt5derefEv           0x000182d2   Section       24  audiodataoutput.o(i._ZN15QBasicAtomicInt5derefEv)
    i._ZN15QtSharedPointer20ExternalRefCountData7destroyEv 0x000182ea   Section        6  effectwidget.o(i._ZN15QtSharedPointer20ExternalRefCountData7destroyEv)
    i._ZN15QtSharedPointer20ExternalRefCountDataD0Ev 0x000182f0   Section       22  effectwidget.o(i._ZN15QtSharedPointer20ExternalRefCountDataD0Ev)
    i._ZN15QtSharedPointer20ExternalRefCountDataD1Ev 0x00018308   Section      108  effectwidget.o(i._ZN15QtSharedPointer20ExternalRefCountDataD1Ev)
    i._ZN17QForeachContainerI5QListIiEED1Ev  0x00018374   Section       14  globalconfig.o(i._ZN17QForeachContainerI5QListIiEED1Ev)
    i._ZN18QStyleOptionSliderD1Ev            0x00018382   Section       16  swiftslider.o(i._ZN18QStyleOptionSliderD1Ev)
    i._ZN4QSetIP7QObjectED1Ev                0x00018392   Section       14  path.o(i._ZN4QSetIP7QObjectED1Ev)
    i._ZN4QSetIiED1Ev                        0x000183a0   Section       14  globalconfig.o(i._ZN4QSetIiED1Ev)
    i._ZN5QPairIP7QObjectS1_EC1ERKS2_        0x000183ae   Section       10  path.o(i._ZN5QPairIP7QObjectS1_EC1ERKS2_)
    i._ZN6Phonon11AudioOutput2trEPKcS2_      0x000183b8   Section       28  audiooutput.o(i._ZN6Phonon11AudioOutput2trEPKcS2_)
    i._ZN6Phonon11AudioOutputD0Ev            0x000183d4   Section       24  audiooutput.o(i._ZN6Phonon11AudioOutputD0Ev)
    i._ZN6Phonon11AudioOutputD1Ev            0x000183ec   Section       14  audiooutput.o(i._ZN6Phonon11AudioOutputD1Ev)
    i._ZN6Phonon11VideoWidgetD0Ev            0x000183fa   Section       22  videowidget.o(i._ZN6Phonon11VideoWidgetD0Ev)
    i._ZN6Phonon11VideoWidgetD1Ev            0x00018410   Section       26  videowidget.o(i._ZN6Phonon11VideoWidgetD1Ev)
    i._ZN6Phonon11VideoWidgetD1Ev.clean      0x0001842a   Section       10  videowidget.o(i._ZN6Phonon11VideoWidgetD1Ev.clean)
    i._ZN6Phonon12VolumeSlider2trEPKcS2_     0x00018434   Section       28  volumeslider.o(i._ZN6Phonon12VolumeSlider2trEPKcS2_)
    i._ZN6Phonon13EffectPrivate6q_funcEv     0x00018450   Section       18  effect.o(i._ZN6Phonon13EffectPrivate6q_funcEv)
    i._ZN6Phonon13EffectPrivate7qObjectEv    0x00018462   Section       20  volumefadereffect.o(i._ZN6Phonon13EffectPrivate7qObjectEv)
    i._ZN6Phonon13EffectPrivateC1Ev          0x00018478   Section      100  effect.o(i._ZN6Phonon13EffectPrivateC1Ev)
    i._ZN6Phonon13EffectPrivateC1Ev.clean    0x000184dc   Section       36  effect.o(i._ZN6Phonon13EffectPrivateC1Ev.clean)
    i._ZN6Phonon13EffectPrivateD0Ev          0x00018500   Section       22  effect.o(i._ZN6Phonon13EffectPrivateD0Ev)
    i._ZN6Phonon13EffectPrivateD1Ev          0x00018518   Section       48  effect.o(i._ZN6Phonon13EffectPrivateD1Ev)
    i._ZN6Phonon13EffectPrivateD1Ev.clean    0x00018548   Section       22  effect.o(i._ZN6Phonon13EffectPrivateD1Ev.clean)
    i._ZN6Phonon14QSettingsGroup11removeEntryERK7QString 0x00018560   Section      144  globalconfig.o(i._ZN6Phonon14QSettingsGroup11removeEntryERK7QString)
    i._ZN6Phonon14QSettingsGroup11removeEntryERK7QString.clean 0x000185f0   Section       10  globalconfig.o(i._ZN6Phonon14QSettingsGroup11removeEntryERK7QString.clean)
    i._ZN6Phonon14QSettingsGroupC1EP9QSettingsRK7QString 0x000185fa   Section       68  globalconfig.o(i._ZN6Phonon14QSettingsGroupC1EP9QSettingsRK7QString)
    i._ZN6Phonon14QSettingsGroupC1EP9QSettingsRK7QString.clean 0x0001863e   Section       10  globalconfig.o(i._ZN6Phonon14QSettingsGroupC1EP9QSettingsRK7QString.clean)
    i._ZN6Phonon14QSettingsGroupC1EPK9QSettingsRK7QString 0x00018648   Section       70  globalconfig.o(i._ZN6Phonon14QSettingsGroupC1EPK9QSettingsRK7QString)
    i._ZN6Phonon14QSettingsGroupC1EPK9QSettingsRK7QString.clean 0x0001868e   Section       10  globalconfig.o(i._ZN6Phonon14QSettingsGroupC1EPK9QSettingsRK7QString.clean)
    i._ZN6Phonon14QSettingsGroupD1Ev         0x00018698   Section       20  globalconfig.o(i._ZN6Phonon14QSettingsGroupD1Ev)
    i._ZN6Phonon15AudioDataOutputD0Ev        0x000186ac   Section       24  moc_audiodataoutput.o(i._ZN6Phonon15AudioDataOutputD0Ev)
    i._ZN6Phonon15AudioDataOutputD1Ev        0x000186c4   Section       14  moc_audiodataoutput.o(i._ZN6Phonon15AudioDataOutputD1Ev)
    i._ZN6Phonon16MediaNodePrivate7qObjectEv 0x000186d2   Section        6  abstractvideooutput_p.o(i._ZN6Phonon16MediaNodePrivate7qObjectEv)
    i._ZN6Phonon17ObjectDescriptionILNS_21ObjectDescriptionTypeE0EEC1ERKS2_ 0x000186d8   Section       18  backendcapabilities.o(i._ZN6Phonon17ObjectDescriptionILNS_21ObjectDescriptionTypeE0EEC1ERKS2_)
    i._ZN6Phonon17ObjectDescriptionILNS_21ObjectDescriptionTypeE0EED1Ev 0x000186ea   Section       14  audiooutput.o(i._ZN6Phonon17ObjectDescriptionILNS_21ObjectDescriptionTypeE0EED1Ev)
    i._ZN6Phonon17ObjectDescriptionILNS_21ObjectDescriptionTypeE0EEaSERKS2_ 0x000186f8   Section       70  audiooutput.o(i._ZN6Phonon17ObjectDescriptionILNS_21ObjectDescriptionTypeE0EEaSERKS2_)
    i._ZN6Phonon17ObjectDescriptionILNS_21ObjectDescriptionTypeE1EEC1ERKS2_ 0x0001873e   Section       18  backendcapabilities.o(i._ZN6Phonon17ObjectDescriptionILNS_21ObjectDescriptionTypeE1EEC1ERKS2_)
    i._ZN6Phonon17ObjectDescriptionILNS_21ObjectDescriptionTypeE1EED1Ev 0x00018750   Section       14  backendcapabilities.o(i._ZN6Phonon17ObjectDescriptionILNS_21ObjectDescriptionTypeE1EED1Ev)
    i._ZN6Phonon17ObjectDescriptionILNS_21ObjectDescriptionTypeE2EEC1ERKS2_ 0x0001875e   Section       18  mediacontroller.o(i._ZN6Phonon17ObjectDescriptionILNS_21ObjectDescriptionTypeE2EEC1ERKS2_)
    i._ZN6Phonon17ObjectDescriptionILNS_21ObjectDescriptionTypeE2EED1Ev 0x00018770   Section       14  mediacontroller.o(i._ZN6Phonon17ObjectDescriptionILNS_21ObjectDescriptionTypeE2EED1Ev)
    i._ZN6Phonon17ObjectDescriptionILNS_21ObjectDescriptionTypeE3EEC1ERKS2_ 0x0001877e   Section       18  mediacontroller.o(i._ZN6Phonon17ObjectDescriptionILNS_21ObjectDescriptionTypeE3EEC1ERKS2_)
    i._ZN6Phonon17ObjectDescriptionILNS_21ObjectDescriptionTypeE3EED1Ev 0x00018790   Section       14  mediacontroller.o(i._ZN6Phonon17ObjectDescriptionILNS_21ObjectDescriptionTypeE3EED1Ev)
    i._ZN6Phonon17ObjectDescriptionILNS_21ObjectDescriptionTypeE4EEC1ERKS2_ 0x0001879e   Section       18  backendcapabilities.o(i._ZN6Phonon17ObjectDescriptionILNS_21ObjectDescriptionTypeE4EEC1ERKS2_)
    i._ZN6Phonon17ObjectDescriptionILNS_21ObjectDescriptionTypeE4EED1Ev 0x000187b0   Section       14  backendcapabilities.o(i._ZN6Phonon17ObjectDescriptionILNS_21ObjectDescriptionTypeE4EED1Ev)
    i._ZN6Phonon17SeekSliderPrivateC1EPNS_10SeekSliderE 0x000187c0   Section      396  seekslider.o(i._ZN6Phonon17SeekSliderPrivateC1EPNS_10SeekSliderE)
    i._ZN6Phonon17SeekSliderPrivateC1EPNS_10SeekSliderE.clean 0x0001894c   Section       74  seekslider.o(i._ZN6Phonon17SeekSliderPrivateC1EPNS_10SeekSliderE.clean)
    i._ZN6Phonon17VolumeFaderEffectD0Ev      0x00018996   Section       24  volumefadereffect.o(i._ZN6Phonon17VolumeFaderEffectD0Ev)
    i._ZN6Phonon17VolumeFaderEffectD1Ev      0x000189ae   Section       14  volumefadereffect.o(i._ZN6Phonon17VolumeFaderEffectD1Ev)
    i._ZN6Phonon18AudioOutputPrivate6q_funcEv 0x000189bc   Section       18  audiooutput.o(i._ZN6Phonon18AudioOutputPrivate6q_funcEv)
    i._ZN6Phonon18AudioOutputPrivateC1ENS_16MediaNodePrivate6CastIdE 0x000189d0   Section      120  audiooutput.o(i._ZN6Phonon18AudioOutputPrivateC1ENS_16MediaNodePrivate6CastIdE)
    i._ZN6Phonon18AudioOutputPrivateC1ENS_16MediaNodePrivate6CastIdE.clean 0x00018a48   Section       42  audiooutput.o(i._ZN6Phonon18AudioOutputPrivateC1ENS_16MediaNodePrivate6CastIdE.clean)
    i._ZN6Phonon18MediaObjectPrivate6q_funcEv 0x00018a72   Section       18  mediaobject.o(i._ZN6Phonon18MediaObjectPrivate6q_funcEv)
    i._ZN6Phonon18MediaObjectPrivate7qObjectEv 0x00018a84   Section       12  mediaobject.o(i._ZN6Phonon18MediaObjectPrivate7qObjectEv)
    i._ZN6Phonon18MediaObjectPrivateC1Ev     0x00018a90   Section      252  mediaobject.o(i._ZN6Phonon18MediaObjectPrivateC1Ev)
    i._ZN6Phonon18MediaObjectPrivateC1Ev.clean 0x00018b8c   Section       70  mediaobject.o(i._ZN6Phonon18MediaObjectPrivateC1Ev.clean)
    i._ZN6Phonon18MediaObjectPrivateD0Ev     0x00018bd2   Section       22  mediaobject.o(i._ZN6Phonon18MediaObjectPrivateD0Ev)
    i._ZN6Phonon18MediaObjectPrivateD1Ev     0x00018be8   Section      100  mediaobject.o(i._ZN6Phonon18MediaObjectPrivateD1Ev)
    i._ZN6Phonon18MediaObjectPrivateD1Ev.clean 0x00018c4c   Section       70  mediaobject.o(i._ZN6Phonon18MediaObjectPrivateD1Ev.clean)
    i._ZN6Phonon18MediaSourcePrivateC1ENS_11MediaSource4TypeE 0x00018c94   Section      100  mediasource.o(i._ZN6Phonon18MediaSourcePrivateC1ENS_11MediaSource4TypeE)
    i._ZN6Phonon18MediaSourcePrivateC1ENS_11MediaSource4TypeE.clean 0x00018cf8   Section       24  mediasource.o(i._ZN6Phonon18MediaSourcePrivateC1ENS_11MediaSource4TypeE.clean)
    i._ZN6Phonon18VideoPlayerPrivateC1Ev     0x00018d10   Section       28  videoplayer.o(i._ZN6Phonon18VideoPlayerPrivateC1Ev)
    i._ZN6Phonon18VideoWidgetPrivate6q_funcEv 0x00018d2c   Section       18  videowidget.o(i._ZN6Phonon18VideoWidgetPrivate6q_funcEv)
    i._ZN6Phonon18VideoWidgetPrivate7qObjectEv 0x00018d3e   Section       12  videowidget.o(i._ZN6Phonon18VideoWidgetPrivate7qObjectEv)
    i._ZN6Phonon18VideoWidgetPrivateD0Ev     0x00018d4a   Section       22  videowidget.o(i._ZN6Phonon18VideoWidgetPrivateD0Ev)
    i._ZN6Phonon18VideoWidgetPrivateD1Ev     0x00018d60   Section       36  videowidget.o(i._ZN6Phonon18VideoWidgetPrivateD1Ev)
    i._ZN6Phonon18VideoWidgetPrivateD1Ev.clean 0x00018d84   Section       10  videowidget.o(i._ZN6Phonon18VideoWidgetPrivateD1Ev.clean)
    i._ZN6Phonon19AbstractVideoOutputD0Ev    0x00018d8e   Section       24  abstractvideooutput.o(i._ZN6Phonon19AbstractVideoOutputD0Ev)
    i._ZN6Phonon19AbstractVideoOutputD1Ev    0x00018da6   Section       14  abstractvideooutput.o(i._ZN6Phonon19AbstractVideoOutputD1Ev)
    i._ZN6Phonon19BackendCapabilities8NotifierD0Ev 0x00018db4   Section       22  backendcapabilities.o(i._ZN6Phonon19BackendCapabilities8NotifierD0Ev)
    i._ZN6Phonon19BackendCapabilities8NotifierD1Ev 0x00018dca   Section       14  backendcapabilities.o(i._ZN6Phonon19BackendCapabilities8NotifierD1Ev)
    i._ZN6Phonon19CleanUpGlobalStaticD1Ev    0x00018dd8   Section       12  backendcapabilities.o(i._ZN6Phonon19CleanUpGlobalStaticD1Ev)
    i._ZN6Phonon19GlobalConfigPrivateD0Ev    0x00018de4   Section       22  globalconfig.o(i._ZN6Phonon19GlobalConfigPrivateD0Ev)
    i._ZN6Phonon19GlobalConfigPrivateD1Ev    0x00018dfc   Section       24  globalconfig.o(i._ZN6Phonon19GlobalConfigPrivateD1Ev)
    i._ZN6Phonon19VolumeSliderPrivateC1EPNS_12VolumeSliderE 0x00018e14   Section      400  volumeslider.o(i._ZN6Phonon19VolumeSliderPrivateC1EPNS_12VolumeSliderE)
    i._ZN6Phonon19VolumeSliderPrivateC1EPNS_12VolumeSliderE.clean 0x00018fa4   Section       98  volumeslider.o(i._ZN6Phonon19VolumeSliderPrivateC1EPNS_12VolumeSliderE.clean)
    i._ZN6Phonon21ConnectionTransactionD1Ev  0x00019006   Section       50  path.o(i._ZN6Phonon21ConnectionTransactionD1Ev)
    i._ZN6Phonon21ConnectionTransactionD1Ev.clean 0x00019038   Section       18  path.o(i._ZN6Phonon21ConnectionTransactionD1Ev.clean)
    i._ZN6Phonon21IODeviceStreamPrivateC1EP9QIODevice 0x0001904c   Section      344  iodevicestream.o(i._ZN6Phonon21IODeviceStreamPrivateC1EP9QIODevice)
    i._ZN6Phonon21IODeviceStreamPrivateC1EP9QIODevice.clean 0x000191a4   Section       20  iodevicestream.o(i._ZN6Phonon21IODeviceStreamPrivateC1EP9QIODevice.clean)
    i._ZN6Phonon21IODeviceStreamPrivateD0Ev  0x000191b8   Section       24  iodevicestream.o(i._ZN6Phonon21IODeviceStreamPrivateD0Ev)
    i._ZN6Phonon21IODeviceStreamPrivateD1Ev  0x000191d0   Section       14  iodevicestream.o(i._ZN6Phonon21IODeviceStreamPrivateD1Ev)
    i._ZN6Phonon22AudioDataOutputPrivate6q_funcEv 0x000191de   Section       18  audiodataoutput.o(i._ZN6Phonon22AudioDataOutputPrivate6q_funcEv)
    i._ZN6Phonon22AudioDataOutputPrivateD0Ev 0x000191f0   Section       22  audiodataoutput.o(i._ZN6Phonon22AudioDataOutputPrivateD0Ev)
    i._ZN6Phonon22AudioDataOutputPrivateD1Ev 0x00019206   Section       16  audiodataoutput.o(i._ZN6Phonon22AudioDataOutputPrivateD1Ev)
    i._ZN6Phonon22EffectParameterPrivateC1Ev 0x00019218   Section      112  effectparameter.o(i._ZN6Phonon22EffectParameterPrivateC1Ev)
    i._ZN6Phonon22EffectParameterPrivateC1Ev.clean 0x00019288   Section       60  effectparameter.o(i._ZN6Phonon22EffectParameterPrivateC1Ev.clean)
    i._ZN6Phonon22EffectParameterPrivateD1Ev 0x000192c4   Section       80  effectparameter.o(i._ZN6Phonon22EffectParameterPrivateD1Ev)
    i._ZN6Phonon22EffectParameterPrivateD1Ev.clean 0x00019314   Section       60  effectparameter.o(i._ZN6Phonon22EffectParameterPrivateD1Ev.clean)
    i._ZN6Phonon22MediaControllerPrivateC1EPNS_11MediaObjectE 0x00019350   Section      176  mediacontroller.o(i._ZN6Phonon22MediaControllerPrivateC1EPNS_11MediaObjectE)
    i._ZN6Phonon22MediaControllerPrivateC1EPNS_11MediaObjectE.clean 0x00019400   Section       10  mediacontroller.o(i._ZN6Phonon22MediaControllerPrivateC1EPNS_11MediaObjectE.clean)
    i._ZN6Phonon22MediaControllerPrivateD0Ev 0x0001940a   Section       24  mediacontroller.o(i._ZN6Phonon22MediaControllerPrivateD0Ev)
    i._ZN6Phonon22MediaControllerPrivateD1Ev 0x00019422   Section       14  mediacontroller.o(i._ZN6Phonon22MediaControllerPrivateD1Ev)
    i._ZN6Phonon22ObjectDescriptionModelILNS_21ObjectDescriptionTypeE0EED0Ev 0x00019430   Section       24  objectdescriptionmodel.o(i._ZN6Phonon22ObjectDescriptionModelILNS_21ObjectDescriptionTypeE0EED0Ev)
    i._ZN6Phonon22ObjectDescriptionModelILNS_21ObjectDescriptionTypeE0EED1Ev 0x00019448   Section       14  objectdescriptionmodel.o(i._ZN6Phonon22ObjectDescriptionModelILNS_21ObjectDescriptionTypeE0EED1Ev)
    i._ZN6Phonon22ObjectDescriptionModelILNS_21ObjectDescriptionTypeE1EED0Ev 0x00019456   Section       24  objectdescriptionmodel.o(i._ZN6Phonon22ObjectDescriptionModelILNS_21ObjectDescriptionTypeE1EED0Ev)
    i._ZN6Phonon22ObjectDescriptionModelILNS_21ObjectDescriptionTypeE1EED1Ev 0x0001946e   Section       14  objectdescriptionmodel.o(i._ZN6Phonon22ObjectDescriptionModelILNS_21ObjectDescriptionTypeE1EED1Ev)
    i._ZN6Phonon22ObjectDescriptionModelILNS_21ObjectDescriptionTypeE2EED0Ev 0x0001947c   Section       24  objectdescriptionmodel.o(i._ZN6Phonon22ObjectDescriptionModelILNS_21ObjectDescriptionTypeE2EED0Ev)
    i._ZN6Phonon22ObjectDescriptionModelILNS_21ObjectDescriptionTypeE2EED1Ev 0x00019494   Section       14  objectdescriptionmodel.o(i._ZN6Phonon22ObjectDescriptionModelILNS_21ObjectDescriptionTypeE2EED1Ev)
    i._ZN6Phonon22ObjectDescriptionModelILNS_21ObjectDescriptionTypeE3EED0Ev 0x000194a2   Section       24  objectdescriptionmodel.o(i._ZN6Phonon22ObjectDescriptionModelILNS_21ObjectDescriptionTypeE3EED0Ev)
    i._ZN6Phonon22ObjectDescriptionModelILNS_21ObjectDescriptionTypeE3EED1Ev 0x000194ba   Section       14  objectdescriptionmodel.o(i._ZN6Phonon22ObjectDescriptionModelILNS_21ObjectDescriptionTypeE3EED1Ev)
    i._ZN6Phonon22ObjectDescriptionModelILNS_21ObjectDescriptionTypeE4EED0Ev 0x000194c8   Section       24  objectdescriptionmodel.o(i._ZN6Phonon22ObjectDescriptionModelILNS_21ObjectDescriptionTypeE4EED0Ev)
    i._ZN6Phonon22ObjectDescriptionModelILNS_21ObjectDescriptionTypeE4EED1Ev 0x000194e0   Section       14  objectdescriptionmodel.o(i._ZN6Phonon22ObjectDescriptionModelILNS_21ObjectDescriptionTypeE4EED1Ev)
    i._ZN6Phonon24FrontendInterfacePrivate21_backendObjectChangedEv 0x000194f0   Section      104  mediaobject.o(i._ZN6Phonon24FrontendInterfacePrivate21_backendObjectChangedEv)
    i._ZN6Phonon24FrontendInterfacePrivate21_backendObjectChangedEv.clean 0x00019558   Section       18  mediaobject.o(i._ZN6Phonon24FrontendInterfacePrivate21_backendObjectChangedEv.clean)
    i._ZN6Phonon24FrontendInterfacePrivate5ifaceEv 0x0001956c   Section       76  mediacontroller.o(i._ZN6Phonon24FrontendInterfacePrivate5ifaceEv)
    i._ZN6Phonon24FrontendInterfacePrivateD0Ev 0x000195b8   Section       22  mediacontroller.o(i._ZN6Phonon24FrontendInterfacePrivateD0Ev)
    i._ZN6Phonon24FrontendInterfacePrivateD2Ev 0x000195d0   Section       64  mediacontroller.o(i._ZN6Phonon24FrontendInterfacePrivateD2Ev)
    i._ZN6Phonon24FrontendInterfacePrivateD2Ev.clean 0x00019610   Section       10  mediacontroller.o(i._ZN6Phonon24FrontendInterfacePrivateD2Ev.clean)
    i._ZN6Phonon24ObjectDescriptionPrivateC1EiRK5QHashI10QByteArray8QVariantE 0x0001961c   Section      216  objectdescription.o(i._ZN6Phonon24ObjectDescriptionPrivateC1EiRK5QHashI10QByteArray8QVariantE)
    i._ZN6Phonon24ObjectDescriptionPrivateC1EiRK5QHashI10QByteArray8QVariantE.clean 0x000196f4   Section       62  objectdescription.o(i._ZN6Phonon24ObjectDescriptionPrivateC1EiRK5QHashI10QByteArray8QVariantE.clean)
    i._ZN6Phonon24VolumeFaderEffectPrivateD0Ev 0x00019732   Section       24  volumefadereffect.o(i._ZN6Phonon24VolumeFaderEffectPrivateD0Ev)
    i._ZN6Phonon24VolumeFaderEffectPrivateD1Ev 0x0001974a   Section       14  volumefadereffect.o(i._ZN6Phonon24VolumeFaderEffectPrivateD1Ev)
    i._ZN6Phonon26AbstractAudioOutputPrivate7qObjectEv 0x00019758   Section       20  abstractaudiooutput_p.o(i._ZN6Phonon26AbstractAudioOutputPrivate7qObjectEv)
    i._ZN6Phonon26AbstractAudioOutputPrivateD0Ev 0x0001976c   Section       24  abstractaudiooutput_p.o(i._ZN6Phonon26AbstractAudioOutputPrivateD0Ev)
    i._ZN6Phonon26AbstractAudioOutputPrivateD2Ev 0x00019784   Section       14  abstractaudiooutput_p.o(i._ZN6Phonon26AbstractAudioOutputPrivateD2Ev)
    i._ZN6Phonon26AbstractVideoOutputPrivateD0Ev 0x00019792   Section       24  abstractvideooutput_p.o(i._ZN6Phonon26AbstractVideoOutputPrivateD0Ev)
    i._ZN6Phonon26AbstractVideoOutputPrivateD2Ev 0x000197aa   Section       14  abstractvideooutput_p.o(i._ZN6Phonon26AbstractVideoOutputPrivateD2Ev)
    i._ZN6Phonon26BackendCapabilitiesPrivateC1Ev 0x000197b8   Section      168  backendcapabilities.o(i._ZN6Phonon26BackendCapabilitiesPrivateC1Ev)
    i._ZN6Phonon26BackendCapabilitiesPrivateC1Ev.clean 0x00019860   Section       10  backendcapabilities.o(i._ZN6Phonon26BackendCapabilitiesPrivateC1Ev.clean)
    i._ZN6Phonon26BackendCapabilitiesPrivateD0Ev 0x0001986a   Section       24  backendcapabilities.o(i._ZN6Phonon26BackendCapabilitiesPrivateD0Ev)
    i._ZN6Phonon26BackendCapabilitiesPrivateD1Ev 0x00019882   Section       14  backendcapabilities.o(i._ZN6Phonon26BackendCapabilitiesPrivateD1Ev)
    i._ZN6Phonon27MediaNodeDestructionHandlerD0Ev 0x00019890   Section       18  abstractmediastream.o(i._ZN6Phonon27MediaNodeDestructionHandlerD0Ev)
    i._ZN6Phonon27MediaNodeDestructionHandlerD2Ev 0x000198a2   Section        2  abstractmediastream.o(i._ZN6Phonon27MediaNodeDestructionHandlerD2Ev)
    i._ZN6Phonon7Factory6SenderD0Ev          0x000198a4   Section       22  factory.o(i._ZN6Phonon7Factory6SenderD0Ev)
    i._ZN6Phonon7Factory6SenderD1Ev          0x000198ba   Section       14  factory.o(i._ZN6Phonon7Factory6SenderD1Ev)
    i._ZN6QDebug10maybeSpaceEv               0x000198c8   Section       24  audiooutput.o(i._ZN6QDebug10maybeSpaceEv)
    i._ZN6QDebugD1Ev                         0x000198e0   Section      144  audiooutput.o(i._ZN6QDebugD1Ev)
    i._ZN6QDebugD1Ev.clean                   0x00019970   Section       20  audiooutput.o(i._ZN6QDebugD1Ev.clean)
    i._ZN6QDebuglsEPKc                       0x00019984   Section       44  audiooutput.o(i._ZN6QDebuglsEPKc)
    i._ZN6QDebuglsEPKc.clean                 0x000199b0   Section       10  audiooutput.o(i._ZN6QDebuglsEPKc.clean)
    i._ZN6QDebuglsERK7QString                0x000199ba   Section       38  factory.o(i._ZN6QDebuglsERK7QString)
    i._ZN6QDebuglsEc                         0x000199e0   Section       22  path.o(i._ZN6QDebuglsEc)
    i._ZN6QDebuglsEi                         0x000199f6   Section       22  audiooutput.o(i._ZN6QDebuglsEi)
    i._ZN7QString4dataEv                     0x00019a0c   Section       40  factory.o(i._ZN7QString4dataEv)
    i._ZN7QStringC1ERK13QLatin1String        0x00019a34   Section       26  factory.o(i._ZN7QStringC1ERK13QLatin1String)
    i._ZN7QStringC1ERKS_                     0x00019a50   Section      124  audiooutput.o(i._ZN7QStringC1ERKS_)
    i._ZN7QStringC1Ev                        0x00019acc   Section       24  audiooutput.o(i._ZN7QStringC1Ev)
    i._ZN7QStringD1Ev                        0x00019ae4   Section       24  audiooutput.o(i._ZN7QStringD1Ev)
    i._ZN8QVariantC1Ev                       0x00019afc   Section       38  effect.o(i._ZN8QVariantC1Ev)
    i._ZN9QComboBox7addItemERK7QStringRK8QVariant 0x00019b22   Section       48  effectwidget.o(i._ZN9QComboBox7addItemERK7QStringRK8QVariant)
    i._ZN9QComboBox7addItemERK7QStringRK8QVariant.clean 0x00019b52   Section       10  effectwidget.o(i._ZN9QComboBox7addItemERK7QStringRK8QVariant.clean)
    i._ZN9QHashData8willGrowEv               0x00019b5c   Section       32  effectwidget.o(i._ZN9QHashData8willGrowEv)
    i._ZN9QMultiMapI7QStringS0_ED1Ev         0x00019b7c   Section       14  mediaobject.o(i._ZN9QMultiMapI7QStringS0_ED1Ev)
    i._ZNK10QByteArray7isEmptyEv             0x00019b8a   Section       18  audiooutput.o(i._ZNK10QByteArray7isEmptyEv)
    i._ZNK11QModelIndex7isValidEv            0x00019b9c   Section       28  objectdescriptionmodel.o(i._ZNK11QModelIndex7isValidEv)
    i._ZNK11QModelIndex7siblingEii           0x00019bb8   Section      158  objectdescriptionmodel.o(i._ZNK11QModelIndex7siblingEii)
    i._ZNK11QModelIndex7siblingEii.clean     0x00019c56   Section       38  objectdescriptionmodel.o(i._ZNK11QModelIndex7siblingEii.clean)
    i._ZNK14QStringBuilderI7QStringS0_EcvS0_Ev 0x00019c7c   Section       28  factory.o(i._ZNK14QStringBuilderI7QStringS0_EcvS0_Ev)
    i._ZNK14QStringBuilderI7QStringS0_EcvS0_Ev.clean 0x00019c98   Section       10  factory.o(i._ZNK14QStringBuilderI7QStringS0_EcvS0_Ev.clean)
    i._ZNK15QBasicAtomicInteqEi              0x00019ca2   Section       16  backendcapabilities.o(i._ZNK15QBasicAtomicInteqEi)
    i._ZNK15QBasicAtomicIntneEi              0x00019cb2   Section       16  audiodataoutput.o(i._ZNK15QBasicAtomicIntneEi)
    i._ZNK15QBasicAtomicIntntEv              0x00019cc2   Section       16  mediacontroller.o(i._ZNK15QBasicAtomicIntntEv)
    i._ZNK5QBoolcvPKvEv                      0x00019cd2   Section       16  path.o(i._ZNK5QBoolcvPKvEv)
    i._ZNK6Phonon14QSettingsGroup5valueERK7QStringRK8QVariant 0x00019ce2   Section       50  globalconfig.o(i._ZNK6Phonon14QSettingsGroup5valueERK7QStringRK8QVariant)
    i._ZNK6Phonon14QSettingsGroup5valueERK7QStringRK8QVariant.clean 0x00019d14   Section       10  globalconfig.o(i._ZNK6Phonon14QSettingsGroup5valueERK7QStringRK8QVariant.clean)
    i._ZNK6Phonon14QSettingsGroup6hasKeyERK7QString 0x00019d1e   Section       48  globalconfig.o(i._ZNK6Phonon14QSettingsGroup6hasKeyERK7QString)
    i._ZNK6Phonon14QSettingsGroup6hasKeyERK7QString.clean 0x00019d4e   Section       10  globalconfig.o(i._ZNK6Phonon14QSettingsGroup6hasKeyERK7QString.clean)
    i._ZNK6Phonon24ObjectDescriptionPrivateeqERKS0_ 0x00019d58   Section      256  objectdescription.o(i._ZNK6Phonon24ObjectDescriptionPrivateeqERKS0_)
    i._ZNK6Phonon24ObjectDescriptionPrivateeqERKS0_.clean 0x00019e58   Section       36  objectdescription.o(i._ZNK6Phonon24ObjectDescriptionPrivateeqERKS0_.clean)
    i._ZNK7QObject7connectEPKS_PKcS3_N2Qt14ConnectionTypeE 0x00019e7c   Section       30  audiooutput.o(i._ZNK7QObject7connectEPKS_PKcS3_N2Qt14ConnectionTypeE)
    i._ZNK7QString3argEiiiRK5QChar           0x00019e9a   Section       36  volumeslider.o(i._ZNK7QString3argEiiiRK5QChar)
    i._ZNK7QString7isEmptyEv                 0x00019ebe   Section       18  path.o(i._ZNK7QString7isEmptyEv)
    i._ZNK7QStringneERKS_                    0x00019ed0   Section       20  objectdescription.o(i._ZNK7QStringneERKS_)
    i._ZNK7QWidget13testAttributeEN2Qt15WidgetAttributeE 0x00019ee4   Section       40  seekslider.o(i._ZNK7QWidget13testAttributeEN2Qt15WidgetAttributeE)
    i._ZNK8QVariant7isValidEv                0x00019f0c   Section       18  globalconfig.o(i._ZNK8QVariant7isValidEv)
    i._ZNK9QListData2atEi                    0x00019f1e   Section       20  effectwidget.o(i._ZNK9QListData2atEi)
    i._ZNK9QListData3endEv                   0x00019f32   Section       16  backendcapabilities.o(i._ZNK9QListData3endEv)
    i._ZNK9QListData4sizeEv                  0x00019f42   Section       14  effectwidget.o(i._ZNK9QListData4sizeEv)
    i._ZNK9QListData5beginEv                 0x00019f50   Section       16  audiooutput.o(i._ZNK9QListData5beginEv)
    i._ZThn20_N6Phonon11VideoWidgetD0Ev      0x00019f60   Section       14  videowidget.o(i._ZThn20_N6Phonon11VideoWidgetD0Ev)
    i._ZThn20_N6Phonon11VideoWidgetD1Ev      0x00019f6e   Section       14  videowidget.o(i._ZThn20_N6Phonon11VideoWidgetD1Ev)
    i._ZThn28_N6Phonon18MediaObjectPrivateD0Ev 0x00019f7c   Section       14  mediaobject.o(i._ZThn28_N6Phonon18MediaObjectPrivateD0Ev)
    i._ZThn28_N6Phonon18MediaObjectPrivateD1Ev 0x00019f8a   Section       14  mediaobject.o(i._ZThn28_N6Phonon18MediaObjectPrivateD1Ev)
    i._ZThn8_N6Phonon11AudioOutputD0Ev       0x00019f98   Section       14  audiooutput.o(i._ZThn8_N6Phonon11AudioOutputD0Ev)
    i._ZThn8_N6Phonon11AudioOutputD1Ev       0x00019fa6   Section       18  audiooutput.o(i._ZThn8_N6Phonon11AudioOutputD1Ev)
    i._ZThn8_N6Phonon11VideoWidgetD0Ev       0x00019fb8   Section       14  videowidget.o(i._ZThn8_N6Phonon11VideoWidgetD0Ev)
    i._ZThn8_N6Phonon11VideoWidgetD1Ev       0x00019fc6   Section       14  videowidget.o(i._ZThn8_N6Phonon11VideoWidgetD1Ev)
    i._ZThn8_N6Phonon15AudioDataOutputD0Ev   0x00019fd4   Section       14  moc_audiodataoutput.o(i._ZThn8_N6Phonon15AudioDataOutputD0Ev)
    i._ZThn8_N6Phonon15AudioDataOutputD1Ev   0x00019fe2   Section       18  moc_audiodataoutput.o(i._ZThn8_N6Phonon15AudioDataOutputD1Ev)
    i._ZThn8_N6Phonon17VolumeFaderEffectD0Ev 0x00019ff4   Section       14  volumefadereffect.o(i._ZThn8_N6Phonon17VolumeFaderEffectD0Ev)
    i._ZThn8_N6Phonon17VolumeFaderEffectD1Ev 0x0001a002   Section       18  volumefadereffect.o(i._ZThn8_N6Phonon17VolumeFaderEffectD1Ev)
    i._ZdlPvS_                               0x0001a014   Section        2  audiodataoutput.o(i._ZdlPvS_)
    i._ZmiRK6QPointS1_                       0x0001a016   Section       28  swiftslider.o(i._ZmiRK6QPointS1_)
    i._ZnwjPv                                0x0001a032   Section        6  audiodataoutput.o(i._ZnwjPv)
    t._Z10qDeleteAllIN5QListIP7QObjectE14const_iteratorEEvT_S5_ 0x0001a038   Section       62  factory.o(t._Z10qDeleteAllIN5QListIP7QObjectE14const_iteratorEEvT_S5_)
    t._Z12qobject_castIPN6Phonon14PlatformPluginEET_P7QObject 0x0001a078   Section       28  factory.o(t._Z12qobject_castIPN6Phonon14PlatformPluginEET_P7QObject)
    t._Z12qobject_castIPN6Phonon15EffectInterfaceEET_P7QObject 0x0001a094   Section       28  effect.o(t._Z12qobject_castIPN6Phonon15EffectInterfaceEET_P7QObject)
    t._Z12qobject_castIPN6Phonon16BackendInterfaceEET_P7QObject 0x0001a0b0   Section       28  backendcapabilities.o(t._Z12qobject_castIPN6Phonon16BackendInterfaceEET_P7QObject)
    t._Z12qobject_castIPN6Phonon20MediaObjectInterfaceEET_P7QObject 0x0001a0cc   Section       28  mediaobject.o(t._Z12qobject_castIPN6Phonon20MediaObjectInterfaceEET_P7QObject)
    t._Z12qobject_castIPN6Phonon20VideoWidgetInterfaceEET_P7QObject 0x0001a0e8   Section       28  videowidget.o(t._Z12qobject_castIPN6Phonon20VideoWidgetInterfaceEET_P7QObject)
    t._Z12qobject_castIPN6Phonon20VolumeFaderInterfaceEET_P7QObject 0x0001a104   Section       28  volumefadereffect.o(t._Z12qobject_castIPN6Phonon20VolumeFaderInterfaceEET_P7QObject)
    t._Z12qobject_castIPN6Phonon22AudioOutputInterface40EET_P7QObject 0x0001a120   Section       28  audiooutput.o(t._Z12qobject_castIPN6Phonon22AudioOutputInterface40EET_P7QObject)
    t._Z12qobject_castIPN6Phonon22AudioOutputInterface42EET_P7QObject 0x0001a13c   Section       28  audiooutput.o(t._Z12qobject_castIPN6Phonon22AudioOutputInterface42EET_P7QObject)
    t._Z12qobject_castIPN6Phonon22VideoWidgetInterface44EET_P7QObject 0x0001a158   Section       28  videowidget.o(t._Z12qobject_castIPN6Phonon22VideoWidgetInterface44EET_P7QObject)
    t._Z17qRegisterMetaTypeI4QMapIN6Phonon15AudioDataOutput7ChannelE7QVectorIsEEEiPKcPT_ 0x0001a174   Section       64  audiodataoutput.o(t._Z17qRegisterMetaTypeI4QMapIN6Phonon15AudioDataOutput7ChannelE7QVectorIsEEEiPKcPT_)
    t._Z17qRegisterMetaTypeI5QListIN6Phonon17ObjectDescriptionILNS1_21ObjectDescriptionTypeE2EEEEEiPKcPT_ 0x0001a1b4   Section       64  mediacontroller.o(t._Z17qRegisterMetaTypeI5QListIN6Phonon17ObjectDescriptionILNS1_21ObjectDescriptionTypeE2EEEEEiPKcPT_)
    t._Z17qRegisterMetaTypeI5QListIN6Phonon17ObjectDescriptionILNS1_21ObjectDescriptionTypeE3EEEEEiPKcPT_ 0x0001a1f4   Section       64  mediacontroller.o(t._Z17qRegisterMetaTypeI5QListIN6Phonon17ObjectDescriptionILNS1_21ObjectDescriptionTypeE3EEEEEiPKcPT_)
    t._Z17qRegisterMetaTypeI5QListIiEEiPKcPT_ 0x0001a234   Section       64  globalconfig.o(t._Z17qRegisterMetaTypeI5QListIiEEiPKcPT_)
    t._Z17qRegisterMetaTypeIN6Phonon17ObjectDescriptionILNS0_21ObjectDescriptionTypeE2EEEEiPKcPT_ 0x0001a274   Section       64  mediacontroller.o(t._Z17qRegisterMetaTypeIN6Phonon17ObjectDescriptionILNS0_21ObjectDescriptionTypeE2EEEEiPKcPT_)
    t._Z17qRegisterMetaTypeIN6Phonon17ObjectDescriptionILNS0_21ObjectDescriptionTypeE3EEEEiPKcPT_ 0x0001a2b4   Section       64  mediacontroller.o(t._Z17qRegisterMetaTypeIN6Phonon17ObjectDescriptionILNS0_21ObjectDescriptionTypeE3EEEEiPKcPT_)
    t._Z17qRegisterMetaTypeIN6Phonon5StateEEiPKcPT_ 0x0001a2f4   Section       64  phononnamespace.o(t._Z17qRegisterMetaTypeIN6Phonon5StateEEiPKcPT_)
    t._Z17qRegisterMetaTypeIN6Phonon8CategoryEEiPKcPT_ 0x0001a334   Section       64  phononnamespace.o(t._Z17qRegisterMetaTypeIN6Phonon8CategoryEEiPKcPT_)
    t._Z17qRegisterMetaTypeIN6Phonon9ErrorTypeEEiPKcPT_ 0x0001a374   Section       64  phononnamespace.o(t._Z17qRegisterMetaTypeIN6Phonon9ErrorTypeEEiPKcPT_)
    t._Z17qVariantFromValueI5QListIiEE8QVariantRKT_ 0x0001a3b4   Section       30  globalconfig.o(t._Z17qVariantFromValueI5QListIiEE8QVariantRKT_)
    t._Z17qVariantFromValueIbE8QVariantRKT_  0x0001a3d2   Section       32  globalconfig.o(t._Z17qVariantFromValueIbE8QVariantRKT_)
    t._Z19qMetaTypeLoadHelperI5QListIiEEvR11QDataStreamPT_ 0x0001a3f2   Section       16  phononnamespace.o(t._Z19qMetaTypeLoadHelperI5QListIiEEvR11QDataStreamPT_)
    t._Z19qMetaTypeSaveHelperI5QListIiEEvR11QDataStreamPKT_ 0x0001a402   Section       16  phononnamespace.o(t._Z19qMetaTypeSaveHelperI5QListIiEEvR11QDataStreamPKT_)
    t._Z21qMetaTypeDeleteHelperI4QMapIN6Phonon15AudioDataOutput7ChannelE7QVectorIsEEEvPT_ 0x0001a412   Section       48  audiodataoutput.o(t._Z21qMetaTypeDeleteHelperI4QMapIN6Phonon15AudioDataOutput7ChannelE7QVectorIsEEEvPT_)
    t._Z21qMetaTypeDeleteHelperI5QListIN6Phonon17ObjectDescriptionILNS1_21ObjectDescriptionTypeE2EEEEEvPT_ 0x0001a442   Section       22  mediacontroller.o(t._Z21qMetaTypeDeleteHelperI5QListIN6Phonon17ObjectDescriptionILNS1_21ObjectDescriptionTypeE2EEEEEvPT_)
    t._Z21qMetaTypeDeleteHelperI5QListIN6Phonon17ObjectDescriptionILNS1_21ObjectDescriptionTypeE3EEEEEvPT_ 0x0001a458   Section       22  mediacontroller.o(t._Z21qMetaTypeDeleteHelperI5QListIN6Phonon17ObjectDescriptionILNS1_21ObjectDescriptionTypeE3EEEEEvPT_)
    t._Z21qMetaTypeDeleteHelperI5QListIiEEvPT_ 0x0001a46e   Section       22  globalconfig.o(t._Z21qMetaTypeDeleteHelperI5QListIiEEvPT_)
    t._Z21qMetaTypeDeleteHelperIN6Phonon17ObjectDescriptionILNS0_21ObjectDescriptionTypeE2EEEEvPT_ 0x0001a484   Section       22  mediacontroller.o(t._Z21qMetaTypeDeleteHelperIN6Phonon17ObjectDescriptionILNS0_21ObjectDescriptionTypeE2EEEEvPT_)
    t._Z21qMetaTypeDeleteHelperIN6Phonon17ObjectDescriptionILNS0_21ObjectDescriptionTypeE3EEEEvPT_ 0x0001a49a   Section       22  mediacontroller.o(t._Z21qMetaTypeDeleteHelperIN6Phonon17ObjectDescriptionILNS0_21ObjectDescriptionTypeE3EEEEvPT_)
    t._Z21qMetaTypeDeleteHelperIN6Phonon5StateEEvPT_ 0x0001a4b0   Section       12  phononnamespace.o(t._Z21qMetaTypeDeleteHelperIN6Phonon5StateEEvPT_)
    t._Z21qMetaTypeDeleteHelperIN6Phonon8CategoryEEvPT_ 0x0001a4bc   Section       12  phononnamespace.o(t._Z21qMetaTypeDeleteHelperIN6Phonon8CategoryEEvPT_)
    t._Z21qMetaTypeDeleteHelperIN6Phonon9ErrorTypeEEvPT_ 0x0001a4c8   Section       12  phononnamespace.o(t._Z21qMetaTypeDeleteHelperIN6Phonon9ErrorTypeEEvPT_)
    t._Z24qMetaTypeConstructHelperI4QMapIN6Phonon15AudioDataOutput7ChannelE7QVectorIsEEEPvPKT_ 0x0001a4d4   Section      148  audiodataoutput.o(t._Z24qMetaTypeConstructHelperI4QMapIN6Phonon15AudioDataOutput7ChannelE7QVectorIsEEEPvPKT_)
    t._Z24qMetaTypeConstructHelperI4QMapIN6Phonon15AudioDataOutput7ChannelE7QVectorIsEEEPvPKT_.clean 0x0001a568   Section       28  audiodataoutput.o(t._Z24qMetaTypeConstructHelperI4QMapIN6Phonon15AudioDataOutput7ChannelE7QVectorIsEEEPvPKT_.clean)
    t._Z24qMetaTypeConstructHelperI5QListIN6Phonon17ObjectDescriptionILNS1_21ObjectDescriptionTypeE2EEEEEPvPKT_ 0x0001a584   Section       80  mediacontroller.o(t._Z24qMetaTypeConstructHelperI5QListIN6Phonon17ObjectDescriptionILNS1_21ObjectDescriptionTypeE2EEEEEPvPKT_)
    t._Z24qMetaTypeConstructHelperI5QListIN6Phonon17ObjectDescriptionILNS1_21ObjectDescriptionTypeE2EEEEEPvPKT_.clean 0x0001a5d4   Section       28  mediacontroller.o(t._Z24qMetaTypeConstructHelperI5QListIN6Phonon17ObjectDescriptionILNS1_21ObjectDescriptionTypeE2EEEEEPvPKT_.clean)
    t._Z24qMetaTypeConstructHelperI5QListIN6Phonon17ObjectDescriptionILNS1_21ObjectDescriptionTypeE3EEEEEPvPKT_ 0x0001a5f0   Section       80  mediacontroller.o(t._Z24qMetaTypeConstructHelperI5QListIN6Phonon17ObjectDescriptionILNS1_21ObjectDescriptionTypeE3EEEEEPvPKT_)
    t._Z24qMetaTypeConstructHelperI5QListIN6Phonon17ObjectDescriptionILNS1_21ObjectDescriptionTypeE3EEEEEPvPKT_.clean 0x0001a640   Section       28  mediacontroller.o(t._Z24qMetaTypeConstructHelperI5QListIN6Phonon17ObjectDescriptionILNS1_21ObjectDescriptionTypeE3EEEEEPvPKT_.clean)
    t._Z24qMetaTypeConstructHelperI5QListIiEEPvPKT_ 0x0001a65c   Section       80  globalconfig.o(t._Z24qMetaTypeConstructHelperI5QListIiEEPvPKT_)
    t._Z24qMetaTypeConstructHelperI5QListIiEEPvPKT_.clean 0x0001a6ac   Section       28  globalconfig.o(t._Z24qMetaTypeConstructHelperI5QListIiEEPvPKT_.clean)
    t._Z24qMetaTypeConstructHelperIN6Phonon17ObjectDescriptionILNS0_21ObjectDescriptionTypeE2EEEEPvPKT_ 0x0001a6c8   Section       80  mediacontroller.o(t._Z24qMetaTypeConstructHelperIN6Phonon17ObjectDescriptionILNS0_21ObjectDescriptionTypeE2EEEEPvPKT_)
    t._Z24qMetaTypeConstructHelperIN6Phonon17ObjectDescriptionILNS0_21ObjectDescriptionTypeE2EEEEPvPKT_.clean 0x0001a718   Section       28  mediacontroller.o(t._Z24qMetaTypeConstructHelperIN6Phonon17ObjectDescriptionILNS0_21ObjectDescriptionTypeE2EEEEPvPKT_.clean)
    t._Z24qMetaTypeConstructHelperIN6Phonon17ObjectDescriptionILNS0_21ObjectDescriptionTypeE3EEEEPvPKT_ 0x0001a734   Section       80  mediacontroller.o(t._Z24qMetaTypeConstructHelperIN6Phonon17ObjectDescriptionILNS0_21ObjectDescriptionTypeE3EEEEPvPKT_)
    t._Z24qMetaTypeConstructHelperIN6Phonon17ObjectDescriptionILNS0_21ObjectDescriptionTypeE3EEEEPvPKT_.clean 0x0001a784   Section       28  mediacontroller.o(t._Z24qMetaTypeConstructHelperIN6Phonon17ObjectDescriptionILNS0_21ObjectDescriptionTypeE3EEEEPvPKT_.clean)
    t._Z24qMetaTypeConstructHelperIN6Phonon5StateEEPvPKT_ 0x0001a7a0   Section       50  phononnamespace.o(t._Z24qMetaTypeConstructHelperIN6Phonon5StateEEPvPKT_)
    t._Z24qMetaTypeConstructHelperIN6Phonon8CategoryEEPvPKT_ 0x0001a7d2   Section       50  phononnamespace.o(t._Z24qMetaTypeConstructHelperIN6Phonon8CategoryEEPvPKT_)
    t._Z24qMetaTypeConstructHelperIN6Phonon9ErrorTypeEEPvPKT_ 0x0001a804   Section       50  phononnamespace.o(t._Z24qMetaTypeConstructHelperIN6Phonon9ErrorTypeEEPvPKT_)
    t._Z32qRegisterMetaTypeStreamOperatorsI5QListIiEEvPKcPT_ 0x0001a838   Section       40  phononnamespace.o(t._Z32qRegisterMetaTypeStreamOperatorsI5QListIiEEvPKcPT_)
    t._ZN12QMetaTypeId2I5QListIN6Phonon17ObjectDescriptionILNS1_21ObjectDescriptionTypeE2EEEEE14qt_metatype_idEv 0x0001a860   Section       88  mediacontroller.o(t._ZN12QMetaTypeId2I5QListIN6Phonon17ObjectDescriptionILNS1_21ObjectDescriptionTypeE2EEEEE14qt_metatype_idEv)
    t._ZN12QMetaTypeId2I5QListIN6Phonon17ObjectDescriptionILNS1_21ObjectDescriptionTypeE3EEEEE14qt_metatype_idEv 0x0001a8b8   Section       84  mediacontroller.o(t._ZN12QMetaTypeId2I5QListIN6Phonon17ObjectDescriptionILNS1_21ObjectDescriptionTypeE3EEEEE14qt_metatype_idEv)
    t._ZN12QMetaTypeId2I5QListIiEE14qt_metatype_idEv 0x0001a90c   Section       60  phononnamespace.o(t._ZN12QMetaTypeId2I5QListIiEE14qt_metatype_idEv)
    t._ZN12QMetaTypeId2IN6Phonon17ObjectDescriptionILNS0_21ObjectDescriptionTypeE2EEEE14qt_metatype_idEv 0x0001a948   Section       80  mediacontroller.o(t._ZN12QMetaTypeId2IN6Phonon17ObjectDescriptionILNS0_21ObjectDescriptionTypeE2EEEE14qt_metatype_idEv)
    t._ZN12QMetaTypeId2IN6Phonon17ObjectDescriptionILNS0_21ObjectDescriptionTypeE3EEEE14qt_metatype_idEv 0x0001a998   Section       76  mediacontroller.o(t._ZN12QMetaTypeId2IN6Phonon17ObjectDescriptionILNS0_21ObjectDescriptionTypeE3EEEE14qt_metatype_idEv)
    t._ZN12QMetaTypeId2IN6Phonon5StateEE14qt_metatype_idEv 0x0001a9e4   Section       64  phononnamespace.o(t._ZN12QMetaTypeId2IN6Phonon5StateEE14qt_metatype_idEv)
    t._ZN12QMetaTypeId2IN6Phonon8CategoryEE14qt_metatype_idEv 0x0001aa24   Section       68  phononnamespace.o(t._ZN12QMetaTypeId2IN6Phonon8CategoryEE14qt_metatype_idEv)
    t._ZN12QMetaTypeId2IN6Phonon9ErrorTypeEE14qt_metatype_idEv 0x0001aa68   Section       68  phononnamespace.o(t._ZN12QMetaTypeId2IN6Phonon9ErrorTypeEE14qt_metatype_idEv)
    t._ZN14QScopedPointerIN6Phonon26AbstractMediaStreamPrivateE21QScopedPointerDeleterIS1_EED1Ev 0x0001aaac   Section       28  abstractmediastream.o(t._ZN14QScopedPointerIN6Phonon26AbstractMediaStreamPrivateE21QScopedPointerDeleterIS1_EED1Ev)
    t._ZN20QMutableListIteratorIiE4nextEv    0x0001aac8   Section       36  globalconfig.o(t._ZN20QMutableListIteratorIiE4nextEv)
    t._ZN20QMutableListIteratorIiE6removeEv  0x0001aaec   Section      108  globalconfig.o(t._ZN20QMutableListIteratorIiE6removeEv)
    t._ZN20QMutableListIteratorIiEC1ER5QListIiE 0x0001ab58   Section       60  globalconfig.o(t._ZN20QMutableListIteratorIiEC1ER5QListIiE)
    t._ZN20QMutableListIteratorIiED1Ev       0x0001ab94   Section       16  globalconfig.o(t._ZN20QMutableListIteratorIiED1Ev)
    t._ZN28QExplicitlySharedDataPointerIN6Phonon11PathPrivateEED1Ev 0x0001aba4   Section       42  path.o(t._ZN28QExplicitlySharedDataPointerIN6Phonon11PathPrivateEED1Ev)
    t._ZN28QExplicitlySharedDataPointerIN6Phonon18MediaSourcePrivateEEC1EPS1_ 0x0001abce   Section       26  mediasource.o(t._ZN28QExplicitlySharedDataPointerIN6Phonon18MediaSourcePrivateEEC1EPS1_)
    t._ZN28QExplicitlySharedDataPointerIN6Phonon18MediaSourcePrivateEED1Ev 0x0001abe8   Section       42  mediasource.o(t._ZN28QExplicitlySharedDataPointerIN6Phonon18MediaSourcePrivateEED1Ev)
    t._ZN28QExplicitlySharedDataPointerIN6Phonon21ObjectDescriptionDataEEC1EPS1_ 0x0001ac12   Section       24  audiooutput.o(t._ZN28QExplicitlySharedDataPointerIN6Phonon21ObjectDescriptionDataEEC1EPS1_)
    t._ZN28QExplicitlySharedDataPointerIN6Phonon21ObjectDescriptionDataEEC1ERKS2_ 0x0001ac2a   Section       26  audiooutput.o(t._ZN28QExplicitlySharedDataPointerIN6Phonon21ObjectDescriptionDataEEC1ERKS2_)
    t._ZN28QExplicitlySharedDataPointerIN6Phonon21ObjectDescriptionDataEED1Ev 0x0001ac44   Section       42  audiooutput.o(t._ZN28QExplicitlySharedDataPointerIN6Phonon21ObjectDescriptionDataEED1Ev)
    t._ZN28QExplicitlySharedDataPointerIN6Phonon22EffectParameterPrivateEEC1EPS1_ 0x0001ac6e   Section       24  effectparameter.o(t._ZN28QExplicitlySharedDataPointerIN6Phonon22EffectParameterPrivateEEC1EPS1_)
    t._ZN28QExplicitlySharedDataPointerIN6Phonon22EffectParameterPrivateEED1Ev 0x0001ac86   Section       42  effectparameter.o(t._ZN28QExplicitlySharedDataPointerIN6Phonon22EffectParameterPrivateEED1Ev)
    t._ZN4QMapI7QStringS0_E11node_createEP8QMapDataPPNS2_4NodeERKS0_S8_ 0x0001acb0   Section      140  mediaobject.o(t._ZN4QMapI7QStringS0_E11node_createEP8QMapDataPPNS2_4NodeERKS0_S8_)
    t._ZN4QMapI7QStringS0_E11node_createEP8QMapDataPPNS2_4NodeERKS0_S8_.clean 0x0001ad3c   Section       38  mediaobject.o(t._ZN4QMapI7QStringS0_E11node_createEP8QMapDataPPNS2_4NodeERKS0_S8_.clean)
    t._ZN4QMapI7QStringS0_E13detach_helperEv 0x0001ad62   Section      146  mediaobject.o(t._ZN4QMapI7QStringS0_E13detach_helperEv)
    t._ZN4QMapI7QStringS0_E13detach_helperEv.clean 0x0001adf4   Section        8  mediaobject.o(t._ZN4QMapI7QStringS0_E13detach_helperEv.clean)
    t._ZN4QMapI7QStringS0_E8freeDataEP8QMapData 0x0001adfc   Section       62  mediaobject.o(t._ZN4QMapI7QStringS0_E8freeDataEP8QMapData)
    t._ZN4QMapI7QStringS0_ED1Ev              0x0001ae3a   Section       38  mediaobject.o(t._ZN4QMapI7QStringS0_ED1Ev)
    t._ZN4QMapIN6Phonon15AudioDataOutput7ChannelE7QVectorIsEE11node_createEP8QMapDataPPNS6_4NodeERKS2_RKS4_ 0x0001ae60   Section      150  audiodataoutput.o(t._ZN4QMapIN6Phonon15AudioDataOutput7ChannelE7QVectorIsEE11node_createEP8QMapDataPPNS6_4NodeERKS2_RKS4_)
    t._ZN4QMapIN6Phonon15AudioDataOutput7ChannelE7QVectorIsEE11node_createEP8QMapDataPPNS6_4NodeERKS2_RKS4_.clean 0x0001aef6   Section       28  audiodataoutput.o(t._ZN4QMapIN6Phonon15AudioDataOutput7ChannelE7QVectorIsEE11node_createEP8QMapDataPPNS6_4NodeERKS2_RKS4_.clean)
    t._ZN4QMapIN6Phonon15AudioDataOutput7ChannelE7QVectorIsEE13detach_helperEv 0x0001af12   Section      146  audiodataoutput.o(t._ZN4QMapIN6Phonon15AudioDataOutput7ChannelE7QVectorIsEE13detach_helperEv)
    t._ZN4QMapIN6Phonon15AudioDataOutput7ChannelE7QVectorIsEE13detach_helperEv.clean 0x0001afa4   Section        8  audiodataoutput.o(t._ZN4QMapIN6Phonon15AudioDataOutput7ChannelE7QVectorIsEE13detach_helperEv.clean)
    t._ZN4QMapIN6Phonon15AudioDataOutput7ChannelE7QVectorIsEE8freeDataEP8QMapData 0x0001afac   Section       84  audiodataoutput.o(t._ZN4QMapIN6Phonon15AudioDataOutput7ChannelE7QVectorIsEE8freeDataEP8QMapData)
    t._ZN4QSetIP7QObjectEC1ERKS2_            0x0001b000   Section       42  path.o(t._ZN4QSetIP7QObjectEC1ERKS2_)
    t._ZN4QSetIP7QObjectElsERKS1_            0x0001b02a   Section       50  path.o(t._ZN4QSetIP7QObjectElsERKS1_)
    t._ZN5QHashI10QByteArray8QVariantE11deleteNode2EPN9QHashData4NodeE 0x0001b05c   Section       36  globalconfig.o(t._ZN5QHashI10QByteArray8QVariantE11deleteNode2EPN9QHashData4NodeE)
    t._ZN5QHashI10QByteArray8QVariantE11deleteNode2EPN9QHashData4NodeE.clean 0x0001b080   Section       12  globalconfig.o(t._ZN5QHashI10QByteArray8QVariantE11deleteNode2EPN9QHashData4NodeE.clean)
    t._ZN5QHashI10QByteArray8QVariantE13detach_helperEv 0x0001b08c   Section       60  globalconfig.o(t._ZN5QHashI10QByteArray8QVariantE13detach_helperEv)
    t._ZN5QHashI10QByteArray8QVariantE13duplicateNodeEPN9QHashData4NodeEPv 0x0001b0c8   Section       76  globalconfig.o(t._ZN5QHashI10QByteArray8QVariantE13duplicateNodeEPN9QHashData4NodeEPv)
    t._ZN5QHashI10QByteArray8QVariantE13duplicateNodeEPN9QHashData4NodeEPv.clean 0x0001b114   Section       26  globalconfig.o(t._ZN5QHashI10QByteArray8QVariantE13duplicateNodeEPN9QHashData4NodeEPv.clean)
    t._ZN5QHashI10QByteArray8QVariantE8freeDataEP9QHashData 0x0001b130   Section       20  globalconfig.o(t._ZN5QHashI10QByteArray8QVariantE8freeDataEP9QHashData)
    t._ZN5QHashI10QByteArray8QVariantED1Ev   0x0001b144   Section       30  globalconfig.o(t._ZN5QHashI10QByteArray8QVariantED1Ev)
    t._ZN5QHashI10QByteArray8QVariantEaSERKS2_ 0x0001b162   Section       70  globalconfig.o(t._ZN5QHashI10QByteArray8QVariantEaSERKS2_)
    t._ZN5QHashIN6Phonon15EffectParameterE8QVariantE11deleteNode2EPN9QHashData4NodeE 0x0001b1a8   Section       36  effect.o(t._ZN5QHashIN6Phonon15EffectParameterE8QVariantE11deleteNode2EPN9QHashData4NodeE)
    t._ZN5QHashIN6Phonon15EffectParameterE8QVariantE11deleteNode2EPN9QHashData4NodeE.clean 0x0001b1cc   Section       12  effect.o(t._ZN5QHashIN6Phonon15EffectParameterE8QVariantE11deleteNode2EPN9QHashData4NodeE.clean)
    t._ZN5QHashIN6Phonon15EffectParameterE8QVariantE13detach_helperEv 0x0001b1d8   Section       60  effect.o(t._ZN5QHashIN6Phonon15EffectParameterE8QVariantE13detach_helperEv)
    t._ZN5QHashIN6Phonon15EffectParameterE8QVariantE13duplicateNodeEPN9QHashData4NodeEPv 0x0001b214   Section       48  effect.o(t._ZN5QHashIN6Phonon15EffectParameterE8QVariantE13duplicateNodeEPN9QHashData4NodeEPv)
    t._ZN5QHashIN6Phonon15EffectParameterE8QVariantE13duplicateNodeEPN9QHashData4NodeEPv.clean 0x0001b244   Section       14  effect.o(t._ZN5QHashIN6Phonon15EffectParameterE8QVariantE13duplicateNodeEPN9QHashData4NodeEPv.clean)
    t._ZN5QHashIN6Phonon15EffectParameterE8QVariantE8freeDataEP9QHashData 0x0001b254   Section       20  effect.o(t._ZN5QHashIN6Phonon15EffectParameterE8QVariantE8freeDataEP9QHashData)
    t._ZN5QHashIN6Phonon15EffectParameterE8QVariantED1Ev 0x0001b268   Section       30  effect.o(t._ZN5QHashIN6Phonon15EffectParameterE8QVariantED1Ev)
    t._ZN5QHashIN6Phonon15EffectParameterE8QVariantEixERKS1_ 0x0001b286   Section      242  effect.o(t._ZN5QHashIN6Phonon15EffectParameterE8QVariantEixERKS1_)
    t._ZN5QHashIN6Phonon15EffectParameterE8QVariantEixERKS1_.clean 0x0001b378   Section       24  effect.o(t._ZN5QHashIN6Phonon15EffectParameterE8QVariantEixERKS1_.clean)
    t._ZN5QHashIP7QObject15QHashDummyValueE11deleteNode2EPN9QHashData4NodeE 0x0001b390   Section        6  path.o(t._ZN5QHashIP7QObject15QHashDummyValueE11deleteNode2EPN9QHashData4NodeE)
    t._ZN5QHashIP7QObject15QHashDummyValueE13detach_helperEv 0x0001b398   Section       60  path.o(t._ZN5QHashIP7QObject15QHashDummyValueE13detach_helperEv)
    t._ZN5QHashIP7QObject15QHashDummyValueE13duplicateNodeEPN9QHashData4NodeEPv 0x0001b3d4   Section       42  path.o(t._ZN5QHashIP7QObject15QHashDummyValueE13duplicateNodeEPN9QHashData4NodeEPv)
    t._ZN5QHashIP7QObject15QHashDummyValueE6detachEv 0x0001b3fe   Section       28  path.o(t._ZN5QHashIP7QObject15QHashDummyValueE6detachEv)
    t._ZN5QHashIP7QObject15QHashDummyValueE6insertERKS1_RKS2_ 0x0001b41a   Section      192  path.o(t._ZN5QHashIP7QObject15QHashDummyValueE6insertERKS1_RKS2_)
    t._ZN5QHashIP7QObject15QHashDummyValueE6insertERKS1_RKS2_.clean 0x0001b4da   Section        4  path.o(t._ZN5QHashIP7QObject15QHashDummyValueE6insertERKS1_RKS2_.clean)
    t._ZN5QHashIP7QObject15QHashDummyValueE8freeDataEP9QHashData 0x0001b4e0   Section       20  path.o(t._ZN5QHashIP7QObject15QHashDummyValueE8freeDataEP9QHashData)
    t._ZN5QHashIP7QObject15QHashDummyValueED1Ev 0x0001b4f4   Section       30  path.o(t._ZN5QHashIP7QObject15QHashDummyValueED1Ev)
    t._ZN5QHashIP7QObjectN6Phonon15EffectParameterEE10createNodeEjRKS1_RKS3_PP9QHashNodeIS1_S3_E 0x0001b512   Section      100  effectwidget.o(t._ZN5QHashIP7QObjectN6Phonon15EffectParameterEE10createNodeEjRKS1_RKS3_PP9QHashNodeIS1_S3_E)
    t._ZN5QHashIP7QObjectN6Phonon15EffectParameterEE10createNodeEjRKS1_RKS3_PP9QHashNodeIS1_S3_E.clean 0x0001b576   Section       14  effectwidget.o(t._ZN5QHashIP7QObjectN6Phonon15EffectParameterEE10createNodeEjRKS1_RKS3_PP9QHashNodeIS1_S3_E.clean)
    t._ZN5QHashIP7QObjectN6Phonon15EffectParameterEE11deleteNode2EPN9QHashData4NodeE 0x0001b584   Section       24  effectwidget.o(t._ZN5QHashIP7QObjectN6Phonon15EffectParameterEE11deleteNode2EPN9QHashData4NodeE)
    t._ZN5QHashIP7QObjectN6Phonon15EffectParameterEE13detach_helperEv 0x0001b59c   Section       60  effectwidget.o(t._ZN5QHashIP7QObjectN6Phonon15EffectParameterEE13detach_helperEv)
    t._ZN5QHashIP7QObjectN6Phonon15EffectParameterEE13duplicateNodeEPN9QHashData4NodeEPv 0x0001b5d8   Section       46  effectwidget.o(t._ZN5QHashIP7QObjectN6Phonon15EffectParameterEE13duplicateNodeEPN9QHashData4NodeEPv)
    t._ZN5QHashIP7QObjectN6Phonon15EffectParameterEE13duplicateNodeEPN9QHashData4NodeEPv.clean 0x0001b606   Section       14  effectwidget.o(t._ZN5QHashIP7QObjectN6Phonon15EffectParameterEE13duplicateNodeEPN9QHashData4NodeEPv.clean)
    t._ZN5QHashIP7QObjectN6Phonon15EffectParameterEE6detachEv 0x0001b614   Section       34  effectwidget.o(t._ZN5QHashIP7QObjectN6Phonon15EffectParameterEE6detachEv)
    t._ZN5QHashIP7QObjectN6Phonon15EffectParameterEE8freeDataEP9QHashData 0x0001b638   Section       20  effectwidget.o(t._ZN5QHashIP7QObjectN6Phonon15EffectParameterEE8freeDataEP9QHashData)
    t._ZN5QHashIP7QObjectN6Phonon15EffectParameterEED1Ev 0x0001b64c   Section       30  effectwidget.o(t._ZN5QHashIP7QObjectN6Phonon15EffectParameterEED1Ev)
    t._ZN5QHashIP7QObjectN6Phonon15EffectParameterEEixERKS1_ 0x0001b66a   Section      106  effectwidget.o(t._ZN5QHashIP7QObjectN6Phonon15EffectParameterEEixERKS1_)
    t._ZN5QHashIP7QObjectN6Phonon15EffectParameterEEixERKS1_.clean 0x0001b6d4   Section       10  effectwidget.o(t._ZN5QHashIP7QObjectN6Phonon15EffectParameterEEixERKS1_.clean)
    t._ZN5QHashIi15QHashDummyValueE11deleteNode2EPN9QHashData4NodeE 0x0001b6de   Section        6  globalconfig.o(t._ZN5QHashIi15QHashDummyValueE11deleteNode2EPN9QHashData4NodeE)
    t._ZN5QHashIi15QHashDummyValueE13detach_helperEv 0x0001b6e4   Section       60  globalconfig.o(t._ZN5QHashIi15QHashDummyValueE13detach_helperEv)
    t._ZN5QHashIi15QHashDummyValueE13duplicateNodeEPN9QHashData4NodeEPv 0x0001b720   Section       36  globalconfig.o(t._ZN5QHashIi15QHashDummyValueE13duplicateNodeEPN9QHashData4NodeEPv)
    t._ZN5QHashIi15QHashDummyValueE6insertERKiRKS0_ 0x0001b744   Section      206  globalconfig.o(t._ZN5QHashIi15QHashDummyValueE6insertERKiRKS0_)
    t._ZN5QHashIi15QHashDummyValueE6insertERKiRKS0_.clean 0x0001b812   Section        4  globalconfig.o(t._ZN5QHashIi15QHashDummyValueE6insertERKiRKS0_.clean)
    t._ZN5QHashIi15QHashDummyValueE8freeDataEP9QHashData 0x0001b818   Section       20  globalconfig.o(t._ZN5QHashIi15QHashDummyValueE8freeDataEP9QHashData)
    t._ZN5QHashIi15QHashDummyValueED1Ev      0x0001b82c   Section       30  globalconfig.o(t._ZN5QHashIi15QHashDummyValueED1Ev)
    t._ZN5QListI10QByteArrayE13detach_helperEi 0x0001b84a   Section       94  objectdescription.o(t._ZN5QListI10QByteArrayE13detach_helperEi)
    t._ZN5QListI10QByteArrayE13detach_helperEi.clean 0x0001b8a8   Section        8  objectdescription.o(t._ZN5QListI10QByteArrayE13detach_helperEi.clean)
    t._ZN5QListI10QByteArrayE13node_destructEPNS1_4NodeES3_ 0x0001b8b0   Section       26  objectdescription.o(t._ZN5QListI10QByteArrayE13node_destructEPNS1_4NodeES3_)
    t._ZN5QListI10QByteArrayE14node_constructEPNS1_4NodeERKS0_ 0x0001b8ca   Section       36  objectdescription.o(t._ZN5QListI10QByteArrayE14node_constructEPNS1_4NodeERKS0_)
    t._ZN5QListI10QByteArrayE14node_constructEPNS1_4NodeERKS0_.clean 0x0001b8ee   Section       14  objectdescription.o(t._ZN5QListI10QByteArrayE14node_constructEPNS1_4NodeERKS0_.clean)
    t._ZN5QListI10QByteArrayE18detach_helper_growEii 0x0001b8fc   Section      208  objectdescription.o(t._ZN5QListI10QByteArrayE18detach_helper_growEii)
    t._ZN5QListI10QByteArrayE18detach_helper_growEii.clean 0x0001b9cc   Section       16  objectdescription.o(t._ZN5QListI10QByteArrayE18detach_helper_growEii.clean)
    t._ZN5QListI10QByteArrayE4freeEPN9QListData4DataE 0x0001b9dc   Section       58  objectdescription.o(t._ZN5QListI10QByteArrayE4freeEPN9QListData4DataE)
    t._ZN5QListI10QByteArrayE6appendERKS0_   0x0001ba18   Section      120  objectdescription.o(t._ZN5QListI10QByteArrayE6appendERKS0_)
    t._ZN5QListI10QByteArrayE6appendERKS0_.clean 0x0001ba90   Section       14  objectdescription.o(t._ZN5QListI10QByteArrayE6appendERKS0_.clean)
    t._ZN5QListI10QByteArrayE7reserveEi      0x0001ba9e   Section       46  objectdescription.o(t._ZN5QListI10QByteArrayE7reserveEi)
    t._ZN5QListI10QByteArrayE9node_copyEPNS1_4NodeES3_S3_ 0x0001bacc   Section       82  objectdescription.o(t._ZN5QListI10QByteArrayE9node_copyEPNS1_4NodeES3_S3_)
    t._ZN5QListI10QByteArrayE9node_copyEPNS1_4NodeES3_S3_.clean 0x0001bb1e   Section       22  objectdescription.o(t._ZN5QListI10QByteArrayE9node_copyEPNS1_4NodeES3_S3_.clean)
    t._ZN5QListI10QByteArrayEC1Ev            0x0001bb34   Section       24  objectdescription.o(t._ZN5QListI10QByteArrayEC1Ev)
    t._ZN5QListI10QByteArrayED1Ev            0x0001bb4c   Section       32  objectdescription.o(t._ZN5QListI10QByteArrayED1Ev)
    t._ZN5QListI11QModelIndexE13node_destructEPNS1_4NodeES3_ 0x0001bb6c   Section       38  objectdescriptionmodel.o(t._ZN5QListI11QModelIndexE13node_destructEPNS1_4NodeES3_)
    t._ZN5QListI11QModelIndexE14node_constructEPNS1_4NodeERKS0_ 0x0001bb92   Section       34  objectdescriptionmodel.o(t._ZN5QListI11QModelIndexE14node_constructEPNS1_4NodeERKS0_)
    t._ZN5QListI11QModelIndexE14node_constructEPNS1_4NodeERKS0_.clean 0x0001bbb4   Section       14  objectdescriptionmodel.o(t._ZN5QListI11QModelIndexE14node_constructEPNS1_4NodeERKS0_.clean)
    t._ZN5QListI11QModelIndexE18detach_helper_growEii 0x0001bbc2   Section      208  objectdescriptionmodel.o(t._ZN5QListI11QModelIndexE18detach_helper_growEii)
    t._ZN5QListI11QModelIndexE18detach_helper_growEii.clean 0x0001bc92   Section       16  objectdescriptionmodel.o(t._ZN5QListI11QModelIndexE18detach_helper_growEii.clean)
    t._ZN5QListI11QModelIndexE4freeEPN9QListData4DataE 0x0001bca2   Section       52  objectdescriptionmodel.o(t._ZN5QListI11QModelIndexE4freeEPN9QListData4DataE)
    t._ZN5QListI11QModelIndexE6appendERKS0_  0x0001bcd8   Section      112  objectdescriptionmodel.o(t._ZN5QListI11QModelIndexE6appendERKS0_)
    t._ZN5QListI11QModelIndexE6appendERKS0_.clean 0x0001bd48   Section       14  objectdescriptionmodel.o(t._ZN5QListI11QModelIndexE6appendERKS0_.clean)
    t._ZN5QListI11QModelIndexE9node_copyEPNS1_4NodeES3_S3_ 0x0001bd56   Section       92  objectdescriptionmodel.o(t._ZN5QListI11QModelIndexE9node_copyEPNS1_4NodeES3_S3_)
    t._ZN5QListI11QModelIndexE9node_copyEPNS1_4NodeES3_S3_.clean 0x0001bdb2   Section       22  objectdescriptionmodel.o(t._ZN5QListI11QModelIndexE9node_copyEPNS1_4NodeES3_S3_.clean)
    t._ZN5QListI11QModelIndexEC1Ev           0x0001bdc8   Section       24  objectdescriptionmodel.o(t._ZN5QListI11QModelIndexEC1Ev)
    t._ZN5QListI11QModelIndexED1Ev           0x0001bde0   Section       32  objectdescriptionmodel.o(t._ZN5QListI11QModelIndexED1Ev)
    t._ZN5QListI11QModelIndexElsERKS0_       0x0001be00   Section       18  objectdescriptionmodel.o(t._ZN5QListI11QModelIndexElsERKS0_)
    t._ZN5QListI28QExplicitlySharedDataPointerIN6Phonon21ObjectDescriptionDataEEE13detach_helperEi 0x0001be12   Section       94  objectdescriptionmodel.o(t._ZN5QListI28QExplicitlySharedDataPointerIN6Phonon21ObjectDescriptionDataEEE13detach_helperEi)
    t._ZN5QListI28QExplicitlySharedDataPointerIN6Phonon21ObjectDescriptionDataEEE13detach_helperEi.clean 0x0001be70   Section        8  objectdescriptionmodel.o(t._ZN5QListI28QExplicitlySharedDataPointerIN6Phonon21ObjectDescriptionDataEEE13detach_helperEi.clean)
    t._ZN5QListI28QExplicitlySharedDataPointerIN6Phonon21ObjectDescriptionDataEEE13detach_helperEv 0x0001be78   Section       16  objectdescriptionmodel.o(t._ZN5QListI28QExplicitlySharedDataPointerIN6Phonon21ObjectDescriptionDataEEE13detach_helperEv)
    t._ZN5QListI28QExplicitlySharedDataPointerIN6Phonon21ObjectDescriptionDataEEE13node_destructEPNS4_4NodeE 0x0001be88   Section       28  objectdescriptionmodel.o(t._ZN5QListI28QExplicitlySharedDataPointerIN6Phonon21ObjectDescriptionDataEEE13node_destructEPNS4_4NodeE)
    t._ZN5QListI28QExplicitlySharedDataPointerIN6Phonon21ObjectDescriptionDataEEE13node_destructEPNS4_4NodeES6_ 0x0001bea4   Section       38  objectdescriptionmodel.o(t._ZN5QListI28QExplicitlySharedDataPointerIN6Phonon21ObjectDescriptionDataEEE13node_destructEPNS4_4NodeES6_)
    t._ZN5QListI28QExplicitlySharedDataPointerIN6Phonon21ObjectDescriptionDataEEE14node_constructEPNS4_4NodeERKS3_ 0x0001beca   Section       34  objectdescriptionmodel.o(t._ZN5QListI28QExplicitlySharedDataPointerIN6Phonon21ObjectDescriptionDataEEE14node_constructEPNS4_4NodeERKS3_)
    t._ZN5QListI28QExplicitlySharedDataPointerIN6Phonon21ObjectDescriptionDataEEE14node_constructEPNS4_4NodeERKS3_.clean 0x0001beec   Section       14  objectdescriptionmodel.o(t._ZN5QListI28QExplicitlySharedDataPointerIN6Phonon21ObjectDescriptionDataEEE14node_constructEPNS4_4NodeERKS3_.clean)
    t._ZN5QListI28QExplicitlySharedDataPointerIN6Phonon21ObjectDescriptionDataEEE18detach_helper_growEii 0x0001befa   Section      208  objectdescriptionmodel.o(t._ZN5QListI28QExplicitlySharedDataPointerIN6Phonon21ObjectDescriptionDataEEE18detach_helper_growEii)
    t._ZN5QListI28QExplicitlySharedDataPointerIN6Phonon21ObjectDescriptionDataEEE18detach_helper_growEii.clean 0x0001bfca   Section       16  objectdescriptionmodel.o(t._ZN5QListI28QExplicitlySharedDataPointerIN6Phonon21ObjectDescriptionDataEEE18detach_helper_growEii.clean)
    t._ZN5QListI28QExplicitlySharedDataPointerIN6Phonon21ObjectDescriptionDataEEE4freeEPN9QListData4DataE 0x0001bfda   Section       52  objectdescriptionmodel.o(t._ZN5QListI28QExplicitlySharedDataPointerIN6Phonon21ObjectDescriptionDataEEE4freeEPN9QListData4DataE)
    t._ZN5QListI28QExplicitlySharedDataPointerIN6Phonon21ObjectDescriptionDataEEE4swapEii 0x0001c010   Section      220  objectdescriptionmodel.o(t._ZN5QListI28QExplicitlySharedDataPointerIN6Phonon21ObjectDescriptionDataEEE4swapEii)
    t._ZN5QListI28QExplicitlySharedDataPointerIN6Phonon21ObjectDescriptionDataEEE6appendERKS3_ 0x0001c0ec   Section      112  objectdescriptionmodel.o(t._ZN5QListI28QExplicitlySharedDataPointerIN6Phonon21ObjectDescriptionDataEEE6appendERKS3_)
    t._ZN5QListI28QExplicitlySharedDataPointerIN6Phonon21ObjectDescriptionDataEEE6appendERKS3_.clean 0x0001c15c   Section       14  objectdescriptionmodel.o(t._ZN5QListI28QExplicitlySharedDataPointerIN6Phonon21ObjectDescriptionDataEEE6appendERKS3_.clean)
    t._ZN5QListI28QExplicitlySharedDataPointerIN6Phonon21ObjectDescriptionDataEEE6detachEv 0x0001c16a   Section       24  objectdescriptionmodel.o(t._ZN5QListI28QExplicitlySharedDataPointerIN6Phonon21ObjectDescriptionDataEEE6detachEv)
    t._ZN5QListI28QExplicitlySharedDataPointerIN6Phonon21ObjectDescriptionDataEEE9node_copyEPNS4_4NodeES6_S6_ 0x0001c182   Section       92  objectdescriptionmodel.o(t._ZN5QListI28QExplicitlySharedDataPointerIN6Phonon21ObjectDescriptionDataEEE9node_copyEPNS4_4NodeES6_S6_)
    t._ZN5QListI28QExplicitlySharedDataPointerIN6Phonon21ObjectDescriptionDataEEE9node_copyEPNS4_4NodeES6_S6_.clean 0x0001c1de   Section       22  objectdescriptionmodel.o(t._ZN5QListI28QExplicitlySharedDataPointerIN6Phonon21ObjectDescriptionDataEEE9node_copyEPNS4_4NodeES6_S6_.clean)
    t._ZN5QListI28QExplicitlySharedDataPointerIN6Phonon21ObjectDescriptionDataEEEC1Ev 0x0001c1f4   Section       24  objectdescriptionmodel.o(t._ZN5QListI28QExplicitlySharedDataPointerIN6Phonon21ObjectDescriptionDataEEEC1Ev)
    t._ZN5QListI28QExplicitlySharedDataPointerIN6Phonon21ObjectDescriptionDataEEED1Ev 0x0001c20c   Section       32  objectdescriptionmodel.o(t._ZN5QListI28QExplicitlySharedDataPointerIN6Phonon21ObjectDescriptionDataEEED1Ev)
    t._ZN5QListI5QPairIP7QObjectS2_EE13node_destructEPNS4_4NodeES6_ 0x0001c22c   Section       26  path.o(t._ZN5QListI5QPairIP7QObjectS2_EE13node_destructEPNS4_4NodeES6_)
    t._ZN5QListI5QPairIP7QObjectS2_EE14node_constructEPNS4_4NodeERKS3_ 0x0001c246   Section       34  path.o(t._ZN5QListI5QPairIP7QObjectS2_EE14node_constructEPNS4_4NodeERKS3_)
    t._ZN5QListI5QPairIP7QObjectS2_EE14node_constructEPNS4_4NodeERKS3_.clean 0x0001c268   Section        4  path.o(t._ZN5QListI5QPairIP7QObjectS2_EE14node_constructEPNS4_4NodeERKS3_.clean)
    t._ZN5QListI5QPairIP7QObjectS2_EE18detach_helper_growEii 0x0001c26c   Section      208  path.o(t._ZN5QListI5QPairIP7QObjectS2_EE18detach_helper_growEii)
    t._ZN5QListI5QPairIP7QObjectS2_EE18detach_helper_growEii.clean 0x0001c33c   Section       16  path.o(t._ZN5QListI5QPairIP7QObjectS2_EE18detach_helper_growEii.clean)
    t._ZN5QListI5QPairIP7QObjectS2_EE4freeEPN9QListData4DataE 0x0001c34c   Section       58  path.o(t._ZN5QListI5QPairIP7QObjectS2_EE4freeEPN9QListData4DataE)
    t._ZN5QListI5QPairIP7QObjectS2_EE6appendERKS3_ 0x0001c388   Section      112  path.o(t._ZN5QListI5QPairIP7QObjectS2_EE6appendERKS3_)
    t._ZN5QListI5QPairIP7QObjectS2_EE6appendERKS3_.clean 0x0001c3f8   Section       14  path.o(t._ZN5QListI5QPairIP7QObjectS2_EE6appendERKS3_.clean)
    t._ZN5QListI5QPairIP7QObjectS2_EE9node_copyEPNS4_4NodeES6_S6_ 0x0001c406   Section       80  path.o(t._ZN5QListI5QPairIP7QObjectS2_EE9node_copyEPNS4_4NodeES6_S6_)
    t._ZN5QListI5QPairIP7QObjectS2_EE9node_copyEPNS4_4NodeES6_S6_.clean 0x0001c456   Section       22  path.o(t._ZN5QListI5QPairIP7QObjectS2_EE9node_copyEPNS4_4NodeES6_S6_.clean)
    t._ZN5QListI5QPairIP7QObjectS2_EEC1Ev    0x0001c46c   Section       24  path.o(t._ZN5QListI5QPairIP7QObjectS2_EEC1Ev)
    t._ZN5QListI5QPairIP7QObjectS2_EED1Ev    0x0001c484   Section       32  path.o(t._ZN5QListI5QPairIP7QObjectS2_EED1Ev)
    t._ZN5QListI5QPairIP7QObjectS2_EElsERKS3_ 0x0001c4a4   Section       18  path.o(t._ZN5QListI5QPairIP7QObjectS2_EElsERKS3_)
    t._ZN5QListI7QStringE13detach_helperEi   0x0001c4b6   Section       94  factory.o(t._ZN5QListI7QStringE13detach_helperEi)
    t._ZN5QListI7QStringE13detach_helperEi.clean 0x0001c514   Section        8  factory.o(t._ZN5QListI7QStringE13detach_helperEi.clean)
    t._ZN5QListI7QStringE13detach_helperEv   0x0001c51c   Section       16  factory.o(t._ZN5QListI7QStringE13detach_helperEv)
    t._ZN5QListI7QStringE13node_destructEPNS1_4NodeES3_ 0x0001c52c   Section       26  audiooutput.o(t._ZN5QListI7QStringE13node_destructEPNS1_4NodeES3_)
    t._ZN5QListI7QStringE14node_constructEPNS1_4NodeERKS0_ 0x0001c546   Section       36  audiooutput.o(t._ZN5QListI7QStringE14node_constructEPNS1_4NodeERKS0_)
    t._ZN5QListI7QStringE14node_constructEPNS1_4NodeERKS0_.clean 0x0001c56a   Section       14  audiooutput.o(t._ZN5QListI7QStringE14node_constructEPNS1_4NodeERKS0_.clean)
    t._ZN5QListI7QStringE18detach_helper_growEii 0x0001c578   Section      208  factory.o(t._ZN5QListI7QStringE18detach_helper_growEii)
    t._ZN5QListI7QStringE18detach_helper_growEii.clean 0x0001c648   Section       16  factory.o(t._ZN5QListI7QStringE18detach_helper_growEii.clean)
    t._ZN5QListI7QStringE4freeEPN9QListData4DataE 0x0001c658   Section       52  factory.o(t._ZN5QListI7QStringE4freeEPN9QListData4DataE)
    t._ZN5QListI7QStringE5firstEv            0x0001c68c   Section      168  objectdescriptionmodel.o(t._ZN5QListI7QStringE5firstEv)
    t._ZN5QListI7QStringE6appendERKS0_       0x0001c734   Section      120  audiooutput.o(t._ZN5QListI7QStringE6appendERKS0_)
    t._ZN5QListI7QStringE6appendERKS0_.clean 0x0001c7ac   Section       14  audiooutput.o(t._ZN5QListI7QStringE6appendERKS0_.clean)
    t._ZN5QListI7QStringE9node_copyEPNS1_4NodeES3_S3_ 0x0001c7ba   Section       82  audiooutput.o(t._ZN5QListI7QStringE9node_copyEPNS1_4NodeES3_S3_)
    t._ZN5QListI7QStringE9node_copyEPNS1_4NodeES3_S3_.clean 0x0001c80c   Section       22  audiooutput.o(t._ZN5QListI7QStringE9node_copyEPNS1_4NodeES3_S3_.clean)
    t._ZN5QListI7QStringEC1Ev                0x0001c824   Section       24  audiooutput.o(t._ZN5QListI7QStringEC1Ev)
    t._ZN5QListI7QStringED1Ev                0x0001c83c   Section       32  audiooutput.o(t._ZN5QListI7QStringED1Ev)
    t._ZN5QListI8QVariantE13detach_helperEi  0x0001c85c   Section      206  effectparameter.o(t._ZN5QListI8QVariantE13detach_helperEi)
    t._ZN5QListI8QVariantE13detach_helperEi.clean 0x0001c92a   Section       32  effectparameter.o(t._ZN5QListI8QVariantE13detach_helperEi.clean)
    t._ZN5QListI8QVariantE13detach_helperEv  0x0001c94a   Section       16  effectparameter.o(t._ZN5QListI8QVariantE13detach_helperEv)
    t._ZN5QListI8QVariantE13node_destructEPNS1_4NodeES3_ 0x0001c95a   Section       38  factory.o(t._ZN5QListI8QVariantE13node_destructEPNS1_4NodeES3_)
    t._ZN5QListI8QVariantE14node_constructEPNS1_4NodeERKS0_ 0x0001c980   Section       34  factory.o(t._ZN5QListI8QVariantE14node_constructEPNS1_4NodeERKS0_)
    t._ZN5QListI8QVariantE14node_constructEPNS1_4NodeERKS0_.clean 0x0001c9a2   Section       14  factory.o(t._ZN5QListI8QVariantE14node_constructEPNS1_4NodeERKS0_.clean)
    t._ZN5QListI8QVariantE18detach_helper_growEii 0x0001c9b0   Section      208  factory.o(t._ZN5QListI8QVariantE18detach_helper_growEii)
    t._ZN5QListI8QVariantE18detach_helper_growEii.clean 0x0001ca80   Section       16  factory.o(t._ZN5QListI8QVariantE18detach_helper_growEii.clean)
    t._ZN5QListI8QVariantE4freeEPN9QListData4DataE 0x0001ca90   Section       52  factory.o(t._ZN5QListI8QVariantE4freeEPN9QListData4DataE)
    t._ZN5QListI8QVariantE6appendERKS0_      0x0001cac4   Section      112  factory.o(t._ZN5QListI8QVariantE6appendERKS0_)
    t._ZN5QListI8QVariantE6appendERKS0_.clean 0x0001cb34   Section       14  factory.o(t._ZN5QListI8QVariantE6appendERKS0_.clean)
    t._ZN5QListI8QVariantE9node_copyEPNS1_4NodeES3_S3_ 0x0001cb42   Section       92  factory.o(t._ZN5QListI8QVariantE9node_copyEPNS1_4NodeES3_S3_)
    t._ZN5QListI8QVariantE9node_copyEPNS1_4NodeES3_S3_.clean 0x0001cb9e   Section       22  factory.o(t._ZN5QListI8QVariantE9node_copyEPNS1_4NodeES3_S3_.clean)
    t._ZN5QListI8QVariantEC1Ev               0x0001cbb4   Section       24  factory.o(t._ZN5QListI8QVariantEC1Ev)
    t._ZN5QListI8QVariantED1Ev               0x0001cbcc   Section       32  effectparameter.o(t._ZN5QListI8QVariantED1Ev)
    t._ZN5QListI8QVariantElsERKS0_           0x0001cbec   Section       18  mediacontroller.o(t._ZN5QListI8QVariantElsERKS0_)
    t._ZN5QListIN6Phonon11MediaSourceEE13detach_helperEi 0x0001cbfe   Section       94  mediaobject.o(t._ZN5QListIN6Phonon11MediaSourceEE13detach_helperEi)
    t._ZN5QListIN6Phonon11MediaSourceEE13detach_helperEi.clean 0x0001cc5c   Section        8  mediaobject.o(t._ZN5QListIN6Phonon11MediaSourceEE13detach_helperEi.clean)
    t._ZN5QListIN6Phonon11MediaSourceEE13detach_helperEv 0x0001cc64   Section       16  mediaobject.o(t._ZN5QListIN6Phonon11MediaSourceEE13detach_helperEv)
    t._ZN5QListIN6Phonon11MediaSourceEE13node_destructEPNS2_4NodeE 0x0001cc74   Section       28  mediaobject.o(t._ZN5QListIN6Phonon11MediaSourceEE13node_destructEPNS2_4NodeE)
    t._ZN5QListIN6Phonon11MediaSourceEE13node_destructEPNS2_4NodeES4_ 0x0001cc90   Section       38  mediaobject.o(t._ZN5QListIN6Phonon11MediaSourceEE13node_destructEPNS2_4NodeES4_)
    t._ZN5QListIN6Phonon11MediaSourceEE14node_constructEPNS2_4NodeERKS1_ 0x0001ccb6   Section       34  mediaobject.o(t._ZN5QListIN6Phonon11MediaSourceEE14node_constructEPNS2_4NodeERKS1_)
    t._ZN5QListIN6Phonon11MediaSourceEE14node_constructEPNS2_4NodeERKS1_.clean 0x0001ccd8   Section       14  mediaobject.o(t._ZN5QListIN6Phonon11MediaSourceEE14node_constructEPNS2_4NodeERKS1_.clean)
    t._ZN5QListIN6Phonon11MediaSourceEE18detach_helper_growEii 0x0001cce6   Section      208  mediaobject.o(t._ZN5QListIN6Phonon11MediaSourceEE18detach_helper_growEii)
    t._ZN5QListIN6Phonon11MediaSourceEE18detach_helper_growEii.clean 0x0001cdb6   Section       16  mediaobject.o(t._ZN5QListIN6Phonon11MediaSourceEE18detach_helper_growEii.clean)
    t._ZN5QListIN6Phonon11MediaSourceEE4freeEPN9QListData4DataE 0x0001cdc6   Section       58  mediaobject.o(t._ZN5QListIN6Phonon11MediaSourceEE4freeEPN9QListData4DataE)
    t._ZN5QListIN6Phonon11MediaSourceEE5beginEv 0x0001ce00   Section       40  mediaobject.o(t._ZN5QListIN6Phonon11MediaSourceEE5beginEv)
    t._ZN5QListIN6Phonon11MediaSourceEE5clearEv 0x0001ce28   Section       76  mediaobject.o(t._ZN5QListIN6Phonon11MediaSourceEE5clearEv)
    t._ZN5QListIN6Phonon11MediaSourceEE5clearEv.clean 0x0001ce74   Section       10  mediaobject.o(t._ZN5QListIN6Phonon11MediaSourceEE5clearEv.clean)
    t._ZN5QListIN6Phonon11MediaSourceEE5firstEv 0x0001ce80   Section      120  mediaobject.o(t._ZN5QListIN6Phonon11MediaSourceEE5firstEv)
    t._ZN5QListIN6Phonon11MediaSourceEE6appendERKS1_ 0x0001cef8   Section      112  mediaobject.o(t._ZN5QListIN6Phonon11MediaSourceEE6appendERKS1_)
    t._ZN5QListIN6Phonon11MediaSourceEE6appendERKS1_.clean 0x0001cf68   Section       14  mediaobject.o(t._ZN5QListIN6Phonon11MediaSourceEE6appendERKS1_.clean)
    t._ZN5QListIN6Phonon11MediaSourceEE9node_copyEPNS2_4NodeES4_S4_ 0x0001cf76   Section       92  mediaobject.o(t._ZN5QListIN6Phonon11MediaSourceEE9node_copyEPNS2_4NodeES4_S4_)
    t._ZN5QListIN6Phonon11MediaSourceEE9node_copyEPNS2_4NodeES4_S4_.clean 0x0001cfd2   Section       22  mediaobject.o(t._ZN5QListIN6Phonon11MediaSourceEE9node_copyEPNS2_4NodeES4_S4_.clean)
    t._ZN5QListIN6Phonon11MediaSourceEE9takeFirstEv 0x0001cfe8   Section      164  mediaobject.o(t._ZN5QListIN6Phonon11MediaSourceEE9takeFirstEv)
    t._ZN5QListIN6Phonon11MediaSourceEE9takeFirstEv.clean 0x0001d08c   Section       10  mediaobject.o(t._ZN5QListIN6Phonon11MediaSourceEE9takeFirstEv.clean)
    t._ZN5QListIN6Phonon11MediaSourceEEC1Ev  0x0001d098   Section       24  mediaobject.o(t._ZN5QListIN6Phonon11MediaSourceEEC1Ev)
    t._ZN5QListIN6Phonon11MediaSourceEED1Ev  0x0001d0b0   Section       32  mediaobject.o(t._ZN5QListIN6Phonon11MediaSourceEED1Ev)
    t._ZN5QListIN6Phonon15EffectParameterEE4freeEPN9QListData4DataE 0x0001d0d0   Section       82  effect.o(t._ZN5QListIN6Phonon15EffectParameterEE4freeEPN9QListData4DataE)
    t._ZN5QListIN6Phonon15EffectParameterEED1Ev 0x0001d122   Section       32  effect.o(t._ZN5QListIN6Phonon15EffectParameterEED1Ev)
    t._ZN5QListIN6Phonon17ObjectDescriptionILNS0_21ObjectDescriptionTypeE0EEEE13node_destructEPNS4_4NodeES6_ 0x0001d142   Section       38  backendcapabilities.o(t._ZN5QListIN6Phonon17ObjectDescriptionILNS0_21ObjectDescriptionTypeE0EEEE13node_destructEPNS4_4NodeES6_)
    t._ZN5QListIN6Phonon17ObjectDescriptionILNS0_21ObjectDescriptionTypeE0EEEE14node_constructEPNS4_4NodeERKS3_ 0x0001d168   Section       34  backendcapabilities.o(t._ZN5QListIN6Phonon17ObjectDescriptionILNS0_21ObjectDescriptionTypeE0EEEE14node_constructEPNS4_4NodeERKS3_)
    t._ZN5QListIN6Phonon17ObjectDescriptionILNS0_21ObjectDescriptionTypeE0EEEE14node_constructEPNS4_4NodeERKS3_.clean 0x0001d18a   Section       14  backendcapabilities.o(t._ZN5QListIN6Phonon17ObjectDescriptionILNS0_21ObjectDescriptionTypeE0EEEE14node_constructEPNS4_4NodeERKS3_.clean)
    t._ZN5QListIN6Phonon17ObjectDescriptionILNS0_21ObjectDescriptionTypeE0EEEE18detach_helper_growEii 0x0001d198   Section      208  backendcapabilities.o(t._ZN5QListIN6Phonon17ObjectDescriptionILNS0_21ObjectDescriptionTypeE0EEEE18detach_helper_growEii)
    t._ZN5QListIN6Phonon17ObjectDescriptionILNS0_21ObjectDescriptionTypeE0EEEE18detach_helper_growEii.clean 0x0001d268   Section       16  backendcapabilities.o(t._ZN5QListIN6Phonon17ObjectDescriptionILNS0_21ObjectDescriptionTypeE0EEEE18detach_helper_growEii.clean)
    t._ZN5QListIN6Phonon17ObjectDescriptionILNS0_21ObjectDescriptionTypeE0EEEE4freeEPN9QListData4DataE 0x0001d278   Section       52  backendcapabilities.o(t._ZN5QListIN6Phonon17ObjectDescriptionILNS0_21ObjectDescriptionTypeE0EEEE4freeEPN9QListData4DataE)
    t._ZN5QListIN6Phonon17ObjectDescriptionILNS0_21ObjectDescriptionTypeE0EEEE6appendERKS3_ 0x0001d2ac   Section      112  backendcapabilities.o(t._ZN5QListIN6Phonon17ObjectDescriptionILNS0_21ObjectDescriptionTypeE0EEEE6appendERKS3_)
    t._ZN5QListIN6Phonon17ObjectDescriptionILNS0_21ObjectDescriptionTypeE0EEEE6appendERKS3_.clean 0x0001d31c   Section       14  backendcapabilities.o(t._ZN5QListIN6Phonon17ObjectDescriptionILNS0_21ObjectDescriptionTypeE0EEEE6appendERKS3_.clean)
    t._ZN5QListIN6Phonon17ObjectDescriptionILNS0_21ObjectDescriptionTypeE0EEEE9node_copyEPNS4_4NodeES6_S6_ 0x0001d32a   Section       92  backendcapabilities.o(t._ZN5QListIN6Phonon17ObjectDescriptionILNS0_21ObjectDescriptionTypeE0EEEE9node_copyEPNS4_4NodeES6_S6_)
    t._ZN5QListIN6Phonon17ObjectDescriptionILNS0_21ObjectDescriptionTypeE0EEEE9node_copyEPNS4_4NodeES6_S6_.clean 0x0001d386   Section       22  backendcapabilities.o(t._ZN5QListIN6Phonon17ObjectDescriptionILNS0_21ObjectDescriptionTypeE0EEEE9node_copyEPNS4_4NodeES6_S6_.clean)
    t._ZN5QListIN6Phonon17ObjectDescriptionILNS0_21ObjectDescriptionTypeE0EEEED1Ev 0x0001d39c   Section       32  backendcapabilities.o(t._ZN5QListIN6Phonon17ObjectDescriptionILNS0_21ObjectDescriptionTypeE0EEEED1Ev)
    t._ZN5QListIN6Phonon17ObjectDescriptionILNS0_21ObjectDescriptionTypeE1EEEE13node_destructEPNS4_4NodeES6_ 0x0001d3bc   Section       38  backendcapabilities.o(t._ZN5QListIN6Phonon17ObjectDescriptionILNS0_21ObjectDescriptionTypeE1EEEE13node_destructEPNS4_4NodeES6_)
    t._ZN5QListIN6Phonon17ObjectDescriptionILNS0_21ObjectDescriptionTypeE1EEEE14node_constructEPNS4_4NodeERKS3_ 0x0001d3e2   Section       34  backendcapabilities.o(t._ZN5QListIN6Phonon17ObjectDescriptionILNS0_21ObjectDescriptionTypeE1EEEE14node_constructEPNS4_4NodeERKS3_)
    t._ZN5QListIN6Phonon17ObjectDescriptionILNS0_21ObjectDescriptionTypeE1EEEE14node_constructEPNS4_4NodeERKS3_.clean 0x0001d404   Section       14  backendcapabilities.o(t._ZN5QListIN6Phonon17ObjectDescriptionILNS0_21ObjectDescriptionTypeE1EEEE14node_constructEPNS4_4NodeERKS3_.clean)
    t._ZN5QListIN6Phonon17ObjectDescriptionILNS0_21ObjectDescriptionTypeE1EEEE18detach_helper_growEii 0x0001d412   Section      208  backendcapabilities.o(t._ZN5QListIN6Phonon17ObjectDescriptionILNS0_21ObjectDescriptionTypeE1EEEE18detach_helper_growEii)
    t._ZN5QListIN6Phonon17ObjectDescriptionILNS0_21ObjectDescriptionTypeE1EEEE18detach_helper_growEii.clean 0x0001d4e2   Section       16  backendcapabilities.o(t._ZN5QListIN6Phonon17ObjectDescriptionILNS0_21ObjectDescriptionTypeE1EEEE18detach_helper_growEii.clean)
    t._ZN5QListIN6Phonon17ObjectDescriptionILNS0_21ObjectDescriptionTypeE1EEEE4freeEPN9QListData4DataE 0x0001d4f2   Section       52  backendcapabilities.o(t._ZN5QListIN6Phonon17ObjectDescriptionILNS0_21ObjectDescriptionTypeE1EEEE4freeEPN9QListData4DataE)
    t._ZN5QListIN6Phonon17ObjectDescriptionILNS0_21ObjectDescriptionTypeE1EEEE6appendERKS3_ 0x0001d528   Section      112  backendcapabilities.o(t._ZN5QListIN6Phonon17ObjectDescriptionILNS0_21ObjectDescriptionTypeE1EEEE6appendERKS3_)
    t._ZN5QListIN6Phonon17ObjectDescriptionILNS0_21ObjectDescriptionTypeE1EEEE6appendERKS3_.clean 0x0001d598   Section       14  backendcapabilities.o(t._ZN5QListIN6Phonon17ObjectDescriptionILNS0_21ObjectDescriptionTypeE1EEEE6appendERKS3_.clean)
    t._ZN5QListIN6Phonon17ObjectDescriptionILNS0_21ObjectDescriptionTypeE1EEEE9node_copyEPNS4_4NodeES6_S6_ 0x0001d5a6   Section       92  backendcapabilities.o(t._ZN5QListIN6Phonon17ObjectDescriptionILNS0_21ObjectDescriptionTypeE1EEEE9node_copyEPNS4_4NodeES6_S6_)
    t._ZN5QListIN6Phonon17ObjectDescriptionILNS0_21ObjectDescriptionTypeE1EEEE9node_copyEPNS4_4NodeES6_S6_.clean 0x0001d602   Section       22  backendcapabilities.o(t._ZN5QListIN6Phonon17ObjectDescriptionILNS0_21ObjectDescriptionTypeE1EEEE9node_copyEPNS4_4NodeES6_S6_.clean)
    t._ZN5QListIN6Phonon17ObjectDescriptionILNS0_21ObjectDescriptionTypeE1EEEED1Ev 0x0001d618   Section       32  backendcapabilities.o(t._ZN5QListIN6Phonon17ObjectDescriptionILNS0_21ObjectDescriptionTypeE1EEEED1Ev)
    t._ZN5QListIN6Phonon17ObjectDescriptionILNS0_21ObjectDescriptionTypeE2EEEE13detach_helperEi 0x0001d638   Section      200  mediacontroller.o(t._ZN5QListIN6Phonon17ObjectDescriptionILNS0_21ObjectDescriptionTypeE2EEEE13detach_helperEi)
    t._ZN5QListIN6Phonon17ObjectDescriptionILNS0_21ObjectDescriptionTypeE2EEEE13detach_helperEi.clean 0x0001d700   Section       32  mediacontroller.o(t._ZN5QListIN6Phonon17ObjectDescriptionILNS0_21ObjectDescriptionTypeE2EEEE13detach_helperEi.clean)
    t._ZN5QListIN6Phonon17ObjectDescriptionILNS0_21ObjectDescriptionTypeE2EEEE13detach_helperEv 0x0001d720   Section       16  mediacontroller.o(t._ZN5QListIN6Phonon17ObjectDescriptionILNS0_21ObjectDescriptionTypeE2EEEE13detach_helperEv)
    t._ZN5QListIN6Phonon17ObjectDescriptionILNS0_21ObjectDescriptionTypeE2EEEE4freeEPN9QListData4DataE 0x0001d730   Section       76  mediacontroller.o(t._ZN5QListIN6Phonon17ObjectDescriptionILNS0_21ObjectDescriptionTypeE2EEEE4freeEPN9QListData4DataE)
    t._ZN5QListIN6Phonon17ObjectDescriptionILNS0_21ObjectDescriptionTypeE2EEEEC1ERKS4_ 0x0001d77c   Section       36  mediacontroller.o(t._ZN5QListIN6Phonon17ObjectDescriptionILNS0_21ObjectDescriptionTypeE2EEEEC1ERKS4_)
    t._ZN5QListIN6Phonon17ObjectDescriptionILNS0_21ObjectDescriptionTypeE2EEEEC1Ev 0x0001d7a0   Section       24  mediacontroller.o(t._ZN5QListIN6Phonon17ObjectDescriptionILNS0_21ObjectDescriptionTypeE2EEEEC1Ev)
    t._ZN5QListIN6Phonon17ObjectDescriptionILNS0_21ObjectDescriptionTypeE2EEEED1Ev 0x0001d7b8   Section       32  mediacontroller.o(t._ZN5QListIN6Phonon17ObjectDescriptionILNS0_21ObjectDescriptionTypeE2EEEED1Ev)
    t._ZN5QListIN6Phonon17ObjectDescriptionILNS0_21ObjectDescriptionTypeE3EEEE13detach_helperEi 0x0001d7d8   Section      200  mediacontroller.o(t._ZN5QListIN6Phonon17ObjectDescriptionILNS0_21ObjectDescriptionTypeE3EEEE13detach_helperEi)
    t._ZN5QListIN6Phonon17ObjectDescriptionILNS0_21ObjectDescriptionTypeE3EEEE13detach_helperEi.clean 0x0001d8a0   Section       32  mediacontroller.o(t._ZN5QListIN6Phonon17ObjectDescriptionILNS0_21ObjectDescriptionTypeE3EEEE13detach_helperEi.clean)
    t._ZN5QListIN6Phonon17ObjectDescriptionILNS0_21ObjectDescriptionTypeE3EEEE13detach_helperEv 0x0001d8c0   Section       16  mediacontroller.o(t._ZN5QListIN6Phonon17ObjectDescriptionILNS0_21ObjectDescriptionTypeE3EEEE13detach_helperEv)
    t._ZN5QListIN6Phonon17ObjectDescriptionILNS0_21ObjectDescriptionTypeE3EEEE4freeEPN9QListData4DataE 0x0001d8d0   Section       76  mediacontroller.o(t._ZN5QListIN6Phonon17ObjectDescriptionILNS0_21ObjectDescriptionTypeE3EEEE4freeEPN9QListData4DataE)
    t._ZN5QListIN6Phonon17ObjectDescriptionILNS0_21ObjectDescriptionTypeE3EEEEC1ERKS4_ 0x0001d91c   Section       36  mediacontroller.o(t._ZN5QListIN6Phonon17ObjectDescriptionILNS0_21ObjectDescriptionTypeE3EEEEC1ERKS4_)
    t._ZN5QListIN6Phonon17ObjectDescriptionILNS0_21ObjectDescriptionTypeE3EEEEC1Ev 0x0001d940   Section       24  mediacontroller.o(t._ZN5QListIN6Phonon17ObjectDescriptionILNS0_21ObjectDescriptionTypeE3EEEEC1Ev)
    t._ZN5QListIN6Phonon17ObjectDescriptionILNS0_21ObjectDescriptionTypeE3EEEED1Ev 0x0001d958   Section       32  mediacontroller.o(t._ZN5QListIN6Phonon17ObjectDescriptionILNS0_21ObjectDescriptionTypeE3EEEED1Ev)
    t._ZN5QListIN6Phonon17ObjectDescriptionILNS0_21ObjectDescriptionTypeE4EEEE13node_destructEPNS4_4NodeES6_ 0x0001d978   Section       38  backendcapabilities.o(t._ZN5QListIN6Phonon17ObjectDescriptionILNS0_21ObjectDescriptionTypeE4EEEE13node_destructEPNS4_4NodeES6_)
    t._ZN5QListIN6Phonon17ObjectDescriptionILNS0_21ObjectDescriptionTypeE4EEEE14node_constructEPNS4_4NodeERKS3_ 0x0001d99e   Section       34  backendcapabilities.o(t._ZN5QListIN6Phonon17ObjectDescriptionILNS0_21ObjectDescriptionTypeE4EEEE14node_constructEPNS4_4NodeERKS3_)
    t._ZN5QListIN6Phonon17ObjectDescriptionILNS0_21ObjectDescriptionTypeE4EEEE14node_constructEPNS4_4NodeERKS3_.clean 0x0001d9c0   Section       14  backendcapabilities.o(t._ZN5QListIN6Phonon17ObjectDescriptionILNS0_21ObjectDescriptionTypeE4EEEE14node_constructEPNS4_4NodeERKS3_.clean)
    t._ZN5QListIN6Phonon17ObjectDescriptionILNS0_21ObjectDescriptionTypeE4EEEE18detach_helper_growEii 0x0001d9ce   Section      208  backendcapabilities.o(t._ZN5QListIN6Phonon17ObjectDescriptionILNS0_21ObjectDescriptionTypeE4EEEE18detach_helper_growEii)
    t._ZN5QListIN6Phonon17ObjectDescriptionILNS0_21ObjectDescriptionTypeE4EEEE18detach_helper_growEii.clean 0x0001da9e   Section       16  backendcapabilities.o(t._ZN5QListIN6Phonon17ObjectDescriptionILNS0_21ObjectDescriptionTypeE4EEEE18detach_helper_growEii.clean)
    t._ZN5QListIN6Phonon17ObjectDescriptionILNS0_21ObjectDescriptionTypeE4EEEE4freeEPN9QListData4DataE 0x0001daae   Section       52  backendcapabilities.o(t._ZN5QListIN6Phonon17ObjectDescriptionILNS0_21ObjectDescriptionTypeE4EEEE4freeEPN9QListData4DataE)
    t._ZN5QListIN6Phonon17ObjectDescriptionILNS0_21ObjectDescriptionTypeE4EEEE6appendERKS3_ 0x0001dae4   Section      112  backendcapabilities.o(t._ZN5QListIN6Phonon17ObjectDescriptionILNS0_21ObjectDescriptionTypeE4EEEE6appendERKS3_)
    t._ZN5QListIN6Phonon17ObjectDescriptionILNS0_21ObjectDescriptionTypeE4EEEE6appendERKS3_.clean 0x0001db54   Section       14  backendcapabilities.o(t._ZN5QListIN6Phonon17ObjectDescriptionILNS0_21ObjectDescriptionTypeE4EEEE6appendERKS3_.clean)
    t._ZN5QListIN6Phonon17ObjectDescriptionILNS0_21ObjectDescriptionTypeE4EEEE9node_copyEPNS4_4NodeES6_S6_ 0x0001db62   Section       92  backendcapabilities.o(t._ZN5QListIN6Phonon17ObjectDescriptionILNS0_21ObjectDescriptionTypeE4EEEE9node_copyEPNS4_4NodeES6_S6_)
    t._ZN5QListIN6Phonon17ObjectDescriptionILNS0_21ObjectDescriptionTypeE4EEEE9node_copyEPNS4_4NodeES6_S6_.clean 0x0001dbbe   Section       22  backendcapabilities.o(t._ZN5QListIN6Phonon17ObjectDescriptionILNS0_21ObjectDescriptionTypeE4EEEE9node_copyEPNS4_4NodeES6_S6_.clean)
    t._ZN5QListIN6Phonon17ObjectDescriptionILNS0_21ObjectDescriptionTypeE4EEEED1Ev 0x0001dbd4   Section       32  backendcapabilities.o(t._ZN5QListIN6Phonon17ObjectDescriptionILNS0_21ObjectDescriptionTypeE4EEEED1Ev)
    t._ZN5QListIN6Phonon4PathEE13detach_helperEi 0x0001dbf4   Section       94  medianode.o(t._ZN5QListIN6Phonon4PathEE13detach_helperEi)
    t._ZN5QListIN6Phonon4PathEE13detach_helperEi.clean 0x0001dc52   Section        8  medianode.o(t._ZN5QListIN6Phonon4PathEE13detach_helperEi.clean)
    t._ZN5QListIN6Phonon4PathEE13detach_helperEv 0x0001dc5a   Section       16  medianode.o(t._ZN5QListIN6Phonon4PathEE13detach_helperEv)
    t._ZN5QListIN6Phonon4PathEE13node_destructEPNS2_4NodeE 0x0001dc6a   Section       28  medianode.o(t._ZN5QListIN6Phonon4PathEE13node_destructEPNS2_4NodeE)
    t._ZN5QListIN6Phonon4PathEE13node_destructEPNS2_4NodeES4_ 0x0001dc86   Section       38  medianode.o(t._ZN5QListIN6Phonon4PathEE13node_destructEPNS2_4NodeES4_)
    t._ZN5QListIN6Phonon4PathEE14node_constructEPNS2_4NodeERKS1_ 0x0001dcac   Section       34  medianode.o(t._ZN5QListIN6Phonon4PathEE14node_constructEPNS2_4NodeERKS1_)
    t._ZN5QListIN6Phonon4PathEE14node_constructEPNS2_4NodeERKS1_.clean 0x0001dcce   Section       14  medianode.o(t._ZN5QListIN6Phonon4PathEE14node_constructEPNS2_4NodeERKS1_.clean)
    t._ZN5QListIN6Phonon4PathEE18detach_helper_growEii 0x0001dcdc   Section      208  medianode.o(t._ZN5QListIN6Phonon4PathEE18detach_helper_growEii)
    t._ZN5QListIN6Phonon4PathEE18detach_helper_growEii.clean 0x0001ddac   Section       16  medianode.o(t._ZN5QListIN6Phonon4PathEE18detach_helper_growEii.clean)
    t._ZN5QListIN6Phonon4PathEE4freeEPN9QListData4DataE 0x0001ddbc   Section       58  medianode.o(t._ZN5QListIN6Phonon4PathEE4freeEPN9QListData4DataE)
    t._ZN5QListIN6Phonon4PathEE6appendERKS1_ 0x0001ddf8   Section      112  medianode.o(t._ZN5QListIN6Phonon4PathEE6appendERKS1_)
    t._ZN5QListIN6Phonon4PathEE6appendERKS1_.clean 0x0001de68   Section       14  medianode.o(t._ZN5QListIN6Phonon4PathEE6appendERKS1_.clean)
    t._ZN5QListIN6Phonon4PathEE9node_copyEPNS2_4NodeES4_S4_ 0x0001de76   Section       92  medianode.o(t._ZN5QListIN6Phonon4PathEE9node_copyEPNS2_4NodeES4_S4_)
    t._ZN5QListIN6Phonon4PathEE9node_copyEPNS2_4NodeES4_S4_.clean 0x0001ded2   Section       22  medianode.o(t._ZN5QListIN6Phonon4PathEE9node_copyEPNS2_4NodeES4_S4_.clean)
    t._ZN5QListIN6Phonon4PathEE9removeAllERKS1_ 0x0001dee8   Section      128  medianode.o(t._ZN5QListIN6Phonon4PathEE9removeAllERKS1_)
    t._ZN5QListIN6Phonon4PathEE9removeAllERKS1_.clean 0x0001df68   Section       10  medianode.o(t._ZN5QListIN6Phonon4PathEE9removeAllERKS1_.clean)
    t._ZN5QListIN6Phonon4PathEEC1ERKS2_      0x0001df72   Section       36  medianode.o(t._ZN5QListIN6Phonon4PathEEC1ERKS2_)
    t._ZN5QListIN6Phonon4PathEEC1Ev          0x0001df98   Section       24  medianode.o(t._ZN5QListIN6Phonon4PathEEC1Ev)
    t._ZN5QListIN6Phonon4PathEED1Ev          0x0001dfb0   Section       32  medianode.o(t._ZN5QListIN6Phonon4PathEED1Ev)
    t._ZN5QListIP7QObjectE13detach_helperEi  0x0001dfd0   Section       94  factory.o(t._ZN5QListIP7QObjectE13detach_helperEi)
    t._ZN5QListIP7QObjectE13detach_helperEi.clean 0x0001e02e   Section        8  factory.o(t._ZN5QListIP7QObjectE13detach_helperEi.clean)
    t._ZN5QListIP7QObjectE13detach_helperEv  0x0001e036   Section       16  factory.o(t._ZN5QListIP7QObjectE13detach_helperEv)
    t._ZN5QListIP7QObjectE18detach_helper_growEii 0x0001e046   Section      204  factory.o(t._ZN5QListIP7QObjectE18detach_helper_growEii)
    t._ZN5QListIP7QObjectE18detach_helper_growEii.clean 0x0001e112   Section       16  factory.o(t._ZN5QListIP7QObjectE18detach_helper_growEii.clean)
    t._ZN5QListIP7QObjectE4freeEPN9QListData4DataE 0x0001e122   Section       52  factory.o(t._ZN5QListIP7QObjectE4freeEPN9QListData4DataE)
    t._ZN5QListIP7QObjectE6appendERKS1_      0x0001e158   Section      100  factory.o(t._ZN5QListIP7QObjectE6appendERKS1_)
    t._ZN5QListIP7QObjectE6appendERKS1_.clean 0x0001e1bc   Section       10  factory.o(t._ZN5QListIP7QObjectE6appendERKS1_.clean)
    t._ZN5QListIP7QObjectE9node_copyEPNS2_4NodeES4_S4_ 0x0001e1c6   Section       46  factory.o(t._ZN5QListIP7QObjectE9node_copyEPNS2_4NodeES4_S4_)
    t._ZN5QListIP7QObjectE9removeAllERKS1_   0x0001e1f4   Section      108  factory.o(t._ZN5QListIP7QObjectE9removeAllERKS1_)
    t._ZN5QListIP7QObjectED1Ev               0x0001e260   Section       32  factory.o(t._ZN5QListIP7QObjectED1Ev)
    t._ZN5QListIPN6Phonon16MediaNodePrivateEE13detach_helperEi 0x0001e280   Section       94  factory.o(t._ZN5QListIPN6Phonon16MediaNodePrivateEE13detach_helperEi)
    t._ZN5QListIPN6Phonon16MediaNodePrivateEE13detach_helperEi.clean 0x0001e2de   Section        8  factory.o(t._ZN5QListIPN6Phonon16MediaNodePrivateEE13detach_helperEi.clean)
    t._ZN5QListIPN6Phonon16MediaNodePrivateEE13detach_helperEv 0x0001e2e6   Section       16  factory.o(t._ZN5QListIPN6Phonon16MediaNodePrivateEE13detach_helperEv)
    t._ZN5QListIPN6Phonon16MediaNodePrivateEE18detach_helper_growEii 0x0001e2f6   Section      204  factory.o(t._ZN5QListIPN6Phonon16MediaNodePrivateEE18detach_helper_growEii)
    t._ZN5QListIPN6Phonon16MediaNodePrivateEE18detach_helper_growEii.clean 0x0001e3c2   Section       16  factory.o(t._ZN5QListIPN6Phonon16MediaNodePrivateEE18detach_helper_growEii.clean)
    t._ZN5QListIPN6Phonon16MediaNodePrivateEE4freeEPN9QListData4DataE 0x0001e3d2   Section       52  factory.o(t._ZN5QListIPN6Phonon16MediaNodePrivateEE4freeEPN9QListData4DataE)
    t._ZN5QListIPN6Phonon16MediaNodePrivateEE9node_copyEPNS3_4NodeES5_S5_ 0x0001e406   Section       46  factory.o(t._ZN5QListIPN6Phonon16MediaNodePrivateEE9node_copyEPNS3_4NodeES5_S5_)
    t._ZN5QListIPN6Phonon16MediaNodePrivateEE9removeAllERKS2_ 0x0001e434   Section      108  factory.o(t._ZN5QListIPN6Phonon16MediaNodePrivateEE9removeAllERKS2_)
    t._ZN5QListIPN6Phonon16MediaNodePrivateEED1Ev 0x0001e4a0   Section       32  factory.o(t._ZN5QListIPN6Phonon16MediaNodePrivateEED1Ev)
    t._ZN5QListIPN6Phonon24FrontendInterfacePrivateEE18detach_helper_growEii 0x0001e4c0   Section      204  mediacontroller.o(t._ZN5QListIPN6Phonon24FrontendInterfacePrivateEE18detach_helper_growEii)
    t._ZN5QListIPN6Phonon24FrontendInterfacePrivateEE18detach_helper_growEii.clean 0x0001e58c   Section       16  mediacontroller.o(t._ZN5QListIPN6Phonon24FrontendInterfacePrivateEE18detach_helper_growEii.clean)
    t._ZN5QListIPN6Phonon24FrontendInterfacePrivateEE4freeEPN9QListData4DataE 0x0001e59c   Section       52  mediacontroller.o(t._ZN5QListIPN6Phonon24FrontendInterfacePrivateEE4freeEPN9QListData4DataE)
    t._ZN5QListIPN6Phonon24FrontendInterfacePrivateEE6appendERKS2_ 0x0001e5d0   Section      100  mediacontroller.o(t._ZN5QListIPN6Phonon24FrontendInterfacePrivateEE6appendERKS2_)
    t._ZN5QListIPN6Phonon24FrontendInterfacePrivateEE6appendERKS2_.clean 0x0001e634   Section       10  mediacontroller.o(t._ZN5QListIPN6Phonon24FrontendInterfacePrivateEE6appendERKS2_.clean)
    t._ZN5QListIPN6Phonon24FrontendInterfacePrivateEE9node_copyEPNS3_4NodeES5_S5_ 0x0001e63e   Section       46  mediacontroller.o(t._ZN5QListIPN6Phonon24FrontendInterfacePrivateEE9node_copyEPNS3_4NodeES5_S5_)
    t._ZN5QListIPN6Phonon24FrontendInterfacePrivateEED1Ev 0x0001e66c   Section       32  mediaobject.o(t._ZN5QListIPN6Phonon24FrontendInterfacePrivateEED1Ev)
    t._ZN5QListIPN6Phonon27MediaNodeDestructionHandlerEE13detach_helperEi 0x0001e68c   Section       94  medianode.o(t._ZN5QListIPN6Phonon27MediaNodeDestructionHandlerEE13detach_helperEi)
    t._ZN5QListIPN6Phonon27MediaNodeDestructionHandlerEE13detach_helperEi.clean 0x0001e6ea   Section        8  medianode.o(t._ZN5QListIPN6Phonon27MediaNodeDestructionHandlerEE13detach_helperEi.clean)
    t._ZN5QListIPN6Phonon27MediaNodeDestructionHandlerEE13detach_helperEv 0x0001e6f2   Section       16  medianode.o(t._ZN5QListIPN6Phonon27MediaNodeDestructionHandlerEE13detach_helperEv)
    t._ZN5QListIPN6Phonon27MediaNodeDestructionHandlerEE18detach_helper_growEii 0x0001e702   Section      204  medianode.o(t._ZN5QListIPN6Phonon27MediaNodeDestructionHandlerEE18detach_helper_growEii)
    t._ZN5QListIPN6Phonon27MediaNodeDestructionHandlerEE18detach_helper_growEii.clean 0x0001e7ce   Section       16  medianode.o(t._ZN5QListIPN6Phonon27MediaNodeDestructionHandlerEE18detach_helper_growEii.clean)
    t._ZN5QListIPN6Phonon27MediaNodeDestructionHandlerEE4freeEPN9QListData4DataE 0x0001e7de   Section       58  medianode.o(t._ZN5QListIPN6Phonon27MediaNodeDestructionHandlerEE4freeEPN9QListData4DataE)
    t._ZN5QListIPN6Phonon27MediaNodeDestructionHandlerEE6appendERKS2_ 0x0001e818   Section      100  medianode.o(t._ZN5QListIPN6Phonon27MediaNodeDestructionHandlerEE6appendERKS2_)
    t._ZN5QListIPN6Phonon27MediaNodeDestructionHandlerEE6appendERKS2_.clean 0x0001e87c   Section       10  medianode.o(t._ZN5QListIPN6Phonon27MediaNodeDestructionHandlerEE6appendERKS2_.clean)
    t._ZN5QListIPN6Phonon27MediaNodeDestructionHandlerEE9node_copyEPNS3_4NodeES5_S5_ 0x0001e886   Section       46  medianode.o(t._ZN5QListIPN6Phonon27MediaNodeDestructionHandlerEE9node_copyEPNS3_4NodeES5_S5_)
    t._ZN5QListIPN6Phonon27MediaNodeDestructionHandlerEE9removeAllERKS2_ 0x0001e8b4   Section      108  medianode.o(t._ZN5QListIPN6Phonon27MediaNodeDestructionHandlerEE9removeAllERKS2_)
    t._ZN5QListIPN6Phonon27MediaNodeDestructionHandlerEED1Ev 0x0001e920   Section       32  medianode.o(t._ZN5QListIPN6Phonon27MediaNodeDestructionHandlerEED1Ev)
    t._ZN5QListIPN6Phonon6EffectEE13detach_helperEi 0x0001e940   Section       94  path.o(t._ZN5QListIPN6Phonon6EffectEE13detach_helperEi)
    t._ZN5QListIPN6Phonon6EffectEE13detach_helperEi.clean 0x0001e99e   Section        8  path.o(t._ZN5QListIPN6Phonon6EffectEE13detach_helperEi.clean)
    t._ZN5QListIPN6Phonon6EffectEE13detach_helperEv 0x0001e9a6   Section       16  path.o(t._ZN5QListIPN6Phonon6EffectEE13detach_helperEv)
    t._ZN5QListIPN6Phonon6EffectEE18detach_helper_growEii 0x0001e9b6   Section      204  path.o(t._ZN5QListIPN6Phonon6EffectEE18detach_helper_growEii)
    t._ZN5QListIPN6Phonon6EffectEE18detach_helper_growEii.clean 0x0001ea82   Section       16  path.o(t._ZN5QListIPN6Phonon6EffectEE18detach_helper_growEii.clean)
    t._ZN5QListIPN6Phonon6EffectEE4freeEPN9QListData4DataE 0x0001ea92   Section       58  path.o(t._ZN5QListIPN6Phonon6EffectEE4freeEPN9QListData4DataE)
    t._ZN5QListIPN6Phonon6EffectEE4lastEv    0x0001eacc   Section      144  path.o(t._ZN5QListIPN6Phonon6EffectEE4lastEv)
    t._ZN5QListIPN6Phonon6EffectEE5clearEv   0x0001eb5c   Section       76  path.o(t._ZN5QListIPN6Phonon6EffectEE5clearEv)
    t._ZN5QListIPN6Phonon6EffectEE5clearEv.clean 0x0001eba8   Section       10  path.o(t._ZN5QListIPN6Phonon6EffectEE5clearEv.clean)
    t._ZN5QListIPN6Phonon6EffectEE5firstEv   0x0001ebb4   Section      136  path.o(t._ZN5QListIPN6Phonon6EffectEE5firstEv)
    t._ZN5QListIPN6Phonon6EffectEE6detachEv  0x0001ec3c   Section       24  path.o(t._ZN5QListIPN6Phonon6EffectEE6detachEv)
    t._ZN5QListIPN6Phonon6EffectEE9node_copyEPNS3_4NodeES5_S5_ 0x0001ec54   Section       46  path.o(t._ZN5QListIPN6Phonon6EffectEE9node_copyEPNS3_4NodeES5_S5_)
    t._ZN5QListIPN6Phonon6EffectEEC1Ev       0x0001ec84   Section       24  path.o(t._ZN5QListIPN6Phonon6EffectEEC1Ev)
    t._ZN5QListIPN6Phonon6EffectEED1Ev       0x0001ec9c   Section       32  path.o(t._ZN5QListIPN6Phonon6EffectEED1Ev)
    t._ZN5QListIPN6Phonon6EffectEEixEi       0x0001ecbc   Section      164  path.o(t._ZN5QListIPN6Phonon6EffectEEixEi)
    t._ZN5QListIiE11setSharableEb            0x0001ed60   Section       22  globalconfig.o(t._ZN5QListIiE11setSharableEb)
    t._ZN5QListIiE13detach_helperEi          0x0001ed76   Section       94  globalconfig.o(t._ZN5QListIiE13detach_helperEi)
    t._ZN5QListIiE13detach_helperEi.clean    0x0001edd4   Section        8  globalconfig.o(t._ZN5QListIiE13detach_helperEi.clean)
    t._ZN5QListIiE13detach_helperEv          0x0001eddc   Section       16  globalconfig.o(t._ZN5QListIiE13detach_helperEv)
    t._ZN5QListIiE18detach_helper_growEii    0x0001edec   Section      204  globalconfig.o(t._ZN5QListIiE18detach_helper_growEii)
    t._ZN5QListIiE18detach_helper_growEii.clean 0x0001eeb8   Section       16  globalconfig.o(t._ZN5QListIiE18detach_helper_growEii.clean)
    t._ZN5QListIiE3endEv                     0x0001eec8   Section       26  globalconfig.o(t._ZN5QListIiE3endEv)
    t._ZN5QListIiE4freeEPN9QListData4DataE   0x0001eee2   Section       52  backendcapabilities.o(t._ZN5QListIiE4freeEPN9QListData4DataE)
    t._ZN5QListIiE5beginEv                   0x0001ef16   Section       26  globalconfig.o(t._ZN5QListIiE5beginEv)
    t._ZN5QListIiE5clearEv                   0x0001ef30   Section       76  phononnamespace.o(t._ZN5QListIiE5clearEv)
    t._ZN5QListIiE5clearEv.clean             0x0001ef7c   Section       10  phononnamespace.o(t._ZN5QListIiE5clearEv.clean)
    t._ZN5QListIiE5firstEv                   0x0001ef88   Section      120  globalconfig.o(t._ZN5QListIiE5firstEv)
    t._ZN5QListIiE6appendERKi                0x0001f000   Section      100  globalconfig.o(t._ZN5QListIiE6appendERKi)
    t._ZN5QListIiE6appendERKi.clean          0x0001f064   Section       10  globalconfig.o(t._ZN5QListIiE6appendERKi.clean)
    t._ZN5QListIiE6detachEv                  0x0001f06e   Section       24  globalconfig.o(t._ZN5QListIiE6detachEv)
    t._ZN5QListIiE6takeAtEi                  0x0001f088   Section      180  globalconfig.o(t._ZN5QListIiE6takeAtEi)
    t._ZN5QListIiE7reserveEi                 0x0001f13c   Section       46  phononnamespace.o(t._ZN5QListIiE7reserveEi)
    t._ZN5QListIiE9node_copyEPNS0_4NodeES2_S2_ 0x0001f16a   Section       46  globalconfig.o(t._ZN5QListIiE9node_copyEPNS0_4NodeES2_S2_)
    t._ZN5QListIiE9removeAllERKi             0x0001f198   Section      108  globalconfig.o(t._ZN5QListIiE9removeAllERKi)
    t._ZN5QListIiEC1ERKS0_                   0x0001f204   Section       36  globalconfig.o(t._ZN5QListIiEC1ERKS0_)
    t._ZN5QListIiEC1Ev                       0x0001f228   Section       24  globalconfig.o(t._ZN5QListIiEC1Ev)
    t._ZN5QListIiED1Ev                       0x0001f240   Section       32  audiooutput.o(t._ZN5QListIiED1Ev)
    t._ZN5QListIiEaSERKS0_                   0x0001f260   Section       64  globalconfig.o(t._ZN5QListIiEaSERKS0_)
    t._ZN5QListIiEpLERKS0_                   0x0001f2a0   Section      148  globalconfig.o(t._ZN5QListIiEpLERKS0_)
    t._ZN5QListIiEpLERKS0_.clean             0x0001f334   Section        8  globalconfig.o(t._ZN5QListIiEpLERKS0_.clean)
    t._ZN5QPairIP7QObjectS1_EC1ERKS1_S4_     0x0001f33c   Section       10  path.o(t._ZN5QPairIP7QObjectS1_EC1ERKS1_S4_)
    t._ZN6Phonon14QSettingsGroup8setValueI5QListIiEEEvRK7QStringRKT_ 0x0001f348   Section      168  globalconfig.o(t._ZN6Phonon14QSettingsGroup8setValueI5QListIiEEEvRK7QStringRKT_)
    t._ZN6Phonon14QSettingsGroup8setValueI5QListIiEEEvRK7QStringRKT_.clean 0x0001f3f0   Section       16  globalconfig.o(t._ZN6Phonon14QSettingsGroup8setValueI5QListIiEEEvRK7QStringRKT_.clean)
    t._ZN6Phonon14QSettingsGroup8setValueIbEEvRK7QStringRKT_ 0x0001f400   Section      168  globalconfig.o(t._ZN6Phonon14QSettingsGroup8setValueIbEEvRK7QStringRKT_)
    t._ZN6Phonon14QSettingsGroup8setValueIbEEvRK7QStringRKT_.clean 0x0001f4a8   Section       16  globalconfig.o(t._ZN6Phonon14QSettingsGroup8setValueIbEEvRK7QStringRKT_.clean)
    t._ZN6Phonon17ObjectDescriptionILNS_21ObjectDescriptionTypeE0EE9fromIndexEi 0x0001f4b8   Section       48  audiooutput.o(t._ZN6Phonon17ObjectDescriptionILNS_21ObjectDescriptionTypeE0EE9fromIndexEi)
    t._ZN6Phonon17ObjectDescriptionILNS_21ObjectDescriptionTypeE0EE9fromIndexEi.clean 0x0001f4e8   Section       10  audiooutput.o(t._ZN6Phonon17ObjectDescriptionILNS_21ObjectDescriptionTypeE0EE9fromIndexEi.clean)
    t._ZN6Phonon17ObjectDescriptionILNS_21ObjectDescriptionTypeE0EEC1Ev 0x0001f4f2   Section       38  audiooutput.o(t._ZN6Phonon17ObjectDescriptionILNS_21ObjectDescriptionTypeE0EEC1Ev)
    t._ZN6Phonon17ObjectDescriptionILNS_21ObjectDescriptionTypeE0EEC1Ev.clean 0x0001f518   Section       14  audiooutput.o(t._ZN6Phonon17ObjectDescriptionILNS_21ObjectDescriptionTypeE0EEC1Ev.clean)
    t._ZN6Phonon17ObjectDescriptionILNS_21ObjectDescriptionTypeE2EEC1Ev 0x0001f526   Section       38  mediacontroller.o(t._ZN6Phonon17ObjectDescriptionILNS_21ObjectDescriptionTypeE2EEC1Ev)
    t._ZN6Phonon17ObjectDescriptionILNS_21ObjectDescriptionTypeE2EEC1Ev.clean 0x0001f54c   Section       14  mediacontroller.o(t._ZN6Phonon17ObjectDescriptionILNS_21ObjectDescriptionTypeE2EEC1Ev.clean)
    t._ZN6Phonon17ObjectDescriptionILNS_21ObjectDescriptionTypeE3EEC1Ev 0x0001f55a   Section       38  mediacontroller.o(t._ZN6Phonon17ObjectDescriptionILNS_21ObjectDescriptionTypeE3EEC1Ev)
    t._ZN6Phonon17ObjectDescriptionILNS_21ObjectDescriptionTypeE3EEC1Ev.clean 0x0001f580   Section       14  mediacontroller.o(t._ZN6Phonon17ObjectDescriptionILNS_21ObjectDescriptionTypeE3EEC1Ev.clean)
    t._ZN6Phonon17ObjectDescriptionILNS_21ObjectDescriptionTypeE4EE9fromIndexEi 0x0001f58e   Section       48  globalconfig.o(t._ZN6Phonon17ObjectDescriptionILNS_21ObjectDescriptionTypeE4EE9fromIndexEi)
    t._ZN6Phonon17ObjectDescriptionILNS_21ObjectDescriptionTypeE4EE9fromIndexEi.clean 0x0001f5be   Section       10  globalconfig.o(t._ZN6Phonon17ObjectDescriptionILNS_21ObjectDescriptionTypeE4EE9fromIndexEi.clean)
    t._ZN6Phonon22ObjectDescriptionModelILNS_21ObjectDescriptionTypeE0EE10removeRowsEiiRK11QModelIndex 0x0001f5c8   Section       24  objectdescriptionmodel.o(t._ZN6Phonon22ObjectDescriptionModelILNS_21ObjectDescriptionTypeE0EE10removeRowsEiiRK11QModelIndex)
    t._ZN6Phonon22ObjectDescriptionModelILNS_21ObjectDescriptionTypeE0EE11qt_metacastEPKc 0x0001f5e0   Section       52  objectdescriptionmodel.o(t._ZN6Phonon22ObjectDescriptionModelILNS_21ObjectDescriptionTypeE0EE11qt_metacastEPKc)
    t._ZN6Phonon22ObjectDescriptionModelILNS_21ObjectDescriptionTypeE0EE12dropMimeDataEPK9QMimeDataN2Qt10DropActionEiiRK11QModelIndex 0x0001f614   Section       34  objectdescriptionmodel.o(t._ZN6Phonon22ObjectDescriptionModelILNS_21ObjectDescriptionTypeE0EE12dropMimeDataEPK9QMimeDataN2Qt10DropActionEiiRK11QModelIndex)
    t._ZN6Phonon22ObjectDescriptionModelILNS_21ObjectDescriptionTypeE1EE10removeRowsEiiRK11QModelIndex 0x0001f636   Section       24  objectdescriptionmodel.o(t._ZN6Phonon22ObjectDescriptionModelILNS_21ObjectDescriptionTypeE1EE10removeRowsEiiRK11QModelIndex)
    t._ZN6Phonon22ObjectDescriptionModelILNS_21ObjectDescriptionTypeE1EE11qt_metacastEPKc 0x0001f650   Section       52  objectdescriptionmodel.o(t._ZN6Phonon22ObjectDescriptionModelILNS_21ObjectDescriptionTypeE1EE11qt_metacastEPKc)
    t._ZN6Phonon22ObjectDescriptionModelILNS_21ObjectDescriptionTypeE1EE12dropMimeDataEPK9QMimeDataN2Qt10DropActionEiiRK11QModelIndex 0x0001f684   Section       34  objectdescriptionmodel.o(t._ZN6Phonon22ObjectDescriptionModelILNS_21ObjectDescriptionTypeE1EE12dropMimeDataEPK9QMimeDataN2Qt10DropActionEiiRK11QModelIndex)
    t._ZN6Phonon22ObjectDescriptionModelILNS_21ObjectDescriptionTypeE2EE10removeRowsEiiRK11QModelIndex 0x0001f6a6   Section       24  objectdescriptionmodel.o(t._ZN6Phonon22ObjectDescriptionModelILNS_21ObjectDescriptionTypeE2EE10removeRowsEiiRK11QModelIndex)
    t._ZN6Phonon22ObjectDescriptionModelILNS_21ObjectDescriptionTypeE2EE11qt_metacastEPKc 0x0001f6c0   Section       52  objectdescriptionmodel.o(t._ZN6Phonon22ObjectDescriptionModelILNS_21ObjectDescriptionTypeE2EE11qt_metacastEPKc)
    t._ZN6Phonon22ObjectDescriptionModelILNS_21ObjectDescriptionTypeE2EE12dropMimeDataEPK9QMimeDataN2Qt10DropActionEiiRK11QModelIndex 0x0001f6f4   Section       34  objectdescriptionmodel.o(t._ZN6Phonon22ObjectDescriptionModelILNS_21ObjectDescriptionTypeE2EE12dropMimeDataEPK9QMimeDataN2Qt10DropActionEiiRK11QModelIndex)
    t._ZN6Phonon22ObjectDescriptionModelILNS_21ObjectDescriptionTypeE3EE10removeRowsEiiRK11QModelIndex 0x0001f716   Section       24  objectdescriptionmodel.o(t._ZN6Phonon22ObjectDescriptionModelILNS_21ObjectDescriptionTypeE3EE10removeRowsEiiRK11QModelIndex)
    t._ZN6Phonon22ObjectDescriptionModelILNS_21ObjectDescriptionTypeE3EE11qt_metacastEPKc 0x0001f730   Section       52  objectdescriptionmodel.o(t._ZN6Phonon22ObjectDescriptionModelILNS_21ObjectDescriptionTypeE3EE11qt_metacastEPKc)
    t._ZN6Phonon22ObjectDescriptionModelILNS_21ObjectDescriptionTypeE3EE12dropMimeDataEPK9QMimeDataN2Qt10DropActionEiiRK11QModelIndex 0x0001f764   Section       34  objectdescriptionmodel.o(t._ZN6Phonon22ObjectDescriptionModelILNS_21ObjectDescriptionTypeE3EE12dropMimeDataEPK9QMimeDataN2Qt10DropActionEiiRK11QModelIndex)
    t._ZN6Phonon22ObjectDescriptionModelILNS_21ObjectDescriptionTypeE4EE10removeRowsEiiRK11QModelIndex 0x0001f786   Section       24  objectdescriptionmodel.o(t._ZN6Phonon22ObjectDescriptionModelILNS_21ObjectDescriptionTypeE4EE10removeRowsEiiRK11QModelIndex)
    t._ZN6Phonon22ObjectDescriptionModelILNS_21ObjectDescriptionTypeE4EE11qt_metacastEPKc 0x0001f7a0   Section       52  objectdescriptionmodel.o(t._ZN6Phonon22ObjectDescriptionModelILNS_21ObjectDescriptionTypeE4EE11qt_metacastEPKc)
    t._ZN6Phonon22ObjectDescriptionModelILNS_21ObjectDescriptionTypeE4EE12dropMimeDataEPK9QMimeDataN2Qt10DropActionEiiRK11QModelIndex 0x0001f7d4   Section       34  objectdescriptionmodel.o(t._ZN6Phonon22ObjectDescriptionModelILNS_21ObjectDescriptionTypeE4EE12dropMimeDataEPK9QMimeDataN2Qt10DropActionEiiRK11QModelIndex)
    t._ZN6Phonon5IfaceINS_15EffectInterfaceENS_34_GLOBAL__N__10_effect_cpp_eecb3cc17NoIfaceES3_E4castEPKNS_16MediaNodePrivateE 0x0001f7f6   Section       14  effect.o(t._ZN6Phonon5IfaceINS_15EffectInterfaceENS_34_GLOBAL__N__10_effect_cpp_eecb3cc17NoIfaceES3_E4castEPKNS_16MediaNodePrivateE)
    t._ZN6Phonon5IfaceINS_15EffectInterfaceENS_34_GLOBAL__N__10_effect_cpp_eecb3cc17NoIfaceES3_E4castEPNS_16MediaNodePrivateE 0x0001f804   Section       14  effect.o(t._ZN6Phonon5IfaceINS_15EffectInterfaceENS_34_GLOBAL__N__10_effect_cpp_eecb3cc17NoIfaceES3_E4castEPNS_16MediaNodePrivateE)
    t._ZN6Phonon5IfaceINS_20MediaObjectInterfaceENS_39_GLOBAL__N__15_mediaobject_cpp_ad5cf8d97NoIfaceES3_E4castEPKNS_16MediaNodePrivateE 0x0001f812   Section       14  mediaobject.o(t._ZN6Phonon5IfaceINS_20MediaObjectInterfaceENS_39_GLOBAL__N__15_mediaobject_cpp_ad5cf8d97NoIfaceES3_E4castEPKNS_16MediaNodePrivateE)
    t._ZN6Phonon5IfaceINS_20MediaObjectInterfaceENS_39_GLOBAL__N__15_mediaobject_cpp_ad5cf8d97NoIfaceES3_E4castEPNS_16MediaNodePrivateE 0x0001f820   Section       14  mediaobject.o(t._ZN6Phonon5IfaceINS_20MediaObjectInterfaceENS_39_GLOBAL__N__15_mediaobject_cpp_ad5cf8d97NoIfaceES3_E4castEPNS_16MediaNodePrivateE)
    t._ZN6Phonon5IfaceINS_20VideoWidgetInterfaceENS_22VideoWidgetInterface44ENS_39_GLOBAL__N__15_videowidget_cpp_028ee8a77NoIfaceEE4castEPKNS_16MediaNodePrivateE 0x0001f82e   Section       32  videowidget.o(t._ZN6Phonon5IfaceINS_20VideoWidgetInterfaceENS_22VideoWidgetInterface44ENS_39_GLOBAL__N__15_videowidget_cpp_028ee8a77NoIfaceEE4castEPKNS_16MediaNodePrivateE)
    t._ZN6Phonon5IfaceINS_20VideoWidgetInterfaceENS_22VideoWidgetInterface44ENS_39_GLOBAL__N__15_videowidget_cpp_028ee8a77NoIfaceEE4castEPNS_16MediaNodePrivateE 0x0001f84e   Section       32  videowidget.o(t._ZN6Phonon5IfaceINS_20VideoWidgetInterfaceENS_22VideoWidgetInterface44ENS_39_GLOBAL__N__15_videowidget_cpp_028ee8a77NoIfaceEE4castEPNS_16MediaNodePrivateE)
    t._ZN6Phonon5IfaceINS_20VolumeFaderInterfaceENS_45_GLOBAL__N__21_volumefadereffect_cpp_fcc18a0e7NoIfaceES3_E4castEPKNS_16MediaNodePrivateE 0x0001f86e   Section       14  volumefadereffect.o(t._ZN6Phonon5IfaceINS_20VolumeFaderInterfaceENS_45_GLOBAL__N__21_volumefadereffect_cpp_fcc18a0e7NoIfaceES3_E4castEPKNS_16MediaNodePrivateE)
    t._ZN6Phonon5IfaceINS_20VolumeFaderInterfaceENS_45_GLOBAL__N__21_volumefadereffect_cpp_fcc18a0e7NoIfaceES3_E4castEPNS_16MediaNodePrivateE 0x0001f87c   Section       14  volumefadereffect.o(t._ZN6Phonon5IfaceINS_20VolumeFaderInterfaceENS_45_GLOBAL__N__21_volumefadereffect_cpp_fcc18a0e7NoIfaceES3_E4castEPNS_16MediaNodePrivateE)
    t._ZN6Phonon5IfaceINS_22AudioOutputInterface40ENS_22AudioOutputInterface42ENS_39_GLOBAL__N__15_audiooutput_cpp_ed2d95f27NoIfaceEE4castEPKNS_16MediaNodePrivateE 0x0001f88a   Section       32  audiooutput.o(t._ZN6Phonon5IfaceINS_22AudioOutputInterface40ENS_22AudioOutputInterface42ENS_39_GLOBAL__N__15_audiooutput_cpp_ed2d95f27NoIfaceEE4castEPKNS_16MediaNodePrivateE)
    t._ZN6Phonon5IfaceINS_22AudioOutputInterface40ENS_22AudioOutputInterface42ENS_39_GLOBAL__N__15_audiooutput_cpp_ed2d95f27NoIfaceEE4castEPNS_16MediaNodePrivateE 0x0001f8aa   Section       32  audiooutput.o(t._ZN6Phonon5IfaceINS_22AudioOutputInterface40ENS_22AudioOutputInterface42ENS_39_GLOBAL__N__15_audiooutput_cpp_ed2d95f27NoIfaceEE4castEPNS_16MediaNodePrivateE)
    t._ZN6Phonon5IfaceINS_22AudioOutputInterface42ENS_39_GLOBAL__N__15_audiooutput_cpp_ed2d95f27NoIfaceES3_EC1EPNS_16MediaNodePrivateE 0x0001f8ca   Section       24  audiooutput.o(t._ZN6Phonon5IfaceINS_22AudioOutputInterface42ENS_39_GLOBAL__N__15_audiooutput_cpp_ed2d95f27NoIfaceES3_EC1EPNS_16MediaNodePrivateE)
    t._ZN6Phonon5IfaceINS_22AudioOutputInterface42ENS_39_GLOBAL__N__15_audiooutput_cpp_ed2d95f27NoIfaceES3_EptEv 0x0001f8e4   Section       96  audiooutput.o(t._ZN6Phonon5IfaceINS_22AudioOutputInterface42ENS_39_GLOBAL__N__15_audiooutput_cpp_ed2d95f27NoIfaceES3_EptEv)
    t._ZN7QVectorIsE13detach_helperEv        0x0001f944   Section       18  audiodataoutput.o(t._ZN7QVectorIsE13detach_helperEv)
    t._ZN7QVectorIsE4freeEP16QVectorTypedDataIsE 0x0001f956   Section       24  audiodataoutput.o(t._ZN7QVectorIsE4freeEP16QVectorTypedDataIsE)
    t._ZN7QVectorIsE6mallocEi                0x0001f96e   Section       52  audiodataoutput.o(t._ZN7QVectorIsE6mallocEi)
    t._ZN7QVectorIsE7reallocEii              0x0001f9a4   Section      524  audiodataoutput.o(t._ZN7QVectorIsE7reallocEii)
    t._ZN7QVectorIsE7reallocEii.clean        0x0001fbb0   Section        8  audiodataoutput.o(t._ZN7QVectorIsE7reallocEii.clean)
    t._ZN8QPointerI7QObjectED1Ev             0x0001fbb8   Section       14  factory.o(t._ZN8QPointerI7QObjectED1Ev)
    t._ZN8QPointerI7QObjectEaSEPS0_          0x0001fbc6   Section       24  factory.o(t._ZN8QPointerI7QObjectEaSEPS0_)
    t._ZN8QPointerIN6Phonon11AudioOutputEED1Ev 0x0001fbde   Section       14  volumeslider.o(t._ZN8QPointerIN6Phonon11AudioOutputEED1Ev)
    t._ZN8QPointerIN6Phonon11AudioOutputEEaSEPS1_ 0x0001fbec   Section       24  volumeslider.o(t._ZN8QPointerIN6Phonon11AudioOutputEEaSEPS1_)
    t._ZN8QPointerIN6Phonon11MediaObjectEED1Ev 0x0001fc04   Section       14  mediacontroller.o(t._ZN8QPointerIN6Phonon11MediaObjectEED1Ev)
    t._ZN8QPointerIN6Phonon19AbstractMediaStreamEED1Ev 0x0001fc12   Section       14  mediasource.o(t._ZN8QPointerIN6Phonon19AbstractMediaStreamEED1Ev)
    t._ZN9QHashNodeIN6Phonon15EffectParameterE8QVariantEC1ERKS1_RKS2_ 0x0001fc20   Section       40  effect.o(t._ZN9QHashNodeIN6Phonon15EffectParameterE8QVariantEC1ERKS1_RKS2_)
    t._ZN9QHashNodeIN6Phonon15EffectParameterE8QVariantEC1ERKS1_RKS2_.clean 0x0001fc48   Section       12  effect.o(t._ZN9QHashNodeIN6Phonon15EffectParameterE8QVariantEC1ERKS1_RKS2_.clean)
    t._ZN9QHashNodeIP7QObjectN6Phonon15EffectParameterEEC1ERKS1_RKS3_ 0x0001fc54   Section       30  effectwidget.o(t._ZN9QHashNodeIP7QObjectN6Phonon15EffectParameterEEC1ERKS1_RKS3_)
    t._ZNK14QScopedPointerI11QObjectData21QScopedPointerDeleterIS0_EEptEv 0x0001fc74   Section       40  abstractaudiooutput.o(t._ZNK14QScopedPointerI11QObjectData21QScopedPointerDeleterIS0_EEptEv)
    t._ZNK14QScopedPointerIN6Phonon26AbstractMediaStreamPrivateE21QScopedPointerDeleterIS1_EEptEv 0x0001fc9c   Section       36  abstractmediastream.o(t._ZNK14QScopedPointerIN6Phonon26AbstractMediaStreamPrivateE21QScopedPointerDeleterIS1_EEptEv)
    t._ZNK14QStringBuilderI13QLatin1String7QStringEcvS1_Ev 0x0001fcc0   Section      144  globalconfig.o(t._ZNK14QStringBuilderI13QLatin1String7QStringEcvS1_Ev)
    t._ZNK14QStringBuilderI13QLatin1String7QStringEcvS1_Ev.clean 0x0001fd50   Section       10  globalconfig.o(t._ZNK14QStringBuilderI13QLatin1String7QStringEcvS1_Ev.clean)
    t._ZNK14QStringBuilderI7QString11QLatin1CharEcvS0_Ev 0x0001fd5a   Section      106  globalconfig.o(t._ZNK14QStringBuilderI7QString11QLatin1CharEcvS0_Ev)
    t._ZNK14QStringBuilderI7QString11QLatin1CharEcvS0_Ev.clean 0x0001fdc4   Section       10  globalconfig.o(t._ZNK14QStringBuilderI7QString11QLatin1CharEcvS0_Ev.clean)
    t._ZNK20QMutableListIteratorIiE7hasNextEv 0x0001fdce   Section       44  globalconfig.o(t._ZNK20QMutableListIteratorIiE7hasNextEv)
    t._ZNK4QMapI7QStringS0_E6valuesERKS0_    0x0001fdfa   Section      182  mediaobject.o(t._ZNK4QMapI7QStringS0_E6valuesERKS0_)
    t._ZNK4QMapI7QStringS0_E6valuesERKS0_.clean 0x0001feb0   Section       10  mediaobject.o(t._ZNK4QMapI7QStringS0_E6valuesERKS0_.clean)
    t._ZNK5QHashI10QByteArray8QVariantE4keysEv 0x0001feba   Section      142  objectdescription.o(t._ZNK5QHashI10QByteArray8QVariantE4keysEv)
    t._ZNK5QHashI10QByteArray8QVariantE4keysEv.clean 0x0001ff48   Section       10  objectdescription.o(t._ZNK5QHashI10QByteArray8QVariantE4keysEv.clean)
    t._ZNK5QHashI10QByteArray8QVariantE5valueERKS0_ 0x0001ff52   Section       58  globalconfig.o(t._ZNK5QHashI10QByteArray8QVariantE5valueERKS0_)
    t._ZNK5QHashI10QByteArray8QVariantE8findNodeERKS0_Pj 0x0001ff8c   Section      288  globalconfig.o(t._ZNK5QHashI10QByteArray8QVariantE8findNodeERKS0_Pj)
    t._ZNK5QHashIN6Phonon15EffectParameterE8QVariantE8findNodeERKS1_Pj 0x000200ac   Section      240  effect.o(t._ZNK5QHashIN6Phonon15EffectParameterE8QVariantE8findNodeERKS1_Pj)
    t._ZNK5QHashIP7QObject15QHashDummyValueE8findNodeERKS1_Pj 0x0002019c   Section      228  path.o(t._ZNK5QHashIP7QObject15QHashDummyValueE8findNodeERKS1_Pj)
    t._ZNK5QHashIP7QObjectN6Phonon15EffectParameterEE8containsERKS1_ 0x00020280   Section       32  effectwidget.o(t._ZNK5QHashIP7QObjectN6Phonon15EffectParameterEE8containsERKS1_)
    t._ZNK5QHashIP7QObjectN6Phonon15EffectParameterEE8findNodeERKS1_Pj 0x000202a0   Section      228  effectwidget.o(t._ZNK5QHashIP7QObjectN6Phonon15EffectParameterEE8findNodeERKS1_Pj)
    t._ZNK5QHashIi15QHashDummyValueE8findNodeERKiPj 0x00020384   Section      216  globalconfig.o(t._ZNK5QHashIi15QHashDummyValueE8findNodeERKiPj)
    t._ZNK5QListI28QExplicitlySharedDataPointerIN6Phonon21ObjectDescriptionDataEEE2atEi 0x0002045c   Section      152  objectdescriptionmodel.o(t._ZNK5QListI28QExplicitlySharedDataPointerIN6Phonon21ObjectDescriptionDataEEE2atEi)
    t._ZNK5QListI28QExplicitlySharedDataPointerIN6Phonon21ObjectDescriptionDataEEE4sizeEv 0x000204f4   Section       12  objectdescriptionmodel.o(t._ZNK5QListI28QExplicitlySharedDataPointerIN6Phonon21ObjectDescriptionDataEEE4sizeEv)
    t._ZNK5QListI5QPairIP7QObjectS2_EE14const_iteratorneERKS5_ 0x00020500   Section       18  path.o(t._ZNK5QListI5QPairIP7QObjectS2_EE14const_iteratorneERKS5_)
    t._ZNK5QListI5QPairIP7QObjectS2_EE2atEi  0x00020514   Section      152  path.o(t._ZNK5QListI5QPairIP7QObjectS2_EE2atEi)
    t._ZNK5QListI5QPairIP7QObjectS2_EE5beginEv 0x000205ac   Section       20  path.o(t._ZNK5QListI5QPairIP7QObjectS2_EE5beginEv)
    t._ZNK5QListI5QPairIP7QObjectS2_EE8containsERKS3_ 0x000205c0   Section       86  path.o(t._ZNK5QListI5QPairIP7QObjectS2_EE8containsERKS3_)
    t._ZNK5QListI7QStringE2atEi              0x00020618   Section      152  factory.o(t._ZNK5QListI7QStringE2atEi)
    t._ZNK5QListI7QStringE5countEv           0x000206b0   Section       12  factory.o(t._ZNK5QListI7QStringE5countEv)
    t._ZNK5QListI7QStringE7indexOfERKS0_i    0x000206bc   Section      120  factory.o(t._ZNK5QListI7QStringE7indexOfERKS0_i)
    t._ZNK5QListI8QVariantE2atEi             0x00020734   Section      152  effectwidget.o(t._ZNK5QListI8QVariantE2atEi)
    t._ZNK5QListIN6Phonon11MediaSourceEE7isEmptyEv 0x000207cc   Section       24  mediaobject.o(t._ZNK5QListIN6Phonon11MediaSourceEE7isEmptyEv)
    t._ZNK5QListIN6Phonon15EffectParameterEE2atEi 0x000207e4   Section      164  effect.o(t._ZNK5QListIN6Phonon15EffectParameterEE2atEi)
    t._ZNK5QListIPN6Phonon6EffectEE2atEi     0x00020888   Section      152  path.o(t._ZNK5QListIPN6Phonon6EffectEE2atEi)
    t._ZNK5QListIPN6Phonon6EffectEE5countEv  0x00020920   Section       12  path.o(t._ZNK5QListIPN6Phonon6EffectEE5countEv)
    t._ZNK5QListIPN6Phonon6EffectEE7indexOfERKS2_i 0x0002092c   Section      116  path.o(t._ZNK5QListIPN6Phonon6EffectEE7indexOfERKS2_i)
    t._ZNK5QListIPN6Phonon6EffectEE7isEmptyEv 0x000209a0   Section       24  path.o(t._ZNK5QListIPN6Phonon6EffectEE7isEmptyEv)
    t._ZNK5QListIPN6Phonon6EffectEE8containsERKS2_ 0x000209b8   Section       66  path.o(t._ZNK5QListIPN6Phonon6EffectEE8containsERKS2_)
    t._ZNK5QListIiE14const_iteratorneERKS1_  0x000209fa   Section       18  globalconfig.o(t._ZNK5QListIiE14const_iteratorneERKS1_)
    t._ZNK5QListIiE2atEi                     0x00020a0c   Section      152  globalconfig.o(t._ZNK5QListIiE2atEi)
    t._ZNK5QListIiE4sizeEv                   0x00020aa4   Section       12  globalconfig.o(t._ZNK5QListIiE4sizeEv)
    t._ZNK5QListIiE7indexOfERKii             0x00020ab0   Section      116  globalconfig.o(t._ZNK5QListIiE7indexOfERKii)
    t._ZNK5QListIiE7isEmptyEv                0x00020b24   Section       24  globalconfig.o(t._ZNK5QListIiE7isEmptyEv)
    t._ZNK5QListIiE8containsERKi             0x00020b3c   Section       66  objectdescription.o(t._ZNK5QListIiE8containsERKi)
    t._ZNK5QListIiEeqERKS0_                  0x00020b7e   Section       98  globalconfig.o(t._ZNK5QListIiEeqERKS0_)
    t._ZNK6Phonon14QSettingsGroup5valueI5QListIiEEET_RK7QStringRKS4_ 0x00020be0   Section      152  globalconfig.o(t._ZNK6Phonon14QSettingsGroup5valueI5QListIiEEET_RK7QStringRKS4_)
    t._ZNK6Phonon14QSettingsGroup5valueI5QListIiEEET_RK7QStringRKS4_.clean 0x00020c78   Section       26  globalconfig.o(t._ZNK6Phonon14QSettingsGroup5valueI5QListIiEEET_RK7QStringRKS4_.clean)
    t._ZNK6Phonon17ObjectDescriptionILNS_21ObjectDescriptionTypeE0EE4nameEv 0x00020c92   Section       22  audiooutput.o(t._ZNK6Phonon17ObjectDescriptionILNS_21ObjectDescriptionTypeE0EE4nameEv)
    t._ZNK6Phonon17ObjectDescriptionILNS_21ObjectDescriptionTypeE0EE5indexEv 0x00020ca8   Section       16  audiooutput.o(t._ZNK6Phonon17ObjectDescriptionILNS_21ObjectDescriptionTypeE0EE5indexEv)
    t._ZNK6Phonon17ObjectDescriptionILNS_21ObjectDescriptionTypeE0EEeqERKS2_ 0x00020cb8   Section       24  audiooutput.o(t._ZNK6Phonon17ObjectDescriptionILNS_21ObjectDescriptionTypeE0EEeqERKS2_)
    t._ZNK6Phonon17ObjectDescriptionILNS_21ObjectDescriptionTypeE0EEneERKS2_ 0x00020cd0   Section       20  audiooutput.o(t._ZNK6Phonon17ObjectDescriptionILNS_21ObjectDescriptionTypeE0EEneERKS2_)
    t._ZNK6Phonon22ObjectDescriptionModelILNS_21ObjectDescriptionTypeE0EE10metaObjectEv 0x00020ce4   Section       12  objectdescriptionmodel.o(t._ZNK6Phonon22ObjectDescriptionModelILNS_21ObjectDescriptionTypeE0EE10metaObjectEv)
    t._ZNK6Phonon22ObjectDescriptionModelILNS_21ObjectDescriptionTypeE0EE20supportedDropActionsEv 0x00020cf0   Section       16  objectdescriptionmodel.o(t._ZNK6Phonon22ObjectDescriptionModelILNS_21ObjectDescriptionTypeE0EE20supportedDropActionsEv)
    t._ZNK6Phonon22ObjectDescriptionModelILNS_21ObjectDescriptionTypeE0EE4dataERK11QModelIndexi 0x00020d00   Section       24  objectdescriptionmodel.o(t._ZNK6Phonon22ObjectDescriptionModelILNS_21ObjectDescriptionTypeE0EE4dataERK11QModelIndexi)
    t._ZNK6Phonon22ObjectDescriptionModelILNS_21ObjectDescriptionTypeE0EE5flagsERK11QModelIndex 0x00020d18   Section       20  objectdescriptionmodel.o(t._ZNK6Phonon22ObjectDescriptionModelILNS_21ObjectDescriptionTypeE0EE5flagsERK11QModelIndex)
    t._ZNK6Phonon22ObjectDescriptionModelILNS_21ObjectDescriptionTypeE0EE8mimeDataERK5QListI11QModelIndexE 0x00020d2c   Section       18  objectdescriptionmodel.o(t._ZNK6Phonon22ObjectDescriptionModelILNS_21ObjectDescriptionTypeE0EE8mimeDataERK5QListI11QModelIndexE)
    t._ZNK6Phonon22ObjectDescriptionModelILNS_21ObjectDescriptionTypeE0EE8rowCountERK11QModelIndex 0x00020d3e   Section       16  objectdescriptionmodel.o(t._ZNK6Phonon22ObjectDescriptionModelILNS_21ObjectDescriptionTypeE0EE8rowCountERK11QModelIndex)
    t._ZNK6Phonon22ObjectDescriptionModelILNS_21ObjectDescriptionTypeE0EE9mimeTypesEv 0x00020d4e   Section       18  objectdescriptionmodel.o(t._ZNK6Phonon22ObjectDescriptionModelILNS_21ObjectDescriptionTypeE0EE9mimeTypesEv)
    t._ZNK6Phonon22ObjectDescriptionModelILNS_21ObjectDescriptionTypeE1EE10metaObjectEv 0x00020d60   Section       12  objectdescriptionmodel.o(t._ZNK6Phonon22ObjectDescriptionModelILNS_21ObjectDescriptionTypeE1EE10metaObjectEv)
    t._ZNK6Phonon22ObjectDescriptionModelILNS_21ObjectDescriptionTypeE1EE20supportedDropActionsEv 0x00020d6c   Section       16  objectdescriptionmodel.o(t._ZNK6Phonon22ObjectDescriptionModelILNS_21ObjectDescriptionTypeE1EE20supportedDropActionsEv)
    t._ZNK6Phonon22ObjectDescriptionModelILNS_21ObjectDescriptionTypeE1EE4dataERK11QModelIndexi 0x00020d7c   Section       24  objectdescriptionmodel.o(t._ZNK6Phonon22ObjectDescriptionModelILNS_21ObjectDescriptionTypeE1EE4dataERK11QModelIndexi)
    t._ZNK6Phonon22ObjectDescriptionModelILNS_21ObjectDescriptionTypeE1EE5flagsERK11QModelIndex 0x00020d94   Section       20  objectdescriptionmodel.o(t._ZNK6Phonon22ObjectDescriptionModelILNS_21ObjectDescriptionTypeE1EE5flagsERK11QModelIndex)
    t._ZNK6Phonon22ObjectDescriptionModelILNS_21ObjectDescriptionTypeE1EE8mimeDataERK5QListI11QModelIndexE 0x00020da8   Section       18  objectdescriptionmodel.o(t._ZNK6Phonon22ObjectDescriptionModelILNS_21ObjectDescriptionTypeE1EE8mimeDataERK5QListI11QModelIndexE)
    t._ZNK6Phonon22ObjectDescriptionModelILNS_21ObjectDescriptionTypeE1EE8rowCountERK11QModelIndex 0x00020dba   Section       16  objectdescriptionmodel.o(t._ZNK6Phonon22ObjectDescriptionModelILNS_21ObjectDescriptionTypeE1EE8rowCountERK11QModelIndex)
    t._ZNK6Phonon22ObjectDescriptionModelILNS_21ObjectDescriptionTypeE1EE9mimeTypesEv 0x00020dca   Section       18  objectdescriptionmodel.o(t._ZNK6Phonon22ObjectDescriptionModelILNS_21ObjectDescriptionTypeE1EE9mimeTypesEv)
    t._ZNK6Phonon22ObjectDescriptionModelILNS_21ObjectDescriptionTypeE2EE10metaObjectEv 0x00020ddc   Section       12  objectdescriptionmodel.o(t._ZNK6Phonon22ObjectDescriptionModelILNS_21ObjectDescriptionTypeE2EE10metaObjectEv)
    t._ZNK6Phonon22ObjectDescriptionModelILNS_21ObjectDescriptionTypeE2EE20supportedDropActionsEv 0x00020de8   Section       16  objectdescriptionmodel.o(t._ZNK6Phonon22ObjectDescriptionModelILNS_21ObjectDescriptionTypeE2EE20supportedDropActionsEv)
    t._ZNK6Phonon22ObjectDescriptionModelILNS_21ObjectDescriptionTypeE2EE4dataERK11QModelIndexi 0x00020df8   Section       24  objectdescriptionmodel.o(t._ZNK6Phonon22ObjectDescriptionModelILNS_21ObjectDescriptionTypeE2EE4dataERK11QModelIndexi)
    t._ZNK6Phonon22ObjectDescriptionModelILNS_21ObjectDescriptionTypeE2EE5flagsERK11QModelIndex 0x00020e10   Section       20  objectdescriptionmodel.o(t._ZNK6Phonon22ObjectDescriptionModelILNS_21ObjectDescriptionTypeE2EE5flagsERK11QModelIndex)
    t._ZNK6Phonon22ObjectDescriptionModelILNS_21ObjectDescriptionTypeE2EE8mimeDataERK5QListI11QModelIndexE 0x00020e24   Section       18  objectdescriptionmodel.o(t._ZNK6Phonon22ObjectDescriptionModelILNS_21ObjectDescriptionTypeE2EE8mimeDataERK5QListI11QModelIndexE)
    t._ZNK6Phonon22ObjectDescriptionModelILNS_21ObjectDescriptionTypeE2EE8rowCountERK11QModelIndex 0x00020e36   Section       16  objectdescriptionmodel.o(t._ZNK6Phonon22ObjectDescriptionModelILNS_21ObjectDescriptionTypeE2EE8rowCountERK11QModelIndex)
    t._ZNK6Phonon22ObjectDescriptionModelILNS_21ObjectDescriptionTypeE2EE9mimeTypesEv 0x00020e46   Section       18  objectdescriptionmodel.o(t._ZNK6Phonon22ObjectDescriptionModelILNS_21ObjectDescriptionTypeE2EE9mimeTypesEv)
    t._ZNK6Phonon22ObjectDescriptionModelILNS_21ObjectDescriptionTypeE3EE10metaObjectEv 0x00020e58   Section       12  objectdescriptionmodel.o(t._ZNK6Phonon22ObjectDescriptionModelILNS_21ObjectDescriptionTypeE3EE10metaObjectEv)
    t._ZNK6Phonon22ObjectDescriptionModelILNS_21ObjectDescriptionTypeE3EE20supportedDropActionsEv 0x00020e64   Section       16  objectdescriptionmodel.o(t._ZNK6Phonon22ObjectDescriptionModelILNS_21ObjectDescriptionTypeE3EE20supportedDropActionsEv)
    t._ZNK6Phonon22ObjectDescriptionModelILNS_21ObjectDescriptionTypeE3EE4dataERK11QModelIndexi 0x00020e74   Section       24  objectdescriptionmodel.o(t._ZNK6Phonon22ObjectDescriptionModelILNS_21ObjectDescriptionTypeE3EE4dataERK11QModelIndexi)
    t._ZNK6Phonon22ObjectDescriptionModelILNS_21ObjectDescriptionTypeE3EE5flagsERK11QModelIndex 0x00020e8c   Section       20  objectdescriptionmodel.o(t._ZNK6Phonon22ObjectDescriptionModelILNS_21ObjectDescriptionTypeE3EE5flagsERK11QModelIndex)
    t._ZNK6Phonon22ObjectDescriptionModelILNS_21ObjectDescriptionTypeE3EE8mimeDataERK5QListI11QModelIndexE 0x00020ea0   Section       18  objectdescriptionmodel.o(t._ZNK6Phonon22ObjectDescriptionModelILNS_21ObjectDescriptionTypeE3EE8mimeDataERK5QListI11QModelIndexE)
    t._ZNK6Phonon22ObjectDescriptionModelILNS_21ObjectDescriptionTypeE3EE8rowCountERK11QModelIndex 0x00020eb2   Section       16  objectdescriptionmodel.o(t._ZNK6Phonon22ObjectDescriptionModelILNS_21ObjectDescriptionTypeE3EE8rowCountERK11QModelIndex)
    t._ZNK6Phonon22ObjectDescriptionModelILNS_21ObjectDescriptionTypeE3EE9mimeTypesEv 0x00020ec2   Section       18  objectdescriptionmodel.o(t._ZNK6Phonon22ObjectDescriptionModelILNS_21ObjectDescriptionTypeE3EE9mimeTypesEv)
    t._ZNK6Phonon22ObjectDescriptionModelILNS_21ObjectDescriptionTypeE4EE10metaObjectEv 0x00020ed4   Section       12  objectdescriptionmodel.o(t._ZNK6Phonon22ObjectDescriptionModelILNS_21ObjectDescriptionTypeE4EE10metaObjectEv)
    t._ZNK6Phonon22ObjectDescriptionModelILNS_21ObjectDescriptionTypeE4EE20supportedDropActionsEv 0x00020ee0   Section       16  objectdescriptionmodel.o(t._ZNK6Phonon22ObjectDescriptionModelILNS_21ObjectDescriptionTypeE4EE20supportedDropActionsEv)
    t._ZNK6Phonon22ObjectDescriptionModelILNS_21ObjectDescriptionTypeE4EE4dataERK11QModelIndexi 0x00020ef0   Section       24  objectdescriptionmodel.o(t._ZNK6Phonon22ObjectDescriptionModelILNS_21ObjectDescriptionTypeE4EE4dataERK11QModelIndexi)
    t._ZNK6Phonon22ObjectDescriptionModelILNS_21ObjectDescriptionTypeE4EE5flagsERK11QModelIndex 0x00020f08   Section       20  objectdescriptionmodel.o(t._ZNK6Phonon22ObjectDescriptionModelILNS_21ObjectDescriptionTypeE4EE5flagsERK11QModelIndex)
    t._ZNK6Phonon22ObjectDescriptionModelILNS_21ObjectDescriptionTypeE4EE8mimeDataERK5QListI11QModelIndexE 0x00020f1c   Section       18  objectdescriptionmodel.o(t._ZNK6Phonon22ObjectDescriptionModelILNS_21ObjectDescriptionTypeE4EE8mimeDataERK5QListI11QModelIndexE)
    t._ZNK6Phonon22ObjectDescriptionModelILNS_21ObjectDescriptionTypeE4EE8rowCountERK11QModelIndex 0x00020f2e   Section       16  objectdescriptionmodel.o(t._ZNK6Phonon22ObjectDescriptionModelILNS_21ObjectDescriptionTypeE4EE8rowCountERK11QModelIndex)
    t._ZNK6Phonon22ObjectDescriptionModelILNS_21ObjectDescriptionTypeE4EE9mimeTypesEv 0x00020f3e   Section       18  objectdescriptionmodel.o(t._ZNK6Phonon22ObjectDescriptionModelILNS_21ObjectDescriptionTypeE4EE9mimeTypesEv)
    t._ZlsIiER11QDataStreamS1_RK5QListIT_E   0x00020f50   Section      232  phononnamespace.o(t._ZlsIiER11QDataStreamS1_RK5QListIT_E)
    t._ZplI13QLatin1String7QStringE14QStringBuilderIN13QConcatenableIT_E4typeENS3_IT0_E4typeEERKS4_RKS7_ 0x00021038   Section       18  globalconfig.o(t._ZplI13QLatin1String7QStringE14QStringBuilderIN13QConcatenableIT_E4typeENS3_IT0_E4typeEERKS4_RKS7_)
    t._ZplI7QString11QLatin1CharE14QStringBuilderIN13QConcatenableIT_E4typeENS3_IT0_E4typeEERKS4_RKS7_ 0x0002104a   Section       18  globalconfig.o(t._ZplI7QString11QLatin1CharE14QStringBuilderIN13QConcatenableIT_E4typeENS3_IT0_E4typeEERKS4_RKS7_)
    t._ZplI7QString13QLatin1StringE14QStringBuilderIN13QConcatenableIT_E4typeENS3_IT0_E4typeEERKS4_RKS7_ 0x0002105c   Section       18  factory.o(t._ZplI7QString13QLatin1StringE14QStringBuilderIN13QConcatenableIT_E4typeENS3_IT0_E4typeEERKS4_RKS7_)
    t._ZplI7QStringA10_cE14QStringBuilderIN13QConcatenableIT_E4typeENS3_IT0_E4typeEERKS4_RKS7_ 0x0002106e   Section       18  factory.o(t._ZplI7QStringA10_cE14QStringBuilderIN13QConcatenableIT_E4typeENS3_IT0_E4typeEERKS4_RKS7_)
    t._ZplI7QStringS0_E14QStringBuilderIN13QConcatenableIT_E4typeENS2_IT0_E4typeEERKS3_RKS6_ 0x00021080   Section       18  factory.o(t._ZplI7QStringS0_E14QStringBuilderIN13QConcatenableIT_E4typeENS2_IT0_E4typeEERKS3_RKS6_)
    t._ZrsIiER11QDataStreamS1_R5QListIT_E    0x00021092   Section       74  phononnamespace.o(t._ZrsIiER11QDataStreamS1_R5QListIT_E)
    .extab._ZN6Phonon19AbstractAudioOutputC1ERNS_26AbstractAudioOutputPrivateEP7QObject 0x000210dc   Data           0  abstractaudiooutput.o(.ARM.extab)
    .extab._ZN6Phonon19AbstractAudioOutputD1Ev 0x000210ec   Data           0  abstractaudiooutput.o(.ARM.extab)
    .extab._ZN6Phonon19AbstractMediaStreamD2Ev 0x000210fc   Data           0  abstractmediastream.o(.ARM.extab)
    .extab._ZN6Phonon19AbstractMediaStreamC2EP7QObject 0x0002110c   Data           0  abstractmediastream.o(.ARM.extab)
    .extab._ZN6Phonon19AbstractMediaStreamC2ERNS_26AbstractMediaStreamPrivateEP7QObject 0x00021134   Data           0  abstractmediastream.o(.ARM.extab)
    .extab._ZN6Phonon26AbstractMediaStreamPrivateD1Ev 0x00021144   Data           0  abstractmediastream.o(.ARM.extab)
    .extab._ZN6Phonon15AudioDataOutputC1EP7QObject 0x0002115c   Data           0  audiodataoutput.o(.ARM.extab)
    .extab._ZN7QVectorIsE7reallocEii         0x0002116c   Data           0  audiodataoutput.o(.ARM.extab)
    .extab._ZN4QMapIN6Phonon15AudioDataOutput7ChannelE7QVectorIsEE13detach_helperEv 0x00021188   Data           0  audiodataoutput.o(.ARM.extab)
    .extab._Z24qMetaTypeConstructHelperI4QMapIN6Phonon15AudioDataOutput7ChannelE7QVectorIsEEEPvPKT_ 0x000211a4   Data           0  audiodataoutput.o(.ARM.extab)
    .extab._ZN4QMapIN6Phonon15AudioDataOutput7ChannelE7QVectorIsEE11node_createEP8QMapDataPPNS6_4NodeERKS2_RKS4_ 0x000211bc   Data           0  audiodataoutput.o(.ARM.extab)
    .extab._ZN6Phonon11AudioOutput15setOutputDeviceERKNS_17ObjectDescriptionILNS_21ObjectDescriptionTypeE0EEE 0x000211f4   Data           0  audiooutput.o(.ARM.extab)
    .extab._ZN6Phonon18AudioOutputPrivate27handleAutomaticDeviceChangeERKNS_17ObjectDescriptionILNS_21ObjectDescriptionTypeE0EEENS0_16DeviceChangeTypeE 0x0002120c   Data           0  audiooutput.o(.ARM.extab)
    .extab._ZN6Phonon19callSetOutputDeviceEPNS_18AudioOutputPrivateERKNS_17ObjectDescriptionILNS_21ObjectDescriptionTypeE0EEE 0x000213cc   Data           0  audiooutput.o(.ARM.extab)
    .extab._ZN6Phonon18AudioOutputPrivate16_k_deviceChangedE7QStringi 0x000213dc   Data           0  audiooutput.o(.ARM.extab)
    .extab._ZN6Phonon18AudioOutputPrivate20_k_deviceListChangedEv 0x000213f4   Data           0  audiooutput.o(.ARM.extab)
    .extab._ZN6Phonon18AudioOutputPrivate20_k_audioDeviceFailedEv 0x000214a4   Data           0  audiooutput.o(.ARM.extab)
    .extab._ZN6Phonon18AudioOutputPrivate17_k_revertFallbackEv 0x000214f4   Data           0  audiooutput.o(.ARM.extab)
    .extab._ZN6Phonon11AudioOutput11qt_metacallEN11QMetaObject4CallEiPPv 0x00021504   Data           0  audiooutput.o(.ARM.extab)
    .extab._ZN6Phonon18AudioOutputPrivate4initENS_8CategoryE 0x00021524   Data           0  audiooutput.o(.ARM.extab)
    .extab._ZN6Phonon11AudioOutputC1ENS_8CategoryEP7QObject 0x0002153c   Data           0  audiooutput.o(.ARM.extab)
    .extab._ZN6Phonon11AudioOutputC1EP7QObject 0x0002154c   Data           0  audiooutput.o(.ARM.extab)
    .extab._ZN6Phonon18AudioOutputPrivate18setupBackendObjectEv 0x0002155c   Data           0  audiooutput.o(.ARM.extab)
    .extab._ZN6Phonon18AudioOutputPrivate19createBackendObjectEv 0x0002159c   Data           0  audiooutput.o(.ARM.extab)
    .extab._ZN6Phonon18AudioOutputPrivateD1Ev 0x000215bc   Data           0  audiooutput.o(.ARM.extab)
    .extab._ZN6Phonon19callSetOutputDeviceEPNS_18AudioOutputPrivateEi 0x000215f4   Data           0  audiooutput.o(.ARM.extab)
    .extab._Z6qDebugv                        0x0002160c   Data           0  audiooutput.o(.ARM.extab)
    .extab._ZN6QDebugD1Ev                    0x00021624   Data           0  audiooutput.o(.ARM.extab)
    .extab._ZN6QDebuglsEPKc                  0x00021648   Data           0  audiooutput.o(.ARM.extab)
    .extab._ZN5QListI7QStringE14node_constructEPNS1_4NodeERKS0_ 0x00021658   Data           0  audiooutput.o(.ARM.extab)
    .extab._ZN5QListI7QStringE9node_copyEPNS1_4NodeES3_S3_ 0x00021668   Data           0  audiooutput.o(.ARM.extab)
    .extab._ZN5QListI7QStringE6appendERKS0_  0x0002168c   Data           0  audiooutput.o(.ARM.extab)
    .extab._ZN6Phonon17ObjectDescriptionILNS_21ObjectDescriptionTypeE0EE9fromIndexEi 0x000216bc   Data           0  audiooutput.o(.ARM.extab)
    .extab._ZN6Phonon17ObjectDescriptionILNS_21ObjectDescriptionTypeE0EEC1Ev 0x000216cc   Data           0  audiooutput.o(.ARM.extab)
    .extab._ZN6Phonon18AudioOutputPrivateC1ENS_16MediaNodePrivate6CastIdE 0x000216dc   Data           0  audiooutput.o(.ARM.extab)
    .extab._ZN11QStringListC1ERK7QString     0x0002170c   Data           0  audiooutput.o(.ARM.extab)
    .extab._ZN4__C1ptEv                      0x0002171c   Data           0  backendcapabilities.o(.ARM.extab)
    .extab._ZN6Phonon19BackendCapabilities19isMimeTypeAvailableERK7QString 0x00021734   Data           0  backendcapabilities.o(.ARM.extab)
    .extab._ZN6Phonon19BackendCapabilities27availableAudioOutputDevicesEv 0x00021744   Data           0  backendcapabilities.o(.ARM.extab)
    .extab._ZN6Phonon19BackendCapabilities28availableAudioCaptureDevicesEv 0x0002178c   Data           0  backendcapabilities.o(.ARM.extab)
    .extab._ZN6Phonon19BackendCapabilities21availableAudioEffectsEv 0x000217d4   Data           0  backendcapabilities.o(.ARM.extab)
    .extab._ZN5QListIN6Phonon17ObjectDescriptionILNS0_21ObjectDescriptionTypeE0EEEE14node_constructEPNS4_4NodeERKS3_ 0x0002180c   Data           0  backendcapabilities.o(.ARM.extab)
    .extab._ZN5QListIN6Phonon17ObjectDescriptionILNS0_21ObjectDescriptionTypeE0EEEE9node_copyEPNS4_4NodeES6_S6_ 0x0002181c   Data           0  backendcapabilities.o(.ARM.extab)
    .extab._ZN5QListIN6Phonon17ObjectDescriptionILNS0_21ObjectDescriptionTypeE0EEEE18detach_helper_growEii 0x00021840   Data           0  backendcapabilities.o(.ARM.extab)
    .extab._ZN5QListIN6Phonon17ObjectDescriptionILNS0_21ObjectDescriptionTypeE0EEEE6appendERKS3_ 0x00021870   Data           0  backendcapabilities.o(.ARM.extab)
    .extab._ZN5QListIN6Phonon17ObjectDescriptionILNS0_21ObjectDescriptionTypeE4EEEE14node_constructEPNS4_4NodeERKS3_ 0x000218a0   Data           0  backendcapabilities.o(.ARM.extab)
    .extab._ZN5QListIN6Phonon17ObjectDescriptionILNS0_21ObjectDescriptionTypeE4EEEE9node_copyEPNS4_4NodeES6_S6_ 0x000218b0   Data           0  backendcapabilities.o(.ARM.extab)
    .extab._ZN5QListIN6Phonon17ObjectDescriptionILNS0_21ObjectDescriptionTypeE4EEEE18detach_helper_growEii 0x000218d4   Data           0  backendcapabilities.o(.ARM.extab)
    .extab._ZN5QListIN6Phonon17ObjectDescriptionILNS0_21ObjectDescriptionTypeE4EEEE6appendERKS3_ 0x00021904   Data           0  backendcapabilities.o(.ARM.extab)
    .extab._ZN5QListIN6Phonon17ObjectDescriptionILNS0_21ObjectDescriptionTypeE1EEEE14node_constructEPNS4_4NodeERKS3_ 0x00021934   Data           0  backendcapabilities.o(.ARM.extab)
    .extab._ZN5QListIN6Phonon17ObjectDescriptionILNS0_21ObjectDescriptionTypeE1EEEE9node_copyEPNS4_4NodeES6_S6_ 0x00021944   Data           0  backendcapabilities.o(.ARM.extab)
    .extab._ZN5QListIN6Phonon17ObjectDescriptionILNS0_21ObjectDescriptionTypeE1EEEE18detach_helper_growEii 0x00021968   Data           0  backendcapabilities.o(.ARM.extab)
    .extab._ZN5QListIN6Phonon17ObjectDescriptionILNS0_21ObjectDescriptionTypeE1EEEE6appendERKS3_ 0x00021998   Data           0  backendcapabilities.o(.ARM.extab)
    .extab._ZN6Phonon26BackendCapabilitiesPrivateC1Ev 0x000219c8   Data           0  backendcapabilities.o(.ARM.extab)
    .extab._ZN6Phonon6EffectD1Ev             0x000219d8   Data           0  effect.o(.ARM.extab)
    .extab._ZN6Phonon6EffectC1ERKNS_17ObjectDescriptionILNS_21ObjectDescriptionTypeE1EEEP7QObject 0x000219e8   Data           0  effect.o(.ARM.extab)
    .extab._ZN6Phonon6EffectC1ERNS_13EffectPrivateEP7QObject 0x00021a08   Data           0  effect.o(.ARM.extab)
    .extab._ZN6Phonon13EffectPrivate26aboutToDeleteBackendObjectEv 0x00021a18   Data           0  effect.o(.ARM.extab)
    .extab._ZN6Phonon13EffectPrivate18setupBackendObjectEv 0x00021a38   Data           0  effect.o(.ARM.extab)
    .extab._ZN9QHashNodeIN6Phonon15EffectParameterE8QVariantEC1ERKS1_RKS2_ 0x00021a48   Data           0  effect.o(.ARM.extab)
    .extab._ZN5QHashIN6Phonon15EffectParameterE8QVariantEixERKS1_ 0x00021a58   Data           0  effect.o(.ARM.extab)
    .extab._ZN6Phonon13EffectPrivateD1Ev     0x00021a78   Data           0  effect.o(.ARM.extab)
    .extab._ZN5QHashIN6Phonon15EffectParameterE8QVariantE11deleteNode2EPN9QHashData4NodeE 0x00021a90   Data           0  effect.o(.ARM.extab)
    .extab._ZN6Phonon13EffectPrivateC1Ev     0x00021aa0   Data           0  effect.o(.ARM.extab)
    .extab._ZN5QHashIN6Phonon15EffectParameterE8QVariantE13duplicateNodeEPN9QHashData4NodeEPv 0x00021ac0   Data           0  effect.o(.ARM.extab)
    .extab._ZN6Phonon15EffectParameterC1Ev   0x00021ad0   Data           0  effectparameter.o(.ARM.extab)
    .extab._ZN6Phonon15EffectParameterC1EiRK7QString6QFlagsINS0_4HintEERK8QVariantS9_S9_RK5QListIS7_ES3_ 0x00021ae0   Data           0  effectparameter.o(.ARM.extab)
    .extab._ZN5QListI8QVariantE13detach_helperEi 0x00021af0   Data           0  effectparameter.o(.ARM.extab)
    .extab._ZN6Phonon22EffectParameterPrivateD1Ev 0x00021b34   Data           0  effectparameter.o(.ARM.extab)
    .extab._ZN6Phonon22EffectParameterPrivateC1Ev 0x00021b64   Data           0  effectparameter.o(.ARM.extab)
    .extab._ZN6Phonon19EffectWidgetPrivate21_k_setSliderParameterEi 0x00021b94   Data           0  effectwidget.o(.ARM.extab)
    .extab._ZN6Phonon19EffectWidgetPrivate21_k_setStringParameterERK7QString 0x00021ba4   Data           0  effectwidget.o(.ARM.extab)
    .extab._ZN6Phonon19EffectWidgetPrivate21_k_setDoubleParameterEd 0x00021bb4   Data           0  effectwidget.o(.ARM.extab)
    .extab._ZN6Phonon19EffectWidgetPrivate18_k_setIntParameterEi 0x00021bc4   Data           0  effectwidget.o(.ARM.extab)
    .extab._ZN6Phonon19EffectWidgetPrivate21_k_setToggleParameterEb 0x00021bd4   Data           0  effectwidget.o(.ARM.extab)
    .extab._ZN6Phonon19EffectWidgetPrivate14autogenerateUiEv 0x00021be4   Data           0  effectwidget.o(.ARM.extab)
    .extab._ZN6Phonon12EffectWidgetC1EPNS_6EffectEP7QWidget 0x00021d5c   Data           0  effectwidget.o(.ARM.extab)
    .extab._ZN6Phonon12EffectWidgetD1Ev      0x00021d7c   Data           0  effectwidget.o(.ARM.extab)
    .extab._ZN9QComboBox7addItemERK7QStringRK8QVariant 0x00021d8c   Data           0  effectwidget.o(.ARM.extab)
    .extab._ZN5QHashIP7QObjectN6Phonon15EffectParameterEE10createNodeEjRKS1_RKS3_PP9QHashNodeIS1_S3_E 0x00021d9c   Data           0  effectwidget.o(.ARM.extab)
    .extab._ZN5QHashIP7QObjectN6Phonon15EffectParameterEEixERKS1_ 0x00021db4   Data           0  effectwidget.o(.ARM.extab)
    .extab._ZN5QHashIP7QObjectN6Phonon15EffectParameterEE13duplicateNodeEPN9QHashData4NodeEPv 0x00021dc4   Data           0  effectwidget.o(.ARM.extab)
    .extab._ZN6Phonon14FactoryPrivate24objectDescriptionChangedENS_21ObjectDescriptionTypeE 0x00021dd4   Data           0  factory.o(.ARM.extab)
    .extab._ZN6Phonon14FactoryPrivateC1Ev    0x00021dec   Data           0  factory.o(.ARM.extab)
    .extab._ZN6Phonon14FactoryPrivateD1Ev    0x00021e14   Data           0  factory.o(.ARM.extab)
    .extab._ZN6Phonon16__N6Phonon4__C1EptEv  0x00021e4c   Data           0  factory.o(.ARM.extab)
    .extab._ZN6Phonon14FactoryPrivate14platformPluginEv 0x00021e64   Data           0  factory.o(.ARM.extab)
    .extab._ZN6Phonon14FactoryPrivate13createBackendEv 0x000220d4   Data           0  factory.o(.ARM.extab)
    .extab._ZN6Phonon7Factory22registerFrontendObjectEPNS_16MediaNodePrivateE 0x00022284   Data           0  factory.o(.ARM.extab)
    .extab._ZN6Phonon7Factory17createMediaObjectEP7QObject 0x000222a0   Data           0  factory.o(.ARM.extab)
    .extab._ZN6Phonon7Factory12createEffectEiP7QObject 0x000222b0   Data           0  factory.o(.ARM.extab)
    .extab._ZN6Phonon7Factory23createVolumeFaderEffectEP7QObject 0x000222d0   Data           0  factory.o(.ARM.extab)
    .extab._ZN6Phonon7Factory17createAudioOutputEP7QObject 0x000222e0   Data           0  factory.o(.ARM.extab)
    .extab._ZN6Phonon7Factory17createVideoWidgetEP7QObject 0x000222f0   Data           0  factory.o(.ARM.extab)
    .extab._ZN6Phonon7Factory21createAudioDataOutputEP7QObject 0x00022300   Data           0  factory.o(.ARM.extab)
    .extab._ZN6Phonon7Factory10identifierEv  0x00022310   Data           0  factory.o(.ARM.extab)
    .extab._ZN6Phonon7Factory11backendNameEv 0x00022320   Data           0  factory.o(.ARM.extab)
    .extab._ZN6Phonon7Factory14backendCommentEv 0x00022330   Data           0  factory.o(.ARM.extab)
    .extab._ZN6Phonon7Factory14backendVersionEv 0x00022340   Data           0  factory.o(.ARM.extab)
    .extab._ZN6Phonon7Factory11backendIconEv 0x00022350   Data           0  factory.o(.ARM.extab)
    .extab._ZN6Phonon7Factory14backendWebsiteEv 0x00022360   Data           0  factory.o(.ARM.extab)
    .extab._ZNK14QStringBuilderI7QStringS0_EcvS0_Ev 0x00022370   Data           0  factory.o(.ARM.extab)
    .extab._ZN5QListIP7QObjectE13detach_helperEi 0x00022380   Data           0  factory.o(.ARM.extab)
    .extab._ZN5QListIP7QObjectE18detach_helper_growEii 0x0002239c   Data           0  factory.o(.ARM.extab)
    .extab._ZN5QListIP7QObjectE6appendERKS1_ 0x000223cc   Data           0  factory.o(.ARM.extab)
    .extab._ZN5QListI7QStringE13detach_helperEi 0x000223e8   Data           0  factory.o(.ARM.extab)
    .extab._ZN5QListI7QStringE18detach_helper_growEii 0x00022404   Data           0  factory.o(.ARM.extab)
    .extab._ZN5QListI8QVariantE14node_constructEPNS1_4NodeERKS0_ 0x00022434   Data           0  factory.o(.ARM.extab)
    .extab._ZN5QListI8QVariantE9node_copyEPNS1_4NodeES3_S3_ 0x00022444   Data           0  factory.o(.ARM.extab)
    .extab._ZN5QListI8QVariantE18detach_helper_growEii 0x00022468   Data           0  factory.o(.ARM.extab)
    .extab._ZN5QListI8QVariantE6appendERKS0_ 0x00022498   Data           0  factory.o(.ARM.extab)
    .extab._ZN5QListIPN6Phonon16MediaNodePrivateEE13detach_helperEi 0x000224c8   Data           0  factory.o(.ARM.extab)
    .extab._ZN5QListIPN6Phonon16MediaNodePrivateEE18detach_helper_growEii 0x000224e4   Data           0  factory.o(.ARM.extab)
    .extab._ZN6Phonon19GlobalConfigPrivateC1Ev 0x00022514   Data           0  globalconfig.o(.ARM.extab)
    .extab._ZN6Phonon12GlobalConfigC1Ev      0x00022534   Data           0  globalconfig.o(.ARM.extab)
    .extab._ZNK6Phonon12GlobalConfig19hideAdvancedDevicesEv 0x00022544   Data           0  globalconfig.o(.ARM.extab)
    .extab._ZN6Phonon12GlobalConfig22setHideAdvancedDevicesEb 0x00022584   Data           0  globalconfig.o(.ARM.extab)
    .extab._ZN6Phonon29sortDevicesByCategoryPriorityEPKNS_12GlobalConfigEPKNS_14QSettingsGroupENS_21ObjectDescriptionTypeENS_8CategoryER5QListIiE 0x000225ac   Data           0  globalconfig.o(.ARM.extab)
    .extab._ZN6Phonon6filterENS_21ObjectDescriptionTypeEPNS_16BackendInterfaceEP5QListIiEi 0x00022664   Data           0  globalconfig.o(.ARM.extab)
    .extab._ZNK6Phonon12GlobalConfig24audioOutputDeviceListForENS_8CategoryEi 0x00022754   Data           0  globalconfig.o(.ARM.extab)
    .extab._ZN6Phonon26isHiddenAudioCaptureDeviceEPKNS_12GlobalConfigEi 0x000227e4   Data           0  globalconfig.o(.ARM.extab)
    .extab._ZN6Phonon25isHiddenAudioOutputDeviceEPKNS_12GlobalConfigEi 0x00022804   Data           0  globalconfig.o(.ARM.extab)
    .extab._ZNK6Phonon12GlobalConfig25audioCaptureDeviceListForENS_8CategoryEi 0x00022824   Data           0  globalconfig.o(.ARM.extab)
    .extab._ZN6Phonon11reindexListEPKNS_12GlobalConfigENS_8CategoryE5QListIiEb 0x000228b4   Data           0  globalconfig.o(.ARM.extab)
    .extab._ZN6Phonon12GlobalConfig27setAudioOutputDeviceListForENS_8CategoryE5QListIiE 0x00022904   Data           0  globalconfig.o(.ARM.extab)
    .extab._ZNK6Phonon12GlobalConfig20audioOutputDeviceForENS_8CategoryEi 0x00022994   Data           0  globalconfig.o(.ARM.extab)
    .extab._ZN6Phonon12GlobalConfig28setAudioCaptureDeviceListForENS_8CategoryE5QListIiE 0x000229a4   Data           0  globalconfig.o(.ARM.extab)
    .extab._ZNK6Phonon12GlobalConfig21audioCaptureDeviceForENS_8CategoryEi 0x00022a34   Data           0  globalconfig.o(.ARM.extab)
    .extab._ZN5QListIiE13detach_helperEi     0x00022a4c   Data           0  globalconfig.o(.ARM.extab)
    .extab._Z24qMetaTypeConstructHelperI5QListIiEEPvPKT_ 0x00022a68   Data           0  globalconfig.o(.ARM.extab)
    .extab._ZN5QListIiE18detach_helper_growEii 0x00022a80   Data           0  globalconfig.o(.ARM.extab)
    .extab._ZN5QListIiE6appendERKi           0x00022ab0   Data           0  globalconfig.o(.ARM.extab)
    .extab._ZN5QListIiEpLERKS0_              0x00022acc   Data           0  globalconfig.o(.ARM.extab)
    .extab._ZNK14QStringBuilderI7QString11QLatin1CharEcvS0_Ev 0x00022ae8   Data           0  globalconfig.o(.ARM.extab)
    .extab._ZNK14QStringBuilderI13QLatin1String7QStringEcvS1_Ev 0x00022af8   Data           0  globalconfig.o(.ARM.extab)
    .extab._ZNK6Phonon14QSettingsGroup5valueERK7QStringRK8QVariant 0x00022b08   Data           0  globalconfig.o(.ARM.extab)
    .extab._ZN6Phonon14QSettingsGroupC1EPK9QSettingsRK7QString 0x00022b18   Data           0  globalconfig.o(.ARM.extab)
    .extab._ZN6Phonon14QSettingsGroupC1EP9QSettingsRK7QString 0x00022b28   Data           0  globalconfig.o(.ARM.extab)
    .extab._ZN6Phonon14QSettingsGroup8setValueI5QListIiEEEvRK7QStringRKT_ 0x00022b38   Data           0  globalconfig.o(.ARM.extab)
    .extab._ZN6Phonon14QSettingsGroup11removeEntryERK7QString 0x00022b58   Data           0  globalconfig.o(.ARM.extab)
    .extab._ZNK6Phonon14QSettingsGroup6hasKeyERK7QString 0x00022b68   Data           0  globalconfig.o(.ARM.extab)
    .extab._ZN6Phonon17ObjectDescriptionILNS_21ObjectDescriptionTypeE4EE9fromIndexEi 0x00022b78   Data           0  globalconfig.o(.ARM.extab)
    .extab._ZN5QHashI10QByteArray8QVariantE11deleteNode2EPN9QHashData4NodeE 0x00022b88   Data           0  globalconfig.o(.ARM.extab)
    .extab._ZN5QHashI10QByteArray8QVariantE13duplicateNodeEPN9QHashData4NodeEPv 0x00022b98   Data           0  globalconfig.o(.ARM.extab)
    .extab._ZN6Phonon14QSettingsGroup8setValueIbEEvRK7QStringRKT_ 0x00022bb0   Data           0  globalconfig.o(.ARM.extab)
    .extab._ZNK6Phonon14QSettingsGroup5valueI5QListIiEEET_RK7QStringRKS4_ 0x00022bd0   Data           0  globalconfig.o(.ARM.extab)
    .extab._ZN6Phonon14IODeviceStreamC1EP9QIODeviceP7QObject 0x00022bf8   Data           0  iodevicestream.o(.ARM.extab)
    .extab._ZN6Phonon14IODeviceStream8needDataEv 0x00022c08   Data           0  iodevicestream.o(.ARM.extab)
    .extab._ZN6Phonon21IODeviceStreamPrivateC1EP9QIODevice 0x00022c28   Data           0  iodevicestream.o(.ARM.extab)
    .extab._ZNK6Phonon15MediaController12currentTitleEv 0x00022c40   Data           0  mediacontroller.o(.ARM.extab)
    .extab._ZN6Phonon15MediaController15setCurrentTitleEi 0x00022c60   Data           0  mediacontroller.o(.ARM.extab)
    .extab._ZN6Phonon15MediaController17setAutoplayTitlesEb 0x00022c80   Data           0  mediacontroller.o(.ARM.extab)
    .extab._ZN6Phonon15MediaController17setCurrentChapterEi 0x00022ca0   Data           0  mediacontroller.o(.ARM.extab)
    .extab._ZN6Phonon15MediaController15setCurrentAngleEi 0x00022cc0   Data           0  mediacontroller.o(.ARM.extab)
    .extab._ZN6Phonon15MediaControllerC1EPNS_11MediaObjectE 0x00022ce0   Data           0  mediacontroller.o(.ARM.extab)
    .extab._ZN6Phonon15MediaControllerD1Ev   0x00022d00   Data           0  mediacontroller.o(.ARM.extab)
    .extab._ZNK6Phonon15MediaController15availableAnglesEv 0x00022d10   Data           0  mediacontroller.o(.ARM.extab)
    .extab._ZNK6Phonon15MediaController12currentAngleEv 0x00022d30   Data           0  mediacontroller.o(.ARM.extab)
    .extab._ZNK6Phonon15MediaController17availableChaptersEv 0x00022d50   Data           0  mediacontroller.o(.ARM.extab)
    .extab._ZNK6Phonon15MediaController14currentChapterEv 0x00022d70   Data           0  mediacontroller.o(.ARM.extab)
    .extab._ZNK6Phonon15MediaController15availableTitlesEv 0x00022d90   Data           0  mediacontroller.o(.ARM.extab)
    .extab._ZNK6Phonon15MediaController14autoplayTitlesEv 0x00022db0   Data           0  mediacontroller.o(.ARM.extab)
    .extab._ZNK6Phonon15MediaController19currentAudioChannelEv 0x00022dd0   Data           0  mediacontroller.o(.ARM.extab)
    .extab._ZNK6Phonon15MediaController15currentSubtitleEv 0x00022df8   Data           0  mediacontroller.o(.ARM.extab)
    .extab._ZNK6Phonon15MediaController22availableAudioChannelsEv 0x00022e20   Data           0  mediacontroller.o(.ARM.extab)
    .extab._ZNK6Phonon15MediaController18availableSubtitlesEv 0x00022e68   Data           0  mediacontroller.o(.ARM.extab)
    .extab._ZN6Phonon15MediaController22setCurrentAudioChannelERKNS_17ObjectDescriptionILNS_21ObjectDescriptionTypeE2EEE 0x00022eb0   Data           0  mediacontroller.o(.ARM.extab)
    .extab._ZN6Phonon15MediaController18setCurrentSubtitleERKNS_17ObjectDescriptionILNS_21ObjectDescriptionTypeE3EEE 0x00022ed0   Data           0  mediacontroller.o(.ARM.extab)
    .extab._ZN6Phonon17ObjectDescriptionILNS_21ObjectDescriptionTypeE2EEC1Ev 0x00022ef0   Data           0  mediacontroller.o(.ARM.extab)
    .extab._Z24qMetaTypeConstructHelperIN6Phonon17ObjectDescriptionILNS0_21ObjectDescriptionTypeE2EEEEPvPKT_ 0x00022f00   Data           0  mediacontroller.o(.ARM.extab)
    .extab._ZN6Phonon17ObjectDescriptionILNS_21ObjectDescriptionTypeE3EEC1Ev 0x00022f18   Data           0  mediacontroller.o(.ARM.extab)
    .extab._Z24qMetaTypeConstructHelperIN6Phonon17ObjectDescriptionILNS0_21ObjectDescriptionTypeE3EEEEPvPKT_ 0x00022f28   Data           0  mediacontroller.o(.ARM.extab)
    .extab._ZN5QListIN6Phonon17ObjectDescriptionILNS0_21ObjectDescriptionTypeE2EEEE13detach_helperEi 0x00022f40   Data           0  mediacontroller.o(.ARM.extab)
    .extab._Z24qMetaTypeConstructHelperI5QListIN6Phonon17ObjectDescriptionILNS1_21ObjectDescriptionTypeE2EEEEEPvPKT_ 0x00022f84   Data           0  mediacontroller.o(.ARM.extab)
    .extab._ZN5QListIN6Phonon17ObjectDescriptionILNS0_21ObjectDescriptionTypeE3EEEE13detach_helperEi 0x00022f9c   Data           0  mediacontroller.o(.ARM.extab)
    .extab._Z24qMetaTypeConstructHelperI5QListIN6Phonon17ObjectDescriptionILNS1_21ObjectDescriptionTypeE3EEEEEPvPKT_ 0x00022fe0   Data           0  mediacontroller.o(.ARM.extab)
    .extab._ZN5QListIPN6Phonon24FrontendInterfacePrivateEE18detach_helper_growEii 0x00022ff8   Data           0  mediacontroller.o(.ARM.extab)
    .extab._ZN5QListIPN6Phonon24FrontendInterfacePrivateEE6appendERKS2_ 0x00023028   Data           0  mediacontroller.o(.ARM.extab)
    .extab._ZN6Phonon24FrontendInterfacePrivateD2Ev 0x00023044   Data           0  mediacontroller.o(.ARM.extab)
    .extab._ZN6Phonon22MediaControllerPrivateC1EPNS_11MediaObjectE 0x00023054   Data           0  mediacontroller.o(.ARM.extab)
    .extab._ZN6Phonon16MediaNodePrivateC2ENS0_6CastIdE 0x00023064   Data           0  medianode.o(.ARM.extab)
    .extab._ZN6Phonon16MediaNodePrivateD2Ev  0x00023084   Data           0  medianode.o(.ARM.extab)
    .extab._ZN5QListIN6Phonon4PathEE9node_copyEPNS2_4NodeES4_S4_ 0x000230a4   Data           0  medianode.o(.ARM.extab)
    .extab._ZN5QListIN6Phonon4PathEE13detach_helperEi 0x000230c8   Data           0  medianode.o(.ARM.extab)
    .extab._ZN5QListIPN6Phonon27MediaNodeDestructionHandlerEE18detach_helper_growEii 0x000230e4   Data           0  medianode.o(.ARM.extab)
    .extab._ZN5QListIPN6Phonon27MediaNodeDestructionHandlerEE6appendERKS2_ 0x00023114   Data           0  medianode.o(.ARM.extab)
    .extab._ZN5QListIPN6Phonon27MediaNodeDestructionHandlerEE13detach_helperEi 0x00023130   Data           0  medianode.o(.ARM.extab)
    .extab._ZN5QListIN6Phonon4PathEE14node_constructEPNS2_4NodeERKS1_ 0x0002314c   Data           0  medianode.o(.ARM.extab)
    .extab._ZN5QListIN6Phonon4PathEE18detach_helper_growEii 0x0002315c   Data           0  medianode.o(.ARM.extab)
    .extab._ZN5QListIN6Phonon4PathEE6appendERKS1_ 0x0002318c   Data           0  medianode.o(.ARM.extab)
    .extab._ZN5QListIN6Phonon4PathEE9removeAllERKS1_ 0x000231bc   Data           0  medianode.o(.ARM.extab)
    .extab._ZN6Phonon18MediaObjectPrivate23_k_currentSourceChangedERKNS_11MediaSourceE 0x000231cc   Data           0  mediaobject.o(.ARM.extab)
    .extab._ZN6Phonon18MediaObjectPrivate16_k_aboutToFinishEv 0x000231e4   Data           0  mediaobject.o(.ARM.extab)
    .extab._ZN6Phonon18MediaObjectPrivate15_k_stateChangedENS_5StateES1_ 0x000231fc   Data           0  mediaobject.o(.ARM.extab)
    .extab._ZN6Phonon11MediaObject16setCurrentSourceERKNS_11MediaSourceE 0x0002323c   Data           0  mediaobject.o(.ARM.extab)
    .extab._ZN6Phonon11MediaObject5clearEv   0x00023274   Data           0  mediaobject.o(.ARM.extab)
    .extab._ZN6Phonon11MediaObjectC1EP7QObject 0x00023284   Data           0  mediaobject.o(.ARM.extab)
    .extab._ZN6Phonon11MediaObjectD1Ev       0x0002329c   Data           0  mediaobject.o(.ARM.extab)
    .extab._ZNK6Phonon11MediaObject8metaDataERK7QString 0x000232b4   Data           0  mediaobject.o(.ARM.extab)
    .extab._ZNK6Phonon11MediaObject8metaDataENS_8MetaDataE 0x000232c4   Data           0  mediaobject.o(.ARM.extab)
    .extab._ZN6Phonon11MediaObject7enqueueERK5QListI4QUrlE 0x0002330c   Data           0  mediaobject.o(.ARM.extab)
    .extab._ZN6Phonon18MediaObjectPrivate18setupBackendObjectEv 0x0002331c   Data           0  mediaobject.o(.ARM.extab)
    .extab._ZN6Phonon12createPlayerENS_8CategoryERKNS_11MediaSourceE 0x00023334   Data           0  mediaobject.o(.ARM.extab)
    .extab._ZN5QListIN6Phonon11MediaSourceEE9node_copyEPNS2_4NodeES4_S4_ 0x0002334c   Data           0  mediaobject.o(.ARM.extab)
    .extab._ZN5QListIN6Phonon11MediaSourceEE13detach_helperEi 0x00023370   Data           0  mediaobject.o(.ARM.extab)
    .extab._ZN4QMapI7QStringS0_E13detach_helperEv 0x0002338c   Data           0  mediaobject.o(.ARM.extab)
    .extab._ZN5QListIN6Phonon11MediaSourceEE5clearEv 0x000233a8   Data           0  mediaobject.o(.ARM.extab)
    .extab._ZN6Phonon18MediaObjectPrivateC1Ev 0x000233b8   Data           0  mediaobject.o(.ARM.extab)
    .extab._ZNK4QMapI7QStringS0_E6valuesERKS0_ 0x000233e8   Data           0  mediaobject.o(.ARM.extab)
    .extab._ZN5QListIN6Phonon11MediaSourceEE14node_constructEPNS2_4NodeERKS1_ 0x000233f8   Data           0  mediaobject.o(.ARM.extab)
    .extab._ZN5QListIN6Phonon11MediaSourceEE18detach_helper_growEii 0x00023408   Data           0  mediaobject.o(.ARM.extab)
    .extab._ZN5QListIN6Phonon11MediaSourceEE6appendERKS1_ 0x00023438   Data           0  mediaobject.o(.ARM.extab)
    .extab._ZN6Phonon18MediaObjectPrivateD1Ev 0x00023468   Data           0  mediaobject.o(.ARM.extab)
    .extab._ZN5QListIN6Phonon11MediaSourceEE9takeFirstEv 0x00023498   Data           0  mediaobject.o(.ARM.extab)
    .extab._ZN4QMapI7QStringS0_E11node_createEP8QMapDataPPNS2_4NodeERKS0_S8_ 0x000234a8   Data           0  mediaobject.o(.ARM.extab)
    .extab._ZN6Phonon24FrontendInterfacePrivate21_backendObjectChangedEv 0x000234f4   Data           0  mediaobject.o(.ARM.extab)
    .extab._ZN6Phonon11MediaSourceC1Ev       0x0002350c   Data           0  mediasource.o(.ARM.extab)
    .extab._ZN6Phonon11MediaSourceC1ERK7QString 0x0002351c   Data           0  mediasource.o(.ARM.extab)
    .extab._ZN6Phonon11MediaSourceC1ERK4QUrl 0x000235ac   Data           0  mediasource.o(.ARM.extab)
    .extab._ZN6Phonon11MediaSourceC1ENS_8DiscTypeERK7QString 0x000235bc   Data           0  mediasource.o(.ARM.extab)
    .extab._ZN6Phonon11MediaSourceC1EPNS_19AbstractMediaStreamE 0x000235d4   Data           0  mediasource.o(.ARM.extab)
    .extab._ZN6Phonon11MediaSourceC1EP9QIODevice 0x000235e4   Data           0  mediasource.o(.ARM.extab)
    .extab._ZN6Phonon18MediaSourcePrivateD1Ev 0x000235fc   Data           0  mediasource.o(.ARM.extab)
    .extab._ZN6Phonon18MediaSourcePrivateC1ENS_11MediaSource4TypeE 0x0002361c   Data           0  mediasource.o(.ARM.extab)
    .extab._ZNK6Phonon21ObjectDescriptionData8propertyEPKc 0x00023634   Data           0  objectdescription.o(.ARM.extab)
    .extab._ZN6Phonon21ObjectDescriptionDataC1EiRK5QHashI10QByteArray8QVariantE 0x00023644   Data           0  objectdescription.o(.ARM.extab)
    .extab._ZN6Phonon21ObjectDescriptionData9fromIndexENS_21ObjectDescriptionTypeEi 0x00023654   Data           0  objectdescription.o(.ARM.extab)
    .extab._ZN6Phonon21ObjectDescriptionDataD1Ev 0x000236c4   Data           0  objectdescription.o(.ARM.extab)
    .extab._ZN5QListI10QByteArrayE9node_copyEPNS1_4NodeES3_S3_ 0x000236dc   Data           0  objectdescription.o(.ARM.extab)
    .extab._ZN5QListI10QByteArrayE13detach_helperEi 0x00023700   Data           0  objectdescription.o(.ARM.extab)
    .extab._ZN5QListI10QByteArrayE14node_constructEPNS1_4NodeERKS0_ 0x0002371c   Data           0  objectdescription.o(.ARM.extab)
    .extab._ZN5QListI10QByteArrayE18detach_helper_growEii 0x0002372c   Data           0  objectdescription.o(.ARM.extab)
    .extab._ZN5QListI10QByteArrayE6appendERKS0_ 0x0002375c   Data           0  objectdescription.o(.ARM.extab)
    .extab._ZNK6Phonon24ObjectDescriptionPrivateeqERKS0_ 0x0002378c   Data           0  objectdescription.o(.ARM.extab)
    .extab._ZNK5QHashI10QByteArray8QVariantE4keysEv 0x000237ac   Data           0  objectdescription.o(.ARM.extab)
    .extab._ZN6Phonon24ObjectDescriptionPrivateC1EiRK5QHashI10QByteArray8QVariantE 0x000237bc   Data           0  objectdescription.o(.ARM.extab)
    .extab._ZNK6Phonon26ObjectDescriptionModelData4dataERK11QModelIndexi 0x0002382c   Data           0  objectdescriptionmodel.o(.ARM.extab)
    .extab._ZNK6Phonon26ObjectDescriptionModelData5flagsERK11QModelIndex 0x00023874   Data           0  objectdescriptionmodel.o(.ARM.extab)
    .extab._ZNK6Phonon26ObjectDescriptionModelData15tupleIndexOrderEv 0x00023884   Data           0  objectdescriptionmodel.o(.ARM.extab)
    .extab._ZNK6Phonon26ObjectDescriptionModelData9mimeTypesENS_21ObjectDescriptionTypeE 0x00023894   Data           0  objectdescriptionmodel.o(.ARM.extab)
    .extab._ZNK6Phonon26ObjectDescriptionModelData8mimeDataENS_21ObjectDescriptionTypeERK5QListI11QModelIndexE 0x000238bc   Data           0  objectdescriptionmodel.o(.ARM.extab)
    .extab._ZN6Phonon26ObjectDescriptionModelData6moveUpERK11QModelIndex 0x000238f4   Data           0  objectdescriptionmodel.o(.ARM.extab)
    .extab._ZN6Phonon26ObjectDescriptionModelData8moveDownERK11QModelIndex 0x00023924   Data           0  objectdescriptionmodel.o(.ARM.extab)
    .extab._ZNK6Phonon26ObjectDescriptionModelData9modelDataERK11QModelIndex 0x00023954   Data           0  objectdescriptionmodel.o(.ARM.extab)
    .extab._ZN6Phonon26ObjectDescriptionModelData12dropMimeDataENS_21ObjectDescriptionTypeEPK9QMimeDataN2Qt10DropActionEiiRK11QModelIndex 0x00023964   Data           0  objectdescriptionmodel.o(.ARM.extab)
    .extab._ZN6Phonon26ObjectDescriptionModelDataC1EP18QAbstractListModel 0x00023a0c   Data           0  objectdescriptionmodel.o(.ARM.extab)
    .extab._ZNK11QModelIndex7siblingEii      0x00023a1c   Data           0  objectdescriptionmodel.o(.ARM.extab)
    .extab._ZN5QListI28QExplicitlySharedDataPointerIN6Phonon21ObjectDescriptionDataEEE9node_copyEPNS4_4NodeES6_S6_ 0x00023a3c   Data           0  objectdescriptionmodel.o(.ARM.extab)
    .extab._ZN5QListI28QExplicitlySharedDataPointerIN6Phonon21ObjectDescriptionDataEEE13detach_helperEi 0x00023a60   Data           0  objectdescriptionmodel.o(.ARM.extab)
    .extab._ZN5QListI28QExplicitlySharedDataPointerIN6Phonon21ObjectDescriptionDataEEE14node_constructEPNS4_4NodeERKS3_ 0x00023a7c   Data           0  objectdescriptionmodel.o(.ARM.extab)
    .extab._ZN5QListI28QExplicitlySharedDataPointerIN6Phonon21ObjectDescriptionDataEEE18detach_helper_growEii 0x00023a8c   Data           0  objectdescriptionmodel.o(.ARM.extab)
    .extab._ZN5QListI28QExplicitlySharedDataPointerIN6Phonon21ObjectDescriptionDataEEE6appendERKS3_ 0x00023abc   Data           0  objectdescriptionmodel.o(.ARM.extab)
    .extab._ZN5QListI11QModelIndexE14node_constructEPNS1_4NodeERKS0_ 0x00023aec   Data           0  objectdescriptionmodel.o(.ARM.extab)
    .extab._ZN5QListI11QModelIndexE9node_copyEPNS1_4NodeES3_S3_ 0x00023afc   Data           0  objectdescriptionmodel.o(.ARM.extab)
    .extab._ZN5QListI11QModelIndexE18detach_helper_growEii 0x00023b20   Data           0  objectdescriptionmodel.o(.ARM.extab)
    .extab._ZN5QListI11QModelIndexE6appendERKS0_ 0x00023b50   Data           0  objectdescriptionmodel.o(.ARM.extab)
    .extab._ZN6Phonon4PathC1Ev               0x00023b80   Data           0  path.o(.ARM.extab)
    .extab._ZN6Phonon11PathPrivate18executeTransactionERK5QListI5QPairIP7QObjectS4_EES8_ 0x00023b98   Data           0  path.o(.ARM.extab)
    .extab._ZN6Phonon4Path12insertEffectEPNS_6EffectES2_ 0x00023bf8   Data           0  path.o(.ARM.extab)
    .extab._ZN6Phonon4Path12insertEffectERKNS_17ObjectDescriptionILNS_21ObjectDescriptionTypeE1EEEPNS_6EffectE 0x00023c3c   Data           0  path.o(.ARM.extab)
    .extab._ZN6Phonon11PathPrivate12removeEffectEPNS_6EffectE 0x00023c54   Data           0  path.o(.ARM.extab)
    .extab._ZN6Phonon4Path9reconnectEPNS_9MediaNodeES2_ 0x00023c7c   Data           0  path.o(.ARM.extab)
    .extab._ZN6Phonon4Path10disconnectEv     0x00023ca4   Data           0  path.o(.ARM.extab)
    .extab._ZN6Phonon11PathPrivateD1Ev       0x00023cdc   Data           0  path.o(.ARM.extab)
    .extab._ZN6Phonon11PathPrivate21phononObjectDestroyedEPNS_16MediaNodePrivateE 0x00023cf4   Data           0  path.o(.ARM.extab)
    .extab._ZN6Phonon10createPathEPNS_9MediaNodeES1_ 0x00023d24   Data           0  path.o(.ARM.extab)
    .extab._ZN5QListI5QPairIP7QObjectS2_EE9node_copyEPNS4_4NodeES6_S6_ 0x00023db4   Data           0  path.o(.ARM.extab)
    .extab._ZN5QListI5QPairIP7QObjectS2_EE18detach_helper_growEii 0x00023dd8   Data           0  path.o(.ARM.extab)
    .extab._ZN5QListI5QPairIP7QObjectS2_EE6appendERKS3_ 0x00023e08   Data           0  path.o(.ARM.extab)
    .extab._ZN5QListIPN6Phonon6EffectEE18detach_helper_growEii 0x00023e38   Data           0  path.o(.ARM.extab)
    .extab._ZN6Phonon21ConnectionTransactionD1Ev 0x00023e68   Data           0  path.o(.ARM.extab)
    .extab._ZN5QListIPN6Phonon6EffectEE13detach_helperEi 0x00023e88   Data           0  path.o(.ARM.extab)
    .extab._ZN5QListIPN6Phonon6EffectEE5clearEv 0x00023ea4   Data           0  path.o(.ARM.extab)
    .extab._ZN5QListIiE5clearEv              0x00023eb4   Data           0  phononnamespace.o(.ARM.extab)
    .extab._ZN6Phonon8Platform4iconERK7QStringP6QStyle 0x00023ec4   Data           0  platform.o(.ARM.extab)
    .extab._ZN6Phonon8Platform15applicationNameEv 0x00023f24   Data           0  platform.o(.ARM.extab)
    .extab._ZN6Phonon12PulseSupport11qt_metacallEN11QMetaObject4CallEiPPv 0x00023f44   Data           0  pulsesupport.o(.ARM.extab)
    .extab._ZN6Phonon12PulseSupport11getInstanceEv 0x00023f54   Data           0  pulsesupport.o(.ARM.extab)
    .extab._ZN6Phonon12PulseSupport15emitUsingDeviceE7QStringi 0x00023f64   Data           0  pulsesupport.o(.ARM.extab)
    .extab._ZN6Phonon10SeekSlider11setIconSizeERK5QSize 0x00023f74   Data           0  seekslider.o(.ARM.extab)
    .extab._ZN6Phonon17SeekSliderPrivate23_k_currentSourceChangedEv 0x00023f84   Data           0  seekslider.o(.ARM.extab)
    .extab._ZN6Phonon17SeekSliderPrivate10setEnabledEb 0x00023f94   Data           0  seekslider.o(.ARM.extab)
    .extab._ZN6Phonon10SeekSliderC1EP7QWidget 0x00023fa4   Data           0  seekslider.o(.ARM.extab)
    .extab._ZN6Phonon10SeekSliderC1EPNS_11MediaObjectEP7QWidget 0x00023fc4   Data           0  seekslider.o(.ARM.extab)
    .extab._ZN6Phonon10SeekSliderD1Ev        0x00023fe4   Data           0  seekslider.o(.ARM.extab)
    .extab._ZN6Phonon17SeekSliderPrivateC1EPNS_10SeekSliderE 0x00024014   Data           0  seekslider.o(.ARM.extab)
    .extab._ZN6Phonon15StreamInterfaceC2Ev   0x0002405c   Data           0  streaminterface.o(.ARM.extab)
    .extab._ZN6Phonon22StreamInterfacePrivate21disconnectMediaStreamEv 0x0002406c   Data           0  streaminterface.o(.ARM.extab)
    .extab._ZNK6Phonon11SwiftSlider20pixelPosToRangeValueEi 0x0002407c   Data           0  swiftslider.o(.ARM.extab)
    .extab._ZN6Phonon11SwiftSlider15mousePressEventEP11QMouseEvent 0x0002408c   Data           0  swiftslider.o(.ARM.extab)
    .extab._ZN6Phonon11VideoPlayer4playERKNS_11MediaSourceE 0x0002409c   Data           0  videoplayer.o(.ARM.extab)
    .extab._ZN6Phonon18VideoPlayerPrivate4initEPNS_11VideoPlayerENS_8CategoryE 0x000240ac   Data           0  videoplayer.o(.ARM.extab)
    .extab._ZN6Phonon11VideoPlayerC1ENS_8CategoryEP7QWidget 0x000240d4   Data           0  videoplayer.o(.ARM.extab)
    .extab._ZN6Phonon11VideoPlayerC1EP7QWidget 0x000240f4   Data           0  videoplayer.o(.ARM.extab)
    .extab._ZN6Phonon11VideoPlayerD1Ev       0x00024114   Data           0  videoplayer.o(.ARM.extab)
    .extab._ZN6Phonon11VideoWidget13setFullScreenEb 0x00024124   Data           0  videowidget.o(.ARM.extab)
    .extab._ZN6Phonon11VideoWidgetC1EP7QWidget 0x0002413c   Data           0  videowidget.o(.ARM.extab)
    .extab._ZN6Phonon11VideoWidgetC1ERNS_18VideoWidgetPrivateEP7QWidget 0x0002416c   Data           0  videowidget.o(.ARM.extab)
    .extab._ZN6Phonon18VideoWidgetPrivate18setupBackendObjectEv 0x00024184   Data           0  videowidget.o(.ARM.extab)
    .extab._ZN6Phonon11VideoWidgetD1Ev       0x0002419c   Data           0  videowidget.o(.ARM.extab)
    .extab._ZN6Phonon18VideoWidgetPrivateD1Ev 0x000241ac   Data           0  videowidget.o(.ARM.extab)
    .extab._ZN6Phonon17VolumeFaderEffectC1EP7QObject 0x000241bc   Data           0  volumefadereffect.o(.ARM.extab)
    .extab._ZN6Phonon12VolumeSlider11setIconSizeERK5QSize 0x000241cc   Data           0  volumeslider.o(.ARM.extab)
    .extab._ZN6Phonon12VolumeSlider16setMaximumVolumeEf 0x000241f4   Data           0  volumeslider.o(.ARM.extab)
    .extab._ZN6Phonon19VolumeSliderPrivate15_k_mutedChangedEb 0x00024214   Data           0  volumeslider.o(.ARM.extab)
    .extab._ZN6Phonon19VolumeSliderPrivate16_k_sliderChangedEi 0x0002423c   Data           0  volumeslider.o(.ARM.extab)
    .extab._ZN6Phonon12VolumeSliderC1EP7QWidget 0x0002425c   Data           0  volumeslider.o(.ARM.extab)
    .extab._ZN6Phonon12VolumeSliderC1EPNS_11AudioOutputEP7QWidget 0x000242bc   Data           0  volumeslider.o(.ARM.extab)
    .extab._ZN6Phonon12VolumeSliderD1Ev      0x0002431c   Data           0  volumeslider.o(.ARM.extab)
    .extab._ZN6Phonon19VolumeSliderPrivateC1EPNS_12VolumeSliderE 0x00024354   Data           0  volumeslider.o(.ARM.extab)
    .constdata$1                             0x000243cc   Data           0  abstractaudiooutput.o(.constdata)
    qt_meta_data_Phonon__AbstractAudioOutput 0x000243cc   Data          60  abstractaudiooutput.o(.constdata)
    .constdata                               0x000243cc   Section      176  abstractaudiooutput.o(.constdata)
    qt_meta_stringdata_Phonon__AbstractAudioOutput 0x00024408   Data          29  abstractaudiooutput.o(.constdata)
    .constdata$1                             0x0002447c   Data           0  abstractaudiooutput_p.o(.constdata)
    .constdata                               0x0002447c   Section       68  abstractaudiooutput_p.o(.constdata)
    .constdata$1                             0x000244c0   Data           0  abstractmediastream.o(.constdata)
    qt_meta_data_Phonon__AbstractMediaStream 0x000244c0   Data          60  abstractmediastream.o(.constdata)
    .constdata                               0x000244c0   Section      178  abstractmediastream.o(.constdata)
    qt_meta_stringdata_Phonon__AbstractMediaStream 0x000244fc   Data          29  abstractmediastream.o(.constdata)
    .constdata$1                             0x00024574   Data           0  audiodataoutput.o(.constdata)
    .constdata                               0x00024574   Section      360  audiodataoutput.o(.constdata)
    .constdata$1                             0x000246dc   Data           0  audiooutput.o(.constdata)
    qt_meta_data_Phonon__AudioOutput         0x000246dc   Data         400  audiooutput.o(.constdata)
    .constdata                               0x000246dc   Section     2372  audiooutput.o(.constdata)
    qt_meta_stringdata_Phonon__AudioOutput   0x0002486c   Data         506  audiooutput.o(.constdata)
    .constdata$1                             0x00025020   Data           0  backendcapabilities.o(.constdata)
    qt_meta_data_Phonon__BackendCapabilities__Notifier 0x00025020   Data         120  backendcapabilities.o(.constdata)
    .constdata                               0x00025020   Section      852  backendcapabilities.o(.constdata)
    qt_meta_stringdata_Phonon__BackendCapabilities__Notifier 0x00025098   Data         137  backendcapabilities.o(.constdata)
    .constdata$1                             0x00025374   Data           0  effect.o(.constdata)
    qt_meta_data_Phonon__Effect              0x00025374   Data          60  effect.o(.constdata)
    .constdata                               0x00025374   Section      192  effect.o(.constdata)
    qt_meta_stringdata_Phonon__Effect        0x000253b0   Data          16  effect.o(.constdata)
    .constdata$1                             0x00025434   Data           0  effectwidget.o(.constdata)
    qt_meta_data_Phonon__EffectWidget        0x00025434   Data         160  effectwidget.o(.constdata)
    .constdata                               0x00025434   Section     1540  effectwidget.o(.constdata)
    qt_meta_stringdata_Phonon__EffectWidget  0x000254d4   Data         177  effectwidget.o(.constdata)
    .constdata$1                             0x00025a38   Data           0  factory.o(.constdata)
    qt_meta_data_Phonon__FactoryPrivate      0x00025a38   Data         100  factory.o(.constdata)
    .constdata                               0x00025a38   Section     1348  factory.o(.constdata)
    qt_meta_stringdata_Phonon__FactoryPrivate 0x00025a9c   Data          99  factory.o(.constdata)
    qt_meta_data_Phonon__Factory__Sender     0x00025b00   Data         120  factory.o(.constdata)
    qt_meta_stringdata_Phonon__Factory__Sender 0x00025b78   Data         118  factory.o(.constdata)
    .constdata$1                             0x00025f7c   Data           0  globalconfig.o(.constdata)
    .constdata                               0x00025f7c   Section       33  globalconfig.o(.constdata)
    .constdata$1                             0x00025fa0   Data           0  iodevicestream.o(.constdata)
    qt_meta_data_Phonon__IODeviceStream      0x00025fa0   Data          60  iodevicestream.o(.constdata)
    .constdata                               0x00025fa0   Section      168  iodevicestream.o(.constdata)
    qt_meta_stringdata_Phonon__IODeviceStream 0x00025fdc   Data          24  iodevicestream.o(.constdata)
    .constdata$1                             0x00026048   Data           0  mediacontroller.o(.constdata)
    qt_meta_data_Phonon__MediaController     0x00026048   Data         380  mediacontroller.o(.constdata)
    .constdata                               0x00026048   Section     1740  mediacontroller.o(.constdata)
    qt_meta_stringdata_Phonon__MediaController 0x000261c4   Data         465  mediacontroller.o(.constdata)
    .constdata$1                             0x00026714   Data           0  mediaobject.o(.constdata)
    qt_meta_data_Phonon__MediaObject         0x00026714   Data         556  mediaobject.o(.constdata)
    .constdata                               0x00026714   Section     3296  mediaobject.o(.constdata)
    qt_meta_stringdata_Phonon__MediaObject   0x00026940   Data         685  mediaobject.o(.constdata)
    .constdata$1                             0x000273f4   Data           0  objectdescription.o(.constdata)
    .constdata                               0x000273f4   Section       72  objectdescription.o(.constdata)
    .constdata$1                             0x0002743c   Data           0  objectdescriptionmodel.o(.constdata)
    qt_meta_data_Phonon__ObjectDescriptionModel 0x0002743c   Data          44  objectdescriptionmodel.o(.constdata)
    .constdata                               0x0002743c   Section      264  objectdescriptionmodel.o(.constdata)
    qt_meta_stringdata_Phonon__ObjectDescriptionModel_AudioOutputDeviceType 0x00027468   Data          27  objectdescriptionmodel.o(.constdata)
    qt_meta_stringdata_Phonon__ObjectDescriptionModel_AudioCaptureDeviceType 0x00027483   Data          28  objectdescriptionmodel.o(.constdata)
    qt_meta_stringdata_Phonon__ObjectDescriptionModel_EffectType 0x0002749f   Data          27  objectdescriptionmodel.o(.constdata)
    qt_meta_stringdata_Phonon__ObjectDescriptionModel_AudioChannelType 0x000274ba   Data          33  objectdescriptionmodel.o(.constdata)
    qt_meta_stringdata_Phonon__ObjectDescriptionModel_SubtitleType 0x000274db   Data          29  objectdescriptionmodel.o(.constdata)
    .constdata$1                             0x00027544   Data           0  platform.o(.constdata)
    .constdata                               0x00027544   Section       76  platform.o(.constdata)
    .constdata$1                             0x00027590   Data           0  pulsesupport.o(.constdata)
    qt_meta_data_Phonon__PulseSupport        0x00027590   Data         100  pulsesupport.o(.constdata)
    .constdata                               0x00027590   Section      300  pulsesupport.o(.constdata)
    qt_meta_stringdata_Phonon__PulseSupport  0x000275f4   Data         114  pulsesupport.o(.constdata)
    .constdata$1                             0x000276bc   Data           0  seekslider.o(.constdata)
    qt_meta_data_Phonon__SeekSlider          0x000276bc   Data         332  seekslider.o(.constdata)
    .constdata                               0x000276bc   Section     2000  seekslider.o(.constdata)
    qt_meta_stringdata_Phonon__SeekSlider    0x00027808   Data         349  seekslider.o(.constdata)
    .constdata$1                             0x00027e8c   Data           0  swiftslider.o(.constdata)
    qt_meta_data_Phonon__SwiftSlider         0x00027e8c   Data          60  swiftslider.o(.constdata)
    .constdata                               0x00027e8c   Section      244  swiftslider.o(.constdata)
    qt_meta_stringdata_Phonon__SwiftSlider   0x00027ec8   Data          21  swiftslider.o(.constdata)
    .constdata$1                             0x00027f80   Data           0  videoplayer.o(.constdata)
    qt_meta_data_Phonon__VideoPlayer         0x00027f80   Data         220  videoplayer.o(.constdata)
    .constdata                               0x00027f80   Section      608  videoplayer.o(.constdata)
    qt_meta_stringdata_Phonon__VideoPlayer   0x0002805c   Data         154  videoplayer.o(.constdata)
    .constdata$1                             0x000281e0   Data           0  videowidget.o(.constdata)
    qt_meta_data_Phonon__VideoWidget         0x000281e0   Data         404  videowidget.o(.constdata)
    .constdata                               0x000281e0   Section     1136  videowidget.o(.constdata)
    qt_meta_stringdata_Phonon__VideoWidget   0x00028374   Data         410  videowidget.o(.constdata)
    .constdata$1                             0x00028650   Data           0  volumefadereffect.o(.constdata)
    qt_meta_data_Phonon__VolumeFaderEffect   0x00028650   Data         264  volumefadereffect.o(.constdata)
    .constdata                               0x00028650   Section      664  volumefadereffect.o(.constdata)
    qt_meta_stringdata_Phonon__VolumeFaderEffect 0x00028758   Data         275  volumefadereffect.o(.constdata)
    .constdata$1                             0x000288e8   Data           0  volumeslider.o(.constdata)
    qt_meta_data_Phonon__VolumeSlider        0x000288e8   Data         324  volumeslider.o(.constdata)
    .constdata                               0x000288e8   Section     2320  volumeslider.o(.constdata)
    qt_meta_stringdata_Phonon__VolumeSlider  0x00028a2c   Data         361  volumeslider.o(.constdata)
    .constdata$1                             0x000291f8   Data           0  moc_audiodataoutput.o(.constdata)
    qt_meta_data_Phonon__AudioDataOutput     0x000291f8   Data         196  moc_audiodataoutput.o(.constdata)
    .constdata                               0x000291f8   Section      552  moc_audiodataoutput.o(.constdata)
    qt_meta_stringdata_Phonon__AudioDataOutput 0x000292bc   Data         271  moc_audiodataoutput.o(.constdata)
    .constdata__ZN6Phonon22ObjectDescriptionModelILNS_21ObjectDescriptionTypeE0EE16staticMetaObjectE 0x00029420   Section       16  objectdescriptionmodel.o(.constdata__ZN6Phonon22ObjectDescriptionModelILNS_21ObjectDescriptionTypeE0EE16staticMetaObjectE)
    .constdata__ZN6Phonon22ObjectDescriptionModelILNS_21ObjectDescriptionTypeE1EE16staticMetaObjectE 0x00029430   Section       16  objectdescriptionmodel.o(.constdata__ZN6Phonon22ObjectDescriptionModelILNS_21ObjectDescriptionTypeE1EE16staticMetaObjectE)
    .constdata__ZN6Phonon22ObjectDescriptionModelILNS_21ObjectDescriptionTypeE2EE16staticMetaObjectE 0x00029440   Section       16  objectdescriptionmodel.o(.constdata__ZN6Phonon22ObjectDescriptionModelILNS_21ObjectDescriptionTypeE2EE16staticMetaObjectE)
    .constdata__ZN6Phonon22ObjectDescriptionModelILNS_21ObjectDescriptionTypeE3EE16staticMetaObjectE 0x00029450   Section       16  objectdescriptionmodel.o(.constdata__ZN6Phonon22ObjectDescriptionModelILNS_21ObjectDescriptionTypeE3EE16staticMetaObjectE)
    .constdata__ZN6Phonon22ObjectDescriptionModelILNS_21ObjectDescriptionTypeE4EE16staticMetaObjectE 0x00029460   Section       16  objectdescriptionmodel.o(.constdata__ZN6Phonon22ObjectDescriptionModelILNS_21ObjectDescriptionTypeE4EE16staticMetaObjectE)
    .constdata__ZN9stlp_priv15_Integer_limitsIaLan128ELa127ELin1ELb1EE6digitsE 0x00029470   Section        4  abstractaudiooutput.o(.constdata__ZN9stlp_priv15_Integer_limitsIaLan128ELa127ELin1ELb1EE6digitsE)
    .constdata__ZN9stlp_priv15_Integer_limitsIbLb0ELb1ELi1ELb0EE6digitsE 0x00029474   Section        4  abstractaudiooutput.o(.constdata__ZN9stlp_priv15_Integer_limitsIbLb0ELb1ELi1ELb0EE6digitsE)
    .constdata__ZN9stlp_priv15_Integer_limitsIcLc128ELc127ELin1ELb1EE6digitsE 0x00029478   Section        4  abstractaudiooutput.o(.constdata__ZN9stlp_priv15_Integer_limitsIcLc128ELc127ELin1ELb1EE6digitsE)
    .constdata__ZN9stlp_priv15_Integer_limitsIhLh0ELh255ELin1ELb1EE6digitsE 0x0002947c   Section        4  abstractaudiooutput.o(.constdata__ZN9stlp_priv15_Integer_limitsIhLh0ELh255ELin1ELb1EE6digitsE)
    .constdata__ZN9stlp_priv15_Integer_limitsIiLin2147483648ELi2147483647ELin1ELb1EE6digitsE 0x00029480   Section        4  abstractaudiooutput.o(.constdata__ZN9stlp_priv15_Integer_limitsIiLin2147483648ELi2147483647ELin1ELb1EE6digitsE)
    .constdata__ZN9stlp_priv15_Integer_limitsIiLin2147483648ELi2147483647ELin1ELb1EE9is_signedE 0x00029484   Section        1  abstractaudiooutput.o(.constdata__ZN9stlp_priv15_Integer_limitsIiLin2147483648ELi2147483647ELin1ELb1EE9is_signedE)
    .constdata__ZN9stlp_priv15_Integer_limitsIjLj0ELj4294967295ELin1ELb1EE6digitsE 0x00029488   Section        4  abstractaudiooutput.o(.constdata__ZN9stlp_priv15_Integer_limitsIjLj0ELj4294967295ELin1ELb1EE6digitsE)
    .constdata__ZN9stlp_priv15_Integer_limitsIlLln2147483648ELl2147483647ELin1ELb1EE6digitsE 0x0002948c   Section        4  abstractaudiooutput.o(.constdata__ZN9stlp_priv15_Integer_limitsIlLln2147483648ELl2147483647ELin1ELb1EE6digitsE)
    .constdata__ZN9stlp_priv15_Integer_limitsImLm0ELm4294967295ELin1ELb1EE6digitsE 0x00029490   Section        4  abstractaudiooutput.o(.constdata__ZN9stlp_priv15_Integer_limitsImLm0ELm4294967295ELin1ELb1EE6digitsE)
    .constdata__ZN9stlp_priv15_Integer_limitsIsLsn32768ELs32767ELin1ELb1EE6digitsE 0x00029494   Section        4  abstractaudiooutput.o(.constdata__ZN9stlp_priv15_Integer_limitsIsLsn32768ELs32767ELin1ELb1EE6digitsE)
    .constdata__ZN9stlp_priv15_Integer_limitsItLt0ELt65535ELin1ELb1EE6digitsE 0x00029498   Section        4  abstractaudiooutput.o(.constdata__ZN9stlp_priv15_Integer_limitsItLt0ELt65535ELin1ELb1EE6digitsE)
    .constdata__ZN9stlp_priv15_Integer_limitsIwLw0ELw65535ELin1ELb1EE6digitsE 0x0002949c   Section        4  abstractaudiooutput.o(.constdata__ZN9stlp_priv15_Integer_limitsIwLw0ELw65535ELin1ELb1EE6digitsE)
    .constdata__ZN9stlp_priv15_Integer_limitsIxLxn9223372036854775808ELx9223372036854775807ELin1ELb1EE6digitsE 0x000294a0   Section        4  abstractaudiooutput.o(.constdata__ZN9stlp_priv15_Integer_limitsIxLxn9223372036854775808ELx9223372036854775807ELin1ELb1EE6digitsE)
    .constdata__ZN9stlp_priv15_Integer_limitsIyLy0ELy18446744073709551615ELin1ELb1EE6digitsE 0x000294a4   Section        4  abstractaudiooutput.o(.constdata__ZN9stlp_priv15_Integer_limitsIyLy0ELy18446744073709551615ELin1ELb1EE6digitsE)
    .constdata__ZTI11QSharedData             0x000294a8   Section        8  mediasource.o(.constdata__ZTI11QSharedData)
    .constdata__ZTIN15QtSharedPointer20ExternalRefCountDataE 0x000294b0   Section        8  effectwidget.o(.constdata__ZTIN15QtSharedPointer20ExternalRefCountDataE)
    .constdata__ZTIN6Phonon10SeekSliderE     0x000294b8   Section       12  seekslider.o(.constdata__ZTIN6Phonon10SeekSliderE)
    .constdata__ZTIN6Phonon11AudioOutputE    0x000294c4   Section       12  audiooutput.o(.constdata__ZTIN6Phonon11AudioOutputE)
    .constdata__ZTIN6Phonon11MediaObjectE    0x000294d0   Section       32  mediaobject.o(.constdata__ZTIN6Phonon11MediaObjectE)
    .constdata__ZTIN6Phonon11PathPrivateE    0x000294f0   Section       32  path.o(.constdata__ZTIN6Phonon11PathPrivateE)
    .constdata__ZTIN6Phonon11SwiftSliderE    0x00029510   Section       12  swiftslider.o(.constdata__ZTIN6Phonon11SwiftSliderE)
    .constdata__ZTIN6Phonon11VideoPlayerE    0x0002951c   Section       12  videoplayer.o(.constdata__ZTIN6Phonon11VideoPlayerE)
    .constdata__ZTIN6Phonon11VideoWidgetE    0x00029528   Section       32  videowidget.o(.constdata__ZTIN6Phonon11VideoWidgetE)
    .constdata__ZTIN6Phonon12EffectWidgetE   0x00029548   Section       12  effectwidget.o(.constdata__ZTIN6Phonon12EffectWidgetE)
    .constdata__ZTIN6Phonon12GlobalConfigE   0x00029554   Section        8  globalconfig.o(.constdata__ZTIN6Phonon12GlobalConfigE)
    .constdata__ZTIN6Phonon12PulseSupportE   0x0002955c   Section       12  pulsesupport.o(.constdata__ZTIN6Phonon12PulseSupportE)
    .constdata__ZTIN6Phonon12VolumeSliderE   0x00029568   Section       12  volumeslider.o(.constdata__ZTIN6Phonon12VolumeSliderE)
    .constdata__ZTIN6Phonon13EffectPrivateE  0x00029574   Section       12  effect.o(.constdata__ZTIN6Phonon13EffectPrivateE)
    .constdata__ZTIN6Phonon14FactoryPrivateE 0x00029580   Section       12  factory.o(.constdata__ZTIN6Phonon14FactoryPrivateE)
    .constdata__ZTIN6Phonon14IODeviceStreamE 0x0002958c   Section       12  iodevicestream.o(.constdata__ZTIN6Phonon14IODeviceStreamE)
    .constdata__ZTIN6Phonon15AudioDataOutputE 0x00029598   Section       12  moc_audiodataoutput.o(.constdata__ZTIN6Phonon15AudioDataOutputE)
    .constdata__ZTIN6Phonon15MediaControllerE 0x000295a4   Section       12  mediacontroller.o(.constdata__ZTIN6Phonon15MediaControllerE)
    .constdata__ZTIN6Phonon15StreamInterfaceE 0x000295b0   Section        8  streaminterface.o(.constdata__ZTIN6Phonon15StreamInterfaceE)
    .constdata__ZTIN6Phonon16MediaNodePrivateE 0x000295b8   Section        8  medianode.o(.constdata__ZTIN6Phonon16MediaNodePrivateE)
    .constdata__ZTIN6Phonon17VolumeFaderEffectE 0x000295c0   Section       12  volumefadereffect.o(.constdata__ZTIN6Phonon17VolumeFaderEffectE)
    .constdata__ZTIN6Phonon18AudioOutputPrivateE 0x000295cc   Section       12  audiooutput.o(.constdata__ZTIN6Phonon18AudioOutputPrivateE)
    .constdata__ZTIN6Phonon18MediaObjectPrivateE 0x000295d8   Section       32  mediaobject.o(.constdata__ZTIN6Phonon18MediaObjectPrivateE)
    .constdata__ZTIN6Phonon18MediaSourcePrivateE 0x000295f8   Section       24  mediasource.o(.constdata__ZTIN6Phonon18MediaSourcePrivateE)
    .constdata__ZTIN6Phonon18VideoWidgetPrivateE 0x00029610   Section       12  videowidget.o(.constdata__ZTIN6Phonon18VideoWidgetPrivateE)
    .constdata__ZTIN6Phonon19AbstractAudioOutputE 0x0002961c   Section       32  abstractaudiooutput.o(.constdata__ZTIN6Phonon19AbstractAudioOutputE)
    .constdata__ZTIN6Phonon19AbstractMediaStreamE 0x0002963c   Section       12  abstractmediastream.o(.constdata__ZTIN6Phonon19AbstractMediaStreamE)
    .constdata__ZTIN6Phonon19AbstractVideoOutputE 0x00029648   Section       12  abstractvideooutput.o(.constdata__ZTIN6Phonon19AbstractVideoOutputE)
    .constdata__ZTIN6Phonon19BackendCapabilities8NotifierE 0x00029654   Section       12  backendcapabilities.o(.constdata__ZTIN6Phonon19BackendCapabilities8NotifierE)
    .constdata__ZTIN6Phonon19GlobalConfigPrivateE 0x00029660   Section        8  globalconfig.o(.constdata__ZTIN6Phonon19GlobalConfigPrivateE)
    .constdata__ZTIN6Phonon21IODeviceStreamPrivateE 0x00029668   Section       12  iodevicestream.o(.constdata__ZTIN6Phonon21IODeviceStreamPrivateE)
    .constdata__ZTIN6Phonon22AudioDataOutputPrivateE 0x00029674   Section       12  audiodataoutput.o(.constdata__ZTIN6Phonon22AudioDataOutputPrivateE)
    .constdata__ZTIN6Phonon22MediaControllerPrivateE 0x00029680   Section       12  mediacontroller.o(.constdata__ZTIN6Phonon22MediaControllerPrivateE)
    .constdata__ZTIN6Phonon22ObjectDescriptionModelILNS_21ObjectDescriptionTypeE0EEE 0x0002968c   Section       12  objectdescriptionmodel.o(.constdata__ZTIN6Phonon22ObjectDescriptionModelILNS_21ObjectDescriptionTypeE0EEE)
    .constdata__ZTIN6Phonon22ObjectDescriptionModelILNS_21ObjectDescriptionTypeE1EEE 0x00029698   Section       12  objectdescriptionmodel.o(.constdata__ZTIN6Phonon22ObjectDescriptionModelILNS_21ObjectDescriptionTypeE1EEE)
    .constdata__ZTIN6Phonon22ObjectDescriptionModelILNS_21ObjectDescriptionTypeE2EEE 0x000296a4   Section       12  objectdescriptionmodel.o(.constdata__ZTIN6Phonon22ObjectDescriptionModelILNS_21ObjectDescriptionTypeE2EEE)
    .constdata__ZTIN6Phonon22ObjectDescriptionModelILNS_21ObjectDescriptionTypeE3EEE 0x000296b0   Section       12  objectdescriptionmodel.o(.constdata__ZTIN6Phonon22ObjectDescriptionModelILNS_21ObjectDescriptionTypeE3EEE)
    .constdata__ZTIN6Phonon22ObjectDescriptionModelILNS_21ObjectDescriptionTypeE4EEE 0x000296bc   Section       12  objectdescriptionmodel.o(.constdata__ZTIN6Phonon22ObjectDescriptionModelILNS_21ObjectDescriptionTypeE4EEE)
    .constdata__ZTIN6Phonon24FrontendInterfacePrivateE 0x000296c8   Section        8  mediacontroller.o(.constdata__ZTIN6Phonon24FrontendInterfacePrivateE)
    .constdata__ZTIN6Phonon24VolumeFaderEffectPrivateE 0x000296d0   Section       12  volumefadereffect.o(.constdata__ZTIN6Phonon24VolumeFaderEffectPrivateE)
    .constdata__ZTIN6Phonon26AbstractAudioOutputPrivateE 0x000296dc   Section       12  abstractaudiooutput_p.o(.constdata__ZTIN6Phonon26AbstractAudioOutputPrivateE)
    .constdata__ZTIN6Phonon26AbstractMediaStreamPrivateE 0x000296e8   Section       24  abstractmediastream.o(.constdata__ZTIN6Phonon26AbstractMediaStreamPrivateE)
    .constdata__ZTIN6Phonon26AbstractVideoOutputPrivateE 0x00029700   Section       12  abstractvideooutput_p.o(.constdata__ZTIN6Phonon26AbstractVideoOutputPrivateE)
    .constdata__ZTIN6Phonon26BackendCapabilitiesPrivateE 0x0002970c   Section       12  backendcapabilities.o(.constdata__ZTIN6Phonon26BackendCapabilitiesPrivateE)
    .constdata__ZTIN6Phonon27MediaNodeDestructionHandlerE 0x00029718   Section        8  abstractmediastream.o(.constdata__ZTIN6Phonon27MediaNodeDestructionHandlerE)
    .constdata__ZTIN6Phonon6EffectE          0x00029720   Section       32  effect.o(.constdata__ZTIN6Phonon6EffectE)
    .constdata__ZTIN6Phonon7Factory6SenderE  0x00029740   Section       12  factory.o(.constdata__ZTIN6Phonon7Factory6SenderE)
    .constdata__ZTIN6Phonon9MediaNodeE       0x0002974c   Section        8  medianode.o(.constdata__ZTIN6Phonon9MediaNodeE)
    .constdata__ZTS11QSharedData             0x00029754   Section       14  mediasource.o(.constdata__ZTS11QSharedData)
    .constdata__ZTSN15QtSharedPointer20ExternalRefCountDataE 0x00029762   Section       42  effectwidget.o(.constdata__ZTSN15QtSharedPointer20ExternalRefCountDataE)
    .constdata__ZTSN6Phonon10SeekSliderE     0x0002978c   Section       22  seekslider.o(.constdata__ZTSN6Phonon10SeekSliderE)
    .constdata__ZTSN6Phonon11AudioOutputE    0x000297a2   Section       23  audiooutput.o(.constdata__ZTSN6Phonon11AudioOutputE)
    .constdata__ZTSN6Phonon11MediaObjectE    0x000297b9   Section       23  mediaobject.o(.constdata__ZTSN6Phonon11MediaObjectE)
    .constdata__ZTSN6Phonon11PathPrivateE    0x000297d0   Section       23  path.o(.constdata__ZTSN6Phonon11PathPrivateE)
    .constdata__ZTSN6Phonon11SwiftSliderE    0x000297e7   Section       23  swiftslider.o(.constdata__ZTSN6Phonon11SwiftSliderE)
    .constdata__ZTSN6Phonon11VideoPlayerE    0x000297fe   Section       23  videoplayer.o(.constdata__ZTSN6Phonon11VideoPlayerE)
    .constdata__ZTSN6Phonon11VideoWidgetE    0x00029815   Section       23  videowidget.o(.constdata__ZTSN6Phonon11VideoWidgetE)
    .constdata__ZTSN6Phonon12EffectWidgetE   0x0002982c   Section       24  effectwidget.o(.constdata__ZTSN6Phonon12EffectWidgetE)
    .constdata__ZTSN6Phonon12GlobalConfigE   0x00029844   Section       24  globalconfig.o(.constdata__ZTSN6Phonon12GlobalConfigE)
    .constdata__ZTSN6Phonon12PulseSupportE   0x0002985c   Section       24  pulsesupport.o(.constdata__ZTSN6Phonon12PulseSupportE)
    .constdata__ZTSN6Phonon12VolumeSliderE   0x00029874   Section       24  volumeslider.o(.constdata__ZTSN6Phonon12VolumeSliderE)
    .constdata__ZTSN6Phonon13EffectPrivateE  0x0002988c   Section       25  effect.o(.constdata__ZTSN6Phonon13EffectPrivateE)
    .constdata__ZTSN6Phonon14FactoryPrivateE 0x000298a5   Section       26  factory.o(.constdata__ZTSN6Phonon14FactoryPrivateE)
    .constdata__ZTSN6Phonon14IODeviceStreamE 0x000298bf   Section       26  iodevicestream.o(.constdata__ZTSN6Phonon14IODeviceStreamE)
    .constdata__ZTSN6Phonon15AudioDataOutputE 0x000298d9   Section       27  moc_audiodataoutput.o(.constdata__ZTSN6Phonon15AudioDataOutputE)
    .constdata__ZTSN6Phonon15MediaControllerE 0x000298f4   Section       27  mediacontroller.o(.constdata__ZTSN6Phonon15MediaControllerE)
    .constdata__ZTSN6Phonon15StreamInterfaceE 0x0002990f   Section       27  streaminterface.o(.constdata__ZTSN6Phonon15StreamInterfaceE)
    .constdata__ZTSN6Phonon16MediaNodePrivateE 0x0002992a   Section       28  medianode.o(.constdata__ZTSN6Phonon16MediaNodePrivateE)
    .constdata__ZTSN6Phonon17VolumeFaderEffectE 0x00029946   Section       29  volumefadereffect.o(.constdata__ZTSN6Phonon17VolumeFaderEffectE)
    .constdata__ZTSN6Phonon18AudioOutputPrivateE 0x00029963   Section       30  audiooutput.o(.constdata__ZTSN6Phonon18AudioOutputPrivateE)
    .constdata__ZTSN6Phonon18MediaObjectPrivateE 0x00029981   Section       30  mediaobject.o(.constdata__ZTSN6Phonon18MediaObjectPrivateE)
    .constdata__ZTSN6Phonon18MediaSourcePrivateE 0x0002999f   Section       30  mediasource.o(.constdata__ZTSN6Phonon18MediaSourcePrivateE)
    .constdata__ZTSN6Phonon18VideoWidgetPrivateE 0x000299bd   Section       30  videowidget.o(.constdata__ZTSN6Phonon18VideoWidgetPrivateE)
    .constdata__ZTSN6Phonon19AbstractAudioOutputE 0x000299db   Section       31  abstractaudiooutput.o(.constdata__ZTSN6Phonon19AbstractAudioOutputE)
    .constdata__ZTSN6Phonon19AbstractMediaStreamE 0x000299fa   Section       31  abstractmediastream.o(.constdata__ZTSN6Phonon19AbstractMediaStreamE)
    .constdata__ZTSN6Phonon19AbstractVideoOutputE 0x00029a19   Section       31  abstractvideooutput.o(.constdata__ZTSN6Phonon19AbstractVideoOutputE)
    .constdata__ZTSN6Phonon19BackendCapabilities8NotifierE 0x00029a38   Section       40  backendcapabilities.o(.constdata__ZTSN6Phonon19BackendCapabilities8NotifierE)
    .constdata__ZTSN6Phonon19GlobalConfigPrivateE 0x00029a60   Section       31  globalconfig.o(.constdata__ZTSN6Phonon19GlobalConfigPrivateE)
    .constdata__ZTSN6Phonon21IODeviceStreamPrivateE 0x00029a7f   Section       33  iodevicestream.o(.constdata__ZTSN6Phonon21IODeviceStreamPrivateE)
    .constdata__ZTSN6Phonon22AudioDataOutputPrivateE 0x00029aa0   Section       34  audiodataoutput.o(.constdata__ZTSN6Phonon22AudioDataOutputPrivateE)
    .constdata__ZTSN6Phonon22MediaControllerPrivateE 0x00029ac2   Section       34  mediacontroller.o(.constdata__ZTSN6Phonon22MediaControllerPrivateE)
    .constdata__ZTSN6Phonon22ObjectDescriptionModelILNS_21ObjectDescriptionTypeE0EEE 0x00029ae4   Section       66  objectdescriptionmodel.o(.constdata__ZTSN6Phonon22ObjectDescriptionModelILNS_21ObjectDescriptionTypeE0EEE)
    .constdata__ZTSN6Phonon22ObjectDescriptionModelILNS_21ObjectDescriptionTypeE1EEE 0x00029b26   Section       66  objectdescriptionmodel.o(.constdata__ZTSN6Phonon22ObjectDescriptionModelILNS_21ObjectDescriptionTypeE1EEE)
    .constdata__ZTSN6Phonon22ObjectDescriptionModelILNS_21ObjectDescriptionTypeE2EEE 0x00029b68   Section       66  objectdescriptionmodel.o(.constdata__ZTSN6Phonon22ObjectDescriptionModelILNS_21ObjectDescriptionTypeE2EEE)
    .constdata__ZTSN6Phonon22ObjectDescriptionModelILNS_21ObjectDescriptionTypeE3EEE 0x00029baa   Section       66  objectdescriptionmodel.o(.constdata__ZTSN6Phonon22ObjectDescriptionModelILNS_21ObjectDescriptionTypeE3EEE)
    .constdata__ZTSN6Phonon22ObjectDescriptionModelILNS_21ObjectDescriptionTypeE4EEE 0x00029bec   Section       66  objectdescriptionmodel.o(.constdata__ZTSN6Phonon22ObjectDescriptionModelILNS_21ObjectDescriptionTypeE4EEE)
    .constdata__ZTSN6Phonon24FrontendInterfacePrivateE 0x00029c2e   Section       36  mediacontroller.o(.constdata__ZTSN6Phonon24FrontendInterfacePrivateE)
    .constdata__ZTSN6Phonon24VolumeFaderEffectPrivateE 0x00029c52   Section       36  volumefadereffect.o(.constdata__ZTSN6Phonon24VolumeFaderEffectPrivateE)
    .constdata__ZTSN6Phonon26AbstractAudioOutputPrivateE 0x00029c76   Section       38  abstractaudiooutput_p.o(.constdata__ZTSN6Phonon26AbstractAudioOutputPrivateE)
    .constdata__ZTSN6Phonon26AbstractMediaStreamPrivateE 0x00029c9c   Section       38  abstractmediastream.o(.constdata__ZTSN6Phonon26AbstractMediaStreamPrivateE)
    .constdata__ZTSN6Phonon26AbstractVideoOutputPrivateE 0x00029cc2   Section       38  abstractvideooutput_p.o(.constdata__ZTSN6Phonon26AbstractVideoOutputPrivateE)
    .constdata__ZTSN6Phonon26BackendCapabilitiesPrivateE 0x00029ce8   Section       38  backendcapabilities.o(.constdata__ZTSN6Phonon26BackendCapabilitiesPrivateE)
    .constdata__ZTSN6Phonon27MediaNodeDestructionHandlerE 0x00029d0e   Section       39  abstractmediastream.o(.constdata__ZTSN6Phonon27MediaNodeDestructionHandlerE)
    .constdata__ZTSN6Phonon6EffectE          0x00029d35   Section       17  effect.o(.constdata__ZTSN6Phonon6EffectE)
    .constdata__ZTSN6Phonon7Factory6SenderE  0x00029d46   Section       25  factory.o(.constdata__ZTSN6Phonon7Factory6SenderE)
    .constdata__ZTSN6Phonon9MediaNodeE       0x00029d5f   Section       20  medianode.o(.constdata__ZTSN6Phonon9MediaNodeE)
    .constdata__ZTVN15QtSharedPointer20ExternalRefCountDataE 0x00029d74   Section       20  effectwidget.o(.constdata__ZTVN15QtSharedPointer20ExternalRefCountDataE)
    .constdata__ZTVN6Phonon10SeekSliderE     0x00029d88   Section      248  seekslider.o(.constdata__ZTVN6Phonon10SeekSliderE)
    .constdata__ZTVN6Phonon11AudioOutputE    0x00029e80   Section       72  audiooutput.o(.constdata__ZTVN6Phonon11AudioOutputE)
    .constdata__ZTVN6Phonon11MediaObjectE    0x00029ec8   Section       72  mediaobject.o(.constdata__ZTVN6Phonon11MediaObjectE)
    .constdata__ZTVN6Phonon11PathPrivateE    0x00029f10   Section       20  path.o(.constdata__ZTVN6Phonon11PathPrivateE)
    .constdata__ZTVN6Phonon11SwiftSliderE    0x00029f24   Section      252  swiftslider.o(.constdata__ZTVN6Phonon11SwiftSliderE)
    .constdata__ZTVN6Phonon11VideoPlayerE    0x0002a020   Section      248  videoplayer.o(.constdata__ZTVN6Phonon11VideoPlayerE)
    .constdata__ZTVN6Phonon11VideoWidgetE    0x0002a118   Section      264  videowidget.o(.constdata__ZTVN6Phonon11VideoWidgetE)
    .constdata__ZTVN6Phonon12EffectWidgetE   0x0002a220   Section      248  effectwidget.o(.constdata__ZTVN6Phonon12EffectWidgetE)
    .constdata__ZTVN6Phonon12GlobalConfigE   0x0002a318   Section       16  globalconfig.o(.constdata__ZTVN6Phonon12GlobalConfigE)
    .constdata__ZTVN6Phonon12PulseSupportE   0x0002a328   Section       56  pulsesupport.o(.constdata__ZTVN6Phonon12PulseSupportE)
    .constdata__ZTVN6Phonon12VolumeSliderE   0x0002a360   Section      248  volumeslider.o(.constdata__ZTVN6Phonon12VolumeSliderE)
    .constdata__ZTVN6Phonon13EffectPrivateE  0x0002a458   Section       28  effect.o(.constdata__ZTVN6Phonon13EffectPrivateE)
    .constdata__ZTVN6Phonon14FactoryPrivateE 0x0002a474   Section       56  factory.o(.constdata__ZTVN6Phonon14FactoryPrivateE)
    .constdata__ZTVN6Phonon14IODeviceStreamE 0x0002a4ac   Section       72  iodevicestream.o(.constdata__ZTVN6Phonon14IODeviceStreamE)
    .constdata__ZTVN6Phonon15AudioDataOutputE 0x0002a4f4   Section       72  moc_audiodataoutput.o(.constdata__ZTVN6Phonon15AudioDataOutputE)
    .constdata__ZTVN6Phonon15MediaControllerE 0x0002a53c   Section       56  mediacontroller.o(.constdata__ZTVN6Phonon15MediaControllerE)
    .constdata__ZTVN6Phonon15StreamInterfaceE 0x0002a574   Section       32  streaminterface.o(.constdata__ZTVN6Phonon15StreamInterfaceE)
    .constdata__ZTVN6Phonon16MediaNodePrivateE 0x0002a594   Section       28  medianode.o(.constdata__ZTVN6Phonon16MediaNodePrivateE)
    .constdata__ZTVN6Phonon17VolumeFaderEffectE 0x0002a5b0   Section       72  volumefadereffect.o(.constdata__ZTVN6Phonon17VolumeFaderEffectE)
    .constdata__ZTVN6Phonon18AudioOutputPrivateE 0x0002a5f8   Section       28  audiooutput.o(.constdata__ZTVN6Phonon18AudioOutputPrivateE)
    .constdata__ZTVN6Phonon18MediaObjectPrivateE 0x0002a614   Section       52  mediaobject.o(.constdata__ZTVN6Phonon18MediaObjectPrivateE)
    .constdata__ZTVN6Phonon18MediaSourcePrivateE 0x0002a648   Section       16  mediasource.o(.constdata__ZTVN6Phonon18MediaSourcePrivateE)
    .constdata__ZTVN6Phonon18VideoWidgetPrivateE 0x0002a658   Section       28  videowidget.o(.constdata__ZTVN6Phonon18VideoWidgetPrivateE)
    .constdata__ZTVN6Phonon19AbstractAudioOutputE 0x0002a674   Section       72  abstractaudiooutput.o(.constdata__ZTVN6Phonon19AbstractAudioOutputE)
    .constdata__ZTVN6Phonon19AbstractMediaStreamE 0x0002a6bc   Section       72  abstractmediastream.o(.constdata__ZTVN6Phonon19AbstractMediaStreamE)
    .constdata__ZTVN6Phonon19AbstractVideoOutputE 0x0002a704   Section       16  abstractvideooutput.o(.constdata__ZTVN6Phonon19AbstractVideoOutputE)
    .constdata__ZTVN6Phonon19BackendCapabilities8NotifierE 0x0002a714   Section       56  backendcapabilities.o(.constdata__ZTVN6Phonon19BackendCapabilities8NotifierE)
    .constdata__ZTVN6Phonon19GlobalConfigPrivateE 0x0002a74c   Section       16  globalconfig.o(.constdata__ZTVN6Phonon19GlobalConfigPrivateE)
    .constdata__ZTVN6Phonon21IODeviceStreamPrivateE 0x0002a75c   Section       36  iodevicestream.o(.constdata__ZTVN6Phonon21IODeviceStreamPrivateE)
    .constdata__ZTVN6Phonon22AudioDataOutputPrivateE 0x0002a780   Section       28  audiodataoutput.o(.constdata__ZTVN6Phonon22AudioDataOutputPrivateE)
    .constdata__ZTVN6Phonon22MediaControllerPrivateE 0x0002a79c   Section       20  mediacontroller.o(.constdata__ZTVN6Phonon22MediaControllerPrivateE)
    .constdata__ZTVN6Phonon22ObjectDescriptionModelILNS_21ObjectDescriptionTypeE0EEE 0x0002a7b0   Section      168  objectdescriptionmodel.o(.constdata__ZTVN6Phonon22ObjectDescriptionModelILNS_21ObjectDescriptionTypeE0EEE)
    .constdata__ZTVN6Phonon22ObjectDescriptionModelILNS_21ObjectDescriptionTypeE1EEE 0x0002a858   Section      168  objectdescriptionmodel.o(.constdata__ZTVN6Phonon22ObjectDescriptionModelILNS_21ObjectDescriptionTypeE1EEE)
    .constdata__ZTVN6Phonon22ObjectDescriptionModelILNS_21ObjectDescriptionTypeE2EEE 0x0002a900   Section      168  objectdescriptionmodel.o(.constdata__ZTVN6Phonon22ObjectDescriptionModelILNS_21ObjectDescriptionTypeE2EEE)
    .constdata__ZTVN6Phonon22ObjectDescriptionModelILNS_21ObjectDescriptionTypeE3EEE 0x0002a9a8   Section      168  objectdescriptionmodel.o(.constdata__ZTVN6Phonon22ObjectDescriptionModelILNS_21ObjectDescriptionTypeE3EEE)
    .constdata__ZTVN6Phonon22ObjectDescriptionModelILNS_21ObjectDescriptionTypeE4EEE 0x0002aa50   Section      168  objectdescriptionmodel.o(.constdata__ZTVN6Phonon22ObjectDescriptionModelILNS_21ObjectDescriptionTypeE4EEE)
    .constdata__ZTVN6Phonon24FrontendInterfacePrivateE 0x0002aaf8   Section       20  mediacontroller.o(.constdata__ZTVN6Phonon24FrontendInterfacePrivateE)
    .constdata__ZTVN6Phonon24VolumeFaderEffectPrivateE 0x0002ab0c   Section       28  volumefadereffect.o(.constdata__ZTVN6Phonon24VolumeFaderEffectPrivateE)
    .constdata__ZTVN6Phonon26AbstractAudioOutputPrivateE 0x0002ab28   Section       28  abstractaudiooutput_p.o(.constdata__ZTVN6Phonon26AbstractAudioOutputPrivateE)
    .constdata__ZTVN6Phonon26AbstractMediaStreamPrivateE 0x0002ab44   Section       36  abstractmediastream.o(.constdata__ZTVN6Phonon26AbstractMediaStreamPrivateE)
    .constdata__ZTVN6Phonon26AbstractVideoOutputPrivateE 0x0002ab68   Section       28  abstractvideooutput_p.o(.constdata__ZTVN6Phonon26AbstractVideoOutputPrivateE)
    .constdata__ZTVN6Phonon26BackendCapabilitiesPrivateE 0x0002ab84   Section       56  backendcapabilities.o(.constdata__ZTVN6Phonon26BackendCapabilitiesPrivateE)
    .constdata__ZTVN6Phonon27MediaNodeDestructionHandlerE 0x0002abbc   Section       20  abstractmediastream.o(.constdata__ZTVN6Phonon27MediaNodeDestructionHandlerE)
    .constdata__ZTVN6Phonon6EffectE          0x0002abd0   Section       72  effect.o(.constdata__ZTVN6Phonon6EffectE)
    .constdata__ZTVN6Phonon7Factory6SenderE  0x0002ac18   Section       56  factory.o(.constdata__ZTVN6Phonon7Factory6SenderE)
    .constdata__ZTVN6Phonon9MediaNodeE       0x0002ac50   Section       16  medianode.o(.constdata__ZTVN6Phonon9MediaNodeE)
    .init_array                              0x0002ac60   Section        4  effectwidget.o(.init_array)
    .init_array                              0x0002ac64   Section        4  phononnamespace.o(.init_array)
    .ARM.exidx                               0x0002ac68   Section        8  ucppinit.o(.ARM.exidx)
    .data$0                                  0x00400000   Data           0  audiooutput.o(.data)
    Phonon::g_lastFallback                   0x00400000   Data           8  audiooutput.o(.data)
    .data                                    0x00400000   Section        8  audiooutput.o(.data)
    .data$0                                  0x00400008   Data           0  backendcapabilities.o(.data)
    _k_static_globalBCPrivate                0x00400008   Data           4  backendcapabilities.o(.data)
    .data                                    0x00400008   Section       14  backendcapabilities.o(.data)
    _ZGVcleanUpObject@_ZN4__C1ptEv_0         0x0040000c   Data           4  backendcapabilities.o(.data)
    cleanUpObject@_ZN4__C1ptEv_1             0x00400010   Data           4  backendcapabilities.o(.data)
    _k_static_globalBCPrivate_destroyed      0x00400014   Data           1  backendcapabilities.o(.data)
    globalBCPrivate                          0x00400015   Data           1  backendcapabilities.o(.data)
    .data$0                                  0x00400018   Data           0  effectwidget.o(.data)
    DEFAULT_MIN                              0x00400018   Data           4  effectwidget.o(.data)
    .data                                    0x00400018   Section       16  effectwidget.o(.data)
    DEFAULT_MAX                              0x0040001c   Data           4  effectwidget.o(.data)
    DEFAULT_MIN_INT                          0x00400020   Data           4  effectwidget.o(.data)
    DEFAULT_MAX_INT                          0x00400024   Data           4  effectwidget.o(.data)
    .data$0                                  0x00400028   Data           0  factory.o(.data)
    Phonon::_k_static_globalFactory          0x00400028   Data           4  factory.o(.data)
    .data                                    0x00400028   Section       22  factory.o(.data)
    _ZGVpreferredPluginName@_ZN6Phonon14FactoryPrivate13createBackendEv_0 0x0040002c   Data           4  factory.o(.data)
    preferredPluginName@_ZN6Phonon14FactoryPrivate13createBackendEv_1 0x00400030   Data           4  factory.o(.data)
    _ZGVcleanUpObject@_ZN6Phonon16__N6Phonon4__C1EptEv_0 0x00400034   Data           4  factory.o(.data)
    cleanUpObject@_ZN6Phonon16__N6Phonon4__C1EptEv_1 0x00400038   Data           4  factory.o(.data)
    Phonon::_k_static_globalFactory_destroyed 0x0040003c   Data           1  factory.o(.data)
    Phonon::globalFactory                    0x0040003d   Data           1  factory.o(.data)
    .data$0                                  0x00400040   Data           0  phononnamespace.o(.data)
    registerPhononMetaTypes__init_variable__ 0x00400040   Data           4  phononnamespace.o(.data)
    .data                                    0x00400040   Section        4  phononnamespace.o(.data)
    .data$0                                  0x00400044   Data           0  pulsesupport.o(.data)
    Phonon::s_instance                       0x00400044   Data           4  pulsesupport.o(.data)
    .data                                    0x00400044   Section        4  pulsesupport.o(.data)
    .data$0                                  0x00400048   Data           0  ucppfini.o(.data)
    .data                                    0x00400048   Section        4  ucppfini.o(.data)
    .data__ZNSt19_Atomic_swap_structILi1EE12_S_swap_lockE 0x0040004c   Section       12  abstractaudiooutput.o(.data__ZNSt19_Atomic_swap_structILi1EE12_S_swap_lockE)
    .data__ZZN11QMetaTypeIdI5QListIN6Phonon17ObjectDescriptionILNS1_21ObjectDescriptionTypeE2EEEEE14qt_metatype_idEvE11metatype_id 0x00400058   Section        4  mediacontroller.o(.data__ZZN11QMetaTypeIdI5QListIN6Phonon17ObjectDescriptionILNS1_21ObjectDescriptionTypeE2EEEEE14qt_metatype_idEvE11metatype_id)
    .data__ZZN11QMetaTypeIdI5QListIN6Phonon17ObjectDescriptionILNS1_21ObjectDescriptionTypeE3EEEEE14qt_metatype_idEvE11metatype_id 0x0040005c   Section        4  mediacontroller.o(.data__ZZN11QMetaTypeIdI5QListIN6Phonon17ObjectDescriptionILNS1_21ObjectDescriptionTypeE3EEEEE14qt_metatype_idEvE11metatype_id)
    .data__ZZN11QMetaTypeIdI5QListIiEE14qt_metatype_idEvE11metatype_id 0x00400060   Section        4  globalconfig.o(.data__ZZN11QMetaTypeIdI5QListIiEE14qt_metatype_idEvE11metatype_id)
    .data__ZZN11QMetaTypeIdIN6Phonon17ObjectDescriptionILNS0_21ObjectDescriptionTypeE2EEEE14qt_metatype_idEvE11metatype_id 0x00400064   Section        4  mediacontroller.o(.data__ZZN11QMetaTypeIdIN6Phonon17ObjectDescriptionILNS0_21ObjectDescriptionTypeE2EEEE14qt_metatype_idEvE11metatype_id)
    .data__ZZN11QMetaTypeIdIN6Phonon17ObjectDescriptionILNS0_21ObjectDescriptionTypeE3EEEE14qt_metatype_idEvE11metatype_id 0x00400068   Section        4  mediacontroller.o(.data__ZZN11QMetaTypeIdIN6Phonon17ObjectDescriptionILNS0_21ObjectDescriptionTypeE3EEEE14qt_metatype_idEvE11metatype_id)
    .data__ZZN11QMetaTypeIdIN6Phonon5StateEE14qt_metatype_idEvE11metatype_id 0x0040006c   Section        4  phononnamespace.o(.data__ZZN11QMetaTypeIdIN6Phonon5StateEE14qt_metatype_idEvE11metatype_id)
    .data__ZZN11QMetaTypeIdIN6Phonon8CategoryEE14qt_metatype_idEvE11metatype_id 0x00400070   Section        4  phononnamespace.o(.data__ZZN11QMetaTypeIdIN6Phonon8CategoryEE14qt_metatype_idEvE11metatype_id)
    .data__ZZN11QMetaTypeIdIN6Phonon9ErrorTypeEE14qt_metatype_idEvE11metatype_id 0x00400074   Section        4  phononnamespace.o(.data__ZZN11QMetaTypeIdIN6Phonon9ErrorTypeEE14qt_metatype_idEvE11metatype_id)
    .bss$5                                   0x00400078   Data           0  ucppfini.o(.bss)
    .bss                                     0x00400078   Section     2048  ucppfini.o(.bss)

    Global Symbols

    Symbol Name                              Value     Ov Type        Size  Object(Section)

    BuildAttributes$$THUMB_ISAv2$ARM_ISAv5$M$VFPv2$PE$A:L22$X:L11$S22$IEEE1$IW$USESV6$~STKCKD$USESV7$~SHL$OSPACE$ROPI$IEEEJ$EBA8$UX$FPIC$INDIRECT$REQ8$PRES8$EABIv2 0x00000000   Number         0  anon$$obj.o ABSOLUTE
    QtCore{00040703}[2001b2dc].dll           0x00000000   Data           0  anon$$obj.o ABSOLUTE
    QtGui{00040703}[2001b2dd].dll            0x00000000   Data           0  anon$$obj.o ABSOLUTE
    typeinfo for Phonon::AbstractVideoOutput 0x00000000   Data          12  videowidget.o(.constdata__ZTIN6Phonon19AbstractVideoOutputE)
    dfpaeabi{000a0000}.dll                   0x00000000   Data           0  anon$$obj.o ABSOLUTE
    drtaeabi{000a0000}.dll                   0x00000000   Data           0  anon$$obj.o ABSOLUTE
    drtrvct2_2{000a0000}.dll                 0x00000000   Data           0  anon$$obj.o ABSOLUTE
    euser{000a0000}[100039e5].dll            0x00000000   Data           0  anon$$obj.o ABSOLUTE
    libc{00010001}[10207369].dll             0x00000000   Data           0  anon$$obj.o ABSOLUTE
    libm{00010001}[102750d2].dll             0x00000000   Data           0  anon$$obj.o ABSOLUTE
    phonon{00040400}[2001e624].dll           0x00000000   Data           0  anon$$obj.o ABSOLUTE
    stdnew{000a0000}[20022178].dll           0x00000000   Data           0  anon$$obj.o ABSOLUTE
    qt_assert_x(const char*, const char*, const char*, int)  - Undefined Reference
    _Z11qt_assert_xPKcS0_S0_i@QtCore{00040703}[2001b2dc].dll  - Undefined Reference
    qFlagLocation(const char*)                - Undefined Reference
    _Z13qFlagLocationPKc@QtCore{00040703}[2001b2dc].dll  - Undefined Reference
    qAddPostRoutine(void(*)())                - Undefined Reference
    _Z15qAddPostRoutinePFvvE@QtCore{00040703}[2001b2dc].dll  - Undefined Reference
    qt_message_output(QtMsgType, const char*)  - Undefined Reference
    _Z17qt_message_output9QtMsgTypePKc@QtCore{00040703}[2001b2dc].dll  - Undefined Reference
    QBasicAtomicPointer_testAndSetOrdered(void*volatile *, void*, void*)  - Undefined Reference
    _Z37QBasicAtomicPointer_testAndSetOrderedPVPvS_S_@QtCore{00040703}[2001b2dc].dll  - Undefined Reference
    qFree(void*)                              - Undefined Reference
    _Z5qFreePv@QtCore{00040703}[2001b2dc].dll  - Undefined Reference
    qHash(const QByteArray&)                  - Undefined Reference
    _Z5qHashRK10QByteArray@QtCore{00040703}[2001b2dc].dll  - Undefined Reference
    qFatal(const char*, ...)                  - Undefined Reference
    _Z6qFatalPKcz@QtCore{00040703}[2001b2dc].dll  - Undefined Reference
    qMemSet(void*, int, unsigned)             - Undefined Reference
    _Z7qMemSetPvij@QtCore{00040703}[2001b2dc].dll  - Undefined Reference
    qgetenv(const char*)                      - Undefined Reference
    _Z7qgetenvPKc@QtCore{00040703}[2001b2dc].dll  - Undefined Reference
    qBadAlloc()                               - Undefined Reference
    _Z9qBadAllocv@QtCore{00040703}[2001b2dc].dll  - Undefined Reference
    qt_assert(const char*, const char*, int)  - Undefined Reference
    _Z9qt_assertPKcS0_i@QtCore{00040703}[2001b2dc].dll  - Undefined Reference
    QBoxLayout::setSpacing(int)               - Undefined Reference
    _ZN10QBoxLayout10setSpacingEi@QtGui{00040703}[2001b2dd].dll  - Undefined Reference
    QBoxLayout::setDirection(QBoxLayout::Direction)  - Undefined Reference
    _ZN10QBoxLayout12setDirectionENS_9DirectionE@QtGui{00040703}[2001b2dd].dll  - Undefined Reference
    QBoxLayout::addLayout(QLayout*, int)      - Undefined Reference
    _ZN10QBoxLayout9addLayoutEP7QLayouti@QtGui{00040703}[2001b2dd].dll  - Undefined Reference
    QBoxLayout::addWidget(QWidget*, int, QFlags<Qt::AlignmentFlag>)  - Undefined Reference
    _ZN10QBoxLayout9addWidgetEP7QWidgeti6QFlagsIN2Qt13AlignmentFlagEE@QtGui{00040703}[2001b2dd].dll  - Undefined Reference
    QBoxLayout::QBoxLayout(QBoxLayout::Direction, QWidget*)  - Undefined Reference
    _ZN10QBoxLayoutC1ENS_9DirectionEP7QWidget@QtGui{00040703}[2001b2dd].dll  - Undefined Reference
    QBoxLayout::~QBoxLayout()                 - Undefined Reference
    _ZN10QBoxLayoutD1Ev@QtGui{00040703}[2001b2dd].dll  - Undefined Reference
    QByteArray::shared_null                   - Undefined Reference
    _ZN10QByteArray11shared_nullE@QtCore{00040703}[2001b2dc].dll  - Undefined Reference
    QByteArray::realloc(int)                  - Undefined Reference
    _ZN10QByteArray7reallocEi@QtCore{00040703}[2001b2dc].dll  - Undefined Reference
    QByteArray::QByteArray(const char*)       - Undefined Reference
    _ZN10QByteArrayC1EPKc@QtCore{00040703}[2001b2dc].dll  - Undefined Reference
    QDataStream::QDataStream(QByteArray*, QFlags<QIODevice::OpenModeFlag>)  - Undefined Reference
    _ZN11QDataStreamC1EP10QByteArray6QFlagsIN9QIODevice12OpenModeFlagEE@QtCore{00040703}[2001b2dc].dll  - Undefined Reference
    QDataStream::~QDataStream()               - Undefined Reference
    _ZN11QDataStreamD1Ev@QtCore{00040703}[2001b2dc].dll  - Undefined Reference
    QDataStream::operator <<(int)             - Undefined Reference
    _ZN11QDataStreamlsEi@QtCore{00040703}[2001b2dc].dll  - Undefined Reference
    QDataStream::operator >>(int&)            - Undefined Reference
    _ZN11QDataStreamrsERi@QtCore{00040703}[2001b2dc].dll  - Undefined Reference
    QHBoxLayout::QHBoxLayout(QWidget*)        - Undefined Reference
    _ZN11QHBoxLayoutC1EP7QWidget@QtGui{00040703}[2001b2dd].dll  - Undefined Reference
    QHBoxLayout::QHBoxLayout()                - Undefined Reference
    _ZN11QHBoxLayoutC1Ev@QtGui{00040703}[2001b2dd].dll  - Undefined Reference
    QHBoxLayout::~QHBoxLayout()               - Undefined Reference
    _ZN11QHBoxLayoutD1Ev@QtGui{00040703}[2001b2dd].dll  - Undefined Reference
    QMetaObject::changeGuard(QObject**, QObject*)  - Undefined Reference
    _ZN11QMetaObject11changeGuardEPP7QObjectS1_@QtCore{00040703}[2001b2dc].dll  - Undefined Reference
    QMetaObject::removeGuard(QObject**)       - Undefined Reference
    _ZN11QMetaObject11removeGuardEPP7QObject@QtCore{00040703}[2001b2dc].dll  - Undefined Reference
    QMetaObject::invokeMethod(QObject*, const char*, Qt::ConnectionType, QGenericReturnArgument, QGenericArgument, QGenericArgument, QGenericArgument, QGenericArgument, QGenericArgument, QGenericArgument, QGenericArgument, QGenericArgument, QGenericArgument, QGenericArgument)  - Undefined Reference
    _ZN11QMetaObject12invokeMethodEP7QObjectPKcN2Qt14ConnectionTypeE22QGenericReturnArgument16QGenericArgumentS7_S7_S7_S7_S7_S7_S7_S7_S7_@QtCore{00040703}[2001b2dc].dll  - Undefined Reference
    QMetaObject::activate(QObject*, const QMetaObject*, int, void**)  - Undefined Reference
    _ZN11QMetaObject8activateEP7QObjectPKS_iPPv@QtCore{00040703}[2001b2dc].dll  - Undefined Reference
    QMetaObject::addGuard(QObject**)          - Undefined Reference
    _ZN11QMetaObject8addGuardEPP7QObject@QtCore{00040703}[2001b2dc].dll  - Undefined Reference
    QMouseEvent::QMouseEvent(QEvent::Type, const QPoint&, Qt::MouseButton, QFlags<Qt::MouseButton>, QFlags<Qt::KeyboardModifier>)  - Undefined Reference
    _ZN11QMouseEventC1EN6QEvent4TypeERK6QPointN2Qt11MouseButtonE6QFlagsIS6_ES7_INS5_16KeyboardModifierEE@QtGui{00040703}[2001b2dd].dll  - Undefined Reference
    QMouseEvent::~QMouseEvent()               - Undefined Reference
    _ZN11QMouseEventD1Ev@QtGui{00040703}[2001b2dd].dll  - Undefined Reference
    QTextStream::QTextStream(QString*, QFlags<QIODevice::OpenModeFlag>)  - Undefined Reference
    _ZN11QTextStreamC1EP7QString6QFlagsIN9QIODevice12OpenModeFlagEE@QtCore{00040703}[2001b2dc].dll  - Undefined Reference
    QTextStream::~QTextStream()               - Undefined Reference
    _ZN11QTextStreamD1Ev@QtCore{00040703}[2001b2dc].dll  - Undefined Reference
    QTextStream::operator <<(const char*)     - Undefined Reference
    _ZN11QTextStreamlsEPKc@QtCore{00040703}[2001b2dc].dll  - Undefined Reference
    QTextStream::operator <<(const void*)     - Undefined Reference
    _ZN11QTextStreamlsEPKv@QtCore{00040703}[2001b2dc].dll  - Undefined Reference
    QTextStream::operator <<(const QString&)  - Undefined Reference
    _ZN11QTextStreamlsERK7QString@QtCore{00040703}[2001b2dc].dll  - Undefined Reference
    QTextStream::operator <<(char)            - Undefined Reference
    _ZN11QTextStreamlsEc@QtCore{00040703}[2001b2dc].dll  - Undefined Reference
    QTextStream::operator <<(int)             - Undefined Reference
    _ZN11QTextStreamlsEi@QtCore{00040703}[2001b2dc].dll  - Undefined Reference
    QToolButton::setAutoRaise(bool)           - Undefined Reference
    _ZN11QToolButton12setAutoRaiseEb@QtGui{00040703}[2001b2dd].dll  - Undefined Reference
    QToolButton::QToolButton(QWidget*)        - Undefined Reference
    _ZN11QToolButtonC1EP7QWidget@QtGui{00040703}[2001b2dd].dll  - Undefined Reference
    QToolButton::~QToolButton()               - Undefined Reference
    _ZN11QToolButtonD1Ev@QtGui{00040703}[2001b2dd].dll  - Undefined Reference
    QVBoxLayout::QVBoxLayout(QWidget*)        - Undefined Reference
    _ZN11QVBoxLayoutC1EP7QWidget@QtGui{00040703}[2001b2dd].dll  - Undefined Reference
    QVectorData::reallocate(QVectorData*, int, int, int)  - Undefined Reference
    _ZN11QVectorData10reallocateEPS_iii@QtCore{00040703}[2001b2dc].dll  - Undefined Reference
    QVectorData::free(QVectorData*, int)      - Undefined Reference
    _ZN11QVectorData4freeEPS_i@QtCore{00040703}[2001b2dc].dll  - Undefined Reference
    QVectorData::allocate(int, int)           - Undefined Reference
    _ZN11QVectorData8allocateEii@QtCore{00040703}[2001b2dc].dll  - Undefined Reference
    QApplication::style()                     - Undefined Reference
    _ZN12QApplication5styleEv@QtGui{00040703}[2001b2dd].dll  - Undefined Reference
    QStyleOption::~QStyleOption()             - Undefined Reference
    _ZN12QStyleOptionD1Ev@QtGui{00040703}[2001b2dd].dll  - Undefined Reference
    QFSFileEngine::QFSFileEngine(const QString&)  - Undefined Reference
    _ZN13QFSFileEngineC1ERK7QString@QtCore{00040703}[2001b2dc].dll  - Undefined Reference
    QFSFileEngine::~QFSFileEngine()           - Undefined Reference
    _ZN13QFSFileEngineD1Ev@QtCore{00040703}[2001b2dc].dll  - Undefined Reference
    QPluginLoader::load()                     - Undefined Reference
    _ZN13QPluginLoader4loadEv@QtCore{00040703}[2001b2dc].dll  - Undefined Reference
    QPluginLoader::unload()                   - Undefined Reference
    _ZN13QPluginLoader6unloadEv@QtCore{00040703}[2001b2dc].dll  - Undefined Reference
    QPluginLoader::instance()                 - Undefined Reference
    _ZN13QPluginLoader8instanceEv@QtCore{00040703}[2001b2dc].dll  - Undefined Reference
    QPluginLoader::QPluginLoader(const QString&, QObject*)  - Undefined Reference
    _ZN13QPluginLoaderC1ERK7QStringP7QObject@QtCore{00040703}[2001b2dc].dll  - Undefined Reference
    QPluginLoader::~QPluginLoader()           - Undefined Reference
    _ZN13QPluginLoaderD1Ev@QtCore{00040703}[2001b2dc].dll  - Undefined Reference
    QDoubleSpinBox::setSingleStep(double)     - Undefined Reference
    _ZN14QDoubleSpinBox13setSingleStepEd@QtGui{00040703}[2001b2dd].dll  - Undefined Reference
    QDoubleSpinBox::setRange(double, double)  - Undefined Reference
    _ZN14QDoubleSpinBox8setRangeEdd@QtGui{00040703}[2001b2dd].dll  - Undefined Reference
    QDoubleSpinBox::setValue(double)          - Undefined Reference
    _ZN14QDoubleSpinBox8setValueEd@QtGui{00040703}[2001b2dd].dll  - Undefined Reference
    QDoubleSpinBox::QDoubleSpinBox(QWidget*)  - Undefined Reference
    _ZN14QDoubleSpinBoxC1EP7QWidget@QtGui{00040703}[2001b2dd].dll  - Undefined Reference
    QAbstractButton::setChecked(bool)         - Undefined Reference
    _ZN15QAbstractButton10setCheckedEb@QtGui{00040703}[2001b2dd].dll  - Undefined Reference
    QAbstractButton::setIconSize(const QSize&)  - Undefined Reference
    _ZN15QAbstractButton11setIconSizeERK5QSize@QtGui{00040703}[2001b2dd].dll  - Undefined Reference
    QAbstractButton::setIcon(const QIcon&)    - Undefined Reference
    _ZN15QAbstractButton7setIconERK5QIcon@QtGui{00040703}[2001b2dd].dll  - Undefined Reference
    QAbstractSlider::setMaximum(int)          - Undefined Reference
    _ZN15QAbstractSlider10setMaximumEi@QtGui{00040703}[2001b2dd].dll  - Undefined Reference
    QAbstractSlider::timerEvent(QTimerEvent*)  - Undefined Reference
    _ZN15QAbstractSlider10timerEventEP11QTimerEvent@QtGui{00040703}[2001b2dd].dll  - Undefined Reference
    QAbstractSlider::wheelEvent(QWheelEvent*)  - Undefined Reference
    _ZN15QAbstractSlider10wheelEventEP11QWheelEvent@QtGui{00040703}[2001b2dd].dll  - Undefined Reference
    QAbstractSlider::changeEvent(QEvent*)     - Undefined Reference
    _ZN15QAbstractSlider11changeEventEP6QEvent@QtGui{00040703}[2001b2dd].dll  - Undefined Reference
    QAbstractSlider::setPageStep(int)         - Undefined Reference
    _ZN15QAbstractSlider11setPageStepEi@QtGui{00040703}[2001b2dd].dll  - Undefined Reference
    QAbstractSlider::setTracking(bool)        - Undefined Reference
    _ZN15QAbstractSlider11setTrackingEb@QtGui{00040703}[2001b2dd].dll  - Undefined Reference
    QAbstractSlider::sliderChange(QAbstractSlider::SliderChange)  - Undefined Reference
    _ZN15QAbstractSlider12sliderChangeENS_12SliderChangeE@QtGui{00040703}[2001b2dd].dll  - Undefined Reference
    QAbstractSlider::keyPressEvent(QKeyEvent*)  - Undefined Reference
    _ZN15QAbstractSlider13keyPressEventEP9QKeyEvent@QtGui{00040703}[2001b2dd].dll  - Undefined Reference
    QAbstractSlider::setSingleStep(int)       - Undefined Reference
    _ZN15QAbstractSlider13setSingleStepEi@QtGui{00040703}[2001b2dd].dll  - Undefined Reference
    QAbstractSlider::triggerAction(QAbstractSlider::SliderAction)  - Undefined Reference
    _ZN15QAbstractSlider13triggerActionENS_12SliderActionE@QtGui{00040703}[2001b2dd].dll  - Undefined Reference
    QAbstractSlider::setOrientation(Qt::Orientation)  - Undefined Reference
    _ZN15QAbstractSlider14setOrientationEN2Qt11OrientationE@QtGui{00040703}[2001b2dd].dll  - Undefined Reference
    QAbstractSlider::setRepeatAction(QAbstractSlider::SliderAction, int, int)  - Undefined Reference
    _ZN15QAbstractSlider15setRepeatActionENS_12SliderActionEii@QtGui{00040703}[2001b2dd].dll  - Undefined Reference
    QAbstractSlider::setSliderPosition(int)   - Undefined Reference
    _ZN15QAbstractSlider17setSliderPositionEi@QtGui{00040703}[2001b2dd].dll  - Undefined Reference
    QAbstractSlider::setRange(int, int)       - Undefined Reference
    _ZN15QAbstractSlider8setRangeEii@QtGui{00040703}[2001b2dd].dll  - Undefined Reference
    QAbstractSlider::setValue(int)            - Undefined Reference
    _ZN15QAbstractSlider8setValueEi@QtGui{00040703}[2001b2dd].dll  - Undefined Reference
    QCoreApplication::libraryPaths()          - Undefined Reference
    _ZN16QCoreApplication12libraryPathsEv@QtCore{00040703}[2001b2dc].dll  - Undefined Reference
    QCoreApplication::notifyInternal(QObject*, QEvent*)  - Undefined Reference
    _ZN16QCoreApplication14notifyInternalEP7QObjectP6QEvent@QtCore{00040703}[2001b2dc].dll  - Undefined Reference
    QCoreApplication::applicationName()       - Undefined Reference
    _ZN16QCoreApplication15applicationNameEv@QtCore{00040703}[2001b2dc].dll  - Undefined Reference
    QCoreApplication::applicationFilePath()   - Undefined Reference
    _ZN16QCoreApplication19applicationFilePathEv@QtCore{00040703}[2001b2dc].dll  - Undefined Reference
    QCoreApplication::self                    - Undefined Reference
    _ZN16QCoreApplication4selfE@QtCore{00040703}[2001b2dc].dll  - Undefined Reference
    QCoreApplication::translate(const char*, const char*, const char*, QCoreApplication::Encoding)  - Undefined Reference
    _ZN16QCoreApplication9translateEPKcS1_S1_NS_8EncodingE@QtCore{00040703}[2001b2dc].dll  - Undefined Reference
    QAbstractItemModel::insertRows(int, int, const QModelIndex&)  - Undefined Reference
    _ZN18QAbstractItemModel10insertRowsEiiRK11QModelIndex@QtCore{00040703}[2001b2dc].dll  - Undefined Reference
    QAbstractItemModel::setItemData(const QModelIndex&, const QMap<int, QVariant>&)  - Undefined Reference
    _ZN18QAbstractItemModel11setItemDataERK11QModelIndexRK4QMapIi8QVariantE@QtCore{00040703}[2001b2dc].dll  - Undefined Reference
    QAbstractItemModel::endInsertRows()       - Undefined Reference
    _ZN18QAbstractItemModel13endInsertRowsEv@QtCore{00040703}[2001b2dc].dll  - Undefined Reference
    QAbstractItemModel::endRemoveRows()       - Undefined Reference
    _ZN18QAbstractItemModel13endRemoveRowsEv@QtCore{00040703}[2001b2dc].dll  - Undefined Reference
    QAbstractItemModel::insertColumns(int, int, const QModelIndex&)  - Undefined Reference
    _ZN18QAbstractItemModel13insertColumnsEiiRK11QModelIndex@QtCore{00040703}[2001b2dc].dll  - Undefined Reference
    QAbstractItemModel::layoutChanged()       - Undefined Reference
    _ZN18QAbstractItemModel13layoutChangedEv@QtCore{00040703}[2001b2dc].dll  - Undefined Reference
    QAbstractItemModel::removeColumns(int, int, const QModelIndex&)  - Undefined Reference
    _ZN18QAbstractItemModel13removeColumnsEiiRK11QModelIndex@QtCore{00040703}[2001b2dc].dll  - Undefined Reference
    QAbstractItemModel::setHeaderData(int, Qt::Orientation, const QVariant&, int)  - Undefined Reference
    _ZN18QAbstractItemModel13setHeaderDataEiN2Qt11OrientationERK8QVarianti@QtCore{00040703}[2001b2dc].dll  - Undefined Reference
    QAbstractItemModel::beginInsertRows(const QModelIndex&, int, int)  - Undefined Reference
    _ZN18QAbstractItemModel15beginInsertRowsERK11QModelIndexii@QtCore{00040703}[2001b2dc].dll  - Undefined Reference
    QAbstractItemModel::beginRemoveRows(const QModelIndex&, int, int)  - Undefined Reference
    _ZN18QAbstractItemModel15beginRemoveRowsERK11QModelIndexii@QtCore{00040703}[2001b2dc].dll  - Undefined Reference
    QAbstractItemModel::layoutAboutToBeChanged()  - Undefined Reference
    _ZN18QAbstractItemModel22layoutAboutToBeChangedEv@QtCore{00040703}[2001b2dc].dll  - Undefined Reference
    QAbstractItemModel::changePersistentIndexList(const QList<QModelIndex>&, const QList<QModelIndex>&)  - Undefined Reference
    _ZN18QAbstractItemModel25changePersistentIndexListERK5QListI11QModelIndexES4_@QtCore{00040703}[2001b2dc].dll  - Undefined Reference
    QAbstractItemModel::sort(int, Qt::SortOrder)  - Undefined Reference
    _ZN18QAbstractItemModel4sortEiN2Qt9SortOrderE@QtCore{00040703}[2001b2dc].dll  - Undefined Reference
    QAbstractItemModel::reset()               - Undefined Reference
    _ZN18QAbstractItemModel5resetEv@QtCore{00040703}[2001b2dc].dll  - Undefined Reference
    QAbstractItemModel::revert()              - Undefined Reference
    _ZN18QAbstractItemModel6revertEv@QtCore{00040703}[2001b2dc].dll  - Undefined Reference
    QAbstractItemModel::submit()              - Undefined Reference
    _ZN18QAbstractItemModel6submitEv@QtCore{00040703}[2001b2dc].dll  - Undefined Reference
    QAbstractItemModel::setData(const QModelIndex&, const QVariant&, int)  - Undefined Reference
    _ZN18QAbstractItemModel7setDataERK11QModelIndexRK8QVarianti@QtCore{00040703}[2001b2dc].dll  - Undefined Reference
    QAbstractItemModel::fetchMore(const QModelIndex&)  - Undefined Reference
    _ZN18QAbstractItemModel9fetchMoreERK11QModelIndex@QtCore{00040703}[2001b2dc].dll  - Undefined Reference
    QAbstractListModel::qt_metacall(QMetaObject::Call, int, void**)  - Undefined Reference
    _ZN18QAbstractListModel11qt_metacallEN11QMetaObject4CallEiPPv@QtCore{00040703}[2001b2dc].dll  - Undefined Reference
    QAbstractListModel::qt_metacast(const char*)  - Undefined Reference
    _ZN18QAbstractListModel11qt_metacastEPKc@QtCore{00040703}[2001b2dc].dll  - Undefined Reference
    QAbstractListModel::staticMetaObject      - Undefined Reference
    _ZN18QAbstractListModel16staticMetaObjectE@QtCore{00040703}[2001b2dc].dll  - Undefined Reference
    QAbstractListModel::~QAbstractListModel__sub_object()  - Undefined Reference
    _ZN18QAbstractListModelD2Ev@QtCore{00040703}[2001b2dc].dll  - Undefined Reference
    QStyleOptionSlider::QStyleOptionSlider()  - Undefined Reference
    _ZN18QStyleOptionSliderC1Ev@QtGui{00040703}[2001b2dd].dll  - Undefined Reference
    QAbstractConcatenable::convertFromAscii(const char*, int, QChar*&)  - Undefined Reference
    _ZN21QAbstractConcatenable16convertFromAsciiEPKciRP5QChar@QtCore{00040703}[2001b2dc].dll  - Undefined Reference
    QDir::setNameFilters(const QStringList&)  - Undefined Reference
    _ZN4QDir14setNameFiltersERK11QStringList@QtCore{00040703}[2001b2dc].dll  - Undefined Reference
    QDir::setPath(const QString&)             - Undefined Reference
    _ZN4QDir7setPathERK7QString@QtCore{00040703}[2001b2dc].dll  - Undefined Reference
    QDir::setFilter(QFlags<QDir::Filter>)     - Undefined Reference
    _ZN4QDir9setFilterE6QFlagsINS_6FilterEE@QtCore{00040703}[2001b2dc].dll  - Undefined Reference
    QDir::QDir(const QString&)                - Undefined Reference
    _ZN4QDirC1ERK7QString@QtCore{00040703}[2001b2dc].dll  - Undefined Reference
    QDir::~QDir()                             - Undefined Reference
    _ZN4QDirD1Ev@QtCore{00040703}[2001b2dc].dll  - Undefined Reference
    QUrl::fromLocalFile(const QString&)       - Undefined Reference
    _ZN4QUrl13fromLocalFileERK7QString@QtCore{00040703}[2001b2dc].dll  - Undefined Reference
    QUrl::QUrl(const QUrl&)                   - Undefined Reference
    _ZN4QUrlC1ERKS_@QtCore{00040703}[2001b2dc].dll  - Undefined Reference
    QUrl::QUrl()                              - Undefined Reference
    _ZN4QUrlC1Ev@QtCore{00040703}[2001b2dc].dll  - Undefined Reference
    QUrl::~QUrl()                             - Undefined Reference
    _ZN4QUrlD1Ev@QtCore{00040703}[2001b2dc].dll  - Undefined Reference
    QUrl::operator =(const QString&)          - Undefined Reference
    _ZN4QUrlaSERK7QString@QtCore{00040703}[2001b2dc].dll  - Undefined Reference
    QUrl::operator =(const QUrl&)             - Undefined Reference
    _ZN4QUrlaSERKS_@QtCore{00040703}[2001b2dc].dll  - Undefined Reference
    User::LockedDec(int&)                     - Undefined Reference
    _ZN4User9LockedDecERi@euser{000a0000}[100039e5].dll  - Undefined Reference
    User::LockedInc(int&)                     - Undefined Reference
    _ZN4User9LockedIncERi@euser{000a0000}[100039e5].dll  - Undefined Reference
    QFile::QFile(const QString&)              - Undefined Reference
    _ZN5QFileC1ERK7QString@QtCore{00040703}[2001b2dc].dll  - Undefined Reference
    QIcon::QIcon(const QPixmap&)              - Undefined Reference
    _ZN5QIconC1ERK7QPixmap@QtGui{00040703}[2001b2dd].dll  - Undefined Reference
    QIcon::QIcon(const QIcon&)                - Undefined Reference
    _ZN5QIconC1ERKS_@QtGui{00040703}[2001b2dd].dll  - Undefined Reference
    QIcon::QIcon()                            - Undefined Reference
    _ZN5QIconC1Ev@QtGui{00040703}[2001b2dd].dll  - Undefined Reference
    QIcon::~QIcon()                           - Undefined Reference
    _ZN5QIconD1Ev@QtGui{00040703}[2001b2dd].dll  - Undefined Reference
    QIcon::operator =(const QIcon&)           - Undefined Reference
    _ZN5QIconaSERKS_@QtGui{00040703}[2001b2dd].dll  - Undefined Reference
    QUuid::createUuid()                       - Undefined Reference
    _ZN5QUuid10createUuidEv@QtCore{00040703}[2001b2dc].dll  - Undefined Reference
    QImage::QImage()                          - Undefined Reference
    _ZN6QImageC1Ev@QtGui{00040703}[2001b2dd].dll  - Undefined Reference
    QLabel::setText(const QString&)           - Undefined Reference
    _ZN6QLabel7setTextERK7QString@QtGui{00040703}[2001b2dd].dll  - Undefined Reference
    QLabel::setBuddy(QWidget*)                - Undefined Reference
    _ZN6QLabel8setBuddyEP7QWidget@QtGui{00040703}[2001b2dd].dll  - Undefined Reference
    QLabel::setPixmap(const QPixmap&)         - Undefined Reference
    _ZN6QLabel9setPixmapERK7QPixmap@QtGui{00040703}[2001b2dd].dll  - Undefined Reference
    QLabel::QLabel(QWidget*, QFlags<Qt::WindowType>)  - Undefined Reference
    _ZN6QLabelC1EP7QWidget6QFlagsIN2Qt10WindowTypeEE@QtGui{00040703}[2001b2dd].dll  - Undefined Reference
    QLabel::~QLabel()                         - Undefined Reference
    _ZN6QLabelD1Ev@QtGui{00040703}[2001b2dd].dll  - Undefined Reference
    QStyle::sliderValueFromPosition(int, int, int, int, bool)  - Undefined Reference
    _ZN6QStyle23sliderValueFromPositionEiiiib@QtGui{00040703}[2001b2dd].dll  - Undefined Reference
    QTimer::singleShot(int, QObject*, const char*)  - Undefined Reference
    _ZN6QTimer10singleShotEiP7QObjectPKc@QtCore{00040703}[2001b2dc].dll  - Undefined Reference
    QLayout::setAlignment(QWidget*, QFlags<Qt::AlignmentFlag>)  - Undefined Reference
    _ZN7QLayout12setAlignmentEP7QWidget6QFlagsIN2Qt13AlignmentFlagEE@QtGui{00040703}[2001b2dd].dll  - Undefined Reference
    QLayout::setMargin(int)                   - Undefined Reference
    _ZN7QLayout9setMarginEi@QtGui{00040703}[2001b2dd].dll  - Undefined Reference
    QObject::childEvent(QChildEvent*)         - Undefined Reference
    _ZN7QObject10childEventEP11QChildEvent@QtCore{00040703}[2001b2dc].dll  - Undefined Reference
    QObject::disconnect(const QObject*, const char*, const QObject*, const char*)  - Undefined Reference
    _ZN7QObject10disconnectEPKS_PKcS1_S3_@QtCore{00040703}[2001b2dc].dll  - Undefined Reference
    QObject::timerEvent(QTimerEvent*)         - Undefined Reference
    _ZN7QObject10timerEventEP11QTimerEvent@QtCore{00040703}[2001b2dc].dll  - Undefined Reference
    QObject::customEvent(QEvent*)             - Undefined Reference
    _ZN7QObject11customEventEP6QEvent@QtCore{00040703}[2001b2dc].dll  - Undefined Reference
    QObject::deleteLater()                    - Undefined Reference
    _ZN7QObject11deleteLaterEv@QtCore{00040703}[2001b2dc].dll  - Undefined Reference
    QObject::eventFilter(QObject*, QEvent*)   - Undefined Reference
    _ZN7QObject11eventFilterEPS_P6QEvent@QtCore{00040703}[2001b2dc].dll  - Undefined Reference
    QObject::qt_metacall(QMetaObject::Call, int, void**)  - Undefined Reference
    _ZN7QObject11qt_metacallEN11QMetaObject4CallEiPPv@QtCore{00040703}[2001b2dc].dll  - Undefined Reference
    QObject::qt_metacast(const char*)         - Undefined Reference
    _ZN7QObject11qt_metacastEPKc@QtCore{00040703}[2001b2dc].dll  - Undefined Reference
    QObject::connectNotify(const char*)       - Undefined Reference
    _ZN7QObject13connectNotifyEPKc@QtCore{00040703}[2001b2dc].dll  - Undefined Reference
    QObject::disconnectNotify(const char*)    - Undefined Reference
    _ZN7QObject16disconnectNotifyEPKc@QtCore{00040703}[2001b2dc].dll  - Undefined Reference
    QObject::staticMetaObject                 - Undefined Reference
    _ZN7QObject16staticMetaObjectE@QtCore{00040703}[2001b2dc].dll  - Undefined Reference
    QObject::event(QEvent*)                   - Undefined Reference
    _ZN7QObject5eventEP6QEvent@QtCore{00040703}[2001b2dc].dll  - Undefined Reference
    QObject::connect(const QObject*, const char*, const QObject*, const char*, Qt::ConnectionType)  - Undefined Reference
    _ZN7QObject7connectEPKS_PKcS1_S3_N2Qt14ConnectionTypeE@QtCore{00040703}[2001b2dc].dll  - Undefined Reference
    QObject::QObject(QObject*)                - Undefined Reference
    _ZN7QObjectC1EPS_@QtCore{00040703}[2001b2dc].dll  - Undefined Reference
    QObject::~QObject()                       - Undefined Reference
    _ZN7QObjectD1Ev@QtCore{00040703}[2001b2dc].dll  - Undefined Reference
    QPixmap::~QPixmap()                       - Undefined Reference
    _ZN7QPixmapD1Ev@QtGui{00040703}[2001b2dd].dll  - Undefined Reference
    QSlider::paintEvent(QPaintEvent*)         - Undefined Reference
    _ZN7QSlider10paintEventEP11QPaintEvent@QtGui{00040703}[2001b2dd].dll  - Undefined Reference
    QSlider::qt_metacall(QMetaObject::Call, int, void**)  - Undefined Reference
    _ZN7QSlider11qt_metacallEN11QMetaObject4CallEiPPv@QtGui{00040703}[2001b2dd].dll  - Undefined Reference
    QSlider::qt_metacast(const char*)         - Undefined Reference
    _ZN7QSlider11qt_metacastEPKc@QtGui{00040703}[2001b2dd].dll  - Undefined Reference
    QSlider::mouseMoveEvent(QMouseEvent*)     - Undefined Reference
    _ZN7QSlider14mouseMoveEventEP11QMouseEvent@QtGui{00040703}[2001b2dd].dll  - Undefined Reference
    QSlider::mousePressEvent(QMouseEvent*)    - Undefined Reference
    _ZN7QSlider15mousePressEventEP11QMouseEvent@QtGui{00040703}[2001b2dd].dll  - Undefined Reference
    QSlider::setTickInterval(int)             - Undefined Reference
    _ZN7QSlider15setTickIntervalEi@QtGui{00040703}[2001b2dd].dll  - Undefined Reference
    QSlider::setTickPosition(QSlider::TickPosition)  - Undefined Reference
    _ZN7QSlider15setTickPositionENS_12TickPositionE@QtGui{00040703}[2001b2dd].dll  - Undefined Reference
    QSlider::staticMetaObject                 - Undefined Reference
    _ZN7QSlider16staticMetaObjectE@QtGui{00040703}[2001b2dd].dll  - Undefined Reference
    QSlider::mouseReleaseEvent(QMouseEvent*)  - Undefined Reference
    _ZN7QSlider17mouseReleaseEventEP11QMouseEvent@QtGui{00040703}[2001b2dd].dll  - Undefined Reference
    QSlider::event(QEvent*)                   - Undefined Reference
    _ZN7QSlider5eventEP6QEvent@QtGui{00040703}[2001b2dd].dll  - Undefined Reference
    QSlider::QSlider(Qt::Orientation, QWidget*)  - Undefined Reference
    _ZN7QSliderC1EN2Qt11OrientationEP7QWidget@QtGui{00040703}[2001b2dd].dll  - Undefined Reference
    QSlider::~QSlider()                       - Undefined Reference
    _ZN7QSliderD1Ev@QtGui{00040703}[2001b2dd].dll  - Undefined Reference
    QString::shared_null                      - Undefined Reference
    _ZN7QString11shared_nullE@QtCore{00040703}[2001b2dc].dll  - Undefined Reference
    QString::fromLocal8Bit(const char*, int)  - Undefined Reference
    _ZN7QString13fromLocal8BitEPKci@QtCore{00040703}[2001b2dc].dll  - Undefined Reference
    QString::fromLatin1_helper(const char*, int)  - Undefined Reference
    _ZN7QString17fromLatin1_helperEPKci@QtCore{00040703}[2001b2dc].dll  - Undefined Reference
    QString::free(QString::Data*)             - Undefined Reference
    _ZN7QString4freeEPNS_4DataE@QtCore{00040703}[2001b2dc].dll  - Undefined Reference
    QString::append(const QString&)           - Undefined Reference
    _ZN7QString6appendERKS_@QtCore{00040703}[2001b2dc].dll  - Undefined Reference
    QString::number(int, int)                 - Undefined Reference
    _ZN7QString6numberEii@QtCore{00040703}[2001b2dc].dll  - Undefined Reference
    QString::resize(int)                      - Undefined Reference
    _ZN7QString6resizeEi@QtCore{00040703}[2001b2dc].dll  - Undefined Reference
    QString::realloc()                        - Undefined Reference
    _ZN7QString7reallocEv@QtCore{00040703}[2001b2dc].dll  - Undefined Reference
    QString::fromAscii(const char*, int)      - Undefined Reference
    _ZN7QString9fromAsciiEPKci@QtCore{00040703}[2001b2dc].dll  - Undefined Reference
    QString::QString(int, Qt::Initialization)  - Undefined Reference
    _ZN7QStringC1EiN2Qt14InitializationE@QtCore{00040703}[2001b2dc].dll  - Undefined Reference
    QString::operator =(const QString&)       - Undefined Reference
    _ZN7QStringaSERKS_@QtCore{00040703}[2001b2dc].dll  - Undefined Reference
    QWidget::closeEvent(QCloseEvent*)         - Undefined Reference
    _ZN7QWidget10closeEventEP11QCloseEvent@QtGui{00040703}[2001b2dd].dll  - Undefined Reference
    QWidget::enterEvent(QEvent*)              - Undefined Reference
    _ZN7QWidget10enterEventEP6QEvent@QtGui{00040703}[2001b2dd].dll  - Undefined Reference
    QWidget::fontChange(const QFont&)         - Undefined Reference
    _ZN7QWidget10fontChangeERK5QFont@QtGui{00040703}[2001b2dd].dll  - Undefined Reference
    QWidget::leaveEvent(QEvent*)              - Undefined Reference
    _ZN7QWidget10leaveEventEP6QEvent@QtGui{00040703}[2001b2dd].dll  - Undefined Reference
    QWidget::paintEvent(QPaintEvent*)         - Undefined Reference
    _ZN7QWidget10paintEventEP11QPaintEvent@QtGui{00040703}[2001b2dd].dll  - Undefined Reference
    QWidget::setEnabled(bool)                 - Undefined Reference
    _ZN7QWidget10setEnabledEb@QtGui{00040703}[2001b2dd].dll  - Undefined Reference
    QWidget::setToolTip(const QString&)       - Undefined Reference
    _ZN7QWidget10setToolTipERK7QString@QtGui{00040703}[2001b2dd].dll  - Undefined Reference
    QWidget::setVisible(bool)                 - Undefined Reference
    _ZN7QWidget10setVisibleEb@QtGui{00040703}[2001b2dd].dll  - Undefined Reference
    QWidget::wheelEvent(QWheelEvent*)         - Undefined Reference
    _ZN7QWidget10wheelEventEP11QWheelEvent@QtGui{00040703}[2001b2dd].dll  - Undefined Reference
    QWidget::actionEvent(QActionEvent*)       - Undefined Reference
    _ZN7QWidget11actionEventEP12QActionEvent@QtGui{00040703}[2001b2dd].dll  - Undefined Reference
    QWidget::changeEvent(QEvent*)             - Undefined Reference
    _ZN7QWidget11changeEventEP6QEvent@QtGui{00040703}[2001b2dd].dll  - Undefined Reference
    QWidget::qt_metacall(QMetaObject::Call, int, void**)  - Undefined Reference
    _ZN7QWidget11qt_metacallEN11QMetaObject4CallEiPPv@QtGui{00040703}[2001b2dd].dll  - Undefined Reference
    QWidget::qt_metacast(const char*)         - Undefined Reference
    _ZN7QWidget11qt_metacastEPKc@QtGui{00040703}[2001b2dd].dll  - Undefined Reference
    QWidget::resizeEvent(QResizeEvent*)       - Undefined Reference
    _ZN7QWidget11resizeEventEP12QResizeEvent@QtGui{00040703}[2001b2dd].dll  - Undefined Reference
    QWidget::styleChange(QStyle&)             - Undefined Reference
    _ZN7QWidget11styleChangeER6QStyle@QtGui{00040703}[2001b2dd].dll  - Undefined Reference
    QWidget::tabletEvent(QTabletEvent*)       - Undefined Reference
    _ZN7QWidget11tabletEventEP12QTabletEvent@QtGui{00040703}[2001b2dd].dll  - Undefined Reference
    QWidget::focusInEvent(QFocusEvent*)       - Undefined Reference
    _ZN7QWidget12focusInEventEP11QFocusEvent@QtGui{00040703}[2001b2dd].dll  - Undefined Reference
    QWidget::setAttribute(Qt::WidgetAttribute, bool)  - Undefined Reference
    _ZN7QWidget12setAttributeEN2Qt15WidgetAttributeEb@QtGui{00040703}[2001b2dd].dll  - Undefined Reference
    QWidget::setWhatsThis(const QString&)     - Undefined Reference
    _ZN7QWidget12setWhatsThisERK7QString@QtGui{00040703}[2001b2dd].dll  - Undefined Reference
    QWidget::dragMoveEvent(QDragMoveEvent*)   - Undefined Reference
    _ZN7QWidget13dragMoveEventEP14QDragMoveEvent@QtGui{00040703}[2001b2dd].dll  - Undefined Reference
    QWidget::enabledChange(bool)              - Undefined Reference
    _ZN7QWidget13enabledChangeEb@QtGui{00040703}[2001b2dd].dll  - Undefined Reference
    QWidget::focusOutEvent(QFocusEvent*)      - Undefined Reference
    _ZN7QWidget13focusOutEventEP11QFocusEvent@QtGui{00040703}[2001b2dd].dll  - Undefined Reference
    QWidget::keyPressEvent(QKeyEvent*)        - Undefined Reference
    _ZN7QWidget13keyPressEventEP9QKeyEvent@QtGui{00040703}[2001b2dd].dll  - Undefined Reference
    QWidget::paletteChange(const QPalette&)   - Undefined Reference
    _ZN7QWidget13paletteChangeERK8QPalette@QtGui{00040703}[2001b2dd].dll  - Undefined Reference
    QWidget::setFocusProxy(QWidget*)          - Undefined Reference
    _ZN7QWidget13setFocusProxyEPS_@QtGui{00040703}[2001b2dd].dll  - Undefined Reference
    QWidget::setSizePolicy(QSizePolicy)       - Undefined Reference
    _ZN7QWidget13setSizePolicyE11QSizePolicy@QtGui{00040703}[2001b2dd].dll  - Undefined Reference
    QWidget::dragEnterEvent(QDragEnterEvent*)  - Undefined Reference
    _ZN7QWidget14dragEnterEventEP15QDragEnterEvent@QtGui{00040703}[2001b2dd].dll  - Undefined Reference
    QWidget::dragLeaveEvent(QDragLeaveEvent*)  - Undefined Reference
    _ZN7QWidget14dragLeaveEventEP15QDragLeaveEvent@QtGui{00040703}[2001b2dd].dll  - Undefined Reference
    QWidget::languageChange()                 - Undefined Reference
    _ZN7QWidget14languageChangeEv@QtGui{00040703}[2001b2dd].dll  - Undefined Reference
    QWidget::mouseMoveEvent(QMouseEvent*)     - Undefined Reference
    _ZN7QWidget14mouseMoveEventEP11QMouseEvent@QtGui{00040703}[2001b2dd].dll  - Undefined Reference
    QWidget::setWindowFlags(QFlags<Qt::WindowType>)  - Undefined Reference
    _ZN7QWidget14setWindowFlagsE6QFlagsIN2Qt10WindowTypeEE@QtGui{00040703}[2001b2dd].dll  - Undefined Reference
    QWidget::setWindowState(QFlags<Qt::WindowState>)  - Undefined Reference
    _ZN7QWidget14setWindowStateE6QFlagsIN2Qt11WindowStateEE@QtGui{00040703}[2001b2dd].dll  - Undefined Reference
    QWidget::keyReleaseEvent(QKeyEvent*)      - Undefined Reference
    _ZN7QWidget15keyReleaseEventEP9QKeyEvent@QtGui{00040703}[2001b2dd].dll  - Undefined Reference
    QWidget::mousePressEvent(QMouseEvent*)    - Undefined Reference
    _ZN7QWidget15mousePressEventEP11QMouseEvent@QtGui{00040703}[2001b2dd].dll  - Undefined Reference
    QWidget::contextMenuEvent(QContextMenuEvent*)  - Undefined Reference
    _ZN7QWidget16contextMenuEventEP17QContextMenuEvent@QtGui{00040703}[2001b2dd].dll  - Undefined Reference
    QWidget::inputMethodEvent(QInputMethodEvent*)  - Undefined Reference
    _ZN7QWidget16inputMethodEventEP17QInputMethodEvent@QtGui{00040703}[2001b2dd].dll  - Undefined Reference
    QWidget::staticMetaObject                 - Undefined Reference
    _ZN7QWidget16staticMetaObjectE@QtGui{00040703}[2001b2dd].dll  - Undefined Reference
    QWidget::mouseReleaseEvent(QMouseEvent*)  - Undefined Reference
    _ZN7QWidget17mouseReleaseEventEP11QMouseEvent@QtGui{00040703}[2001b2dd].dll  - Undefined Reference
    QWidget::focusNextPrevChild(bool)         - Undefined Reference
    _ZN7QWidget18focusNextPrevChildEb@QtGui{00040703}[2001b2dd].dll  - Undefined Reference
    QWidget::mouseDoubleClickEvent(QMouseEvent*)  - Undefined Reference
    _ZN7QWidget21mouseDoubleClickEventEP11QMouseEvent@QtGui{00040703}[2001b2dd].dll  - Undefined Reference
    QWidget::windowActivationChange(bool)     - Undefined Reference
    _ZN7QWidget22windowActivationChangeEb@QtGui{00040703}[2001b2dd].dll  - Undefined Reference
    QWidget::event(QEvent*)                   - Undefined Reference
    _ZN7QWidget5eventEP6QEvent@QtGui{00040703}[2001b2dd].dll  - Undefined Reference
    QWidget::dropEvent(QDropEvent*)           - Undefined Reference
    _ZN7QWidget9dropEventEP10QDropEvent@QtGui{00040703}[2001b2dd].dll  - Undefined Reference
    QWidget::hideEvent(QHideEvent*)           - Undefined Reference
    _ZN7QWidget9hideEventEP10QHideEvent@QtGui{00040703}[2001b2dd].dll  - Undefined Reference
    QWidget::moveEvent(QMoveEvent*)           - Undefined Reference
    _ZN7QWidget9moveEventEP10QMoveEvent@QtGui{00040703}[2001b2dd].dll  - Undefined Reference
    QWidget::showEvent(QShowEvent*)           - Undefined Reference
    _ZN7QWidget9showEventEP10QShowEvent@QtGui{00040703}[2001b2dd].dll  - Undefined Reference
    QWidget::QWidget(QWidget*, QFlags<Qt::WindowType>)  - Undefined Reference
    _ZN7QWidgetC1EPS_6QFlagsIN2Qt10WindowTypeEE@QtGui{00040703}[2001b2dd].dll  - Undefined Reference
    QWidget::~QWidget()                       - Undefined Reference
    _ZN7QWidgetD1Ev@QtGui{00040703}[2001b2dd].dll  - Undefined Reference
    QMapData::createData(int)                 - Undefined Reference
    _ZN8QMapData10createDataEi@QtCore{00040703}[2001b2dc].dll  - Undefined Reference
    QMapData::node_create(QMapData::Node**, int, int)  - Undefined Reference
    _ZN8QMapData11node_createEPPNS_4NodeEii@QtCore{00040703}[2001b2dc].dll  - Undefined Reference
    QMapData::node_delete(QMapData::Node**, int, QMapData::Node*)  - Undefined Reference
    _ZN8QMapData11node_deleteEPPNS_4NodeEiS1_@QtCore{00040703}[2001b2dc].dll  - Undefined Reference
    QMapData::shared_null                     - Undefined Reference
    _ZN8QMapData11shared_nullE@QtCore{00040703}[2001b2dc].dll  - Undefined Reference
    QMapData::continueFreeData(int)           - Undefined Reference
    _ZN8QMapData16continueFreeDataEi@QtCore{00040703}[2001b2dc].dll  - Undefined Reference
    QSpinBox::setRange(int, int)              - Undefined Reference
    _ZN8QSpinBox8setRangeEii@QtGui{00040703}[2001b2dd].dll  - Undefined Reference
    QSpinBox::setValue(int)                   - Undefined Reference
    _ZN8QSpinBox8setValueEi@QtGui{00040703}[2001b2dd].dll  - Undefined Reference
    QSpinBox::QSpinBox(QWidget*)              - Undefined Reference
    _ZN8QSpinBoxC1EP7QWidget@QtGui{00040703}[2001b2dd].dll  - Undefined Reference
    QVariant::handler                         - Undefined Reference
    _ZN8QVariant7handlerE@QtCore{00040703}[2001b2dc].dll  - Undefined Reference
    QVariant::QVariant(const QString&)        - Undefined Reference
    _ZN8QVariantC1ERK7QString@QtCore{00040703}[2001b2dc].dll  - Undefined Reference
    QVariant::QVariant(const QVariant&)       - Undefined Reference
    _ZN8QVariantC1ERKS_@QtCore{00040703}[2001b2dc].dll  - Undefined Reference
    QVariant::QVariant(bool)                  - Undefined Reference
    _ZN8QVariantC1Eb@QtCore{00040703}[2001b2dc].dll  - Undefined Reference
    QVariant::QVariant(double)                - Undefined Reference
    _ZN8QVariantC1Ed@QtCore{00040703}[2001b2dc].dll  - Undefined Reference
    QVariant::QVariant(int)                   - Undefined Reference
    _ZN8QVariantC1Ei@QtCore{00040703}[2001b2dc].dll  - Undefined Reference
    QVariant::QVariant(int, const void*, unsigned)  - Undefined Reference
    _ZN8QVariantC1EiPKvj@QtCore{00040703}[2001b2dc].dll  - Undefined Reference
    QVariant::~QVariant()                     - Undefined Reference
    _ZN8QVariantD1Ev@QtCore{00040703}[2001b2dc].dll  - Undefined Reference
    QVariant::operator =(const QVariant&)     - Undefined Reference
    _ZN8QVariantaSERKS_@QtCore{00040703}[2001b2dc].dll  - Undefined Reference
    QCheckBox::QCheckBox(QWidget*)            - Undefined Reference
    _ZN9QCheckBoxC1EP7QWidget@QtGui{00040703}[2001b2dd].dll  - Undefined Reference
    QComboBox::insertItem(int, const QIcon&, const QString&, const QVariant&)  - Undefined Reference
    _ZN9QComboBox10insertItemEiRK5QIconRK7QStringRK8QVariant@QtGui{00040703}[2001b2dd].dll  - Undefined Reference
    QComboBox::setCurrentIndex(int)           - Undefined Reference
    _ZN9QComboBox15setCurrentIndexEi@QtGui{00040703}[2001b2dd].dll  - Undefined Reference
    QComboBox::QComboBox(QWidget*)            - Undefined Reference
    _ZN9QComboBoxC1EP7QWidget@QtGui{00040703}[2001b2dd].dll  - Undefined Reference
    QFileInfo::QFileInfo(const QString&)      - Undefined Reference
    _ZN9QFileInfoC1ERK7QString@QtCore{00040703}[2001b2dc].dll  - Undefined Reference
    QFileInfo::~QFileInfo()                   - Undefined Reference
    _ZN9QFileInfoD1Ev@QtCore{00040703}[2001b2dc].dll  - Undefined Reference
    QHashData::free_helper(void(*)(QHashData::Node*))  - Undefined Reference
    _ZN9QHashData11free_helperEPFvPNS_4NodeEE@QtCore{00040703}[2001b2dc].dll  - Undefined Reference
    QHashData::shared_null                    - Undefined Reference
    _ZN9QHashData11shared_nullE@QtCore{00040703}[2001b2dc].dll  - Undefined Reference
    QHashData::allocateNode(int)              - Undefined Reference
    _ZN9QHashData12allocateNodeEi@QtCore{00040703}[2001b2dc].dll  - Undefined Reference
    QHashData::detach_helper2(void(*)(QHashData::Node*, void*), void(*)(QHashData::Node*), int, int)  - Undefined Reference
    _ZN9QHashData14detach_helper2EPFvPNS_4NodeEPvEPFvS1_Eii@QtCore{00040703}[2001b2dc].dll  - Undefined Reference
    QHashData::rehash(int)                    - Undefined Reference
    _ZN9QHashData6rehashEi@QtCore{00040703}[2001b2dc].dll  - Undefined Reference
    QHashData::nextNode(QHashData::Node*)     - Undefined Reference
    _ZN9QHashData8nextNodeEPNS_4NodeE@QtCore{00040703}[2001b2dc].dll  - Undefined Reference
    QIODevice::read(long long)                - Undefined Reference
    _ZN9QIODevice4readEx@QtCore{00040703}[2001b2dc].dll  - Undefined Reference
    QListData::detach_grow(int*, int)         - Undefined Reference
    _ZN9QListData11detach_growEPii@QtCore{00040703}[2001b2dc].dll  - Undefined Reference
    QListData::shared_null                    - Undefined Reference
    _ZN9QListData11shared_nullE@QtCore{00040703}[2001b2dc].dll  - Undefined Reference
    QListData::move(int, int)                 - Undefined Reference
    _ZN9QListData4moveEii@QtCore{00040703}[2001b2dc].dll  - Undefined Reference
    QListData::erase(void**)                  - Undefined Reference
    _ZN9QListData5eraseEPPv@QtCore{00040703}[2001b2dc].dll  - Undefined Reference
    QListData::append()                       - Undefined Reference
    _ZN9QListData6appendEv@QtCore{00040703}[2001b2dc].dll  - Undefined Reference
    QListData::detach(int)                    - Undefined Reference
    _ZN9QListData6detachEi@QtCore{00040703}[2001b2dc].dll  - Undefined Reference
    QListData::insert(int)                    - Undefined Reference
    _ZN9QListData6insertEi@QtCore{00040703}[2001b2dc].dll  - Undefined Reference
    QListData::remove(int)                    - Undefined Reference
    _ZN9QListData6removeEi@QtCore{00040703}[2001b2dc].dll  - Undefined Reference
    QListData::append2(const QListData&)      - Undefined Reference
    _ZN9QListData7append2ERKS_@QtCore{00040703}[2001b2dc].dll  - Undefined Reference
    QListData::prepend()                      - Undefined Reference
    _ZN9QListData7prependEv@QtCore{00040703}[2001b2dc].dll  - Undefined Reference
    QListData::realloc(int)                   - Undefined Reference
    _ZN9QListData7reallocEi@QtCore{00040703}[2001b2dc].dll  - Undefined Reference
    QMetaType::registerType(const char*, void(*)(void*), void*(*)(const void*))  - Undefined Reference
    _ZN9QMetaType12registerTypeEPKcPFvPvEPFS2_PKvE@QtCore{00040703}[2001b2dc].dll  - Undefined Reference
    QMetaType::registerTypedef(const char*, int)  - Undefined Reference
    _ZN9QMetaType15registerTypedefEPKci@QtCore{00040703}[2001b2dc].dll  - Undefined Reference
    QMetaType::registerStreamOperators(const char*, void(*)(QDataStream&, const void*), void(*)(QDataStream&, void*))  - Undefined Reference
    _ZN9QMetaType23registerStreamOperatorsEPKcPFvR11QDataStreamPKvEPFvS3_PvE@QtCore{00040703}[2001b2dc].dll  - Undefined Reference
    QMimeData::setData(const QString&, const QByteArray&)  - Undefined Reference
    _ZN9QMimeData7setDataERK7QStringRK10QByteArray@QtCore{00040703}[2001b2dc].dll  - Undefined Reference
    QMimeData::QMimeData()                    - Undefined Reference
    _ZN9QMimeDataC1Ev@QtCore{00040703}[2001b2dc].dll  - Undefined Reference
    QSettings::remove(const QString&)         - Undefined Reference
    _ZN9QSettings6removeERK7QString@QtCore{00040703}[2001b2dc].dll  - Undefined Reference
    QSettings::setValue(const QString&, const QVariant&)  - Undefined Reference
    _ZN9QSettings8setValueERK7QStringRK8QVariant@QtCore{00040703}[2001b2dc].dll  - Undefined Reference
    QSettings::QSettings(const QString&, const QString&, QObject*)  - Undefined Reference
    _ZN9QSettingsC1ERK7QStringS2_P7QObject@QtCore{00040703}[2001b2dc].dll  - Undefined Reference
    QSettings::~QSettings()                   - Undefined Reference
    _ZN9QSettingsD1Ev@QtCore{00040703}[2001b2dc].dll  - Undefined Reference
    QtPrivate::QStringList_contains(const QStringList*, const QString&, Qt::CaseSensitivity)  - Undefined Reference
    _ZN9QtPrivate20QStringList_containsEPK11QStringListRK7QStringN2Qt15CaseSensitivityE@QtCore{00040703}[2001b2dc].dll  - Undefined Reference
    QDataStream::atEnd() const                - Undefined Reference
    _ZNK11QDataStream5atEndEv@QtCore{00040703}[2001b2dc].dll  - Undefined Reference
    QMetaObject::tr(const char*, const char*) const  - Undefined Reference
    _ZNK11QMetaObject2trEPKcS1_@QtCore{00040703}[2001b2dc].dll  - Undefined Reference
    QFSFileEngine::fileFlags(QFlags<QAbstractFileEngine::FileFlag>) const  - Undefined Reference
    _ZNK13QFSFileEngine9fileFlagsE6QFlagsIN19QAbstractFileEngine8FileFlagEE@QtCore{00040703}[2001b2dc].dll  - Undefined Reference
    QPluginLoader::errorString() const        - Undefined Reference
    _ZNK13QPluginLoader11errorStringEv@QtCore{00040703}[2001b2dc].dll  - Undefined Reference
    QAbstractButton::iconSize() const         - Undefined Reference
    _ZNK15QAbstractButton8iconSizeEv@QtGui{00040703}[2001b2dd].dll  - Undefined Reference
    QAbstractSlider::singleStep() const       - Undefined Reference
    _ZNK15QAbstractSlider10singleStepEv@QtGui{00040703}[2001b2dd].dll  - Undefined Reference
    QAbstractSlider::hasTracking() const      - Undefined Reference
    _ZNK15QAbstractSlider11hasTrackingEv@QtGui{00040703}[2001b2dd].dll  - Undefined Reference
    QAbstractSlider::orientation() const      - Undefined Reference
    _ZNK15QAbstractSlider11orientationEv@QtGui{00040703}[2001b2dd].dll  - Undefined Reference
    QAbstractSlider::maximum() const          - Undefined Reference
    _ZNK15QAbstractSlider7maximumEv@QtGui{00040703}[2001b2dd].dll  - Undefined Reference
    QAbstractSlider::minimum() const          - Undefined Reference
    _ZNK15QAbstractSlider7minimumEv@QtGui{00040703}[2001b2dd].dll  - Undefined Reference
    QAbstractSlider::pageStep() const         - Undefined Reference
    _ZNK15QAbstractSlider8pageStepEv@QtGui{00040703}[2001b2dd].dll  - Undefined Reference
    QAbstractItemModel::headerData(int, Qt::Orientation, int) const  - Undefined Reference
    _ZNK18QAbstractItemModel10headerDataEiN2Qt11OrientationEi@QtCore{00040703}[2001b2dc].dll  - Undefined Reference
    QAbstractItemModel::canFetchMore(const QModelIndex&) const  - Undefined Reference
    _ZNK18QAbstractItemModel12canFetchMoreERK11QModelIndex@QtCore{00040703}[2001b2dc].dll  - Undefined Reference
    QAbstractItemModel::span(const QModelIndex&) const  - Undefined Reference
    _ZNK18QAbstractItemModel4spanERK11QModelIndex@QtCore{00040703}[2001b2dc].dll  - Undefined Reference
    QAbstractItemModel::buddy(const QModelIndex&) const  - Undefined Reference
    _ZNK18QAbstractItemModel5buddyERK11QModelIndex@QtCore{00040703}[2001b2dc].dll  - Undefined Reference
    QAbstractItemModel::match(const QModelIndex&, int, const QVariant&, int, QFlags<Qt::MatchFlag>) const  - Undefined Reference
    _ZNK18QAbstractItemModel5matchERK11QModelIndexiRK8QVarianti6QFlagsIN2Qt9MatchFlagEE@QtCore{00040703}[2001b2dc].dll  - Undefined Reference
    QAbstractItemModel::itemData(const QModelIndex&) const  - Undefined Reference
    _ZNK18QAbstractItemModel8itemDataERK11QModelIndex@QtCore{00040703}[2001b2dc].dll  - Undefined Reference
    QAbstractListModel::columnCount(const QModelIndex&) const  - Undefined Reference
    _ZNK18QAbstractListModel11columnCountERK11QModelIndex@QtCore{00040703}[2001b2dc].dll  - Undefined Reference
    QAbstractListModel::hasChildren(const QModelIndex&) const  - Undefined Reference
    _ZNK18QAbstractListModel11hasChildrenERK11QModelIndex@QtCore{00040703}[2001b2dc].dll  - Undefined Reference
    QAbstractListModel::index(int, int, const QModelIndex&) const  - Undefined Reference
    _ZNK18QAbstractListModel5indexEiiRK11QModelIndex@QtCore{00040703}[2001b2dc].dll  - Undefined Reference
    QAbstractListModel::parent(const QModelIndex&) const  - Undefined Reference
    _ZNK18QAbstractListModel6parentERK11QModelIndex@QtCore{00040703}[2001b2dc].dll  - Undefined Reference
    QDir::nameFilters() const                 - Undefined Reference
    _ZNK4QDir11nameFiltersEv@QtCore{00040703}[2001b2dc].dll  - Undefined Reference
    QDir::absolutePath() const                - Undefined Reference
    _ZNK4QDir12absolutePathEv@QtCore{00040703}[2001b2dc].dll  - Undefined Reference
    QDir::exists() const                      - Undefined Reference
    _ZNK4QDir6existsEv@QtCore{00040703}[2001b2dc].dll  - Undefined Reference
    QDir::entryList(QFlags<QDir::Filter>, QFlags<QDir::SortFlag>) const  - Undefined Reference
    _ZNK4QDir9entryListE6QFlagsINS_6FilterEES0_INS_8SortFlagEE@QtCore{00040703}[2001b2dc].dll  - Undefined Reference
    QUrl::toLocalFile() const                 - Undefined Reference
    _ZNK4QUrl11toLocalFileEv@QtCore{00040703}[2001b2dc].dll  - Undefined Reference
    QUrl::isValid() const                     - Undefined Reference
    _ZNK4QUrl7isValidEv@QtCore{00040703}[2001b2dc].dll  - Undefined Reference
    QIcon::isNull() const                     - Undefined Reference
    _ZNK5QIcon6isNullEv@QtGui{00040703}[2001b2dd].dll  - Undefined Reference
    QIcon::pixmap(const QSize&, QIcon::Mode, QIcon::State) const  - Undefined Reference
    _ZNK5QIcon6pixmapERK5QSizeNS_4ModeENS_5StateE@QtGui{00040703}[2001b2dd].dll  - Undefined Reference
    QIcon::operator QVariant() const          - Undefined Reference
    _ZNK5QIconcv8QVariantEv@QtGui{00040703}[2001b2dd].dll  - Undefined Reference
    QRect::contains(const QPoint&, bool) const  - Undefined Reference
    _ZNK5QRect8containsERK6QPointb@QtCore{00040703}[2001b2dc].dll  - Undefined Reference
    QUuid::toString() const                   - Undefined Reference
    _ZNK5QUuid8toStringEv@QtCore{00040703}[2001b2dc].dll  - Undefined Reference
    QObject::objectName() const               - Undefined Reference
    _ZNK7QObject10objectNameEv@QtCore{00040703}[2001b2dc].dll  - Undefined Reference
    QObject::sender() const                   - Undefined Reference
    _ZNK7QObject6senderEv@QtCore{00040703}[2001b2dc].dll  - Undefined Reference
    QObject::property(const char*) const      - Undefined Reference
    _ZNK7QObject8propertyEPKc@QtCore{00040703}[2001b2dc].dll  - Undefined Reference
    QSlider::initStyleOption(QStyleOptionSlider*) const  - Undefined Reference
    _ZNK7QSlider15initStyleOptionEP18QStyleOptionSlider@QtGui{00040703}[2001b2dd].dll  - Undefined Reference
    QSlider::minimumSizeHint() const          - Undefined Reference
    _ZNK7QSlider15minimumSizeHintEv@QtGui{00040703}[2001b2dd].dll  - Undefined Reference
    QSlider::sizeHint() const                 - Undefined Reference
    _ZNK7QSlider8sizeHintEv@QtGui{00040703}[2001b2dd].dll  - Undefined Reference
    QString::startsWith(const QLatin1String&, Qt::CaseSensitivity) const  - Undefined Reference
    _ZNK7QString10startsWithERK13QLatin1StringN2Qt15CaseSensitivityE@QtCore{00040703}[2001b2dc].dll  - Undefined Reference
    QString::toLocal8Bit() const              - Undefined Reference
    _ZNK7QString11toLocal8BitEv@QtCore{00040703}[2001b2dc].dll  - Undefined Reference
    QString::arg(const QString&, int, const QChar&) const  - Undefined Reference
    _ZNK7QString3argERKS_iRK5QChar@QtCore{00040703}[2001b2dc].dll  - Undefined Reference
    QString::arg(long long, int, int, const QChar&) const  - Undefined Reference
    _ZNK7QString3argExiiRK5QChar@QtCore{00040703}[2001b2dc].dll  - Undefined Reference
    QString::operator ==(const QLatin1String&) const  - Undefined Reference
    _ZNK7QStringeqERK13QLatin1String@QtCore{00040703}[2001b2dc].dll  - Undefined Reference
    QString::operator ==(const QString&) const  - Undefined Reference
    _ZNK7QStringeqERKS_@QtCore{00040703}[2001b2dc].dll  - Undefined Reference
    QString::operator <(const QString&) const  - Undefined Reference
    _ZNK7QStringltERKS_@QtCore{00040703}[2001b2dc].dll  - Undefined Reference
    QWidget::sizePolicy() const               - Undefined Reference
    _ZNK7QWidget10sizePolicyEv@QtGui{00040703}[2001b2dd].dll  - Undefined Reference
    QWidget::paintEngine() const              - Undefined Reference
    _ZNK7QWidget11paintEngineEv@QtGui{00040703}[2001b2dd].dll  - Undefined Reference
    QWidget::windowState() const              - Undefined Reference
    _ZNK7QWidget11windowStateEv@QtGui{00040703}[2001b2dd].dll  - Undefined Reference
    QWidget::isFullScreen() const             - Undefined Reference
    _ZNK7QWidget12isFullScreenEv@QtGui{00040703}[2001b2dd].dll  - Undefined Reference
    QWidget::heightForWidth(int) const        - Undefined Reference
    _ZNK7QWidget14heightForWidthEi@QtGui{00040703}[2001b2dd].dll  - Undefined Reference
    QWidget::minimumSizeHint() const          - Undefined Reference
    _ZNK7QWidget15minimumSizeHintEv@QtGui{00040703}[2001b2dd].dll  - Undefined Reference
    QWidget::inputMethodQuery(Qt::InputMethodQuery) const  - Undefined Reference
    _ZNK7QWidget16inputMethodQueryEN2Qt16InputMethodQueryE@QtGui{00040703}[2001b2dd].dll  - Undefined Reference
    QWidget::testAttribute_helper(Qt::WidgetAttribute) const  - Undefined Reference
    _ZNK7QWidget20testAttribute_helperEN2Qt15WidgetAttributeE@QtGui{00040703}[2001b2dd].dll  - Undefined Reference
    QWidget::style() const                    - Undefined Reference
    _ZNK7QWidget5styleEv@QtGui{00040703}[2001b2dd].dll  - Undefined Reference
    QWidget::metric(QPaintDevice::PaintDeviceMetric) const  - Undefined Reference
    _ZNK7QWidget6metricEN12QPaintDevice17PaintDeviceMetricE@QtGui{00040703}[2001b2dd].dll  - Undefined Reference
    QWidget::devType() const                  - Undefined Reference
    _ZNK7QWidget7devTypeEv@QtGui{00040703}[2001b2dd].dll  - Undefined Reference
    QWidget::sizeHint() const                 - Undefined Reference
    _ZNK7QWidget8sizeHintEv@QtGui{00040703}[2001b2dd].dll  - Undefined Reference
    QVariant::canConvert(QVariant::Type) const  - Undefined Reference
    _ZNK8QVariant10canConvertENS_4TypeE@QtCore{00040703}[2001b2dc].dll  - Undefined Reference
    QVariant::cmp(const QVariant&) const      - Undefined Reference
    _ZNK8QVariant3cmpERKS_@QtCore{00040703}[2001b2dc].dll  - Undefined Reference
    QVariant::type() const                    - Undefined Reference
    _ZNK8QVariant4typeEv@QtCore{00040703}[2001b2dc].dll  - Undefined Reference
    QVariant::toInt(bool*) const              - Undefined Reference
    _ZNK8QVariant5toIntEPb@QtCore{00040703}[2001b2dc].dll  - Undefined Reference
    QVariant::toBool() const                  - Undefined Reference
    _ZNK8QVariant6toBoolEv@QtCore{00040703}[2001b2dc].dll  - Undefined Reference
    QVariant::toReal(bool*) const             - Undefined Reference
    _ZNK8QVariant6toRealEPb@QtCore{00040703}[2001b2dc].dll  - Undefined Reference
    QVariant::toDouble(bool*) const           - Undefined Reference
    _ZNK8QVariant8toDoubleEPb@QtCore{00040703}[2001b2dc].dll  - Undefined Reference
    QVariant::toString() const                - Undefined Reference
    _ZNK8QVariant8toStringEv@QtCore{00040703}[2001b2dc].dll  - Undefined Reference
    QVariant::userType() const                - Undefined Reference
    _ZNK8QVariant8userTypeEv@QtCore{00040703}[2001b2dc].dll  - Undefined Reference
    QVariant::constData() const               - Undefined Reference
    _ZNK8QVariant9constDataEv@QtCore{00040703}[2001b2dc].dll  - Undefined Reference
    QComboBox::count() const                  - Undefined Reference
    _ZNK9QComboBox5countEv@QtGui{00040703}[2001b2dd].dll  - Undefined Reference
    QFileInfo::absoluteFilePath() const       - Undefined Reference
    _ZNK9QFileInfo16absoluteFilePathEv@QtCore{00040703}[2001b2dc].dll  - Undefined Reference
    QFileInfo::exists() const                 - Undefined Reference
    _ZNK9QFileInfo6existsEv@QtCore{00040703}[2001b2dc].dll  - Undefined Reference
    QIODevice::isReadable() const             - Undefined Reference
    _ZNK9QIODevice10isReadableEv@QtCore{00040703}[2001b2dc].dll  - Undefined Reference
    QIODevice::errorString() const            - Undefined Reference
    _ZNK9QIODevice11errorStringEv@QtCore{00040703}[2001b2dc].dll  - Undefined Reference
    QIODevice::isOpen() const                 - Undefined Reference
    _ZNK9QIODevice6isOpenEv@QtCore{00040703}[2001b2dc].dll  - Undefined Reference
    QMimeData::data(const QString&) const     - Undefined Reference
    _ZNK9QMimeData4dataERK7QString@QtCore{00040703}[2001b2dc].dll  - Undefined Reference
    QSettings::value(const QString&, const QVariant&) const  - Undefined Reference
    _ZNK9QSettings5valueERK7QStringRK8QVariant@QtCore{00040703}[2001b2dc].dll  - Undefined Reference
    QSettings::contains(const QString&) const  - Undefined Reference
    _ZNK9QSettings8containsERK7QString@QtCore{00040703}[2001b2dc].dll  - Undefined Reference
    typeinfo for QAbstractListModel           - Undefined Reference
    _ZTI18QAbstractListModel@QtCore{00040703}[2001b2dc].dll  - Undefined Reference
    typeinfo for QObject                      - Undefined Reference
    _ZTI7QObject@QtCore{00040703}[2001b2dc].dll  - Undefined Reference
    typeinfo for QSlider                      - Undefined Reference
    _ZTI7QSlider@QtGui{00040703}[2001b2dd].dll  - Undefined Reference
    typeinfo for QWidget                      - Undefined Reference
    _ZTI7QWidget@QtGui{00040703}[2001b2dd].dll  - Undefined Reference
    typeinfo for std::bad_alloc               - Undefined Reference
    _ZTISt9bad_alloc@stdnew{000a0000}[20022178].dll  - Undefined Reference
    vtable for __cxxabiv1::__class_type_info  - Undefined Reference
    _ZTVN10__cxxabiv117__class_type_infoE@drtaeabi{000a0000}.dll  - Undefined Reference
    vtable for __cxxabiv1::__si_class_type_info  - Undefined Reference
    _ZTVN10__cxxabiv120__si_class_type_infoE@drtaeabi{000a0000}.dll  - Undefined Reference
    vtable for __cxxabiv1::__vmi_class_type_info  - Undefined Reference
    _ZTVN10__cxxabiv121__vmi_class_type_infoE@drtaeabi{000a0000}.dll  - Undefined Reference
    thunk{-8} to QWidget::paintEngine() const  - Undefined Reference
    _ZThn8_NK7QWidget11paintEngineEv@QtGui{00040703}[2001b2dd].dll  - Undefined Reference
    thunk{-8} to QWidget::metric(QPaintDevice::PaintDeviceMetric) const  - Undefined Reference
    _ZThn8_NK7QWidget6metricEN12QPaintDevice17PaintDeviceMetricE@QtGui{00040703}[2001b2dd].dll  - Undefined Reference
    thunk{-8} to QWidget::devType() const     - Undefined Reference
    _ZThn8_NK7QWidget7devTypeEv@QtGui{00040703}[2001b2dd].dll  - Undefined Reference
    operator delete (void*)                   - Undefined Reference
    _ZdlPv@stdnew{000a0000}[20022178].dll     - Undefined Reference
    operator <<(QDebug, const QObject*)       - Undefined Reference
    _Zls6QDebugPK7QObject@QtCore{00040703}[2001b2dc].dll  - Undefined Reference
    operator <<(QDebug, const QUrl&)          - Undefined Reference
    _Zls6QDebugRK4QUrl@QtCore{00040703}[2001b2dc].dll  - Undefined Reference
    operator <<(QDebug, const QSize&)         - Undefined Reference
    _Zls6QDebugRK5QSize@QtCore{00040703}[2001b2dc].dll  - Undefined Reference
    operator new(unsigned)                    - Undefined Reference
    _Znwj@stdnew{000a0000}[20022178].dll      - Undefined Reference
    __ARM_ll_cmpge                            - Undefined Reference
    __ARM_ll_cmpge@drtrvct2_2{000a0000}.dll   - Undefined Reference
    __ARM_ll_cmple                            - Undefined Reference
    __ARM_ll_cmple@drtrvct2_2{000a0000}.dll   - Undefined Reference
    __aeabi_cdcmpeq                           - Undefined Reference
    __aeabi_cdcmpeq@dfpaeabi{000a0000}.dll    - Undefined Reference
    __aeabi_cdrcmple                          - Undefined Reference
    __aeabi_cdrcmple@dfpaeabi{000a0000}.dll   - Undefined Reference
    __aeabi_cfrcmple                          - Undefined Reference
    __aeabi_cfrcmple@dfpaeabi{000a0000}.dll   - Undefined Reference
    __aeabi_d2f                               - Undefined Reference
    __aeabi_d2f@dfpaeabi{000a0000}.dll        - Undefined Reference
    __aeabi_d2iz                              - Undefined Reference
    __aeabi_d2iz@dfpaeabi{000a0000}.dll       - Undefined Reference
    __aeabi_dadd                              - Undefined Reference
    __aeabi_dadd@dfpaeabi{000a0000}.dll       - Undefined Reference
    __aeabi_ddiv                              - Undefined Reference
    __aeabi_ddiv@dfpaeabi{000a0000}.dll       - Undefined Reference
    __aeabi_dmul                              - Undefined Reference
    __aeabi_dmul@dfpaeabi{000a0000}.dll       - Undefined Reference
    __aeabi_f2d                               - Undefined Reference
    __aeabi_f2d@dfpaeabi{000a0000}.dll        - Undefined Reference
    __aeabi_f2iz                              - Undefined Reference
    __aeabi_f2iz@dfpaeabi{000a0000}.dll       - Undefined Reference
    __aeabi_fdiv                              - Undefined Reference
    __aeabi_fdiv@dfpaeabi{000a0000}.dll       - Undefined Reference
    __aeabi_fmul                              - Undefined Reference
    __aeabi_fmul@dfpaeabi{000a0000}.dll       - Undefined Reference
    __aeabi_frsub                             - Undefined Reference
    __aeabi_frsub@dfpaeabi{000a0000}.dll      - Undefined Reference
    __aeabi_fsub                              - Undefined Reference
    __aeabi_fsub@dfpaeabi{000a0000}.dll       - Undefined Reference
    __aeabi_i2d                               - Undefined Reference
    __aeabi_i2d@dfpaeabi{000a0000}.dll        - Undefined Reference
    __aeabi_i2f                               - Undefined Reference
    __aeabi_i2f@dfpaeabi{000a0000}.dll        - Undefined Reference
    __aeabi_memcpy                            - Undefined Reference
    __aeabi_memcpy4                           - Undefined Reference
    __aeabi_memcpy4@drtaeabi{000a0000}.dll    - Undefined Reference
    __aeabi_memcpy@drtaeabi{000a0000}.dll     - Undefined Reference
    __aeabi_uidivmod                          - Undefined Reference
    __aeabi_uidivmod@drtaeabi{000a0000}.dll   - Undefined Reference
    __aeabi_unwind_cpp_pr0                    - Undefined Reference
    __aeabi_unwind_cpp_pr0@drtaeabi{000a0000}.dll  - Undefined Reference
    __cxa_begin_catch                         - Undefined Reference
    __cxa_begin_catch@drtaeabi{000a0000}.dll  - Undefined Reference
    __cxa_end_catch                           - Undefined Reference
    __cxa_end_catch@drtaeabi{000a0000}.dll    - Undefined Reference
    __cxa_end_cleanup                         - Undefined Reference
    __cxa_end_cleanup@drtaeabi{000a0000}.dll  - Undefined Reference
    __cxa_guard_abort                         - Undefined Reference
    __cxa_guard_abort@drtaeabi{000a0000}.dll  - Undefined Reference
    __cxa_guard_acquire                       - Undefined Reference
    __cxa_guard_acquire@drtaeabi{000a0000}.dll  - Undefined Reference
    __cxa_guard_release                       - Undefined Reference
    __cxa_guard_release@drtaeabi{000a0000}.dll  - Undefined Reference
    __cxa_pure_virtual                        - Undefined Reference
    __cxa_pure_virtual@drtaeabi{000a0000}.dll  - Undefined Reference
    __cxa_rethrow                             - Undefined Reference
    __cxa_rethrow@drtaeabi{000a0000}.dll      - Undefined Reference
    __dynamic_cast                            - Undefined Reference
    __dynamic_cast@drtaeabi{000a0000}.dll     - Undefined Reference
    exp                                       - Undefined Reference
    exp@libm{00010001}[102750d2].dll          - Undefined Reference
    expf                                      - Undefined Reference
    expf@libm{00010001}[102750d2].dll         - Undefined Reference
    logf                                      - Undefined Reference
    logf@libm{00010001}[102750d2].dll         - Undefined Reference
    memcmp                                    - Undefined Reference
    memcmp@libc{00010001}[10207369].dll       - Undefined Reference
    powf                                      - Undefined Reference
    powf@libm{00010001}[102750d2].dll         - Undefined Reference
    strcmp                                    - Undefined Reference
    strcmp@libc{00010001}[10207369].dll       - Undefined Reference
    strlen                                    - Undefined Reference
    strlen@libc{00010001}[10207369].dll       - Undefined Reference
    Image$$ER_RO$$Base                       0x00008000   Number         0  anon$$obj.o(linker$$defined$$symbols)
    _E32Dll                                  0x00008000   ARM Code      40  uc_dll_.o(.emb_text)
    Symbian$$CPP$$Exception$$Descriptor      0x00008014   Data           0  uc_dll_.o(.emb_text)
    __cpp_initialize__aeabi_                 0x00008028   ARM Code      52  ucppinit.o(.emb_text)
    std::nothrow                             0x0000805c   ARM Code       0  ucppinit.o(.emb_text)
    __PLT                                    0x0000805c   ARM Code       0  anon$$obj.o(.plt)
    Phonon::AbstractAudioOutput::getStaticMetaObject() 0x000089e5   Thumb Code     4  abstractaudiooutput.o(.text)
    Phonon::AbstractAudioOutput::metaObject() const 0x000089e9   Thumb Code    30  abstractaudiooutput.o(.text)
    Phonon::AbstractAudioOutput::qt_metacast(const char*) 0x00008a07   Thumb Code    58  abstractaudiooutput.o(.text)
    Phonon::AbstractAudioOutput::qt_metacall(QMetaObject::Call, int, void**) 0x00008a41   Thumb Code    36  abstractaudiooutput.o(.text)
    Phonon::AbstractAudioOutput::AbstractAudioOutput(Phonon::AbstractAudioOutputPrivate&, QObject*) 0x00008a65   Thumb Code    44  abstractaudiooutput.o(.text)
    Phonon::AbstractAudioOutput::AbstractAudioOutput__sub_object(Phonon::AbstractAudioOutputPrivate&, QObject*) 0x00008a65   Thumb Code     0  abstractaudiooutput.o(.text)
    Phonon::AbstractAudioOutput::~AbstractAudioOutput() 0x00008a91   Thumb Code    26  abstractaudiooutput.o(.text)
    Phonon::AbstractAudioOutput::~AbstractAudioOutput__sub_object() 0x00008a91   Thumb Code     0  abstractaudiooutput.o(.text)
    Phonon::AbstractAudioOutput::~AbstractAudioOutput__deallocating() 0x00008aab   Thumb Code    22  abstractaudiooutput.o(.text)
    thunk{-8} to Phonon::AbstractAudioOutput::~AbstractAudioOutput__deallocating() 0x00008ac1   Thumb Code    14  abstractaudiooutput.o(.text)
    thunk{-8} to Phonon::AbstractAudioOutput::~AbstractAudioOutput() 0x00008acf   Thumb Code    14  abstractaudiooutput.o(.text)
    Phonon::AbstractAudioOutputPrivate::aboutToDeleteBackendObject() 0x00008af5   Thumb Code     6  abstractaudiooutput_p.o(.text)
    Phonon::AbstractAudioOutputPrivate::setupBackendObject() 0x00008afb   Thumb Code    28  abstractaudiooutput_p.o(.text)
    Phonon::AbstractMediaStream::getStaticMetaObject() 0x00008b2d   Thumb Code     4  abstractmediastream.o(.text)
    Phonon::AbstractMediaStream::metaObject() const 0x00008b31   Thumb Code    30  abstractmediastream.o(.text)
    Phonon::AbstractMediaStream::qt_metacast(const char*) 0x00008b4f   Thumb Code    40  abstractmediastream.o(.text)
    Phonon::AbstractMediaStream::qt_metacall(QMetaObject::Call, int, void**) 0x00008b77   Thumb Code    36  abstractmediastream.o(.text)
    Phonon::AbstractMediaStream::~AbstractMediaStream() 0x00008b9b   Thumb Code     0  abstractmediastream.o(.text)
    Phonon::AbstractMediaStream::~AbstractMediaStream__sub_object() 0x00008b9b   Thumb Code    30  abstractmediastream.o(.text)
    Phonon::AbstractMediaStream::~AbstractMediaStream__deallocating() 0x00008bb9   Thumb Code    22  abstractmediastream.o(.text)
    Phonon::AbstractMediaStream::AbstractMediaStream__sub_object(QObject*) 0x00008bcf   Thumb Code   160  abstractmediastream.o(.text)
    Phonon::AbstractMediaStream::streamSize() const 0x00008c6f   Thumb Code    20  abstractmediastream.o(.text)
    Phonon::AbstractMediaStream::setStreamSize(long long) 0x00008c83   Thumb Code    28  abstractmediastream.o(.text)
    Phonon::AbstractMediaStream::streamSeekable() const 0x00008c9f   Thumb Code    16  abstractmediastream.o(.text)
    Phonon::AbstractMediaStream::setStreamSeekable(bool) 0x00008caf   Thumb Code    28  abstractmediastream.o(.text)
    Phonon::AbstractMediaStream::writeData(const QByteArray&) 0x00008ccb   Thumb Code    28  abstractmediastream.o(.text)
    Phonon::AbstractMediaStream::endOfData() 0x00008ce7   Thumb Code    24  abstractmediastream.o(.text)
    Phonon::AbstractMediaStream::error(Phonon::ErrorType, const QString&) 0x00008cff   Thumb Code    52  abstractmediastream.o(.text)
    Phonon::AbstractMediaStream::enoughData() 0x00008d33   Thumb Code     2  abstractmediastream.o(.text)
    Phonon::AbstractMediaStream::seekStream(long long) 0x00008d35   Thumb Code    36  abstractmediastream.o(.text)
    Phonon::AbstractMediaStream::AbstractMediaStream__sub_object(Phonon::AbstractMediaStreamPrivate&, QObject*) 0x00008d59   Thumb Code    46  abstractmediastream.o(.text)
    Phonon::AbstractMediaStreamPrivate::setStreamInterface(Phonon::StreamInterface*) 0x00008d87   Thumb Code    76  abstractmediastream.o(.text)
    Phonon::AbstractMediaStreamPrivate::setMediaObjectPrivate(Phonon::MediaObjectPrivate*) 0x00008dd3   Thumb Code    50  abstractmediastream.o(.text)
    Phonon::AbstractMediaStreamPrivate::~AbstractMediaStreamPrivate() 0x00008e05   Thumb Code    54  abstractmediastream.o(.text)
    Phonon::AbstractMediaStreamPrivate::~AbstractMediaStreamPrivate__sub_object() 0x00008e05   Thumb Code     0  abstractmediastream.o(.text)
    Phonon::AbstractMediaStreamPrivate::~AbstractMediaStreamPrivate__deallocating() 0x00008e3b   Thumb Code    22  abstractmediastream.o(.text)
    Phonon::AbstractMediaStreamPrivate::setStreamSize(long long) 0x00008e51   Thumb Code    34  abstractmediastream.o(.text)
    Phonon::AbstractMediaStreamPrivate::setStreamSeekable(bool) 0x00008e73   Thumb Code    28  abstractmediastream.o(.text)
    Phonon::AbstractMediaStreamPrivate::writeData(const QByteArray&) 0x00008e8f   Thumb Code    50  abstractmediastream.o(.text)
    Phonon::AbstractMediaStreamPrivate::endOfData() 0x00008ec1   Thumb Code   160  abstractmediastream.o(.text)
    Phonon::AbstractMediaStreamPrivate::phononObjectDestroyed(Phonon::MediaNodePrivate*) 0x00008f61   Thumb Code    38  abstractmediastream.o(.text)
    Phonon::AbstractVideoOutput::AbstractVideoOutput(Phonon::AbstractVideoOutputPrivate&) 0x00008fa9   Thumb Code    24  abstractvideooutput.o(.text)
    Phonon::AbstractVideoOutput::AbstractVideoOutput__sub_object(Phonon::AbstractVideoOutputPrivate&) 0x00008fa9   Thumb Code     0  abstractvideooutput.o(.text)
    Phonon::AbstractVideoOutputPrivate::aboutToDeleteBackendObject() 0x00008fc5   Thumb Code     6  abstractvideooutput_p.o(.text)
    Phonon::AudioDataOutput::AudioDataOutput(QObject*) 0x00008fcd   Thumb Code    82  audiodataoutput.o(.text)
    Phonon::AudioDataOutput::AudioDataOutput__sub_object(QObject*) 0x00008fcd   Thumb Code     0  audiodataoutput.o(.text)
    Phonon::AudioDataOutput::dataSize() const 0x0000901f   Thumb Code   214  audiodataoutput.o(.text)
    Phonon::AudioDataOutput::sampleRate() const 0x000090f5   Thumb Code   214  audiodataoutput.o(.text)
    Phonon::AudioDataOutput::setDataSize(int) 0x000091cb   Thumb Code   200  audiodataoutput.o(.text)
    Phonon::AudioDataOutputPrivate::aboutToDeleteBackendObject() 0x00009293   Thumb Code   226  audiodataoutput.o(.text)
    Phonon::AudioDataOutputPrivate::setupBackendObject() 0x00009375   Thumb Code   420  audiodataoutput.o(.text)
    Phonon::AudioDataOutputPrivate::createBackendObject() 0x00009519   Thumb Code    42  audiodataoutput.o(.text)
    Phonon::AudioOutput::getStaticMetaObject() 0x0000958d   Thumb Code     4  audiooutput.o(.text)
    Phonon::AudioOutput::metaObject() const  0x00009591   Thumb Code    30  audiooutput.o(.text)
    Phonon::AudioOutput::qt_metacast(const char*) 0x000095af   Thumb Code    40  audiooutput.o(.text)
    Phonon::AudioOutput::mutedChanged(bool)  0x000095d7   Thumb Code    32  audiooutput.o(.text)
    Phonon::AudioOutput::setMuted(bool)      0x000095f7   Thumb Code   116  audiooutput.o(.text)
    Phonon::AudioOutputPrivate::getStreamUuid() 0x0000966b   Thumb Code    20  audiooutput.o(.text)
    Phonon::AudioOutput::setOutputDevice(const Phonon::ObjectDescription<(Phonon::ObjectDescriptionType)0>&) 0x0000967f   Thumb Code   188  audiooutput.o(.text)
    Phonon::AudioOutput::volumeChanged(float) 0x0000973b   Thumb Code    30  audiooutput.o(.text)
    Phonon::AudioOutput::setVolume(float)    0x00009759   Thumb Code    82  audiooutput.o(.text)
    Phonon::AudioOutput::setVolumeDecibel(float) 0x000097ab   Thumb Code    34  audiooutput.o(.text)
    Phonon::AudioOutput::setName(const QString&) 0x000097cd   Thumb Code    56  audiooutput.o(.text)
    Phonon::AudioOutput::isMuted() const     0x00009805   Thumb Code    14  audiooutput.o(.text)
    Phonon::AudioOutput::outputDevice() const 0x00009813   Thumb Code    32  audiooutput.o(.text)
    Phonon::AudioOutput::volumeDecibel() const 0x00009833   Thumb Code   116  audiooutput.o(.text)
    Phonon::AudioOutput::volume() const      0x000098a7   Thumb Code    54  audiooutput.o(.text)
    Phonon::AudioOutput::name() const        0x000098dd   Thumb Code    26  audiooutput.o(.text)
    Phonon::AudioOutput::outputDeviceChanged(const Phonon::ObjectDescription<(Phonon::ObjectDescriptionType)0>&) 0x000098f7   Thumb Code    30  audiooutput.o(.text)
    Phonon::AudioOutputPrivate::handleAutomaticDeviceChange(const Phonon::ObjectDescription<(Phonon::ObjectDescriptionType)0>&, Phonon::AudioOutputPrivate::DeviceChangeType) 0x00009915   Thumb Code   936  audiooutput.o(.text)
    Phonon::AudioOutputPrivate::_k_deviceChanged(QString, int) 0x00009d43   Thumb Code   210  audiooutput.o(.text)
    Phonon::AudioOutputPrivate::_k_deviceListChanged() 0x00009e15   Thumb Code   486  audiooutput.o(.text)
    Phonon::AudioOutputPrivate::_k_audioDeviceFailed() 0x00009ffb   Thumb Code   238  audiooutput.o(.text)
    Phonon::AudioOutputPrivate::_k_revertFallback() 0x0000a0e9   Thumb Code    66  audiooutput.o(.text)
    Phonon::AudioOutputPrivate::_k_volumeChanged(float) 0x0000a12b   Thumb Code    44  audiooutput.o(.text)
    Phonon::AudioOutput::qt_metacall(QMetaObject::Call, int, void**) 0x0000a157   Thumb Code   656  audiooutput.o(.text)
    Phonon::AudioOutputPrivate::init(Phonon::Category) 0x0000a3e7   Thumb Code   168  audiooutput.o(.text)
    Phonon::AudioOutput::AudioOutput(Phonon::Category, QObject*) 0x0000a48f   Thumb Code    76  audiooutput.o(.text)
    Phonon::AudioOutput::AudioOutput__sub_object(Phonon::Category, QObject*) 0x0000a48f   Thumb Code     0  audiooutput.o(.text)
    Phonon::AudioOutput::AudioOutput(QObject*) 0x0000a4db   Thumb Code    66  audiooutput.o(.text)
    Phonon::AudioOutput::AudioOutput__sub_object(QObject*) 0x0000a4db   Thumb Code     0  audiooutput.o(.text)
    Phonon::AudioOutput::category() const    0x0000a51d   Thumb Code    12  audiooutput.o(.text)
    Phonon::AudioOutputPrivate::aboutToDeleteBackendObject() 0x0000a529   Thumb Code    38  audiooutput.o(.text)
    Phonon::AudioOutputPrivate::setupBackendObject() 0x0000a54f   Thumb Code   380  audiooutput.o(.text)
    Phonon::AudioOutputPrivate::createBackendObject() 0x0000a6cb   Thumb Code    90  audiooutput.o(.text)
    Phonon::AudioOutputPrivate::~AudioOutputPrivate() 0x0000a725   Thumb Code    86  audiooutput.o(.text)
    Phonon::AudioOutputPrivate::~AudioOutputPrivate__sub_object() 0x0000a725   Thumb Code     0  audiooutput.o(.text)
    Phonon::AudioOutputPrivate::~AudioOutputPrivate__deallocating() 0x0000a77b   Thumb Code    22  audiooutput.o(.text)
    Phonon::AudioOutputInterface42::deviceAccessListFor(const Phonon::ObjectDescription<(Phonon::ObjectDescriptionType)0>&) const 0x0000a879   Thumb Code    18  audiooutputinterface.o(.text)
    Phonon::BackendCapabilities::Notifier::getStaticMetaObject() 0x0000a929   Thumb Code     4  backendcapabilities.o(.text)
    Phonon::BackendCapabilities::Notifier::metaObject() const 0x0000a92d   Thumb Code    30  backendcapabilities.o(.text)
    Phonon::BackendCapabilities::Notifier::qt_metacast(const char*) 0x0000a94b   Thumb Code    40  backendcapabilities.o(.text)
    Phonon::BackendCapabilities::Notifier::availableAudioCaptureDevicesChanged() 0x0000a973   Thumb Code    18  backendcapabilities.o(.text)
    Phonon::BackendCapabilities::Notifier::availableAudioOutputDevicesChanged() 0x0000a985   Thumb Code    18  backendcapabilities.o(.text)
    Phonon::BackendCapabilities::Notifier::capabilitiesChanged() 0x0000a997   Thumb Code    18  backendcapabilities.o(.text)
    Phonon::BackendCapabilities::Notifier::qt_metacall(QMetaObject::Call, int, void**) 0x0000a9a9   Thumb Code    84  backendcapabilities.o(.text)
    Phonon::BackendCapabilities::notifier()  0x0000a9fd   Thumb Code    14  backendcapabilities.o(.text)
    Phonon::BackendCapabilities::availableMimeTypes() 0x0000aa0b   Thumb Code    58  backendcapabilities.o(.text)
    Phonon::BackendCapabilities::isMimeTypeAvailable(const QString&) 0x0000aa45   Thumb Code   106  backendcapabilities.o(.text)
    Phonon::BackendCapabilities::availableAudioOutputDevices() 0x0000aaaf   Thumb Code   152  backendcapabilities.o(.text)
    Phonon::BackendCapabilities::availableAudioCaptureDevices() 0x0000ab47   Thumb Code   298  backendcapabilities.o(.text)
    Phonon::BackendCapabilities::availableAudioEffects() 0x0000ac71   Thumb Code   160  backendcapabilities.o(.text)
    Phonon::Effect::getStaticMetaObject()    0x0000ad45   Thumb Code     4  effect.o(.text)
    Phonon::Effect::metaObject() const       0x0000ad49   Thumb Code    30  effect.o(.text)
    Phonon::Effect::qt_metacast(const char*) 0x0000ad67   Thumb Code    58  effect.o(.text)
    Phonon::Effect::qt_metacall(QMetaObject::Call, int, void**) 0x0000ada1   Thumb Code    36  effect.o(.text)
    Phonon::Effect::~Effect()                0x0000adc5   Thumb Code    26  effect.o(.text)
    Phonon::Effect::~Effect__sub_object()    0x0000adc5   Thumb Code     0  effect.o(.text)
    Phonon::Effect::~Effect__deallocating()  0x0000addf   Thumb Code    22  effect.o(.text)
    thunk{-8} to Phonon::Effect::~Effect__deallocating() 0x0000adf5   Thumb Code    14  effect.o(.text)
    thunk{-8} to Phonon::Effect::~Effect()   0x0000ae03   Thumb Code    14  effect.o(.text)
    Phonon::Effect::Effect(const Phonon::ObjectDescription<(Phonon::ObjectDescriptionType)1>&, QObject*) 0x0000ae11   Thumb Code   166  effect.o(.text)
    Phonon::Effect::Effect__sub_object(const Phonon::ObjectDescription<(Phonon::ObjectDescriptionType)1>&, QObject*) 0x0000ae11   Thumb Code     0  effect.o(.text)
    Phonon::Effect::description() const      0x0000aeb7   Thumb Code    48  effect.o(.text)
    Phonon::Effect::parameters() const       0x0000aee7   Thumb Code    54  effect.o(.text)
    Phonon::Effect::parameterValue(const Phonon::EffectParameter&) const 0x0000af1d   Thumb Code   116  effect.o(.text)
    Phonon::Effect::setParameterValue(const Phonon::EffectParameter&, const QVariant&) 0x0000af91   Thumb Code    66  effect.o(.text)
    Phonon::Effect::Effect(Phonon::EffectPrivate&, QObject*) 0x0000afd3   Thumb Code    44  effect.o(.text)
    Phonon::Effect::Effect__sub_object(Phonon::EffectPrivate&, QObject*) 0x0000afd3   Thumb Code     0  effect.o(.text)
    Phonon::EffectPrivate::aboutToDeleteBackendObject() 0x0000afff   Thumb Code   126  effect.o(.text)
    Phonon::EffectPrivate::setupBackendObject() 0x0000b07d   Thumb Code   216  effect.o(.text)
    Phonon::EffectPrivate::createBackendObject() 0x0000b155   Thumb Code    56  effect.o(.text)
    Phonon::EffectParameter::EffectParameter() 0x0000b18d   Thumb Code    36  effectparameter.o(.text)
    Phonon::EffectParameter::EffectParameter__sub_object() 0x0000b18d   Thumb Code     0  effectparameter.o(.text)
    Phonon::EffectParameter::name() const    0x0000b1b1   Thumb Code    10  effectparameter.o(.text)
    Phonon::EffectParameter::description() const 0x0000b1bb   Thumb Code    10  effectparameter.o(.text)
    Phonon::EffectParameter::type() const    0x0000b1c5   Thumb Code    58  effectparameter.o(.text)
    Phonon::EffectParameter::isLogarithmicControl() const 0x0000b1ff   Thumb Code    44  effectparameter.o(.text)
    Phonon::EffectParameter::minimumValue() const 0x0000b22b   Thumb Code    26  effectparameter.o(.text)
    Phonon::EffectParameter::maximumValue() const 0x0000b245   Thumb Code    26  effectparameter.o(.text)
    Phonon::EffectParameter::defaultValue() const 0x0000b25f   Thumb Code    26  effectparameter.o(.text)
    Phonon::EffectParameter::possibleValues() const 0x0000b279   Thumb Code    44  effectparameter.o(.text)
    Phonon::EffectParameter::operator <(const Phonon::EffectParameter&) const 0x0000b2a5   Thumb Code    24  effectparameter.o(.text)
    Phonon::EffectParameter::operator >(const Phonon::EffectParameter&) const 0x0000b2bd   Thumb Code    24  effectparameter.o(.text)
    Phonon::EffectParameter::operator ==(const Phonon::EffectParameter&) const 0x0000b2d5   Thumb Code    24  effectparameter.o(.text)
    Phonon::EffectParameter::~EffectParameter() 0x0000b2ed   Thumb Code    14  effectparameter.o(.text)
    Phonon::EffectParameter::~EffectParameter__sub_object() 0x0000b2ed   Thumb Code     0  effectparameter.o(.text)
    Phonon::EffectParameter::EffectParameter(const Phonon::EffectParameter&) 0x0000b2fb   Thumb Code    28  effectparameter.o(.text)
    Phonon::EffectParameter::EffectParameter__sub_object(const Phonon::EffectParameter&) 0x0000b2fb   Thumb Code     0  effectparameter.o(.text)
    Phonon::EffectParameter::operator =(const Phonon::EffectParameter&) 0x0000b317   Thumb Code    72  effectparameter.o(.text)
    Phonon::EffectParameter::EffectParameter(int, const QString&, QFlags<Phonon::EffectParameter::Hint>, const QVariant&, const QVariant&, const QVariant&, const QList<QVariant>&, const QString&) 0x0000b35f   Thumb Code   232  effectparameter.o(.text)
    Phonon::EffectParameter::EffectParameter__sub_object(int, const QString&, QFlags<Phonon::EffectParameter::Hint>, const QVariant&, const QVariant&, const QVariant&, const QList<QVariant>&, const QString&) 0x0000b35f   Thumb Code     0  effectparameter.o(.text)
    Phonon::EffectParameter::id() const      0x0000b447   Thumb Code    10  effectparameter.o(.text)
    Phonon::qHash(const Phonon::EffectParameter&) 0x0000b451   Thumb Code    12  effectparameter.o(.text)
    Phonon::EffectWidget::getStaticMetaObject() 0x0000b45d   Thumb Code     4  effectwidget.o(.text)
    Phonon::EffectWidget::metaObject() const 0x0000b461   Thumb Code    30  effectwidget.o(.text)
    Phonon::EffectWidget::qt_metacast(const char*) 0x0000b47f   Thumb Code    40  effectwidget.o(.text)
    Phonon::EffectWidgetPrivate::_k_setSliderParameter(int) 0x0000b4a7   Thumb Code   114  effectwidget.o(.text)
    Phonon::EffectWidgetPrivate::_k_setStringParameter(const QString&) 0x0000b519   Thumb Code    88  effectwidget.o(.text)
    Phonon::EffectWidgetPrivate::_k_setDoubleParameter(double) 0x0000b571   Thumb Code    90  effectwidget.o(.text)
    Phonon::EffectWidgetPrivate::_k_setIntParameter(int) 0x0000b5cb   Thumb Code    88  effectwidget.o(.text)
    Phonon::EffectWidgetPrivate::_k_setToggleParameter(bool) 0x0000b623   Thumb Code    88  effectwidget.o(.text)
    Phonon::EffectWidget::qt_metacall(QMetaObject::Call, int, void**) 0x0000b67b   Thumb Code   158  effectwidget.o(.text)
    Phonon::EffectWidgetPrivate::autogenerateUi() 0x0000b719   Thumb Code  1884  effectwidget.o(.text)
    Phonon::EffectWidgetPrivate::EffectWidgetPrivate(Phonon::Effect*) 0x0000be75   Thumb Code    48  effectwidget.o(.text)
    Phonon::EffectWidgetPrivate::EffectWidgetPrivate__sub_object(Phonon::Effect*) 0x0000be75   Thumb Code     0  effectwidget.o(.text)
    Phonon::EffectWidget::EffectWidget(Phonon::Effect*, QWidget*) 0x0000bea5   Thumb Code    98  effectwidget.o(.text)
    Phonon::EffectWidget::EffectWidget__sub_object(Phonon::Effect*, QWidget*) 0x0000bea5   Thumb Code     0  effectwidget.o(.text)
    Phonon::EffectWidget::~EffectWidget()    0x0000bf07   Thumb Code    48  effectwidget.o(.text)
    Phonon::EffectWidget::~EffectWidget__sub_object() 0x0000bf07   Thumb Code     0  effectwidget.o(.text)
    Phonon::EffectWidget::~EffectWidget__deallocating() 0x0000bf37   Thumb Code    22  effectwidget.o(.text)
    thunk{-8} to Phonon::EffectWidget::~EffectWidget__deallocating() 0x0000bf4d   Thumb Code    14  effectwidget.o(.text)
    thunk{-8} to Phonon::EffectWidget::~EffectWidget() 0x0000bf5b   Thumb Code    14  effectwidget.o(.text)
    Phonon::FactoryPrivate::getStaticMetaObject() 0x0000bf95   Thumb Code     4  factory.o(.text)
    Phonon::FactoryPrivate::metaObject() const 0x0000bf99   Thumb Code    30  factory.o(.text)
    Phonon::Factory::Sender::qt_metacast(const char*) 0x0000bfb7   Thumb Code    40  factory.o(.text)
    Phonon::FactoryPrivate::qt_metacast(const char*) 0x0000bfdf   Thumb Code    42  factory.o(.text)
    Phonon::Factory::Sender::availableAudioCaptureDevicesChanged() 0x0000c009   Thumb Code    18  factory.o(.text)
    Phonon::Factory::Sender::availableAudioOutputDevicesChanged() 0x0000c01b   Thumb Code    18  factory.o(.text)
    Phonon::FactoryPrivate::objectDescriptionChanged(Phonon::ObjectDescriptionType) 0x0000c02d   Thumb Code   102  factory.o(.text)
    Phonon::FactoryPrivate::objectDestroyed(QObject*) 0x0000c093   Thumb Code    16  factory.o(.text)
    Phonon::Factory::Sender::backendChanged() 0x0000c0a3   Thumb Code    18  factory.o(.text)
    Phonon::Factory::Sender::qt_metacall(QMetaObject::Call, int, void**) 0x0000c0b5   Thumb Code    84  factory.o(.text)
    Phonon::FactoryPrivate::qt_metacall(QMetaObject::Call, int, void**) 0x0000c109   Thumb Code    80  factory.o(.text)
    Phonon::FactoryPrivate::FactoryPrivate() 0x0000c159   Thumb Code    94  factory.o(.text)
    Phonon::FactoryPrivate::FactoryPrivate__sub_object() 0x0000c159   Thumb Code     0  factory.o(.text)
    Phonon::FactoryPrivate::~FactoryPrivate() 0x0000c1b7   Thumb Code   262  factory.o(.text)
    Phonon::FactoryPrivate::~FactoryPrivate__sub_object() 0x0000c1b7   Thumb Code     0  factory.o(.text)
    Phonon::FactoryPrivate::~FactoryPrivate__deallocating() 0x0000c2bd   Thumb Code    22  factory.o(.text)
    Phonon::FactoryPrivate::platformPlugin() 0x0000c49f   Thumb Code  1520  factory.o(.text)
    Phonon::FactoryPrivate::createBackend()  0x0000ca8f   Thumb Code  1422  factory.o(.text)
    Phonon::Factory::Sender::getStaticMetaObject() 0x0000d01d   Thumb Code     4  factory.o(.text)
    Phonon::Factory::Sender::metaObject() const 0x0000d021   Thumb Code    30  factory.o(.text)
    Phonon::Factory::setBackend(QObject*)    0x0000d03f   Thumb Code    56  factory.o(.text)
    Phonon::Factory::sender()                0x0000d077   Thumb Code    12  factory.o(.text)
    Phonon::Factory::isMimeTypeAvailable(const QString&) 0x0000d083   Thumb Code    38  factory.o(.text)
    Phonon::Factory::registerFrontendObject(Phonon::MediaNodePrivate*) 0x0000d0a9   Thumb Code    98  factory.o(.text)
    Phonon::Factory::deregisterFrontendObject(Phonon::MediaNodePrivate*) 0x0000d10b   Thumb Code    34  factory.o(.text)
    Phonon::Factory::backend(bool)           0x0000d12d   Thumb Code    78  factory.o(.text)
    Phonon::Factory::registerQObject(QObject*) 0x0000d17b   Thumb Code   238  factory.o(.text)
    Phonon::Factory::createMediaObject(QObject*) 0x0000d269   Thumb Code    78  factory.o(.text)
    Phonon::Factory::createEffect(int, QObject*) 0x0000d2b7   Thumb Code   104  factory.o(.text)
    Phonon::Factory::createVolumeFaderEffect(QObject*) 0x0000d31f   Thumb Code    78  factory.o(.text)
    Phonon::Factory::createAudioOutput(QObject*) 0x0000d36d   Thumb Code    78  factory.o(.text)
    Phonon::Factory::createVideoWidget(QObject*) 0x0000d3bb   Thumb Code    78  factory.o(.text)
    Phonon::Factory::createAudioDataOutput(QObject*) 0x0000d409   Thumb Code    78  factory.o(.text)
    Phonon::Factory::platformPlugin()        0x0000d457   Thumb Code    16  factory.o(.text)
    Phonon::Factory::identifier()            0x0000d467   Thumb Code    68  factory.o(.text)
    Phonon::Factory::backendName()           0x0000d4ab   Thumb Code    68  factory.o(.text)
    Phonon::Factory::backendComment()        0x0000d4ef   Thumb Code    68  factory.o(.text)
    Phonon::Factory::backendVersion()        0x0000d533   Thumb Code    68  factory.o(.text)
    Phonon::Factory::backendIcon()           0x0000d577   Thumb Code    68  factory.o(.text)
    Phonon::Factory::backendWebsite()        0x0000d5bb   Thumb Code    68  factory.o(.text)
    Phonon::GlobalConfigPrivate::GlobalConfigPrivate() 0x0000d685   Thumb Code    74  globalconfig.o(.text)
    Phonon::GlobalConfigPrivate::GlobalConfigPrivate__sub_object() 0x0000d685   Thumb Code     0  globalconfig.o(.text)
    Phonon::GlobalConfig::GlobalConfig()     0x0000d6cf   Thumb Code    36  globalconfig.o(.text)
    Phonon::GlobalConfig::GlobalConfig__sub_object() 0x0000d6cf   Thumb Code     0  globalconfig.o(.text)
    Phonon::GlobalConfig::~GlobalConfig()    0x0000d6f3   Thumb Code    28  globalconfig.o(.text)
    Phonon::GlobalConfig::~GlobalConfig__sub_object() 0x0000d6f3   Thumb Code     0  globalconfig.o(.text)
    Phonon::GlobalConfig::~GlobalConfig__deallocating() 0x0000d70f   Thumb Code    22  globalconfig.o(.text)
    Phonon::GlobalConfig::hideAdvancedDevices() const 0x0000d725   Thumb Code   182  globalconfig.o(.text)
    Phonon::GlobalConfig::setHideAdvancedDevices(bool) 0x0000d7db   Thumb Code    86  globalconfig.o(.text)
    Phonon::GlobalConfig::audioOutputDeviceListFor(Phonon::Category, int) const 0x0000dd95   Thumb Code   522  globalconfig.o(.text)
    Phonon::GlobalConfig::audioCaptureDeviceListFor(Phonon::Category, int) const 0x0000e08b   Thumb Code   460  globalconfig.o(.text)
    Phonon::GlobalConfig::setAudioOutputDeviceListFor(Phonon::Category, QList<int>) 0x0000e467   Thumb Code   302  globalconfig.o(.text)
    Phonon::GlobalConfig::audioOutputDeviceFor(Phonon::Category, int) const 0x0000e595   Thumb Code    60  globalconfig.o(.text)
    Phonon::GlobalConfig::setAudioCaptureDeviceListFor(Phonon::Category, QList<int>) 0x0000e5d1   Thumb Code   302  globalconfig.o(.text)
    Phonon::GlobalConfig::audioCaptureDeviceFor(Phonon::Category, int) const 0x0000e6ff   Thumb Code    60  globalconfig.o(.text)
    Phonon::IODeviceStream::getStaticMetaObject() 0x0000e749   Thumb Code     4  iodevicestream.o(.text)
    Phonon::IODeviceStream::metaObject() const 0x0000e74d   Thumb Code    30  iodevicestream.o(.text)
    Phonon::IODeviceStream::qt_metacast(const char*) 0x0000e76b   Thumb Code    40  iodevicestream.o(.text)
    Phonon::IODeviceStream::qt_metacall(QMetaObject::Call, int, void**) 0x0000e793   Thumb Code    36  iodevicestream.o(.text)
    Phonon::IODeviceStream::IODeviceStream(QIODevice*, QObject*) 0x0000e7b7   Thumb Code    80  iodevicestream.o(.text)
    Phonon::IODeviceStream::IODeviceStream__sub_object(QIODevice*, QObject*) 0x0000e7b7   Thumb Code     0  iodevicestream.o(.text)
    Phonon::IODeviceStream::~IODeviceStream() 0x0000e807   Thumb Code    14  iodevicestream.o(.text)
    Phonon::IODeviceStream::~IODeviceStream__sub_object() 0x0000e807   Thumb Code     0  iodevicestream.o(.text)
    Phonon::IODeviceStream::~IODeviceStream__deallocating() 0x0000e815   Thumb Code    22  iodevicestream.o(.text)
    Phonon::IODeviceStream::reset()          0x0000e82b   Thumb Code    30  iodevicestream.o(.text)
    Phonon::IODeviceStream::needData()       0x0000e849   Thumb Code   134  iodevicestream.o(.text)
    Phonon::IODeviceStream::seekStream(long long) 0x0000e8cf   Thumb Code    34  iodevicestream.o(.text)
    Phonon::MediaController::getStaticMetaObject() 0x0000e8fd   Thumb Code     4  mediacontroller.o(.text)
    Phonon::MediaController::metaObject() const 0x0000e901   Thumb Code    30  mediacontroller.o(.text)
    Phonon::MediaController::qt_metacast(const char*) 0x0000e91f   Thumb Code    40  mediacontroller.o(.text)
    Phonon::MediaController::currentTitle() const 0x0000e947   Thumb Code    82  mediacontroller.o(.text)
    Phonon::MediaController::setCurrentTitle(int) 0x0000e999   Thumb Code    86  mediacontroller.o(.text)
    Phonon::MediaController::previousTitle() 0x0000e9ef   Thumb Code    22  mediacontroller.o(.text)
    Phonon::MediaController::nextTitle()     0x0000ea05   Thumb Code    22  mediacontroller.o(.text)
    Phonon::MediaController::setAutoplayTitles(bool) 0x0000ea1b   Thumb Code    86  mediacontroller.o(.text)
    Phonon::MediaController::setCurrentChapter(int) 0x0000ea71   Thumb Code    86  mediacontroller.o(.text)
    Phonon::MediaController::setCurrentAngle(int) 0x0000eac7   Thumb Code    86  mediacontroller.o(.text)
    Phonon::MediaController::titleChanged(int) 0x0000eb1d   Thumb Code    32  mediacontroller.o(.text)
    Phonon::MediaController::availableTitlesChanged(int) 0x0000eb3d   Thumb Code    32  mediacontroller.o(.text)
    Phonon::MediaController::chapterChanged(int) 0x0000eb5d   Thumb Code    32  mediacontroller.o(.text)
    Phonon::MediaController::availableChaptersChanged(int) 0x0000eb7d   Thumb Code    32  mediacontroller.o(.text)
    Phonon::MediaController::angleChanged(int) 0x0000eb9d   Thumb Code    32  mediacontroller.o(.text)
    Phonon::MediaController::availableAnglesChanged(int) 0x0000ebbd   Thumb Code    32  mediacontroller.o(.text)
    Phonon::MediaController::availableAudioChannelsChanged() 0x0000ebdd   Thumb Code    18  mediacontroller.o(.text)
    Phonon::MediaController::availableSubtitlesChanged() 0x0000ebef   Thumb Code    18  mediacontroller.o(.text)
    Phonon::MediaController::qt_metacall(QMetaObject::Call, int, void**) 0x0000ec01   Thumb Code   228  mediacontroller.o(.text)
    Phonon::MediaController::MediaController(Phonon::MediaObject*) 0x0000ece5   Thumb Code    68  mediacontroller.o(.text)
    Phonon::MediaController::MediaController__sub_object(Phonon::MediaObject*) 0x0000ece5   Thumb Code     0  mediacontroller.o(.text)
    Phonon::MediaController::~MediaController() 0x0000ed29   Thumb Code    34  mediacontroller.o(.text)
    Phonon::MediaController::~MediaController__sub_object() 0x0000ed29   Thumb Code     0  mediacontroller.o(.text)
    Phonon::MediaController::~MediaController__deallocating() 0x0000ed4b   Thumb Code    22  mediacontroller.o(.text)
    Phonon::MediaController::supportedFeatures() const 0x0000ed61   Thumb Code   154  mediacontroller.o(.text)
    Phonon::MediaController::availableAngles() const 0x0000edfb   Thumb Code    82  mediacontroller.o(.text)
    Phonon::MediaController::currentAngle() const 0x0000ee4d   Thumb Code    82  mediacontroller.o(.text)
    Phonon::MediaController::availableChapters() const 0x0000ee9f   Thumb Code    82  mediacontroller.o(.text)
    Phonon::MediaController::currentChapter() const 0x0000eef1   Thumb Code    82  mediacontroller.o(.text)
    Phonon::MediaController::availableTitles() const 0x0000ef43   Thumb Code    82  mediacontroller.o(.text)
    Phonon::MediaController::autoplayTitles() const 0x0000ef95   Thumb Code    80  mediacontroller.o(.text)
    Phonon::MediaController::currentAudioChannel() const 0x0000efe5   Thumb Code   188  mediacontroller.o(.text)
    Phonon::MediaController::currentSubtitle() const 0x0000f0a1   Thumb Code   182  mediacontroller.o(.text)
    Phonon::MediaController::availableAudioChannels() const 0x0000f157   Thumb Code   252  mediacontroller.o(.text)
    Phonon::MediaController::availableSubtitles() const 0x0000f253   Thumb Code   252  mediacontroller.o(.text)
    Phonon::MediaController::setCurrentAudioChannel(const Phonon::ObjectDescription<(Phonon::ObjectDescriptionType)2>&) 0x0000f34f   Thumb Code   104  mediacontroller.o(.text)
    Phonon::MediaController::setCurrentSubtitle(const Phonon::ObjectDescription<(Phonon::ObjectDescriptionType)3>&) 0x0000f3b7   Thumb Code   104  mediacontroller.o(.text)
    Phonon::MediaControllerPrivate::backendObjectChanged(QObject*) 0x0000f41f   Thumb Code   284  mediacontroller.o(.text)
    Phonon::MediaNode::~MediaNode()          0x0000f549   Thumb Code    28  medianode.o(.text)
    Phonon::MediaNode::~MediaNode__sub_object() 0x0000f549   Thumb Code     0  medianode.o(.text)
    Phonon::MediaNode::~MediaNode__deallocating() 0x0000f565   Thumb Code    22  medianode.o(.text)
    Phonon::MediaNodePrivate::backendObject() 0x0000f57b   Thumb Code    32  medianode.o(.text)
    Phonon::MediaNode::isValid() const       0x0000f59b   Thumb Code    22  medianode.o(.text)
    Phonon::MediaNode::inputPaths() const    0x0000f5b1   Thumb Code    22  medianode.o(.text)
    Phonon::MediaNode::outputPaths() const   0x0000f5c7   Thumb Code    22  medianode.o(.text)
    Phonon::MediaNode::MediaNode(Phonon::MediaNodePrivate&) 0x0000f5dd   Thumb Code    12  medianode.o(.text)
    Phonon::MediaNode::MediaNode__sub_object(Phonon::MediaNodePrivate&) 0x0000f5dd   Thumb Code     0  medianode.o(.text)
    Phonon::MediaNodePrivate::MediaNodePrivate__sub_object(Phonon::MediaNodePrivate::CastId) 0x0000f5e9   Thumb Code    68  medianode.o(.text)
    Phonon::MediaNodePrivate::~MediaNodePrivate() 0x0000f62d   Thumb Code     0  medianode.o(.text)
    Phonon::MediaNodePrivate::~MediaNodePrivate__sub_object() 0x0000f62d   Thumb Code   156  medianode.o(.text)
    Phonon::MediaNodePrivate::~MediaNodePrivate__deallocating() 0x0000f6c9   Thumb Code    22  medianode.o(.text)
    Phonon::MediaNodePrivate::deleteBackendObject() 0x0000f6df   Thumb Code    44  medianode.o(.text)
    Phonon::MediaNodePrivate::addDestructionHandler(Phonon::MediaNodeDestructionHandler*) 0x0000f70b   Thumb Code    16  medianode.o(.text)
    Phonon::MediaNodePrivate::removeDestructionHandler(Phonon::MediaNodeDestructionHandler*) 0x0000f71b   Thumb Code    16  medianode.o(.text)
    Phonon::MediaNodePrivate::addOutputPath(const Phonon::Path&) 0x0000f72b   Thumb Code    18  medianode.o(.text)
    Phonon::MediaNodePrivate::addInputPath(const Phonon::Path&) 0x0000f73d   Thumb Code    18  medianode.o(.text)
    Phonon::MediaNodePrivate::removeOutputPath(const Phonon::Path&) 0x0000f74f   Thumb Code    44  medianode.o(.text)
    Phonon::MediaNodePrivate::removeInputPath(const Phonon::Path&) 0x0000f77b   Thumb Code    44  medianode.o(.text)
    Phonon::MediaObject::getStaticMetaObject() 0x0000f859   Thumb Code     4  mediaobject.o(.text)
    Phonon::MediaObject::metaObject() const  0x0000f85d   Thumb Code    30  mediaobject.o(.text)
    Phonon::MediaObject::qt_metacast(const char*) 0x0000f87b   Thumb Code    58  mediaobject.o(.text)
    Phonon::MediaObject::setTickInterval(int) 0x0000f8b5   Thumb Code    46  mediaobject.o(.text)
    Phonon::MediaObject::setPrefinishMark(int) 0x0000f8e3   Thumb Code    46  mediaobject.o(.text)
    Phonon::MediaObject::setTransitionTime(int) 0x0000f911   Thumb Code    46  mediaobject.o(.text)
    Phonon::MediaObject::tickInterval() const 0x0000f93f   Thumb Code    38  mediaobject.o(.text)
    Phonon::MediaObject::prefinishMark() const 0x0000f965   Thumb Code    38  mediaobject.o(.text)
    Phonon::MediaObject::transitionTime() const 0x0000f98b   Thumb Code    38  mediaobject.o(.text)
    Phonon::MediaObject::currentSourceChanged(const Phonon::MediaSource&) 0x0000f9b1   Thumb Code    30  mediaobject.o(.text)
    Phonon::MediaObjectPrivate::_k_currentSourceChanged(const Phonon::MediaSource&) 0x0000f9cf   Thumb Code   130  mediaobject.o(.text)
    Phonon::MediaObject::aboutToFinish()     0x0000fa51   Thumb Code    18  mediaobject.o(.text)
    Phonon::MediaObjectPrivate::_k_aboutToFinish() 0x0000fa63   Thumb Code   142  mediaobject.o(.text)
    Phonon::MediaObject::stateChanged(Phonon::State, Phonon::State) 0x0000faf1   Thumb Code    38  mediaobject.o(.text)
    Phonon::MediaObject::play()              0x0000fb17   Thumb Code    58  mediaobject.o(.text)
    Phonon::MediaObjectPrivate::_k_stateChanged(Phonon::State, Phonon::State) 0x0000fb51   Thumb Code   682  mediaobject.o(.text)
    Phonon::MediaObject::metaDataChanged()   0x0000fdfb   Thumb Code    18  mediaobject.o(.text)
    Phonon::MediaObjectPrivate::_k_metaDataChanged(const QMultiMap<QString, QString>&) 0x0000fe0d   Thumb Code    88  mediaobject.o(.text)
    Phonon::MediaObjectPrivate::_k_resumePause() 0x0000fe65   Thumb Code    58  mediaobject.o(.text)
    Phonon::MediaObjectPrivate::_k_resumePlay() 0x0000fe9f   Thumb Code    58  mediaobject.o(.text)
    Phonon::MediaObject::stop()              0x0000fed9   Thumb Code    58  mediaobject.o(.text)
    Phonon::MediaObject::setCurrentSource(const Phonon::MediaSource&) 0x0000ff13   Thumb Code   256  mediaobject.o(.text)
    Phonon::MediaObject::clear()             0x00010013   Thumb Code    42  mediaobject.o(.text)
    Phonon::MediaObject::seek(long long)     0x0001003d   Thumb Code    62  mediaobject.o(.text)
    Phonon::MediaObject::pause()             0x0001007b   Thumb Code   278  mediaobject.o(.text)
    Phonon::MediaObject::totalTimeChanged(long long) 0x00010191   Thumb Code    34  mediaobject.o(.text)
    Phonon::MediaObject::prefinishMarkReached(int) 0x000101b3   Thumb Code    32  mediaobject.o(.text)
    Phonon::MediaObject::finished()          0x000101d3   Thumb Code    18  mediaobject.o(.text)
    Phonon::MediaObject::bufferStatus(int)   0x000101e5   Thumb Code    32  mediaobject.o(.text)
    Phonon::MediaObject::hasVideoChanged(bool) 0x00010205   Thumb Code    32  mediaobject.o(.text)
    Phonon::MediaObject::seekableChanged(bool) 0x00010225   Thumb Code    32  mediaobject.o(.text)
    Phonon::MediaObject::tick(long long)     0x00010245   Thumb Code    34  mediaobject.o(.text)
    Phonon::MediaObject::qt_metacall(QMetaObject::Call, int, void**) 0x00010267   Thumb Code   524  mediaobject.o(.text)
    Phonon::MediaObject::MediaObject(QObject*) 0x00010473   Thumb Code    62  mediaobject.o(.text)
    Phonon::MediaObject::MediaObject__sub_object(QObject*) 0x00010473   Thumb Code     0  mediaobject.o(.text)
    Phonon::MediaObject::state() const       0x000104b1   Thumb Code    88  mediaobject.o(.text)
    Phonon::MediaObject::~MediaObject()      0x00010509   Thumb Code    96  mediaobject.o(.text)
    Phonon::MediaObject::~MediaObject__sub_object() 0x00010509   Thumb Code     0  mediaobject.o(.text)
    Phonon::MediaObject::~MediaObject__deallocating() 0x00010569   Thumb Code    22  mediaobject.o(.text)
    thunk{-8} to Phonon::MediaObject::~MediaObject__deallocating() 0x0001057f   Thumb Code    14  mediaobject.o(.text)
    thunk{-8} to Phonon::MediaObject::~MediaObject() 0x0001058d   Thumb Code    14  mediaobject.o(.text)
    Phonon::MediaObject::hasVideo() const    0x0001059b   Thumb Code    36  mediaobject.o(.text)
    Phonon::MediaObject::isSeekable() const  0x000105bf   Thumb Code    36  mediaobject.o(.text)
    Phonon::MediaObject::metaData(const QString&) const 0x000105e3   Thumb Code    76  mediaobject.o(.text)
    Phonon::MediaObject::metaData(Phonon::MetaData) const 0x0001062f   Thumb Code   328  mediaobject.o(.text)
    Phonon::MediaObject::metaData() const    0x00010777   Thumb Code    84  mediaobject.o(.text)
    Phonon::MediaObject::errorString() const 0x000107cb   Thumb Code    76  mediaobject.o(.text)
    Phonon::MediaObject::errorType() const   0x00010817   Thumb Code    60  mediaobject.o(.text)
    Phonon::MediaObject::currentSource() const 0x00010853   Thumb Code    26  mediaobject.o(.text)
    Phonon::MediaObject::queue() const       0x0001086d   Thumb Code    46  mediaobject.o(.text)
    Phonon::MediaObject::enqueue(const Phonon::MediaSource&) 0x0001089b   Thumb Code    58  mediaobject.o(.text)
    Phonon::MediaObject::enqueue(const QList<Phonon::MediaSource>&) 0x000108d5   Thumb Code    86  mediaobject.o(.text)
    Phonon::MediaObject::setQueue(const QList<Phonon::MediaSource>&) 0x0001092b   Thumb Code    30  mediaobject.o(.text)
    Phonon::MediaObject::enqueue(const QList<QUrl>&) 0x00010949   Thumb Code   102  mediaobject.o(.text)
    Phonon::MediaObject::setQueue(const QList<QUrl>&) 0x000109af   Thumb Code    30  mediaobject.o(.text)
    Phonon::MediaObject::clearQueue()        0x000109cd   Thumb Code    20  mediaobject.o(.text)
    Phonon::MediaObject::currentTime() const 0x000109e1   Thumb Code   224  mediaobject.o(.text)
    Phonon::MediaObject::totalTime() const   0x00010ac1   Thumb Code    44  mediaobject.o(.text)
    Phonon::MediaObject::remainingTime() const 0x00010aed   Thumb Code    68  mediaobject.o(.text)
    Phonon::MediaObjectPrivate::aboutToDeleteBackendObject() 0x00010b31   Thumb Code   132  mediaobject.o(.text)
    Phonon::MediaObjectPrivate::setupBackendObject() 0x00010bb5   Thumb Code   976  mediaobject.o(.text)
    Phonon::MediaObjectPrivate::createBackendObject() 0x00010f85   Thumb Code    42  mediaobject.o(.text)
    Phonon::MediaObjectPrivate::phononObjectDestroyed(Phonon::MediaNodePrivate*) 0x00010faf   Thumb Code    34  mediaobject.o(.text)
    thunk{-28} to Phonon::MediaObjectPrivate::phononObjectDestroyed(Phonon::MediaNodePrivate*) 0x00010fd1   Thumb Code    18  mediaobject.o(.text)
    Phonon::MediaObjectPrivate::streamError(Phonon::ErrorType, const QString&) 0x00010fe3   Thumb Code   382  mediaobject.o(.text)
    Phonon::createPlayer(Phonon::Category, const Phonon::MediaSource&) 0x00011161   Thumb Code   144  mediaobject.o(.text)
    Phonon::MediaSource::MediaSource()       0x00011249   Thumb Code    38  mediasource.o(.text)
    Phonon::MediaSource::MediaSource__sub_object() 0x00011249   Thumb Code     0  mediasource.o(.text)
    Phonon::MediaSourcePrivate::setStream(Phonon::AbstractMediaStream*) 0x0001126f   Thumb Code    28  mediasource.o(.text)
    Phonon::MediaSource::MediaSource(const QString&) 0x0001128b   Thumb Code   442  mediasource.o(.text)
    Phonon::MediaSource::MediaSource__sub_object(const QString&) 0x0001128b   Thumb Code     0  mediasource.o(.text)
    Phonon::MediaSource::MediaSource(const QUrl&) 0x00011445   Thumb Code    80  mediasource.o(.text)
    Phonon::MediaSource::MediaSource__sub_object(const QUrl&) 0x00011445   Thumb Code     0  mediasource.o(.text)
    Phonon::MediaSource::MediaSource(Phonon::DiscType, const QString&) 0x00011495   Thumb Code    90  mediasource.o(.text)
    Phonon::MediaSource::MediaSource__sub_object(Phonon::DiscType, const QString&) 0x00011495   Thumb Code     0  mediasource.o(.text)
    Phonon::MediaSource::MediaSource(Phonon::AbstractMediaStream*) 0x000114ef   Thumb Code    70  mediasource.o(.text)
    Phonon::MediaSource::MediaSource__sub_object(Phonon::AbstractMediaStream*) 0x000114ef   Thumb Code     0  mediasource.o(.text)
    Phonon::MediaSource::MediaSource(QIODevice*) 0x00011535   Thumb Code   106  mediasource.o(.text)
    Phonon::MediaSource::MediaSource__sub_object(QIODevice*) 0x00011535   Thumb Code     0  mediasource.o(.text)
    Phonon::MediaSource::~MediaSource()      0x0001159f   Thumb Code    14  mediasource.o(.text)
    Phonon::MediaSource::~MediaSource__sub_object() 0x0001159f   Thumb Code     0  mediasource.o(.text)
    Phonon::MediaSource::MediaSource(const Phonon::MediaSource&) 0x000115ad   Thumb Code    30  mediasource.o(.text)
    Phonon::MediaSource::MediaSource__sub_object(const Phonon::MediaSource&) 0x000115ad   Thumb Code     0  mediasource.o(.text)
    Phonon::MediaSource::operator =(const Phonon::MediaSource&) 0x000115cb   Thumb Code    70  mediasource.o(.text)
    Phonon::MediaSource::operator ==(const Phonon::MediaSource&) const 0x00011611   Thumb Code    20  mediasource.o(.text)
    Phonon::MediaSource::setAutoDelete(bool) 0x00011625   Thumb Code    10  mediasource.o(.text)
    Phonon::MediaSource::autoDelete() const  0x0001162f   Thumb Code    12  mediasource.o(.text)
    Phonon::MediaSource::type() const        0x0001163b   Thumb Code    38  mediasource.o(.text)
    Phonon::MediaSource::fileName() const    0x00011661   Thumb Code    24  mediasource.o(.text)
    Phonon::MediaSource::url() const         0x00011679   Thumb Code    26  mediasource.o(.text)
    Phonon::MediaSource::discType() const    0x00011693   Thumb Code    10  mediasource.o(.text)
    Phonon::MediaSource::deviceName() const  0x0001169d   Thumb Code   144  mediasource.o(.text)
    Phonon::MediaSource::stream() const      0x0001172d   Thumb Code    14  mediasource.o(.text)
    Phonon::MediaSource::MediaSource(Phonon::MediaSourcePrivate&) 0x0001173b   Thumb Code    18  mediasource.o(.text)
    Phonon::MediaSource::MediaSource__sub_object(Phonon::MediaSourcePrivate&) 0x0001173b   Thumb Code     0  mediasource.o(.text)
    Phonon::MediaSourcePrivate::~MediaSourcePrivate() 0x0001174d   Thumb Code    88  mediasource.o(.text)
    Phonon::MediaSourcePrivate::~MediaSourcePrivate__sub_object() 0x0001174d   Thumb Code     0  mediasource.o(.text)
    Phonon::MediaSourcePrivate::~MediaSourcePrivate__deallocating() 0x000117a5   Thumb Code    22  mediasource.o(.text)
    Phonon::ObjectDescriptionData::isValid() const 0x000117c1   Thumb Code    16  objectdescription.o(.text)
    Phonon::ObjectDescriptionData::operator ==(const Phonon::ObjectDescriptionData&) const 0x000117d1   Thumb Code    50  objectdescription.o(.text)
    Phonon::ObjectDescriptionData::name() const 0x00011803   Thumb Code    40  objectdescription.o(.text)
    Phonon::ObjectDescriptionData::description() const 0x0001182b   Thumb Code    42  objectdescription.o(.text)
    Phonon::ObjectDescriptionData::property(const char*) const 0x00011855   Thumb Code    60  objectdescription.o(.text)
    Phonon::ObjectDescriptionData::propertyNames() const 0x00011891   Thumb Code    40  objectdescription.o(.text)
    Phonon::ObjectDescriptionData::index() const 0x000118b9   Thumb Code    24  objectdescription.o(.text)
    Phonon::ObjectDescriptionData::ObjectDescriptionData(Phonon::ObjectDescriptionPrivate*) 0x000118d1   Thumb Code    20  objectdescription.o(.text)
    Phonon::ObjectDescriptionData::ObjectDescriptionData__sub_object(Phonon::ObjectDescriptionPrivate*) 0x000118d1   Thumb Code     0  objectdescription.o(.text)
    Phonon::ObjectDescriptionData::ObjectDescriptionData(int, const QHash<QByteArray, QVariant>&) 0x000118e5   Thumb Code    50  objectdescription.o(.text)
    Phonon::ObjectDescriptionData::ObjectDescriptionData__sub_object(int, const QHash<QByteArray, QVariant>&) 0x000118e5   Thumb Code     0  objectdescription.o(.text)
    Phonon::ObjectDescriptionData::fromIndex(Phonon::ObjectDescriptionType, int) 0x00011917   Thumb Code   482  objectdescription.o(.text)
    Phonon::ObjectDescriptionData::~ObjectDescriptionData() 0x00011af9   Thumb Code    54  objectdescription.o(.text)
    Phonon::ObjectDescriptionData::~ObjectDescriptionData__sub_object() 0x00011af9   Thumb Code     0  objectdescription.o(.text)
    Phonon::ObjectDescriptionModelData::rowCount(const QModelIndex&) const 0x00011b55   Thumb Code    28  objectdescriptionmodel.o(.text)
    Phonon::ObjectDescriptionModelData::data(const QModelIndex&, int) const 0x00011b71   Thumb Code   332  objectdescriptionmodel.o(.text)
    Phonon::ObjectDescriptionModelData::flags(const QModelIndex&) const 0x00011cbd   Thumb Code   214  objectdescriptionmodel.o(.text)
    Phonon::ObjectDescriptionModelData::tupleIndexOrder() const 0x00011d93   Thumb Code    68  objectdescriptionmodel.o(.text)
    Phonon::ObjectDescriptionModelData::tupleIndexAtPositionIndex(int) const 0x00011dd7   Thumb Code    26  objectdescriptionmodel.o(.text)
    Phonon::ObjectDescriptionModelData::mimeTypes(Phonon::ObjectDescriptionType) const 0x00011df1   Thumb Code    86  objectdescriptionmodel.o(.text)
    Phonon::ObjectDescriptionModelData::mimeData(Phonon::ObjectDescriptionType, const QList<QModelIndex>&) const 0x00011e47   Thumb Code   258  objectdescriptionmodel.o(.text)
    Phonon::ObjectDescriptionModelData::moveUp(const QModelIndex&) 0x00011f49   Thumb Code   256  objectdescriptionmodel.o(.text)
    Phonon::ObjectDescriptionModelData::moveDown(const QModelIndex&) 0x00012049   Thumb Code   180  objectdescriptionmodel.o(.text)
    Phonon::ObjectDescriptionModelData::setModelData(const QList<QExplicitlySharedDataPointer<Phonon::ObjectDescriptionData>>&) 0x000120fd   Thumb Code    74  objectdescriptionmodel.o(.text)
    Phonon::ObjectDescriptionModelData::modelData() const 0x00012147   Thumb Code    38  objectdescriptionmodel.o(.text)
    Phonon::ObjectDescriptionModelData::modelData(const QModelIndex&) const 0x0001216d   Thumb Code   100  objectdescriptionmodel.o(.text)
    Phonon::ObjectDescriptionModelData::supportedDropActions() const 0x000121d1   Thumb Code    10  objectdescriptionmodel.o(.text)
    Phonon::ObjectDescriptionModelData::dropMimeData(Phonon::ObjectDescriptionType, const QMimeData*, Qt::DropAction, int, int, const QModelIndex&) 0x000121db   Thumb Code   432  objectdescriptionmodel.o(.text)
    Phonon::ObjectDescriptionModelData::removeRows(int, int, const QModelIndex&) 0x0001238b   Thumb Code   122  objectdescriptionmodel.o(.text)
    Phonon::ObjectDescriptionModelData::ObjectDescriptionModelData(QAbstractListModel*) 0x00012405   Thumb Code    48  objectdescriptionmodel.o(.text)
    Phonon::ObjectDescriptionModelData::ObjectDescriptionModelData__sub_object(QAbstractListModel*) 0x00012405   Thumb Code     0  objectdescriptionmodel.o(.text)
    Phonon::ObjectDescriptionModelData::~ObjectDescriptionModelData() 0x00012435   Thumb Code    28  objectdescriptionmodel.o(.text)
    Phonon::ObjectDescriptionModelData::~ObjectDescriptionModelData__sub_object() 0x00012435   Thumb Code     0  objectdescriptionmodel.o(.text)
    Phonon::Path::~Path()                    0x00012451   Thumb Code    14  path.o(.text)
    Phonon::Path::~Path__sub_object()        0x00012451   Thumb Code     0  path.o(.text)
    Phonon::Path::Path()                     0x0001245f   Thumb Code    82  path.o(.text)
    Phonon::Path::Path__sub_object()         0x0001245f   Thumb Code     0  path.o(.text)
    Phonon::Path::Path(const Phonon::Path&)  0x000124b1   Thumb Code    30  path.o(.text)
    Phonon::Path::Path__sub_object(const Phonon::Path&) 0x000124b1   Thumb Code     0  path.o(.text)
    Phonon::Path::isValid() const            0x000124cf   Thumb Code    30  path.o(.text)
    Phonon::PathPrivate::executeTransaction(const QList<QPair<QObject*, QObject*>>&, const QList<QPair<QObject*, QObject*>>&) 0x000124ed   Thumb Code   688  path.o(.text)
    Phonon::Path::insertEffect(Phonon::Effect*, Phonon::Effect*) 0x0001279d   Thumb Code   648  path.o(.text)
    Phonon::Path::insertEffect(const Phonon::ObjectDescription<(Phonon::ObjectDescriptionType)1>&, Phonon::Effect*) 0x00012a25   Thumb Code   158  path.o(.text)
    Phonon::PathPrivate::removeEffect(Phonon::Effect*) 0x00012ac3   Thumb Code   344  path.o(.text)
    Phonon::Path::removeEffect(Phonon::Effect*) 0x00012c1b   Thumb Code    20  path.o(.text)
    Phonon::Path::effects() const            0x00012c2f   Thumb Code    44  path.o(.text)
    Phonon::Path::reconnect(Phonon::MediaNode*, Phonon::MediaNode*) 0x00012c5b   Thumb Code   706  path.o(.text)
    Phonon::Path::disconnect()               0x00012f1d   Thumb Code   610  path.o(.text)
    Phonon::Path::operator =(const Phonon::Path&) 0x0001317f   Thumb Code    70  path.o(.text)
    Phonon::Path::operator ==(const Phonon::Path&) const 0x000131c5   Thumb Code    20  path.o(.text)
    Phonon::Path::operator !=(const Phonon::Path&) const 0x000131d9   Thumb Code    20  path.o(.text)
    Phonon::Path::source() const             0x000131ed   Thumb Code    10  path.o(.text)
    Phonon::Path::sink() const               0x000131f7   Thumb Code    10  path.o(.text)
    Phonon::PathPrivate::~PathPrivate()      0x00013201   Thumb Code    82  path.o(.text)
    Phonon::PathPrivate::~PathPrivate__sub_object() 0x00013201   Thumb Code     0  path.o(.text)
    Phonon::PathPrivate::~PathPrivate__deallocating() 0x00013253   Thumb Code    22  path.o(.text)
    Phonon::PathPrivate::phononObjectDestroyed(Phonon::MediaNodePrivate*) 0x00013269   Thumb Code   448  path.o(.text)
    Phonon::createPath(Phonon::MediaNode*, Phonon::MediaNode*) 0x00013429   Thumb Code   642  path.o(.text)
    Phonon::phononVersion()                  0x00013743   Thumb Code     4  phononnamespace.o(.text)
    Phonon::categoryToString(Phonon::Category) 0x00013747   Thumb Code   150  phononnamespace.o(.text)
    Phonon::Platform::saveVolume(const QString&, float) 0x00013859   Thumb Code    30  platform.o(.text)
    Phonon::Platform::loadVolume(const QString&) 0x00013877   Thumb Code    32  platform.o(.text)
    Phonon::Platform::createMediaStream(const QUrl&, QObject*) 0x00013897   Thumb Code    34  platform.o(.text)
    Phonon::Platform::icon(const QString&, QStyle*) 0x000138b9   Thumb Code   220  platform.o(.text)
    Phonon::Platform::notification(const char*, const QString&, const QStringList&, QObject*, const char*) 0x00013995   Thumb Code    38  platform.o(.text)
    Phonon::Platform::applicationName()      0x000139bb   Thumb Code   118  platform.o(.text)
    Phonon::Platform::deviceAccessListFor(const Phonon::ObjectDescription<(Phonon::ObjectDescriptionType)0>&) 0x00013a31   Thumb Code    46  platform.o(.text)
    Phonon::PulseSupport::getStaticMetaObject() 0x00013add   Thumb Code     4  pulsesupport.o(.text)
    Phonon::PulseSupport::metaObject() const 0x00013ae1   Thumb Code    30  pulsesupport.o(.text)
    Phonon::PulseSupport::qt_metacast(const char*) 0x00013aff   Thumb Code    40  pulsesupport.o(.text)
    Phonon::PulseSupport::usingDevice(QString, int) 0x00013b27   Thumb Code    40  pulsesupport.o(.text)
    Phonon::PulseSupport::objectDescriptionChanged(Phonon::ObjectDescriptionType) 0x00013b4f   Thumb Code    30  pulsesupport.o(.text)
    Phonon::PulseSupport::qt_metacall(QMetaObject::Call, int, void**) 0x00013b6d   Thumb Code   110  pulsesupport.o(.text)
    Phonon::PulseSupport::PulseSupport()     0x00013bdb   Thumb Code    26  pulsesupport.o(.text)
    Phonon::PulseSupport::PulseSupport__sub_object() 0x00013bdb   Thumb Code     0  pulsesupport.o(.text)
    Phonon::PulseSupport::getInstance()      0x00013bf5   Thumb Code    44  pulsesupport.o(.text)
    Phonon::PulseSupport::shutdown()         0x00013c21   Thumb Code    40  pulsesupport.o(.text)
    Phonon::PulseSupport::isActive()         0x00013c49   Thumb Code     6  pulsesupport.o(.text)
    Phonon::PulseSupport::enable(bool)       0x00013c4f   Thumb Code     4  pulsesupport.o(.text)
    Phonon::PulseSupport::objectDescriptionIndexes(Phonon::ObjectDescriptionType) const 0x00013c53   Thumb Code    28  pulsesupport.o(.text)
    Phonon::PulseSupport::objectDescriptionProperties(Phonon::ObjectDescriptionType, int) const 0x00013c6f   Thumb Code    44  pulsesupport.o(.text)
    Phonon::PulseSupport::objectIndexesByCategory(Phonon::ObjectDescriptionType, Phonon::Category) const 0x00013c9b   Thumb Code    34  pulsesupport.o(.text)
    Phonon::PulseSupport::setOutputDevicePriorityForCategory(Phonon::Category, QList<int>) 0x00013cbd   Thumb Code    10  pulsesupport.o(.text)
    Phonon::PulseSupport::setCaptureDevicePriorityForCategory(Phonon::Category, QList<int>) 0x00013cc7   Thumb Code    10  pulsesupport.o(.text)
    Phonon::PulseSupport::setStreamPropList(Phonon::Category, QString) 0x00013cd1   Thumb Code    10  pulsesupport.o(.text)
    Phonon::PulseSupport::emitObjectDescriptionChanged(Phonon::ObjectDescriptionType) 0x00013cdb   Thumb Code    16  pulsesupport.o(.text)
    Phonon::PulseSupport::emitUsingDevice(QString, int) 0x00013ceb   Thumb Code    36  pulsesupport.o(.text)
    Phonon::PulseSupport::setOutputDevice(QString, int) 0x00013d0f   Thumb Code    14  pulsesupport.o(.text)
    Phonon::PulseSupport::setCaptureDevice(QString, int) 0x00013d1d   Thumb Code    14  pulsesupport.o(.text)
    Phonon::PulseSupport::clearStreamCache(QString) 0x00013d2b   Thumb Code     6  pulsesupport.o(.text)
    Phonon::PulseSupport::~PulseSupport()    0x00013d31   Thumb Code    14  pulsesupport.o(.text)
    Phonon::PulseSupport::~PulseSupport__sub_object() 0x00013d31   Thumb Code     0  pulsesupport.o(.text)
    Phonon::PulseSupport::~PulseSupport__deallocating() 0x00013d3f   Thumb Code    22  pulsesupport.o(.text)
    Phonon::SeekSlider::getStaticMetaObject() 0x00013d69   Thumb Code     4  seekslider.o(.text)
    Phonon::SeekSlider::metaObject() const   0x00013d6d   Thumb Code    30  seekslider.o(.text)
    Phonon::SeekSlider::qt_metacast(const char*) 0x00013d8b   Thumb Code    40  seekslider.o(.text)
    Phonon::SeekSlider::setIconSize(const QSize&) 0x00013db3   Thumb Code    84  seekslider.o(.text)
    Phonon::SeekSlider::setOrientation(Qt::Orientation) 0x00013e07   Thumb Code   100  seekslider.o(.text)
    Phonon::SeekSlider::setSingleStep(int)   0x00013e6b   Thumb Code    20  seekslider.o(.text)
    Phonon::SeekSlider::setPageStep(int)     0x00013e7f   Thumb Code    20  seekslider.o(.text)
    Phonon::SeekSlider::setTracking(bool)    0x00013e93   Thumb Code    20  seekslider.o(.text)
    Phonon::SeekSlider::setIconVisible(bool) 0x00013ea7   Thumb Code    26  seekslider.o(.text)
    Phonon::SeekSlider::iconSize() const     0x00013ec1   Thumb Code    12  seekslider.o(.text)
    Phonon::SeekSlider::orientation() const  0x00013ecd   Thumb Code    16  seekslider.o(.text)
    Phonon::SeekSlider::singleStep() const   0x00013edd   Thumb Code    16  seekslider.o(.text)
    Phonon::SeekSlider::pageStep() const     0x00013eed   Thumb Code    16  seekslider.o(.text)
    Phonon::SeekSlider::hasTracking() const  0x00013efd   Thumb Code    16  seekslider.o(.text)
    Phonon::SeekSlider::isIconVisible() const 0x00013f0d   Thumb Code    24  seekslider.o(.text)
    Phonon::SeekSliderPrivate::_k_currentSourceChanged() 0x00013f25   Thumb Code   118  seekslider.o(.text)
    Phonon::SeekSliderPrivate::setEnabled(bool) 0x00013f9b   Thumb Code    56  seekslider.o(.text)
    Phonon::SeekSliderPrivate::_k_seekableChanged(bool) 0x00013fd3   Thumb Code   134  seekslider.o(.text)
    Phonon::SeekSliderPrivate::_k_length(long long) 0x00014059   Thumb Code    32  seekslider.o(.text)
    Phonon::SeekSliderPrivate::_k_tick(long long) 0x00014079   Thumb Code    30  seekslider.o(.text)
    Phonon::SeekSliderPrivate::_k_seek(int)  0x00014097   Thumb Code    40  seekslider.o(.text)
    Phonon::SeekSliderPrivate::_k_stateChanged(Phonon::State) 0x000140bf   Thumb Code   146  seekslider.o(.text)
    Phonon::SeekSlider::setMediaObject(Phonon::MediaObject*) 0x00014151   Thumb Code   312  seekslider.o(.text)
    Phonon::SeekSlider::qt_metacall(QMetaObject::Call, int, void**) 0x00014289   Thumb Code   446  seekslider.o(.text)
    Phonon::SeekSlider::SeekSlider(QWidget*) 0x00014447   Thumb Code   124  seekslider.o(.text)
    Phonon::SeekSlider::SeekSlider__sub_object(QWidget*) 0x00014447   Thumb Code     0  seekslider.o(.text)
    Phonon::SeekSlider::SeekSlider(Phonon::MediaObject*, QWidget*) 0x000144c3   Thumb Code   154  seekslider.o(.text)
    Phonon::SeekSlider::SeekSlider__sub_object(Phonon::MediaObject*, QWidget*) 0x000144c3   Thumb Code     0  seekslider.o(.text)
    Phonon::SeekSlider::~SeekSlider()        0x0001455d   Thumb Code    94  seekslider.o(.text)
    Phonon::SeekSlider::~SeekSlider__sub_object() 0x0001455d   Thumb Code     0  seekslider.o(.text)
    Phonon::SeekSlider::~SeekSlider__deallocating() 0x000145bb   Thumb Code    22  seekslider.o(.text)
    thunk{-8} to Phonon::SeekSlider::~SeekSlider__deallocating() 0x000145d1   Thumb Code    14  seekslider.o(.text)
    thunk{-8} to Phonon::SeekSlider::~SeekSlider() 0x000145df   Thumb Code    14  seekslider.o(.text)
    Phonon::SeekSlider::mediaObject() const  0x000145ed   Thumb Code    16  seekslider.o(.text)
    Phonon::StreamInterface::~StreamInterface() 0x00014601   Thumb Code     0  streaminterface.o(.text)
    Phonon::StreamInterface::~StreamInterface__sub_object() 0x00014601   Thumb Code    74  streaminterface.o(.text)
    Phonon::StreamInterface::~StreamInterface__deallocating() 0x0001464b   Thumb Code    22  streaminterface.o(.text)
    Phonon::StreamInterface::connectToSource(const Phonon::MediaSource&) 0x00014661   Thumb Code   154  streaminterface.o(.text)
    Phonon::StreamInterface::needData()      0x000146fb   Thumb Code    38  streaminterface.o(.text)
    Phonon::StreamInterface::enoughData()    0x00014721   Thumb Code    62  streaminterface.o(.text)
    Phonon::StreamInterface::seekStream(long long) 0x0001475f   Thumb Code    66  streaminterface.o(.text)
    Phonon::StreamInterface::reset()         0x000147a1   Thumb Code    62  streaminterface.o(.text)
    Phonon::StreamInterface::StreamInterface__sub_object() 0x000147df   Thumb Code    58  streaminterface.o(.text)
    Phonon::StreamInterfacePrivate::disconnectMediaStream() 0x00014819   Thumb Code    84  streaminterface.o(.text)
    Phonon::SwiftSlider::getStaticMetaObject() 0x00014915   Thumb Code     4  swiftslider.o(.text)
    Phonon::SwiftSlider::metaObject() const  0x00014919   Thumb Code    30  swiftslider.o(.text)
    Phonon::SwiftSlider::qt_metacast(const char*) 0x00014937   Thumb Code    40  swiftslider.o(.text)
    Phonon::SwiftSlider::qt_metacall(QMetaObject::Call, int, void**) 0x0001495f   Thumb Code    36  swiftslider.o(.text)
    Phonon::SwiftSlider::SwiftSlider(Qt::Orientation, QWidget*) 0x00014983   Thumb Code    32  swiftslider.o(.text)
    Phonon::SwiftSlider::SwiftSlider__sub_object(Qt::Orientation, QWidget*) 0x00014983   Thumb Code     0  swiftslider.o(.text)
    Phonon::SwiftSlider::~SwiftSlider()      0x000149a3   Thumb Code    14  swiftslider.o(.text)
    Phonon::SwiftSlider::~SwiftSlider__sub_object() 0x000149a3   Thumb Code     0  swiftslider.o(.text)
    Phonon::SwiftSlider::~SwiftSlider__deallocating() 0x000149b1   Thumb Code    22  swiftslider.o(.text)
    thunk{-8} to Phonon::SwiftSlider::~SwiftSlider__deallocating() 0x000149c7   Thumb Code    14  swiftslider.o(.text)
    thunk{-8} to Phonon::SwiftSlider::~SwiftSlider() 0x000149d5   Thumb Code    14  swiftslider.o(.text)
    Phonon::SwiftSlider::pixelPosToRangeValue(int) const 0x000149e3   Thumb Code   192  swiftslider.o(.text)
    Phonon::SwiftSlider::mousePressEvent(QMouseEvent*) 0x00014aa3   Thumb Code   300  swiftslider.o(.text)
    Phonon::VideoPlayer::getStaticMetaObject() 0x00014bdd   Thumb Code     4  videoplayer.o(.text)
    Phonon::VideoPlayer::metaObject() const  0x00014be1   Thumb Code    30  videoplayer.o(.text)
    Phonon::VideoPlayer::qt_metacast(const char*) 0x00014bff   Thumb Code    40  videoplayer.o(.text)
    Phonon::VideoPlayer::setVolume(float)    0x00014c27   Thumb Code    18  videoplayer.o(.text)
    Phonon::VideoPlayer::seek(long long)     0x00014c39   Thumb Code    18  videoplayer.o(.text)
    Phonon::VideoPlayer::stop()              0x00014c4b   Thumb Code    14  videoplayer.o(.text)
    Phonon::VideoPlayer::pause()             0x00014c59   Thumb Code    14  videoplayer.o(.text)
    Phonon::VideoPlayer::play()              0x00014c67   Thumb Code    14  videoplayer.o(.text)
    Phonon::VideoPlayer::isPlaying() const   0x00014c75   Thumb Code    24  videoplayer.o(.text)
    Phonon::VideoPlayer::play(const Phonon::MediaSource&) 0x00014c8d   Thumb Code    90  videoplayer.o(.text)
    Phonon::VideoPlayer::load(const Phonon::MediaSource&) 0x00014ce7   Thumb Code    18  videoplayer.o(.text)
    Phonon::VideoPlayer::finished()          0x00014cf9   Thumb Code    18  videoplayer.o(.text)
    Phonon::VideoPlayer::qt_metacall(QMetaObject::Call, int, void**) 0x00014d0b   Thumb Code   140  videoplayer.o(.text)
    Phonon::VideoPlayerPrivate::init(Phonon::VideoPlayer*, Phonon::Category) 0x00014d97   Thumb Code   320  videoplayer.o(.text)
    Phonon::VideoPlayer::VideoPlayer(Phonon::Category, QWidget*) 0x00014ed7   Thumb Code    80  videoplayer.o(.text)
    Phonon::VideoPlayer::VideoPlayer__sub_object(Phonon::Category, QWidget*) 0x00014ed7   Thumb Code     0  videoplayer.o(.text)
    Phonon::VideoPlayer::VideoPlayer(QWidget*) 0x00014f27   Thumb Code    78  videoplayer.o(.text)
    Phonon::VideoPlayer::VideoPlayer__sub_object(QWidget*) 0x00014f27   Thumb Code     0  videoplayer.o(.text)
    Phonon::VideoPlayer::~VideoPlayer()      0x00014f75   Thumb Code    60  videoplayer.o(.text)
    Phonon::VideoPlayer::~VideoPlayer__sub_object() 0x00014f75   Thumb Code     0  videoplayer.o(.text)
    Phonon::VideoPlayer::~VideoPlayer__deallocating() 0x00014fb1   Thumb Code    22  videoplayer.o(.text)
    thunk{-8} to Phonon::VideoPlayer::~VideoPlayer__deallocating() 0x00014fc7   Thumb Code    14  videoplayer.o(.text)
    thunk{-8} to Phonon::VideoPlayer::~VideoPlayer() 0x00014fd5   Thumb Code    14  videoplayer.o(.text)
    Phonon::VideoPlayer::totalTime() const   0x00014fe3   Thumb Code    18  videoplayer.o(.text)
    Phonon::VideoPlayer::currentTime() const 0x00014ff5   Thumb Code    18  videoplayer.o(.text)
    Phonon::VideoPlayer::volume() const      0x00015007   Thumb Code    14  videoplayer.o(.text)
    Phonon::VideoPlayer::isPaused() const    0x00015015   Thumb Code    24  videoplayer.o(.text)
    Phonon::VideoPlayer::mediaObject() const 0x0001502d   Thumb Code     8  videoplayer.o(.text)
    Phonon::VideoPlayer::audioOutput() const 0x00015035   Thumb Code     8  videoplayer.o(.text)
    Phonon::VideoPlayer::videoWidget() const 0x0001503d   Thumb Code     8  videoplayer.o(.text)
    Phonon::VideoWidget::getStaticMetaObject() 0x00015045   Thumb Code     4  videowidget.o(.text)
    Phonon::VideoWidget::metaObject() const  0x00015049   Thumb Code    30  videowidget.o(.text)
    Phonon::VideoWidget::qt_metacast(const char*) 0x00015067   Thumb Code    58  videowidget.o(.text)
    Phonon::VideoWidget::setSaturation(float) 0x000150a1   Thumb Code    46  videowidget.o(.text)
    Phonon::VideoWidget::setHue(float)       0x000150cf   Thumb Code    46  videowidget.o(.text)
    Phonon::VideoWidget::setContrast(float)  0x000150fd   Thumb Code    46  videowidget.o(.text)
    Phonon::VideoWidget::setBrightness(float) 0x0001512b   Thumb Code    46  videowidget.o(.text)
    Phonon::VideoWidget::setScaleMode(Phonon::VideoWidget::ScaleMode) 0x00015159   Thumb Code    46  videowidget.o(.text)
    Phonon::VideoWidget::setAspectRatio(Phonon::VideoWidget::AspectRatio) 0x00015187   Thumb Code    46  videowidget.o(.text)
    Phonon::VideoWidget::setFullScreen(bool) 0x000151b5   Thumb Code   436  videowidget.o(.text)
    Phonon::VideoWidget::saturation() const  0x00015369   Thumb Code    38  videowidget.o(.text)
    Phonon::VideoWidget::hue() const         0x0001538f   Thumb Code    38  videowidget.o(.text)
    Phonon::VideoWidget::contrast() const    0x000153b5   Thumb Code    38  videowidget.o(.text)
    Phonon::VideoWidget::brightness() const  0x000153db   Thumb Code   110  videowidget.o(.text)
    Phonon::VideoWidget::scaleMode() const   0x00015449   Thumb Code    38  videowidget.o(.text)
    Phonon::VideoWidget::aspectRatio() const 0x0001546f   Thumb Code    38  videowidget.o(.text)
    Phonon::VideoWidget::enterFullScreen()   0x00015495   Thumb Code    14  videowidget.o(.text)
    Phonon::VideoWidget::exitFullScreen()    0x000154a3   Thumb Code    14  videowidget.o(.text)
    Phonon::VideoWidget::qt_metacall(QMetaObject::Call, int, void**) 0x000154b1   Thumb Code   410  videowidget.o(.text)
    Phonon::VideoWidgetPrivate::init()       0x0001564b   Thumb Code   102  videowidget.o(.text)
    Phonon::VideoWidget::VideoWidget(QWidget*) 0x000156b1   Thumb Code   194  videowidget.o(.text)
    Phonon::VideoWidget::VideoWidget__sub_object(QWidget*) 0x000156b1   Thumb Code     0  videowidget.o(.text)
    Phonon::VideoWidget::snapshot() const    0x00015773   Thumb Code    90  videowidget.o(.text)
    Phonon::VideoWidget::VideoWidget(Phonon::VideoWidgetPrivate&, QWidget*) 0x000157cd   Thumb Code    82  videowidget.o(.text)
    Phonon::VideoWidget::VideoWidget__sub_object(Phonon::VideoWidgetPrivate&, QWidget*) 0x000157cd   Thumb Code     0  videowidget.o(.text)
    Phonon::VideoWidget::mouseMoveEvent(QMouseEvent*) 0x0001581f   Thumb Code    16  videowidget.o(.text)
    Phonon::VideoWidget::event(QEvent*)      0x0001582f   Thumb Code    16  videowidget.o(.text)
    Phonon::VideoWidgetPrivate::aboutToDeleteBackendObject() 0x0001583f   Thumb Code    48  videowidget.o(.text)
    Phonon::VideoWidgetPrivate::setupBackendObject() 0x0001586f   Thumb Code   230  videowidget.o(.text)
    Phonon::VideoWidgetPrivate::createBackendObject() 0x00015955   Thumb Code    42  videowidget.o(.text)
    Phonon::VolumeFaderEffect::getStaticMetaObject() 0x00015a41   Thumb Code     4  volumefadereffect.o(.text)
    Phonon::VolumeFaderEffect::metaObject() const 0x00015a45   Thumb Code    30  volumefadereffect.o(.text)
    Phonon::VolumeFaderEffect::qt_metacast(const char*) 0x00015a63   Thumb Code    40  volumefadereffect.o(.text)
    Phonon::VolumeFaderEffect::setFadeCurve(Phonon::VolumeFaderEffect::FadeCurve) 0x00015a8b   Thumb Code    46  volumefadereffect.o(.text)
    Phonon::VolumeFaderEffect::setVolume(float) 0x00015ab9   Thumb Code    46  volumefadereffect.o(.text)
    Phonon::VolumeFaderEffect::setVolumeDecibel(double) 0x00015ae7   Thumb Code    48  volumefadereffect.o(.text)
    Phonon::VolumeFaderEffect::fadeCurve() const 0x00015b17   Thumb Code    38  volumefadereffect.o(.text)
    Phonon::VolumeFaderEffect::volume() const 0x00015b3d   Thumb Code    38  volumefadereffect.o(.text)
    Phonon::VolumeFaderEffect::volumeDecibel() const 0x00015b63   Thumb Code    46  volumefadereffect.o(.text)
    Phonon::VolumeFaderEffect::fadeTo(float, int) 0x00015b91   Thumb Code    52  volumefadereffect.o(.text)
    Phonon::VolumeFaderEffect::fadeOut(int)  0x00015bc5   Thumb Code    18  volumefadereffect.o(.text)
    Phonon::VolumeFaderEffect::fadeIn(int)   0x00015bd7   Thumb Code    20  volumefadereffect.o(.text)
    Phonon::VolumeFaderEffect::qt_metacall(QMetaObject::Call, int, void**) 0x00015beb   Thumb Code   304  volumefadereffect.o(.text)
    Phonon::VolumeFaderEffect::VolumeFaderEffect(QObject*) 0x00015d1b   Thumb Code    76  volumefadereffect.o(.text)
    Phonon::VolumeFaderEffect::VolumeFaderEffect__sub_object(QObject*) 0x00015d1b   Thumb Code     0  volumefadereffect.o(.text)
    Phonon::VolumeFaderEffectPrivate::aboutToDeleteBackendObject() 0x00015d67   Thumb Code    52  volumefadereffect.o(.text)
    Phonon::VolumeFaderEffectPrivate::setupBackendObject() 0x00015d9b   Thumb Code    64  volumefadereffect.o(.text)
    Phonon::VolumeFaderEffectPrivate::createBackendObject() 0x00015ddb   Thumb Code   158  volumefadereffect.o(.text)
    Phonon::VolumeSlider::getStaticMetaObject() 0x00015e79   Thumb Code     4  volumeslider.o(.text)
    Phonon::VolumeSlider::metaObject() const 0x00015e7d   Thumb Code    30  volumeslider.o(.text)
    Phonon::VolumeSlider::qt_metacast(const char*) 0x00015e9b   Thumb Code    40  volumeslider.o(.text)
    Phonon::VolumeSlider::setIconSize(const QSize&) 0x00015ec3   Thumb Code   166  volumeslider.o(.text)
    Phonon::VolumeSlider::setMuteVisible(bool) 0x00015f69   Thumb Code    22  volumeslider.o(.text)
    Phonon::VolumeSlider::setSingleStep(int) 0x00015f7f   Thumb Code    20  volumeslider.o(.text)
    Phonon::VolumeSlider::setPageStep(int)   0x00015f93   Thumb Code    20  volumeslider.o(.text)
    Phonon::VolumeSlider::setTracking(bool)  0x00015fa7   Thumb Code    20  volumeslider.o(.text)
    Phonon::VolumeSlider::setOrientation(Qt::Orientation) 0x00015fbb   Thumb Code   100  volumeslider.o(.text)
    Phonon::VolumeSlider::setMaximumVolume(float) 0x0001601f   Thumb Code   112  volumeslider.o(.text)
    Phonon::VolumeSlider::iconSize() const   0x0001608f   Thumb Code    20  volumeslider.o(.text)
    Phonon::VolumeSlider::isMuteVisible() const 0x000160a3   Thumb Code    58  volumeslider.o(.text)
    Phonon::VolumeSlider::singleStep() const 0x000160dd   Thumb Code    16  volumeslider.o(.text)
    Phonon::VolumeSlider::pageStep() const   0x000160ed   Thumb Code    16  volumeslider.o(.text)
    Phonon::VolumeSlider::hasTracking() const 0x000160fd   Thumb Code    16  volumeslider.o(.text)
    Phonon::VolumeSlider::orientation() const 0x0001610d   Thumb Code    16  volumeslider.o(.text)
    Phonon::VolumeSlider::maximumVolume() const 0x0001611d   Thumb Code    46  volumeslider.o(.text)
    Phonon::VolumeSliderPrivate::_k_buttonClicked() 0x0001614b   Thumb Code    62  volumeslider.o(.text)
    Phonon::VolumeSliderPrivate::_k_mutedChanged(bool) 0x00016189   Thumb Code   252  volumeslider.o(.text)
    Phonon::VolumeSliderPrivate::_k_volumeChanged(float) 0x00016285   Thumb Code    42  volumeslider.o(.text)
    Phonon::VolumeSliderPrivate::_k_sliderChanged(int) 0x000162af   Thumb Code   192  volumeslider.o(.text)
    Phonon::VolumeSlider::setAudioOutput(Phonon::AudioOutput*) 0x0001636f   Thumb Code   242  volumeslider.o(.text)
    Phonon::VolumeSlider::qt_metacall(QMetaObject::Call, int, void**) 0x00016461   Thumb Code   420  volumeslider.o(.text)
    Phonon::VolumeSlider::VolumeSlider(QWidget*) 0x00016605   Thumb Code   340  volumeslider.o(.text)
    Phonon::VolumeSlider::VolumeSlider__sub_object(QWidget*) 0x00016605   Thumb Code     0  volumeslider.o(.text)
    Phonon::VolumeSlider::VolumeSlider(Phonon::AudioOutput*, QWidget*) 0x00016759   Thumb Code   450  volumeslider.o(.text)
    Phonon::VolumeSlider::VolumeSlider__sub_object(Phonon::AudioOutput*, QWidget*) 0x00016759   Thumb Code     0  volumeslider.o(.text)
    Phonon::VolumeSlider::~VolumeSlider()    0x0001691b   Thumb Code   106  volumeslider.o(.text)
    Phonon::VolumeSlider::~VolumeSlider__sub_object() 0x0001691b   Thumb Code     0  volumeslider.o(.text)
    Phonon::VolumeSlider::~VolumeSlider__deallocating() 0x00016985   Thumb Code    22  volumeslider.o(.text)
    thunk{-8} to Phonon::VolumeSlider::~VolumeSlider__deallocating() 0x0001699b   Thumb Code    14  volumeslider.o(.text)
    thunk{-8} to Phonon::VolumeSlider::~VolumeSlider() 0x000169a9   Thumb Code    14  volumeslider.o(.text)
    Phonon::VolumeSlider::audioOutput() const 0x000169b7   Thumb Code    16  volumeslider.o(.text)
    Phonon::AudioDataOutput::getStaticMetaObject() 0x000169e5   Thumb Code     4  moc_audiodataoutput.o(.text)
    Phonon::AudioDataOutput::metaObject() const 0x000169e9   Thumb Code    30  moc_audiodataoutput.o(.text)
    Phonon::AudioDataOutput::qt_metacast(const char*) 0x00016a07   Thumb Code    40  moc_audiodataoutput.o(.text)
    Phonon::AudioDataOutput::endOfMedia(int) 0x00016a2f   Thumb Code    32  moc_audiodataoutput.o(.text)
    Phonon::AudioDataOutput::dataReady(const QMap<Phonon::AudioDataOutput::Channel, QVector<short>>&) 0x00016a4f   Thumb Code    30  moc_audiodataoutput.o(.text)
    Phonon::AudioDataOutput::qt_metacall(QMetaObject::Call, int, void**) 0x00016a6d   Thumb Code   196  moc_audiodataoutput.o(.text)
    __ARM_switch8                            0x00016b38   ARM Code      24  switch8.o(.text)
    __rt_switch8                             0x00016b38   ARM Code       0  switch8.o(.text)
    _E32Dll_Body                             0x00016b50   ARM Code      76  uc_dll.o(.text)
    __aeabi_atexit                           0x00016ba0   ARM Code      40  ucppfini.o(.text)
    __cxa_atexit                             0x00016bc8   ARM Code      64  ucppfini.o(.text)
    __cxa_finalize                           0x00016c08   ARM Code      48  ucppfini.o(.text)
    run_static_dtors                         0x00016c38   ARM Code      16  ucppfini.o(.text)
    __DLL_Export_Table__                     0x00016c54   ARM Code       4  dllexp.o(.text)
    qvariant_cast_helper(const QVariant&, QVariant::Type, void*) 0x00018039   Thumb Code    26  globalconfig.o(i._Z20qvariant_cast_helperRK8QVariantNS_4TypeEPv)
    pow(float, float)                        0x00018059   Thumb Code    16  audiooutput.o(i._Z3powff)
    qDebug()                                 0x00018069   Thumb Code    92  audiooutput.o(i._Z6qDebugv)
    qRound(float)                            0x000180dd   Thumb Code   140  volumeslider.o(i._Z6qRoundf)
    QByteArray::QByteArray(const QByteArray&) 0x00018179   Thumb Code    20  globalconfig.o(i._ZN10QByteArrayC1ERKS_)
    QByteArray::QByteArray__sub_object(const QByteArray&) 0x00018179   Thumb Code     0  globalconfig.o(i._ZN10QByteArrayC1ERKS_)
    QByteArray::~QByteArray()                0x0001818d   Thumb Code    24  audiooutput.o(i._ZN10QByteArrayD1Ev)
    QByteArray::~QByteArray__sub_object()    0x0001818d   Thumb Code     0  audiooutput.o(i._ZN10QByteArrayD1Ev)
    QMetaObject::invokeMethod(QObject*, const char*, Qt::ConnectionType, QGenericArgument, QGenericArgument, QGenericArgument, QGenericArgument, QGenericArgument, QGenericArgument, QGenericArgument, QGenericArgument, QGenericArgument, QGenericArgument) 0x000181a5   Thumb Code   130  audiodataoutput.o(i._ZN11QMetaObject12invokeMethodEP7QObjectPKcN2Qt14ConnectionTypeE16QGenericArgumentS6_S6_S6_S6_S6_S6_S6_S6_S6_)
    QModelIndex::QModelIndex(const QModelIndex&) 0x00018227   Thumb Code    18  objectdescriptionmodel.o(i._ZN11QModelIndexC1ERKS_)
    QModelIndex::QModelIndex__sub_object(const QModelIndex&) 0x00018227   Thumb Code     0  objectdescriptionmodel.o(i._ZN11QModelIndexC1ERKS_)
    QModelIndex::QModelIndex()               0x00018239   Thumb Code    16  objectdescriptionmodel.o(i._ZN11QModelIndexC1Ev)
    QModelIndex::QModelIndex__sub_object()   0x00018239   Thumb Code     0  objectdescriptionmodel.o(i._ZN11QModelIndexC1Ev)
    QModelIndex::~QModelIndex()              0x00018249   Thumb Code     8  objectdescriptionmodel.o(i._ZN11QModelIndexD1Ev)
    QModelIndex::~QModelIndex__sub_object()  0x00018249   Thumb Code     0  objectdescriptionmodel.o(i._ZN11QModelIndexD1Ev)
    QStringList::QStringList(const QString&) 0x00018251   Thumb Code    26  audiooutput.o(i._ZN11QStringListC1ERK7QString)
    QStringList::QStringList__sub_object(const QString&) 0x00018251   Thumb Code     0  audiooutput.o(i._ZN11QStringListC1ERK7QString)
    QStringList::QStringList()               0x00018275   Thumb Code    14  audiooutput.o(i._ZN11QStringListC1Ev)
    QStringList::QStringList__sub_object()   0x00018275   Thumb Code     0  audiooutput.o(i._ZN11QStringListC1Ev)
    QStringList::~QStringList()              0x00018283   Thumb Code    14  audiooutput.o(i._ZN11QStringListD1Ev)
    QStringList::~QStringList__sub_object()  0x00018283   Thumb Code     0  audiooutput.o(i._ZN11QStringListD1Ev)
    QConcatenable<QString>::appendTo(const QString&, QChar*&) 0x00018291   Thumb Code    42  factory.o(i._ZN13QConcatenableI7QStringE8appendToERKS0_RP5QChar)
    QBasicAtomicInt::ref()                   0x000182bb   Thumb Code    24  audiodataoutput.o(i._ZN15QBasicAtomicInt3refEv)
    QBasicAtomicInt::deref()                 0x000182d3   Thumb Code    24  audiodataoutput.o(i._ZN15QBasicAtomicInt5derefEv)
    QtSharedPointer::ExternalRefCountData::destroy() 0x000182eb   Thumb Code     6  effectwidget.o(i._ZN15QtSharedPointer20ExternalRefCountData7destroyEv)
    QtSharedPointer::ExternalRefCountData::~ExternalRefCountData__deallocating() 0x000182f1   Thumb Code    22  effectwidget.o(i._ZN15QtSharedPointer20ExternalRefCountDataD0Ev)
    QtSharedPointer::ExternalRefCountData::~ExternalRefCountData() 0x00018309   Thumb Code    70  effectwidget.o(i._ZN15QtSharedPointer20ExternalRefCountDataD1Ev)
    QtSharedPointer::ExternalRefCountData::~ExternalRefCountData__sub_object() 0x00018309   Thumb Code     0  effectwidget.o(i._ZN15QtSharedPointer20ExternalRefCountDataD1Ev)
    QForeachContainer<QList<int>>::~QForeachContainer() 0x00018375   Thumb Code    14  globalconfig.o(i._ZN17QForeachContainerI5QListIiEED1Ev)
    QForeachContainer<QList<int>>::~QForeachContainer__sub_object() 0x00018375   Thumb Code     0  globalconfig.o(i._ZN17QForeachContainerI5QListIiEED1Ev)
    QStyleOptionSlider::~QStyleOptionSlider() 0x00018383   Thumb Code    16  swiftslider.o(i._ZN18QStyleOptionSliderD1Ev)
    QStyleOptionSlider::~QStyleOptionSlider__sub_object() 0x00018383   Thumb Code     0  swiftslider.o(i._ZN18QStyleOptionSliderD1Ev)
    QSet<QObject*>::~QSet()                  0x00018393   Thumb Code    14  path.o(i._ZN4QSetIP7QObjectED1Ev)
    QSet<QObject*>::~QSet__sub_object()      0x00018393   Thumb Code     0  path.o(i._ZN4QSetIP7QObjectED1Ev)
    QSet<int>::~QSet()                       0x000183a1   Thumb Code    14  globalconfig.o(i._ZN4QSetIiED1Ev)
    QSet<int>::~QSet__sub_object()           0x000183a1   Thumb Code     0  globalconfig.o(i._ZN4QSetIiED1Ev)
    QPair<QObject*, QObject*>::QPair(const QPair<QObject*, QObject*>&) 0x000183af   Thumb Code    10  path.o(i._ZN5QPairIP7QObjectS1_EC1ERKS2_)
    QPair<QObject*, QObject*>::QPair__sub_object(const QPair<QObject*, QObject*>&) 0x000183af   Thumb Code     0  path.o(i._ZN5QPairIP7QObjectS1_EC1ERKS2_)
    Phonon::AudioOutput::tr(const char*, const char*) 0x000183b9   Thumb Code    22  audiooutput.o(i._ZN6Phonon11AudioOutput2trEPKcS2_)
    Phonon::AudioOutput::~AudioOutput__deallocating() 0x000183d5   Thumb Code    24  audiooutput.o(i._ZN6Phonon11AudioOutputD0Ev)
    Phonon::AudioOutput::~AudioOutput()      0x000183ed   Thumb Code    14  audiooutput.o(i._ZN6Phonon11AudioOutputD1Ev)
    Phonon::AudioOutput::~AudioOutput__sub_object() 0x000183ed   Thumb Code     0  audiooutput.o(i._ZN6Phonon11AudioOutputD1Ev)
    Phonon::VideoWidget::~VideoWidget__deallocating() 0x000183fb   Thumb Code    22  videowidget.o(i._ZN6Phonon11VideoWidgetD0Ev)
    Phonon::VideoWidget::~VideoWidget()      0x00018411   Thumb Code    26  videowidget.o(i._ZN6Phonon11VideoWidgetD1Ev)
    Phonon::VideoWidget::~VideoWidget__sub_object() 0x00018411   Thumb Code     0  videowidget.o(i._ZN6Phonon11VideoWidgetD1Ev)
    Phonon::VolumeSlider::tr(const char*, const char*) 0x00018435   Thumb Code    22  volumeslider.o(i._ZN6Phonon12VolumeSlider2trEPKcS2_)
    Phonon::EffectPrivate::q_func()          0x00018451   Thumb Code    18  effect.o(i._ZN6Phonon13EffectPrivate6q_funcEv)
    Phonon::EffectPrivate::qObject()         0x00018463   Thumb Code    20  volumefadereffect.o(i._ZN6Phonon13EffectPrivate7qObjectEv)
    Phonon::EffectPrivate::EffectPrivate()   0x00018479   Thumb Code    90  effect.o(i._ZN6Phonon13EffectPrivateC1Ev)
    Phonon::EffectPrivate::EffectPrivate__sub_object() 0x00018479   Thumb Code     0  effect.o(i._ZN6Phonon13EffectPrivateC1Ev)
    Phonon::EffectPrivate::~EffectPrivate__deallocating() 0x00018501   Thumb Code    22  effect.o(i._ZN6Phonon13EffectPrivateD0Ev)
    Phonon::EffectPrivate::~EffectPrivate()  0x00018519   Thumb Code    44  effect.o(i._ZN6Phonon13EffectPrivateD1Ev)
    Phonon::EffectPrivate::~EffectPrivate__sub_object() 0x00018519   Thumb Code     0  effect.o(i._ZN6Phonon13EffectPrivateD1Ev)
    Phonon::QSettingsGroup::removeEntry(const QString&) 0x00018561   Thumb Code    64  globalconfig.o(i._ZN6Phonon14QSettingsGroup11removeEntryERK7QString)
    Phonon::QSettingsGroup::QSettingsGroup(QSettings*, const QString&) 0x000185fb   Thumb Code    68  globalconfig.o(i._ZN6Phonon14QSettingsGroupC1EP9QSettingsRK7QString)
    Phonon::QSettingsGroup::QSettingsGroup__sub_object(QSettings*, const QString&) 0x000185fb   Thumb Code     0  globalconfig.o(i._ZN6Phonon14QSettingsGroupC1EP9QSettingsRK7QString)
    Phonon::QSettingsGroup::QSettingsGroup(const QSettings*, const QString&) 0x00018649   Thumb Code    70  globalconfig.o(i._ZN6Phonon14QSettingsGroupC1EPK9QSettingsRK7QString)
    Phonon::QSettingsGroup::QSettingsGroup__sub_object(const QSettings*, const QString&) 0x00018649   Thumb Code     0  globalconfig.o(i._ZN6Phonon14QSettingsGroupC1EPK9QSettingsRK7QString)
    Phonon::QSettingsGroup::~QSettingsGroup() 0x00018699   Thumb Code    20  globalconfig.o(i._ZN6Phonon14QSettingsGroupD1Ev)
    Phonon::QSettingsGroup::~QSettingsGroup__sub_object() 0x00018699   Thumb Code     0  globalconfig.o(i._ZN6Phonon14QSettingsGroupD1Ev)
    Phonon::AudioDataOutput::~AudioDataOutput__deallocating() 0x000186ad   Thumb Code    24  moc_audiodataoutput.o(i._ZN6Phonon15AudioDataOutputD0Ev)
    Phonon::AudioDataOutput::~AudioDataOutput() 0x000186c5   Thumb Code    14  moc_audiodataoutput.o(i._ZN6Phonon15AudioDataOutputD1Ev)
    Phonon::AudioDataOutput::~AudioDataOutput__sub_object() 0x000186c5   Thumb Code     0  moc_audiodataoutput.o(i._ZN6Phonon15AudioDataOutputD1Ev)
    Phonon::MediaNodePrivate::qObject()      0x000186d3   Thumb Code     6  abstractvideooutput_p.o(i._ZN6Phonon16MediaNodePrivate7qObjectEv)
    Phonon::ObjectDescription<(Phonon::ObjectDescriptionType)0>::ObjectDescription(const Phonon::ObjectDescription<(Phonon::ObjectDescriptionType)0>&) 0x000186d9   Thumb Code    18  backendcapabilities.o(i._ZN6Phonon17ObjectDescriptionILNS_21ObjectDescriptionTypeE0EEC1ERKS2_)
    Phonon::ObjectDescription<(Phonon::ObjectDescriptionType)0>::ObjectDescription__sub_object(const Phonon::ObjectDescription<(Phonon::ObjectDescriptionType)0>&) 0x000186d9   Thumb Code     0  backendcapabilities.o(i._ZN6Phonon17ObjectDescriptionILNS_21ObjectDescriptionTypeE0EEC1ERKS2_)
    Phonon::ObjectDescription<(Phonon::ObjectDescriptionType)0>::~ObjectDescription() 0x000186eb   Thumb Code    14  audiooutput.o(i._ZN6Phonon17ObjectDescriptionILNS_21ObjectDescriptionTypeE0EED1Ev)
    Phonon::ObjectDescription<(Phonon::ObjectDescriptionType)0>::~ObjectDescription__sub_object() 0x000186eb   Thumb Code     0  audiooutput.o(i._ZN6Phonon17ObjectDescriptionILNS_21ObjectDescriptionTypeE0EED1Ev)
    Phonon::ObjectDescription<(Phonon::ObjectDescriptionType)0>::operator =(const Phonon::ObjectDescription<(Phonon::ObjectDescriptionType)0>&) 0x000186f9   Thumb Code    70  audiooutput.o(i._ZN6Phonon17ObjectDescriptionILNS_21ObjectDescriptionTypeE0EEaSERKS2_)
    Phonon::ObjectDescription<(Phonon::ObjectDescriptionType)1>::ObjectDescription(const Phonon::ObjectDescription<(Phonon::ObjectDescriptionType)1>&) 0x0001873f   Thumb Code    18  backendcapabilities.o(i._ZN6Phonon17ObjectDescriptionILNS_21ObjectDescriptionTypeE1EEC1ERKS2_)
    Phonon::ObjectDescription<(Phonon::ObjectDescriptionType)1>::ObjectDescription__sub_object(const Phonon::ObjectDescription<(Phonon::ObjectDescriptionType)1>&) 0x0001873f   Thumb Code     0  backendcapabilities.o(i._ZN6Phonon17ObjectDescriptionILNS_21ObjectDescriptionTypeE1EEC1ERKS2_)
    Phonon::ObjectDescription<(Phonon::ObjectDescriptionType)1>::~ObjectDescription() 0x00018751   Thumb Code    14  backendcapabilities.o(i._ZN6Phonon17ObjectDescriptionILNS_21ObjectDescriptionTypeE1EED1Ev)
    Phonon::ObjectDescription<(Phonon::ObjectDescriptionType)1>::~ObjectDescription__sub_object() 0x00018751   Thumb Code     0  backendcapabilities.o(i._ZN6Phonon17ObjectDescriptionILNS_21ObjectDescriptionTypeE1EED1Ev)
    Phonon::ObjectDescription<(Phonon::ObjectDescriptionType)2>::ObjectDescription(const Phonon::ObjectDescription<(Phonon::ObjectDescriptionType)2>&) 0x0001875f   Thumb Code    18  mediacontroller.o(i._ZN6Phonon17ObjectDescriptionILNS_21ObjectDescriptionTypeE2EEC1ERKS2_)
    Phonon::ObjectDescription<(Phonon::ObjectDescriptionType)2>::ObjectDescription__sub_object(const Phonon::ObjectDescription<(Phonon::ObjectDescriptionType)2>&) 0x0001875f   Thumb Code     0  mediacontroller.o(i._ZN6Phonon17ObjectDescriptionILNS_21ObjectDescriptionTypeE2EEC1ERKS2_)
    Phonon::ObjectDescription<(Phonon::ObjectDescriptionType)2>::~ObjectDescription() 0x00018771   Thumb Code    14  mediacontroller.o(i._ZN6Phonon17ObjectDescriptionILNS_21ObjectDescriptionTypeE2EED1Ev)
    Phonon::ObjectDescription<(Phonon::ObjectDescriptionType)2>::~ObjectDescription__sub_object() 0x00018771   Thumb Code     0  mediacontroller.o(i._ZN6Phonon17ObjectDescriptionILNS_21ObjectDescriptionTypeE2EED1Ev)
    Phonon::ObjectDescription<(Phonon::ObjectDescriptionType)3>::ObjectDescription(const Phonon::ObjectDescription<(Phonon::ObjectDescriptionType)3>&) 0x0001877f   Thumb Code    18  mediacontroller.o(i._ZN6Phonon17ObjectDescriptionILNS_21ObjectDescriptionTypeE3EEC1ERKS2_)
    Phonon::ObjectDescription<(Phonon::ObjectDescriptionType)3>::ObjectDescription__sub_object(const Phonon::ObjectDescription<(Phonon::ObjectDescriptionType)3>&) 0x0001877f   Thumb Code     0  mediacontroller.o(i._ZN6Phonon17ObjectDescriptionILNS_21ObjectDescriptionTypeE3EEC1ERKS2_)
    Phonon::ObjectDescription<(Phonon::ObjectDescriptionType)3>::~ObjectDescription() 0x00018791   Thumb Code    14  mediacontroller.o(i._ZN6Phonon17ObjectDescriptionILNS_21ObjectDescriptionTypeE3EED1Ev)
    Phonon::ObjectDescription<(Phonon::ObjectDescriptionType)3>::~ObjectDescription__sub_object() 0x00018791   Thumb Code     0  mediacontroller.o(i._ZN6Phonon17ObjectDescriptionILNS_21ObjectDescriptionTypeE3EED1Ev)
    Phonon::ObjectDescription<(Phonon::ObjectDescriptionType)4>::ObjectDescription(const Phonon::ObjectDescription<(Phonon::ObjectDescriptionType)4>&) 0x0001879f   Thumb Code    18  backendcapabilities.o(i._ZN6Phonon17ObjectDescriptionILNS_21ObjectDescriptionTypeE4EEC1ERKS2_)
    Phonon::ObjectDescription<(Phonon::ObjectDescriptionType)4>::ObjectDescription__sub_object(const Phonon::ObjectDescription<(Phonon::ObjectDescriptionType)4>&) 0x0001879f   Thumb Code     0  backendcapabilities.o(i._ZN6Phonon17ObjectDescriptionILNS_21ObjectDescriptionTypeE4EEC1ERKS2_)
    Phonon::ObjectDescription<(Phonon::ObjectDescriptionType)4>::~ObjectDescription() 0x000187b1   Thumb Code    14  backendcapabilities.o(i._ZN6Phonon17ObjectDescriptionILNS_21ObjectDescriptionTypeE4EED1Ev)
    Phonon::ObjectDescription<(Phonon::ObjectDescriptionType)4>::~ObjectDescription__sub_object() 0x000187b1   Thumb Code     0  backendcapabilities.o(i._ZN6Phonon17ObjectDescriptionILNS_21ObjectDescriptionTypeE4EED1Ev)
    Phonon::SeekSliderPrivate::SeekSliderPrivate(Phonon::SeekSlider*) 0x000187c1   Thumb Code   378  seekslider.o(i._ZN6Phonon17SeekSliderPrivateC1EPNS_10SeekSliderE)
    Phonon::SeekSliderPrivate::SeekSliderPrivate__sub_object(Phonon::SeekSlider*) 0x000187c1   Thumb Code     0  seekslider.o(i._ZN6Phonon17SeekSliderPrivateC1EPNS_10SeekSliderE)
    Phonon::VolumeFaderEffect::~VolumeFaderEffect__deallocating() 0x00018997   Thumb Code    24  volumefadereffect.o(i._ZN6Phonon17VolumeFaderEffectD0Ev)
    Phonon::VolumeFaderEffect::~VolumeFaderEffect() 0x000189af   Thumb Code    14  volumefadereffect.o(i._ZN6Phonon17VolumeFaderEffectD1Ev)
    Phonon::VolumeFaderEffect::~VolumeFaderEffect__sub_object() 0x000189af   Thumb Code     0  volumefadereffect.o(i._ZN6Phonon17VolumeFaderEffectD1Ev)
    Phonon::AudioOutputPrivate::q_func()     0x000189bd   Thumb Code    18  audiooutput.o(i._ZN6Phonon18AudioOutputPrivate6q_funcEv)
    Phonon::AudioOutputPrivate::AudioOutputPrivate(Phonon::MediaNodePrivate::CastId) 0x000189d1   Thumb Code   112  audiooutput.o(i._ZN6Phonon18AudioOutputPrivateC1ENS_16MediaNodePrivate6CastIdE)
    Phonon::AudioOutputPrivate::AudioOutputPrivate__sub_object(Phonon::MediaNodePrivate::CastId) 0x000189d1   Thumb Code     0  audiooutput.o(i._ZN6Phonon18AudioOutputPrivateC1ENS_16MediaNodePrivate6CastIdE)
    Phonon::MediaObjectPrivate::q_func()     0x00018a73   Thumb Code    18  mediaobject.o(i._ZN6Phonon18MediaObjectPrivate6q_funcEv)
    Phonon::MediaObjectPrivate::qObject()    0x00018a85   Thumb Code    12  mediaobject.o(i._ZN6Phonon18MediaObjectPrivate7qObjectEv)
    Phonon::MediaObjectPrivate::MediaObjectPrivate() 0x00018a91   Thumb Code   228  mediaobject.o(i._ZN6Phonon18MediaObjectPrivateC1Ev)
    Phonon::MediaObjectPrivate::MediaObjectPrivate__sub_object() 0x00018a91   Thumb Code     0  mediaobject.o(i._ZN6Phonon18MediaObjectPrivateC1Ev)
    Phonon::MediaObjectPrivate::~MediaObjectPrivate__deallocating() 0x00018bd3   Thumb Code    22  mediaobject.o(i._ZN6Phonon18MediaObjectPrivateD0Ev)
    Phonon::MediaObjectPrivate::~MediaObjectPrivate() 0x00018be9   Thumb Code    96  mediaobject.o(i._ZN6Phonon18MediaObjectPrivateD1Ev)
    Phonon::MediaObjectPrivate::~MediaObjectPrivate__sub_object() 0x00018be9   Thumb Code     0  mediaobject.o(i._ZN6Phonon18MediaObjectPrivateD1Ev)
    Phonon::MediaSourcePrivate::MediaSourcePrivate(Phonon::MediaSource::Type) 0x00018c95   Thumb Code    92  mediasource.o(i._ZN6Phonon18MediaSourcePrivateC1ENS_11MediaSource4TypeE)
    Phonon::MediaSourcePrivate::MediaSourcePrivate__sub_object(Phonon::MediaSource::Type) 0x00018c95   Thumb Code     0  mediasource.o(i._ZN6Phonon18MediaSourcePrivateC1ENS_11MediaSource4TypeE)
    Phonon::VideoPlayerPrivate::VideoPlayerPrivate() 0x00018d11   Thumb Code    28  videoplayer.o(i._ZN6Phonon18VideoPlayerPrivateC1Ev)
    Phonon::VideoPlayerPrivate::VideoPlayerPrivate__sub_object() 0x00018d11   Thumb Code     0  videoplayer.o(i._ZN6Phonon18VideoPlayerPrivateC1Ev)
    Phonon::VideoWidgetPrivate::q_func()     0x00018d2d   Thumb Code    18  videowidget.o(i._ZN6Phonon18VideoWidgetPrivate6q_funcEv)
    Phonon::VideoWidgetPrivate::qObject()    0x00018d3f   Thumb Code    12  videowidget.o(i._ZN6Phonon18VideoWidgetPrivate7qObjectEv)
    Phonon::VideoWidgetPrivate::~VideoWidgetPrivate__deallocating() 0x00018d4b   Thumb Code    22  videowidget.o(i._ZN6Phonon18VideoWidgetPrivateD0Ev)
    Phonon::VideoWidgetPrivate::~VideoWidgetPrivate() 0x00018d61   Thumb Code    32  videowidget.o(i._ZN6Phonon18VideoWidgetPrivateD1Ev)
    Phonon::VideoWidgetPrivate::~VideoWidgetPrivate__sub_object() 0x00018d61   Thumb Code     0  videowidget.o(i._ZN6Phonon18VideoWidgetPrivateD1Ev)
    Phonon::AbstractVideoOutput::~AbstractVideoOutput__deallocating() 0x00018d8f   Thumb Code    24  abstractvideooutput.o(i._ZN6Phonon19AbstractVideoOutputD0Ev)
    Phonon::AbstractVideoOutput::~AbstractVideoOutput() 0x00018da7   Thumb Code    14  abstractvideooutput.o(i._ZN6Phonon19AbstractVideoOutputD1Ev)
    Phonon::AbstractVideoOutput::~AbstractVideoOutput__sub_object() 0x00018da7   Thumb Code     0  abstractvideooutput.o(i._ZN6Phonon19AbstractVideoOutputD1Ev)
    Phonon::BackendCapabilities::Notifier::~Notifier__deallocating() 0x00018db5   Thumb Code    22  backendcapabilities.o(i._ZN6Phonon19BackendCapabilities8NotifierD0Ev)
    Phonon::BackendCapabilities::Notifier::~Notifier() 0x00018dcb   Thumb Code    14  backendcapabilities.o(i._ZN6Phonon19BackendCapabilities8NotifierD1Ev)
    Phonon::BackendCapabilities::Notifier::~Notifier__sub_object() 0x00018dcb   Thumb Code     0  backendcapabilities.o(i._ZN6Phonon19BackendCapabilities8NotifierD1Ev)
    Phonon::CleanUpGlobalStatic::~CleanUpGlobalStatic() 0x00018dd9   Thumb Code    12  backendcapabilities.o(i._ZN6Phonon19CleanUpGlobalStaticD1Ev)
    Phonon::CleanUpGlobalStatic::~CleanUpGlobalStatic__sub_object() 0x00018dd9   Thumb Code     0  backendcapabilities.o(i._ZN6Phonon19CleanUpGlobalStaticD1Ev)
    Phonon::GlobalConfigPrivate::~GlobalConfigPrivate__deallocating() 0x00018de5   Thumb Code    22  globalconfig.o(i._ZN6Phonon19GlobalConfigPrivateD0Ev)
    Phonon::GlobalConfigPrivate::~GlobalConfigPrivate() 0x00018dfd   Thumb Code    20  globalconfig.o(i._ZN6Phonon19GlobalConfigPrivateD1Ev)
    Phonon::GlobalConfigPrivate::~GlobalConfigPrivate__sub_object() 0x00018dfd   Thumb Code     0  globalconfig.o(i._ZN6Phonon19GlobalConfigPrivateD1Ev)
    Phonon::VolumeSliderPrivate::VolumeSliderPrivate(Phonon::VolumeSlider*) 0x00018e15   Thumb Code   362  volumeslider.o(i._ZN6Phonon19VolumeSliderPrivateC1EPNS_12VolumeSliderE)
    Phonon::VolumeSliderPrivate::VolumeSliderPrivate__sub_object(Phonon::VolumeSlider*) 0x00018e15   Thumb Code     0  volumeslider.o(i._ZN6Phonon19VolumeSliderPrivateC1EPNS_12VolumeSliderE)
    Phonon::ConnectionTransaction::~ConnectionTransaction() 0x00019007   Thumb Code    50  path.o(i._ZN6Phonon21ConnectionTransactionD1Ev)
    Phonon::ConnectionTransaction::~ConnectionTransaction__sub_object() 0x00019007   Thumb Code     0  path.o(i._ZN6Phonon21ConnectionTransactionD1Ev)
    Phonon::IODeviceStreamPrivate::IODeviceStreamPrivate(QIODevice*) 0x0001904d   Thumb Code   214  iodevicestream.o(i._ZN6Phonon21IODeviceStreamPrivateC1EP9QIODevice)
    Phonon::IODeviceStreamPrivate::IODeviceStreamPrivate__sub_object(QIODevice*) 0x0001904d   Thumb Code     0  iodevicestream.o(i._ZN6Phonon21IODeviceStreamPrivateC1EP9QIODevice)
    Phonon::IODeviceStreamPrivate::~IODeviceStreamPrivate__deallocating() 0x000191b9   Thumb Code    24  iodevicestream.o(i._ZN6Phonon21IODeviceStreamPrivateD0Ev)
    Phonon::IODeviceStreamPrivate::~IODeviceStreamPrivate() 0x000191d1   Thumb Code    14  iodevicestream.o(i._ZN6Phonon21IODeviceStreamPrivateD1Ev)
    Phonon::IODeviceStreamPrivate::~IODeviceStreamPrivate__sub_object() 0x000191d1   Thumb Code     0  iodevicestream.o(i._ZN6Phonon21IODeviceStreamPrivateD1Ev)
    Phonon::AudioDataOutputPrivate::q_func() 0x000191df   Thumb Code    18  audiodataoutput.o(i._ZN6Phonon22AudioDataOutputPrivate6q_funcEv)
    Phonon::AudioDataOutputPrivate::~AudioDataOutputPrivate__deallocating() 0x000191f1   Thumb Code    22  audiodataoutput.o(i._ZN6Phonon22AudioDataOutputPrivateD0Ev)
    Phonon::AudioDataOutputPrivate::~AudioDataOutputPrivate() 0x00019207   Thumb Code    16  audiodataoutput.o(i._ZN6Phonon22AudioDataOutputPrivateD1Ev)
    Phonon::AudioDataOutputPrivate::~AudioDataOutputPrivate__sub_object() 0x00019207   Thumb Code     0  audiodataoutput.o(i._ZN6Phonon22AudioDataOutputPrivateD1Ev)
    Phonon::EffectParameterPrivate::EffectParameterPrivate() 0x00019219   Thumb Code   108  effectparameter.o(i._ZN6Phonon22EffectParameterPrivateC1Ev)
    Phonon::EffectParameterPrivate::EffectParameterPrivate__sub_object() 0x00019219   Thumb Code     0  effectparameter.o(i._ZN6Phonon22EffectParameterPrivateC1Ev)
    Phonon::EffectParameterPrivate::~EffectParameterPrivate() 0x000192c5   Thumb Code    80  effectparameter.o(i._ZN6Phonon22EffectParameterPrivateD1Ev)
    Phonon::EffectParameterPrivate::~EffectParameterPrivate__sub_object() 0x000192c5   Thumb Code     0  effectparameter.o(i._ZN6Phonon22EffectParameterPrivateD1Ev)
    Phonon::MediaControllerPrivate::MediaControllerPrivate(Phonon::MediaObject*) 0x00019351   Thumb Code    96  mediacontroller.o(i._ZN6Phonon22MediaControllerPrivateC1EPNS_11MediaObjectE)
    Phonon::MediaControllerPrivate::MediaControllerPrivate__sub_object(Phonon::MediaObject*) 0x00019351   Thumb Code     0  mediacontroller.o(i._ZN6Phonon22MediaControllerPrivateC1EPNS_11MediaObjectE)
    Phonon::MediaControllerPrivate::~MediaControllerPrivate__deallocating() 0x0001940b   Thumb Code    24  mediacontroller.o(i._ZN6Phonon22MediaControllerPrivateD0Ev)
    Phonon::MediaControllerPrivate::~MediaControllerPrivate() 0x00019423   Thumb Code    14  mediacontroller.o(i._ZN6Phonon22MediaControllerPrivateD1Ev)
    Phonon::MediaControllerPrivate::~MediaControllerPrivate__sub_object() 0x00019423   Thumb Code     0  mediacontroller.o(i._ZN6Phonon22MediaControllerPrivateD1Ev)
    Phonon::ObjectDescriptionModel<(Phonon::ObjectDescriptionType)0>::~ObjectDescriptionModel__deallocating() 0x00019431   Thumb Code    24  objectdescriptionmodel.o(i._ZN6Phonon22ObjectDescriptionModelILNS_21ObjectDescriptionTypeE0EED0Ev)
    Phonon::ObjectDescriptionModel<(Phonon::ObjectDescriptionType)0>::~ObjectDescriptionModel() 0x00019449   Thumb Code    14  objectdescriptionmodel.o(i._ZN6Phonon22ObjectDescriptionModelILNS_21ObjectDescriptionTypeE0EED1Ev)
    Phonon::ObjectDescriptionModel<(Phonon::ObjectDescriptionType)0>::~ObjectDescriptionModel__sub_object() 0x00019449   Thumb Code     0  objectdescriptionmodel.o(i._ZN6Phonon22ObjectDescriptionModelILNS_21ObjectDescriptionTypeE0EED1Ev)
    Phonon::ObjectDescriptionModel<(Phonon::ObjectDescriptionType)1>::~ObjectDescriptionModel__deallocating() 0x00019457   Thumb Code    24  objectdescriptionmodel.o(i._ZN6Phonon22ObjectDescriptionModelILNS_21ObjectDescriptionTypeE1EED0Ev)
    Phonon::ObjectDescriptionModel<(Phonon::ObjectDescriptionType)1>::~ObjectDescriptionModel() 0x0001946f   Thumb Code    14  objectdescriptionmodel.o(i._ZN6Phonon22ObjectDescriptionModelILNS_21ObjectDescriptionTypeE1EED1Ev)
    Phonon::ObjectDescriptionModel<(Phonon::ObjectDescriptionType)1>::~ObjectDescriptionModel__sub_object() 0x0001946f   Thumb Code     0  objectdescriptionmodel.o(i._ZN6Phonon22ObjectDescriptionModelILNS_21ObjectDescriptionTypeE1EED1Ev)
    Phonon::ObjectDescriptionModel<(Phonon::ObjectDescriptionType)2>::~ObjectDescriptionModel__deallocating() 0x0001947d   Thumb Code    24  objectdescriptionmodel.o(i._ZN6Phonon22ObjectDescriptionModelILNS_21ObjectDescriptionTypeE2EED0Ev)
    Phonon::ObjectDescriptionModel<(Phonon::ObjectDescriptionType)2>::~ObjectDescriptionModel() 0x00019495   Thumb Code    14  objectdescriptionmodel.o(i._ZN6Phonon22ObjectDescriptionModelILNS_21ObjectDescriptionTypeE2EED1Ev)
    Phonon::ObjectDescriptionModel<(Phonon::ObjectDescriptionType)2>::~ObjectDescriptionModel__sub_object() 0x00019495   Thumb Code     0  objectdescriptionmodel.o(i._ZN6Phonon22ObjectDescriptionModelILNS_21ObjectDescriptionTypeE2EED1Ev)
    Phonon::ObjectDescriptionModel<(Phonon::ObjectDescriptionType)3>::~ObjectDescriptionModel__deallocating() 0x000194a3   Thumb Code    24  objectdescriptionmodel.o(i._ZN6Phonon22ObjectDescriptionModelILNS_21ObjectDescriptionTypeE3EED0Ev)
    Phonon::ObjectDescriptionModel<(Phonon::ObjectDescriptionType)3>::~ObjectDescriptionModel() 0x000194bb   Thumb Code    14  objectdescriptionmodel.o(i._ZN6Phonon22ObjectDescriptionModelILNS_21ObjectDescriptionTypeE3EED1Ev)
    Phonon::ObjectDescriptionModel<(Phonon::ObjectDescriptionType)3>::~ObjectDescriptionModel__sub_object() 0x000194bb   Thumb Code     0  objectdescriptionmodel.o(i._ZN6Phonon22ObjectDescriptionModelILNS_21ObjectDescriptionTypeE3EED1Ev)
    Phonon::ObjectDescriptionModel<(Phonon::ObjectDescriptionType)4>::~ObjectDescriptionModel__deallocating() 0x000194c9   Thumb Code    24  objectdescriptionmodel.o(i._ZN6Phonon22ObjectDescriptionModelILNS_21ObjectDescriptionTypeE4EED0Ev)
    Phonon::ObjectDescriptionModel<(Phonon::ObjectDescriptionType)4>::~ObjectDescriptionModel() 0x000194e1   Thumb Code    14  objectdescriptionmodel.o(i._ZN6Phonon22ObjectDescriptionModelILNS_21ObjectDescriptionTypeE4EED1Ev)
    Phonon::ObjectDescriptionModel<(Phonon::ObjectDescriptionType)4>::~ObjectDescriptionModel__sub_object() 0x000194e1   Thumb Code     0  objectdescriptionmodel.o(i._ZN6Phonon22ObjectDescriptionModelILNS_21ObjectDescriptionTypeE4EED1Ev)
    Phonon::FrontendInterfacePrivate::_backendObjectChanged() 0x000194f1   Thumb Code    82  mediaobject.o(i._ZN6Phonon24FrontendInterfacePrivate21_backendObjectChangedEv)
    Phonon::FrontendInterfacePrivate::iface() 0x0001956d   Thumb Code    38  mediacontroller.o(i._ZN6Phonon24FrontendInterfacePrivate5ifaceEv)
    Phonon::FrontendInterfacePrivate::~FrontendInterfacePrivate__deallocating() 0x000195b9   Thumb Code    22  mediacontroller.o(i._ZN6Phonon24FrontendInterfacePrivateD0Ev)
    Phonon::FrontendInterfacePrivate::~FrontendInterfacePrivate() 0x000195d1   Thumb Code     0  mediacontroller.o(i._ZN6Phonon24FrontendInterfacePrivateD2Ev)
    Phonon::FrontendInterfacePrivate::~FrontendInterfacePrivate__sub_object() 0x000195d1   Thumb Code    58  mediacontroller.o(i._ZN6Phonon24FrontendInterfacePrivateD2Ev)
    Phonon::ObjectDescriptionPrivate::ObjectDescriptionPrivate(int, const QHash<QByteArray, QVariant>&) 0x0001961d   Thumb Code   196  objectdescription.o(i._ZN6Phonon24ObjectDescriptionPrivateC1EiRK5QHashI10QByteArray8QVariantE)
    Phonon::ObjectDescriptionPrivate::ObjectDescriptionPrivate__sub_object(int, const QHash<QByteArray, QVariant>&) 0x0001961d   Thumb Code     0  objectdescription.o(i._ZN6Phonon24ObjectDescriptionPrivateC1EiRK5QHashI10QByteArray8QVariantE)
    Phonon::VolumeFaderEffectPrivate::~VolumeFaderEffectPrivate__deallocating() 0x00019733   Thumb Code    24  volumefadereffect.o(i._ZN6Phonon24VolumeFaderEffectPrivateD0Ev)
    Phonon::VolumeFaderEffectPrivate::~VolumeFaderEffectPrivate() 0x0001974b   Thumb Code    14  volumefadereffect.o(i._ZN6Phonon24VolumeFaderEffectPrivateD1Ev)
    Phonon::VolumeFaderEffectPrivate::~VolumeFaderEffectPrivate__sub_object() 0x0001974b   Thumb Code     0  volumefadereffect.o(i._ZN6Phonon24VolumeFaderEffectPrivateD1Ev)
    Phonon::AbstractAudioOutputPrivate::qObject() 0x00019759   Thumb Code    20  abstractaudiooutput_p.o(i._ZN6Phonon26AbstractAudioOutputPrivate7qObjectEv)
    Phonon::AbstractAudioOutputPrivate::~AbstractAudioOutputPrivate__deallocating() 0x0001976d   Thumb Code    24  abstractaudiooutput_p.o(i._ZN6Phonon26AbstractAudioOutputPrivateD0Ev)
    Phonon::AbstractAudioOutputPrivate::~AbstractAudioOutputPrivate() 0x00019785   Thumb Code     0  abstractaudiooutput_p.o(i._ZN6Phonon26AbstractAudioOutputPrivateD2Ev)
    Phonon::AbstractAudioOutputPrivate::~AbstractAudioOutputPrivate__sub_object() 0x00019785   Thumb Code    14  abstractaudiooutput_p.o(i._ZN6Phonon26AbstractAudioOutputPrivateD2Ev)
    Phonon::AbstractVideoOutputPrivate::~AbstractVideoOutputPrivate__deallocating() 0x00019793   Thumb Code    24  abstractvideooutput_p.o(i._ZN6Phonon26AbstractVideoOutputPrivateD0Ev)
    Phonon::AbstractVideoOutputPrivate::~AbstractVideoOutputPrivate() 0x000197ab   Thumb Code     0  abstractvideooutput_p.o(i._ZN6Phonon26AbstractVideoOutputPrivateD2Ev)
    Phonon::AbstractVideoOutputPrivate::~AbstractVideoOutputPrivate__sub_object() 0x000197ab   Thumb Code    14  abstractvideooutput_p.o(i._ZN6Phonon26AbstractVideoOutputPrivateD2Ev)
    Phonon::BackendCapabilitiesPrivate::BackendCapabilitiesPrivate() 0x000197b9   Thumb Code   150  backendcapabilities.o(i._ZN6Phonon26BackendCapabilitiesPrivateC1Ev)
    Phonon::BackendCapabilitiesPrivate::BackendCapabilitiesPrivate__sub_object() 0x000197b9   Thumb Code     0  backendcapabilities.o(i._ZN6Phonon26BackendCapabilitiesPrivateC1Ev)
    Phonon::BackendCapabilitiesPrivate::~BackendCapabilitiesPrivate__deallocating() 0x0001986b   Thumb Code    24  backendcapabilities.o(i._ZN6Phonon26BackendCapabilitiesPrivateD0Ev)
    Phonon::BackendCapabilitiesPrivate::~BackendCapabilitiesPrivate() 0x00019883   Thumb Code    14  backendcapabilities.o(i._ZN6Phonon26BackendCapabilitiesPrivateD1Ev)
    Phonon::BackendCapabilitiesPrivate::~BackendCapabilitiesPrivate__sub_object() 0x00019883   Thumb Code     0  backendcapabilities.o(i._ZN6Phonon26BackendCapabilitiesPrivateD1Ev)
    Phonon::MediaNodeDestructionHandler::~MediaNodeDestructionHandler__deallocating() 0x00019891   Thumb Code    18  abstractmediastream.o(i._ZN6Phonon27MediaNodeDestructionHandlerD0Ev)
    Phonon::MediaNodeDestructionHandler::~MediaNodeDestructionHandler() 0x000198a3   Thumb Code     0  abstractmediastream.o(i._ZN6Phonon27MediaNodeDestructionHandlerD2Ev)
    Phonon::MediaNodeDestructionHandler::~MediaNodeDestructionHandler__sub_object() 0x000198a3   Thumb Code     2  abstractmediastream.o(i._ZN6Phonon27MediaNodeDestructionHandlerD2Ev)
    Phonon::Factory::Sender::~Sender__deallocating() 0x000198a5   Thumb Code    22  factory.o(i._ZN6Phonon7Factory6SenderD0Ev)
    Phonon::Factory::Sender::~Sender()       0x000198bb   Thumb Code    14  factory.o(i._ZN6Phonon7Factory6SenderD1Ev)
    Phonon::Factory::Sender::~Sender__sub_object() 0x000198bb   Thumb Code     0  factory.o(i._ZN6Phonon7Factory6SenderD1Ev)
    QDebug::maybeSpace()                     0x000198c9   Thumb Code    24  audiooutput.o(i._ZN6QDebug10maybeSpaceEv)
    QDebug::~QDebug()                        0x000198e1   Thumb Code   144  audiooutput.o(i._ZN6QDebugD1Ev)
    QDebug::~QDebug__sub_object()            0x000198e1   Thumb Code     0  audiooutput.o(i._ZN6QDebugD1Ev)
    QDebug::operator <<(const char*)         0x00019985   Thumb Code    44  audiooutput.o(i._ZN6QDebuglsEPKc)
    QDebug::operator <<(const QString&)      0x000199bb   Thumb Code    38  factory.o(i._ZN6QDebuglsERK7QString)
    QDebug::operator <<(char)                0x000199e1   Thumb Code    22  path.o(i._ZN6QDebuglsEc)
    QDebug::operator <<(int)                 0x000199f7   Thumb Code    22  audiooutput.o(i._ZN6QDebuglsEi)
    QString::data()                          0x00019a0d   Thumb Code    40  factory.o(i._ZN7QString4dataEv)
    QString::QString(const QLatin1String&)   0x00019a35   Thumb Code    26  factory.o(i._ZN7QStringC1ERK13QLatin1String)
    QString::QString__sub_object(const QLatin1String&) 0x00019a35   Thumb Code     0  factory.o(i._ZN7QStringC1ERK13QLatin1String)
    QString::QString(const QString&)         0x00019a51   Thumb Code    40  audiooutput.o(i._ZN7QStringC1ERKS_)
    QString::QString__sub_object(const QString&) 0x00019a51   Thumb Code     0  audiooutput.o(i._ZN7QStringC1ERKS_)
    QString::QString()                       0x00019acd   Thumb Code    18  audiooutput.o(i._ZN7QStringC1Ev)
    QString::QString__sub_object()           0x00019acd   Thumb Code     0  audiooutput.o(i._ZN7QStringC1Ev)
    QString::~QString()                      0x00019ae5   Thumb Code    24  audiooutput.o(i._ZN7QStringD1Ev)
    QString::~QString__sub_object()          0x00019ae5   Thumb Code     0  audiooutput.o(i._ZN7QStringD1Ev)
    QVariant::QVariant()                     0x00019afd   Thumb Code    38  effect.o(i._ZN8QVariantC1Ev)
    QVariant::QVariant__sub_object()         0x00019afd   Thumb Code     0  effect.o(i._ZN8QVariantC1Ev)
    QComboBox::addItem(const QString&, const QVariant&) 0x00019b23   Thumb Code    48  effectwidget.o(i._ZN9QComboBox7addItemERK7QStringRK8QVariant)
    QHashData::willGrow()                    0x00019b5d   Thumb Code    32  effectwidget.o(i._ZN9QHashData8willGrowEv)
    QMultiMap<QString, QString>::~QMultiMap() 0x00019b7d   Thumb Code    14  mediaobject.o(i._ZN9QMultiMapI7QStringS0_ED1Ev)
    QMultiMap<QString, QString>::~QMultiMap__sub_object() 0x00019b7d   Thumb Code     0  mediaobject.o(i._ZN9QMultiMapI7QStringS0_ED1Ev)
    QByteArray::isEmpty() const              0x00019b8b   Thumb Code    18  audiooutput.o(i._ZNK10QByteArray7isEmptyEv)
    QModelIndex::isValid() const             0x00019b9d   Thumb Code    28  objectdescriptionmodel.o(i._ZNK11QModelIndex7isValidEv)
    QModelIndex::sibling(int, int) const     0x00019bb9   Thumb Code   158  objectdescriptionmodel.o(i._ZNK11QModelIndex7siblingEii)
    QStringBuilder<QString, QString>::operator QString() const 0x00019c7d   Thumb Code    28  factory.o(i._ZNK14QStringBuilderI7QStringS0_EcvS0_Ev)
    QBasicAtomicInt::operator ==(int) const  0x00019ca3   Thumb Code    16  backendcapabilities.o(i._ZNK15QBasicAtomicInteqEi)
    QBasicAtomicInt::operator !=(int) const  0x00019cb3   Thumb Code    16  audiodataoutput.o(i._ZNK15QBasicAtomicIntneEi)
    QBasicAtomicInt::operator !() const      0x00019cc3   Thumb Code    16  mediacontroller.o(i._ZNK15QBasicAtomicIntntEv)
    QBool::operator const void*() const      0x00019cd3   Thumb Code    16  path.o(i._ZNK5QBoolcvPKvEv)
    Phonon::QSettingsGroup::value(const QString&, const QVariant&) const 0x00019ce3   Thumb Code    50  globalconfig.o(i._ZNK6Phonon14QSettingsGroup5valueERK7QStringRK8QVariant)
    Phonon::QSettingsGroup::hasKey(const QString&) const 0x00019d1f   Thumb Code    48  globalconfig.o(i._ZNK6Phonon14QSettingsGroup6hasKeyERK7QString)
    Phonon::ObjectDescriptionPrivate::operator ==(const Phonon::ObjectDescriptionPrivate&) const 0x00019d59   Thumb Code   226  objectdescription.o(i._ZNK6Phonon24ObjectDescriptionPrivateeqERKS0_)
    QObject::connect(const QObject*, const char*, const char*, Qt::ConnectionType) const 0x00019e7d   Thumb Code    30  audiooutput.o(i._ZNK7QObject7connectEPKS_PKcS3_N2Qt14ConnectionTypeE)
    QString::arg(int, int, int, const QChar&) const 0x00019e9b   Thumb Code    36  volumeslider.o(i._ZNK7QString3argEiiiRK5QChar)
    QString::isEmpty() const                 0x00019ebf   Thumb Code    18  path.o(i._ZNK7QString7isEmptyEv)
    QString::operator !=(const QString&) const 0x00019ed1   Thumb Code    20  objectdescription.o(i._ZNK7QStringneERKS_)
    QWidget::testAttribute(Qt::WidgetAttribute) const 0x00019ee5   Thumb Code    40  seekslider.o(i._ZNK7QWidget13testAttributeEN2Qt15WidgetAttributeE)
    QVariant::isValid() const                0x00019f0d   Thumb Code    18  globalconfig.o(i._ZNK8QVariant7isValidEv)
    QListData::at(int) const                 0x00019f1f   Thumb Code    20  effectwidget.o(i._ZNK9QListData2atEi)
    QListData::end() const                   0x00019f33   Thumb Code    16  backendcapabilities.o(i._ZNK9QListData3endEv)
    QListData::size() const                  0x00019f43   Thumb Code    14  effectwidget.o(i._ZNK9QListData4sizeEv)
    QListData::begin() const                 0x00019f51   Thumb Code    16  audiooutput.o(i._ZNK9QListData5beginEv)
    thunk{-20} to Phonon::VideoWidget::~VideoWidget__deallocating() 0x00019f61   Thumb Code    14  videowidget.o(i._ZThn20_N6Phonon11VideoWidgetD0Ev)
    thunk{-20} to Phonon::VideoWidget::~VideoWidget() 0x00019f6f   Thumb Code    14  videowidget.o(i._ZThn20_N6Phonon11VideoWidgetD1Ev)
    thunk{-28} to Phonon::MediaObjectPrivate::~MediaObjectPrivate__deallocating() 0x00019f7d   Thumb Code    14  mediaobject.o(i._ZThn28_N6Phonon18MediaObjectPrivateD0Ev)
    thunk{-28} to Phonon::MediaObjectPrivate::~MediaObjectPrivate() 0x00019f8b   Thumb Code    14  mediaobject.o(i._ZThn28_N6Phonon18MediaObjectPrivateD1Ev)
    thunk{-8} to Phonon::AudioOutput::~AudioOutput__deallocating() 0x00019f99   Thumb Code    14  audiooutput.o(i._ZThn8_N6Phonon11AudioOutputD0Ev)
    thunk{-8} to Phonon::AudioOutput::~AudioOutput() 0x00019fa7   Thumb Code    18  audiooutput.o(i._ZThn8_N6Phonon11AudioOutputD1Ev)
    thunk{-8} to Phonon::VideoWidget::~VideoWidget__deallocating() 0x00019fb9   Thumb Code    14  videowidget.o(i._ZThn8_N6Phonon11VideoWidgetD0Ev)
    thunk{-8} to Phonon::VideoWidget::~VideoWidget() 0x00019fc7   Thumb Code    14  videowidget.o(i._ZThn8_N6Phonon11VideoWidgetD1Ev)
    thunk{-8} to Phonon::AudioDataOutput::~AudioDataOutput__deallocating() 0x00019fd5   Thumb Code    14  moc_audiodataoutput.o(i._ZThn8_N6Phonon15AudioDataOutputD0Ev)
    thunk{-8} to Phonon::AudioDataOutput::~AudioDataOutput() 0x00019fe3   Thumb Code    18  moc_audiodataoutput.o(i._ZThn8_N6Phonon15AudioDataOutputD1Ev)
    thunk{-8} to Phonon::VolumeFaderEffect::~VolumeFaderEffect__deallocating() 0x00019ff5   Thumb Code    14  volumefadereffect.o(i._ZThn8_N6Phonon17VolumeFaderEffectD0Ev)
    thunk{-8} to Phonon::VolumeFaderEffect::~VolumeFaderEffect() 0x0001a003   Thumb Code    18  volumefadereffect.o(i._ZThn8_N6Phonon17VolumeFaderEffectD1Ev)
    operator delete (void*, void*)           0x0001a015   Thumb Code     2  audiodataoutput.o(i._ZdlPvS_)
    operator -(const QPoint&, const QPoint&) 0x0001a017   Thumb Code    28  swiftslider.o(i._ZmiRK6QPointS1_)
    operator new(unsigned, void*)            0x0001a033   Thumb Code     6  audiodataoutput.o(i._ZnwjPv)
    qDeleteAll<QList<QObject*>::const_iterator>(T1, T1) 0x0001a039   Thumb Code    62  factory.o(t._Z10qDeleteAllIN5QListIP7QObjectE14const_iteratorEEvT_S5_)
    qobject_cast<Phonon::PlatformPlugin*>(QObject*) 0x0001a079   Thumb Code    24  factory.o(t._Z12qobject_castIPN6Phonon14PlatformPluginEET_P7QObject)
    qobject_cast<Phonon::EffectInterface*>(QObject*) 0x0001a095   Thumb Code    24  effect.o(t._Z12qobject_castIPN6Phonon15EffectInterfaceEET_P7QObject)
    qobject_cast<Phonon::BackendInterface*>(QObject*) 0x0001a0b1   Thumb Code    24  backendcapabilities.o(t._Z12qobject_castIPN6Phonon16BackendInterfaceEET_P7QObject)
    qobject_cast<Phonon::MediaObjectInterface*>(QObject*) 0x0001a0cd   Thumb Code    24  mediaobject.o(t._Z12qobject_castIPN6Phonon20MediaObjectInterfaceEET_P7QObject)
    qobject_cast<Phonon::VideoWidgetInterface*>(QObject*) 0x0001a0e9   Thumb Code    24  videowidget.o(t._Z12qobject_castIPN6Phonon20VideoWidgetInterfaceEET_P7QObject)
    qobject_cast<Phonon::VolumeFaderInterface*>(QObject*) 0x0001a105   Thumb Code    24  volumefadereffect.o(t._Z12qobject_castIPN6Phonon20VolumeFaderInterfaceEET_P7QObject)
    qobject_cast<Phonon::AudioOutputInterface40*>(QObject*) 0x0001a121   Thumb Code    24  audiooutput.o(t._Z12qobject_castIPN6Phonon22AudioOutputInterface40EET_P7QObject)
    qobject_cast<Phonon::AudioOutputInterface42*>(QObject*) 0x0001a13d   Thumb Code    24  audiooutput.o(t._Z12qobject_castIPN6Phonon22AudioOutputInterface42EET_P7QObject)
    qobject_cast<Phonon::VideoWidgetInterface44*>(QObject*) 0x0001a159   Thumb Code    24  videowidget.o(t._Z12qobject_castIPN6Phonon22VideoWidgetInterface44EET_P7QObject)
    qRegisterMetaType<QMap<Phonon::AudioDataOutput::Channel, QVector<short>>>(const char*, T1*) 0x0001a175   Thumb Code    56  audiodataoutput.o(t._Z17qRegisterMetaTypeI4QMapIN6Phonon15AudioDataOutput7ChannelE7QVectorIsEEEiPKcPT_)
    qRegisterMetaType<QList<Phonon::ObjectDescription<(Phonon::ObjectDescriptionType)2>>>(const char*, T1*) 0x0001a1b5   Thumb Code    56  mediacontroller.o(t._Z17qRegisterMetaTypeI5QListIN6Phonon17ObjectDescriptionILNS1_21ObjectDescriptionTypeE2EEEEEiPKcPT_)
    qRegisterMetaType<QList<Phonon::ObjectDescription<(Phonon::ObjectDescriptionType)3>>>(const char*, T1*) 0x0001a1f5   Thumb Code    56  mediacontroller.o(t._Z17qRegisterMetaTypeI5QListIN6Phonon17ObjectDescriptionILNS1_21ObjectDescriptionTypeE3EEEEEiPKcPT_)
    qRegisterMetaType<QList<int>>(const char*, T1*) 0x0001a235   Thumb Code    56  globalconfig.o(t._Z17qRegisterMetaTypeI5QListIiEEiPKcPT_)
    qRegisterMetaType<Phonon::ObjectDescription<(Phonon::ObjectDescriptionType)2>>(const char*, T1*) 0x0001a275   Thumb Code    56  mediacontroller.o(t._Z17qRegisterMetaTypeIN6Phonon17ObjectDescriptionILNS0_21ObjectDescriptionTypeE2EEEEiPKcPT_)
    qRegisterMetaType<Phonon::ObjectDescription<(Phonon::ObjectDescriptionType)3>>(const char*, T1*) 0x0001a2b5   Thumb Code    56  mediacontroller.o(t._Z17qRegisterMetaTypeIN6Phonon17ObjectDescriptionILNS0_21ObjectDescriptionTypeE3EEEEiPKcPT_)
    qRegisterMetaType<Phonon::State>(const char*, T1*) 0x0001a2f5   Thumb Code    56  phononnamespace.o(t._Z17qRegisterMetaTypeIN6Phonon5StateEEiPKcPT_)
    qRegisterMetaType<Phonon::Category>(const char*, T1*) 0x0001a335   Thumb Code    56  phononnamespace.o(t._Z17qRegisterMetaTypeIN6Phonon8CategoryEEiPKcPT_)
    qRegisterMetaType<Phonon::ErrorType>(const char*, T1*) 0x0001a375   Thumb Code    56  phononnamespace.o(t._Z17qRegisterMetaTypeIN6Phonon9ErrorTypeEEiPKcPT_)
    qVariantFromValue<QList<int>>(const T1&) 0x0001a3b5   Thumb Code    30  globalconfig.o(t._Z17qVariantFromValueI5QListIiEE8QVariantRKT_)
    qVariantFromValue<bool>(const T1&)       0x0001a3d3   Thumb Code    32  globalconfig.o(t._Z17qVariantFromValueIbE8QVariantRKT_)
    qMetaTypeLoadHelper<QList<int>>(QDataStream&, T1*) 0x0001a3f3   Thumb Code    16  phononnamespace.o(t._Z19qMetaTypeLoadHelperI5QListIiEEvR11QDataStreamPT_)
    qMetaTypeSaveHelper<QList<int>>(QDataStream&, const T1*) 0x0001a403   Thumb Code    16  phononnamespace.o(t._Z19qMetaTypeSaveHelperI5QListIiEEvR11QDataStreamPKT_)
    qMetaTypeDeleteHelper<QMap<Phonon::AudioDataOutput::Channel, QVector<short>>>(T1*) 0x0001a413   Thumb Code    48  audiodataoutput.o(t._Z21qMetaTypeDeleteHelperI4QMapIN6Phonon15AudioDataOutput7ChannelE7QVectorIsEEEvPT_)
    qMetaTypeDeleteHelper<QList<Phonon::ObjectDescription<(Phonon::ObjectDescriptionType)2>>>(T1*) 0x0001a443   Thumb Code    22  mediacontroller.o(t._Z21qMetaTypeDeleteHelperI5QListIN6Phonon17ObjectDescriptionILNS1_21ObjectDescriptionTypeE2EEEEEvPT_)
    qMetaTypeDeleteHelper<QList<Phonon::ObjectDescription<(Phonon::ObjectDescriptionType)3>>>(T1*) 0x0001a459   Thumb Code    22  mediacontroller.o(t._Z21qMetaTypeDeleteHelperI5QListIN6Phonon17ObjectDescriptionILNS1_21ObjectDescriptionTypeE3EEEEEvPT_)
    qMetaTypeDeleteHelper<QList<int>>(T1*)   0x0001a46f   Thumb Code    22  globalconfig.o(t._Z21qMetaTypeDeleteHelperI5QListIiEEvPT_)
    qMetaTypeDeleteHelper<Phonon::ObjectDescription<(Phonon::ObjectDescriptionType)2>>(T1*) 0x0001a485   Thumb Code    22  mediacontroller.o(t._Z21qMetaTypeDeleteHelperIN6Phonon17ObjectDescriptionILNS0_21ObjectDescriptionTypeE2EEEEvPT_)
    qMetaTypeDeleteHelper<Phonon::ObjectDescription<(Phonon::ObjectDescriptionType)3>>(T1*) 0x0001a49b   Thumb Code    22  mediacontroller.o(t._Z21qMetaTypeDeleteHelperIN6Phonon17ObjectDescriptionILNS0_21ObjectDescriptionTypeE3EEEEvPT_)
    qMetaTypeDeleteHelper<Phonon::State>(T1*) 0x0001a4b1   Thumb Code    12  phononnamespace.o(t._Z21qMetaTypeDeleteHelperIN6Phonon5StateEEvPT_)
    qMetaTypeDeleteHelper<Phonon::Category>(T1*) 0x0001a4bd   Thumb Code    12  phononnamespace.o(t._Z21qMetaTypeDeleteHelperIN6Phonon8CategoryEEvPT_)
    qMetaTypeDeleteHelper<Phonon::ErrorType>(T1*) 0x0001a4c9   Thumb Code    12  phononnamespace.o(t._Z21qMetaTypeDeleteHelperIN6Phonon9ErrorTypeEEvPT_)
    qMetaTypeConstructHelper<QMap<Phonon::AudioDataOutput::Channel, QVector<short>>>(const T1*) 0x0001a4d5   Thumb Code   142  audiodataoutput.o(t._Z24qMetaTypeConstructHelperI4QMapIN6Phonon15AudioDataOutput7ChannelE7QVectorIsEEEPvPKT_)
    qMetaTypeConstructHelper<QList<Phonon::ObjectDescription<(Phonon::ObjectDescriptionType)2>>>(const T1*) 0x0001a585   Thumb Code    80  mediacontroller.o(t._Z24qMetaTypeConstructHelperI5QListIN6Phonon17ObjectDescriptionILNS1_21ObjectDescriptionTypeE2EEEEEPvPKT_)
    qMetaTypeConstructHelper<QList<Phonon::ObjectDescription<(Phonon::ObjectDescriptionType)3>>>(const T1*) 0x0001a5f1   Thumb Code    80  mediacontroller.o(t._Z24qMetaTypeConstructHelperI5QListIN6Phonon17ObjectDescriptionILNS1_21ObjectDescriptionTypeE3EEEEEPvPKT_)
    qMetaTypeConstructHelper<QList<int>>(const T1*) 0x0001a65d   Thumb Code    80  globalconfig.o(t._Z24qMetaTypeConstructHelperI5QListIiEEPvPKT_)
    qMetaTypeConstructHelper<Phonon::ObjectDescription<(Phonon::ObjectDescriptionType)2>>(const T1*) 0x0001a6c9   Thumb Code    80  mediacontroller.o(t._Z24qMetaTypeConstructHelperIN6Phonon17ObjectDescriptionILNS0_21ObjectDescriptionTypeE2EEEEPvPKT_)
    qMetaTypeConstructHelper<Phonon::ObjectDescription<(Phonon::ObjectDescriptionType)3>>(const T1*) 0x0001a735   Thumb Code    80  mediacontroller.o(t._Z24qMetaTypeConstructHelperIN6Phonon17ObjectDescriptionILNS0_21ObjectDescriptionTypeE3EEEEPvPKT_)
    qMetaTypeConstructHelper<Phonon::State>(const T1*) 0x0001a7a1   Thumb Code    50  phononnamespace.o(t._Z24qMetaTypeConstructHelperIN6Phonon5StateEEPvPKT_)
    qMetaTypeConstructHelper<Phonon::Category>(const T1*) 0x0001a7d3   Thumb Code    50  phononnamespace.o(t._Z24qMetaTypeConstructHelperIN6Phonon8CategoryEEPvPKT_)
    qMetaTypeConstructHelper<Phonon::ErrorType>(const T1*) 0x0001a805   Thumb Code    50  phononnamespace.o(t._Z24qMetaTypeConstructHelperIN6Phonon9ErrorTypeEEPvPKT_)
    qRegisterMetaTypeStreamOperators<QList<int>>(const char*, T1*) 0x0001a839   Thumb Code    30  phononnamespace.o(t._Z32qRegisterMetaTypeStreamOperatorsI5QListIiEEvPKcPT_)
    QMetaTypeId2<QList<Phonon::ObjectDescription<(Phonon::ObjectDescriptionType)2>>>::qt_metatype_id() 0x0001a861   Thumb Code    44  mediacontroller.o(t._ZN12QMetaTypeId2I5QListIN6Phonon17ObjectDescriptionILNS1_21ObjectDescriptionTypeE2EEEEE14qt_metatype_idEv)
    QMetaTypeId2<QList<Phonon::ObjectDescription<(Phonon::ObjectDescriptionType)3>>>::qt_metatype_id() 0x0001a8b9   Thumb Code    44  mediacontroller.o(t._ZN12QMetaTypeId2I5QListIN6Phonon17ObjectDescriptionILNS1_21ObjectDescriptionTypeE3EEEEE14qt_metatype_idEv)
    QMetaTypeId2<QList<int>>::qt_metatype_id() 0x0001a90d   Thumb Code    44  phononnamespace.o(t._ZN12QMetaTypeId2I5QListIiEE14qt_metatype_idEv)
    QMetaTypeId2<Phonon::ObjectDescription<(Phonon::ObjectDescriptionType)2>>::qt_metatype_id() 0x0001a949   Thumb Code    44  mediacontroller.o(t._ZN12QMetaTypeId2IN6Phonon17ObjectDescriptionILNS0_21ObjectDescriptionTypeE2EEEE14qt_metatype_idEv)
    QMetaTypeId2<Phonon::ObjectDescription<(Phonon::ObjectDescriptionType)3>>::qt_metatype_id() 0x0001a999   Thumb Code    44  mediacontroller.o(t._ZN12QMetaTypeId2IN6Phonon17ObjectDescriptionILNS0_21ObjectDescriptionTypeE3EEEE14qt_metatype_idEv)
    QMetaTypeId2<Phonon::State>::qt_metatype_id() 0x0001a9e5   Thumb Code    44  phononnamespace.o(t._ZN12QMetaTypeId2IN6Phonon5StateEE14qt_metatype_idEv)
    QMetaTypeId2<Phonon::Category>::qt_metatype_id() 0x0001aa25   Thumb Code    44  phononnamespace.o(t._ZN12QMetaTypeId2IN6Phonon8CategoryEE14qt_metatype_idEv)
    QMetaTypeId2<Phonon::ErrorType>::qt_metatype_id() 0x0001aa69   Thumb Code    44  phononnamespace.o(t._ZN12QMetaTypeId2IN6Phonon9ErrorTypeEE14qt_metatype_idEv)
    QScopedPointer<Phonon::AbstractMediaStreamPrivate, QScopedPointerDeleter<Phonon::AbstractMediaStreamPrivate>>::~QScopedPointer() 0x0001aaad   Thumb Code    28  abstractmediastream.o(t._ZN14QScopedPointerIN6Phonon26AbstractMediaStreamPrivateE21QScopedPointerDeleterIS1_EED1Ev)
    QScopedPointer<Phonon::AbstractMediaStreamPrivate, QScopedPointerDeleter<Phonon::AbstractMediaStreamPrivate>>::~QScopedPointer__sub_object() 0x0001aaad   Thumb Code     0  abstractmediastream.o(t._ZN14QScopedPointerIN6Phonon26AbstractMediaStreamPrivateE21QScopedPointerDeleterIS1_EED1Ev)
    QMutableListIterator<int>::next()        0x0001aac9   Thumb Code    36  globalconfig.o(t._ZN20QMutableListIteratorIiE4nextEv)
    QMutableListIterator<int>::remove()      0x0001aaed   Thumb Code   108  globalconfig.o(t._ZN20QMutableListIteratorIiE6removeEv)
    QMutableListIterator<int>::QMutableListIterator(QList<int>&) 0x0001ab59   Thumb Code    60  globalconfig.o(t._ZN20QMutableListIteratorIiEC1ER5QListIiE)
    QMutableListIterator<int>::QMutableListIterator__sub_object(QList<int>&) 0x0001ab59   Thumb Code     0  globalconfig.o(t._ZN20QMutableListIteratorIiEC1ER5QListIiE)
    QMutableListIterator<int>::~QMutableListIterator() 0x0001ab95   Thumb Code    16  globalconfig.o(t._ZN20QMutableListIteratorIiED1Ev)
    QMutableListIterator<int>::~QMutableListIterator__sub_object() 0x0001ab95   Thumb Code     0  globalconfig.o(t._ZN20QMutableListIteratorIiED1Ev)
    QExplicitlySharedDataPointer<Phonon::PathPrivate>::~QExplicitlySharedDataPointer() 0x0001aba5   Thumb Code    42  path.o(t._ZN28QExplicitlySharedDataPointerIN6Phonon11PathPrivateEED1Ev)
    QExplicitlySharedDataPointer<Phonon::PathPrivate>::~QExplicitlySharedDataPointer__sub_object() 0x0001aba5   Thumb Code     0  path.o(t._ZN28QExplicitlySharedDataPointerIN6Phonon11PathPrivateEED1Ev)
    QExplicitlySharedDataPointer<Phonon::MediaSourcePrivate>::QExplicitlySharedDataPointer(Phonon::MediaSourcePrivate*) 0x0001abcf   Thumb Code    26  mediasource.o(t._ZN28QExplicitlySharedDataPointerIN6Phonon18MediaSourcePrivateEEC1EPS1_)
    QExplicitlySharedDataPointer<Phonon::MediaSourcePrivate>::QExplicitlySharedDataPointer__sub_object(Phonon::MediaSourcePrivate*) 0x0001abcf   Thumb Code     0  mediasource.o(t._ZN28QExplicitlySharedDataPointerIN6Phonon18MediaSourcePrivateEEC1EPS1_)
    QExplicitlySharedDataPointer<Phonon::MediaSourcePrivate>::~QExplicitlySharedDataPointer() 0x0001abe9   Thumb Code    42  mediasource.o(t._ZN28QExplicitlySharedDataPointerIN6Phonon18MediaSourcePrivateEED1Ev)
    QExplicitlySharedDataPointer<Phonon::MediaSourcePrivate>::~QExplicitlySharedDataPointer__sub_object() 0x0001abe9   Thumb Code     0  mediasource.o(t._ZN28QExplicitlySharedDataPointerIN6Phonon18MediaSourcePrivateEED1Ev)
    QExplicitlySharedDataPointer<Phonon::ObjectDescriptionData>::QExplicitlySharedDataPointer(Phonon::ObjectDescriptionData*) 0x0001ac13   Thumb Code    24  audiooutput.o(t._ZN28QExplicitlySharedDataPointerIN6Phonon21ObjectDescriptionDataEEC1EPS1_)
    QExplicitlySharedDataPointer<Phonon::ObjectDescriptionData>::QExplicitlySharedDataPointer__sub_object(Phonon::ObjectDescriptionData*) 0x0001ac13   Thumb Code     0  audiooutput.o(t._ZN28QExplicitlySharedDataPointerIN6Phonon21ObjectDescriptionDataEEC1EPS1_)
    QExplicitlySharedDataPointer<Phonon::ObjectDescriptionData>::QExplicitlySharedDataPointer(const QExplicitlySharedDataPointer<Phonon::ObjectDescriptionData>&) 0x0001ac2b   Thumb Code    26  audiooutput.o(t._ZN28QExplicitlySharedDataPointerIN6Phonon21ObjectDescriptionDataEEC1ERKS2_)
    QExplicitlySharedDataPointer<Phonon::ObjectDescriptionData>::QExplicitlySharedDataPointer__sub_object(const QExplicitlySharedDataPointer<Phonon::ObjectDescriptionData>&) 0x0001ac2b   Thumb Code     0  audiooutput.o(t._ZN28QExplicitlySharedDataPointerIN6Phonon21ObjectDescriptionDataEEC1ERKS2_)
    QExplicitlySharedDataPointer<Phonon::ObjectDescriptionData>::~QExplicitlySharedDataPointer() 0x0001ac45   Thumb Code    42  audiooutput.o(t._ZN28QExplicitlySharedDataPointerIN6Phonon21ObjectDescriptionDataEED1Ev)
    QExplicitlySharedDataPointer<Phonon::ObjectDescriptionData>::~QExplicitlySharedDataPointer__sub_object() 0x0001ac45   Thumb Code     0  audiooutput.o(t._ZN28QExplicitlySharedDataPointerIN6Phonon21ObjectDescriptionDataEED1Ev)
    QExplicitlySharedDataPointer<Phonon::EffectParameterPrivate>::QExplicitlySharedDataPointer(Phonon::EffectParameterPrivate*) 0x0001ac6f   Thumb Code    24  effectparameter.o(t._ZN28QExplicitlySharedDataPointerIN6Phonon22EffectParameterPrivateEEC1EPS1_)
    QExplicitlySharedDataPointer<Phonon::EffectParameterPrivate>::QExplicitlySharedDataPointer__sub_object(Phonon::EffectParameterPrivate*) 0x0001ac6f   Thumb Code     0  effectparameter.o(t._ZN28QExplicitlySharedDataPointerIN6Phonon22EffectParameterPrivateEEC1EPS1_)
    QExplicitlySharedDataPointer<Phonon::EffectParameterPrivate>::~QExplicitlySharedDataPointer() 0x0001ac87   Thumb Code    42  effectparameter.o(t._ZN28QExplicitlySharedDataPointerIN6Phonon22EffectParameterPrivateEED1Ev)
    QExplicitlySharedDataPointer<Phonon::EffectParameterPrivate>::~QExplicitlySharedDataPointer__sub_object() 0x0001ac87   Thumb Code     0  effectparameter.o(t._ZN28QExplicitlySharedDataPointerIN6Phonon22EffectParameterPrivateEED1Ev)
    QMap<QString, QString>::node_create(QMapData*, QMapData::Node**, const QString&, const QString&) 0x0001acb1   Thumb Code   140  mediaobject.o(t._ZN4QMapI7QStringS0_E11node_createEP8QMapDataPPNS2_4NodeERKS0_S8_)
    QMap<QString, QString>::detach_helper()  0x0001ad63   Thumb Code   146  mediaobject.o(t._ZN4QMapI7QStringS0_E13detach_helperEv)
    QMap<QString, QString>::freeData(QMapData*) 0x0001adfd   Thumb Code    62  mediaobject.o(t._ZN4QMapI7QStringS0_E8freeDataEP8QMapData)
    QMap<QString, QString>::~QMap()          0x0001ae3b   Thumb Code    38  mediaobject.o(t._ZN4QMapI7QStringS0_ED1Ev)
    QMap<QString, QString>::~QMap__sub_object() 0x0001ae3b   Thumb Code     0  mediaobject.o(t._ZN4QMapI7QStringS0_ED1Ev)
    QMap<Phonon::AudioDataOutput::Channel, QVector<short>>::node_create(QMapData*, QMapData::Node**, const Phonon::AudioDataOutput::Channel&, const QVector<short>&) 0x0001ae61   Thumb Code   150  audiodataoutput.o(t._ZN4QMapIN6Phonon15AudioDataOutput7ChannelE7QVectorIsEE11node_createEP8QMapDataPPNS6_4NodeERKS2_RKS4_)
    QMap<Phonon::AudioDataOutput::Channel, QVector<short>>::detach_helper() 0x0001af13   Thumb Code   146  audiodataoutput.o(t._ZN4QMapIN6Phonon15AudioDataOutput7ChannelE7QVectorIsEE13detach_helperEv)
    QMap<Phonon::AudioDataOutput::Channel, QVector<short>>::freeData(QMapData*) 0x0001afad   Thumb Code    84  audiodataoutput.o(t._ZN4QMapIN6Phonon15AudioDataOutput7ChannelE7QVectorIsEE8freeDataEP8QMapData)
    QSet<QObject*>::QSet(const QSet<QObject*>&) 0x0001b001   Thumb Code    42  path.o(t._ZN4QSetIP7QObjectEC1ERKS2_)
    QSet<QObject*>::QSet__sub_object(const QSet<QObject*>&) 0x0001b001   Thumb Code     0  path.o(t._ZN4QSetIP7QObjectEC1ERKS2_)
    QSet<QObject*>::operator <<(QObject*const &) 0x0001b02b   Thumb Code    50  path.o(t._ZN4QSetIP7QObjectElsERKS1_)
    QHash<QByteArray, QVariant>::deleteNode2(QHashData::Node*) 0x0001b05d   Thumb Code    36  globalconfig.o(t._ZN5QHashI10QByteArray8QVariantE11deleteNode2EPN9QHashData4NodeE)
    QHash<QByteArray, QVariant>::detach_helper() 0x0001b08d   Thumb Code    52  globalconfig.o(t._ZN5QHashI10QByteArray8QVariantE13detach_helperEv)
    QHash<QByteArray, QVariant>::duplicateNode(QHashData::Node*, void*) 0x0001b0c9   Thumb Code    76  globalconfig.o(t._ZN5QHashI10QByteArray8QVariantE13duplicateNodeEPN9QHashData4NodeEPv)
    QHash<QByteArray, QVariant>::freeData(QHashData*) 0x0001b131   Thumb Code    16  globalconfig.o(t._ZN5QHashI10QByteArray8QVariantE8freeDataEP9QHashData)
    QHash<QByteArray, QVariant>::~QHash()    0x0001b145   Thumb Code    30  globalconfig.o(t._ZN5QHashI10QByteArray8QVariantED1Ev)
    QHash<QByteArray, QVariant>::~QHash__sub_object() 0x0001b145   Thumb Code     0  globalconfig.o(t._ZN5QHashI10QByteArray8QVariantED1Ev)
    QHash<QByteArray, QVariant>::operator =(const QHash<QByteArray, QVariant>&) 0x0001b163   Thumb Code    70  globalconfig.o(t._ZN5QHashI10QByteArray8QVariantEaSERKS2_)
    QHash<Phonon::EffectParameter, QVariant>::deleteNode2(QHashData::Node*) 0x0001b1a9   Thumb Code    36  effect.o(t._ZN5QHashIN6Phonon15EffectParameterE8QVariantE11deleteNode2EPN9QHashData4NodeE)
    QHash<Phonon::EffectParameter, QVariant>::detach_helper() 0x0001b1d9   Thumb Code    52  effect.o(t._ZN5QHashIN6Phonon15EffectParameterE8QVariantE13detach_helperEv)
    QHash<Phonon::EffectParameter, QVariant>::duplicateNode(QHashData::Node*, void*) 0x0001b215   Thumb Code    48  effect.o(t._ZN5QHashIN6Phonon15EffectParameterE8QVariantE13duplicateNodeEPN9QHashData4NodeEPv)
    QHash<Phonon::EffectParameter, QVariant>::freeData(QHashData*) 0x0001b255   Thumb Code    16  effect.o(t._ZN5QHashIN6Phonon15EffectParameterE8QVariantE8freeDataEP9QHashData)
    QHash<Phonon::EffectParameter, QVariant>::~QHash() 0x0001b269   Thumb Code    30  effect.o(t._ZN5QHashIN6Phonon15EffectParameterE8QVariantED1Ev)
    QHash<Phonon::EffectParameter, QVariant>::~QHash__sub_object() 0x0001b269   Thumb Code     0  effect.o(t._ZN5QHashIN6Phonon15EffectParameterE8QVariantED1Ev)
    QHash<Phonon::EffectParameter, QVariant>::operator [](const Phonon::EffectParameter&) 0x0001b287   Thumb Code   242  effect.o(t._ZN5QHashIN6Phonon15EffectParameterE8QVariantEixERKS1_)
    QHash<QObject*, QHashDummyValue>::deleteNode2(QHashData::Node*) 0x0001b391   Thumb Code     6  path.o(t._ZN5QHashIP7QObject15QHashDummyValueE11deleteNode2EPN9QHashData4NodeE)
    QHash<QObject*, QHashDummyValue>::detach_helper() 0x0001b399   Thumb Code    52  path.o(t._ZN5QHashIP7QObject15QHashDummyValueE13detach_helperEv)
    QHash<QObject*, QHashDummyValue>::duplicateNode(QHashData::Node*, void*) 0x0001b3d5   Thumb Code    42  path.o(t._ZN5QHashIP7QObject15QHashDummyValueE13duplicateNodeEPN9QHashData4NodeEPv)
    QHash<QObject*, QHashDummyValue>::detach() 0x0001b3ff   Thumb Code    28  path.o(t._ZN5QHashIP7QObject15QHashDummyValueE6detachEv)
    QHash<QObject*, QHashDummyValue>::insert(QObject*const &, const QHashDummyValue&) 0x0001b41b   Thumb Code   192  path.o(t._ZN5QHashIP7QObject15QHashDummyValueE6insertERKS1_RKS2_)
    QHash<QObject*, QHashDummyValue>::freeData(QHashData*) 0x0001b4e1   Thumb Code    16  path.o(t._ZN5QHashIP7QObject15QHashDummyValueE8freeDataEP9QHashData)
    QHash<QObject*, QHashDummyValue>::~QHash() 0x0001b4f5   Thumb Code    30  path.o(t._ZN5QHashIP7QObject15QHashDummyValueED1Ev)
    QHash<QObject*, QHashDummyValue>::~QHash__sub_object() 0x0001b4f5   Thumb Code     0  path.o(t._ZN5QHashIP7QObject15QHashDummyValueED1Ev)
    QHash<QObject*, Phonon::EffectParameter>::createNode(unsigned, QObject*const &, const Phonon::EffectParameter&, QHashNode<QObject*, Phonon::EffectParameter>**) 0x0001b513   Thumb Code   100  effectwidget.o(t._ZN5QHashIP7QObjectN6Phonon15EffectParameterEE10createNodeEjRKS1_RKS3_PP9QHashNodeIS1_S3_E)
    QHash<QObject*, Phonon::EffectParameter>::deleteNode2(QHashData::Node*) 0x0001b585   Thumb Code    24  effectwidget.o(t._ZN5QHashIP7QObjectN6Phonon15EffectParameterEE11deleteNode2EPN9QHashData4NodeE)
    QHash<QObject*, Phonon::EffectParameter>::detach_helper() 0x0001b59d   Thumb Code    52  effectwidget.o(t._ZN5QHashIP7QObjectN6Phonon15EffectParameterEE13detach_helperEv)
    QHash<QObject*, Phonon::EffectParameter>::duplicateNode(QHashData::Node*, void*) 0x0001b5d9   Thumb Code    46  effectwidget.o(t._ZN5QHashIP7QObjectN6Phonon15EffectParameterEE13duplicateNodeEPN9QHashData4NodeEPv)
    QHash<QObject*, Phonon::EffectParameter>::detach() 0x0001b615   Thumb Code    34  effectwidget.o(t._ZN5QHashIP7QObjectN6Phonon15EffectParameterEE6detachEv)
    QHash<QObject*, Phonon::EffectParameter>::freeData(QHashData*) 0x0001b639   Thumb Code    16  effectwidget.o(t._ZN5QHashIP7QObjectN6Phonon15EffectParameterEE8freeDataEP9QHashData)
    QHash<QObject*, Phonon::EffectParameter>::~QHash() 0x0001b64d   Thumb Code    30  effectwidget.o(t._ZN5QHashIP7QObjectN6Phonon15EffectParameterEED1Ev)
    QHash<QObject*, Phonon::EffectParameter>::~QHash__sub_object() 0x0001b64d   Thumb Code     0  effectwidget.o(t._ZN5QHashIP7QObjectN6Phonon15EffectParameterEED1Ev)
    QHash<QObject*, Phonon::EffectParameter>::operator [](QObject*const &) 0x0001b66b   Thumb Code   106  effectwidget.o(t._ZN5QHashIP7QObjectN6Phonon15EffectParameterEEixERKS1_)
    QHash<int, QHashDummyValue>::deleteNode2(QHashData::Node*) 0x0001b6df   Thumb Code     6  globalconfig.o(t._ZN5QHashIi15QHashDummyValueE11deleteNode2EPN9QHashData4NodeE)
    QHash<int, QHashDummyValue>::detach_helper() 0x0001b6e5   Thumb Code    52  globalconfig.o(t._ZN5QHashIi15QHashDummyValueE13detach_helperEv)
    QHash<int, QHashDummyValue>::duplicateNode(QHashData::Node*, void*) 0x0001b721   Thumb Code    36  globalconfig.o(t._ZN5QHashIi15QHashDummyValueE13duplicateNodeEPN9QHashData4NodeEPv)
    QHash<int, QHashDummyValue>::insert(const int&, const QHashDummyValue&) 0x0001b745   Thumb Code   206  globalconfig.o(t._ZN5QHashIi15QHashDummyValueE6insertERKiRKS0_)
    QHash<int, QHashDummyValue>::freeData(QHashData*) 0x0001b819   Thumb Code    16  globalconfig.o(t._ZN5QHashIi15QHashDummyValueE8freeDataEP9QHashData)
    QHash<int, QHashDummyValue>::~QHash()    0x0001b82d   Thumb Code    30  globalconfig.o(t._ZN5QHashIi15QHashDummyValueED1Ev)
    QHash<int, QHashDummyValue>::~QHash__sub_object() 0x0001b82d   Thumb Code     0  globalconfig.o(t._ZN5QHashIi15QHashDummyValueED1Ev)
    QList<QByteArray>::detach_helper(int)    0x0001b84b   Thumb Code    94  objectdescription.o(t._ZN5QListI10QByteArrayE13detach_helperEi)
    QList<QByteArray>::node_destruct(QList<QByteArray>::Node*, QList<QByteArray>::Node*) 0x0001b8b1   Thumb Code    26  objectdescription.o(t._ZN5QListI10QByteArrayE13node_destructEPNS1_4NodeES3_)
    QList<QByteArray>::node_construct(QList<QByteArray>::Node*, const QByteArray&) 0x0001b8cb   Thumb Code    36  objectdescription.o(t._ZN5QListI10QByteArrayE14node_constructEPNS1_4NodeERKS0_)
    QList<QByteArray>::detach_helper_grow(int, int) 0x0001b8fd   Thumb Code   208  objectdescription.o(t._ZN5QListI10QByteArrayE18detach_helper_growEii)
    QList<QByteArray>::free(QListData::Data*) 0x0001b9dd   Thumb Code    58  objectdescription.o(t._ZN5QListI10QByteArrayE4freeEPN9QListData4DataE)
    QList<QByteArray>::append(const QByteArray&) 0x0001ba19   Thumb Code   114  objectdescription.o(t._ZN5QListI10QByteArrayE6appendERKS0_)
    QList<QByteArray>::reserve(int)          0x0001ba9f   Thumb Code    46  objectdescription.o(t._ZN5QListI10QByteArrayE7reserveEi)
    QList<QByteArray>::node_copy(QList<QByteArray>::Node*, QList<QByteArray>::Node*, QList<QByteArray>::Node*) 0x0001bacd   Thumb Code    82  objectdescription.o(t._ZN5QListI10QByteArrayE9node_copyEPNS1_4NodeES3_S3_)
    QList<QByteArray>::QList()               0x0001bb35   Thumb Code    18  objectdescription.o(t._ZN5QListI10QByteArrayEC1Ev)
    QList<QByteArray>::QList__sub_object()   0x0001bb35   Thumb Code     0  objectdescription.o(t._ZN5QListI10QByteArrayEC1Ev)
    QList<QByteArray>::~QList()              0x0001bb4d   Thumb Code    32  objectdescription.o(t._ZN5QListI10QByteArrayED1Ev)
    QList<QByteArray>::~QList__sub_object()  0x0001bb4d   Thumb Code     0  objectdescription.o(t._ZN5QListI10QByteArrayED1Ev)
    QList<QModelIndex>::node_destruct(QList<QModelIndex>::Node*, QList<QModelIndex>::Node*) 0x0001bb6d   Thumb Code    38  objectdescriptionmodel.o(t._ZN5QListI11QModelIndexE13node_destructEPNS1_4NodeES3_)
    QList<QModelIndex>::node_construct(QList<QModelIndex>::Node*, const QModelIndex&) 0x0001bb93   Thumb Code    34  objectdescriptionmodel.o(t._ZN5QListI11QModelIndexE14node_constructEPNS1_4NodeERKS0_)
    QList<QModelIndex>::detach_helper_grow(int, int) 0x0001bbc3   Thumb Code   208  objectdescriptionmodel.o(t._ZN5QListI11QModelIndexE18detach_helper_growEii)
    QList<QModelIndex>::free(QListData::Data*) 0x0001bca3   Thumb Code    52  objectdescriptionmodel.o(t._ZN5QListI11QModelIndexE4freeEPN9QListData4DataE)
    QList<QModelIndex>::append(const QModelIndex&) 0x0001bcd9   Thumb Code   106  objectdescriptionmodel.o(t._ZN5QListI11QModelIndexE6appendERKS0_)
    QList<QModelIndex>::node_copy(QList<QModelIndex>::Node*, QList<QModelIndex>::Node*, QList<QModelIndex>::Node*) 0x0001bd57   Thumb Code    92  objectdescriptionmodel.o(t._ZN5QListI11QModelIndexE9node_copyEPNS1_4NodeES3_S3_)
    QList<QModelIndex>::QList()              0x0001bdc9   Thumb Code    18  objectdescriptionmodel.o(t._ZN5QListI11QModelIndexEC1Ev)
    QList<QModelIndex>::QList__sub_object()  0x0001bdc9   Thumb Code     0  objectdescriptionmodel.o(t._ZN5QListI11QModelIndexEC1Ev)
    QList<QModelIndex>::~QList()             0x0001bde1   Thumb Code    32  objectdescriptionmodel.o(t._ZN5QListI11QModelIndexED1Ev)
    QList<QModelIndex>::~QList__sub_object() 0x0001bde1   Thumb Code     0  objectdescriptionmodel.o(t._ZN5QListI11QModelIndexED1Ev)
    QList<QModelIndex>::operator <<(const QModelIndex&) 0x0001be01   Thumb Code    18  objectdescriptionmodel.o(t._ZN5QListI11QModelIndexElsERKS0_)
    QList<QExplicitlySharedDataPointer<Phonon::ObjectDescriptionData>>::detach_helper(int) 0x0001be13   Thumb Code    94  objectdescriptionmodel.o(t._ZN5QListI28QExplicitlySharedDataPointerIN6Phonon21ObjectDescriptionDataEEE13detach_helperEi)
    QList<QExplicitlySharedDataPointer<Phonon::ObjectDescriptionData>>::detach_helper() 0x0001be79   Thumb Code    16  objectdescriptionmodel.o(t._ZN5QListI28QExplicitlySharedDataPointerIN6Phonon21ObjectDescriptionDataEEE13detach_helperEv)
    QList<QExplicitlySharedDataPointer<Phonon::ObjectDescriptionData>>::node_destruct(QList<QExplicitlySharedDataPointer<Phonon::ObjectDescriptionData>>::Node*) 0x0001be89   Thumb Code    28  objectdescriptionmodel.o(t._ZN5QListI28QExplicitlySharedDataPointerIN6Phonon21ObjectDescriptionDataEEE13node_destructEPNS4_4NodeE)
    QList<QExplicitlySharedDataPointer<Phonon::ObjectDescriptionData>>::node_destruct(QList<QExplicitlySharedDataPointer<Phonon::ObjectDescriptionData>>::Node*, QList<QExplicitlySharedDataPointer<Phonon::ObjectDescriptionData>>::Node*) 0x0001bea5   Thumb Code    38  objectdescriptionmodel.o(t._ZN5QListI28QExplicitlySharedDataPointerIN6Phonon21ObjectDescriptionDataEEE13node_destructEPNS4_4NodeES6_)
    QList<QExplicitlySharedDataPointer<Phonon::ObjectDescriptionData>>::node_construct(QList<QExplicitlySharedDataPointer<Phonon::ObjectDescriptionData>>::Node*, const QExplicitlySharedDataPointer<Phonon::ObjectDescriptionData>&) 0x0001becb   Thumb Code    34  objectdescriptionmodel.o(t._ZN5QListI28QExplicitlySharedDataPointerIN6Phonon21ObjectDescriptionDataEEE14node_constructEPNS4_4NodeERKS3_)
    QList<QExplicitlySharedDataPointer<Phonon::ObjectDescriptionData>>::detach_helper_grow(int, int) 0x0001befb   Thumb Code   208  objectdescriptionmodel.o(t._ZN5QListI28QExplicitlySharedDataPointerIN6Phonon21ObjectDescriptionDataEEE18detach_helper_growEii)
    QList<QExplicitlySharedDataPointer<Phonon::ObjectDescriptionData>>::free(QListData::Data*) 0x0001bfdb   Thumb Code    52  objectdescriptionmodel.o(t._ZN5QListI28QExplicitlySharedDataPointerIN6Phonon21ObjectDescriptionDataEEE4freeEPN9QListData4DataE)
    QList<QExplicitlySharedDataPointer<Phonon::ObjectDescriptionData>>::swap(int, int) 0x0001c011   Thumb Code   118  objectdescriptionmodel.o(t._ZN5QListI28QExplicitlySharedDataPointerIN6Phonon21ObjectDescriptionDataEEE4swapEii)
    QList<QExplicitlySharedDataPointer<Phonon::ObjectDescriptionData>>::append(const QExplicitlySharedDataPointer<Phonon::ObjectDescriptionData>&) 0x0001c0ed   Thumb Code   106  objectdescriptionmodel.o(t._ZN5QListI28QExplicitlySharedDataPointerIN6Phonon21ObjectDescriptionDataEEE6appendERKS3_)
    QList<QExplicitlySharedDataPointer<Phonon::ObjectDescriptionData>>::detach() 0x0001c16b   Thumb Code    24  objectdescriptionmodel.o(t._ZN5QListI28QExplicitlySharedDataPointerIN6Phonon21ObjectDescriptionDataEEE6detachEv)
    QList<QExplicitlySharedDataPointer<Phonon::ObjectDescriptionData>>::node_copy(QList<QExplicitlySharedDataPointer<Phonon::ObjectDescriptionData>>::Node*, QList<QExplicitlySharedDataPointer<Phonon::ObjectDescriptionData>>::Node*, QList<QExplicitlySharedDataPointer<Phonon::ObjectDescriptionData>>::Node*) 0x0001c183   Thumb Code    92  objectdescriptionmodel.o(t._ZN5QListI28QExplicitlySharedDataPointerIN6Phonon21ObjectDescriptionDataEEE9node_copyEPNS4_4NodeES6_S6_)
    QList<QExplicitlySharedDataPointer<Phonon::ObjectDescriptionData>>::QList() 0x0001c1f5   Thumb Code    18  objectdescriptionmodel.o(t._ZN5QListI28QExplicitlySharedDataPointerIN6Phonon21ObjectDescriptionDataEEEC1Ev)
    QList<QExplicitlySharedDataPointer<Phonon::ObjectDescriptionData>>::QList__sub_object() 0x0001c1f5   Thumb Code     0  objectdescriptionmodel.o(t._ZN5QListI28QExplicitlySharedDataPointerIN6Phonon21ObjectDescriptionDataEEEC1Ev)
    QList<QExplicitlySharedDataPointer<Phonon::ObjectDescriptionData>>::~QList() 0x0001c20d   Thumb Code    32  objectdescriptionmodel.o(t._ZN5QListI28QExplicitlySharedDataPointerIN6Phonon21ObjectDescriptionDataEEED1Ev)
    QList<QExplicitlySharedDataPointer<Phonon::ObjectDescriptionData>>::~QList__sub_object() 0x0001c20d   Thumb Code     0  objectdescriptionmodel.o(t._ZN5QListI28QExplicitlySharedDataPointerIN6Phonon21ObjectDescriptionDataEEED1Ev)
    QList<QPair<QObject*, QObject*>>::node_destruct(QList<QPair<QObject*, QObject*>>::Node*, QList<QPair<QObject*, QObject*>>::Node*) 0x0001c22d   Thumb Code    26  path.o(t._ZN5QListI5QPairIP7QObjectS2_EE13node_destructEPNS4_4NodeES6_)
    QList<QPair<QObject*, QObject*>>::node_construct(QList<QPair<QObject*, QObject*>>::Node*, const QPair<QObject*, QObject*>&) 0x0001c247   Thumb Code    34  path.o(t._ZN5QListI5QPairIP7QObjectS2_EE14node_constructEPNS4_4NodeERKS3_)
    QList<QPair<QObject*, QObject*>>::detach_helper_grow(int, int) 0x0001c26d   Thumb Code   208  path.o(t._ZN5QListI5QPairIP7QObjectS2_EE18detach_helper_growEii)
    QList<QPair<QObject*, QObject*>>::free(QListData::Data*) 0x0001c34d   Thumb Code    58  path.o(t._ZN5QListI5QPairIP7QObjectS2_EE4freeEPN9QListData4DataE)
    QList<QPair<QObject*, QObject*>>::append(const QPair<QObject*, QObject*>&) 0x0001c389   Thumb Code   106  path.o(t._ZN5QListI5QPairIP7QObjectS2_EE6appendERKS3_)
    QList<QPair<QObject*, QObject*>>::node_copy(QList<QPair<QObject*, QObject*>>::Node*, QList<QPair<QObject*, QObject*>>::Node*, QList<QPair<QObject*, QObject*>>::Node*) 0x0001c407   Thumb Code    80  path.o(t._ZN5QListI5QPairIP7QObjectS2_EE9node_copyEPNS4_4NodeES6_S6_)
    QList<QPair<QObject*, QObject*>>::QList() 0x0001c46d   Thumb Code    18  path.o(t._ZN5QListI5QPairIP7QObjectS2_EEC1Ev)
    QList<QPair<QObject*, QObject*>>::QList__sub_object() 0x0001c46d   Thumb Code     0  path.o(t._ZN5QListI5QPairIP7QObjectS2_EEC1Ev)
    QList<QPair<QObject*, QObject*>>::~QList() 0x0001c485   Thumb Code    32  path.o(t._ZN5QListI5QPairIP7QObjectS2_EED1Ev)
    QList<QPair<QObject*, QObject*>>::~QList__sub_object() 0x0001c485   Thumb Code     0  path.o(t._ZN5QListI5QPairIP7QObjectS2_EED1Ev)
    QList<QPair<QObject*, QObject*>>::operator <<(const QPair<QObject*, QObject*>&) 0x0001c4a5   Thumb Code    18  path.o(t._ZN5QListI5QPairIP7QObjectS2_EElsERKS3_)
    QList<QString>::detach_helper(int)       0x0001c4b7   Thumb Code    94  factory.o(t._ZN5QListI7QStringE13detach_helperEi)
    QList<QString>::detach_helper()          0x0001c51d   Thumb Code    16  factory.o(t._ZN5QListI7QStringE13detach_helperEv)
    QList<QString>::node_destruct(QList<QString>::Node*, QList<QString>::Node*) 0x0001c52d   Thumb Code    26  audiooutput.o(t._ZN5QListI7QStringE13node_destructEPNS1_4NodeES3_)
    QList<QString>::node_construct(QList<QString>::Node*, const QString&) 0x0001c547   Thumb Code    36  audiooutput.o(t._ZN5QListI7QStringE14node_constructEPNS1_4NodeERKS0_)
    QList<QString>::detach_helper_grow(int, int) 0x0001c579   Thumb Code   208  factory.o(t._ZN5QListI7QStringE18detach_helper_growEii)
    QList<QString>::free(QListData::Data*)   0x0001c659   Thumb Code    52  factory.o(t._ZN5QListI7QStringE4freeEPN9QListData4DataE)
    QList<QString>::first()                  0x0001c68d   Thumb Code    94  objectdescriptionmodel.o(t._ZN5QListI7QStringE5firstEv)
    QList<QString>::append(const QString&)   0x0001c735   Thumb Code   114  audiooutput.o(t._ZN5QListI7QStringE6appendERKS0_)
    QList<QString>::node_copy(QList<QString>::Node*, QList<QString>::Node*, QList<QString>::Node*) 0x0001c7bb   Thumb Code    82  audiooutput.o(t._ZN5QListI7QStringE9node_copyEPNS1_4NodeES3_S3_)
    QList<QString>::QList()                  0x0001c825   Thumb Code    18  audiooutput.o(t._ZN5QListI7QStringEC1Ev)
    QList<QString>::QList__sub_object()      0x0001c825   Thumb Code     0  audiooutput.o(t._ZN5QListI7QStringEC1Ev)
    QList<QString>::~QList()                 0x0001c83d   Thumb Code    32  audiooutput.o(t._ZN5QListI7QStringED1Ev)
    QList<QString>::~QList__sub_object()     0x0001c83d   Thumb Code     0  audiooutput.o(t._ZN5QListI7QStringED1Ev)
    QList<QVariant>::detach_helper(int)      0x0001c85d   Thumb Code   206  effectparameter.o(t._ZN5QListI8QVariantE13detach_helperEi)
    QList<QVariant>::detach_helper()         0x0001c94b   Thumb Code    16  effectparameter.o(t._ZN5QListI8QVariantE13detach_helperEv)
    QList<QVariant>::node_destruct(QList<QVariant>::Node*, QList<QVariant>::Node*) 0x0001c95b   Thumb Code    38  factory.o(t._ZN5QListI8QVariantE13node_destructEPNS1_4NodeES3_)
    QList<QVariant>::node_construct(QList<QVariant>::Node*, const QVariant&) 0x0001c981   Thumb Code    34  factory.o(t._ZN5QListI8QVariantE14node_constructEPNS1_4NodeERKS0_)
    QList<QVariant>::detach_helper_grow(int, int) 0x0001c9b1   Thumb Code   208  factory.o(t._ZN5QListI8QVariantE18detach_helper_growEii)
    QList<QVariant>::free(QListData::Data*)  0x0001ca91   Thumb Code    52  factory.o(t._ZN5QListI8QVariantE4freeEPN9QListData4DataE)
    QList<QVariant>::append(const QVariant&) 0x0001cac5   Thumb Code   106  factory.o(t._ZN5QListI8QVariantE6appendERKS0_)
    QList<QVariant>::node_copy(QList<QVariant>::Node*, QList<QVariant>::Node*, QList<QVariant>::Node*) 0x0001cb43   Thumb Code    92  factory.o(t._ZN5QListI8QVariantE9node_copyEPNS1_4NodeES3_S3_)
    QList<QVariant>::QList()                 0x0001cbb5   Thumb Code    18  factory.o(t._ZN5QListI8QVariantEC1Ev)
    QList<QVariant>::QList__sub_object()     0x0001cbb5   Thumb Code     0  factory.o(t._ZN5QListI8QVariantEC1Ev)
    QList<QVariant>::~QList()                0x0001cbcd   Thumb Code    32  effectparameter.o(t._ZN5QListI8QVariantED1Ev)
    QList<QVariant>::~QList__sub_object()    0x0001cbcd   Thumb Code     0  effectparameter.o(t._ZN5QListI8QVariantED1Ev)
    QList<QVariant>::operator <<(const QVariant&) 0x0001cbed   Thumb Code    18  mediacontroller.o(t._ZN5QListI8QVariantElsERKS0_)
    QList<Phonon::MediaSource>::detach_helper(int) 0x0001cbff   Thumb Code    94  mediaobject.o(t._ZN5QListIN6Phonon11MediaSourceEE13detach_helperEi)
    QList<Phonon::MediaSource>::detach_helper() 0x0001cc65   Thumb Code    16  mediaobject.o(t._ZN5QListIN6Phonon11MediaSourceEE13detach_helperEv)
    QList<Phonon::MediaSource>::node_destruct(QList<Phonon::MediaSource>::Node*) 0x0001cc75   Thumb Code    28  mediaobject.o(t._ZN5QListIN6Phonon11MediaSourceEE13node_destructEPNS2_4NodeE)
    QList<Phonon::MediaSource>::node_destruct(QList<Phonon::MediaSource>::Node*, QList<Phonon::MediaSource>::Node*) 0x0001cc91   Thumb Code    38  mediaobject.o(t._ZN5QListIN6Phonon11MediaSourceEE13node_destructEPNS2_4NodeES4_)
    QList<Phonon::MediaSource>::node_construct(QList<Phonon::MediaSource>::Node*, const Phonon::MediaSource&) 0x0001ccb7   Thumb Code    34  mediaobject.o(t._ZN5QListIN6Phonon11MediaSourceEE14node_constructEPNS2_4NodeERKS1_)
    QList<Phonon::MediaSource>::detach_helper_grow(int, int) 0x0001cce7   Thumb Code   208  mediaobject.o(t._ZN5QListIN6Phonon11MediaSourceEE18detach_helper_growEii)
    QList<Phonon::MediaSource>::free(QListData::Data*) 0x0001cdc7   Thumb Code    58  mediaobject.o(t._ZN5QListIN6Phonon11MediaSourceEE4freeEPN9QListData4DataE)
    QList<Phonon::MediaSource>::begin()      0x0001ce01   Thumb Code    40  mediaobject.o(t._ZN5QListIN6Phonon11MediaSourceEE5beginEv)
    QList<Phonon::MediaSource>::clear()      0x0001ce29   Thumb Code    76  mediaobject.o(t._ZN5QListIN6Phonon11MediaSourceEE5clearEv)
    QList<Phonon::MediaSource>::first()      0x0001ce81   Thumb Code    48  mediaobject.o(t._ZN5QListIN6Phonon11MediaSourceEE5firstEv)
    QList<Phonon::MediaSource>::append(const Phonon::MediaSource&) 0x0001cef9   Thumb Code   106  mediaobject.o(t._ZN5QListIN6Phonon11MediaSourceEE6appendERKS1_)
    QList<Phonon::MediaSource>::node_copy(QList<Phonon::MediaSource>::Node*, QList<Phonon::MediaSource>::Node*, QList<Phonon::MediaSource>::Node*) 0x0001cf77   Thumb Code    92  mediaobject.o(t._ZN5QListIN6Phonon11MediaSourceEE9node_copyEPNS2_4NodeES4_S4_)
    QList<Phonon::MediaSource>::takeFirst()  0x0001cfe9   Thumb Code    92  mediaobject.o(t._ZN5QListIN6Phonon11MediaSourceEE9takeFirstEv)
    QList<Phonon::MediaSource>::QList()      0x0001d099   Thumb Code    18  mediaobject.o(t._ZN5QListIN6Phonon11MediaSourceEEC1Ev)
    QList<Phonon::MediaSource>::QList__sub_object() 0x0001d099   Thumb Code     0  mediaobject.o(t._ZN5QListIN6Phonon11MediaSourceEEC1Ev)
    QList<Phonon::MediaSource>::~QList()     0x0001d0b1   Thumb Code    32  mediaobject.o(t._ZN5QListIN6Phonon11MediaSourceEED1Ev)
    QList<Phonon::MediaSource>::~QList__sub_object() 0x0001d0b1   Thumb Code     0  mediaobject.o(t._ZN5QListIN6Phonon11MediaSourceEED1Ev)
    QList<Phonon::EffectParameter>::free(QListData::Data*) 0x0001d0d1   Thumb Code    82  effect.o(t._ZN5QListIN6Phonon15EffectParameterEE4freeEPN9QListData4DataE)
    QList<Phonon::EffectParameter>::~QList() 0x0001d123   Thumb Code    32  effect.o(t._ZN5QListIN6Phonon15EffectParameterEED1Ev)
    QList<Phonon::EffectParameter>::~QList__sub_object() 0x0001d123   Thumb Code     0  effect.o(t._ZN5QListIN6Phonon15EffectParameterEED1Ev)
    QList<Phonon::ObjectDescription<(Phonon::ObjectDescriptionType)0>>::node_destruct(QList<Phonon::ObjectDescription<(Phonon::ObjectDescriptionType)0>>::Node*, QList<Phonon::ObjectDescription<(Phonon::ObjectDescriptionType)0>>::Node*) 0x0001d143   Thumb Code    38  backendcapabilities.o(t._ZN5QListIN6Phonon17ObjectDescriptionILNS0_21ObjectDescriptionTypeE0EEEE13node_destructEPNS4_4NodeES6_)
    QList<Phonon::ObjectDescription<(Phonon::ObjectDescriptionType)0>>::node_construct(QList<Phonon::ObjectDescription<(Phonon::ObjectDescriptionType)0>>::Node*, const Phonon::ObjectDescription<(Phonon::ObjectDescriptionType)0>&) 0x0001d169   Thumb Code    34  backendcapabilities.o(t._ZN5QListIN6Phonon17ObjectDescriptionILNS0_21ObjectDescriptionTypeE0EEEE14node_constructEPNS4_4NodeERKS3_)
    QList<Phonon::ObjectDescription<(Phonon::ObjectDescriptionType)0>>::detach_helper_grow(int, int) 0x0001d199   Thumb Code   208  backendcapabilities.o(t._ZN5QListIN6Phonon17ObjectDescriptionILNS0_21ObjectDescriptionTypeE0EEEE18detach_helper_growEii)
    QList<Phonon::ObjectDescription<(Phonon::ObjectDescriptionType)0>>::free(QListData::Data*) 0x0001d279   Thumb Code    52  backendcapabilities.o(t._ZN5QListIN6Phonon17ObjectDescriptionILNS0_21ObjectDescriptionTypeE0EEEE4freeEPN9QListData4DataE)
    QList<Phonon::ObjectDescription<(Phonon::ObjectDescriptionType)0>>::append(const Phonon::ObjectDescription<(Phonon::ObjectDescriptionType)0>&) 0x0001d2ad   Thumb Code   106  backendcapabilities.o(t._ZN5QListIN6Phonon17ObjectDescriptionILNS0_21ObjectDescriptionTypeE0EEEE6appendERKS3_)
    QList<Phonon::ObjectDescription<(Phonon::ObjectDescriptionType)0>>::node_copy(QList<Phonon::ObjectDescription<(Phonon::ObjectDescriptionType)0>>::Node*, QList<Phonon::ObjectDescription<(Phonon::ObjectDescriptionType)0>>::Node*, QList<Phonon::ObjectDescription<(Phonon::ObjectDescriptionType)0>>::Node*) 0x0001d32b   Thumb Code    92  backendcapabilities.o(t._ZN5QListIN6Phonon17ObjectDescriptionILNS0_21ObjectDescriptionTypeE0EEEE9node_copyEPNS4_4NodeES6_S6_)
    QList<Phonon::ObjectDescription<(Phonon::ObjectDescriptionType)0>>::~QList() 0x0001d39d   Thumb Code    32  backendcapabilities.o(t._ZN5QListIN6Phonon17ObjectDescriptionILNS0_21ObjectDescriptionTypeE0EEEED1Ev)
    QList<Phonon::ObjectDescription<(Phonon::ObjectDescriptionType)0>>::~QList__sub_object() 0x0001d39d   Thumb Code     0  backendcapabilities.o(t._ZN5QListIN6Phonon17ObjectDescriptionILNS0_21ObjectDescriptionTypeE0EEEED1Ev)
    QList<Phonon::ObjectDescription<(Phonon::ObjectDescriptionType)1>>::node_destruct(QList<Phonon::ObjectDescription<(Phonon::ObjectDescriptionType)1>>::Node*, QList<Phonon::ObjectDescription<(Phonon::ObjectDescriptionType)1>>::Node*) 0x0001d3bd   Thumb Code    38  backendcapabilities.o(t._ZN5QListIN6Phonon17ObjectDescriptionILNS0_21ObjectDescriptionTypeE1EEEE13node_destructEPNS4_4NodeES6_)
    QList<Phonon::ObjectDescription<(Phonon::ObjectDescriptionType)1>>::node_construct(QList<Phonon::ObjectDescription<(Phonon::ObjectDescriptionType)1>>::Node*, const Phonon::ObjectDescription<(Phonon::ObjectDescriptionType)1>&) 0x0001d3e3   Thumb Code    34  backendcapabilities.o(t._ZN5QListIN6Phonon17ObjectDescriptionILNS0_21ObjectDescriptionTypeE1EEEE14node_constructEPNS4_4NodeERKS3_)
    QList<Phonon::ObjectDescription<(Phonon::ObjectDescriptionType)1>>::detach_helper_grow(int, int) 0x0001d413   Thumb Code   208  backendcapabilities.o(t._ZN5QListIN6Phonon17ObjectDescriptionILNS0_21ObjectDescriptionTypeE1EEEE18detach_helper_growEii)
    QList<Phonon::ObjectDescription<(Phonon::ObjectDescriptionType)1>>::free(QListData::Data*) 0x0001d4f3   Thumb Code    52  backendcapabilities.o(t._ZN5QListIN6Phonon17ObjectDescriptionILNS0_21ObjectDescriptionTypeE1EEEE4freeEPN9QListData4DataE)
    QList<Phonon::ObjectDescription<(Phonon::ObjectDescriptionType)1>>::append(const Phonon::ObjectDescription<(Phonon::ObjectDescriptionType)1>&) 0x0001d529   Thumb Code   106  backendcapabilities.o(t._ZN5QListIN6Phonon17ObjectDescriptionILNS0_21ObjectDescriptionTypeE1EEEE6appendERKS3_)
    QList<Phonon::ObjectDescription<(Phonon::ObjectDescriptionType)1>>::node_copy(QList<Phonon::ObjectDescription<(Phonon::ObjectDescriptionType)1>>::Node*, QList<Phonon::ObjectDescription<(Phonon::ObjectDescriptionType)1>>::Node*, QList<Phonon::ObjectDescription<(Phonon::ObjectDescriptionType)1>>::Node*) 0x0001d5a7   Thumb Code    92  backendcapabilities.o(t._ZN5QListIN6Phonon17ObjectDescriptionILNS0_21ObjectDescriptionTypeE1EEEE9node_copyEPNS4_4NodeES6_S6_)
    QList<Phonon::ObjectDescription<(Phonon::ObjectDescriptionType)1>>::~QList() 0x0001d619   Thumb Code    32  backendcapabilities.o(t._ZN5QListIN6Phonon17ObjectDescriptionILNS0_21ObjectDescriptionTypeE1EEEED1Ev)
    QList<Phonon::ObjectDescription<(Phonon::ObjectDescriptionType)1>>::~QList__sub_object() 0x0001d619   Thumb Code     0  backendcapabilities.o(t._ZN5QListIN6Phonon17ObjectDescriptionILNS0_21ObjectDescriptionTypeE1EEEED1Ev)
    QList<Phonon::ObjectDescription<(Phonon::ObjectDescriptionType)2>>::detach_helper(int) 0x0001d639   Thumb Code   200  mediacontroller.o(t._ZN5QListIN6Phonon17ObjectDescriptionILNS0_21ObjectDescriptionTypeE2EEEE13detach_helperEi)
    QList<Phonon::ObjectDescription<(Phonon::ObjectDescriptionType)2>>::detach_helper() 0x0001d721   Thumb Code    16  mediacontroller.o(t._ZN5QListIN6Phonon17ObjectDescriptionILNS0_21ObjectDescriptionTypeE2EEEE13detach_helperEv)
    QList<Phonon::ObjectDescription<(Phonon::ObjectDescriptionType)2>>::free(QListData::Data*) 0x0001d731   Thumb Code    76  mediacontroller.o(t._ZN5QListIN6Phonon17ObjectDescriptionILNS0_21ObjectDescriptionTypeE2EEEE4freeEPN9QListData4DataE)
    QList<Phonon::ObjectDescription<(Phonon::ObjectDescriptionType)2>>::QList(const QList<Phonon::ObjectDescription<(Phonon::ObjectDescriptionType)2>>&) 0x0001d77d   Thumb Code    36  mediacontroller.o(t._ZN5QListIN6Phonon17ObjectDescriptionILNS0_21ObjectDescriptionTypeE2EEEEC1ERKS4_)
    QList<Phonon::ObjectDescription<(Phonon::ObjectDescriptionType)2>>::QList__sub_object(const QList<Phonon::ObjectDescription<(Phonon::ObjectDescriptionType)2>>&) 0x0001d77d   Thumb Code     0  mediacontroller.o(t._ZN5QListIN6Phonon17ObjectDescriptionILNS0_21ObjectDescriptionTypeE2EEEEC1ERKS4_)
    QList<Phonon::ObjectDescription<(Phonon::ObjectDescriptionType)2>>::QList() 0x0001d7a1   Thumb Code    18  mediacontroller.o(t._ZN5QListIN6Phonon17ObjectDescriptionILNS0_21ObjectDescriptionTypeE2EEEEC1Ev)
    QList<Phonon::ObjectDescription<(Phonon::ObjectDescriptionType)2>>::QList__sub_object() 0x0001d7a1   Thumb Code     0  mediacontroller.o(t._ZN5QListIN6Phonon17ObjectDescriptionILNS0_21ObjectDescriptionTypeE2EEEEC1Ev)
    QList<Phonon::ObjectDescription<(Phonon::ObjectDescriptionType)2>>::~QList() 0x0001d7b9   Thumb Code    32  mediacontroller.o(t._ZN5QListIN6Phonon17ObjectDescriptionILNS0_21ObjectDescriptionTypeE2EEEED1Ev)
    QList<Phonon::ObjectDescription<(Phonon::ObjectDescriptionType)2>>::~QList__sub_object() 0x0001d7b9   Thumb Code     0  mediacontroller.o(t._ZN5QListIN6Phonon17ObjectDescriptionILNS0_21ObjectDescriptionTypeE2EEEED1Ev)
    QList<Phonon::ObjectDescription<(Phonon::ObjectDescriptionType)3>>::detach_helper(int) 0x0001d7d9   Thumb Code   200  mediacontroller.o(t._ZN5QListIN6Phonon17ObjectDescriptionILNS0_21ObjectDescriptionTypeE3EEEE13detach_helperEi)
    QList<Phonon::ObjectDescription<(Phonon::ObjectDescriptionType)3>>::detach_helper() 0x0001d8c1   Thumb Code    16  mediacontroller.o(t._ZN5QListIN6Phonon17ObjectDescriptionILNS0_21ObjectDescriptionTypeE3EEEE13detach_helperEv)
    QList<Phonon::ObjectDescription<(Phonon::ObjectDescriptionType)3>>::free(QListData::Data*) 0x0001d8d1   Thumb Code    76  mediacontroller.o(t._ZN5QListIN6Phonon17ObjectDescriptionILNS0_21ObjectDescriptionTypeE3EEEE4freeEPN9QListData4DataE)
    QList<Phonon::ObjectDescription<(Phonon::ObjectDescriptionType)3>>::QList(const QList<Phonon::ObjectDescription<(Phonon::ObjectDescriptionType)3>>&) 0x0001d91d   Thumb Code    36  mediacontroller.o(t._ZN5QListIN6Phonon17ObjectDescriptionILNS0_21ObjectDescriptionTypeE3EEEEC1ERKS4_)
    QList<Phonon::ObjectDescription<(Phonon::ObjectDescriptionType)3>>::QList__sub_object(const QList<Phonon::ObjectDescription<(Phonon::ObjectDescriptionType)3>>&) 0x0001d91d   Thumb Code     0  mediacontroller.o(t._ZN5QListIN6Phonon17ObjectDescriptionILNS0_21ObjectDescriptionTypeE3EEEEC1ERKS4_)
    QList<Phonon::ObjectDescription<(Phonon::ObjectDescriptionType)3>>::QList() 0x0001d941   Thumb Code    18  mediacontroller.o(t._ZN5QListIN6Phonon17ObjectDescriptionILNS0_21ObjectDescriptionTypeE3EEEEC1Ev)
    QList<Phonon::ObjectDescription<(Phonon::ObjectDescriptionType)3>>::QList__sub_object() 0x0001d941   Thumb Code     0  mediacontroller.o(t._ZN5QListIN6Phonon17ObjectDescriptionILNS0_21ObjectDescriptionTypeE3EEEEC1Ev)
    QList<Phonon::ObjectDescription<(Phonon::ObjectDescriptionType)3>>::~QList() 0x0001d959   Thumb Code    32  mediacontroller.o(t._ZN5QListIN6Phonon17ObjectDescriptionILNS0_21ObjectDescriptionTypeE3EEEED1Ev)
    QList<Phonon::ObjectDescription<(Phonon::ObjectDescriptionType)3>>::~QList__sub_object() 0x0001d959   Thumb Code     0  mediacontroller.o(t._ZN5QListIN6Phonon17ObjectDescriptionILNS0_21ObjectDescriptionTypeE3EEEED1Ev)
    QList<Phonon::ObjectDescription<(Phonon::ObjectDescriptionType)4>>::node_destruct(QList<Phonon::ObjectDescription<(Phonon::ObjectDescriptionType)4>>::Node*, QList<Phonon::ObjectDescription<(Phonon::ObjectDescriptionType)4>>::Node*) 0x0001d979   Thumb Code    38  backendcapabilities.o(t._ZN5QListIN6Phonon17ObjectDescriptionILNS0_21ObjectDescriptionTypeE4EEEE13node_destructEPNS4_4NodeES6_)
    QList<Phonon::ObjectDescription<(Phonon::ObjectDescriptionType)4>>::node_construct(QList<Phonon::ObjectDescription<(Phonon::ObjectDescriptionType)4>>::Node*, const Phonon::ObjectDescription<(Phonon::ObjectDescriptionType)4>&) 0x0001d99f   Thumb Code    34  backendcapabilities.o(t._ZN5QListIN6Phonon17ObjectDescriptionILNS0_21ObjectDescriptionTypeE4EEEE14node_constructEPNS4_4NodeERKS3_)
    QList<Phonon::ObjectDescription<(Phonon::ObjectDescriptionType)4>>::detach_helper_grow(int, int) 0x0001d9cf   Thumb Code   208  backendcapabilities.o(t._ZN5QListIN6Phonon17ObjectDescriptionILNS0_21ObjectDescriptionTypeE4EEEE18detach_helper_growEii)
    QList<Phonon::ObjectDescription<(Phonon::ObjectDescriptionType)4>>::free(QListData::Data*) 0x0001daaf   Thumb Code    52  backendcapabilities.o(t._ZN5QListIN6Phonon17ObjectDescriptionILNS0_21ObjectDescriptionTypeE4EEEE4freeEPN9QListData4DataE)
    QList<Phonon::ObjectDescription<(Phonon::ObjectDescriptionType)4>>::append(const Phonon::ObjectDescription<(Phonon::ObjectDescriptionType)4>&) 0x0001dae5   Thumb Code   106  backendcapabilities.o(t._ZN5QListIN6Phonon17ObjectDescriptionILNS0_21ObjectDescriptionTypeE4EEEE6appendERKS3_)
    QList<Phonon::ObjectDescription<(Phonon::ObjectDescriptionType)4>>::node_copy(QList<Phonon::ObjectDescription<(Phonon::ObjectDescriptionType)4>>::Node*, QList<Phonon::ObjectDescription<(Phonon::ObjectDescriptionType)4>>::Node*, QList<Phonon::ObjectDescription<(Phonon::ObjectDescriptionType)4>>::Node*) 0x0001db63   Thumb Code    92  backendcapabilities.o(t._ZN5QListIN6Phonon17ObjectDescriptionILNS0_21ObjectDescriptionTypeE4EEEE9node_copyEPNS4_4NodeES6_S6_)
    QList<Phonon::ObjectDescription<(Phonon::ObjectDescriptionType)4>>::~QList() 0x0001dbd5   Thumb Code    32  backendcapabilities.o(t._ZN5QListIN6Phonon17ObjectDescriptionILNS0_21ObjectDescriptionTypeE4EEEED1Ev)
    QList<Phonon::ObjectDescription<(Phonon::ObjectDescriptionType)4>>::~QList__sub_object() 0x0001dbd5   Thumb Code     0  backendcapabilities.o(t._ZN5QListIN6Phonon17ObjectDescriptionILNS0_21ObjectDescriptionTypeE4EEEED1Ev)
    QList<Phonon::Path>::detach_helper(int)  0x0001dbf5   Thumb Code    94  medianode.o(t._ZN5QListIN6Phonon4PathEE13detach_helperEi)
    QList<Phonon::Path>::detach_helper()     0x0001dc5b   Thumb Code    16  medianode.o(t._ZN5QListIN6Phonon4PathEE13detach_helperEv)
    QList<Phonon::Path>::node_destruct(QList<Phonon::Path>::Node*) 0x0001dc6b   Thumb Code    28  medianode.o(t._ZN5QListIN6Phonon4PathEE13node_destructEPNS2_4NodeE)
    QList<Phonon::Path>::node_destruct(QList<Phonon::Path>::Node*, QList<Phonon::Path>::Node*) 0x0001dc87   Thumb Code    38  medianode.o(t._ZN5QListIN6Phonon4PathEE13node_destructEPNS2_4NodeES4_)
    QList<Phonon::Path>::node_construct(QList<Phonon::Path>::Node*, const Phonon::Path&) 0x0001dcad   Thumb Code    34  medianode.o(t._ZN5QListIN6Phonon4PathEE14node_constructEPNS2_4NodeERKS1_)
    QList<Phonon::Path>::detach_helper_grow(int, int) 0x0001dcdd   Thumb Code   208  medianode.o(t._ZN5QListIN6Phonon4PathEE18detach_helper_growEii)
    QList<Phonon::Path>::free(QListData::Data*) 0x0001ddbd   Thumb Code    58  medianode.o(t._ZN5QListIN6Phonon4PathEE4freeEPN9QListData4DataE)
    QList<Phonon::Path>::append(const Phonon::Path&) 0x0001ddf9   Thumb Code   106  medianode.o(t._ZN5QListIN6Phonon4PathEE6appendERKS1_)
    QList<Phonon::Path>::node_copy(QList<Phonon::Path>::Node*, QList<Phonon::Path>::Node*, QList<Phonon::Path>::Node*) 0x0001de77   Thumb Code    92  medianode.o(t._ZN5QListIN6Phonon4PathEE9node_copyEPNS2_4NodeES4_S4_)
    QList<Phonon::Path>::removeAll(const Phonon::Path&) 0x0001dee9   Thumb Code   124  medianode.o(t._ZN5QListIN6Phonon4PathEE9removeAllERKS1_)
    QList<Phonon::Path>::QList(const QList<Phonon::Path>&) 0x0001df73   Thumb Code    36  medianode.o(t._ZN5QListIN6Phonon4PathEEC1ERKS2_)
    QList<Phonon::Path>::QList__sub_object(const QList<Phonon::Path>&) 0x0001df73   Thumb Code     0  medianode.o(t._ZN5QListIN6Phonon4PathEEC1ERKS2_)
    QList<Phonon::Path>::QList()             0x0001df99   Thumb Code    18  medianode.o(t._ZN5QListIN6Phonon4PathEEC1Ev)
    QList<Phonon::Path>::QList__sub_object() 0x0001df99   Thumb Code     0  medianode.o(t._ZN5QListIN6Phonon4PathEEC1Ev)
    QList<Phonon::Path>::~QList()            0x0001dfb1   Thumb Code    32  medianode.o(t._ZN5QListIN6Phonon4PathEED1Ev)
    QList<Phonon::Path>::~QList__sub_object() 0x0001dfb1   Thumb Code     0  medianode.o(t._ZN5QListIN6Phonon4PathEED1Ev)
    QList<QObject*>::detach_helper(int)      0x0001dfd1   Thumb Code    94  factory.o(t._ZN5QListIP7QObjectE13detach_helperEi)
    QList<QObject*>::detach_helper()         0x0001e037   Thumb Code    16  factory.o(t._ZN5QListIP7QObjectE13detach_helperEv)
    QList<QObject*>::detach_helper_grow(int, int) 0x0001e047   Thumb Code   204  factory.o(t._ZN5QListIP7QObjectE18detach_helper_growEii)
    QList<QObject*>::free(QListData::Data*)  0x0001e123   Thumb Code    52  factory.o(t._ZN5QListIP7QObjectE4freeEPN9QListData4DataE)
    QList<QObject*>::append(QObject*const &) 0x0001e159   Thumb Code    94  factory.o(t._ZN5QListIP7QObjectE6appendERKS1_)
    QList<QObject*>::node_copy(QList<QObject*>::Node*, QList<QObject*>::Node*, QList<QObject*>::Node*) 0x0001e1c7   Thumb Code    46  factory.o(t._ZN5QListIP7QObjectE9node_copyEPNS2_4NodeES4_S4_)
    QList<QObject*>::removeAll(QObject*const &) 0x0001e1f5   Thumb Code   104  factory.o(t._ZN5QListIP7QObjectE9removeAllERKS1_)
    QList<QObject*>::~QList()                0x0001e261   Thumb Code    32  factory.o(t._ZN5QListIP7QObjectED1Ev)
    QList<QObject*>::~QList__sub_object()    0x0001e261   Thumb Code     0  factory.o(t._ZN5QListIP7QObjectED1Ev)
    QList<Phonon::MediaNodePrivate*>::detach_helper(int) 0x0001e281   Thumb Code    94  factory.o(t._ZN5QListIPN6Phonon16MediaNodePrivateEE13detach_helperEi)
    QList<Phonon::MediaNodePrivate*>::detach_helper() 0x0001e2e7   Thumb Code    16  factory.o(t._ZN5QListIPN6Phonon16MediaNodePrivateEE13detach_helperEv)
    QList<Phonon::MediaNodePrivate*>::detach_helper_grow(int, int) 0x0001e2f7   Thumb Code   204  factory.o(t._ZN5QListIPN6Phonon16MediaNodePrivateEE18detach_helper_growEii)
    QList<Phonon::MediaNodePrivate*>::free(QListData::Data*) 0x0001e3d3   Thumb Code    52  factory.o(t._ZN5QListIPN6Phonon16MediaNodePrivateEE4freeEPN9QListData4DataE)
    QList<Phonon::MediaNodePrivate*>::node_copy(QList<Phonon::MediaNodePrivate*>::Node*, QList<Phonon::MediaNodePrivate*>::Node*, QList<Phonon::MediaNodePrivate*>::Node*) 0x0001e407   Thumb Code    46  factory.o(t._ZN5QListIPN6Phonon16MediaNodePrivateEE9node_copyEPNS3_4NodeES5_S5_)
    QList<Phonon::MediaNodePrivate*>::removeAll(Phonon::MediaNodePrivate*const &) 0x0001e435   Thumb Code   104  factory.o(t._ZN5QListIPN6Phonon16MediaNodePrivateEE9removeAllERKS2_)
    QList<Phonon::MediaNodePrivate*>::~QList() 0x0001e4a1   Thumb Code    32  factory.o(t._ZN5QListIPN6Phonon16MediaNodePrivateEED1Ev)
    QList<Phonon::MediaNodePrivate*>::~QList__sub_object() 0x0001e4a1   Thumb Code     0  factory.o(t._ZN5QListIPN6Phonon16MediaNodePrivateEED1Ev)
    QList<Phonon::FrontendInterfacePrivate*>::detach_helper_grow(int, int) 0x0001e4c1   Thumb Code   204  mediacontroller.o(t._ZN5QListIPN6Phonon24FrontendInterfacePrivateEE18detach_helper_growEii)
    QList<Phonon::FrontendInterfacePrivate*>::free(QListData::Data*) 0x0001e59d   Thumb Code    52  mediacontroller.o(t._ZN5QListIPN6Phonon24FrontendInterfacePrivateEE4freeEPN9QListData4DataE)
    QList<Phonon::FrontendInterfacePrivate*>::append(Phonon::FrontendInterfacePrivate*const &) 0x0001e5d1   Thumb Code    94  mediacontroller.o(t._ZN5QListIPN6Phonon24FrontendInterfacePrivateEE6appendERKS2_)
    QList<Phonon::FrontendInterfacePrivate*>::node_copy(QList<Phonon::FrontendInterfacePrivate*>::Node*, QList<Phonon::FrontendInterfacePrivate*>::Node*, QList<Phonon::FrontendInterfacePrivate*>::Node*) 0x0001e63f   Thumb Code    46  mediacontroller.o(t._ZN5QListIPN6Phonon24FrontendInterfacePrivateEE9node_copyEPNS3_4NodeES5_S5_)
    QList<Phonon::FrontendInterfacePrivate*>::~QList() 0x0001e66d   Thumb Code    32  mediaobject.o(t._ZN5QListIPN6Phonon24FrontendInterfacePrivateEED1Ev)
    QList<Phonon::FrontendInterfacePrivate*>::~QList__sub_object() 0x0001e66d   Thumb Code     0  mediaobject.o(t._ZN5QListIPN6Phonon24FrontendInterfacePrivateEED1Ev)
    QList<Phonon::MediaNodeDestructionHandler*>::detach_helper(int) 0x0001e68d   Thumb Code    94  medianode.o(t._ZN5QListIPN6Phonon27MediaNodeDestructionHandlerEE13detach_helperEi)
    QList<Phonon::MediaNodeDestructionHandler*>::detach_helper() 0x0001e6f3   Thumb Code    16  medianode.o(t._ZN5QListIPN6Phonon27MediaNodeDestructionHandlerEE13detach_helperEv)
    QList<Phonon::MediaNodeDestructionHandler*>::detach_helper_grow(int, int) 0x0001e703   Thumb Code   204  medianode.o(t._ZN5QListIPN6Phonon27MediaNodeDestructionHandlerEE18detach_helper_growEii)
    QList<Phonon::MediaNodeDestructionHandler*>::free(QListData::Data*) 0x0001e7df   Thumb Code    58  medianode.o(t._ZN5QListIPN6Phonon27MediaNodeDestructionHandlerEE4freeEPN9QListData4DataE)
    QList<Phonon::MediaNodeDestructionHandler*>::append(Phonon::MediaNodeDestructionHandler*const &) 0x0001e819   Thumb Code    94  medianode.o(t._ZN5QListIPN6Phonon27MediaNodeDestructionHandlerEE6appendERKS2_)
    QList<Phonon::MediaNodeDestructionHandler*>::node_copy(QList<Phonon::MediaNodeDestructionHandler*>::Node*, QList<Phonon::MediaNodeDestructionHandler*>::Node*, QList<Phonon::MediaNodeDestructionHandler*>::Node*) 0x0001e887   Thumb Code    46  medianode.o(t._ZN5QListIPN6Phonon27MediaNodeDestructionHandlerEE9node_copyEPNS3_4NodeES5_S5_)
    QList<Phonon::MediaNodeDestructionHandler*>::removeAll(Phonon::MediaNodeDestructionHandler*const &) 0x0001e8b5   Thumb Code   104  medianode.o(t._ZN5QListIPN6Phonon27MediaNodeDestructionHandlerEE9removeAllERKS2_)
    QList<Phonon::MediaNodeDestructionHandler*>::~QList() 0x0001e921   Thumb Code    32  medianode.o(t._ZN5QListIPN6Phonon27MediaNodeDestructionHandlerEED1Ev)
    QList<Phonon::MediaNodeDestructionHandler*>::~QList__sub_object() 0x0001e921   Thumb Code     0  medianode.o(t._ZN5QListIPN6Phonon27MediaNodeDestructionHandlerEED1Ev)
    QList<Phonon::Effect*>::detach_helper(int) 0x0001e941   Thumb Code    94  path.o(t._ZN5QListIPN6Phonon6EffectEE13detach_helperEi)
    QList<Phonon::Effect*>::detach_helper()  0x0001e9a7   Thumb Code    16  path.o(t._ZN5QListIPN6Phonon6EffectEE13detach_helperEv)
    QList<Phonon::Effect*>::detach_helper_grow(int, int) 0x0001e9b7   Thumb Code   204  path.o(t._ZN5QListIPN6Phonon6EffectEE18detach_helper_growEii)
    QList<Phonon::Effect*>::free(QListData::Data*) 0x0001ea93   Thumb Code    58  path.o(t._ZN5QListIPN6Phonon6EffectEE4freeEPN9QListData4DataE)
    QList<Phonon::Effect*>::last()           0x0001eacd   Thumb Code    72  path.o(t._ZN5QListIPN6Phonon6EffectEE4lastEv)
    QList<Phonon::Effect*>::clear()          0x0001eb5d   Thumb Code    76  path.o(t._ZN5QListIPN6Phonon6EffectEE5clearEv)
    QList<Phonon::Effect*>::first()          0x0001ebb5   Thumb Code    62  path.o(t._ZN5QListIPN6Phonon6EffectEE5firstEv)
    QList<Phonon::Effect*>::detach()         0x0001ec3d   Thumb Code    24  path.o(t._ZN5QListIPN6Phonon6EffectEE6detachEv)
    QList<Phonon::Effect*>::node_copy(QList<Phonon::Effect*>::Node*, QList<Phonon::Effect*>::Node*, QList<Phonon::Effect*>::Node*) 0x0001ec55   Thumb Code    46  path.o(t._ZN5QListIPN6Phonon6EffectEE9node_copyEPNS3_4NodeES5_S5_)
    QList<Phonon::Effect*>::QList()          0x0001ec85   Thumb Code    18  path.o(t._ZN5QListIPN6Phonon6EffectEEC1Ev)
    QList<Phonon::Effect*>::QList__sub_object() 0x0001ec85   Thumb Code     0  path.o(t._ZN5QListIPN6Phonon6EffectEEC1Ev)
    QList<Phonon::Effect*>::~QList()         0x0001ec9d   Thumb Code    32  path.o(t._ZN5QListIPN6Phonon6EffectEED1Ev)
    QList<Phonon::Effect*>::~QList__sub_object() 0x0001ec9d   Thumb Code     0  path.o(t._ZN5QListIPN6Phonon6EffectEED1Ev)
    QList<Phonon::Effect*>::operator [](int) 0x0001ecbd   Thumb Code    60  path.o(t._ZN5QListIPN6Phonon6EffectEEixEi)
    QList<int>::setSharable(bool)            0x0001ed61   Thumb Code    22  globalconfig.o(t._ZN5QListIiE11setSharableEb)
    QList<int>::detach_helper(int)           0x0001ed77   Thumb Code    94  globalconfig.o(t._ZN5QListIiE13detach_helperEi)
    QList<int>::detach_helper()              0x0001eddd   Thumb Code    16  globalconfig.o(t._ZN5QListIiE13detach_helperEv)
    QList<int>::detach_helper_grow(int, int) 0x0001eded   Thumb Code   204  globalconfig.o(t._ZN5QListIiE18detach_helper_growEii)
    QList<int>::end()                        0x0001eec9   Thumb Code    26  globalconfig.o(t._ZN5QListIiE3endEv)
    QList<int>::free(QListData::Data*)       0x0001eee3   Thumb Code    52  backendcapabilities.o(t._ZN5QListIiE4freeEPN9QListData4DataE)
    QList<int>::begin()                      0x0001ef17   Thumb Code    26  globalconfig.o(t._ZN5QListIiE5beginEv)
    QList<int>::clear()                      0x0001ef31   Thumb Code    76  phononnamespace.o(t._ZN5QListIiE5clearEv)
    QList<int>::first()                      0x0001ef89   Thumb Code    48  globalconfig.o(t._ZN5QListIiE5firstEv)
    QList<int>::append(const int&)           0x0001f001   Thumb Code    94  globalconfig.o(t._ZN5QListIiE6appendERKi)
    QList<int>::detach()                     0x0001f06f   Thumb Code    24  globalconfig.o(t._ZN5QListIiE6detachEv)
    QList<int>::takeAt(int)                  0x0001f089   Thumb Code    82  globalconfig.o(t._ZN5QListIiE6takeAtEi)
    QList<int>::reserve(int)                 0x0001f13d   Thumb Code    46  phononnamespace.o(t._ZN5QListIiE7reserveEi)
    QList<int>::node_copy(QList<int>::Node*, QList<int>::Node*, QList<int>::Node*) 0x0001f16b   Thumb Code    46  globalconfig.o(t._ZN5QListIiE9node_copyEPNS0_4NodeES2_S2_)
    QList<int>::removeAll(const int&)        0x0001f199   Thumb Code   104  globalconfig.o(t._ZN5QListIiE9removeAllERKi)
    QList<int>::QList(const QList<int>&)     0x0001f205   Thumb Code    36  globalconfig.o(t._ZN5QListIiEC1ERKS0_)
    QList<int>::QList__sub_object(const QList<int>&) 0x0001f205   Thumb Code     0  globalconfig.o(t._ZN5QListIiEC1ERKS0_)
    QList<int>::QList()                      0x0001f229   Thumb Code    18  globalconfig.o(t._ZN5QListIiEC1Ev)
    QList<int>::QList__sub_object()          0x0001f229   Thumb Code     0  globalconfig.o(t._ZN5QListIiEC1Ev)
    QList<int>::~QList()                     0x0001f241   Thumb Code    32  audiooutput.o(t._ZN5QListIiED1Ev)
    QList<int>::~QList__sub_object()         0x0001f241   Thumb Code     0  audiooutput.o(t._ZN5QListIiED1Ev)
    QList<int>::operator =(const QList<int>&) 0x0001f261   Thumb Code    64  globalconfig.o(t._ZN5QListIiEaSERKS0_)
    QList<int>::operator +=(const QList<int>&) 0x0001f2a1   Thumb Code   144  globalconfig.o(t._ZN5QListIiEpLERKS0_)
    QPair<QObject*, QObject*>::QPair(QObject*const &, QObject*const &) 0x0001f33d   Thumb Code    10  path.o(t._ZN5QPairIP7QObjectS1_EC1ERKS1_S4_)
    QPair<QObject*, QObject*>::QPair__sub_object(QObject*const &, QObject*const &) 0x0001f33d   Thumb Code     0  path.o(t._ZN5QPairIP7QObjectS1_EC1ERKS1_S4_)
    Phonon::QSettingsGroup::setValue<QList<int>>(const QString&, const T1&) 0x0001f349   Thumb Code    86  globalconfig.o(t._ZN6Phonon14QSettingsGroup8setValueI5QListIiEEEvRK7QStringRKT_)
    Phonon::QSettingsGroup::setValue<bool>(const QString&, const T1&) 0x0001f401   Thumb Code    86  globalconfig.o(t._ZN6Phonon14QSettingsGroup8setValueIbEEvRK7QStringRKT_)
    Phonon::ObjectDescription<(Phonon::ObjectDescriptionType)0>::fromIndex(int) 0x0001f4b9   Thumb Code    48  audiooutput.o(t._ZN6Phonon17ObjectDescriptionILNS_21ObjectDescriptionTypeE0EE9fromIndexEi)
    Phonon::ObjectDescription<(Phonon::ObjectDescriptionType)0>::ObjectDescription() 0x0001f4f3   Thumb Code    38  audiooutput.o(t._ZN6Phonon17ObjectDescriptionILNS_21ObjectDescriptionTypeE0EEC1Ev)
    Phonon::ObjectDescription<(Phonon::ObjectDescriptionType)0>::ObjectDescription__sub_object() 0x0001f4f3   Thumb Code     0  audiooutput.o(t._ZN6Phonon17ObjectDescriptionILNS_21ObjectDescriptionTypeE0EEC1Ev)
    Phonon::ObjectDescription<(Phonon::ObjectDescriptionType)2>::ObjectDescription() 0x0001f527   Thumb Code    38  mediacontroller.o(t._ZN6Phonon17ObjectDescriptionILNS_21ObjectDescriptionTypeE2EEC1Ev)
    Phonon::ObjectDescription<(Phonon::ObjectDescriptionType)2>::ObjectDescription__sub_object() 0x0001f527   Thumb Code     0  mediacontroller.o(t._ZN6Phonon17ObjectDescriptionILNS_21ObjectDescriptionTypeE2EEC1Ev)
    Phonon::ObjectDescription<(Phonon::ObjectDescriptionType)3>::ObjectDescription() 0x0001f55b   Thumb Code    38  mediacontroller.o(t._ZN6Phonon17ObjectDescriptionILNS_21ObjectDescriptionTypeE3EEC1Ev)
    Phonon::ObjectDescription<(Phonon::ObjectDescriptionType)3>::ObjectDescription__sub_object() 0x0001f55b   Thumb Code     0  mediacontroller.o(t._ZN6Phonon17ObjectDescriptionILNS_21ObjectDescriptionTypeE3EEC1Ev)
    Phonon::ObjectDescription<(Phonon::ObjectDescriptionType)4>::fromIndex(int) 0x0001f58f   Thumb Code    48  globalconfig.o(t._ZN6Phonon17ObjectDescriptionILNS_21ObjectDescriptionTypeE4EE9fromIndexEi)
    Phonon::ObjectDescriptionModel<(Phonon::ObjectDescriptionType)0>::removeRows(int, int, const QModelIndex&) 0x0001f5c9   Thumb Code    24  objectdescriptionmodel.o(t._ZN6Phonon22ObjectDescriptionModelILNS_21ObjectDescriptionTypeE0EE10removeRowsEiiRK11QModelIndex)
    Phonon::ObjectDescriptionModel<(Phonon::ObjectDescriptionType)0>::qt_metacast(const char*) 0x0001f5e1   Thumb Code    48  objectdescriptionmodel.o(t._ZN6Phonon22ObjectDescriptionModelILNS_21ObjectDescriptionTypeE0EE11qt_metacastEPKc)
    Phonon::ObjectDescriptionModel<(Phonon::ObjectDescriptionType)0>::dropMimeData(const QMimeData*, Qt::DropAction, int, int, const QModelIndex&) 0x0001f615   Thumb Code    34  objectdescriptionmodel.o(t._ZN6Phonon22ObjectDescriptionModelILNS_21ObjectDescriptionTypeE0EE12dropMimeDataEPK9QMimeDataN2Qt10DropActionEiiRK11QModelIndex)
    Phonon::ObjectDescriptionModel<(Phonon::ObjectDescriptionType)1>::removeRows(int, int, const QModelIndex&) 0x0001f637   Thumb Code    24  objectdescriptionmodel.o(t._ZN6Phonon22ObjectDescriptionModelILNS_21ObjectDescriptionTypeE1EE10removeRowsEiiRK11QModelIndex)
    Phonon::ObjectDescriptionModel<(Phonon::ObjectDescriptionType)1>::qt_metacast(const char*) 0x0001f651   Thumb Code    48  objectdescriptionmodel.o(t._ZN6Phonon22ObjectDescriptionModelILNS_21ObjectDescriptionTypeE1EE11qt_metacastEPKc)
    Phonon::ObjectDescriptionModel<(Phonon::ObjectDescriptionType)1>::dropMimeData(const QMimeData*, Qt::DropAction, int, int, const QModelIndex&) 0x0001f685   Thumb Code    34  objectdescriptionmodel.o(t._ZN6Phonon22ObjectDescriptionModelILNS_21ObjectDescriptionTypeE1EE12dropMimeDataEPK9QMimeDataN2Qt10DropActionEiiRK11QModelIndex)
    Phonon::ObjectDescriptionModel<(Phonon::ObjectDescriptionType)2>::removeRows(int, int, const QModelIndex&) 0x0001f6a7   Thumb Code    24  objectdescriptionmodel.o(t._ZN6Phonon22ObjectDescriptionModelILNS_21ObjectDescriptionTypeE2EE10removeRowsEiiRK11QModelIndex)
    Phonon::ObjectDescriptionModel<(Phonon::ObjectDescriptionType)2>::qt_metacast(const char*) 0x0001f6c1   Thumb Code    48  objectdescriptionmodel.o(t._ZN6Phonon22ObjectDescriptionModelILNS_21ObjectDescriptionTypeE2EE11qt_metacastEPKc)
    Phonon::ObjectDescriptionModel<(Phonon::ObjectDescriptionType)2>::dropMimeData(const QMimeData*, Qt::DropAction, int, int, const QModelIndex&) 0x0001f6f5   Thumb Code    34  objectdescriptionmodel.o(t._ZN6Phonon22ObjectDescriptionModelILNS_21ObjectDescriptionTypeE2EE12dropMimeDataEPK9QMimeDataN2Qt10DropActionEiiRK11QModelIndex)
    Phonon::ObjectDescriptionModel<(Phonon::ObjectDescriptionType)3>::removeRows(int, int, const QModelIndex&) 0x0001f717   Thumb Code    24  objectdescriptionmodel.o(t._ZN6Phonon22ObjectDescriptionModelILNS_21ObjectDescriptionTypeE3EE10removeRowsEiiRK11QModelIndex)
    Phonon::ObjectDescriptionModel<(Phonon::ObjectDescriptionType)3>::qt_metacast(const char*) 0x0001f731   Thumb Code    48  objectdescriptionmodel.o(t._ZN6Phonon22ObjectDescriptionModelILNS_21ObjectDescriptionTypeE3EE11qt_metacastEPKc)
    Phonon::ObjectDescriptionModel<(Phonon::ObjectDescriptionType)3>::dropMimeData(const QMimeData*, Qt::DropAction, int, int, const QModelIndex&) 0x0001f765   Thumb Code    34  objectdescriptionmodel.o(t._ZN6Phonon22ObjectDescriptionModelILNS_21ObjectDescriptionTypeE3EE12dropMimeDataEPK9QMimeDataN2Qt10DropActionEiiRK11QModelIndex)
    Phonon::ObjectDescriptionModel<(Phonon::ObjectDescriptionType)4>::removeRows(int, int, const QModelIndex&) 0x0001f787   Thumb Code    24  objectdescriptionmodel.o(t._ZN6Phonon22ObjectDescriptionModelILNS_21ObjectDescriptionTypeE4EE10removeRowsEiiRK11QModelIndex)
    Phonon::ObjectDescriptionModel<(Phonon::ObjectDescriptionType)4>::qt_metacast(const char*) 0x0001f7a1   Thumb Code    48  objectdescriptionmodel.o(t._ZN6Phonon22ObjectDescriptionModelILNS_21ObjectDescriptionTypeE4EE11qt_metacastEPKc)
    Phonon::ObjectDescriptionModel<(Phonon::ObjectDescriptionType)4>::dropMimeData(const QMimeData*, Qt::DropAction, int, int, const QModelIndex&) 0x0001f7d5   Thumb Code    34  objectdescriptionmodel.o(t._ZN6Phonon22ObjectDescriptionModelILNS_21ObjectDescriptionTypeE4EE12dropMimeDataEPK9QMimeDataN2Qt10DropActionEiiRK11QModelIndex)
    Phonon::Iface<Phonon::EffectInterface, Phonon::<unnamed>::NoIface, Phonon::<unnamed>::NoIface>::cast(const Phonon::MediaNodePrivate*) 0x0001f7f7   Thumb Code    14  effect.o(t._ZN6Phonon5IfaceINS_15EffectInterfaceENS_34_GLOBAL__N__10_effect_cpp_eecb3cc17NoIfaceES3_E4castEPKNS_16MediaNodePrivateE)
    Phonon::Iface<Phonon::EffectInterface, Phonon::<unnamed>::NoIface, Phonon::<unnamed>::NoIface>::cast(Phonon::MediaNodePrivate*) 0x0001f805   Thumb Code    14  effect.o(t._ZN6Phonon5IfaceINS_15EffectInterfaceENS_34_GLOBAL__N__10_effect_cpp_eecb3cc17NoIfaceES3_E4castEPNS_16MediaNodePrivateE)
    Phonon::Iface<Phonon::MediaObjectInterface, Phonon::<unnamed>::NoIface, Phonon::<unnamed>::NoIface>::cast(const Phonon::MediaNodePrivate*) 0x0001f813   Thumb Code    14  mediaobject.o(t._ZN6Phonon5IfaceINS_20MediaObjectInterfaceENS_39_GLOBAL__N__15_mediaobject_cpp_ad5cf8d97NoIfaceES3_E4castEPKNS_16MediaNodePrivateE)
    Phonon::Iface<Phonon::MediaObjectInterface, Phonon::<unnamed>::NoIface, Phonon::<unnamed>::NoIface>::cast(Phonon::MediaNodePrivate*) 0x0001f821   Thumb Code    14  mediaobject.o(t._ZN6Phonon5IfaceINS_20MediaObjectInterfaceENS_39_GLOBAL__N__15_mediaobject_cpp_ad5cf8d97NoIfaceES3_E4castEPNS_16MediaNodePrivateE)
    Phonon::Iface<Phonon::VideoWidgetInterface, Phonon::VideoWidgetInterface44, Phonon::<unnamed>::NoIface>::cast(const Phonon::MediaNodePrivate*) 0x0001f82f   Thumb Code    32  videowidget.o(t._ZN6Phonon5IfaceINS_20VideoWidgetInterfaceENS_22VideoWidgetInterface44ENS_39_GLOBAL__N__15_videowidget_cpp_028ee8a77NoIfaceEE4castEPKNS_16MediaNodePrivateE)
    Phonon::Iface<Phonon::VideoWidgetInterface, Phonon::VideoWidgetInterface44, Phonon::<unnamed>::NoIface>::cast(Phonon::MediaNodePrivate*) 0x0001f84f   Thumb Code    32  videowidget.o(t._ZN6Phonon5IfaceINS_20VideoWidgetInterfaceENS_22VideoWidgetInterface44ENS_39_GLOBAL__N__15_videowidget_cpp_028ee8a77NoIfaceEE4castEPNS_16MediaNodePrivateE)
    Phonon::Iface<Phonon::VolumeFaderInterface, Phonon::<unnamed>::NoIface, Phonon::<unnamed>::NoIface>::cast(const Phonon::MediaNodePrivate*) 0x0001f86f   Thumb Code    14  volumefadereffect.o(t._ZN6Phonon5IfaceINS_20VolumeFaderInterfaceENS_45_GLOBAL__N__21_volumefadereffect_cpp_fcc18a0e7NoIfaceES3_E4castEPKNS_16MediaNodePrivateE)
    Phonon::Iface<Phonon::VolumeFaderInterface, Phonon::<unnamed>::NoIface, Phonon::<unnamed>::NoIface>::cast(Phonon::MediaNodePrivate*) 0x0001f87d   Thumb Code    14  volumefadereffect.o(t._ZN6Phonon5IfaceINS_20VolumeFaderInterfaceENS_45_GLOBAL__N__21_volumefadereffect_cpp_fcc18a0e7NoIfaceES3_E4castEPNS_16MediaNodePrivateE)
    Phonon::Iface<Phonon::AudioOutputInterface40, Phonon::AudioOutputInterface42, Phonon::<unnamed>::NoIface>::cast(const Phonon::MediaNodePrivate*) 0x0001f88b   Thumb Code    32  audiooutput.o(t._ZN6Phonon5IfaceINS_22AudioOutputInterface40ENS_22AudioOutputInterface42ENS_39_GLOBAL__N__15_audiooutput_cpp_ed2d95f27NoIfaceEE4castEPKNS_16MediaNodePrivateE)
    Phonon::Iface<Phonon::AudioOutputInterface40, Phonon::AudioOutputInterface42, Phonon::<unnamed>::NoIface>::cast(Phonon::MediaNodePrivate*) 0x0001f8ab   Thumb Code    32  audiooutput.o(t._ZN6Phonon5IfaceINS_22AudioOutputInterface40ENS_22AudioOutputInterface42ENS_39_GLOBAL__N__15_audiooutput_cpp_ed2d95f27NoIfaceEE4castEPNS_16MediaNodePrivateE)
    Phonon::Iface<Phonon::AudioOutputInterface42, Phonon::<unnamed>::NoIface, Phonon::<unnamed>::NoIface>::Iface(Phonon::MediaNodePrivate*) 0x0001f8cb   Thumb Code    24  audiooutput.o(t._ZN6Phonon5IfaceINS_22AudioOutputInterface42ENS_39_GLOBAL__N__15_audiooutput_cpp_ed2d95f27NoIfaceES3_EC1EPNS_16MediaNodePrivateE)
    Phonon::Iface<Phonon::AudioOutputInterface42, Phonon::<unnamed>::NoIface, Phonon::<unnamed>::NoIface>::Iface__sub_object(Phonon::MediaNodePrivate*) 0x0001f8cb   Thumb Code     0  audiooutput.o(t._ZN6Phonon5IfaceINS_22AudioOutputInterface42ENS_39_GLOBAL__N__15_audiooutput_cpp_ed2d95f27NoIfaceES3_EC1EPNS_16MediaNodePrivateE)
    Phonon::Iface<Phonon::AudioOutputInterface42, Phonon::<unnamed>::NoIface, Phonon::<unnamed>::NoIface>::operator ->() 0x0001f8e5   Thumb Code    32  audiooutput.o(t._ZN6Phonon5IfaceINS_22AudioOutputInterface42ENS_39_GLOBAL__N__15_audiooutput_cpp_ed2d95f27NoIfaceES3_EptEv)
    QVector<short>::detach_helper()          0x0001f945   Thumb Code    18  audiodataoutput.o(t._ZN7QVectorIsE13detach_helperEv)
    QVector<short>::free(QVectorTypedData<short>*) 0x0001f957   Thumb Code    24  audiodataoutput.o(t._ZN7QVectorIsE4freeEP16QVectorTypedDataIsE)
    QVector<short>::malloc(int)              0x0001f96f   Thumb Code    52  audiodataoutput.o(t._ZN7QVectorIsE6mallocEi)
    QVector<short>::realloc(int, int)        0x0001f9a5   Thumb Code   444  audiodataoutput.o(t._ZN7QVectorIsE7reallocEii)
    QPointer<QObject>::~QPointer()           0x0001fbb9   Thumb Code    14  factory.o(t._ZN8QPointerI7QObjectED1Ev)
    QPointer<QObject>::~QPointer__sub_object() 0x0001fbb9   Thumb Code     0  factory.o(t._ZN8QPointerI7QObjectED1Ev)
    QPointer<QObject>::operator =(QObject*)  0x0001fbc7   Thumb Code    24  factory.o(t._ZN8QPointerI7QObjectEaSEPS0_)
    QPointer<Phonon::AudioOutput>::~QPointer() 0x0001fbdf   Thumb Code    14  volumeslider.o(t._ZN8QPointerIN6Phonon11AudioOutputEED1Ev)
    QPointer<Phonon::AudioOutput>::~QPointer__sub_object() 0x0001fbdf   Thumb Code     0  volumeslider.o(t._ZN8QPointerIN6Phonon11AudioOutputEED1Ev)
    QPointer<Phonon::AudioOutput>::operator =(Phonon::AudioOutput*) 0x0001fbed   Thumb Code    24  volumeslider.o(t._ZN8QPointerIN6Phonon11AudioOutputEEaSEPS1_)
    QPointer<Phonon::MediaObject>::~QPointer() 0x0001fc05   Thumb Code    14  mediacontroller.o(t._ZN8QPointerIN6Phonon11MediaObjectEED1Ev)
    QPointer<Phonon::MediaObject>::~QPointer__sub_object() 0x0001fc05   Thumb Code     0  mediacontroller.o(t._ZN8QPointerIN6Phonon11MediaObjectEED1Ev)
    QPointer<Phonon::AbstractMediaStream>::~QPointer() 0x0001fc13   Thumb Code    14  mediasource.o(t._ZN8QPointerIN6Phonon19AbstractMediaStreamEED1Ev)
    QPointer<Phonon::AbstractMediaStream>::~QPointer__sub_object() 0x0001fc13   Thumb Code     0  mediasource.o(t._ZN8QPointerIN6Phonon19AbstractMediaStreamEED1Ev)
    QHashNode<Phonon::EffectParameter, QVariant>::QHashNode(const Phonon::EffectParameter&, const QVariant&) 0x0001fc21   Thumb Code    40  effect.o(t._ZN9QHashNodeIN6Phonon15EffectParameterE8QVariantEC1ERKS1_RKS2_)
    QHashNode<Phonon::EffectParameter, QVariant>::QHashNode__sub_object(const Phonon::EffectParameter&, const QVariant&) 0x0001fc21   Thumb Code     0  effect.o(t._ZN9QHashNodeIN6Phonon15EffectParameterE8QVariantEC1ERKS1_RKS2_)
    QHashNode<QObject*, Phonon::EffectParameter>::QHashNode(QObject*const &, const Phonon::EffectParameter&) 0x0001fc55   Thumb Code    30  effectwidget.o(t._ZN9QHashNodeIP7QObjectN6Phonon15EffectParameterEEC1ERKS1_RKS3_)
    QHashNode<QObject*, Phonon::EffectParameter>::QHashNode__sub_object(QObject*const &, const Phonon::EffectParameter&) 0x0001fc55   Thumb Code     0  effectwidget.o(t._ZN9QHashNodeIP7QObjectN6Phonon15EffectParameterEEC1ERKS1_RKS3_)
    QScopedPointer<QObjectData, QScopedPointerDeleter<QObjectData>>::operator ->() const 0x0001fc75   Thumb Code    30  abstractaudiooutput.o(t._ZNK14QScopedPointerI11QObjectData21QScopedPointerDeleterIS0_EEptEv)
    QScopedPointer<Phonon::AbstractMediaStreamPrivate, QScopedPointerDeleter<Phonon::AbstractMediaStreamPrivate>>::operator ->() const 0x0001fc9d   Thumb Code    32  abstractmediastream.o(t._ZNK14QScopedPointerIN6Phonon26AbstractMediaStreamPrivateE21QScopedPointerDeleterIS1_EEptEv)
    QStringBuilder<QLatin1String, QString>::operator QString() const 0x0001fcc1   Thumb Code   144  globalconfig.o(t._ZNK14QStringBuilderI13QLatin1String7QStringEcvS1_Ev)
    QStringBuilder<QString, QLatin1Char>::operator QString() const 0x0001fd5b   Thumb Code   106  globalconfig.o(t._ZNK14QStringBuilderI7QString11QLatin1CharEcvS0_Ev)
    QMutableListIterator<int>::hasNext() const 0x0001fdcf   Thumb Code    44  globalconfig.o(t._ZNK20QMutableListIteratorIiE7hasNextEv)
    QMap<QString, QString>::values(const QString&) const 0x0001fdfb   Thumb Code   182  mediaobject.o(t._ZNK4QMapI7QStringS0_E6valuesERKS0_)
    QHash<QByteArray, QVariant>::keys() const 0x0001febb   Thumb Code   142  objectdescription.o(t._ZNK5QHashI10QByteArray8QVariantE4keysEv)
    QHash<QByteArray, QVariant>::value(const QByteArray&) const 0x0001ff53   Thumb Code    58  globalconfig.o(t._ZNK5QHashI10QByteArray8QVariantE5valueERKS0_)
    QHash<QByteArray, QVariant>::findNode(const QByteArray&, unsigned*) const 0x0001ff8d   Thumb Code   198  globalconfig.o(t._ZNK5QHashI10QByteArray8QVariantE8findNodeERKS0_Pj)
    QHash<Phonon::EffectParameter, QVariant>::findNode(const Phonon::EffectParameter&, unsigned*) const 0x000200ad   Thumb Code   150  effect.o(t._ZNK5QHashIN6Phonon15EffectParameterE8QVariantE8findNodeERKS1_Pj)
    QHash<QObject*, QHashDummyValue>::findNode(QObject*const &, unsigned*) const 0x0002019d   Thumb Code   138  path.o(t._ZNK5QHashIP7QObject15QHashDummyValueE8findNodeERKS1_Pj)
    QHash<QObject*, Phonon::EffectParameter>::contains(QObject*const &) const 0x00020281   Thumb Code    32  effectwidget.o(t._ZNK5QHashIP7QObjectN6Phonon15EffectParameterEE8containsERKS1_)
    QHash<QObject*, Phonon::EffectParameter>::findNode(QObject*const &, unsigned*) const 0x000202a1   Thumb Code   138  effectwidget.o(t._ZNK5QHashIP7QObjectN6Phonon15EffectParameterEE8findNodeERKS1_Pj)
    QHash<int, QHashDummyValue>::findNode(const int&, unsigned*) const 0x00020385   Thumb Code   128  globalconfig.o(t._ZNK5QHashIi15QHashDummyValueE8findNodeERKiPj)
    QList<QExplicitlySharedDataPointer<Phonon::ObjectDescriptionData>>::at(int) const 0x0002045d   Thumb Code    54  objectdescriptionmodel.o(t._ZNK5QListI28QExplicitlySharedDataPointerIN6Phonon21ObjectDescriptionDataEEE2atEi)
    QList<QExplicitlySharedDataPointer<Phonon::ObjectDescriptionData>>::size() const 0x000204f5   Thumb Code    12  objectdescriptionmodel.o(t._ZNK5QListI28QExplicitlySharedDataPointerIN6Phonon21ObjectDescriptionDataEEE4sizeEv)
    QList<QPair<QObject*, QObject*>>::const_iterator::operator !=(const QList<QPair<QObject*, QObject*>>::const_iterator&) const 0x00020501   Thumb Code    18  path.o(t._ZNK5QListI5QPairIP7QObjectS2_EE14const_iteratorneERKS5_)
    QList<QPair<QObject*, QObject*>>::at(int) const 0x00020515   Thumb Code    54  path.o(t._ZNK5QListI5QPairIP7QObjectS2_EE2atEi)
    QList<QPair<QObject*, QObject*>>::begin() const 0x000205ad   Thumb Code    20  path.o(t._ZNK5QListI5QPairIP7QObjectS2_EE5beginEv)
    QList<QPair<QObject*, QObject*>>::contains(const QPair<QObject*, QObject*>&) const 0x000205c1   Thumb Code    86  path.o(t._ZNK5QListI5QPairIP7QObjectS2_EE8containsERKS3_)
    QList<QString>::at(int) const            0x00020619   Thumb Code    54  factory.o(t._ZNK5QListI7QStringE2atEi)
    QList<QString>::count() const            0x000206b1   Thumb Code    12  factory.o(t._ZNK5QListI7QStringE5countEv)
    QList<QString>::indexOf(const QString&, int) const 0x000206bd   Thumb Code   120  factory.o(t._ZNK5QListI7QStringE7indexOfERKS0_i)
    QList<QVariant>::at(int) const           0x00020735   Thumb Code    54  effectwidget.o(t._ZNK5QListI8QVariantE2atEi)
    QList<Phonon::MediaSource>::isEmpty() const 0x000207cd   Thumb Code    24  mediaobject.o(t._ZNK5QListIN6Phonon11MediaSourceEE7isEmptyEv)
    QList<Phonon::EffectParameter>::at(int) const 0x000207e5   Thumb Code    68  effect.o(t._ZNK5QListIN6Phonon15EffectParameterEE2atEi)
    QList<Phonon::Effect*>::at(int) const    0x00020889   Thumb Code    54  path.o(t._ZNK5QListIPN6Phonon6EffectEE2atEi)
    QList<Phonon::Effect*>::count() const    0x00020921   Thumb Code    12  path.o(t._ZNK5QListIPN6Phonon6EffectEE5countEv)
    QList<Phonon::Effect*>::indexOf(Phonon::Effect*const &, int) const 0x0002092d   Thumb Code   116  path.o(t._ZNK5QListIPN6Phonon6EffectEE7indexOfERKS2_i)
    QList<Phonon::Effect*>::isEmpty() const  0x000209a1   Thumb Code    24  path.o(t._ZNK5QListIPN6Phonon6EffectEE7isEmptyEv)
    QList<Phonon::Effect*>::contains(Phonon::Effect*const &) const 0x000209b9   Thumb Code    66  path.o(t._ZNK5QListIPN6Phonon6EffectEE8containsERKS2_)
    QList<int>::const_iterator::operator !=(const QList<int>::const_iterator&) const 0x000209fb   Thumb Code    18  globalconfig.o(t._ZNK5QListIiE14const_iteratorneERKS1_)
    QList<int>::at(int) const                0x00020a0d   Thumb Code    54  globalconfig.o(t._ZNK5QListIiE2atEi)
    QList<int>::size() const                 0x00020aa5   Thumb Code    12  globalconfig.o(t._ZNK5QListIiE4sizeEv)
    QList<int>::indexOf(const int&, int) const 0x00020ab1   Thumb Code   116  globalconfig.o(t._ZNK5QListIiE7indexOfERKii)
    QList<int>::isEmpty() const              0x00020b25   Thumb Code    24  globalconfig.o(t._ZNK5QListIiE7isEmptyEv)
    QList<int>::contains(const int&) const   0x00020b3d   Thumb Code    66  objectdescription.o(t._ZNK5QListIiE8containsERKi)
    QList<int>::operator ==(const QList<int>&) const 0x00020b7f   Thumb Code    98  globalconfig.o(t._ZNK5QListIiEeqERKS0_)
    Phonon::QSettingsGroup::value<QList<int>>(const QString&, const T1&) const 0x00020be1   Thumb Code   152  globalconfig.o(t._ZNK6Phonon14QSettingsGroup5valueI5QListIiEEET_RK7QStringRKS4_)
    Phonon::ObjectDescription<(Phonon::ObjectDescriptionType)0>::name() const 0x00020c93   Thumb Code    22  audiooutput.o(t._ZNK6Phonon17ObjectDescriptionILNS_21ObjectDescriptionTypeE0EE4nameEv)
    Phonon::ObjectDescription<(Phonon::ObjectDescriptionType)0>::index() const 0x00020ca9   Thumb Code    16  audiooutput.o(t._ZNK6Phonon17ObjectDescriptionILNS_21ObjectDescriptionTypeE0EE5indexEv)
    Phonon::ObjectDescription<(Phonon::ObjectDescriptionType)0>::operator ==(const Phonon::ObjectDescription<(Phonon::ObjectDescriptionType)0>&) const 0x00020cb9   Thumb Code    24  audiooutput.o(t._ZNK6Phonon17ObjectDescriptionILNS_21ObjectDescriptionTypeE0EEeqERKS2_)
    Phonon::ObjectDescription<(Phonon::ObjectDescriptionType)0>::operator !=(const Phonon::ObjectDescription<(Phonon::ObjectDescriptionType)0>&) const 0x00020cd1   Thumb Code    20  audiooutput.o(t._ZNK6Phonon17ObjectDescriptionILNS_21ObjectDescriptionTypeE0EEneERKS2_)
    Phonon::ObjectDescriptionModel<(Phonon::ObjectDescriptionType)0>::metaObject() const 0x00020ce5   Thumb Code     6  objectdescriptionmodel.o(t._ZNK6Phonon22ObjectDescriptionModelILNS_21ObjectDescriptionTypeE0EE10metaObjectEv)
    Phonon::ObjectDescriptionModel<(Phonon::ObjectDescriptionType)0>::supportedDropActions() const 0x00020cf1   Thumb Code    16  objectdescriptionmodel.o(t._ZNK6Phonon22ObjectDescriptionModelILNS_21ObjectDescriptionTypeE0EE20supportedDropActionsEv)
    Phonon::ObjectDescriptionModel<(Phonon::ObjectDescriptionType)0>::data(const QModelIndex&, int) const 0x00020d01   Thumb Code    24  objectdescriptionmodel.o(t._ZNK6Phonon22ObjectDescriptionModelILNS_21ObjectDescriptionTypeE0EE4dataERK11QModelIndexi)
    Phonon::ObjectDescriptionModel<(Phonon::ObjectDescriptionType)0>::flags(const QModelIndex&) const 0x00020d19   Thumb Code    20  objectdescriptionmodel.o(t._ZNK6Phonon22ObjectDescriptionModelILNS_21ObjectDescriptionTypeE0EE5flagsERK11QModelIndex)
    Phonon::ObjectDescriptionModel<(Phonon::ObjectDescriptionType)0>::mimeData(const QList<QModelIndex>&) const 0x00020d2d   Thumb Code    18  objectdescriptionmodel.o(t._ZNK6Phonon22ObjectDescriptionModelILNS_21ObjectDescriptionTypeE0EE8mimeDataERK5QListI11QModelIndexE)
    Phonon::ObjectDescriptionModel<(Phonon::ObjectDescriptionType)0>::rowCount(const QModelIndex&) const 0x00020d3f   Thumb Code    16  objectdescriptionmodel.o(t._ZNK6Phonon22ObjectDescriptionModelILNS_21ObjectDescriptionTypeE0EE8rowCountERK11QModelIndex)
    Phonon::ObjectDescriptionModel<(Phonon::ObjectDescriptionType)0>::mimeTypes() const 0x00020d4f   Thumb Code    18  objectdescriptionmodel.o(t._ZNK6Phonon22ObjectDescriptionModelILNS_21ObjectDescriptionTypeE0EE9mimeTypesEv)
    Phonon::ObjectDescriptionModel<(Phonon::ObjectDescriptionType)1>::metaObject() const 0x00020d61   Thumb Code     6  objectdescriptionmodel.o(t._ZNK6Phonon22ObjectDescriptionModelILNS_21ObjectDescriptionTypeE1EE10metaObjectEv)
    Phonon::ObjectDescriptionModel<(Phonon::ObjectDescriptionType)1>::supportedDropActions() const 0x00020d6d   Thumb Code    16  objectdescriptionmodel.o(t._ZNK6Phonon22ObjectDescriptionModelILNS_21ObjectDescriptionTypeE1EE20supportedDropActionsEv)
    Phonon::ObjectDescriptionModel<(Phonon::ObjectDescriptionType)1>::data(const QModelIndex&, int) const 0x00020d7d   Thumb Code    24  objectdescriptionmodel.o(t._ZNK6Phonon22ObjectDescriptionModelILNS_21ObjectDescriptionTypeE1EE4dataERK11QModelIndexi)
    Phonon::ObjectDescriptionModel<(Phonon::ObjectDescriptionType)1>::flags(const QModelIndex&) const 0x00020d95   Thumb Code    20  objectdescriptionmodel.o(t._ZNK6Phonon22ObjectDescriptionModelILNS_21ObjectDescriptionTypeE1EE5flagsERK11QModelIndex)
    Phonon::ObjectDescriptionModel<(Phonon::ObjectDescriptionType)1>::mimeData(const QList<QModelIndex>&) const 0x00020da9   Thumb Code    18  objectdescriptionmodel.o(t._ZNK6Phonon22ObjectDescriptionModelILNS_21ObjectDescriptionTypeE1EE8mimeDataERK5QListI11QModelIndexE)
    Phonon::ObjectDescriptionModel<(Phonon::ObjectDescriptionType)1>::rowCount(const QModelIndex&) const 0x00020dbb   Thumb Code    16  objectdescriptionmodel.o(t._ZNK6Phonon22ObjectDescriptionModelILNS_21ObjectDescriptionTypeE1EE8rowCountERK11QModelIndex)
    Phonon::ObjectDescriptionModel<(Phonon::ObjectDescriptionType)1>::mimeTypes() const 0x00020dcb   Thumb Code    18  objectdescriptionmodel.o(t._ZNK6Phonon22ObjectDescriptionModelILNS_21ObjectDescriptionTypeE1EE9mimeTypesEv)
    Phonon::ObjectDescriptionModel<(Phonon::ObjectDescriptionType)2>::metaObject() const 0x00020ddd   Thumb Code     6  objectdescriptionmodel.o(t._ZNK6Phonon22ObjectDescriptionModelILNS_21ObjectDescriptionTypeE2EE10metaObjectEv)
    Phonon::ObjectDescriptionModel<(Phonon::ObjectDescriptionType)2>::supportedDropActions() const 0x00020de9   Thumb Code    16  objectdescriptionmodel.o(t._ZNK6Phonon22ObjectDescriptionModelILNS_21ObjectDescriptionTypeE2EE20supportedDropActionsEv)
    Phonon::ObjectDescriptionModel<(Phonon::ObjectDescriptionType)2>::data(const QModelIndex&, int) const 0x00020df9   Thumb Code    24  objectdescriptionmodel.o(t._ZNK6Phonon22ObjectDescriptionModelILNS_21ObjectDescriptionTypeE2EE4dataERK11QModelIndexi)
    Phonon::ObjectDescriptionModel<(Phonon::ObjectDescriptionType)2>::flags(const QModelIndex&) const 0x00020e11   Thumb Code    20  objectdescriptionmodel.o(t._ZNK6Phonon22ObjectDescriptionModelILNS_21ObjectDescriptionTypeE2EE5flagsERK11QModelIndex)
    Phonon::ObjectDescriptionModel<(Phonon::ObjectDescriptionType)2>::mimeData(const QList<QModelIndex>&) const 0x00020e25   Thumb Code    18  objectdescriptionmodel.o(t._ZNK6Phonon22ObjectDescriptionModelILNS_21ObjectDescriptionTypeE2EE8mimeDataERK5QListI11QModelIndexE)
    Phonon::ObjectDescriptionModel<(Phonon::ObjectDescriptionType)2>::rowCount(const QModelIndex&) const 0x00020e37   Thumb Code    16  objectdescriptionmodel.o(t._ZNK6Phonon22ObjectDescriptionModelILNS_21ObjectDescriptionTypeE2EE8rowCountERK11QModelIndex)
    Phonon::ObjectDescriptionModel<(Phonon::ObjectDescriptionType)2>::mimeTypes() const 0x00020e47   Thumb Code    18  objectdescriptionmodel.o(t._ZNK6Phonon22ObjectDescriptionModelILNS_21ObjectDescriptionTypeE2EE9mimeTypesEv)
    Phonon::ObjectDescriptionModel<(Phonon::ObjectDescriptionType)3>::metaObject() const 0x00020e59   Thumb Code     6  objectdescriptionmodel.o(t._ZNK6Phonon22ObjectDescriptionModelILNS_21ObjectDescriptionTypeE3EE10metaObjectEv)
    Phonon::ObjectDescriptionModel<(Phonon::ObjectDescriptionType)3>::supportedDropActions() const 0x00020e65   Thumb Code    16  objectdescriptionmodel.o(t._ZNK6Phonon22ObjectDescriptionModelILNS_21ObjectDescriptionTypeE3EE20supportedDropActionsEv)
    Phonon::ObjectDescriptionModel<(Phonon::ObjectDescriptionType)3>::data(const QModelIndex&, int) const 0x00020e75   Thumb Code    24  objectdescriptionmodel.o(t._ZNK6Phonon22ObjectDescriptionModelILNS_21ObjectDescriptionTypeE3EE4dataERK11QModelIndexi)
    Phonon::ObjectDescriptionModel<(Phonon::ObjectDescriptionType)3>::flags(const QModelIndex&) const 0x00020e8d   Thumb Code    20  objectdescriptionmodel.o(t._ZNK6Phonon22ObjectDescriptionModelILNS_21ObjectDescriptionTypeE3EE5flagsERK11QModelIndex)
    Phonon::ObjectDescriptionModel<(Phonon::ObjectDescriptionType)3>::mimeData(const QList<QModelIndex>&) const 0x00020ea1   Thumb Code    18  objectdescriptionmodel.o(t._ZNK6Phonon22ObjectDescriptionModelILNS_21ObjectDescriptionTypeE3EE8mimeDataERK5QListI11QModelIndexE)
    Phonon::ObjectDescriptionModel<(Phonon::ObjectDescriptionType)3>::rowCount(const QModelIndex&) const 0x00020eb3   Thumb Code    16  objectdescriptionmodel.o(t._ZNK6Phonon22ObjectDescriptionModelILNS_21ObjectDescriptionTypeE3EE8rowCountERK11QModelIndex)
    Phonon::ObjectDescriptionModel<(Phonon::ObjectDescriptionType)3>::mimeTypes() const 0x00020ec3   Thumb Code    18  objectdescriptionmodel.o(t._ZNK6Phonon22ObjectDescriptionModelILNS_21ObjectDescriptionTypeE3EE9mimeTypesEv)
    Phonon::ObjectDescriptionModel<(Phonon::ObjectDescriptionType)4>::metaObject() const 0x00020ed5   Thumb Code     6  objectdescriptionmodel.o(t._ZNK6Phonon22ObjectDescriptionModelILNS_21ObjectDescriptionTypeE4EE10metaObjectEv)
    Phonon::ObjectDescriptionModel<(Phonon::ObjectDescriptionType)4>::supportedDropActions() const 0x00020ee1   Thumb Code    16  objectdescriptionmodel.o(t._ZNK6Phonon22ObjectDescriptionModelILNS_21ObjectDescriptionTypeE4EE20supportedDropActionsEv)
    Phonon::ObjectDescriptionModel<(Phonon::ObjectDescriptionType)4>::data(const QModelIndex&, int) const 0x00020ef1   Thumb Code    24  objectdescriptionmodel.o(t._ZNK6Phonon22ObjectDescriptionModelILNS_21ObjectDescriptionTypeE4EE4dataERK11QModelIndexi)
