ARM Linker, RVCT2.2 [Build 686]

================================================================================

Image Symbol Table

    Local Symbols

    Symbol Name                              Value     Ov Type        Size  Object(Section)

    ../../unhosted.s                         0x00000000   Number         0  switch8.o ABSOLUTE
    M:\\epoc32\\build\\euser\\c_e18a23aea4fd210f\\edll_lib\\armv5\\udeb\\uc_dll_.cpp 0x00000000   Number         0  uc_dll_.o ABSOLUTE
    M:\\sf\\os\\kernelhwsrv\\kernel\\eka\\compsupp\\rvct\\ucppinit.cpp 0x00000000   Number         0  ucppinit.o ABSOLUTE
    M:\epoc32\build\euser\c_e18a23aea4fd210f\edll_lib\armv5\udeb\uc_dll_.cpp 0x00000000   Number         0  uc_dll_.o ABSOLUTE
    M:\sf\os\kernelhwsrv\kernel\eka\compsupp\rvct\dllexp.cpp 0x00000000   Number         0  dllexp.o ABSOLUTE
    M:\sf\os\kernelhwsrv\kernel\eka\compsupp\rvct\ucppfini.cpp 0x00000000   Number         0  ucppfini.o ABSOLUTE
    M:\sf\os\kernelhwsrv\kernel\eka\compsupp\rvct\ucppinit.cpp 0x00000000   Number         0  ucppinit.o ABSOLUTE
    M:\sf\os\kernelhwsrv\kernel\eka\euser\epoc\arm\uc_dll.cpp 0x00000000   Number         0  uc_dll.o ABSOLUTE
    S:\sf\mw\qt\src\3rdparty\phonon\mmf\abstractaudioeffect.cpp 0x00000000   Number         0  abstractaudioeffect.o ABSOLUTE
    S:\sf\mw\qt\src\3rdparty\phonon\mmf\abstractmediaplayer.cpp 0x00000000   Number         0  abstractmediaplayer.o ABSOLUTE
    S:\sf\mw\qt\src\3rdparty\phonon\mmf\abstractplayer.cpp 0x00000000   Number         0  abstractplayer.o ABSOLUTE
    S:\sf\mw\qt\src\3rdparty\phonon\mmf\abstractvideooutput.cpp 0x00000000   Number         0  abstractvideooutput.o ABSOLUTE
    S:\sf\mw\qt\src\3rdparty\phonon\mmf\abstractvideoplayer.cpp 0x00000000   Number         0  abstractvideoplayer.o ABSOLUTE
    S:\sf\mw\qt\src\3rdparty\phonon\mmf\audioequalizer.cpp 0x00000000   Number         0  audioequalizer.o ABSOLUTE
    S:\sf\mw\qt\src\3rdparty\phonon\mmf\audiooutput.cpp 0x00000000   Number         0  audiooutput.o ABSOLUTE
    S:\sf\mw\qt\src\3rdparty\phonon\mmf\audioplayer.cpp 0x00000000   Number         0  audioplayer.o ABSOLUTE
    S:\sf\mw\qt\src\3rdparty\phonon\mmf\backend.cpp 0x00000000   Number         0  backend.o ABSOLUTE
    S:\sf\mw\qt\src\3rdparty\phonon\mmf\bassboost.cpp 0x00000000   Number         0  bassboost.o ABSOLUTE
    S:\sf\mw\qt\src\3rdparty\phonon\mmf\download.cpp 0x00000000   Number         0  download.o ABSOLUTE
    S:\sf\mw\qt\src\3rdparty\phonon\mmf\dummyplayer.cpp 0x00000000   Number         0  dummyplayer.o ABSOLUTE
    S:\sf\mw\qt\src\3rdparty\phonon\mmf\effectfactory.cpp 0x00000000   Number         0  effectfactory.o ABSOLUTE
    S:\sf\mw\qt\src\3rdparty\phonon\mmf\effectparameter.cpp 0x00000000   Number         0  effectparameter.o ABSOLUTE
    S:\sf\mw\qt\src\3rdparty\phonon\mmf\environmentalreverb.cpp 0x00000000   Number         0  environmentalreverb.o ABSOLUTE
    S:\sf\mw\qt\src\3rdparty\phonon\mmf\loudness.cpp 0x00000000   Number         0  loudness.o ABSOLUTE
    S:\sf\mw\qt\src\3rdparty\phonon\mmf\mediaobject.cpp 0x00000000   Number         0  mediaobject.o ABSOLUTE
    S:\sf\mw\qt\src\3rdparty\phonon\mmf\mmf_medianode.cpp 0x00000000   Number         0  mmf_medianode.o ABSOLUTE
    S:\sf\mw\qt\src\3rdparty\phonon\mmf\objectdump.cpp 0x00000000   Number         0  objectdump.o ABSOLUTE
    S:\sf\mw\qt\src\3rdparty\phonon\mmf\objectdump_symbian.cpp 0x00000000   Number         0  objectdump_symbian.o ABSOLUTE
    S:\sf\mw\qt\src\3rdparty\phonon\mmf\objecttree.cpp 0x00000000   Number         0  objecttree.o ABSOLUTE
    S:\sf\mw\qt\src\3rdparty\phonon\mmf\stereowidening.cpp 0x00000000   Number         0  stereowidening.o ABSOLUTE
    S:\sf\mw\qt\src\3rdparty\phonon\mmf\utils.cpp 0x00000000   Number         0  utils.o ABSOLUTE
    S:\sf\mw\qt\src\3rdparty\phonon\mmf\videooutput_surface.cpp 0x00000000   Number         0  videooutput_surface.o ABSOLUTE
    S:\sf\mw\qt\src\3rdparty\phonon\mmf\videoplayer_surface.cpp 0x00000000   Number         0  videoplayer_surface.o ABSOLUTE
    S:\sf\mw\qt\src\3rdparty\phonon\mmf\videowidget.cpp 0x00000000   Number         0  videowidget.o ABSOLUTE
    S:\sf\mw\qt\src\plugins\phonon\mmf\tmp\moc\debug_shared\moc_abstractaudioeffect.cpp 0x00000000   Number         0  moc_abstractaudioeffect.o ABSOLUTE
    S:\sf\mw\qt\src\plugins\phonon\mmf\tmp\moc\debug_shared\moc_abstractmediaplayer.cpp 0x00000000   Number         0  moc_abstractmediaplayer.o ABSOLUTE
    S:\sf\mw\qt\src\plugins\phonon\mmf\tmp\moc\debug_shared\moc_abstractplayer.cpp 0x00000000   Number         0  moc_abstractplayer.o ABSOLUTE
    S:\sf\mw\qt\src\plugins\phonon\mmf\tmp\moc\debug_shared\moc_abstractvideooutput.cpp 0x00000000   Number         0  moc_abstractvideooutput.o ABSOLUTE
    S:\sf\mw\qt\src\plugins\phonon\mmf\tmp\moc\debug_shared\moc_abstractvideoplayer.cpp 0x00000000   Number         0  moc_abstractvideoplayer.o ABSOLUTE
    S:\sf\mw\qt\src\plugins\phonon\mmf\tmp\moc\debug_shared\moc_audioequalizer.cpp 0x00000000   Number         0  moc_audioequalizer.o ABSOLUTE
    S:\sf\mw\qt\src\plugins\phonon\mmf\tmp\moc\debug_shared\moc_audiooutput.cpp 0x00000000   Number         0  moc_audiooutput.o ABSOLUTE
    S:\sf\mw\qt\src\plugins\phonon\mmf\tmp\moc\debug_shared\moc_audioplayer.cpp 0x00000000   Number         0  moc_audioplayer.o ABSOLUTE
    S:\sf\mw\qt\src\plugins\phonon\mmf\tmp\moc\debug_shared\moc_backend.cpp 0x00000000   Number         0  moc_backend.o ABSOLUTE
    S:\sf\mw\qt\src\plugins\phonon\mmf\tmp\moc\debug_shared\moc_bassboost.cpp 0x00000000   Number         0  moc_bassboost.o ABSOLUTE
    S:\sf\mw\qt\src\plugins\phonon\mmf\tmp\moc\debug_shared\moc_download.cpp 0x00000000   Number         0  moc_download.o ABSOLUTE
    S:\sf\mw\qt\src\plugins\phonon\mmf\tmp\moc\debug_shared\moc_effectfactory.cpp 0x00000000   Number         0  moc_effectfactory.o ABSOLUTE
    S:\sf\mw\qt\src\plugins\phonon\mmf\tmp\moc\debug_shared\moc_environmentalreverb.cpp 0x00000000   Number         0  moc_environmentalreverb.o ABSOLUTE
    S:\sf\mw\qt\src\plugins\phonon\mmf\tmp\moc\debug_shared\moc_loudness.cpp 0x00000000   Number         0  moc_loudness.o ABSOLUTE
    S:\sf\mw\qt\src\plugins\phonon\mmf\tmp\moc\debug_shared\moc_mediaobject.cpp 0x00000000   Number         0  moc_mediaobject.o ABSOLUTE
    S:\sf\mw\qt\src\plugins\phonon\mmf\tmp\moc\debug_shared\moc_mmf_medianode.cpp 0x00000000   Number         0  moc_mmf_medianode.o ABSOLUTE
    S:\sf\mw\qt\src\plugins\phonon\mmf\tmp\moc\debug_shared\moc_objectdump.cpp 0x00000000   Number         0  moc_objectdump.o ABSOLUTE
    S:\sf\mw\qt\src\plugins\phonon\mmf\tmp\moc\debug_shared\moc_objectdump_symbian.cpp 0x00000000   Number         0  moc_objectdump_symbian.o ABSOLUTE
    S:\sf\mw\qt\src\plugins\phonon\mmf\tmp\moc\debug_shared\moc_stereowidening.cpp 0x00000000   Number         0  moc_stereowidening.o ABSOLUTE
    S:\sf\mw\qt\src\plugins\phonon\mmf\tmp\moc\debug_shared\moc_videooutput_surface.cpp 0x00000000   Number         0  moc_videooutput_surface.o ABSOLUTE
    S:\sf\mw\qt\src\plugins\phonon\mmf\tmp\moc\debug_shared\moc_videoplayer_surface.cpp 0x00000000   Number         0  moc_videoplayer_surface.o ABSOLUTE
    S:\sf\mw\qt\src\plugins\phonon\mmf\tmp\moc\debug_shared\moc_videowidget.cpp 0x00000000   Number         0  moc_videowidget.o ABSOLUTE
    .emb_text                                0x00008000   Section       40  uc_dll_.o(.emb_text)
    Symbian$$eit_base                        0x00008014   Data           4  uc_dll_.o(.emb_text)
    Symbian$$eit_limit                       0x00008018   Data           4  uc_dll_.o(.emb_text)
    Symbian$$code_seg_base                   0x0000801c   Data           4  uc_dll_.o(.emb_text)
    Symbian$$code_seg_limit                  0x00008020   Data           4  uc_dll_.o(.emb_text)
    Symbian$$reserved                        0x00008024   Data           4  uc_dll_.o(.emb_text)
    .emb_text                                0x00008028   Section       52  ucppinit.o(.emb_text)
    loop                                     0x0000803c   ARM Code       0  ucppinit.o(.emb_text)
    ret                                      0x00008044   ARM Code       0  ucppinit.o(.emb_text)
    base                                     0x00008054   Data           0  ucppinit.o(.emb_text)
    limit                                    0x00008058   Data           0  ucppinit.o(.emb_text)
    .text                                    0x00008b14   Section     1748  abstractaudioeffect.o(.text)
    |L1.980|                                 0x00008ee8   Data           0  abstractaudioeffect.o(.text)
    .text                                    0x000091e8   Section     5908  abstractmediaplayer.o(.text)
    |L1.1004|                                0x000095d4   Data           0  abstractmediaplayer.o(.text)
    |L1.1076|                                0x0000961c   Data           0  abstractmediaplayer.o(.text)
    |L1.1144|                                0x00009660   Data           0  abstractmediaplayer.o(.text)
    |L1.2080|                                0x00009a08   Data           0  abstractmediaplayer.o(.text)
    .text                                    0x0000a8fc   Section      908  abstractplayer.o(.text)
    .text                                    0x0000ac88   Section      752  audioequalizer.o(.text)
    .text                                    0x0000af78   Section      916  audiooutput.o(.text)
    .text                                    0x0000b30c   Section     2192  audioplayer.o(.text)
    |L1.1060|                                0x0000b730   Data           0  audioplayer.o(.text)
    |L1.1128|                                0x0000b774   Data           0  audioplayer.o(.text)
    .text                                    0x0000bb9c   Section      752  abstractvideooutput.o(.text)
    .text                                    0x0000be8c   Section     5032  abstractvideoplayer.o(.text)
    |L1.644|                                 0x0000c110   Data           0  abstractvideoplayer.o(.text)
    |L1.700|                                 0x0000c148   Data           0  abstractvideoplayer.o(.text)
    |L1.2952|                                0x0000ca14   Data           0  abstractvideoplayer.o(.text)
    |L1.2988|                                0x0000ca38   Data           0  abstractvideoplayer.o(.text)
    |L1.3048|                                0x0000ca74   Data           0  abstractvideoplayer.o(.text)
    .text                                    0x0000d234   Section     2600  backend.o(.text)
    |L1.592|                                 0x0000d484   Data           0  backend.o(.text)
    |L1.816|                                 0x0000d564   Data           0  backend.o(.text)
    |L1.1860|                                0x0000d978   Data           0  backend.o(.text)
    |L1.1984|                                0x0000d9f4   Data           0  backend.o(.text)
    .text                                    0x0000dc5c   Section      304  bassboost.o(.text)
    .text                                    0x0000dd8c   Section       92  dummyplayer.o(.text)
    .text                                    0x0000dde8   Section     1036  effectfactory.o(.text)
    .text                                    0x0000e1f4   Section      568  effectparameter.o(.text)
    .text                                    0x0000e42c   Section     2300  environmentalreverb.o(.text)
    .text                                    0x0000ed28   Section      304  loudness.o(.text)
    .text                                    0x0000ee58   Section     5540  mediaobject.o(.text)
    |L1.1064|                                0x0000f280   Data           0  mediaobject.o(.text)
    |L1.3340|                                0x0000fb64   Data           0  mediaobject.o(.text)
    .text                                    0x000103fc   Section     1200  mmf_medianode.o(.text)
    .text                                    0x000108ac   Section      772  stereowidening.o(.text)
    .text                                    0x00010bb0   Section     4288  objectdump.o(.text)
    |L1.3192|                                0x00011828   Data           0  objectdump.o(.text)
    .text                                    0x00011c70   Section     1230  objectdump_symbian.o(.text)
    .text                                    0x00012140   Section      664  objecttree.o(.text)
    getScreenInfoL(TScreenInfo&)             0x000123d9   Thumb Code   140  utils.o(.text)
    .text                                    0x000123d8   Section     1908  utils.o(.text)
    .text                                    0x00012b4c   Section     1710  videowidget.o(.text)
    .text                                    0x000131fc   Section      780  videooutput_surface.o(.text)
    .text                                    0x00013508   Section     1756  videoplayer_surface.o(.text)
    |L1.964|                                 0x000138cc   Data           0  videoplayer_surface.o(.text)
    |L1.1084|                                0x00013944   Data           0  videoplayer_surface.o(.text)
    |L1.1108|                                0x0001395c   Data           0  videoplayer_surface.o(.text)
    .text                                    0x00013be4   Section     2332  download.o(.text)
    |L1.736|                                 0x00013ec4   Data           0  download.o(.text)
    |L1.880|                                 0x00013f54   Data           0  download.o(.text)
    |L1.2004|                                0x000143b8   Data           0  download.o(.text)
    .text                                    0x00014500   Section      252  moc_abstractaudioeffect.o(.text)
    .text                                    0x000145fc   Section      188  moc_abstractmediaplayer.o(.text)
    .text                                    0x000146b8   Section      476  moc_abstractplayer.o(.text)
    .text                                    0x00014894   Section      220  moc_abstractvideooutput.o(.text)
    .text                                    0x00014970   Section      256  moc_abstractvideoplayer.o(.text)
    .text                                    0x00014a70   Section      120  moc_audioequalizer.o(.text)
    .text                                    0x00014ae8   Section      308  moc_audiooutput.o(.text)
    .text                                    0x00014c1c   Section      204  moc_audioplayer.o(.text)
    .text                                    0x00014ce8   Section      268  moc_backend.o(.text)
    .text                                    0x00014df4   Section      120  moc_bassboost.o(.text)
    .text                                    0x00014e6c   Section      120  moc_effectfactory.o(.text)
    .text                                    0x00014ee4   Section      120  moc_environmentalreverb.o(.text)
    .text                                    0x00014f5c   Section      120  moc_loudness.o(.text)
    .text                                    0x00014fd4   Section      788  moc_mediaobject.o(.text)
    .text                                    0x000152e8   Section      120  moc_mmf_medianode.o(.text)
    .text                                    0x00015360   Section      120  moc_stereowidening.o(.text)
    .text                                    0x000153d8   Section      584  moc_objectdump.o(.text)
    .text                                    0x00015620   Section      352  moc_objectdump_symbian.o(.text)
    .text                                    0x00015780   Section      228  moc_videowidget.o(.text)
    .text                                    0x00015864   Section      160  moc_videooutput_surface.o(.text)
    .text                                    0x00015904   Section      140  moc_videoplayer_surface.o(.text)
    .text                                    0x00015990   Section      548  moc_download.o(.text)
    .text                                    0x00015bb4   Section       24  switch8.o(.text)
    .text                                    0x00015bcc   Section       80  uc_dll.o(.text)
    .text                                    0x00015c1c   Section      180  ucppfini.o(.text)
    .text                                    0x00015cd0   Section        4  dllexp.o(.text)
    .text.clean                              0x00015cd4   Section      124  abstractaudioeffect.o(.text.clean)
    .text.clean                              0x00015d50   Section      282  abstractmediaplayer.o(.text.clean)
    .text.clean                              0x00015e6a   Section       58  abstractplayer.o(.text.clean)
    .text.clean                              0x00015ea4   Section       86  audioequalizer.o(.text.clean)
    .text.clean                              0x00015efa   Section       66  audiooutput.o(.text.clean)
    .text.clean                              0x00015f3c   Section      150  audioplayer.o(.text.clean)
    .text.clean                              0x00015fd2   Section       32  abstractvideooutput.o(.text.clean)
    .text.clean                              0x00015ff2   Section      230  abstractvideoplayer.o(.text.clean)
    .text.clean                              0x000160d8   Section      188  backend.o(.text.clean)
    .text.clean                              0x00016194   Section       24  bassboost.o(.text.clean)
    .text.clean                              0x000161ac   Section      140  effectfactory.o(.text.clean)
    .text.clean                              0x00016238   Section        8  effectparameter.o(.text.clean)
    .text.clean                              0x00016240   Section      270  environmentalreverb.o(.text.clean)
    .text.clean                              0x0001634e   Section       24  loudness.o(.text.clean)
    .text.clean                              0x00016366   Section      340  mediaobject.o(.text.clean)
    .text.clean                              0x000164ba   Section       58  mmf_medianode.o(.text.clean)
    .text.clean                              0x000164f4   Section       80  stereowidening.o(.text.clean)
    .text.clean                              0x00016544   Section      602  objectdump.o(.text.clean)
    .text.clean                              0x0001679e   Section      142  objectdump_symbian.o(.text.clean)
    .text.clean                              0x0001682c   Section       10  objecttree.o(.text.clean)
    .text.clean                              0x00016836   Section       20  utils.o(.text.clean)
    .text.clean                              0x0001684a   Section       74  videowidget.o(.text.clean)
    .text.clean                              0x00016894   Section       20  videooutput_surface.o(.text.clean)
    .text.clean                              0x000168a8   Section       66  videoplayer_surface.o(.text.clean)
    .text.clean                              0x000168ea   Section      136  download.o(.text.clean)
    i._Z6qDebugv                             0x00016974   Section      112  objectdump.o(i._Z6qDebugv)
    i._Z6qDebugv.clean                       0x000169e4   Section       24  objectdump.o(i._Z6qDebugv.clean)
    i._ZN10ObjectDump10QAnnotatorC2Ev        0x000169fc   Section       28  objectdump.o(i._ZN10ObjectDump10QAnnotatorC2Ev)
    i._ZN10ObjectDump15QAnnotatorBasicC1Ev   0x00016a18   Section       24  objectdump.o(i._ZN10ObjectDump15QAnnotatorBasicC1Ev)
    i._ZN10ObjectDump15QAnnotatorBasicD0Ev   0x00016a30   Section       24  moc_objectdump.o(i._ZN10ObjectDump15QAnnotatorBasicD0Ev)
    i._ZN10ObjectDump15QAnnotatorBasicD1Ev   0x00016a48   Section       14  moc_objectdump.o(i._ZN10ObjectDump15QAnnotatorBasicD1Ev)
    i._ZN10ObjectDump16QAnnotatorWidgetC1Ev  0x00016a58   Section       24  objectdump.o(i._ZN10ObjectDump16QAnnotatorWidgetC1Ev)
    i._ZN10ObjectDump16QAnnotatorWidgetD0Ev  0x00016a70   Section       24  moc_objectdump.o(i._ZN10ObjectDump16QAnnotatorWidgetD0Ev)
    i._ZN10ObjectDump16QAnnotatorWidgetD1Ev  0x00016a88   Section       14  moc_objectdump.o(i._ZN10ObjectDump16QAnnotatorWidgetD1Ev)
    i._ZN10ObjectDump7Symbian16QAnnotatorWidgetC1Ev 0x00016a98   Section       24  objectdump_symbian.o(i._ZN10ObjectDump7Symbian16QAnnotatorWidgetC1Ev)
    i._ZN10ObjectDump7Symbian16QAnnotatorWidgetD0Ev 0x00016ab0   Section       24  moc_objectdump_symbian.o(i._ZN10ObjectDump7Symbian16QAnnotatorWidgetD0Ev)
    i._ZN10ObjectDump7Symbian16QAnnotatorWidgetD1Ev 0x00016ac8   Section       14  moc_objectdump_symbian.o(i._ZN10ObjectDump7Symbian16QAnnotatorWidgetD1Ev)
    i._ZN10ObjectDump7Symbian16QAnnotatorWindowC1Ev 0x00016ad8   Section       24  objectdump_symbian.o(i._ZN10ObjectDump7Symbian16QAnnotatorWindowC1Ev)
    i._ZN10ObjectDump7Symbian16QAnnotatorWindowD0Ev 0x00016af0   Section       24  moc_objectdump_symbian.o(i._ZN10ObjectDump7Symbian16QAnnotatorWindowD0Ev)
    i._ZN10ObjectDump7Symbian16QAnnotatorWindowD1Ev 0x00016b08   Section       14  moc_objectdump_symbian.o(i._ZN10ObjectDump7Symbian16QAnnotatorWindowD1Ev)
    i._ZN10ObjectDump7Symbian17QAnnotatorControlC1Ev 0x00016b18   Section       24  objectdump_symbian.o(i._ZN10ObjectDump7Symbian17QAnnotatorControlC1Ev)
    i._ZN10ObjectDump7Symbian17QAnnotatorControlD0Ev 0x00016b30   Section       24  moc_objectdump_symbian.o(i._ZN10ObjectDump7Symbian17QAnnotatorControlD0Ev)
    i._ZN10ObjectDump7Symbian17QAnnotatorControlD1Ev 0x00016b48   Section       14  moc_objectdump_symbian.o(i._ZN10ObjectDump7Symbian17QAnnotatorControlD1Ev)
    i._ZN10ObjectTree21AncestorConstIteratorC1ERKS0_ 0x00016b56   Section       44  objectdump.o(i._ZN10ObjectTree21AncestorConstIteratorC1ERKS0_)
    i._ZN10ObjectTree21AncestorConstIteratorD1Ev 0x00016b82   Section       20  objectdump.o(i._ZN10ObjectTree21AncestorConstIteratorD1Ev)
    i._ZN10ObjectTree23DepthFirstConstIteratorC1ERKS0_ 0x00016b96   Section       46  objectdump.o(i._ZN10ObjectTree23DepthFirstConstIteratorC1ERKS0_)
    i._ZN10ObjectTree23DepthFirstConstIteratorD1Ev 0x00016bc4   Section       20  objectdump.o(i._ZN10ObjectTree23DepthFirstConstIteratorD1Ev)
    i._ZN10QByteArrayC1ERKS_                 0x00016bd8   Section       20  audiooutput.o(i._ZN10QByteArrayC1ERKS_)
    i._ZN10QByteArrayC1Ev                    0x00016bec   Section       24  objectdump.o(i._ZN10QByteArrayC1Ev)
    i._ZN10QByteArrayD1Ev                    0x00016c04   Section       24  audiooutput.o(i._ZN10QByteArrayD1Ev)
    i._ZN11QStringListD1Ev                   0x00016c1c   Section       14  backend.o(i._ZN11QStringListD1Ev)
    i._ZN13CArrayFixFlatI9TDataTypeED0Ev     0x00016c2a   Section       24  backend.o(i._ZN13CArrayFixFlatI9TDataTypeED0Ev)
    i._ZN13CArrayFixFlatI9TDataTypeED1Ev     0x00016c42   Section       14  backend.o(i._ZN13CArrayFixFlatI9TDataTypeED1Ev)
    i._ZN15QBasicAtomicInt3refEv             0x00016c50   Section       24  abstractaudioeffect.o(i._ZN15QBasicAtomicInt3refEv)
    i._ZN15QBasicAtomicInt5derefEv           0x00016c68   Section       24  abstractaudioeffect.o(i._ZN15QBasicAtomicInt5derefEv)
    i._ZN15QtSharedPointer20ExternalRefCountData7destroyEv 0x00016c80   Section        6  abstractaudioeffect.o(i._ZN15QtSharedPointer20ExternalRefCountData7destroyEv)
    i._ZN15QtSharedPointer20ExternalRefCountDataD0Ev 0x00016c86   Section       22  abstractaudioeffect.o(i._ZN15QtSharedPointer20ExternalRefCountDataD0Ev)
    i._ZN15QtSharedPointer20ExternalRefCountDataD1Ev 0x00016c9c   Section      108  abstractaudioeffect.o(i._ZN15QtSharedPointer20ExternalRefCountDataD1Ev)
    i._ZN17QForeachContainerI5QListI10QByteArrayEED1Ev 0x00016d08   Section       14  objectdump.o(i._ZN17QForeachContainerI5QListI10QByteArrayEED1Ev)
    i._ZN17QForeachContainerI5QListIN6Phonon3MMF15EffectParameterEEED1Ev 0x00016d16   Section       14  abstractaudioeffect.o(i._ZN17QForeachContainerI5QListIN6Phonon3MMF15EffectParameterEEED1Ev)
    i._ZN17QForeachContainerI5QListIPN10ObjectDump10QAnnotatorEEED1Ev 0x00016d24   Section       14  objectdump.o(i._ZN17QForeachContainerI5QListIPN10ObjectDump10QAnnotatorEEED1Ev)
    i._ZN17QForeachContainerI5QListIPN10ObjectDump15QVisitorPrivate4NodeEEED1Ev 0x00016d32   Section       14  objectdump.o(i._ZN17QForeachContainerI5QListIPN10ObjectDump15QVisitorPrivate4NodeEEED1Ev)
    i._ZN17QForeachContainerI5QListIPN6Phonon3MMF9MediaNodeEEED1Ev 0x00016d40   Section       14  mmf_medianode.o(i._ZN17QForeachContainerI5QListIPN6Phonon3MMF9MediaNodeEEED1Ev)
    i._ZN19OutputStreamFactory17MaoscBufferCopiedEiRK6TDesC8 0x00016d4e   Section        2  effectfactory.o(i._ZN19OutputStreamFactory17MaoscBufferCopiedEiRK6TDesC8)
    i._ZN19OutputStreamFactory17MaoscOpenCompleteEi 0x00016d50   Section        2  effectfactory.o(i._ZN19OutputStreamFactory17MaoscOpenCompleteEi)
    i._ZN19OutputStreamFactory17MaoscPlayCompleteEi 0x00016d52   Section        2  effectfactory.o(i._ZN19OutputStreamFactory17MaoscPlayCompleteEi)
    i._ZN19OutputStreamFactory6createEv      0x00016d54   Section       82  effectfactory.o(i._ZN19OutputStreamFactory6createEv)
    i._ZN19OutputStreamFactory6createEv.clean 0x00016da6   Section       10  effectfactory.o(i._ZN19OutputStreamFactory6createEv.clean)
    i._ZN19OutputStreamFactoryC1Ev           0x00016db0   Section       20  effectfactory.o(i._ZN19OutputStreamFactoryC1Ev)
    i._ZN22QGraphicsEffectPrivateD1Ev        0x00016dc4   Section       14  objectdump_symbian.o(i._ZN22QGraphicsEffectPrivateD1Ev)
    i._ZN26QGraphicsBlurEffectPrivateD0Ev    0x00016dd2   Section       22  objectdump_symbian.o(i._ZN26QGraphicsBlurEffectPrivateD0Ev)
    i._ZN26QGraphicsBlurEffectPrivateD1Ev    0x00016de8   Section       40  objectdump_symbian.o(i._ZN26QGraphicsBlurEffectPrivateD1Ev)
    i._ZN26QGraphicsBlurEffectPrivateD1Ev.clean 0x00016e10   Section       10  objectdump_symbian.o(i._ZN26QGraphicsBlurEffectPrivateD1Ev.clean)
    i._ZN30QGraphicsColorizeEffectPrivateD0Ev 0x00016e1a   Section       22  objectdump_symbian.o(i._ZN30QGraphicsColorizeEffectPrivateD0Ev)
    i._ZN30QGraphicsColorizeEffectPrivateD1Ev 0x00016e30   Section       40  objectdump_symbian.o(i._ZN30QGraphicsColorizeEffectPrivateD1Ev)
    i._ZN30QGraphicsColorizeEffectPrivateD1Ev.clean 0x00016e58   Section       10  objectdump_symbian.o(i._ZN30QGraphicsColorizeEffectPrivateD1Ev.clean)
    i._ZN32QGraphicsDropShadowEffectPrivateD0Ev 0x00016e62   Section       22  objectdump_symbian.o(i._ZN32QGraphicsDropShadowEffectPrivateD0Ev)
    i._ZN32QGraphicsDropShadowEffectPrivateD1Ev 0x00016e78   Section       40  objectdump_symbian.o(i._ZN32QGraphicsDropShadowEffectPrivateD1Ev)
    i._ZN32QGraphicsDropShadowEffectPrivateD1Ev.clean 0x00016ea0   Section       10  objectdump_symbian.o(i._ZN32QGraphicsDropShadowEffectPrivateD1Ev.clean)
    i._ZN4QSetIiED1Ev                        0x00016eaa   Section       14  effectfactory.o(i._ZN4QSetIiED1Ev)
    i._ZN5QPairI7QStringS0_ED1Ev             0x00016eb8   Section       22  abstractmediaplayer.o(i._ZN5QPairI7QStringS0_ED1Ev)
    i._ZN5QPairI7QStringS0_ED1Ev.clean       0x00016ece   Section       10  abstractmediaplayer.o(i._ZN5QPairI7QStringS0_ED1Ev.clean)
    i._ZN5QRect7setSizeERK5QSize             0x00016ed8   Section       26  abstractvideoplayer.o(i._ZN5QRect7setSizeERK5QSize)
    i._ZN6Phonon15EffectInterfaceD0Ev        0x00016ef2   Section       18  abstractaudioeffect.o(i._ZN6Phonon15EffectInterfaceD0Ev)
    i._ZN6Phonon15EffectInterfaceD2Ev        0x00016f04   Section        2  abstractaudioeffect.o(i._ZN6Phonon15EffectInterfaceD2Ev)
    i._ZN6Phonon16BackendInterfaceD0Ev       0x00016f06   Section       18  backend.o(i._ZN6Phonon16BackendInterfaceD0Ev)
    i._ZN6Phonon16BackendInterfaceD2Ev       0x00016f18   Section        2  backend.o(i._ZN6Phonon16BackendInterfaceD2Ev)
    i._ZN6Phonon20MediaObjectInterfaceD0Ev   0x00016f1a   Section       18  mediaobject.o(i._ZN6Phonon20MediaObjectInterfaceD0Ev)
    i._ZN6Phonon20MediaObjectInterfaceD2Ev   0x00016f2c   Section        2  mediaobject.o(i._ZN6Phonon20MediaObjectInterfaceD2Ev)
    i._ZN6Phonon20VideoWidgetInterfaceD0Ev   0x00016f2e   Section       18  videowidget.o(i._ZN6Phonon20VideoWidgetInterfaceD0Ev)
    i._ZN6Phonon20VideoWidgetInterfaceD2Ev   0x00016f40   Section        2  videowidget.o(i._ZN6Phonon20VideoWidgetInterfaceD2Ev)
    i._ZN6Phonon22AudioOutputInterface40D0Ev 0x00016f42   Section       18  audiooutput.o(i._ZN6Phonon22AudioOutputInterface40D0Ev)
    i._ZN6Phonon22AudioOutputInterface40D2Ev 0x00016f54   Section        2  audiooutput.o(i._ZN6Phonon22AudioOutputInterface40D2Ev)
    i._ZN6Phonon3MMF11AudioOutputD0Ev        0x00016f56   Section       22  moc_audiooutput.o(i._ZN6Phonon3MMF11AudioOutputD0Ev)
    i._ZN6Phonon3MMF11AudioOutputD1Ev        0x00016f6c   Section       22  moc_audiooutput.o(i._ZN6Phonon3MMF11AudioOutputD1Ev)
    i._ZN6Phonon3MMF11AudioOutputD1Ev.clean  0x00016f82   Section        4  moc_audiooutput.o(i._ZN6Phonon3MMF11AudioOutputD1Ev.clean)
    i._ZN6Phonon3MMF11DummyPlayerD0Ev        0x00016f86   Section       24  dummyplayer.o(i._ZN6Phonon3MMF11DummyPlayerD0Ev)
    i._ZN6Phonon3MMF11DummyPlayerD1Ev        0x00016f9e   Section       14  dummyplayer.o(i._ZN6Phonon3MMF11DummyPlayerD1Ev)
    i._ZN6Phonon3MMF11MediaObject2trEPKcS3_  0x00016fac   Section       28  mediaobject.o(i._ZN6Phonon3MMF11MediaObject2trEPKcS3_)
    i._ZN6Phonon3MMF13EffectFactory10EffectDataC1Ev 0x00016fc8   Section       52  effectfactory.o(i._ZN6Phonon3MMF13EffectFactory10EffectDataC1Ev)
    i._ZN6Phonon3MMF13EffectFactory10EffectDataC1Ev.clean 0x00016ffc   Section       10  effectfactory.o(i._ZN6Phonon3MMF13EffectFactory10EffectDataC1Ev.clean)
    i._ZN6Phonon3MMF13EffectFactory10EffectDataD1Ev 0x00017006   Section       28  effectfactory.o(i._ZN6Phonon3MMF13EffectFactory10EffectDataD1Ev)
    i._ZN6Phonon3MMF13EffectFactory10EffectDataD1Ev.clean 0x00017022   Section       10  effectfactory.o(i._ZN6Phonon3MMF13EffectFactory10EffectDataD1Ev.clean)
    i._ZN6Phonon3MMF13EffectFactory10EffectDataaSERKS2_ 0x0001702c   Section      164  effectfactory.o(i._ZN6Phonon3MMF13EffectFactory10EffectDataaSERKS2_)
    i._ZN6Phonon3MMF13EffectFactory2trEPKcS3_ 0x000170d0   Section       28  effectfactory.o(i._ZN6Phonon3MMF13EffectFactory2trEPKcS3_)
    i._ZN6Phonon3MMF14AbstractPlayerD0Ev     0x000170ec   Section       22  moc_abstractplayer.o(i._ZN6Phonon3MMF14AbstractPlayerD0Ev)
    i._ZN6Phonon3MMF14AbstractPlayerD2Ev     0x00017104   Section       36  abstractmediaplayer.o(i._ZN6Phonon3MMF14AbstractPlayerD2Ev)
    i._ZN6Phonon3MMF14AbstractPlayerD2Ev.clean 0x00017128   Section       10  abstractmediaplayer.o(i._ZN6Phonon3MMF14AbstractPlayerD2Ev.clean)
    i._ZN6Phonon3MMF14AudioEqualizerD0Ev     0x00017132   Section       24  moc_audioequalizer.o(i._ZN6Phonon3MMF14AudioEqualizerD0Ev)
    i._ZN6Phonon3MMF14AudioEqualizerD1Ev     0x0001714a   Section       14  moc_audioequalizer.o(i._ZN6Phonon3MMF14AudioEqualizerD1Ev)
    i._ZN6Phonon3MMF14StereoWideningD0Ev     0x00017158   Section       24  moc_stereowidening.o(i._ZN6Phonon3MMF14StereoWideningD0Ev)
    i._ZN6Phonon3MMF14StereoWideningD1Ev     0x00017170   Section       14  moc_stereowidening.o(i._ZN6Phonon3MMF14StereoWideningD1Ev)
    i._ZN6Phonon3MMF15EffectParameterC1ERKS1_ 0x0001717e   Section       32  abstractaudioeffect.o(i._ZN6Phonon3MMF15EffectParameterC1ERKS1_)
    i._ZN6Phonon3MMF15EffectParameterD1Ev    0x0001719e   Section       14  abstractaudioeffect.o(i._ZN6Phonon3MMF15EffectParameterD1Ev)
    i._ZN6Phonon3MMF15EffectParameteraSERKS1_ 0x000171ac   Section       40  abstractaudioeffect.o(i._ZN6Phonon3MMF15EffectParameteraSERKS1_)
    i._ZN6Phonon3MMF19AbstractAudioEffectD0Ev 0x000171d4   Section       22  moc_abstractaudioeffect.o(i._ZN6Phonon3MMF19AbstractAudioEffectD0Ev)
    i._ZN6Phonon3MMF19AbstractAudioEffectD2Ev 0x000171ec   Section       72  moc_abstractaudioeffect.o(i._ZN6Phonon3MMF19AbstractAudioEffectD2Ev)
    i._ZN6Phonon3MMF19AbstractAudioEffectD2Ev.clean 0x00017234   Section       46  moc_abstractaudioeffect.o(i._ZN6Phonon3MMF19AbstractAudioEffectD2Ev.clean)
    i._ZN6Phonon3MMF19AbstractMediaPlayer2trEPKcS3_ 0x00017264   Section       28  abstractmediaplayer.o(i._ZN6Phonon3MMF19AbstractMediaPlayer2trEPKcS3_)
    i._ZN6Phonon3MMF19AbstractMediaPlayerD0Ev 0x00017280   Section       22  moc_abstractmediaplayer.o(i._ZN6Phonon3MMF19AbstractMediaPlayerD0Ev)
    i._ZN6Phonon3MMF19AbstractMediaPlayerD2Ev 0x00017298   Section       60  audioplayer.o(i._ZN6Phonon3MMF19AbstractMediaPlayerD2Ev)
    i._ZN6Phonon3MMF19AbstractMediaPlayerD2Ev.clean 0x000172d4   Section       34  audioplayer.o(i._ZN6Phonon3MMF19AbstractMediaPlayerD2Ev.clean)
    i._ZN6Phonon3MMF19AbstractVideoPlayer2trEPKcS3_ 0x000172f8   Section       28  abstractvideoplayer.o(i._ZN6Phonon3MMF19AbstractVideoPlayer2trEPKcS3_)
    i._ZN6Phonon3MMF19EnvironmentalReverb2trEPKcS3_ 0x00017314   Section       28  environmentalreverb.o(i._ZN6Phonon3MMF19EnvironmentalReverb2trEPKcS3_)
    i._ZN6Phonon3MMF19EnvironmentalReverbD0Ev 0x00017330   Section       24  moc_environmentalreverb.o(i._ZN6Phonon3MMF19EnvironmentalReverbD0Ev)
    i._ZN6Phonon3MMF19EnvironmentalReverbD1Ev 0x00017348   Section       14  moc_environmentalreverb.o(i._ZN6Phonon3MMF19EnvironmentalReverbD1Ev)
    i._ZN6Phonon3MMF5Utils2trEPKcS3_         0x00017358   Section       32  utils.o(i._ZN6Phonon3MMF5Utils2trEPKcS3_)
    i._ZN6Phonon3MMF7BackendD0Ev             0x00017378   Section       22  moc_backend.o(i._ZN6Phonon3MMF7BackendD0Ev)
    i._ZN6Phonon3MMF7BackendD1Ev             0x00017390   Section       48  moc_backend.o(i._ZN6Phonon3MMF7BackendD1Ev)
    i._ZN6Phonon3MMF7BackendD1Ev.clean       0x000173c0   Section       22  moc_backend.o(i._ZN6Phonon3MMF7BackendD1Ev.clean)
    i._ZN6Phonon3MMF8LoudnessD0Ev            0x000173d6   Section       24  moc_loudness.o(i._ZN6Phonon3MMF8LoudnessD0Ev)
    i._ZN6Phonon3MMF8LoudnessD1Ev            0x000173ee   Section       14  moc_loudness.o(i._ZN6Phonon3MMF8LoudnessD1Ev)
    i._ZN6Phonon3MMF9BassBoostD0Ev           0x000173fc   Section       24  moc_bassboost.o(i._ZN6Phonon3MMF9BassBoostD0Ev)
    i._ZN6Phonon3MMF9BassBoostD1Ev           0x00017414   Section       14  moc_bassboost.o(i._ZN6Phonon3MMF9BassBoostD1Ev)
    i._ZN6QDebug10maybeSpaceEv               0x00017422   Section       24  objectdump.o(i._ZN6QDebug10maybeSpaceEv)
    i._ZN6QDebugD1Ev                         0x0001743a   Section      144  objectdump.o(i._ZN6QDebugD1Ev)
    i._ZN6QDebugD1Ev.clean                   0x000174ca   Section       20  objectdump.o(i._ZN6QDebugD1Ev.clean)
    i._ZN6QDebuglsEPKc                       0x000174de   Section       44  objectdump.o(i._ZN6QDebuglsEPKc)
    i._ZN6QDebuglsEPKc.clean                 0x0001750a   Section       10  objectdump.o(i._ZN6QDebuglsEPKc.clean)
    i._ZN7QStringC1ERKS_                     0x00017514   Section      124  abstractmediaplayer.o(i._ZN7QStringC1ERKS_)
    i._ZN7QStringC1Ev                        0x00017590   Section       24  effectfactory.o(i._ZN7QStringC1Ev)
    i._ZN7QStringD1Ev                        0x000175a8   Section       24  abstractmediaplayer.o(i._ZN7QStringD1Ev)
    i._ZN8QVariantC1Ef                       0x000175c0   Section       58  audioequalizer.o(i._ZN8QVariantC1Ef)
    i._ZN8QVariantC1Ev                       0x000175fa   Section       38  effectfactory.o(i._ZN8QVariantC1Ev)
    i._ZN9CArrayFixI9TDataTypeED0Ev          0x00017620   Section       22  backend.o(i._ZN9CArrayFixI9TDataTypeED0Ev)
    i._ZN9CArrayFixI9TDataTypeED1Ev          0x00017636   Section       14  backend.o(i._ZN9CArrayFixI9TDataTypeED1Ev)
    i._ZN9QHashData8willGrowEv               0x00017644   Section       32  effectfactory.o(i._ZN9QHashData8willGrowEv)
    i._ZN9QMultiMapI7QStringS0_ED1Ev         0x00017664   Section       14  abstractmediaplayer.o(i._ZN9QMultiMapI7QStringS0_ED1Ev)
    i._ZNK15QBasicAtomicInteqEi              0x00017672   Section       16  objectdump.o(i._ZNK15QBasicAtomicInteqEi)
    i._ZNK15QBasicAtomicIntneEi              0x00017682   Section       16  abstractaudioeffect.o(i._ZNK15QBasicAtomicIntneEi)
    i._ZNK5QBoolcvPKvEv                      0x00017692   Section       16  mmf_medianode.o(i._ZNK5QBoolcvPKvEv)
    i._ZNK6Phonon20MediaObjectInterface13remainingTimeEv 0x000176a2   Section       46  mediaobject.o(i._ZNK6Phonon20MediaObjectInterface13remainingTimeEv)
    i._ZNK6Phonon3MMF13TTraceContext7EnabledEv 0x000176d0   Section       22  abstractmediaplayer.o(i._ZNK6Phonon3MMF13TTraceContext7EnabledEv)
    i._ZNK7QObject12isWidgetTypeEv           0x000176e6   Section       18  objectdump.o(i._ZNK7QObject12isWidgetTypeEv)
    i._ZNK7QObject6parentEv                  0x000176f8   Section       14  objecttree.o(i._ZNK7QObject6parentEv)
    i._ZNK7QObject7connectEPKS_PKcS3_N2Qt14ConnectionTypeE 0x00017706   Section       30  abstractaudioeffect.o(i._ZNK7QObject7connectEPKS_PKcS3_N2Qt14ConnectionTypeE)
    i._ZNK7QWidget4sizeEv                    0x00017724   Section       44  objectdump.o(i._ZNK7QWidget4sizeEv)
    i._ZNK9QListData2atEi                    0x00017750   Section       20  mmf_medianode.o(i._ZNK9QListData2atEi)
    i._ZNK9QListData3endEv                   0x00017764   Section       16  abstractaudioeffect.o(i._ZNK9QListData3endEv)
    i._ZNK9QListData5beginEv                 0x00017774   Section       16  abstractaudioeffect.o(i._ZNK9QListData5beginEv)
    i._ZNK9QListData7isEmptyEv               0x00017784   Section       22  backend.o(i._ZNK9QListData7isEmptyEv)
    i._ZThn20_N6Phonon3MMF11AudioOutputD0Ev  0x0001779a   Section       14  moc_audiooutput.o(i._ZThn20_N6Phonon3MMF11AudioOutputD0Ev)
    i._ZThn20_N6Phonon3MMF11AudioOutputD1Ev  0x000177a8   Section       14  moc_audiooutput.o(i._ZThn20_N6Phonon3MMF11AudioOutputD1Ev)
    i._ZThn20_N6Phonon3MMF14AudioEqualizerD0Ev 0x000177b6   Section       14  moc_audioequalizer.o(i._ZThn20_N6Phonon3MMF14AudioEqualizerD0Ev)
    i._ZThn20_N6Phonon3MMF14AudioEqualizerD1Ev 0x000177c4   Section       18  moc_audioequalizer.o(i._ZThn20_N6Phonon3MMF14AudioEqualizerD1Ev)
    i._ZThn20_N6Phonon3MMF14StereoWideningD0Ev 0x000177d6   Section       14  moc_stereowidening.o(i._ZThn20_N6Phonon3MMF14StereoWideningD0Ev)
    i._ZThn20_N6Phonon3MMF14StereoWideningD1Ev 0x000177e4   Section       18  moc_stereowidening.o(i._ZThn20_N6Phonon3MMF14StereoWideningD1Ev)
    i._ZThn20_N6Phonon3MMF19AbstractAudioEffectD0Ev 0x000177f6   Section       14  moc_abstractaudioeffect.o(i._ZThn20_N6Phonon3MMF19AbstractAudioEffectD0Ev)
    i._ZThn20_N6Phonon3MMF19AbstractAudioEffectD1Ev 0x00017804   Section       14  moc_abstractaudioeffect.o(i._ZThn20_N6Phonon3MMF19AbstractAudioEffectD1Ev)
    i._ZThn20_N6Phonon3MMF19EnvironmentalReverbD0Ev 0x00017812   Section       14  moc_environmentalreverb.o(i._ZThn20_N6Phonon3MMF19EnvironmentalReverbD0Ev)
    i._ZThn20_N6Phonon3MMF19EnvironmentalReverbD1Ev 0x00017820   Section       18  moc_environmentalreverb.o(i._ZThn20_N6Phonon3MMF19EnvironmentalReverbD1Ev)
    i._ZThn20_N6Phonon3MMF8LoudnessD0Ev      0x00017832   Section       14  moc_loudness.o(i._ZThn20_N6Phonon3MMF8LoudnessD0Ev)
    i._ZThn20_N6Phonon3MMF8LoudnessD1Ev      0x00017840   Section       18  moc_loudness.o(i._ZThn20_N6Phonon3MMF8LoudnessD1Ev)
    i._ZThn20_N6Phonon3MMF9BassBoostD0Ev     0x00017852   Section       14  moc_bassboost.o(i._ZThn20_N6Phonon3MMF9BassBoostD0Ev)
    i._ZThn20_N6Phonon3MMF9BassBoostD1Ev     0x00017860   Section       18  moc_bassboost.o(i._ZThn20_N6Phonon3MMF9BassBoostD1Ev)
    i._ZThn8_N6Phonon3MMF7BackendD0Ev        0x00017872   Section       14  moc_backend.o(i._ZThn8_N6Phonon3MMF7BackendD0Ev)
    i._ZThn8_N6Phonon3MMF7BackendD1Ev        0x00017880   Section       14  moc_backend.o(i._ZThn8_N6Phonon3MMF7BackendD1Ev)
    i._ZdlPvS_                               0x0001788e   Section        2  abstractaudioeffect.o(i._ZdlPvS_)
    i._ZnwjPv                                0x00017890   Section        6  abstractaudioeffect.o(i._ZnwjPv)
    t._Z12qobject_castIPK7QWidgetET_PK7QObject 0x00017898   Section       64  objectdump_symbian.o(t._Z12qobject_castIPK7QWidgetET_PK7QObject)
    t._Z12qobject_castIPN6Phonon3MMF9MediaNodeEET_P7QObject 0x000178d8   Section       32  backend.o(t._Z12qobject_castIPN6Phonon3MMF9MediaNodeEET_P7QObject)
    t._Z17qRegisterMetaTypeIN6Phonon3MMF8Download5StateEEiPKcPT_ 0x000178f8   Section       64  download.o(t._Z17qRegisterMetaTypeIN6Phonon3MMF8Download5StateEEiPKcPT_)
    t._Z20qForeachContainerNewI5QListIN6Phonon3MMF15EffectParameterEEE17QForeachContainerIT_ERKS6_ 0x00017938   Section      102  abstractaudioeffect.o(t._Z20qForeachContainerNewI5QListIN6Phonon3MMF15EffectParameterEEE17QForeachContainerIT_ERKS6_)
    t._Z20qForeachContainerNewI5QListIN6Phonon3MMF15EffectParameterEEE17QForeachContainerIT_ERKS6_.clean 0x0001799e   Section       10  abstractaudioeffect.o(t._Z20qForeachContainerNewI5QListIN6Phonon3MMF15EffectParameterEEE17QForeachContainerIT_ERKS6_.clean)
    t._Z20qForeachContainerNewI5QListIPN10ObjectDump10QAnnotatorEEE17QForeachContainerIT_ERKS6_ 0x000179a8   Section      126  objectdump.o(t._Z20qForeachContainerNewI5QListIPN10ObjectDump10QAnnotatorEEE17QForeachContainerIT_ERKS6_)
    t._Z20qForeachContainerNewI5QListIPN10ObjectDump10QAnnotatorEEE17QForeachContainerIT_ERKS6_.clean 0x00017a26   Section       10  objectdump.o(t._Z20qForeachContainerNewI5QListIPN10ObjectDump10QAnnotatorEEE17QForeachContainerIT_ERKS6_.clean)
    t._Z20qForeachContainerNewI5QListIPN6Phonon3MMF9MediaNodeEEE17QForeachContainerIT_ERKS7_ 0x00017a30   Section      126  mmf_medianode.o(t._Z20qForeachContainerNewI5QListIPN6Phonon3MMF9MediaNodeEEE17QForeachContainerIT_ERKS7_)
    t._Z20qForeachContainerNewI5QListIPN6Phonon3MMF9MediaNodeEEE17QForeachContainerIT_ERKS7_.clean 0x00017aae   Section       10  mmf_medianode.o(t._Z20qForeachContainerNewI5QListIPN6Phonon3MMF9MediaNodeEEE17QForeachContainerIT_ERKS7_.clean)
    t._Z21qMetaTypeDeleteHelperIN6Phonon3MMF8Download5StateEEvPT_ 0x00017ab8   Section       12  download.o(t._Z21qMetaTypeDeleteHelperIN6Phonon3MMF8Download5StateEEvPT_)
    t._Z24qMetaTypeConstructHelperIN6Phonon3MMF8Download5StateEEPvPKT_ 0x00017ac4   Section       50  download.o(t._Z24qMetaTypeConstructHelperIN6Phonon3MMF8Download5StateEEPvPKT_)
    t._Z4qMinIiERKT_S2_S2_                   0x00017af6   Section       18  objectdump.o(t._Z4qMinIiERKT_S2_S2_)
    t._ZN10ObjectTree5visitINS_21AncestorConstIteratorEN10ObjectDump8QVisitorEEEvT_S4_RT0_ 0x00017b08   Section      276  objectdump.o(t._ZN10ObjectTree5visitINS_21AncestorConstIteratorEN10ObjectDump8QVisitorEEEvT_S4_RT0_)
    t._ZN10ObjectTree5visitINS_23DepthFirstConstIteratorEN10ObjectDump8QVisitorEEEvT_S4_RT0_ 0x00017c1c   Section       62  objectdump.o(t._ZN10ObjectTree5visitINS_23DepthFirstConstIteratorEN10ObjectDump8QVisitorEEEvT_S4_RT0_)
    t._ZN12CleanupCloseI13RApaLsSessionE5CloseEPv 0x00017c5a   Section       12  backend.o(t._ZN12CleanupCloseI13RApaLsSessionE5CloseEPv)
    t._ZN12QMetaTypeId2IN6Phonon3MMF8Download5StateEE14qt_metatype_idEv 0x00017c68   Section       92  download.o(t._ZN12QMetaTypeId2IN6Phonon3MMF8Download5StateEE14qt_metatype_idEv)
    t._ZN14QScopedPointerI10CBassBoost21QScopedPointerDeleterIS0_EED1Ev 0x00017cc4   Section       28  bassboost.o(t._ZN14QScopedPointerI10CBassBoost21QScopedPointerDeleterIS0_EED1Ev)
    t._ZN14QScopedPointerI12CAudioEffect21QScopedPointerDeleterIS0_EED1Ev 0x00017ce0   Section       28  abstractaudioeffect.o(t._ZN14QScopedPointerI12CAudioEffect21QScopedPointerDeleterIS0_EED1Ev)
    t._ZN14QScopedPointerI15CAudioEqualizer21QScopedPointerDeleterIS0_EED1Ev 0x00017cfc   Section       28  audioequalizer.o(t._ZN14QScopedPointerI15CAudioEqualizer21QScopedPointerDeleterIS0_EED1Ev)
    t._ZN14QScopedPointerI15CStereoWidening21QScopedPointerDeleterIS0_EED1Ev 0x00017d18   Section       28  stereowidening.o(t._ZN14QScopedPointerI15CStereoWidening21QScopedPointerDeleterIS0_EED1Ev)
    t._ZN14QScopedPointerI19CVideoPlayerUtility21QScopedPointerDeleterIS0_EED1Ev 0x00017d34   Section       28  abstractvideoplayer.o(t._ZN14QScopedPointerI19CVideoPlayerUtility21QScopedPointerDeleterIS0_EED1Ev)
    t._ZN14QScopedPointerI20CEnvironmentalReverb21QScopedPointerDeleterIS0_EED1Ev 0x00017d50   Section       28  environmentalreverb.o(t._ZN14QScopedPointerI20CEnvironmentalReverb21QScopedPointerDeleterIS0_EED1Ev)
    t._ZN14QScopedPointerI21CMdaAudioOutputStream21QScopedPointerDeleterIS0_EED1Ev 0x00017d6c   Section       28  effectfactory.o(t._ZN14QScopedPointerI21CMdaAudioOutputStream21QScopedPointerDeleterIS0_EED1Ev)
    t._ZN14QScopedPointerI22CMdaAudioPlayerUtility21QScopedPointerDeleterIS0_EED1Ev 0x00017d88   Section       28  audioplayer.o(t._ZN14QScopedPointerI22CMdaAudioPlayerUtility21QScopedPointerDeleterIS0_EED1Ev)
    t._ZN14QScopedPointerI6QTimer21QScopedPointerDeleterIS0_EED1Ev 0x00017da4   Section       28  abstractmediaplayer.o(t._ZN14QScopedPointerI6QTimer21QScopedPointerDeleterIS0_EED1Ev)
    t._ZN14QScopedPointerI9CLoudness21QScopedPointerDeleterIS0_EED1Ev 0x00017dc0   Section       28  loudness.o(t._ZN14QScopedPointerI9CLoudness21QScopedPointerDeleterIS0_EED1Ev)
    t._ZN14QScopedPointerIN10ObjectDump10QAnnotatorE21QScopedPointerDeleterIS1_EED1Ev 0x00017ddc   Section       28  objectdump.o(t._ZN14QScopedPointerIN10ObjectDump10QAnnotatorE21QScopedPointerDeleterIS1_EED1Ev)
    t._ZN14QScopedPointerIN10ObjectDump14QDumperPrivateE21QScopedPointerDeleterIS1_EED1Ev 0x00017df8   Section       32  objectdump.o(t._ZN14QScopedPointerIN10ObjectDump14QDumperPrivateE21QScopedPointerDeleterIS1_EED1Ev)
    t._ZN14QScopedPointerIN10ObjectDump15QVisitorPrivate4NodeE21QScopedPointerDeleterIS2_EE5resetEPS2_ 0x00017e18   Section       26  objectdump.o(t._ZN14QScopedPointerIN10ObjectDump15QVisitorPrivate4NodeE21QScopedPointerDeleterIS2_EE5resetEPS2_)
    t._ZN14QScopedPointerIN10ObjectDump15QVisitorPrivate4NodeE21QScopedPointerDeleterIS2_EED1Ev 0x00017e32   Section       20  objectdump.o(t._ZN14QScopedPointerIN10ObjectDump15QVisitorPrivate4NodeE21QScopedPointerDeleterIS2_EED1Ev)
    t._ZN14QScopedPointerIN10ObjectDump15QVisitorPrivateE21QScopedPointerDeleterIS1_EED1Ev 0x00017e46   Section       32  objectdump.o(t._ZN14QScopedPointerIN10ObjectDump15QVisitorPrivateE21QScopedPointerDeleterIS1_EED1Ev)
    t._ZN14QScopedPointerIN10ObjectDump8QVisitorE21QScopedPointerDeleterIS1_EED1Ev 0x00017e66   Section       28  abstractvideooutput.o(t._ZN14QScopedPointerIN10ObjectDump8QVisitorE21QScopedPointerDeleterIS1_EED1Ev)
    t._ZN14QScopedPointerIN6Phonon3MMF13EffectFactoryE21QScopedPointerDeleterIS2_EED1Ev 0x00017e82   Section       28  moc_backend.o(t._ZN14QScopedPointerIN6Phonon3MMF13EffectFactoryE21QScopedPointerDeleterIS2_EED1Ev)
    t._ZN14QScopedPointerIN6Phonon3MMF14AbstractPlayerE21QScopedPointerDeleterIS2_EE5resetEPS2_ 0x00017e9e   Section       34  mediaobject.o(t._ZN14QScopedPointerIN6Phonon3MMF14AbstractPlayerE21QScopedPointerDeleterIS2_EE5resetEPS2_)
    t._ZN14QScopedPointerIN6Phonon3MMF14AbstractPlayerE21QScopedPointerDeleterIS2_EED1Ev 0x00017ec0   Section       28  mediaobject.o(t._ZN14QScopedPointerIN6Phonon3MMF14AbstractPlayerE21QScopedPointerDeleterIS2_EED1Ev)
    t._ZN14QScopedPointerIN6Phonon3MMF18SurfaceVideoPlayerE21QScopedPointerDeleterIS2_EED1Ev 0x00017edc   Section       28  videoplayer_surface.o(t._ZN14QScopedPointerIN6Phonon3MMF18SurfaceVideoPlayerE21QScopedPointerDeleterIS2_EED1Ev)
    t._ZN14QScopedPointerIN6Phonon3MMF19AbstractVideoOutputE21QScopedPointerDeleterIS2_EED1Ev 0x00017ef8   Section       28  videowidget.o(t._ZN14QScopedPointerIN6Phonon3MMF19AbstractVideoOutputE21QScopedPointerDeleterIS2_EED1Ev)
    t._ZN21QScopedPointerDeleterIN10ObjectDump15QVisitorPrivate4NodeEE7cleanupEPS2_ 0x00017f14   Section       22  objectdump.o(t._ZN21QScopedPointerDeleterIN10ObjectDump15QVisitorPrivate4NodeEE7cleanupEPS2_)
    t._ZN4QMapI7QStringS0_E11node_createEP8QMapDataPPNS2_4NodeERKS0_S8_ 0x00017f2a   Section      140  abstractmediaplayer.o(t._ZN4QMapI7QStringS0_E11node_createEP8QMapDataPPNS2_4NodeERKS0_S8_)
    t._ZN4QMapI7QStringS0_E11node_createEP8QMapDataPPNS2_4NodeERKS0_S8_.clean 0x00017fb6   Section       38  abstractmediaplayer.o(t._ZN4QMapI7QStringS0_E11node_createEP8QMapDataPPNS2_4NodeERKS0_S8_.clean)
    t._ZN4QMapI7QStringS0_E13detach_helperEv 0x00017fdc   Section      146  abstractmediaplayer.o(t._ZN4QMapI7QStringS0_E13detach_helperEv)
    t._ZN4QMapI7QStringS0_E13detach_helperEv.clean 0x0001806e   Section        8  abstractmediaplayer.o(t._ZN4QMapI7QStringS0_E13detach_helperEv.clean)
    t._ZN4QMapI7QStringS0_E8freeDataEP8QMapData 0x00018076   Section       62  abstractmediaplayer.o(t._ZN4QMapI7QStringS0_E8freeDataEP8QMapData)
    t._ZN4QMapI7QStringS0_EC1Ev              0x000180b4   Section       28  abstractmediaplayer.o(t._ZN4QMapI7QStringS0_EC1Ev)
    t._ZN4QMapI7QStringS0_ED1Ev              0x000180d0   Section       38  abstractmediaplayer.o(t._ZN4QMapI7QStringS0_ED1Ev)
    t._ZN4QSetIiE3endEv                      0x000180f6   Section       30  effectfactory.o(t._ZN4QSetIiE3endEv)
    t._ZN4QSetIiE4findERKi                   0x00018114   Section       48  effectfactory.o(t._ZN4QSetIiE4findERKi)
    t._ZN4QSetIiE6insertERKi                 0x00018144   Section      196  effectfactory.o(t._ZN4QSetIiE6insertERKi)
    t._ZN4QSetIiE6insertERKi.clean           0x00018208   Section        4  effectfactory.o(t._ZN4QSetIiE6insertERKi.clean)
    t._ZN4QSetIiEC1Ev                        0x0001820c   Section       28  effectfactory.o(t._ZN4QSetIiEC1Ev)
    t._ZN5QHashI10QByteArray8QVariantE11deleteNode2EPN9QHashData4NodeE 0x00018228   Section       36  audiooutput.o(t._ZN5QHashI10QByteArray8QVariantE11deleteNode2EPN9QHashData4NodeE)
    t._ZN5QHashI10QByteArray8QVariantE11deleteNode2EPN9QHashData4NodeE.clean 0x0001824c   Section       12  audiooutput.o(t._ZN5QHashI10QByteArray8QVariantE11deleteNode2EPN9QHashData4NodeE.clean)
    t._ZN5QHashI10QByteArray8QVariantE13detach_helperEv 0x00018258   Section       60  audiooutput.o(t._ZN5QHashI10QByteArray8QVariantE13detach_helperEv)
    t._ZN5QHashI10QByteArray8QVariantE13duplicateNodeEPN9QHashData4NodeEPv 0x00018294   Section       48  audiooutput.o(t._ZN5QHashI10QByteArray8QVariantE13duplicateNodeEPN9QHashData4NodeEPv)
    t._ZN5QHashI10QByteArray8QVariantE13duplicateNodeEPN9QHashData4NodeEPv.clean 0x000182c4   Section       14  audiooutput.o(t._ZN5QHashI10QByteArray8QVariantE13duplicateNodeEPN9QHashData4NodeEPv.clean)
    t._ZN5QHashI10QByteArray8QVariantE6detachEv 0x000182d2   Section       28  effectfactory.o(t._ZN5QHashI10QByteArray8QVariantE6detachEv)
    t._ZN5QHashI10QByteArray8QVariantE6insertERKS0_RKS1_ 0x000182ee   Section      182  effectfactory.o(t._ZN5QHashI10QByteArray8QVariantE6insertERKS0_RKS1_)
    t._ZN5QHashI10QByteArray8QVariantE6insertERKS0_RKS1_.clean 0x000183a4   Section       14  effectfactory.o(t._ZN5QHashI10QByteArray8QVariantE6insertERKS0_RKS1_.clean)
    t._ZN5QHashI10QByteArray8QVariantE8freeDataEP9QHashData 0x000183b4   Section       20  audiooutput.o(t._ZN5QHashI10QByteArray8QVariantE8freeDataEP9QHashData)
    t._ZN5QHashI10QByteArray8QVariantEC1ERKS2_ 0x000183c8   Section       40  effectfactory.o(t._ZN5QHashI10QByteArray8QVariantEC1ERKS2_)
    t._ZN5QHashI10QByteArray8QVariantED1Ev   0x000183f0   Section       30  audiooutput.o(t._ZN5QHashI10QByteArray8QVariantED1Ev)
    t._ZN5QHashIN6Phonon3MMF13EffectFactory4TypeENS2_10EffectDataEE11deleteNode2EPN9QHashData4NodeE 0x0001840e   Section       24  effectfactory.o(t._ZN5QHashIN6Phonon3MMF13EffectFactory4TypeENS2_10EffectDataEE11deleteNode2EPN9QHashData4NodeE)
    t._ZN5QHashIN6Phonon3MMF13EffectFactory4TypeENS2_10EffectDataEE13detach_helperEv 0x00018428   Section       60  effectfactory.o(t._ZN5QHashIN6Phonon3MMF13EffectFactory4TypeENS2_10EffectDataEE13detach_helperEv)
    t._ZN5QHashIN6Phonon3MMF13EffectFactory4TypeENS2_10EffectDataEE13duplicateNodeEPN9QHashData4NodeEPv 0x00018464   Section       46  effectfactory.o(t._ZN5QHashIN6Phonon3MMF13EffectFactory4TypeENS2_10EffectDataEE13duplicateNodeEPN9QHashData4NodeEPv)
    t._ZN5QHashIN6Phonon3MMF13EffectFactory4TypeENS2_10EffectDataEE13duplicateNodeEPN9QHashData4NodeEPv.clean 0x00018492   Section       14  effectfactory.o(t._ZN5QHashIN6Phonon3MMF13EffectFactory4TypeENS2_10EffectDataEE13duplicateNodeEPN9QHashData4NodeEPv.clean)
    t._ZN5QHashIN6Phonon3MMF13EffectFactory4TypeENS2_10EffectDataEE6detachEv 0x000184a0   Section       28  effectfactory.o(t._ZN5QHashIN6Phonon3MMF13EffectFactory4TypeENS2_10EffectDataEE6detachEv)
    t._ZN5QHashIN6Phonon3MMF13EffectFactory4TypeENS2_10EffectDataEE6insertERKS3_RKS4_ 0x000184bc   Section      182  effectfactory.o(t._ZN5QHashIN6Phonon3MMF13EffectFactory4TypeENS2_10EffectDataEE6insertERKS3_RKS4_)
    t._ZN5QHashIN6Phonon3MMF13EffectFactory4TypeENS2_10EffectDataEE6insertERKS3_RKS4_.clean 0x00018572   Section       14  effectfactory.o(t._ZN5QHashIN6Phonon3MMF13EffectFactory4TypeENS2_10EffectDataEE6insertERKS3_RKS4_.clean)
    t._ZN5QHashIN6Phonon3MMF13EffectFactory4TypeENS2_10EffectDataEE8freeDataEP9QHashData 0x00018580   Section       20  effectfactory.o(t._ZN5QHashIN6Phonon3MMF13EffectFactory4TypeENS2_10EffectDataEE8freeDataEP9QHashData)
    t._ZN5QHashIN6Phonon3MMF13EffectFactory4TypeENS2_10EffectDataEED1Ev 0x00018594   Section       30  effectfactory.o(t._ZN5QHashIN6Phonon3MMF13EffectFactory4TypeENS2_10EffectDataEED1Ev)
    t._ZN5QHashIPK7QObjectPN10ObjectDump15QVisitorPrivate4NodeEE11deleteNode2EPN9QHashData4NodeE 0x000185b2   Section        6  objectdump.o(t._ZN5QHashIPK7QObjectPN10ObjectDump15QVisitorPrivate4NodeEE11deleteNode2EPN9QHashData4NodeE)
    t._ZN5QHashIPK7QObjectPN10ObjectDump15QVisitorPrivate4NodeEE13detach_helperEv 0x000185b8   Section       60  objectdump.o(t._ZN5QHashIPK7QObjectPN10ObjectDump15QVisitorPrivate4NodeEE13detach_helperEv)
    t._ZN5QHashIPK7QObjectPN10ObjectDump15QVisitorPrivate4NodeEE13duplicateNodeEPN9QHashData4NodeEPv 0x000185f4   Section       46  objectdump.o(t._ZN5QHashIPK7QObjectPN10ObjectDump15QVisitorPrivate4NodeEE13duplicateNodeEPN9QHashData4NodeEPv)
    t._ZN5QHashIPK7QObjectPN10ObjectDump15QVisitorPrivate4NodeEE6insertERKS2_RKS6_ 0x00018622   Section      228  objectdump.o(t._ZN5QHashIPK7QObjectPN10ObjectDump15QVisitorPrivate4NodeEE6insertERKS2_RKS6_)
    t._ZN5QHashIPK7QObjectPN10ObjectDump15QVisitorPrivate4NodeEE6insertERKS2_RKS6_.clean 0x00018706   Section        4  objectdump.o(t._ZN5QHashIPK7QObjectPN10ObjectDump15QVisitorPrivate4NodeEE6insertERKS2_RKS6_.clean)
    t._ZN5QHashIPK7QObjectPN10ObjectDump15QVisitorPrivate4NodeEE8freeDataEP9QHashData 0x0001870c   Section       20  objectdump.o(t._ZN5QHashIPK7QObjectPN10ObjectDump15QVisitorPrivate4NodeEE8freeDataEP9QHashData)
    t._ZN5QHashIPK7QObjectPN10ObjectDump15QVisitorPrivate4NodeEED1Ev 0x00018720   Section       30  objectdump.o(t._ZN5QHashIPK7QObjectPN10ObjectDump15QVisitorPrivate4NodeEED1Ev)
    t._ZN5QHashIi15QHashDummyValueE11deleteNode2EPN9QHashData4NodeE 0x0001873e   Section        6  effectfactory.o(t._ZN5QHashIi15QHashDummyValueE11deleteNode2EPN9QHashData4NodeE)
    t._ZN5QHashIi15QHashDummyValueE13detach_helperEv 0x00018744   Section       60  effectfactory.o(t._ZN5QHashIi15QHashDummyValueE13detach_helperEv)
    t._ZN5QHashIi15QHashDummyValueE13duplicateNodeEPN9QHashData4NodeEPv 0x00018780   Section       34  effectfactory.o(t._ZN5QHashIi15QHashDummyValueE13duplicateNodeEPN9QHashData4NodeEPv)
    t._ZN5QHashIi15QHashDummyValueE6detachEv 0x000187a2   Section       28  effectfactory.o(t._ZN5QHashIi15QHashDummyValueE6detachEv)
    t._ZN5QHashIi15QHashDummyValueE8freeDataEP9QHashData 0x000187c0   Section       20  effectfactory.o(t._ZN5QHashIi15QHashDummyValueE8freeDataEP9QHashData)
    t._ZN5QHashIi15QHashDummyValueED1Ev      0x000187d4   Section       30  effectfactory.o(t._ZN5QHashIi15QHashDummyValueED1Ev)
    t._ZN5QHashIi8QVariantE11deleteNode2EPN9QHashData4NodeE 0x000187f2   Section       24  abstractaudioeffect.o(t._ZN5QHashIi8QVariantE11deleteNode2EPN9QHashData4NodeE)
    t._ZN5QHashIi8QVariantE13detach_helperEv 0x0001880c   Section       60  abstractaudioeffect.o(t._ZN5QHashIi8QVariantE13detach_helperEv)
    t._ZN5QHashIi8QVariantE13duplicateNodeEPN9QHashData4NodeEPv 0x00018848   Section       46  abstractaudioeffect.o(t._ZN5QHashIi8QVariantE13duplicateNodeEPN9QHashData4NodeEPv)
    t._ZN5QHashIi8QVariantE13duplicateNodeEPN9QHashData4NodeEPv.clean 0x00018876   Section       14  abstractaudioeffect.o(t._ZN5QHashIi8QVariantE13duplicateNodeEPN9QHashData4NodeEPv.clean)
    t._ZN5QHashIi8QVariantE6insertERKiRKS0_  0x00018884   Section      228  abstractaudioeffect.o(t._ZN5QHashIi8QVariantE6insertERKiRKS0_)
    t._ZN5QHashIi8QVariantE6insertERKiRKS0_.clean 0x00018968   Section       14  abstractaudioeffect.o(t._ZN5QHashIi8QVariantE6insertERKiRKS0_.clean)
    t._ZN5QHashIi8QVariantE8freeDataEP9QHashData 0x00018978   Section       20  abstractaudioeffect.o(t._ZN5QHashIi8QVariantE8freeDataEP9QHashData)
    t._ZN5QHashIi8QVariantED1Ev              0x0001898c   Section       30  moc_abstractaudioeffect.o(t._ZN5QHashIi8QVariantED1Ev)
    t._ZN5QListI10QByteArrayE13detach_helperEi 0x000189aa   Section       94  objectdump.o(t._ZN5QListI10QByteArrayE13detach_helperEi)
    t._ZN5QListI10QByteArrayE13detach_helperEi.clean 0x00018a08   Section        8  objectdump.o(t._ZN5QListI10QByteArrayE13detach_helperEi.clean)
    t._ZN5QListI10QByteArrayE13detach_helperEv 0x00018a10   Section       16  objectdump.o(t._ZN5QListI10QByteArrayE13detach_helperEv)
    t._ZN5QListI10QByteArrayE13node_destructEPNS1_4NodeES3_ 0x00018a20   Section       26  objectdump.o(t._ZN5QListI10QByteArrayE13node_destructEPNS1_4NodeES3_)
    t._ZN5QListI10QByteArrayE14node_constructEPNS1_4NodeERKS0_ 0x00018a3a   Section       36  objectdump.o(t._ZN5QListI10QByteArrayE14node_constructEPNS1_4NodeERKS0_)
    t._ZN5QListI10QByteArrayE14node_constructEPNS1_4NodeERKS0_.clean 0x00018a5e   Section       14  objectdump.o(t._ZN5QListI10QByteArrayE14node_constructEPNS1_4NodeERKS0_.clean)
    t._ZN5QListI10QByteArrayE18detach_helper_growEii 0x00018a6c   Section      208  objectdump.o(t._ZN5QListI10QByteArrayE18detach_helper_growEii)
    t._ZN5QListI10QByteArrayE18detach_helper_growEii.clean 0x00018b3c   Section       16  objectdump.o(t._ZN5QListI10QByteArrayE18detach_helper_growEii.clean)
    t._ZN5QListI10QByteArrayE4freeEPN9QListData4DataE 0x00018b4c   Section       52  objectdump.o(t._ZN5QListI10QByteArrayE4freeEPN9QListData4DataE)
    t._ZN5QListI10QByteArrayE6appendERKS0_   0x00018b80   Section      120  objectdump.o(t._ZN5QListI10QByteArrayE6appendERKS0_)
    t._ZN5QListI10QByteArrayE6appendERKS0_.clean 0x00018bf8   Section       14  objectdump.o(t._ZN5QListI10QByteArrayE6appendERKS0_.clean)
    t._ZN5QListI10QByteArrayE9node_copyEPNS1_4NodeES3_S3_ 0x00018c06   Section       82  objectdump.o(t._ZN5QListI10QByteArrayE9node_copyEPNS1_4NodeES3_S3_)
    t._ZN5QListI10QByteArrayE9node_copyEPNS1_4NodeES3_S3_.clean 0x00018c58   Section       22  objectdump.o(t._ZN5QListI10QByteArrayE9node_copyEPNS1_4NodeES3_S3_.clean)
    t._ZN5QListI10QByteArrayEC1Ev            0x00018c70   Section       24  objectdump.o(t._ZN5QListI10QByteArrayEC1Ev)
    t._ZN5QListI10QByteArrayED1Ev            0x00018c88   Section       32  objectdump.o(t._ZN5QListI10QByteArrayED1Ev)
    t._ZN5QListI10QByteArrayEpLERKS1_        0x00018ca8   Section      212  objectdump.o(t._ZN5QListI10QByteArrayEpLERKS1_)
    t._ZN5QListI10QByteArrayEpLERKS1_.clean  0x00018d7c   Section        8  objectdump.o(t._ZN5QListI10QByteArrayEpLERKS1_.clean)
    t._ZN5QListI7QStringE13node_destructEPNS1_4NodeES3_ 0x00018d84   Section       26  backend.o(t._ZN5QListI7QStringE13node_destructEPNS1_4NodeES3_)
    t._ZN5QListI7QStringE14node_constructEPNS1_4NodeERKS0_ 0x00018d9e   Section       36  backend.o(t._ZN5QListI7QStringE14node_constructEPNS1_4NodeERKS0_)
    t._ZN5QListI7QStringE14node_constructEPNS1_4NodeERKS0_.clean 0x00018dc2   Section       14  backend.o(t._ZN5QListI7QStringE14node_constructEPNS1_4NodeERKS0_.clean)
    t._ZN5QListI7QStringE18detach_helper_growEii 0x00018dd0   Section      208  backend.o(t._ZN5QListI7QStringE18detach_helper_growEii)
    t._ZN5QListI7QStringE18detach_helper_growEii.clean 0x00018ea0   Section       16  backend.o(t._ZN5QListI7QStringE18detach_helper_growEii.clean)
    t._ZN5QListI7QStringE4freeEPN9QListData4DataE 0x00018eb0   Section       58  backend.o(t._ZN5QListI7QStringE4freeEPN9QListData4DataE)
    t._ZN5QListI7QStringE6appendERKS0_       0x00018eec   Section      120  backend.o(t._ZN5QListI7QStringE6appendERKS0_)
    t._ZN5QListI7QStringE6appendERKS0_.clean 0x00018f64   Section       14  backend.o(t._ZN5QListI7QStringE6appendERKS0_.clean)
    t._ZN5QListI7QStringE9node_copyEPNS1_4NodeES3_S3_ 0x00018f72   Section       82  backend.o(t._ZN5QListI7QStringE9node_copyEPNS1_4NodeES3_S3_)
    t._ZN5QListI7QStringE9node_copyEPNS1_4NodeES3_S3_.clean 0x00018fc4   Section       22  backend.o(t._ZN5QListI7QStringE9node_copyEPNS1_4NodeES3_S3_.clean)
    t._ZN5QListI7QStringED1Ev                0x00018fda   Section       32  backend.o(t._ZN5QListI7QStringED1Ev)
    t._ZN5QListI8QVariantE4freeEPN9QListData4DataE 0x00018ffa   Section       82  audioequalizer.o(t._ZN5QListI8QVariantE4freeEPN9QListData4DataE)
    t._ZN5QListI8QVariantEC1Ev               0x0001904c   Section       24  effectfactory.o(t._ZN5QListI8QVariantEC1Ev)
    t._ZN5QListI8QVariantED1Ev               0x00019064   Section       32  audioequalizer.o(t._ZN5QListI8QVariantED1Ev)
    t._ZN5QListIN6Phonon15EffectParameterEE13node_destructEPNS2_4NodeES4_ 0x00019084   Section       38  abstractaudioeffect.o(t._ZN5QListIN6Phonon15EffectParameterEE13node_destructEPNS2_4NodeES4_)
    t._ZN5QListIN6Phonon15EffectParameterEE14node_constructEPNS2_4NodeERKS1_ 0x000190aa   Section       34  abstractaudioeffect.o(t._ZN5QListIN6Phonon15EffectParameterEE14node_constructEPNS2_4NodeERKS1_)
    t._ZN5QListIN6Phonon15EffectParameterEE14node_constructEPNS2_4NodeERKS1_.clean 0x000190cc   Section       14  abstractaudioeffect.o(t._ZN5QListIN6Phonon15EffectParameterEE14node_constructEPNS2_4NodeERKS1_.clean)
    t._ZN5QListIN6Phonon15EffectParameterEE18detach_helper_growEii 0x000190da   Section      208  abstractaudioeffect.o(t._ZN5QListIN6Phonon15EffectParameterEE18detach_helper_growEii)
    t._ZN5QListIN6Phonon15EffectParameterEE18detach_helper_growEii.clean 0x000191aa   Section       16  abstractaudioeffect.o(t._ZN5QListIN6Phonon15EffectParameterEE18detach_helper_growEii.clean)
    t._ZN5QListIN6Phonon15EffectParameterEE4freeEPN9QListData4DataE 0x000191ba   Section       58  abstractaudioeffect.o(t._ZN5QListIN6Phonon15EffectParameterEE4freeEPN9QListData4DataE)
    t._ZN5QListIN6Phonon15EffectParameterEE6appendERKS1_ 0x000191f4   Section      112  abstractaudioeffect.o(t._ZN5QListIN6Phonon15EffectParameterEE6appendERKS1_)
    t._ZN5QListIN6Phonon15EffectParameterEE6appendERKS1_.clean 0x00019264   Section       14  abstractaudioeffect.o(t._ZN5QListIN6Phonon15EffectParameterEE6appendERKS1_.clean)
    t._ZN5QListIN6Phonon15EffectParameterEE9node_copyEPNS2_4NodeES4_S4_ 0x00019272   Section       92  abstractaudioeffect.o(t._ZN5QListIN6Phonon15EffectParameterEE9node_copyEPNS2_4NodeES4_S4_)
    t._ZN5QListIN6Phonon15EffectParameterEE9node_copyEPNS2_4NodeES4_S4_.clean 0x000192ce   Section       22  abstractaudioeffect.o(t._ZN5QListIN6Phonon15EffectParameterEE9node_copyEPNS2_4NodeES4_S4_.clean)
    t._ZN5QListIN6Phonon15EffectParameterEED1Ev 0x000192e4   Section       32  abstractaudioeffect.o(t._ZN5QListIN6Phonon15EffectParameterEED1Ev)
    t._ZN5QListIN6Phonon3MMF15EffectParameterEE13detach_helperEi 0x00019304   Section       94  effectfactory.o(t._ZN5QListIN6Phonon3MMF15EffectParameterEE13detach_helperEi)
    t._ZN5QListIN6Phonon3MMF15EffectParameterEE13detach_helperEi.clean 0x00019362   Section        8  effectfactory.o(t._ZN5QListIN6Phonon3MMF15EffectParameterEE13detach_helperEi.clean)
    t._ZN5QListIN6Phonon3MMF15EffectParameterEE13detach_helperEv 0x0001936a   Section       16  abstractaudioeffect.o(t._ZN5QListIN6Phonon3MMF15EffectParameterEE13detach_helperEv)
    t._ZN5QListIN6Phonon3MMF15EffectParameterEE13node_destructEPNS3_4NodeES5_ 0x0001937a   Section       38  audioequalizer.o(t._ZN5QListIN6Phonon3MMF15EffectParameterEE13node_destructEPNS3_4NodeES5_)
    t._ZN5QListIN6Phonon3MMF15EffectParameterEE14node_constructEPNS3_4NodeERKS2_ 0x000193a0   Section       34  audioequalizer.o(t._ZN5QListIN6Phonon3MMF15EffectParameterEE14node_constructEPNS3_4NodeERKS2_)
    t._ZN5QListIN6Phonon3MMF15EffectParameterEE14node_constructEPNS3_4NodeERKS2_.clean 0x000193c2   Section       14  audioequalizer.o(t._ZN5QListIN6Phonon3MMF15EffectParameterEE14node_constructEPNS3_4NodeERKS2_.clean)
    t._ZN5QListIN6Phonon3MMF15EffectParameterEE18detach_helper_growEii 0x000193d0   Section      208  effectfactory.o(t._ZN5QListIN6Phonon3MMF15EffectParameterEE18detach_helper_growEii)
    t._ZN5QListIN6Phonon3MMF15EffectParameterEE18detach_helper_growEii.clean 0x000194a0   Section       16  effectfactory.o(t._ZN5QListIN6Phonon3MMF15EffectParameterEE18detach_helper_growEii.clean)
    t._ZN5QListIN6Phonon3MMF15EffectParameterEE4freeEPN9QListData4DataE 0x000194b0   Section       58  audioequalizer.o(t._ZN5QListIN6Phonon3MMF15EffectParameterEE4freeEPN9QListData4DataE)
    t._ZN5QListIN6Phonon3MMF15EffectParameterEE6appendERKS2_ 0x000194ec   Section      112  effectfactory.o(t._ZN5QListIN6Phonon3MMF15EffectParameterEE6appendERKS2_)
    t._ZN5QListIN6Phonon3MMF15EffectParameterEE6appendERKS2_.clean 0x0001955c   Section       14  effectfactory.o(t._ZN5QListIN6Phonon3MMF15EffectParameterEE6appendERKS2_.clean)
    t._ZN5QListIN6Phonon3MMF15EffectParameterEE9node_copyEPNS3_4NodeES5_S5_ 0x0001956a   Section       92  audioequalizer.o(t._ZN5QListIN6Phonon3MMF15EffectParameterEE9node_copyEPNS3_4NodeES5_S5_)
    t._ZN5QListIN6Phonon3MMF15EffectParameterEE9node_copyEPNS3_4NodeES5_S5_.clean 0x000195c6   Section       22  audioequalizer.o(t._ZN5QListIN6Phonon3MMF15EffectParameterEE9node_copyEPNS3_4NodeES5_S5_.clean)
    t._ZN5QListIN6Phonon3MMF15EffectParameterEEC1ERKS3_ 0x000195dc   Section       36  abstractaudioeffect.o(t._ZN5QListIN6Phonon3MMF15EffectParameterEEC1ERKS3_)
    t._ZN5QListIN6Phonon3MMF15EffectParameterEED1Ev 0x00019600   Section       32  abstractaudioeffect.o(t._ZN5QListIN6Phonon3MMF15EffectParameterEED1Ev)
    t._ZN5QListIPN10ObjectDump10QAnnotatorEE13detach_helperEi 0x00019620   Section       94  objectdump.o(t._ZN5QListIPN10ObjectDump10QAnnotatorEE13detach_helperEi)
    t._ZN5QListIPN10ObjectDump10QAnnotatorEE13detach_helperEi.clean 0x0001967e   Section        8  objectdump.o(t._ZN5QListIPN10ObjectDump10QAnnotatorEE13detach_helperEi.clean)
    t._ZN5QListIPN10ObjectDump10QAnnotatorEE13detach_helperEv 0x00019686   Section       16  objectdump.o(t._ZN5QListIPN10ObjectDump10QAnnotatorEE13detach_helperEv)
    t._ZN5QListIPN10ObjectDump10QAnnotatorEE18detach_helper_growEii 0x00019696   Section      204  objectdump.o(t._ZN5QListIPN10ObjectDump10QAnnotatorEE18detach_helper_growEii)
    t._ZN5QListIPN10ObjectDump10QAnnotatorEE18detach_helper_growEii.clean 0x00019762   Section       16  objectdump.o(t._ZN5QListIPN10ObjectDump10QAnnotatorEE18detach_helper_growEii.clean)
    t._ZN5QListIPN10ObjectDump10QAnnotatorEE4freeEPN9QListData4DataE 0x00019772   Section       52  objectdump.o(t._ZN5QListIPN10ObjectDump10QAnnotatorEE4freeEPN9QListData4DataE)
    t._ZN5QListIPN10ObjectDump10QAnnotatorEE6appendERKS2_ 0x000197a8   Section      100  objectdump.o(t._ZN5QListIPN10ObjectDump10QAnnotatorEE6appendERKS2_)
    t._ZN5QListIPN10ObjectDump10QAnnotatorEE6appendERKS2_.clean 0x0001980c   Section       10  objectdump.o(t._ZN5QListIPN10ObjectDump10QAnnotatorEE6appendERKS2_.clean)
    t._ZN5QListIPN10ObjectDump10QAnnotatorEE9node_copyEPNS3_4NodeES5_S5_ 0x00019816   Section       46  objectdump.o(t._ZN5QListIPN10ObjectDump10QAnnotatorEE9node_copyEPNS3_4NodeES5_S5_)
    t._ZN5QListIPN10ObjectDump10QAnnotatorEED1Ev 0x00019844   Section       32  objectdump.o(t._ZN5QListIPN10ObjectDump10QAnnotatorEED1Ev)
    t._ZN5QListIPN10ObjectDump15QVisitorPrivate4NodeEE13detach_helperEi 0x00019864   Section       94  objectdump.o(t._ZN5QListIPN10ObjectDump15QVisitorPrivate4NodeEE13detach_helperEi)
    t._ZN5QListIPN10ObjectDump15QVisitorPrivate4NodeEE13detach_helperEi.clean 0x000198c2   Section        8  objectdump.o(t._ZN5QListIPN10ObjectDump15QVisitorPrivate4NodeEE13detach_helperEi.clean)
    t._ZN5QListIPN10ObjectDump15QVisitorPrivate4NodeEE13detach_helperEv 0x000198ca   Section       16  objectdump.o(t._ZN5QListIPN10ObjectDump15QVisitorPrivate4NodeEE13detach_helperEv)
    t._ZN5QListIPN10ObjectDump15QVisitorPrivate4NodeEE18detach_helper_growEii 0x000198da   Section      204  objectdump.o(t._ZN5QListIPN10ObjectDump15QVisitorPrivate4NodeEE18detach_helper_growEii)
    t._ZN5QListIPN10ObjectDump15QVisitorPrivate4NodeEE18detach_helper_growEii.clean 0x000199a6   Section       16  objectdump.o(t._ZN5QListIPN10ObjectDump15QVisitorPrivate4NodeEE18detach_helper_growEii.clean)
    t._ZN5QListIPN10ObjectDump15QVisitorPrivate4NodeEE4freeEPN9QListData4DataE 0x000199b6   Section       52  objectdump.o(t._ZN5QListIPN10ObjectDump15QVisitorPrivate4NodeEE4freeEPN9QListData4DataE)
    t._ZN5QListIPN10ObjectDump15QVisitorPrivate4NodeEE6appendERKS3_ 0x000199ec   Section      100  objectdump.o(t._ZN5QListIPN10ObjectDump15QVisitorPrivate4NodeEE6appendERKS3_)
    t._ZN5QListIPN10ObjectDump15QVisitorPrivate4NodeEE6appendERKS3_.clean 0x00019a50   Section       10  objectdump.o(t._ZN5QListIPN10ObjectDump15QVisitorPrivate4NodeEE6appendERKS3_.clean)
    t._ZN5QListIPN10ObjectDump15QVisitorPrivate4NodeEE9node_copyEPNS4_4NodeES6_S6_ 0x00019a5a   Section       46  objectdump.o(t._ZN5QListIPN10ObjectDump15QVisitorPrivate4NodeEE9node_copyEPNS4_4NodeES6_S6_)
    t._ZN5QListIPN10ObjectDump15QVisitorPrivate4NodeEED1Ev 0x00019a88   Section       32  objectdump.o(t._ZN5QListIPN10ObjectDump15QVisitorPrivate4NodeEED1Ev)
    t._ZN5QListIPN6Phonon3MMF9MediaNodeEE13detach_helperEi 0x00019aa8   Section       94  mmf_medianode.o(t._ZN5QListIPN6Phonon3MMF9MediaNodeEE13detach_helperEi)
    t._ZN5QListIPN6Phonon3MMF9MediaNodeEE13detach_helperEi.clean 0x00019b06   Section        8  mmf_medianode.o(t._ZN5QListIPN6Phonon3MMF9MediaNodeEE13detach_helperEi.clean)
    t._ZN5QListIPN6Phonon3MMF9MediaNodeEE13detach_helperEv 0x00019b0e   Section       16  mmf_medianode.o(t._ZN5QListIPN6Phonon3MMF9MediaNodeEE13detach_helperEv)
    t._ZN5QListIPN6Phonon3MMF9MediaNodeEE18detach_helper_growEii 0x00019b1e   Section      204  mmf_medianode.o(t._ZN5QListIPN6Phonon3MMF9MediaNodeEE18detach_helper_growEii)
    t._ZN5QListIPN6Phonon3MMF9MediaNodeEE18detach_helper_growEii.clean 0x00019bea   Section       16  mmf_medianode.o(t._ZN5QListIPN6Phonon3MMF9MediaNodeEE18detach_helper_growEii.clean)
    t._ZN5QListIPN6Phonon3MMF9MediaNodeEE4freeEPN9QListData4DataE 0x00019bfa   Section       58  mmf_medianode.o(t._ZN5QListIPN6Phonon3MMF9MediaNodeEE4freeEPN9QListData4DataE)
    t._ZN5QListIPN6Phonon3MMF9MediaNodeEE6appendERKS3_ 0x00019c34   Section      100  mmf_medianode.o(t._ZN5QListIPN6Phonon3MMF9MediaNodeEE6appendERKS3_)
    t._ZN5QListIPN6Phonon3MMF9MediaNodeEE6appendERKS3_.clean 0x00019c98   Section       10  mmf_medianode.o(t._ZN5QListIPN6Phonon3MMF9MediaNodeEE6appendERKS3_.clean)
    t._ZN5QListIPN6Phonon3MMF9MediaNodeEE9node_copyEPNS4_4NodeES6_S6_ 0x00019ca2   Section       46  mmf_medianode.o(t._ZN5QListIPN6Phonon3MMF9MediaNodeEE9node_copyEPNS4_4NodeES6_S6_)
    t._ZN5QListIPN6Phonon3MMF9MediaNodeEE9removeOneERKS3_ 0x00019cd0   Section      128  mmf_medianode.o(t._ZN5QListIPN6Phonon3MMF9MediaNodeEE9removeOneERKS3_)
    t._ZN5QListIPN6Phonon3MMF9MediaNodeEEC1Ev 0x00019d50   Section       24  mmf_medianode.o(t._ZN5QListIPN6Phonon3MMF9MediaNodeEEC1Ev)
    t._ZN5QListIPN6Phonon3MMF9MediaNodeEED1Ev 0x00019d68   Section       32  mmf_medianode.o(t._ZN5QListIPN6Phonon3MMF9MediaNodeEED1Ev)
    t._ZN5QListIbE13detach_helperEi          0x00019d88   Section       94  objectdump.o(t._ZN5QListIbE13detach_helperEi)
    t._ZN5QListIbE13detach_helperEi.clean    0x00019de6   Section        8  objectdump.o(t._ZN5QListIbE13detach_helperEi.clean)
    t._ZN5QListIbE13detach_helperEv          0x00019dee   Section       16  objectdump.o(t._ZN5QListIbE13detach_helperEv)
    t._ZN5QListIbE18detach_helper_growEii    0x00019dfe   Section      204  objectdump.o(t._ZN5QListIbE18detach_helper_growEii)
    t._ZN5QListIbE18detach_helper_growEii.clean 0x00019eca   Section       16  objectdump.o(t._ZN5QListIbE18detach_helper_growEii.clean)
    t._ZN5QListIbE4freeEPN9QListData4DataE   0x00019eda   Section       52  objectdump.o(t._ZN5QListIbE4freeEPN9QListData4DataE)
    t._ZN5QListIbE6appendERKb                0x00019f10   Section      100  objectdump.o(t._ZN5QListIbE6appendERKb)
    t._ZN5QListIbE6appendERKb.clean          0x00019f74   Section       10  objectdump.o(t._ZN5QListIbE6appendERKb.clean)
    t._ZN5QListIbE9node_copyEPNS0_4NodeES2_S2_ 0x00019f7e   Section       46  objectdump.o(t._ZN5QListIbE9node_copyEPNS0_4NodeES2_S2_)
    t._ZN5QListIbEC1ERKS0_                   0x00019fac   Section       36  objectdump.o(t._ZN5QListIbEC1ERKS0_)
    t._ZN5QListIbED1Ev                       0x00019fd0   Section       32  objectdump.o(t._ZN5QListIbED1Ev)
    t._ZN5QListIiE13detach_helperEi          0x00019ff0   Section       94  backend.o(t._ZN5QListIiE13detach_helperEi)
    t._ZN5QListIiE13detach_helperEi.clean    0x0001a04e   Section        8  backend.o(t._ZN5QListIiE13detach_helperEi.clean)
    t._ZN5QListIiE13detach_helperEv          0x0001a056   Section       16  backend.o(t._ZN5QListIiE13detach_helperEv)
    t._ZN5QListIiE18detach_helper_growEii    0x0001a066   Section      204  backend.o(t._ZN5QListIiE18detach_helper_growEii)
    t._ZN5QListIiE18detach_helper_growEii.clean 0x0001a132   Section       16  backend.o(t._ZN5QListIiE18detach_helper_growEii.clean)
    t._ZN5QListIiE4freeEPN9QListData4DataE   0x0001a142   Section       58  backend.o(t._ZN5QListIiE4freeEPN9QListData4DataE)
    t._ZN5QListIiE6appendERKi                0x0001a17c   Section      100  backend.o(t._ZN5QListIiE6appendERKi)
    t._ZN5QListIiE6appendERKi.clean          0x0001a1e0   Section       10  backend.o(t._ZN5QListIiE6appendERKi.clean)
    t._ZN5QListIiE9node_copyEPNS0_4NodeES2_S2_ 0x0001a1ea   Section       46  backend.o(t._ZN5QListIiE9node_copyEPNS0_4NodeES2_S2_)
    t._ZN5QListIiED1Ev                       0x0001a218   Section       32  backend.o(t._ZN5QListIiED1Ev)
    t._ZN5QListIiEpLERKS0_                   0x0001a238   Section      212  backend.o(t._ZN5QListIiEpLERKS0_)
    t._ZN5QListIiEpLERKS0_.clean             0x0001a30c   Section        8  backend.o(t._ZN5QListIiEpLERKS0_.clean)
    t._ZN6Phonon3MMF13EffectFactory7getDataINS0_14AudioEqualizerEEENS1_10EffectDataEv 0x0001a314   Section      712  effectfactory.o(t._ZN6Phonon3MMF13EffectFactory7getDataINS0_14AudioEqualizerEEENS1_10EffectDataEv)
    t._ZN6Phonon3MMF13EffectFactory7getDataINS0_14AudioEqualizerEEENS1_10EffectDataEv.clean 0x0001a5dc   Section      120  effectfactory.o(t._ZN6Phonon3MMF13EffectFactory7getDataINS0_14AudioEqualizerEEENS1_10EffectDataEv.clean)
    t._ZN6Phonon3MMF13EffectFactory7getDataINS0_14StereoWideningEEENS1_10EffectDataEv 0x0001a654   Section      712  effectfactory.o(t._ZN6Phonon3MMF13EffectFactory7getDataINS0_14StereoWideningEEENS1_10EffectDataEv)
    t._ZN6Phonon3MMF13EffectFactory7getDataINS0_14StereoWideningEEENS1_10EffectDataEv.clean 0x0001a91c   Section      120  effectfactory.o(t._ZN6Phonon3MMF13EffectFactory7getDataINS0_14StereoWideningEEENS1_10EffectDataEv.clean)
    t._ZN6Phonon3MMF13EffectFactory7getDataINS0_19EnvironmentalReverbEEENS1_10EffectDataEv 0x0001a994   Section      712  effectfactory.o(t._ZN6Phonon3MMF13EffectFactory7getDataINS0_19EnvironmentalReverbEEENS1_10EffectDataEv)
    t._ZN6Phonon3MMF13EffectFactory7getDataINS0_19EnvironmentalReverbEEENS1_10EffectDataEv.clean 0x0001ac5c   Section      120  effectfactory.o(t._ZN6Phonon3MMF13EffectFactory7getDataINS0_19EnvironmentalReverbEEENS1_10EffectDataEv.clean)
    t._ZN6Phonon3MMF13EffectFactory7getDataINS0_8LoudnessEEENS1_10EffectDataEv 0x0001acd4   Section      712  effectfactory.o(t._ZN6Phonon3MMF13EffectFactory7getDataINS0_8LoudnessEEENS1_10EffectDataEv)
    t._ZN6Phonon3MMF13EffectFactory7getDataINS0_8LoudnessEEENS1_10EffectDataEv.clean 0x0001af9c   Section      120  effectfactory.o(t._ZN6Phonon3MMF13EffectFactory7getDataINS0_8LoudnessEEENS1_10EffectDataEv.clean)
    t._ZN6Phonon3MMF13EffectFactory7getDataINS0_9BassBoostEEENS1_10EffectDataEv 0x0001b014   Section      712  effectfactory.o(t._ZN6Phonon3MMF13EffectFactory7getDataINS0_9BassBoostEEENS1_10EffectDataEv)
    t._ZN6Phonon3MMF13EffectFactory7getDataINS0_9BassBoostEEENS1_10EffectDataEv.clean 0x0001b2dc   Section      120  effectfactory.o(t._ZN6Phonon3MMF13EffectFactory7getDataINS0_9BassBoostEEENS1_10EffectDataEv.clean)
    t._ZN6QStackIPK7QObjectEC1Ev             0x0001b354   Section       24  objecttree.o(t._ZN6QStackIPK7QObjectEC1Ev)
    t._ZN6QStackIPK7QObjectED1Ev             0x0001b36c   Section       14  objecttree.o(t._ZN6QStackIPK7QObjectED1Ev)
    t._ZN6QStackIiEC1Ev                      0x0001b37c   Section       24  objecttree.o(t._ZN6QStackIiEC1Ev)
    t._ZN7QVectorIPK7QObjectE13detach_helperEv 0x0001b394   Section       18  objectdump.o(t._ZN7QVectorIPK7QObjectE13detach_helperEv)
    t._ZN7QVectorIPK7QObjectE4freeEP16QVectorTypedDataIS2_E 0x0001b3a6   Section       24  objectdump.o(t._ZN7QVectorIPK7QObjectE4freeEP16QVectorTypedDataIS2_E)
    t._ZN7QVectorIPK7QObjectE6appendERKS2_   0x0001b3be   Section      142  objecttree.o(t._ZN7QVectorIPK7QObjectE6appendERKS2_)
    t._ZN7QVectorIPK7QObjectE6mallocEi       0x0001b44c   Section       52  objectdump.o(t._ZN7QVectorIPK7QObjectE6mallocEi)
    t._ZN7QVectorIPK7QObjectE6resizeEi       0x0001b480   Section       82  objectdump.o(t._ZN7QVectorIPK7QObjectE6resizeEi)
    t._ZN7QVectorIPK7QObjectE7reallocEii     0x0001b4d4   Section      516  objectdump.o(t._ZN7QVectorIPK7QObjectE7reallocEii)
    t._ZN7QVectorIPK7QObjectE7reallocEii.clean 0x0001b6d8   Section        8  objectdump.o(t._ZN7QVectorIPK7QObjectE7reallocEii.clean)
    t._ZN7QVectorIPK7QObjectED1Ev            0x0001b6e0   Section       34  objectdump.o(t._ZN7QVectorIPK7QObjectED1Ev)
    t._ZN7QVectorIiE13detach_helperEv        0x0001b702   Section       18  objectdump.o(t._ZN7QVectorIiE13detach_helperEv)
    t._ZN7QVectorIiE4freeEP16QVectorTypedDataIiE 0x0001b714   Section       24  objectdump.o(t._ZN7QVectorIiE4freeEP16QVectorTypedDataIiE)
    t._ZN7QVectorIiE6appendERKi              0x0001b72c   Section      142  objecttree.o(t._ZN7QVectorIiE6appendERKi)
    t._ZN7QVectorIiE6detachEv                0x0001b7ba   Section       24  objecttree.o(t._ZN7QVectorIiE6detachEv)
    t._ZN7QVectorIiE6mallocEi                0x0001b7d2   Section       52  objectdump.o(t._ZN7QVectorIiE6mallocEi)
    t._ZN7QVectorIiE6resizeEi                0x0001b806   Section       82  objecttree.o(t._ZN7QVectorIiE6resizeEi)
    t._ZN7QVectorIiE7reallocEii              0x0001b858   Section      516  objectdump.o(t._ZN7QVectorIiE7reallocEii)
    t._ZN7QVectorIiE7reallocEii.clean        0x0001ba5c   Section        8  objectdump.o(t._ZN7QVectorIiE7reallocEii.clean)
    t._ZN7QVectorIiED1Ev                     0x0001ba64   Section       34  objectdump.o(t._ZN7QVectorIiED1Ev)
    t._ZN8QPointerI7QObjectED1Ev             0x0001ba86   Section       14  backend.o(t._ZN8QPointerI7QObjectED1Ev)
    t._ZN9QHashNodeI10QByteArray8QVariantEC1ERKS0_RKS1_ 0x0001ba94   Section       40  audiooutput.o(t._ZN9QHashNodeI10QByteArray8QVariantEC1ERKS0_RKS1_)
    t._ZN9QHashNodeI10QByteArray8QVariantEC1ERKS0_RKS1_.clean 0x0001babc   Section       12  audiooutput.o(t._ZN9QHashNodeI10QByteArray8QVariantEC1ERKS0_RKS1_.clean)
    t._ZN9QHashNodeIN6Phonon3MMF13EffectFactory4TypeENS2_10EffectDataEEC1ERKS3_RKS4_ 0x0001bac8   Section       50  effectfactory.o(t._ZN9QHashNodeIN6Phonon3MMF13EffectFactory4TypeENS2_10EffectDataEEC1ERKS3_RKS4_)
    t._ZN9QHashNodeIN6Phonon3MMF13EffectFactory4TypeENS2_10EffectDataEEC1ERKS3_RKS4_.clean 0x0001bafa   Section       10  effectfactory.o(t._ZN9QHashNodeIN6Phonon3MMF13EffectFactory4TypeENS2_10EffectDataEEC1ERKS3_RKS4_.clean)
    t._ZN9QHashNodeIi8QVariantEC1EiRKS0_     0x0001bb04   Section       26  abstractaudioeffect.o(t._ZN9QHashNodeIi8QVariantEC1EiRKS0_)
    t._ZNK14QScopedPointerI11QObjectData21QScopedPointerDeleterIS0_EEptEv 0x0001bb20   Section       36  moc_objectdump.o(t._ZNK14QScopedPointerI11QObjectData21QScopedPointerDeleterIS0_EEptEv)
    t._ZNK14QScopedPointerI12CAudioEffect21QScopedPointerDeleterIS0_EEptEv 0x0001bb44   Section       40  abstractaudioeffect.o(t._ZNK14QScopedPointerI12CAudioEffect21QScopedPointerDeleterIS0_EEptEv)
    t._ZNK14QScopedPointerI15CAudioEqualizer21QScopedPointerDeleterIS0_EEptEv 0x0001bb6c   Section       40  audioequalizer.o(t._ZNK14QScopedPointerI15CAudioEqualizer21QScopedPointerDeleterIS0_EEptEv)
    t._ZNK14QScopedPointerI19CVideoPlayerUtility21QScopedPointerDeleterIS0_EEptEv 0x0001bb94   Section       36  abstractvideoplayer.o(t._ZNK14QScopedPointerI19CVideoPlayerUtility21QScopedPointerDeleterIS0_EEptEv)
    t._ZNK14QScopedPointerI20CEnvironmentalReverb21QScopedPointerDeleterIS0_EEptEv 0x0001bbb8   Section       36  environmentalreverb.o(t._ZNK14QScopedPointerI20CEnvironmentalReverb21QScopedPointerDeleterIS0_EEptEv)
    t._ZNK14QScopedPointerI22CMdaAudioPlayerUtility21QScopedPointerDeleterIS0_EEptEv 0x0001bbdc   Section       36  audioplayer.o(t._ZNK14QScopedPointerI22CMdaAudioPlayerUtility21QScopedPointerDeleterIS0_EEptEv)
    t._ZNK14QScopedPointerI6QTimer21QScopedPointerDeleterIS0_EEptEv 0x0001bc00   Section       40  abstractmediaplayer.o(t._ZNK14QScopedPointerI6QTimer21QScopedPointerDeleterIS0_EEptEv)
    t._ZNK14QScopedPointerIN10ObjectDump8QVisitorE21QScopedPointerDeleterIS1_EEdeEv 0x0001bc28   Section       40  abstractvideooutput.o(t._ZNK14QScopedPointerIN10ObjectDump8QVisitorE21QScopedPointerDeleterIS1_EEdeEv)
    t._ZNK14QScopedPointerIN6Phonon3MMF13EffectFactoryE21QScopedPointerDeleterIS2_EEptEv 0x0001bc50   Section       40  backend.o(t._ZNK14QScopedPointerIN6Phonon3MMF13EffectFactoryE21QScopedPointerDeleterIS2_EEptEv)
    t._ZNK14QScopedPointerIN6Phonon3MMF14AbstractPlayerE21QScopedPointerDeleterIS2_EEptEv 0x0001bc78   Section       36  mediaobject.o(t._ZNK14QScopedPointerIN6Phonon3MMF14AbstractPlayerE21QScopedPointerDeleterIS2_EEptEv)
    t._ZNK14QScopedPointerIN6Phonon3MMF19AbstractVideoOutputE21QScopedPointerDeleterIS2_EEptEv 0x0001bc9c   Section       40  videowidget.o(t._ZNK14QScopedPointerIN6Phonon3MMF19AbstractVideoOutputE21QScopedPointerDeleterIS2_EEptEv)
    t._ZNK17QForeachContainerI5QListIN6Phonon3MMF15EffectParameterEEE9conditionEv 0x0001bcc4   Section       40  abstractaudioeffect.o(t._ZNK17QForeachContainerI5QListIN6Phonon3MMF15EffectParameterEEE9conditionEv)
    t._ZNK17QForeachContainerI5QListIPN10ObjectDump10QAnnotatorEEE9conditionEv 0x0001bcec   Section       40  objectdump.o(t._ZNK17QForeachContainerI5QListIPN10ObjectDump10QAnnotatorEEE9conditionEv)
    t._ZNK17QForeachContainerI5QListIPN6Phonon3MMF9MediaNodeEEE9conditionEv 0x0001bd14   Section       40  mmf_medianode.o(t._ZNK17QForeachContainerI5QListIPN6Phonon3MMF9MediaNodeEEE9conditionEv)
    t._ZNK4QMapI7QStringS0_E15mutableFindNodeEPPN8QMapData4NodeERKS0_ 0x0001bd3c   Section      116  abstractmediaplayer.o(t._ZNK4QMapI7QStringS0_E15mutableFindNodeEPPN8QMapData4NodeERKS0_)
    t._ZNK4QSetIiE8iteratoreqERKS1_          0x0001bdb0   Section       20  effectfactory.o(t._ZNK4QSetIiE8iteratoreqERKS1_)
    t._ZNK5QHashI10QByteArray8QVariantE8findNodeERKS0_Pj 0x0001bdc4   Section      288  audiooutput.o(t._ZNK5QHashI10QByteArray8QVariantE8findNodeERKS0_Pj)
    t._ZNK5QHashIN6Phonon3MMF13EffectFactory4TypeENS2_10EffectDataEE14const_iteratorneERKS6_ 0x0001bee4   Section       18  effectfactory.o(t._ZNK5QHashIN6Phonon3MMF13EffectFactory4TypeENS2_10EffectDataEE14const_iteratorneERKS6_)
    t._ZNK5QHashIN6Phonon3MMF13EffectFactory4TypeENS2_10EffectDataEE8findNodeERKS3_Pj 0x0001bef8   Section      224  effectfactory.o(t._ZNK5QHashIN6Phonon3MMF13EffectFactory4TypeENS2_10EffectDataEE8findNodeERKS3_Pj)
    t._ZNK5QHashIPK7QObjectPN10ObjectDump15QVisitorPrivate4NodeEE8findNodeERKS2_Pj 0x0001bfd8   Section      228  objectdump.o(t._ZNK5QHashIPK7QObjectPN10ObjectDump15QVisitorPrivate4NodeEE8findNodeERKS2_Pj)
    t._ZNK5QHashIi15QHashDummyValueE8findNodeERKiPj 0x0001c0bc   Section      216  effectfactory.o(t._ZNK5QHashIi15QHashDummyValueE8findNodeERKiPj)
    t._ZNK5QHashIi8QVariantE8findNodeERKiPj  0x0001c194   Section      216  abstractaudioeffect.o(t._ZNK5QHashIi8QVariantE8findNodeERKiPj)
    t._ZNK5QListI10QByteArrayE14const_iteratoreqERKS2_ 0x0001c26c   Section       18  objectdump.o(t._ZNK5QListI10QByteArrayE14const_iteratoreqERKS2_)
    t._ZNK5QListI10QByteArrayE14const_iteratorneERKS2_ 0x0001c27e   Section       18  objectdump.o(t._ZNK5QListI10QByteArrayE14const_iteratorneERKS2_)
    t._ZNK5QListI8QVariantE5firstEv          0x0001c290   Section      212  backend.o(t._ZNK5QListI8QVariantE5firstEv)
    t._ZNK5QListIN6Phonon3MMF15EffectParameterEEixEi 0x0001c364   Section      172  abstractaudioeffect.o(t._ZNK5QListIN6Phonon3MMF15EffectParameterEEixEi)
    t._ZNK5QListIP7QObjectE5firstEv          0x0001c410   Section      212  objecttree.o(t._ZNK5QListIP7QObjectE5firstEv)
    t._ZNK5QListIPN10ObjectDump15QVisitorPrivate4NodeEE14const_iteratoreqERKS5_ 0x0001c4e4   Section       18  objectdump.o(t._ZNK5QListIPN10ObjectDump15QVisitorPrivate4NodeEE14const_iteratoreqERKS5_)
    t._ZNK5QListIPN10ObjectDump15QVisitorPrivate4NodeEE14const_iteratorneERKS5_ 0x0001c4f6   Section       18  objectdump.o(t._ZNK5QListIPN10ObjectDump15QVisitorPrivate4NodeEE14const_iteratorneERKS5_)
    t._ZNK5QListIPN6Phonon3MMF9MediaNodeEE7indexOfERKS3_i 0x0001c508   Section      132  mmf_medianode.o(t._ZNK5QListIPN6Phonon3MMF9MediaNodeEE7indexOfERKS3_i)
    t._ZNK5QListIPN6Phonon3MMF9MediaNodeEE8containsERKS3_ 0x0001c58c   Section       66  mmf_medianode.o(t._ZNK5QListIPN6Phonon3MMF9MediaNodeEE8containsERKS3_)
    t._ZNK7QVectorIPK7QObjectE7isEmptyEv     0x0001c5ce   Section       18  objectdump.o(t._ZNK7QVectorIPK7QObjectE7isEmptyEv)
    t._ZNK7QVectorIPK7QObjectEeqERKS3_       0x0001c5e0   Section       88  objectdump.o(t._ZNK7QVectorIPK7QObjectEeqERKS3_)
    t._ZNK7QVectorIiE7isEmptyEv              0x0001c638   Section       18  objecttree.o(t._ZNK7QVectorIiE7isEmptyEv)
    .extab._ZN6Phonon3MMF19AbstractAudioEffectC2EP7QObjectRK5QListINS0_15EffectParameterEE 0x0001c64c   Data           0  abstractaudioeffect.o(.ARM.extab)
    .extab._ZNK6Phonon3MMF19AbstractAudioEffect10parametersEv 0x0001c664   Data           0  abstractaudioeffect.o(.ARM.extab)
    .extab._ZNK6Phonon3MMF19AbstractAudioEffect14parameterValueERKNS_15EffectParameterE 0x0001c694   Data           0  abstractaudioeffect.o(.ARM.extab)
    .extab._ZN6Phonon3MMF19AbstractAudioEffect10setEnabledEb 0x0001c6ac   Data           0  abstractaudioeffect.o(.ARM.extab)
    .extab._ZN6Phonon3MMF19AbstractAudioEffect16parameterChangedERKNS0_15EffectParameterERK8QVariant 0x0001c704   Data           0  abstractaudioeffect.o(.ARM.extab)
    .extab._ZN6Phonon3MMF19AbstractAudioEffect12createEffectEv 0x0001c734   Data           0  abstractaudioeffect.o(.ARM.extab)
    .extab._Z20qForeachContainerNewI5QListIN6Phonon3MMF15EffectParameterEEE17QForeachContainerIT_ERKS6_ 0x0001c764   Data           0  abstractaudioeffect.o(.ARM.extab)
    .extab._ZN5QListIN6Phonon15EffectParameterEE14node_constructEPNS2_4NodeERKS1_ 0x0001c774   Data           0  abstractaudioeffect.o(.ARM.extab)
    .extab._ZN5QListIN6Phonon15EffectParameterEE9node_copyEPNS2_4NodeES4_S4_ 0x0001c784   Data           0  abstractaudioeffect.o(.ARM.extab)
    .extab._ZN5QListIN6Phonon15EffectParameterEE18detach_helper_growEii 0x0001c7a8   Data           0  abstractaudioeffect.o(.ARM.extab)
    .extab._ZN5QListIN6Phonon15EffectParameterEE6appendERKS1_ 0x0001c7d8   Data           0  abstractaudioeffect.o(.ARM.extab)
    .extab._ZN5QHashIi8QVariantE13duplicateNodeEPN9QHashData4NodeEPv 0x0001c808   Data           0  abstractaudioeffect.o(.ARM.extab)
    .extab._ZN5QHashIi8QVariantE6insertERKiRKS0_ 0x0001c818   Data           0  abstractaudioeffect.o(.ARM.extab)
    .extab._ZN6Phonon3MMF19AbstractMediaPlayerC2EPNS0_11MediaObjectEPKNS0_14AbstractPlayerE 0x0001c830   Data           0  abstractmediaplayer.o(.ARM.extab)
    .extab._ZN6Phonon3MMF19AbstractMediaPlayer4openEv 0x0001c868   Data           0  abstractmediaplayer.o(.ARM.extab)
    .extab._ZN6Phonon3MMF19AbstractMediaPlayer4playEv 0x0001c940   Data           0  abstractmediaplayer.o(.ARM.extab)
    .extab._ZN6Phonon3MMF19AbstractMediaPlayer15doVolumeChangedEv 0x0001c950   Data           0  abstractmediaplayer.o(.ARM.extab)
    .extab._ZN6Phonon3MMF19AbstractMediaPlayer14updateMetaDataEv 0x0001c960   Data           0  abstractmediaplayer.o(.ARM.extab)
    .extab._ZN6Phonon3MMF19AbstractMediaPlayer15loadingCompleteEi 0x0001c988   Data           0  abstractmediaplayer.o(.ARM.extab)
    .extab._ZN6Phonon3MMF19AbstractMediaPlayer16playbackCompleteEi 0x0001c998   Data           0  abstractmediaplayer.o(.ARM.extab)
    .extab._ZN6Phonon3MMF19AbstractMediaPlayer21downloadLengthChangedEx 0x0001c9a8   Data           0  abstractmediaplayer.o(.ARM.extab)
    .extab._ZN6Phonon3MMF19AbstractMediaPlayer20downloadStateChangedENS0_8Download5StateE 0x0001c9b8   Data           0  abstractmediaplayer.o(.ARM.extab)
    .extab._ZN4QMapI7QStringS0_E11node_createEP8QMapDataPPNS2_4NodeERKS0_S8_ 0x0001c9d0   Data           0  abstractmediaplayer.o(.ARM.extab)
    .extab._ZN4QMapI7QStringS0_E13detach_helperEv 0x0001ca1c   Data           0  abstractmediaplayer.o(.ARM.extab)
    .extab._ZN5QPairI7QStringS0_ED1Ev        0x0001ca38   Data           0  abstractmediaplayer.o(.ARM.extab)
    .extab._ZN6Phonon3MMF14AbstractPlayerD2Ev 0x0001ca48   Data           0  abstractmediaplayer.o(.ARM.extab)
    .extab._ZN6Phonon3MMF14AbstractPlayerC2EPKS1_ 0x0001ca58   Data           0  abstractplayer.o(.ARM.extab)
    .extab._ZN6Phonon3MMF14AbstractPlayer8setErrorERK7QStringi 0x0001ca68   Data           0  abstractplayer.o(.ARM.extab)
    .extab._ZN6Phonon3MMF14AudioEqualizer13getParametersEP21CMdaAudioOutputStreamR5QListINS0_15EffectParameterEE 0x0001cab8   Data           0  audioequalizer.o(.ARM.extab)
    .extab._ZN6Phonon3MMF14AudioEqualizer12createEffectEP22CMdaAudioPlayerUtility 0x0001cb78   Data           0  audioequalizer.o(.ARM.extab)
    .extab._ZN6Phonon3MMF14AudioEqualizer22effectParameterChangedERKNS0_15EffectParameterERK8QVariant 0x0001cba8   Data           0  audioequalizer.o(.ARM.extab)
    .extab._ZN5QListIN6Phonon3MMF15EffectParameterEE14node_constructEPNS3_4NodeERKS2_ 0x0001cbd8   Data           0  audioequalizer.o(.ARM.extab)
    .extab._ZN5QListIN6Phonon3MMF15EffectParameterEE9node_copyEPNS3_4NodeES5_S5_ 0x0001cbe8   Data           0  audioequalizer.o(.ARM.extab)
    .extab._ZN6Phonon3MMF11AudioOutput22audioOutputDescriptionEi 0x0001cc0c   Data           0  audiooutput.o(.ARM.extab)
    .extab._ZN9QHashNodeI10QByteArray8QVariantEC1ERKS0_RKS1_ 0x0001cc9c   Data           0  audiooutput.o(.ARM.extab)
    .extab._ZN5QHashI10QByteArray8QVariantE11deleteNode2EPN9QHashData4NodeE 0x0001ccac   Data           0  audiooutput.o(.ARM.extab)
    .extab._ZN5QHashI10QByteArray8QVariantE13duplicateNodeEPN9QHashData4NodeEPv 0x0001ccbc   Data           0  audiooutput.o(.ARM.extab)
    .extab._ZN6Phonon3MMF11AudioPlayer9constructEv 0x0001cccc   Data           0  audioplayer.o(.ARM.extab)
    .extab._ZN6Phonon3MMF11AudioPlayerC1EPNS0_11MediaObjectEPKNS0_14AbstractPlayerE 0x0001ccfc   Data           0  audioplayer.o(.ARM.extab)
    .extab._ZN6Phonon3MMF11AudioPlayerD1Ev   0x0001cd0c   Data           0  audioplayer.o(.ARM.extab)
    .extab._ZN6Phonon3MMF11AudioPlayer8openFileERK7QString 0x0001cd24   Data           0  audioplayer.o(.ARM.extab)
    .extab._ZN6Phonon3MMF11AudioPlayer8openFileER5RFile 0x0001cd6c   Data           0  audioplayer.o(.ARM.extab)
    .extab._ZN6Phonon3MMF11AudioPlayer14openDescriptorERK6TDesC8 0x0001cd9c   Data           0  audioplayer.o(.ARM.extab)
    .extab._ZNK6Phonon3MMF11AudioPlayer12bufferStatusEv 0x0001cdcc   Data           0  audioplayer.o(.ARM.extab)
    .extab._ZNK6Phonon3MMF11AudioPlayer14getCurrentTimeEv 0x0001cdfc   Data           0  audioplayer.o(.ARM.extab)
    .extab._ZNK6Phonon3MMF11AudioPlayer13metaDataEntryEi 0x0001ce0c   Data           0  audioplayer.o(.ARM.extab)
    .extab._ZN6Phonon3MMF19AbstractMediaPlayerD2Ev 0x0001ce5c   Data           0  audioplayer.o(.ARM.extab)
    .extab._ZNK6Phonon3MMF19AbstractVideoOutput4dumpEv 0x0001ce7c   Data           0  abstractvideooutput.o(.ARM.extab)
    .extab._ZN6Phonon3MMF19AbstractVideoOutputC1EP7QWidget 0x0001ce94   Data           0  abstractvideooutput.o(.ARM.extab)
    .extab._ZN6Phonon3MMF19AbstractVideoPlayerD2Ev 0x0001cea4   Data           0  abstractvideoplayer.o(.ARM.extab)
    .extab._ZN6Phonon3MMF19AbstractVideoPlayer7doPauseEv 0x0001cebc   Data           0  abstractvideoplayer.o(.ARM.extab)
    .extab._ZN6Phonon3MMF19AbstractVideoPlayer6doSeekEx 0x0001cef4   Data           0  abstractvideoplayer.o(.ARM.extab)
    .extab._ZN6Phonon3MMF19AbstractVideoPlayer15setDeviceVolumeEi 0x0001cf2c   Data           0  abstractvideoplayer.o(.ARM.extab)
    .extab._ZN6Phonon3MMF19AbstractVideoPlayer8openFileERK7QString 0x0001cf5c   Data           0  abstractvideoplayer.o(.ARM.extab)
    .extab._ZN6Phonon3MMF19AbstractVideoPlayer8openFileER5RFile 0x0001cfa4   Data           0  abstractvideoplayer.o(.ARM.extab)
    .extab._ZN6Phonon3MMF19AbstractVideoPlayer7openUrlERK7QStringi 0x0001cfd4   Data           0  abstractvideoplayer.o(.ARM.extab)
    .extab._ZN6Phonon3MMF19AbstractVideoPlayer14openDescriptorERK6TDesC8 0x0001d004   Data           0  abstractvideoplayer.o(.ARM.extab)
    .extab._ZNK6Phonon3MMF19AbstractVideoPlayer12bufferStatusEv 0x0001d034   Data           0  abstractvideoplayer.o(.ARM.extab)
    .extab._ZNK6Phonon3MMF19AbstractVideoPlayer14getCurrentTimeEv 0x0001d064   Data           0  abstractvideoplayer.o(.ARM.extab)
    .extab._ZNK6Phonon3MMF19AbstractVideoPlayer23numberOfMetaDataEntriesEv 0x0001d09c   Data           0  abstractvideoplayer.o(.ARM.extab)
    .extab._ZNK6Phonon3MMF19AbstractVideoPlayer13metaDataEntryEi 0x0001d0cc   Data           0  abstractvideoplayer.o(.ARM.extab)
    .extab._ZN6Phonon3MMF19AbstractVideoPlayerC2EPNS0_11MediaObjectEPKNS0_14AbstractPlayerE 0x0001d11c   Data           0  abstractvideoplayer.o(.ARM.extab)
    .extab._ZN6Phonon3MMF19AbstractVideoPlayer17MvpuoOpenCompleteEi 0x0001d12c   Data           0  abstractvideoplayer.o(.ARM.extab)
    .extab._ZN6Phonon3MMF19AbstractVideoPlayer20MvpuoPrepareCompleteEi 0x0001d13c   Data           0  abstractvideoplayer.o(.ARM.extab)
    .extab._Z22getAvailableMimeTypesLR11QStringList 0x0001d16c   Data           0  backend.o(.ARM.extab)
    .extab._ZN6Phonon3MMF7BackendC1EP7QObject 0x0001d17c   Data           0  backend.o(.ARM.extab)
    .extab.qt_plugin_instance                0x0001d1ec   Data           0  backend.o(.ARM.extab)
    .extab._ZN6Phonon3MMF7Backend12createObjectENS_16BackendInterface5ClassEP7QObjectRK5QListI8QVariantE 0x0001d204   Data           0  backend.o(.ARM.extab)
    .extab._ZNK6Phonon3MMF7Backend24objectDescriptionIndexesENS_21ObjectDescriptionTypeE 0x0001d224   Data           0  backend.o(.ARM.extab)
    .extab._ZNK6Phonon3MMF7Backend18availableMimeTypesEv 0x0001d244   Data           0  backend.o(.ARM.extab)
    .extab._ZN5QListI7QStringE14node_constructEPNS1_4NodeERKS0_ 0x0001d284   Data           0  backend.o(.ARM.extab)
    .extab._ZN5QListI7QStringE9node_copyEPNS1_4NodeES3_S3_ 0x0001d294   Data           0  backend.o(.ARM.extab)
    .extab._ZN5QListI7QStringE18detach_helper_growEii 0x0001d2b8   Data           0  backend.o(.ARM.extab)
    .extab._ZN5QListI7QStringE6appendERKS0_  0x0001d2e8   Data           0  backend.o(.ARM.extab)
    .extab._ZN5QListIiE13detach_helperEi     0x0001d318   Data           0  backend.o(.ARM.extab)
    .extab._ZN5QListIiE18detach_helper_growEii 0x0001d334   Data           0  backend.o(.ARM.extab)
    .extab._ZN5QListIiE6appendERKi           0x0001d364   Data           0  backend.o(.ARM.extab)
    .extab._ZN5QListIiEpLERKS0_              0x0001d380   Data           0  backend.o(.ARM.extab)
    .extab._ZN6Phonon3MMF9BassBoost13getParametersEP21CMdaAudioOutputStreamR5QListINS0_15EffectParameterEE 0x0001d39c   Data           0  bassboost.o(.ARM.extab)
    .extab._ZN6Phonon3MMF9BassBoost12createEffectEP22CMdaAudioPlayerUtility 0x0001d3dc   Data           0  bassboost.o(.ARM.extab)
    .extab._ZN6Phonon3MMF13EffectFactoryC1EP7QObject 0x0001d40c   Data           0  effectfactory.o(.ARM.extab)
    .extab._ZN6Phonon3MMF13EffectFactoryD1Ev 0x0001d41c   Data           0  effectfactory.o(.ARM.extab)
    .extab._ZN6Phonon3MMF13EffectFactory10initializeEv 0x0001d42c   Data           0  effectfactory.o(.ARM.extab)
    .extab._ZN6Phonon3MMF13EffectFactory17createAudioEffectENS1_4TypeEP7QObject 0x0001d45c   Data           0  effectfactory.o(.ARM.extab)
    .extab._ZN6Phonon3MMF13EffectFactory13effectIndexesEv 0x0001d48c   Data           0  effectfactory.o(.ARM.extab)
    .extab._ZN5QListIN6Phonon3MMF15EffectParameterEE13detach_helperEi 0x0001d49c   Data           0  effectfactory.o(.ARM.extab)
    .extab._ZN9QHashNodeIN6Phonon3MMF13EffectFactory4TypeENS2_10EffectDataEEC1ERKS3_RKS4_ 0x0001d4b8   Data           0  effectfactory.o(.ARM.extab)
    .extab._ZN19OutputStreamFactory6createEv 0x0001d4c8   Data           0  effectfactory.o(.ARM.extab)
    .extab._ZN5QListIN6Phonon3MMF15EffectParameterEE18detach_helper_growEii 0x0001d4f8   Data           0  effectfactory.o(.ARM.extab)
    .extab._ZN5QListIN6Phonon3MMF15EffectParameterEE6appendERKS2_ 0x0001d528   Data           0  effectfactory.o(.ARM.extab)
    .extab._ZN5QHashIN6Phonon3MMF13EffectFactory4TypeENS2_10EffectDataEE6insertERKS3_RKS4_ 0x0001d558   Data           0  effectfactory.o(.ARM.extab)
    .extab._ZN5QHashI10QByteArray8QVariantE6insertERKS0_RKS1_ 0x0001d570   Data           0  effectfactory.o(.ARM.extab)
    .extab._ZN6Phonon3MMF13EffectFactory10EffectDataC1Ev 0x0001d588   Data           0  effectfactory.o(.ARM.extab)
    .extab._ZN6Phonon3MMF13EffectFactory7getDataINS0_14StereoWideningEEENS1_10EffectDataEv 0x0001d598   Data           0  effectfactory.o(.ARM.extab)
    .extab._ZN6Phonon3MMF13EffectFactory7getDataINS0_8LoudnessEEENS1_10EffectDataEv 0x0001d6b8   Data           0  effectfactory.o(.ARM.extab)
    .extab._ZN6Phonon3MMF13EffectFactory7getDataINS0_19EnvironmentalReverbEEENS1_10EffectDataEv 0x0001d7d8   Data           0  effectfactory.o(.ARM.extab)
    .extab._ZN6Phonon3MMF13EffectFactory7getDataINS0_9BassBoostEEENS1_10EffectDataEv 0x0001d8f8   Data           0  effectfactory.o(.ARM.extab)
    .extab._ZN6Phonon3MMF13EffectFactory7getDataINS0_14AudioEqualizerEEENS1_10EffectDataEv 0x0001da18   Data           0  effectfactory.o(.ARM.extab)
    .extab._ZN6Phonon3MMF13EffectFactory10EffectDataD1Ev 0x0001db38   Data           0  effectfactory.o(.ARM.extab)
    .extab._ZN5QHashIN6Phonon3MMF13EffectFactory4TypeENS2_10EffectDataEE13duplicateNodeEPN9QHashData4NodeEPv 0x0001db48   Data           0  effectfactory.o(.ARM.extab)
    .extab._Z15createParameteriRK7QStringiiiN6Phonon15EffectParameter4HintE 0x0001db58   Data           0  environmentalreverb.o(.ARM.extab)
    .extab._ZN6Phonon3MMF19EnvironmentalReverb13getParametersEP21CMdaAudioOutputStreamR5QListINS0_15EffectParameterEE 0x0001dbb0   Data           0  environmentalreverb.o(.ARM.extab)
    .extab._ZN6Phonon3MMF19EnvironmentalReverb12createEffectEP22CMdaAudioPlayerUtility 0x0001dd30   Data           0  environmentalreverb.o(.ARM.extab)
    .extab._ZN6Phonon3MMF19EnvironmentalReverb22effectParameterChangedERKNS0_15EffectParameterERK8QVariant 0x0001dd60   Data           0  environmentalreverb.o(.ARM.extab)
    .extab._ZN6Phonon3MMF8Loudness13getParametersEP21CMdaAudioOutputStreamR5QListINS0_15EffectParameterEE 0x0001def8   Data           0  loudness.o(.ARM.extab)
    .extab._ZN6Phonon3MMF8Loudness12createEffectEP22CMdaAudioPlayerUtility 0x0001df38   Data           0  loudness.o(.ARM.extab)
    .extab._ZN6Phonon3MMF11MediaObjectC1EP7QObject 0x0001df68   Data           0  mediaobject.o(.ARM.extab)
    .extab._ZN6Phonon3MMF11MediaObjectD1Ev   0x0001dfd0   Data           0  mediaobject.o(.ARM.extab)
    .extab._ZN6Phonon3MMF11MediaObject15bufferMediaTypeEPKhx 0x0001dff8   Data           0  mediaobject.o(.ARM.extab)
    .extab._ZN6Phonon3MMF11MediaObject14openFileHandleERK7QString 0x0001e004   Data           0  mediaobject.o(.ARM.extab)
    .extab._ZN6Phonon3MMF11MediaObject13fileMediaTypeERK7QString 0x0001e01c   Data           0  mediaobject.o(.ARM.extab)
    .extab._ZN6Phonon3MMF11MediaObject12createPlayerERKNS_11MediaSourceE 0x0001e034   Data           0  mediaobject.o(.ARM.extab)
    .extab._ZN6Phonon3MMF11MediaObject11eventFilterEP7QObjectP6QEvent 0x0001e134   Data           0  mediaobject.o(.ARM.extab)
    .extab._ZN6Phonon3MMF9MediaNodeC2EP7QObject 0x0001e19c   Data           0  mmf_medianode.o(.ARM.extab)
    .extab._ZN6Phonon3MMF9MediaNodeD2Ev      0x0001e1ac   Data           0  mmf_medianode.o(.ARM.extab)
    .extab._ZN6Phonon3MMF9MediaNode5visitER5QListIPS1_ERPNS0_11MediaObjectE 0x0001e1c4   Data           0  mmf_medianode.o(.ARM.extab)
    .extab._ZN6Phonon3MMF9MediaNode17updateMediaObjectEv 0x0001e1d4   Data           0  mmf_medianode.o(.ARM.extab)
    .extab._ZN5QListIPN6Phonon3MMF9MediaNodeEE13detach_helperEi 0x0001e1f4   Data           0  mmf_medianode.o(.ARM.extab)
    .extab._Z20qForeachContainerNewI5QListIPN6Phonon3MMF9MediaNodeEEE17QForeachContainerIT_ERKS7_ 0x0001e210   Data           0  mmf_medianode.o(.ARM.extab)
    .extab._ZN5QListIPN6Phonon3MMF9MediaNodeEE18detach_helper_growEii 0x0001e220   Data           0  mmf_medianode.o(.ARM.extab)
    .extab._ZN5QListIPN6Phonon3MMF9MediaNodeEE6appendERKS3_ 0x0001e250   Data           0  mmf_medianode.o(.ARM.extab)
    .extab._ZN6Phonon3MMF14StereoWidening13getParametersEP21CMdaAudioOutputStreamR5QListINS0_15EffectParameterEE 0x0001e26c   Data           0  stereowidening.o(.ARM.extab)
    .extab._ZN6Phonon3MMF14StereoWidening12createEffectEP22CMdaAudioPlayerUtility 0x0001e31c   Data           0  stereowidening.o(.ARM.extab)
    .extab._ZN6Phonon3MMF14StereoWidening16parameterChangedERKNS0_15EffectParameterERK8QVariant 0x0001e34c   Data           0  stereowidening.o(.ARM.extab)
    .extab._ZN10ObjectDump11QDumperBaseD1Ev  0x0001e37c   Data           0  objectdump.o(.ARM.extab)
    .extab._ZN10ObjectDump15QVisitorPrivate4NodeD1Ev 0x0001e3a4   Data           0  objectdump.o(.ARM.extab)
    .extab._ZN10ObjectDump15QVisitorPrivateD1Ev 0x0001e3d4   Data           0  objectdump.o(.ARM.extab)
    .extab._ZN10ObjectDump15QAnnotatorBasic10annotationERK7QObject 0x0001e3ec   Data           0  objectdump.o(.ARM.extab)
    .extab._ZN10ObjectDump16QAnnotatorWidget10annotationERK7QObject 0x0001e444   Data           0  objectdump.o(.ARM.extab)
    .extab._ZN10ObjectDump11QDumperBaseC1Ev  0x0001e474   Data           0  objectdump.o(.ARM.extab)
    .extab._ZN10ObjectDump7QDumperC1Ev       0x0001e484   Data           0  objectdump.o(.ARM.extab)
    .extab._ZN10ObjectDump7QDumperD1Ev       0x0001e49c   Data           0  objectdump.o(.ARM.extab)
    .extab._ZN10ObjectDump11QDumperBase9setPrefixERK7QString 0x0001e4ac   Data           0  objectdump.o(.ARM.extab)
    .extab._ZN10ObjectDump11QDumperBase12addAnnotatorEPNS_10QAnnotatorE 0x0001e4f4   Data           0  objectdump.o(.ARM.extab)
    .extab._ZN10ObjectDump14QDumperPrivate10dumpObjectERK7QObject 0x0001e504   Data           0  objectdump.o(.ARM.extab)
    .extab._ZN10ObjectDump15QVisitorPrivateC1Ev 0x0001e56c   Data           0  objectdump.o(.ARM.extab)
    .extab._ZN10ObjectDump8QVisitorC1Ev      0x0001e57c   Data           0  objectdump.o(.ARM.extab)
    .extab._ZN10ObjectDump8QVisitorD1Ev      0x0001e594   Data           0  objectdump.o(.ARM.extab)
    .extab._ZN10ObjectDump15QVisitorPrivate4NodeC1Ev 0x0001e5a4   Data           0  objectdump.o(.ARM.extab)
    .extab._ZN10ObjectDump15QVisitorPrivate9visitNodeERK7QObject 0x0001e5b4   Data           0  objectdump.o(.ARM.extab)
    .extab._ZNK10ObjectDump15QVisitorPrivate12branchBufferERK5QListIbEbb 0x0001e5ec   Data           0  objectdump.o(.ARM.extab)
    .extab._ZN10ObjectDump15QVisitorPrivate8dumpNodeERKNS0_4NodeERK5QListIbEb 0x0001e624   Data           0  objectdump.o(.ARM.extab)
    .extab._ZN10ObjectDump15QVisitorPrivate13dumpRecursiveERKNS0_4NodeE5QListIbEb 0x0001e65c   Data           0  objectdump.o(.ARM.extab)
    .extab._ZN10ObjectDump15QVisitorPrivate13visitCompleteEv 0x0001e68c   Data           0  objectdump.o(.ARM.extab)
    .extab._ZN10ObjectDump20addDefaultAnnotatorsERNS_7QDumperE 0x0001e6ac   Data           0  objectdump.o(.ARM.extab)
    .extab._ZN10ObjectDump20addDefaultAnnotatorsERNS_8QVisitorE 0x0001e6c4   Data           0  objectdump.o(.ARM.extab)
    .extab._ZN10ObjectDump16dumpTreeFromRootERK7QObjectRNS_8QVisitorE 0x0001e6dc   Data           0  objectdump.o(.ARM.extab)
    .extab._ZN10ObjectDump13dumpAncestorsERK7QObjectRNS_8QVisitorE 0x0001e71c   Data           0  objectdump.o(.ARM.extab)
    .extab._Z6qDebugv                        0x0001e75c   Data           0  objectdump.o(.ARM.extab)
    .extab._ZN5QListIPN10ObjectDump10QAnnotatorEE13detach_helperEi 0x0001e774   Data           0  objectdump.o(.ARM.extab)
    .extab._Z20qForeachContainerNewI5QListIPN10ObjectDump10QAnnotatorEEE17QForeachContainerIT_ERKS6_ 0x0001e790   Data           0  objectdump.o(.ARM.extab)
    .extab._ZN5QListI10QByteArrayE9node_copyEPNS1_4NodeES3_S3_ 0x0001e7a0   Data           0  objectdump.o(.ARM.extab)
    .extab._ZN5QListI10QByteArrayE13detach_helperEi 0x0001e7c4   Data           0  objectdump.o(.ARM.extab)
    .extab._ZN5QListIPN10ObjectDump15QVisitorPrivate4NodeEE13detach_helperEi 0x0001e7e0   Data           0  objectdump.o(.ARM.extab)
    .extab._ZN6QDebugD1Ev                    0x0001e7fc   Data           0  objectdump.o(.ARM.extab)
    .extab._ZN6QDebuglsEPKc                  0x0001e820   Data           0  objectdump.o(.ARM.extab)
    .extab._ZN5QListI10QByteArrayE14node_constructEPNS1_4NodeERKS0_ 0x0001e830   Data           0  objectdump.o(.ARM.extab)
    .extab._ZN5QListI10QByteArrayE18detach_helper_growEii 0x0001e840   Data           0  objectdump.o(.ARM.extab)
    .extab._ZN5QListI10QByteArrayE6appendERKS0_ 0x0001e870   Data           0  objectdump.o(.ARM.extab)
    .extab._ZN5QListI10QByteArrayEpLERKS1_   0x0001e8a0   Data           0  objectdump.o(.ARM.extab)
    .extab._ZN5QListIbE13detach_helperEi     0x0001e8bc   Data           0  objectdump.o(.ARM.extab)
    .extab._ZN5QListIbE18detach_helper_growEii 0x0001e8d8   Data           0  objectdump.o(.ARM.extab)
    .extab._ZN5QListIbE6appendERKb           0x0001e908   Data           0  objectdump.o(.ARM.extab)
    .extab._ZN5QListIPN10ObjectDump10QAnnotatorEE18detach_helper_growEii 0x0001e924   Data           0  objectdump.o(.ARM.extab)
    .extab._ZN5QListIPN10ObjectDump10QAnnotatorEE6appendERKS2_ 0x0001e954   Data           0  objectdump.o(.ARM.extab)
    .extab._ZN5QListIPN10ObjectDump15QVisitorPrivate4NodeEE18detach_helper_growEii 0x0001e970   Data           0  objectdump.o(.ARM.extab)
    .extab._ZN5QListIPN10ObjectDump15QVisitorPrivate4NodeEE6appendERKS3_ 0x0001e9a0   Data           0  objectdump.o(.ARM.extab)
    .extab._ZN7QVectorIiE7reallocEii         0x0001e9bc   Data           0  objectdump.o(.ARM.extab)
    .extab._ZN7QVectorIPK7QObjectE7reallocEii 0x0001e9d8   Data           0  objectdump.o(.ARM.extab)
    .extab._ZN5QHashIPK7QObjectPN10ObjectDump15QVisitorPrivate4NodeEE6insertERKS2_RKS6_ 0x0001e9f4   Data           0  objectdump.o(.ARM.extab)
    .extab._ZN10ObjectDump7Symbian16QAnnotatorWidget10annotationERK7QObject 0x0001ea04   Data           0  objectdump_symbian.o(.ARM.extab)
    .extab._ZN10ObjectDump7Symbian17QAnnotatorControl10annotationERK7QObject 0x0001ea34   Data           0  objectdump_symbian.o(.ARM.extab)
    .extab._ZN10ObjectDump7Symbian16QAnnotatorWindow10annotationERK7QObject 0x0001ea64   Data           0  objectdump_symbian.o(.ARM.extab)
    .extab._ZN10ObjectDump24addDefaultAnnotators_sysERNS_7QDumperE 0x0001ea94   Data           0  objectdump_symbian.o(.ARM.extab)
    .extab._ZN10ObjectDump24addDefaultAnnotators_sysERNS_8QVisitorE 0x0001eab4   Data           0  objectdump_symbian.o(.ARM.extab)
    .extab._ZN30QGraphicsColorizeEffectPrivateD1Ev 0x0001ead4   Data           0  objectdump_symbian.o(.ARM.extab)
    .extab._ZN26QGraphicsBlurEffectPrivateD1Ev 0x0001eae4   Data           0  objectdump_symbian.o(.ARM.extab)
    .extab._ZN32QGraphicsDropShadowEffectPrivateD1Ev 0x0001eaf4   Data           0  objectdump_symbian.o(.ARM.extab)
    .extab._ZN10ObjectTree21AncestorConstIteratorC1ERK7QObject 0x0001eb04   Data           0  objecttree.o(.ARM.extab)
    .extab._ZN6Phonon3MMF5Utils20symbianErrorToStringEi 0x0001eb14   Data           0  utils.o(.ARM.extab)
    .extab._ZN6Phonon3MMF5Utils14getScreenPixelERK6QPoint 0x0001eb24   Data           0  utils.o(.ARM.extab)
    .extab._ZN6Phonon3MMF11VideoWidgetC1EP7QWidget 0x0001eb54   Data           0  videowidget.o(.ARM.extab)
    .extab._ZN6Phonon3MMF11VideoWidgetD1Ev   0x0001eb84   Data           0  videowidget.o(.ARM.extab)
    .extab._ZN6Phonon3MMF18SurfaceVideoOutputC1EP7QWidget 0x0001eb9c   Data           0  videooutput_surface.o(.ARM.extab)
    .extab._ZN6Phonon3MMF18SurfaceVideoOutputD1Ev 0x0001ebac   Data           0  videooutput_surface.o(.ARM.extab)
    .extab._ZN6Phonon3MMF18SurfaceVideoPlayer6createEPNS0_11MediaObjectEPKNS0_14AbstractPlayerE 0x0001ebbc   Data           0  videoplayer_surface.o(.ARM.extab)
    .extab._ZN6Phonon3MMF18SurfaceVideoPlayer12createPlayerEv 0x0001ebcc   Data           0  videoplayer_surface.o(.ARM.extab)
    .extab._ZN6Phonon3MMF18SurfaceVideoPlayer16addDisplayWindowERK5TRect 0x0001ebfc   Data           0  videoplayer_surface.o(.ARM.extab)
    .extab._ZN6Phonon3MMF18SurfaceVideoPlayer23handleParametersChangedE6QFlagsINS0_14VideoParameterEE 0x0001ec34   Data           0  videoplayer_surface.o(.ARM.extab)
    .extab._ZN6Phonon3MMF15DownloadPrivateC1EPNS0_8DownloadE 0x0001ecbc   Data           0  download.o(.ARM.extab)
    .extab._ZN6Phonon3MMF15DownloadPrivateD1Ev 0x0001eccc   Data           0  download.o(.ARM.extab)
    .extab._ZN6Phonon3MMF15DownloadPrivate5startEi 0x0001ecdc   Data           0  download.o(.ARM.extab)
    .extab._ZN6Phonon3MMF15DownloadPrivate16HandleDMgrEventLER13RHttpDownload18THttpDownloadEvent 0x0001ed54   Data           0  download.o(.ARM.extab)
    .extab._ZN6Phonon3MMF8DownloadC1ERK4QUrlP7QObject 0x0001ed6c   Data           0  download.o(.ARM.extab)
    .extab._ZN6Phonon3MMF8DownloadD1Ev       0x0001ed9c   Data           0  download.o(.ARM.extab)
    .extab._ZN6Phonon3MMF19AbstractAudioEffectD2Ev 0x0001edb4   Data           0  moc_abstractaudioeffect.o(.ARM.extab)
    .extab._ZN6Phonon3MMF7BackendD1Ev        0x0001edd4   Data           0  moc_backend.o(.ARM.extab)
    .constdata$1                             0x0001ede4   Data           0  abstractaudioeffect.o(.constdata)
    .constdata                               0x0001ede4   Section      664  abstractaudioeffect.o(.constdata)
    .constdata$1                             0x0001f07c   Data           0  abstractmediaplayer.o(.constdata)
    .constdata                               0x0001f07c   Section     2436  abstractmediaplayer.o(.constdata)
    .constdata$1                             0x0001fa00   Data           0  abstractplayer.o(.constdata)
    .constdata                               0x0001fa00   Section      352  abstractplayer.o(.constdata)
    .constdata$1                             0x0001fb60   Data           0  audioequalizer.o(.constdata)
    .constdata                               0x0001fb60   Section      144  audioequalizer.o(.constdata)
    .constdata$1                             0x0001fbf0   Data           0  audiooutput.o(.constdata)
    .constdata                               0x0001fbf0   Section      492  audiooutput.o(.constdata)
    .constdata$1                             0x0001fddc   Data           0  audioplayer.o(.constdata)
    .constdata                               0x0001fddc   Section      332  audioplayer.o(.constdata)
    .constdata$1                             0x0001ff28   Data           0  abstractvideooutput.o(.constdata)
    .constdata                               0x0001ff28   Section      324  abstractvideooutput.o(.constdata)
    .constdata$1                             0x0002006c   Data           0  abstractvideoplayer.o(.constdata)
    KNullDesC8                               0x0002006c   Data           8  abstractvideoplayer.o(.constdata)
    .constdata                               0x0002006c   Section     2000  abstractvideoplayer.o(.constdata)
    .constdata$1                             0x0002083c   Data           0  backend.o(.constdata)
    qt_plugin_verification_data              0x0002083c   Data          90  backend.o(.constdata)
    .constdata                               0x0002083c   Section      704  backend.o(.constdata)
    .constdata$1                             0x00020afc   Data           0  bassboost.o(.constdata)
    .constdata                               0x00020afc   Section       76  bassboost.o(.constdata)
    .constdata$1                             0x00020b48   Data           0  dummyplayer.o(.constdata)
    .constdata                               0x00020b48   Section       76  dummyplayer.o(.constdata)
    .constdata$1                             0x00020b94   Data           0  effectfactory.o(.constdata)
    .constdata                               0x00020b94   Section      156  effectfactory.o(.constdata)
    .constdata$1                             0x00020c30   Data           0  effectparameter.o(.constdata)
    .constdata                               0x00020c30   Section       84  effectparameter.o(.constdata)
    .constdata$1                             0x00020c84   Data           0  environmentalreverb.o(.constdata)
    .constdata                               0x00020c84   Section      236  environmentalreverb.o(.constdata)
    .constdata$1                             0x00020d70   Data           0  loudness.o(.constdata)
    .constdata                               0x00020d70   Section       76  loudness.o(.constdata)
    .constdata$1                             0x00020dbc   Data           0  mediaobject.o(.constdata)
    KNullDesC                                0x00020dbc   Data           8  mediaobject.o(.constdata)
    .constdata                               0x00020dbc   Section     2408  mediaobject.o(.constdata)
    .constdata$1                             0x00021724   Data           0  mmf_medianode.o(.constdata)
    .constdata                               0x00021724   Section      156  mmf_medianode.o(.constdata)
    .constdata$1                             0x000217c0   Data           0  stereowidening.o(.constdata)
    .constdata                               0x000217c0   Section      224  stereowidening.o(.constdata)
    .constdata$1                             0x000218a0   Data           0  objectdump.o(.constdata)
    .constdata                               0x000218a0   Section      144  objectdump.o(.constdata)
    .constdata$1                             0x00021930   Data           0  objectdump_symbian.o(.constdata)
    .constdata                               0x00021930   Section      144  objectdump_symbian.o(.constdata)
    .constdata$1                             0x000219c0   Data           0  objecttree.o(.constdata)
    .constdata                               0x000219c0   Section      144  objecttree.o(.constdata)
    .constdata$1                             0x00021a50   Data           0  utils.o(.constdata)
    PanicCategory                            0x00021a50   Data          28  utils.o(.constdata)
    .constdata                               0x00021a50   Section      116  utils.o(.constdata)
    KMimePrefixAudio                         0x00021a6c   Data          20  utils.o(.constdata)
    KMimePrefixVideo                         0x00021a80   Data          20  utils.o(.constdata)
    KMimeSDP                                 0x00021a94   Data          36  utils.o(.constdata)
    .constdata$1                             0x00021ac4   Data           0  videowidget.o(.constdata)
    .constdata                               0x00021ac4   Section      632  videowidget.o(.constdata)
    .constdata$1                             0x00021d3c   Data           0  videooutput_surface.o(.constdata)
    .constdata                               0x00021d3c   Section      484  videooutput_surface.o(.constdata)
    .constdata$1                             0x00021f20   Data           0  videoplayer_surface.o(.constdata)
    .constdata                               0x00021f20   Section     1016  videoplayer_surface.o(.constdata)
    .constdata$1                             0x00022318   Data           0  download.o(.constdata)
    .constdata                               0x00022318   Section     1012  download.o(.constdata)
    .constdata$1                             0x0002270c   Data           0  moc_abstractaudioeffect.o(.constdata)
    qt_meta_data_Phonon__MMF__AbstractAudioEffect 0x0002270c   Data         100  moc_abstractaudioeffect.o(.constdata)
    .constdata                               0x0002270c   Section      404  moc_abstractaudioeffect.o(.constdata)
    qt_meta_stringdata_Phonon__MMF__AbstractAudioEffect 0x00022770   Data         141  moc_abstractaudioeffect.o(.constdata)
    .constdata$1                             0x000228a0   Data           0  moc_abstractmediaplayer.o(.constdata)
    qt_meta_data_Phonon__MMF__AbstractMediaPlayer 0x000228a0   Data         140  moc_abstractmediaplayer.o(.constdata)
    .constdata                               0x000228a0   Section      440  moc_abstractmediaplayer.o(.constdata)
    qt_meta_stringdata_Phonon__MMF__AbstractMediaPlayer 0x0002292c   Data         137  moc_abstractmediaplayer.o(.constdata)
    .constdata$1                             0x00022a58   Data           0  moc_abstractplayer.o(.constdata)
    qt_meta_data_Phonon__MMF__AbstractPlayer 0x00022a58   Data         220  moc_abstractplayer.o(.constdata)
    .constdata                               0x00022a58   Section      672  moc_abstractplayer.o(.constdata)
    qt_meta_stringdata_Phonon__MMF__AbstractPlayer 0x00022b34   Data         291  moc_abstractplayer.o(.constdata)
    .constdata$1                             0x00022cf8   Data           0  moc_abstractvideooutput.o(.constdata)
    qt_meta_data_Phonon__MMF__AbstractVideoOutput 0x00022cf8   Data         120  moc_abstractvideooutput.o(.constdata)
    .constdata                               0x00022cf8   Section      376  moc_abstractvideooutput.o(.constdata)
    qt_meta_stringdata_Phonon__MMF__AbstractVideoOutput 0x00022d70   Data          96  moc_abstractvideooutput.o(.constdata)
    .constdata$1                             0x00022e70   Data           0  moc_abstractvideoplayer.o(.constdata)
    qt_meta_data_Phonon__MMF__AbstractVideoPlayer 0x00022e70   Data         120  moc_abstractvideoplayer.o(.constdata)
    .constdata                               0x00022e70   Section      376  moc_abstractvideoplayer.o(.constdata)
    qt_meta_stringdata_Phonon__MMF__AbstractVideoPlayer 0x00022ee8   Data          96  moc_abstractvideoplayer.o(.constdata)
    .constdata$1                             0x00022fe8   Data           0  moc_audioequalizer.o(.constdata)
    qt_meta_data_Phonon__MMF__AudioEqualizer 0x00022fe8   Data          60  moc_audioequalizer.o(.constdata)
    .constdata                               0x00022fe8   Section      252  moc_audioequalizer.o(.constdata)
    qt_meta_stringdata_Phonon__MMF__AudioEqualizer 0x00023024   Data          29  moc_audioequalizer.o(.constdata)
    .constdata$1                             0x000230e4   Data           0  moc_audiooutput.o(.constdata)
    qt_meta_data_Phonon__MMF__AudioOutput    0x000230e4   Data         100  moc_audiooutput.o(.constdata)
    .constdata                               0x000230e4   Section      336  moc_audiooutput.o(.constdata)
    qt_meta_stringdata_Phonon__MMF__AudioOutput 0x00023148   Data          75  moc_audiooutput.o(.constdata)
    .constdata$1                             0x00023234   Data           0  moc_audioplayer.o(.constdata)
    qt_meta_data_Phonon__MMF__AudioPlayer    0x00023234   Data          60  moc_audioplayer.o(.constdata)
    .constdata                               0x00023234   Section      248  moc_audioplayer.o(.constdata)
    qt_meta_stringdata_Phonon__MMF__AudioPlayer 0x00023270   Data          26  moc_audioplayer.o(.constdata)
    .constdata$1                             0x0002332c   Data           0  moc_backend.o(.constdata)
    qt_meta_data_Phonon__MMF__Backend        0x0002332c   Data          80  moc_backend.o(.constdata)
    .constdata                               0x0002332c   Section      312  moc_backend.o(.constdata)
    qt_meta_stringdata_Phonon__MMF__Backend  0x0002337c   Data          71  moc_backend.o(.constdata)
    .constdata$1                             0x00023464   Data           0  moc_bassboost.o(.constdata)
    qt_meta_data_Phonon__MMF__BassBoost      0x00023464   Data          60  moc_bassboost.o(.constdata)
    .constdata                               0x00023464   Section      244  moc_bassboost.o(.constdata)
    qt_meta_stringdata_Phonon__MMF__BassBoost 0x000234a0   Data          24  moc_bassboost.o(.constdata)
    .constdata$1                             0x00023558   Data           0  moc_effectfactory.o(.constdata)
    qt_meta_data_Phonon__MMF__EffectFactory  0x00023558   Data          60  moc_effectfactory.o(.constdata)
    .constdata                               0x00023558   Section      248  moc_effectfactory.o(.constdata)
    qt_meta_stringdata_Phonon__MMF__EffectFactory 0x00023594   Data          28  moc_effectfactory.o(.constdata)
    .constdata$1                             0x00023650   Data           0  moc_environmentalreverb.o(.constdata)
    qt_meta_data_Phonon__MMF__EnvironmentalReverb 0x00023650   Data          60  moc_environmentalreverb.o(.constdata)
    .constdata                               0x00023650   Section      256  moc_environmentalreverb.o(.constdata)
    qt_meta_stringdata_Phonon__MMF__EnvironmentalReverb 0x0002368c   Data          34  moc_environmentalreverb.o(.constdata)
    .constdata$1                             0x00023750   Data           0  moc_loudness.o(.constdata)
    qt_meta_data_Phonon__MMF__Loudness       0x00023750   Data          60  moc_loudness.o(.constdata)
    .constdata                               0x00023750   Section      244  moc_loudness.o(.constdata)
    qt_meta_stringdata_Phonon__MMF__Loudness 0x0002378c   Data          23  moc_loudness.o(.constdata)
    .constdata$1                             0x00023844   Data           0  moc_mediaobject.o(.constdata)
    qt_meta_data_Phonon__MMF__MediaObject    0x00023844   Data         360  moc_mediaobject.o(.constdata)
    .constdata                               0x00023844   Section     1028  moc_mediaobject.o(.constdata)
    qt_meta_stringdata_Phonon__MMF__MediaObject 0x000239ac   Data         507  moc_mediaobject.o(.constdata)
    .constdata$1                             0x00023c48   Data           0  moc_mmf_medianode.o(.constdata)
    qt_meta_data_Phonon__MMF__MediaNode      0x00023c48   Data          60  moc_mmf_medianode.o(.constdata)
    .constdata                               0x00023c48   Section      244  moc_mmf_medianode.o(.constdata)
    qt_meta_stringdata_Phonon__MMF__MediaNode 0x00023c84   Data          24  moc_mmf_medianode.o(.constdata)
    .constdata$1                             0x00023d3c   Data           0  moc_stereowidening.o(.constdata)
    qt_meta_data_Phonon__MMF__StereoWidening 0x00023d3c   Data          60  moc_stereowidening.o(.constdata)
    .constdata                               0x00023d3c   Section      252  moc_stereowidening.o(.constdata)
    qt_meta_stringdata_Phonon__MMF__StereoWidening 0x00023d78   Data          29  moc_stereowidening.o(.constdata)
    .constdata$1                             0x00023e38   Data           0  moc_objectdump.o(.constdata)
    qt_meta_data_ObjectDump__QAnnotator      0x00023e38   Data          60  moc_objectdump.o(.constdata)
    .constdata                               0x00023e38   Section      588  moc_objectdump.o(.constdata)
    qt_meta_stringdata_ObjectDump__QAnnotator 0x00023e74   Data          24  moc_objectdump.o(.constdata)
    qt_meta_data_ObjectDump__QAnnotatorBasic 0x00023e8c   Data          60  moc_objectdump.o(.constdata)
    qt_meta_stringdata_ObjectDump__QAnnotatorBasic 0x00023ec8   Data          29  moc_objectdump.o(.constdata)
    qt_meta_data_ObjectDump__QAnnotatorWidget 0x00023ee8   Data          60  moc_objectdump.o(.constdata)
    qt_meta_stringdata_ObjectDump__QAnnotatorWidget 0x00023f24   Data          30  moc_objectdump.o(.constdata)
    qt_meta_data_ObjectDump__QDumper         0x00023f44   Data          60  moc_objectdump.o(.constdata)
    qt_meta_stringdata_ObjectDump__QDumper   0x00023f80   Data          21  moc_objectdump.o(.constdata)
    qt_meta_data_ObjectDump__QVisitor        0x00023f98   Data          60  moc_objectdump.o(.constdata)
    qt_meta_stringdata_ObjectDump__QVisitor  0x00023fd4   Data          22  moc_objectdump.o(.constdata)
    .constdata$1                             0x00024084   Data           0  moc_objectdump_symbian.o(.constdata)
    qt_meta_data_ObjectDump__Symbian__QAnnotatorWidget 0x00024084   Data          60  moc_objectdump_symbian.o(.constdata)
    .constdata                               0x00024084   Section      420  moc_objectdump_symbian.o(.constdata)
    qt_meta_stringdata_ObjectDump__Symbian__QAnnotatorWidget 0x000240c0   Data          39  moc_objectdump_symbian.o(.constdata)
    qt_meta_data_ObjectDump__Symbian__QAnnotatorControl 0x000240e8   Data          60  moc_objectdump_symbian.o(.constdata)
    qt_meta_stringdata_ObjectDump__Symbian__QAnnotatorControl 0x00024124   Data          40  moc_objectdump_symbian.o(.constdata)
    qt_meta_data_ObjectDump__Symbian__QAnnotatorWindow 0x0002414c   Data          60  moc_objectdump_symbian.o(.constdata)
    qt_meta_stringdata_ObjectDump__Symbian__QAnnotatorWindow 0x00024188   Data          39  moc_objectdump_symbian.o(.constdata)
    .constdata$1                             0x00024228   Data           0  moc_videowidget.o(.constdata)
    qt_meta_data_Phonon__MMF__VideoWidget    0x00024228   Data          60  moc_videowidget.o(.constdata)
    .constdata                               0x00024228   Section      248  moc_videowidget.o(.constdata)
    qt_meta_stringdata_Phonon__MMF__VideoWidget 0x00024264   Data          26  moc_videowidget.o(.constdata)
    .constdata$1                             0x00024320   Data           0  moc_videooutput_surface.o(.constdata)
    qt_meta_data_Phonon__MMF__SurfaceVideoOutput 0x00024320   Data          80  moc_videooutput_surface.o(.constdata)
    .constdata                               0x00024320   Section      300  moc_videooutput_surface.o(.constdata)
    qt_meta_stringdata_Phonon__MMF__SurfaceVideoOutput 0x00024370   Data          59  moc_videooutput_surface.o(.constdata)
    .constdata$1                             0x0002444c   Data           0  moc_videoplayer_surface.o(.constdata)
    qt_meta_data_Phonon__MMF__SurfaceVideoPlayer 0x0002444c   Data          80  moc_videoplayer_surface.o(.constdata)
    .constdata                               0x0002444c   Section      300  moc_videoplayer_surface.o(.constdata)
    qt_meta_stringdata_Phonon__MMF__SurfaceVideoPlayer 0x0002449c   Data          59  moc_videoplayer_surface.o(.constdata)
    .constdata$1                             0x00024578   Data           0  moc_download.o(.constdata)
    qt_meta_data_Phonon__MMF__DownloadPrivate 0x00024578   Data         140  moc_download.o(.constdata)
    .constdata                               0x00024578   Section      536  moc_download.o(.constdata)
    qt_meta_stringdata_Phonon__MMF__DownloadPrivate 0x00024604   Data         103  moc_download.o(.constdata)
    qt_meta_data_Phonon__MMF__Download       0x0002466c   Data         100  moc_download.o(.constdata)
    qt_meta_stringdata_Phonon__MMF__Download 0x000246d0   Data          89  moc_download.o(.constdata)
    .constdata__ZN9stlp_priv15_Integer_limitsIaLan128ELa127ELin1ELb1EE6digitsE 0x00024790   Section        4  abstractaudioeffect.o(.constdata__ZN9stlp_priv15_Integer_limitsIaLan128ELa127ELin1ELb1EE6digitsE)
    .constdata__ZN9stlp_priv15_Integer_limitsIbLb0ELb1ELi1ELb0EE6digitsE 0x00024794   Section        4  abstractaudioeffect.o(.constdata__ZN9stlp_priv15_Integer_limitsIbLb0ELb1ELi1ELb0EE6digitsE)
    .constdata__ZN9stlp_priv15_Integer_limitsIcLc128ELc127ELin1ELb1EE6digitsE 0x00024798   Section        4  abstractaudioeffect.o(.constdata__ZN9stlp_priv15_Integer_limitsIcLc128ELc127ELin1ELb1EE6digitsE)
    .constdata__ZN9stlp_priv15_Integer_limitsIhLh0ELh255ELin1ELb1EE6digitsE 0x0002479c   Section        4  abstractaudioeffect.o(.constdata__ZN9stlp_priv15_Integer_limitsIhLh0ELh255ELin1ELb1EE6digitsE)
    .constdata__ZN9stlp_priv15_Integer_limitsIiLin2147483648ELi2147483647ELin1ELb1EE6digitsE 0x000247a0   Section        4  abstractaudioeffect.o(.constdata__ZN9stlp_priv15_Integer_limitsIiLin2147483648ELi2147483647ELin1ELb1EE6digitsE)
    .constdata__ZN9stlp_priv15_Integer_limitsIiLin2147483648ELi2147483647ELin1ELb1EE9is_signedE 0x000247a4   Section        1  abstractaudioeffect.o(.constdata__ZN9stlp_priv15_Integer_limitsIiLin2147483648ELi2147483647ELin1ELb1EE9is_signedE)
    .constdata__ZN9stlp_priv15_Integer_limitsIjLj0ELj4294967295ELin1ELb1EE6digitsE 0x000247a8   Section        4  abstractaudioeffect.o(.constdata__ZN9stlp_priv15_Integer_limitsIjLj0ELj4294967295ELin1ELb1EE6digitsE)
    .constdata__ZN9stlp_priv15_Integer_limitsIlLln2147483648ELl2147483647ELin1ELb1EE6digitsE 0x000247ac   Section        4  abstractaudioeffect.o(.constdata__ZN9stlp_priv15_Integer_limitsIlLln2147483648ELl2147483647ELin1ELb1EE6digitsE)
    .constdata__ZN9stlp_priv15_Integer_limitsImLm0ELm4294967295ELin1ELb1EE6digitsE 0x000247b0   Section        4  abstractaudioeffect.o(.constdata__ZN9stlp_priv15_Integer_limitsImLm0ELm4294967295ELin1ELb1EE6digitsE)
    .constdata__ZN9stlp_priv15_Integer_limitsIsLsn32768ELs32767ELin1ELb1EE6digitsE 0x000247b4   Section        4  abstractaudioeffect.o(.constdata__ZN9stlp_priv15_Integer_limitsIsLsn32768ELs32767ELin1ELb1EE6digitsE)
    .constdata__ZN9stlp_priv15_Integer_limitsItLt0ELt65535ELin1ELb1EE6digitsE 0x000247b8   Section        4  abstractaudioeffect.o(.constdata__ZN9stlp_priv15_Integer_limitsItLt0ELt65535ELin1ELb1EE6digitsE)
    .constdata__ZN9stlp_priv15_Integer_limitsIwLw0ELw65535ELin1ELb1EE6digitsE 0x000247bc   Section        4  abstractaudioeffect.o(.constdata__ZN9stlp_priv15_Integer_limitsIwLw0ELw65535ELin1ELb1EE6digitsE)
    .constdata__ZN9stlp_priv15_Integer_limitsIxLxn9223372036854775808ELx9223372036854775807ELin1ELb1EE6digitsE 0x000247c0   Section        4  abstractaudioeffect.o(.constdata__ZN9stlp_priv15_Integer_limitsIxLxn9223372036854775808ELx9223372036854775807ELin1ELb1EE6digitsE)
    .constdata__ZN9stlp_priv15_Integer_limitsIyLy0ELy18446744073709551615ELin1ELb1EE6digitsE 0x000247c4   Section        4  abstractaudioeffect.o(.constdata__ZN9stlp_priv15_Integer_limitsIyLy0ELy18446744073709551615ELin1ELb1EE6digitsE)
    .constdata__ZTI13CArrayFixFlatI9TDataTypeE 0x000247c8   Section       12  backend.o(.constdata__ZTI13CArrayFixFlatI9TDataTypeE)
    .constdata__ZTI19OutputStreamFactory     0x000247d4   Section       12  effectfactory.o(.constdata__ZTI19OutputStreamFactory)
    .constdata__ZTI21MAudioLoadingObserver   0x000247e0   Section        8  audioplayer.o(.constdata__ZTI21MAudioLoadingObserver)
    .constdata__ZTI21MVideoLoadingObserver   0x000247e8   Section        8  abstractvideoplayer.o(.constdata__ZTI21MVideoLoadingObserver)
    .constdata__ZTI22QGraphicsEffectPrivate  0x000247f0   Section       12  objectdump_symbian.o(.constdata__ZTI22QGraphicsEffectPrivate)
    .constdata__ZTI23MMdaAudioPlayerCallback 0x000247fc   Section        8  audioplayer.o(.constdata__ZTI23MMdaAudioPlayerCallback)
    .constdata__ZTI24MHttpDownloadMgrObserver 0x00024804   Section        8  download.o(.constdata__ZTI24MHttpDownloadMgrObserver)
    .constdata__ZTI26QGraphicsBlurEffectPrivate 0x0002480c   Section       12  objectdump_symbian.o(.constdata__ZTI26QGraphicsBlurEffectPrivate)
    .constdata__ZTI27MVideoPlayerUtilityObserver 0x00024818   Section        8  abstractvideoplayer.o(.constdata__ZTI27MVideoPlayerUtilityObserver)
    .constdata__ZTI29MMdaAudioOutputStreamCallback 0x00024820   Section        8  effectfactory.o(.constdata__ZTI29MMdaAudioOutputStreamCallback)
    .constdata__ZTI30QGraphicsColorizeEffectPrivate 0x00024828   Section       12  objectdump_symbian.o(.constdata__ZTI30QGraphicsColorizeEffectPrivate)
    .constdata__ZTI32QGraphicsDropShadowEffectPrivate 0x00024834   Section       12  objectdump_symbian.o(.constdata__ZTI32QGraphicsDropShadowEffectPrivate)
    .constdata__ZTI9CArrayFixI9TDataTypeE    0x00024840   Section       12  backend.o(.constdata__ZTI9CArrayFixI9TDataTypeE)
    .constdata__ZTIN10ObjectDump10QAnnotatorE 0x0002484c   Section       12  moc_objectdump.o(.constdata__ZTIN10ObjectDump10QAnnotatorE)
    .constdata__ZTIN10ObjectDump15QAnnotatorBasicE 0x00024858   Section       12  moc_objectdump.o(.constdata__ZTIN10ObjectDump15QAnnotatorBasicE)
    .constdata__ZTIN10ObjectDump16QAnnotatorWidgetE 0x00024864   Section       12  moc_objectdump.o(.constdata__ZTIN10ObjectDump16QAnnotatorWidgetE)
    .constdata__ZTIN10ObjectDump7QDumperE    0x00024870   Section       12  moc_objectdump.o(.constdata__ZTIN10ObjectDump7QDumperE)
    .constdata__ZTIN10ObjectDump7Symbian16QAnnotatorWidgetE 0x0002487c   Section       12  moc_objectdump_symbian.o(.constdata__ZTIN10ObjectDump7Symbian16QAnnotatorWidgetE)
    .constdata__ZTIN10ObjectDump7Symbian16QAnnotatorWindowE 0x00024888   Section       12  moc_objectdump_symbian.o(.constdata__ZTIN10ObjectDump7Symbian16QAnnotatorWindowE)
    .constdata__ZTIN10ObjectDump7Symbian17QAnnotatorControlE 0x00024894   Section       12  moc_objectdump_symbian.o(.constdata__ZTIN10ObjectDump7Symbian17QAnnotatorControlE)
    .constdata__ZTIN10ObjectDump8QVisitorE   0x000248a0   Section       12  moc_objectdump.o(.constdata__ZTIN10ObjectDump8QVisitorE)
    .constdata__ZTIN15QtSharedPointer20ExternalRefCountDataE 0x000248ac   Section        8  abstractaudioeffect.o(.constdata__ZTIN15QtSharedPointer20ExternalRefCountDataE)
    .constdata__ZTIN6Phonon15EffectInterfaceE 0x000248b4   Section        8  abstractaudioeffect.o(.constdata__ZTIN6Phonon15EffectInterfaceE)
    .constdata__ZTIN6Phonon16BackendInterfaceE 0x000248bc   Section        8  backend.o(.constdata__ZTIN6Phonon16BackendInterfaceE)
    .constdata__ZTIN6Phonon20MediaObjectInterfaceE 0x000248c4   Section        8  mediaobject.o(.constdata__ZTIN6Phonon20MediaObjectInterfaceE)
    .constdata__ZTIN6Phonon20VideoWidgetInterfaceE 0x000248cc   Section        8  videowidget.o(.constdata__ZTIN6Phonon20VideoWidgetInterfaceE)
    .constdata__ZTIN6Phonon22AudioOutputInterface40E 0x000248d4   Section        8  audiooutput.o(.constdata__ZTIN6Phonon22AudioOutputInterface40E)
    .constdata__ZTIN6Phonon3MMF11AudioOutputE 0x000248dc   Section       32  moc_audiooutput.o(.constdata__ZTIN6Phonon3MMF11AudioOutputE)
    .constdata__ZTIN6Phonon3MMF11AudioPlayerE 0x000248fc   Section       40  moc_audioplayer.o(.constdata__ZTIN6Phonon3MMF11AudioPlayerE)
    .constdata__ZTIN6Phonon3MMF11DummyPlayerE 0x00024924   Section       12  dummyplayer.o(.constdata__ZTIN6Phonon3MMF11DummyPlayerE)
    .constdata__ZTIN6Phonon3MMF11MediaObjectE 0x00024930   Section       32  moc_mediaobject.o(.constdata__ZTIN6Phonon3MMF11MediaObjectE)
    .constdata__ZTIN6Phonon3MMF11VideoWidgetE 0x00024950   Section       32  moc_videowidget.o(.constdata__ZTIN6Phonon3MMF11VideoWidgetE)
    .constdata__ZTIN6Phonon3MMF13EffectFactoryE 0x00024970   Section       12  moc_effectfactory.o(.constdata__ZTIN6Phonon3MMF13EffectFactoryE)
    .constdata__ZTIN6Phonon3MMF14AbstractPlayerE 0x0002497c   Section       12  moc_abstractplayer.o(.constdata__ZTIN6Phonon3MMF14AbstractPlayerE)
    .constdata__ZTIN6Phonon3MMF14AudioEqualizerE 0x00024988   Section       12  moc_audioequalizer.o(.constdata__ZTIN6Phonon3MMF14AudioEqualizerE)
    .constdata__ZTIN6Phonon3MMF14StereoWideningE 0x00024994   Section       12  moc_stereowidening.o(.constdata__ZTIN6Phonon3MMF14StereoWideningE)
    .constdata__ZTIN6Phonon3MMF15DownloadPrivateE 0x000249a0   Section       32  moc_download.o(.constdata__ZTIN6Phonon3MMF15DownloadPrivateE)
    .constdata__ZTIN6Phonon3MMF18SurfaceVideoOutputE 0x000249c0   Section       12  moc_videooutput_surface.o(.constdata__ZTIN6Phonon3MMF18SurfaceVideoOutputE)
    .constdata__ZTIN6Phonon3MMF18SurfaceVideoPlayerE 0x000249cc   Section       12  moc_videoplayer_surface.o(.constdata__ZTIN6Phonon3MMF18SurfaceVideoPlayerE)
    .constdata__ZTIN6Phonon3MMF19AbstractAudioEffectE 0x000249d8   Section       32  moc_abstractaudioeffect.o(.constdata__ZTIN6Phonon3MMF19AbstractAudioEffectE)
    .constdata__ZTIN6Phonon3MMF19AbstractMediaPlayerE 0x000249f8   Section       12  moc_abstractmediaplayer.o(.constdata__ZTIN6Phonon3MMF19AbstractMediaPlayerE)
    .constdata__ZTIN6Phonon3MMF19AbstractVideoOutputE 0x00024a04   Section       12  moc_abstractvideooutput.o(.constdata__ZTIN6Phonon3MMF19AbstractVideoOutputE)
    .constdata__ZTIN6Phonon3MMF19AbstractVideoPlayerE 0x00024a10   Section       40  moc_abstractvideoplayer.o(.constdata__ZTIN6Phonon3MMF19AbstractVideoPlayerE)
    .constdata__ZTIN6Phonon3MMF19EnvironmentalReverbE 0x00024a38   Section       12  moc_environmentalreverb.o(.constdata__ZTIN6Phonon3MMF19EnvironmentalReverbE)
    .constdata__ZTIN6Phonon3MMF7BackendE     0x00024a44   Section       32  moc_backend.o(.constdata__ZTIN6Phonon3MMF7BackendE)
    .constdata__ZTIN6Phonon3MMF8DownloadE    0x00024a64   Section       12  moc_download.o(.constdata__ZTIN6Phonon3MMF8DownloadE)
    .constdata__ZTIN6Phonon3MMF8LoudnessE    0x00024a70   Section       12  moc_loudness.o(.constdata__ZTIN6Phonon3MMF8LoudnessE)
    .constdata__ZTIN6Phonon3MMF9BassBoostE   0x00024a7c   Section       12  moc_bassboost.o(.constdata__ZTIN6Phonon3MMF9BassBoostE)
    .constdata__ZTIN6Phonon3MMF9MediaNodeE   0x00024a88   Section       12  moc_mmf_medianode.o(.constdata__ZTIN6Phonon3MMF9MediaNodeE)
    .constdata__ZTS13CArrayFixFlatI9TDataTypeE 0x00024a94   Section       28  backend.o(.constdata__ZTS13CArrayFixFlatI9TDataTypeE)
    .constdata__ZTS19OutputStreamFactory     0x00024ab0   Section       22  effectfactory.o(.constdata__ZTS19OutputStreamFactory)
    .constdata__ZTS21MAudioLoadingObserver   0x00024ac6   Section       24  audioplayer.o(.constdata__ZTS21MAudioLoadingObserver)
    .constdata__ZTS21MVideoLoadingObserver   0x00024ade   Section       24  abstractvideoplayer.o(.constdata__ZTS21MVideoLoadingObserver)
    .constdata__ZTS22QGraphicsEffectPrivate  0x00024af6   Section       25  objectdump_symbian.o(.constdata__ZTS22QGraphicsEffectPrivate)
    .constdata__ZTS23MMdaAudioPlayerCallback 0x00024b0f   Section       26  audioplayer.o(.constdata__ZTS23MMdaAudioPlayerCallback)
    .constdata__ZTS24MHttpDownloadMgrObserver 0x00024b29   Section       27  download.o(.constdata__ZTS24MHttpDownloadMgrObserver)
    .constdata__ZTS26QGraphicsBlurEffectPrivate 0x00024b44   Section       29  objectdump_symbian.o(.constdata__ZTS26QGraphicsBlurEffectPrivate)
    .constdata__ZTS27MVideoPlayerUtilityObserver 0x00024b61   Section       30  abstractvideoplayer.o(.constdata__ZTS27MVideoPlayerUtilityObserver)
    .constdata__ZTS29MMdaAudioOutputStreamCallback 0x00024b7f   Section       32  effectfactory.o(.constdata__ZTS29MMdaAudioOutputStreamCallback)
    .constdata__ZTS30QGraphicsColorizeEffectPrivate 0x00024b9f   Section       33  objectdump_symbian.o(.constdata__ZTS30QGraphicsColorizeEffectPrivate)
    .constdata__ZTS32QGraphicsDropShadowEffectPrivate 0x00024bc0   Section       35  objectdump_symbian.o(.constdata__ZTS32QGraphicsDropShadowEffectPrivate)
    .constdata__ZTS9CArrayFixI9TDataTypeE    0x00024be3   Section       23  backend.o(.constdata__ZTS9CArrayFixI9TDataTypeE)
    .constdata__ZTSN10ObjectDump10QAnnotatorE 0x00024bfa   Section       27  moc_objectdump.o(.constdata__ZTSN10ObjectDump10QAnnotatorE)
    .constdata__ZTSN10ObjectDump15QAnnotatorBasicE 0x00024c15   Section       32  moc_objectdump.o(.constdata__ZTSN10ObjectDump15QAnnotatorBasicE)
    .constdata__ZTSN10ObjectDump16QAnnotatorWidgetE 0x00024c35   Section       33  moc_objectdump.o(.constdata__ZTSN10ObjectDump16QAnnotatorWidgetE)
    .constdata__ZTSN10ObjectDump7QDumperE    0x00024c56   Section       23  moc_objectdump.o(.constdata__ZTSN10ObjectDump7QDumperE)
    .constdata__ZTSN10ObjectDump7Symbian16QAnnotatorWidgetE 0x00024c6d   Section       41  moc_objectdump_symbian.o(.constdata__ZTSN10ObjectDump7Symbian16QAnnotatorWidgetE)
    .constdata__ZTSN10ObjectDump7Symbian16QAnnotatorWindowE 0x00024c96   Section       41  moc_objectdump_symbian.o(.constdata__ZTSN10ObjectDump7Symbian16QAnnotatorWindowE)
    .constdata__ZTSN10ObjectDump7Symbian17QAnnotatorControlE 0x00024cbf   Section       42  moc_objectdump_symbian.o(.constdata__ZTSN10ObjectDump7Symbian17QAnnotatorControlE)
    .constdata__ZTSN10ObjectDump8QVisitorE   0x00024ce9   Section       24  moc_objectdump.o(.constdata__ZTSN10ObjectDump8QVisitorE)
    .constdata__ZTSN15QtSharedPointer20ExternalRefCountDataE 0x00024d01   Section       42  abstractaudioeffect.o(.constdata__ZTSN15QtSharedPointer20ExternalRefCountDataE)
    .constdata__ZTSN6Phonon15EffectInterfaceE 0x00024d2b   Section       27  abstractaudioeffect.o(.constdata__ZTSN6Phonon15EffectInterfaceE)
    .constdata__ZTSN6Phonon16BackendInterfaceE 0x00024d46   Section       28  backend.o(.constdata__ZTSN6Phonon16BackendInterfaceE)
    .constdata__ZTSN6Phonon20MediaObjectInterfaceE 0x00024d62   Section       32  mediaobject.o(.constdata__ZTSN6Phonon20MediaObjectInterfaceE)
    .constdata__ZTSN6Phonon20VideoWidgetInterfaceE 0x00024d82   Section       32  videowidget.o(.constdata__ZTSN6Phonon20VideoWidgetInterfaceE)
    .constdata__ZTSN6Phonon22AudioOutputInterface40E 0x00024da2   Section       34  audiooutput.o(.constdata__ZTSN6Phonon22AudioOutputInterface40E)
    .constdata__ZTSN6Phonon3MMF11AudioOutputE 0x00024dc4   Section       27  moc_audiooutput.o(.constdata__ZTSN6Phonon3MMF11AudioOutputE)
    .constdata__ZTSN6Phonon3MMF11AudioPlayerE 0x00024ddf   Section       27  moc_audioplayer.o(.constdata__ZTSN6Phonon3MMF11AudioPlayerE)
    .constdata__ZTSN6Phonon3MMF11DummyPlayerE 0x00024dfa   Section       27  dummyplayer.o(.constdata__ZTSN6Phonon3MMF11DummyPlayerE)
    .constdata__ZTSN6Phonon3MMF11MediaObjectE 0x00024e15   Section       27  moc_mediaobject.o(.constdata__ZTSN6Phonon3MMF11MediaObjectE)
    .constdata__ZTSN6Phonon3MMF11VideoWidgetE 0x00024e30   Section       27  moc_videowidget.o(.constdata__ZTSN6Phonon3MMF11VideoWidgetE)
    .constdata__ZTSN6Phonon3MMF13EffectFactoryE 0x00024e4b   Section       29  moc_effectfactory.o(.constdata__ZTSN6Phonon3MMF13EffectFactoryE)
    .constdata__ZTSN6Phonon3MMF14AbstractPlayerE 0x00024e68   Section       30  moc_abstractplayer.o(.constdata__ZTSN6Phonon3MMF14AbstractPlayerE)
    .constdata__ZTSN6Phonon3MMF14AudioEqualizerE 0x00024e86   Section       30  moc_audioequalizer.o(.constdata__ZTSN6Phonon3MMF14AudioEqualizerE)
    .constdata__ZTSN6Phonon3MMF14StereoWideningE 0x00024ea4   Section       30  moc_stereowidening.o(.constdata__ZTSN6Phonon3MMF14StereoWideningE)
    .constdata__ZTSN6Phonon3MMF15DownloadPrivateE 0x00024ec2   Section       31  moc_download.o(.constdata__ZTSN6Phonon3MMF15DownloadPrivateE)
    .constdata__ZTSN6Phonon3MMF18SurfaceVideoOutputE 0x00024ee1   Section       34  moc_videooutput_surface.o(.constdata__ZTSN6Phonon3MMF18SurfaceVideoOutputE)
    .constdata__ZTSN6Phonon3MMF18SurfaceVideoPlayerE 0x00024f03   Section       34  moc_videoplayer_surface.o(.constdata__ZTSN6Phonon3MMF18SurfaceVideoPlayerE)
    .constdata__ZTSN6Phonon3MMF19AbstractAudioEffectE 0x00024f25   Section       35  moc_abstractaudioeffect.o(.constdata__ZTSN6Phonon3MMF19AbstractAudioEffectE)
    .constdata__ZTSN6Phonon3MMF19AbstractMediaPlayerE 0x00024f48   Section       35  moc_abstractmediaplayer.o(.constdata__ZTSN6Phonon3MMF19AbstractMediaPlayerE)
    .constdata__ZTSN6Phonon3MMF19AbstractVideoOutputE 0x00024f6b   Section       35  moc_abstractvideooutput.o(.constdata__ZTSN6Phonon3MMF19AbstractVideoOutputE)
    .constdata__ZTSN6Phonon3MMF19AbstractVideoPlayerE 0x00024f8e   Section       35  moc_abstractvideoplayer.o(.constdata__ZTSN6Phonon3MMF19AbstractVideoPlayerE)
    .constdata__ZTSN6Phonon3MMF19EnvironmentalReverbE 0x00024fb1   Section       35  moc_environmentalreverb.o(.constdata__ZTSN6Phonon3MMF19EnvironmentalReverbE)
    .constdata__ZTSN6Phonon3MMF7BackendE     0x00024fd4   Section       22  moc_backend.o(.constdata__ZTSN6Phonon3MMF7BackendE)
    .constdata__ZTSN6Phonon3MMF8DownloadE    0x00024fea   Section       23  moc_download.o(.constdata__ZTSN6Phonon3MMF8DownloadE)
    .constdata__ZTSN6Phonon3MMF8LoudnessE    0x00025001   Section       23  moc_loudness.o(.constdata__ZTSN6Phonon3MMF8LoudnessE)
    .constdata__ZTSN6Phonon3MMF9BassBoostE   0x00025018   Section       24  moc_bassboost.o(.constdata__ZTSN6Phonon3MMF9BassBoostE)
    .constdata__ZTSN6Phonon3MMF9MediaNodeE   0x00025030   Section       24  moc_mmf_medianode.o(.constdata__ZTSN6Phonon3MMF9MediaNodeE)
    .constdata__ZTV13CArrayFixFlatI9TDataTypeE 0x00025048   Section       20  backend.o(.constdata__ZTV13CArrayFixFlatI9TDataTypeE)
    .constdata__ZTV19OutputStreamFactory     0x0002505c   Section       20  effectfactory.o(.constdata__ZTV19OutputStreamFactory)
    .constdata__ZTV21MAudioLoadingObserver   0x00025070   Section       16  audioplayer.o(.constdata__ZTV21MAudioLoadingObserver)
    .constdata__ZTV21MVideoLoadingObserver   0x00025080   Section       16  abstractvideoplayer.o(.constdata__ZTV21MVideoLoadingObserver)
    .constdata__ZTV23MMdaAudioPlayerCallback 0x00025090   Section       16  audioplayer.o(.constdata__ZTV23MMdaAudioPlayerCallback)
    .constdata__ZTV24MHttpDownloadMgrObserver 0x000250a0   Section       12  download.o(.constdata__ZTV24MHttpDownloadMgrObserver)
    .constdata__ZTV26QGraphicsBlurEffectPrivate 0x000250ac   Section       16  objectdump_symbian.o(.constdata__ZTV26QGraphicsBlurEffectPrivate)
    .constdata__ZTV27MVideoPlayerUtilityObserver 0x000250bc   Section       28  abstractvideoplayer.o(.constdata__ZTV27MVideoPlayerUtilityObserver)
    .constdata__ZTV29MMdaAudioOutputStreamCallback 0x000250d8   Section       20  effectfactory.o(.constdata__ZTV29MMdaAudioOutputStreamCallback)
    .constdata__ZTV30QGraphicsColorizeEffectPrivate 0x000250ec   Section       16  objectdump_symbian.o(.constdata__ZTV30QGraphicsColorizeEffectPrivate)
    .constdata__ZTV32QGraphicsDropShadowEffectPrivate 0x000250fc   Section       16  objectdump_symbian.o(.constdata__ZTV32QGraphicsDropShadowEffectPrivate)
    .constdata__ZTV9CArrayFixI9TDataTypeE    0x0002510c   Section       20  backend.o(.constdata__ZTV9CArrayFixI9TDataTypeE)
    .constdata__ZTVN10ObjectDump10QAnnotatorE 0x00025120   Section       60  moc_objectdump.o(.constdata__ZTVN10ObjectDump10QAnnotatorE)
    .constdata__ZTVN10ObjectDump15QAnnotatorBasicE 0x0002515c   Section       60  moc_objectdump.o(.constdata__ZTVN10ObjectDump15QAnnotatorBasicE)
    .constdata__ZTVN10ObjectDump16QAnnotatorWidgetE 0x00025198   Section       60  moc_objectdump.o(.constdata__ZTVN10ObjectDump16QAnnotatorWidgetE)
    .constdata__ZTVN10ObjectDump7QDumperE    0x000251d4   Section       56  moc_objectdump.o(.constdata__ZTVN10ObjectDump7QDumperE)
    .constdata__ZTVN10ObjectDump7Symbian16QAnnotatorWidgetE 0x0002520c   Section       60  moc_objectdump_symbian.o(.constdata__ZTVN10ObjectDump7Symbian16QAnnotatorWidgetE)
    .constdata__ZTVN10ObjectDump7Symbian16QAnnotatorWindowE 0x00025248   Section       60  moc_objectdump_symbian.o(.constdata__ZTVN10ObjectDump7Symbian16QAnnotatorWindowE)
    .constdata__ZTVN10ObjectDump7Symbian17QAnnotatorControlE 0x00025284   Section       60  moc_objectdump_symbian.o(.constdata__ZTVN10ObjectDump7Symbian17QAnnotatorControlE)
    .constdata__ZTVN10ObjectDump8QVisitorE   0x000252c0   Section       56  moc_objectdump.o(.constdata__ZTVN10ObjectDump8QVisitorE)
    .constdata__ZTVN15QtSharedPointer20ExternalRefCountDataE 0x000252f8   Section       20  abstractaudioeffect.o(.constdata__ZTVN15QtSharedPointer20ExternalRefCountDataE)
    .constdata__ZTVN6Phonon15EffectInterfaceE 0x0002530c   Section       28  abstractaudioeffect.o(.constdata__ZTVN6Phonon15EffectInterfaceE)
    .constdata__ZTVN6Phonon16BackendInterfaceE 0x00025328   Section       48  backend.o(.constdata__ZTVN6Phonon16BackendInterfaceE)
    .constdata__ZTVN6Phonon20MediaObjectInterfaceE 0x00025358   Section      100  mediaobject.o(.constdata__ZTVN6Phonon20MediaObjectInterfaceE)
    .constdata__ZTVN6Phonon20VideoWidgetInterfaceE 0x000253bc   Section       68  videowidget.o(.constdata__ZTVN6Phonon20VideoWidgetInterfaceE)
    .constdata__ZTVN6Phonon22AudioOutputInterface40E 0x00025400   Section       32  audiooutput.o(.constdata__ZTVN6Phonon22AudioOutputInterface40E)
    .constdata__ZTVN6Phonon3MMF11AudioOutputE 0x00025420   Section      112  moc_audiooutput.o(.constdata__ZTVN6Phonon3MMF11AudioOutputE)
    .constdata__ZTVN6Phonon3MMF11AudioPlayerE 0x00025490   Section      228  moc_audioplayer.o(.constdata__ZTVN6Phonon3MMF11AudioPlayerE)
    .constdata__ZTVN6Phonon3MMF11DummyPlayerE 0x00025574   Section      128  dummyplayer.o(.constdata__ZTVN6Phonon3MMF11DummyPlayerE)
    .constdata__ZTVN6Phonon3MMF11MediaObjectE 0x000255f4   Section      244  moc_mediaobject.o(.constdata__ZTVN6Phonon3MMF11MediaObjectE)
    .constdata__ZTVN6Phonon3MMF11VideoWidgetE 0x000256e8   Section      184  moc_videowidget.o(.constdata__ZTVN6Phonon3MMF11VideoWidgetE)
    .constdata__ZTVN6Phonon3MMF13EffectFactoryE 0x000257a0   Section       56  moc_effectfactory.o(.constdata__ZTVN6Phonon3MMF13EffectFactoryE)
    .constdata__ZTVN6Phonon3MMF14AbstractPlayerE 0x000257d8   Section      124  moc_abstractplayer.o(.constdata__ZTVN6Phonon3MMF14AbstractPlayerE)
    .constdata__ZTVN6Phonon3MMF14AudioEqualizerE 0x00025854   Section      112  moc_audioequalizer.o(.constdata__ZTVN6Phonon3MMF14AudioEqualizerE)
    .constdata__ZTVN6Phonon3MMF14StereoWideningE 0x000258c4   Section      116  moc_stereowidening.o(.constdata__ZTVN6Phonon3MMF14StereoWideningE)
    .constdata__ZTVN6Phonon3MMF15DownloadPrivateE 0x00025938   Section       72  moc_download.o(.constdata__ZTVN6Phonon3MMF15DownloadPrivateE)
    .constdata__ZTVN6Phonon3MMF18SurfaceVideoOutputE 0x00025980   Section      248  moc_videooutput_surface.o(.constdata__ZTVN6Phonon3MMF18SurfaceVideoOutputE)
    .constdata__ZTVN6Phonon3MMF18SurfaceVideoPlayerE 0x00025a78   Section      272  moc_videoplayer_surface.o(.constdata__ZTVN6Phonon3MMF18SurfaceVideoPlayerE)
    .constdata__ZTVN6Phonon3MMF19AbstractAudioEffectE 0x00025b88   Section      112  moc_abstractaudioeffect.o(.constdata__ZTVN6Phonon3MMF19AbstractAudioEffectE)
    .constdata__ZTVN6Phonon3MMF19AbstractMediaPlayerE 0x00025bf8   Section      180  moc_abstractmediaplayer.o(.constdata__ZTVN6Phonon3MMF19AbstractMediaPlayerE)
    .constdata__ZTVN6Phonon3MMF19AbstractVideoOutputE 0x00025cac   Section      248  moc_abstractvideooutput.o(.constdata__ZTVN6Phonon3MMF19AbstractVideoOutputE)
    .constdata__ZTVN6Phonon3MMF19AbstractVideoPlayerE 0x00025da4   Section      272  moc_abstractvideoplayer.o(.constdata__ZTVN6Phonon3MMF19AbstractVideoPlayerE)
    .constdata__ZTVN6Phonon3MMF19EnvironmentalReverbE 0x00025eb4   Section      112  moc_environmentalreverb.o(.constdata__ZTVN6Phonon3MMF19EnvironmentalReverbE)
    .constdata__ZTVN6Phonon3MMF7BackendE     0x00025f24   Section      136  moc_backend.o(.constdata__ZTVN6Phonon3MMF7BackendE)
    .constdata__ZTVN6Phonon3MMF8DownloadE    0x00025fac   Section       56  moc_download.o(.constdata__ZTVN6Phonon3MMF8DownloadE)
    .constdata__ZTVN6Phonon3MMF8LoudnessE    0x00025fe4   Section      112  moc_loudness.o(.constdata__ZTVN6Phonon3MMF8LoudnessE)
    .constdata__ZTVN6Phonon3MMF9BassBoostE   0x00026054   Section      112  moc_bassboost.o(.constdata__ZTVN6Phonon3MMF9BassBoostE)
    .constdata__ZTVN6Phonon3MMF9MediaNodeE   0x000260c4   Section       64  moc_mmf_medianode.o(.constdata__ZTVN6Phonon3MMF9MediaNodeE)
    .ARM.exidx                               0x00026104   Section        8  ucppinit.o(.ARM.exidx)
    .data$0                                  0x00400000   Data           0  backend.o(.data)
    _ZGV_instance@qt_plugin_instance_0       0x00400000   Data           4  backend.o(.data)
    .data                                    0x00400000   Section        8  backend.o(.data)
    _instance@qt_plugin_instance_1           0x00400004   Data           4  backend.o(.data)
    .data$0                                  0x00400008   Data           0  ucppfini.o(.data)
    .data                                    0x00400008   Section        4  ucppfini.o(.data)
    .data__ZNSt19_Atomic_swap_structILi1EE12_S_swap_lockE 0x0040000c   Section       12  abstractaudioeffect.o(.data__ZNSt19_Atomic_swap_structILi1EE12_S_swap_lockE)
    .data__ZZN11QMetaTypeIdIN6Phonon3MMF8Download5StateEE14qt_metatype_idEvE11metatype_id 0x00400018   Section        4  download.o(.data__ZZN11QMetaTypeIdIN6Phonon3MMF8Download5StateEE14qt_metatype_idEvE11metatype_id)
    .bss$5                                   0x0040001c   Data           0  ucppfini.o(.bss)
    .bss                                     0x0040001c   Section     2048  ucppfini.o(.bss)

    Global Symbols

    Symbol Name                              Value     Ov Type        Size  Object(Section)

    AudioEqualizerEffect{000a0000}[101fafdb].dll 0x00000000   Data           0  anon$$obj.o ABSOLUTE
    BassBoostEffect{000a0000}[10207a94].dll  0x00000000   Data           0  anon$$obj.o ABSOLUTE
    BuildAttributes$$THUMB_ISAv2$ARM_ISAv5$M$VFPv2$PE$A:L22$X:L11$S22$IEEE1$IW$USESV6$~STKCKD$USESV7$~SHL$OSPACE$ROPI$IEEEJ$EBA8$UX$FPIC$INDIRECT$REQ8$PRES8$EABIv2 0x00000000   Number         0  anon$$obj.o ABSOLUTE
    DownloadMgr{000a0000}[10008d5f].dll      0x00000000   Data           0  anon$$obj.o ABSOLUTE
    EnvironmentalReverbEffect{000a0000}[10207a80].dll 0x00000000   Data           0  anon$$obj.o ABSOLUTE
    LoudnessEffect{000a0000}[10207ae9].dll   0x00000000   Data           0  anon$$obj.o ABSOLUTE
    QtCore{00040703}[2001b2dc].dll           0x00000000   Data           0  anon$$obj.o ABSOLUTE
    QtGui{00040703}[2001b2dd].dll            0x00000000   Data           0  anon$$obj.o ABSOLUTE
    StereoWideningEffect{000a0000}[10207a85].dll 0x00000000   Data           0  anon$$obj.o ABSOLUTE
    apgrfx{000a0000}[10003a3c].dll           0x00000000   Data           0  anon$$obj.o ABSOLUTE
    apmime{000a0000}[10003a1a].dll           0x00000000   Data           0  anon$$obj.o ABSOLUTE
    commdb{000a0000}[10004e1c].dll           0x00000000   Data           0  anon$$obj.o ABSOLUTE
    cone{000a0000}[10003a41].dll             0x00000000   Data           0  anon$$obj.o ABSOLUTE
    dfpaeabi{000a0000}.dll                   0x00000000   Data           0  anon$$obj.o ABSOLUTE
    drtaeabi{000a0000}.dll                   0x00000000   Data           0  anon$$obj.o ABSOLUTE
    drtrvct2_2{000a0000}.dll                 0x00000000   Data           0  anon$$obj.o ABSOLUTE
    efsrv{000a0000}[100039e4].dll            0x00000000   Data           0  anon$$obj.o ABSOLUTE
    euser{000a0000}[100039e5].dll            0x00000000   Data           0  anon$$obj.o ABSOLUTE
    hal{000a0000}[100039e8].dll              0x00000000   Data           0  anon$$obj.o ABSOLUTE
    libc{00010001}[10207369].dll             0x00000000   Data           0  anon$$obj.o ABSOLUTE
    mediaclientaudiostream{000a0000}[10003996].dll 0x00000000   Data           0  anon$$obj.o ABSOLUTE
    mediaclientaudio{000a0000}[10003992].dll 0x00000000   Data           0  anon$$obj.o ABSOLUTE
    mediaclientvideo{000a0000}[101f4569].dll 0x00000000   Data           0  anon$$obj.o ABSOLUTE
    mmfcontrollerframework{000a0000}[101f76dd].dll 0x00000000   Data           0  anon$$obj.o ABSOLUTE
    phonon_mmf{00040703}[2001e629].dll       0x00000000   Data           0  anon$$obj.o ABSOLUTE
    phonon{00040400}[2001e624].dll           0x00000000   Data           0  anon$$obj.o ABSOLUTE
    stdnew{000a0000}[20022178].dll           0x00000000   Data           0  anon$$obj.o ABSOLUTE
    ws32{000a0000}[10003b21].dll             0x00000000   Data           0  anon$$obj.o ABSOLUTE
    SHT$$INIT_ARRAY$$Base                     - Undefined Weak Reference
    SHT$$INIT_ARRAY$$Limit                    - Undefined Weak Reference
    qt_assert_x(const char*, const char*, const char*, int)  - Undefined Reference
    _Z11qt_assert_xPKcS0_S0_i@QtCore{00040703}[2001b2dc].dll  - Undefined Reference
    qFlagLocation(const char*)                - Undefined Reference
    _Z13qFlagLocationPKc@QtCore{00040703}[2001b2dc].dll  - Undefined Reference
    qt_TDesC2QString(const TDesC16&)          - Undefined Reference
    _Z16qt_TDesC2QStringRK7TDesC16@QtCore{00040703}[2001b2dc].dll  - Undefined Reference
    qt_message_output(QtMsgType, const char*)  - Undefined Reference
    _Z17qt_message_output9QtMsgTypePKc@QtCore{00040703}[2001b2dc].dll  - Undefined Reference
    qt_widget_private(QWidget*)               - Undefined Reference
    _Z17qt_widget_privateP7QWidget@QtGui{00040703}[2001b2dd].dll  - Undefined Reference
    qt_symbian_throwIfError(int)              - Undefined Reference
    _Z23qt_symbian_throwIfErrori@QtCore{00040703}[2001b2dc].dll  - Undefined Reference
    qFree(void*)                              - Undefined Reference
    _Z5qFreePv@QtCore{00040703}[2001b2dc].dll  - Undefined Reference
    qHash(const QByteArray&)                  - Undefined Reference
    _Z5qHashRK10QByteArray@QtCore{00040703}[2001b2dc].dll  - Undefined Reference
    qMemSet(void*, int, unsigned)             - Undefined Reference
    _Z7qMemSetPvij@QtCore{00040703}[2001b2dc].dll  - Undefined Reference
    qstrcmp(const QByteArray&, const char*)   - Undefined Reference
    _Z7qstrcmpRK10QByteArrayPKc@QtCore{00040703}[2001b2dc].dll  - Undefined Reference
    qBadAlloc()                               - Undefined Reference
    _Z9qBadAllocv@QtCore{00040703}[2001b2dc].dll  - Undefined Reference
    qt_assert(const char*, const char*, int)  - Undefined Reference
    _Z9qt_assertPKcS0_i@QtCore{00040703}[2001b2dc].dll  - Undefined Reference
    CBassBoost::NewL(CMdaAudioOutputStream&, int)  - Undefined Reference
    _ZN10CBassBoost4NewLER21CMdaAudioOutputStreami@BassBoostEffect{000a0000}[10207a94].dll  - Undefined Reference
    CBassBoost::NewL(CMdaAudioPlayerUtility&, int)  - Undefined Reference
    _ZN10CBassBoost4NewLER22CMdaAudioPlayerUtilityi@BassBoostEffect{000a0000}[10207a94].dll  - Undefined Reference
    QByteArray::shared_null                   - Undefined Reference
    _ZN10QByteArray11shared_nullE@QtCore{00040703}[2001b2dc].dll  - Undefined Reference
    QByteArray::append(const QByteArray&)     - Undefined Reference
    _ZN10QByteArray6appendERKS_@QtCore{00040703}[2001b2dc].dll  - Undefined Reference
    QByteArray::prepend(const QByteArray&)    - Undefined Reference
    _ZN10QByteArray7prependERKS_@QtCore{00040703}[2001b2dc].dll  - Undefined Reference
    QByteArray::realloc(int)                  - Undefined Reference
    _ZN10QByteArray7reallocEi@QtCore{00040703}[2001b2dc].dll  - Undefined Reference
    QByteArray::QByteArray(const char*)       - Undefined Reference
    _ZN10QByteArrayC1EPKc@QtCore{00040703}[2001b2dc].dll  - Undefined Reference
    QByteArray::QByteArray(int, char)         - Undefined Reference
    _ZN10QByteArrayC1Eic@QtCore{00040703}[2001b2dc].dll  - Undefined Reference
    QByteArray::operator =(const QByteArray&)  - Undefined Reference
    _ZN10QByteArrayaSERKS_@QtCore{00040703}[2001b2dc].dll  - Undefined Reference
    TBufBase16::TBufBase16(const TDesC16&, int)  - Undefined Reference
    _ZN10TBufBase16C1ERK7TDesC16i@euser{000a0000}[100039e5].dll  - Undefined Reference
    TBufBase16::TBufBase16(int)               - Undefined Reference
    _ZN10TBufBase16C1Ei@euser{000a0000}[100039e5].dll  - Undefined Reference
    QMetaObject::changeGuard(QObject**, QObject*)  - Undefined Reference
    _ZN11QMetaObject11changeGuardEPP7QObjectS1_@QtCore{00040703}[2001b2dc].dll  - Undefined Reference
    QMetaObject::removeGuard(QObject**)       - Undefined Reference
    _ZN11QMetaObject11removeGuardEPP7QObject@QtCore{00040703}[2001b2dc].dll  - Undefined Reference
    QMetaObject::invokeMethod(QObject*, const char*, Qt::ConnectionType, QGenericReturnArgument, QGenericArgument, QGenericArgument, QGenericArgument, QGenericArgument, QGenericArgument, QGenericArgument, QGenericArgument, QGenericArgument, QGenericArgument, QGenericArgument)  - Undefined Reference
    _ZN11QMetaObject12invokeMethodEP7QObjectPKcN2Qt14ConnectionTypeE22QGenericReturnArgument16QGenericArgumentS7_S7_S7_S7_S7_S7_S7_S7_S7_@QtCore{00040703}[2001b2dc].dll  - Undefined Reference
    QMetaObject::activate(QObject*, const QMetaObject*, int, void**)  - Undefined Reference
    _ZN11QMetaObject8activateEP7QObjectPKS_iPPv@QtCore{00040703}[2001b2dc].dll  - Undefined Reference
    QTextStream::flush()                      - Undefined Reference
    _ZN11QTextStream5flushEv@QtCore{00040703}[2001b2dc].dll  - Undefined Reference
    QTextStream::QTextStream(QByteArray*, QFlags<QIODevice::OpenModeFlag>)  - Undefined Reference
    _ZN11QTextStreamC1EP10QByteArray6QFlagsIN9QIODevice12OpenModeFlagEE@QtCore{00040703}[2001b2dc].dll  - Undefined Reference
    QTextStream::QTextStream(QString*, QFlags<QIODevice::OpenModeFlag>)  - Undefined Reference
    _ZN11QTextStreamC1EP7QString6QFlagsIN9QIODevice12OpenModeFlagEE@QtCore{00040703}[2001b2dc].dll  - Undefined Reference
    QTextStream::~QTextStream()               - Undefined Reference
    _ZN11QTextStreamD1Ev@QtCore{00040703}[2001b2dc].dll  - Undefined Reference
    QTextStream::operator <<(const char*)     - Undefined Reference
    _ZN11QTextStreamlsEPKc@QtCore{00040703}[2001b2dc].dll  - Undefined Reference
    QTextStream::operator <<(const void*)     - Undefined Reference
    _ZN11QTextStreamlsEPKv@QtCore{00040703}[2001b2dc].dll  - Undefined Reference
    QTextStream::operator <<(const QByteArray&)  - Undefined Reference
    _ZN11QTextStreamlsERK10QByteArray@QtCore{00040703}[2001b2dc].dll  - Undefined Reference
    QTextStream::operator <<(const QString&)  - Undefined Reference
    _ZN11QTextStreamlsERK7QString@QtCore{00040703}[2001b2dc].dll  - Undefined Reference
    QTextStream::operator <<(char)            - Undefined Reference
    _ZN11QTextStreamlsEc@QtCore{00040703}[2001b2dc].dll  - Undefined Reference
    QTextStream::operator <<(int)             - Undefined Reference
    _ZN11QTextStreamlsEi@QtCore{00040703}[2001b2dc].dll  - Undefined Reference
    QTextStream::operator <<(unsigned)        - Undefined Reference
    _ZN11QTextStreamlsEj@QtCore{00040703}[2001b2dc].dll  - Undefined Reference
    QVectorData::reallocate(QVectorData*, int, int, int)  - Undefined Reference
    _ZN11QVectorData10reallocateEPS_iii@QtCore{00040703}[2001b2dc].dll  - Undefined Reference
    QVectorData::shared_null                  - Undefined Reference
    _ZN11QVectorData11shared_nullE@QtCore{00040703}[2001b2dc].dll  - Undefined Reference
    QVectorData::free(QVectorData*, int)      - Undefined Reference
    _ZN11QVectorData4freeEPS_i@QtCore{00040703}[2001b2dc].dll  - Undefined Reference
    QVectorData::grow(int, int, int, bool)    - Undefined Reference
    _ZN11QVectorData4growEiiib@QtCore{00040703}[2001b2dc].dll  - Undefined Reference
    QVectorData::allocate(int, int)           - Undefined Reference
    _ZN11QVectorData8allocateEii@QtCore{00040703}[2001b2dc].dll  - Undefined Reference
    CleanupStack::PopAndDestroy(int)          - Undefined Reference
    _ZN12CleanupStack13PopAndDestroyEi@euser{000a0000}[100039e5].dll  - Undefined Reference
    CleanupStack::PushL(TCleanupItem)         - Undefined Reference
    _ZN12CleanupStack5PushLE12TCleanupItem@euser{000a0000}[100039e5].dll  - Undefined Reference
    CleanupStack::PushL(CBase*)               - Undefined Reference
    _ZN12CleanupStack5PushLEP5CBase@euser{000a0000}[100039e5].dll  - Undefined Reference
    RSessionBase::DoShare(int)                - Undefined Reference
    _ZN12RSessionBase7DoShareEi@euser{000a0000}[100039e5].dll  - Undefined Reference
    CArrayFixBase::CArrayFixBase(CBufBase*(*)(int), int, int)  - Undefined Reference
    _ZN13CArrayFixBaseC1EPFP8CBufBaseiEii@euser{000a0000}[100039e5].dll  - Undefined Reference
    CArrayFixBase::~CArrayFixBase()           - Undefined Reference
    _ZN13CArrayFixBaseD1Ev@euser{000a0000}[100039e5].dll  - Undefined Reference
    RApaLsSession::Close()                    - Undefined Reference
    _ZN13RApaLsSession5CloseEv@apgrfx{000a0000}[10003a3c].dll  - Undefined Reference
    RApaLsSession::Connect()                  - Undefined Reference
    _ZN13RApaLsSession7ConnectEv@apgrfx{000a0000}[10003a3c].dll  - Undefined Reference
    RApaLsSession::RApaLsSession()            - Undefined Reference
    _ZN13RApaLsSessionC1Ev@apgrfx{000a0000}[10003a3c].dll  - Undefined Reference
    RHttpDownload::GetIntAttribute(unsigned, long&)  - Undefined Reference
    _ZN13RHttpDownload15GetIntAttributeEjRl@DownloadMgr{000a0000}[10008d5f].dll  - Undefined Reference
    RHttpDownload::GetStringAttribute(unsigned, TDes16&)  - Undefined Reference
    _ZN13RHttpDownload18GetStringAttributeEjR6TDes16@DownloadMgr{000a0000}[10008d5f].dll  - Undefined Reference
    RHttpDownload::Start()                    - Undefined Reference
    _ZN13RHttpDownload5StartEv@DownloadMgr{000a0000}[10008d5f].dll  - Undefined Reference
    RHttpDownload::Delete()                   - Undefined Reference
    _ZN13RHttpDownload6DeleteEv@DownloadMgr{000a0000}[10008d5f].dll  - Undefined Reference
    CCommsDatabase::NewL(TCommDbDatabaseType)  - Undefined Reference
    _ZN14CCommsDatabase4NewLE19TCommDbDatabaseType@commdb{000a0000}[10004e1c].dll  - Undefined Reference
    QObjectPrivate::~QObjectPrivate()         - Undefined Reference
    _ZN14QObjectPrivateD1Ev@QtCore{00040703}[2001b2dc].dll  - Undefined Reference
    QWidgetPrivate::createExtra()             - Undefined Reference
    _ZN14QWidgetPrivate11createExtraEv@QtGui{00040703}[2001b2dd].dll  - Undefined Reference
    CAudioEqualizer::DbLevelLimits(long&, long&)  - Undefined Reference
    _ZN15CAudioEqualizer13DbLevelLimitsERlS0_@AudioEqualizerEffect{000a0000}[101fafdb].dll  - Undefined Reference
    CAudioEqualizer::SetBandLevelL(signed char, long)  - Undefined Reference
    _ZN15CAudioEqualizer13SetBandLevelLEal@AudioEqualizerEffect{000a0000}[101fafdb].dll  - Undefined Reference
    CAudioEqualizer::NewL(CMdaAudioOutputStream&)  - Undefined Reference
    _ZN15CAudioEqualizer4NewLER21CMdaAudioOutputStream@AudioEqualizerEffect{000a0000}[101fafdb].dll  - Undefined Reference
    CAudioEqualizer::NewL(CMdaAudioPlayerUtility&)  - Undefined Reference
    _ZN15CAudioEqualizer4NewLER22CMdaAudioPlayerUtility@AudioEqualizerEffect{000a0000}[101fafdb].dll  - Undefined Reference
    CStereoWidening::SetStereoWideningLevelL(unsigned char)  - Undefined Reference
    _ZN15CStereoWidening23SetStereoWideningLevelLEh@StereoWideningEffect{000a0000}[10207a85].dll  - Undefined Reference
    CStereoWidening::NewL(CMdaAudioOutputStream&, int, signed char)  - Undefined Reference
    _ZN15CStereoWidening4NewLER21CMdaAudioOutputStreamia@StereoWideningEffect{000a0000}[10207a85].dll  - Undefined Reference
    CStereoWidening::NewL(CMdaAudioPlayerUtility&, int, signed char)  - Undefined Reference
    _ZN15CStereoWidening4NewLER22CMdaAudioPlayerUtilityia@StereoWideningEffect{000a0000}[10207a85].dll  - Undefined Reference
    QCoreApplication::translate(const char*, const char*, const char*, QCoreApplication::Encoding)  - Undefined Reference
    _ZN16QCoreApplication9translateEPKcS1_S1_NS_8EncodingE@QtCore{00040703}[2001b2dc].dll  - Undefined Reference
    RHttpDownloadMgr::Disconnect()            - Undefined Reference
    _ZN16RHttpDownloadMgr10DisconnectEv@DownloadMgr{000a0000}[10008d5f].dll  - Undefined Reference
    RHttpDownloadMgr::CreateDownloadL(const TDesC8&)  - Undefined Reference
    _ZN16RHttpDownloadMgr15CreateDownloadLERK6TDesC8@DownloadMgr{000a0000}[10008d5f].dll  - Undefined Reference
    RHttpDownloadMgr::SetIntAttribute(unsigned, long)  - Undefined Reference
    _ZN16RHttpDownloadMgr15SetIntAttributeEjl@DownloadMgr{000a0000}[10008d5f].dll  - Undefined Reference
    RHttpDownloadMgr::Close()                 - Undefined Reference
    _ZN16RHttpDownloadMgr5CloseEv@DownloadMgr{000a0000}[10008d5f].dll  - Undefined Reference
    RHttpDownloadMgr::ConnectL(TUid, MHttpDownloadMgrObserver&, int)  - Undefined Reference
    _ZN16RHttpDownloadMgr8ConnectLE4TUidR24MHttpDownloadMgrObserveri@DownloadMgr{000a0000}[10008d5f].dll  - Undefined Reference
    RHttpDownloadMgr::RHttpDownloadMgr()      - Undefined Reference
    _ZN16RHttpDownloadMgrC1Ev@DownloadMgr{000a0000}[10008d5f].dll  - Undefined Reference
    CCommsDbTableView::GotoNextRecord()       - Undefined Reference
    _ZN17CCommsDbTableView14GotoNextRecordEv@commdb{000a0000}[10004e1c].dll  - Undefined Reference
    CCommsDbTableView::GotoFirstRecord()      - Undefined Reference
    _ZN17CCommsDbTableView15GotoFirstRecordEv@commdb{000a0000}[10004e1c].dll  - Undefined Reference
    CCommsDbTableView::ReadTextL(const TDesC16&, TDes16&)  - Undefined Reference
    _ZN17CCommsDbTableView9ReadTextLERK7TDesC16R6TDes16@commdb{000a0000}[10004e1c].dll  - Undefined Reference
    CCommsDbTableView::ReadUintL(const TDesC16&, unsigned long&)  - Undefined Reference
    _ZN17CCommsDbTableView9ReadUintLERK7TDesC16Rm@commdb{000a0000}[10004e1c].dll  - Undefined Reference
    CCommsDatabaseBase::OpenTableLC(const TDesC16&)  - Undefined Reference
    _ZN18CCommsDatabaseBase11OpenTableLCERK7TDesC16@commdb{000a0000}[10004e1c].dll  - Undefined Reference
    CCommsDatabaseBase::ShowHiddenRecords()   - Undefined Reference
    _ZN18CCommsDatabaseBase17ShowHiddenRecordsEv@commdb{000a0000}[10004e1c].dll  - Undefined Reference
    CVideoPlayerUtility::SetVolumeL(int)      - Undefined Reference
    _ZN19CVideoPlayerUtility10SetVolumeLEi@mediaclientvideo{000a0000}[101f4569].dll  - Undefined Reference
    CVideoPlayerUtility::SetPositionL(const TTimeIntervalMicroSeconds&)  - Undefined Reference
    _ZN19CVideoPlayerUtility12SetPositionLERK25TTimeIntervalMicroSeconds@mediaclientvideo{000a0000}[101f4569].dll  - Undefined Reference
    CVideoPlayerUtility::GetVideoLoadingProgressL(int&)  - Undefined Reference
    _ZN19CVideoPlayerUtility24GetVideoLoadingProgressLERi@mediaclientvideo{000a0000}[101f4569].dll  - Undefined Reference
    CVideoPlayerUtility::RegisterForVideoLoadingNotification(MVideoLoadingObserver&)  - Undefined Reference
    _ZN19CVideoPlayerUtility35RegisterForVideoLoadingNotificationER21MVideoLoadingObserver@mediaclientvideo{000a0000}[101f4569].dll  - Undefined Reference
    CVideoPlayerUtility::Play()               - Undefined Reference
    _ZN19CVideoPlayerUtility4PlayEv@mediaclientvideo{000a0000}[101f4569].dll  - Undefined Reference
    CVideoPlayerUtility::Stop()               - Undefined Reference
    _ZN19CVideoPlayerUtility4StopEv@mediaclientvideo{000a0000}[101f4569].dll  - Undefined Reference
    CVideoPlayerUtility::Close()              - Undefined Reference
    _ZN19CVideoPlayerUtility5CloseEv@mediaclientvideo{000a0000}[101f4569].dll  - Undefined Reference
    CVideoPlayerUtility::PauseL()             - Undefined Reference
    _ZN19CVideoPlayerUtility6PauseLEv@mediaclientvideo{000a0000}[101f4569].dll  - Undefined Reference
    CVideoPlayerUtility::Prepare()            - Undefined Reference
    _ZN19CVideoPlayerUtility7PrepareEv@mediaclientvideo{000a0000}[101f4569].dll  - Undefined Reference
    CVideoPlayerUtility::OpenDesL(const TDesC8&, TUid)  - Undefined Reference
    _ZN19CVideoPlayerUtility8OpenDesLERK6TDesC84TUid@mediaclientvideo{000a0000}[101f4569].dll  - Undefined Reference
    CVideoPlayerUtility::OpenUrlL(const TDesC16&, int, const TDesC8&, TUid)  - Undefined Reference
    _ZN19CVideoPlayerUtility8OpenUrlLERK7TDesC16iRK6TDesC84TUid@mediaclientvideo{000a0000}[101f4569].dll  - Undefined Reference
    CVideoPlayerUtility::OpenFileL(const RFile&, TUid)  - Undefined Reference
    _ZN19CVideoPlayerUtility9OpenFileLERK5RFile4TUid@mediaclientvideo{000a0000}[101f4569].dll  - Undefined Reference
    CVideoPlayerUtility::OpenFileL(const TDesC16&, TUid)  - Undefined Reference
    _ZN19CVideoPlayerUtility9OpenFileLERK7TDesC164TUid@mediaclientvideo{000a0000}[101f4569].dll  - Undefined Reference
    CEnvironmentalReverb::SetDensityL(unsigned long)  - Undefined Reference
    _ZN20CEnvironmentalReverb11SetDensityLEm@EnvironmentalReverbEffect{000a0000}[10207a80].dll  - Undefined Reference
    CEnvironmentalReverb::SetDecayTimeL(unsigned long)  - Undefined Reference
    _ZN20CEnvironmentalReverb13SetDecayTimeLEm@EnvironmentalReverbEffect{000a0000}[10207a80].dll  - Undefined Reference
    CEnvironmentalReverb::SetDiffusionL(unsigned long)  - Undefined Reference
    _ZN20CEnvironmentalReverb13SetDiffusionLEm@EnvironmentalReverbEffect{000a0000}[10207a80].dll  - Undefined Reference
    CEnvironmentalReverb::SetRoomLevelL(long)  - Undefined Reference
    _ZN20CEnvironmentalReverb13SetRoomLevelLEl@EnvironmentalReverbEffect{000a0000}[10207a80].dll  - Undefined Reference
    CEnvironmentalReverb::DecayTimeRange(unsigned long&, unsigned long&)  - Undefined Reference
    _ZN20CEnvironmentalReverb14DecayTimeRangeERmS0_@EnvironmentalReverbEffect{000a0000}[10207a80].dll  - Undefined Reference
    CEnvironmentalReverb::RoomLevelRange(long&, long&)  - Undefined Reference
    _ZN20CEnvironmentalReverb14RoomLevelRangeERlS0_@EnvironmentalReverbEffect{000a0000}[10207a80].dll  - Undefined Reference
    CEnvironmentalReverb::SetReverbDelayL(unsigned long)  - Undefined Reference
    _ZN20CEnvironmentalReverb15SetReverbDelayLEm@EnvironmentalReverbEffect{000a0000}[10207a80].dll  - Undefined Reference
    CEnvironmentalReverb::SetReverbLevelL(long)  - Undefined Reference
    _ZN20CEnvironmentalReverb15SetReverbLevelLEl@EnvironmentalReverbEffect{000a0000}[10207a80].dll  - Undefined Reference
    CEnvironmentalReverb::SetRoomHFLevelL(long)  - Undefined Reference
    _ZN20CEnvironmentalReverb15SetRoomHFLevelLEl@EnvironmentalReverbEffect{000a0000}[10207a80].dll  - Undefined Reference
    CEnvironmentalReverb::ReverbLevelRange(long&, long&)  - Undefined Reference
    _ZN20CEnvironmentalReverb16ReverbLevelRangeERlS0_@EnvironmentalReverbEffect{000a0000}[10207a80].dll  - Undefined Reference
    CEnvironmentalReverb::RoomHFLevelRange(long&, long&)  - Undefined Reference
    _ZN20CEnvironmentalReverb16RoomHFLevelRangeERlS0_@EnvironmentalReverbEffect{000a0000}[10207a80].dll  - Undefined Reference
    CEnvironmentalReverb::SetDecayHFRatioL(unsigned long)  - Undefined Reference
    _ZN20CEnvironmentalReverb16SetDecayHFRatioLEm@EnvironmentalReverbEffect{000a0000}[10207a80].dll  - Undefined Reference
    CEnvironmentalReverb::DecayHFRatioRange(unsigned long&, unsigned long&)  - Undefined Reference
    _ZN20CEnvironmentalReverb17DecayHFRatioRangeERmS0_@EnvironmentalReverbEffect{000a0000}[10207a80].dll  - Undefined Reference
    CEnvironmentalReverb::ReflectionLevelRange(long&, long&)  - Undefined Reference
    _ZN20CEnvironmentalReverb20ReflectionLevelRangeERlS0_@EnvironmentalReverbEffect{000a0000}[10207a80].dll  - Undefined Reference
    CEnvironmentalReverb::SetReflectionsDelayL(unsigned long)  - Undefined Reference
    _ZN20CEnvironmentalReverb20SetReflectionsDelayLEm@EnvironmentalReverbEffect{000a0000}[10207a80].dll  - Undefined Reference
    CEnvironmentalReverb::SetReflectionsLevelL(long)  - Undefined Reference
    _ZN20CEnvironmentalReverb20SetReflectionsLevelLEl@EnvironmentalReverbEffect{000a0000}[10207a80].dll  - Undefined Reference
    CEnvironmentalReverb::NewL(CMdaAudioOutputStream&)  - Undefined Reference
    _ZN20CEnvironmentalReverb4NewLER21CMdaAudioOutputStream@EnvironmentalReverbEffect{000a0000}[10207a80].dll  - Undefined Reference
    CEnvironmentalReverb::NewL(CMdaAudioPlayerUtility&)  - Undefined Reference
    _ZN20CEnvironmentalReverb4NewLER22CMdaAudioPlayerUtility@EnvironmentalReverbEffect{000a0000}[10207a80].dll  - Undefined Reference
    CVideoPlayerUtility2::SetScaleFactorL(const RWindow&, float, float)  - Undefined Reference
    _ZN20CVideoPlayerUtility215SetScaleFactorLERK7RWindowff@mediaclientvideo{000a0000}[101f4569].dll  - Undefined Reference
    CVideoPlayerUtility2::SetVideoExtentL(const RWindow&, const TRect&)  - Undefined Reference
    _ZN20CVideoPlayerUtility215SetVideoExtentLERK7RWindowRK5TRect@mediaclientvideo{000a0000}[101f4569].dll  - Undefined Reference
    CVideoPlayerUtility2::AddDisplayWindowL(RWsSession&, CWsScreenDevice&, RWindow&, const TRect&, const TRect&)  - Undefined Reference
    _ZN20CVideoPlayerUtility217AddDisplayWindowLER10RWsSessionR15CWsScreenDeviceR7RWindowRK5TRectS8_@mediaclientvideo{000a0000}[101f4569].dll  - Undefined Reference
    CVideoPlayerUtility2::SetWindowClipRectL(const RWindow&, const TRect&)  - Undefined Reference
    _ZN20CVideoPlayerUtility218SetWindowClipRectLERK7RWindowRK5TRect@mediaclientvideo{000a0000}[101f4569].dll  - Undefined Reference
    CVideoPlayerUtility2::RemoveDisplayWindow(RWindow&)  - Undefined Reference
    _ZN20CVideoPlayerUtility219RemoveDisplayWindowER7RWindow@mediaclientvideo{000a0000}[101f4569].dll  - Undefined Reference
    CVideoPlayerUtility2::NewL(MVideoPlayerUtilityObserver&, int, int)  - Undefined Reference
    _ZN20CVideoPlayerUtility24NewLER27MVideoPlayerUtilityObserverii@mediaclientvideo{000a0000}[101f4569].dll  - Undefined Reference
    CMdaAudioOutputStream::NewL(MMdaAudioOutputStreamCallback&, CMdaServer*)  - Undefined Reference
    _ZN21CMdaAudioOutputStream4NewLER29MMdaAudioOutputStreamCallbackP10CMdaServer@mediaclientaudiostream{000a0000}[10003996].dll  - Undefined Reference
    CMdaAudioPlayerUtility::GetPosition(TTimeIntervalMicroSeconds&)  - Undefined Reference
    _ZN22CMdaAudioPlayerUtility11GetPositionER25TTimeIntervalMicroSeconds@mediaclientaudio{000a0000}[10003992].dll  - Undefined Reference
    CMdaAudioPlayerUtility::SetPosition(const TTimeIntervalMicroSeconds&)  - Undefined Reference
    _ZN22CMdaAudioPlayerUtility11SetPositionERK25TTimeIntervalMicroSeconds@mediaclientaudio{000a0000}[10003992].dll  - Undefined Reference
    CMdaAudioPlayerUtility::GetMetaDataEntryL(int)  - Undefined Reference
    _ZN22CMdaAudioPlayerUtility17GetMetaDataEntryLEi@mediaclientaudio{000a0000}[10003992].dll  - Undefined Reference
    CMdaAudioPlayerUtility::GetAudioLoadingProgressL(int&)  - Undefined Reference
    _ZN22CMdaAudioPlayerUtility24GetAudioLoadingProgressLERi@mediaclientaudio{000a0000}[10003992].dll  - Undefined Reference
    CMdaAudioPlayerUtility::GetNumberOfMetaDataEntries(int&)  - Undefined Reference
    _ZN22CMdaAudioPlayerUtility26GetNumberOfMetaDataEntriesERi@mediaclientaudio{000a0000}[10003992].dll  - Undefined Reference
    CMdaAudioPlayerUtility::RegisterForAudioLoadingNotification(MAudioLoadingObserver&)  - Undefined Reference
    _ZN22CMdaAudioPlayerUtility35RegisterForAudioLoadingNotificationER21MAudioLoadingObserver@mediaclientaudio{000a0000}[10003992].dll  - Undefined Reference
    CMdaAudioPlayerUtility::NewL(MMdaAudioPlayerCallback&, int, int)  - Undefined Reference
    _ZN22CMdaAudioPlayerUtility4NewLER23MMdaAudioPlayerCallbackii@mediaclientaudio{000a0000}[10003992].dll  - Undefined Reference
    CMdaAudioPlayerUtility::Close()           - Undefined Reference
    _ZN22CMdaAudioPlayerUtility5CloseEv@mediaclientaudio{000a0000}[10003992].dll  - Undefined Reference
    CMdaAudioPlayerUtility::Pause()           - Undefined Reference
    _ZN22CMdaAudioPlayerUtility5PauseEv@mediaclientaudio{000a0000}[10003992].dll  - Undefined Reference
    CMdaAudioPlayerUtility::OpenDesL(const TDesC8&)  - Undefined Reference
    _ZN22CMdaAudioPlayerUtility8OpenDesLERK6TDesC8@mediaclientaudio{000a0000}[10003992].dll  - Undefined Reference
    CMdaAudioPlayerUtility::OpenFileL(const RFile&)  - Undefined Reference
    _ZN22CMdaAudioPlayerUtility9OpenFileLERK5RFile@mediaclientaudio{000a0000}[10003992].dll  - Undefined Reference
    CMdaAudioPlayerUtility::OpenFileL(const TDesC16&)  - Undefined Reference
    _ZN22CMdaAudioPlayerUtility9OpenFileLERK7TDesC16@mediaclientaudio{000a0000}[10003992].dll  - Undefined Reference
    HAL::Get(HALData::TAttribute, int&)       - Undefined Reference
    _ZN3HAL3GetEN7HALData10TAttributeERi@hal{000a0000}[100039e8].dll  - Undefined Reference
    RFs::Close()                              - Undefined Reference
    _ZN3RFs5CloseEv@efsrv{000a0000}[100039e4].dll  - Undefined Reference
    RFs::Connect(int)                         - Undefined Reference
    _ZN3RFs7ConnectEi@efsrv{000a0000}[100039e4].dll  - Undefined Reference
    QDir::toNativeSeparators(const QString&)  - Undefined Reference
    _ZN4QDir18toNativeSeparatorsERK7QString@QtCore{00040703}[2001b2dc].dll  - Undefined Reference
    QDir::fromNativeSeparators(const QString&)  - Undefined Reference
    _ZN4QDir20fromNativeSeparatorsERK7QString@QtCore{00040703}[2001b2dc].dll  - Undefined Reference
    QUrl::QUrl(const QUrl&)                   - Undefined Reference
    _ZN4QUrlC1ERKS_@QtCore{00040703}[2001b2dc].dll  - Undefined Reference
    QUrl::~QUrl()                             - Undefined Reference
    _ZN4QUrlD1Ev@QtCore{00040703}[2001b2dc].dll  - Undefined Reference
    User::LeaveIfError(int)                   - Undefined Reference
    _ZN4User12LeaveIfErrorEi@euser{000a0000}[100039e5].dll  - Undefined Reference
    User::MarkCleanupStack()                  - Undefined Reference
    _ZN4User16MarkCleanupStackEv@euser{000a0000}[100039e5].dll  - Undefined Reference
    User::UnMarkCleanupStack(TTrapHandler*)   - Undefined Reference
    _ZN4User18UnMarkCleanupStackEP12TTrapHandler@euser{000a0000}[100039e5].dll  - Undefined Reference
    User::Panic(const TDesC16&, int)          - Undefined Reference
    _ZN4User5PanicERK7TDesC16i@euser{000a0000}[100039e5].dll  - Undefined Reference
    User::AllocZL(int)                        - Undefined Reference
    _ZN4User7AllocZLEi@euser{000a0000}[100039e5].dll  - Undefined Reference
    User::Invariant()                         - Undefined Reference
    _ZN4User9InvariantEv@euser{000a0000}[100039e5].dll  - Undefined Reference
    User::LockedDec(int&)                     - Undefined Reference
    _ZN4User9LockedDecERi@euser{000a0000}[100039e5].dll  - Undefined Reference
    User::LockedInc(int&)                     - Undefined Reference
    _ZN4User9LockedIncERi@euser{000a0000}[100039e5].dll  - Undefined Reference
    CBase::Extension_(unsigned, void*&, void*)  - Undefined Reference
    _ZN5CBase10Extension_EjRPvS0_@euser{000a0000}[100039e5].dll  - Undefined Reference
    RFile::Open(RFs&, const TDesC16&, unsigned)  - Undefined Reference
    _ZN5RFile4OpenER3RFsRK7TDesC16j@efsrv{000a0000}[100039e4].dll  - Undefined Reference
    RFile::Close()                            - Undefined Reference
    _ZN5RFile5CloseEv@efsrv{000a0000}[100039e4].dll  - Undefined Reference
    TRect::SetSize(const TSize&)              - Undefined Reference
    _ZN5TRect7SetSizeERK5TSize@euser{000a0000}[100039e5].dll  - Undefined Reference
    TRect::TRect()                            - Undefined Reference
    _ZN5TRectC1Ev@euser{000a0000}[100039e5].dll  - Undefined Reference
    Phonon::MediaSource::MediaSource(const Phonon::MediaSource&)  - Undefined Reference
    _ZN6Phonon11MediaSourceC1ERKS0_@phonon{00040400}[2001e624].dll  - Undefined Reference
    Phonon::MediaSource::MediaSource()        - Undefined Reference
    _ZN6Phonon11MediaSourceC1Ev@phonon{00040400}[2001e624].dll  - Undefined Reference
    Phonon::MediaSource::~MediaSource()       - Undefined Reference
    _ZN6Phonon11MediaSourceD1Ev@phonon{00040400}[2001e624].dll  - Undefined Reference
    Phonon::MediaSource::operator =(const Phonon::MediaSource&)  - Undefined Reference
    _ZN6Phonon11MediaSourceaSERKS0_@phonon{00040400}[2001e624].dll  - Undefined Reference
    Phonon::EffectParameter::EffectParameter(const Phonon::EffectParameter&)  - Undefined Reference
    _ZN6Phonon15EffectParameterC1ERKS0_@phonon{00040400}[2001e624].dll  - Undefined Reference
    Phonon::EffectParameter::EffectParameter(int, const QString&, QFlags<Phonon::EffectParameter::Hint>, const QVariant&, const QVariant&, const QVariant&, const QList<QVariant>&, const QString&)  - Undefined Reference
    _ZN6Phonon15EffectParameterC1EiRK7QString6QFlagsINS0_4HintEERK8QVariantS9_S9_RK5QListIS7_ES3_@phonon{00040400}[2001e624].dll  - Undefined Reference
    Phonon::EffectParameter::EffectParameter()  - Undefined Reference
    _ZN6Phonon15EffectParameterC1Ev@phonon{00040400}[2001e624].dll  - Undefined Reference
    Phonon::EffectParameter::~EffectParameter()  - Undefined Reference
    _ZN6Phonon15EffectParameterD1Ev@phonon{00040400}[2001e624].dll  - Undefined Reference
    Phonon::EffectParameter::operator =(const Phonon::EffectParameter&)  - Undefined Reference
    _ZN6Phonon15EffectParameteraSERKS0_@phonon{00040400}[2001e624].dll  - Undefined Reference
    QColor::invalidate()                      - Undefined Reference
    _ZN6QColor10invalidateEv@QtGui{00040703}[2001b2dd].dll  - Undefined Reference
    QColor::setRed(int)                       - Undefined Reference
    _ZN6QColor6setRedEi@QtGui{00040703}[2001b2dd].dll  - Undefined Reference
    QColor::setBlue(int)                      - Undefined Reference
    _ZN6QColor7setBlueEi@QtGui{00040703}[2001b2dd].dll  - Undefined Reference
    QColor::setAlpha(int)                     - Undefined Reference
    _ZN6QColor8setAlphaEi@QtGui{00040703}[2001b2dd].dll  - Undefined Reference
    QColor::setGreen(int)                     - Undefined Reference
    _ZN6QColor8setGreenEi@QtGui{00040703}[2001b2dd].dll  - Undefined Reference
    QHBufC::QHBufC(const QString&)            - Undefined Reference
    _ZN6QHBufCC1ERK7QString@QtCore{00040703}[2001b2dc].dll  - Undefined Reference
    QHBufC::~QHBufC()                         - Undefined Reference
    _ZN6QHBufCD1Ev@QtCore{00040703}[2001b2dc].dll  - Undefined Reference
    QTimer::setInterval(int)                  - Undefined Reference
    _ZN6QTimer11setIntervalEi@QtCore{00040703}[2001b2dc].dll  - Undefined Reference
    QTimer::stop()                            - Undefined Reference
    _ZN6QTimer4stopEv@QtCore{00040703}[2001b2dc].dll  - Undefined Reference
    QTimer::start(int)                        - Undefined Reference
    _ZN6QTimer5startEi@QtCore{00040703}[2001b2dc].dll  - Undefined Reference
    QTimer::QTimer(QObject*)                  - Undefined Reference
    _ZN6QTimerC1EP7QObject@QtCore{00040703}[2001b2dc].dll  - Undefined Reference
    RDebug::Print(TRefByValue<const TDesC16>, ...)  - Undefined Reference
    _ZN6RDebug5PrintE11TRefByValueIK7TDesC16Ez@euser{000a0000}[100039e5].dll  - Undefined Reference
    RDebug::Printf(const char*, ...)          - Undefined Reference
    _ZN6RDebug6PrintfEPKcz@euser{000a0000}[100039e5].dll  - Undefined Reference
    TDes16::Collapse()                        - Undefined Reference
    _ZN6TDes168CollapseEv@euser{000a0000}[100039e5].dll  - Undefined Reference
    TPtrC8::TPtrC8(const unsigned char*, int)  - Undefined Reference
    _ZN6TPtrC8C1EPKhi@euser{000a0000}[100039e5].dll  - Undefined Reference
    TPtrC8::TPtrC8()                          - Undefined Reference
    _ZN6TPtrC8C1Ev@euser{000a0000}[100039e5].dll  - Undefined Reference
    CCoeEnv::Static()                         - Undefined Reference
    _ZN7CCoeEnv6StaticEv@cone{000a0000}[10003a41].dll  - Undefined Reference
    HBufC16::Des()                            - Undefined Reference
    _ZN7HBufC163DesEv@euser{000a0000}[100039e5].dll  - Undefined Reference
    QLocale::QLocale()                        - Undefined Reference
    _ZN7QLocaleC1Ev@QtCore{00040703}[2001b2dc].dll  - Undefined Reference
    QObject::childEvent(QChildEvent*)         - Undefined Reference
    _ZN7QObject10childEventEP11QChildEvent@QtCore{00040703}[2001b2dc].dll  - Undefined Reference
    QObject::disconnect(const QObject*, const char*, const QObject*, const char*)  - Undefined Reference
    _ZN7QObject10disconnectEPKS_PKcS1_S3_@QtCore{00040703}[2001b2dc].dll  - Undefined Reference
    QObject::timerEvent(QTimerEvent*)         - Undefined Reference
    _ZN7QObject10timerEventEP11QTimerEvent@QtCore{00040703}[2001b2dc].dll  - Undefined Reference
    QObject::customEvent(QEvent*)             - Undefined Reference
    _ZN7QObject11customEventEP6QEvent@QtCore{00040703}[2001b2dc].dll  - Undefined Reference
    QObject::eventFilter(QObject*, QEvent*)   - Undefined Reference
    _ZN7QObject11eventFilterEPS_P6QEvent@QtCore{00040703}[2001b2dc].dll  - Undefined Reference
    QObject::qt_metacall(QMetaObject::Call, int, void**)  - Undefined Reference
    _ZN7QObject11qt_metacallEN11QMetaObject4CallEiPPv@QtCore{00040703}[2001b2dc].dll  - Undefined Reference
    QObject::qt_metacast(const char*)         - Undefined Reference
    _ZN7QObject11qt_metacastEPKc@QtCore{00040703}[2001b2dc].dll  - Undefined Reference
    QObject::setProperty(const char*, const QVariant&)  - Undefined Reference
    _ZN7QObject11setPropertyEPKcRK8QVariant@QtCore{00040703}[2001b2dc].dll  - Undefined Reference
    QObject::connectNotify(const char*)       - Undefined Reference
    _ZN7QObject13connectNotifyEPKc@QtCore{00040703}[2001b2dc].dll  - Undefined Reference
    QObject::disconnectNotify(const char*)    - Undefined Reference
    _ZN7QObject16disconnectNotifyEPKc@QtCore{00040703}[2001b2dc].dll  - Undefined Reference
    QObject::staticMetaObject                 - Undefined Reference
    _ZN7QObject16staticMetaObjectE@QtCore{00040703}[2001b2dc].dll  - Undefined Reference
    QObject::removeEventFilter(QObject*)      - Undefined Reference
    _ZN7QObject17removeEventFilterEPS_@QtCore{00040703}[2001b2dc].dll  - Undefined Reference
    QObject::installEventFilter(QObject*)     - Undefined Reference
    _ZN7QObject18installEventFilterEPS_@QtCore{00040703}[2001b2dc].dll  - Undefined Reference
    QObject::event(QEvent*)                   - Undefined Reference
    _ZN7QObject5eventEP6QEvent@QtCore{00040703}[2001b2dc].dll  - Undefined Reference
    QObject::connect(const QObject*, const char*, const QObject*, const char*, Qt::ConnectionType)  - Undefined Reference
    _ZN7QObject7connectEPKS_PKcS1_S3_N2Qt14ConnectionTypeE@QtCore{00040703}[2001b2dc].dll  - Undefined Reference
    QObject::QObject(QObject*)                - Undefined Reference
    _ZN7QObjectC1EPS_@QtCore{00040703}[2001b2dc].dll  - Undefined Reference
    QObject::~QObject()                       - Undefined Reference
    _ZN7QObjectD1Ev@QtCore{00040703}[2001b2dc].dll  - Undefined Reference
    QString::shared_null                      - Undefined Reference
    _ZN7QString11shared_nullE@QtCore{00040703}[2001b2dc].dll  - Undefined Reference
    QString::codecForCStrings                 - Undefined Reference
    _ZN7QString16codecForCStringsE@QtCore{00040703}[2001b2dc].dll  - Undefined Reference
    QString::fromAscii_helper(const char*, int)  - Undefined Reference
    _ZN7QString16fromAscii_helperEPKci@QtCore{00040703}[2001b2dc].dll  - Undefined Reference
    QString::free(QString::Data*)             - Undefined Reference
    _ZN7QString4freeEPNS_4DataE@QtCore{00040703}[2001b2dc].dll  - Undefined Reference
    QString::append(const QString&)           - Undefined Reference
    _ZN7QString6appendERKS_@QtCore{00040703}[2001b2dc].dll  - Undefined Reference
    QString::fromAscii(const char*, int)      - Undefined Reference
    _ZN7QString9fromAsciiEPKci@QtCore{00040703}[2001b2dc].dll  - Undefined Reference
    QString::operator =(const QString&)       - Undefined Reference
    _ZN7QStringaSERKS_@QtCore{00040703}[2001b2dc].dll  - Undefined Reference
    QWidget::closeEvent(QCloseEvent*)         - Undefined Reference
    _ZN7QWidget10closeEventEP11QCloseEvent@QtGui{00040703}[2001b2dd].dll  - Undefined Reference
    QWidget::enterEvent(QEvent*)              - Undefined Reference
    _ZN7QWidget10enterEventEP6QEvent@QtGui{00040703}[2001b2dd].dll  - Undefined Reference
    QWidget::fontChange(const QFont&)         - Undefined Reference
    _ZN7QWidget10fontChangeERK5QFont@QtGui{00040703}[2001b2dd].dll  - Undefined Reference
    QWidget::leaveEvent(QEvent*)              - Undefined Reference
    _ZN7QWidget10leaveEventEP6QEvent@QtGui{00040703}[2001b2dd].dll  - Undefined Reference
    QWidget::paintEvent(QPaintEvent*)         - Undefined Reference
    _ZN7QWidget10paintEventEP11QPaintEvent@QtGui{00040703}[2001b2dd].dll  - Undefined Reference
    QWidget::setVisible(bool)                 - Undefined Reference
    _ZN7QWidget10setVisibleEb@QtGui{00040703}[2001b2dd].dll  - Undefined Reference
    QWidget::wheelEvent(QWheelEvent*)         - Undefined Reference
    _ZN7QWidget10wheelEventEP11QWheelEvent@QtGui{00040703}[2001b2dd].dll  - Undefined Reference
    QWidget::actionEvent(QActionEvent*)       - Undefined Reference
    _ZN7QWidget11actionEventEP12QActionEvent@QtGui{00040703}[2001b2dd].dll  - Undefined Reference
    QWidget::changeEvent(QEvent*)             - Undefined Reference
    _ZN7QWidget11changeEventEP6QEvent@QtGui{00040703}[2001b2dd].dll  - Undefined Reference
    QWidget::qt_metacall(QMetaObject::Call, int, void**)  - Undefined Reference
    _ZN7QWidget11qt_metacallEN11QMetaObject4CallEiPPv@QtGui{00040703}[2001b2dd].dll  - Undefined Reference
    QWidget::qt_metacast(const char*)         - Undefined Reference
    _ZN7QWidget11qt_metacastEPKc@QtGui{00040703}[2001b2dd].dll  - Undefined Reference
    QWidget::resizeEvent(QResizeEvent*)       - Undefined Reference
    _ZN7QWidget11resizeEventEP12QResizeEvent@QtGui{00040703}[2001b2dd].dll  - Undefined Reference
    QWidget::styleChange(QStyle&)             - Undefined Reference
    _ZN7QWidget11styleChangeER6QStyle@QtGui{00040703}[2001b2dd].dll  - Undefined Reference
    QWidget::tabletEvent(QTabletEvent*)       - Undefined Reference
    _ZN7QWidget11tabletEventEP12QTabletEvent@QtGui{00040703}[2001b2dd].dll  - Undefined Reference
    QWidget::focusInEvent(QFocusEvent*)       - Undefined Reference
    _ZN7QWidget12focusInEventEP11QFocusEvent@QtGui{00040703}[2001b2dd].dll  - Undefined Reference
    QWidget::dragMoveEvent(QDragMoveEvent*)   - Undefined Reference
    _ZN7QWidget13dragMoveEventEP14QDragMoveEvent@QtGui{00040703}[2001b2dd].dll  - Undefined Reference
    QWidget::enabledChange(bool)              - Undefined Reference
    _ZN7QWidget13enabledChangeEb@QtGui{00040703}[2001b2dd].dll  - Undefined Reference
    QWidget::focusOutEvent(QFocusEvent*)      - Undefined Reference
    _ZN7QWidget13focusOutEventEP11QFocusEvent@QtGui{00040703}[2001b2dd].dll  - Undefined Reference
    QWidget::keyPressEvent(QKeyEvent*)        - Undefined Reference
    _ZN7QWidget13keyPressEventEP9QKeyEvent@QtGui{00040703}[2001b2dd].dll  - Undefined Reference
    QWidget::paletteChange(const QPalette&)   - Undefined Reference
    _ZN7QWidget13paletteChangeERK8QPalette@QtGui{00040703}[2001b2dd].dll  - Undefined Reference
    QWidget::dragEnterEvent(QDragEnterEvent*)  - Undefined Reference
    _ZN7QWidget14dragEnterEventEP15QDragEnterEvent@QtGui{00040703}[2001b2dd].dll  - Undefined Reference
    QWidget::dragLeaveEvent(QDragLeaveEvent*)  - Undefined Reference
    _ZN7QWidget14dragLeaveEventEP15QDragLeaveEvent@QtGui{00040703}[2001b2dd].dll  - Undefined Reference
    QWidget::languageChange()                 - Undefined Reference
    _ZN7QWidget14languageChangeEv@QtGui{00040703}[2001b2dd].dll  - Undefined Reference
    QWidget::mouseMoveEvent(QMouseEvent*)     - Undefined Reference
    _ZN7QWidget14mouseMoveEventEP11QMouseEvent@QtGui{00040703}[2001b2dd].dll  - Undefined Reference
    QWidget::updateGeometry()                 - Undefined Reference
    _ZN7QWidget14updateGeometryEv@QtGui{00040703}[2001b2dd].dll  - Undefined Reference
    QWidget::keyReleaseEvent(QKeyEvent*)      - Undefined Reference
    _ZN7QWidget15keyReleaseEventEP9QKeyEvent@QtGui{00040703}[2001b2dd].dll  - Undefined Reference
    QWidget::mousePressEvent(QMouseEvent*)    - Undefined Reference
    _ZN7QWidget15mousePressEventEP11QMouseEvent@QtGui{00040703}[2001b2dd].dll  - Undefined Reference
    QWidget::contextMenuEvent(QContextMenuEvent*)  - Undefined Reference
    _ZN7QWidget16contextMenuEventEP17QContextMenuEvent@QtGui{00040703}[2001b2dd].dll  - Undefined Reference
    QWidget::inputMethodEvent(QInputMethodEvent*)  - Undefined Reference
    _ZN7QWidget16inputMethodEventEP17QInputMethodEvent@QtGui{00040703}[2001b2dd].dll  - Undefined Reference
    QWidget::staticMetaObject                 - Undefined Reference
    _ZN7QWidget16staticMetaObjectE@QtGui{00040703}[2001b2dd].dll  - Undefined Reference
    QWidget::mouseReleaseEvent(QMouseEvent*)  - Undefined Reference
    _ZN7QWidget17mouseReleaseEventEP11QMouseEvent@QtGui{00040703}[2001b2dd].dll  - Undefined Reference
    QWidget::focusNextPrevChild(bool)         - Undefined Reference
    _ZN7QWidget18focusNextPrevChildEb@QtGui{00040703}[2001b2dd].dll  - Undefined Reference
    QWidget::mouseDoubleClickEvent(QMouseEvent*)  - Undefined Reference
    _ZN7QWidget21mouseDoubleClickEventEP11QMouseEvent@QtGui{00040703}[2001b2dd].dll  - Undefined Reference
    QWidget::windowActivationChange(bool)     - Undefined Reference
    _ZN7QWidget22windowActivationChangeEb@QtGui{00040703}[2001b2dd].dll  - Undefined Reference
    QWidget::event(QEvent*)                   - Undefined Reference
    _ZN7QWidget5eventEP6QEvent@QtGui{00040703}[2001b2dd].dll  - Undefined Reference
    QWidget::dropEvent(QDropEvent*)           - Undefined Reference
    _ZN7QWidget9dropEventEP10QDropEvent@QtGui{00040703}[2001b2dd].dll  - Undefined Reference
    QWidget::hideEvent(QHideEvent*)           - Undefined Reference
    _ZN7QWidget9hideEventEP10QHideEvent@QtGui{00040703}[2001b2dd].dll  - Undefined Reference
    QWidget::moveEvent(QMoveEvent*)           - Undefined Reference
    _ZN7QWidget9moveEventEP10QMoveEvent@QtGui{00040703}[2001b2dd].dll  - Undefined Reference
    QWidget::showEvent(QShowEvent*)           - Undefined Reference
    _ZN7QWidget9showEventEP10QShowEvent@QtGui{00040703}[2001b2dd].dll  - Undefined Reference
    QWidget::QWidget(QWidget*, QFlags<Qt::WindowType>)  - Undefined Reference
    _ZN7QWidgetC1EPS_6QFlagsIN2Qt10WindowTypeEE@QtGui{00040703}[2001b2dd].dll  - Undefined Reference
    QWidget::~QWidget()                       - Undefined Reference
    _ZN7QWidgetD1Ev@QtGui{00040703}[2001b2dd].dll  - Undefined Reference
    RWindow::SetBackgroundColor(TRgb)         - Undefined Reference
    _ZN7RWindow18SetBackgroundColorE4TRgb@ws32{000a0000}[10003b21].dll  - Undefined Reference
    TPtrC16::TPtrC16(const unsigned short*)   - Undefined Reference
    _ZN7TPtrC16C1EPKt@euser{000a0000}[100039e5].dll  - Undefined Reference
    TPtrC16::TPtrC16(const unsigned short*, int)  - Undefined Reference
    _ZN7TPtrC16C1EPKti@euser{000a0000}[100039e5].dll  - Undefined Reference
    TPtrC16::TPtrC16(const TDesC16&)          - Undefined Reference
    _ZN7TPtrC16C1ERK7TDesC16@euser{000a0000}[100039e5].dll  - Undefined Reference
    CBufFlat::NewL(int)                       - Undefined Reference
    _ZN8CBufFlat4NewLEi@euser{000a0000}[100039e5].dll  - Undefined Reference
    QMapData::createData(int)                 - Undefined Reference
    _ZN8QMapData10createDataEi@QtCore{00040703}[2001b2dc].dll  - Undefined Reference
    QMapData::node_create(QMapData::Node**, int, int)  - Undefined Reference
    _ZN8QMapData11node_createEPPNS_4NodeEii@QtCore{00040703}[2001b2dc].dll  - Undefined Reference
    QMapData::node_delete(QMapData::Node**, int, QMapData::Node*)  - Undefined Reference
    _ZN8QMapData11node_deleteEPPNS_4NodeEiS1_@QtCore{00040703}[2001b2dc].dll  - Undefined Reference
    QMapData::shared_null                     - Undefined Reference
    _ZN8QMapData11shared_nullE@QtCore{00040703}[2001b2dc].dll  - Undefined Reference
    QMapData::continueFreeData(int)           - Undefined Reference
    _ZN8QMapData16continueFreeDataEi@QtCore{00040703}[2001b2dc].dll  - Undefined Reference
    QSysInfo::s60Version()                    - Undefined Reference
    _ZN8QSysInfo10s60VersionEv@QtCore{00040703}[2001b2dc].dll  - Undefined Reference
    QVariant::QVariant(const QLatin1String&)  - Undefined Reference
    _ZN8QVariantC1ERK13QLatin1String@QtCore{00040703}[2001b2dc].dll  - Undefined Reference
    QVariant::QVariant(const QString&)        - Undefined Reference
    _ZN8QVariantC1ERK7QString@QtCore{00040703}[2001b2dc].dll  - Undefined Reference
    QVariant::QVariant(const QVariant&)       - Undefined Reference
    _ZN8QVariantC1ERKS_@QtCore{00040703}[2001b2dc].dll  - Undefined Reference
    QVariant::QVariant(bool)                  - Undefined Reference
    _ZN8QVariantC1Eb@QtCore{00040703}[2001b2dc].dll  - Undefined Reference
    QVariant::~QVariant()                     - Undefined Reference
    _ZN8QVariantD1Ev@QtCore{00040703}[2001b2dc].dll  - Undefined Reference
    QVariant::operator =(const QVariant&)     - Undefined Reference
    _ZN8QVariantaSERKS_@QtCore{00040703}[2001b2dc].dll  - Undefined Reference
    CLoudness::NewL(CMdaAudioOutputStream&, int)  - Undefined Reference
    _ZN9CLoudness4NewLER21CMdaAudioOutputStreami@LoudnessEffect{000a0000}[10207ae9].dll  - Undefined Reference
    CLoudness::NewL(CMdaAudioPlayerUtility&, int)  - Undefined Reference
    _ZN9CLoudness4NewLER22CMdaAudioPlayerUtilityi@LoudnessEffect{000a0000}[10207ae9].dll  - Undefined Reference
    QHashData::free_helper(void(*)(QHashData::Node*))  - Undefined Reference
    _ZN9QHashData11free_helperEPFvPNS_4NodeEE@QtCore{00040703}[2001b2dc].dll  - Undefined Reference
    QHashData::shared_null                    - Undefined Reference
    _ZN9QHashData11shared_nullE@QtCore{00040703}[2001b2dc].dll  - Undefined Reference
    QHashData::allocateNode(int)              - Undefined Reference
    _ZN9QHashData12allocateNodeEi@QtCore{00040703}[2001b2dc].dll  - Undefined Reference
    QHashData::detach_helper2(void(*)(QHashData::Node*, void*), void(*)(QHashData::Node*), int, int)  - Undefined Reference
    _ZN9QHashData14detach_helper2EPFvPNS_4NodeEPvEPFvS1_Eii@QtCore{00040703}[2001b2dc].dll  - Undefined Reference
    QHashData::rehash(int)                    - Undefined Reference
    _ZN9QHashData6rehashEi@QtCore{00040703}[2001b2dc].dll  - Undefined Reference
    QHashData::nextNode(QHashData::Node*)     - Undefined Reference
    _ZN9QHashData8nextNodeEPNS_4NodeE@QtCore{00040703}[2001b2dc].dll  - Undefined Reference
    QListData::detach_grow(int*, int)         - Undefined Reference
    _ZN9QListData11detach_growEPii@QtCore{00040703}[2001b2dc].dll  - Undefined Reference
    QListData::shared_null                    - Undefined Reference
    _ZN9QListData11shared_nullE@QtCore{00040703}[2001b2dc].dll  - Undefined Reference
    QListData::append()                       - Undefined Reference
    _ZN9QListData6appendEv@QtCore{00040703}[2001b2dc].dll  - Undefined Reference
    QListData::detach(int)                    - Undefined Reference
    _ZN9QListData6detachEi@QtCore{00040703}[2001b2dc].dll  - Undefined Reference
    QListData::remove(int)                    - Undefined Reference
    _ZN9QListData6removeEi@QtCore{00040703}[2001b2dc].dll  - Undefined Reference
    QListData::append2(const QListData&)      - Undefined Reference
    _ZN9QListData7append2ERKS_@QtCore{00040703}[2001b2dc].dll  - Undefined Reference
    QMetaType::registerType(const char*, void(*)(void*), void*(*)(const void*))  - Undefined Reference
    _ZN9QMetaType12registerTypeEPKcPFvPvEPFS2_PKvE@QtCore{00040703}[2001b2dc].dll  - Undefined Reference
    QMetaType::registerTypedef(const char*, int)  - Undefined Reference
    _ZN9QMetaType15registerTypedefEPKci@QtCore{00040703}[2001b2dc].dll  - Undefined Reference
    QResource::QResource(const QString&, const QLocale&)  - Undefined Reference
    _ZN9QResourceC1ERK7QStringRK7QLocale@QtCore{00040703}[2001b2dc].dll  - Undefined Reference
    QResource::~QResource()                   - Undefined Reference
    _ZN9QResourceD1Ev@QtCore{00040703}[2001b2dc].dll  - Undefined Reference
    QtPrivate::QStringList_sort(QStringList*)  - Undefined Reference
    _ZN9QtPrivate16QStringList_sortEP11QStringList@QtCore{00040703}[2001b2dc].dll  - Undefined Reference
    TDataType::TDataType()                    - Undefined Reference
    _ZN9TDataTypeC1Ev@apmime{000a0000}[10003a1a].dll  - Undefined Reference
    CCoeControl::OwnsWindow() const           - Undefined Reference
    _ZNK11CCoeControl10OwnsWindowEv@cone{000a0000}[10003a41].dll  - Undefined Reference
    CCoeControl::DrawableWindow() const       - Undefined Reference
    _ZNK11CCoeControl14DrawableWindowEv@cone{000a0000}[10003a41].dll  - Undefined Reference
    CCoeControl::Size() const                 - Undefined Reference
    _ZNK11CCoeControl4SizeEv@cone{000a0000}[10003a41].dll  - Undefined Reference
    CCoeControl::Parent() const               - Undefined Reference
    _ZNK11CCoeControl6ParentEv@cone{000a0000}[10003a41].dll  - Undefined Reference
    CCoeControl::Position() const             - Undefined Reference
    _ZNK11CCoeControl8PositionEv@cone{000a0000}[10003a41].dll  - Undefined Reference
    CCoeControl::IsVisible() const            - Undefined Reference
    _ZNK11CCoeControl9IsVisibleEv@cone{000a0000}[10003a41].dll  - Undefined Reference
    QMetaObject::tr(const char*, const char*) const  - Undefined Reference
    _ZNK11QMetaObject2trEPKcS1_@QtCore{00040703}[2001b2dc].dll  - Undefined Reference
    QMetaObject::cast(QObject*) const         - Undefined Reference
    _ZNK11QMetaObject4castEP7QObject@QtCore{00040703}[2001b2dc].dll  - Undefined Reference
    RWindowBase::AbsPosition() const          - Undefined Reference
    _ZNK11RWindowBase11AbsPositionEv@ws32{000a0000}[10003b21].dll  - Undefined Reference
    RWindowBase::DisplayMode() const          - Undefined Reference
    _ZNK11RWindowBase11DisplayModeEv@ws32{000a0000}[10003b21].dll  - Undefined Reference
    RWindowBase::Size() const                 - Undefined Reference
    _ZNK11RWindowBase4SizeEv@ws32{000a0000}[10003b21].dll  - Undefined Reference
    RWindowBase::Position() const             - Undefined Reference
    _ZNK11RWindowBase8PositionEv@ws32{000a0000}[10003b21].dll  - Undefined Reference
    CArrayFixBase::At(int) const              - Undefined Reference
    _ZNK13CArrayFixBase2AtEi@euser{000a0000}[100039e5].dll  - Undefined Reference
    RApaLsSession::RecognizeData(const RFile&, TDataRecognitionResult&) const  - Undefined Reference
    _ZNK13RApaLsSession13RecognizeDataERK5RFileR22TDataRecognitionResult@apgrfx{000a0000}[10003a3c].dll  - Undefined Reference
    RApaLsSession::RecognizeData(const TDesC16&, const TDesC8&, TDataRecognitionResult&) const  - Undefined Reference
    _ZNK13RApaLsSession13RecognizeDataERK7TDesC16RK6TDesC8R22TDataRecognitionResult@apgrfx{000a0000}[10003a3c].dll  - Undefined Reference
    RApaLsSession::GetSupportedDataTypesL(CArrayFixFlat<TDataType>&) const  - Undefined Reference
    _ZNK13RApaLsSession22GetSupportedDataTypesLER13CArrayFixFlatI9TDataTypeE@apgrfx{000a0000}[10003a3c].dll  - Undefined Reference
    CAudioEqualizer::NumberOfBands() const    - Undefined Reference
    _ZNK15CAudioEqualizer13NumberOfBandsEv@AudioEqualizerEffect{000a0000}[101fafdb].dll  - Undefined Reference
    CAudioEqualizer::CenterFrequency(unsigned char) const  - Undefined Reference
    _ZNK15CAudioEqualizer15CenterFrequencyEh@AudioEqualizerEffect{000a0000}[101fafdb].dll  - Undefined Reference
    CStereoWidening::StereoWideningLevel() const  - Undefined Reference
    _ZNK15CStereoWidening19StereoWideningLevelEv@StereoWideningEffect{000a0000}[10207a85].dll  - Undefined Reference
    RWindowTreeNode::WindowGroupId() const    - Undefined Reference
    _ZNK15RWindowTreeNode13WindowGroupIdEv@ws32{000a0000}[10003b21].dll  - Undefined Reference
    RWindowTreeNode::OrdinalPosition() const  - Undefined Reference
    _ZNK15RWindowTreeNode15OrdinalPositionEv@ws32{000a0000}[10003b21].dll  - Undefined Reference
    RWindowTreeNode::Parent() const           - Undefined Reference
    _ZNK15RWindowTreeNode6ParentEv@ws32{000a0000}[10003b21].dll  - Undefined Reference
    XLeaveException::GetReason() const        - Undefined Reference
    _ZNK15XLeaveException9GetReasonEv@euser{000a0000}[100039e5].dll  - Undefined Reference
    CMMFMetaDataEntry::Name() const           - Undefined Reference
    _ZNK17CMMFMetaDataEntry4NameEv@mmfcontrollerframework{000a0000}[101f76dd].dll  - Undefined Reference
    CMMFMetaDataEntry::Value() const          - Undefined Reference
    _ZNK17CMMFMetaDataEntry5ValueEv@mmfcontrollerframework{000a0000}[101f76dd].dll  - Undefined Reference
    CVideoPlayerUtility::MetaDataEntryL(int) const  - Undefined Reference
    _ZNK19CVideoPlayerUtility14MetaDataEntryLEi@mediaclientvideo{000a0000}[101f4569].dll  - Undefined Reference
    CVideoPlayerUtility::VideoFrameSizeL(TSize&) const  - Undefined Reference
    _ZNK19CVideoPlayerUtility15VideoFrameSizeLER5TSize@mediaclientvideo{000a0000}[101f4569].dll  - Undefined Reference
    CVideoPlayerUtility::NumberOfMetaDataEntriesL() const  - Undefined Reference
    _ZNK19CVideoPlayerUtility24NumberOfMetaDataEntriesLEv@mediaclientvideo{000a0000}[101f4569].dll  - Undefined Reference
    CVideoPlayerUtility::DurationL() const    - Undefined Reference
    _ZNK19CVideoPlayerUtility9DurationLEv@mediaclientvideo{000a0000}[101f4569].dll  - Undefined Reference
    CVideoPlayerUtility::MaxVolume() const    - Undefined Reference
    _ZNK19CVideoPlayerUtility9MaxVolumeEv@mediaclientvideo{000a0000}[101f4569].dll  - Undefined Reference
    CVideoPlayerUtility::PositionL() const    - Undefined Reference
    _ZNK19CVideoPlayerUtility9PositionLEv@mediaclientvideo{000a0000}[101f4569].dll  - Undefined Reference
    CEnvironmentalReverb::ReverbDelay() const  - Undefined Reference
    _ZNK20CEnvironmentalReverb11ReverbDelayEv@EnvironmentalReverbEffect{000a0000}[10207a80].dll  - Undefined Reference
    CEnvironmentalReverb::ReverbLevel() const  - Undefined Reference
    _ZNK20CEnvironmentalReverb11ReverbLevelEv@EnvironmentalReverbEffect{000a0000}[10207a80].dll  - Undefined Reference
    CEnvironmentalReverb::RoomHFLevel() const  - Undefined Reference
    _ZNK20CEnvironmentalReverb11RoomHFLevelEv@EnvironmentalReverbEffect{000a0000}[10207a80].dll  - Undefined Reference
    CEnvironmentalReverb::DecayHFRatio() const  - Undefined Reference
    _ZNK20CEnvironmentalReverb12DecayHFRatioEv@EnvironmentalReverbEffect{000a0000}[10207a80].dll  - Undefined Reference
    CEnvironmentalReverb::ReverbDelayMax() const  - Undefined Reference
    _ZNK20CEnvironmentalReverb14ReverbDelayMaxEv@EnvironmentalReverbEffect{000a0000}[10207a80].dll  - Undefined Reference
    CEnvironmentalReverb::ReflectionsDelay() const  - Undefined Reference
    _ZNK20CEnvironmentalReverb16ReflectionsDelayEv@EnvironmentalReverbEffect{000a0000}[10207a80].dll  - Undefined Reference
    CEnvironmentalReverb::ReflectionsLevel() const  - Undefined Reference
    _ZNK20CEnvironmentalReverb16ReflectionsLevelEv@EnvironmentalReverbEffect{000a0000}[10207a80].dll  - Undefined Reference
    CEnvironmentalReverb::ReflectionsDelayMax() const  - Undefined Reference
    _ZNK20CEnvironmentalReverb19ReflectionsDelayMaxEv@EnvironmentalReverbEffect{000a0000}[10207a80].dll  - Undefined Reference
    CEnvironmentalReverb::Density() const     - Undefined Reference
    _ZNK20CEnvironmentalReverb7DensityEv@EnvironmentalReverbEffect{000a0000}[10207a80].dll  - Undefined Reference
    CEnvironmentalReverb::DecayTime() const   - Undefined Reference
    _ZNK20CEnvironmentalReverb9DecayTimeEv@EnvironmentalReverbEffect{000a0000}[10207a80].dll  - Undefined Reference
    CEnvironmentalReverb::Diffusion() const   - Undefined Reference
    _ZNK20CEnvironmentalReverb9DiffusionEv@EnvironmentalReverbEffect{000a0000}[10207a80].dll  - Undefined Reference
    CEnvironmentalReverb::RoomLevel() const   - Undefined Reference
    _ZNK20CEnvironmentalReverb9RoomLevelEv@EnvironmentalReverbEffect{000a0000}[10207a80].dll  - Undefined Reference
    QUrl::toLocalFile() const                 - Undefined Reference
    _ZNK4QUrl11toLocalFileEv@QtCore{00040703}[2001b2dc].dll  - Undefined Reference
    QUrl::scheme() const                      - Undefined Reference
    _ZNK4QUrl6schemeEv@QtCore{00040703}[2001b2dc].dll  - Undefined Reference
    QUrl::toString(QFlags<QUrl::FormattingOption>) const  - Undefined Reference
    _ZNK4QUrl8toStringE6QFlagsINS_16FormattingOptionEE@QtCore{00040703}[2001b2dc].dll  - Undefined Reference
    Phonon::MediaSource::url() const          - Undefined Reference
    _ZNK6Phonon11MediaSource3urlEv@phonon{00040400}[2001e624].dll  - Undefined Reference
    Phonon::MediaSource::type() const         - Undefined Reference
    _ZNK6Phonon11MediaSource4typeEv@phonon{00040400}[2001e624].dll  - Undefined Reference
    Phonon::MediaSource::fileName() const     - Undefined Reference
    _ZNK6Phonon11MediaSource8fileNameEv@phonon{00040400}[2001e624].dll  - Undefined Reference
    Phonon::EffectParameter::defaultValue() const  - Undefined Reference
    _ZNK6Phonon15EffectParameter12defaultValueEv@phonon{00040400}[2001e624].dll  - Undefined Reference
    Phonon::EffectParameter::id() const       - Undefined Reference
    _ZNK6Phonon15EffectParameter2idEv@phonon{00040400}[2001e624].dll  - Undefined Reference
    QColor::red() const                       - Undefined Reference
    _ZNK6QColor3redEv@QtGui{00040703}[2001b2dd].dll  - Undefined Reference
    QColor::blue() const                      - Undefined Reference
    _ZNK6QColor4blueEv@QtGui{00040703}[2001b2dd].dll  - Undefined Reference
    QColor::alpha() const                     - Undefined Reference
    _ZNK6QColor5alphaEv@QtGui{00040703}[2001b2dd].dll  - Undefined Reference
    QColor::green() const                     - Undefined Reference
    _ZNK6QColor5greenEv@QtGui{00040703}[2001b2dd].dll  - Undefined Reference
    QObject::objectName() const               - Undefined Reference
    _ZNK7QObject10objectNameEv@QtCore{00040703}[2001b2dc].dll  - Undefined Reference
    QObject::property(const char*) const      - Undefined Reference
    _ZNK7QObject8propertyEPKc@QtCore{00040703}[2001b2dc].dll  - Undefined Reference
    QString::startsWith(const QLatin1String&, Qt::CaseSensitivity) const  - Undefined Reference
    _ZNK7QString10startsWithERK13QLatin1StringN2Qt15CaseSensitivityE@QtCore{00040703}[2001b2dc].dll  - Undefined Reference
    QString::toLocal8Bit() const              - Undefined Reference
    _ZNK7QString11toLocal8BitEv@QtCore{00040703}[2001b2dc].dll  - Undefined Reference
    QString::arg(long long, int, int, const QChar&) const  - Undefined Reference
    _ZNK7QString3argExiiRK5QChar@QtCore{00040703}[2001b2dc].dll  - Undefined Reference
    QString::utf16() const                    - Undefined Reference
    _ZNK7QString5utf16Ev@QtCore{00040703}[2001b2dc].dll  - Undefined Reference
    QString::toAscii() const                  - Undefined Reference
    _ZNK7QString7toAsciiEv@QtCore{00040703}[2001b2dc].dll  - Undefined Reference
    QString::toUpper() const                  - Undefined Reference
    _ZNK7QString7toUpperEv@QtCore{00040703}[2001b2dc].dll  - Undefined Reference
    QString::operator ==(const QLatin1String&) const  - Undefined Reference
    _ZNK7QStringeqERK13QLatin1String@QtCore{00040703}[2001b2dc].dll  - Undefined Reference
    QString::operator ==(const QString&) const  - Undefined Reference
    _ZNK7QStringeqERKS_@QtCore{00040703}[2001b2dc].dll  - Undefined Reference
    QString::operator <(const QString&) const  - Undefined Reference
    _ZNK7QStringltERKS_@QtCore{00040703}[2001b2dc].dll  - Undefined Reference
    QWidget::paintEngine() const              - Undefined Reference
    _ZNK7QWidget11paintEngineEv@QtGui{00040703}[2001b2dd].dll  - Undefined Reference
    QWidget::effectiveWinId() const           - Undefined Reference
    _ZNK7QWidget14effectiveWinIdEv@QtGui{00040703}[2001b2dd].dll  - Undefined Reference
    QWidget::heightForWidth(int) const        - Undefined Reference
    _ZNK7QWidget14heightForWidthEi@QtGui{00040703}[2001b2dd].dll  - Undefined Reference
    QWidget::minimumSizeHint() const          - Undefined Reference
    _ZNK7QWidget15minimumSizeHintEv@QtGui{00040703}[2001b2dd].dll  - Undefined Reference
    QWidget::inputMethodQuery(Qt::InputMethodQuery) const  - Undefined Reference
    _ZNK7QWidget16inputMethodQueryEN2Qt16InputMethodQueryE@QtGui{00040703}[2001b2dd].dll  - Undefined Reference
    QWidget::x() const                        - Undefined Reference
    _ZNK7QWidget1xEv@QtGui{00040703}[2001b2dd].dll  - Undefined Reference
    QWidget::y() const                        - Undefined Reference
    _ZNK7QWidget1yEv@QtGui{00040703}[2001b2dd].dll  - Undefined Reference
    QWidget::testAttribute_helper(Qt::WidgetAttribute) const  - Undefined Reference
    _ZNK7QWidget20testAttribute_helperEN2Qt15WidgetAttributeE@QtGui{00040703}[2001b2dd].dll  - Undefined Reference
    QWidget::winId() const                    - Undefined Reference
    _ZNK7QWidget5winIdEv@QtGui{00040703}[2001b2dd].dll  - Undefined Reference
    QWidget::metric(QPaintDevice::PaintDeviceMetric) const  - Undefined Reference
    _ZNK7QWidget6metricEN12QPaintDevice17PaintDeviceMetricE@QtGui{00040703}[2001b2dd].dll  - Undefined Reference
    QWidget::devType() const                  - Undefined Reference
    _ZNK7QWidget7devTypeEv@QtGui{00040703}[2001b2dd].dll  - Undefined Reference
    TDesC16::Left(int) const                  - Undefined Reference
    _ZNK7TDesC164LeftEi@euser{000a0000}[100039e5].dll  - Undefined Reference
    TDesC16::Compare(const TDesC16&) const    - Undefined Reference
    _ZNK7TDesC167CompareERKS_@euser{000a0000}[100039e5].dll  - Undefined Reference
    TDesC16::CompareF(const TDesC16&) const   - Undefined Reference
    _ZNK7TDesC168CompareFERKS_@euser{000a0000}[100039e5].dll  - Undefined Reference
    QVariant::type() const                    - Undefined Reference
    _ZNK8QVariant4typeEv@QtCore{00040703}[2001b2dc].dll  - Undefined Reference
    QVariant::toInt(bool*) const              - Undefined Reference
    _ZNK8QVariant5toIntEPb@QtCore{00040703}[2001b2dc].dll  - Undefined Reference
    QVariant::isNull() const                  - Undefined Reference
    _ZNK8QVariant6isNullEv@QtCore{00040703}[2001b2dc].dll  - Undefined Reference
    QVariant::toBool() const                  - Undefined Reference
    _ZNK8QVariant6toBoolEv@QtCore{00040703}[2001b2dc].dll  - Undefined Reference
    QVariant::toReal(bool*) const             - Undefined Reference
    _ZNK8QVariant6toRealEPb@QtCore{00040703}[2001b2dc].dll  - Undefined Reference
    QVariant::toString() const                - Undefined Reference
    _ZNK8QVariant8toStringEv@QtCore{00040703}[2001b2dc].dll  - Undefined Reference
    RProcess::SecureId() const                - Undefined Reference
    _ZNK8RProcess8SecureIdEv@euser{000a0000}[100039e5].dll  - Undefined Reference
    QResource::isCompressed() const           - Undefined Reference
    _ZNK9QResource12isCompressedEv@QtCore{00040703}[2001b2dc].dll  - Undefined Reference
    QResource::data() const                   - Undefined Reference
    _ZNK9QResource4dataEv@QtCore{00040703}[2001b2dc].dll  - Undefined Reference
    QResource::size() const                   - Undefined Reference
    _ZNK9QResource4sizeEv@QtCore{00040703}[2001b2dc].dll  - Undefined Reference
    QResource::isValid() const                - Undefined Reference
    _ZNK9QResource7isValidEv@QtCore{00040703}[2001b2dc].dll  - Undefined Reference
    TDataType::Des() const                    - Undefined Reference
    _ZNK9TDataType3DesEv@apmime{000a0000}[10003a1a].dll  - Undefined Reference
    typeinfo for CArrayFixBase                - Undefined Reference
    _ZTI13CArrayFixBase@euser{000a0000}[100039e5].dll  - Undefined Reference
    typeinfo for QObjectPrivate               - Undefined Reference
    _ZTI14QObjectPrivate@QtCore{00040703}[2001b2dc].dll  - Undefined Reference
    typeinfo for XLeaveException              - Undefined Reference
    _ZTI15XLeaveException@drtaeabi{000a0000}.dll  - Undefined Reference
    typeinfo for QObject                      - Undefined Reference
    _ZTI7QObject@QtCore{00040703}[2001b2dc].dll  - Undefined Reference
    typeinfo for QWidget                      - Undefined Reference
    _ZTI7QWidget@QtGui{00040703}[2001b2dd].dll  - Undefined Reference
    typeinfo for std::bad_alloc               - Undefined Reference
    _ZTISt9bad_alloc@stdnew{000a0000}[20022178].dll  - Undefined Reference
    vtable for __cxxabiv1::__class_type_info  - Undefined Reference
    _ZTVN10__cxxabiv117__class_type_infoE@drtaeabi{000a0000}.dll  - Undefined Reference
    vtable for __cxxabiv1::__si_class_type_info  - Undefined Reference
    _ZTVN10__cxxabiv120__si_class_type_infoE@drtaeabi{000a0000}.dll  - Undefined Reference
    vtable for __cxxabiv1::__vmi_class_type_info  - Undefined Reference
    _ZTVN10__cxxabiv121__vmi_class_type_infoE@drtaeabi{000a0000}.dll  - Undefined Reference
    thunk{-8} to QWidget::paintEngine() const  - Undefined Reference
    _ZThn8_NK7QWidget11paintEngineEv@QtGui{00040703}[2001b2dd].dll  - Undefined Reference
    thunk{-8} to QWidget::metric(QPaintDevice::PaintDeviceMetric) const  - Undefined Reference
    _ZThn8_NK7QWidget6metricEN12QPaintDevice17PaintDeviceMetricE@QtGui{00040703}[2001b2dd].dll  - Undefined Reference
    thunk{-8} to QWidget::devType() const     - Undefined Reference
    _ZThn8_NK7QWidget7devTypeEv@QtGui{00040703}[2001b2dd].dll  - Undefined Reference
    operator delete (void*)                   - Undefined Reference
    _ZdlPv@stdnew{000a0000}[20022178].dll     - Undefined Reference
    operator new(unsigned)                    - Undefined Reference
    _Znwj@stdnew{000a0000}[20022178].dll      - Undefined Reference
    __ARM_ll_cmple                            - Undefined Reference
    __ARM_ll_cmple@drtrvct2_2{000a0000}.dll   - Undefined Reference
    __ARM_ll_cmpu                             - Undefined Reference
    __ARM_ll_cmpu@drtrvct2_2{000a0000}.dll    - Undefined Reference
    __ARM_ll_mullu                            - Undefined Reference
    __ARM_ll_mullu@drtrvct2_2{000a0000}.dll   - Undefined Reference
    __aeabi_cfcmpeq                           - Undefined Reference
    __aeabi_cfcmpeq@dfpaeabi{000a0000}.dll    - Undefined Reference
    __aeabi_d2f                               - Undefined Reference
    __aeabi_d2f@dfpaeabi{000a0000}.dll        - Undefined Reference
    __aeabi_d2iz                              - Undefined Reference
    __aeabi_d2iz@dfpaeabi{000a0000}.dll       - Undefined Reference
    __aeabi_dadd                              - Undefined Reference
    __aeabi_dadd@dfpaeabi{000a0000}.dll       - Undefined Reference
    __aeabi_ddiv                              - Undefined Reference
    __aeabi_ddiv@dfpaeabi{000a0000}.dll       - Undefined Reference
    __aeabi_dmul                              - Undefined Reference
    __aeabi_dmul@dfpaeabi{000a0000}.dll       - Undefined Reference
    __aeabi_dsub                              - Undefined Reference
    __aeabi_dsub@dfpaeabi{000a0000}.dll       - Undefined Reference
    __aeabi_f2d                               - Undefined Reference
    __aeabi_f2d@dfpaeabi{000a0000}.dll        - Undefined Reference
    __aeabi_f2iz                              - Undefined Reference
    __aeabi_f2iz@dfpaeabi{000a0000}.dll       - Undefined Reference
    __aeabi_fdiv                              - Undefined Reference
    __aeabi_fdiv@dfpaeabi{000a0000}.dll       - Undefined Reference
    __aeabi_fmul                              - Undefined Reference
    __aeabi_fmul@dfpaeabi{000a0000}.dll       - Undefined Reference
    __aeabi_i2d                               - Undefined Reference
    __aeabi_i2d@dfpaeabi{000a0000}.dll        - Undefined Reference
    __aeabi_i2f                               - Undefined Reference
    __aeabi_i2f@dfpaeabi{000a0000}.dll        - Undefined Reference
    __aeabi_ldivmod                           - Undefined Reference
    __aeabi_ldivmod@drtaeabi{000a0000}.dll    - Undefined Reference
    __aeabi_memcpy4                           - Undefined Reference
    __aeabi_memcpy4@drtaeabi{000a0000}.dll    - Undefined Reference
    __aeabi_uidivmod                          - Undefined Reference
    __aeabi_uidivmod@drtaeabi{000a0000}.dll   - Undefined Reference
    __aeabi_unwind_cpp_pr0                    - Undefined Reference
    __aeabi_unwind_cpp_pr0@drtaeabi{000a0000}.dll  - Undefined Reference
    __aeabi_unwind_cpp_pr1                    - Undefined Reference
    __aeabi_unwind_cpp_pr1@drtaeabi{000a0000}.dll  - Undefined Reference
    __cxa_begin_catch                         - Undefined Reference
    __cxa_begin_catch@drtaeabi{000a0000}.dll  - Undefined Reference
    __cxa_end_catch                           - Undefined Reference
    __cxa_end_catch@drtaeabi{000a0000}.dll    - Undefined Reference
    __cxa_end_cleanup                         - Undefined Reference
    __cxa_end_cleanup@drtaeabi{000a0000}.dll  - Undefined Reference
    __cxa_guard_abort                         - Undefined Reference
    __cxa_guard_abort@drtaeabi{000a0000}.dll  - Undefined Reference
    __cxa_guard_acquire                       - Undefined Reference
    __cxa_guard_acquire@drtaeabi{000a0000}.dll  - Undefined Reference
    __cxa_guard_release                       - Undefined Reference
    __cxa_guard_release@drtaeabi{000a0000}.dll  - Undefined Reference
    __cxa_pure_virtual                        - Undefined Reference
    __cxa_pure_virtual@drtaeabi{000a0000}.dll  - Undefined Reference
    __cxa_rethrow                             - Undefined Reference
    __cxa_rethrow@drtaeabi{000a0000}.dll      - Undefined Reference
    memcmp                                    - Undefined Reference
    memcmp@libc{00010001}[10207369].dll       - Undefined Reference
    strcmp                                    - Undefined Reference
    strcmp@libc{00010001}[10207369].dll       - Undefined Reference
    Image$$ER_RO$$Base                       0x00008000   Number         0  anon$$obj.o(linker$$defined$$symbols)
    _E32Dll                                  0x00008000   ARM Code      40  uc_dll_.o(.emb_text)
    Symbian$$CPP$$Exception$$Descriptor      0x00008014   Data           0  uc_dll_.o(.emb_text)
    __cpp_initialize__aeabi_                 0x00008028   ARM Code      52  ucppinit.o(.emb_text)
    std::nothrow                             0x0000805c   ARM Code       0  ucppinit.o(.emb_text)
    __PLT                                    0x0000805c   ARM Code       0  anon$$obj.o(.plt)
    Phonon::MMF::AbstractAudioEffect::AbstractAudioEffect__sub_object(QObject*, const QList<Phonon::MMF::EffectParameter>&) 0x00008b15   Thumb Code    84  abstractaudioeffect.o(.text)
    Phonon::MMF::AbstractAudioEffect::parameters() const 0x00008b69   Thumb Code   152  abstractaudioeffect.o(.text)
    thunk{-20} to Phonon::MMF::AbstractAudioEffect::parameters() const 0x00008c01   Thumb Code    18  abstractaudioeffect.o(.text)
    Phonon::MMF::AbstractAudioEffect::parameterValue(const Phonon::EffectParameter&) const 0x00008c13   Thumb Code   166  abstractaudioeffect.o(.text)
    thunk{-20} to Phonon::MMF::AbstractAudioEffect::parameterValue(const Phonon::EffectParameter&) const 0x00008cb9   Thumb Code    22  abstractaudioeffect.o(.text)
    Phonon::MMF::AbstractAudioEffect::internalParameter(int) const 0x00008ccf   Thumb Code    96  abstractaudioeffect.o(.text)
    Phonon::MMF::AbstractAudioEffect::setEnabled(bool) 0x00008d2f   Thumb Code   166  abstractaudioeffect.o(.text)
    Phonon::MMF::AbstractAudioEffect::parameterChanged(const Phonon::MMF::EffectParameter&, const QVariant&) 0x00008dd5   Thumb Code   160  abstractaudioeffect.o(.text)
    Phonon::MMF::AbstractAudioEffect::setParameterValue(const Phonon::EffectParameter&, const QVariant&) 0x00008e75   Thumb Code    76  abstractaudioeffect.o(.text)
    thunk{-20} to Phonon::MMF::AbstractAudioEffect::setParameterValue(const Phonon::EffectParameter&, const QVariant&) 0x00008ec1   Thumb Code   124  abstractaudioeffect.o(.text)
    Phonon::MMF::AbstractAudioEffect::abstractPlayerChanged(Phonon::MMF::AbstractPlayer*) 0x00008f3d   Thumb Code    64  abstractaudioeffect.o(.text)
    Phonon::MMF::AbstractAudioEffect::createEffect() 0x00008f7d   Thumb Code   240  abstractaudioeffect.o(.text)
    Phonon::MMF::AbstractAudioEffect::stateChanged(Phonon::State, Phonon::State) 0x0000906d   Thumb Code    24  abstractaudioeffect.o(.text)
    Phonon::MMF::AbstractAudioEffect::connectMediaObject(Phonon::MMF::MediaObject*) 0x00009085   Thumb Code   162  abstractaudioeffect.o(.text)
    Phonon::MMF::AbstractAudioEffect::disconnectMediaObject(Phonon::MMF::MediaObject*) 0x00009127   Thumb Code    30  abstractaudioeffect.o(.text)
    Phonon::MMF::AbstractAudioEffect::effectParameterChanged(const Phonon::MMF::EffectParameter&, const QVariant&) 0x00009145   Thumb Code    32  abstractaudioeffect.o(.text)
    Phonon::MMF::AbstractMediaPlayer::AbstractMediaPlayer__sub_object(Phonon::MMF::MediaObject*, const Phonon::MMF::AbstractPlayer*) 0x000091e9   Thumb Code   272  abstractmediaplayer.o(.text)
    Phonon::MMF::AbstractMediaPlayer::open() 0x000092f9   Thumb Code  1232  abstractmediaplayer.o(.text)
    Phonon::MMF::AbstractMediaPlayer::close() 0x000097c9   Thumb Code    44  abstractmediaplayer.o(.text)
    Phonon::MMF::AbstractMediaPlayer::startPositionTimer() 0x000097f5   Thumb Code    30  abstractmediaplayer.o(.text)
    Phonon::MMF::AbstractMediaPlayer::startPlayback() 0x00009813   Thumb Code    30  abstractmediaplayer.o(.text)
    Phonon::MMF::AbstractMediaPlayer::setPending(Phonon::MMF::AbstractMediaPlayer::Pending) 0x00009831   Thumb Code    40  abstractmediaplayer.o(.text)
    Phonon::MMF::AbstractMediaPlayer::play() 0x00009859   Thumb Code   226  abstractmediaplayer.o(.text)
    Phonon::MMF::AbstractMediaPlayer::stopBufferStatusTimer() 0x0000993b   Thumb Code    20  abstractmediaplayer.o(.text)
    Phonon::MMF::AbstractMediaPlayer::stopPositionTimer() 0x0000994f   Thumb Code    20  abstractmediaplayer.o(.text)
    Phonon::MMF::AbstractMediaPlayer::stopTimers() 0x00009963   Thumb Code    18  abstractmediaplayer.o(.text)
    Phonon::MMF::AbstractMediaPlayer::pause() 0x00009975   Thumb Code   472  abstractmediaplayer.o(.text)
    Phonon::MMF::AbstractMediaPlayer::stop() 0x00009b4d   Thumb Code   208  abstractmediaplayer.o(.text)
    Phonon::MMF::AbstractMediaPlayer::resetMarksIfRewound() 0x00009c1d   Thumb Code   148  abstractmediaplayer.o(.text)
    Phonon::MMF::AbstractMediaPlayer::seek(long long) 0x00009cb1   Thumb Code   224  abstractmediaplayer.o(.text)
    Phonon::MMF::AbstractMediaPlayer::isSeekable() const 0x00009d91   Thumb Code     6  abstractmediaplayer.o(.text)
    Phonon::MMF::AbstractMediaPlayer::currentTime() const 0x00009d97   Thumb Code     8  abstractmediaplayer.o(.text)
    Phonon::MMF::AbstractMediaPlayer::doVolumeChanged() 0x00009d9f   Thumb Code   152  abstractmediaplayer.o(.text)
    Phonon::MMF::AbstractMediaPlayer::volumeChanged(float) 0x00009e37   Thumb Code   262  abstractmediaplayer.o(.text)
    Phonon::MMF::AbstractMediaPlayer::doSetTickInterval(int) 0x00009f3d   Thumb Code   128  abstractmediaplayer.o(.text)
    Phonon::MMF::AbstractMediaPlayer::phononState(Phonon::MMF::AbstractPlayer::PrivateState) const 0x00009fbd   Thumb Code    54  abstractmediaplayer.o(.text)
    Phonon::MMF::AbstractMediaPlayer::changeState(Phonon::MMF::AbstractPlayer::PrivateState) 0x00009ff3   Thumb Code   150  abstractmediaplayer.o(.text)
    Phonon::MMF::AbstractMediaPlayer::updateMetaData() 0x0000a089   Thumb Code   316  abstractmediaplayer.o(.text)
    Phonon::MMF::AbstractMediaPlayer::startBufferStatusTimer() 0x0000a1c5   Thumb Code    22  abstractmediaplayer.o(.text)
    Phonon::MMF::AbstractMediaPlayer::progressiveDownloadStalled() const 0x0000a1db   Thumb Code     8  abstractmediaplayer.o(.text)
    Phonon::MMF::AbstractMediaPlayer::bufferStatusTick() 0x0000a1e3   Thumb Code    40  abstractmediaplayer.o(.text)
    Phonon::MMF::AbstractMediaPlayer::bufferingStarted() 0x0000a20b   Thumb Code    36  abstractmediaplayer.o(.text)
    Phonon::MMF::AbstractMediaPlayer::bufferingComplete() 0x0000a22f   Thumb Code    40  abstractmediaplayer.o(.text)
    Phonon::MMF::AbstractMediaPlayer::maxVolumeChanged(int) 0x0000a257   Thumb Code    16  abstractmediaplayer.o(.text)
    Phonon::MMF::AbstractMediaPlayer::isProgressiveDownload() const 0x0000a267   Thumb Code    16  abstractmediaplayer.o(.text)
    Phonon::MMF::AbstractMediaPlayer::setProgressiveDownloadStalled() 0x0000a277   Thumb Code   234  abstractmediaplayer.o(.text)
    Phonon::MMF::AbstractMediaPlayer::loadingComplete(int) 0x0000a361   Thumb Code   248  abstractmediaplayer.o(.text)
    Phonon::MMF::AbstractMediaPlayer::playbackComplete(int) 0x0000a459   Thumb Code   398  abstractmediaplayer.o(.text)
    Phonon::MMF::AbstractMediaPlayer::toMilliSeconds(const TTimeIntervalMicroSeconds&) 0x0000a5e7   Thumb Code    28  abstractmediaplayer.o(.text)
    Phonon::MMF::AbstractMediaPlayer::emitMarksIfReached(long long) 0x0000a603   Thumb Code   154  abstractmediaplayer.o(.text)
    Phonon::MMF::AbstractMediaPlayer::positionTick() 0x0000a69d   Thumb Code    62  abstractmediaplayer.o(.text)
    Phonon::MMF::AbstractMediaPlayer::downloadLengthChanged(long long) 0x0000a6db   Thumb Code   312  abstractmediaplayer.o(.text)
    Phonon::MMF::AbstractMediaPlayer::downloadStateChanged(Phonon::MMF::Download::State) 0x0000a813   Thumb Code   204  abstractmediaplayer.o(.text)
    Phonon::MMF::AbstractPlayer::AbstractPlayer__sub_object(const Phonon::MMF::AbstractPlayer*) 0x0000a8fd   Thumb Code   104  abstractplayer.o(.text)
    Phonon::MMF::AbstractPlayer::tickInterval() const 0x0000a965   Thumb Code     6  abstractplayer.o(.text)
    Phonon::MMF::AbstractPlayer::setTickInterval(int) 0x0000a96b   Thumb Code    20  abstractplayer.o(.text)
    Phonon::MMF::AbstractPlayer::setTransitionTime(int) 0x0000a97f   Thumb Code     4  abstractplayer.o(.text)
    Phonon::MMF::AbstractPlayer::transitionTime() const 0x0000a983   Thumb Code     6  abstractplayer.o(.text)
    Phonon::MMF::AbstractPlayer::setPrefinishMark(int) 0x0000a989   Thumb Code     4  abstractplayer.o(.text)
    Phonon::MMF::AbstractPlayer::prefinishMark() const 0x0000a98d   Thumb Code     6  abstractplayer.o(.text)
    Phonon::MMF::AbstractPlayer::errorType() const 0x0000a993   Thumb Code    18  abstractplayer.o(.text)
    Phonon::MMF::AbstractPlayer::errorString() const 0x0000a9a5   Thumb Code    20  abstractplayer.o(.text)
    Phonon::MMF::AbstractPlayer::volumeChanged(float) 0x0000a9b9   Thumb Code     4  abstractplayer.o(.text)
    Phonon::MMF::AbstractPlayer::setVideoOutput(Phonon::MMF::AbstractVideoOutput*) 0x0000a9bd   Thumb Code    18  abstractplayer.o(.text)
    Phonon::MMF::AbstractPlayer::setError(const QString&) 0x0000a9cf   Thumb Code   112  abstractplayer.o(.text)
    Phonon::MMF::AbstractPlayer::setError(const QString&, int) 0x0000aa3f   Thumb Code   146  abstractplayer.o(.text)
    Phonon::MMF::AbstractPlayer::state() const 0x0000aad1   Thumb Code    16  abstractplayer.o(.text)
    Phonon::MMF::AbstractPlayer::phononState() const 0x0000aae1   Thumb Code    16  abstractplayer.o(.text)
    Phonon::MMF::AbstractPlayer::phononState(Phonon::MMF::AbstractPlayer::PrivateState) const 0x0000aaf1   Thumb Code    16  abstractplayer.o(.text)
    Phonon::MMF::AbstractPlayer::videoOutputChanged() 0x0000ab01   Thumb Code     2  abstractplayer.o(.text)
    Phonon::MMF::AbstractPlayer::privateState() const 0x0000ab03   Thumb Code     6  abstractplayer.o(.text)
    Phonon::MMF::AbstractPlayer::setState(Phonon::MMF::AbstractPlayer::PrivateState) 0x0000ab09   Thumb Code     4  abstractplayer.o(.text)
    Phonon::MMF::AbstractPlayer::changeState(Phonon::MMF::AbstractPlayer::PrivateState) 0x0000ab0d   Thumb Code   198  abstractplayer.o(.text)
    Phonon::MMF::AudioEqualizer::AudioEqualizer(QObject*, const QList<Phonon::MMF::EffectParameter>&) 0x0000ac89   Thumb Code    32  audioequalizer.o(.text)
    Phonon::MMF::AudioEqualizer::AudioEqualizer__sub_object(QObject*, const QList<Phonon::MMF::EffectParameter>&) 0x0000ac89   Thumb Code     0  audioequalizer.o(.text)
    Phonon::MMF::AudioEqualizer::description() 0x0000aca9   Thumb Code     4  audioequalizer.o(.text)
    Phonon::MMF::AudioEqualizer::getParameters(CMdaAudioOutputStream*, QList<Phonon::MMF::EffectParameter>&) 0x0000acad   Thumb Code   444  audioequalizer.o(.text)
    Phonon::MMF::AudioEqualizer::createEffect(CMdaAudioPlayerUtility*) 0x0000ae69   Thumb Code   110  audioequalizer.o(.text)
    Phonon::MMF::AudioEqualizer::concreteEffect() 0x0000aed7   Thumb Code     8  audioequalizer.o(.text)
    Phonon::MMF::AudioEqualizer::effectParameterChanged(const Phonon::MMF::EffectParameter&, const QVariant&) 0x0000aedf   Thumb Code   108  audioequalizer.o(.text)
    Phonon::MMF::AudioOutput::AudioOutput(Phonon::MMF::Backend*, QObject*) 0x0000af79   Thumb Code    38  audiooutput.o(.text)
    Phonon::MMF::AudioOutput::AudioOutput__sub_object(Phonon::MMF::Backend*, QObject*) 0x0000af79   Thumb Code     0  audiooutput.o(.text)
    Phonon::MMF::AudioOutput::volume() const 0x0000af9f   Thumb Code     6  audiooutput.o(.text)
    thunk{-20} to Phonon::MMF::AudioOutput::volume() const 0x0000afa5   Thumb Code    14  audiooutput.o(.text)
    Phonon::MMF::AudioOutput::setVolume(float) 0x0000afb3   Thumb Code   176  audiooutput.o(.text)
    thunk{-20} to Phonon::MMF::AudioOutput::setVolume(float) 0x0000b063   Thumb Code    18  audiooutput.o(.text)
    Phonon::MMF::AudioOutput::outputDevice() const 0x0000b075   Thumb Code     6  audiooutput.o(.text)
    thunk{-20} to Phonon::MMF::AudioOutput::outputDevice() const 0x0000b07b   Thumb Code    14  audiooutput.o(.text)
    Phonon::MMF::AudioOutput::setOutputDevice(int) 0x0000b089   Thumb Code    34  audiooutput.o(.text)
    thunk{-20} to Phonon::MMF::AudioOutput::setOutputDevice(int) 0x0000b0ab   Thumb Code    18  audiooutput.o(.text)
    Phonon::MMF::AudioOutput::audioOutputDescription(int) 0x0000b0bd   Thumb Code   516  audiooutput.o(.text)
    Phonon::MMF::AudioOutput::connectMediaObject(Phonon::MMF::MediaObject*) 0x0000b2c1   Thumb Code    50  audiooutput.o(.text)
    Phonon::MMF::AudioOutput::disconnectMediaObject(Phonon::MMF::MediaObject*) 0x0000b2f3   Thumb Code    20  audiooutput.o(.text)
    Phonon::MMF::AudioPlayer::construct()    0x0000b30d   Thumb Code   206  audioplayer.o(.text)
    Phonon::MMF::AudioPlayer::AudioPlayer(Phonon::MMF::MediaObject*, const Phonon::MMF::AbstractPlayer*) 0x0000b3db   Thumb Code    68  audioplayer.o(.text)
    Phonon::MMF::AudioPlayer::AudioPlayer__sub_object(Phonon::MMF::MediaObject*, const Phonon::MMF::AbstractPlayer*) 0x0000b3db   Thumb Code     0  audioplayer.o(.text)
    Phonon::MMF::AudioPlayer::~AudioPlayer() 0x0000b41f   Thumb Code   116  audioplayer.o(.text)
    Phonon::MMF::AudioPlayer::~AudioPlayer__sub_object() 0x0000b41f   Thumb Code     0  audioplayer.o(.text)
    Phonon::MMF::AudioPlayer::~AudioPlayer__deallocating() 0x0000b493   Thumb Code    22  audioplayer.o(.text)
    Phonon::MMF::AudioPlayer::nativePlayer() const 0x0000b4a9   Thumb Code     8  audioplayer.o(.text)
    Phonon::MMF::AudioPlayer::doPlay()       0x0000b4b1   Thumb Code    24  audioplayer.o(.text)
    Phonon::MMF::AudioPlayer::doPause()      0x0000b4c9   Thumb Code    20  audioplayer.o(.text)
    Phonon::MMF::AudioPlayer::doStop()       0x0000b4dd   Thumb Code    24  audioplayer.o(.text)
    Phonon::MMF::AudioPlayer::doSeek(long long) 0x0000b4f5   Thumb Code    54  audioplayer.o(.text)
    Phonon::MMF::AudioPlayer::setDeviceVolume(int) 0x0000b52b   Thumb Code    44  audioplayer.o(.text)
    Phonon::MMF::AudioPlayer::openFile(const QString&) 0x0000b557   Thumb Code   112  audioplayer.o(.text)
    Phonon::MMF::AudioPlayer::openFile(RFile&) 0x0000b5c7   Thumb Code    80  audioplayer.o(.text)
    Phonon::MMF::AudioPlayer::openUrl(const QString&, int) 0x0000b617   Thumb Code    18  audioplayer.o(.text)
    Phonon::MMF::AudioPlayer::openDescriptor(const TDesC8&) 0x0000b629   Thumb Code    80  audioplayer.o(.text)
    Phonon::MMF::AudioPlayer::bufferStatus() const 0x0000b679   Thumb Code   312  audioplayer.o(.text)
    Phonon::MMF::AudioPlayer::doClose()      0x0000b7b1   Thumb Code    20  audioplayer.o(.text)
    Phonon::MMF::AudioPlayer::hasVideo() const 0x0000b7c5   Thumb Code     6  audioplayer.o(.text)
    Phonon::MMF::AudioPlayer::totalTime() const 0x0000b7cb   Thumb Code     8  audioplayer.o(.text)
    Phonon::MMF::AudioPlayer::getCurrentTime() const 0x0000b7d3   Thumb Code   146  audioplayer.o(.text)
    Phonon::MMF::AudioPlayer::numberOfMetaDataEntries() const 0x0000b865   Thumb Code    28  audioplayer.o(.text)
    Phonon::MMF::AudioPlayer::metaDataEntry(int) const 0x0000b881   Thumb Code   160  audioplayer.o(.text)
    Phonon::MMF::AudioPlayer::MapcInitComplete(int, const TTimeIntervalMicroSeconds&) 0x0000b921   Thumb Code   218  audioplayer.o(.text)
    thunk{-100} to Phonon::MMF::AudioPlayer::MapcInitComplete(int, const TTimeIntervalMicroSeconds&) 0x0000b9fb   Thumb Code    22  audioplayer.o(.text)
    Phonon::MMF::AudioPlayer::MapcPlayComplete(int) 0x0000ba11   Thumb Code   108  audioplayer.o(.text)
    thunk{-100} to Phonon::MMF::AudioPlayer::MapcPlayComplete(int) 0x0000ba7d   Thumb Code    18  audioplayer.o(.text)
    Phonon::MMF::AudioPlayer::MaloLoadingStarted() 0x0000ba8f   Thumb Code    12  audioplayer.o(.text)
    thunk{-104} to Phonon::MMF::AudioPlayer::MaloLoadingStarted() 0x0000ba9b   Thumb Code    14  audioplayer.o(.text)
    Phonon::MMF::AudioPlayer::MaloLoadingComplete() 0x0000baa9   Thumb Code    12  audioplayer.o(.text)
    thunk{-104} to Phonon::MMF::AudioPlayer::MaloLoadingComplete() 0x0000bab5   Thumb Code    14  audioplayer.o(.text)
    Phonon::MMF::AbstractVideoOutput::~AbstractVideoOutput() 0x0000bb9d   Thumb Code    14  abstractvideooutput.o(.text)
    Phonon::MMF::AbstractVideoOutput::~AbstractVideoOutput__sub_object() 0x0000bb9d   Thumb Code     0  abstractvideooutput.o(.text)
    Phonon::MMF::AbstractVideoOutput::~AbstractVideoOutput__deallocating() 0x0000bbab   Thumb Code    22  abstractvideooutput.o(.text)
    thunk{-8} to Phonon::MMF::AbstractVideoOutput::~AbstractVideoOutput__deallocating() 0x0000bbc1   Thumb Code    14  abstractvideooutput.o(.text)
    thunk{-8} to Phonon::MMF::AbstractVideoOutput::~AbstractVideoOutput() 0x0000bbcf   Thumb Code    14  abstractvideooutput.o(.text)
    Phonon::MMF::AbstractVideoOutput::setVideoSize(const QSize&) 0x0000bbdd   Thumb Code   158  abstractvideooutput.o(.text)
    Phonon::MMF::AbstractVideoOutput::videoWindow() const 0x0000bc7b   Thumb Code    42  abstractvideooutput.o(.text)
    Phonon::MMF::AbstractVideoOutput::videoWindowSize() const 0x0000bca5   Thumb Code    66  abstractvideooutput.o(.text)
    Phonon::MMF::AbstractVideoOutput::aspectRatio() const 0x0000bce7   Thumb Code     6  abstractvideooutput.o(.text)
    Phonon::MMF::AbstractVideoOutput::setAspectRatio(Phonon::VideoWidget::AspectRatio) 0x0000bced   Thumb Code    22  abstractvideooutput.o(.text)
    Phonon::MMF::AbstractVideoOutput::scaleMode() const 0x0000bd03   Thumb Code     6  abstractvideooutput.o(.text)
    Phonon::MMF::AbstractVideoOutput::setScaleMode(Phonon::VideoWidget::ScaleMode) 0x0000bd09   Thumb Code    22  abstractvideooutput.o(.text)
    Phonon::MMF::AbstractVideoOutput::dump() const 0x0000bd1f   Thumb Code   164  abstractvideooutput.o(.text)
    Phonon::MMF::AbstractVideoOutput::AbstractVideoOutput(QWidget*) 0x0000bdc3   Thumb Code    68  abstractvideooutput.o(.text)
    Phonon::MMF::AbstractVideoOutput::AbstractVideoOutput__sub_object(QWidget*) 0x0000bdc3   Thumb Code     0  abstractvideooutput.o(.text)
    Phonon::MMF::AbstractVideoOutput::sizeHint() const 0x0000be07   Thumb Code    58  abstractvideooutput.o(.text)
    scaleToAspect(const QSize&, int, int)    0x0000be8d   Thumb Code   128  abstractvideoplayer.o(.text)
    Phonon::MMF::AbstractVideoPlayer::~AbstractVideoPlayer() 0x0000bf0d   Thumb Code     0  abstractvideoplayer.o(.text)
    Phonon::MMF::AbstractVideoPlayer::~AbstractVideoPlayer__sub_object() 0x0000bf0d   Thumb Code   118  abstractvideoplayer.o(.text)
    Phonon::MMF::AbstractVideoPlayer::~AbstractVideoPlayer__deallocating() 0x0000bf83   Thumb Code    22  abstractvideoplayer.o(.text)
    Phonon::MMF::AbstractVideoPlayer::nativePlayer() const 0x0000bf99   Thumb Code     8  abstractvideoplayer.o(.text)
    Phonon::MMF::AbstractVideoPlayer::handlePendingParametersChanged() 0x0000bfa1   Thumb Code    56  abstractvideoplayer.o(.text)
    Phonon::MMF::AbstractVideoPlayer::doPlay() 0x0000bfd9   Thumb Code    38  abstractvideoplayer.o(.text)
    Phonon::MMF::AbstractVideoPlayer::doPause() 0x0000bfff   Thumb Code   164  abstractvideoplayer.o(.text)
    Phonon::MMF::AbstractVideoPlayer::doStop() 0x0000c0a3   Thumb Code    20  abstractvideoplayer.o(.text)
    Phonon::MMF::AbstractVideoPlayer::doSeek(long long) 0x0000c0b7   Thumb Code   458  abstractvideoplayer.o(.text)
    Phonon::MMF::AbstractVideoPlayer::setDeviceVolume(int) 0x0000c281   Thumb Code    80  abstractvideoplayer.o(.text)
    Phonon::MMF::AbstractVideoPlayer::openFile(const QString&) 0x0000c2d1   Thumb Code   122  abstractvideoplayer.o(.text)
    Phonon::MMF::AbstractVideoPlayer::openFile(RFile&) 0x0000c34b   Thumb Code    92  abstractvideoplayer.o(.text)
    Phonon::MMF::AbstractVideoPlayer::openUrl(const QString&, int) 0x0000c3a7   Thumb Code   142  abstractvideoplayer.o(.text)
    Phonon::MMF::AbstractVideoPlayer::openDescriptor(const TDesC8&) 0x0000c435   Thumb Code    92  abstractvideoplayer.o(.text)
    Phonon::MMF::AbstractVideoPlayer::bufferStatus() const 0x0000c491   Thumb Code    76  abstractvideoplayer.o(.text)
    Phonon::MMF::AbstractVideoPlayer::doClose() 0x0000c4dd   Thumb Code    20  abstractvideoplayer.o(.text)
    Phonon::MMF::AbstractVideoPlayer::hasVideo() const 0x0000c4f1   Thumb Code     6  abstractvideoplayer.o(.text)
    Phonon::MMF::AbstractVideoPlayer::totalTime() const 0x0000c4f7   Thumb Code    12  abstractvideoplayer.o(.text)
    Phonon::MMF::AbstractVideoPlayer::videoWindowChanged() 0x0000c503   Thumb Code   138  abstractvideoplayer.o(.text)
    Phonon::MMF::AbstractVideoPlayer::videoOutputChanged() 0x0000c58d   Thumb Code   110  abstractvideoplayer.o(.text)
    Phonon::MMF::AbstractVideoPlayer::getCurrentTime() const 0x0000c5fb   Thumb Code   222  abstractvideoplayer.o(.text)
    Phonon::MMF::AbstractVideoPlayer::numberOfMetaDataEntries() const 0x0000c6d9   Thumb Code    74  abstractvideoplayer.o(.text)
    Phonon::MMF::AbstractVideoPlayer::metaDataEntry(int) const 0x0000c723   Thumb Code   160  abstractvideoplayer.o(.text)
    Phonon::MMF::AbstractVideoPlayer::parametersChanged(QFlags<Phonon::MMF::VideoParameter>) 0x0000c7c3   Thumb Code    86  abstractvideoplayer.o(.text)
    Phonon::MMF::AbstractVideoPlayer::updateScaleFactors(const QSize&, bool) 0x0000c819   Thumb Code   624  abstractvideoplayer.o(.text)
    Phonon::MMF::AbstractVideoPlayer::aspectRatioChanged() 0x0000ca89   Thumb Code   124  abstractvideoplayer.o(.text)
    Phonon::MMF::AbstractVideoPlayer::scaleModeChanged() 0x0000cb05   Thumb Code   124  abstractvideoplayer.o(.text)
    Phonon::MMF::AbstractVideoPlayer::AbstractVideoPlayer__sub_object(Phonon::MMF::MediaObject*, const Phonon::MMF::AbstractPlayer*) 0x0000cb81   Thumb Code   132  abstractvideoplayer.o(.text)
    Phonon::MMF::AbstractVideoPlayer::construct() 0x0000cc05   Thumb Code   138  abstractvideoplayer.o(.text)
    Phonon::MMF::AbstractVideoPlayer::initVideoOutput() 0x0000cc8f   Thumb Code   232  abstractvideoplayer.o(.text)
    Phonon::MMF::AbstractVideoPlayer::getVideoClipParametersL(int) 0x0000cd77   Thumb Code    92  abstractvideoplayer.o(.text)
    Phonon::MMF::AbstractVideoPlayer::MvpuoOpenComplete(int) 0x0000cdd3   Thumb Code   274  abstractvideoplayer.o(.text)
    thunk{-100} to Phonon::MMF::AbstractVideoPlayer::MvpuoOpenComplete(int) 0x0000cee5   Thumb Code    18  abstractvideoplayer.o(.text)
    Phonon::MMF::AbstractVideoPlayer::MvpuoPrepareComplete(int) 0x0000cef7   Thumb Code   298  abstractvideoplayer.o(.text)
    thunk{-100} to Phonon::MMF::AbstractVideoPlayer::MvpuoPrepareComplete(int) 0x0000d021   Thumb Code    18  abstractvideoplayer.o(.text)
    Phonon::MMF::AbstractVideoPlayer::MvpuoFrameReady(CFbsBitmap&, int) 0x0000d033   Thumb Code   112  abstractvideoplayer.o(.text)
    thunk{-100} to Phonon::MMF::AbstractVideoPlayer::MvpuoFrameReady(CFbsBitmap&, int) 0x0000d0a3   Thumb Code    22  abstractvideoplayer.o(.text)
    Phonon::MMF::AbstractVideoPlayer::MvpuoPlayComplete(int) 0x0000d0b9   Thumb Code   112  abstractvideoplayer.o(.text)
    thunk{-100} to Phonon::MMF::AbstractVideoPlayer::MvpuoPlayComplete(int) 0x0000d129   Thumb Code    18  abstractvideoplayer.o(.text)
    Phonon::MMF::AbstractVideoPlayer::MvpuoEvent(const TMMFEvent&) 0x0000d13b   Thumb Code   102  abstractvideoplayer.o(.text)
    thunk{-100} to Phonon::MMF::AbstractVideoPlayer::MvpuoEvent(const TMMFEvent&) 0x0000d1a1   Thumb Code    18  abstractvideoplayer.o(.text)
    Phonon::MMF::AbstractVideoPlayer::MvloLoadingStarted() 0x0000d1b3   Thumb Code    12  abstractvideoplayer.o(.text)
    thunk{-104} to Phonon::MMF::AbstractVideoPlayer::MvloLoadingStarted() 0x0000d1bf   Thumb Code    14  abstractvideoplayer.o(.text)
    Phonon::MMF::AbstractVideoPlayer::MvloLoadingComplete() 0x0000d1cd   Thumb Code    12  abstractvideoplayer.o(.text)
    thunk{-104} to Phonon::MMF::AbstractVideoPlayer::MvloLoadingComplete() 0x0000d1d9   Thumb Code    14  abstractvideoplayer.o(.text)
    getAvailableMimeTypesL(QStringList&)     0x0000d235   Thumb Code   204  backend.o(.text)
    qt_plugin_query_verification_data        0x0000d301   Thumb Code     4  backend.o(.text)
    Phonon::MMF::Backend::Backend(QObject*)  0x0000d305   Thumb Code   664  backend.o(.text)
    Phonon::MMF::Backend::Backend__sub_object(QObject*) 0x0000d305   Thumb Code     0  backend.o(.text)
    qt_plugin_instance                       0x0000d59d   Thumb Code   122  backend.o(.text)
    Phonon::MMF::Backend::createObject(Phonon::BackendInterface::Class, QObject*, const QList<QVariant>&) 0x0000d617   Thumb Code   454  backend.o(.text)
    thunk{-8} to Phonon::MMF::Backend::createObject(Phonon::BackendInterface::Class, QObject*, const QList<QVariant>&) 0x0000d7dd   Thumb Code    26  backend.o(.text)
    Phonon::MMF::Backend::objectDescriptionIndexes(Phonon::ObjectDescriptionType) const 0x0000d7f7   Thumb Code   170  backend.o(.text)
    thunk{-8} to Phonon::MMF::Backend::objectDescriptionIndexes(Phonon::ObjectDescriptionType) const 0x0000d8a1   Thumb Code    22  backend.o(.text)
    Phonon::MMF::Backend::objectDescriptionProperties(Phonon::ObjectDescriptionType, int) const 0x0000d8b7   Thumb Code    84  backend.o(.text)
    thunk{-8} to Phonon::MMF::Backend::objectDescriptionProperties(Phonon::ObjectDescriptionType, int) const 0x0000d90b   Thumb Code    26  backend.o(.text)
    Phonon::MMF::Backend::startConnectionChange(QSet<QObject*>) 0x0000d925   Thumb Code     6  backend.o(.text)
    thunk{-8} to Phonon::MMF::Backend::startConnectionChange(QSet<QObject*>) 0x0000d92b   Thumb Code   250  backend.o(.text)
    Phonon::MMF::Backend::connectNodes(QObject*, QObject*) 0x0000da25   Thumb Code   134  backend.o(.text)
    thunk{-8} to Phonon::MMF::Backend::connectNodes(QObject*, QObject*) 0x0000daab   Thumb Code    22  backend.o(.text)
    Phonon::MMF::Backend::disconnectNodes(QObject*, QObject*) 0x0000dac1   Thumb Code   134  backend.o(.text)
    thunk{-8} to Phonon::MMF::Backend::disconnectNodes(QObject*, QObject*) 0x0000db47   Thumb Code    22  backend.o(.text)
    Phonon::MMF::Backend::endConnectionChange(QSet<QObject*>) 0x0000db5d   Thumb Code     6  backend.o(.text)
    thunk{-8} to Phonon::MMF::Backend::endConnectionChange(QSet<QObject*>) 0x0000db63   Thumb Code    18  backend.o(.text)
    Phonon::MMF::Backend::availableMimeTypes() const 0x0000db75   Thumb Code    88  backend.o(.text)
    thunk{-8} to Phonon::MMF::Backend::availableMimeTypes() const 0x0000dbcd   Thumb Code    18  backend.o(.text)
    Phonon::MMF::BassBoost::BassBoost(QObject*, const QList<Phonon::MMF::EffectParameter>&) 0x0000dc5d   Thumb Code    32  bassboost.o(.text)
    Phonon::MMF::BassBoost::BassBoost__sub_object(QObject*, const QList<Phonon::MMF::EffectParameter>&) 0x0000dc5d   Thumb Code     0  bassboost.o(.text)
    Phonon::MMF::BassBoost::description()    0x0000dc7d   Thumb Code     4  bassboost.o(.text)
    Phonon::MMF::BassBoost::getParameters(CMdaAudioOutputStream*, QList<Phonon::MMF::EffectParameter>&) 0x0000dc81   Thumb Code   132  bassboost.o(.text)
    Phonon::MMF::BassBoost::createEffect(CMdaAudioPlayerUtility*) 0x0000dd05   Thumb Code   112  bassboost.o(.text)
    Phonon::MMF::BassBoost::concreteEffect() 0x0000dd75   Thumb Code     8  bassboost.o(.text)
    Phonon::MMF::DummyPlayer::DummyPlayer(const Phonon::MMF::AbstractPlayer*) 0x0000dd8d   Thumb Code    24  dummyplayer.o(.text)
    Phonon::MMF::DummyPlayer::DummyPlayer__sub_object(const Phonon::MMF::AbstractPlayer*) 0x0000dd8d   Thumb Code     0  dummyplayer.o(.text)
    Phonon::MMF::DummyPlayer::play()         0x0000dda5   Thumb Code     2  dummyplayer.o(.text)
    Phonon::MMF::DummyPlayer::pause()        0x0000dda7   Thumb Code     2  dummyplayer.o(.text)
    Phonon::MMF::DummyPlayer::stop()         0x0000dda9   Thumb Code     2  dummyplayer.o(.text)
    Phonon::MMF::DummyPlayer::seek(long long) 0x0000ddab   Thumb Code     4  dummyplayer.o(.text)
    Phonon::MMF::DummyPlayer::hasVideo() const 0x0000ddaf   Thumb Code     6  dummyplayer.o(.text)
    Phonon::MMF::DummyPlayer::isSeekable() const 0x0000ddb5   Thumb Code     6  dummyplayer.o(.text)
    Phonon::MMF::DummyPlayer::currentTime() const 0x0000ddbb   Thumb Code     8  dummyplayer.o(.text)
    Phonon::MMF::DummyPlayer::state() const  0x0000ddc3   Thumb Code     6  dummyplayer.o(.text)
    Phonon::MMF::DummyPlayer::errorType() const 0x0000ddc9   Thumb Code     6  dummyplayer.o(.text)
    Phonon::MMF::DummyPlayer::totalTime() const 0x0000ddcf   Thumb Code     8  dummyplayer.o(.text)
    Phonon::MMF::DummyPlayer::open()         0x0000ddd7   Thumb Code     2  dummyplayer.o(.text)
    Phonon::MMF::DummyPlayer::close()        0x0000ddd9   Thumb Code     2  dummyplayer.o(.text)
    Phonon::MMF::DummyPlayer::doSetTickInterval(int) 0x0000dddb   Thumb Code     2  dummyplayer.o(.text)
    Phonon::MMF::EffectFactory::EffectFactory(QObject*) 0x0000dde9   Thumb Code    50  effectfactory.o(.text)
    Phonon::MMF::EffectFactory::EffectFactory__sub_object(QObject*) 0x0000dde9   Thumb Code     0  effectfactory.o(.text)
    Phonon::MMF::EffectFactory::~EffectFactory() 0x0000de1b   Thumb Code    30  effectfactory.o(.text)
    Phonon::MMF::EffectFactory::~EffectFactory__sub_object() 0x0000de1b   Thumb Code     0  effectfactory.o(.text)
    Phonon::MMF::EffectFactory::~EffectFactory__deallocating() 0x0000de39   Thumb Code    22  effectfactory.o(.text)
    Phonon::MMF::EffectFactory::data(Phonon::MMF::EffectFactory::Type) const 0x0000de4f   Thumb Code    80  effectfactory.o(.text)
    Phonon::MMF::EffectFactory::initialize() 0x0000de9f   Thumb Code   198  effectfactory.o(.text)
    Phonon::MMF::EffectFactory::createAudioEffect(Phonon::MMF::EffectFactory::Type, QObject*) 0x0000df65   Thumb Code   286  effectfactory.o(.text)
    Phonon::MMF::EffectFactory::audioEffectDescriptions(Phonon::MMF::EffectFactory::Type) 0x0000e083   Thumb Code    42  effectfactory.o(.text)
    Phonon::MMF::EffectFactory::effectIndexes() 0x0000e0ad   Thumb Code   188  effectfactory.o(.text)
    Phonon::MMF::EffectParameter::EffectParameter() 0x0000e1f5   Thumb Code    34  effectparameter.o(.text)
    Phonon::MMF::EffectParameter::EffectParameter__sub_object() 0x0000e1f5   Thumb Code     0  effectparameter.o(.text)
    Phonon::MMF::EffectParameter::EffectParameter(int, const QString&, QFlags<Phonon::EffectParameter::Hint>, const QVariant&, const QVariant&, const QVariant&, const QList<QVariant>&, const QString&) 0x0000e217   Thumb Code    72  effectparameter.o(.text)
    Phonon::MMF::EffectParameter::EffectParameter__sub_object(int, const QString&, QFlags<Phonon::EffectParameter::Hint>, const QVariant&, const QVariant&, const QVariant&, const QList<QVariant>&, const QString&) 0x0000e217   Thumb Code     0  effectparameter.o(.text)
    Phonon::MMF::EffectParameter::setInternalRange(int, int) 0x0000e25f   Thumb Code    58  effectparameter.o(.text)
    Phonon::MMF::EffectParameter::toInternalValue(float) const 0x0000e299   Thumb Code   128  effectparameter.o(.text)
    Phonon::MMF::EffectParameter::toExternalValue(int, int, int) 0x0000e319   Thumb Code   142  effectparameter.o(.text)
    createParameter(int, const QString&, int, int, int, Phonon::EffectParameter::Hint) 0x0000e42d   Thumb Code   156  environmentalreverb.o(.text)
    Phonon::MMF::EnvironmentalReverb::EnvironmentalReverb(QObject*, const QList<Phonon::MMF::EffectParameter>&) 0x0000e4c9   Thumb Code    32  environmentalreverb.o(.text)
    Phonon::MMF::EnvironmentalReverb::EnvironmentalReverb__sub_object(QObject*, const QList<Phonon::MMF::EffectParameter>&) 0x0000e4c9   Thumb Code     0  environmentalreverb.o(.text)
    Phonon::MMF::EnvironmentalReverb::description() 0x0000e4e9   Thumb Code     4  environmentalreverb.o(.text)
    Phonon::MMF::EnvironmentalReverb::getParameters(CMdaAudioOutputStream*, QList<Phonon::MMF::EffectParameter>&) 0x0000e4ed   Thumb Code  1120  environmentalreverb.o(.text)
    Phonon::MMF::EnvironmentalReverb::createEffect(CMdaAudioPlayerUtility*) 0x0000e94d   Thumb Code   110  environmentalreverb.o(.text)
    Phonon::MMF::EnvironmentalReverb::concreteEffect() 0x0000e9bb   Thumb Code     8  environmentalreverb.o(.text)
    Phonon::MMF::EnvironmentalReverb::effectParameterChanged(const Phonon::MMF::EffectParameter&, const QVariant&) 0x0000e9c3   Thumb Code   870  environmentalreverb.o(.text)
    Phonon::MMF::Loudness::Loudness(QObject*, const QList<Phonon::MMF::EffectParameter>&) 0x0000ed29   Thumb Code    32  loudness.o(.text)
    Phonon::MMF::Loudness::Loudness__sub_object(QObject*, const QList<Phonon::MMF::EffectParameter>&) 0x0000ed29   Thumb Code     0  loudness.o(.text)
    Phonon::MMF::Loudness::description()     0x0000ed49   Thumb Code     4  loudness.o(.text)
    Phonon::MMF::Loudness::getParameters(CMdaAudioOutputStream*, QList<Phonon::MMF::EffectParameter>&) 0x0000ed4d   Thumb Code   132  loudness.o(.text)
    Phonon::MMF::Loudness::createEffect(CMdaAudioPlayerUtility*) 0x0000edd1   Thumb Code   112  loudness.o(.text)
    Phonon::MMF::Loudness::concreteEffect()  0x0000ee41   Thumb Code     8  loudness.o(.text)
    Phonon::MMF::MediaObject::MediaObject(QObject*) 0x0000ee59   Thumb Code   314  mediaobject.o(.text)
    Phonon::MMF::MediaObject::MediaObject__sub_object(QObject*) 0x0000ee59   Thumb Code     0  mediaobject.o(.text)
    Phonon::MMF::MediaObject::~MediaObject() 0x0000ef93   Thumb Code   234  mediaobject.o(.text)
    Phonon::MMF::MediaObject::~MediaObject__sub_object() 0x0000ef93   Thumb Code     0  mediaobject.o(.text)
    Phonon::MMF::MediaObject::~MediaObject__deallocating() 0x0000f07d   Thumb Code    22  mediaobject.o(.text)
    thunk{-20} to Phonon::MMF::MediaObject::~MediaObject__deallocating() 0x0000f093   Thumb Code    14  mediaobject.o(.text)
    thunk{-20} to Phonon::MMF::MediaObject::~MediaObject() 0x0000f0a1   Thumb Code    14  mediaobject.o(.text)
    Phonon::MMF::MediaObject::play()         0x0000f0af   Thumb Code    24  mediaobject.o(.text)
    thunk{-20} to Phonon::MMF::MediaObject::play() 0x0000f0c7   Thumb Code    14  mediaobject.o(.text)
    Phonon::MMF::MediaObject::pause()        0x0000f0d5   Thumb Code    24  mediaobject.o(.text)
    thunk{-20} to Phonon::MMF::MediaObject::pause() 0x0000f0ed   Thumb Code    14  mediaobject.o(.text)
    Phonon::MMF::MediaObject::stop()         0x0000f0fb   Thumb Code    24  mediaobject.o(.text)
    thunk{-20} to Phonon::MMF::MediaObject::stop() 0x0000f113   Thumb Code    14  mediaobject.o(.text)
    Phonon::MMF::MediaObject::seek(long long) 0x0000f121   Thumb Code    78  mediaobject.o(.text)
    thunk{-20} to Phonon::MMF::MediaObject::seek(long long) 0x0000f16f   Thumb Code    18  mediaobject.o(.text)
    Phonon::MMF::MediaObject::tickInterval() const 0x0000f181   Thumb Code    20  mediaobject.o(.text)
    thunk{-20} to Phonon::MMF::MediaObject::tickInterval() const 0x0000f195   Thumb Code    14  mediaobject.o(.text)
    Phonon::MMF::MediaObject::setTickInterval(int) 0x0000f1a3   Thumb Code    24  mediaobject.o(.text)
    thunk{-20} to Phonon::MMF::MediaObject::setTickInterval(int) 0x0000f1bb   Thumb Code    18  mediaobject.o(.text)
    Phonon::MMF::MediaObject::hasVideo() const 0x0000f1cd   Thumb Code    24  mediaobject.o(.text)
    thunk{-20} to Phonon::MMF::MediaObject::hasVideo() const 0x0000f1e5   Thumb Code    14  mediaobject.o(.text)
    Phonon::MMF::MediaObject::isSeekable() const 0x0000f1f3   Thumb Code   258  mediaobject.o(.text)
    thunk{-20} to Phonon::MMF::MediaObject::isSeekable() const 0x0000f2f5   Thumb Code    14  mediaobject.o(.text)
    Phonon::MMF::MediaObject::currentTime() const 0x0000f303   Thumb Code    28  mediaobject.o(.text)
    thunk{-20} to Phonon::MMF::MediaObject::currentTime() const 0x0000f31f   Thumb Code    18  mediaobject.o(.text)
    Phonon::MMF::MediaObject::state() const  0x0000f331   Thumb Code    20  mediaobject.o(.text)
    thunk{-20} to Phonon::MMF::MediaObject::state() const 0x0000f345   Thumb Code    14  mediaobject.o(.text)
    Phonon::MMF::MediaObject::errorString() const 0x0000f353   Thumb Code    28  mediaobject.o(.text)
    thunk{-20} to Phonon::MMF::MediaObject::errorString() const 0x0000f36f   Thumb Code    18  mediaobject.o(.text)
    Phonon::MMF::MediaObject::errorType() const 0x0000f381   Thumb Code    24  mediaobject.o(.text)
    thunk{-20} to Phonon::MMF::MediaObject::errorType() const 0x0000f399   Thumb Code    14  mediaobject.o(.text)
    Phonon::MMF::MediaObject::totalTime() const 0x0000f3a7   Thumb Code    28  mediaobject.o(.text)
    thunk{-20} to Phonon::MMF::MediaObject::totalTime() const 0x0000f3c3   Thumb Code    18  mediaobject.o(.text)
    Phonon::MMF::MediaObject::source() const 0x0000f3d5   Thumb Code    20  mediaobject.o(.text)
    thunk{-20} to Phonon::MMF::MediaObject::source() const 0x0000f3e9   Thumb Code    18  mediaobject.o(.text)
    Phonon::MMF::MediaObject::openRecognizer() 0x0000f3fb   Thumb Code   144  mediaobject.o(.text)
    Phonon::MMF::MediaObject::bufferMediaType(const unsigned char*, long long) 0x0000f48b   Thumb Code   162  mediaobject.o(.text)
    Phonon::MMF::MediaObject::openFileHandle(const QString&) 0x0000f52d   Thumb Code   196  mediaobject.o(.text)
    Phonon::MMF::MediaObject::fileMediaType(const QString&) 0x0000f5f1   Thumb Code   236  mediaobject.o(.text)
    Phonon::MMF::MediaObject::createPlayer(const Phonon::MediaSource&) 0x0000f6dd   Thumb Code  1998  mediaobject.o(.text)
    Phonon::MMF::MediaObject::switchToSource(const Phonon::MediaSource&) 0x0000feab   Thumb Code    98  mediaobject.o(.text)
    Phonon::MMF::MediaObject::setSource(const Phonon::MediaSource&) 0x0000ff0d   Thumb Code    16  mediaobject.o(.text)
    thunk{-20} to Phonon::MMF::MediaObject::setSource(const Phonon::MediaSource&) 0x0000ff1d   Thumb Code    18  mediaobject.o(.text)
    Phonon::MMF::MediaObject::setNextSource(const Phonon::MediaSource&) 0x0000ff2f   Thumb Code    24  mediaobject.o(.text)
    thunk{-20} to Phonon::MMF::MediaObject::setNextSource(const Phonon::MediaSource&) 0x0000ff47   Thumb Code    18  mediaobject.o(.text)
    Phonon::MMF::MediaObject::prefinishMark() const 0x0000ff59   Thumb Code    20  mediaobject.o(.text)
    thunk{-20} to Phonon::MMF::MediaObject::prefinishMark() const 0x0000ff6d   Thumb Code    14  mediaobject.o(.text)
    Phonon::MMF::MediaObject::setPrefinishMark(int) 0x0000ff7b   Thumb Code    24  mediaobject.o(.text)
    thunk{-20} to Phonon::MMF::MediaObject::setPrefinishMark(int) 0x0000ff93   Thumb Code    18  mediaobject.o(.text)
    Phonon::MMF::MediaObject::transitionTime() const 0x0000ffa5   Thumb Code    20  mediaobject.o(.text)
    thunk{-20} to Phonon::MMF::MediaObject::transitionTime() const 0x0000ffb9   Thumb Code    14  mediaobject.o(.text)
    Phonon::MMF::MediaObject::setTransitionTime(int) 0x0000ffc7   Thumb Code    24  mediaobject.o(.text)
    thunk{-20} to Phonon::MMF::MediaObject::setTransitionTime(int) 0x0000ffdf   Thumb Code    18  mediaobject.o(.text)
    Phonon::MMF::MediaObject::connectMediaObject(Phonon::MMF::MediaObject*) 0x0000fff1   Thumb Code    24  mediaobject.o(.text)
    Phonon::MMF::MediaObject::disconnectMediaObject(Phonon::MMF::MediaObject*) 0x00010009   Thumb Code    24  mediaobject.o(.text)
    Phonon::MMF::MediaObject::abstractPlayer() const 0x00010021   Thumb Code     8  mediaobject.o(.text)
    Phonon::MMF::MediaObject::setVideoOutput(Phonon::MMF::AbstractVideoOutput*) 0x00010029   Thumb Code    24  mediaobject.o(.text)
    Phonon::MMF::MediaObject::file() const   0x00010041   Thumb Code     6  mediaobject.o(.text)
    Phonon::MMF::MediaObject::resource() const 0x00010047   Thumb Code     6  mediaobject.o(.text)
    Phonon::MMF::MediaObject::currentIAP() const 0x0001004d   Thumb Code     6  mediaobject.o(.text)
    Phonon::MMF::MediaObject::volumeChanged(float) 0x00010053   Thumb Code    28  mediaobject.o(.text)
    Phonon::MMF::MediaObject::switchToNextSource() 0x0001006f   Thumb Code   170  mediaobject.o(.text)
    Phonon::MMF::MediaObject::setIAPIdFromNameL(const QString&) 0x00010119   Thumb Code   296  mediaobject.o(.text)
    Phonon::MMF::MediaObject::eventFilter(QObject*, QEvent*) 0x00010241   Thumb Code   276  mediaobject.o(.text)
    Phonon::MMF::MediaObject::handlePrefinishMarkReached(int) 0x00010355   Thumb Code    22  mediaobject.o(.text)
    Phonon::MMF::MediaNode::MediaNode__sub_object(QObject*) 0x000103fd   Thumb Code    64  mmf_medianode.o(.text)
    Phonon::MMF::MediaNode::~MediaNode()     0x0001043d   Thumb Code     0  mmf_medianode.o(.text)
    Phonon::MMF::MediaNode::~MediaNode__sub_object() 0x0001043d   Thumb Code    54  mmf_medianode.o(.text)
    Phonon::MMF::MediaNode::~MediaNode__deallocating() 0x00010473   Thumb Code    22  mmf_medianode.o(.text)
    Phonon::MMF::MediaNode::isMediaObject() const 0x00010489   Thumb Code    44  mmf_medianode.o(.text)
    Phonon::MMF::MediaNode::setMediaObject(Phonon::MMF::MediaObject*) 0x000104b5   Thumb Code    76  mmf_medianode.o(.text)
    Phonon::MMF::MediaNode::visit(QList<Phonon::MMF::MediaNode*>&, Phonon::MMF::MediaObject*&) 0x00010501   Thumb Code   234  mmf_medianode.o(.text)
    Phonon::MMF::MediaNode::updateMediaObject() 0x000105eb   Thumb Code   136  mmf_medianode.o(.text)
    Phonon::MMF::MediaNode::connectOutput(Phonon::MMF::MediaNode*) 0x00010673   Thumb Code   154  mmf_medianode.o(.text)
    Phonon::MMF::MediaNode::disconnectOutput(Phonon::MMF::MediaNode*) 0x0001070d   Thumb Code   416  mmf_medianode.o(.text)
    Phonon::MMF::StereoWidening::StereoWidening(QObject*, const QList<Phonon::MMF::EffectParameter>&) 0x000108ad   Thumb Code    32  stereowidening.o(.text)
    Phonon::MMF::StereoWidening::StereoWidening__sub_object(QObject*, const QList<Phonon::MMF::EffectParameter>&) 0x000108ad   Thumb Code     0  stereowidening.o(.text)
    Phonon::MMF::StereoWidening::description() 0x000108cd   Thumb Code     4  stereowidening.o(.text)
    Phonon::MMF::StereoWidening::getParameters(CMdaAudioOutputStream*, QList<Phonon::MMF::EffectParameter>&) 0x000108d1   Thumb Code   348  stereowidening.o(.text)
    Phonon::MMF::StereoWidening::createEffect(CMdaAudioPlayerUtility*) 0x00010a2d   Thumb Code   114  stereowidening.o(.text)
    Phonon::MMF::StereoWidening::concreteEffect() 0x00010a9f   Thumb Code     8  stereowidening.o(.text)
    Phonon::MMF::StereoWidening::parameterChanged(const Phonon::MMF::EffectParameter&, const QVariant&) 0x00010aa7   Thumb Code   128  stereowidening.o(.text)
    ObjectDump::QDumperBase::~QDumperBase()  0x00010bb1   Thumb Code   128  objectdump.o(.text)
    ObjectDump::QDumperBase::~QDumperBase__sub_object() 0x00010bb1   Thumb Code     0  objectdump.o(.text)
    ObjectDump::QDumperPrivate::~QDumperPrivate() 0x00010c31   Thumb Code    14  objectdump.o(.text)
    ObjectDump::QDumperPrivate::~QDumperPrivate__sub_object() 0x00010c31   Thumb Code     0  objectdump.o(.text)
    ObjectDump::QVisitorPrivate::Node::~Node() 0x00010c3f   Thumb Code   292  objectdump.o(.text)
    ObjectDump::QVisitorPrivate::Node::~Node__sub_object() 0x00010c3f   Thumb Code     0  objectdump.o(.text)
    ObjectDump::QVisitorPrivate::~QVisitorPrivate() 0x00010d63   Thumb Code    38  objectdump.o(.text)
    ObjectDump::QVisitorPrivate::~QVisitorPrivate__sub_object() 0x00010d63   Thumb Code     0  objectdump.o(.text)
    ObjectDump::QAnnotator::~QAnnotator()    0x00010d89   Thumb Code     0  objectdump.o(.text)
    ObjectDump::QAnnotator::~QAnnotator__sub_object() 0x00010d89   Thumb Code    14  objectdump.o(.text)
    ObjectDump::QAnnotator::~QAnnotator__deallocating() 0x00010d97   Thumb Code    22  objectdump.o(.text)
    ObjectDump::QAnnotatorBasic::annotation(const QObject&) 0x00010dad   Thumb Code   278  objectdump.o(.text)
    ObjectDump::QAnnotatorWidget::annotation(const QObject&) 0x00010ec3   Thumb Code   340  objectdump.o(.text)
    ObjectDump::QDumperBase::QDumperBase()   0x00011017   Thumb Code    30  objectdump.o(.text)
    ObjectDump::QDumperBase::QDumperBase__sub_object() 0x00011017   Thumb Code     0  objectdump.o(.text)
    ObjectDump::QDumperPrivate::QDumperPrivate() 0x00011035   Thumb Code    14  objectdump.o(.text)
    ObjectDump::QDumperPrivate::QDumperPrivate__sub_object() 0x00011035   Thumb Code     0  objectdump.o(.text)
    ObjectDump::QDumper::QDumper()           0x00011043   Thumb Code    52  objectdump.o(.text)
    ObjectDump::QDumper::QDumper__sub_object() 0x00011043   Thumb Code     0  objectdump.o(.text)
    ObjectDump::QDumper::~QDumper()          0x00011077   Thumb Code    30  objectdump.o(.text)
    ObjectDump::QDumper::~QDumper__sub_object() 0x00011077   Thumb Code     0  objectdump.o(.text)
    ObjectDump::QDumper::~QDumper__deallocating() 0x00011095   Thumb Code    22  objectdump.o(.text)
    ObjectDump::QDumperBase::setPrefix(const QString&) 0x000110ab   Thumb Code   152  objectdump.o(.text)
    ObjectDump::QDumper::setPrefix(const QString&) 0x00011143   Thumb Code    28  objectdump.o(.text)
    ObjectDump::QDumperBase::addAnnotator(ObjectDump::QAnnotator*) 0x0001115f   Thumb Code    38  objectdump.o(.text)
    ObjectDump::QDumper::addAnnotator(ObjectDump::QAnnotator*) 0x00011185   Thumb Code    28  objectdump.o(.text)
    ObjectDump::QDumperPrivate::dumpObject(const QObject&) 0x000111a1   Thumb Code   522  objectdump.o(.text)
    ObjectDump::QDumper::dumpObject(const QObject&) 0x000113ab   Thumb Code    28  objectdump.o(.text)
    ObjectDump::QVisitorPrivate::QVisitorPrivate() 0x000113c7   Thumb Code    54  objectdump.o(.text)
    ObjectDump::QVisitorPrivate::QVisitorPrivate__sub_object() 0x000113c7   Thumb Code     0  objectdump.o(.text)
    ObjectDump::QVisitor::QVisitor()         0x000113fd   Thumb Code    52  objectdump.o(.text)
    ObjectDump::QVisitor::QVisitor__sub_object() 0x000113fd   Thumb Code     0  objectdump.o(.text)
    ObjectDump::QVisitor::~QVisitor()        0x00011431   Thumb Code    30  objectdump.o(.text)
    ObjectDump::QVisitor::~QVisitor__sub_object() 0x00011431   Thumb Code     0  objectdump.o(.text)
    ObjectDump::QVisitor::~QVisitor__deallocating() 0x0001144f   Thumb Code    22  objectdump.o(.text)
    ObjectDump::QVisitor::setPrefix(const QString&) 0x00011465   Thumb Code    28  objectdump.o(.text)
    ObjectDump::QVisitorPrivate::setIndent(unsigned) 0x00011481   Thumb Code     4  objectdump.o(.text)
    ObjectDump::QVisitor::setIndent(unsigned) 0x00011485   Thumb Code    28  objectdump.o(.text)
    ObjectDump::QVisitor::visitPrepare()     0x000114a1   Thumb Code     2  objectdump.o(.text)
    ObjectDump::QVisitorPrivate::Node::Node() 0x000114a3   Thumb Code    30  objectdump.o(.text)
    ObjectDump::QVisitorPrivate::Node::Node__sub_object() 0x000114a3   Thumb Code     0  objectdump.o(.text)
    ObjectDump::QVisitorPrivate::findNode(const QObject*) const 0x000114c1   Thumb Code    74  objectdump.o(.text)
    ObjectDump::QVisitorPrivate::visitNode(const QObject&) 0x0001150b   Thumb Code   312  objectdump.o(.text)
    ObjectDump::QVisitor::visitNode(const QObject&) 0x00011643   Thumb Code    28  objectdump.o(.text)
    ObjectDump::QVisitorPrivate::branchBuffer(const QList<bool>&, bool, bool) const 0x0001165f   Thumb Code   284  objectdump.o(.text)
    ObjectDump::QVisitorPrivate::dumpNode(const ObjectDump::QVisitorPrivate::Node&, const QList<bool>&, bool) 0x0001177b   Thumb Code   406  objectdump.o(.text)
    ObjectDump::QVisitorPrivate::dumpRecursive(const ObjectDump::QVisitorPrivate::Node&, QList<bool>, bool) 0x00011911   Thumb Code   354  objectdump.o(.text)
    ObjectDump::QVisitorPrivate::visitComplete() 0x00011a73   Thumb Code    90  objectdump.o(.text)
    ObjectDump::QVisitor::visitComplete()    0x00011acd   Thumb Code    24  objectdump.o(.text)
    ObjectDump::QVisitor::addAnnotator(ObjectDump::QAnnotator*) 0x00011ae5   Thumb Code    28  objectdump.o(.text)
    ObjectDump::addDefaultAnnotators(ObjectDump::QDumper&) 0x00011b01   Thumb Code    68  objectdump.o(.text)
    ObjectDump::addDefaultAnnotators(ObjectDump::QVisitor&) 0x00011b45   Thumb Code    68  objectdump.o(.text)
    ObjectDump::dumpTreeFromRoot(const QObject&, ObjectDump::QVisitor&) 0x00011b89   Thumb Code    78  objectdump.o(.text)
    ObjectDump::dumpTreeFromLeaf(const QObject&, ObjectDump::QVisitor&) 0x00011bd7   Thumb Code    46  objectdump.o(.text)
    ObjectDump::dumpAncestors(const QObject&, ObjectDump::QVisitor&) 0x00011c05   Thumb Code    78  objectdump.o(.text)
    ObjectDump::Symbian::QAnnotatorWidget::annotation(const QObject&) 0x00011c71   Thumb Code   164  objectdump_symbian.o(.text)
    ObjectDump::Symbian::QAnnotatorControl::annotation(const QObject&) 0x00011d15   Thumb Code   292  objectdump_symbian.o(.text)
    ObjectDump::Symbian::QAnnotatorWindow::annotation(const QObject&) 0x00011e39   Thumb Code   432  objectdump_symbian.o(.text)
    ObjectDump::addDefaultAnnotators_sys(ObjectDump::QDumper&) 0x00011fe9   Thumb Code    90  objectdump_symbian.o(.text)
    ObjectDump::addDefaultAnnotators_sys(ObjectDump::QVisitor&) 0x00012043   Thumb Code   252  objectdump_symbian.o(.text)
    ObjectTree::DepthFirstConstIterator::DepthFirstConstIterator() 0x00012141   Thumb Code    20  objecttree.o(.text)
    ObjectTree::DepthFirstConstIterator::DepthFirstConstIterator__sub_object() 0x00012141   Thumb Code     0  objecttree.o(.text)
    ObjectTree::DepthFirstConstIterator::DepthFirstConstIterator(const QObject&) 0x00012155   Thumb Code    20  objecttree.o(.text)
    ObjectTree::DepthFirstConstIterator::DepthFirstConstIterator__sub_object(const QObject&) 0x00012155   Thumb Code     0  objecttree.o(.text)
    ObjectTree::DepthFirstConstIterator::backtrack() 0x00012169   Thumb Code   290  objecttree.o(.text)
    ObjectTree::DepthFirstConstIterator::operator ++() 0x0001228b   Thumb Code    74  objecttree.o(.text)
    ObjectTree::AncestorConstIterator::AncestorConstIterator() 0x000122d5   Thumb Code    14  objecttree.o(.text)
    ObjectTree::AncestorConstIterator::AncestorConstIterator__sub_object() 0x000122d5   Thumb Code     0  objecttree.o(.text)
    ObjectTree::AncestorConstIterator::AncestorConstIterator(const QObject&) 0x000122e3   Thumb Code    62  objecttree.o(.text)
    ObjectTree::AncestorConstIterator::AncestorConstIterator__sub_object(const QObject&) 0x000122e3   Thumb Code     0  objecttree.o(.text)
    Phonon::MMF::Utils::panic(Phonon::MMF::PanicCode) 0x00012465   Thumb Code    22  utils.o(.text)
    Phonon::MMF::Utils::mimeTypeToMediaType(const TDesC16&) 0x0001247b   Thumb Code   122  utils.o(.text)
    Phonon::MMF::Utils::symbianErrorToString(int) 0x000124f5   Thumb Code  1150  utils.o(.text)
    Phonon::MMF::Utils::getScreenPixel(const QPoint&) 0x00012973   Thumb Code   210  utils.o(.text)
    Phonon::MMF::Utils::dumpScreenPixelSample() 0x00012a45   Thumb Code    98  utils.o(.text)
    Phonon::MMF::VideoWidget::VideoWidget(QWidget*) 0x00012b4d   Thumb Code   190  videowidget.o(.text)
    Phonon::MMF::VideoWidget::VideoWidget__sub_object(QWidget*) 0x00012b4d   Thumb Code     0  videowidget.o(.text)
    Phonon::MMF::VideoWidget::~VideoWidget() 0x00012c0b   Thumb Code   122  videowidget.o(.text)
    Phonon::MMF::VideoWidget::~VideoWidget__sub_object() 0x00012c0b   Thumb Code     0  videowidget.o(.text)
    Phonon::MMF::VideoWidget::~VideoWidget__deallocating() 0x00012c85   Thumb Code    22  videowidget.o(.text)
    thunk{-20} to Phonon::MMF::VideoWidget::~VideoWidget__deallocating() 0x00012c9b   Thumb Code    14  videowidget.o(.text)
    thunk{-20} to Phonon::MMF::VideoWidget::~VideoWidget() 0x00012ca9   Thumb Code    14  videowidget.o(.text)
    Phonon::MMF::VideoWidget::aspectRatio() const 0x00012cb7   Thumb Code    20  videowidget.o(.text)
    thunk{-20} to Phonon::MMF::VideoWidget::aspectRatio() const 0x00012ccb   Thumb Code    14  videowidget.o(.text)
    Phonon::MMF::VideoWidget::setAspectRatio(Phonon::VideoWidget::AspectRatio) 0x00012cd9   Thumb Code   384  videowidget.o(.text)
    thunk{-20} to Phonon::MMF::VideoWidget::setAspectRatio(Phonon::VideoWidget::AspectRatio) 0x00012e59   Thumb Code    18  videowidget.o(.text)
    Phonon::MMF::VideoWidget::brightness() const 0x00012e6b   Thumb Code     6  videowidget.o(.text)
    thunk{-20} to Phonon::MMF::VideoWidget::brightness() const 0x00012e71   Thumb Code    14  videowidget.o(.text)
    Phonon::MMF::VideoWidget::setBrightness(float) 0x00012e7f   Thumb Code    76  videowidget.o(.text)
    thunk{-20} to Phonon::MMF::VideoWidget::setBrightness(float) 0x00012ecb   Thumb Code    18  videowidget.o(.text)
    Phonon::MMF::VideoWidget::scaleMode() const 0x00012edd   Thumb Code    20  videowidget.o(.text)
    thunk{-20} to Phonon::MMF::VideoWidget::scaleMode() const 0x00012ef1   Thumb Code    14  videowidget.o(.text)
    Phonon::MMF::VideoWidget::setScaleMode(Phonon::VideoWidget::ScaleMode) 0x00012eff   Thumb Code    76  videowidget.o(.text)
    thunk{-20} to Phonon::MMF::VideoWidget::setScaleMode(Phonon::VideoWidget::ScaleMode) 0x00012f4b   Thumb Code    18  videowidget.o(.text)
    Phonon::MMF::VideoWidget::contrast() const 0x00012f5d   Thumb Code     6  videowidget.o(.text)
    thunk{-20} to Phonon::MMF::VideoWidget::contrast() const 0x00012f63   Thumb Code    14  videowidget.o(.text)
    Phonon::MMF::VideoWidget::setContrast(float) 0x00012f71   Thumb Code    78  videowidget.o(.text)
    thunk{-20} to Phonon::MMF::VideoWidget::setContrast(float) 0x00012fbf   Thumb Code    18  videowidget.o(.text)
    Phonon::MMF::VideoWidget::hue() const    0x00012fd1   Thumb Code     6  videowidget.o(.text)
    thunk{-20} to Phonon::MMF::VideoWidget::hue() const 0x00012fd7   Thumb Code    14  videowidget.o(.text)
    Phonon::MMF::VideoWidget::setHue(float)  0x00012fe5   Thumb Code    78  videowidget.o(.text)
    thunk{-20} to Phonon::MMF::VideoWidget::setHue(float) 0x00013033   Thumb Code    18  videowidget.o(.text)
    Phonon::MMF::VideoWidget::saturation() const 0x00013045   Thumb Code     6  videowidget.o(.text)
    thunk{-20} to Phonon::MMF::VideoWidget::saturation() const 0x0001304b   Thumb Code    14  videowidget.o(.text)
    Phonon::MMF::VideoWidget::setSaturation(float) 0x00013059   Thumb Code   340  videowidget.o(.text)
    thunk{-20} to Phonon::MMF::VideoWidget::setSaturation(float) 0x000131ad   Thumb Code    18  videowidget.o(.text)
    Phonon::MMF::VideoWidget::widget()       0x000131bf   Thumb Code     8  videowidget.o(.text)
    thunk{-20} to Phonon::MMF::VideoWidget::widget() 0x000131c7   Thumb Code    14  videowidget.o(.text)
    Phonon::MMF::VideoWidget::connectMediaObject(Phonon::MMF::MediaObject*) 0x000131d5   Thumb Code    22  videowidget.o(.text)
    Phonon::MMF::VideoWidget::disconnectMediaObject(Phonon::MMF::MediaObject*) 0x000131eb   Thumb Code    16  videowidget.o(.text)
    Phonon::MMF::SurfaceVideoOutput::SurfaceVideoOutput(QWidget*) 0x000131fd   Thumb Code   138  videooutput_surface.o(.text)
    Phonon::MMF::SurfaceVideoOutput::SurfaceVideoOutput__sub_object(QWidget*) 0x000131fd   Thumb Code     0  videooutput_surface.o(.text)
    Phonon::MMF::SurfaceVideoOutput::~SurfaceVideoOutput() 0x00013287   Thumb Code   104  videooutput_surface.o(.text)
    Phonon::MMF::SurfaceVideoOutput::~SurfaceVideoOutput__sub_object() 0x00013287   Thumb Code     0  videooutput_surface.o(.text)
    Phonon::MMF::SurfaceVideoOutput::~SurfaceVideoOutput__deallocating() 0x000132ef   Thumb Code    22  videooutput_surface.o(.text)
    thunk{-8} to Phonon::MMF::SurfaceVideoOutput::~SurfaceVideoOutput__deallocating() 0x00013305   Thumb Code    14  videooutput_surface.o(.text)
    thunk{-8} to Phonon::MMF::SurfaceVideoOutput::~SurfaceVideoOutput() 0x00013313   Thumb Code    14  videooutput_surface.o(.text)
    Phonon::MMF::SurfaceVideoOutput::resizeEvent(QResizeEvent*) 0x00013321   Thumb Code   166  videooutput_surface.o(.text)
    Phonon::MMF::SurfaceVideoOutput::event(QEvent*) 0x000133c7   Thumb Code    82  videooutput_surface.o(.text)
    Phonon::MMF::SurfaceVideoPlayer::SurfaceVideoPlayer(Phonon::MMF::MediaObject*, const Phonon::MMF::AbstractPlayer*) 0x00013509   Thumb Code    44  videoplayer_surface.o(.text)
    Phonon::MMF::SurfaceVideoPlayer::SurfaceVideoPlayer__sub_object(Phonon::MMF::MediaObject*, const Phonon::MMF::AbstractPlayer*) 0x00013509   Thumb Code     0  videoplayer_surface.o(.text)
    Phonon::MMF::SurfaceVideoPlayer::create(Phonon::MMF::MediaObject*, const Phonon::MMF::AbstractPlayer*) 0x00013535   Thumb Code    86  videoplayer_surface.o(.text)
    Phonon::MMF::SurfaceVideoPlayer::~SurfaceVideoPlayer() 0x0001358b   Thumb Code    14  videoplayer_surface.o(.text)
    Phonon::MMF::SurfaceVideoPlayer::~SurfaceVideoPlayer__sub_object() 0x0001358b   Thumb Code     0  videoplayer_surface.o(.text)
    Phonon::MMF::SurfaceVideoPlayer::~SurfaceVideoPlayer__deallocating() 0x00013599   Thumb Code    22  videoplayer_surface.o(.text)
    Phonon::MMF::SurfaceVideoPlayer::videoWindowSizeChanged() 0x000135af   Thumb Code    32  videoplayer_surface.o(.text)
    Phonon::MMF::SurfaceVideoPlayer::createPlayer() 0x000135cf   Thumb Code   120  videoplayer_surface.o(.text)
    Phonon::MMF::SurfaceVideoPlayer::initVideoOutput() 0x00013647   Thumb Code   100  videoplayer_surface.o(.text)
    Phonon::MMF::SurfaceVideoPlayer::prepareCompleted() 0x000136ab   Thumb Code    12  videoplayer_surface.o(.text)
    Phonon::MMF::SurfaceVideoPlayer::handleVideoWindowChanged() 0x000136b7   Thumb Code    24  videoplayer_surface.o(.text)
    Phonon::MMF::SurfaceVideoPlayer::addDisplayWindow(const TRect&) 0x000136cf   Thumb Code   386  videoplayer_surface.o(.text)
    Phonon::MMF::SurfaceVideoPlayer::removeDisplayWindow() 0x00013851   Thumb Code   328  videoplayer_surface.o(.text)
    Phonon::MMF::SurfaceVideoPlayer::handleParametersChanged(QFlags<Phonon::MMF::VideoParameter>) 0x00013999   Thumb Code   550  videoplayer_surface.o(.text)
    Phonon::MMF::DownloadPrivate::DownloadPrivate(Phonon::MMF::Download*) 0x00013be5   Thumb Code    56  download.o(.text)
    Phonon::MMF::DownloadPrivate::DownloadPrivate__sub_object(Phonon::MMF::Download*) 0x00013be5   Thumb Code     0  download.o(.text)
    Phonon::MMF::DownloadPrivate::~DownloadPrivate() 0x00013c1d   Thumb Code    50  download.o(.text)
    Phonon::MMF::DownloadPrivate::~DownloadPrivate__sub_object() 0x00013c1d   Thumb Code     0  download.o(.text)
    Phonon::MMF::DownloadPrivate::~DownloadPrivate__deallocating() 0x00013c4f   Thumb Code    22  download.o(.text)
    Phonon::MMF::Download::sourceUrl() const 0x00013c65   Thumb Code     8  download.o(.text)
    Phonon::MMF::DownloadPrivate::start(int) 0x00013c6d   Thumb Code   392  download.o(.text)
    Phonon::MMF::DownloadPrivate::resume()   0x00013df5   Thumb Code     2  download.o(.text)
    Phonon::MMF::Download::setState(Phonon::MMF::Download::State) 0x00013df7   Thumb Code    80  download.o(.text)
    Phonon::MMF::Download::error()           0x00013e47   Thumb Code   326  download.o(.text)
    Phonon::MMF::Download::complete()        0x00013f8d   Thumb Code    62  download.o(.text)
    Phonon::MMF::Download::downloadStarted(const QString&) 0x00013fcb   Thumb Code    74  download.o(.text)
    Phonon::MMF::DownloadPrivate::HandleDMgrEventL(RHttpDownload&, THttpDownloadEvent) 0x00014015   Thumb Code   416  download.o(.text)
    thunk{-8} to Phonon::MMF::DownloadPrivate::HandleDMgrEventL(RHttpDownload&, THttpDownloadEvent) 0x000141b5   Thumb Code    22  download.o(.text)
    Phonon::MMF::Download::Download(const QUrl&, QObject*) 0x000141cb   Thumb Code   162  download.o(.text)
    Phonon::MMF::Download::Download__sub_object(const QUrl&, QObject*) 0x000141cb   Thumb Code     0  download.o(.text)
    Phonon::MMF::Download::~Download()       0x0001426d   Thumb Code    42  download.o(.text)
    Phonon::MMF::Download::~Download__sub_object() 0x0001426d   Thumb Code     0  download.o(.text)
    Phonon::MMF::Download::~Download__deallocating() 0x00014297   Thumb Code    22  download.o(.text)
    Phonon::MMF::Download::targetFileName() const 0x000142ad   Thumb Code     8  download.o(.text)
    Phonon::MMF::Download::start(int)        0x000142b5   Thumb Code   400  download.o(.text)
    Phonon::MMF::Download::resume()          0x00014445   Thumb Code    92  download.o(.text)
    Phonon::MMF::AbstractAudioEffect::getStaticMetaObject() 0x00014501   Thumb Code     4  moc_abstractaudioeffect.o(.text)
    Phonon::MMF::AbstractAudioEffect::metaObject() const 0x00014505   Thumb Code    30  moc_abstractaudioeffect.o(.text)
    Phonon::MMF::AbstractAudioEffect::qt_metacast(const char*) 0x00014523   Thumb Code    76  moc_abstractaudioeffect.o(.text)
    Phonon::MMF::AbstractAudioEffect::qt_metacall(QMetaObject::Call, int, void**) 0x0001456f   Thumb Code    84  moc_abstractaudioeffect.o(.text)
    Phonon::MMF::AbstractMediaPlayer::getStaticMetaObject() 0x000145fd   Thumb Code     4  moc_abstractmediaplayer.o(.text)
    Phonon::MMF::AbstractMediaPlayer::metaObject() const 0x00014601   Thumb Code    30  moc_abstractmediaplayer.o(.text)
    Phonon::MMF::AbstractMediaPlayer::qt_metacast(const char*) 0x0001461f   Thumb Code    40  moc_abstractmediaplayer.o(.text)
    Phonon::MMF::AbstractMediaPlayer::qt_metacall(QMetaObject::Call, int, void**) 0x00014647   Thumb Code   106  moc_abstractmediaplayer.o(.text)
    Phonon::MMF::AbstractPlayer::getStaticMetaObject() 0x000146b9   Thumb Code     4  moc_abstractplayer.o(.text)
    Phonon::MMF::AbstractPlayer::metaObject() const 0x000146bd   Thumb Code    30  moc_abstractplayer.o(.text)
    Phonon::MMF::AbstractPlayer::qt_metacast(const char*) 0x000146db   Thumb Code    40  moc_abstractplayer.o(.text)
    Phonon::MMF::AbstractPlayer::prefinishMarkReached(int) 0x00014703   Thumb Code    32  moc_abstractplayer.o(.text)
    Phonon::MMF::AbstractPlayer::aboutToFinish() 0x00014723   Thumb Code    18  moc_abstractplayer.o(.text)
    Phonon::MMF::AbstractPlayer::metaDataChanged(const QMultiMap<QString, QString>&) 0x00014735   Thumb Code    30  moc_abstractplayer.o(.text)
    Phonon::MMF::AbstractPlayer::stateChanged(Phonon::State, Phonon::State) 0x00014753   Thumb Code    40  moc_abstractplayer.o(.text)
    Phonon::MMF::AbstractPlayer::bufferStatus(int) 0x0001477b   Thumb Code    32  moc_abstractplayer.o(.text)
    Phonon::MMF::AbstractPlayer::tick(long long) 0x0001479b   Thumb Code    34  moc_abstractplayer.o(.text)
    Phonon::MMF::AbstractPlayer::finished()  0x000147bd   Thumb Code    18  moc_abstractplayer.o(.text)
    Phonon::MMF::AbstractPlayer::totalTimeChanged(long long) 0x000147cf   Thumb Code    34  moc_abstractplayer.o(.text)
    Phonon::MMF::AbstractPlayer::qt_metacall(QMetaObject::Call, int, void**) 0x000147f1   Thumb Code   156  moc_abstractplayer.o(.text)
    Phonon::MMF::AbstractVideoOutput::getStaticMetaObject() 0x00014895   Thumb Code     4  moc_abstractvideooutput.o(.text)
    Phonon::MMF::AbstractVideoOutput::metaObject() const 0x00014899   Thumb Code    30  moc_abstractvideooutput.o(.text)
    Phonon::MMF::AbstractVideoOutput::qt_metacast(const char*) 0x000148b7   Thumb Code    40  moc_abstractvideooutput.o(.text)
    Phonon::MMF::AbstractVideoOutput::scaleModeChanged() 0x000148df   Thumb Code    18  moc_abstractvideooutput.o(.text)
    Phonon::MMF::AbstractVideoOutput::aspectRatioChanged() 0x000148f1   Thumb Code    18  moc_abstractvideooutput.o(.text)
    Phonon::MMF::AbstractVideoOutput::videoWindowChanged() 0x00014903   Thumb Code    18  moc_abstractvideooutput.o(.text)
    Phonon::MMF::AbstractVideoOutput::qt_metacall(QMetaObject::Call, int, void**) 0x00014915   Thumb Code    84  moc_abstractvideooutput.o(.text)
    Phonon::MMF::AbstractVideoPlayer::getStaticMetaObject() 0x00014971   Thumb Code     4  moc_abstractvideoplayer.o(.text)
    Phonon::MMF::AbstractVideoPlayer::metaObject() const 0x00014975   Thumb Code    30  moc_abstractvideoplayer.o(.text)
    Phonon::MMF::AbstractVideoPlayer::qt_metacast(const char*) 0x00014993   Thumb Code    76  moc_abstractvideoplayer.o(.text)
    Phonon::MMF::AbstractVideoPlayer::qt_metacall(QMetaObject::Call, int, void**) 0x000149df   Thumb Code    84  moc_abstractvideoplayer.o(.text)
    Phonon::MMF::AudioEqualizer::getStaticMetaObject() 0x00014a71   Thumb Code     4  moc_audioequalizer.o(.text)
    Phonon::MMF::AudioEqualizer::metaObject() const 0x00014a75   Thumb Code    30  moc_audioequalizer.o(.text)
    Phonon::MMF::AudioEqualizer::qt_metacast(const char*) 0x00014a93   Thumb Code    40  moc_audioequalizer.o(.text)
    Phonon::MMF::AudioEqualizer::qt_metacall(QMetaObject::Call, int, void**) 0x00014abb   Thumb Code    36  moc_audioequalizer.o(.text)
    Phonon::MMF::AudioOutput::getStaticMetaObject() 0x00014ae9   Thumb Code     4  moc_audiooutput.o(.text)
    Phonon::MMF::AudioOutput::metaObject() const 0x00014aed   Thumb Code    30  moc_audiooutput.o(.text)
    Phonon::MMF::AudioOutput::qt_metacast(const char*) 0x00014b0b   Thumb Code    76  moc_audiooutput.o(.text)
    Phonon::MMF::AudioOutput::audioDeviceFailed() 0x00014b57   Thumb Code    18  moc_audiooutput.o(.text)
    Phonon::MMF::AudioOutput::volumeChanged(float) 0x00014b69   Thumb Code    30  moc_audiooutput.o(.text)
    Phonon::MMF::AudioOutput::qt_metacall(QMetaObject::Call, int, void**) 0x00014b87   Thumb Code    76  moc_audiooutput.o(.text)
    Phonon::MMF::AudioPlayer::getStaticMetaObject() 0x00014c1d   Thumb Code     4  moc_audioplayer.o(.text)
    Phonon::MMF::AudioPlayer::metaObject() const 0x00014c21   Thumb Code    30  moc_audioplayer.o(.text)
    Phonon::MMF::AudioPlayer::qt_metacast(const char*) 0x00014c3f   Thumb Code    76  moc_audioplayer.o(.text)
    Phonon::MMF::AudioPlayer::qt_metacall(QMetaObject::Call, int, void**) 0x00014c8b   Thumb Code    36  moc_audioplayer.o(.text)
    Phonon::MMF::Backend::getStaticMetaObject() 0x00014ce9   Thumb Code     4  moc_backend.o(.text)
    Phonon::MMF::Backend::metaObject() const 0x00014ced   Thumb Code    30  moc_backend.o(.text)
    Phonon::MMF::Backend::qt_metacast(const char*) 0x00014d0b   Thumb Code    76  moc_backend.o(.text)
    Phonon::MMF::Backend::objectDescriptionChanged(Phonon::ObjectDescriptionType) 0x00014d57   Thumb Code    30  moc_backend.o(.text)
    Phonon::MMF::Backend::qt_metacall(QMetaObject::Call, int, void**) 0x00014d75   Thumb Code    62  moc_backend.o(.text)
    Phonon::MMF::BassBoost::getStaticMetaObject() 0x00014df5   Thumb Code     4  moc_bassboost.o(.text)
    Phonon::MMF::BassBoost::metaObject() const 0x00014df9   Thumb Code    30  moc_bassboost.o(.text)
    Phonon::MMF::BassBoost::qt_metacast(const char*) 0x00014e17   Thumb Code    40  moc_bassboost.o(.text)
    Phonon::MMF::BassBoost::qt_metacall(QMetaObject::Call, int, void**) 0x00014e3f   Thumb Code    36  moc_bassboost.o(.text)
    Phonon::MMF::EffectFactory::getStaticMetaObject() 0x00014e6d   Thumb Code     4  moc_effectfactory.o(.text)
    Phonon::MMF::EffectFactory::metaObject() const 0x00014e71   Thumb Code    30  moc_effectfactory.o(.text)
    Phonon::MMF::EffectFactory::qt_metacast(const char*) 0x00014e8f   Thumb Code    40  moc_effectfactory.o(.text)
    Phonon::MMF::EffectFactory::qt_metacall(QMetaObject::Call, int, void**) 0x00014eb7   Thumb Code    36  moc_effectfactory.o(.text)
    Phonon::MMF::EnvironmentalReverb::getStaticMetaObject() 0x00014ee5   Thumb Code     4  moc_environmentalreverb.o(.text)
    Phonon::MMF::EnvironmentalReverb::metaObject() const 0x00014ee9   Thumb Code    30  moc_environmentalreverb.o(.text)
    Phonon::MMF::EnvironmentalReverb::qt_metacast(const char*) 0x00014f07   Thumb Code    40  moc_environmentalreverb.o(.text)
    Phonon::MMF::EnvironmentalReverb::qt_metacall(QMetaObject::Call, int, void**) 0x00014f2f   Thumb Code    36  moc_environmentalreverb.o(.text)
    Phonon::MMF::Loudness::getStaticMetaObject() 0x00014f5d   Thumb Code     4  moc_loudness.o(.text)
    Phonon::MMF::Loudness::metaObject() const 0x00014f61   Thumb Code    30  moc_loudness.o(.text)
    Phonon::MMF::Loudness::qt_metacast(const char*) 0x00014f7f   Thumb Code    40  moc_loudness.o(.text)
    Phonon::MMF::Loudness::qt_metacall(QMetaObject::Call, int, void**) 0x00014fa7   Thumb Code    36  moc_loudness.o(.text)
    Phonon::MMF::MediaObject::getStaticMetaObject() 0x00014fd5   Thumb Code     4  moc_mediaobject.o(.text)
    Phonon::MMF::MediaObject::metaObject() const 0x00014fd9   Thumb Code    30  moc_mediaobject.o(.text)
    Phonon::MMF::MediaObject::qt_metacast(const char*) 0x00014ff7   Thumb Code    76  moc_mediaobject.o(.text)
    Phonon::MMF::MediaObject::tick(long long) 0x00015043   Thumb Code    34  moc_mediaobject.o(.text)
    Phonon::MMF::MediaObject::finished()     0x00015065   Thumb Code    18  moc_mediaobject.o(.text)
    Phonon::MMF::MediaObject::stateChanged(Phonon::State, Phonon::State) 0x00015077   Thumb Code    40  moc_mediaobject.o(.text)
    Phonon::MMF::MediaObject::currentSourceChanged(const Phonon::MediaSource&) 0x0001509f   Thumb Code    30  moc_mediaobject.o(.text)
    Phonon::MMF::MediaObject::metaDataChanged(const QMultiMap<QString, QString>&) 0x000150bd   Thumb Code    30  moc_mediaobject.o(.text)
    Phonon::MMF::MediaObject::prefinishMarkReached(int) 0x000150db   Thumb Code    32  moc_mediaobject.o(.text)
    Phonon::MMF::MediaObject::aboutToFinish() 0x000150fb   Thumb Code    18  moc_mediaobject.o(.text)
    Phonon::MMF::MediaObject::bufferStatus(int) 0x0001510d   Thumb Code    32  moc_mediaobject.o(.text)
    Phonon::MMF::MediaObject::seekableChanged(bool) 0x0001512d   Thumb Code    32  moc_mediaobject.o(.text)
    Phonon::MMF::MediaObject::hasVideoChanged(bool) 0x0001514d   Thumb Code    32  moc_mediaobject.o(.text)
    Phonon::MMF::MediaObject::totalTimeChanged(long long) 0x0001516d   Thumb Code    34  moc_mediaobject.o(.text)
    Phonon::MMF::MediaObject::abstractPlayerChanged(Phonon::MMF::AbstractPlayer*) 0x0001518f   Thumb Code    30  moc_mediaobject.o(.text)
    Phonon::MMF::MediaObject::qt_metacall(QMetaObject::Call, int, void**) 0x000151ad   Thumb Code   242  moc_mediaobject.o(.text)
    Phonon::MMF::MediaNode::getStaticMetaObject() 0x000152e9   Thumb Code     4  moc_mmf_medianode.o(.text)
    Phonon::MMF::MediaNode::metaObject() const 0x000152ed   Thumb Code    30  moc_mmf_medianode.o(.text)
    Phonon::MMF::MediaNode::qt_metacast(const char*) 0x0001530b   Thumb Code    40  moc_mmf_medianode.o(.text)
    Phonon::MMF::MediaNode::qt_metacall(QMetaObject::Call, int, void**) 0x00015333   Thumb Code    36  moc_mmf_medianode.o(.text)
    Phonon::MMF::StereoWidening::getStaticMetaObject() 0x00015361   Thumb Code     4  moc_stereowidening.o(.text)
    Phonon::MMF::StereoWidening::metaObject() const 0x00015365   Thumb Code    30  moc_stereowidening.o(.text)
    Phonon::MMF::StereoWidening::qt_metacast(const char*) 0x00015383   Thumb Code    40  moc_stereowidening.o(.text)
    Phonon::MMF::StereoWidening::qt_metacall(QMetaObject::Call, int, void**) 0x000153ab   Thumb Code    36  moc_stereowidening.o(.text)
    ObjectDump::QAnnotator::getStaticMetaObject() 0x000153d9   Thumb Code     4  moc_objectdump.o(.text)
    ObjectDump::QAnnotator::metaObject() const 0x000153dd   Thumb Code    30  moc_objectdump.o(.text)
    ObjectDump::QAnnotator::qt_metacast(const char*) 0x000153fb   Thumb Code    40  moc_objectdump.o(.text)
    ObjectDump::QAnnotator::qt_metacall(QMetaObject::Call, int, void**) 0x00015423   Thumb Code    36  moc_objectdump.o(.text)
    ObjectDump::QAnnotatorBasic::getStaticMetaObject() 0x00015447   Thumb Code     4  moc_objectdump.o(.text)
    ObjectDump::QAnnotatorBasic::metaObject() const 0x0001544b   Thumb Code    30  moc_objectdump.o(.text)
    ObjectDump::QAnnotatorBasic::qt_metacast(const char*) 0x00015469   Thumb Code    42  moc_objectdump.o(.text)
    ObjectDump::QAnnotatorBasic::qt_metacall(QMetaObject::Call, int, void**) 0x00015493   Thumb Code    36  moc_objectdump.o(.text)
    ObjectDump::QAnnotatorWidget::getStaticMetaObject() 0x000154b7   Thumb Code     4  moc_objectdump.o(.text)
    ObjectDump::QAnnotatorWidget::metaObject() const 0x000154bb   Thumb Code    30  moc_objectdump.o(.text)
    ObjectDump::QAnnotatorWidget::qt_metacast(const char*) 0x000154d9   Thumb Code    42  moc_objectdump.o(.text)
    ObjectDump::QAnnotatorWidget::qt_metacall(QMetaObject::Call, int, void**) 0x00015503   Thumb Code    36  moc_objectdump.o(.text)
    ObjectDump::QDumper::getStaticMetaObject() 0x00015527   Thumb Code     4  moc_objectdump.o(.text)
    ObjectDump::QDumper::metaObject() const  0x0001552b   Thumb Code    30  moc_objectdump.o(.text)
    ObjectDump::QDumper::qt_metacast(const char*) 0x00015549   Thumb Code    40  moc_objectdump.o(.text)
    ObjectDump::QDumper::qt_metacall(QMetaObject::Call, int, void**) 0x00015571   Thumb Code    36  moc_objectdump.o(.text)
    ObjectDump::QVisitor::getStaticMetaObject() 0x00015595   Thumb Code     4  moc_objectdump.o(.text)
    ObjectDump::QVisitor::metaObject() const 0x00015599   Thumb Code    30  moc_objectdump.o(.text)
    ObjectDump::QVisitor::qt_metacast(const char*) 0x000155b7   Thumb Code    42  moc_objectdump.o(.text)
    ObjectDump::QVisitor::qt_metacall(QMetaObject::Call, int, void**) 0x000155e1   Thumb Code    36  moc_objectdump.o(.text)
    ObjectDump::Symbian::QAnnotatorWidget::getStaticMetaObject() 0x00015621   Thumb Code     4  moc_objectdump_symbian.o(.text)
    ObjectDump::Symbian::QAnnotatorWidget::metaObject() const 0x00015625   Thumb Code    30  moc_objectdump_symbian.o(.text)
    ObjectDump::Symbian::QAnnotatorWidget::qt_metacast(const char*) 0x00015643   Thumb Code    40  moc_objectdump_symbian.o(.text)
    ObjectDump::Symbian::QAnnotatorWidget::qt_metacall(QMetaObject::Call, int, void**) 0x0001566b   Thumb Code    36  moc_objectdump_symbian.o(.text)
    ObjectDump::Symbian::QAnnotatorControl::getStaticMetaObject() 0x0001568f   Thumb Code     4  moc_objectdump_symbian.o(.text)
    ObjectDump::Symbian::QAnnotatorControl::metaObject() const 0x00015693   Thumb Code    30  moc_objectdump_symbian.o(.text)
    ObjectDump::Symbian::QAnnotatorControl::qt_metacast(const char*) 0x000156b1   Thumb Code    42  moc_objectdump_symbian.o(.text)
    ObjectDump::Symbian::QAnnotatorControl::qt_metacall(QMetaObject::Call, int, void**) 0x000156db   Thumb Code    36  moc_objectdump_symbian.o(.text)
    ObjectDump::Symbian::QAnnotatorWindow::getStaticMetaObject() 0x000156ff   Thumb Code     4  moc_objectdump_symbian.o(.text)
    ObjectDump::Symbian::QAnnotatorWindow::metaObject() const 0x00015703   Thumb Code    30  moc_objectdump_symbian.o(.text)
    ObjectDump::Symbian::QAnnotatorWindow::qt_metacast(const char*) 0x00015721   Thumb Code    42  moc_objectdump_symbian.o(.text)
    ObjectDump::Symbian::QAnnotatorWindow::qt_metacall(QMetaObject::Call, int, void**) 0x0001574b   Thumb Code    36  moc_objectdump_symbian.o(.text)
    Phonon::MMF::VideoWidget::getStaticMetaObject() 0x00015781   Thumb Code     4  moc_videowidget.o(.text)
    Phonon::MMF::VideoWidget::metaObject() const 0x00015785   Thumb Code    30  moc_videowidget.o(.text)
    Phonon::MMF::VideoWidget::qt_metacast(const char*) 0x000157a3   Thumb Code    76  moc_videowidget.o(.text)
    Phonon::MMF::VideoWidget::qt_metacall(QMetaObject::Call, int, void**) 0x000157ef   Thumb Code    36  moc_videowidget.o(.text)
    Phonon::MMF::SurfaceVideoOutput::getStaticMetaObject() 0x00015865   Thumb Code     4  moc_videooutput_surface.o(.text)
    Phonon::MMF::SurfaceVideoOutput::metaObject() const 0x00015869   Thumb Code    30  moc_videooutput_surface.o(.text)
    Phonon::MMF::SurfaceVideoOutput::qt_metacast(const char*) 0x00015887   Thumb Code    40  moc_videooutput_surface.o(.text)
    Phonon::MMF::SurfaceVideoOutput::videoWindowSizeChanged() 0x000158af   Thumb Code    18  moc_videooutput_surface.o(.text)
    Phonon::MMF::SurfaceVideoOutput::qt_metacall(QMetaObject::Call, int, void**) 0x000158c1   Thumb Code    58  moc_videooutput_surface.o(.text)
    Phonon::MMF::SurfaceVideoPlayer::getStaticMetaObject() 0x00015905   Thumb Code     4  moc_videoplayer_surface.o(.text)
    Phonon::MMF::SurfaceVideoPlayer::metaObject() const 0x00015909   Thumb Code    30  moc_videoplayer_surface.o(.text)
    Phonon::MMF::SurfaceVideoPlayer::qt_metacast(const char*) 0x00015927   Thumb Code    40  moc_videoplayer_surface.o(.text)
    Phonon::MMF::SurfaceVideoPlayer::qt_metacall(QMetaObject::Call, int, void**) 0x0001594f   Thumb Code    58  moc_videoplayer_surface.o(.text)
    Phonon::MMF::DownloadPrivate::getStaticMetaObject() 0x00015991   Thumb Code     4  moc_download.o(.text)
    Phonon::MMF::DownloadPrivate::metaObject() const 0x00015995   Thumb Code    30  moc_download.o(.text)
    Phonon::MMF::DownloadPrivate::qt_metacast(const char*) 0x000159b3   Thumb Code    58  moc_download.o(.text)
    Phonon::MMF::DownloadPrivate::complete() 0x000159ed   Thumb Code    18  moc_download.o(.text)
    Phonon::MMF::DownloadPrivate::lengthChanged(long long) 0x000159ff   Thumb Code    34  moc_download.o(.text)
    Phonon::MMF::DownloadPrivate::targetFileNameChanged() 0x00015a21   Thumb Code    18  moc_download.o(.text)
    Phonon::MMF::DownloadPrivate::error()    0x00015a33   Thumb Code    18  moc_download.o(.text)
    Phonon::MMF::DownloadPrivate::qt_metacall(QMetaObject::Call, int, void**) 0x00015a45   Thumb Code   102  moc_download.o(.text)
    Phonon::MMF::Download::getStaticMetaObject() 0x00015aab   Thumb Code     4  moc_download.o(.text)
    Phonon::MMF::Download::metaObject() const 0x00015aaf   Thumb Code    30  moc_download.o(.text)
    Phonon::MMF::Download::qt_metacast(const char*) 0x00015acd   Thumb Code    42  moc_download.o(.text)
    Phonon::MMF::Download::stateChanged(Phonon::MMF::Download::State) 0x00015af7   Thumb Code    32  moc_download.o(.text)
    Phonon::MMF::Download::lengthChanged(long long) 0x00015b17   Thumb Code    34  moc_download.o(.text)
    Phonon::MMF::Download::qt_metacall(QMetaObject::Call, int, void**) 0x00015b39   Thumb Code    82  moc_download.o(.text)
    __ARM_switch8                            0x00015bb4   ARM Code      24  switch8.o(.text)
    __rt_switch8                             0x00015bb4   ARM Code       0  switch8.o(.text)
    _E32Dll_Body                             0x00015bcc   ARM Code      76  uc_dll.o(.text)
    __aeabi_atexit                           0x00015c1c   ARM Code      40  ucppfini.o(.text)
    __cxa_atexit                             0x00015c44   ARM Code      64  ucppfini.o(.text)
    __cxa_finalize                           0x00015c84   ARM Code      48  ucppfini.o(.text)
    run_static_dtors                         0x00015cb4   ARM Code      16  ucppfini.o(.text)
    __DLL_Export_Table__                     0x00015cd0   ARM Code       4  dllexp.o(.text)
    qDebug()                                 0x00016975   Thumb Code   108  objectdump.o(i._Z6qDebugv)
    ObjectDump::QAnnotator::QAnnotator__sub_object() 0x000169fd   Thumb Code    22  objectdump.o(i._ZN10ObjectDump10QAnnotatorC2Ev)
    ObjectDump::QAnnotatorBasic::QAnnotatorBasic() 0x00016a19   Thumb Code    20  objectdump.o(i._ZN10ObjectDump15QAnnotatorBasicC1Ev)
    ObjectDump::QAnnotatorBasic::QAnnotatorBasic__sub_object() 0x00016a19   Thumb Code     0  objectdump.o(i._ZN10ObjectDump15QAnnotatorBasicC1Ev)
    ObjectDump::QAnnotatorBasic::~QAnnotatorBasic__deallocating() 0x00016a31   Thumb Code    24  moc_objectdump.o(i._ZN10ObjectDump15QAnnotatorBasicD0Ev)
    ObjectDump::QAnnotatorBasic::~QAnnotatorBasic() 0x00016a49   Thumb Code    14  moc_objectdump.o(i._ZN10ObjectDump15QAnnotatorBasicD1Ev)
    ObjectDump::QAnnotatorBasic::~QAnnotatorBasic__sub_object() 0x00016a49   Thumb Code     0  moc_objectdump.o(i._ZN10ObjectDump15QAnnotatorBasicD1Ev)
    ObjectDump::QAnnotatorWidget::QAnnotatorWidget() 0x00016a59   Thumb Code    20  objectdump.o(i._ZN10ObjectDump16QAnnotatorWidgetC1Ev)
    ObjectDump::QAnnotatorWidget::QAnnotatorWidget__sub_object() 0x00016a59   Thumb Code     0  objectdump.o(i._ZN10ObjectDump16QAnnotatorWidgetC1Ev)
    ObjectDump::QAnnotatorWidget::~QAnnotatorWidget__deallocating() 0x00016a71   Thumb Code    24  moc_objectdump.o(i._ZN10ObjectDump16QAnnotatorWidgetD0Ev)
    ObjectDump::QAnnotatorWidget::~QAnnotatorWidget() 0x00016a89   Thumb Code    14  moc_objectdump.o(i._ZN10ObjectDump16QAnnotatorWidgetD1Ev)
    ObjectDump::QAnnotatorWidget::~QAnnotatorWidget__sub_object() 0x00016a89   Thumb Code     0  moc_objectdump.o(i._ZN10ObjectDump16QAnnotatorWidgetD1Ev)
    ObjectDump::Symbian::QAnnotatorWidget::QAnnotatorWidget() 0x00016a99   Thumb Code    20  objectdump_symbian.o(i._ZN10ObjectDump7Symbian16QAnnotatorWidgetC1Ev)
    ObjectDump::Symbian::QAnnotatorWidget::QAnnotatorWidget__sub_object() 0x00016a99   Thumb Code     0  objectdump_symbian.o(i._ZN10ObjectDump7Symbian16QAnnotatorWidgetC1Ev)
    ObjectDump::Symbian::QAnnotatorWidget::~QAnnotatorWidget__deallocating() 0x00016ab1   Thumb Code    24  moc_objectdump_symbian.o(i._ZN10ObjectDump7Symbian16QAnnotatorWidgetD0Ev)
    ObjectDump::Symbian::QAnnotatorWidget::~QAnnotatorWidget() 0x00016ac9   Thumb Code    14  moc_objectdump_symbian.o(i._ZN10ObjectDump7Symbian16QAnnotatorWidgetD1Ev)
    ObjectDump::Symbian::QAnnotatorWidget::~QAnnotatorWidget__sub_object() 0x00016ac9   Thumb Code     0  moc_objectdump_symbian.o(i._ZN10ObjectDump7Symbian16QAnnotatorWidgetD1Ev)
    ObjectDump::Symbian::QAnnotatorWindow::QAnnotatorWindow() 0x00016ad9   Thumb Code    20  objectdump_symbian.o(i._ZN10ObjectDump7Symbian16QAnnotatorWindowC1Ev)
    ObjectDump::Symbian::QAnnotatorWindow::QAnnotatorWindow__sub_object() 0x00016ad9   Thumb Code     0  objectdump_symbian.o(i._ZN10ObjectDump7Symbian16QAnnotatorWindowC1Ev)
    ObjectDump::Symbian::QAnnotatorWindow::~QAnnotatorWindow__deallocating() 0x00016af1   Thumb Code    24  moc_objectdump_symbian.o(i._ZN10ObjectDump7Symbian16QAnnotatorWindowD0Ev)
    ObjectDump::Symbian::QAnnotatorWindow::~QAnnotatorWindow() 0x00016b09   Thumb Code    14  moc_objectdump_symbian.o(i._ZN10ObjectDump7Symbian16QAnnotatorWindowD1Ev)
    ObjectDump::Symbian::QAnnotatorWindow::~QAnnotatorWindow__sub_object() 0x00016b09   Thumb Code     0  moc_objectdump_symbian.o(i._ZN10ObjectDump7Symbian16QAnnotatorWindowD1Ev)
    ObjectDump::Symbian::QAnnotatorControl::QAnnotatorControl() 0x00016b19   Thumb Code    20  objectdump_symbian.o(i._ZN10ObjectDump7Symbian17QAnnotatorControlC1Ev)
    ObjectDump::Symbian::QAnnotatorControl::QAnnotatorControl__sub_object() 0x00016b19   Thumb Code     0  objectdump_symbian.o(i._ZN10ObjectDump7Symbian17QAnnotatorControlC1Ev)
    ObjectDump::Symbian::QAnnotatorControl::~QAnnotatorControl__deallocating() 0x00016b31   Thumb Code    24  moc_objectdump_symbian.o(i._ZN10ObjectDump7Symbian17QAnnotatorControlD0Ev)
    ObjectDump::Symbian::QAnnotatorControl::~QAnnotatorControl() 0x00016b49   Thumb Code    14  moc_objectdump_symbian.o(i._ZN10ObjectDump7Symbian17QAnnotatorControlD1Ev)
    ObjectDump::Symbian::QAnnotatorControl::~QAnnotatorControl__sub_object() 0x00016b49   Thumb Code     0  moc_objectdump_symbian.o(i._ZN10ObjectDump7Symbian17QAnnotatorControlD1Ev)
    ObjectTree::AncestorConstIterator::AncestorConstIterator(const ObjectTree::AncestorConstIterator&) 0x00016b57   Thumb Code    44  objectdump.o(i._ZN10ObjectTree21AncestorConstIteratorC1ERKS0_)
    ObjectTree::AncestorConstIterator::AncestorConstIterator__sub_object(const ObjectTree::AncestorConstIterator&) 0x00016b57   Thumb Code     0  objectdump.o(i._ZN10ObjectTree21AncestorConstIteratorC1ERKS0_)
    ObjectTree::AncestorConstIterator::~AncestorConstIterator() 0x00016b83   Thumb Code    20  objectdump.o(i._ZN10ObjectTree21AncestorConstIteratorD1Ev)
    ObjectTree::AncestorConstIterator::~AncestorConstIterator__sub_object() 0x00016b83   Thumb Code     0  objectdump.o(i._ZN10ObjectTree21AncestorConstIteratorD1Ev)
    ObjectTree::DepthFirstConstIterator::DepthFirstConstIterator(const ObjectTree::DepthFirstConstIterator&) 0x00016b97   Thumb Code    46  objectdump.o(i._ZN10ObjectTree23DepthFirstConstIteratorC1ERKS0_)
    ObjectTree::DepthFirstConstIterator::DepthFirstConstIterator__sub_object(const ObjectTree::DepthFirstConstIterator&) 0x00016b97   Thumb Code     0  objectdump.o(i._ZN10ObjectTree23DepthFirstConstIteratorC1ERKS0_)
    ObjectTree::DepthFirstConstIterator::~DepthFirstConstIterator() 0x00016bc5   Thumb Code    20  objectdump.o(i._ZN10ObjectTree23DepthFirstConstIteratorD1Ev)
    ObjectTree::DepthFirstConstIterator::~DepthFirstConstIterator__sub_object() 0x00016bc5   Thumb Code     0  objectdump.o(i._ZN10ObjectTree23DepthFirstConstIteratorD1Ev)
    QByteArray::QByteArray(const QByteArray&) 0x00016bd9   Thumb Code    20  audiooutput.o(i._ZN10QByteArrayC1ERKS_)
    QByteArray::QByteArray__sub_object(const QByteArray&) 0x00016bd9   Thumb Code     0  audiooutput.o(i._ZN10QByteArrayC1ERKS_)
    QByteArray::QByteArray()                 0x00016bed   Thumb Code    18  objectdump.o(i._ZN10QByteArrayC1Ev)
    QByteArray::QByteArray__sub_object()     0x00016bed   Thumb Code     0  objectdump.o(i._ZN10QByteArrayC1Ev)
    QByteArray::~QByteArray()                0x00016c05   Thumb Code    24  audiooutput.o(i._ZN10QByteArrayD1Ev)
    QByteArray::~QByteArray__sub_object()    0x00016c05   Thumb Code     0  audiooutput.o(i._ZN10QByteArrayD1Ev)
    QStringList::~QStringList()              0x00016c1d   Thumb Code    14  backend.o(i._ZN11QStringListD1Ev)
    QStringList::~QStringList__sub_object()  0x00016c1d   Thumb Code     0  backend.o(i._ZN11QStringListD1Ev)
    CArrayFixFlat<TDataType>::~CArrayFixFlat__deallocating() 0x00016c2b   Thumb Code    24  backend.o(i._ZN13CArrayFixFlatI9TDataTypeED0Ev)
    CArrayFixFlat<TDataType>::~CArrayFixFlat() 0x00016c43   Thumb Code    14  backend.o(i._ZN13CArrayFixFlatI9TDataTypeED1Ev)
    CArrayFixFlat<TDataType>::~CArrayFixFlat__sub_object() 0x00016c43   Thumb Code     0  backend.o(i._ZN13CArrayFixFlatI9TDataTypeED1Ev)
    QBasicAtomicInt::ref()                   0x00016c51   Thumb Code    24  abstractaudioeffect.o(i._ZN15QBasicAtomicInt3refEv)
    QBasicAtomicInt::deref()                 0x00016c69   Thumb Code    24  abstractaudioeffect.o(i._ZN15QBasicAtomicInt5derefEv)
    QtSharedPointer::ExternalRefCountData::destroy() 0x00016c81   Thumb Code     6  abstractaudioeffect.o(i._ZN15QtSharedPointer20ExternalRefCountData7destroyEv)
    QtSharedPointer::ExternalRefCountData::~ExternalRefCountData__deallocating() 0x00016c87   Thumb Code    22  abstractaudioeffect.o(i._ZN15QtSharedPointer20ExternalRefCountDataD0Ev)
    QtSharedPointer::ExternalRefCountData::~ExternalRefCountData() 0x00016c9d   Thumb Code    70  abstractaudioeffect.o(i._ZN15QtSharedPointer20ExternalRefCountDataD1Ev)
    QtSharedPointer::ExternalRefCountData::~ExternalRefCountData__sub_object() 0x00016c9d   Thumb Code     0  abstractaudioeffect.o(i._ZN15QtSharedPointer20ExternalRefCountDataD1Ev)
    QForeachContainer<QList<QByteArray>>::~QForeachContainer() 0x00016d09   Thumb Code    14  objectdump.o(i._ZN17QForeachContainerI5QListI10QByteArrayEED1Ev)
    QForeachContainer<QList<QByteArray>>::~QForeachContainer__sub_object() 0x00016d09   Thumb Code     0  objectdump.o(i._ZN17QForeachContainerI5QListI10QByteArrayEED1Ev)
    QForeachContainer<QList<Phonon::MMF::EffectParameter>>::~QForeachContainer() 0x00016d17   Thumb Code    14  abstractaudioeffect.o(i._ZN17QForeachContainerI5QListIN6Phonon3MMF15EffectParameterEEED1Ev)
    QForeachContainer<QList<Phonon::MMF::EffectParameter>>::~QForeachContainer__sub_object() 0x00016d17   Thumb Code     0  abstractaudioeffect.o(i._ZN17QForeachContainerI5QListIN6Phonon3MMF15EffectParameterEEED1Ev)
    QForeachContainer<QList<ObjectDump::QAnnotator*>>::~QForeachContainer() 0x00016d25   Thumb Code    14  objectdump.o(i._ZN17QForeachContainerI5QListIPN10ObjectDump10QAnnotatorEEED1Ev)
    QForeachContainer<QList<ObjectDump::QAnnotator*>>::~QForeachContainer__sub_object() 0x00016d25   Thumb Code     0  objectdump.o(i._ZN17QForeachContainerI5QListIPN10ObjectDump10QAnnotatorEEED1Ev)
    QForeachContainer<QList<ObjectDump::QVisitorPrivate::Node*>>::~QForeachContainer() 0x00016d33   Thumb Code    14  objectdump.o(i._ZN17QForeachContainerI5QListIPN10ObjectDump15QVisitorPrivate4NodeEEED1Ev)
    QForeachContainer<QList<ObjectDump::QVisitorPrivate::Node*>>::~QForeachContainer__sub_object() 0x00016d33   Thumb Code     0  objectdump.o(i._ZN17QForeachContainerI5QListIPN10ObjectDump15QVisitorPrivate4NodeEEED1Ev)
    QForeachContainer<QList<Phonon::MMF::MediaNode*>>::~QForeachContainer() 0x00016d41   Thumb Code    14  mmf_medianode.o(i._ZN17QForeachContainerI5QListIPN6Phonon3MMF9MediaNodeEEED1Ev)
    QForeachContainer<QList<Phonon::MMF::MediaNode*>>::~QForeachContainer__sub_object() 0x00016d41   Thumb Code     0  mmf_medianode.o(i._ZN17QForeachContainerI5QListIPN6Phonon3MMF9MediaNodeEEED1Ev)
    OutputStreamFactory::MaoscBufferCopied(int, const TDesC8&) 0x00016d4f   Thumb Code     2  effectfactory.o(i._ZN19OutputStreamFactory17MaoscBufferCopiedEiRK6TDesC8)
    OutputStreamFactory::MaoscOpenComplete(int) 0x00016d51   Thumb Code     2  effectfactory.o(i._ZN19OutputStreamFactory17MaoscOpenCompleteEi)
    OutputStreamFactory::MaoscPlayComplete(int) 0x00016d53   Thumb Code     2  effectfactory.o(i._ZN19OutputStreamFactory17MaoscPlayCompleteEi)
    OutputStreamFactory::create()            0x00016d55   Thumb Code    82  effectfactory.o(i._ZN19OutputStreamFactory6createEv)
    OutputStreamFactory::OutputStreamFactory() 0x00016db1   Thumb Code    10  effectfactory.o(i._ZN19OutputStreamFactoryC1Ev)
    OutputStreamFactory::OutputStreamFactory__sub_object() 0x00016db1   Thumb Code     0  effectfactory.o(i._ZN19OutputStreamFactoryC1Ev)
    QGraphicsEffectPrivate::~QGraphicsEffectPrivate() 0x00016dc5   Thumb Code    14  objectdump_symbian.o(i._ZN22QGraphicsEffectPrivateD1Ev)
    QGraphicsEffectPrivate::~QGraphicsEffectPrivate__sub_object() 0x00016dc5   Thumb Code     0  objectdump_symbian.o(i._ZN22QGraphicsEffectPrivateD1Ev)
    QGraphicsBlurEffectPrivate::~QGraphicsBlurEffectPrivate__deallocating() 0x00016dd3   Thumb Code    22  objectdump_symbian.o(i._ZN26QGraphicsBlurEffectPrivateD0Ev)
    QGraphicsBlurEffectPrivate::~QGraphicsBlurEffectPrivate() 0x00016de9   Thumb Code    34  objectdump_symbian.o(i._ZN26QGraphicsBlurEffectPrivateD1Ev)
    QGraphicsBlurEffectPrivate::~QGraphicsBlurEffectPrivate__sub_object() 0x00016de9   Thumb Code     0  objectdump_symbian.o(i._ZN26QGraphicsBlurEffectPrivateD1Ev)
    QGraphicsColorizeEffectPrivate::~QGraphicsColorizeEffectPrivate__deallocating() 0x00016e1b   Thumb Code    22  objectdump_symbian.o(i._ZN30QGraphicsColorizeEffectPrivateD0Ev)
    QGraphicsColorizeEffectPrivate::~QGraphicsColorizeEffectPrivate() 0x00016e31   Thumb Code    34  objectdump_symbian.o(i._ZN30QGraphicsColorizeEffectPrivateD1Ev)
    QGraphicsColorizeEffectPrivate::~QGraphicsColorizeEffectPrivate__sub_object() 0x00016e31   Thumb Code     0  objectdump_symbian.o(i._ZN30QGraphicsColorizeEffectPrivateD1Ev)
    QGraphicsDropShadowEffectPrivate::~QGraphicsDropShadowEffectPrivate__deallocating() 0x00016e63   Thumb Code    22  objectdump_symbian.o(i._ZN32QGraphicsDropShadowEffectPrivateD0Ev)
    QGraphicsDropShadowEffectPrivate::~QGraphicsDropShadowEffectPrivate() 0x00016e79   Thumb Code    34  objectdump_symbian.o(i._ZN32QGraphicsDropShadowEffectPrivateD1Ev)
    QGraphicsDropShadowEffectPrivate::~QGraphicsDropShadowEffectPrivate__sub_object() 0x00016e79   Thumb Code     0  objectdump_symbian.o(i._ZN32QGraphicsDropShadowEffectPrivateD1Ev)
    QSet<int>::~QSet()                       0x00016eab   Thumb Code    14  effectfactory.o(i._ZN4QSetIiED1Ev)
    QSet<int>::~QSet__sub_object()           0x00016eab   Thumb Code     0  effectfactory.o(i._ZN4QSetIiED1Ev)
    QPair<QString, QString>::~QPair()        0x00016eb9   Thumb Code    22  abstractmediaplayer.o(i._ZN5QPairI7QStringS0_ED1Ev)
    QPair<QString, QString>::~QPair__sub_object() 0x00016eb9   Thumb Code     0  abstractmediaplayer.o(i._ZN5QPairI7QStringS0_ED1Ev)
    QRect::setSize(const QSize&)             0x00016ed9   Thumb Code    26  abstractvideoplayer.o(i._ZN5QRect7setSizeERK5QSize)
    Phonon::EffectInterface::~EffectInterface__deallocating() 0x00016ef3   Thumb Code    18  abstractaudioeffect.o(i._ZN6Phonon15EffectInterfaceD0Ev)
    Phonon::EffectInterface::~EffectInterface() 0x00016f05   Thumb Code     0  abstractaudioeffect.o(i._ZN6Phonon15EffectInterfaceD2Ev)
    Phonon::EffectInterface::~EffectInterface__sub_object() 0x00016f05   Thumb Code     2  abstractaudioeffect.o(i._ZN6Phonon15EffectInterfaceD2Ev)
    Phonon::BackendInterface::~BackendInterface__deallocating() 0x00016f07   Thumb Code    18  backend.o(i._ZN6Phonon16BackendInterfaceD0Ev)
    Phonon::BackendInterface::~BackendInterface() 0x00016f19   Thumb Code     0  backend.o(i._ZN6Phonon16BackendInterfaceD2Ev)
    Phonon::BackendInterface::~BackendInterface__sub_object() 0x00016f19   Thumb Code     2  backend.o(i._ZN6Phonon16BackendInterfaceD2Ev)
    Phonon::MediaObjectInterface::~MediaObjectInterface__deallocating() 0x00016f1b   Thumb Code    18  mediaobject.o(i._ZN6Phonon20MediaObjectInterfaceD0Ev)
    Phonon::MediaObjectInterface::~MediaObjectInterface() 0x00016f2d   Thumb Code     0  mediaobject.o(i._ZN6Phonon20MediaObjectInterfaceD2Ev)
    Phonon::MediaObjectInterface::~MediaObjectInterface__sub_object() 0x00016f2d   Thumb Code     2  mediaobject.o(i._ZN6Phonon20MediaObjectInterfaceD2Ev)
    Phonon::VideoWidgetInterface::~VideoWidgetInterface__deallocating() 0x00016f2f   Thumb Code    18  videowidget.o(i._ZN6Phonon20VideoWidgetInterfaceD0Ev)
    Phonon::VideoWidgetInterface::~VideoWidgetInterface() 0x00016f41   Thumb Code     0  videowidget.o(i._ZN6Phonon20VideoWidgetInterfaceD2Ev)
    Phonon::VideoWidgetInterface::~VideoWidgetInterface__sub_object() 0x00016f41   Thumb Code     2  videowidget.o(i._ZN6Phonon20VideoWidgetInterfaceD2Ev)
    Phonon::AudioOutputInterface40::~AudioOutputInterface40__deallocating() 0x00016f43   Thumb Code    18  audiooutput.o(i._ZN6Phonon22AudioOutputInterface40D0Ev)
    Phonon::AudioOutputInterface40::~AudioOutputInterface40() 0x00016f55   Thumb Code     0  audiooutput.o(i._ZN6Phonon22AudioOutputInterface40D2Ev)
    Phonon::AudioOutputInterface40::~AudioOutputInterface40__sub_object() 0x00016f55   Thumb Code     2  audiooutput.o(i._ZN6Phonon22AudioOutputInterface40D2Ev)
    Phonon::MMF::AudioOutput::~AudioOutput__deallocating() 0x00016f57   Thumb Code    22  moc_audiooutput.o(i._ZN6Phonon3MMF11AudioOutputD0Ev)
    Phonon::MMF::AudioOutput::~AudioOutput() 0x00016f6d   Thumb Code    22  moc_audiooutput.o(i._ZN6Phonon3MMF11AudioOutputD1Ev)
    Phonon::MMF::AudioOutput::~AudioOutput__sub_object() 0x00016f6d   Thumb Code     0  moc_audiooutput.o(i._ZN6Phonon3MMF11AudioOutputD1Ev)
    Phonon::MMF::DummyPlayer::~DummyPlayer__deallocating() 0x00016f87   Thumb Code    24  dummyplayer.o(i._ZN6Phonon3MMF11DummyPlayerD0Ev)
    Phonon::MMF::DummyPlayer::~DummyPlayer() 0x00016f9f   Thumb Code    14  dummyplayer.o(i._ZN6Phonon3MMF11DummyPlayerD1Ev)
    Phonon::MMF::DummyPlayer::~DummyPlayer__sub_object() 0x00016f9f   Thumb Code     0  dummyplayer.o(i._ZN6Phonon3MMF11DummyPlayerD1Ev)
    Phonon::MMF::MediaObject::tr(const char*, const char*) 0x00016fad   Thumb Code    22  mediaobject.o(i._ZN6Phonon3MMF11MediaObject2trEPKcS3_)
    Phonon::MMF::EffectFactory::EffectData::EffectData() 0x00016fc9   Thumb Code    44  effectfactory.o(i._ZN6Phonon3MMF13EffectFactory10EffectDataC1Ev)
    Phonon::MMF::EffectFactory::EffectData::EffectData__sub_object() 0x00016fc9   Thumb Code     0  effectfactory.o(i._ZN6Phonon3MMF13EffectFactory10EffectDataC1Ev)
    Phonon::MMF::EffectFactory::EffectData::~EffectData() 0x00017007   Thumb Code    28  effectfactory.o(i._ZN6Phonon3MMF13EffectFactory10EffectDataD1Ev)
    Phonon::MMF::EffectFactory::EffectData::~EffectData__sub_object() 0x00017007   Thumb Code     0  effectfactory.o(i._ZN6Phonon3MMF13EffectFactory10EffectDataD1Ev)
    Phonon::MMF::EffectFactory::EffectData::operator =(const Phonon::MMF::EffectFactory::EffectData&) 0x0001702d   Thumb Code   164  effectfactory.o(i._ZN6Phonon3MMF13EffectFactory10EffectDataaSERKS2_)
    Phonon::MMF::EffectFactory::tr(const char*, const char*) 0x000170d1   Thumb Code    22  effectfactory.o(i._ZN6Phonon3MMF13EffectFactory2trEPKcS3_)
    Phonon::MMF::AbstractPlayer::~AbstractPlayer__deallocating() 0x000170ed   Thumb Code    22  moc_abstractplayer.o(i._ZN6Phonon3MMF14AbstractPlayerD0Ev)
    Phonon::MMF::AbstractPlayer::~AbstractPlayer() 0x00017105   Thumb Code     0  abstractmediaplayer.o(i._ZN6Phonon3MMF14AbstractPlayerD2Ev)
    Phonon::MMF::AbstractPlayer::~AbstractPlayer__sub_object() 0x00017105   Thumb Code    30  abstractmediaplayer.o(i._ZN6Phonon3MMF14AbstractPlayerD2Ev)
    Phonon::MMF::AudioEqualizer::~AudioEqualizer__deallocating() 0x00017133   Thumb Code    24  moc_audioequalizer.o(i._ZN6Phonon3MMF14AudioEqualizerD0Ev)
    Phonon::MMF::AudioEqualizer::~AudioEqualizer() 0x0001714b   Thumb Code    14  moc_audioequalizer.o(i._ZN6Phonon3MMF14AudioEqualizerD1Ev)
    Phonon::MMF::AudioEqualizer::~AudioEqualizer__sub_object() 0x0001714b   Thumb Code     0  moc_audioequalizer.o(i._ZN6Phonon3MMF14AudioEqualizerD1Ev)
    Phonon::MMF::StereoWidening::~StereoWidening__deallocating() 0x00017159   Thumb Code    24  moc_stereowidening.o(i._ZN6Phonon3MMF14StereoWideningD0Ev)
    Phonon::MMF::StereoWidening::~StereoWidening() 0x00017171   Thumb Code    14  moc_stereowidening.o(i._ZN6Phonon3MMF14StereoWideningD1Ev)
    Phonon::MMF::StereoWidening::~StereoWidening__sub_object() 0x00017171   Thumb Code     0  moc_stereowidening.o(i._ZN6Phonon3MMF14StereoWideningD1Ev)
    Phonon::MMF::EffectParameter::EffectParameter(const Phonon::MMF::EffectParameter&) 0x0001717f   Thumb Code    32  abstractaudioeffect.o(i._ZN6Phonon3MMF15EffectParameterC1ERKS1_)
    Phonon::MMF::EffectParameter::EffectParameter__sub_object(const Phonon::MMF::EffectParameter&) 0x0001717f   Thumb Code     0  abstractaudioeffect.o(i._ZN6Phonon3MMF15EffectParameterC1ERKS1_)
    Phonon::MMF::EffectParameter::~EffectParameter() 0x0001719f   Thumb Code    14  abstractaudioeffect.o(i._ZN6Phonon3MMF15EffectParameterD1Ev)
    Phonon::MMF::EffectParameter::~EffectParameter__sub_object() 0x0001719f   Thumb Code     0  abstractaudioeffect.o(i._ZN6Phonon3MMF15EffectParameterD1Ev)
    Phonon::MMF::EffectParameter::operator =(const Phonon::MMF::EffectParameter&) 0x000171ad   Thumb Code    40  abstractaudioeffect.o(i._ZN6Phonon3MMF15EffectParameteraSERKS1_)
    Phonon::MMF::AbstractAudioEffect::~AbstractAudioEffect__deallocating() 0x000171d5   Thumb Code    22  moc_abstractaudioeffect.o(i._ZN6Phonon3MMF19AbstractAudioEffectD0Ev)
    Phonon::MMF::AbstractAudioEffect::~AbstractAudioEffect() 0x000171ed   Thumb Code     0  moc_abstractaudioeffect.o(i._ZN6Phonon3MMF19AbstractAudioEffectD2Ev)
    Phonon::MMF::AbstractAudioEffect::~AbstractAudioEffect__sub_object() 0x000171ed   Thumb Code    66  moc_abstractaudioeffect.o(i._ZN6Phonon3MMF19AbstractAudioEffectD2Ev)
    Phonon::MMF::AbstractMediaPlayer::tr(const char*, const char*) 0x00017265   Thumb Code    22  abstractmediaplayer.o(i._ZN6Phonon3MMF19AbstractMediaPlayer2trEPKcS3_)
    Phonon::MMF::AbstractMediaPlayer::~AbstractMediaPlayer__deallocating() 0x00017281   Thumb Code    22  moc_abstractmediaplayer.o(i._ZN6Phonon3MMF19AbstractMediaPlayerD0Ev)
    Phonon::MMF::AbstractMediaPlayer::~AbstractMediaPlayer() 0x00017299   Thumb Code     0  audioplayer.o(i._ZN6Phonon3MMF19AbstractMediaPlayerD2Ev)
    Phonon::MMF::AbstractMediaPlayer::~AbstractMediaPlayer__sub_object() 0x00017299   Thumb Code    56  audioplayer.o(i._ZN6Phonon3MMF19AbstractMediaPlayerD2Ev)
    Phonon::MMF::AbstractVideoPlayer::tr(const char*, const char*) 0x000172f9   Thumb Code    22  abstractvideoplayer.o(i._ZN6Phonon3MMF19AbstractVideoPlayer2trEPKcS3_)
    Phonon::MMF::EnvironmentalReverb::tr(const char*, const char*) 0x00017315   Thumb Code    22  environmentalreverb.o(i._ZN6Phonon3MMF19EnvironmentalReverb2trEPKcS3_)
    Phonon::MMF::EnvironmentalReverb::~EnvironmentalReverb__deallocating() 0x00017331   Thumb Code    24  moc_environmentalreverb.o(i._ZN6Phonon3MMF19EnvironmentalReverbD0Ev)
    Phonon::MMF::EnvironmentalReverb::~EnvironmentalReverb() 0x00017349   Thumb Code    14  moc_environmentalreverb.o(i._ZN6Phonon3MMF19EnvironmentalReverbD1Ev)
    Phonon::MMF::EnvironmentalReverb::~EnvironmentalReverb__sub_object() 0x00017349   Thumb Code     0  moc_environmentalreverb.o(i._ZN6Phonon3MMF19EnvironmentalReverbD1Ev)
    Phonon::MMF::Utils::tr(const char*, const char*) 0x00017359   Thumb Code    26  utils.o(i._ZN6Phonon3MMF5Utils2trEPKcS3_)
    Phonon::MMF::Backend::~Backend__deallocating() 0x00017379   Thumb Code    22  moc_backend.o(i._ZN6Phonon3MMF7BackendD0Ev)
    Phonon::MMF::Backend::~Backend()         0x00017391   Thumb Code    42  moc_backend.o(i._ZN6Phonon3MMF7BackendD1Ev)
    Phonon::MMF::Backend::~Backend__sub_object() 0x00017391   Thumb Code     0  moc_backend.o(i._ZN6Phonon3MMF7BackendD1Ev)
    Phonon::MMF::Loudness::~Loudness__deallocating() 0x000173d7   Thumb Code    24  moc_loudness.o(i._ZN6Phonon3MMF8LoudnessD0Ev)
    Phonon::MMF::Loudness::~Loudness()       0x000173ef   Thumb Code    14  moc_loudness.o(i._ZN6Phonon3MMF8LoudnessD1Ev)
    Phonon::MMF::Loudness::~Loudness__sub_object() 0x000173ef   Thumb Code     0  moc_loudness.o(i._ZN6Phonon3MMF8LoudnessD1Ev)
    Phonon::MMF::BassBoost::~BassBoost__deallocating() 0x000173fd   Thumb Code    24  moc_bassboost.o(i._ZN6Phonon3MMF9BassBoostD0Ev)
    Phonon::MMF::BassBoost::~BassBoost()     0x00017415   Thumb Code    14  moc_bassboost.o(i._ZN6Phonon3MMF9BassBoostD1Ev)
    Phonon::MMF::BassBoost::~BassBoost__sub_object() 0x00017415   Thumb Code     0  moc_bassboost.o(i._ZN6Phonon3MMF9BassBoostD1Ev)
    QDebug::maybeSpace()                     0x00017423   Thumb Code    24  objectdump.o(i._ZN6QDebug10maybeSpaceEv)
    QDebug::~QDebug()                        0x0001743b   Thumb Code   144  objectdump.o(i._ZN6QDebugD1Ev)
    QDebug::~QDebug__sub_object()            0x0001743b   Thumb Code     0  objectdump.o(i._ZN6QDebugD1Ev)
    QDebug::operator <<(const char*)         0x000174df   Thumb Code    44  objectdump.o(i._ZN6QDebuglsEPKc)
    QString::QString(const QString&)         0x00017515   Thumb Code    40  abstractmediaplayer.o(i._ZN7QStringC1ERKS_)
    QString::QString__sub_object(const QString&) 0x00017515   Thumb Code     0  abstractmediaplayer.o(i._ZN7QStringC1ERKS_)
    QString::QString()                       0x00017591   Thumb Code    18  effectfactory.o(i._ZN7QStringC1Ev)
    QString::QString__sub_object()           0x00017591   Thumb Code     0  effectfactory.o(i._ZN7QStringC1Ev)
    QString::~QString()                      0x000175a9   Thumb Code    24  abstractmediaplayer.o(i._ZN7QStringD1Ev)
    QString::~QString__sub_object()          0x000175a9   Thumb Code     0  abstractmediaplayer.o(i._ZN7QStringD1Ev)
    QVariant::QVariant(float)                0x000175c1   Thumb Code    58  audioequalizer.o(i._ZN8QVariantC1Ef)
    QVariant::QVariant__sub_object(float)    0x000175c1   Thumb Code     0  audioequalizer.o(i._ZN8QVariantC1Ef)
    QVariant::QVariant()                     0x000175fb   Thumb Code    38  effectfactory.o(i._ZN8QVariantC1Ev)
    QVariant::QVariant__sub_object()         0x000175fb   Thumb Code     0  effectfactory.o(i._ZN8QVariantC1Ev)
    CArrayFix<TDataType>::~CArrayFix__deallocating() 0x00017621   Thumb Code    22  backend.o(i._ZN9CArrayFixI9TDataTypeED0Ev)
    CArrayFix<TDataType>::~CArrayFix()       0x00017637   Thumb Code    14  backend.o(i._ZN9CArrayFixI9TDataTypeED1Ev)
    CArrayFix<TDataType>::~CArrayFix__sub_object() 0x00017637   Thumb Code     0  backend.o(i._ZN9CArrayFixI9TDataTypeED1Ev)
    QHashData::willGrow()                    0x00017645   Thumb Code    32  effectfactory.o(i._ZN9QHashData8willGrowEv)
    QMultiMap<QString, QString>::~QMultiMap() 0x00017665   Thumb Code    14  abstractmediaplayer.o(i._ZN9QMultiMapI7QStringS0_ED1Ev)
    QMultiMap<QString, QString>::~QMultiMap__sub_object() 0x00017665   Thumb Code     0  abstractmediaplayer.o(i._ZN9QMultiMapI7QStringS0_ED1Ev)
    QBasicAtomicInt::operator ==(int) const  0x00017673   Thumb Code    16  objectdump.o(i._ZNK15QBasicAtomicInteqEi)
    QBasicAtomicInt::operator !=(int) const  0x00017683   Thumb Code    16  abstractaudioeffect.o(i._ZNK15QBasicAtomicIntneEi)
    QBool::operator const void*() const      0x00017693   Thumb Code    16  mmf_medianode.o(i._ZNK5QBoolcvPKvEv)
    Phonon::MediaObjectInterface::remainingTime() const 0x000176a3   Thumb Code    46  mediaobject.o(i._ZNK6Phonon20MediaObjectInterface13remainingTimeEv)
    Phonon::MMF::TTraceContext::Enabled() const 0x000176d1   Thumb Code    22  abstractmediaplayer.o(i._ZNK6Phonon3MMF13TTraceContext7EnabledEv)
    QObject::isWidgetType() const            0x000176e7   Thumb Code    18  objectdump.o(i._ZNK7QObject12isWidgetTypeEv)
    QObject::parent() const                  0x000176f9   Thumb Code    14  objecttree.o(i._ZNK7QObject6parentEv)
    QObject::connect(const QObject*, const char*, const char*, Qt::ConnectionType) const 0x00017707   Thumb Code    30  abstractaudioeffect.o(i._ZNK7QObject7connectEPKS_PKcS3_N2Qt14ConnectionTypeE)
    QWidget::size() const                    0x00017725   Thumb Code    44  objectdump.o(i._ZNK7QWidget4sizeEv)
    QListData::at(int) const                 0x00017751   Thumb Code    20  mmf_medianode.o(i._ZNK9QListData2atEi)
    QListData::end() const                   0x00017765   Thumb Code    16  abstractaudioeffect.o(i._ZNK9QListData3endEv)
    QListData::begin() const                 0x00017775   Thumb Code    16  abstractaudioeffect.o(i._ZNK9QListData5beginEv)
    QListData::isEmpty() const               0x00017785   Thumb Code    22  backend.o(i._ZNK9QListData7isEmptyEv)
    thunk{-20} to Phonon::MMF::AudioOutput::~AudioOutput__deallocating() 0x0001779b   Thumb Code    14  moc_audiooutput.o(i._ZThn20_N6Phonon3MMF11AudioOutputD0Ev)
    thunk{-20} to Phonon::MMF::AudioOutput::~AudioOutput() 0x000177a9   Thumb Code    14  moc_audiooutput.o(i._ZThn20_N6Phonon3MMF11AudioOutputD1Ev)
    thunk{-20} to Phonon::MMF::AudioEqualizer::~AudioEqualizer__deallocating() 0x000177b7   Thumb Code    14  moc_audioequalizer.o(i._ZThn20_N6Phonon3MMF14AudioEqualizerD0Ev)
    thunk{-20} to Phonon::MMF::AudioEqualizer::~AudioEqualizer() 0x000177c5   Thumb Code    18  moc_audioequalizer.o(i._ZThn20_N6Phonon3MMF14AudioEqualizerD1Ev)
    thunk{-20} to Phonon::MMF::StereoWidening::~StereoWidening__deallocating() 0x000177d7   Thumb Code    14  moc_stereowidening.o(i._ZThn20_N6Phonon3MMF14StereoWideningD0Ev)
    thunk{-20} to Phonon::MMF::StereoWidening::~StereoWidening() 0x000177e5   Thumb Code    18  moc_stereowidening.o(i._ZThn20_N6Phonon3MMF14StereoWideningD1Ev)
    thunk{-20} to Phonon::MMF::AbstractAudioEffect::~AbstractAudioEffect__deallocating() 0x000177f7   Thumb Code    14  moc_abstractaudioeffect.o(i._ZThn20_N6Phonon3MMF19AbstractAudioEffectD0Ev)
    thunk{-20} to Phonon::MMF::AbstractAudioEffect::~AbstractAudioEffect() 0x00017805   Thumb Code    14  moc_abstractaudioeffect.o(i._ZThn20_N6Phonon3MMF19AbstractAudioEffectD1Ev)
    thunk{-20} to Phonon::MMF::EnvironmentalReverb::~EnvironmentalReverb__deallocating() 0x00017813   Thumb Code    14  moc_environmentalreverb.o(i._ZThn20_N6Phonon3MMF19EnvironmentalReverbD0Ev)
    thunk{-20} to Phonon::MMF::EnvironmentalReverb::~EnvironmentalReverb() 0x00017821   Thumb Code    18  moc_environmentalreverb.o(i._ZThn20_N6Phonon3MMF19EnvironmentalReverbD1Ev)
    thunk{-20} to Phonon::MMF::Loudness::~Loudness__deallocating() 0x00017833   Thumb Code    14  moc_loudness.o(i._ZThn20_N6Phonon3MMF8LoudnessD0Ev)
    thunk{-20} to Phonon::MMF::Loudness::~Loudness() 0x00017841   Thumb Code    18  moc_loudness.o(i._ZThn20_N6Phonon3MMF8LoudnessD1Ev)
    thunk{-20} to Phonon::MMF::BassBoost::~BassBoost__deallocating() 0x00017853   Thumb Code    14  moc_bassboost.o(i._ZThn20_N6Phonon3MMF9BassBoostD0Ev)
    thunk{-20} to Phonon::MMF::BassBoost::~BassBoost() 0x00017861   Thumb Code    18  moc_bassboost.o(i._ZThn20_N6Phonon3MMF9BassBoostD1Ev)
    thunk{-8} to Phonon::MMF::Backend::~Backend__deallocating() 0x00017873   Thumb Code    14  moc_backend.o(i._ZThn8_N6Phonon3MMF7BackendD0Ev)
    thunk{-8} to Phonon::MMF::Backend::~Backend() 0x00017881   Thumb Code    14  moc_backend.o(i._ZThn8_N6Phonon3MMF7BackendD1Ev)
    operator delete (void*, void*)           0x0001788f   Thumb Code     2  abstractaudioeffect.o(i._ZdlPvS_)
    operator new(unsigned, void*)            0x00017891   Thumb Code     6  abstractaudioeffect.o(i._ZnwjPv)
    qobject_cast<const QWidget*>(const QObject*) 0x00017899   Thumb Code    54  objectdump_symbian.o(t._Z12qobject_castIPK7QWidgetET_PK7QObject)
    qobject_cast<Phonon::MMF::MediaNode*>(QObject*) 0x000178d9   Thumb Code    26  backend.o(t._Z12qobject_castIPN6Phonon3MMF9MediaNodeEET_P7QObject)
    qRegisterMetaType<Phonon::MMF::Download::State>(const char*, T1*) 0x000178f9   Thumb Code    56  download.o(t._Z17qRegisterMetaTypeIN6Phonon3MMF8Download5StateEEiPKcPT_)
    qForeachContainerNew<QList<Phonon::MMF::EffectParameter>>(const T1&) 0x00017939   Thumb Code   102  abstractaudioeffect.o(t._Z20qForeachContainerNewI5QListIN6Phonon3MMF15EffectParameterEEE17QForeachContainerIT_ERKS6_)
    qForeachContainerNew<QList<ObjectDump::QAnnotator*>>(const T1&) 0x000179a9   Thumb Code   126  objectdump.o(t._Z20qForeachContainerNewI5QListIPN10ObjectDump10QAnnotatorEEE17QForeachContainerIT_ERKS6_)
    qForeachContainerNew<QList<Phonon::MMF::MediaNode*>>(const T1&) 0x00017a31   Thumb Code   126  mmf_medianode.o(t._Z20qForeachContainerNewI5QListIPN6Phonon3MMF9MediaNodeEEE17QForeachContainerIT_ERKS7_)
    qMetaTypeDeleteHelper<Phonon::MMF::Download::State>(T1*) 0x00017ab9   Thumb Code    12  download.o(t._Z21qMetaTypeDeleteHelperIN6Phonon3MMF8Download5StateEEvPT_)
    qMetaTypeConstructHelper<Phonon::MMF::Download::State>(const T1*) 0x00017ac5   Thumb Code    50  download.o(t._Z24qMetaTypeConstructHelperIN6Phonon3MMF8Download5StateEEPvPKT_)
    qMin<int>(const T1&, const T1&)          0x00017af7   Thumb Code    18  objectdump.o(t._Z4qMinIiERKT_S2_S2_)
    ObjectTree::visit<ObjectTree::AncestorConstIterator, ObjectDump::QVisitor>(T1, T1, T2&) 0x00017b09   Thumb Code   196  objectdump.o(t._ZN10ObjectTree5visitINS_21AncestorConstIteratorEN10ObjectDump8QVisitorEEEvT_S4_RT0_)
    ObjectTree::visit<ObjectTree::DepthFirstConstIterator, ObjectDump::QVisitor>(T1, T1, T2&) 0x00017c1d   Thumb Code    62  objectdump.o(t._ZN10ObjectTree5visitINS_23DepthFirstConstIteratorEN10ObjectDump8QVisitorEEEvT_S4_RT0_)
    CleanupClose<RApaLsSession>::Close(void*) 0x00017c5b   Thumb Code    12  backend.o(t._ZN12CleanupCloseI13RApaLsSessionE5CloseEPv)
    QMetaTypeId2<Phonon::MMF::Download::State>::qt_metatype_id() 0x00017c69   Thumb Code    54  download.o(t._ZN12QMetaTypeId2IN6Phonon3MMF8Download5StateEE14qt_metatype_idEv)
    QScopedPointer<CBassBoost, QScopedPointerDeleter<CBassBoost>>::~QScopedPointer() 0x00017cc5   Thumb Code    28  bassboost.o(t._ZN14QScopedPointerI10CBassBoost21QScopedPointerDeleterIS0_EED1Ev)
    QScopedPointer<CBassBoost, QScopedPointerDeleter<CBassBoost>>::~QScopedPointer__sub_object() 0x00017cc5   Thumb Code     0  bassboost.o(t._ZN14QScopedPointerI10CBassBoost21QScopedPointerDeleterIS0_EED1Ev)
    QScopedPointer<CAudioEffect, QScopedPointerDeleter<CAudioEffect>>::~QScopedPointer() 0x00017ce1   Thumb Code    28  abstractaudioeffect.o(t._ZN14QScopedPointerI12CAudioEffect21QScopedPointerDeleterIS0_EED1Ev)
    QScopedPointer<CAudioEffect, QScopedPointerDeleter<CAudioEffect>>::~QScopedPointer__sub_object() 0x00017ce1   Thumb Code     0  abstractaudioeffect.o(t._ZN14QScopedPointerI12CAudioEffect21QScopedPointerDeleterIS0_EED1Ev)
    QScopedPointer<CAudioEqualizer, QScopedPointerDeleter<CAudioEqualizer>>::~QScopedPointer() 0x00017cfd   Thumb Code    28  audioequalizer.o(t._ZN14QScopedPointerI15CAudioEqualizer21QScopedPointerDeleterIS0_EED1Ev)
    QScopedPointer<CAudioEqualizer, QScopedPointerDeleter<CAudioEqualizer>>::~QScopedPointer__sub_object() 0x00017cfd   Thumb Code     0  audioequalizer.o(t._ZN14QScopedPointerI15CAudioEqualizer21QScopedPointerDeleterIS0_EED1Ev)
    QScopedPointer<CStereoWidening, QScopedPointerDeleter<CStereoWidening>>::~QScopedPointer() 0x00017d19   Thumb Code    28  stereowidening.o(t._ZN14QScopedPointerI15CStereoWidening21QScopedPointerDeleterIS0_EED1Ev)
    QScopedPointer<CStereoWidening, QScopedPointerDeleter<CStereoWidening>>::~QScopedPointer__sub_object() 0x00017d19   Thumb Code     0  stereowidening.o(t._ZN14QScopedPointerI15CStereoWidening21QScopedPointerDeleterIS0_EED1Ev)
    QScopedPointer<CVideoPlayerUtility, QScopedPointerDeleter<CVideoPlayerUtility>>::~QScopedPointer() 0x00017d35   Thumb Code    28  abstractvideoplayer.o(t._ZN14QScopedPointerI19CVideoPlayerUtility21QScopedPointerDeleterIS0_EED1Ev)
    QScopedPointer<CVideoPlayerUtility, QScopedPointerDeleter<CVideoPlayerUtility>>::~QScopedPointer__sub_object() 0x00017d35   Thumb Code     0  abstractvideoplayer.o(t._ZN14QScopedPointerI19CVideoPlayerUtility21QScopedPointerDeleterIS0_EED1Ev)
    QScopedPointer<CEnvironmentalReverb, QScopedPointerDeleter<CEnvironmentalReverb>>::~QScopedPointer() 0x00017d51   Thumb Code    28  environmentalreverb.o(t._ZN14QScopedPointerI20CEnvironmentalReverb21QScopedPointerDeleterIS0_EED1Ev)
    QScopedPointer<CEnvironmentalReverb, QScopedPointerDeleter<CEnvironmentalReverb>>::~QScopedPointer__sub_object() 0x00017d51   Thumb Code     0  environmentalreverb.o(t._ZN14QScopedPointerI20CEnvironmentalReverb21QScopedPointerDeleterIS0_EED1Ev)
    QScopedPointer<CMdaAudioOutputStream, QScopedPointerDeleter<CMdaAudioOutputStream>>::~QScopedPointer() 0x00017d6d   Thumb Code    28  effectfactory.o(t._ZN14QScopedPointerI21CMdaAudioOutputStream21QScopedPointerDeleterIS0_EED1Ev)
    QScopedPointer<CMdaAudioOutputStream, QScopedPointerDeleter<CMdaAudioOutputStream>>::~QScopedPointer__sub_object() 0x00017d6d   Thumb Code     0  effectfactory.o(t._ZN14QScopedPointerI21CMdaAudioOutputStream21QScopedPointerDeleterIS0_EED1Ev)
    QScopedPointer<CMdaAudioPlayerUtility, QScopedPointerDeleter<CMdaAudioPlayerUtility>>::~QScopedPointer() 0x00017d89   Thumb Code    28  audioplayer.o(t._ZN14QScopedPointerI22CMdaAudioPlayerUtility21QScopedPointerDeleterIS0_EED1Ev)
    QScopedPointer<CMdaAudioPlayerUtility, QScopedPointerDeleter<CMdaAudioPlayerUtility>>::~QScopedPointer__sub_object() 0x00017d89   Thumb Code     0  audioplayer.o(t._ZN14QScopedPointerI22CMdaAudioPlayerUtility21QScopedPointerDeleterIS0_EED1Ev)
    QScopedPointer<QTimer, QScopedPointerDeleter<QTimer>>::~QScopedPointer() 0x00017da5   Thumb Code    28  abstractmediaplayer.o(t._ZN14QScopedPointerI6QTimer21QScopedPointerDeleterIS0_EED1Ev)
    QScopedPointer<QTimer, QScopedPointerDeleter<QTimer>>::~QScopedPointer__sub_object() 0x00017da5   Thumb Code     0  abstractmediaplayer.o(t._ZN14QScopedPointerI6QTimer21QScopedPointerDeleterIS0_EED1Ev)
    QScopedPointer<CLoudness, QScopedPointerDeleter<CLoudness>>::~QScopedPointer() 0x00017dc1   Thumb Code    28  loudness.o(t._ZN14QScopedPointerI9CLoudness21QScopedPointerDeleterIS0_EED1Ev)
    QScopedPointer<CLoudness, QScopedPointerDeleter<CLoudness>>::~QScopedPointer__sub_object() 0x00017dc1   Thumb Code     0  loudness.o(t._ZN14QScopedPointerI9CLoudness21QScopedPointerDeleterIS0_EED1Ev)
    QScopedPointer<ObjectDump::QAnnotator, QScopedPointerDeleter<ObjectDump::QAnnotator>>::~QScopedPointer() 0x00017ddd   Thumb Code    28  objectdump.o(t._ZN14QScopedPointerIN10ObjectDump10QAnnotatorE21QScopedPointerDeleterIS1_EED1Ev)
    QScopedPointer<ObjectDump::QAnnotator, QScopedPointerDeleter<ObjectDump::QAnnotator>>::~QScopedPointer__sub_object() 0x00017ddd   Thumb Code     0  objectdump.o(t._ZN14QScopedPointerIN10ObjectDump10QAnnotatorE21QScopedPointerDeleterIS1_EED1Ev)
    QScopedPointer<ObjectDump::QDumperPrivate, QScopedPointerDeleter<ObjectDump::QDumperPrivate>>::~QScopedPointer() 0x00017df9   Thumb Code    32  objectdump.o(t._ZN14QScopedPointerIN10ObjectDump14QDumperPrivateE21QScopedPointerDeleterIS1_EED1Ev)
    QScopedPointer<ObjectDump::QDumperPrivate, QScopedPointerDeleter<ObjectDump::QDumperPrivate>>::~QScopedPointer__sub_object() 0x00017df9   Thumb Code     0  objectdump.o(t._ZN14QScopedPointerIN10ObjectDump14QDumperPrivateE21QScopedPointerDeleterIS1_EED1Ev)
    QScopedPointer<ObjectDump::QVisitorPrivate::Node, QScopedPointerDeleter<ObjectDump::QVisitorPrivate::Node>>::reset(ObjectDump::QVisitorPrivate::Node*) 0x00017e19   Thumb Code    26  objectdump.o(t._ZN14QScopedPointerIN10ObjectDump15QVisitorPrivate4NodeE21QScopedPointerDeleterIS2_EE5resetEPS2_)
    QScopedPointer<ObjectDump::QVisitorPrivate::Node, QScopedPointerDeleter<ObjectDump::QVisitorPrivate::Node>>::~QScopedPointer() 0x00017e33   Thumb Code    20  objectdump.o(t._ZN14QScopedPointerIN10ObjectDump15QVisitorPrivate4NodeE21QScopedPointerDeleterIS2_EED1Ev)
    QScopedPointer<ObjectDump::QVisitorPrivate::Node, QScopedPointerDeleter<ObjectDump::QVisitorPrivate::Node>>::~QScopedPointer__sub_object() 0x00017e33   Thumb Code     0  objectdump.o(t._ZN14QScopedPointerIN10ObjectDump15QVisitorPrivate4NodeE21QScopedPointerDeleterIS2_EED1Ev)
    QScopedPointer<ObjectDump::QVisitorPrivate, QScopedPointerDeleter<ObjectDump::QVisitorPrivate>>::~QScopedPointer() 0x00017e47   Thumb Code    32  objectdump.o(t._ZN14QScopedPointerIN10ObjectDump15QVisitorPrivateE21QScopedPointerDeleterIS1_EED1Ev)
    QScopedPointer<ObjectDump::QVisitorPrivate, QScopedPointerDeleter<ObjectDump::QVisitorPrivate>>::~QScopedPointer__sub_object() 0x00017e47   Thumb Code     0  objectdump.o(t._ZN14QScopedPointerIN10ObjectDump15QVisitorPrivateE21QScopedPointerDeleterIS1_EED1Ev)
    QScopedPointer<ObjectDump::QVisitor, QScopedPointerDeleter<ObjectDump::QVisitor>>::~QScopedPointer() 0x00017e67   Thumb Code    28  abstractvideooutput.o(t._ZN14QScopedPointerIN10ObjectDump8QVisitorE21QScopedPointerDeleterIS1_EED1Ev)
    QScopedPointer<ObjectDump::QVisitor, QScopedPointerDeleter<ObjectDump::QVisitor>>::~QScopedPointer__sub_object() 0x00017e67   Thumb Code     0  abstractvideooutput.o(t._ZN14QScopedPointerIN10ObjectDump8QVisitorE21QScopedPointerDeleterIS1_EED1Ev)
    QScopedPointer<Phonon::MMF::EffectFactory, QScopedPointerDeleter<Phonon::MMF::EffectFactory>>::~QScopedPointer() 0x00017e83   Thumb Code    28  moc_backend.o(t._ZN14QScopedPointerIN6Phonon3MMF13EffectFactoryE21QScopedPointerDeleterIS2_EED1Ev)
    QScopedPointer<Phonon::MMF::EffectFactory, QScopedPointerDeleter<Phonon::MMF::EffectFactory>>::~QScopedPointer__sub_object() 0x00017e83   Thumb Code     0  moc_backend.o(t._ZN14QScopedPointerIN6Phonon3MMF13EffectFactoryE21QScopedPointerDeleterIS2_EED1Ev)
    QScopedPointer<Phonon::MMF::AbstractPlayer, QScopedPointerDeleter<Phonon::MMF::AbstractPlayer>>::reset(Phonon::MMF::AbstractPlayer*) 0x00017e9f   Thumb Code    34  mediaobject.o(t._ZN14QScopedPointerIN6Phonon3MMF14AbstractPlayerE21QScopedPointerDeleterIS2_EE5resetEPS2_)
    QScopedPointer<Phonon::MMF::AbstractPlayer, QScopedPointerDeleter<Phonon::MMF::AbstractPlayer>>::~QScopedPointer() 0x00017ec1   Thumb Code    28  mediaobject.o(t._ZN14QScopedPointerIN6Phonon3MMF14AbstractPlayerE21QScopedPointerDeleterIS2_EED1Ev)
    QScopedPointer<Phonon::MMF::AbstractPlayer, QScopedPointerDeleter<Phonon::MMF::AbstractPlayer>>::~QScopedPointer__sub_object() 0x00017ec1   Thumb Code     0  mediaobject.o(t._ZN14QScopedPointerIN6Phonon3MMF14AbstractPlayerE21QScopedPointerDeleterIS2_EED1Ev)
    QScopedPointer<Phonon::MMF::SurfaceVideoPlayer, QScopedPointerDeleter<Phonon::MMF::SurfaceVideoPlayer>>::~QScopedPointer() 0x00017edd   Thumb Code    28  videoplayer_surface.o(t._ZN14QScopedPointerIN6Phonon3MMF18SurfaceVideoPlayerE21QScopedPointerDeleterIS2_EED1Ev)
    QScopedPointer<Phonon::MMF::SurfaceVideoPlayer, QScopedPointerDeleter<Phonon::MMF::SurfaceVideoPlayer>>::~QScopedPointer__sub_object() 0x00017edd   Thumb Code     0  videoplayer_surface.o(t._ZN14QScopedPointerIN6Phonon3MMF18SurfaceVideoPlayerE21QScopedPointerDeleterIS2_EED1Ev)
    QScopedPointer<Phonon::MMF::AbstractVideoOutput, QScopedPointerDeleter<Phonon::MMF::AbstractVideoOutput>>::~QScopedPointer() 0x00017ef9   Thumb Code    28  videowidget.o(t._ZN14QScopedPointerIN6Phonon3MMF19AbstractVideoOutputE21QScopedPointerDeleterIS2_EED1Ev)
    QScopedPointer<Phonon::MMF::AbstractVideoOutput, QScopedPointerDeleter<Phonon::MMF::AbstractVideoOutput>>::~QScopedPointer__sub_object() 0x00017ef9   Thumb Code     0  videowidget.o(t._ZN14QScopedPointerIN6Phonon3MMF19AbstractVideoOutputE21QScopedPointerDeleterIS2_EED1Ev)
    QScopedPointerDeleter<ObjectDump::QVisitorPrivate::Node>::cleanup(ObjectDump::QVisitorPrivate::Node*) 0x00017f15   Thumb Code    22  objectdump.o(t._ZN21QScopedPointerDeleterIN10ObjectDump15QVisitorPrivate4NodeEE7cleanupEPS2_)
    QMap<QString, QString>::node_create(QMapData*, QMapData::Node**, const QString&, const QString&) 0x00017f2b   Thumb Code   140  abstractmediaplayer.o(t._ZN4QMapI7QStringS0_E11node_createEP8QMapDataPPNS2_4NodeERKS0_S8_)
    QMap<QString, QString>::detach_helper()  0x00017fdd   Thumb Code   146  abstractmediaplayer.o(t._ZN4QMapI7QStringS0_E13detach_helperEv)
    QMap<QString, QString>::freeData(QMapData*) 0x00018077   Thumb Code    62  abstractmediaplayer.o(t._ZN4QMapI7QStringS0_E8freeDataEP8QMapData)
    QMap<QString, QString>::QMap()           0x000180b5   Thumb Code    22  abstractmediaplayer.o(t._ZN4QMapI7QStringS0_EC1Ev)
    QMap<QString, QString>::QMap__sub_object() 0x000180b5   Thumb Code     0  abstractmediaplayer.o(t._ZN4QMapI7QStringS0_EC1Ev)
    QMap<QString, QString>::~QMap()          0x000180d1   Thumb Code    38  abstractmediaplayer.o(t._ZN4QMapI7QStringS0_ED1Ev)
    QMap<QString, QString>::~QMap__sub_object() 0x000180d1   Thumb Code     0  abstractmediaplayer.o(t._ZN4QMapI7QStringS0_ED1Ev)
    QSet<int>::end()                         0x000180f7   Thumb Code    30  effectfactory.o(t._ZN4QSetIiE3endEv)
    QSet<int>::find(const int&)              0x00018115   Thumb Code    48  effectfactory.o(t._ZN4QSetIiE4findERKi)
    QSet<int>::insert(const int&)            0x00018145   Thumb Code   196  effectfactory.o(t._ZN4QSetIiE6insertERKi)
    QSet<int>::QSet()                        0x0001820d   Thumb Code    24  effectfactory.o(t._ZN4QSetIiEC1Ev)
    QSet<int>::QSet__sub_object()            0x0001820d   Thumb Code     0  effectfactory.o(t._ZN4QSetIiEC1Ev)
    QHash<QByteArray, QVariant>::deleteNode2(QHashData::Node*) 0x00018229   Thumb Code    36  audiooutput.o(t._ZN5QHashI10QByteArray8QVariantE11deleteNode2EPN9QHashData4NodeE)
    QHash<QByteArray, QVariant>::detach_helper() 0x00018259   Thumb Code    52  audiooutput.o(t._ZN5QHashI10QByteArray8QVariantE13detach_helperEv)
    QHash<QByteArray, QVariant>::duplicateNode(QHashData::Node*, void*) 0x00018295   Thumb Code    48  audiooutput.o(t._ZN5QHashI10QByteArray8QVariantE13duplicateNodeEPN9QHashData4NodeEPv)
    QHash<QByteArray, QVariant>::detach()    0x000182d3   Thumb Code    28  effectfactory.o(t._ZN5QHashI10QByteArray8QVariantE6detachEv)
    QHash<QByteArray, QVariant>::insert(const QByteArray&, const QVariant&) 0x000182ef   Thumb Code   182  effectfactory.o(t._ZN5QHashI10QByteArray8QVariantE6insertERKS0_RKS1_)
    QHash<QByteArray, QVariant>::freeData(QHashData*) 0x000183b5   Thumb Code    16  audiooutput.o(t._ZN5QHashI10QByteArray8QVariantE8freeDataEP9QHashData)
    QHash<QByteArray, QVariant>::QHash(const QHash<QByteArray, QVariant>&) 0x000183c9   Thumb Code    40  effectfactory.o(t._ZN5QHashI10QByteArray8QVariantEC1ERKS2_)
    QHash<QByteArray, QVariant>::QHash__sub_object(const QHash<QByteArray, QVariant>&) 0x000183c9   Thumb Code     0  effectfactory.o(t._ZN5QHashI10QByteArray8QVariantEC1ERKS2_)
    QHash<QByteArray, QVariant>::~QHash()    0x000183f1   Thumb Code    30  audiooutput.o(t._ZN5QHashI10QByteArray8QVariantED1Ev)
    QHash<QByteArray, QVariant>::~QHash__sub_object() 0x000183f1   Thumb Code     0  audiooutput.o(t._ZN5QHashI10QByteArray8QVariantED1Ev)
    QHash<Phonon::MMF::EffectFactory::Type, Phonon::MMF::EffectFactory::EffectData>::deleteNode2(QHashData::Node*) 0x0001840f   Thumb Code    24  effectfactory.o(t._ZN5QHashIN6Phonon3MMF13EffectFactory4TypeENS2_10EffectDataEE11deleteNode2EPN9QHashData4NodeE)
    QHash<Phonon::MMF::EffectFactory::Type, Phonon::MMF::EffectFactory::EffectData>::detach_helper() 0x00018429   Thumb Code    52  effectfactory.o(t._ZN5QHashIN6Phonon3MMF13EffectFactory4TypeENS2_10EffectDataEE13detach_helperEv)
    QHash<Phonon::MMF::EffectFactory::Type, Phonon::MMF::EffectFactory::EffectData>::duplicateNode(QHashData::Node*, void*) 0x00018465   Thumb Code    46  effectfactory.o(t._ZN5QHashIN6Phonon3MMF13EffectFactory4TypeENS2_10EffectDataEE13duplicateNodeEPN9QHashData4NodeEPv)
    QHash<Phonon::MMF::EffectFactory::Type, Phonon::MMF::EffectFactory::EffectData>::detach() 0x000184a1   Thumb Code    28  effectfactory.o(t._ZN5QHashIN6Phonon3MMF13EffectFactory4TypeENS2_10EffectDataEE6detachEv)
    QHash<Phonon::MMF::EffectFactory::Type, Phonon::MMF::EffectFactory::EffectData>::insert(const Phonon::MMF::EffectFactory::Type&, const Phonon::MMF::EffectFactory::EffectData&) 0x000184bd   Thumb Code   182  effectfactory.o(t._ZN5QHashIN6Phonon3MMF13EffectFactory4TypeENS2_10EffectDataEE6insertERKS3_RKS4_)
    QHash<Phonon::MMF::EffectFactory::Type, Phonon::MMF::EffectFactory::EffectData>::freeData(QHashData*) 0x00018581   Thumb Code    16  effectfactory.o(t._ZN5QHashIN6Phonon3MMF13EffectFactory4TypeENS2_10EffectDataEE8freeDataEP9QHashData)
    QHash<Phonon::MMF::EffectFactory::Type, Phonon::MMF::EffectFactory::EffectData>::~QHash() 0x00018595   Thumb Code    30  effectfactory.o(t._ZN5QHashIN6Phonon3MMF13EffectFactory4TypeENS2_10EffectDataEED1Ev)
    QHash<Phonon::MMF::EffectFactory::Type, Phonon::MMF::EffectFactory::EffectData>::~QHash__sub_object() 0x00018595   Thumb Code     0  effectfactory.o(t._ZN5QHashIN6Phonon3MMF13EffectFactory4TypeENS2_10EffectDataEED1Ev)
    QHash<const QObject*, ObjectDump::QVisitorPrivate::Node*>::deleteNode2(QHashData::Node*) 0x000185b3   Thumb Code     6  objectdump.o(t._ZN5QHashIPK7QObjectPN10ObjectDump15QVisitorPrivate4NodeEE11deleteNode2EPN9QHashData4NodeE)
    QHash<const QObject*, ObjectDump::QVisitorPrivate::Node*>::detach_helper() 0x000185b9   Thumb Code    52  objectdump.o(t._ZN5QHashIPK7QObjectPN10ObjectDump15QVisitorPrivate4NodeEE13detach_helperEv)
    QHash<const QObject*, ObjectDump::QVisitorPrivate::Node*>::duplicateNode(QHashData::Node*, void*) 0x000185f5   Thumb Code    46  objectdump.o(t._ZN5QHashIPK7QObjectPN10ObjectDump15QVisitorPrivate4NodeEE13duplicateNodeEPN9QHashData4NodeEPv)
    QHash<const QObject*, ObjectDump::QVisitorPrivate::Node*>::insert(const QObject*const &, ObjectDump::QVisitorPrivate::Node*const &) 0x00018623   Thumb Code   228  objectdump.o(t._ZN5QHashIPK7QObjectPN10ObjectDump15QVisitorPrivate4NodeEE6insertERKS2_RKS6_)
    QHash<const QObject*, ObjectDump::QVisitorPrivate::Node*>::freeData(QHashData*) 0x0001870d   Thumb Code    16  objectdump.o(t._ZN5QHashIPK7QObjectPN10ObjectDump15QVisitorPrivate4NodeEE8freeDataEP9QHashData)
    QHash<const QObject*, ObjectDump::QVisitorPrivate::Node*>::~QHash() 0x00018721   Thumb Code    30  objectdump.o(t._ZN5QHashIPK7QObjectPN10ObjectDump15QVisitorPrivate4NodeEED1Ev)
    QHash<const QObject*, ObjectDump::QVisitorPrivate::Node*>::~QHash__sub_object() 0x00018721   Thumb Code     0  objectdump.o(t._ZN5QHashIPK7QObjectPN10ObjectDump15QVisitorPrivate4NodeEED1Ev)
    QHash<int, QHashDummyValue>::deleteNode2(QHashData::Node*) 0x0001873f   Thumb Code     6  effectfactory.o(t._ZN5QHashIi15QHashDummyValueE11deleteNode2EPN9QHashData4NodeE)
    QHash<int, QHashDummyValue>::detach_helper() 0x00018745   Thumb Code    52  effectfactory.o(t._ZN5QHashIi15QHashDummyValueE13detach_helperEv)
    QHash<int, QHashDummyValue>::duplicateNode(QHashData::Node*, void*) 0x00018781   Thumb Code    34  effectfactory.o(t._ZN5QHashIi15QHashDummyValueE13duplicateNodeEPN9QHashData4NodeEPv)
    QHash<int, QHashDummyValue>::detach()    0x000187a3   Thumb Code    28  effectfactory.o(t._ZN5QHashIi15QHashDummyValueE6detachEv)
    QHash<int, QHashDummyValue>::freeData(QHashData*) 0x000187c1   Thumb Code    16  effectfactory.o(t._ZN5QHashIi15QHashDummyValueE8freeDataEP9QHashData)
    QHash<int, QHashDummyValue>::~QHash()    0x000187d5   Thumb Code    30  effectfactory.o(t._ZN5QHashIi15QHashDummyValueED1Ev)
    QHash<int, QHashDummyValue>::~QHash__sub_object() 0x000187d5   Thumb Code     0  effectfactory.o(t._ZN5QHashIi15QHashDummyValueED1Ev)
    QHash<int, QVariant>::deleteNode2(QHashData::Node*) 0x000187f3   Thumb Code    24  abstractaudioeffect.o(t._ZN5QHashIi8QVariantE11deleteNode2EPN9QHashData4NodeE)
    QHash<int, QVariant>::detach_helper()    0x0001880d   Thumb Code    52  abstractaudioeffect.o(t._ZN5QHashIi8QVariantE13detach_helperEv)
    QHash<int, QVariant>::duplicateNode(QHashData::Node*, void*) 0x00018849   Thumb Code    46  abstractaudioeffect.o(t._ZN5QHashIi8QVariantE13duplicateNodeEPN9QHashData4NodeEPv)
    QHash<int, QVariant>::insert(const int&, const QVariant&) 0x00018885   Thumb Code   228  abstractaudioeffect.o(t._ZN5QHashIi8QVariantE6insertERKiRKS0_)
    QHash<int, QVariant>::freeData(QHashData*) 0x00018979   Thumb Code    16  abstractaudioeffect.o(t._ZN5QHashIi8QVariantE8freeDataEP9QHashData)
    QHash<int, QVariant>::~QHash()           0x0001898d   Thumb Code    30  moc_abstractaudioeffect.o(t._ZN5QHashIi8QVariantED1Ev)
    QHash<int, QVariant>::~QHash__sub_object() 0x0001898d   Thumb Code     0  moc_abstractaudioeffect.o(t._ZN5QHashIi8QVariantED1Ev)
    QList<QByteArray>::detach_helper(int)    0x000189ab   Thumb Code    94  objectdump.o(t._ZN5QListI10QByteArrayE13detach_helperEi)
    QList<QByteArray>::detach_helper()       0x00018a11   Thumb Code    16  objectdump.o(t._ZN5QListI10QByteArrayE13detach_helperEv)
    QList<QByteArray>::node_destruct(QList<QByteArray>::Node*, QList<QByteArray>::Node*) 0x00018a21   Thumb Code    26  objectdump.o(t._ZN5QListI10QByteArrayE13node_destructEPNS1_4NodeES3_)
    QList<QByteArray>::node_construct(QList<QByteArray>::Node*, const QByteArray&) 0x00018a3b   Thumb Code    36  objectdump.o(t._ZN5QListI10QByteArrayE14node_constructEPNS1_4NodeERKS0_)
    QList<QByteArray>::detach_helper_grow(int, int) 0x00018a6d   Thumb Code   208  objectdump.o(t._ZN5QListI10QByteArrayE18detach_helper_growEii)
    QList<QByteArray>::free(QListData::Data*) 0x00018b4d   Thumb Code    52  objectdump.o(t._ZN5QListI10QByteArrayE4freeEPN9QListData4DataE)
    QList<QByteArray>::append(const QByteArray&) 0x00018b81   Thumb Code   114  objectdump.o(t._ZN5QListI10QByteArrayE6appendERKS0_)
    QList<QByteArray>::node_copy(QList<QByteArray>::Node*, QList<QByteArray>::Node*, QList<QByteArray>::Node*) 0x00018c07   Thumb Code    82  objectdump.o(t._ZN5QListI10QByteArrayE9node_copyEPNS1_4NodeES3_S3_)
    QList<QByteArray>::QList()               0x00018c71   Thumb Code    18  objectdump.o(t._ZN5QListI10QByteArrayEC1Ev)
    QList<QByteArray>::QList__sub_object()   0x00018c71   Thumb Code     0  objectdump.o(t._ZN5QListI10QByteArrayEC1Ev)
    QList<QByteArray>::~QList()              0x00018c89   Thumb Code    32  objectdump.o(t._ZN5QListI10QByteArrayED1Ev)
    QList<QByteArray>::~QList__sub_object()  0x00018c89   Thumb Code     0  objectdump.o(t._ZN5QListI10QByteArrayED1Ev)
    QList<QByteArray>::operator +=(const QList<QByteArray>&) 0x00018ca9   Thumb Code   208  objectdump.o(t._ZN5QListI10QByteArrayEpLERKS1_)
    QList<QString>::node_destruct(QList<QString>::Node*, QList<QString>::Node*) 0x00018d85   Thumb Code    26  backend.o(t._ZN5QListI7QStringE13node_destructEPNS1_4NodeES3_)
    QList<QString>::node_construct(QList<QString>::Node*, const QString&) 0x00018d9f   Thumb Code    36  backend.o(t._ZN5QListI7QStringE14node_constructEPNS1_4NodeERKS0_)
    QList<QString>::detach_helper_grow(int, int) 0x00018dd1   Thumb Code   208  backend.o(t._ZN5QListI7QStringE18detach_helper_growEii)
    QList<QString>::free(QListData::Data*)   0x00018eb1   Thumb Code    58  backend.o(t._ZN5QListI7QStringE4freeEPN9QListData4DataE)
    QList<QString>::append(const QString&)   0x00018eed   Thumb Code   114  backend.o(t._ZN5QListI7QStringE6appendERKS0_)
    QList<QString>::node_copy(QList<QString>::Node*, QList<QString>::Node*, QList<QString>::Node*) 0x00018f73   Thumb Code    82  backend.o(t._ZN5QListI7QStringE9node_copyEPNS1_4NodeES3_S3_)
    QList<QString>::~QList()                 0x00018fdb   Thumb Code    32  backend.o(t._ZN5QListI7QStringED1Ev)
    QList<QString>::~QList__sub_object()     0x00018fdb   Thumb Code     0  backend.o(t._ZN5QListI7QStringED1Ev)
    QList<QVariant>::free(QListData::Data*)  0x00018ffb   Thumb Code    82  audioequalizer.o(t._ZN5QListI8QVariantE4freeEPN9QListData4DataE)
    QList<QVariant>::QList()                 0x0001904d   Thumb Code    18  effectfactory.o(t._ZN5QListI8QVariantEC1Ev)
    QList<QVariant>::QList__sub_object()     0x0001904d   Thumb Code     0  effectfactory.o(t._ZN5QListI8QVariantEC1Ev)
    QList<QVariant>::~QList()                0x00019065   Thumb Code    32  audioequalizer.o(t._ZN5QListI8QVariantED1Ev)
    QList<QVariant>::~QList__sub_object()    0x00019065   Thumb Code     0  audioequalizer.o(t._ZN5QListI8QVariantED1Ev)
    QList<Phonon::EffectParameter>::node_destruct(QList<Phonon::EffectParameter>::Node*, QList<Phonon::EffectParameter>::Node*) 0x00019085   Thumb Code    38  abstractaudioeffect.o(t._ZN5QListIN6Phonon15EffectParameterEE13node_destructEPNS2_4NodeES4_)
    QList<Phonon::EffectParameter>::node_construct(QList<Phonon::EffectParameter>::Node*, const Phonon::EffectParameter&) 0x000190ab   Thumb Code    34  abstractaudioeffect.o(t._ZN5QListIN6Phonon15EffectParameterEE14node_constructEPNS2_4NodeERKS1_)
    QList<Phonon::EffectParameter>::detach_helper_grow(int, int) 0x000190db   Thumb Code   208  abstractaudioeffect.o(t._ZN5QListIN6Phonon15EffectParameterEE18detach_helper_growEii)
    QList<Phonon::EffectParameter>::free(QListData::Data*) 0x000191bb   Thumb Code    58  abstractaudioeffect.o(t._ZN5QListIN6Phonon15EffectParameterEE4freeEPN9QListData4DataE)
    QList<Phonon::EffectParameter>::append(const Phonon::EffectParameter&) 0x000191f5   Thumb Code   106  abstractaudioeffect.o(t._ZN5QListIN6Phonon15EffectParameterEE6appendERKS1_)
    QList<Phonon::EffectParameter>::node_copy(QList<Phonon::EffectParameter>::Node*, QList<Phonon::EffectParameter>::Node*, QList<Phonon::EffectParameter>::Node*) 0x00019273   Thumb Code    92  abstractaudioeffect.o(t._ZN5QListIN6Phonon15EffectParameterEE9node_copyEPNS2_4NodeES4_S4_)
    QList<Phonon::EffectParameter>::~QList() 0x000192e5   Thumb Code    32  abstractaudioeffect.o(t._ZN5QListIN6Phonon15EffectParameterEED1Ev)
    QList<Phonon::EffectParameter>::~QList__sub_object() 0x000192e5   Thumb Code     0  abstractaudioeffect.o(t._ZN5QListIN6Phonon15EffectParameterEED1Ev)
    QList<Phonon::MMF::EffectParameter>::detach_helper(int) 0x00019305   Thumb Code    94  effectfactory.o(t._ZN5QListIN6Phonon3MMF15EffectParameterEE13detach_helperEi)
    QList<Phonon::MMF::EffectParameter>::detach_helper() 0x0001936b   Thumb Code    16  abstractaudioeffect.o(t._ZN5QListIN6Phonon3MMF15EffectParameterEE13detach_helperEv)
    QList<Phonon::MMF::EffectParameter>::node_destruct(QList<Phonon::MMF::EffectParameter>::Node*, QList<Phonon::MMF::EffectParameter>::Node*) 0x0001937b   Thumb Code    38  audioequalizer.o(t._ZN5QListIN6Phonon3MMF15EffectParameterEE13node_destructEPNS3_4NodeES5_)
    QList<Phonon::MMF::EffectParameter>::node_construct(QList<Phonon::MMF::EffectParameter>::Node*, const Phonon::MMF::EffectParameter&) 0x000193a1   Thumb Code    34  audioequalizer.o(t._ZN5QListIN6Phonon3MMF15EffectParameterEE14node_constructEPNS3_4NodeERKS2_)
    QList<Phonon::MMF::EffectParameter>::detach_helper_grow(int, int) 0x000193d1   Thumb Code   208  effectfactory.o(t._ZN5QListIN6Phonon3MMF15EffectParameterEE18detach_helper_growEii)
    QList<Phonon::MMF::EffectParameter>::free(QListData::Data*) 0x000194b1   Thumb Code    58  audioequalizer.o(t._ZN5QListIN6Phonon3MMF15EffectParameterEE4freeEPN9QListData4DataE)
    QList<Phonon::MMF::EffectParameter>::append(const Phonon::MMF::EffectParameter&) 0x000194ed   Thumb Code   106  effectfactory.o(t._ZN5QListIN6Phonon3MMF15EffectParameterEE6appendERKS2_)
    QList<Phonon::MMF::EffectParameter>::node_copy(QList<Phonon::MMF::EffectParameter>::Node*, QList<Phonon::MMF::EffectParameter>::Node*, QList<Phonon::MMF::EffectParameter>::Node*) 0x0001956b   Thumb Code    92  audioequalizer.o(t._ZN5QListIN6Phonon3MMF15EffectParameterEE9node_copyEPNS3_4NodeES5_S5_)
    QList<Phonon::MMF::EffectParameter>::QList(const QList<Phonon::MMF::EffectParameter>&) 0x000195dd   Thumb Code    36  abstractaudioeffect.o(t._ZN5QListIN6Phonon3MMF15EffectParameterEEC1ERKS3_)
    QList<Phonon::MMF::EffectParameter>::QList__sub_object(const QList<Phonon::MMF::EffectParameter>&) 0x000195dd   Thumb Code     0  abstractaudioeffect.o(t._ZN5QListIN6Phonon3MMF15EffectParameterEEC1ERKS3_)
    QList<Phonon::MMF::EffectParameter>::~QList() 0x00019601   Thumb Code    32  abstractaudioeffect.o(t._ZN5QListIN6Phonon3MMF15EffectParameterEED1Ev)
    QList<Phonon::MMF::EffectParameter>::~QList__sub_object() 0x00019601   Thumb Code     0  abstractaudioeffect.o(t._ZN5QListIN6Phonon3MMF15EffectParameterEED1Ev)
    QList<ObjectDump::QAnnotator*>::detach_helper(int) 0x00019621   Thumb Code    94  objectdump.o(t._ZN5QListIPN10ObjectDump10QAnnotatorEE13detach_helperEi)
    QList<ObjectDump::QAnnotator*>::detach_helper() 0x00019687   Thumb Code    16  objectdump.o(t._ZN5QListIPN10ObjectDump10QAnnotatorEE13detach_helperEv)
    QList<ObjectDump::QAnnotator*>::detach_helper_grow(int, int) 0x00019697   Thumb Code   204  objectdump.o(t._ZN5QListIPN10ObjectDump10QAnnotatorEE18detach_helper_growEii)
    QList<ObjectDump::QAnnotator*>::free(QListData::Data*) 0x00019773   Thumb Code    52  objectdump.o(t._ZN5QListIPN10ObjectDump10QAnnotatorEE4freeEPN9QListData4DataE)
    QList<ObjectDump::QAnnotator*>::append(ObjectDump::QAnnotator*const &) 0x000197a9   Thumb Code    94  objectdump.o(t._ZN5QListIPN10ObjectDump10QAnnotatorEE6appendERKS2_)
    QList<ObjectDump::QAnnotator*>::node_copy(QList<ObjectDump::QAnnotator*>::Node*, QList<ObjectDump::QAnnotator*>::Node*, QList<ObjectDump::QAnnotator*>::Node*) 0x00019817   Thumb Code    46  objectdump.o(t._ZN5QListIPN10ObjectDump10QAnnotatorEE9node_copyEPNS3_4NodeES5_S5_)
    QList<ObjectDump::QAnnotator*>::~QList() 0x00019845   Thumb Code    32  objectdump.o(t._ZN5QListIPN10ObjectDump10QAnnotatorEED1Ev)
    QList<ObjectDump::QAnnotator*>::~QList__sub_object() 0x00019845   Thumb Code     0  objectdump.o(t._ZN5QListIPN10ObjectDump10QAnnotatorEED1Ev)
    QList<ObjectDump::QVisitorPrivate::Node*>::detach_helper(int) 0x00019865   Thumb Code    94  objectdump.o(t._ZN5QListIPN10ObjectDump15QVisitorPrivate4NodeEE13detach_helperEi)
    QList<ObjectDump::QVisitorPrivate::Node*>::detach_helper() 0x000198cb   Thumb Code    16  objectdump.o(t._ZN5QListIPN10ObjectDump15QVisitorPrivate4NodeEE13detach_helperEv)
    QList<ObjectDump::QVisitorPrivate::Node*>::detach_helper_grow(int, int) 0x000198db   Thumb Code   204  objectdump.o(t._ZN5QListIPN10ObjectDump15QVisitorPrivate4NodeEE18detach_helper_growEii)
    QList<ObjectDump::QVisitorPrivate::Node*>::free(QListData::Data*) 0x000199b7   Thumb Code    52  objectdump.o(t._ZN5QListIPN10ObjectDump15QVisitorPrivate4NodeEE4freeEPN9QListData4DataE)
    QList<ObjectDump::QVisitorPrivate::Node*>::append(ObjectDump::QVisitorPrivate::Node*const &) 0x000199ed   Thumb Code    94  objectdump.o(t._ZN5QListIPN10ObjectDump15QVisitorPrivate4NodeEE6appendERKS3_)
    QList<ObjectDump::QVisitorPrivate::Node*>::node_copy(QList<ObjectDump::QVisitorPrivate::Node*>::Node*, QList<ObjectDump::QVisitorPrivate::Node*>::Node*, QList<ObjectDump::QVisitorPrivate::Node*>::Node*) 0x00019a5b   Thumb Code    46  objectdump.o(t._ZN5QListIPN10ObjectDump15QVisitorPrivate4NodeEE9node_copyEPNS4_4NodeES6_S6_)
    QList<ObjectDump::QVisitorPrivate::Node*>::~QList() 0x00019a89   Thumb Code    32  objectdump.o(t._ZN5QListIPN10ObjectDump15QVisitorPrivate4NodeEED1Ev)
    QList<ObjectDump::QVisitorPrivate::Node*>::~QList__sub_object() 0x00019a89   Thumb Code     0  objectdump.o(t._ZN5QListIPN10ObjectDump15QVisitorPrivate4NodeEED1Ev)
    QList<Phonon::MMF::MediaNode*>::detach_helper(int) 0x00019aa9   Thumb Code    94  mmf_medianode.o(t._ZN5QListIPN6Phonon3MMF9MediaNodeEE13detach_helperEi)
    QList<Phonon::MMF::MediaNode*>::detach_helper() 0x00019b0f   Thumb Code    16  mmf_medianode.o(t._ZN5QListIPN6Phonon3MMF9MediaNodeEE13detach_helperEv)
    QList<Phonon::MMF::MediaNode*>::detach_helper_grow(int, int) 0x00019b1f   Thumb Code   204  mmf_medianode.o(t._ZN5QListIPN6Phonon3MMF9MediaNodeEE18detach_helper_growEii)
    QList<Phonon::MMF::MediaNode*>::free(QListData::Data*) 0x00019bfb   Thumb Code    58  mmf_medianode.o(t._ZN5QListIPN6Phonon3MMF9MediaNodeEE4freeEPN9QListData4DataE)
    QList<Phonon::MMF::MediaNode*>::append(Phonon::MMF::MediaNode*const &) 0x00019c35   Thumb Code    94  mmf_medianode.o(t._ZN5QListIPN6Phonon3MMF9MediaNodeEE6appendERKS3_)
    QList<Phonon::MMF::MediaNode*>::node_copy(QList<Phonon::MMF::MediaNode*>::Node*, QList<Phonon::MMF::MediaNode*>::Node*, QList<Phonon::MMF::MediaNode*>::Node*) 0x00019ca3   Thumb Code    46  mmf_medianode.o(t._ZN5QListIPN6Phonon3MMF9MediaNodeEE9node_copyEPNS4_4NodeES6_S6_)
    QList<Phonon::MMF::MediaNode*>::removeOne(Phonon::MMF::MediaNode*const &) 0x00019cd1   Thumb Code   124  mmf_medianode.o(t._ZN5QListIPN6Phonon3MMF9MediaNodeEE9removeOneERKS3_)
    QList<Phonon::MMF::MediaNode*>::QList()  0x00019d51   Thumb Code    18  mmf_medianode.o(t._ZN5QListIPN6Phonon3MMF9MediaNodeEEC1Ev)
    QList<Phonon::MMF::MediaNode*>::QList__sub_object() 0x00019d51   Thumb Code     0  mmf_medianode.o(t._ZN5QListIPN6Phonon3MMF9MediaNodeEEC1Ev)
    QList<Phonon::MMF::MediaNode*>::~QList() 0x00019d69   Thumb Code    32  mmf_medianode.o(t._ZN5QListIPN6Phonon3MMF9MediaNodeEED1Ev)
    QList<Phonon::MMF::MediaNode*>::~QList__sub_object() 0x00019d69   Thumb Code     0  mmf_medianode.o(t._ZN5QListIPN6Phonon3MMF9MediaNodeEED1Ev)
    QList<bool>::detach_helper(int)          0x00019d89   Thumb Code    94  objectdump.o(t._ZN5QListIbE13detach_helperEi)
    QList<bool>::detach_helper()             0x00019def   Thumb Code    16  objectdump.o(t._ZN5QListIbE13detach_helperEv)
    QList<bool>::detach_helper_grow(int, int) 0x00019dff   Thumb Code   204  objectdump.o(t._ZN5QListIbE18detach_helper_growEii)
    QList<bool>::free(QListData::Data*)      0x00019edb   Thumb Code    52  objectdump.o(t._ZN5QListIbE4freeEPN9QListData4DataE)
    QList<bool>::append(const bool&)         0x00019f11   Thumb Code    96  objectdump.o(t._ZN5QListIbE6appendERKb)
    QList<bool>::node_copy(QList<bool>::Node*, QList<bool>::Node*, QList<bool>::Node*) 0x00019f7f   Thumb Code    46  objectdump.o(t._ZN5QListIbE9node_copyEPNS0_4NodeES2_S2_)
    QList<bool>::QList(const QList<bool>&)   0x00019fad   Thumb Code    36  objectdump.o(t._ZN5QListIbEC1ERKS0_)
    QList<bool>::QList__sub_object(const QList<bool>&) 0x00019fad   Thumb Code     0  objectdump.o(t._ZN5QListIbEC1ERKS0_)
    QList<bool>::~QList()                    0x00019fd1   Thumb Code    32  objectdump.o(t._ZN5QListIbED1Ev)
    QList<bool>::~QList__sub_object()        0x00019fd1   Thumb Code     0  objectdump.o(t._ZN5QListIbED1Ev)
    QList<int>::detach_helper(int)           0x00019ff1   Thumb Code    94  backend.o(t._ZN5QListIiE13detach_helperEi)
    QList<int>::detach_helper()              0x0001a057   Thumb Code    16  backend.o(t._ZN5QListIiE13detach_helperEv)
    QList<int>::detach_helper_grow(int, int) 0x0001a067   Thumb Code   204  backend.o(t._ZN5QListIiE18detach_helper_growEii)
    QList<int>::free(QListData::Data*)       0x0001a143   Thumb Code    58  backend.o(t._ZN5QListIiE4freeEPN9QListData4DataE)
    QList<int>::append(const int&)           0x0001a17d   Thumb Code    94  backend.o(t._ZN5QListIiE6appendERKi)
    QList<int>::node_copy(QList<int>::Node*, QList<int>::Node*, QList<int>::Node*) 0x0001a1eb   Thumb Code    46  backend.o(t._ZN5QListIiE9node_copyEPNS0_4NodeES2_S2_)
    QList<int>::~QList()                     0x0001a219   Thumb Code    32  backend.o(t._ZN5QListIiED1Ev)
    QList<int>::~QList__sub_object()         0x0001a219   Thumb Code     0  backend.o(t._ZN5QListIiED1Ev)
    QList<int>::operator +=(const QList<int>&) 0x0001a239   Thumb Code   208  backend.o(t._ZN5QListIiEpLERKS0_)
    Phonon::MMF::EffectFactory::getData<Phonon::MMF::AudioEqualizer>() 0x0001a315   Thumb Code   546  effectfactory.o(t._ZN6Phonon3MMF13EffectFactory7getDataINS0_14AudioEqualizerEEENS1_10EffectDataEv)
    Phonon::MMF::EffectFactory::getData<Phonon::MMF::StereoWidening>() 0x0001a655   Thumb Code   546  effectfactory.o(t._ZN6Phonon3MMF13EffectFactory7getDataINS0_14StereoWideningEEENS1_10EffectDataEv)
    Phonon::MMF::EffectFactory::getData<Phonon::MMF::EnvironmentalReverb>() 0x0001a995   Thumb Code   546  effectfactory.o(t._ZN6Phonon3MMF13EffectFactory7getDataINS0_19EnvironmentalReverbEEENS1_10EffectDataEv)
    Phonon::MMF::EffectFactory::getData<Phonon::MMF::Loudness>() 0x0001acd5   Thumb Code   546  effectfactory.o(t._ZN6Phonon3MMF13EffectFactory7getDataINS0_8LoudnessEEENS1_10EffectDataEv)
    Phonon::MMF::EffectFactory::getData<Phonon::MMF::BassBoost>() 0x0001b015   Thumb Code   546  effectfactory.o(t._ZN6Phonon3MMF13EffectFactory7getDataINS0_9BassBoostEEENS1_10EffectDataEv)
    QStack<const QObject*>::QStack()         0x0001b355   Thumb Code    20  objecttree.o(t._ZN6QStackIPK7QObjectEC1Ev)
    QStack<const QObject*>::QStack__sub_object() 0x0001b355   Thumb Code     0  objecttree.o(t._ZN6QStackIPK7QObjectEC1Ev)
    QStack<const QObject*>::~QStack()        0x0001b36d   Thumb Code    14  objecttree.o(t._ZN6QStackIPK7QObjectED1Ev)
    QStack<const QObject*>::~QStack__sub_object() 0x0001b36d   Thumb Code     0  objecttree.o(t._ZN6QStackIPK7QObjectED1Ev)
    QStack<int>::QStack()                    0x0001b37d   Thumb Code    20  objecttree.o(t._ZN6QStackIiEC1Ev)
    QStack<int>::QStack__sub_object()        0x0001b37d   Thumb Code     0  objecttree.o(t._ZN6QStackIiEC1Ev)
    QVector<const QObject*>::detach_helper() 0x0001b395   Thumb Code    18  objectdump.o(t._ZN7QVectorIPK7QObjectE13detach_helperEv)
    QVector<const QObject*>::free(QVectorTypedData<const QObject*>*) 0x0001b3a7   Thumb Code    24  objectdump.o(t._ZN7QVectorIPK7QObjectE4freeEP16QVectorTypedDataIS2_E)
    QVector<const QObject*>::append(const QObject*const &) 0x0001b3bf   Thumb Code   142  objecttree.o(t._ZN7QVectorIPK7QObjectE6appendERKS2_)
    QVector<const QObject*>::malloc(int)     0x0001b44d   Thumb Code    52  objectdump.o(t._ZN7QVectorIPK7QObjectE6mallocEi)
    QVector<const QObject*>::resize(int)     0x0001b481   Thumb Code    82  objectdump.o(t._ZN7QVectorIPK7QObjectE6resizeEi)
    QVector<const QObject*>::realloc(int, int) 0x0001b4d5   Thumb Code   436  objectdump.o(t._ZN7QVectorIPK7QObjectE7reallocEii)
    QVector<const QObject*>::~QVector()      0x0001b6e1   Thumb Code    34  objectdump.o(t._ZN7QVectorIPK7QObjectED1Ev)
    QVector<const QObject*>::~QVector__sub_object() 0x0001b6e1   Thumb Code     0  objectdump.o(t._ZN7QVectorIPK7QObjectED1Ev)
    QVector<int>::detach_helper()            0x0001b703   Thumb Code    18  objectdump.o(t._ZN7QVectorIiE13detach_helperEv)
    QVector<int>::free(QVectorTypedData<int>*) 0x0001b715   Thumb Code    24  objectdump.o(t._ZN7QVectorIiE4freeEP16QVectorTypedDataIiE)
    QVector<int>::append(const int&)         0x0001b72d   Thumb Code   142  objecttree.o(t._ZN7QVectorIiE6appendERKi)
    QVector<int>::detach()                   0x0001b7bb   Thumb Code    24  objecttree.o(t._ZN7QVectorIiE6detachEv)
    QVector<int>::malloc(int)                0x0001b7d3   Thumb Code    52  objectdump.o(t._ZN7QVectorIiE6mallocEi)
    QVector<int>::resize(int)                0x0001b807   Thumb Code    82  objecttree.o(t._ZN7QVectorIiE6resizeEi)
    QVector<int>::realloc(int, int)          0x0001b859   Thumb Code   436  objectdump.o(t._ZN7QVectorIiE7reallocEii)
    QVector<int>::~QVector()                 0x0001ba65   Thumb Code    34  objectdump.o(t._ZN7QVectorIiED1Ev)
    QVector<int>::~QVector__sub_object()     0x0001ba65   Thumb Code     0  objectdump.o(t._ZN7QVectorIiED1Ev)
    QPointer<QObject>::~QPointer()           0x0001ba87   Thumb Code    14  backend.o(t._ZN8QPointerI7QObjectED1Ev)
    QPointer<QObject>::~QPointer__sub_object() 0x0001ba87   Thumb Code     0  backend.o(t._ZN8QPointerI7QObjectED1Ev)
    QHashNode<QByteArray, QVariant>::QHashNode(const QByteArray&, const QVariant&) 0x0001ba95   Thumb Code    40  audiooutput.o(t._ZN9QHashNodeI10QByteArray8QVariantEC1ERKS0_RKS1_)
    QHashNode<QByteArray, QVariant>::QHashNode__sub_object(const QByteArray&, const QVariant&) 0x0001ba95   Thumb Code     0  audiooutput.o(t._ZN9QHashNodeI10QByteArray8QVariantEC1ERKS0_RKS1_)
    QHashNode<Phonon::MMF::EffectFactory::Type, Phonon::MMF::EffectFactory::EffectData>::QHashNode(const Phonon::MMF::EffectFactory::Type&, const Phonon::MMF::EffectFactory::EffectData&) 0x0001bac9   Thumb Code    50  effectfactory.o(t._ZN9QHashNodeIN6Phonon3MMF13EffectFactory4TypeENS2_10EffectDataEEC1ERKS3_RKS4_)
    QHashNode<Phonon::MMF::EffectFactory::Type, Phonon::MMF::EffectFactory::EffectData>::QHashNode__sub_object(const Phonon::MMF::EffectFactory::Type&, const Phonon::MMF::EffectFactory::EffectData&) 0x0001bac9   Thumb Code     0  effectfactory.o(t._ZN9QHashNodeIN6Phonon3MMF13EffectFactory4TypeENS2_10EffectDataEEC1ERKS3_RKS4_)
    QHashNode<int, QVariant>::QHashNode(int, const QVariant&) 0x0001bb05   Thumb Code    26  abstractaudioeffect.o(t._ZN9QHashNodeIi8QVariantEC1EiRKS0_)
    QHashNode<int, QVariant>::QHashNode__sub_object(int, const QVariant&) 0x0001bb05   Thumb Code     0  abstractaudioeffect.o(t._ZN9QHashNodeIi8QVariantEC1EiRKS0_)
    QScopedPointer<QObjectData, QScopedPointerDeleter<QObjectData>>::operator ->() const 0x0001bb21   Thumb Code    30  moc_objectdump.o(t._ZNK14QScopedPointerI11QObjectData21QScopedPointerDeleterIS0_EEptEv)
    QScopedPointer<CAudioEffect, QScopedPointerDeleter<CAudioEffect>>::operator ->() const 0x0001bb45   Thumb Code    30  abstractaudioeffect.o(t._ZNK14QScopedPointerI12CAudioEffect21QScopedPointerDeleterIS0_EEptEv)
    QScopedPointer<CAudioEqualizer, QScopedPointerDeleter<CAudioEqualizer>>::operator ->() const 0x0001bb6d   Thumb Code    30  audioequalizer.o(t._ZNK14QScopedPointerI15CAudioEqualizer21QScopedPointerDeleterIS0_EEptEv)
    QScopedPointer<CVideoPlayerUtility, QScopedPointerDeleter<CVideoPlayerUtility>>::operator ->() const 0x0001bb95   Thumb Code    30  abstractvideoplayer.o(t._ZNK14QScopedPointerI19CVideoPlayerUtility21QScopedPointerDeleterIS0_EEptEv)
    QScopedPointer<CEnvironmentalReverb, QScopedPointerDeleter<CEnvironmentalReverb>>::operator ->() const 0x0001bbb9   Thumb Code    30  environmentalreverb.o(t._ZNK14QScopedPointerI20CEnvironmentalReverb21QScopedPointerDeleterIS0_EEptEv)
    QScopedPointer<CMdaAudioPlayerUtility, QScopedPointerDeleter<CMdaAudioPlayerUtility>>::operator ->() const 0x0001bbdd   Thumb Code    30  audioplayer.o(t._ZNK14QScopedPointerI22CMdaAudioPlayerUtility21QScopedPointerDeleterIS0_EEptEv)
    QScopedPointer<QTimer, QScopedPointerDeleter<QTimer>>::operator ->() const 0x0001bc01   Thumb Code    30  abstractmediaplayer.o(t._ZNK14QScopedPointerI6QTimer21QScopedPointerDeleterIS0_EEptEv)
    QScopedPointer<ObjectDump::QVisitor, QScopedPointerDeleter<ObjectDump::QVisitor>>::operator *() const 0x0001bc29   Thumb Code    30  abstractvideooutput.o(t._ZNK14QScopedPointerIN10ObjectDump8QVisitorE21QScopedPointerDeleterIS1_EEdeEv)
    QScopedPointer<Phonon::MMF::EffectFactory, QScopedPointerDeleter<Phonon::MMF::EffectFactory>>::operator ->() const 0x0001bc51   Thumb Code    30  backend.o(t._ZNK14QScopedPointerIN6Phonon3MMF13EffectFactoryE21QScopedPointerDeleterIS2_EEptEv)
    QScopedPointer<Phonon::MMF::AbstractPlayer, QScopedPointerDeleter<Phonon::MMF::AbstractPlayer>>::operator ->() const 0x0001bc79   Thumb Code    32  mediaobject.o(t._ZNK14QScopedPointerIN6Phonon3MMF14AbstractPlayerE21QScopedPointerDeleterIS2_EEptEv)
    QScopedPointer<Phonon::MMF::AbstractVideoOutput, QScopedPointerDeleter<Phonon::MMF::AbstractVideoOutput>>::operator ->() const 0x0001bc9d   Thumb Code    30  videowidget.o(t._ZNK14QScopedPointerIN6Phonon3MMF19AbstractVideoOutputE21QScopedPointerDeleterIS2_EEptEv)
    QForeachContainer<QList<Phonon::MMF::EffectParameter>>::condition() const 0x0001bcc5   Thumb Code    40  abstractaudioeffect.o(t._ZNK17QForeachContainerI5QListIN6Phonon3MMF15EffectParameterEEE9conditionEv)
    QForeachContainer<QList<ObjectDump::QAnnotator*>>::condition() const 0x0001bced   Thumb Code    40  objectdump.o(t._ZNK17QForeachContainerI5QListIPN10ObjectDump10QAnnotatorEEE9conditionEv)
    QForeachContainer<QList<Phonon::MMF::MediaNode*>>::condition() const 0x0001bd15   Thumb Code    40  mmf_medianode.o(t._ZNK17QForeachContainerI5QListIPN6Phonon3MMF9MediaNodeEEE9conditionEv)
    QMap<QString, QString>::mutableFindNode(QMapData::Node**, const QString&) const 0x0001bd3d   Thumb Code   116  abstractmediaplayer.o(t._ZNK4QMapI7QStringS0_E15mutableFindNodeEPPN8QMapData4NodeERKS0_)
    QSet<int>::iterator::operator ==(const QSet<int>::iterator&) const 0x0001bdb1   Thumb Code    20  effectfactory.o(t._ZNK4QSetIiE8iteratoreqERKS1_)
    QHash<QByteArray, QVariant>::findNode(const QByteArray&, unsigned*) const 0x0001bdc5   Thumb Code   198  audiooutput.o(t._ZNK5QHashI10QByteArray8QVariantE8findNodeERKS0_Pj)
    QHash<Phonon::MMF::EffectFactory::Type, Phonon::MMF::EffectFactory::EffectData>::const_iterator::operator !=(const QHash<Phonon::MMF::EffectFactory::Type, Phonon::MMF::EffectFactory::EffectData>::const_iterator&) const 0x0001bee5   Thumb Code    18  effectfactory.o(t._ZNK5QHashIN6Phonon3MMF13EffectFactory4TypeENS2_10EffectDataEE14const_iteratorneERKS6_)
    QHash<Phonon::MMF::EffectFactory::Type, Phonon::MMF::EffectFactory::EffectData>::findNode(const Phonon::MMF::EffectFactory::Type&, unsigned*) const 0x0001bef9   Thumb Code   134  effectfactory.o(t._ZNK5QHashIN6Phonon3MMF13EffectFactory4TypeENS2_10EffectDataEE8findNodeERKS3_Pj)
    QHash<const QObject*, ObjectDump::QVisitorPrivate::Node*>::findNode(const QObject*const &, unsigned*) const 0x0001bfd9   Thumb Code   138  objectdump.o(t._ZNK5QHashIPK7QObjectPN10ObjectDump15QVisitorPrivate4NodeEE8findNodeERKS2_Pj)
    QHash<int, QHashDummyValue>::findNode(const int&, unsigned*) const 0x0001c0bd   Thumb Code   128  effectfactory.o(t._ZNK5QHashIi15QHashDummyValueE8findNodeERKiPj)
    QHash<int, QVariant>::findNode(const int&, unsigned*) const 0x0001c195   Thumb Code   128  abstractaudioeffect.o(t._ZNK5QHashIi8QVariantE8findNodeERKiPj)
    QList<QByteArray>::const_iterator::operator ==(const QList<QByteArray>::const_iterator&) const 0x0001c26d   Thumb Code    18  objectdump.o(t._ZNK5QListI10QByteArrayE14const_iteratoreqERKS2_)
    QList<QByteArray>::const_iterator::operator !=(const QList<QByteArray>::const_iterator&) const 0x0001c27f   Thumb Code    18  objectdump.o(t._ZNK5QListI10QByteArrayE14const_iteratorneERKS2_)
    QList<QVariant>::first() const           0x0001c291   Thumb Code   102  backend.o(t._ZNK5QListI8QVariantE5firstEv)
    QList<Phonon::MMF::EffectParameter>::operator [](int) const 0x0001c365   Thumb Code    68  abstractaudioeffect.o(t._ZNK5QListIN6Phonon3MMF15EffectParameterEEixEi)
    QList<QObject*>::first() const           0x0001c411   Thumb Code   104  objecttree.o(t._ZNK5QListIP7QObjectE5firstEv)
    QList<ObjectDump::QVisitorPrivate::Node*>::const_iterator::operator ==(const QList<ObjectDump::QVisitorPrivate::Node*>::const_iterator&) const 0x0001c4e5   Thumb Code    18  objectdump.o(t._ZNK5QListIPN10ObjectDump15QVisitorPrivate4NodeEE14const_iteratoreqERKS5_)
    QList<ObjectDump::QVisitorPrivate::Node*>::const_iterator::operator !=(const QList<ObjectDump::QVisitorPrivate::Node*>::const_iterator&) const 0x0001c4f7   Thumb Code    18  objectdump.o(t._ZNK5QListIPN10ObjectDump15QVisitorPrivate4NodeEE14const_iteratorneERKS5_)
    QList<Phonon::MMF::MediaNode*>::indexOf(Phonon::MMF::MediaNode*const &, int) const 0x0001c509   Thumb Code   132  mmf_medianode.o(t._ZNK5QListIPN6Phonon3MMF9MediaNodeEE7indexOfERKS3_i)
    QList<Phonon::MMF::MediaNode*>::contains(Phonon::MMF::MediaNode*const &) const 0x0001c58d   Thumb Code    66  mmf_medianode.o(t._ZNK5QListIPN6Phonon3MMF9MediaNodeEE8containsERKS3_)
    QVector<const QObject*>::isEmpty() const 0x0001c5cf   Thumb Code    18  objectdump.o(t._ZNK7QVectorIPK7QObjectE7isEmptyEv)
    QVector<const QObject*>::operator ==(const QVector<const QObject*>&) const 0x0001c5e1   Thumb Code    88  objectdump.o(t._ZNK7QVectorIPK7QObjectEeqERKS3_)
    QVector<int>::isEmpty() const            0x0001c639   Thumb Code    18  objecttree.o(t._ZNK7QVectorIiE7isEmptyEv)
    Phonon::MMF::AbstractAudioEffect::staticMetaObject 0x00022800   Data          16  moc_abstractaudioeffect.o(.constdata)
    Phonon::MMF::AbstractMediaPlayer::staticMetaObject 0x000229b8   Data          16  moc_abstractmediaplayer.o(.constdata)
    Phonon::MMF::AbstractPlayer::staticMetaObject 0x00022c58   Data          16  moc_abstractplayer.o(.constdata)
    Phonon::MMF::AbstractVideoOutput::staticMetaObject 0x00022dd0   Data          16  moc_abstractvideooutput.o(.constdata)
    Phonon::MMF::AbstractVideoPlayer::staticMetaObject 0x00022f48   Data          16  moc_abstractvideoplayer.o(.constdata)
    Phonon::MMF::AudioEqualizer::staticMetaObject 0x00023044   Data          16  moc_audioequalizer.o(.constdata)
    Phonon::MMF::AudioOutput::staticMetaObject 0x00023194   Data          16  moc_audiooutput.o(.constdata)
    Phonon::MMF::AudioPlayer::staticMetaObject 0x0002328c   Data          16  moc_audioplayer.o(.constdata)
    Phonon::MMF::Backend::staticMetaObject   0x000233c4   Data          16  moc_backend.o(.constdata)
    Phonon::MMF::BassBoost::staticMetaObject 0x000234b8   Data          16  moc_bassboost.o(.constdata)
    Phonon::MMF::EffectFactory::staticMetaObject 0x000235b0   Data          16  moc_effectfactory.o(.constdata)
    Phonon::MMF::EnvironmentalReverb::staticMetaObject 0x000236b0   Data          16  moc_environmentalreverb.o(.constdata)
    Phonon::MMF::Loudness::staticMetaObject  0x000237a4   Data          16  moc_loudness.o(.constdata)
    Phonon::MMF::MediaObject::staticMetaObject 0x00023ba8   Data          16  moc_mediaobject.o(.constdata)
    Phonon::MMF::MediaNode::staticMetaObject 0x00023c9c   Data          16  moc_mmf_medianode.o(.constdata)
    Phonon::MMF::StereoWidening::staticMetaObject 0x00023d98   Data          16  moc_stereowidening.o(.constdata)
    ObjectDump::QAnnotator::staticMetaObject 0x00023fec   Data          16  moc_objectdump.o(.constdata)
    ObjectDump::QAnnotatorBasic::staticMetaObject 0x00023ffc   Data          16  moc_objectdump.o(.constdata)
    ObjectDump::QAnnotatorWidget::staticMetaObject 0x0002400c   Data          16  moc_objectdump.o(.constdata)
    ObjectDump::QDumper::staticMetaObject    0x0002401c   Data          16  moc_objectdump.o(.constdata)
    ObjectDump::QVisitor::staticMetaObject   0x0002402c   Data          16  moc_objectdump.o(.constdata)
    ObjectDump::Symbian::QAnnotatorWidget::staticMetaObject 0x000241b0   Data          16  moc_objectdump_symbian.o(.constdata)
    ObjectDump::Symbian::QAnnotatorControl::staticMetaObject 0x000241c0   Data          16  moc_objectdump_symbian.o(.constdata)
    ObjectDump::Symbian::QAnnotatorWindow::staticMetaObject 0x000241d0   Data          16  moc_objectdump_symbian.o(.constdata)
    Phonon::MMF::VideoWidget::staticMetaObject 0x00024280   Data          16  moc_videowidget.o(.constdata)
    Phonon::MMF::SurfaceVideoOutput::staticMetaObject 0x000243ac   Data          16  moc_videooutput_surface.o(.constdata)
    Phonon::MMF::SurfaceVideoPlayer::staticMetaObject 0x000244d8   Data          16  moc_videoplayer_surface.o(.constdata)
    Phonon::MMF::DownloadPrivate::staticMetaObject 0x0002472c   Data          16  moc_download.o(.constdata)
    Phonon::MMF::Download::staticMetaObject  0x0002473c   Data          16  moc_download.o(.constdata)
    stlp_priv::_Integer_limits<signed char, (signed char)-128, (signed char)127, (int)-1, (bool)1>::digits 0x00024790   Data           4  abstractaudioeffect.o(.constdata__ZN9stlp_priv15_Integer_limitsIaLan128ELa127ELin1ELb1EE6digitsE)
    stlp_priv::_Integer_limits<bool, (bool)0, (bool)1, (int)1, (bool)0>::digits 0x00024794   Data           4  abstractaudioeffect.o(.constdata__ZN9stlp_priv15_Integer_limitsIbLb0ELb1ELi1ELb0EE6digitsE)
    stlp_priv::_Integer_limits<char, (char)128, (char)127, (int)-1, (bool)1>::digits 0x00024798   Data           4  abstractaudioeffect.o(.constdata__ZN9stlp_priv15_Integer_limitsIcLc128ELc127ELin1ELb1EE6digitsE)
    stlp_priv::_Integer_limits<unsigned char, (unsigned char)0, (unsigned char)255, (int)-1, (bool)1>::digits 0x0002479c   Data           4  abstractaudioeffect.o(.constdata__ZN9stlp_priv15_Integer_limitsIhLh0ELh255ELin1ELb1EE6digitsE)
    stlp_priv::_Integer_limits<int, (int)-2147483648, (int)2147483647, (int)-1, (bool)1>::digits 0x000247a0   Data           4  abstractaudioeffect.o(.constdata__ZN9stlp_priv15_Integer_limitsIiLin2147483648ELi2147483647ELin1ELb1EE6digitsE)
    stlp_priv::_Integer_limits<int, (int)-2147483648, (int)2147483647, (int)-1, (bool)1>::is_signed 0x000247a4   Data           1  abstractaudioeffect.o(.constdata__ZN9stlp_priv15_Integer_limitsIiLin2147483648ELi2147483647ELin1ELb1EE9is_signedE)
    stlp_priv::_Integer_limits<unsigned, (unsigned)0, (unsigned)4294967295, (int)-1, (bool)1>::digits 0x000247a8   Data           4  abstractaudioeffect.o(.constdata__ZN9stlp_priv15_Integer_limitsIjLj0ELj4294967295ELin1ELb1EE6digitsE)
    stlp_priv::_Integer_limits<long, (long)-2147483648, (long)2147483647, (int)-1, (bool)1>::digits 0x000247ac   Data           4  abstractaudioeffect.o(.constdata__ZN9stlp_priv15_Integer_limitsIlLln2147483648ELl2147483647ELin1ELb1EE6digitsE)
    stlp_priv::_Integer_limits<unsigned long, (unsigned long)0, (unsigned long)4294967295, (int)-1, (bool)1>::digits 0x000247b0   Data           4  abstractaudioeffect.o(.constdata__ZN9stlp_priv15_Integer_limitsImLm0ELm4294967295ELin1ELb1EE6digitsE)
    stlp_priv::_Integer_limits<short, (short)-32768, (short)32767, (int)-1, (bool)1>::digits 0x000247b4   Data           4  abstractaudioeffect.o(.constdata__ZN9stlp_priv15_Integer_limitsIsLsn32768ELs32767ELin1ELb1EE6digitsE)
    stlp_priv::_Integer_limits<unsigned short, (unsigned short)0, (unsigned short)65535, (int)-1, (bool)1>::digits 0x000247b8   Data           4  abstractaudioeffect.o(.constdata__ZN9stlp_priv15_Integer_limitsItLt0ELt65535ELin1ELb1EE6digitsE)
    stlp_priv::_Integer_limits<wchar_t, (wchar_t)0, (wchar_t)65535, (int)-1, (bool)1>::digits 0x000247bc   Data           4  abstractaudioeffect.o(.constdata__ZN9stlp_priv15_Integer_limitsIwLw0ELw65535ELin1ELb1EE6digitsE)
    stlp_priv::_Integer_limits<long long, (long long)-9223372036854775808, (long long)9223372036854775807, (int)-1, (bool)1>::digits 0x000247c0   Data           4  abstractaudioeffect.o(.constdata__ZN9stlp_priv15_Integer_limitsIxLxn9223372036854775808ELx9223372036854775807ELin1ELb1EE6digitsE)
    stlp_priv::_Integer_limits<unsigned long long, (unsigned long long)0, (unsigned long long)18446744073709551615, (int)-1, (bool)1>::digits 0x000247c4   Data           4  abstractaudioeffect.o(.constdata__ZN9stlp_priv15_Integer_limitsIyLy0ELy18446744073709551615ELin1ELb1EE6digitsE)
    typeinfo for CArrayFixFlat<TDataType>    0x000247c8   Data          12  backend.o(.constdata__ZTI13CArrayFixFlatI9TDataTypeE)
    typeinfo for OutputStreamFactory         0x000247d4   Data          12  effectfactory.o(.constdata__ZTI19OutputStreamFactory)
    typeinfo for MAudioLoadingObserver       0x000247e0   Data           8  audioplayer.o(.constdata__ZTI21MAudioLoadingObserver)
    typeinfo for MVideoLoadingObserver       0x000247e8   Data           8  abstractvideoplayer.o(.constdata__ZTI21MVideoLoadingObserver)
    typeinfo for QGraphicsEffectPrivate      0x000247f0   Data          12  objectdump_symbian.o(.constdata__ZTI22QGraphicsEffectPrivate)
    typeinfo for MMdaAudioPlayerCallback     0x000247fc   Data           8  audioplayer.o(.constdata__ZTI23MMdaAudioPlayerCallback)
    typeinfo for MHttpDownloadMgrObserver    0x00024804   Data           8  download.o(.constdata__ZTI24MHttpDownloadMgrObserver)
    typeinfo for QGraphicsBlurEffectPrivate  0x0002480c   Data          12  objectdump_symbian.o(.constdata__ZTI26QGraphicsBlurEffectPrivate)
    typeinfo for MVideoPlayerUtilityObserver 0x00024818   Data           8  abstractvideoplayer.o(.constdata__ZTI27MVideoPlayerUtilityObserver)
    typeinfo for MMdaAudioOutputStreamCallback 0x00024820   Data           8  effectfactory.o(.constdata__ZTI29MMdaAudioOutputStreamCallback)
    typeinfo for QGraphicsColorizeEffectPrivate 0x00024828   Data          12  objectdump_symbian.o(.constdata__ZTI30QGraphicsColorizeEffectPrivate)
    typeinfo for QGraphicsDropShadowEffectPrivate 0x00024834   Data          12  objectdump_symbian.o(.constdata__ZTI32QGraphicsDropShadowEffectPrivate)
    typeinfo for CArrayFix<TDataType>        0x00024840   Data          12  backend.o(.constdata__ZTI9CArrayFixI9TDataTypeE)
    typeinfo for ObjectDump::QAnnotator      0x0002484c   Data          12  moc_objectdump.o(.constdata__ZTIN10ObjectDump10QAnnotatorE)
    typeinfo for ObjectDump::QAnnotatorBasic 0x00024858   Data          12  moc_objectdump.o(.constdata__ZTIN10ObjectDump15QAnnotatorBasicE)
    typeinfo for ObjectDump::QAnnotatorWidget 0x00024864   Data          12  moc_objectdump.o(.constdata__ZTIN10ObjectDump16QAnnotatorWidgetE)
    typeinfo for ObjectDump::QDumper         0x00024870   Data          12  moc_objectdump.o(.constdata__ZTIN10ObjectDump7QDumperE)
    typeinfo for ObjectDump::Symbian::QAnnotatorWidget 0x0002487c   Data          12  moc_objectdump_symbian.o(.constdata__ZTIN10ObjectDump7Symbian16QAnnotatorWidgetE)
    typeinfo for ObjectDump::Symbian::QAnnotatorWindow 0x00024888   Data          12  moc_objectdump_symbian.o(.constdata__ZTIN10ObjectDump7Symbian16QAnnotatorWindowE)
    typeinfo for ObjectDump::Symbian::QAnnotatorControl 0x00024894   Data          12  moc_objectdump_symbian.o(.constdata__ZTIN10ObjectDump7Symbian17QAnnotatorControlE)
    typeinfo for ObjectDump::QVisitor        0x000248a0   Data          12  moc_objectdump.o(.constdata__ZTIN10ObjectDump8QVisitorE)
    typeinfo for QtSharedPointer::ExternalRefCountData 0x000248ac   Data           8  abstractaudioeffect.o(.constdata__ZTIN15QtSharedPointer20ExternalRefCountDataE)
    typeinfo for Phonon::EffectInterface     0x000248b4   Data           8  abstractaudioeffect.o(.constdata__ZTIN6Phonon15EffectInterfaceE)
    typeinfo for Phonon::BackendInterface    0x000248bc   Data           8  backend.o(.constdata__ZTIN6Phonon16BackendInterfaceE)
    typeinfo for Phonon::MediaObjectInterface 0x000248c4   Data           8  mediaobject.o(.constdata__ZTIN6Phonon20MediaObjectInterfaceE)
    typeinfo for Phonon::VideoWidgetInterface 0x000248cc   Data           8  videowidget.o(.constdata__ZTIN6Phonon20VideoWidgetInterfaceE)
    typeinfo for Phonon::AudioOutputInterface40 0x000248d4   Data           8  audiooutput.o(.constdata__ZTIN6Phonon22AudioOutputInterface40E)
    typeinfo for Phonon::MMF::AudioOutput    0x000248dc   Data          32  moc_audiooutput.o(.constdata__ZTIN6Phonon3MMF11AudioOutputE)
    typeinfo for Phonon::MMF::AudioPlayer    0x000248fc   Data          40  moc_audioplayer.o(.constdata__ZTIN6Phonon3MMF11AudioPlayerE)
    typeinfo for Phonon::MMF::DummyPlayer    0x00024924   Data          12  dummyplayer.o(.constdata__ZTIN6Phonon3MMF11DummyPlayerE)
    typeinfo for Phonon::MMF::MediaObject    0x00024930   Data          32  moc_mediaobject.o(.constdata__ZTIN6Phonon3MMF11MediaObjectE)
    typeinfo for Phonon::MMF::VideoWidget    0x00024950   Data          32  moc_videowidget.o(.constdata__ZTIN6Phonon3MMF11VideoWidgetE)
    typeinfo for Phonon::MMF::EffectFactory  0x00024970   Data          12  moc_effectfactory.o(.constdata__ZTIN6Phonon3MMF13EffectFactoryE)
    typeinfo for Phonon::MMF::AbstractPlayer 0x0002497c   Data          12  moc_abstractplayer.o(.constdata__ZTIN6Phonon3MMF14AbstractPlayerE)
    typeinfo for Phonon::MMF::AudioEqualizer 0x00024988   Data          12  moc_audioequalizer.o(.constdata__ZTIN6Phonon3MMF14AudioEqualizerE)
    typeinfo for Phonon::MMF::StereoWidening 0x00024994   Data          12  moc_stereowidening.o(.constdata__ZTIN6Phonon3MMF14StereoWideningE)
    typeinfo for Phonon::MMF::DownloadPrivate 0x000249a0   Data          32  moc_download.o(.constdata__ZTIN6Phonon3MMF15DownloadPrivateE)
    typeinfo for Phonon::MMF::SurfaceVideoOutput 0x000249c0   Data          12  moc_videooutput_surface.o(.constdata__ZTIN6Phonon3MMF18SurfaceVideoOutputE)
    typeinfo for Phonon::MMF::SurfaceVideoPlayer 0x000249cc   Data          12  moc_videoplayer_surface.o(.constdata__ZTIN6Phonon3MMF18SurfaceVideoPlayerE)
    typeinfo for Phonon::MMF::AbstractAudioEffect 0x000249d8   Data          32  moc_abstractaudioeffect.o(.constdata__ZTIN6Phonon3MMF19AbstractAudioEffectE)
    typeinfo for Phonon::MMF::AbstractMediaPlayer 0x000249f8   Data          12  moc_abstractmediaplayer.o(.constdata__ZTIN6Phonon3MMF19AbstractMediaPlayerE)
    typeinfo for Phonon::MMF::AbstractVideoOutput 0x00024a04   Data          12  moc_abstractvideooutput.o(.constdata__ZTIN6Phonon3MMF19AbstractVideoOutputE)
    typeinfo for Phonon::MMF::AbstractVideoPlayer 0x00024a10   Data          40  moc_abstractvideoplayer.o(.constdata__ZTIN6Phonon3MMF19AbstractVideoPlayerE)
    typeinfo for Phonon::MMF::EnvironmentalReverb 0x00024a38   Data          12  moc_environmentalreverb.o(.constdata__ZTIN6Phonon3MMF19EnvironmentalReverbE)
    typeinfo for Phonon::MMF::Backend        0x00024a44   Data          32  moc_backend.o(.constdata__ZTIN6Phonon3MMF7BackendE)
    typeinfo for Phonon::MMF::Download       0x00024a64   Data          12  moc_download.o(.constdata__ZTIN6Phonon3MMF8DownloadE)
    typeinfo for Phonon::MMF::Loudness       0x00024a70   Data          12  moc_loudness.o(.constdata__ZTIN6Phonon3MMF8LoudnessE)
    typeinfo for Phonon::MMF::BassBoost      0x00024a7c   Data          12  moc_bassboost.o(.constdata__ZTIN6Phonon3MMF9BassBoostE)
    typeinfo for Phonon::MMF::MediaNode      0x00024a88   Data          12  moc_mmf_medianode.o(.constdata__ZTIN6Phonon3MMF9MediaNodeE)
    typeinfo name for CArrayFixFlat<TDataType> 0x00024a94   Data          28  backend.o(.constdata__ZTS13CArrayFixFlatI9TDataTypeE)
    typeinfo name for OutputStreamFactory    0x00024ab0   Data          22  effectfactory.o(.constdata__ZTS19OutputStreamFactory)
    typeinfo name for MAudioLoadingObserver  0x00024ac6   Data          24  audioplayer.o(.constdata__ZTS21MAudioLoadingObserver)
    typeinfo name for MVideoLoadingObserver  0x00024ade   Data          24  abstractvideoplayer.o(.constdata__ZTS21MVideoLoadingObserver)
    typeinfo name for QGraphicsEffectPrivate 0x00024af6   Data          25  objectdump_symbian.o(.constdata__ZTS22QGraphicsEffectPrivate)
    typeinfo name for MMdaAudioPlayerCallback 0x00024b0f   Data          26  audioplayer.o(.constdata__ZTS23MMdaAudioPlayerCallback)
    typeinfo name for MHttpDownloadMgrObserver 0x00024b29   Data          27  download.o(.constdata__ZTS24MHttpDownloadMgrObserver)
    typeinfo name for QGraphicsBlurEffectPrivate 0x00024b44   Data          29  objectdump_symbian.o(.constdata__ZTS26QGraphicsBlurEffectPrivate)
    typeinfo name for MVideoPlayerUtilityObserver 0x00024b61   Data          30  abstractvideoplayer.o(.constdata__ZTS27MVideoPlayerUtilityObserver)
    typeinfo name for MMdaAudioOutputStreamCallback 0x00024b7f   Data          32  effectfactory.o(.constdata__ZTS29MMdaAudioOutputStreamCallback)
    typeinfo name for QGraphicsColorizeEffectPrivate 0x00024b9f   Data          33  objectdump_symbian.o(.constdata__ZTS30QGraphicsColorizeEffectPrivate)
    typeinfo name for QGraphicsDropShadowEffectPrivate 0x00024bc0   Data          35  objectdump_symbian.o(.constdata__ZTS32QGraphicsDropShadowEffectPrivate)
    typeinfo name for CArrayFix<TDataType>   0x00024be3   Data          23  backend.o(.constdata__ZTS9CArrayFixI9TDataTypeE)
    typeinfo name for ObjectDump::QAnnotator 0x00024bfa   Data          27  moc_objectdump.o(.constdata__ZTSN10ObjectDump10QAnnotatorE)
    typeinfo name for ObjectDump::QAnnotatorBasic 0x00024c15   Data          32  moc_objectdump.o(.constdata__ZTSN10ObjectDump15QAnnotatorBasicE)
    typeinfo name for ObjectDump::QAnnotatorWidget 0x00024c35   Data          33  moc_objectdump.o(.constdata__ZTSN10ObjectDump16QAnnotatorWidgetE)
    typeinfo name for ObjectDump::QDumper    0x00024c56   Data          23  moc_objectdump.o(.constdata__ZTSN10ObjectDump7QDumperE)
    typeinfo name for ObjectDump::Symbian::QAnnotatorWidget 0x00024c6d   Data          41  moc_objectdump_symbian.o(.constdata__ZTSN10ObjectDump7Symbian16QAnnotatorWidgetE)
    typeinfo name for ObjectDump::Symbian::QAnnotatorWindow 0x00024c96   Data          41  moc_objectdump_symbian.o(.constdata__ZTSN10ObjectDump7Symbian16QAnnotatorWindowE)
    typeinfo name for ObjectDump::Symbian::QAnnotatorControl 0x00024cbf   Data          42  moc_objectdump_symbian.o(.constdata__ZTSN10ObjectDump7Symbian17QAnnotatorControlE)
    typeinfo name for ObjectDump::QVisitor   0x00024ce9   Data          24  moc_objectdump.o(.constdata__ZTSN10ObjectDump8QVisitorE)
    typeinfo name for QtSharedPointer::ExternalRefCountData 0x00024d01   Data          42  abstractaudioeffect.o(.constdata__ZTSN15QtSharedPointer20ExternalRefCountDataE)
    typeinfo name for Phonon::EffectInterface 0x00024d2b   Data          27  abstractaudioeffect.o(.constdata__ZTSN6Phonon15EffectInterfaceE)
    typeinfo name for Phonon::BackendInterface 0x00024d46   Data          28  backend.o(.constdata__ZTSN6Phonon16BackendInterfaceE)
    typeinfo name for Phonon::MediaObjectInterface 0x00024d62   Data          32  mediaobject.o(.constdata__ZTSN6Phonon20MediaObjectInterfaceE)
    typeinfo name for Phonon::VideoWidgetInterface 0x00024d82   Data          32  videowidget.o(.constdata__ZTSN6Phonon20VideoWidgetInterfaceE)
    typeinfo name for Phonon::AudioOutputInterface40 0x00024da2   Data          34  audiooutput.o(.constdata__ZTSN6Phonon22AudioOutputInterface40E)
    typeinfo name for Phonon::MMF::AudioOutput 0x00024dc4   Data          27  moc_audiooutput.o(.constdata__ZTSN6Phonon3MMF11AudioOutputE)
    typeinfo name for Phonon::MMF::AudioPlayer 0x00024ddf   Data          27  moc_audioplayer.o(.constdata__ZTSN6Phonon3MMF11AudioPlayerE)
    typeinfo name for Phonon::MMF::DummyPlayer 0x00024dfa   Data          27  dummyplayer.o(.constdata__ZTSN6Phonon3MMF11DummyPlayerE)
    typeinfo name for Phonon::MMF::MediaObject 0x00024e15   Data          27  moc_mediaobject.o(.constdata__ZTSN6Phonon3MMF11MediaObjectE)
    typeinfo name for Phonon::MMF::VideoWidget 0x00024e30   Data          27  moc_videowidget.o(.constdata__ZTSN6Phonon3MMF11VideoWidgetE)
    typeinfo name for Phonon::MMF::EffectFactory 0x00024e4b   Data          29  moc_effectfactory.o(.constdata__ZTSN6Phonon3MMF13EffectFactoryE)
    typeinfo name for Phonon::MMF::AbstractPlayer 0x00024e68   Data          30  moc_abstractplayer.o(.constdata__ZTSN6Phonon3MMF14AbstractPlayerE)
    typeinfo name for Phonon::MMF::AudioEqualizer 0x00024e86   Data          30  moc_audioequalizer.o(.constdata__ZTSN6Phonon3MMF14AudioEqualizerE)
    typeinfo name for Phonon::MMF::StereoWidening 0x00024ea4   Data          30  moc_stereowidening.o(.constdata__ZTSN6Phonon3MMF14StereoWideningE)
    typeinfo name for Phonon::MMF::DownloadPrivate 0x00024ec2   Data          31  moc_download.o(.constdata__ZTSN6Phonon3MMF15DownloadPrivateE)
    typeinfo name for Phonon::MMF::SurfaceVideoOutput 0x00024ee1   Data          34  moc_videooutput_surface.o(.constdata__ZTSN6Phonon3MMF18SurfaceVideoOutputE)
    typeinfo name for Phonon::MMF::SurfaceVideoPlayer 0x00024f03   Data          34  moc_videoplayer_surface.o(.constdata__ZTSN6Phonon3MMF18SurfaceVideoPlayerE)
    typeinfo name for Phonon::MMF::AbstractAudioEffect 0x00024f25   Data          35  moc_abstractaudioeffect.o(.constdata__ZTSN6Phonon3MMF19AbstractAudioEffectE)
    typeinfo name for Phonon::MMF::AbstractMediaPlayer 0x00024f48   Data          35  moc_abstractmediaplayer.o(.constdata__ZTSN6Phonon3MMF19AbstractMediaPlayerE)
    typeinfo name for Phonon::MMF::AbstractVideoOutput 0x00024f6b   Data          35  moc_abstractvideooutput.o(.constdata__ZTSN6Phonon3MMF19AbstractVideoOutputE)
    typeinfo name for Phonon::MMF::AbstractVideoPlayer 0x00024f8e   Data          35  moc_abstractvideoplayer.o(.constdata__ZTSN6Phonon3MMF19AbstractVideoPlayerE)
    typeinfo name for Phonon::MMF::EnvironmentalReverb 0x00024fb1   Data          35  moc_environmentalreverb.o(.constdata__ZTSN6Phonon3MMF19EnvironmentalReverbE)
    typeinfo name for Phonon::MMF::Backend   0x00024fd4   Data          22  moc_backend.o(.constdata__ZTSN6Phonon3MMF7BackendE)
    typeinfo name for Phonon::MMF::Download  0x00024fea   Data          23  moc_download.o(.constdata__ZTSN6Phonon3MMF8DownloadE)
    typeinfo name for Phonon::MMF::Loudness  0x00025001   Data          23  moc_loudness.o(.constdata__ZTSN6Phonon3MMF8LoudnessE)
    typeinfo name for Phonon::MMF::BassBoost 0x00025018   Data          24  moc_bassboost.o(.constdata__ZTSN6Phonon3MMF9BassBoostE)
    typeinfo name for Phonon::MMF::MediaNode 0x00025030   Data          24  moc_mmf_medianode.o(.constdata__ZTSN6Phonon3MMF9MediaNodeE)
    vtable for CArrayFixFlat<TDataType>      0x00025048   Data          20  backend.o(.constdata__ZTV13CArrayFixFlatI9TDataTypeE)
    vtable for OutputStreamFactory           0x0002505c   Data          20  effectfactory.o(.constdata__ZTV19OutputStreamFactory)
    vtable for MAudioLoadingObserver         0x00025070   Data          16  audioplayer.o(.constdata__ZTV21MAudioLoadingObserver)
    vtable for MVideoLoadingObserver         0x00025080   Data          16  abstractvideoplayer.o(.constdata__ZTV21MVideoLoadingObserver)
    vtable for MMdaAudioPlayerCallback       0x00025090   Data          16  audioplayer.o(.constdata__ZTV23MMdaAudioPlayerCallback)
    vtable for MHttpDownloadMgrObserver      0x000250a0   Data          12  download.o(.constdata__ZTV24MHttpDownloadMgrObserver)
    vtable for QGraphicsBlurEffectPrivate    0x000250ac   Data          16  objectdump_symbian.o(.constdata__ZTV26QGraphicsBlurEffectPrivate)
    vtable for MVideoPlayerUtilityObserver   0x000250bc   Data          28  abstractvideoplayer.o(.constdata__ZTV27MVideoPlayerUtilityObserver)
    vtable for MMdaAudioOutputStreamCallback 0x000250d8   Data          20  effectfactory.o(.constdata__ZTV29MMdaAudioOutputStreamCallback)
    vtable for QGraphicsColorizeEffectPrivate 0x000250ec   Data          16  objectdump_symbian.o(.constdata__ZTV30QGraphicsColorizeEffectPrivate)
    vtable for QGraphicsDropShadowEffectPrivate 0x000250fc   Data          16  objectdump_symbian.o(.constdata__ZTV32QGraphicsDropShadowEffectPrivate)
    vtable for CArrayFix<TDataType>          0x0002510c   Data          20  backend.o(.constdata__ZTV9CArrayFixI9TDataTypeE)
    vtable for ObjectDump::QAnnotator        0x00025120   Data          60  moc_objectdump.o(.constdata__ZTVN10ObjectDump10QAnnotatorE)
    vtable for ObjectDump::QAnnotatorBasic   0x0002515c   Data          60  moc_objectdump.o(.constdata__ZTVN10ObjectDump15QAnnotatorBasicE)
    vtable for ObjectDump::QAnnotatorWidget  0x00025198   Data          60  moc_objectdump.o(.constdata__ZTVN10ObjectDump16QAnnotatorWidgetE)
    vtable for ObjectDump::QDumper           0x000251d4   Data          56  moc_objectdump.o(.constdata__ZTVN10ObjectDump7QDumperE)
    vtable for ObjectDump::Symbian::QAnnotatorWidget 0x0002520c   Data          60  moc_objectdump_symbian.o(.constdata__ZTVN10ObjectDump7Symbian16QAnnotatorWidgetE)
    vtable for ObjectDump::Symbian::QAnnotatorWindow 0x00025248   Data          60  moc_objectdump_symbian.o(.constdata__ZTVN10ObjectDump7Symbian16QAnnotatorWindowE)
    vtable for ObjectDump::Symbian::QAnnotatorControl 0x00025284   Data          60  moc_objectdump_symbian.o(.constdata__ZTVN10ObjectDump7Symbian17QAnnotatorControlE)
    vtable for ObjectDump::QVisitor          0x000252c0   Data          56  moc_objectdump.o(.constdata__ZTVN10ObjectDump8QVisitorE)
    vtable for QtSharedPointer::ExternalRefCountData 0x000252f8   Data          20  abstractaudioeffect.o(.constdata__ZTVN15QtSharedPointer20ExternalRefCountDataE)
    vtable for Phonon::EffectInterface       0x0002530c   Data          28  abstractaudioeffect.o(.constdata__ZTVN6Phonon15EffectInterfaceE)
    vtable for Phonon::BackendInterface      0x00025328   Data          48  backend.o(.constdata__ZTVN6Phonon16BackendInterfaceE)
    vtable for Phonon::MediaObjectInterface  0x00025358   Data         100  mediaobject.o(.constdata__ZTVN6Phonon20MediaObjectInterfaceE)
    vtable for Phonon::VideoWidgetInterface  0x000253bc   Data          68  videowidget.o(.constdata__ZTVN6Phonon20VideoWidgetInterfaceE)
    vtable for Phonon::AudioOutputInterface40 0x00025400   Data          32  audiooutput.o(.constdata__ZTVN6Phonon22AudioOutputInterface40E)
    vtable for Phonon::MMF::AudioOutput      0x00025420   Data         112  moc_audiooutput.o(.constdata__ZTVN6Phonon3MMF11AudioOutputE)
    vtable for Phonon::MMF::AudioPlayer      0x00025490   Data         228  moc_audioplayer.o(.constdata__ZTVN6Phonon3MMF11AudioPlayerE)
    vtable for Phonon::MMF::DummyPlayer      0x00025574   Data         128  dummyplayer.o(.constdata__ZTVN6Phonon3MMF11DummyPlayerE)
    vtable for Phonon::MMF::MediaObject      0x000255f4   Data         244  moc_mediaobject.o(.constdata__ZTVN6Phonon3MMF11MediaObjectE)
    vtable for Phonon::MMF::VideoWidget      0x000256e8   Data         184  moc_videowidget.o(.constdata__ZTVN6Phonon3MMF11VideoWidgetE)
    vtable for Phonon::MMF::EffectFactory    0x000257a0   Data          56  moc_effectfactory.o(.constdata__ZTVN6Phonon3MMF13EffectFactoryE)
    vtable for Phonon::MMF::AbstractPlayer   0x000257d8   Data         124  moc_abstractplayer.o(.constdata__ZTVN6Phonon3MMF14AbstractPlayerE)
    vtable for Phonon::MMF::AudioEqualizer   0x00025854   Data         112  moc_audioequalizer.o(.constdata__ZTVN6Phonon3MMF14AudioEqualizerE)
    vtable for Phonon::MMF::StereoWidening   0x000258c4   Data         116  moc_stereowidening.o(.constdata__ZTVN6Phonon3MMF14StereoWideningE)
    vtable for Phonon::MMF::DownloadPrivate  0x00025938   Data          72  moc_download.o(.constdata__ZTVN6Phonon3MMF15DownloadPrivateE)
    vtable for Phonon::MMF::SurfaceVideoOutput 0x00025980   Data         248  moc_videooutput_surface.o(.constdata__ZTVN6Phonon3MMF18SurfaceVideoOutputE)
    vtable for Phonon::MMF::SurfaceVideoPlayer 0x00025a78   Data         272  moc_videoplayer_surface.o(.constdata__ZTVN6Phonon3MMF18SurfaceVideoPlayerE)
    vtable for Phonon::MMF::AbstractAudioEffect 0x00025b88   Data         112  moc_abstractaudioeffect.o(.constdata__ZTVN6Phonon3MMF19AbstractAudioEffectE)
    vtable for Phonon::MMF::AbstractMediaPlayer 0x00025bf8   Data         180  moc_abstractmediaplayer.o(.constdata__ZTVN6Phonon3MMF19AbstractMediaPlayerE)
    vtable for Phonon::MMF::AbstractVideoOutput 0x00025cac   Data         248  moc_abstractvideooutput.o(.constdata__ZTVN6Phonon3MMF19AbstractVideoOutputE)
    vtable for Phonon::MMF::AbstractVideoPlayer 0x00025da4   Data         272  moc_abstractvideoplayer.o(.constdata__ZTVN6Phonon3MMF19AbstractVideoPlayerE)
    vtable for Phonon::MMF::EnvironmentalReverb 0x00025eb4   Data         112  moc_environmentalreverb.o(.constdata__ZTVN6Phonon3MMF19EnvironmentalReverbE)
    vtable for Phonon::MMF::Backend          0x00025f24   Data         136  moc_backend.o(.constdata__ZTVN6Phonon3MMF7BackendE)
    vtable for Phonon::MMF::Download         0x00025fac   Data          56  moc_download.o(.constdata__ZTVN6Phonon3MMF8DownloadE)
    vtable for Phonon::MMF::Loudness         0x00025fe4   Data         112  moc_loudness.o(.constdata__ZTVN6Phonon3MMF8LoudnessE)
    vtable for Phonon::MMF::BassBoost        0x00026054   Data         112  moc_bassboost.o(.constdata__ZTVN6Phonon3MMF9BassBoostE)
    vtable for Phonon::MMF::MediaNode        0x000260c4   Data          64  moc_mmf_medianode.o(.constdata__ZTVN6Phonon3MMF9MediaNodeE)
    .ARM.exidx$$Base                         0x00026104   Number         0  ucppinit.o(.ARM.exidx)
    .ARM.exidx$$Limit                        0x000278ec   Number         0  objectdump.o(.ARM.exidx)
    Image$$ER_RO$$Limit                      0x000278ec   Number         0  anon$$obj.o(linker$$defined$$symbols)
    __dso_handle                             0x00400008   Data           4  ucppfini.o(.data)
    std::_Atomic_swap_struct<(int)1>::_S_swap_lock 0x0040000c   Data          12  abstractaudioeffect.o(.data__ZNSt19_Atomic_swap_structILi1EE12_S_swap_lockE)
    QMetaTypeId<Phonon::MMF::Download::State>::qt_metatype_id()::metatype_id 0x00400018   Data           4  download.o(.data__ZZN11QMetaTypeIdIN6Phonon3MMF8Download5StateEE14qt_metatype_idEvE11metatype_id)
    dtor_rec                                 0x0040001c   Data        2048  ucppfini.o(.bss)

