ARM Linker, RVCT2.2 [Build 686]

================================================================================

Image Symbol Table

    Local Symbols

    Symbol Name                              Value     Ov Type        Size  Object(Section)

    ../../unhosted.s                         0x00000000   Number         0  switch8.o ABSOLUTE
    M:\\epoc32\\build\\euser\\c_e18a23aea4fd210f\\edll_lib\\armv5\\udeb\\uc_dll_.cpp 0x00000000   Number         0  uc_dll_.o ABSOLUTE
    M:\\sf\\os\\kernelhwsrv\\kernel\\eka\\compsupp\\rvct\\ucppinit.cpp 0x00000000   Number         0  ucppinit.o ABSOLUTE
    M:\epoc32\build\euser\c_e18a23aea4fd210f\edll_lib\armv5\udeb\uc_dll_.cpp 0x00000000   Number         0  uc_dll_.o ABSOLUTE
    M:\sf\os\kernelhwsrv\kernel\eka\compsupp\rvct\dllexp.cpp 0x00000000   Number         0  dllexp.o ABSOLUTE
    M:\sf\os\kernelhwsrv\kernel\eka\compsupp\rvct\ucppfini.cpp 0x00000000   Number         0  ucppfini.o ABSOLUTE
    M:\sf\os\kernelhwsrv\kernel\eka\compsupp\rvct\ucppinit.cpp 0x00000000   Number         0  ucppinit.o ABSOLUTE
    M:\sf\os\kernelhwsrv\kernel\eka\euser\epoc\arm\uc_dll.cpp 0x00000000   Number         0  uc_dll.o ABSOLUTE
    S:\sf\mw\qt\src\3rdparty\libmng\libmng_callback_xs.c 0x00000000   Number         0  libmng_callback_xs.o ABSOLUTE
    S:\sf\mw\qt\src\3rdparty\libmng\libmng_chunk_descr.c 0x00000000   Number         0  libmng_chunk_descr.o ABSOLUTE
    S:\sf\mw\qt\src\3rdparty\libmng\libmng_chunk_io.c 0x00000000   Number         0  libmng_chunk_io.o ABSOLUTE
    S:\sf\mw\qt\src\3rdparty\libmng\libmng_chunk_prc.c 0x00000000   Number         0  libmng_chunk_prc.o ABSOLUTE
    S:\sf\mw\qt\src\3rdparty\libmng\libmng_chunk_xs.c 0x00000000   Number         0  libmng_chunk_xs.o ABSOLUTE
    S:\sf\mw\qt\src\3rdparty\libmng\libmng_cms.c 0x00000000   Number         0  libmng_cms.o ABSOLUTE
    S:\sf\mw\qt\src\3rdparty\libmng\libmng_display.c 0x00000000   Number         0  libmng_display.o ABSOLUTE
    S:\sf\mw\qt\src\3rdparty\libmng\libmng_dither.c 0x00000000   Number         0  libmng_dither.o ABSOLUTE
    S:\sf\mw\qt\src\3rdparty\libmng\libmng_error.c 0x00000000   Number         0  libmng_error.o ABSOLUTE
    S:\sf\mw\qt\src\3rdparty\libmng\libmng_filter.c 0x00000000   Number         0  libmng_filter.o ABSOLUTE
    S:\sf\mw\qt\src\3rdparty\libmng\libmng_hlapi.c 0x00000000   Number         0  libmng_hlapi.o ABSOLUTE
    S:\sf\mw\qt\src\3rdparty\libmng\libmng_jpeg.c 0x00000000   Number         0  libmng_jpeg.o ABSOLUTE
    S:\sf\mw\qt\src\3rdparty\libmng\libmng_object_prc.c 0x00000000   Number         0  libmng_object_prc.o ABSOLUTE
    S:\sf\mw\qt\src\3rdparty\libmng\libmng_pixels.c 0x00000000   Number         0  libmng_pixels.o ABSOLUTE
    S:\sf\mw\qt\src\3rdparty\libmng\libmng_prop_xs.c 0x00000000   Number         0  libmng_prop_xs.o ABSOLUTE
    S:\sf\mw\qt\src\3rdparty\libmng\libmng_read.c 0x00000000   Number         0  libmng_read.o ABSOLUTE
    S:\sf\mw\qt\src\3rdparty\libmng\libmng_trace.c 0x00000000   Number         0  libmng_trace.o ABSOLUTE
    S:\sf\mw\qt\src\3rdparty\libmng\libmng_write.c 0x00000000   Number         0  libmng_write.o ABSOLUTE
    S:\sf\mw\qt\src\3rdparty\libmng\libmng_zlib.c 0x00000000   Number         0  libmng_zlib.o ABSOLUTE
    S:\sf\mw\qt\src\gui\image\qmnghandler.cpp 0x00000000   Number         0  qmnghandler.o ABSOLUTE
    S:\sf\mw\qt\src\plugins\imageformats\mng\main.cpp 0x00000000   Number         0  main.o ABSOLUTE
    .emb_text                                0x00008000   Section       40  uc_dll_.o(.emb_text)
    Symbian$$eit_base                        0x00008014   Data           4  uc_dll_.o(.emb_text)
    Symbian$$eit_limit                       0x00008018   Data           4  uc_dll_.o(.emb_text)
    Symbian$$code_seg_base                   0x0000801c   Data           4  uc_dll_.o(.emb_text)
    Symbian$$code_seg_limit                  0x00008020   Data           4  uc_dll_.o(.emb_text)
    Symbian$$reserved                        0x00008024   Data           4  uc_dll_.o(.emb_text)
    .emb_text                                0x00008028   Section       52  ucppinit.o(.emb_text)
    loop                                     0x0000803c   ARM Code       0  ucppinit.o(.emb_text)
    ret                                      0x00008044   ARM Code       0  ucppinit.o(.emb_text)
    base                                     0x00008054   Data           0  ucppinit.o(.emb_text)
    limit                                    0x00008058   Data           0  ucppinit.o(.emb_text)
    .text                                    0x000082cc   Section     1200  libmng_callback_xs.o(.text)
    make_crc_table                           0x0000877d   Thumb Code    62  libmng_chunk_io.o(.text)
    .text                                    0x0000877c   Section    37260  libmng_chunk_io.o(.text)
    update_crc                               0x000087bb   Thumb Code    66  libmng_chunk_io.o(.text)
    find_null                                0x0000888b   Thumb Code    16  libmng_chunk_io.o(.text)
    deflate_buffer                           0x00008981   Thumb Code   210  libmng_chunk_io.o(.text)
    write_raw_chunk                          0x00008a53   Thumb Code   600  libmng_chunk_io.o(.text)
    CheckKeyword                             0x0000e54b   Thumb Code   446  libmng_chunk_io.o(.text)
    .text                                    0x00011908   Section     9684  libmng_chunk_prc.o(.text)
    .text                                    0x00013edc   Section    18072  libmng_chunk_xs.o(.text)
    check_term                               0x0001545b   Thumb Code    64  libmng_chunk_xs.o(.text)
    .text                                    0x00018574   Section      640  libmng_cms.o(.text)
    set_delay                                0x000187f5   Thumb Code    86  libmng_display.o(.text)
    .text                                    0x000187f4   Section    29480  libmng_display.o(.text)
    calculate_delay                          0x0001884b   Thumb Code   112  libmng_display.o(.text)
    interframe_delay                         0x00018971   Thumb Code   714  libmng_display.o(.text)
    set_display_routine                      0x00018c3b   Thumb Code   394  libmng_display.o(.text)
    load_bkgdlayer                           0x00018dc5   Thumb Code  3124  libmng_display.o(.text)
    clear_canvas                             0x000199f9   Thumb Code   352  libmng_display.o(.text)
    next_frame                               0x00019b59   Thumb Code   828  libmng_display.o(.text)
    next_layer                               0x00019e95   Thumb Code  1104  libmng_display.o(.text)
    save_state                               0x0001b573   Thumb Code   698  libmng_display.o(.text)
    restore_state                            0x0001b8a7   Thumb Code  1456  libmng_display.o(.text)
    .text                                    0x0001fb1c   Section        6  libmng_dither.o(.text)
    .text                                    0x0001fb24   Section      340  libmng_error.o(.text)
    filter_sub                               0x0001fc79   Thumb Code    84  libmng_filter.o(.text)
    .text                                    0x0001fc78   Section      696  libmng_filter.o(.text)
    filter_up                                0x0001fccd   Thumb Code    74  libmng_filter.o(.text)
    filter_average                           0x0001fd17   Thumb Code   132  libmng_filter.o(.text)
    filter_paeth                             0x0001fd9b   Thumb Code   312  libmng_filter.o(.text)
    mng_drop_objects                         0x0001ff31   Thumb Code   164  libmng_hlapi.o(.text)
    .text                                    0x0001ff30   Section     8632  libmng_hlapi.o(.text)
    mng_drop_savedata                        0x0001ffd5   Thumb Code   120  libmng_hlapi.o(.text)
    mng_reset_rundata                        0x0002004d   Thumb Code   922  libmng_hlapi.o(.text)
    cleanup_errors                           0x000203e7   Thumb Code    24  libmng_hlapi.o(.text)
    make_pushbuffer                          0x000203ff   Thumb Code   134  libmng_hlapi.o(.text)
    .text                                    0x000220e8   Section    15888  libmng_object_prc.o(.text)
    .text                                    0x00025ef8   Section    73540  libmng_pixels.o(.text)
    check_update_region                      0x00025f71   Thumb Code   168  libmng_pixels.o(.text)
    |L1.26624|                               0x0002c6f8   Data           0  libmng_pixels.o(.text)
    .text                                    0x00037e3c   Section     3008  libmng_prop_xs.o(.text)
    |L1.964|                                 0x00038200   Data           0  libmng_prop_xs.o(.text)
    |L1.1932|                                0x000385c8   Data           0  libmng_prop_xs.o(.text)
    .text                                    0x000389fc   Section     4180  libmng_read.o(.text)
    read_data                                0x00038afb   Thumb Code   228  libmng_read.o(.text)
    read_databuffer                          0x00038bdf   Thumb Code   912  libmng_read.o(.text)
    process_raw_chunk                        0x00038f6f   Thumb Code   360  libmng_read.o(.text)
    check_chunk_crc                          0x000390d7   Thumb Code   270  libmng_read.o(.text)
    read_chunk                               0x000391e5   Thumb Code  1246  libmng_read.o(.text)
    process_pushedchunk                      0x000396c3   Thumb Code   460  libmng_read.o(.text)
    .text                                    0x00039a50   Section      604  libmng_write.o(.text)
    .text                                    0x00039cac   Section     1332  libmng_zlib.o(.text)
    |L1.1044|                                0x0003a0c0   Data           0  libmng_zlib.o(.text)
    myerror(mng_data_struct*, int, signed char, int, unsigned, int, int, char*) 0x0003a1e1   Thumb Code    56  qmnghandler.o(.text)
    .text                                    0x0003a1e0   Section     2424  qmnghandler.o(.text)
    myalloc(unsigned)                        0x0003a219   Thumb Code    14  qmnghandler.o(.text)
    myfree(void*, unsigned)                  0x0003a227   Thumb Code    14  qmnghandler.o(.text)
    myopenstream(mng_data_struct*)           0x0003a235   Thumb Code     6  qmnghandler.o(.text)
    myclosestream(mng_data_struct*)          0x0003a23b   Thumb Code    18  qmnghandler.o(.text)
    myreaddata(mng_data_struct*, void*, unsigned, unsigned*) 0x0003a291   Thumb Code    32  qmnghandler.o(.text)
    mywritedata(mng_data_struct*, void*, unsigned, unsigned*) 0x0003a2e7   Thumb Code    32  qmnghandler.o(.text)
    myprocessheader(mng_data_struct*, unsigned, unsigned) 0x0003a34b   Thumb Code    28  qmnghandler.o(.text)
    mygetcanvasline(mng_data_struct*, unsigned) 0x0003a367   Thumb Code    26  qmnghandler.o(.text)
    myrefresh(mng_data_struct*, unsigned, unsigned, unsigned, unsigned) 0x0003a381   Thumb Code    10  qmnghandler.o(.text)
    mygettickcount(mng_data_struct*)         0x0003a38b   Thumb Code    22  qmnghandler.o(.text)
    mysettimer(mng_data_struct*, unsigned)   0x0003a3a1   Thumb Code    26  qmnghandler.o(.text)
    myprocessterm(mng_data_struct*, unsigned char, unsigned char, unsigned, unsigned) 0x0003a3bb   Thumb Code    30  qmnghandler.o(.text)
    mytrace(mng_data_struct*, int, int, char*) 0x0003a3d9   Thumb Code    26  qmnghandler.o(.text)
    |L1.1252|                                0x0003a6c4   Data           0  qmnghandler.o(.text)
    .text                                    0x0003ab58   Section      540  main.o(.text)
    .text                                    0x0003ad74   Section       24  switch8.o(.text)
    .text                                    0x0003ad8c   Section       80  uc_dll.o(.text)
    .text                                    0x0003addc   Section      180  ucppfini.o(.text)
    .text                                    0x0003ae90   Section        4  dllexp.o(.text)
    .text.clean                              0x0003ae94   Section       94  qmnghandler.o(.text.clean)
    .text.clean                              0x0003aef4   Section       60  main.o(.text.clean)
    i._ZN10QByteArrayD1Ev                    0x0003af30   Section       38  qmnghandler.o(i._ZN10QByteArrayD1Ev)
    i._ZN10QMngPluginD0Ev                    0x0003af56   Section       24  main.o(i._ZN10QMngPluginD0Ev)
    i._ZN10QMngPluginD1Ev                    0x0003af6e   Section       14  main.o(i._ZN10QMngPluginD1Ev)
    i._ZN11QStringListD1Ev                   0x0003af7c   Section       14  main.o(i._ZN11QStringListD1Ev)
    i._ZN15QBasicAtomicInt3refEv             0x0003af8a   Section       24  main.o(i._ZN15QBasicAtomicInt3refEv)
    i._ZN15QBasicAtomicInt5derefEv           0x0003afa2   Section       24  main.o(i._ZN15QBasicAtomicInt5derefEv)
    i._ZN6QColorC1ERKS_                      0x0003afba   Section       24  qmnghandler.o(i._ZN6QColorC1ERKS_)
    i._ZN7QStringC1ERKS_                     0x0003afd4   Section      124  main.o(i._ZN7QStringC1ERKS_)
    i._ZN7QStringD1Ev                        0x0003b050   Section       24  main.o(i._ZN7QStringD1Ev)
    i._ZNK10QByteArray7isEmptyEv             0x0003b068   Section       18  main.o(i._ZNK10QByteArray7isEmptyEv)
    i._ZNK9QListData3endEv                   0x0003b07a   Section       16  main.o(i._ZNK9QListData3endEv)
    i._ZNK9QListData5beginEv                 0x0003b08a   Section       16  main.o(i._ZNK9QListData5beginEv)
    i._ZThn8_N10QMngPluginD0Ev               0x0003b09a   Section       14  main.o(i._ZThn8_N10QMngPluginD0Ev)
    i._ZThn8_N10QMngPluginD1Ev               0x0003b0a8   Section       18  main.o(i._ZThn8_N10QMngPluginD1Ev)
    i._ZdlPvS_                               0x0003b0ba   Section        2  main.o(i._ZdlPvS_)
    i._ZnwjPv                                0x0003b0bc   Section        6  main.o(i._ZnwjPv)
    t._ZN14QScopedPointerI18QMngHandlerPrivate21QScopedPointerDeleterIS0_EED1Ev 0x0003b0c2   Section       32  qmnghandler.o(t._ZN14QScopedPointerI18QMngHandlerPrivate21QScopedPointerDeleterIS0_EED1Ev)
    t._ZN5QListI7QStringE13detach_helperEi   0x0003b0e2   Section       94  main.o(t._ZN5QListI7QStringE13detach_helperEi)
    t._ZN5QListI7QStringE13detach_helperEi.clean 0x0003b140   Section        8  main.o(t._ZN5QListI7QStringE13detach_helperEi.clean)
    t._ZN5QListI7QStringE13detach_helperEv   0x0003b148   Section       16  main.o(t._ZN5QListI7QStringE13detach_helperEv)
    t._ZN5QListI7QStringE13node_destructEPNS1_4NodeES3_ 0x0003b158   Section       26  main.o(t._ZN5QListI7QStringE13node_destructEPNS1_4NodeES3_)
    t._ZN5QListI7QStringE14node_constructEPNS1_4NodeERKS0_ 0x0003b172   Section       36  main.o(t._ZN5QListI7QStringE14node_constructEPNS1_4NodeERKS0_)
    t._ZN5QListI7QStringE14node_constructEPNS1_4NodeERKS0_.clean 0x0003b196   Section       14  main.o(t._ZN5QListI7QStringE14node_constructEPNS1_4NodeERKS0_.clean)
    t._ZN5QListI7QStringE18detach_helper_growEii 0x0003b1a4   Section      208  main.o(t._ZN5QListI7QStringE18detach_helper_growEii)
    t._ZN5QListI7QStringE18detach_helper_growEii.clean 0x0003b274   Section       16  main.o(t._ZN5QListI7QStringE18detach_helper_growEii.clean)
    t._ZN5QListI7QStringE4freeEPN9QListData4DataE 0x0003b284   Section       58  main.o(t._ZN5QListI7QStringE4freeEPN9QListData4DataE)
    t._ZN5QListI7QStringE6appendERKS0_       0x0003b2c0   Section      124  main.o(t._ZN5QListI7QStringE6appendERKS0_)
    t._ZN5QListI7QStringE6appendERKS0_.clean 0x0003b33c   Section       14  main.o(t._ZN5QListI7QStringE6appendERKS0_.clean)
    t._ZN5QListI7QStringE9node_copyEPNS1_4NodeES3_S3_ 0x0003b34a   Section       82  main.o(t._ZN5QListI7QStringE9node_copyEPNS1_4NodeES3_S3_)
    t._ZN5QListI7QStringE9node_copyEPNS1_4NodeES3_S3_.clean 0x0003b39c   Section       22  main.o(t._ZN5QListI7QStringE9node_copyEPNS1_4NodeES3_S3_.clean)
    t._ZN5QListI7QStringED1Ev                0x0003b3b2   Section       32  main.o(t._ZN5QListI7QStringED1Ev)
    t._ZN8QPointerI7QObjectED1Ev             0x0003b3d2   Section       14  main.o(t._ZN8QPointerI7QObjectED1Ev)
    .extab.mng_read_pplt                     0x0003b3e0   Data           0  libmng_chunk_io.o(.ARM.extab)
    .extab.process_raw_chunk                 0x0003b3ec   Data           0  libmng_read.o(.ARM.extab)
    .extab._ZN18QMngHandlerPrivate13processHeaderEjj 0x0003b3f8   Data           0  qmnghandler.o(.ARM.extab)
    .extab._ZN18QMngHandlerPrivateD1Ev       0x0003b408   Data           0  qmnghandler.o(.ARM.extab)
    .extab._ZN18QMngHandlerPrivateC1EP11QMngHandler 0x0003b418   Data           0  qmnghandler.o(.ARM.extab)
    .extab._ZN11QMngHandlerC1Ev              0x0003b428   Data           0  qmnghandler.o(.ARM.extab)
    .extab._ZN11QMngHandlerD1Ev              0x0003b440   Data           0  qmnghandler.o(.ARM.extab)
    .extab._ZN11QMngHandler7canReadEP9QIODevice 0x0003b450   Data           0  qmnghandler.o(.ARM.extab)
    .extab._ZNK11QMngHandler7canReadEv       0x0003b460   Data           0  qmnghandler.o(.ARM.extab)
    .extab._ZN18QMngHandlerPrivate10writeImageERK6QImage 0x0003b470   Data           0  qmnghandler.o(.ARM.extab)
    .extab.qt_plugin_instance                0x0003b480   Data           0  main.o(.ARM.extab)
    .extab._ZNK10QMngPlugin4keysEv           0x0003b498   Data           0  main.o(.ARM.extab)
    .extab._ZNK10QMngPlugin6createEP9QIODeviceRK10QByteArray 0x0003b4b8   Data           0  main.o(.ARM.extab)
    .extab._ZN5QListI7QStringE9node_copyEPNS1_4NodeES3_S3_ 0x0003b4c8   Data           0  main.o(.ARM.extab)
    .extab._ZN5QListI7QStringE13detach_helperEi 0x0003b4ec   Data           0  main.o(.ARM.extab)
    .extab._ZN5QListI7QStringE14node_constructEPNS1_4NodeERKS0_ 0x0003b508   Data           0  main.o(.ARM.extab)
    .extab._ZN5QListI7QStringE18detach_helper_growEii 0x0003b518   Data           0  main.o(.ARM.extab)
    .extab._ZN5QListI7QStringE6appendERKS0_  0x0003b548   Data           0  main.o(.ARM.extab)
    .constdata$1                             0x0003b578   Data           0  libmng_chunk_io.o(.constdata)
    .constdata                               0x0003b578   Section      184  libmng_chunk_io.o(.constdata)
    .constdata$1                             0x0003b630   Data           0  libmng_chunk_xs.o(.constdata)
    .constdata                               0x0003b630   Section     1568  libmng_chunk_xs.o(.constdata)
    .constdata$1                             0x0003bc50   Data           0  libmng_error.o(.constdata)
    error_table                              0x0003bc50   Data         696  libmng_error.o(.constdata)
    .constdata                               0x0003bc50   Section      696  libmng_error.o(.constdata)
    .constdata$1                             0x0003bf08   Data           0  libmng_hlapi.o(.constdata)
    func_table                               0x0003bf08   Data        2320  libmng_hlapi.o(.constdata)
    .constdata                               0x0003bf08   Section     2320  libmng_hlapi.o(.constdata)
    .constdata$1                             0x0003c818   Data           0  libmng_pixels.o(.constdata)
    interlace_row                            0x0003c818   Data          28  libmng_pixels.o(.constdata)
    .constdata                               0x0003c818   Section      168  libmng_pixels.o(.constdata)
    interlace_rowskip                        0x0003c834   Data          28  libmng_pixels.o(.constdata)
    interlace_col                            0x0003c850   Data          28  libmng_pixels.o(.constdata)
    interlace_colskip                        0x0003c86c   Data          28  libmng_pixels.o(.constdata)
    interlace_roundoff                       0x0003c888   Data          28  libmng_pixels.o(.constdata)
    interlace_divider                        0x0003c8a4   Data          28  libmng_pixels.o(.constdata)
    .constdata$1                             0x0003c8c0   Data           0  libmng_read.o(.constdata)
    .constdata                               0x0003c8c0   Section     1568  libmng_read.o(.constdata)
    .constdata$1                             0x0003cee0   Data           0  main.o(.constdata)
    qt_plugin_verification_data              0x0003cee0   Data          90  main.o(.constdata)
    .constdata                               0x0003cee0   Section       90  main.o(.constdata)
    .constdata__ZN9stlp_priv15_Integer_limitsIaLan128ELa127ELin1ELb1EE6digitsE 0x0003cf3c   Section        4  qmnghandler.o(.constdata__ZN9stlp_priv15_Integer_limitsIaLan128ELa127ELin1ELb1EE6digitsE)
    .constdata__ZN9stlp_priv15_Integer_limitsIbLb0ELb1ELi1ELb0EE6digitsE 0x0003cf40   Section        4  qmnghandler.o(.constdata__ZN9stlp_priv15_Integer_limitsIbLb0ELb1ELi1ELb0EE6digitsE)
    .constdata__ZN9stlp_priv15_Integer_limitsIcLc128ELc127ELin1ELb1EE6digitsE 0x0003cf44   Section        4  qmnghandler.o(.constdata__ZN9stlp_priv15_Integer_limitsIcLc128ELc127ELin1ELb1EE6digitsE)
    .constdata__ZN9stlp_priv15_Integer_limitsIhLh0ELh255ELin1ELb1EE6digitsE 0x0003cf48   Section        4  qmnghandler.o(.constdata__ZN9stlp_priv15_Integer_limitsIhLh0ELh255ELin1ELb1EE6digitsE)
    .constdata__ZN9stlp_priv15_Integer_limitsIiLin2147483648ELi2147483647ELin1ELb1EE6digitsE 0x0003cf4c   Section        4  qmnghandler.o(.constdata__ZN9stlp_priv15_Integer_limitsIiLin2147483648ELi2147483647ELin1ELb1EE6digitsE)
    .constdata__ZN9stlp_priv15_Integer_limitsIiLin2147483648ELi2147483647ELin1ELb1EE9is_signedE 0x0003cf50   Section        1  qmnghandler.o(.constdata__ZN9stlp_priv15_Integer_limitsIiLin2147483648ELi2147483647ELin1ELb1EE9is_signedE)
    .constdata__ZN9stlp_priv15_Integer_limitsIjLj0ELj4294967295ELin1ELb1EE6digitsE 0x0003cf54   Section        4  qmnghandler.o(.constdata__ZN9stlp_priv15_Integer_limitsIjLj0ELj4294967295ELin1ELb1EE6digitsE)
    .constdata__ZN9stlp_priv15_Integer_limitsIlLln2147483648ELl2147483647ELin1ELb1EE6digitsE 0x0003cf58   Section        4  qmnghandler.o(.constdata__ZN9stlp_priv15_Integer_limitsIlLln2147483648ELl2147483647ELin1ELb1EE6digitsE)
    .constdata__ZN9stlp_priv15_Integer_limitsImLm0ELm4294967295ELin1ELb1EE6digitsE 0x0003cf5c   Section        4  qmnghandler.o(.constdata__ZN9stlp_priv15_Integer_limitsImLm0ELm4294967295ELin1ELb1EE6digitsE)
    .constdata__ZN9stlp_priv15_Integer_limitsIsLsn32768ELs32767ELin1ELb1EE6digitsE 0x0003cf60   Section        4  qmnghandler.o(.constdata__ZN9stlp_priv15_Integer_limitsIsLsn32768ELs32767ELin1ELb1EE6digitsE)
    .constdata__ZN9stlp_priv15_Integer_limitsItLt0ELt65535ELin1ELb1EE6digitsE 0x0003cf64   Section        4  qmnghandler.o(.constdata__ZN9stlp_priv15_Integer_limitsItLt0ELt65535ELin1ELb1EE6digitsE)
    .constdata__ZN9stlp_priv15_Integer_limitsIwLw0ELw65535ELin1ELb1EE6digitsE 0x0003cf68   Section        4  qmnghandler.o(.constdata__ZN9stlp_priv15_Integer_limitsIwLw0ELw65535ELin1ELb1EE6digitsE)
    .constdata__ZN9stlp_priv15_Integer_limitsIxLxn9223372036854775808ELx9223372036854775807ELin1ELb1EE6digitsE 0x0003cf6c   Section        4  qmnghandler.o(.constdata__ZN9stlp_priv15_Integer_limitsIxLxn9223372036854775808ELx9223372036854775807ELin1ELb1EE6digitsE)
    .constdata__ZN9stlp_priv15_Integer_limitsIyLy0ELy18446744073709551615ELin1ELb1EE6digitsE 0x0003cf70   Section        4  qmnghandler.o(.constdata__ZN9stlp_priv15_Integer_limitsIyLy0ELy18446744073709551615ELin1ELb1EE6digitsE)
    .constdata__ZTI10QMngPlugin              0x0003cf74   Section       12  main.o(.constdata__ZTI10QMngPlugin)
    .constdata__ZTI11QMngHandler             0x0003cf80   Section       12  qmnghandler.o(.constdata__ZTI11QMngHandler)
    .constdata__ZTS10QMngPlugin              0x0003cf8c   Section       13  main.o(.constdata__ZTS10QMngPlugin)
    .constdata__ZTS11QMngHandler             0x0003cf99   Section       14  qmnghandler.o(.constdata__ZTS11QMngHandler)
    .constdata__ZTV10QMngPlugin              0x0003cfa8   Section       92  main.o(.constdata__ZTV10QMngPlugin)
    .constdata__ZTV11QMngHandler             0x0003d004   Section       72  qmnghandler.o(.constdata__ZTV11QMngHandler)
    .conststring$3                           0x0003d04c   Data           0  libmng_error.o(.conststring)
    .conststring                             0x0003d04c   Section     2670  libmng_error.o(.conststring)
    .conststring$3                           0x0003daba   Data           0  libmng_hlapi.o(.conststring)
    .conststring                             0x0003daba   Section     5619  libmng_hlapi.o(.conststring)
    .ARM.exidx                               0x0003f0b0   Section        8  ucppinit.o(.ARM.exidx)
    .data$0                                  0x00400000   Data           0  main.o(.data)
    _ZGV_instance@qt_plugin_instance_0       0x00400000   Data           4  main.o(.data)
    .data                                    0x00400000   Section        8  main.o(.data)
    _instance@qt_plugin_instance_1           0x00400004   Data           4  main.o(.data)
    .data$0                                  0x00400008   Data           0  ucppfini.o(.data)
    .data                                    0x00400008   Section        4  ucppfini.o(.data)
    .data__ZNSt19_Atomic_swap_structILi1EE12_S_swap_lockE 0x0040000c   Section       12  qmnghandler.o(.data__ZNSt19_Atomic_swap_structILi1EE12_S_swap_lockE)
    .bss$5                                   0x00400018   Data           0  ucppfini.o(.bss)
    .bss                                     0x00400018   Section     2048  ucppfini.o(.bss)

    Global Symbols

    Symbol Name                              Value     Ov Type        Size  Object(Section)

    BuildAttributes$$THUMB_ISAv2$ARM_ISAv5$M$VFPv2$PE$A:L22$X:L11$S22$IEEE1$IW$USESV6$~STKCKD$USESV7$~SHL$OSPACE$ROPI$IEEEJ$EBA8$UX$FPIC$INDIRECT$REQ8$PRES8$EABIv2 0x00000000   Number         0  anon$$obj.o ABSOLUTE
    QtCore{00040703}[2001b2dc].dll           0x00000000   Data           0  anon$$obj.o ABSOLUTE
    QtGui{00040703}[2001b2dd].dll            0x00000000   Data           0  anon$$obj.o ABSOLUTE
    dfpaeabi{000a0000}.dll                   0x00000000   Data           0  anon$$obj.o ABSOLUTE
    drtaeabi{000a0000}.dll                   0x00000000   Data           0  anon$$obj.o ABSOLUTE
    euser{000a0000}[100039e5].dll            0x00000000   Data           0  anon$$obj.o ABSOLUTE
    libc{00010001}[10207369].dll             0x00000000   Data           0  anon$$obj.o ABSOLUTE
    libm{00010001}[102750d2].dll             0x00000000   Data           0  anon$$obj.o ABSOLUTE
    qmng{00040703}[2001e619].dll             0x00000000   Data           0  anon$$obj.o ABSOLUTE
    stdnew{000a0000}[20022178].dll           0x00000000   Data           0  anon$$obj.o ABSOLUTE
    SHT$$INIT_ARRAY$$Base                     - Undefined Weak Reference
    SHT$$INIT_ARRAY$$Limit                    - Undefined Weak Reference
    qFree(void*)                              - Undefined Reference
    _Z5qFreePv@QtCore{00040703}[2001b2dc].dll  - Undefined Reference
    qDebug(const char*, ...)                  - Undefined Reference
    _Z6qDebugPKcz@QtCore{00040703}[2001b2dc].dll  - Undefined Reference
    qstrcmp(const QByteArray&, const char*)   - Undefined Reference
    _Z7qstrcmpRK10QByteArrayPKc@QtCore{00040703}[2001b2dc].dll  - Undefined Reference
    qWarning(const char*, ...)                - Undefined Reference
    _Z8qWarningPKcz@QtCore{00040703}[2001b2dc].dll  - Undefined Reference
    qt_assert(const char*, const char*, int)  - Undefined Reference
    _Z9qt_assertPKcS0_i@QtCore{00040703}[2001b2dc].dll  - Undefined Reference
    QByteArray::QByteArray(const char*)       - Undefined Reference
    _ZN10QByteArrayC1EPKc@QtCore{00040703}[2001b2dc].dll  - Undefined Reference
    QMetaObject::changeGuard(QObject**, QObject*)  - Undefined Reference
    _ZN11QMetaObject11changeGuardEPP7QObjectS1_@QtCore{00040703}[2001b2dc].dll  - Undefined Reference
    QMetaObject::removeGuard(QObject**)       - Undefined Reference
    _ZN11QMetaObject11removeGuardEPP7QObject@QtCore{00040703}[2001b2dc].dll  - Undefined Reference
    QImageIOPlugin::qt_metacall(QMetaObject::Call, int, void**)  - Undefined Reference
    _ZN14QImageIOPlugin11qt_metacallEN11QMetaObject4CallEiPPv@QtGui{00040703}[2001b2dd].dll  - Undefined Reference
    QImageIOPlugin::qt_metacast(const char*)  - Undefined Reference
    _ZN14QImageIOPlugin11qt_metacastEPKc@QtGui{00040703}[2001b2dd].dll  - Undefined Reference
    QImageIOPlugin::QImageIOPlugin__sub_object(QObject*)  - Undefined Reference
    _ZN14QImageIOPluginC2EP7QObject@QtGui{00040703}[2001b2dd].dll  - Undefined Reference
    QImageIOPlugin::~QImageIOPlugin__sub_object()  - Undefined Reference
    _ZN14QImageIOPluginD2Ev@QtGui{00040703}[2001b2dd].dll  - Undefined Reference
    QImageIOHandler::setDevice(QIODevice*)    - Undefined Reference
    _ZN15QImageIOHandler9setDeviceEP9QIODevice@QtGui{00040703}[2001b2dd].dll  - Undefined Reference
    QImageIOHandler::setFormat(const QByteArray&)  - Undefined Reference
    _ZN15QImageIOHandler9setFormatERK10QByteArray@QtGui{00040703}[2001b2dd].dll  - Undefined Reference
    QImageIOHandler::QImageIOHandler__sub_object()  - Undefined Reference
    _ZN15QImageIOHandlerC2Ev@QtGui{00040703}[2001b2dd].dll  - Undefined Reference
    QImageIOHandler::~QImageIOHandler__sub_object()  - Undefined Reference
    _ZN15QImageIOHandlerD2Ev@QtGui{00040703}[2001b2dd].dll  - Undefined Reference
    User::LockedDec(int&)                     - Undefined Reference
    _ZN4User9LockedDecERi@euser{000a0000}[100039e5].dll  - Undefined Reference
    User::LockedInc(int&)                     - Undefined Reference
    _ZN4User9LockedIncERi@euser{000a0000}[100039e5].dll  - Undefined Reference
    QColor::invalidate()                      - Undefined Reference
    _ZN6QColor10invalidateEv@QtGui{00040703}[2001b2dd].dll  - Undefined Reference
    QColor::setRgb(int, int, int, int)        - Undefined Reference
    _ZN6QColor6setRgbEiiii@QtGui{00040703}[2001b2dd].dll  - Undefined Reference
    QImage::fill(unsigned)                    - Undefined Reference
    _ZN6QImage4fillEj@QtGui{00040703}[2001b2dd].dll  - Undefined Reference
    QImage::scanLine(int)                     - Undefined Reference
    _ZN6QImage8scanLineEi@QtGui{00040703}[2001b2dd].dll  - Undefined Reference
    QImage::QImage(int, int, QImage::Format)  - Undefined Reference
    _ZN6QImageC1EiiNS_6FormatE@QtGui{00040703}[2001b2dd].dll  - Undefined Reference
    QImage::QImage()                          - Undefined Reference
    _ZN6QImageC1Ev@QtGui{00040703}[2001b2dd].dll  - Undefined Reference
    QImage::~QImage()                         - Undefined Reference
    _ZN6QImageD1Ev@QtGui{00040703}[2001b2dd].dll  - Undefined Reference
    QImage::operator =(const QImage&)         - Undefined Reference
    _ZN6QImageaSERKS_@QtGui{00040703}[2001b2dd].dll  - Undefined Reference
    QObject::childEvent(QChildEvent*)         - Undefined Reference
    _ZN7QObject10childEventEP11QChildEvent@QtCore{00040703}[2001b2dc].dll  - Undefined Reference
    QObject::timerEvent(QTimerEvent*)         - Undefined Reference
    _ZN7QObject10timerEventEP11QTimerEvent@QtCore{00040703}[2001b2dc].dll  - Undefined Reference
    QObject::customEvent(QEvent*)             - Undefined Reference
    _ZN7QObject11customEventEP6QEvent@QtCore{00040703}[2001b2dc].dll  - Undefined Reference
    QObject::eventFilter(QObject*, QEvent*)   - Undefined Reference
    _ZN7QObject11eventFilterEPS_P6QEvent@QtCore{00040703}[2001b2dc].dll  - Undefined Reference
    QObject::connectNotify(const char*)       - Undefined Reference
    _ZN7QObject13connectNotifyEPKc@QtCore{00040703}[2001b2dc].dll  - Undefined Reference
    QObject::disconnectNotify(const char*)    - Undefined Reference
    _ZN7QObject16disconnectNotifyEPKc@QtCore{00040703}[2001b2dc].dll  - Undefined Reference
    QObject::event(QEvent*)                   - Undefined Reference
    _ZN7QObject5eventEP6QEvent@QtCore{00040703}[2001b2dc].dll  - Undefined Reference
    QString::fromLatin1_helper(const char*, int)  - Undefined Reference
    _ZN7QString17fromLatin1_helperEPKci@QtCore{00040703}[2001b2dc].dll  - Undefined Reference
    QString::free(QString::Data*)             - Undefined Reference
    _ZN7QString4freeEPNS_4DataE@QtCore{00040703}[2001b2dc].dll  - Undefined Reference
    QVariant::handler                         - Undefined Reference
    _ZN8QVariant7handlerE@QtCore{00040703}[2001b2dc].dll  - Undefined Reference
    QVariant::QVariant(bool)                  - Undefined Reference
    _ZN8QVariantC1Eb@QtCore{00040703}[2001b2dc].dll  - Undefined Reference
    QIODevice::peek(long long)                - Undefined Reference
    _ZN9QIODevice4peekEx@QtCore{00040703}[2001b2dc].dll  - Undefined Reference
    QIODevice::read(char*, long long)         - Undefined Reference
    _ZN9QIODevice4readEPcx@QtCore{00040703}[2001b2dc].dll  - Undefined Reference
    QIODevice::write(const char*, long long)  - Undefined Reference
    _ZN9QIODevice5writeEPKcx@QtCore{00040703}[2001b2dc].dll  - Undefined Reference
    QListData::detach_grow(int*, int)         - Undefined Reference
    _ZN9QListData11detach_growEPii@QtCore{00040703}[2001b2dc].dll  - Undefined Reference
    QListData::shared_null                    - Undefined Reference
    _ZN9QListData11shared_nullE@QtCore{00040703}[2001b2dc].dll  - Undefined Reference
    QListData::append()                       - Undefined Reference
    _ZN9QListData6appendEv@QtCore{00040703}[2001b2dc].dll  - Undefined Reference
    QListData::detach(int)                    - Undefined Reference
    _ZN9QListData6detachEi@QtCore{00040703}[2001b2dc].dll  - Undefined Reference
    QImageIOPlugin::metaObject() const        - Undefined Reference
    _ZNK14QImageIOPlugin10metaObjectEv@QtGui{00040703}[2001b2dd].dll  - Undefined Reference
    QImageIOHandler::currentImageRect() const  - Undefined Reference
    _ZNK15QImageIOHandler16currentImageRectEv@QtGui{00040703}[2001b2dd].dll  - Undefined Reference
    QImageIOHandler::device() const           - Undefined Reference
    _ZNK15QImageIOHandler6deviceEv@QtGui{00040703}[2001b2dd].dll  - Undefined Reference
    QImageIOHandler::setFormat(const QByteArray&) const  - Undefined Reference
    _ZNK15QImageIOHandler9setFormatERK10QByteArray@QtGui{00040703}[2001b2dd].dll  - Undefined Reference
    QColor::red() const                       - Undefined Reference
    _ZNK6QColor3redEv@QtGui{00040703}[2001b2dd].dll  - Undefined Reference
    QColor::blue() const                      - Undefined Reference
    _ZNK6QColor4blueEv@QtGui{00040703}[2001b2dd].dll  - Undefined Reference
    QColor::green() const                     - Undefined Reference
    _ZNK6QColor5greenEv@QtGui{00040703}[2001b2dd].dll  - Undefined Reference
    QColor::operator QVariant() const         - Undefined Reference
    _ZNK6QColorcv8QVariantEv@QtGui{00040703}[2001b2dd].dll  - Undefined Reference
    QImage::convertToFormat(QImage::Format, QFlags<Qt::ImageConversionFlag>) const  - Undefined Reference
    _ZNK6QImage15convertToFormatENS_6FormatE6QFlagsIN2Qt19ImageConversionFlagEE@QtGui{00040703}[2001b2dd].dll  - Undefined Reference
    QImage::width() const                     - Undefined Reference
    _ZNK6QImage5widthEv@QtGui{00040703}[2001b2dd].dll  - Undefined Reference
    QImage::height() const                    - Undefined Reference
    _ZNK6QImage6heightEv@QtGui{00040703}[2001b2dd].dll  - Undefined Reference
    QVariant::userType() const                - Undefined Reference
    _ZNK8QVariant8userTypeEv@QtCore{00040703}[2001b2dc].dll  - Undefined Reference
    QVariant::constData() const               - Undefined Reference
    _ZNK8QVariant9constDataEv@QtCore{00040703}[2001b2dc].dll  - Undefined Reference
    QIODevice::isReadable() const             - Undefined Reference
    _ZNK9QIODevice10isReadableEv@QtCore{00040703}[2001b2dc].dll  - Undefined Reference
    QIODevice::isOpen() const                 - Undefined Reference
    _ZNK9QIODevice6isOpenEv@QtCore{00040703}[2001b2dc].dll  - Undefined Reference
    typeinfo for QImageIOPlugin               - Undefined Reference
    _ZTI14QImageIOPlugin@QtGui{00040703}[2001b2dd].dll  - Undefined Reference
    typeinfo for QImageIOHandler              - Undefined Reference
    _ZTI15QImageIOHandler@QtGui{00040703}[2001b2dd].dll  - Undefined Reference
    vtable for __cxxabiv1::__si_class_type_info  - Undefined Reference
    _ZTVN10__cxxabiv120__si_class_type_infoE@drtaeabi{000a0000}.dll  - Undefined Reference
    operator delete (void*)                   - Undefined Reference
    _ZdlPv@stdnew{000a0000}[20022178].dll     - Undefined Reference
    operator new(unsigned)                    - Undefined Reference
    _Znwj@stdnew{000a0000}[20022178].dll      - Undefined Reference
    __aeabi_cdcmpeq                           - Undefined Reference
    __aeabi_cdcmpeq@dfpaeabi{000a0000}.dll    - Undefined Reference
    __aeabi_cdrcmple                          - Undefined Reference
    __aeabi_cdrcmple@dfpaeabi{000a0000}.dll   - Undefined Reference
    __aeabi_d2uiz                             - Undefined Reference
    __aeabi_d2uiz@dfpaeabi{000a0000}.dll      - Undefined Reference
    __aeabi_dadd                              - Undefined Reference
    __aeabi_dadd@dfpaeabi{000a0000}.dll       - Undefined Reference
    __aeabi_ddiv                              - Undefined Reference
    __aeabi_ddiv@dfpaeabi{000a0000}.dll       - Undefined Reference
    __aeabi_dmul                              - Undefined Reference
    __aeabi_dmul@dfpaeabi{000a0000}.dll       - Undefined Reference
    __aeabi_i2d                               - Undefined Reference
    __aeabi_i2d@dfpaeabi{000a0000}.dll        - Undefined Reference
    __aeabi_idivmod                           - Undefined Reference
    __aeabi_idivmod@drtaeabi{000a0000}.dll    - Undefined Reference
    __aeabi_memcpy                            - Undefined Reference
    __aeabi_memcpy4                           - Undefined Reference
    __aeabi_memcpy4@drtaeabi{000a0000}.dll    - Undefined Reference
    __aeabi_memcpy@drtaeabi{000a0000}.dll     - Undefined Reference
    __aeabi_ui2d                              - Undefined Reference
    __aeabi_ui2d@dfpaeabi{000a0000}.dll       - Undefined Reference
    __aeabi_uidivmod                          - Undefined Reference
    __aeabi_uidivmod@drtaeabi{000a0000}.dll   - Undefined Reference
    __aeabi_unwind_cpp_pr0                    - Undefined Reference
    __aeabi_unwind_cpp_pr0@drtaeabi{000a0000}.dll  - Undefined Reference
    __aeabi_unwind_cpp_pr1                    - Undefined Reference
    __aeabi_unwind_cpp_pr1@drtaeabi{000a0000}.dll  - Undefined Reference
    __cxa_begin_catch                         - Undefined Reference
    __cxa_begin_catch@drtaeabi{000a0000}.dll  - Undefined Reference
    __cxa_end_catch                           - Undefined Reference
    __cxa_end_catch@drtaeabi{000a0000}.dll    - Undefined Reference
    __cxa_end_cleanup                         - Undefined Reference
    __cxa_end_cleanup@drtaeabi{000a0000}.dll  - Undefined Reference
    __cxa_guard_abort                         - Undefined Reference
    __cxa_guard_abort@drtaeabi{000a0000}.dll  - Undefined Reference
    __cxa_guard_acquire                       - Undefined Reference
    __cxa_guard_acquire@drtaeabi{000a0000}.dll  - Undefined Reference
    __cxa_guard_release                       - Undefined Reference
    __cxa_guard_release@drtaeabi{000a0000}.dll  - Undefined Reference
    __cxa_rethrow                             - Undefined Reference
    __cxa_rethrow@drtaeabi{000a0000}.dll      - Undefined Reference
    calloc                                    - Undefined Reference
    calloc@libc{00010001}[10207369].dll       - Undefined Reference
    deflate                                   - Undefined Reference
    deflate@QtCore{00040703}[2001b2dc].dll    - Undefined Reference
    deflateEnd                                - Undefined Reference
    deflateEnd@QtCore{00040703}[2001b2dc].dll  - Undefined Reference
    deflateInit2_                             - Undefined Reference
    deflateInit2_@QtCore{00040703}[2001b2dc].dll  - Undefined Reference
    free                                      - Undefined Reference
    free@libc{00010001}[10207369].dll         - Undefined Reference
    inflate                                   - Undefined Reference
    inflate@QtCore{00040703}[2001b2dc].dll    - Undefined Reference
    inflateEnd                                - Undefined Reference
    inflateEnd@QtCore{00040703}[2001b2dc].dll  - Undefined Reference
    inflateInit_                              - Undefined Reference
    inflateInit_@QtCore{00040703}[2001b2dc].dll  - Undefined Reference
    pow                                       - Undefined Reference
    pow@libm{00010001}[102750d2].dll          - Undefined Reference
    strcmp                                    - Undefined Reference
    strcmp@libc{00010001}[10207369].dll       - Undefined Reference
    strncmp                                   - Undefined Reference
    strncmp@libc{00010001}[10207369].dll      - Undefined Reference
    Image$$ER_RO$$Base                       0x00008000   Number         0  anon$$obj.o(linker$$defined$$symbols)
    _E32Dll                                  0x00008000   ARM Code      40  uc_dll_.o(.emb_text)
    Symbian$$CPP$$Exception$$Descriptor      0x00008014   Data           0  uc_dll_.o(.emb_text)
    __cpp_initialize__aeabi_                 0x00008028   ARM Code      52  ucppinit.o(.emb_text)
    std::nothrow                             0x0000805c   ARM Code       0  ucppinit.o(.emb_text)
    __PLT                                    0x0000805c   ARM Code       0  anon$$obj.o(.plt)
    mng_setcb_memalloc                       0x000082cd   Thumb Code    28  libmng_callback_xs.o(.text)
    mng_setcb_memfree                        0x000082e9   Thumb Code    28  libmng_callback_xs.o(.text)
    mng_setcb_releasedata                    0x00008305   Thumb Code    28  libmng_callback_xs.o(.text)
    mng_setcb_openstream                     0x00008321   Thumb Code    28  libmng_callback_xs.o(.text)
    mng_setcb_closestream                    0x0000833d   Thumb Code    28  libmng_callback_xs.o(.text)
    mng_setcb_readdata                       0x00008359   Thumb Code    28  libmng_callback_xs.o(.text)
    mng_setcb_writedata                      0x00008375   Thumb Code    28  libmng_callback_xs.o(.text)
    mng_setcb_errorproc                      0x00008391   Thumb Code    28  libmng_callback_xs.o(.text)
    mng_setcb_processheader                  0x000083ad   Thumb Code    28  libmng_callback_xs.o(.text)
    mng_setcb_processtext                    0x000083c9   Thumb Code    28  libmng_callback_xs.o(.text)
    mng_setcb_processsave                    0x000083e5   Thumb Code    28  libmng_callback_xs.o(.text)
    mng_setcb_processseek                    0x00008401   Thumb Code    28  libmng_callback_xs.o(.text)
    mng_setcb_processneed                    0x0000841d   Thumb Code    28  libmng_callback_xs.o(.text)
    mng_setcb_processmend                    0x00008439   Thumb Code    28  libmng_callback_xs.o(.text)
    mng_setcb_processunknown                 0x00008455   Thumb Code    28  libmng_callback_xs.o(.text)
    mng_setcb_processterm                    0x00008471   Thumb Code    28  libmng_callback_xs.o(.text)
    mng_setcb_getcanvasline                  0x0000848d   Thumb Code    28  libmng_callback_xs.o(.text)
    mng_setcb_getbkgdline                    0x000084a9   Thumb Code    28  libmng_callback_xs.o(.text)
    mng_setcb_getalphaline                   0x000084c5   Thumb Code    28  libmng_callback_xs.o(.text)
    mng_setcb_refresh                        0x000084e1   Thumb Code    28  libmng_callback_xs.o(.text)
    mng_setcb_gettickcount                   0x000084fd   Thumb Code    28  libmng_callback_xs.o(.text)
    mng_setcb_settimer                       0x00008519   Thumb Code    28  libmng_callback_xs.o(.text)
    mng_getcb_memalloc                       0x00008535   Thumb Code    26  libmng_callback_xs.o(.text)
    mng_getcb_memfree                        0x0000854f   Thumb Code    26  libmng_callback_xs.o(.text)
    mng_getcb_releasedata                    0x00008569   Thumb Code    26  libmng_callback_xs.o(.text)
    mng_getcb_readdata                       0x00008583   Thumb Code    26  libmng_callback_xs.o(.text)
    mng_getcb_openstream                     0x0000859d   Thumb Code    26  libmng_callback_xs.o(.text)
    mng_getcb_closestream                    0x000085b7   Thumb Code    26  libmng_callback_xs.o(.text)
    mng_getcb_writedata                      0x000085d1   Thumb Code    26  libmng_callback_xs.o(.text)
    mng_getcb_errorproc                      0x000085eb   Thumb Code    26  libmng_callback_xs.o(.text)
    mng_getcb_processheader                  0x00008605   Thumb Code    26  libmng_callback_xs.o(.text)
    mng_getcb_processtext                    0x0000861f   Thumb Code    26  libmng_callback_xs.o(.text)
    mng_getcb_processsave                    0x00008639   Thumb Code    26  libmng_callback_xs.o(.text)
    mng_getcb_processseek                    0x00008653   Thumb Code    26  libmng_callback_xs.o(.text)
    mng_getcb_processneed                    0x0000866d   Thumb Code    32  libmng_callback_xs.o(.text)
    mng_getcb_processmend                    0x0000868d   Thumb Code    26  libmng_callback_xs.o(.text)
    mng_getcb_processunknown                 0x000086a7   Thumb Code    26  libmng_callback_xs.o(.text)
    mng_getcb_processterm                    0x000086c1   Thumb Code    26  libmng_callback_xs.o(.text)
    mng_getcb_getcanvasline                  0x000086db   Thumb Code    26  libmng_callback_xs.o(.text)
    mng_getcb_getbkgdline                    0x000086f5   Thumb Code    26  libmng_callback_xs.o(.text)
    mng_getcb_getalphaline                   0x0000870f   Thumb Code    26  libmng_callback_xs.o(.text)
    mng_getcb_refresh                        0x00008729   Thumb Code    26  libmng_callback_xs.o(.text)
    mng_getcb_gettickcount                   0x00008743   Thumb Code    26  libmng_callback_xs.o(.text)
    mng_getcb_settimer                       0x0000875d   Thumb Code    26  libmng_callback_xs.o(.text)
    mng_crc                                  0x000087fd   Thumb Code    30  libmng_chunk_io.o(.text)
    mng_get_uint32                           0x0000881b   Thumb Code    24  libmng_chunk_io.o(.text)
    mng_get_int32                            0x00008833   Thumb Code    24  libmng_chunk_io.o(.text)
    mng_get_uint16                           0x0000884b   Thumb Code    16  libmng_chunk_io.o(.text)
    mng_put_uint32                           0x0000885b   Thumb Code    20  libmng_chunk_io.o(.text)
    mng_put_int32                            0x0000886f   Thumb Code    20  libmng_chunk_io.o(.text)
    mng_put_uint16                           0x00008883   Thumb Code     8  libmng_chunk_io.o(.text)
    mng_inflate_buffer                       0x0000889b   Thumb Code   230  libmng_chunk_io.o(.text)
    mng_read_ihdr                            0x00008cab   Thumb Code  1148  libmng_chunk_io.o(.text)
    mng_read_plte                            0x00009127   Thumb Code  1130  libmng_chunk_io.o(.text)
    mng_read_idat                            0x00009591   Thumb Code   358  libmng_chunk_io.o(.text)
    mng_read_iend                            0x000096f7   Thumb Code   322  libmng_chunk_io.o(.text)
    mng_read_trns                            0x00009839   Thumb Code  1534  libmng_chunk_io.o(.text)
    mng_read_gama                            0x00009e37   Thumb Code   542  libmng_chunk_io.o(.text)
    mng_read_chrm                            0x0000a055   Thumb Code   942  libmng_chunk_io.o(.text)
    mng_read_srgb                            0x0000a403   Thumb Code   528  libmng_chunk_io.o(.text)
    mng_read_iccp                            0x0000a613   Thumb Code  1452  libmng_chunk_io.o(.text)
    mng_read_text                            0x0000abbf   Thumb Code   572  libmng_chunk_io.o(.text)
    mng_read_ztxt                            0x0000adfb   Thumb Code   820  libmng_chunk_io.o(.text)
    mng_read_itxt                            0x0000b12f   Thumb Code  1562  libmng_chunk_io.o(.text)
    mng_read_bkgd                            0x0000b749   Thumb Code   816  libmng_chunk_io.o(.text)
    mng_read_phys                            0x0000ba79   Thumb Code   228  libmng_chunk_io.o(.text)
    mng_read_sbit                            0x0000bb5d   Thumb Code   530  libmng_chunk_io.o(.text)
    mng_read_splt                            0x0000bd6f   Thumb Code   494  libmng_chunk_io.o(.text)
    mng_read_hist                            0x0000bf5d   Thumb Code   222  libmng_chunk_io.o(.text)
    mng_read_time                            0x0000c03b   Thumb Code   188  libmng_chunk_io.o(.text)
    mng_read_mhdr                            0x0000c0f7   Thumb Code   542  libmng_chunk_io.o(.text)
    mng_read_mend                            0x0000c315   Thumb Code   222  libmng_chunk_io.o(.text)
    mng_read_loop                            0x0000c3f3   Thumb Code   644  libmng_chunk_io.o(.text)
    mng_read_endl                            0x0000c677   Thumb Code   216  libmng_chunk_io.o(.text)
    mng_read_defi                            0x0000c74f   Thumb Code   730  libmng_chunk_io.o(.text)
    mng_read_basi                            0x0000ca29   Thumb Code   934  libmng_chunk_io.o(.text)
    mng_read_clon                            0x0000cdcf   Thumb Code   478  libmng_chunk_io.o(.text)
    mng_read_past                            0x0000cfad   Thumb Code   556  libmng_chunk_io.o(.text)
    mng_read_disc                            0x0000d1d9   Thumb Code   354  libmng_chunk_io.o(.text)
    mng_read_back                            0x0000d33b   Thumb Code   448  libmng_chunk_io.o(.text)
    mng_read_fram                            0x0000d4fb   Thumb Code  1152  libmng_chunk_io.o(.text)
    mng_read_move                            0x0000d97b   Thumb Code   278  libmng_chunk_io.o(.text)
    mng_read_clip                            0x0000da91   Thumb Code   316  libmng_chunk_io.o(.text)
    mng_read_show                            0x0000dbcd   Thumb Code   412  libmng_chunk_io.o(.text)
    mng_read_term                            0x0000dd69   Thumb Code   454  libmng_chunk_io.o(.text)
    mng_read_save                            0x0000df2f   Thumb Code   800  libmng_chunk_io.o(.text)
    mng_read_seek                            0x0000e24f   Thumb Code   362  libmng_chunk_io.o(.text)
    mng_read_expi                            0x0000e3b9   Thumb Code   232  libmng_chunk_io.o(.text)
    mng_read_fpri                            0x0000e4a1   Thumb Code   170  libmng_chunk_io.o(.text)
    mng_read_need                            0x0000e709   Thumb Code   378  libmng_chunk_io.o(.text)
    mng_read_phyg                            0x0000e883   Thumb Code   218  libmng_chunk_io.o(.text)
    mng_read_dhdr                            0x0000e95d   Thumb Code   528  libmng_chunk_io.o(.text)
    mng_read_prom                            0x0000eb6d   Thumb Code   280  libmng_chunk_io.o(.text)
    mng_read_ipng                            0x0000ec85   Thumb Code   144  libmng_chunk_io.o(.text)
    mng_read_pplt                            0x0000ed15   Thumb Code  1012  libmng_chunk_io.o(.text)
    mng_read_drop                            0x0000f109   Thumb Code   206  libmng_chunk_io.o(.text)
    mng_read_dbyk                            0x0000f1d7   Thumb Code   196  libmng_chunk_io.o(.text)
    mng_read_ordr                            0x0000f29b   Thumb Code   222  libmng_chunk_io.o(.text)
    mng_read_magn                            0x0000f379   Thumb Code   872  libmng_chunk_io.o(.text)
    mng_read_evnt                            0x0000f6e1   Thumb Code  1500  libmng_chunk_io.o(.text)
    mng_read_unknown                         0x0000fcbd   Thumb Code   294  libmng_chunk_io.o(.text)
    mng_write_ihdr                           0x0000fde3   Thumb Code    84  libmng_chunk_io.o(.text)
    mng_write_plte                           0x0000fe37   Thumb Code   142  libmng_chunk_io.o(.text)
    mng_write_idat                           0x0000fec5   Thumb Code    50  libmng_chunk_io.o(.text)
    mng_write_iend                           0x0000fef7   Thumb Code    28  libmng_chunk_io.o(.text)
    mng_write_trns                           0x0000ff13   Thumb Code   232  libmng_chunk_io.o(.text)
    mng_write_gama                           0x0000fffb   Thumb Code    70  libmng_chunk_io.o(.text)
    mng_write_chrm                           0x00010041   Thumb Code   138  libmng_chunk_io.o(.text)
    mng_write_srgb                           0x000100cb   Thumb Code    68  libmng_chunk_io.o(.text)
    mng_write_iccp                           0x0001010f   Thumb Code   260  libmng_chunk_io.o(.text)
    mng_write_text                           0x00010213   Thumb Code   160  libmng_chunk_io.o(.text)
    mng_write_ztxt                           0x000102b3   Thumb Code   228  libmng_chunk_io.o(.text)
    mng_write_itxt                           0x00010397   Thumb Code   394  libmng_chunk_io.o(.text)
    mng_write_bkgd                           0x00010521   Thumb Code   132  libmng_chunk_io.o(.text)
    mng_write_phys                           0x000105a5   Thumb Code    84  libmng_chunk_io.o(.text)
    mng_write_sbit                           0x000105f9   Thumb Code   266  libmng_chunk_io.o(.text)
    mng_write_splt                           0x00010703   Thumb Code   204  libmng_chunk_io.o(.text)
    mng_write_hist                           0x000107cf   Thumb Code    80  libmng_chunk_io.o(.text)
    mng_write_time                           0x0001081f   Thumb Code    76  libmng_chunk_io.o(.text)
    mng_write_mhdr                           0x0001086b   Thumb Code   104  libmng_chunk_io.o(.text)
    mng_write_mend                           0x000108d3   Thumb Code    28  libmng_chunk_io.o(.text)
    mng_write_loop                           0x000108ef   Thumb Code   192  libmng_chunk_io.o(.text)
    mng_write_endl                           0x000109af   Thumb Code    44  libmng_chunk_io.o(.text)
    mng_write_defi                           0x000109db   Thumb Code   208  libmng_chunk_io.o(.text)
    mng_write_basi                           0x00010aab   Thumb Code   230  libmng_chunk_io.o(.text)
    mng_write_clon                           0x00010b91   Thumb Code   192  libmng_chunk_io.o(.text)
    mng_write_past                           0x00010c51   Thumb Code   294  libmng_chunk_io.o(.text)
    mng_write_disc                           0x00010d77   Thumb Code    80  libmng_chunk_io.o(.text)
    mng_write_back                           0x00010dc7   Thumb Code   140  libmng_chunk_io.o(.text)
    mng_write_fram                           0x00010e53   Thumb Code   440  libmng_chunk_io.o(.text)
    mng_write_move                           0x0001100b   Thumb Code    78  libmng_chunk_io.o(.text)
    mng_write_clip                           0x00011059   Thumb Code    98  libmng_chunk_io.o(.text)
    mng_write_show                           0x000110bb   Thumb Code   112  libmng_chunk_io.o(.text)
    mng_write_term                           0x0001112b   Thumb Code    78  libmng_chunk_io.o(.text)
    mng_write_save                           0x00011179   Thumb Code   282  libmng_chunk_io.o(.text)
    mng_write_seek                           0x00011293   Thumb Code    56  libmng_chunk_io.o(.text)
    mng_write_expi                           0x000112cb   Thumb Code    72  libmng_chunk_io.o(.text)
    mng_write_fpri                           0x00011313   Thumb Code    50  libmng_chunk_io.o(.text)
    mng_write_need                           0x00011345   Thumb Code    60  libmng_chunk_io.o(.text)
    mng_write_phyg                           0x00011381   Thumb Code    84  libmng_chunk_io.o(.text)
    mng_write_dhdr                           0x000113d5   Thumb Code   120  libmng_chunk_io.o(.text)
    mng_write_prom                           0x0001144d   Thumb Code    56  libmng_chunk_io.o(.text)
    mng_write_ipng                           0x00011485   Thumb Code    28  libmng_chunk_io.o(.text)
    mng_write_pplt                           0x000114a1   Thumb Code   246  libmng_chunk_io.o(.text)
    mng_write_drop                           0x00011597   Thumb Code    80  libmng_chunk_io.o(.text)
    mng_write_dbyk                           0x000115e7   Thumb Code    78  libmng_chunk_io.o(.text)
    mng_write_ordr                           0x00011635   Thumb Code    86  libmng_chunk_io.o(.text)
    mng_write_magn                           0x0001168b   Thumb Code   240  libmng_chunk_io.o(.text)
    mng_write_evnt                           0x0001177b   Thumb Code   370  libmng_chunk_io.o(.text)
    mng_write_unknown                        0x000118ed   Thumb Code    28  libmng_chunk_io.o(.text)
    mng_add_chunk                            0x00011909   Thumb Code    82  libmng_chunk_prc.o(.text)
    mng_init_ihdr                            0x0001195b   Thumb Code    56  libmng_chunk_prc.o(.text)
    mng_init_plte                            0x00011993   Thumb Code    58  libmng_chunk_prc.o(.text)
    mng_init_idat                            0x000119cd   Thumb Code    56  libmng_chunk_prc.o(.text)
    mng_init_iend                            0x00011a05   Thumb Code    56  libmng_chunk_prc.o(.text)
    mng_init_trns                            0x00011a3d   Thumb Code    58  libmng_chunk_prc.o(.text)
    mng_init_gama                            0x00011a77   Thumb Code    56  libmng_chunk_prc.o(.text)
    mng_init_chrm                            0x00011aaf   Thumb Code    56  libmng_chunk_prc.o(.text)
    mng_init_srgb                            0x00011ae7   Thumb Code    56  libmng_chunk_prc.o(.text)
    mng_init_iccp                            0x00011b1f   Thumb Code    56  libmng_chunk_prc.o(.text)
    mng_init_text                            0x00011b57   Thumb Code    56  libmng_chunk_prc.o(.text)
    mng_init_ztxt                            0x00011b8f   Thumb Code    56  libmng_chunk_prc.o(.text)
    mng_init_itxt                            0x00011bc7   Thumb Code    56  libmng_chunk_prc.o(.text)
    mng_init_bkgd                            0x00011bff   Thumb Code    56  libmng_chunk_prc.o(.text)
    mng_init_phys                            0x00011c37   Thumb Code    56  libmng_chunk_prc.o(.text)
    mng_init_sbit                            0x00011c6f   Thumb Code    56  libmng_chunk_prc.o(.text)
    mng_init_splt                            0x00011ca7   Thumb Code    62  libmng_chunk_prc.o(.text)
    mng_init_hist                            0x00011ce5   Thumb Code    58  libmng_chunk_prc.o(.text)
    mng_init_time                            0x00011d1f   Thumb Code    56  libmng_chunk_prc.o(.text)
    mng_init_mhdr                            0x00011d57   Thumb Code    56  libmng_chunk_prc.o(.text)
    mng_init_mend                            0x00011d8f   Thumb Code    56  libmng_chunk_prc.o(.text)
    mng_init_loop                            0x00011dc7   Thumb Code    56  libmng_chunk_prc.o(.text)
    mng_init_endl                            0x00011dff   Thumb Code    56  libmng_chunk_prc.o(.text)
    mng_init_defi                            0x00011e37   Thumb Code    56  libmng_chunk_prc.o(.text)
    mng_init_basi                            0x00011e6f   Thumb Code    56  libmng_chunk_prc.o(.text)
    mng_init_clon                            0x00011ea7   Thumb Code    56  libmng_chunk_prc.o(.text)
    mng_init_past                            0x00011edf   Thumb Code    56  libmng_chunk_prc.o(.text)
    mng_init_disc                            0x00011f17   Thumb Code    56  libmng_chunk_prc.o(.text)
    mng_init_back                            0x00011f4f   Thumb Code    56  libmng_chunk_prc.o(.text)
    mng_init_fram                            0x00011f87   Thumb Code    56  libmng_chunk_prc.o(.text)
    mng_init_move                            0x00011fbf   Thumb Code    56  libmng_chunk_prc.o(.text)
    mng_init_clip                            0x00011ff7   Thumb Code    56  libmng_chunk_prc.o(.text)
    mng_init_show                            0x0001202f   Thumb Code    56  libmng_chunk_prc.o(.text)
    mng_init_term                            0x00012067   Thumb Code    56  libmng_chunk_prc.o(.text)
    mng_init_save                            0x0001209f   Thumb Code    56  libmng_chunk_prc.o(.text)
    mng_init_seek                            0x000120d7   Thumb Code    56  libmng_chunk_prc.o(.text)
    mng_init_expi                            0x0001210f   Thumb Code    56  libmng_chunk_prc.o(.text)
    mng_init_fpri                            0x00012147   Thumb Code    56  libmng_chunk_prc.o(.text)
    mng_init_need                            0x0001217f   Thumb Code    56  libmng_chunk_prc.o(.text)
    mng_init_phyg                            0x000121b7   Thumb Code    56  libmng_chunk_prc.o(.text)
    mng_init_dhdr                            0x000121ef   Thumb Code    56  libmng_chunk_prc.o(.text)
    mng_init_prom                            0x00012227   Thumb Code    56  libmng_chunk_prc.o(.text)
    mng_init_ipng                            0x0001225f   Thumb Code    56  libmng_chunk_prc.o(.text)
    mng_init_pplt                            0x00012297   Thumb Code    58  libmng_chunk_prc.o(.text)
    mng_init_drop                            0x000122d1   Thumb Code    56  libmng_chunk_prc.o(.text)
    mng_init_dbyk                            0x00012309   Thumb Code    56  libmng_chunk_prc.o(.text)
    mng_init_ordr                            0x00012341   Thumb Code    56  libmng_chunk_prc.o(.text)
    mng_init_magn                            0x00012379   Thumb Code    56  libmng_chunk_prc.o(.text)
    mng_init_evnt                            0x000123b1   Thumb Code    56  libmng_chunk_prc.o(.text)
    mng_init_unknown                         0x000123e9   Thumb Code    56  libmng_chunk_prc.o(.text)
    mng_free_ihdr                            0x00012421   Thumb Code    26  libmng_chunk_prc.o(.text)
    mng_free_plte                            0x0001243b   Thumb Code    28  libmng_chunk_prc.o(.text)
    mng_free_idat                            0x00012457   Thumb Code    50  libmng_chunk_prc.o(.text)
    mng_free_iend                            0x00012489   Thumb Code    26  libmng_chunk_prc.o(.text)
    mng_free_trns                            0x000124a3   Thumb Code    28  libmng_chunk_prc.o(.text)
    mng_free_gama                            0x000124bf   Thumb Code    26  libmng_chunk_prc.o(.text)
    mng_free_chrm                            0x000124d9   Thumb Code    26  libmng_chunk_prc.o(.text)
    mng_free_srgb                            0x000124f3   Thumb Code    26  libmng_chunk_prc.o(.text)
    mng_free_iccp                            0x0001250d   Thumb Code    76  libmng_chunk_prc.o(.text)
    mng_free_text                            0x00012559   Thumb Code    78  libmng_chunk_prc.o(.text)
    mng_free_ztxt                            0x000125a7   Thumb Code    76  libmng_chunk_prc.o(.text)
    mng_free_itxt                            0x000125f3   Thumb Code   128  libmng_chunk_prc.o(.text)
    mng_free_bkgd                            0x00012673   Thumb Code    26  libmng_chunk_prc.o(.text)
    mng_free_phys                            0x0001268d   Thumb Code    26  libmng_chunk_prc.o(.text)
    mng_free_sbit                            0x000126a7   Thumb Code    26  libmng_chunk_prc.o(.text)
    mng_free_splt                            0x000126c1   Thumb Code    90  libmng_chunk_prc.o(.text)
    mng_free_hist                            0x0001271b   Thumb Code    28  libmng_chunk_prc.o(.text)
    mng_free_time                            0x00012737   Thumb Code    26  libmng_chunk_prc.o(.text)
    mng_free_mhdr                            0x00012751   Thumb Code    26  libmng_chunk_prc.o(.text)
    mng_free_mend                            0x0001276b   Thumb Code    26  libmng_chunk_prc.o(.text)
    mng_free_loop                            0x00012785   Thumb Code    52  libmng_chunk_prc.o(.text)
    mng_free_endl                            0x000127b9   Thumb Code    26  libmng_chunk_prc.o(.text)
    mng_free_defi                            0x000127d3   Thumb Code    26  libmng_chunk_prc.o(.text)
    mng_free_basi                            0x000127ed   Thumb Code    26  libmng_chunk_prc.o(.text)
    mng_free_clon                            0x00012807   Thumb Code    26  libmng_chunk_prc.o(.text)
    mng_free_past                            0x00012821   Thumb Code    54  libmng_chunk_prc.o(.text)
    mng_free_disc                            0x00012857   Thumb Code    52  libmng_chunk_prc.o(.text)
    mng_free_back                            0x0001288b   Thumb Code    26  libmng_chunk_prc.o(.text)
    mng_free_fram                            0x000128a5   Thumb Code    78  libmng_chunk_prc.o(.text)
    mng_free_move                            0x000128f3   Thumb Code    26  libmng_chunk_prc.o(.text)
    mng_free_clip                            0x0001290d   Thumb Code    26  libmng_chunk_prc.o(.text)
    mng_free_show                            0x00012927   Thumb Code    26  libmng_chunk_prc.o(.text)
    mng_free_term                            0x00012941   Thumb Code    26  libmng_chunk_prc.o(.text)
    mng_free_save                            0x0001295b   Thumb Code    98  libmng_chunk_prc.o(.text)
    mng_free_seek                            0x000129bd   Thumb Code    52  libmng_chunk_prc.o(.text)
    mng_free_expi                            0x000129f1   Thumb Code    52  libmng_chunk_prc.o(.text)
    mng_free_fpri                            0x00012a25   Thumb Code    26  libmng_chunk_prc.o(.text)
    mng_free_need                            0x00012a3f   Thumb Code    52  libmng_chunk_prc.o(.text)
    mng_free_phyg                            0x00012a73   Thumb Code    26  libmng_chunk_prc.o(.text)
    mng_free_dhdr                            0x00012a8d   Thumb Code    26  libmng_chunk_prc.o(.text)
    mng_free_prom                            0x00012aa7   Thumb Code    26  libmng_chunk_prc.o(.text)
    mng_free_ipng                            0x00012ac1   Thumb Code    26  libmng_chunk_prc.o(.text)
    mng_free_pplt                            0x00012adb   Thumb Code    28  libmng_chunk_prc.o(.text)
    mng_free_drop                            0x00012af7   Thumb Code    52  libmng_chunk_prc.o(.text)
    mng_free_dbyk                            0x00012b2b   Thumb Code    50  libmng_chunk_prc.o(.text)
    mng_free_ordr                            0x00012b5d   Thumb Code    52  libmng_chunk_prc.o(.text)
    mng_free_magn                            0x00012b91   Thumb Code    26  libmng_chunk_prc.o(.text)
    mng_free_evnt                            0x00012bab   Thumb Code    94  libmng_chunk_prc.o(.text)
    mng_free_unknown                         0x00012c09   Thumb Code    50  libmng_chunk_prc.o(.text)
    mng_assign_ihdr                          0x00012c3b   Thumb Code    74  libmng_chunk_prc.o(.text)
    mng_assign_plte                          0x00012c85   Thumb Code    84  libmng_chunk_prc.o(.text)
    mng_assign_idat                          0x00012cd9   Thumb Code    96  libmng_chunk_prc.o(.text)
    mng_assign_iend                          0x00012d39   Thumb Code    36  libmng_chunk_prc.o(.text)
    mng_assign_trns                          0x00012d5d   Thumb Code   146  libmng_chunk_prc.o(.text)
    mng_assign_gama                          0x00012def   Thumb Code    46  libmng_chunk_prc.o(.text)
    mng_assign_chrm                          0x00012e1d   Thumb Code    74  libmng_chunk_prc.o(.text)
    mng_assign_srgb                          0x00012e67   Thumb Code    42  libmng_chunk_prc.o(.text)
    mng_assign_iccp                          0x00012e91   Thumb Code   156  libmng_chunk_prc.o(.text)
    mng_assign_text                          0x00012f2d   Thumb Code   144  libmng_chunk_prc.o(.text)
    mng_assign_ztxt                          0x00012fbd   Thumb Code   202  libmng_chunk_prc.o(.text)
    mng_assign_itxt                          0x00013087   Thumb Code   264  libmng_chunk_prc.o(.text)
    mng_assign_bkgd                          0x0001318f   Thumb Code    70  libmng_chunk_prc.o(.text)
    mng_assign_phys                          0x000131d5   Thumb Code    56  libmng_chunk_prc.o(.text)
    mng_assign_sbit                          0x0001320d   Thumb Code    72  libmng_chunk_prc.o(.text)
    mng_assign_splt                          0x00013255   Thumb Code   178  libmng_chunk_prc.o(.text)
    mng_assign_hist                          0x00013307   Thumb Code    68  libmng_chunk_prc.o(.text)
    mng_assign_time                          0x0001334b   Thumb Code    70  libmng_chunk_prc.o(.text)
    mng_assign_mhdr                          0x00013391   Thumb Code    64  libmng_chunk_prc.o(.text)
    mng_assign_mend                          0x000133d1   Thumb Code    36  libmng_chunk_prc.o(.text)
    mng_assign_loop                          0x000133f5   Thumb Code   164  libmng_chunk_prc.o(.text)
    mng_assign_endl                          0x00013499   Thumb Code    42  libmng_chunk_prc.o(.text)
    mng_assign_defi                          0x000134c3   Thumb Code   100  libmng_chunk_prc.o(.text)
    mng_assign_basi                          0x00013527   Thumb Code    96  libmng_chunk_prc.o(.text)
    mng_assign_clon                          0x00013587   Thumb Code    82  libmng_chunk_prc.o(.text)
    mng_assign_past                          0x000135d9   Thumb Code   116  libmng_chunk_prc.o(.text)
    mng_assign_disc                          0x0001364d   Thumb Code    96  libmng_chunk_prc.o(.text)
    mng_assign_back                          0x000136ad   Thumb Code    64  libmng_chunk_prc.o(.text)
    mng_assign_fram                          0x000136ed   Thumb Code   216  libmng_chunk_prc.o(.text)
    mng_assign_move                          0x000137c5   Thumb Code    58  libmng_chunk_prc.o(.text)
    mng_assign_clip                          0x000137ff   Thumb Code   110  libmng_chunk_prc.o(.text)
    mng_assign_show                          0x0001386d   Thumb Code    56  libmng_chunk_prc.o(.text)
    mng_assign_term                          0x000138a5   Thumb Code    56  libmng_chunk_prc.o(.text)
    mng_assign_save                          0x000138dd   Thumb Code   212  libmng_chunk_prc.o(.text)
    mng_assign_seek                          0x000139b1   Thumb Code    90  libmng_chunk_prc.o(.text)
    mng_assign_expi                          0x00013a0b   Thumb Code    94  libmng_chunk_prc.o(.text)
    mng_assign_fpri                          0x00013a69   Thumb Code    48  libmng_chunk_prc.o(.text)
    mng_assign_need                          0x00013a99   Thumb Code    90  libmng_chunk_prc.o(.text)
    mng_assign_phyg                          0x00013af3   Thumb Code    56  libmng_chunk_prc.o(.text)
    mng_assign_dhdr                          0x00013b2b   Thumb Code    68  libmng_chunk_prc.o(.text)
    mng_assign_prom                          0x00013b6f   Thumb Code    54  libmng_chunk_prc.o(.text)
    mng_assign_ipng                          0x00013ba5   Thumb Code    36  libmng_chunk_prc.o(.text)
    mng_assign_pplt                          0x00013bc9   Thumb Code   136  libmng_chunk_prc.o(.text)
    mng_assign_drop                          0x00013c51   Thumb Code    96  libmng_chunk_prc.o(.text)
    mng_assign_dbyk                          0x00013cb1   Thumb Code   100  libmng_chunk_prc.o(.text)
    mng_assign_ordr                          0x00013d15   Thumb Code    96  libmng_chunk_prc.o(.text)
    mng_assign_magn                          0x00013d75   Thumb Code    80  libmng_chunk_prc.o(.text)
    mng_assign_evnt                          0x00013dc5   Thumb Code   188  libmng_chunk_prc.o(.text)
    mng_assign_unknown                       0x00013e81   Thumb Code    66  libmng_chunk_prc.o(.text)
    mng_iterate_chunks                       0x00013edd   Thumb Code    88  libmng_chunk_xs.o(.text)
    mng_copy_chunk                           0x00013f35   Thumb Code   172  libmng_chunk_xs.o(.text)
    mng_getchunk_ihdr                        0x00013fe1   Thumb Code   110  libmng_chunk_xs.o(.text)
    mng_getchunk_plte                        0x0001404f   Thumb Code    80  libmng_chunk_xs.o(.text)
    mng_getchunk_idat                        0x0001409f   Thumb Code    70  libmng_chunk_xs.o(.text)
    mng_getchunk_trns                        0x000140e5   Thumb Code   170  libmng_chunk_xs.o(.text)
    mng_getchunk_gama                        0x0001418f   Thumb Code    72  libmng_chunk_xs.o(.text)
    mng_getchunk_chrm                        0x000141d7   Thumb Code   114  libmng_chunk_xs.o(.text)
    mng_getchunk_srgb                        0x00014249   Thumb Code   120  libmng_chunk_xs.o(.text)
    mng_getchunk_iccp                        0x000142c1   Thumb Code    98  libmng_chunk_xs.o(.text)
    mng_getchunk_text                        0x00014323   Thumb Code    82  libmng_chunk_xs.o(.text)
    mng_getchunk_ztxt                        0x00014375   Thumb Code    90  libmng_chunk_xs.o(.text)
    mng_getchunk_itxt                        0x000143cf   Thumb Code   122  libmng_chunk_xs.o(.text)
    mng_getchunk_bkgd                        0x00014449   Thumb Code   106  libmng_chunk_xs.o(.text)
    mng_getchunk_phys                        0x000144b3   Thumb Code    86  libmng_chunk_xs.o(.text)
    mng_getchunk_sbit                        0x00014509   Thumb Code   100  libmng_chunk_xs.o(.text)
    mng_getchunk_splt                        0x0001456d   Thumb Code    98  libmng_chunk_xs.o(.text)
    mng_getchunk_hist                        0x000145cf   Thumb Code    80  libmng_chunk_xs.o(.text)
    mng_getchunk_time                        0x0001461f   Thumb Code   154  libmng_chunk_xs.o(.text)
    mng_getchunk_mhdr                        0x000146b9   Thumb Code   100  libmng_chunk_xs.o(.text)
    mng_getchunk_loop                        0x0001471d   Thumb Code   104  libmng_chunk_xs.o(.text)
    mng_getchunk_endl                        0x00014785   Thumb Code    66  libmng_chunk_xs.o(.text)
    mng_getchunk_defi                        0x000147c7   Thumb Code   132  libmng_chunk_xs.o(.text)
    mng_getchunk_basi                        0x0001484b   Thumb Code   142  libmng_chunk_xs.o(.text)
    mng_getchunk_clon                        0x000148d9   Thumb Code   122  libmng_chunk_xs.o(.text)
    mng_getchunk_past                        0x00014953   Thumb Code    90  libmng_chunk_xs.o(.text)
    mng_getchunk_past_src                    0x000149ad   Thumb Code   162  libmng_chunk_xs.o(.text)
    mng_getchunk_disc                        0x00014a4f   Thumb Code   110  libmng_chunk_xs.o(.text)
    mng_getchunk_back                        0x00014abd   Thumb Code    98  libmng_chunk_xs.o(.text)
    mng_getchunk_fram                        0x00014b1f   Thumb Code   174  libmng_chunk_xs.o(.text)
    mng_getchunk_move                        0x00014bcd   Thumb Code    90  libmng_chunk_xs.o(.text)
    mng_getchunk_clip                        0x00014c27   Thumb Code   102  libmng_chunk_xs.o(.text)
    mng_getchunk_show                        0x00014c8d   Thumb Code    86  libmng_chunk_xs.o(.text)
    mng_getchunk_term                        0x00014ce3   Thumb Code    86  libmng_chunk_xs.o(.text)
    mng_getchunk_save                        0x00014d39   Thumb Code    80  libmng_chunk_xs.o(.text)
    mng_getchunk_save_entry                  0x00014d89   Thumb Code   150  libmng_chunk_xs.o(.text)
    mng_getchunk_seek                        0x00014e1f   Thumb Code    70  libmng_chunk_xs.o(.text)
    mng_getchunk_expi                        0x00014e65   Thumb Code   120  libmng_chunk_xs.o(.text)
    mng_getchunk_fpri                        0x00014edd   Thumb Code    74  libmng_chunk_xs.o(.text)
    mng_getchunk_need                        0x00014f27   Thumb Code    70  libmng_chunk_xs.o(.text)
    mng_getchunk_phyg                        0x00014f6d   Thumb Code    86  libmng_chunk_xs.o(.text)
    mng_getchunk_dhdr                        0x00014fc3   Thumb Code   104  libmng_chunk_xs.o(.text)
    mng_getchunk_prom                        0x0001502b   Thumb Code    82  libmng_chunk_xs.o(.text)
    mng_getchunk_pplt                        0x0001507d   Thumb Code    72  libmng_chunk_xs.o(.text)
    mng_getchunk_pplt_entry                  0x000150c5   Thumb Code   128  libmng_chunk_xs.o(.text)
    mng_getchunk_drop                        0x00015145   Thumb Code    70  libmng_chunk_xs.o(.text)
    mng_getchunk_dbyk                        0x0001518b   Thumb Code    84  libmng_chunk_xs.o(.text)
    mng_getchunk_ordr                        0x000151df   Thumb Code    64  libmng_chunk_xs.o(.text)
    mng_getchunk_ordr_entry                  0x0001521f   Thumb Code   106  libmng_chunk_xs.o(.text)
    mng_getchunk_magn                        0x00015289   Thumb Code   172  libmng_chunk_xs.o(.text)
    mng_getchunk_evnt                        0x00015335   Thumb Code    64  libmng_chunk_xs.o(.text)
    mng_getchunk_evnt_entry                  0x00015375   Thumb Code   154  libmng_chunk_xs.o(.text)
    mng_getchunk_unknown                     0x0001540f   Thumb Code    76  libmng_chunk_xs.o(.text)
    mng_putchunk_ihdr                        0x0001549b   Thumb Code   180  libmng_chunk_xs.o(.text)
    mng_putchunk_plte                        0x0001554f   Thumb Code   204  libmng_chunk_xs.o(.text)
    mng_putchunk_idat                        0x0001561b   Thumb Code   290  libmng_chunk_xs.o(.text)
    mng_putchunk_iend                        0x0001573d   Thumb Code   176  libmng_chunk_xs.o(.text)
    mng_putchunk_trns                        0x000157ed   Thumb Code   270  libmng_chunk_xs.o(.text)
    mng_putchunk_gama                        0x000158fb   Thumb Code   172  libmng_chunk_xs.o(.text)
    mng_putchunk_chrm                        0x000159a7   Thumb Code   214  libmng_chunk_xs.o(.text)
    mng_putchunk_srgb                        0x00015a7d   Thumb Code   212  libmng_chunk_xs.o(.text)
    mng_putchunk_iccp                        0x00015b51   Thumb Code   298  libmng_chunk_xs.o(.text)
    mng_putchunk_text                        0x00015c7b   Thumb Code   284  libmng_chunk_xs.o(.text)
    mng_putchunk_ztxt                        0x00015d97   Thumb Code   292  libmng_chunk_xs.o(.text)
    mng_putchunk_itxt                        0x00015ebb   Thumb Code   456  libmng_chunk_xs.o(.text)
    mng_putchunk_bkgd                        0x00016083   Thumb Code   204  libmng_chunk_xs.o(.text)
    mng_putchunk_phys                        0x0001614f   Thumb Code   186  libmng_chunk_xs.o(.text)
    mng_putchunk_sbit                        0x00016209   Thumb Code   208  libmng_chunk_xs.o(.text)
    mng_putchunk_splt                        0x000162d9   Thumb Code   316  libmng_chunk_xs.o(.text)
    mng_putchunk_hist                        0x00016415   Thumb Code   210  libmng_chunk_xs.o(.text)
    mng_putchunk_time                        0x000164e7   Thumb Code   202  libmng_chunk_xs.o(.text)
    mng_putchunk_mhdr                        0x000165b1   Thumb Code   200  libmng_chunk_xs.o(.text)
    mng_putchunk_mend                        0x00016679   Thumb Code   164  libmng_chunk_xs.o(.text)
    mng_putchunk_loop                        0x0001671d   Thumb Code   206  libmng_chunk_xs.o(.text)
    mng_putchunk_endl                        0x000167eb   Thumb Code   208  libmng_chunk_xs.o(.text)
    mng_putchunk_defi                        0x000168bb   Thumb Code   232  libmng_chunk_xs.o(.text)
    mng_putchunk_basi                        0x000169a3   Thumb Code   244  libmng_chunk_xs.o(.text)
    mng_putchunk_clon                        0x00016a97   Thumb Code   224  libmng_chunk_xs.o(.text)
    mng_putchunk_past                        0x00016b77   Thumb Code   270  libmng_chunk_xs.o(.text)
    mng_putchunk_past_src                    0x00016c85   Thumb Code   204  libmng_chunk_xs.o(.text)
    mng_putchunk_disc                        0x00016d51   Thumb Code   228  libmng_chunk_xs.o(.text)
    mng_putchunk_back                        0x00016e35   Thumb Code   200  libmng_chunk_xs.o(.text)
    mng_putchunk_fram                        0x00016efd   Thumb Code   420  libmng_chunk_xs.o(.text)
    mng_putchunk_move                        0x000170a1   Thumb Code   190  libmng_chunk_xs.o(.text)
    mng_putchunk_clip                        0x0001715f   Thumb Code   204  libmng_chunk_xs.o(.text)
    mng_putchunk_show                        0x0001722b   Thumb Code   188  libmng_chunk_xs.o(.text)
    mng_putchunk_term                        0x000172e7   Thumb Code   156  libmng_chunk_xs.o(.text)
    mng_putchunk_save                        0x00017383   Thumb Code   258  libmng_chunk_xs.o(.text)
    mng_putchunk_save_entry                  0x00017485   Thumb Code   254  libmng_chunk_xs.o(.text)
    mng_putchunk_seek                        0x00017583   Thumb Code   220  libmng_chunk_xs.o(.text)
    mng_putchunk_expi                        0x0001765f   Thumb Code   228  libmng_chunk_xs.o(.text)
    mng_putchunk_fpri                        0x00017743   Thumb Code   176  libmng_chunk_xs.o(.text)
    mng_putchunk_need                        0x000177f3   Thumb Code   260  libmng_chunk_xs.o(.text)
    mng_putchunk_phyg                        0x000178f7   Thumb Code   186  libmng_chunk_xs.o(.text)
    mng_putchunk_dhdr                        0x000179b1   Thumb Code   206  libmng_chunk_xs.o(.text)
    mng_putchunk_prom                        0x00017a7f   Thumb Code   184  libmng_chunk_xs.o(.text)
    mng_putchunk_ipng                        0x00017b37   Thumb Code   158  libmng_chunk_xs.o(.text)
    mng_putchunk_pplt                        0x00017bd5   Thumb Code   174  libmng_chunk_xs.o(.text)
    mng_putchunk_pplt_entry                  0x00017c83   Thumb Code   214  libmng_chunk_xs.o(.text)
    mng_putchunk_drop                        0x00017d59   Thumb Code   232  libmng_chunk_xs.o(.text)
    mng_putchunk_dbyk                        0x00017e41   Thumb Code   240  libmng_chunk_xs.o(.text)
    mng_putchunk_ordr                        0x00017f31   Thumb Code   210  libmng_chunk_xs.o(.text)
    mng_putchunk_ordr_entry                  0x00018003   Thumb Code   198  libmng_chunk_xs.o(.text)
    mng_putchunk_magn                        0x000180c9   Thumb Code   226  libmng_chunk_xs.o(.text)
    mng_putchunk_evnt                        0x000181ab   Thumb Code   206  libmng_chunk_xs.o(.text)
    mng_putchunk_evnt_entry                  0x00018279   Thumb Code   248  libmng_chunk_xs.o(.text)
    mng_putchunk_unknown                     0x00018371   Thumb Code   226  libmng_chunk_xs.o(.text)
    mng_getimgdata_seq                       0x00018453   Thumb Code     8  libmng_chunk_xs.o(.text)
    mng_getimgdata_chunkseq                  0x0001845b   Thumb Code     8  libmng_chunk_xs.o(.text)
    mng_getimgdata_chunk                     0x00018463   Thumb Code     8  libmng_chunk_xs.o(.text)
    mng_putimgdata_ihdr                      0x0001846b   Thumb Code    42  libmng_chunk_xs.o(.text)
    mng_updatemngheader                      0x00018495   Thumb Code   112  libmng_chunk_xs.o(.text)
    mng_updatemngsimplicity                  0x00018505   Thumb Code    98  libmng_chunk_xs.o(.text)
    mng_correct_gamma_only                   0x00018575   Thumb Code   142  libmng_cms.o(.text)
    mng_init_gamma_only                      0x00018603   Thumb Code   452  libmng_cms.o(.text)
    mng_display_progressive_refresh          0x000188bb   Thumb Code   182  libmng_display.o(.text)
    mng_display_image                        0x0001a2e5   Thumb Code  1166  libmng_display.o(.text)
    mng_execute_delta_image                  0x0001a773   Thumb Code  3584  libmng_display.o(.text)
    mng_reset_objzero                        0x0001b82d   Thumb Code   122  libmng_display.o(.text)
    mng_process_display_mend                 0x0001be57   Thumb Code   942  libmng_display.o(.text)
    mng_process_display_past2                0x0001c205   Thumb Code    74  libmng_display.o(.text)
    mng_process_display_mend2                0x0001c24f   Thumb Code    24  libmng_display.o(.text)
    mng_process_display_magn2                0x0001c267   Thumb Code   142  libmng_display.o(.text)
    mng_process_display_clon2                0x0001c2f5   Thumb Code    32  libmng_display.o(.text)
    mng_process_display_show                 0x0001c315   Thumb Code   910  libmng_display.o(.text)
    mng_process_display_fram2                0x0001c6a3   Thumb Code    50  libmng_display.o(.text)
    mng_process_display                      0x0001c6d5   Thumb Code   726  libmng_display.o(.text)
    mng_process_display_ihdr                 0x0001c9ab   Thumb Code  1500  libmng_display.o(.text)
    mng_process_display_idat                 0x0001cf87   Thumb Code   150  libmng_display.o(.text)
    mng_process_display_iend                 0x0001d01d   Thumb Code   706  libmng_display.o(.text)
    mng_process_display_defi                 0x0001d2df   Thumb Code   574  libmng_display.o(.text)
    mng_process_display_basi                 0x0001d51d   Thumb Code  1750  libmng_display.o(.text)
    mng_process_display_clon                 0x0001dbf3   Thumb Code   442  libmng_display.o(.text)
    mng_process_display_disc                 0x0001ddad   Thumb Code   108  libmng_display.o(.text)
    mng_process_display_fram                 0x0001de19   Thumb Code    66  libmng_display.o(.text)
    mng_process_display_move                 0x0001de5b   Thumb Code    94  libmng_display.o(.text)
    mng_process_display_clip                 0x0001deb9   Thumb Code   130  libmng_display.o(.text)
    mng_process_display_save                 0x0001df3b   Thumb Code    24  libmng_display.o(.text)
    mng_process_display_seek                 0x0001df53   Thumb Code    94  libmng_display.o(.text)
    mng_process_display_dhdr                 0x0001dfb1   Thumb Code  2092  libmng_display.o(.text)
    mng_process_display_prom                 0x0001e7dd   Thumb Code   242  libmng_display.o(.text)
    mng_process_display_ipng                 0x0001e8cf   Thumb Code    16  libmng_display.o(.text)
    mng_process_display_pplt                 0x0001e8df   Thumb Code   718  libmng_display.o(.text)
    mng_process_display_magn                 0x0001ebad   Thumb Code   336  libmng_display.o(.text)
    mng_process_display_past                 0x0001ecfd   Thumb Code  3608  libmng_display.o(.text)
    mng_dither_a_row                         0x0001fb1d   Thumb Code     6  libmng_dither.o(.text)
    mng_store_error                          0x0001fb25   Thumb Code   204  libmng_error.o(.text)
    mng_process_error                        0x0001fbf1   Thumb Code   112  libmng_error.o(.text)
    mng_filter_a_row                         0x0001fed3   Thumb Code    90  libmng_filter.o(.text)
    mng_version_text                         0x00020485   Thumb Code     4  libmng_hlapi.o(.text)
    mng_version_so                           0x00020489   Thumb Code     4  libmng_hlapi.o(.text)
    mng_version_dll                          0x0002048d   Thumb Code     4  libmng_hlapi.o(.text)
    mng_version_major                        0x00020491   Thumb Code     4  libmng_hlapi.o(.text)
    mng_version_minor                        0x00020495   Thumb Code     4  libmng_hlapi.o(.text)
    mng_version_release                      0x00020499   Thumb Code     4  libmng_hlapi.o(.text)
    mng_version_beta                         0x0002049d   Thumb Code     4  libmng_hlapi.o(.text)
    mng_supports_func                        0x000204a1   Thumb Code   122  libmng_hlapi.o(.text)
    mng_reset                                0x0002051b   Thumb Code  1970  libmng_hlapi.o(.text)
    mng_initialize                           0x00020ccd   Thumb Code   408  libmng_hlapi.o(.text)
    mng_cleanup                              0x00020e65   Thumb Code   124  libmng_hlapi.o(.text)
    mng_read                                 0x00020ee1   Thumb Code   364  libmng_hlapi.o(.text)
    mng_read_pushdata                        0x0002104d   Thumb Code   108  libmng_hlapi.o(.text)
    mng_read_pushsig                         0x000210b9   Thumb Code    64  libmng_hlapi.o(.text)
    mng_read_pushchunk                       0x000210f9   Thumb Code   108  libmng_hlapi.o(.text)
    mng_read_resume                          0x00021165   Thumb Code   200  libmng_hlapi.o(.text)
    mng_write                                0x0002122d   Thumb Code   212  libmng_hlapi.o(.text)
    mng_create                               0x00021301   Thumb Code   170  libmng_hlapi.o(.text)
    mng_readdisplay                          0x000213ab   Thumb Code   530  libmng_hlapi.o(.text)
    mng_display                              0x000215bd   Thumb Code   444  libmng_hlapi.o(.text)
    mng_display_resume                       0x00021779   Thumb Code   438  libmng_hlapi.o(.text)
    mng_display_freeze                       0x0002192f   Thumb Code   104  libmng_hlapi.o(.text)
    mng_display_reset                        0x00021997   Thumb Code   154  libmng_hlapi.o(.text)
    mng_display_goframe                      0x00021a31   Thumb Code   260  libmng_hlapi.o(.text)
    mng_display_golayer                      0x00021b35   Thumb Code   250  libmng_hlapi.o(.text)
    mng_display_gotime                       0x00021c2f   Thumb Code   250  libmng_hlapi.o(.text)
    mng_trapevent                            0x00021d29   Thumb Code   870  libmng_hlapi.o(.text)
    mng_getlasterror                         0x0002208f   Thumb Code    86  libmng_hlapi.o(.text)
    mng_drop_invalid_objects                 0x000220e9   Thumb Code    42  libmng_object_prc.o(.text)
    mng_free_imagedataobject                 0x00022113   Thumb Code   140  libmng_object_prc.o(.text)
    mng_create_imagedataobject               0x0002219f   Thumb Code   832  libmng_object_prc.o(.text)
    mng_clone_imagedataobject                0x000224df   Thumb Code   300  libmng_object_prc.o(.text)
    mng_free_imageobject                     0x0002260b   Thumb Code   108  libmng_object_prc.o(.text)
    mng_create_imageobject                   0x00022677   Thumb Code   356  libmng_object_prc.o(.text)
    mng_find_imageobject                     0x000227db   Thumb Code    26  libmng_object_prc.o(.text)
    mng_promote_imageobject                  0x000227f5   Thumb Code  1824  libmng_object_prc.o(.text)
    mng_magnify_imageobject                  0x00022f15   Thumb Code  2006  libmng_object_prc.o(.text)
    mng_clone_imageobject                    0x000236eb   Thumb Code   534  libmng_object_prc.o(.text)
    mng_renum_imageobject                    0x00023901   Thumb Code   252  libmng_object_prc.o(.text)
    mng_reset_object_details                 0x000239fd   Thumb Code  1164  libmng_object_prc.o(.text)
    mng_colorcorrect_object                  0x00023e89   Thumb Code   500  libmng_object_prc.o(.text)
    mng_add_ani_object                       0x0002407d   Thumb Code   116  libmng_object_prc.o(.text)
    mng_process_ani_image                    0x000240f1   Thumb Code   932  libmng_object_prc.o(.text)
    mng_free_ani_image                       0x00024495   Thumb Code    42  libmng_object_prc.o(.text)
    mng_create_ani_image                     0x000244bf   Thumb Code   122  libmng_object_prc.o(.text)
    mng_process_ani_plte                     0x00024539   Thumb Code    52  libmng_object_prc.o(.text)
    mng_free_ani_plte                        0x0002456d   Thumb Code    28  libmng_object_prc.o(.text)
    mng_create_ani_plte                      0x00024589   Thumb Code    86  libmng_object_prc.o(.text)
    mng_process_ani_trns                     0x000245df   Thumb Code    50  libmng_object_prc.o(.text)
    mng_free_ani_trns                        0x00024611   Thumb Code    28  libmng_object_prc.o(.text)
    mng_create_ani_trns                      0x0002462d   Thumb Code    86  libmng_object_prc.o(.text)
    mng_process_ani_gama                     0x00024683   Thumb Code    56  libmng_object_prc.o(.text)
    mng_free_ani_gama                        0x000246bb   Thumb Code    26  libmng_object_prc.o(.text)
    mng_create_ani_gama                      0x000246d5   Thumb Code    72  libmng_object_prc.o(.text)
    mng_process_ani_chrm                     0x0002471d   Thumb Code   220  libmng_object_prc.o(.text)
    mng_free_ani_chrm                        0x000247f9   Thumb Code    26  libmng_object_prc.o(.text)
    mng_create_ani_chrm                      0x00024813   Thumb Code   102  libmng_object_prc.o(.text)
    mng_process_ani_srgb                     0x00024879   Thumb Code    56  libmng_object_prc.o(.text)
    mng_free_ani_srgb                        0x000248b1   Thumb Code    26  libmng_object_prc.o(.text)
    mng_create_ani_srgb                      0x000248cb   Thumb Code    72  libmng_object_prc.o(.text)
    mng_process_ani_iccp                     0x00024913   Thumb Code   182  libmng_object_prc.o(.text)
    mng_free_ani_iccp                        0x000249c9   Thumb Code    54  libmng_object_prc.o(.text)
    mng_create_ani_iccp                      0x000249ff   Thumb Code   126  libmng_object_prc.o(.text)
    mng_process_ani_bkgd                     0x00024a7d   Thumb Code    54  libmng_object_prc.o(.text)
    mng_free_ani_bkgd                        0x00024ab3   Thumb Code    26  libmng_object_prc.o(.text)
    mng_create_ani_bkgd                      0x00024acd   Thumb Code    80  libmng_object_prc.o(.text)
    mng_process_ani_loop                     0x00024b1d   Thumb Code    40  libmng_object_prc.o(.text)
    mng_free_ani_loop                        0x00024b45   Thumb Code    56  libmng_object_prc.o(.text)
    mng_create_ani_loop                      0x00024b7d   Thumb Code   188  libmng_object_prc.o(.text)
    mng_process_ani_endl                     0x00024c39   Thumb Code   262  libmng_object_prc.o(.text)
    mng_free_ani_endl                        0x00024d3f   Thumb Code    26  libmng_object_prc.o(.text)
    mng_create_ani_endl                      0x00024d59   Thumb Code    88  libmng_object_prc.o(.text)
    mng_process_ani_defi                     0x00024db1   Thumb Code   184  libmng_object_prc.o(.text)
    mng_free_ani_defi                        0x00024e69   Thumb Code    26  libmng_object_prc.o(.text)
    mng_create_ani_defi                      0x00024e83   Thumb Code   200  libmng_object_prc.o(.text)
    mng_process_ani_basi                     0x00024f4b   Thumb Code    42  libmng_object_prc.o(.text)
    mng_free_ani_basi                        0x00024f75   Thumb Code    26  libmng_object_prc.o(.text)
    mng_create_ani_basi                      0x00024f8f   Thumb Code   112  libmng_object_prc.o(.text)
    mng_process_ani_clon                     0x00024fff   Thumb Code   106  libmng_object_prc.o(.text)
    mng_free_ani_clon                        0x00025069   Thumb Code    26  libmng_object_prc.o(.text)
    mng_create_ani_clon                      0x00025083   Thumb Code   148  libmng_object_prc.o(.text)
    mng_process_ani_back                     0x00025117   Thumb Code    82  libmng_object_prc.o(.text)
    mng_free_ani_back                        0x00025169   Thumb Code    26  libmng_object_prc.o(.text)
    mng_create_ani_back                      0x00025183   Thumb Code    94  libmng_object_prc.o(.text)
    mng_process_ani_fram                     0x000251e1   Thumb Code    92  libmng_object_prc.o(.text)
    mng_free_ani_fram                        0x0002523d   Thumb Code    26  libmng_object_prc.o(.text)
    mng_create_ani_fram                      0x00025257   Thumb Code   150  libmng_object_prc.o(.text)
    mng_process_ani_move                     0x000252ed   Thumb Code    38  libmng_object_prc.o(.text)
    mng_free_ani_move                        0x00025313   Thumb Code    26  libmng_object_prc.o(.text)
    mng_create_ani_move                      0x0002532d   Thumb Code   104  libmng_object_prc.o(.text)
    mng_process_ani_clip                     0x00025395   Thumb Code    48  libmng_object_prc.o(.text)
    mng_free_ani_clip                        0x000253c5   Thumb Code    26  libmng_object_prc.o(.text)
    mng_create_ani_clip                      0x000253df   Thumb Code   158  libmng_object_prc.o(.text)
    mng_process_ani_show                     0x0002547d   Thumb Code    72  libmng_object_prc.o(.text)
    mng_free_ani_show                        0x000254c5   Thumb Code    26  libmng_object_prc.o(.text)
    mng_create_ani_show                      0x000254df   Thumb Code    82  libmng_object_prc.o(.text)
    mng_process_ani_term                     0x00025531   Thumb Code     6  libmng_object_prc.o(.text)
    mng_free_ani_term                        0x00025537   Thumb Code    26  libmng_object_prc.o(.text)
    mng_create_ani_term                      0x00025551   Thumb Code    84  libmng_object_prc.o(.text)
    mng_process_ani_save                     0x000255a5   Thumb Code    26  libmng_object_prc.o(.text)
    mng_free_ani_save                        0x000255bf   Thumb Code    26  libmng_object_prc.o(.text)
    mng_create_ani_save                      0x000255d9   Thumb Code    64  libmng_object_prc.o(.text)
    mng_process_ani_seek                     0x00025619   Thumb Code   168  libmng_object_prc.o(.text)
    mng_free_ani_seek                        0x000256c1   Thumb Code    56  libmng_object_prc.o(.text)
    mng_create_ani_seek                      0x000256f9   Thumb Code   126  libmng_object_prc.o(.text)
    mng_process_ani_dhdr                     0x00025777   Thumb Code    54  libmng_object_prc.o(.text)
    mng_free_ani_dhdr                        0x000257ad   Thumb Code    26  libmng_object_prc.o(.text)
    mng_create_ani_dhdr                      0x000257c7   Thumb Code   116  libmng_object_prc.o(.text)
    mng_process_ani_prom                     0x0002583b   Thumb Code    28  libmng_object_prc.o(.text)
    mng_free_ani_prom                        0x00025857   Thumb Code    26  libmng_object_prc.o(.text)
    mng_create_ani_prom                      0x00025871   Thumb Code   144  libmng_object_prc.o(.text)
    mng_process_ani_ipng                     0x00025901   Thumb Code    26  libmng_object_prc.o(.text)
    mng_free_ani_ipng                        0x0002591b   Thumb Code    26  libmng_object_prc.o(.text)
    mng_create_ani_ipng                      0x00025935   Thumb Code    64  libmng_object_prc.o(.text)
    mng_process_ani_pplt                     0x00025975   Thumb Code    44  libmng_object_prc.o(.text)
    mng_free_ani_pplt                        0x000259a1   Thumb Code    26  libmng_object_prc.o(.text)
    mng_create_ani_pplt                      0x000259bb   Thumb Code   138  libmng_object_prc.o(.text)
    mng_process_ani_magn                     0x00025a45   Thumb Code    60  libmng_object_prc.o(.text)
    mng_free_ani_magn                        0x00025a81   Thumb Code    26  libmng_object_prc.o(.text)
    mng_create_ani_magn                      0x00025a9b   Thumb Code   156  libmng_object_prc.o(.text)
    mng_process_ani_past                     0x00025b37   Thumb Code    38  libmng_object_prc.o(.text)
    mng_free_ani_past                        0x00025b5d   Thumb Code    58  libmng_object_prc.o(.text)
    mng_create_ani_past                      0x00025b97   Thumb Code   158  libmng_object_prc.o(.text)
    mng_process_ani_disc                     0x00025c35   Thumb Code    26  libmng_object_prc.o(.text)
    mng_free_ani_disc                        0x00025c4f   Thumb Code    56  libmng_object_prc.o(.text)
    mng_create_ani_disc                      0x00025c87   Thumb Code   178  libmng_object_prc.o(.text)
    mng_process_event                        0x00025d39   Thumb Code   174  libmng_object_prc.o(.text)
    mng_free_event                           0x00025de7   Thumb Code    56  libmng_object_prc.o(.text)
    mng_create_event                         0x00025e1f   Thumb Code   200  libmng_object_prc.o(.text)
    mng_display_progressive_check            0x00025ef9   Thumb Code   120  libmng_pixels.o(.text)
    mng_display_rgb8                         0x00026019   Thumb Code   970  libmng_pixels.o(.text)
    mng_display_rgba8                        0x000263e3   Thumb Code  1490  libmng_pixels.o(.text)
    mng_display_rgba8_pm                     0x000269b5   Thumb Code  1058  libmng_pixels.o(.text)
    mng_display_argb8                        0x00026dd7   Thumb Code  1360  libmng_pixels.o(.text)
    mng_display_argb8_pm                     0x00027327   Thumb Code  1068  libmng_pixels.o(.text)
    mng_display_rgb8_a8                      0x00027753   Thumb Code  1630  libmng_pixels.o(.text)
    mng_display_bgr8                         0x00027db1   Thumb Code   970  libmng_pixels.o(.text)
    mng_display_bgrx8                        0x0002817b   Thumb Code  1004  libmng_pixels.o(.text)
    mng_display_bgra8                        0x00028567   Thumb Code  1478  libmng_pixels.o(.text)
    mng_display_bgra8_pm                     0x00028b2d   Thumb Code  1068  libmng_pixels.o(.text)
    mng_display_abgr8                        0x00028f59   Thumb Code  1484  libmng_pixels.o(.text)
    mng_display_abgr8_pm                     0x00029525   Thumb Code  1058  libmng_pixels.o(.text)
    mng_display_bgr565                       0x00029947   Thumb Code  1186  libmng_pixels.o(.text)
    mng_display_rgb565                       0x00029de9   Thumb Code  1186  libmng_pixels.o(.text)
    mng_display_bgra565                      0x0002a28b   Thumb Code  1738  libmng_pixels.o(.text)
    mng_display_rgba565                      0x0002a955   Thumb Code  1732  libmng_pixels.o(.text)
    mng_display_bgr565_a8                    0x0002b019   Thumb Code  1832  libmng_pixels.o(.text)
    mng_display_rgb555                       0x0002b741   Thumb Code  1200  libmng_pixels.o(.text)
    mng_display_bgr555                       0x0002bbf1   Thumb Code  1206  libmng_pixels.o(.text)
    mng_restore_bkgd_backimage               0x0002c0a7   Thumb Code   474  libmng_pixels.o(.text)
    mng_restore_bkgd_backcolor               0x0002c281   Thumb Code    88  libmng_pixels.o(.text)
    mng_restore_bkgd_bkgd                    0x0002c2d9   Thumb Code   370  libmng_pixels.o(.text)
    mng_restore_bkgd_bgcolor                 0x0002c44b   Thumb Code    76  libmng_pixels.o(.text)
    mng_restore_bkgd_rgb8                    0x0002c497   Thumb Code   114  libmng_pixels.o(.text)
    mng_restore_bkgd_bgr8                    0x0002c509   Thumb Code   114  libmng_pixels.o(.text)
    mng_restore_bkgd_bgrx8                   0x0002c57b   Thumb Code   114  libmng_pixels.o(.text)
    mng_restore_bkgd_bgr565                  0x0002c5ed   Thumb Code   134  libmng_pixels.o(.text)
    mng_restore_bkgd_rgb565                  0x0002c673   Thumb Code   146  libmng_pixels.o(.text)
    mng_retrieve_g8                          0x0002c705   Thumb Code   226  libmng_pixels.o(.text)
    mng_retrieve_g16                         0x0002c7e7   Thumb Code   252  libmng_pixels.o(.text)
    mng_retrieve_rgb8                        0x0002c8e3   Thumb Code   220  libmng_pixels.o(.text)
    mng_retrieve_rgb16                       0x0002c9bf   Thumb Code   370  libmng_pixels.o(.text)
    mng_retrieve_idx8                        0x0002cb31   Thumb Code   296  libmng_pixels.o(.text)
    mng_retrieve_ga8                         0x0002cc59   Thumb Code    88  libmng_pixels.o(.text)
    mng_retrieve_ga16                        0x0002ccb1   Thumb Code   132  libmng_pixels.o(.text)
    mng_retrieve_rgba8                       0x0002cd35   Thumb Code    70  libmng_pixels.o(.text)
    mng_retrieve_rgba16                      0x0002cd7b   Thumb Code    70  libmng_pixels.o(.text)
    mng_store_g1                             0x0002cdc1   Thumb Code   160  libmng_pixels.o(.text)
    mng_store_g2                             0x0002ce61   Thumb Code   182  libmng_pixels.o(.text)
    mng_store_g4                             0x0002cf17   Thumb Code   188  libmng_pixels.o(.text)
    mng_store_g8                             0x0002cfd3   Thumb Code   116  libmng_pixels.o(.text)
    mng_store_g16                            0x0002d047   Thumb Code   142  libmng_pixels.o(.text)
    mng_store_rgb8                           0x0002d0d5   Thumb Code   128  libmng_pixels.o(.text)
    mng_store_rgb16                          0x0002d155   Thumb Code   136  libmng_pixels.o(.text)
    mng_store_idx1                           0x0002d1dd   Thumb Code   160  libmng_pixels.o(.text)
    mng_store_idx2                           0x0002d27d   Thumb Code   168  libmng_pixels.o(.text)
    mng_store_idx4                           0x0002d325   Thumb Code   168  libmng_pixels.o(.text)
    mng_store_idx8                           0x0002d3cd   Thumb Code   116  libmng_pixels.o(.text)
    mng_store_ga8                            0x0002d441   Thumb Code   122  libmng_pixels.o(.text)
    mng_store_ga16                           0x0002d4bb   Thumb Code   134  libmng_pixels.o(.text)
    mng_store_rgba8                          0x0002d541   Thumb Code   130  libmng_pixels.o(.text)
    mng_store_rgba16                         0x0002d5c3   Thumb Code   134  libmng_pixels.o(.text)
    mng_delta_g1                             0x0002d649   Thumb Code   294  libmng_pixels.o(.text)
    mng_delta_g2                             0x0002d76f   Thumb Code   406  libmng_pixels.o(.text)
    mng_delta_g4                             0x0002d905   Thumb Code   358  libmng_pixels.o(.text)
    mng_delta_g8                             0x0002da6b   Thumb Code   234  libmng_pixels.o(.text)
    mng_delta_g16                            0x0002db55   Thumb Code   284  libmng_pixels.o(.text)
    mng_delta_rgb8                           0x0002dc71   Thumb Code   266  libmng_pixels.o(.text)
    mng_delta_rgb16                          0x0002dd7b   Thumb Code   372  libmng_pixels.o(.text)
    mng_delta_idx1                           0x0002deef   Thumb Code   294  libmng_pixels.o(.text)
    mng_delta_idx2                           0x0002e015   Thumb Code   320  libmng_pixels.o(.text)
    mng_delta_idx4                           0x0002e155   Thumb Code   320  libmng_pixels.o(.text)
    mng_delta_idx8                           0x0002e295   Thumb Code   234  libmng_pixels.o(.text)
    mng_delta_ga8                            0x0002e37f   Thumb Code   250  libmng_pixels.o(.text)
    mng_delta_ga16                           0x0002e479   Thumb Code   326  libmng_pixels.o(.text)
    mng_delta_rgba8                          0x0002e5bf   Thumb Code   274  libmng_pixels.o(.text)
    mng_delta_rgba16                         0x0002e6d1   Thumb Code   372  libmng_pixels.o(.text)
    mng_delta_g1_g1                          0x0002e845   Thumb Code   178  libmng_pixels.o(.text)
    mng_delta_g2_g2                          0x0002e8f7   Thumb Code   178  libmng_pixels.o(.text)
    mng_delta_g4_g4                          0x0002e9a9   Thumb Code   178  libmng_pixels.o(.text)
    mng_delta_g8_g8                          0x0002ea5b   Thumb Code   174  libmng_pixels.o(.text)
    mng_delta_g16_g16                        0x0002eb09   Thumb Code   208  libmng_pixels.o(.text)
    mng_delta_rgb8_rgb8                      0x0002ebd9   Thumb Code   182  libmng_pixels.o(.text)
    mng_delta_rgb16_rgb16                    0x0002ec8f   Thumb Code   270  libmng_pixels.o(.text)
    mng_delta_ga8_ga8                        0x0002ed9d   Thumb Code   178  libmng_pixels.o(.text)
    mng_delta_ga8_g8                         0x0002ee4f   Thumb Code   156  libmng_pixels.o(.text)
    mng_delta_ga8_a8                         0x0002eeeb   Thumb Code   158  libmng_pixels.o(.text)
    mng_delta_ga16_ga16                      0x0002ef89   Thumb Code   238  libmng_pixels.o(.text)
    mng_delta_ga16_g16                       0x0002f077   Thumb Code   218  libmng_pixels.o(.text)
    mng_delta_ga16_a16                       0x0002f151   Thumb Code   218  libmng_pixels.o(.text)
    mng_delta_rgba8_rgba8                    0x0002f22b   Thumb Code   178  libmng_pixels.o(.text)
    mng_delta_rgba8_rgb8                     0x0002f2dd   Thumb Code   180  libmng_pixels.o(.text)
    mng_delta_rgba8_a8                       0x0002f391   Thumb Code   158  libmng_pixels.o(.text)
    mng_delta_rgba16_rgba16                  0x0002f42f   Thumb Code   298  libmng_pixels.o(.text)
    mng_delta_rgba16_rgb16                   0x0002f559   Thumb Code   314  libmng_pixels.o(.text)
    mng_delta_rgba16_a16                     0x0002f693   Thumb Code   218  libmng_pixels.o(.text)
    mng_scale_g1_g2                          0x0002f76d   Thumb Code    42  libmng_pixels.o(.text)
    mng_scale_g1_g4                          0x0002f797   Thumb Code    42  libmng_pixels.o(.text)
    mng_scale_g1_g8                          0x0002f7c1   Thumb Code    42  libmng_pixels.o(.text)
    mng_scale_g1_g16                         0x0002f7eb   Thumb Code    84  libmng_pixels.o(.text)
    mng_scale_g2_g4                          0x0002f83f   Thumb Code    42  libmng_pixels.o(.text)
    mng_scale_g2_g8                          0x0002f869   Thumb Code    42  libmng_pixels.o(.text)
    mng_scale_g2_g16                         0x0002f893   Thumb Code    84  libmng_pixels.o(.text)
    mng_scale_g4_g8                          0x0002f8e7   Thumb Code    42  libmng_pixels.o(.text)
    mng_scale_g4_g16                         0x0002f911   Thumb Code    84  libmng_pixels.o(.text)
    mng_scale_g8_g16                         0x0002f965   Thumb Code    80  libmng_pixels.o(.text)
    mng_scale_ga8_ga16                       0x0002f9b5   Thumb Code    90  libmng_pixels.o(.text)
    mng_scale_rgb8_rgb16                     0x0002fa0f   Thumb Code   102  libmng_pixels.o(.text)
    mng_scale_rgba8_rgba16                   0x0002fa75   Thumb Code   106  libmng_pixels.o(.text)
    mng_scale_g2_g1                          0x0002fadf   Thumb Code    40  libmng_pixels.o(.text)
    mng_scale_g4_g1                          0x0002fb07   Thumb Code    40  libmng_pixels.o(.text)
    mng_scale_g8_g1                          0x0002fb2f   Thumb Code    40  libmng_pixels.o(.text)
    mng_scale_g16_g1                         0x0002fb57   Thumb Code    58  libmng_pixels.o(.text)
    mng_scale_g4_g2                          0x0002fb91   Thumb Code    40  libmng_pixels.o(.text)
    mng_scale_g8_g2                          0x0002fbb9   Thumb Code    40  libmng_pixels.o(.text)
    mng_scale_g16_g2                         0x0002fbe1   Thumb Code    58  libmng_pixels.o(.text)
    mng_scale_g8_g4                          0x0002fc1b   Thumb Code    40  libmng_pixels.o(.text)
    mng_scale_g16_g4                         0x0002fc43   Thumb Code    58  libmng_pixels.o(.text)
    mng_scale_g16_g8                         0x0002fc7d   Thumb Code    58  libmng_pixels.o(.text)
    mng_scale_ga16_ga8                       0x0002fcb7   Thumb Code    74  libmng_pixels.o(.text)
    mng_scale_rgb16_rgb8                     0x0002fd01   Thumb Code    90  libmng_pixels.o(.text)
    mng_scale_rgba16_rgba8                   0x0002fd5b   Thumb Code   106  libmng_pixels.o(.text)
    mng_promote_replicate_1_2                0x0002fdc5   Thumb Code    12  libmng_pixels.o(.text)
    mng_promote_replicate_1_4                0x0002fdd1   Thumb Code    20  libmng_pixels.o(.text)
    mng_promote_replicate_1_8                0x0002fde5   Thumb Code    28  libmng_pixels.o(.text)
    mng_promote_replicate_1_16               0x0002fe01   Thumb Code    36  libmng_pixels.o(.text)
    mng_promote_replicate_2_4                0x0002fe25   Thumb Code    12  libmng_pixels.o(.text)
    mng_promote_replicate_2_8                0x0002fe31   Thumb Code    20  libmng_pixels.o(.text)
    mng_promote_replicate_2_16               0x0002fe45   Thumb Code    28  libmng_pixels.o(.text)
    mng_promote_replicate_4_8                0x0002fe61   Thumb Code    12  libmng_pixels.o(.text)
    mng_promote_replicate_4_16               0x0002fe6d   Thumb Code    20  libmng_pixels.o(.text)
    mng_promote_replicate_8_16               0x0002fe81   Thumb Code    12  libmng_pixels.o(.text)
    mng_promote_zerofill_1_2                 0x0002fe8d   Thumb Code     8  libmng_pixels.o(.text)
    mng_promote_zerofill_1_4                 0x0002fe95   Thumb Code     8  libmng_pixels.o(.text)
    mng_promote_zerofill_1_8                 0x0002fe9d   Thumb Code     8  libmng_pixels.o(.text)
    mng_promote_zerofill_1_16                0x0002fea5   Thumb Code     8  libmng_pixels.o(.text)
    mng_promote_zerofill_2_4                 0x0002fead   Thumb Code     8  libmng_pixels.o(.text)
    mng_promote_zerofill_2_8                 0x0002feb5   Thumb Code     8  libmng_pixels.o(.text)
    mng_promote_zerofill_2_16                0x0002febd   Thumb Code     8  libmng_pixels.o(.text)
    mng_promote_zerofill_4_8                 0x0002fec5   Thumb Code     8  libmng_pixels.o(.text)
    mng_promote_zerofill_4_16                0x0002fecd   Thumb Code     8  libmng_pixels.o(.text)
    mng_promote_zerofill_8_16                0x0002fed5   Thumb Code     6  libmng_pixels.o(.text)
    mng_promote_g8_g8                        0x0002fedb   Thumb Code    84  libmng_pixels.o(.text)
    mng_promote_g8_g16                       0x0002ff2f   Thumb Code    82  libmng_pixels.o(.text)
    mng_promote_g16_g16                      0x0002ff81   Thumb Code    50  libmng_pixels.o(.text)
    mng_promote_g8_ga8                       0x0002ffb3   Thumb Code   126  libmng_pixels.o(.text)
    mng_promote_g8_ga16                      0x00030031   Thumb Code   136  libmng_pixels.o(.text)
    mng_promote_g16_ga16                     0x000300b9   Thumb Code    84  libmng_pixels.o(.text)
    mng_promote_g8_rgb8                      0x0003010d   Thumb Code    88  libmng_pixels.o(.text)
    mng_promote_g8_rgb16                     0x00030165   Thumb Code   106  libmng_pixels.o(.text)
    mng_promote_g16_rgb16                    0x000301cf   Thumb Code    54  libmng_pixels.o(.text)
    mng_promote_g8_rgba8                     0x00030205   Thumb Code   130  libmng_pixels.o(.text)
    mng_promote_g8_rgba16                    0x00030287   Thumb Code   148  libmng_pixels.o(.text)
    mng_promote_g16_rgba16                   0x0003031b   Thumb Code    88  libmng_pixels.o(.text)
    mng_promote_ga8_ga16                     0x00030373   Thumb Code   126  libmng_pixels.o(.text)
    mng_promote_ga8_rgba8                    0x000303f1   Thumb Code    58  libmng_pixels.o(.text)
    mng_promote_ga8_rgba16                   0x0003042b   Thumb Code   160  libmng_pixels.o(.text)
    mng_promote_ga16_rgba16                  0x000304cb   Thumb Code    58  libmng_pixels.o(.text)
    mng_promote_rgb8_rgb16                   0x00030505   Thumb Code   178  libmng_pixels.o(.text)
    mng_promote_rgb8_rgba8                   0x000305b7   Thumb Code   132  libmng_pixels.o(.text)
    mng_promote_rgb8_rgba16                  0x0003063b   Thumb Code   276  libmng_pixels.o(.text)
    mng_promote_rgb16_rgba16                 0x0003074f   Thumb Code   134  libmng_pixels.o(.text)
    mng_promote_idx8_rgb8                    0x000307d5   Thumb Code   102  libmng_pixels.o(.text)
    mng_promote_idx8_rgb16                   0x0003083b   Thumb Code   234  libmng_pixels.o(.text)
    mng_promote_idx8_rgba8                   0x00030925   Thumb Code   138  libmng_pixels.o(.text)
    mng_promote_idx8_rgba16                  0x000309af   Thumb Code   322  libmng_pixels.o(.text)
    mng_promote_rgba8_rgba16                 0x00030af1   Thumb Code   226  libmng_pixels.o(.text)
    mng_process_g1                           0x00030bd3   Thumb Code   322  libmng_pixels.o(.text)
    mng_process_g2                           0x00030d15   Thumb Code   386  libmng_pixels.o(.text)
    mng_process_g4                           0x00030e97   Thumb Code   302  libmng_pixels.o(.text)
    mng_process_g8                           0x00030fc5   Thumb Code   172  libmng_pixels.o(.text)
    mng_process_g16                          0x00031071   Thumb Code   282  libmng_pixels.o(.text)
    mng_process_rgb8                         0x0003118b   Thumb Code   260  libmng_pixels.o(.text)
    mng_process_rgb16                        0x0003128f   Thumb Code   392  libmng_pixels.o(.text)
    mng_process_idx1                         0x00031417   Thumb Code   430  libmng_pixels.o(.text)
    mng_process_idx2                         0x000315c5   Thumb Code   426  libmng_pixels.o(.text)
    mng_process_idx4                         0x0003176f   Thumb Code   430  libmng_pixels.o(.text)
    mng_process_idx8                         0x0003191d   Thumb Code   324  libmng_pixels.o(.text)
    mng_process_ga8                          0x00031a61   Thumb Code    80  libmng_pixels.o(.text)
    mng_process_ga16                         0x00031ab1   Thumb Code   112  libmng_pixels.o(.text)
    mng_process_rgba8                        0x00031b21   Thumb Code    54  libmng_pixels.o(.text)
    mng_process_rgba16                       0x00031b57   Thumb Code    54  libmng_pixels.o(.text)
    mng_init_rowproc                         0x00031b8d   Thumb Code   268  libmng_pixels.o(.text)
    mng_init_g1_ni                           0x00031c99   Thumb Code   250  libmng_pixels.o(.text)
    mng_init_g1_i                            0x00031d93   Thumb Code   282  libmng_pixels.o(.text)
    mng_init_g2_ni                           0x00031ead   Thumb Code   250  libmng_pixels.o(.text)
    mng_init_g2_i                            0x00031fa7   Thumb Code   312  libmng_pixels.o(.text)
    mng_init_g4_ni                           0x000320df   Thumb Code   246  libmng_pixels.o(.text)
    mng_init_g4_i                            0x000321d5   Thumb Code   278  libmng_pixels.o(.text)
    mng_init_g8_ni                           0x000322eb   Thumb Code   244  libmng_pixels.o(.text)
    mng_init_g8_i                            0x000323df   Thumb Code   302  libmng_pixels.o(.text)
    mng_init_g16_ni                          0x0003250d   Thumb Code   246  libmng_pixels.o(.text)
    mng_init_g16_i                           0x00032603   Thumb Code   276  libmng_pixels.o(.text)
    mng_init_rgb8_ni                         0x00032717   Thumb Code   248  libmng_pixels.o(.text)
    mng_init_rgb8_i                          0x0003280f   Thumb Code   312  libmng_pixels.o(.text)
    mng_init_rgb16_ni                        0x00032947   Thumb Code   248  libmng_pixels.o(.text)
    mng_init_rgb16_i                         0x00032a3f   Thumb Code   278  libmng_pixels.o(.text)
    mng_init_idx1_ni                         0x00032b55   Thumb Code   250  libmng_pixels.o(.text)
    mng_init_idx1_i                          0x00032c4f   Thumb Code   314  libmng_pixels.o(.text)
    mng_init_idx2_ni                         0x00032d89   Thumb Code   250  libmng_pixels.o(.text)
    mng_init_idx2_i                          0x00032e83   Thumb Code   282  libmng_pixels.o(.text)
    mng_init_idx4_ni                         0x00032f9d   Thumb Code   246  libmng_pixels.o(.text)
    mng_init_idx4_i                          0x00033093   Thumb Code   308  libmng_pixels.o(.text)
    mng_init_idx8_ni                         0x000331c7   Thumb Code   244  libmng_pixels.o(.text)
    mng_init_idx8_i                          0x000332bb   Thumb Code   272  libmng_pixels.o(.text)
    mng_init_ga8_ni                          0x000333cb   Thumb Code   246  libmng_pixels.o(.text)
    mng_init_ga8_i                           0x000334c1   Thumb Code   308  libmng_pixels.o(.text)
    mng_init_ga16_ni                         0x000335f5   Thumb Code   246  libmng_pixels.o(.text)
    mng_init_ga16_i                          0x000336eb   Thumb Code   276  libmng_pixels.o(.text)
    mng_init_rgba8_ni                        0x000337ff   Thumb Code   246  libmng_pixels.o(.text)
    mng_init_rgba8_i                         0x000338f5   Thumb Code   306  libmng_pixels.o(.text)
    mng_init_rgba16_ni                       0x00033a27   Thumb Code   246  libmng_pixels.o(.text)
    mng_init_rgba16_i                        0x00033b1d   Thumb Code   276  libmng_pixels.o(.text)
    mng_next_row                             0x00033c31   Thumb Code   500  libmng_pixels.o(.text)
    mng_cleanup_rowproc                      0x00033e25   Thumb Code   176  libmng_pixels.o(.text)
    mng_magnify_g8_x1                        0x00033ed5   Thumb Code    74  libmng_pixels.o(.text)
    mng_magnify_g8_x2                        0x00033f1f   Thumb Code   194  libmng_pixels.o(.text)
    mng_magnify_g8_x3                        0x00033fe1   Thumb Code   182  libmng_pixels.o(.text)
    mng_magnify_rgb8_x1                      0x00034097   Thumb Code    98  libmng_pixels.o(.text)
    mng_magnify_rgb8_x2                      0x000340f9   Thumb Code   294  libmng_pixels.o(.text)
    mng_magnify_rgb8_x3                      0x0003421f   Thumb Code   196  libmng_pixels.o(.text)
    mng_magnify_ga8_x1                       0x000342e3   Thumb Code    86  libmng_pixels.o(.text)
    mng_magnify_ga8_x2                       0x00034339   Thumb Code   236  libmng_pixels.o(.text)
    mng_magnify_ga8_x3                       0x00034425   Thumb Code   176  libmng_pixels.o(.text)
    mng_magnify_ga8_x4                       0x000344d5   Thumb Code   272  libmng_pixels.o(.text)
    mng_magnify_ga8_x5                       0x000345e5   Thumb Code   272  libmng_pixels.o(.text)
    mng_magnify_rgba8_x1                     0x000346f5   Thumb Code   110  libmng_pixels.o(.text)
    mng_magnify_rgba8_x2                     0x00034763   Thumb Code   350  libmng_pixels.o(.text)
    mng_magnify_rgba8_x3                     0x000348c1   Thumb Code   216  libmng_pixels.o(.text)
    mng_magnify_rgba8_x4                     0x00034999   Thumb Code   478  libmng_pixels.o(.text)
    mng_magnify_rgba8_x5                     0x00034b77   Thumb Code   310  libmng_pixels.o(.text)
    mng_magnify_g8_y1                        0x00034cad   Thumb Code    26  libmng_pixels.o(.text)
    mng_magnify_g8_y2                        0x00034cc7   Thumb Code   102  libmng_pixels.o(.text)
    mng_magnify_g8_y3                        0x00034d2d   Thumb Code    72  libmng_pixels.o(.text)
    mng_magnify_rgb8_y1                      0x00034d75   Thumb Code    28  libmng_pixels.o(.text)
    mng_magnify_rgb8_y2                      0x00034d91   Thumb Code   202  libmng_pixels.o(.text)
    mng_magnify_rgb8_y3                      0x00034e5b   Thumb Code    78  libmng_pixels.o(.text)
    mng_magnify_ga8_y1                       0x00034ea9   Thumb Code    26  libmng_pixels.o(.text)
    mng_magnify_ga8_y2                       0x00034ec3   Thumb Code   152  libmng_pixels.o(.text)
    mng_magnify_ga8_y3                       0x00034f5b   Thumb Code    72  libmng_pixels.o(.text)
    mng_magnify_ga8_y4                       0x00034fa3   Thumb Code   204  libmng_pixels.o(.text)
    mng_magnify_ga8_y5                       0x0003506f   Thumb Code   208  libmng_pixels.o(.text)
    mng_magnify_rgba8_y1                     0x0003513f   Thumb Code    26  libmng_pixels.o(.text)
    mng_magnify_rgba8_y2                     0x00035159   Thumb Code   248  libmng_pixels.o(.text)
    mng_magnify_rgba8_y3                     0x00035251   Thumb Code    72  libmng_pixels.o(.text)
    mng_magnify_rgba8_y4                     0x00035299   Thumb Code   400  libmng_pixels.o(.text)
    mng_magnify_rgba8_y5                     0x00035429   Thumb Code   240  libmng_pixels.o(.text)
    mng_magnify_g16_x1                       0x00035519   Thumb Code    74  libmng_pixels.o(.text)
    mng_magnify_g16_x2                       0x00035563   Thumb Code   272  libmng_pixels.o(.text)
    mng_magnify_g16_x3                       0x00035673   Thumb Code   182  libmng_pixels.o(.text)
    mng_magnify_rgb16_x1                     0x00035729   Thumb Code    98  libmng_pixels.o(.text)
    mng_magnify_rgb16_x2                     0x0003578b   Thumb Code   464  libmng_pixels.o(.text)
    mng_magnify_rgb16_x3                     0x0003595b   Thumb Code   196  libmng_pixels.o(.text)
    mng_magnify_ga16_x1                      0x00035a1f   Thumb Code    86  libmng_pixels.o(.text)
    mng_magnify_ga16_x2                      0x00035a75   Thumb Code   354  libmng_pixels.o(.text)
    mng_magnify_ga16_x3                      0x00035bd7   Thumb Code   176  libmng_pixels.o(.text)
    mng_magnify_ga16_x4                      0x00035c87   Thumb Code   398  libmng_pixels.o(.text)
    mng_magnify_ga16_x5                      0x00035e15   Thumb Code   414  libmng_pixels.o(.text)
    mng_magnify_rgba16_x1                    0x00035fb3   Thumb Code   110  libmng_pixels.o(.text)
    mng_magnify_rgba16_x2                    0x00036021   Thumb Code   566  libmng_pixels.o(.text)
    mng_magnify_rgba16_x3                    0x00036257   Thumb Code   218  libmng_pixels.o(.text)
    mng_magnify_rgba16_x4                    0x00036331   Thumb Code   782  libmng_pixels.o(.text)
    mng_magnify_rgba16_x5                    0x0003663f   Thumb Code   466  libmng_pixels.o(.text)
    mng_magnify_g16_y1                       0x00036811   Thumb Code    26  libmng_pixels.o(.text)
    mng_magnify_g16_y2                       0x0003682b   Thumb Code   152  libmng_pixels.o(.text)
    mng_magnify_g16_y3                       0x000368c3   Thumb Code    72  libmng_pixels.o(.text)
    mng_magnify_rgb16_y1                     0x0003690b   Thumb Code    28  libmng_pixels.o(.text)
    mng_magnify_rgb16_y2                     0x00036927   Thumb Code   344  libmng_pixels.o(.text)
    mng_magnify_rgb16_y3                     0x00036a7f   Thumb Code    78  libmng_pixels.o(.text)
    mng_magnify_ga16_y1                      0x00036acd   Thumb Code    26  libmng_pixels.o(.text)
    mng_magnify_ga16_y2                      0x00036ae7   Thumb Code   244  libmng_pixels.o(.text)
    mng_magnify_ga16_y3                      0x00036bdb   Thumb Code    72  libmng_pixels.o(.text)
    mng_magnify_ga16_y4                      0x00036c23   Thumb Code   314  libmng_pixels.o(.text)
    mng_magnify_ga16_y5                      0x00036d5d   Thumb Code   326  libmng_pixels.o(.text)
    mng_magnify_rgba16_y1                    0x00036ea3   Thumb Code    26  libmng_pixels.o(.text)
    mng_magnify_rgba16_y2                    0x00036ebd   Thumb Code   434  libmng_pixels.o(.text)
    mng_magnify_rgba16_y3                    0x0003706f   Thumb Code    72  libmng_pixels.o(.text)
    mng_magnify_rgba16_y4                    0x000370b7   Thumb Code   686  libmng_pixels.o(.text)
    mng_magnify_rgba16_y5                    0x00037365   Thumb Code   382  libmng_pixels.o(.text)
    mng_composeover_rgba8                    0x000374e3   Thumb Code   456  libmng_pixels.o(.text)
    mng_composeover_rgba16                   0x000376ab   Thumb Code   552  libmng_pixels.o(.text)
    mng_composeunder_rgba8                   0x000378d3   Thumb Code   424  libmng_pixels.o(.text)
    mng_composeunder_rgba16                  0x00037a7b   Thumb Code   530  libmng_pixels.o(.text)
    mng_flip_rgba8                           0x00037c8d   Thumb Code    88  libmng_pixels.o(.text)
    mng_flip_rgba16                          0x00037ce5   Thumb Code    92  libmng_pixels.o(.text)
    mng_tile_rgba8                           0x00037d41   Thumb Code   120  libmng_pixels.o(.text)
    mng_tile_rgba16                          0x00037db9   Thumb Code   124  libmng_pixels.o(.text)
    mng_set_userdata                         0x00037e3d   Thumb Code    24  libmng_prop_xs.o(.text)
    mng_set_canvasstyle                      0x00037e55   Thumb Code   200  libmng_prop_xs.o(.text)
    mng_set_bkgdstyle                        0x00037f1d   Thumb Code    84  libmng_prop_xs.o(.text)
    mng_set_bgcolor                          0x00037f71   Thumb Code    42  libmng_prop_xs.o(.text)
    mng_set_usebkgd                          0x00037f9b   Thumb Code    26  libmng_prop_xs.o(.text)
    mng_set_storechunks                      0x00037fb5   Thumb Code    26  libmng_prop_xs.o(.text)
    mng_set_sectionbreaks                    0x00037fcf   Thumb Code    26  libmng_prop_xs.o(.text)
    mng_set_cacheplayback                    0x00037fe9   Thumb Code    56  libmng_prop_xs.o(.text)
    mng_set_doprogressive                    0x00038021   Thumb Code    26  libmng_prop_xs.o(.text)
    mng_set_crcmode                          0x0003803b   Thumb Code    24  libmng_prop_xs.o(.text)
    mng_set_srgb                             0x00038053   Thumb Code    26  libmng_prop_xs.o(.text)
    mng_set_outputprofile                    0x0003806d   Thumb Code     6  libmng_prop_xs.o(.text)
    mng_set_outputprofile2                   0x00038073   Thumb Code     6  libmng_prop_xs.o(.text)
    mng_set_outputsrgb                       0x00038079   Thumb Code     6  libmng_prop_xs.o(.text)
    mng_set_srgbprofile                      0x0003807f   Thumb Code     6  libmng_prop_xs.o(.text)
    mng_set_srgbprofile2                     0x00038085   Thumb Code     6  libmng_prop_xs.o(.text)
    mng_set_srgbimplicit                     0x0003808b   Thumb Code     6  libmng_prop_xs.o(.text)
    mng_set_viewgamma                        0x00038091   Thumb Code    34  libmng_prop_xs.o(.text)
    mng_set_displaygamma                     0x000380b3   Thumb Code    34  libmng_prop_xs.o(.text)
    mng_set_dfltimggamma                     0x000380d5   Thumb Code    34  libmng_prop_xs.o(.text)
    mng_set_viewgammaint                     0x000380f7   Thumb Code    50  libmng_prop_xs.o(.text)
    mng_set_displaygammaint                  0x00038129   Thumb Code    50  libmng_prop_xs.o(.text)
    mng_set_dfltimggammaint                  0x0003815b   Thumb Code    50  libmng_prop_xs.o(.text)
    mng_set_maxcanvaswidth                   0x0003818d   Thumb Code    24  libmng_prop_xs.o(.text)
    mng_set_maxcanvasheight                  0x000381a5   Thumb Code    28  libmng_prop_xs.o(.text)
    mng_set_maxcanvassize                    0x000381c1   Thumb Code    72  libmng_prop_xs.o(.text)
    mng_set_suspensionmode                   0x00038209   Thumb Code    58  libmng_prop_xs.o(.text)
    mng_set_speed                            0x00038243   Thumb Code    24  libmng_prop_xs.o(.text)
    mng_get_userdata                         0x0003825b   Thumb Code    22  libmng_prop_xs.o(.text)
    mng_get_sigtype                          0x00038271   Thumb Code    22  libmng_prop_xs.o(.text)
    mng_get_imagetype                        0x00038287   Thumb Code    22  libmng_prop_xs.o(.text)
    mng_get_imagewidth                       0x0003829d   Thumb Code    22  libmng_prop_xs.o(.text)
    mng_get_imageheight                      0x000382b3   Thumb Code    22  libmng_prop_xs.o(.text)
    mng_get_ticks                            0x000382c9   Thumb Code    22  libmng_prop_xs.o(.text)
    mng_get_framecount                       0x000382df   Thumb Code    22  libmng_prop_xs.o(.text)
    mng_get_layercount                       0x000382f5   Thumb Code    22  libmng_prop_xs.o(.text)
    mng_get_playtime                         0x0003830b   Thumb Code    22  libmng_prop_xs.o(.text)
    mng_get_simplicity                       0x00038321   Thumb Code    22  libmng_prop_xs.o(.text)
    mng_get_bitdepth                         0x00038337   Thumb Code    38  libmng_prop_xs.o(.text)
    mng_get_colortype                        0x0003835d   Thumb Code    38  libmng_prop_xs.o(.text)
    mng_get_compression                      0x00038383   Thumb Code    38  libmng_prop_xs.o(.text)
    mng_get_filter                           0x000383a9   Thumb Code    38  libmng_prop_xs.o(.text)
    mng_get_interlace                        0x000383cf   Thumb Code    38  libmng_prop_xs.o(.text)
    mng_get_alphabitdepth                    0x000383f5   Thumb Code    24  libmng_prop_xs.o(.text)
    mng_get_refreshpass                      0x0003840d   Thumb Code    64  libmng_prop_xs.o(.text)
    mng_get_alphacompression                 0x0003844d   Thumb Code    24  libmng_prop_xs.o(.text)
    mng_get_alphafilter                      0x00038465   Thumb Code    24  libmng_prop_xs.o(.text)
    mng_get_alphainterlace                   0x0003847d   Thumb Code    24  libmng_prop_xs.o(.text)
    mng_get_alphadepth                       0x00038495   Thumb Code    24  libmng_prop_xs.o(.text)
    mng_get_canvasstyle                      0x000384ad   Thumb Code    22  libmng_prop_xs.o(.text)
    mng_get_bkgdstyle                        0x000384c3   Thumb Code    22  libmng_prop_xs.o(.text)
    mng_get_bgcolor                          0x000384d9   Thumb Code    42  libmng_prop_xs.o(.text)
    mng_get_usebkgd                          0x00038503   Thumb Code    24  libmng_prop_xs.o(.text)
    mng_get_storechunks                      0x0003851b   Thumb Code    24  libmng_prop_xs.o(.text)
    mng_get_sectionbreaks                    0x00038533   Thumb Code    24  libmng_prop_xs.o(.text)
    mng_get_cacheplayback                    0x0003854b   Thumb Code    24  libmng_prop_xs.o(.text)
    mng_get_doprogressive                    0x00038563   Thumb Code    24  libmng_prop_xs.o(.text)
    mng_get_crcmode                          0x0003857b   Thumb Code    22  libmng_prop_xs.o(.text)
    mng_get_srgb                             0x00038591   Thumb Code    24  libmng_prop_xs.o(.text)
    mng_get_viewgamma                        0x000385a9   Thumb Code    40  libmng_prop_xs.o(.text)
    mng_get_displaygamma                     0x000385d1   Thumb Code    26  libmng_prop_xs.o(.text)
    mng_get_dfltimggamma                     0x000385eb   Thumb Code    26  libmng_prop_xs.o(.text)
    mng_get_viewgammaint                     0x00038605   Thumb Code    42  libmng_prop_xs.o(.text)
    mng_get_displaygammaint                  0x0003862f   Thumb Code    42  libmng_prop_xs.o(.text)
    mng_get_dfltimggammaint                  0x00038659   Thumb Code    42  libmng_prop_xs.o(.text)
    mng_get_maxcanvaswidth                   0x00038683   Thumb Code    22  libmng_prop_xs.o(.text)
    mng_get_maxcanvasheight                  0x00038699   Thumb Code    26  libmng_prop_xs.o(.text)
    mng_get_suspensionmode                   0x000386b3   Thumb Code    26  libmng_prop_xs.o(.text)
    mng_get_speed                            0x000386cd   Thumb Code    22  libmng_prop_xs.o(.text)
    mng_get_imagelevel                       0x000386e3   Thumb Code    22  libmng_prop_xs.o(.text)
    mng_get_lastbackchunk                    0x000386f9   Thumb Code   110  libmng_prop_xs.o(.text)
    mng_get_lastseekname                     0x00038767   Thumb Code   100  libmng_prop_xs.o(.text)
    mng_get_currframdelay                    0x000387cb   Thumb Code    58  libmng_prop_xs.o(.text)
    mng_get_starttime                        0x00038805   Thumb Code    28  libmng_prop_xs.o(.text)
    mng_get_runtime                          0x00038821   Thumb Code    28  libmng_prop_xs.o(.text)
    mng_get_currentframe                     0x0003883d   Thumb Code    28  libmng_prop_xs.o(.text)
    mng_get_currentlayer                     0x00038859   Thumb Code    28  libmng_prop_xs.o(.text)
    mng_get_currentplaytime                  0x00038875   Thumb Code    28  libmng_prop_xs.o(.text)
    mng_get_totalframes                      0x00038891   Thumb Code    28  libmng_prop_xs.o(.text)
    mng_get_totallayers                      0x000388ad   Thumb Code    28  libmng_prop_xs.o(.text)
    mng_get_totalplaytime                    0x000388c9   Thumb Code    28  libmng_prop_xs.o(.text)
    mng_status_error                         0x000388e5   Thumb Code    30  libmng_prop_xs.o(.text)
    mng_status_reading                       0x00038903   Thumb Code    26  libmng_prop_xs.o(.text)
    mng_status_suspendbreak                  0x0003891d   Thumb Code    26  libmng_prop_xs.o(.text)
    mng_status_creating                      0x00038937   Thumb Code    26  libmng_prop_xs.o(.text)
    mng_status_writing                       0x00038951   Thumb Code    26  libmng_prop_xs.o(.text)
    mng_status_displaying                    0x0003896b   Thumb Code    38  libmng_prop_xs.o(.text)
    mng_status_running                       0x00038991   Thumb Code    26  libmng_prop_xs.o(.text)
    mng_status_timerbreak                    0x000389ab   Thumb Code    26  libmng_prop_xs.o(.text)
    mng_status_dynamic                       0x000389c5   Thumb Code    26  libmng_prop_xs.o(.text)
    mng_status_runningevent                  0x000389df   Thumb Code    26  libmng_prop_xs.o(.text)
    mng_process_eof                          0x000389fd   Thumb Code    66  libmng_read.o(.text)
    mng_release_pushdata                     0x00038a3f   Thumb Code    94  libmng_read.o(.text)
    mng_release_pushchunk                    0x00038a9d   Thumb Code    94  libmng_read.o(.text)
    mng_read_graphic                         0x0003988f   Thumb Code   428  libmng_read.o(.text)
    mng_drop_chunks                          0x00039a51   Thumb Code    42  libmng_write.o(.text)
    mng_write_graphic                        0x00039a7b   Thumb Code   532  libmng_write.o(.text)
    mngzlib_alloc                            0x00039cad   Thumb Code    40  libmng_zlib.o(.text)
    mngzlib_free                             0x00039cd5   Thumb Code    30  libmng_zlib.o(.text)
    mngzlib_initialize                       0x00039cf3   Thumb Code    44  libmng_zlib.o(.text)
    mngzlib_deflatefree                      0x00039d1f   Thumb Code    46  libmng_zlib.o(.text)
    mngzlib_inflatefree                      0x00039d4d   Thumb Code    48  libmng_zlib.o(.text)
    mngzlib_cleanup                          0x00039d7d   Thumb Code    44  libmng_zlib.o(.text)
    mngzlib_inflateinit                      0x00039da9   Thumb Code    58  libmng_zlib.o(.text)
    mngzlib_inflaterows                      0x00039de3   Thumb Code   746  libmng_zlib.o(.text)
    mngzlib_inflatedata                      0x0003a0cd   Thumb Code    80  libmng_zlib.o(.text)
    mngzlib_deflateinit                      0x0003a11d   Thumb Code   100  libmng_zlib.o(.text)
    mngzlib_deflaterows                      0x0003a181   Thumb Code     6  libmng_zlib.o(.text)
    mngzlib_deflatedata                      0x0003a187   Thumb Code    80  libmng_zlib.o(.text)
    QMngHandlerPrivate::readData(void*, unsigned, unsigned*) 0x0003a24d   Thumb Code    68  qmnghandler.o(.text)
    QMngHandlerPrivate::writeData(void*, unsigned, unsigned*) 0x0003a2b1   Thumb Code    54  qmnghandler.o(.text)
    QMngHandlerPrivate::processHeader(unsigned, unsigned) 0x0003a307   Thumb Code    68  qmnghandler.o(.text)
    QMngHandlerPrivate::~QMngHandlerPrivate() 0x0003a3f3   Thumb Code    26  qmnghandler.o(.text)
    QMngHandlerPrivate::~QMngHandlerPrivate__sub_object() 0x0003a3f3   Thumb Code     0  qmnghandler.o(.text)
    QMngHandlerPrivate::QMngHandlerPrivate(QMngHandler*) 0x0003a40d   Thumb Code   180  qmnghandler.o(.text)
    QMngHandlerPrivate::QMngHandlerPrivate__sub_object(QMngHandler*) 0x0003a40d   Thumb Code     0  qmnghandler.o(.text)
    QMngHandler::QMngHandler()               0x0003a4c1   Thumb Code    52  qmnghandler.o(.text)
    QMngHandler::QMngHandler__sub_object()   0x0003a4c1   Thumb Code     0  qmnghandler.o(.text)
    QMngHandler::~QMngHandler()              0x0003a4f5   Thumb Code    30  qmnghandler.o(.text)
    QMngHandler::~QMngHandler__sub_object()  0x0003a4f5   Thumb Code     0  qmnghandler.o(.text)
    QMngHandler::~QMngHandler__deallocating() 0x0003a513   Thumb Code    22  qmnghandler.o(.text)
    QMngHandler::canRead(QIODevice*)         0x0003a529   Thumb Code    88  qmnghandler.o(.text)
    QMngHandler::canRead() const             0x0003a581   Thumb Code   328  qmnghandler.o(.text)
    QMngHandler::name() const                0x0003a6c9   Thumb Code    18  qmnghandler.o(.text)
    QMngHandlerPrivate::getNextImage(QImage*) 0x0003a6db   Thumb Code    84  qmnghandler.o(.text)
    QMngHandler::read(QImage*)               0x0003a72f   Thumb Code    46  qmnghandler.o(.text)
    QMngHandlerPrivate::writeImage(const QImage&) 0x0003a75d   Thumb Code   238  qmnghandler.o(.text)
    QMngHandler::write(const QImage&)        0x0003a84b   Thumb Code    30  qmnghandler.o(.text)
    QMngHandlerPrivate::currentImageNumber() const 0x0003a869   Thumb Code     6  qmnghandler.o(.text)
    QMngHandler::currentImageNumber() const  0x0003a86f   Thumb Code    26  qmnghandler.o(.text)
    QMngHandlerPrivate::imageCount() const   0x0003a889   Thumb Code    16  qmnghandler.o(.text)
    QMngHandler::imageCount() const          0x0003a899   Thumb Code    26  qmnghandler.o(.text)
    QMngHandlerPrivate::jumpToImage(int)     0x0003a8b3   Thumb Code    74  qmnghandler.o(.text)
    QMngHandler::jumpToImage(int)            0x0003a8fd   Thumb Code    30  qmnghandler.o(.text)
    QMngHandlerPrivate::jumpToNextImage()    0x0003a91b   Thumb Code    38  qmnghandler.o(.text)
    QMngHandler::jumpToNextImage()           0x0003a941   Thumb Code    26  qmnghandler.o(.text)
    QMngHandler::loopCount() const           0x0003a95b   Thumb Code    36  qmnghandler.o(.text)
    QMngHandlerPrivate::nextImageDelay() const 0x0003a97f   Thumb Code     6  qmnghandler.o(.text)
    QMngHandler::nextImageDelay() const      0x0003a985   Thumb Code    26  qmnghandler.o(.text)
    QMngHandlerPrivate::backgroundColor() const 0x0003a99f   Thumb Code    74  qmnghandler.o(.text)
    QMngHandler::option(QImageIOHandler::ImageOption) const 0x0003a9e9   Thumb Code   110  qmnghandler.o(.text)
    QMngHandlerPrivate::setBackgroundColor(const QColor&) 0x0003aa57   Thumb Code    74  qmnghandler.o(.text)
    QMngHandler::setOption(QImageIOHandler::ImageOption, const QVariant&) 0x0003aaa1   Thumb Code   156  qmnghandler.o(.text)
    QMngHandler::supportsOption(QImageIOHandler::ImageOption) const 0x0003ab3d   Thumb Code    22  qmnghandler.o(.text)
    qt_plugin_query_verification_data        0x0003ab59   Thumb Code     4  main.o(.text)
    qt_plugin_instance                       0x0003ab5d   Thumb Code   134  main.o(.text)
    QMngPlugin::keys() const                 0x0003abe3   Thumb Code   128  main.o(.text)
    thunk{-8} to QMngPlugin::keys() const    0x0003ac63   Thumb Code    18  main.o(.text)
    QMngPlugin::capabilities(QIODevice*, const QByteArray&) const 0x0003ac75   Thumb Code   144  main.o(.text)
    QMngPlugin::create(QIODevice*, const QByteArray&) const 0x0003ad05   Thumb Code    60  main.o(.text)
    thunk{-8} to QMngPlugin::create(QIODevice*, const QByteArray&) const 0x0003ad41   Thumb Code    22  main.o(.text)
    __ARM_switch8                            0x0003ad74   ARM Code      24  switch8.o(.text)
    __rt_switch8                             0x0003ad74   ARM Code       0  switch8.o(.text)
    _E32Dll_Body                             0x0003ad8c   ARM Code      76  uc_dll.o(.text)
    __aeabi_atexit                           0x0003addc   ARM Code      40  ucppfini.o(.text)
    __cxa_atexit                             0x0003ae04   ARM Code      64  ucppfini.o(.text)
    __cxa_finalize                           0x0003ae44   ARM Code      48  ucppfini.o(.text)
    run_static_dtors                         0x0003ae74   ARM Code      16  ucppfini.o(.text)
    __DLL_Export_Table__                     0x0003ae90   ARM Code       4  dllexp.o(.text)
    QByteArray::~QByteArray()                0x0003af31   Thumb Code    38  qmnghandler.o(i._ZN10QByteArrayD1Ev)
    QByteArray::~QByteArray__sub_object()    0x0003af31   Thumb Code     0  qmnghandler.o(i._ZN10QByteArrayD1Ev)
    QMngPlugin::~QMngPlugin__deallocating()  0x0003af57   Thumb Code    24  main.o(i._ZN10QMngPluginD0Ev)
    QMngPlugin::~QMngPlugin()                0x0003af6f   Thumb Code    14  main.o(i._ZN10QMngPluginD1Ev)
    QMngPlugin::~QMngPlugin__sub_object()    0x0003af6f   Thumb Code     0  main.o(i._ZN10QMngPluginD1Ev)
    QStringList::~QStringList()              0x0003af7d   Thumb Code    14  main.o(i._ZN11QStringListD1Ev)
    QStringList::~QStringList__sub_object()  0x0003af7d   Thumb Code     0  main.o(i._ZN11QStringListD1Ev)
    QBasicAtomicInt::ref()                   0x0003af8b   Thumb Code    24  main.o(i._ZN15QBasicAtomicInt3refEv)
    QBasicAtomicInt::deref()                 0x0003afa3   Thumb Code    24  main.o(i._ZN15QBasicAtomicInt5derefEv)
    QColor::QColor(const QColor&)            0x0003afbb   Thumb Code    24  qmnghandler.o(i._ZN6QColorC1ERKS_)
    QColor::QColor__sub_object(const QColor&) 0x0003afbb   Thumb Code     0  qmnghandler.o(i._ZN6QColorC1ERKS_)
    QString::QString(const QString&)         0x0003afd5   Thumb Code    40  main.o(i._ZN7QStringC1ERKS_)
    QString::QString__sub_object(const QString&) 0x0003afd5   Thumb Code     0  main.o(i._ZN7QStringC1ERKS_)
    QString::~QString()                      0x0003b051   Thumb Code    24  main.o(i._ZN7QStringD1Ev)
    QString::~QString__sub_object()          0x0003b051   Thumb Code     0  main.o(i._ZN7QStringD1Ev)
    QByteArray::isEmpty() const              0x0003b069   Thumb Code    18  main.o(i._ZNK10QByteArray7isEmptyEv)
    QListData::end() const                   0x0003b07b   Thumb Code    16  main.o(i._ZNK9QListData3endEv)
    QListData::begin() const                 0x0003b08b   Thumb Code    16  main.o(i._ZNK9QListData5beginEv)
    thunk{-8} to QMngPlugin::~QMngPlugin__deallocating() 0x0003b09b   Thumb Code    14  main.o(i._ZThn8_N10QMngPluginD0Ev)
    thunk{-8} to QMngPlugin::~QMngPlugin()   0x0003b0a9   Thumb Code    18  main.o(i._ZThn8_N10QMngPluginD1Ev)
    operator delete (void*, void*)           0x0003b0bb   Thumb Code     2  main.o(i._ZdlPvS_)
    operator new(unsigned, void*)            0x0003b0bd   Thumb Code     6  main.o(i._ZnwjPv)
    QScopedPointer<QMngHandlerPrivate, QScopedPointerDeleter<QMngHandlerPrivate>>::~QScopedPointer() 0x0003b0c3   Thumb Code    32  qmnghandler.o(t._ZN14QScopedPointerI18QMngHandlerPrivate21QScopedPointerDeleterIS0_EED1Ev)
    QScopedPointer<QMngHandlerPrivate, QScopedPointerDeleter<QMngHandlerPrivate>>::~QScopedPointer__sub_object() 0x0003b0c3   Thumb Code     0  qmnghandler.o(t._ZN14QScopedPointerI18QMngHandlerPrivate21QScopedPointerDeleterIS0_EED1Ev)
    QList<QString>::detach_helper(int)       0x0003b0e3   Thumb Code    94  main.o(t._ZN5QListI7QStringE13detach_helperEi)
    QList<QString>::detach_helper()          0x0003b149   Thumb Code    16  main.o(t._ZN5QListI7QStringE13detach_helperEv)
    QList<QString>::node_destruct(QList<QString>::Node*, QList<QString>::Node*) 0x0003b159   Thumb Code    26  main.o(t._ZN5QListI7QStringE13node_destructEPNS1_4NodeES3_)
    QList<QString>::node_construct(QList<QString>::Node*, const QString&) 0x0003b173   Thumb Code    36  main.o(t._ZN5QListI7QStringE14node_constructEPNS1_4NodeERKS0_)
    QList<QString>::detach_helper_grow(int, int) 0x0003b1a5   Thumb Code   208  main.o(t._ZN5QListI7QStringE18detach_helper_growEii)
    QList<QString>::free(QListData::Data*)   0x0003b285   Thumb Code    58  main.o(t._ZN5QListI7QStringE4freeEPN9QListData4DataE)
    QList<QString>::append(const QString&)   0x0003b2c1   Thumb Code   120  main.o(t._ZN5QListI7QStringE6appendERKS0_)
    QList<QString>::node_copy(QList<QString>::Node*, QList<QString>::Node*, QList<QString>::Node*) 0x0003b34b   Thumb Code    82  main.o(t._ZN5QListI7QStringE9node_copyEPNS1_4NodeES3_S3_)
    QList<QString>::~QList()                 0x0003b3b3   Thumb Code    32  main.o(t._ZN5QListI7QStringED1Ev)
    QList<QString>::~QList__sub_object()     0x0003b3b3   Thumb Code     0  main.o(t._ZN5QListI7QStringED1Ev)
    QPointer<QObject>::~QPointer()           0x0003b3d3   Thumb Code    14  main.o(t._ZN8QPointerI7QObjectED1Ev)
    QPointer<QObject>::~QPointer__sub_object() 0x0003b3d3   Thumb Code     0  main.o(t._ZN8QPointerI7QObjectED1Ev)
    stlp_priv::_Integer_limits<signed char, (signed char)-128, (signed char)127, (int)-1, (bool)1>::digits 0x0003cf3c   Data           4  qmnghandler.o(.constdata__ZN9stlp_priv15_Integer_limitsIaLan128ELa127ELin1ELb1EE6digitsE)
    stlp_priv::_Integer_limits<bool, (bool)0, (bool)1, (int)1, (bool)0>::digits 0x0003cf40   Data           4  qmnghandler.o(.constdata__ZN9stlp_priv15_Integer_limitsIbLb0ELb1ELi1ELb0EE6digitsE)
    stlp_priv::_Integer_limits<char, (char)128, (char)127, (int)-1, (bool)1>::digits 0x0003cf44   Data           4  qmnghandler.o(.constdata__ZN9stlp_priv15_Integer_limitsIcLc128ELc127ELin1ELb1EE6digitsE)
    stlp_priv::_Integer_limits<unsigned char, (unsigned char)0, (unsigned char)255, (int)-1, (bool)1>::digits 0x0003cf48   Data           4  qmnghandler.o(.constdata__ZN9stlp_priv15_Integer_limitsIhLh0ELh255ELin1ELb1EE6digitsE)
    stlp_priv::_Integer_limits<int, (int)-2147483648, (int)2147483647, (int)-1, (bool)1>::digits 0x0003cf4c   Data           4  qmnghandler.o(.constdata__ZN9stlp_priv15_Integer_limitsIiLin2147483648ELi2147483647ELin1ELb1EE6digitsE)
    stlp_priv::_Integer_limits<int, (int)-2147483648, (int)2147483647, (int)-1, (bool)1>::is_signed 0x0003cf50   Data           1  qmnghandler.o(.constdata__ZN9stlp_priv15_Integer_limitsIiLin2147483648ELi2147483647ELin1ELb1EE9is_signedE)
    stlp_priv::_Integer_limits<unsigned, (unsigned)0, (unsigned)4294967295, (int)-1, (bool)1>::digits 0x0003cf54   Data           4  qmnghandler.o(.constdata__ZN9stlp_priv15_Integer_limitsIjLj0ELj4294967295ELin1ELb1EE6digitsE)
    stlp_priv::_Integer_limits<long, (long)-2147483648, (long)2147483647, (int)-1, (bool)1>::digits 0x0003cf58   Data           4  qmnghandler.o(.constdata__ZN9stlp_priv15_Integer_limitsIlLln2147483648ELl2147483647ELin1ELb1EE6digitsE)
    stlp_priv::_Integer_limits<unsigned long, (unsigned long)0, (unsigned long)4294967295, (int)-1, (bool)1>::digits 0x0003cf5c   Data           4  qmnghandler.o(.constdata__ZN9stlp_priv15_Integer_limitsImLm0ELm4294967295ELin1ELb1EE6digitsE)
    stlp_priv::_Integer_limits<short, (short)-32768, (short)32767, (int)-1, (bool)1>::digits 0x0003cf60   Data           4  qmnghandler.o(.constdata__ZN9stlp_priv15_Integer_limitsIsLsn32768ELs32767ELin1ELb1EE6digitsE)
    stlp_priv::_Integer_limits<unsigned short, (unsigned short)0, (unsigned short)65535, (int)-1, (bool)1>::digits 0x0003cf64   Data           4  qmnghandler.o(.constdata__ZN9stlp_priv15_Integer_limitsItLt0ELt65535ELin1ELb1EE6digitsE)
    stlp_priv::_Integer_limits<wchar_t, (wchar_t)0, (wchar_t)65535, (int)-1, (bool)1>::digits 0x0003cf68   Data           4  qmnghandler.o(.constdata__ZN9stlp_priv15_Integer_limitsIwLw0ELw65535ELin1ELb1EE6digitsE)
    stlp_priv::_Integer_limits<long long, (long long)-9223372036854775808, (long long)9223372036854775807, (int)-1, (bool)1>::digits 0x0003cf6c   Data           4  qmnghandler.o(.constdata__ZN9stlp_priv15_Integer_limitsIxLxn9223372036854775808ELx9223372036854775807ELin1ELb1EE6digitsE)
    stlp_priv::_Integer_limits<unsigned long long, (unsigned long long)0, (unsigned long long)18446744073709551615, (int)-1, (bool)1>::digits 0x0003cf70   Data           4  qmnghandler.o(.constdata__ZN9stlp_priv15_Integer_limitsIyLy0ELy18446744073709551615ELin1ELb1EE6digitsE)
    typeinfo for QMngPlugin                  0x0003cf74   Data          12  main.o(.constdata__ZTI10QMngPlugin)
    typeinfo for QMngHandler                 0x0003cf80   Data          12  qmnghandler.o(.constdata__ZTI11QMngHandler)
    typeinfo name for QMngPlugin             0x0003cf8c   Data          13  main.o(.constdata__ZTS10QMngPlugin)
    typeinfo name for QMngHandler            0x0003cf99   Data          14  qmnghandler.o(.constdata__ZTS11QMngHandler)
    vtable for QMngPlugin                    0x0003cfa8   Data          92  main.o(.constdata__ZTV10QMngPlugin)
    vtable for QMngHandler                   0x0003d004   Data          72  qmnghandler.o(.constdata__ZTV11QMngHandler)
    .ARM.exidx$$Base                         0x0003f0b0   Number         0  ucppinit.o(.ARM.exidx)
    .ARM.exidx$$Limit                        0x00040098   Number         0  main.o(.ARM.exidx)
    Image$$ER_RO$$Limit                      0x00040098   Number         0  anon$$obj.o(linker$$defined$$symbols)
    __dso_handle                             0x00400008   Data           4  ucppfini.o(.data)
    std::_Atomic_swap_struct<(int)1>::_S_swap_lock 0x0040000c   Data          12  qmnghandler.o(.data__ZNSt19_Atomic_swap_structILi1EE12_S_swap_lockE)
    dtor_rec                                 0x00400018   Data        2048  ucppfini.o(.bss)

