ARM Linker, RVCT2.2 [Build 686]

================================================================================

Image Symbol Table

    Local Symbols

    Symbol Name                              Value     Ov Type        Size  Object(Section)

    ../../unhosted.s                         0x00000000   Number         0  switch8.o ABSOLUTE
    M:\\epoc32\\build\\euser\\c_e18a23aea4fd210f\\eexe_lib\\armv5\\udeb\\uc_exe_.cpp 0x00000000   Number         0  uc_exe_.o ABSOLUTE
    M:\\sf\\os\\kernelhwsrv\\kernel\\eka\\compsupp\\rvct\\ucppinit.cpp 0x00000000   Number         0  ucppinit.o ABSOLUTE
    M:\epoc32\build\euser\c_e18a23aea4fd210f\eexe_lib\armv5\udeb\uc_exe_.cpp 0x00000000   Number         0  uc_exe_.o ABSOLUTE
    M:\sf\os\kernelhwsrv\kernel\eka\compsupp\rvct\dllexp.cpp 0x00000000   Number         0  dllexp.o ABSOLUTE
    M:\sf\os\kernelhwsrv\kernel\eka\compsupp\rvct\ucppinit.cpp 0x00000000   Number         0  ucppinit.o ABSOLUTE
    M:\sf\os\kernelhwsrv\kernel\eka\compsupp\symaehabi\callfirstprocessfn.cpp 0x00000000   Number         0  callfirstprocessfn.o ABSOLUTE
    M:\sf\os\kernelhwsrv\kernel\eka\euser\epoc\arm\uc_exe.cpp 0x00000000   Number         0  uc_exe.o ABSOLUTE
    S:\\sf\\mw\\qt\\src\\s60main\\qts60main_mcrt0.cpp 0x00000000   Number         0  qts60main_mcrt0.o ABSOLUTE
    S:\sf\mw\qt\src\s60main\newallocator_hook.cpp 0x00000000   Number         0  newallocator_hook.o ABSOLUTE
    S:\sf\mw\qt\src\s60main\qts60main.cpp    0x00000000   Number         0  qts60main.o ABSOLUTE
    S:\sf\mw\qt\src\s60main\qts60main_mcrt0.cpp 0x00000000   Number         0  qts60main_mcrt0.o ABSOLUTE
    S:\sf\mw\qtmobility\build\Release\qpspathmapperserver\moc\moc_xqsettingsmanager.cpp 0x00000000   Number         0  moc_xqsettingsmanager.o ABSOLUTE
    S:\sf\mw\qtmobility\src\publishsubscribe\psmapperserver_symbian\pathmapper_symbian.cpp 0x00000000   Number         0  pathmapper_symbian.o ABSOLUTE
    S:\sf\mw\qtmobility\src\publishsubscribe\psmapperserver_symbian\pspathmapperserver.cpp 0x00000000   Number         0  pspathmapperserver.o ABSOLUTE
    S:\sf\mw\qtmobility\src\publishsubscribe\psmapperserver_symbian\pspathmapperservermain.cpp 0x00000000   Number         0  pspathmapperservermain.o ABSOLUTE
    S:\sf\mw\qtmobility\src\publishsubscribe\psmapperserver_symbian\pspathmappersession.cpp 0x00000000   Number         0  pspathmappersession.o ABSOLUTE
    S:\sf\mw\qtmobility\src\publishsubscribe\psmapperserver_symbian\qcrmlparser.cpp 0x00000000   Number         0  qcrmlparser.o ABSOLUTE
    S:\sf\mw\qtmobility\src\publishsubscribe\xqsettingsmanager_symbian\ccentralrepositoryhandler.cpp 0x00000000   Number         0  ccentralrepositoryhandler.o ABSOLUTE
    S:\sf\mw\qtmobility\src\publishsubscribe\xqsettingsmanager_symbian\cenrepmonitor.cpp 0x00000000   Number         0  cenrepmonitor.o ABSOLUTE
    S:\sf\mw\qtmobility\src\publishsubscribe\xqsettingsmanager_symbian\cpublishandsubscribehandler.cpp 0x00000000   Number         0  cpublishandsubscribehandler.o ABSOLUTE
    S:\sf\mw\qtmobility\src\publishsubscribe\xqsettingsmanager_symbian\pubsubmonitor.cpp 0x00000000   Number         0  pubsubmonitor.o ABSOLUTE
    S:\sf\mw\qtmobility\src\publishsubscribe\xqsettingsmanager_symbian\settingshandlerbase.cpp 0x00000000   Number         0  settingshandlerbase.o ABSOLUTE
    S:\sf\mw\qtmobility\src\publishsubscribe\xqsettingsmanager_symbian\xqcentralrepositorysearchcriteria.cpp 0x00000000   Number         0  xqcentralrepositorysearchcriteria.o ABSOLUTE
    S:\sf\mw\qtmobility\src\publishsubscribe\xqsettingsmanager_symbian\xqcentralrepositoryutils.cpp 0x00000000   Number         0  xqcentralrepositoryutils.o ABSOLUTE
    S:\sf\mw\qtmobility\src\publishsubscribe\xqsettingsmanager_symbian\xqcentralrepositoryutils_p.cpp 0x00000000   Number         0  xqcentralrepositoryutils_p.o ABSOLUTE
    S:\sf\mw\qtmobility\src\publishsubscribe\xqsettingsmanager_symbian\xqpublishandsubscribesecuritypolicy.cpp 0x00000000   Number         0  xqpublishandsubscribesecuritypolicy.o ABSOLUTE
    S:\sf\mw\qtmobility\src\publishsubscribe\xqsettingsmanager_symbian\xqpublishandsubscribeutils.cpp 0x00000000   Number         0  xqpublishandsubscribeutils.o ABSOLUTE
    S:\sf\mw\qtmobility\src\publishsubscribe\xqsettingsmanager_symbian\xqpublishandsubscribeutils_p.cpp 0x00000000   Number         0  xqpublishandsubscribeutils_p.o ABSOLUTE
    S:\sf\mw\qtmobility\src\publishsubscribe\xqsettingsmanager_symbian\xqsettingskey.cpp 0x00000000   Number         0  xqsettingskey.o ABSOLUTE
    S:\sf\mw\qtmobility\src\publishsubscribe\xqsettingsmanager_symbian\xqsettingsmanager.cpp 0x00000000   Number         0  xqsettingsmanager.o ABSOLUTE
    S:\sf\mw\qtmobility\src\publishsubscribe\xqsettingsmanager_symbian\xqsettingsmanager_p.cpp 0x00000000   Number         0  xqsettingsmanager_p.o ABSOLUTE
    .emb_text                                0x00008000   Section      112  uc_exe_.o(.emb_text)
    Symbian$$eit_base                        0x0000805c   Data           4  uc_exe_.o(.emb_text)
    Symbian$$eit_limit                       0x00008060   Data           4  uc_exe_.o(.emb_text)
    Symbian$$code_seg_base                   0x00008064   Data           4  uc_exe_.o(.emb_text)
    Symbian$$code_seg_limit                  0x00008068   Data           4  uc_exe_.o(.emb_text)
    Symbian$$reserved                        0x0000806c   Data           4  uc_exe_.o(.emb_text)
    $v0                                      0x00008070   ARM Code       0  qts60main_mcrt0.o(.emb_text)
    .emb_text                                0x00008070   Section        4  qts60main_mcrt0.o(.emb_text)
    .emb_text                                0x00008074   Section       52  ucppinit.o(.emb_text)
    loop                                     0x00008088   ARM Code       0  ucppinit.o(.emb_text)
    ret                                      0x00008090   ARM Code       0  ucppinit.o(.emb_text)
    base                                     0x000080a0   Data           0  ucppinit.o(.emb_text)
    limit                                    0x000080a4   Data           0  ucppinit.o(.emb_text)
    .text                                    0x00008828   Section       32  uc_exe_.o(.text)
    .text                                    0x00008848   Section      224  moc_xqsettingsmanager.o(.text)
    .text                                    0x00008930   Section      132  pspathmapperservermain.o(.text)
    .text                                    0x000089b4   Section     3242  pathmapper_symbian.o(.text)
    .text                                    0x00009660   Section     7132  qcrmlparser.o(.text)
    |L1.1340|                                0x00009b9c   Data           0  qcrmlparser.o(.text)
    |L1.1344|                                0x00009ba0   Data           0  qcrmlparser.o(.text)
    |L1.2584|                                0x0000a078   Data           0  qcrmlparser.o(.text)
    |L1.2588|                                0x0000a07c   Data           0  qcrmlparser.o(.text)
    |L1.6668|                                0x0000b06c   Data           0  qcrmlparser.o(.text)
    .text                                    0x0000b23c   Section      308  pspathmapperserver.o(.text)
    QtMobility::Timeout(void*)               0x0000b249   Thumb Code    14  pspathmapperserver.o(.text)
    .text                                    0x0000b370   Section     1308  pspathmappersession.o(.text)
    .text                                    0x0000b88c   Section      104  xqsettingskey.o(.text)
    .text                                    0x0000b8f4   Section      216  xqsettingsmanager.o(.text)
    .text                                    0x0000b9cc   Section     1596  xqsettingsmanager_p.o(.text)
    .text                                    0x0000c008   Section     1096  settingshandlerbase.o(.text)
    .text                                    0x0000c450   Section     1770  ccentralrepositoryhandler.o(.text)
    .text                                    0x0000cb3c   Section     2092  cpublishandsubscribehandler.o(.text)
    .text                                    0x0000d368   Section      292  cenrepmonitor.o(.text)
    .text                                    0x0000d48c   Section      296  pubsubmonitor.o(.text)
    .text                                    0x0000d5b4   Section      264  xqcentralrepositoryutils.o(.text)
    .text                                    0x0000d6bc   Section     1184  xqcentralrepositoryutils_p.o(.text)
    .text                                    0x0000db5c   Section      160  xqpublishandsubscribeutils.o(.text)
    .text                                    0x0000dbfc   Section      254  xqpublishandsubscribeutils_p.o(.text)
    .text                                    0x0000dcfa   Section      138  xqcentralrepositorysearchcriteria.o(.text)
    .text                                    0x0000dd84   Section      272  xqpublishandsubscribesecuritypolicy.o(.text)
    .text                                    0x0000de94   Section       24  switch8.o(.text)
    .text                                    0x0000deac   Section      128  uc_exe.o(.text)
    .text                                    0x0000df2c   Section      204  qts60main_mcrt0.o(.text)
    .text                                    0x0000dff8   Section      144  callfirstprocessfn.o(.text)
    .text                                    0x0000e088   Section       28  newallocator_hook.o(.text)
    .text                                    0x0000e0a4   Section        4  dllexp.o(.text)
    .text                                    0x0000e0a8   Section      164  qts60main.o(.text)
    .text.clean                              0x0000e14c   Section       22  pspathmapperservermain.o(.text.clean)
    .text.clean                              0x0000e162   Section      434  pathmapper_symbian.o(.text.clean)
    .text.clean                              0x0000e314   Section     1092  qcrmlparser.o(.text.clean)
    .text.clean                              0x0000e758   Section       22  pspathmapperserver.o(.text.clean)
    .text.clean                              0x0000e76e   Section      156  pspathmappersession.o(.text.clean)
    .text.clean                              0x0000e80a   Section       30  xqsettingsmanager.o(.text.clean)
    .text.clean                              0x0000e828   Section      130  xqsettingsmanager_p.o(.text.clean)
    .text.clean                              0x0000e8aa   Section       94  settingshandlerbase.o(.text.clean)
    .text.clean                              0x0000e908   Section       90  ccentralrepositoryhandler.o(.text.clean)
    .text.clean                              0x0000e962   Section       90  cpublishandsubscribehandler.o(.text.clean)
    .text.clean                              0x0000e9bc   Section       44  cenrepmonitor.o(.text.clean)
    .text.clean                              0x0000e9e8   Section       44  pubsubmonitor.o(.text.clean)
    .text.clean                              0x0000ea14   Section       20  xqcentralrepositoryutils.o(.text.clean)
    .text.clean                              0x0000ea28   Section       40  xqcentralrepositoryutils_p.o(.text.clean)
    .text.clean                              0x0000ea50   Section       20  xqpublishandsubscribeutils.o(.text.clean)
    .text.clean                              0x0000ea64   Section       24  qts60main_mcrt0.o(.text.clean)
    .text.clean                              0x0000ea7c   Section       16  callfirstprocessfn.o(.text.clean)
    .text.clean                              0x0000ea8c   Section       20  qts60main.o(.text.clean)
    i._Z23qStringComparisonHelperRK10QStringRefPKc 0x0000eaa0   Section       76  qcrmlparser.o(i._Z23qStringComparisonHelperRK10QStringRefPKc)
    i._Z23qStringComparisonHelperRK10QStringRefPKc.clean 0x0000eaec   Section       10  qcrmlparser.o(i._Z23qStringComparisonHelperRK10QStringRefPKc.clean)
    i._ZN10QByteArrayC1ERKS_                 0x0000eaf6   Section       20  settingshandlerbase.o(i._ZN10QByteArrayC1ERKS_)
    i._ZN10QByteArrayD1Ev                    0x0000eb0a   Section       24  pathmapper_symbian.o(i._ZN10QByteArrayD1Ev)
    i._ZN10QStringRefD1Ev                    0x0000eb22   Section        2  qcrmlparser.o(i._ZN10QStringRefD1Ev)
    i._ZN10QtMobility11QCrmlParserD1Ev       0x0000eb24   Section       26  pathmapper_symbian.o(i._ZN10QtMobility11QCrmlParserD1Ev)
    i._ZN10QtMobility11QCrmlParserD1Ev.clean 0x0000eb3e   Section       10  pathmapper_symbian.o(i._ZN10QtMobility11QCrmlParserD1Ev.clean)
    i._ZN10QtMobility19CPSPathMapperServerD0Ev 0x0000eb48   Section       22  pspathmapperserver.o(i._ZN10QtMobility19CPSPathMapperServerD0Ev)
    i._ZN10QtMobility19CPSPathMapperServerD1Ev 0x0000eb60   Section       36  pspathmapperserver.o(i._ZN10QtMobility19CPSPathMapperServerD1Ev)
    i._ZN10QtMobility19CPSPathMapperServerD1Ev.clean 0x0000eb84   Section       10  pspathmapperserver.o(i._ZN10QtMobility19CPSPathMapperServerD1Ev.clean)
    i._ZN10QtMobility7KeyDataC1ERKS0_        0x0000eb8e   Section       42  pathmapper_symbian.o(i._ZN10QtMobility7KeyDataC1ERKS0_)
    i._ZN10QtMobility7KeyDataD1Ev            0x0000ebb8   Section       20  pathmapper_symbian.o(i._ZN10QtMobility7KeyDataD1Ev)
    i._ZN11QDataStreamlsEj                   0x0000ebcc   Section       16  pspathmappersession.o(i._ZN11QDataStreamlsEj)
    i._ZN11QStringListC1Ev                   0x0000ebdc   Section       24  pathmapper_symbian.o(i._ZN11QStringListC1Ev)
    i._ZN11QStringListD1Ev                   0x0000ebf4   Section       14  pathmapper_symbian.o(i._ZN11QStringListD1Ev)
    i._ZN11QStringListlsERK7QString          0x0000ec02   Section       18  qcrmlparser.o(i._ZN11QStringListlsERK7QString)
    i._ZN13QHashIteratorI7QStringN10QtMobility10PathMapper8PathDataEED1Ev 0x0000ec14   Section       14  pathmapper_symbian.o(i._ZN13QHashIteratorI7QStringN10QtMobility10PathMapper8PathDataEED1Ev)
    i._ZN15QBasicAtomicInt3refEv             0x0000ec22   Section       24  pathmapper_symbian.o(i._ZN15QBasicAtomicInt3refEv)
    i._ZN15QBasicAtomicInt5derefEv           0x0000ec3a   Section       24  pathmapper_symbian.o(i._ZN15QBasicAtomicInt5derefEv)
    i._ZN17QForeachContainerI11QStringListED1Ev 0x0000ec52   Section       14  pathmapper_symbian.o(i._ZN17QForeachContainerI11QStringListED1Ev)
    i._ZN17QForeachContainerI5QHashIlP25CCentralRepositoryHandlerEED1Ev 0x0000ec60   Section       14  xqsettingsmanager_p.o(i._ZN17QForeachContainerI5QHashIlP25CCentralRepositoryHandlerEED1Ev)
    i._ZN17QForeachContainerI5QHashIlP27CPublishAndSubscribeHandlerEED1Ev 0x0000ec6e   Section       14  xqsettingsmanager_p.o(i._ZN17QForeachContainerI5QHashIlP27CPublishAndSubscribeHandlerEED1Ev)
    i._ZN17QForeachContainerI5QHashImP14CCenRepMonitorEED1Ev 0x0000ec7c   Section       14  ccentralrepositoryhandler.o(i._ZN17QForeachContainerI5QHashImP14CCenRepMonitorEED1Ev)
    i._ZN17QForeachContainerI5QListI9QFileInfoEED1Ev 0x0000ec8a   Section       14  pathmapper_symbian.o(i._ZN17QForeachContainerI5QListI9QFileInfoEED1Ev)
    i._ZN17QForeachContainerI5QListIN10QtMobility7KeyDataEEED1Ev 0x0000ec98   Section       14  pathmapper_symbian.o(i._ZN17QForeachContainerI5QListIN10QtMobility7KeyDataEEED1Ev)
    i._ZN19SettingsHandlerBaseD0Ev           0x0000eca6   Section       18  ccentralrepositoryhandler.o(i._ZN19SettingsHandlerBaseD0Ev)
    i._ZN19SettingsHandlerBaseD2Ev           0x0000ecb8   Section        2  ccentralrepositoryhandler.o(i._ZN19SettingsHandlerBaseD2Ev)
    i._ZN20QXmlStreamAttributesD1Ev          0x0000ecba   Section       14  qcrmlparser.o(i._ZN20QXmlStreamAttributesD1Ev)
    i._ZN4QSetI7QStringED1Ev                 0x0000ecc8   Section       14  pspathmappersession.o(i._ZN4QSetI7QStringED1Ev)
    i._ZN5CBasenwEj                          0x0000ecd6   Section       16  pspathmapperservermain.o(i._ZN5CBasenwEj)
    i._ZN6QDebug10maybeSpaceEv               0x0000ece6   Section       24  pathmapper_symbian.o(i._ZN6QDebug10maybeSpaceEv)
    i._ZN6QDebugD1Ev                         0x0000ecfe   Section      154  pathmapper_symbian.o(i._ZN6QDebugD1Ev)
    i._ZN6QDebugD1Ev.clean                   0x0000ed98   Section       20  pathmapper_symbian.o(i._ZN6QDebugD1Ev.clean)
    i._ZN7QObject2trEPKcS1_                  0x0000edac   Section       28  qcrmlparser.o(i._ZN7QObject2trEPKcS1_)
    i._ZN7QStringC1EPKc                      0x0000edc8   Section       22  pathmapper_symbian.o(i._ZN7QStringC1EPKc)
    i._ZN7QStringC1ERK13QLatin1String        0x0000edde   Section       26  qcrmlparser.o(i._ZN7QStringC1ERK13QLatin1String)
    i._ZN7QStringC1ERKS_                     0x0000edf8   Section       22  pathmapper_symbian.o(i._ZN7QStringC1ERKS_)
    i._ZN7QStringC1Ev                        0x0000ee10   Section       24  pathmapper_symbian.o(i._ZN7QStringC1Ev)
    i._ZN7QStringD1Ev                        0x0000ee28   Section       24  pathmapper_symbian.o(i._ZN7QStringD1Ev)
    i._ZN8QVariantC1Ev                       0x0000ee40   Section       38  settingshandlerbase.o(i._ZN8QVariantC1Ev)
    i._ZN9QHashData8willGrowEv               0x0000ee66   Section       32  pathmapper_symbian.o(i._ZN9QHashData8willGrowEv)
    i._ZN9QHashData9firstNodeEv              0x0000ee86   Section       36  xqsettingsmanager_p.o(i._ZN9QHashData9firstNodeEv)
    i._ZNK10QStringRef6isNullEv              0x0000eeac   Section       40  qcrmlparser.o(i._ZNK10QStringRef6isNullEv)
    i._ZNK15QBasicAtomicIntneEi              0x0000eed4   Section       16  pathmapper_symbian.o(i._ZNK15QBasicAtomicIntneEi)
    i._ZNK16QXmlStreamReader12isEndElementEv 0x0000eee4   Section       22  qcrmlparser.o(i._ZNK16QXmlStreamReader12isEndElementEv)
    i._ZNK16QXmlStreamReader14isStartElementEv 0x0000eefa   Section       22  qcrmlparser.o(i._ZNK16QXmlStreamReader14isStartElementEv)
    i._ZNK7QString7isEmptyEv                 0x0000ef10   Section       18  qcrmlparser.o(i._ZNK7QString7isEmptyEv)
    i._ZNK8QVariant10isDetachedEv            0x0000ef22   Section       36  settingshandlerbase.o(i._ZNK8QVariant10isDetachedEv)
    i._ZNK9QListData2atEi                    0x0000ef46   Section       20  qcrmlparser.o(i._ZNK9QListData2atEi)
    i._ZNK9QListData3endEv                   0x0000ef5a   Section       16  pathmapper_symbian.o(i._ZNK9QListData3endEv)
    i._ZNK9QListData5beginEv                 0x0000ef6a   Section       16  pathmapper_symbian.o(i._ZNK9QListData5beginEv)
    i._ZdlPvS_                               0x0000ef7a   Section        2  pathmapper_symbian.o(i._ZdlPvS_)
    i._ZeqRK10QStringRefPKc                  0x0000ef7c   Section       16  qcrmlparser.o(i._ZeqRK10QStringRefPKc)
    i._ZneRK10QStringRefPKc                  0x0000ef8c   Section       20  qcrmlparser.o(i._ZneRK10QStringRefPKc)
    i._ZnwjPv                                0x0000efa0   Section        6  pathmapper_symbian.o(i._ZnwjPv)
    i._ZplRK7QStringS1_                      0x0000efa6   Section       44  qcrmlparser.o(i._ZplRK7QStringS1_)
    i._ZplRK7QStringS1_.clean                0x0000efd2   Section       10  qcrmlparser.o(i._ZplRK7QStringS1_.clean)
    t._Z10qDeleteAllIN5QHashImP14CPubSubMonitorE14const_iteratorEEvT_S5_ 0x0000efdc   Section       60  cpublishandsubscribehandler.o(t._Z10qDeleteAllIN5QHashImP14CPubSubMonitorE14const_iteratorEEvT_S5_)
    t._Z16qVariantSetValueI10QByteArrayEvR8QVariantRKT_ 0x0000f018   Section      162  settingshandlerbase.o(t._Z16qVariantSetValueI10QByteArrayEvR8QVariantRKT_)
    t._Z16qVariantSetValueI10QByteArrayEvR8QVariantRKT_.clean 0x0000f0ba   Section       20  settingshandlerbase.o(t._Z16qVariantSetValueI10QByteArrayEvR8QVariantRKT_.clean)
    t._Z16qVariantSetValueI7QStringEvR8QVariantRKT_ 0x0000f0ce   Section      172  settingshandlerbase.o(t._Z16qVariantSetValueI7QStringEvR8QVariantRKT_)
    t._Z16qVariantSetValueI7QStringEvR8QVariantRKT_.clean 0x0000f17a   Section       20  settingshandlerbase.o(t._Z16qVariantSetValueI7QStringEvR8QVariantRKT_.clean)
    t._Z17CleanupClosePushLI5RBuf8EvRT_      0x0000f190   Section       28  settingshandlerbase.o(t._Z17CleanupClosePushLI5RBuf8EvRT_)
    t._Z20qForeachContainerNewI11QStringListE17QForeachContainerIT_ERKS2_ 0x0000f1ac   Section      132  pathmapper_symbian.o(t._Z20qForeachContainerNewI11QStringListE17QForeachContainerIT_ERKS2_)
    t._Z20qForeachContainerNewI11QStringListE17QForeachContainerIT_ERKS2_.clean 0x0000f230   Section       10  pathmapper_symbian.o(t._Z20qForeachContainerNewI11QStringListE17QForeachContainerIT_ERKS2_.clean)
    t._ZN12CleanupCloseI5RBuf8E5CloseEPv     0x0000f23a   Section       12  settingshandlerbase.o(t._ZN12CleanupCloseI5RBuf8E5CloseEPv)
    t._ZN12CleanupCloseI6RArrayImEE5CloseEPv 0x0000f246   Section       14  xqcentralrepositoryutils_p.o(t._ZN12CleanupCloseI6RArrayImEE5CloseEPv)
    t._ZN12CleanupCloseI6RBuf16E5CloseEPv    0x0000f254   Section       12  settingshandlerbase.o(t._ZN12CleanupCloseI6RBuf16E5CloseEPv)
    t._ZN14QHashDummyNodeI7QString15QHashDummyValueEC1ERKS0_ 0x0000f260   Section       24  pathmapper_symbian.o(t._ZN14QHashDummyNodeI7QString15QHashDummyValueEC1ERKS0_)
    t._ZN5QHashI7QString15QHashDummyValueE11deleteNode2EPN9QHashData4NodeE 0x0000f278   Section       24  pathmapper_symbian.o(t._ZN5QHashI7QString15QHashDummyValueE11deleteNode2EPN9QHashData4NodeE)
    t._ZN5QHashI7QString15QHashDummyValueE13detach_helperEv 0x0000f290   Section       60  pathmapper_symbian.o(t._ZN5QHashI7QString15QHashDummyValueE13detach_helperEv)
    t._ZN5QHashI7QString15QHashDummyValueE13duplicateNodeEPN9QHashData4NodeEPv 0x0000f2cc   Section       44  pathmapper_symbian.o(t._ZN5QHashI7QString15QHashDummyValueE13duplicateNodeEPN9QHashData4NodeEPv)
    t._ZN5QHashI7QString15QHashDummyValueE13duplicateNodeEPN9QHashData4NodeEPv.clean 0x0000f2f8   Section       12  pathmapper_symbian.o(t._ZN5QHashI7QString15QHashDummyValueE13duplicateNodeEPN9QHashData4NodeEPv.clean)
    t._ZN5QHashI7QString15QHashDummyValueE6insertERKS0_RKS1_ 0x0000f304   Section      186  pathmapper_symbian.o(t._ZN5QHashI7QString15QHashDummyValueE6insertERKS0_RKS1_)
    t._ZN5QHashI7QString15QHashDummyValueE6insertERKS0_RKS1_.clean 0x0000f3be   Section       12  pathmapper_symbian.o(t._ZN5QHashI7QString15QHashDummyValueE6insertERKS0_RKS1_.clean)
    t._ZN5QHashI7QString15QHashDummyValueE8freeDataEP9QHashData 0x0000f3cc   Section       20  pathmapper_symbian.o(t._ZN5QHashI7QString15QHashDummyValueE8freeDataEP9QHashData)
    t._ZN5QHashI7QString15QHashDummyValueED1Ev 0x0000f3e0   Section       30  pspathmappersession.o(t._ZN5QHashI7QString15QHashDummyValueED1Ev)
    t._ZN5QHashI7QStringN10QtMobility10PathMapper8PathDataEE11deleteNode2EPN9QHashData4NodeE 0x0000f3fe   Section       24  pathmapper_symbian.o(t._ZN5QHashI7QStringN10QtMobility10PathMapper8PathDataEE11deleteNode2EPN9QHashData4NodeE)
    t._ZN5QHashI7QStringN10QtMobility10PathMapper8PathDataEE13detach_helperEv 0x0000f418   Section       60  pathmapper_symbian.o(t._ZN5QHashI7QStringN10QtMobility10PathMapper8PathDataEE13detach_helperEv)
    t._ZN5QHashI7QStringN10QtMobility10PathMapper8PathDataEE13duplicateNodeEPN9QHashData4NodeEPv 0x0000f454   Section       46  pathmapper_symbian.o(t._ZN5QHashI7QStringN10QtMobility10PathMapper8PathDataEE13duplicateNodeEPN9QHashData4NodeEPv)
    t._ZN5QHashI7QStringN10QtMobility10PathMapper8PathDataEE13duplicateNodeEPN9QHashData4NodeEPv.clean 0x0000f482   Section       14  pathmapper_symbian.o(t._ZN5QHashI7QStringN10QtMobility10PathMapper8PathDataEE13duplicateNodeEPN9QHashData4NodeEPv.clean)
    t._ZN5QHashI7QStringN10QtMobility10PathMapper8PathDataEE6detachEv 0x0000f490   Section       28  pathmapper_symbian.o(t._ZN5QHashI7QStringN10QtMobility10PathMapper8PathDataEE6detachEv)
    t._ZN5QHashI7QStringN10QtMobility10PathMapper8PathDataEE6insertERKS0_RKS3_ 0x0000f4ac   Section      180  pathmapper_symbian.o(t._ZN5QHashI7QStringN10QtMobility10PathMapper8PathDataEE6insertERKS0_RKS3_)
    t._ZN5QHashI7QStringN10QtMobility10PathMapper8PathDataEE6insertERKS0_RKS3_.clean 0x0000f560   Section       14  pathmapper_symbian.o(t._ZN5QHashI7QStringN10QtMobility10PathMapper8PathDataEE6insertERKS0_RKS3_.clean)
    t._ZN5QHashI7QStringN10QtMobility10PathMapper8PathDataEE8freeDataEP9QHashData 0x0000f570   Section       20  pathmapper_symbian.o(t._ZN5QHashI7QStringN10QtMobility10PathMapper8PathDataEE8freeDataEP9QHashData)
    t._ZN5QHashI7QStringN10QtMobility10PathMapper8PathDataEEC1Ev 0x0000f584   Section       28  pathmapper_symbian.o(t._ZN5QHashI7QStringN10QtMobility10PathMapper8PathDataEEC1Ev)
    t._ZN5QHashI7QStringN10QtMobility10PathMapper8PathDataEED1Ev 0x0000f5a0   Section       30  pathmapper_symbian.o(t._ZN5QHashI7QStringN10QtMobility10PathMapper8PathDataEED1Ev)
    t._ZN5QHashIlP25CCentralRepositoryHandlerE11deleteNode2EPN9QHashData4NodeE 0x0000f5be   Section        6  xqsettingsmanager_p.o(t._ZN5QHashIlP25CCentralRepositoryHandlerE11deleteNode2EPN9QHashData4NodeE)
    t._ZN5QHashIlP25CCentralRepositoryHandlerE13detach_helperEv 0x0000f5c4   Section       60  xqsettingsmanager_p.o(t._ZN5QHashIlP25CCentralRepositoryHandlerE13detach_helperEv)
    t._ZN5QHashIlP25CCentralRepositoryHandlerE13duplicateNodeEPN9QHashData4NodeEPv 0x0000f600   Section       48  xqsettingsmanager_p.o(t._ZN5QHashIlP25CCentralRepositoryHandlerE13duplicateNodeEPN9QHashData4NodeEPv)
    t._ZN5QHashIlP25CCentralRepositoryHandlerE6detachEv 0x0000f630   Section       28  xqsettingsmanager_p.o(t._ZN5QHashIlP25CCentralRepositoryHandlerE6detachEv)
    t._ZN5QHashIlP25CCentralRepositoryHandlerE8freeDataEP9QHashData 0x0000f64c   Section       20  xqsettingsmanager_p.o(t._ZN5QHashIlP25CCentralRepositoryHandlerE8freeDataEP9QHashData)
    t._ZN5QHashIlP25CCentralRepositoryHandlerED1Ev 0x0000f660   Section       30  xqsettingsmanager_p.o(t._ZN5QHashIlP25CCentralRepositoryHandlerED1Ev)
    t._ZN5QHashIlP25CCentralRepositoryHandlerEixERKl 0x0000f67e   Section      170  xqsettingsmanager_p.o(t._ZN5QHashIlP25CCentralRepositoryHandlerEixERKl)
    t._ZN5QHashIlP25CCentralRepositoryHandlerEixERKl.clean 0x0000f728   Section        4  xqsettingsmanager_p.o(t._ZN5QHashIlP25CCentralRepositoryHandlerEixERKl.clean)
    t._ZN5QHashIlP27CPublishAndSubscribeHandlerE11deleteNode2EPN9QHashData4NodeE 0x0000f72c   Section        6  xqsettingsmanager_p.o(t._ZN5QHashIlP27CPublishAndSubscribeHandlerE11deleteNode2EPN9QHashData4NodeE)
    t._ZN5QHashIlP27CPublishAndSubscribeHandlerE13detach_helperEv 0x0000f734   Section       60  xqsettingsmanager_p.o(t._ZN5QHashIlP27CPublishAndSubscribeHandlerE13detach_helperEv)
    t._ZN5QHashIlP27CPublishAndSubscribeHandlerE13duplicateNodeEPN9QHashData4NodeEPv 0x0000f770   Section       48  xqsettingsmanager_p.o(t._ZN5QHashIlP27CPublishAndSubscribeHandlerE13duplicateNodeEPN9QHashData4NodeEPv)
    t._ZN5QHashIlP27CPublishAndSubscribeHandlerE6detachEv 0x0000f7a0   Section       28  xqsettingsmanager_p.o(t._ZN5QHashIlP27CPublishAndSubscribeHandlerE6detachEv)
    t._ZN5QHashIlP27CPublishAndSubscribeHandlerE8freeDataEP9QHashData 0x0000f7bc   Section       20  xqsettingsmanager_p.o(t._ZN5QHashIlP27CPublishAndSubscribeHandlerE8freeDataEP9QHashData)
    t._ZN5QHashIlP27CPublishAndSubscribeHandlerED1Ev 0x0000f7d0   Section       30  xqsettingsmanager_p.o(t._ZN5QHashIlP27CPublishAndSubscribeHandlerED1Ev)
    t._ZN5QHashIlP27CPublishAndSubscribeHandlerEixERKl 0x0000f7ee   Section      170  xqsettingsmanager_p.o(t._ZN5QHashIlP27CPublishAndSubscribeHandlerEixERKl)
    t._ZN5QHashIlP27CPublishAndSubscribeHandlerEixERKl.clean 0x0000f898   Section        4  xqsettingsmanager_p.o(t._ZN5QHashIlP27CPublishAndSubscribeHandlerEixERKl.clean)
    t._ZN5QHashImP14CCenRepMonitorE11deleteNode2EPN9QHashData4NodeE 0x0000f89c   Section        6  ccentralrepositoryhandler.o(t._ZN5QHashImP14CCenRepMonitorE11deleteNode2EPN9QHashData4NodeE)
    t._ZN5QHashImP14CCenRepMonitorE13detach_helperEv 0x0000f8a4   Section       60  ccentralrepositoryhandler.o(t._ZN5QHashImP14CCenRepMonitorE13detach_helperEv)
    t._ZN5QHashImP14CCenRepMonitorE13duplicateNodeEPN9QHashData4NodeEPv 0x0000f8e0   Section       46  ccentralrepositoryhandler.o(t._ZN5QHashImP14CCenRepMonitorE13duplicateNodeEPN9QHashData4NodeEPv)
    t._ZN5QHashImP14CCenRepMonitorE6detachEv 0x0000f90e   Section       34  ccentralrepositoryhandler.o(t._ZN5QHashImP14CCenRepMonitorE6detachEv)
    t._ZN5QHashImP14CCenRepMonitorE6removeERKm 0x0000f930   Section      242  ccentralrepositoryhandler.o(t._ZN5QHashImP14CCenRepMonitorE6removeERKm)
    t._ZN5QHashImP14CCenRepMonitorE8freeDataEP9QHashData 0x0000fa24   Section       20  ccentralrepositoryhandler.o(t._ZN5QHashImP14CCenRepMonitorE8freeDataEP9QHashData)
    t._ZN5QHashImP14CCenRepMonitorED1Ev      0x0000fa38   Section       30  ccentralrepositoryhandler.o(t._ZN5QHashImP14CCenRepMonitorED1Ev)
    t._ZN5QHashImP14CCenRepMonitorEixERKm    0x0000fa56   Section      192  ccentralrepositoryhandler.o(t._ZN5QHashImP14CCenRepMonitorEixERKm)
    t._ZN5QHashImP14CCenRepMonitorEixERKm.clean 0x0000fb16   Section        4  ccentralrepositoryhandler.o(t._ZN5QHashImP14CCenRepMonitorEixERKm.clean)
    t._ZN5QHashImP14CPubSubMonitorE11deleteNode2EPN9QHashData4NodeE 0x0000fb1a   Section        6  cpublishandsubscribehandler.o(t._ZN5QHashImP14CPubSubMonitorE11deleteNode2EPN9QHashData4NodeE)
    t._ZN5QHashImP14CPubSubMonitorE13detach_helperEv 0x0000fb20   Section       60  cpublishandsubscribehandler.o(t._ZN5QHashImP14CPubSubMonitorE13detach_helperEv)
    t._ZN5QHashImP14CPubSubMonitorE13duplicateNodeEPN9QHashData4NodeEPv 0x0000fb5c   Section       46  cpublishandsubscribehandler.o(t._ZN5QHashImP14CPubSubMonitorE13duplicateNodeEPN9QHashData4NodeEPv)
    t._ZN5QHashImP14CPubSubMonitorE6detachEv 0x0000fb8a   Section       34  cpublishandsubscribehandler.o(t._ZN5QHashImP14CPubSubMonitorE6detachEv)
    t._ZN5QHashImP14CPubSubMonitorE6removeERKm 0x0000fbac   Section      242  cpublishandsubscribehandler.o(t._ZN5QHashImP14CPubSubMonitorE6removeERKm)
    t._ZN5QHashImP14CPubSubMonitorE8freeDataEP9QHashData 0x0000fca0   Section       20  cpublishandsubscribehandler.o(t._ZN5QHashImP14CPubSubMonitorE8freeDataEP9QHashData)
    t._ZN5QHashImP14CPubSubMonitorED1Ev      0x0000fcb4   Section       30  cpublishandsubscribehandler.o(t._ZN5QHashImP14CPubSubMonitorED1Ev)
    t._ZN5QHashImP14CPubSubMonitorEixERKm    0x0000fcd2   Section      192  cpublishandsubscribehandler.o(t._ZN5QHashImP14CPubSubMonitorEixERKm)
    t._ZN5QHashImP14CPubSubMonitorEixERKm.clean 0x0000fd92   Section        4  cpublishandsubscribehandler.o(t._ZN5QHashImP14CPubSubMonitorEixERKm.clean)
    t._ZN5QListI30XQCentralRepositorySettingsKeyE13detach_helperEi 0x0000fd96   Section       94  xqcentralrepositoryutils_p.o(t._ZN5QListI30XQCentralRepositorySettingsKeyE13detach_helperEi)
    t._ZN5QListI30XQCentralRepositorySettingsKeyE13detach_helperEi.clean 0x0000fdf4   Section        8  xqcentralrepositoryutils_p.o(t._ZN5QListI30XQCentralRepositorySettingsKeyE13detach_helperEi.clean)
    t._ZN5QListI30XQCentralRepositorySettingsKeyE13detach_helperEv 0x0000fdfc   Section       16  xqcentralrepositoryutils_p.o(t._ZN5QListI30XQCentralRepositorySettingsKeyE13detach_helperEv)
    t._ZN5QListI30XQCentralRepositorySettingsKeyE13node_destructEPNS1_4NodeES3_ 0x0000fe0c   Section       38  xqcentralrepositoryutils_p.o(t._ZN5QListI30XQCentralRepositorySettingsKeyE13node_destructEPNS1_4NodeES3_)
    t._ZN5QListI30XQCentralRepositorySettingsKeyE14node_constructEPNS1_4NodeERKS0_ 0x0000fe32   Section       32  xqcentralrepositoryutils_p.o(t._ZN5QListI30XQCentralRepositorySettingsKeyE14node_constructEPNS1_4NodeERKS0_)
    t._ZN5QListI30XQCentralRepositorySettingsKeyE14node_constructEPNS1_4NodeERKS0_.clean 0x0000fe52   Section        4  xqcentralrepositoryutils_p.o(t._ZN5QListI30XQCentralRepositorySettingsKeyE14node_constructEPNS1_4NodeERKS0_.clean)
    t._ZN5QListI30XQCentralRepositorySettingsKeyE18detach_helper_growEii 0x0000fe56   Section      208  xqcentralrepositoryutils_p.o(t._ZN5QListI30XQCentralRepositorySettingsKeyE18detach_helper_growEii)
    t._ZN5QListI30XQCentralRepositorySettingsKeyE18detach_helper_growEii.clean 0x0000ff26   Section       16  xqcentralrepositoryutils_p.o(t._ZN5QListI30XQCentralRepositorySettingsKeyE18detach_helper_growEii.clean)
    t._ZN5QListI30XQCentralRepositorySettingsKeyE4freeEPN9QListData4DataE 0x0000ff36   Section       58  xqcentralrepositoryutils_p.o(t._ZN5QListI30XQCentralRepositorySettingsKeyE4freeEPN9QListData4DataE)
    t._ZN5QListI30XQCentralRepositorySettingsKeyE6appendERKS0_ 0x0000ff70   Section      116  xqcentralrepositoryutils_p.o(t._ZN5QListI30XQCentralRepositorySettingsKeyE6appendERKS0_)
    t._ZN5QListI30XQCentralRepositorySettingsKeyE6appendERKS0_.clean 0x0000ffe4   Section       14  xqcentralrepositoryutils_p.o(t._ZN5QListI30XQCentralRepositorySettingsKeyE6appendERKS0_.clean)
    t._ZN5QListI30XQCentralRepositorySettingsKeyE9node_copyEPNS1_4NodeES3_S3_ 0x0000fff2   Section       94  xqcentralrepositoryutils_p.o(t._ZN5QListI30XQCentralRepositorySettingsKeyE9node_copyEPNS1_4NodeES3_S3_)
    t._ZN5QListI30XQCentralRepositorySettingsKeyE9node_copyEPNS1_4NodeES3_S3_.clean 0x00010050   Section       12  xqcentralrepositoryutils_p.o(t._ZN5QListI30XQCentralRepositorySettingsKeyE9node_copyEPNS1_4NodeES3_S3_.clean)
    t._ZN5QListI30XQCentralRepositorySettingsKeyEC1Ev 0x0001005c   Section       24  xqcentralrepositoryutils_p.o(t._ZN5QListI30XQCentralRepositorySettingsKeyEC1Ev)
    t._ZN5QListI30XQCentralRepositorySettingsKeyED1Ev 0x00010074   Section       32  xqcentralrepositoryutils_p.o(t._ZN5QListI30XQCentralRepositorySettingsKeyED1Ev)
    t._ZN5QListI7QStringE13detach_helperEi   0x00010094   Section       94  pathmapper_symbian.o(t._ZN5QListI7QStringE13detach_helperEi)
    t._ZN5QListI7QStringE13detach_helperEi.clean 0x000100f2   Section        8  pathmapper_symbian.o(t._ZN5QListI7QStringE13detach_helperEi.clean)
    t._ZN5QListI7QStringE13detach_helperEv   0x000100fa   Section       16  pathmapper_symbian.o(t._ZN5QListI7QStringE13detach_helperEv)
    t._ZN5QListI7QStringE13node_destructEPNS1_4NodeES3_ 0x0001010a   Section       26  pathmapper_symbian.o(t._ZN5QListI7QStringE13node_destructEPNS1_4NodeES3_)
    t._ZN5QListI7QStringE14node_constructEPNS1_4NodeERKS0_ 0x00010124   Section       36  pathmapper_symbian.o(t._ZN5QListI7QStringE14node_constructEPNS1_4NodeERKS0_)
    t._ZN5QListI7QStringE14node_constructEPNS1_4NodeERKS0_.clean 0x00010148   Section       14  pathmapper_symbian.o(t._ZN5QListI7QStringE14node_constructEPNS1_4NodeERKS0_.clean)
    t._ZN5QListI7QStringE18detach_helper_growEii 0x00010156   Section      208  pathmapper_symbian.o(t._ZN5QListI7QStringE18detach_helper_growEii)
    t._ZN5QListI7QStringE18detach_helper_growEii.clean 0x00010226   Section       16  pathmapper_symbian.o(t._ZN5QListI7QStringE18detach_helper_growEii.clean)
    t._ZN5QListI7QStringE4freeEPN9QListData4DataE 0x00010236   Section       58  pathmapper_symbian.o(t._ZN5QListI7QStringE4freeEPN9QListData4DataE)
    t._ZN5QListI7QStringE6appendERKS0_       0x00010270   Section      120  pathmapper_symbian.o(t._ZN5QListI7QStringE6appendERKS0_)
    t._ZN5QListI7QStringE6appendERKS0_.clean 0x000102e8   Section       14  pathmapper_symbian.o(t._ZN5QListI7QStringE6appendERKS0_.clean)
    t._ZN5QListI7QStringE9node_copyEPNS1_4NodeES3_S3_ 0x000102f6   Section       82  pathmapper_symbian.o(t._ZN5QListI7QStringE9node_copyEPNS1_4NodeES3_S3_)
    t._ZN5QListI7QStringE9node_copyEPNS1_4NodeES3_S3_.clean 0x00010348   Section       22  pathmapper_symbian.o(t._ZN5QListI7QStringE9node_copyEPNS1_4NodeES3_S3_.clean)
    t._ZN5QListI7QStringED1Ev                0x0001035e   Section       32  pathmapper_symbian.o(t._ZN5QListI7QStringED1Ev)
    t._ZN5QListI9QFileInfoE13detach_helperEi 0x0001037e   Section      176  pathmapper_symbian.o(t._ZN5QListI9QFileInfoE13detach_helperEi)
    t._ZN5QListI9QFileInfoE13detach_helperEi.clean 0x0001042e   Section       30  pathmapper_symbian.o(t._ZN5QListI9QFileInfoE13detach_helperEi.clean)
    t._ZN5QListI9QFileInfoE13detach_helperEv 0x0001044c   Section       16  pathmapper_symbian.o(t._ZN5QListI9QFileInfoE13detach_helperEv)
    t._ZN5QListI9QFileInfoE4freeEPN9QListData4DataE 0x0001045c   Section       70  pathmapper_symbian.o(t._ZN5QListI9QFileInfoE4freeEPN9QListData4DataE)
    t._ZN5QListI9QFileInfoED1Ev              0x000104a2   Section       32  pathmapper_symbian.o(t._ZN5QListI9QFileInfoED1Ev)
    t._ZN5QListIN10QtMobility7KeyDataEE13detach_helperEi 0x000104c2   Section       94  qcrmlparser.o(t._ZN5QListIN10QtMobility7KeyDataEE13detach_helperEi)
    t._ZN5QListIN10QtMobility7KeyDataEE13detach_helperEi.clean 0x00010520   Section        8  qcrmlparser.o(t._ZN5QListIN10QtMobility7KeyDataEE13detach_helperEi.clean)
    t._ZN5QListIN10QtMobility7KeyDataEE13detach_helperEv 0x00010528   Section       16  pathmapper_symbian.o(t._ZN5QListIN10QtMobility7KeyDataEE13detach_helperEv)
    t._ZN5QListIN10QtMobility7KeyDataEE13node_destructEPNS2_4NodeES4_ 0x00010538   Section       38  qcrmlparser.o(t._ZN5QListIN10QtMobility7KeyDataEE13node_destructEPNS2_4NodeES4_)
    t._ZN5QListIN10QtMobility7KeyDataEE14node_constructEPNS2_4NodeERKS1_ 0x0001055e   Section       34  qcrmlparser.o(t._ZN5QListIN10QtMobility7KeyDataEE14node_constructEPNS2_4NodeERKS1_)
    t._ZN5QListIN10QtMobility7KeyDataEE14node_constructEPNS2_4NodeERKS1_.clean 0x00010580   Section       14  qcrmlparser.o(t._ZN5QListIN10QtMobility7KeyDataEE14node_constructEPNS2_4NodeERKS1_.clean)
    t._ZN5QListIN10QtMobility7KeyDataEE18detach_helper_growEii 0x0001058e   Section      208  qcrmlparser.o(t._ZN5QListIN10QtMobility7KeyDataEE18detach_helper_growEii)
    t._ZN5QListIN10QtMobility7KeyDataEE18detach_helper_growEii.clean 0x0001065e   Section       16  qcrmlparser.o(t._ZN5QListIN10QtMobility7KeyDataEE18detach_helper_growEii.clean)
    t._ZN5QListIN10QtMobility7KeyDataEE4freeEPN9QListData4DataE 0x0001066e   Section       58  qcrmlparser.o(t._ZN5QListIN10QtMobility7KeyDataEE4freeEPN9QListData4DataE)
    t._ZN5QListIN10QtMobility7KeyDataEE5clearEv 0x000106a8   Section       28  qcrmlparser.o(t._ZN5QListIN10QtMobility7KeyDataEE5clearEv)
    t._ZN5QListIN10QtMobility7KeyDataEE5clearEv.clean 0x000106c4   Section       10  qcrmlparser.o(t._ZN5QListIN10QtMobility7KeyDataEE5clearEv.clean)
    t._ZN5QListIN10QtMobility7KeyDataEE6appendERKS1_ 0x000106d0   Section      112  qcrmlparser.o(t._ZN5QListIN10QtMobility7KeyDataEE6appendERKS1_)
    t._ZN5QListIN10QtMobility7KeyDataEE6appendERKS1_.clean 0x00010740   Section       14  qcrmlparser.o(t._ZN5QListIN10QtMobility7KeyDataEE6appendERKS1_.clean)
    t._ZN5QListIN10QtMobility7KeyDataEE9node_copyEPNS2_4NodeES4_S4_ 0x0001074e   Section       92  qcrmlparser.o(t._ZN5QListIN10QtMobility7KeyDataEE9node_copyEPNS2_4NodeES4_S4_)
    t._ZN5QListIN10QtMobility7KeyDataEE9node_copyEPNS2_4NodeES4_S4_.clean 0x000107aa   Section       22  qcrmlparser.o(t._ZN5QListIN10QtMobility7KeyDataEE9node_copyEPNS2_4NodeES4_S4_.clean)
    t._ZN5QListIN10QtMobility7KeyDataEEC1Ev  0x000107c0   Section       24  qcrmlparser.o(t._ZN5QListIN10QtMobility7KeyDataEEC1Ev)
    t._ZN5QListIN10QtMobility7KeyDataEED1Ev  0x000107d8   Section       32  pathmapper_symbian.o(t._ZN5QListIN10QtMobility7KeyDataEED1Ev)
    t._ZN5QListIN10QtMobility7KeyDataEEaSERKS2_ 0x000107f8   Section       64  qcrmlparser.o(t._ZN5QListIN10QtMobility7KeyDataEEaSERKS2_)
    t._ZN5QListIN10QtMobility7KeyDataEEpLERKS2_ 0x00010838   Section      160  qcrmlparser.o(t._ZN5QListIN10QtMobility7KeyDataEEpLERKS2_)
    t._ZN5QListIN10QtMobility7KeyDataEEpLERKS2_.clean 0x000108d8   Section        8  qcrmlparser.o(t._ZN5QListIN10QtMobility7KeyDataEEpLERKS2_.clean)
    t._ZN5QListIN35XQPublishAndSubscribeSecurityPolicy10CapabilityEE13detach_helperEi 0x000108e0   Section      190  xqpublishandsubscribesecuritypolicy.o(t._ZN5QListIN35XQPublishAndSubscribeSecurityPolicy10CapabilityEE13detach_helperEi)
    t._ZN5QListIN35XQPublishAndSubscribeSecurityPolicy10CapabilityEE13detach_helperEi.clean 0x0001099e   Section       16  xqpublishandsubscribesecuritypolicy.o(t._ZN5QListIN35XQPublishAndSubscribeSecurityPolicy10CapabilityEE13detach_helperEi.clean)
    t._ZN5QListIN35XQPublishAndSubscribeSecurityPolicy10CapabilityEE13detach_helperEv 0x000109ae   Section       16  xqpublishandsubscribesecuritypolicy.o(t._ZN5QListIN35XQPublishAndSubscribeSecurityPolicy10CapabilityEE13detach_helperEv)
    t._ZN5QListIN35XQPublishAndSubscribeSecurityPolicy10CapabilityEE4freeEPN9QListData4DataE 0x000109be   Section       70  cpublishandsubscribehandler.o(t._ZN5QListIN35XQPublishAndSubscribeSecurityPolicy10CapabilityEE4freeEPN9QListData4DataE)
    t._ZN5QListIN35XQPublishAndSubscribeSecurityPolicy10CapabilityEEC1ERKS2_ 0x00010a04   Section       36  xqpublishandsubscribesecuritypolicy.o(t._ZN5QListIN35XQPublishAndSubscribeSecurityPolicy10CapabilityEEC1ERKS2_)
    t._ZN5QListIN35XQPublishAndSubscribeSecurityPolicy10CapabilityEED1Ev 0x00010a28   Section       32  cpublishandsubscribehandler.o(t._ZN5QListIN35XQPublishAndSubscribeSecurityPolicy10CapabilityEED1Ev)
    t._ZN7QVectorI19QXmlStreamAttributeE4freeEP16QVectorTypedDataIS0_E 0x00010a48   Section       54  qcrmlparser.o(t._ZN7QVectorI19QXmlStreamAttributeE4freeEP16QVectorTypedDataIS0_E)
    t._ZN7QVectorI19QXmlStreamAttributeED1Ev 0x00010a7e   Section       34  qcrmlparser.o(t._ZN7QVectorI19QXmlStreamAttributeED1Ev)
    t._ZN8TPckgBufIiEC1ERKi                  0x00010aa0   Section       46  pspathmappersession.o(t._ZN8TPckgBufIiEC1ERKi)
    t._ZN9QHashNodeI7QStringN10QtMobility10PathMapper8PathDataEEC1ERKS0_RKS3_ 0x00010ace   Section       38  pathmapper_symbian.o(t._ZN9QHashNodeI7QStringN10QtMobility10PathMapper8PathDataEEC1ERKS0_RKS3_)
    t._ZN9QHashNodeI7QStringN10QtMobility10PathMapper8PathDataEEC1ERKS0_RKS3_.clean 0x00010af4   Section        4  pathmapper_symbian.o(t._ZN9QHashNodeI7QStringN10QtMobility10PathMapper8PathDataEEC1ERKS0_RKS3_.clean)
    t._ZNK17QForeachContainerI11QStringListE9conditionEv 0x00010af8   Section       40  pathmapper_symbian.o(t._ZNK17QForeachContainerI11QStringListE9conditionEv)
    t._ZNK5QHashI7QString15QHashDummyValueE8findNodeERKS0_Pj 0x00010b20   Section      116  pathmapper_symbian.o(t._ZNK5QHashI7QString15QHashDummyValueE8findNodeERKS0_Pj)
    t._ZNK5QHashI7QStringN10QtMobility10PathMapper8PathDataEE8containsERKS0_ 0x00010b94   Section       32  pathmapper_symbian.o(t._ZNK5QHashI7QStringN10QtMobility10PathMapper8PathDataEE8containsERKS0_)
    t._ZNK5QHashI7QStringN10QtMobility10PathMapper8PathDataEE8findNodeERKS0_Pj 0x00010bb4   Section      116  pathmapper_symbian.o(t._ZNK5QHashI7QStringN10QtMobility10PathMapper8PathDataEE8findNodeERKS0_Pj)
    t._ZNK5QHashIlP25CCentralRepositoryHandlerE5valueERKl 0x00010c28   Section       40  xqsettingsmanager_p.o(t._ZNK5QHashIlP25CCentralRepositoryHandlerE5valueERKl)
    t._ZNK5QHashIlP25CCentralRepositoryHandlerE8containsERKl 0x00010c50   Section       32  xqsettingsmanager_p.o(t._ZNK5QHashIlP25CCentralRepositoryHandlerE8containsERKl)
    t._ZNK5QHashIlP25CCentralRepositoryHandlerE8findNodeERKlPj 0x00010c70   Section      106  xqsettingsmanager_p.o(t._ZNK5QHashIlP25CCentralRepositoryHandlerE8findNodeERKlPj)
    t._ZNK5QHashIlP27CPublishAndSubscribeHandlerE5valueERKl 0x00010cda   Section       40  xqsettingsmanager_p.o(t._ZNK5QHashIlP27CPublishAndSubscribeHandlerE5valueERKl)
    t._ZNK5QHashIlP27CPublishAndSubscribeHandlerE8containsERKl 0x00010d02   Section       32  xqsettingsmanager_p.o(t._ZNK5QHashIlP27CPublishAndSubscribeHandlerE8containsERKl)
    t._ZNK5QHashIlP27CPublishAndSubscribeHandlerE8findNodeERKlPj 0x00010d22   Section      106  xqsettingsmanager_p.o(t._ZNK5QHashIlP27CPublishAndSubscribeHandlerE8findNodeERKlPj)
    t._ZNK5QHashImP14CCenRepMonitorE8containsERKm 0x00010d8c   Section       32  ccentralrepositoryhandler.o(t._ZNK5QHashImP14CCenRepMonitorE8containsERKm)
    t._ZNK5QHashImP14CCenRepMonitorE8findNodeERKmPj 0x00010dac   Section      102  ccentralrepositoryhandler.o(t._ZNK5QHashImP14CCenRepMonitorE8findNodeERKmPj)
    t._ZNK5QHashImP14CPubSubMonitorE8containsERKm 0x00010e12   Section       32  cpublishandsubscribehandler.o(t._ZNK5QHashImP14CPubSubMonitorE8containsERKm)
    t._ZNK5QHashImP14CPubSubMonitorE8findNodeERKmPj 0x00010e32   Section      102  cpublishandsubscribehandler.o(t._ZNK5QHashImP14CPubSubMonitorE8findNodeERKmPj)
    t._ZNK5QListIN10QtMobility7KeyDataEE7isEmptyEv 0x00010e98   Section       24  qcrmlparser.o(t._ZNK5QListIN10QtMobility7KeyDataEE7isEmptyEv)
    t._ZNK5QListIN35XQPublishAndSubscribeSecurityPolicy10CapabilityEE5countEv 0x00010eb0   Section       16  cpublishandsubscribehandler.o(t._ZNK5QListIN35XQPublishAndSubscribeSecurityPolicy10CapabilityEE5countEv)
    t._ZNK5QListIN35XQPublishAndSubscribeSecurityPolicy10CapabilityEEixEi 0x00010ec0   Section       30  cpublishandsubscribehandler.o(t._ZNK5QListIN35XQPublishAndSubscribeSecurityPolicy10CapabilityEEixEi)
    t._ZlsI7QStringER11QDataStreamS2_RK4QSetIT_E 0x00010ede   Section      190  pspathmappersession.o(t._ZlsI7QStringER11QDataStreamS2_RK4QSetIT_E)
    t._ZlsI7QStringER11QDataStreamS2_RK5QListIT_E 0x00010f9c   Section      100  pspathmappersession.o(t._ZlsI7QStringER11QDataStreamS2_RK5QListIT_E)
    .ARM.extab                               0x00011000   Section       16  uc_exe_.o(.ARM.extab)
    .extab.main                              0x00011010   Data           0  pspathmapperservermain.o(.ARM.extab)
    .extab._ZN5CBasenwEj                     0x00011028   Data           0  pspathmapperservermain.o(.ARM.extab)
    .extab._ZN10QtMobility21CCRMLDirectoryMonitorC1Ev 0x00011038   Data           0  pathmapper_symbian.o(.ARM.extab)
    .extab._ZN10QtMobility21CCRMLDirectoryMonitorD1Ev 0x00011050   Data           0  pathmapper_symbian.o(.ARM.extab)
    .extab._ZN10QtMobility10PathMapper14updateMappingsEv 0x00011068   Data           0  pathmapper_symbian.o(.ARM.extab)
    .extab._ZN10QtMobility10PathMapperC1Ev   0x000111c0   Data           0  pathmapper_symbian.o(.ARM.extab)
    .extab._ZN10QtMobility10PathMapperD1Ev   0x00011200   Data           0  pathmapper_symbian.o(.ARM.extab)
    .extab._ZNK10QtMobility10PathMapper10childPathsERK7QString 0x00011220   Data           0  pathmapper_symbian.o(.ARM.extab)
    .extab._ZNK10QtMobility10PathMapper11getChildrenERK7QStringR4QSetIS1_E 0x00011268   Data           0  pathmapper_symbian.o(.ARM.extab)
    .extab._ZN5QListI9QFileInfoE13detach_helperEi 0x000112d8   Data           0  pathmapper_symbian.o(.ARM.extab)
    .extab._ZN5QListI7QStringE9node_copyEPNS1_4NodeES3_S3_ 0x0001131c   Data           0  pathmapper_symbian.o(.ARM.extab)
    .extab._ZN5QListI7QStringE13detach_helperEi 0x00011340   Data           0  pathmapper_symbian.o(.ARM.extab)
    .extab._Z20qForeachContainerNewI11QStringListE17QForeachContainerIT_ERKS2_ 0x0001135c   Data           0  pathmapper_symbian.o(.ARM.extab)
    .extab._ZN5QListI7QStringE14node_constructEPNS1_4NodeERKS0_ 0x0001136c   Data           0  pathmapper_symbian.o(.ARM.extab)
    .extab._ZN5QListI7QStringE18detach_helper_growEii 0x0001137c   Data           0  pathmapper_symbian.o(.ARM.extab)
    .extab._ZN5QListI7QStringE6appendERKS0_  0x000113ac   Data           0  pathmapper_symbian.o(.ARM.extab)
    .extab._ZN6QDebugD1Ev                    0x000113dc   Data           0  pathmapper_symbian.o(.ARM.extab)
    .extab._ZN5QHashI7QString15QHashDummyValueE13duplicateNodeEPN9QHashData4NodeEPv 0x00011400   Data           0  pathmapper_symbian.o(.ARM.extab)
    .extab._ZN5QHashI7QString15QHashDummyValueE6insertERKS0_RKS1_ 0x00011410   Data           0  pathmapper_symbian.o(.ARM.extab)
    .extab._ZN5QHashI7QStringN10QtMobility10PathMapper8PathDataEE13duplicateNodeEPN9QHashData4NodeEPv 0x00011420   Data           0  pathmapper_symbian.o(.ARM.extab)
    .extab._ZN10QtMobility11QCrmlParserD1Ev  0x00011430   Data           0  pathmapper_symbian.o(.ARM.extab)
    .extab._ZN5QHashI7QStringN10QtMobility10PathMapper8PathDataEE6insertERKS0_RKS3_ 0x00011440   Data           0  pathmapper_symbian.o(.ARM.extab)
    .extab._ZN10QtMobility7KeyDataC1ERK7QStringyNS0_6TargetEj 0x00011458   Data           0  qcrmlparser.o(.ARM.extab)
    .extab._ZN10QtMobility11QCrmlParser19parseUnknownElementEv 0x00011468   Data           0  qcrmlparser.o(.ARM.extab)
    .extab._ZN10QtMobility11QCrmlParser24checkMandatoryAttributesERK11QStringList 0x00011478   Data           0  qcrmlparser.o(.ARM.extab)
    .extab._ZN10QtMobility11QCrmlParser8parseBitEjj 0x000114e0   Data           0  qcrmlparser.o(.ARM.extab)
    .extab._ZN10QtMobility11QCrmlParser8parseKeyEj 0x00011680   Data           0  qcrmlparser.o(.ARM.extab)
    .extab._ZN10QtMobility11QCrmlParser13parseKeyRangeEj 0x000118e0   Data           0  qcrmlparser.o(.ARM.extab)
    .extab._ZN10QtMobility11QCrmlParser15parseRepositoryEv 0x00011d30   Data           0  qcrmlparser.o(.ARM.extab)
    .extab._ZN10QtMobility11QCrmlParser10parseQCrmlERK7QString 0x00011f00   Data           0  qcrmlparser.o(.ARM.extab)
    .extab._ZplRK7QStringS1_                 0x00011fe0   Data           0  qcrmlparser.o(.ARM.extab)
    .extab._Z23qStringComparisonHelperRK10QStringRefPKc 0x00011ff0   Data           0  qcrmlparser.o(.ARM.extab)
    .extab._ZN5QListIN10QtMobility7KeyDataEE9node_copyEPNS2_4NodeES4_S4_ 0x00012000   Data           0  qcrmlparser.o(.ARM.extab)
    .extab._ZN5QListIN10QtMobility7KeyDataEE13detach_helperEi 0x00012024   Data           0  qcrmlparser.o(.ARM.extab)
    .extab._ZN5QListIN10QtMobility7KeyDataEE5clearEv 0x00012040   Data           0  qcrmlparser.o(.ARM.extab)
    .extab._ZN5QListIN10QtMobility7KeyDataEE14node_constructEPNS2_4NodeERKS1_ 0x00012050   Data           0  qcrmlparser.o(.ARM.extab)
    .extab._ZN5QListIN10QtMobility7KeyDataEE18detach_helper_growEii 0x00012060   Data           0  qcrmlparser.o(.ARM.extab)
    .extab._ZN5QListIN10QtMobility7KeyDataEE6appendERKS1_ 0x00012090   Data           0  qcrmlparser.o(.ARM.extab)
    .extab._ZN5QListIN10QtMobility7KeyDataEEpLERKS2_ 0x000120c0   Data           0  qcrmlparser.o(.ARM.extab)
    .extab._ZN10QtMobility19CPSPathMapperServerC1Ev 0x000120dc   Data           0  pspathmapperserver.o(.ARM.extab)
    .extab._ZN10QtMobility19CPSPathMapperServerD1Ev 0x000120f4   Data           0  pspathmapperserver.o(.ARM.extab)
    .extab._ZN10QtMobility26CPSPathMapperServerSessionC1ERKNS_10PathMapperERNS_19CPSPathMapperServerE 0x00012104   Data           0  pspathmappersession.o(.ARM.extab)
    .extab._ZN10QtMobility26CPSPathMapperServerSessionD1Ev 0x0001211c   Data           0  pspathmappersession.o(.ARM.extab)
    .extab._ZN10QtMobility26CPSPathMapperServerSession18ResolvePathLengthLERK9RMessage2 0x00012134   Data           0  pspathmappersession.o(.ARM.extab)
    .extab._ZN10QtMobility26CPSPathMapperServerSession17ChildPathsLengthLERK9RMessage2 0x00012174   Data           0  pspathmappersession.o(.ARM.extab)
    .extab._ZN10QtMobility26CPSPathMapperServerSession18GetChildrenLengthLERK9RMessage2 0x000121d4   Data           0  pspathmappersession.o(.ARM.extab)
    .extab._ZN10QtMobility26CPSPathMapperServerSession8ServiceLERK9RMessage2 0x00012224   Data           0  pspathmappersession.o(.ARM.extab)
    .extab._ZN17XQSettingsManagerC1EP7QObject 0x00012254   Data           0  xqsettingsmanager.o(.ARM.extab)
    .extab._ZN17XQSettingsManagerD1Ev        0x00012264   Data           0  xqsettingsmanager.o(.ARM.extab)
    .extab._ZN24XQSettingsManagerPrivateC1EP17XQSettingsManager 0x00012274   Data           0  xqsettingsmanager_p.o(.ARM.extab)
    .extab._ZN24XQSettingsManagerPrivateD1Ev 0x0001228c   Data           0  xqsettingsmanager_p.o(.ARM.extab)
    .extab._ZN24XQSettingsManagerPrivate21pubSubHandlerInstanceEl 0x000122dc   Data           0  xqsettingsmanager_p.o(.ARM.extab)
    .extab._ZN24XQSettingsManagerPrivate21cenRepHandlerInstanceEl 0x0001230c   Data           0  xqsettingsmanager_p.o(.ARM.extab)
    .extab._ZN24XQSettingsManagerPrivate12valueChangedERK13XQSettingsKeyN17XQSettingsManager4TypeE 0x0001233c   Data           0  xqsettingsmanager_p.o(.ARM.extab)
    .extab._ZN24XQSettingsManagerPrivate11itemDeletedERK13XQSettingsKey 0x0001234c   Data           0  xqsettingsmanager_p.o(.ARM.extab)
    .extab._ZN5QHashIlP27CPublishAndSubscribeHandlerEixERKl 0x0001235c   Data           0  xqsettingsmanager_p.o(.ARM.extab)
    .extab._ZN5QHashIlP25CCentralRepositoryHandlerEixERKl 0x0001236c   Data           0  xqsettingsmanager_p.o(.ARM.extab)
    .extab._ZN19SettingsHandlerBase19handleReadItemValueERK13XQSettingsKeyN17XQSettingsManager4TypeERi 0x0001237c   Data           0  settingshandlerbase.o(.ARM.extab)
    .extab._ZN19SettingsHandlerBase20handleWriteItemValueERK13XQSettingsKeyRK8QVariantRi 0x00012444   Data           0  settingshandlerbase.o(.ARM.extab)
    .extab._Z16qVariantSetValueI10QByteArrayEvR8QVariantRKT_ 0x00012464   Data           0  settingshandlerbase.o(.ARM.extab)
    .extab._Z16qVariantSetValueI7QStringEvR8QVariantRKT_ 0x0001248c   Data           0  settingshandlerbase.o(.ARM.extab)
    .extab._ZN25CCentralRepositoryHandlerC1E4TUid 0x000124b4   Data           0  ccentralrepositoryhandler.o(.ARM.extab)
    .extab._ZN25CCentralRepositoryHandlerD1Ev 0x000124c4   Data           0  ccentralrepositoryhandler.o(.ARM.extab)
    .extab._ZN25CCentralRepositoryHandler21handleStartMonitoringERK13XQSettingsKeyN17XQSettingsManager4TypeER24MSettingsHandlerObserverRi 0x000124ec   Data           0  ccentralrepositoryhandler.o(.ARM.extab)
    .extab._ZThn4_N25CCentralRepositoryHandler21handleStartMonitoringERK13XQSettingsKeyN17XQSettingsManager4TypeER24MSettingsHandlerObserverRi 0x000124fc   Data           0  ccentralrepositoryhandler.o(.ARM.extab)
    .extab._ZN5QHashImP14CCenRepMonitorEixERKm 0x0001250c   Data           0  ccentralrepositoryhandler.o(.ARM.extab)
    .extab._ZN5QHashImP14CCenRepMonitorE6removeERKm 0x0001251c   Data           0  ccentralrepositoryhandler.o(.ARM.extab)
    .extab._ZN27CPublishAndSubscribeHandlerC1E4TUid 0x00012530   Data           0  cpublishandsubscribehandler.o(.ARM.extab)
    .extab._ZN27CPublishAndSubscribeHandlerD1Ev 0x00012540   Data           0  cpublishandsubscribehandler.o(.ARM.extab)
    .extab._ZN27CPublishAndSubscribeHandler13symbianPolicyERK35XQPublishAndSubscribeSecurityPolicy 0x00012558   Data           0  cpublishandsubscribehandler.o(.ARM.extab)
    .extab._ZN27CPublishAndSubscribeHandler21handleStartMonitoringERK13XQSettingsKeyN17XQSettingsManager4TypeER24MSettingsHandlerObserverRi 0x00012580   Data           0  cpublishandsubscribehandler.o(.ARM.extab)
    .extab._ZThn4_N27CPublishAndSubscribeHandler21handleStartMonitoringERK13XQSettingsKeyN17XQSettingsManager4TypeER24MSettingsHandlerObserverRi 0x00012590   Data           0  cpublishandsubscribehandler.o(.ARM.extab)
    .extab._ZN5QHashImP14CPubSubMonitorEixERKm 0x000125a0   Data           0  cpublishandsubscribehandler.o(.ARM.extab)
    .extab._ZN5QHashImP14CPubSubMonitorE6removeERKm 0x000125b0   Data           0  cpublishandsubscribehandler.o(.ARM.extab)
    .extab._ZN14CCenRepMonitorC1ER11CRepositoryRK13XQSettingsKeyN17XQSettingsManager4TypeER24MSettingsHandlerObserver 0x000125c4   Data           0  cenrepmonitor.o(.ARM.extab)
    .extab._ZN14CCenRepMonitorD1Ev           0x000125d4   Data           0  cenrepmonitor.o(.ARM.extab)
    .extab._ZN14CPubSubMonitorC1ERK13XQSettingsKeyN17XQSettingsManager4TypeER24MSettingsHandlerObserver 0x000125ec   Data           0  pubsubmonitor.o(.ARM.extab)
    .extab._ZN14CPubSubMonitorD1Ev           0x000125fc   Data           0  pubsubmonitor.o(.ARM.extab)
    .extab._ZN24XQCentralRepositoryUtilsC1ER17XQSettingsManagerP7QObject 0x00012614   Data           0  xqcentralrepositoryutils.o(.ARM.extab)
    .extab._ZN31XQCentralRepositoryUtilsPrivate8findKeysERK33XQCentralRepositorySearchCriteria 0x0001262c   Data           0  xqcentralrepositoryutils_p.o(.ARM.extab)
    .extab._ZN5QListI30XQCentralRepositorySettingsKeyE9node_copyEPNS1_4NodeES3_S3_ 0x00012684   Data           0  xqcentralrepositoryutils_p.o(.ARM.extab)
    .extab._ZN5QListI30XQCentralRepositorySettingsKeyE13detach_helperEi 0x000126a0   Data           0  xqcentralrepositoryutils_p.o(.ARM.extab)
    .extab._ZN5QListI30XQCentralRepositorySettingsKeyE18detach_helper_growEii 0x000126bc   Data           0  xqcentralrepositoryutils_p.o(.ARM.extab)
    .extab._ZN5QListI30XQCentralRepositorySettingsKeyE6appendERKS0_ 0x000126ec   Data           0  xqcentralrepositoryutils_p.o(.ARM.extab)
    .extab._ZN26XQPublishAndSubscribeUtilsC1ER17XQSettingsManagerP7QObject 0x0001271c   Data           0  xqpublishandsubscribeutils.o(.ARM.extab)
    .extab._ZN5QListIN35XQPublishAndSubscribeSecurityPolicy10CapabilityEE13detach_helperEi 0x00012734   Data           0  xqpublishandsubscribesecuritypolicy.o(.ARM.extab)
    .extab._Z13QtMainWrapperv                0x00012770   Data           0  qts60main_mcrt0.o(.ARM.extab)
    .extab.CallThrdProcEntry                 0x000127b4   Data           0  callfirstprocessfn.o(.ARM.extab)
    .extab._Z7E32Mainv                       0x000127d0   Data           0  qts60main.o(.ARM.extab)
    .constdata$1                             0x00012800   Data           0  moc_xqsettingsmanager.o(.constdata)
    qt_meta_data_XQSettingsManager           0x00012800   Data         236  moc_xqsettingsmanager.o(.constdata)
    .constdata                               0x00012800   Section      544  moc_xqsettingsmanager.o(.constdata)
    qt_meta_stringdata_XQSettingsManager     0x000128ec   Data         289  moc_xqsettingsmanager.o(.constdata)
    .constdata$1                             0x00012a20   Data           0  pspathmapperservermain.o(.constdata)
    KPSPathMapperServerName                  0x00012a20   Data          48  pspathmapperservermain.o(.constdata)
    .constdata                               0x00012a20   Section       48  pspathmapperservermain.o(.constdata)
    .constdata$1                             0x00012a50   Data           0  pathmapper_symbian.o(.constdata)
    .constdata                               0x00012a50   Section      312  pathmapper_symbian.o(.constdata)
    QtMobility::qt_meta_data_CCRMLDirectoryMonitor 0x00012a70   Data          80  pathmapper_symbian.o(.constdata)
    QtMobility::qt_meta_stringdata_CCRMLDirectoryMonitor 0x00012ac0   Data          43  pathmapper_symbian.o(.constdata)
    QtMobility::qt_meta_data_PathMapper      0x00012aec   Data          80  pathmapper_symbian.o(.constdata)
    QtMobility::qt_meta_stringdata_PathMapper 0x00012b3c   Data          30  pathmapper_symbian.o(.constdata)
    KCRMLDirectory@_ZN10QtMobility21CCRMLDirectoryMonitor17IssueNotifyChangeEv_0 0x00012b5c   Data          44  pathmapper_symbian.o(.constdata)
    .constdata$1                             0x00012b88   Data           0  qcrmlparser.o(.constdata)
    .constdata                               0x00012b88   Section      200  qcrmlparser.o(.constdata)
    .constdata$1                             0x00012c50   Data           0  pspathmapperserver.o(.constdata)
    .constdata                               0x00012c50   Section       60  pspathmapperserver.o(.constdata)
    KTxtServerPanic@_ZN10QtMobility19CPSPathMapperServer11PanicServerE24TPSPathMapperServerPanic_0 0x00012c54   Data          56  pspathmapperserver.o(.constdata)
    .constdata$1                             0x00012c8c   Data           0  pspathmappersession.o(.constdata)
    KUnknownOpCode                           0x00012c8c   Data          36  pspathmappersession.o(.constdata)
    .constdata                               0x00012c8c   Section       36  pspathmappersession.o(.constdata)
    .constdata$1                             0x00012cb0   Data           0  callfirstprocessfn.o(.constdata)
    KLitUser                                 0x00012cb0   Data          16  callfirstprocessfn.o(.constdata)
    .constdata                               0x00012cb0   Section       16  callfirstprocessfn.o(.constdata)
    .constdata__ZN9stlp_priv15_Integer_limitsIaLan128ELa127ELin1ELb1EE6digitsE 0x00012cc0   Section        4  moc_xqsettingsmanager.o(.constdata__ZN9stlp_priv15_Integer_limitsIaLan128ELa127ELin1ELb1EE6digitsE)
    .constdata__ZN9stlp_priv15_Integer_limitsIbLb0ELb1ELi1ELb0EE6digitsE 0x00012cc4   Section        4  moc_xqsettingsmanager.o(.constdata__ZN9stlp_priv15_Integer_limitsIbLb0ELb1ELi1ELb0EE6digitsE)
    .constdata__ZN9stlp_priv15_Integer_limitsIcLc128ELc127ELin1ELb1EE6digitsE 0x00012cc8   Section        4  moc_xqsettingsmanager.o(.constdata__ZN9stlp_priv15_Integer_limitsIcLc128ELc127ELin1ELb1EE6digitsE)
    .constdata__ZN9stlp_priv15_Integer_limitsIhLh0ELh255ELin1ELb1EE6digitsE 0x00012ccc   Section        4  moc_xqsettingsmanager.o(.constdata__ZN9stlp_priv15_Integer_limitsIhLh0ELh255ELin1ELb1EE6digitsE)
    .constdata__ZN9stlp_priv15_Integer_limitsIiLin2147483648ELi2147483647ELin1ELb1EE6digitsE 0x00012cd0   Section        4  moc_xqsettingsmanager.o(.constdata__ZN9stlp_priv15_Integer_limitsIiLin2147483648ELi2147483647ELin1ELb1EE6digitsE)
    .constdata__ZN9stlp_priv15_Integer_limitsIiLin2147483648ELi2147483647ELin1ELb1EE9is_signedE 0x00012cd4   Section        1  moc_xqsettingsmanager.o(.constdata__ZN9stlp_priv15_Integer_limitsIiLin2147483648ELi2147483647ELin1ELb1EE9is_signedE)
    .constdata__ZN9stlp_priv15_Integer_limitsIjLj0ELj4294967295ELin1ELb1EE6digitsE 0x00012cd8   Section        4  moc_xqsettingsmanager.o(.constdata__ZN9stlp_priv15_Integer_limitsIjLj0ELj4294967295ELin1ELb1EE6digitsE)
    .constdata__ZN9stlp_priv15_Integer_limitsIlLln2147483648ELl2147483647ELin1ELb1EE6digitsE 0x00012cdc   Section        4  moc_xqsettingsmanager.o(.constdata__ZN9stlp_priv15_Integer_limitsIlLln2147483648ELl2147483647ELin1ELb1EE6digitsE)
    .constdata__ZN9stlp_priv15_Integer_limitsImLm0ELm4294967295ELin1ELb1EE6digitsE 0x00012ce0   Section        4  moc_xqsettingsmanager.o(.constdata__ZN9stlp_priv15_Integer_limitsImLm0ELm4294967295ELin1ELb1EE6digitsE)
    .constdata__ZN9stlp_priv15_Integer_limitsIsLsn32768ELs32767ELin1ELb1EE6digitsE 0x00012ce4   Section        4  moc_xqsettingsmanager.o(.constdata__ZN9stlp_priv15_Integer_limitsIsLsn32768ELs32767ELin1ELb1EE6digitsE)
    .constdata__ZN9stlp_priv15_Integer_limitsItLt0ELt65535ELin1ELb1EE6digitsE 0x00012ce8   Section        4  moc_xqsettingsmanager.o(.constdata__ZN9stlp_priv15_Integer_limitsItLt0ELt65535ELin1ELb1EE6digitsE)
    .constdata__ZN9stlp_priv15_Integer_limitsIwLw0ELw65535ELin1ELb1EE6digitsE 0x00012cec   Section        4  moc_xqsettingsmanager.o(.constdata__ZN9stlp_priv15_Integer_limitsIwLw0ELw65535ELin1ELb1EE6digitsE)
    .constdata__ZN9stlp_priv15_Integer_limitsIxLxn9223372036854775808ELx9223372036854775807ELin1ELb1EE6digitsE 0x00012cf0   Section        4  moc_xqsettingsmanager.o(.constdata__ZN9stlp_priv15_Integer_limitsIxLxn9223372036854775808ELx9223372036854775807ELin1ELb1EE6digitsE)
    .constdata__ZN9stlp_priv15_Integer_limitsIyLy0ELy18446744073709551615ELin1ELb1EE6digitsE 0x00012cf4   Section        4  moc_xqsettingsmanager.o(.constdata__ZN9stlp_priv15_Integer_limitsIyLy0ELy18446744073709551615ELin1ELb1EE6digitsE)
    .constdata__ZTI14CCenRepMonitor          0x00012cf8   Section       12  cenrepmonitor.o(.constdata__ZTI14CCenRepMonitor)
    .constdata__ZTI14CPubSubMonitor          0x00012d04   Section       12  pubsubmonitor.o(.constdata__ZTI14CPubSubMonitor)
    .constdata__ZTI17XQSettingsManager       0x00012d10   Section       12  moc_xqsettingsmanager.o(.constdata__ZTI17XQSettingsManager)
    .constdata__ZTI19SettingsHandlerBase     0x00012d1c   Section        8  ccentralrepositoryhandler.o(.constdata__ZTI19SettingsHandlerBase)
    .constdata__ZTI24MSettingsHandlerObserver 0x00012d24   Section        8  xqsettingsmanager_p.o(.constdata__ZTI24MSettingsHandlerObserver)
    .constdata__ZTI24XQCentralRepositoryUtils 0x00012d2c   Section       12  xqcentralrepositoryutils.o(.constdata__ZTI24XQCentralRepositoryUtils)
    .constdata__ZTI24XQSettingsManagerPrivate 0x00012d38   Section       32  xqsettingsmanager_p.o(.constdata__ZTI24XQSettingsManagerPrivate)
    .constdata__ZTI25CCentralRepositoryHandler 0x00012d58   Section       32  ccentralrepositoryhandler.o(.constdata__ZTI25CCentralRepositoryHandler)
    .constdata__ZTI26XQPublishAndSubscribeUtils 0x00012d78   Section       12  xqpublishandsubscribeutils.o(.constdata__ZTI26XQPublishAndSubscribeUtils)
    .constdata__ZTI27CPublishAndSubscribeHandler 0x00012d84   Section       32  cpublishandsubscribehandler.o(.constdata__ZTI27CPublishAndSubscribeHandler)
    .constdata__ZTIN10QtMobility10PathMapperE 0x00012da4   Section       12  pathmapper_symbian.o(.constdata__ZTIN10QtMobility10PathMapperE)
    .constdata__ZTIN10QtMobility19CPSPathMapperServerE 0x00012db0   Section       12  pspathmapperserver.o(.constdata__ZTIN10QtMobility19CPSPathMapperServerE)
    .constdata__ZTIN10QtMobility21CCRMLDirectoryMonitorE 0x00012dbc   Section       32  pathmapper_symbian.o(.constdata__ZTIN10QtMobility21CCRMLDirectoryMonitorE)
    .constdata__ZTIN10QtMobility26CPSPathMapperServerSessionE 0x00012ddc   Section       12  pspathmappersession.o(.constdata__ZTIN10QtMobility26CPSPathMapperServerSessionE)
    .constdata__ZTS14CCenRepMonitor          0x00012de8   Section       17  cenrepmonitor.o(.constdata__ZTS14CCenRepMonitor)
    .constdata__ZTS14CPubSubMonitor          0x00012df9   Section       17  pubsubmonitor.o(.constdata__ZTS14CPubSubMonitor)
    .constdata__ZTS17XQSettingsManager       0x00012e0a   Section       20  moc_xqsettingsmanager.o(.constdata__ZTS17XQSettingsManager)
    .constdata__ZTS19SettingsHandlerBase     0x00012e1e   Section       22  ccentralrepositoryhandler.o(.constdata__ZTS19SettingsHandlerBase)
    .constdata__ZTS24MSettingsHandlerObserver 0x00012e34   Section       27  xqsettingsmanager_p.o(.constdata__ZTS24MSettingsHandlerObserver)
    .constdata__ZTS24XQCentralRepositoryUtils 0x00012e4f   Section       27  xqcentralrepositoryutils.o(.constdata__ZTS24XQCentralRepositoryUtils)
    .constdata__ZTS24XQSettingsManagerPrivate 0x00012e6a   Section       27  xqsettingsmanager_p.o(.constdata__ZTS24XQSettingsManagerPrivate)
    .constdata__ZTS25CCentralRepositoryHandler 0x00012e85   Section       28  ccentralrepositoryhandler.o(.constdata__ZTS25CCentralRepositoryHandler)
    .constdata__ZTS26XQPublishAndSubscribeUtils 0x00012ea1   Section       29  xqpublishandsubscribeutils.o(.constdata__ZTS26XQPublishAndSubscribeUtils)
    .constdata__ZTS27CPublishAndSubscribeHandler 0x00012ebe   Section       30  cpublishandsubscribehandler.o(.constdata__ZTS27CPublishAndSubscribeHandler)
    .constdata__ZTSN10QtMobility10PathMapperE 0x00012edc   Section       27  pathmapper_symbian.o(.constdata__ZTSN10QtMobility10PathMapperE)
    .constdata__ZTSN10QtMobility19CPSPathMapperServerE 0x00012ef7   Section       36  pspathmapperserver.o(.constdata__ZTSN10QtMobility19CPSPathMapperServerE)
    .constdata__ZTSN10QtMobility21CCRMLDirectoryMonitorE 0x00012f1b   Section       38  pathmapper_symbian.o(.constdata__ZTSN10QtMobility21CCRMLDirectoryMonitorE)
    .constdata__ZTSN10QtMobility26CPSPathMapperServerSessionE 0x00012f41   Section       43  pspathmappersession.o(.constdata__ZTSN10QtMobility26CPSPathMapperServerSessionE)
    .constdata__ZTV14CCenRepMonitor          0x00012f6c   Section       32  cenrepmonitor.o(.constdata__ZTV14CCenRepMonitor)
    .constdata__ZTV14CPubSubMonitor          0x00012f8c   Section       32  pubsubmonitor.o(.constdata__ZTV14CPubSubMonitor)
    .constdata__ZTV17XQSettingsManager       0x00012fac   Section       56  moc_xqsettingsmanager.o(.constdata__ZTV17XQSettingsManager)
    .constdata__ZTV19SettingsHandlerBase     0x00012fe4   Section       60  ccentralrepositoryhandler.o(.constdata__ZTV19SettingsHandlerBase)
    .constdata__ZTV24MSettingsHandlerObserver 0x00013020   Section       16  xqsettingsmanager_p.o(.constdata__ZTV24MSettingsHandlerObserver)
    .constdata__ZTV24XQCentralRepositoryUtils 0x00013030   Section       56  xqcentralrepositoryutils.o(.constdata__ZTV24XQCentralRepositoryUtils)
    .constdata__ZTV24XQSettingsManagerPrivate 0x00013068   Section       44  xqsettingsmanager_p.o(.constdata__ZTV24XQSettingsManagerPrivate)
    .constdata__ZTV25CCentralRepositoryHandler 0x00013094   Section      124  ccentralrepositoryhandler.o(.constdata__ZTV25CCentralRepositoryHandler)
    .constdata__ZTV26XQPublishAndSubscribeUtils 0x00013110   Section       56  xqpublishandsubscribeutils.o(.constdata__ZTV26XQPublishAndSubscribeUtils)
    .constdata__ZTV27CPublishAndSubscribeHandler 0x00013148   Section      124  cpublishandsubscribehandler.o(.constdata__ZTV27CPublishAndSubscribeHandler)
    .constdata__ZTVN10QtMobility10PathMapperE 0x000131c4   Section       56  pathmapper_symbian.o(.constdata__ZTVN10QtMobility10PathMapperE)
    .constdata__ZTVN10QtMobility19CPSPathMapperServerE 0x000131fc   Section       40  pspathmapperserver.o(.constdata__ZTVN10QtMobility19CPSPathMapperServerE)
    .constdata__ZTVN10QtMobility21CCRMLDirectoryMonitorE 0x00013224   Section       96  pathmapper_symbian.o(.constdata__ZTVN10QtMobility21CCRMLDirectoryMonitorE)
    .constdata__ZTVN10QtMobility26CPSPathMapperServerSessionE 0x00013284   Section       40  pspathmappersession.o(.constdata__ZTVN10QtMobility26CPSPathMapperServerSessionE)
    .ARM.exidx                               0x000132ac   Section        8  uc_exe_.o(.ARM.exidx)
    .ARM.exidx                               0x000132b4   Section        8  qts60main_mcrt0.o(.ARM.exidx)
    .ARM.exidx                               0x00013e6c   Number         8  ucppinit.o(.ARM.exidx)
    .data__ZNSt19_Atomic_swap_structILi1EE12_S_swap_lockE 0x00400000   Section       12  moc_xqsettingsmanager.o(.data__ZNSt19_Atomic_swap_structILi1EE12_S_swap_lockE)

    Global Symbols

    Symbol Name                              Value     Ov Type        Size  Object(Section)

    BuildAttributes$$THUMB_ISAv2$ARM_ISAv5$M$VFPv2$PE$A:L22$X:L11$S22$IEEE1$IW$USESV6$~STKCKD$USESV7$~SHL$OSPACE$ROPI$IEEEJ$EBA8$UX$FPIC$INDIRECT$REQ8$PRES8$EABIv2 0x00000000   Number         0  anon$$obj.o ABSOLUTE
    QtCore{00040703}[2001b2dc].dll           0x00000000   Data           0  anon$$obj.o ABSOLUTE
    centralrepository{000a0000}[101fbc70].dll 0x00000000   Data           0  anon$$obj.o ABSOLUTE
    drtaeabi{000a0000}.dll                   0x00000000   Data           0  anon$$obj.o ABSOLUTE
    drtrvct2_2{000a0000}.dll                 0x00000000   Data           0  anon$$obj.o ABSOLUTE
    efsrv{000a0000}[100039e4].dll            0x00000000   Data           0  anon$$obj.o ABSOLUTE
    euser{000a0000}[100039e5].dll            0x00000000   Data           0  anon$$obj.o ABSOLUTE
    libc{00010001}[10207369].dll             0x00000000   Data           0  anon$$obj.o ABSOLUTE
    qpspathmapperserver{000a0000}[2002ac88].exe 0x00000000   Data           0  anon$$obj.o ABSOLUTE
    stdnew{000a0000}[20022178].dll           0x00000000   Data           0  anon$$obj.o ABSOLUTE
    SHT$$INIT_ARRAY$$Base                     - Undefined Weak Reference
    SHT$$INIT_ARRAY$$Limit                    - Undefined Weak Reference
    qt_message_output(QtMsgType, const char*)  - Undefined Reference
    _Z17qt_message_output9QtMsgTypePKc@QtCore{00040703}[2001b2dc].dll  - Undefined Reference
    qt_symbian_SetupThreadHeap(int, SStdEpocThreadCreateInfo&)  - Undefined Reference
    _Z26qt_symbian_SetupThreadHeapiR24SStdEpocThreadCreateInfo@QtCore{00040703}[2001b2dc].dll  - Undefined Reference
    qt_symbian_exception2Error(const std::exception&)  - Undefined Reference
    _Z26qt_symbian_exception2ErrorRKSt9exception@QtCore{00040703}[2001b2dc].dll  - Undefined Reference
    qFree(void*)                              - Undefined Reference
    _Z5qFreePv@QtCore{00040703}[2001b2dc].dll  - Undefined Reference
    qHash(const QString&)                     - Undefined Reference
    _Z5qHashRK7QString@QtCore{00040703}[2001b2dc].dll  - Undefined Reference
    __crt0(int&, char**&, char**&)            - Undefined Reference
    _Z6__crt0RiRPPcS2_@libc{00010001}[10207369].dll  - Undefined Reference
    qDebug(const char*, ...)                  - Undefined Reference
    _Z6qDebugPKcz@QtCore{00040703}[2001b2dc].dll  - Undefined Reference
    qBadAlloc()                               - Undefined Reference
    _Z9qBadAllocv@QtCore{00040703}[2001b2dc].dll  - Undefined Reference
    QByteArray::shared_null                   - Undefined Reference
    _ZN10QByteArray11shared_nullE@QtCore{00040703}[2001b2dc].dll  - Undefined Reference
    QByteArray::clear()                       - Undefined Reference
    _ZN10QByteArray5clearEv@QtCore{00040703}[2001b2dc].dll  - Undefined Reference
    QByteArray::realloc(int)                  - Undefined Reference
    _ZN10QByteArray7reallocEi@QtCore{00040703}[2001b2dc].dll  - Undefined Reference
    QByteArray::QByteArray(const char*, int)  - Undefined Reference
    _ZN10QByteArrayC1EPKci@QtCore{00040703}[2001b2dc].dll  - Undefined Reference
    RArrayBase::Close()                       - Undefined Reference
    _ZN10RArrayBase5CloseEv@euser{000a0000}[100039e5].dll  - Undefined Reference
    RArrayBase::RArrayBase(int)               - Undefined Reference
    _ZN10RArrayBaseC1Ei@euser{000a0000}[100039e5].dll  - Undefined Reference
    CRepository::NotifyCancel(unsigned long)  - Undefined Reference
    _ZN11CRepository12NotifyCancelEm@centralrepository{000a0000}[101fbc70].dll  - Undefined Reference
    CRepository::NotifyRequest(unsigned long, TRequestStatus&)  - Undefined Reference
    _ZN11CRepository13NotifyRequestEmR14TRequestStatus@centralrepository{000a0000}[101fbc70].dll  - Undefined Reference
    CRepository::Get(unsigned long, TDes8&)   - Undefined Reference
    _ZN11CRepository3GetEmR5TDes8@centralrepository{000a0000}[101fbc70].dll  - Undefined Reference
    CRepository::Get(unsigned long, TDes8&, int&)  - Undefined Reference
    _ZN11CRepository3GetEmR5TDes8Ri@centralrepository{000a0000}[101fbc70].dll  - Undefined Reference
    CRepository::Get(unsigned long, TDes16&)  - Undefined Reference
    _ZN11CRepository3GetEmR6TDes16@centralrepository{000a0000}[101fbc70].dll  - Undefined Reference
    CRepository::Get(unsigned long, TDes16&, int&)  - Undefined Reference
    _ZN11CRepository3GetEmR6TDes16Ri@centralrepository{000a0000}[101fbc70].dll  - Undefined Reference
    CRepository::Get(unsigned long, double&)  - Undefined Reference
    _ZN11CRepository3GetEmRd@centralrepository{000a0000}[101fbc70].dll  - Undefined Reference
    CRepository::Get(unsigned long, int&)     - Undefined Reference
    _ZN11CRepository3GetEmRi@centralrepository{000a0000}[101fbc70].dll  - Undefined Reference
    CRepository::Set(unsigned long, const TDesC8&)  - Undefined Reference
    _ZN11CRepository3SetEmRK6TDesC8@centralrepository{000a0000}[101fbc70].dll  - Undefined Reference
    CRepository::Set(unsigned long, const TDesC16&)  - Undefined Reference
    _ZN11CRepository3SetEmRK7TDesC16@centralrepository{000a0000}[101fbc70].dll  - Undefined Reference
    CRepository::Set(unsigned long, const double&)  - Undefined Reference
    _ZN11CRepository3SetEmRKd@centralrepository{000a0000}[101fbc70].dll  - Undefined Reference
    CRepository::Set(unsigned long, int)      - Undefined Reference
    _ZN11CRepository3SetEmi@centralrepository{000a0000}[101fbc70].dll  - Undefined Reference
    CRepository::NewL(TUid)                   - Undefined Reference
    _ZN11CRepository4NewLE4TUid@centralrepository{000a0000}[101fbc70].dll  - Undefined Reference
    CRepository::FindL(unsigned long, unsigned long, RArray<unsigned long>&)  - Undefined Reference
    _ZN11CRepository5FindLEmmR6RArrayImE@centralrepository{000a0000}[101fbc70].dll  - Undefined Reference
    CRepository::Reset(unsigned long)         - Undefined Reference
    _ZN11CRepository5ResetEm@centralrepository{000a0000}[101fbc70].dll  - Undefined Reference
    CRepository::Reset()                      - Undefined Reference
    _ZN11CRepository5ResetEv@centralrepository{000a0000}[101fbc70].dll  - Undefined Reference
    CRepository::Create(unsigned long, const TDesC8&)  - Undefined Reference
    _ZN11CRepository6CreateEmRK6TDesC8@centralrepository{000a0000}[101fbc70].dll  - Undefined Reference
    CRepository::Create(unsigned long, const TDesC16&)  - Undefined Reference
    _ZN11CRepository6CreateEmRK7TDesC16@centralrepository{000a0000}[101fbc70].dll  - Undefined Reference
    CRepository::Create(unsigned long, const double&)  - Undefined Reference
    _ZN11CRepository6CreateEmRKd@centralrepository{000a0000}[101fbc70].dll  - Undefined Reference
    CRepository::Create(unsigned long, int)   - Undefined Reference
    _ZN11CRepository6CreateEmi@centralrepository{000a0000}[101fbc70].dll  - Undefined Reference
    CRepository::Delete(unsigned long)        - Undefined Reference
    _ZN11CRepository6DeleteEm@centralrepository{000a0000}[101fbc70].dll  - Undefined Reference
    CRepository::FindEqL(unsigned long, unsigned long, const TDesC8&, RArray<unsigned long>&)  - Undefined Reference
    _ZN11CRepository7FindEqLEmmRK6TDesC8R6RArrayImE@centralrepository{000a0000}[101fbc70].dll  - Undefined Reference
    CRepository::FindEqL(unsigned long, unsigned long, const TDesC16&, RArray<unsigned long>&)  - Undefined Reference
    _ZN11CRepository7FindEqLEmmRK7TDesC16R6RArrayImE@centralrepository{000a0000}[101fbc70].dll  - Undefined Reference
    CRepository::FindEqL(unsigned long, unsigned long, const double&, RArray<unsigned long>&)  - Undefined Reference
    _ZN11CRepository7FindEqLEmmRKdR6RArrayImE@centralrepository{000a0000}[101fbc70].dll  - Undefined Reference
    CRepository::FindEqL(unsigned long, unsigned long, int, RArray<unsigned long>&)  - Undefined Reference
    _ZN11CRepository7FindEqLEmmiR6RArrayImE@centralrepository{000a0000}[101fbc70].dll  - Undefined Reference
    CRepository::GetMeta(unsigned long, unsigned long&)  - Undefined Reference
    _ZN11CRepository7GetMetaEmRm@centralrepository{000a0000}[101fbc70].dll  - Undefined Reference
    CRepository::FindNeqL(unsigned long, unsigned long, const TDesC8&, RArray<unsigned long>&)  - Undefined Reference
    _ZN11CRepository8FindNeqLEmmRK6TDesC8R6RArrayImE@centralrepository{000a0000}[101fbc70].dll  - Undefined Reference
    CRepository::FindNeqL(unsigned long, unsigned long, const TDesC16&, RArray<unsigned long>&)  - Undefined Reference
    _ZN11CRepository8FindNeqLEmmRK7TDesC16R6RArrayImE@centralrepository{000a0000}[101fbc70].dll  - Undefined Reference
    CRepository::FindNeqL(unsigned long, unsigned long, const double&, RArray<unsigned long>&)  - Undefined Reference
    _ZN11CRepository8FindNeqLEmmRKdR6RArrayImE@centralrepository{000a0000}[101fbc70].dll  - Undefined Reference
    CRepository::FindNeqL(unsigned long, unsigned long, int, RArray<unsigned long>&)  - Undefined Reference
    _ZN11CRepository8FindNeqLEmmiR6RArrayImE@centralrepository{000a0000}[101fbc70].dll  - Undefined Reference
    QDataStream::QDataStream(QByteArray*, QFlags<QIODevice::OpenModeFlag>)  - Undefined Reference
    _ZN11QDataStreamC1EP10QByteArray6QFlagsIN9QIODevice12OpenModeFlagEE@QtCore{00040703}[2001b2dc].dll  - Undefined Reference
    QDataStream::QDataStream(const QByteArray&)  - Undefined Reference
    _ZN11QDataStreamC1ERK10QByteArray@QtCore{00040703}[2001b2dc].dll  - Undefined Reference
    QDataStream::~QDataStream()               - Undefined Reference
    _ZN11QDataStreamD1Ev@QtCore{00040703}[2001b2dc].dll  - Undefined Reference
    QDataStream::operator <<(int)             - Undefined Reference
    _ZN11QDataStreamlsEi@QtCore{00040703}[2001b2dc].dll  - Undefined Reference
    QMetaObject::activate(QObject*, const QMetaObject*, int, void**)  - Undefined Reference
    _ZN11QMetaObject8activateEP7QObjectPKS_iPPv@QtCore{00040703}[2001b2dc].dll  - Undefined Reference
    QTextStream::QTextStream(QString*, QFlags<QIODevice::OpenModeFlag>)  - Undefined Reference
    _ZN11QTextStreamC1EP7QString6QFlagsIN9QIODevice12OpenModeFlagEE@QtCore{00040703}[2001b2dc].dll  - Undefined Reference
    QTextStream::~QTextStream()               - Undefined Reference
    _ZN11QTextStreamD1Ev@QtCore{00040703}[2001b2dc].dll  - Undefined Reference
    QTextStream::operator <<(const QString&)  - Undefined Reference
    _ZN11QTextStreamlsERK7QString@QtCore{00040703}[2001b2dc].dll  - Undefined Reference
    QTextStream::operator <<(char)            - Undefined Reference
    _ZN11QTextStreamlsEc@QtCore{00040703}[2001b2dc].dll  - Undefined Reference
    QVectorData::free(QVectorData*, int)      - Undefined Reference
    _ZN11QVectorData4freeEPS_i@QtCore{00040703}[2001b2dc].dll  - Undefined Reference
    CTrapCleanup::New()                       - Undefined Reference
    _ZN12CTrapCleanup3NewEv@euser{000a0000}[100039e5].dll  - Undefined Reference
    CleanupStack::PopAndDestroy()             - Undefined Reference
    _ZN12CleanupStack13PopAndDestroyEv@euser{000a0000}[100039e5].dll  - Undefined Reference
    CleanupStack::Pop()                       - Undefined Reference
    _ZN12CleanupStack3PopEv@euser{000a0000}[100039e5].dll  - Undefined Reference
    CleanupStack::Check(void*)                - Undefined Reference
    _ZN12CleanupStack5CheckEPv@euser{000a0000}[100039e5].dll  - Undefined Reference
    CleanupStack::PushL(TCleanupItem)         - Undefined Reference
    _ZN12CleanupStack5PushLE12TCleanupItem@euser{000a0000}[100039e5].dll  - Undefined Reference
    CleanupStack::PushL(CBase*)               - Undefined Reference
    _ZN12CleanupStack5PushLEP5CBase@euser{000a0000}[100039e5].dll  - Undefined Reference
    TSecurityPolicy::TSecurityPolicy(TCapability, TCapability, TCapability)  - Undefined Reference
    _ZN15TSecurityPolicyC1E11TCapabilityS0_S0_@euser{000a0000}[100039e5].dll  - Undefined Reference
    TSecurityPolicy::TSecurityPolicy(TCapability, TCapability, TCapability, TCapability, TCapability, TCapability, TCapability)  - Undefined Reference
    _ZN15TSecurityPolicyC1E11TCapabilityS0_S0_S0_S0_S0_S0_@euser{000a0000}[100039e5].dll  - Undefined Reference
    TSecurityPolicy::TSecurityPolicy(TSecureId, TCapability, TCapability, TCapability)  - Undefined Reference
    _ZN15TSecurityPolicyC1E9TSecureId11TCapabilityS1_S1_@euser{000a0000}[100039e5].dll  - Undefined Reference
    TSecurityPolicy::TSecurityPolicy(TVendorId, TCapability, TCapability, TCapability)  - Undefined Reference
    _ZN15TSecurityPolicyC1E9TVendorId11TCapabilityS1_S1_@euser{000a0000}[100039e5].dll  - Undefined Reference
    TSecurityPolicy::TSecurityPolicy(TSecurityPolicy::TSecPolicyType)  - Undefined Reference
    _ZN15TSecurityPolicyC1ENS_14TSecPolicyTypeE@euser{000a0000}[100039e5].dll  - Undefined Reference
    CActiveScheduler::Add(CActive*)           - Undefined Reference
    _ZN16CActiveScheduler3AddEP7CActive@euser{000a0000}[100039e5].dll  - Undefined Reference
    QCoreApplication::exec()                  - Undefined Reference
    _ZN16QCoreApplication4execEv@QtCore{00040703}[2001b2dc].dll  - Undefined Reference
    QCoreApplication::exit(int)               - Undefined Reference
    _ZN16QCoreApplication4exitEi@QtCore{00040703}[2001b2dc].dll  - Undefined Reference
    QCoreApplication::QCoreApplication(int&, char**)  - Undefined Reference
    _ZN16QCoreApplicationC1ERiPPc@QtCore{00040703}[2001b2dc].dll  - Undefined Reference
    QCoreApplication::~QCoreApplication()     - Undefined Reference
    _ZN16QCoreApplicationD1Ev@QtCore{00040703}[2001b2dc].dll  - Undefined Reference
    QXmlStreamReader::readNext()              - Undefined Reference
    _ZN16QXmlStreamReader8readNextEv@QtCore{00040703}[2001b2dc].dll  - Undefined Reference
    QXmlStreamReader::setDevice(QIODevice*)   - Undefined Reference
    _ZN16QXmlStreamReader9setDeviceEP9QIODevice@QtCore{00040703}[2001b2dc].dll  - Undefined Reference
    QXmlStreamReader::QXmlStreamReader()      - Undefined Reference
    _ZN16QXmlStreamReaderC1Ev@QtCore{00040703}[2001b2dc].dll  - Undefined Reference
    QXmlStreamReader::~QXmlStreamReader()     - Undefined Reference
    _ZN16QXmlStreamReaderD1Ev@QtCore{00040703}[2001b2dc].dll  - Undefined Reference
    QXmlStreamAttribute::~QXmlStreamAttribute()  - Undefined Reference
    _ZN19QXmlStreamAttributeD1Ev@QtCore{00040703}[2001b2dc].dll  - Undefined Reference
    TCppRTExceptionsGlobals::TCppRTExceptionsGlobals()  - Undefined Reference
    _ZN23TCppRTExceptionsGlobalsC1Ev@drtaeabi{000a0000}.dll  - Undefined Reference
    RFs::NotifyChange(TNotifyType, TRequestStatus&, const TDesC16&)  - Undefined Reference
    _ZN3RFs12NotifyChangeE11TNotifyTypeR14TRequestStatusRK7TDesC16@efsrv{000a0000}[100039e4].dll  - Undefined Reference
    RFs::NotifyChangeCancel()                 - Undefined Reference
    _ZN3RFs18NotifyChangeCancelEv@efsrv{000a0000}[100039e4].dll  - Undefined Reference
    RFs::Close()                              - Undefined Reference
    _ZN3RFs5CloseEv@efsrv{000a0000}[100039e4].dll  - Undefined Reference
    RFs::Connect(int)                         - Undefined Reference
    _ZN3RFs7ConnectEi@efsrv{000a0000}[100039e4].dll  - Undefined Reference
    QDir::drives()                            - Undefined Reference
    _ZN4QDir6drivesEv@QtCore{00040703}[2001b2dc].dll  - Undefined Reference
    QDir::QDir(const QString&)                - Undefined Reference
    _ZN4QDirC1ERK7QString@QtCore{00040703}[2001b2dc].dll  - Undefined Reference
    QDir::~QDir()                             - Undefined Reference
    _ZN4QDirD1Ev@QtCore{00040703}[2001b2dc].dll  - Undefined Reference
    User::InitProcess()                       - Undefined Reference
    _ZN4User11InitProcessEv@euser{000a0000}[100039e5].dll  - Undefined Reference
    User::LeaveIfError(int)                   - Undefined Reference
    _ZN4User12LeaveIfErrorEi@euser{000a0000}[100039e5].dll  - Undefined Reference
    User::HandleException(void*)              - Undefined Reference
    _ZN4User15HandleExceptionEPv@euser{000a0000}[100039e5].dll  - Undefined Reference
    User::MarkCleanupStack()                  - Undefined Reference
    _ZN4User16MarkCleanupStackEv@euser{000a0000}[100039e5].dll  - Undefined Reference
    User::UnMarkCleanupStack(TTrapHandler*)   - Undefined Reference
    _ZN4User18UnMarkCleanupStackEP12TTrapHandler@euser{000a0000}[100039e5].dll  - Undefined Reference
    User::QueryVersionSupported(const TVersion&, const TVersion&)  - Undefined Reference
    _ZN4User21QueryVersionSupportedERK8TVersionS2_@euser{000a0000}[100039e5].dll  - Undefined Reference
    User::Exit(int)                           - Undefined Reference
    _ZN4User4ExitEi@euser{000a0000}[100039e5].dll  - Undefined Reference
    User::Leave(int)                          - Undefined Reference
    _ZN4User5LeaveEi@euser{000a0000}[100039e5].dll  - Undefined Reference
    User::Panic(const TDesC16&, int)          - Undefined Reference
    _ZN4User5PanicERK7TDesC16i@euser{000a0000}[100039e5].dll  - Undefined Reference
    User::AllocZ(int)                         - Undefined Reference
    _ZN4User6AllocZEi@euser{000a0000}[100039e5].dll  - Undefined Reference
    User::AllocZL(int)                        - Undefined Reference
    _ZN4User7AllocZLEi@euser{000a0000}[100039e5].dll  - Undefined Reference
    User::Invariant()                         - Undefined Reference
    _ZN4User9InvariantEv@euser{000a0000}[100039e5].dll  - Undefined Reference
    User::LockedDec(int&)                     - Undefined Reference
    _ZN4User9LockedDecERi@euser{000a0000}[100039e5].dll  - Undefined Reference
    User::LockedInc(int&)                     - Undefined Reference
    _ZN4User9LockedIncERi@euser{000a0000}[100039e5].dll  - Undefined Reference
    CBase::Extension_(unsigned, void*&, void*)  - Undefined Reference
    _ZN5CBase10Extension_EjRPvS0_@euser{000a0000}[100039e5].dll  - Undefined Reference
    CBase::~CBase()                           - Undefined Reference
    _ZN5CBaseD1Ev@euser{000a0000}[100039e5].dll  - Undefined Reference
    QFile::open(QFlags<QIODevice::OpenModeFlag>)  - Undefined Reference
    _ZN5QFile4openE6QFlagsIN9QIODevice12OpenModeFlagEE@QtCore{00040703}[2001b2dc].dll  - Undefined Reference
    QFile::QFile(const QString&)              - Undefined Reference
    _ZN5QFileC1ERK7QString@QtCore{00040703}[2001b2dc].dll  - Undefined Reference
    QFile::~QFile()                           - Undefined Reference
    _ZN5QFileD1Ev@QtCore{00040703}[2001b2dc].dll  - Undefined Reference
    RBuf8::Close()                            - Undefined Reference
    _ZN5RBuf85CloseEv@euser{000a0000}[100039e5].dll  - Undefined Reference
    RBuf8::CreateL(int)                       - Undefined Reference
    _ZN5RBuf87CreateLEi@euser{000a0000}[100039e5].dll  - Undefined Reference
    RBuf8::ReAllocL(int)                      - Undefined Reference
    _ZN5RBuf88ReAllocLEi@euser{000a0000}[100039e5].dll  - Undefined Reference
    RBuf8::RBuf8()                            - Undefined Reference
    _ZN5RBuf8C1Ev@euser{000a0000}[100039e5].dll  - Undefined Reference
    HBufC8::Des()                             - Undefined Reference
    _ZN6HBufC83DesEv@euser{000a0000}[100039e5].dll  - Undefined Reference
    HBufC8::NewLC(int)                        - Undefined Reference
    _ZN6HBufC85NewLCEi@euser{000a0000}[100039e5].dll  - Undefined Reference
    QTimer::setInterval(int)                  - Undefined Reference
    _ZN6QTimer11setIntervalEi@QtCore{00040703}[2001b2dc].dll  - Undefined Reference
    QTimer::QTimer(QObject*)                  - Undefined Reference
    _ZN6QTimerC1EP7QObject@QtCore{00040703}[2001b2dc].dll  - Undefined Reference
    RBuf16::Close()                           - Undefined Reference
    _ZN6RBuf165CloseEv@euser{000a0000}[100039e5].dll  - Undefined Reference
    RBuf16::CreateL(int)                      - Undefined Reference
    _ZN6RBuf167CreateLEi@euser{000a0000}[100039e5].dll  - Undefined Reference
    RBuf16::ReAllocL(int)                     - Undefined Reference
    _ZN6RBuf168ReAllocLEi@euser{000a0000}[100039e5].dll  - Undefined Reference
    RBuf16::RBuf16()                          - Undefined Reference
    _ZN6RBuf16C1Ev@euser{000a0000}[100039e5].dll  - Undefined Reference
    TPtrC8::TPtrC8(const unsigned char*)      - Undefined Reference
    _ZN6TPtrC8C1EPKh@euser{000a0000}[100039e5].dll  - Undefined Reference
    TPtrC8::TPtrC8(const unsigned char*, int)  - Undefined Reference
    _ZN6TPtrC8C1EPKhi@euser{000a0000}[100039e5].dll  - Undefined Reference
    CActive::Extension_(unsigned, void*&, void*)  - Undefined Reference
    _ZN7CActive10Extension_EjRPvS0_@euser{000a0000}[100039e5].dll  - Undefined Reference
    CActive::Cancel()                         - Undefined Reference
    _ZN7CActive6CancelEv@euser{000a0000}[100039e5].dll  - Undefined Reference
    CActive::RunError(int)                    - Undefined Reference
    _ZN7CActive8RunErrorEi@euser{000a0000}[100039e5].dll  - Undefined Reference
    CActive::SetActive()                      - Undefined Reference
    _ZN7CActive9SetActiveEv@euser{000a0000}[100039e5].dll  - Undefined Reference
    CActive::CActive__sub_object(int)         - Undefined Reference
    _ZN7CActiveC2Ei@euser{000a0000}[100039e5].dll  - Undefined Reference
    CActive::~CActive__sub_object()           - Undefined Reference
    _ZN7CActiveD2Ev@euser{000a0000}[100039e5].dll  - Undefined Reference
    QObject::childEvent(QChildEvent*)         - Undefined Reference
    _ZN7QObject10childEventEP11QChildEvent@QtCore{00040703}[2001b2dc].dll  - Undefined Reference
    QObject::timerEvent(QTimerEvent*)         - Undefined Reference
    _ZN7QObject10timerEventEP11QTimerEvent@QtCore{00040703}[2001b2dc].dll  - Undefined Reference
    QObject::customEvent(QEvent*)             - Undefined Reference
    _ZN7QObject11customEventEP6QEvent@QtCore{00040703}[2001b2dc].dll  - Undefined Reference
    QObject::eventFilter(QObject*, QEvent*)   - Undefined Reference
    _ZN7QObject11eventFilterEPS_P6QEvent@QtCore{00040703}[2001b2dc].dll  - Undefined Reference
    QObject::qt_metacall(QMetaObject::Call, int, void**)  - Undefined Reference
    _ZN7QObject11qt_metacallEN11QMetaObject4CallEiPPv@QtCore{00040703}[2001b2dc].dll  - Undefined Reference
    QObject::qt_metacast(const char*)         - Undefined Reference
    _ZN7QObject11qt_metacastEPKc@QtCore{00040703}[2001b2dc].dll  - Undefined Reference
    QObject::connectNotify(const char*)       - Undefined Reference
    _ZN7QObject13connectNotifyEPKc@QtCore{00040703}[2001b2dc].dll  - Undefined Reference
    QObject::disconnectNotify(const char*)    - Undefined Reference
    _ZN7QObject16disconnectNotifyEPKc@QtCore{00040703}[2001b2dc].dll  - Undefined Reference
    QObject::staticMetaObject                 - Undefined Reference
    _ZN7QObject16staticMetaObjectE@QtCore{00040703}[2001b2dc].dll  - Undefined Reference
    QObject::event(QEvent*)                   - Undefined Reference
    _ZN7QObject5eventEP6QEvent@QtCore{00040703}[2001b2dc].dll  - Undefined Reference
    QObject::connect(const QObject*, const char*, const QObject*, const char*, Qt::ConnectionType)  - Undefined Reference
    _ZN7QObject7connectEPKS_PKcS1_S3_N2Qt14ConnectionTypeE@QtCore{00040703}[2001b2dc].dll  - Undefined Reference
    QObject::QObject(QObject*)                - Undefined Reference
    _ZN7QObjectC1EPS_@QtCore{00040703}[2001b2dc].dll  - Undefined Reference
    QObject::~QObject()                       - Undefined Reference
    _ZN7QObjectD1Ev@QtCore{00040703}[2001b2dc].dll  - Undefined Reference
    QString::shared_null                      - Undefined Reference
    _ZN7QString11shared_nullE@QtCore{00040703}[2001b2dc].dll  - Undefined Reference
    QString::codecForCStrings                 - Undefined Reference
    _ZN7QString16codecForCStringsE@QtCore{00040703}[2001b2dc].dll  - Undefined Reference
    QString::fromAscii_helper(const char*, int)  - Undefined Reference
    _ZN7QString16fromAscii_helperEPKci@QtCore{00040703}[2001b2dc].dll  - Undefined Reference
    QString::fromLatin1_helper(const char*, int)  - Undefined Reference
    _ZN7QString17fromLatin1_helperEPKci@QtCore{00040703}[2001b2dc].dll  - Undefined Reference
    QString::free(QString::Data*)             - Undefined Reference
    _ZN7QString4freeEPNS_4DataE@QtCore{00040703}[2001b2dc].dll  - Undefined Reference
    QString::grow(int)                        - Undefined Reference
    _ZN7QString4growEi@QtCore{00040703}[2001b2dc].dll  - Undefined Reference
    QString::append(QChar)                    - Undefined Reference
    _ZN7QString6appendE5QChar@QtCore{00040703}[2001b2dc].dll  - Undefined Reference
    QString::append(const QString&)           - Undefined Reference
    _ZN7QString6appendERKS_@QtCore{00040703}[2001b2dc].dll  - Undefined Reference
    QString::insert(int, QChar)               - Undefined Reference
    _ZN7QString6insertEi5QChar@QtCore{00040703}[2001b2dc].dll  - Undefined Reference
    QString::number(unsigned, int)            - Undefined Reference
    _ZN7QString6numberEji@QtCore{00040703}[2001b2dc].dll  - Undefined Reference
    QString::number(long long, int)           - Undefined Reference
    _ZN7QString6numberExi@QtCore{00040703}[2001b2dc].dll  - Undefined Reference
    QString::realloc(int)                     - Undefined Reference
    _ZN7QString7reallocEi@QtCore{00040703}[2001b2dc].dll  - Undefined Reference
    QString::fromAscii(const char*, int)      - Undefined Reference
    _ZN7QString9fromAsciiEPKci@QtCore{00040703}[2001b2dc].dll  - Undefined Reference
    QString::fromUtf16(const unsigned short*, int)  - Undefined Reference
    _ZN7QString9fromUtf16EPKti@QtCore{00040703}[2001b2dc].dll  - Undefined Reference
    QString::QString(QChar)                   - Undefined Reference
    _ZN7QStringC1E5QChar@QtCore{00040703}[2001b2dc].dll  - Undefined Reference
    QString::operator =(const QString&)       - Undefined Reference
    _ZN7QStringaSERKS_@QtCore{00040703}[2001b2dc].dll  - Undefined Reference
    TPtrC16::TPtrC16(const unsigned short*)   - Undefined Reference
    _ZN7TPtrC16C1EPKt@euser{000a0000}[100039e5].dll  - Undefined Reference
    UserSvr::DllSetTls(int, int, void*)       - Undefined Reference
    _ZN7UserSvr9DllSetTlsEiiPv@euser{000a0000}[100039e5].dll  - Undefined Reference
    CServer2::Extension_(unsigned, void*&, void*)  - Undefined Reference
    _ZN8CServer210Extension_EjRPvS0_@euser{000a0000}[100039e5].dll  - Undefined Reference
    CServer2::RunL()                          - Undefined Reference
    _ZN8CServer24RunLEv@euser{000a0000}[100039e5].dll  - Undefined Reference
    CServer2::Start(const TDesC16&)           - Undefined Reference
    _ZN8CServer25StartERK7TDesC16@euser{000a0000}[100039e5].dll  - Undefined Reference
    CServer2::DoCancel()                      - Undefined Reference
    _ZN8CServer28DoCancelEv@euser{000a0000}[100039e5].dll  - Undefined Reference
    CServer2::RunError(int)                   - Undefined Reference
    _ZN8CServer28RunErrorEi@euser{000a0000}[100039e5].dll  - Undefined Reference
    CServer2::DoConnect(const RMessage2&)     - Undefined Reference
    _ZN8CServer29DoConnectERK9RMessage2@euser{000a0000}[100039e5].dll  - Undefined Reference
    CServer2::CServer2__sub_object(int, CServer2::TServerType)  - Undefined Reference
    _ZN8CServer2C2EiNS_11TServerTypeE@euser{000a0000}[100039e5].dll  - Undefined Reference
    CServer2::~CServer2__sub_object()         - Undefined Reference
    _ZN8CServer2D2Ev@euser{000a0000}[100039e5].dll  - Undefined Reference
    QVariant::QVariant(const QVariant&)       - Undefined Reference
    _ZN8QVariantC1ERKS_@QtCore{00040703}[2001b2dc].dll  - Undefined Reference
    QVariant::QVariant(double)                - Undefined Reference
    _ZN8QVariantC1Ed@QtCore{00040703}[2001b2dc].dll  - Undefined Reference
    QVariant::QVariant(int)                   - Undefined Reference
    _ZN8QVariantC1Ei@QtCore{00040703}[2001b2dc].dll  - Undefined Reference
    QVariant::QVariant(int, const void*, unsigned)  - Undefined Reference
    _ZN8QVariantC1EiPKvj@QtCore{00040703}[2001b2dc].dll  - Undefined Reference
    QVariant::~QVariant()                     - Undefined Reference
    _ZN8QVariantD1Ev@QtCore{00040703}[2001b2dc].dll  - Undefined Reference
    QVariant::operator =(const QVariant&)     - Undefined Reference
    _ZN8QVariantaSERKS_@QtCore{00040703}[2001b2dc].dll  - Undefined Reference
    RProcess::Rendezvous(int)                 - Undefined Reference
    _ZN8RProcess10RendezvousEi@euser{000a0000}[100039e5].dll  - Undefined Reference
    TVersion::TVersion(int, int, int)         - Undefined Reference
    _ZN8TVersionC1Eiii@euser{000a0000}[100039e5].dll  - Undefined Reference
    CPeriodic::NewL(int)                      - Undefined Reference
    _ZN9CPeriodic4NewLEi@euser{000a0000}[100039e5].dll  - Undefined Reference
    CPeriodic::Start(TTimeIntervalMicroSeconds32, TTimeIntervalMicroSeconds32, TCallBack)  - Undefined Reference
    _ZN9CPeriodic5StartE27TTimeIntervalMicroSeconds32S0_9TCallBack@euser{000a0000}[100039e5].dll  - Undefined Reference
    CSession2::Disconnect(const RMessage2&)   - Undefined Reference
    _ZN9CSession210DisconnectERK9RMessage2@euser{000a0000}[100039e5].dll  - Undefined Reference
    CSession2::Extension_(unsigned, void*&, void*)  - Undefined Reference
    _ZN9CSession210Extension_EjRPvS0_@euser{000a0000}[100039e5].dll  - Undefined Reference
    CSession2::ServiceError(const RMessage2&, int)  - Undefined Reference
    _ZN9CSession212ServiceErrorERK9RMessage2i@euser{000a0000}[100039e5].dll  - Undefined Reference
    CSession2::CountResources()               - Undefined Reference
    _ZN9CSession214CountResourcesEv@euser{000a0000}[100039e5].dll  - Undefined Reference
    CSession2::CreateL()                      - Undefined Reference
    _ZN9CSession27CreateLEv@euser{000a0000}[100039e5].dll  - Undefined Reference
    CSession2::CSession2__sub_object()        - Undefined Reference
    _ZN9CSession2C2Ev@euser{000a0000}[100039e5].dll  - Undefined Reference
    CSession2::~CSession2__sub_object()       - Undefined Reference
    _ZN9CSession2D2Ev@euser{000a0000}[100039e5].dll  - Undefined Reference
    QFileInfo::QFileInfo(const QFileInfo&)    - Undefined Reference
    _ZN9QFileInfoC1ERKS_@QtCore{00040703}[2001b2dc].dll  - Undefined Reference
    QFileInfo::~QFileInfo()                   - Undefined Reference
    _ZN9QFileInfoD1Ev@QtCore{00040703}[2001b2dc].dll  - Undefined Reference
    QHashData::free_helper(void(*)(QHashData::Node*))  - Undefined Reference
    _ZN9QHashData11free_helperEPFvPNS_4NodeEE@QtCore{00040703}[2001b2dc].dll  - Undefined Reference
    QHashData::shared_null                    - Undefined Reference
    _ZN9QHashData11shared_nullE@QtCore{00040703}[2001b2dc].dll  - Undefined Reference
    QHashData::allocateNode(int)              - Undefined Reference
    _ZN9QHashData12allocateNodeEi@QtCore{00040703}[2001b2dc].dll  - Undefined Reference
    QHashData::detach_helper2(void(*)(QHashData::Node*, void*), void(*)(QHashData::Node*), int, int)  - Undefined Reference
    _ZN9QHashData14detach_helper2EPFvPNS_4NodeEPvEPFvS1_Eii@QtCore{00040703}[2001b2dc].dll  - Undefined Reference
    QHashData::rehash(int)                    - Undefined Reference
    _ZN9QHashData6rehashEi@QtCore{00040703}[2001b2dc].dll  - Undefined Reference
    QHashData::freeNode(void*)                - Undefined Reference
    _ZN9QHashData8freeNodeEPv@QtCore{00040703}[2001b2dc].dll  - Undefined Reference
    QHashData::nextNode(QHashData::Node*)     - Undefined Reference
    _ZN9QHashData8nextNodeEPNS_4NodeE@QtCore{00040703}[2001b2dc].dll  - Undefined Reference
    QListData::detach_grow(int*, int)         - Undefined Reference
    _ZN9QListData11detach_growEPii@QtCore{00040703}[2001b2dc].dll  - Undefined Reference
    QListData::shared_null                    - Undefined Reference
    _ZN9QListData11shared_nullE@QtCore{00040703}[2001b2dc].dll  - Undefined Reference
    QListData::append()                       - Undefined Reference
    _ZN9QListData6appendEv@QtCore{00040703}[2001b2dc].dll  - Undefined Reference
    QListData::detach(int)                    - Undefined Reference
    _ZN9QListData6detachEi@QtCore{00040703}[2001b2dc].dll  - Undefined Reference
    QListData::append2(const QListData&)      - Undefined Reference
    _ZN9QListData7append2ERKS_@QtCore{00040703}[2001b2dc].dll  - Undefined Reference
    RProperty::Get(TUid, unsigned, TDes8&)    - Undefined Reference
    _ZN9RProperty3GetE4TUidjR5TDes8@euser{000a0000}[100039e5].dll  - Undefined Reference
    RProperty::Get(TUid, unsigned, TDes16&)   - Undefined Reference
    _ZN9RProperty3GetE4TUidjR6TDes16@euser{000a0000}[100039e5].dll  - Undefined Reference
    RProperty::Get(TUid, unsigned, int&)      - Undefined Reference
    _ZN9RProperty3GetE4TUidjRi@euser{000a0000}[100039e5].dll  - Undefined Reference
    RProperty::Set(TUid, unsigned, const TDesC8&)  - Undefined Reference
    _ZN9RProperty3SetE4TUidjRK6TDesC8@euser{000a0000}[100039e5].dll  - Undefined Reference
    RProperty::Set(TUid, unsigned, const TDesC16&)  - Undefined Reference
    _ZN9RProperty3SetE4TUidjRK7TDesC16@euser{000a0000}[100039e5].dll  - Undefined Reference
    RProperty::Set(TUid, unsigned, int)       - Undefined Reference
    _ZN9RProperty3SetE4TUidji@euser{000a0000}[100039e5].dll  - Undefined Reference
    RProperty::Attach(TUid, unsigned, TOwnerType)  - Undefined Reference
    _ZN9RProperty6AttachE4TUidj10TOwnerType@euser{000a0000}[100039e5].dll  - Undefined Reference
    RProperty::Cancel()                       - Undefined Reference
    _ZN9RProperty6CancelEv@euser{000a0000}[100039e5].dll  - Undefined Reference
    RProperty::Define(TUid, unsigned, int, const TSecurityPolicy&, const TSecurityPolicy&, int)  - Undefined Reference
    _ZN9RProperty6DefineE4TUidjiRK15TSecurityPolicyS3_i@euser{000a0000}[100039e5].dll  - Undefined Reference
    RProperty::Define(TUid, unsigned, int, int)  - Undefined Reference
    _ZN9RProperty6DefineE4TUidjii@euser{000a0000}[100039e5].dll  - Undefined Reference
    RProperty::Delete(TUid, unsigned)         - Undefined Reference
    _ZN9RProperty6DeleteE4TUidj@euser{000a0000}[100039e5].dll  - Undefined Reference
    RProperty::Subscribe(TRequestStatus&)     - Undefined Reference
    _ZN9RProperty9SubscribeER14TRequestStatus@euser{000a0000}[100039e5].dll  - Undefined Reference
    TBufBase8::TBufBase8(int, int)            - Undefined Reference
    _ZN9TBufBase8C1Eii@euser{000a0000}[100039e5].dll  - Undefined Reference
    QStringRef::toString() const              - Undefined Reference
    _ZNK10QStringRef8toStringEv@QtCore{00040703}[2001b2dc].dll  - Undefined Reference
    RArrayBase::At(int) const                 - Undefined Reference
    _ZNK10RArrayBase2AtEi@euser{000a0000}[100039e5].dll  - Undefined Reference
    RArrayBase::Count() const                 - Undefined Reference
    _ZNK10RArrayBase5CountEv@euser{000a0000}[100039e5].dll  - Undefined Reference
    QMetaObject::tr(const char*, const char*) const  - Undefined Reference
    _ZNK11QMetaObject2trEPKcS1_@QtCore{00040703}[2001b2dc].dll  - Undefined Reference
    RMessagePtr2::GetDesLength(int) const     - Undefined Reference
    _ZNK12RMessagePtr212GetDesLengthEi@euser{000a0000}[100039e5].dll  - Undefined Reference
    RMessagePtr2::Panic(const TDesC16&, int) const  - Undefined Reference
    _ZNK12RMessagePtr25PanicERK7TDesC16i@euser{000a0000}[100039e5].dll  - Undefined Reference
    RMessagePtr2::ReadL(int, TDes8&, int) const  - Undefined Reference
    _ZNK12RMessagePtr25ReadLEiR5TDes8i@euser{000a0000}[100039e5].dll  - Undefined Reference
    RMessagePtr2::Write(int, const TDesC8&, int) const  - Undefined Reference
    _ZNK12RMessagePtr25WriteEiRK6TDesC8i@euser{000a0000}[100039e5].dll  - Undefined Reference
    RMessagePtr2::Complete(int) const         - Undefined Reference
    _ZNK12RMessagePtr28CompleteEi@euser{000a0000}[100039e5].dll  - Undefined Reference
    XLeaveException::GetReason() const        - Undefined Reference
    _ZNK15XLeaveException9GetReasonEv@euser{000a0000}[100039e5].dll  - Undefined Reference
    QXmlStreamReader::attributes() const      - Undefined Reference
    _ZNK16QXmlStreamReader10attributesEv@QtCore{00040703}[2001b2dc].dll  - Undefined Reference
    QXmlStreamReader::lineNumber() const      - Undefined Reference
    _ZNK16QXmlStreamReader10lineNumberEv@QtCore{00040703}[2001b2dc].dll  - Undefined Reference
    QXmlStreamReader::errorString() const     - Undefined Reference
    _ZNK16QXmlStreamReader11errorStringEv@QtCore{00040703}[2001b2dc].dll  - Undefined Reference
    QXmlStreamReader::name() const            - Undefined Reference
    _ZNK16QXmlStreamReader4nameEv@QtCore{00040703}[2001b2dc].dll  - Undefined Reference
    QXmlStreamReader::text() const            - Undefined Reference
    _ZNK16QXmlStreamReader4textEv@QtCore{00040703}[2001b2dc].dll  - Undefined Reference
    QXmlStreamReader::atEnd() const           - Undefined Reference
    _ZNK16QXmlStreamReader5atEndEv@QtCore{00040703}[2001b2dc].dll  - Undefined Reference
    QXmlStreamReader::error() const           - Undefined Reference
    _ZNK16QXmlStreamReader5errorEv@QtCore{00040703}[2001b2dc].dll  - Undefined Reference
    QXmlStreamReader::tokenType() const       - Undefined Reference
    _ZNK16QXmlStreamReader9tokenTypeEv@QtCore{00040703}[2001b2dc].dll  - Undefined Reference
    QXmlStreamAttributes::value(const QLatin1String&) const  - Undefined Reference
    _ZNK20QXmlStreamAttributes5valueERK13QLatin1String@QtCore{00040703}[2001b2dc].dll  - Undefined Reference
    QXmlStreamAttributes::value(const QString&) const  - Undefined Reference
    _ZNK20QXmlStreamAttributes5valueERK7QString@QtCore{00040703}[2001b2dc].dll  - Undefined Reference
    QDir::filePath(const QString&) const      - Undefined Reference
    _ZNK4QDir8filePathERK7QString@QtCore{00040703}[2001b2dc].dll  - Undefined Reference
    QDir::entryList(const QStringList&, QFlags<QDir::Filter>, QFlags<QDir::SortFlag>) const  - Undefined Reference
    _ZNK4QDir9entryListERK11QStringList6QFlagsINS_6FilterEES3_INS_8SortFlagEE@QtCore{00040703}[2001b2dc].dll  - Undefined Reference
    QFile::exists() const                     - Undefined Reference
    _ZNK5QFile6existsEv@QtCore{00040703}[2001b2dc].dll  - Undefined Reference
    TDesC8::Ptr() const                       - Undefined Reference
    _ZNK6TDesC83PtrEv@euser{000a0000}[100039e5].dll  - Undefined Reference
    QObject::metaObject() const               - Undefined Reference
    _ZNK7QObject10metaObjectEv@QtCore{00040703}[2001b2dc].dll  - Undefined Reference
    QString::simplified() const               - Undefined Reference
    _ZNK7QString10simplifiedEv@QtCore{00040703}[2001b2dc].dll  - Undefined Reference
    QString::startsWith(const QLatin1String&, Qt::CaseSensitivity) const  - Undefined Reference
    _ZNK7QString10startsWithERK13QLatin1StringN2Qt15CaseSensitivityE@QtCore{00040703}[2001b2dc].dll  - Undefined Reference
    QString::startsWith(const QChar&, Qt::CaseSensitivity) const  - Undefined Reference
    _ZNK7QString10startsWithERK5QCharN2Qt15CaseSensitivityE@QtCore{00040703}[2001b2dc].dll  - Undefined Reference
    QString::startsWith(const QString&, Qt::CaseSensitivity) const  - Undefined Reference
    _ZNK7QString10startsWithERKS_N2Qt15CaseSensitivityE@QtCore{00040703}[2001b2dc].dll  - Undefined Reference
    QString::toLocal8Bit() const              - Undefined Reference
    _ZNK7QString11toLocal8BitEv@QtCore{00040703}[2001b2dc].dll  - Undefined Reference
    QString::arg(const QString&, int, const QChar&) const  - Undefined Reference
    _ZNK7QString3argERKS_iRK5QChar@QtCore{00040703}[2001b2dc].dll  - Undefined Reference
    QString::mid(int, int) const              - Undefined Reference
    _ZNK7QString3midEii@QtCore{00040703}[2001b2dc].dll  - Undefined Reference
    QString::right(int) const                 - Undefined Reference
    _ZNK7QString5rightEi@QtCore{00040703}[2001b2dc].dll  - Undefined Reference
    QString::toInt(bool*, int) const          - Undefined Reference
    _ZNK7QString5toIntEPbi@QtCore{00040703}[2001b2dc].dll  - Undefined Reference
    QString::utf16() const                    - Undefined Reference
    _ZNK7QString5utf16Ev@QtCore{00040703}[2001b2dc].dll  - Undefined Reference
    QString::toUInt(bool*, int) const         - Undefined Reference
    _ZNK7QString6toUIntEPbi@QtCore{00040703}[2001b2dc].dll  - Undefined Reference
    QString::indexOf(QChar, int, Qt::CaseSensitivity) const  - Undefined Reference
    _ZNK7QString7indexOfE5QChariN2Qt15CaseSensitivityE@QtCore{00040703}[2001b2dc].dll  - Undefined Reference
    QString::endsWith(const QChar&, Qt::CaseSensitivity) const  - Undefined Reference
    _ZNK7QString8endsWithERK5QCharN2Qt15CaseSensitivityE@QtCore{00040703}[2001b2dc].dll  - Undefined Reference
    QString::operator ==(const QLatin1String&) const  - Undefined Reference
    _ZNK7QStringeqERK13QLatin1String@QtCore{00040703}[2001b2dc].dll  - Undefined Reference
    QString::operator ==(const QString&) const  - Undefined Reference
    _ZNK7QStringeqERKS_@QtCore{00040703}[2001b2dc].dll  - Undefined Reference
    TDesC16::Ptr() const                      - Undefined Reference
    _ZNK7TDesC163PtrEv@euser{000a0000}[100039e5].dll  - Undefined Reference
    QVariant::toByteArray() const             - Undefined Reference
    _ZNK8QVariant11toByteArrayEv@QtCore{00040703}[2001b2dc].dll  - Undefined Reference
    QVariant::type() const                    - Undefined Reference
    _ZNK8QVariant4typeEv@QtCore{00040703}[2001b2dc].dll  - Undefined Reference
    QVariant::toInt(bool*) const              - Undefined Reference
    _ZNK8QVariant5toIntEPb@QtCore{00040703}[2001b2dc].dll  - Undefined Reference
    QVariant::isNull() const                  - Undefined Reference
    _ZNK8QVariant6isNullEv@QtCore{00040703}[2001b2dc].dll  - Undefined Reference
    QVariant::toDouble(bool*) const           - Undefined Reference
    _ZNK8QVariant8toDoubleEPb@QtCore{00040703}[2001b2dc].dll  - Undefined Reference
    QVariant::toString() const                - Undefined Reference
    _ZNK8QVariant8toStringEv@QtCore{00040703}[2001b2dc].dll  - Undefined Reference
    QFileInfo::path() const                   - Undefined Reference
    _ZNK9QFileInfo4pathEv@QtCore{00040703}[2001b2dc].dll  - Undefined Reference
    typeinfo for XLeaveException              - Undefined Reference
    _ZTI15XLeaveException@drtaeabi{000a0000}.dll  - Undefined Reference
    typeinfo for CBase                        - Undefined Reference
    _ZTI5CBase@euser{000a0000}[100039e5].dll  - Undefined Reference
    typeinfo for CActive                      - Undefined Reference
    _ZTI7CActive@euser{000a0000}[100039e5].dll  - Undefined Reference
    typeinfo for QObject                      - Undefined Reference
    _ZTI7QObject@QtCore{00040703}[2001b2dc].dll  - Undefined Reference
    typeinfo for CServer2                     - Undefined Reference
    _ZTI8CServer2@euser{000a0000}[100039e5].dll  - Undefined Reference
    typeinfo for CSession2                    - Undefined Reference
    _ZTI9CSession2@euser{000a0000}[100039e5].dll  - Undefined Reference
    typeinfo for std::bad_alloc               - Undefined Reference
    _ZTISt9bad_alloc@stdnew{000a0000}[20022178].dll  - Undefined Reference
    typeinfo for std::exception               - Undefined Reference
    _ZTISt9exception@stdnew{000a0000}[20022178].dll  - Undefined Reference
    vtable for CBase                          - Undefined Reference
    _ZTV5CBase@euser{000a0000}[100039e5].dll  - Undefined Reference
    vtable for __cxxabiv1::__class_type_info  - Undefined Reference
    _ZTVN10__cxxabiv117__class_type_infoE@drtaeabi{000a0000}.dll  - Undefined Reference
    vtable for __cxxabiv1::__si_class_type_info  - Undefined Reference
    _ZTVN10__cxxabiv120__si_class_type_infoE@drtaeabi{000a0000}.dll  - Undefined Reference
    vtable for __cxxabiv1::__vmi_class_type_info  - Undefined Reference
    _ZTVN10__cxxabiv121__vmi_class_type_infoE@drtaeabi{000a0000}.dll  - Undefined Reference
    operator delete[] (void*)                 - Undefined Reference
    _ZdaPv@stdnew{000a0000}[20022178].dll     - Undefined Reference
    operator delete (void*)                   - Undefined Reference
    _ZdlPv@stdnew{000a0000}[20022178].dll     - Undefined Reference
    operator ==(const QLatin1String&, const QStringRef&)  - Undefined Reference
    _ZeqRK13QLatin1StringRK10QStringRef@QtCore{00040703}[2001b2dc].dll  - Undefined Reference
    operator ==(const QString&, const QStringRef&)  - Undefined Reference
    _ZeqRK7QStringRK10QStringRef@QtCore{00040703}[2001b2dc].dll  - Undefined Reference
    operator <<(QDataStream&, const QString&)  - Undefined Reference
    _ZlsR11QDataStreamRK7QString@QtCore{00040703}[2001b2dc].dll  - Undefined Reference
    operator new(unsigned)                    - Undefined Reference
    _Znwj@stdnew{000a0000}[20022178].dll      - Undefined Reference
    operator >>(QDataStream&, QString&)       - Undefined Reference
    _ZrsR11QDataStreamR7QString@QtCore{00040703}[2001b2dc].dll  - Undefined Reference
    __ARM_ll_addlu                            - Undefined Reference
    __ARM_ll_addlu@drtrvct2_2{000a0000}.dll   - Undefined Reference
    __aeabi_uidivmod                          - Undefined Reference
    __aeabi_uidivmod@drtaeabi{000a0000}.dll   - Undefined Reference
    __aeabi_unwind_cpp_pr0                    - Undefined Reference
    __aeabi_unwind_cpp_pr0@drtaeabi{000a0000}.dll  - Undefined Reference
    __aeabi_unwind_cpp_pr1                    - Undefined Reference
    __aeabi_unwind_cpp_pr1@drtaeabi{000a0000}.dll  - Undefined Reference
    __cxa_begin_catch                         - Undefined Reference
    __cxa_begin_catch@drtaeabi{000a0000}.dll  - Undefined Reference
    __cxa_call_unexpected                     - Undefined Reference
    __cxa_call_unexpected@drtaeabi{000a0000}.dll  - Undefined Reference
    __cxa_end_catch                           - Undefined Reference
    __cxa_end_catch@drtaeabi{000a0000}.dll    - Undefined Reference
    __cxa_end_cleanup                         - Undefined Reference
    __cxa_end_cleanup@drtaeabi{000a0000}.dll  - Undefined Reference
    __cxa_pure_virtual                        - Undefined Reference
    __cxa_pure_virtual@drtaeabi{000a0000}.dll  - Undefined Reference
    __cxa_rethrow                             - Undefined Reference
    __cxa_rethrow@drtaeabi{000a0000}.dll      - Undefined Reference
    run_static_dtors                          - Undefined Weak Reference
    strcmp                                    - Undefined Reference
    strcmp@libc{00010001}[10207369].dll       - Undefined Reference
    Image$$ER_RO$$Base                       0x00008000   Number         0  anon$$obj.o(linker$$defined$$symbols)
    _E32Startup                              0x00008000   ARM Code     112  uc_exe_.o(.emb_text)
    Symbian$$CPP$$Exception$$Descriptor      0x0000805c   Data           0  uc_exe_.o(.emb_text)
    CallMain(int, char**, char**)            0x00008070   ARM Code       4  qts60main_mcrt0.o(.emb_text)
    __cpp_initialize__aeabi_                 0x00008074   ARM Code      52  ucppinit.o(.emb_text)
    std::nothrow                             0x000080a8   ARM Code       0  ucppinit.o(.emb_text)
    __PLT                                    0x000080a8   ARM Code       0  anon$$obj.o(.plt)
    _xxxx_call_user_invariant                0x00008828   ARM Code      12  uc_exe_.o(.text)
    _xxxx_call_user_handle_exception         0x00008834   ARM Code      20  uc_exe_.o(.text)
    XQSettingsManager::getStaticMetaObject() 0x00008849   Thumb Code     4  moc_xqsettingsmanager.o(.text)
    XQSettingsManager::metaObject() const    0x0000884d   Thumb Code    28  moc_xqsettingsmanager.o(.text)
    XQSettingsManager::qt_metacast(const char*) 0x00008869   Thumb Code    40  moc_xqsettingsmanager.o(.text)
    XQSettingsManager::itemDeleted(const XQSettingsKey&) 0x00008891   Thumb Code    30  moc_xqsettingsmanager.o(.text)
    XQSettingsManager::valueChanged(const XQSettingsKey&, const QVariant&) 0x000088af   Thumb Code    34  moc_xqsettingsmanager.o(.text)
    XQSettingsManager::qt_metacall(QMetaObject::Call, int, void**) 0x000088d1   Thumb Code    78  moc_xqsettingsmanager.o(.text)
    Inline ARM to Thumb Veneer to main       0x00008928   ARM Code       0  pspathmapperservermain.o(.text)
    main                                     0x00008931   Thumb Code   128  pspathmapperservermain.o(.text)
    QtMobility::CCRMLDirectoryMonitor::getStaticMetaObject() 0x000089b5   Thumb Code     4  pathmapper_symbian.o(.text)
    QtMobility::CCRMLDirectoryMonitor::metaObject() const 0x000089b9   Thumb Code    28  pathmapper_symbian.o(.text)
    QtMobility::CCRMLDirectoryMonitor::qt_metacast(const char*) 0x000089d5   Thumb Code    58  pathmapper_symbian.o(.text)
    QtMobility::CCRMLDirectoryMonitor::directoryChanged() 0x00008a0f   Thumb Code    18  pathmapper_symbian.o(.text)
    QtMobility::CCRMLDirectoryMonitor::qt_metacall(QMetaObject::Call, int, void**) 0x00008a21   Thumb Code    58  pathmapper_symbian.o(.text)
    QtMobility::CCRMLDirectoryMonitor::IssueNotifyChange() 0x00008a5b   Thumb Code    42  pathmapper_symbian.o(.text)
    QtMobility::CCRMLDirectoryMonitor::CCRMLDirectoryMonitor() 0x00008a85   Thumb Code    84  pathmapper_symbian.o(.text)
    QtMobility::CCRMLDirectoryMonitor::CCRMLDirectoryMonitor__sub_object() 0x00008a85   Thumb Code     0  pathmapper_symbian.o(.text)
    QtMobility::CCRMLDirectoryMonitor::~CCRMLDirectoryMonitor() 0x00008ad9   Thumb Code    50  pathmapper_symbian.o(.text)
    QtMobility::CCRMLDirectoryMonitor::~CCRMLDirectoryMonitor__sub_object() 0x00008ad9   Thumb Code     0  pathmapper_symbian.o(.text)
    QtMobility::CCRMLDirectoryMonitor::~CCRMLDirectoryMonitor__deallocating() 0x00008b0b   Thumb Code    22  pathmapper_symbian.o(.text)
    thunk{-8} to QtMobility::CCRMLDirectoryMonitor::~CCRMLDirectoryMonitor__deallocating() 0x00008b21   Thumb Code    14  pathmapper_symbian.o(.text)
    thunk{-8} to QtMobility::CCRMLDirectoryMonitor::~CCRMLDirectoryMonitor() 0x00008b2f   Thumb Code    14  pathmapper_symbian.o(.text)
    QtMobility::CCRMLDirectoryMonitor::RunL() 0x00008b3d   Thumb Code    18  pathmapper_symbian.o(.text)
    thunk{-8} to QtMobility::CCRMLDirectoryMonitor::RunL() 0x00008b4f   Thumb Code    14  pathmapper_symbian.o(.text)
    QtMobility::CCRMLDirectoryMonitor::DoCancel() 0x00008b5d   Thumb Code    14  pathmapper_symbian.o(.text)
    thunk{-8} to QtMobility::CCRMLDirectoryMonitor::DoCancel() 0x00008b6b   Thumb Code    14  pathmapper_symbian.o(.text)
    QtMobility::PathMapper::getStaticMetaObject() 0x00008b79   Thumb Code     4  pathmapper_symbian.o(.text)
    QtMobility::PathMapper::metaObject() const 0x00008b7d   Thumb Code    28  pathmapper_symbian.o(.text)
    QtMobility::PathMapper::qt_metacast(const char*) 0x00008b99   Thumb Code    42  pathmapper_symbian.o(.text)
    QtMobility::PathMapper::updateMappings() 0x00008bc3   Thumb Code  1330  pathmapper_symbian.o(.text)
    QtMobility::PathMapper::qt_metacall(QMetaObject::Call, int, void**) 0x000090f5   Thumb Code    58  pathmapper_symbian.o(.text)
    QtMobility::PathMapper::PathMapper()     0x0000912f   Thumb Code   274  pathmapper_symbian.o(.text)
    QtMobility::PathMapper::PathMapper__sub_object() 0x0000912f   Thumb Code     0  pathmapper_symbian.o(.text)
    QtMobility::PathMapper::~PathMapper()    0x00009241   Thumb Code    58  pathmapper_symbian.o(.text)
    QtMobility::PathMapper::~PathMapper__sub_object() 0x00009241   Thumb Code     0  pathmapper_symbian.o(.text)
    QtMobility::PathMapper::~PathMapper__deallocating() 0x0000927b   Thumb Code    22  pathmapper_symbian.o(.text)
    QtMobility::PathMapper::childPaths(const QString&) const 0x00009291   Thumb Code   356  pathmapper_symbian.o(.text)
    QtMobility::PathMapper::getChildren(const QString&, QSet<QString>&) const 0x000093f5   Thumb Code   500  pathmapper_symbian.o(.text)
    QtMobility::PathMapper::resolvePath(const QString&, QtMobility::PathMapper::Target&, unsigned&, unsigned&) const 0x000095e9   Thumb Code   118  pathmapper_symbian.o(.text)
    QtMobility::KeyData::KeyData(const QString&, unsigned long long, QtMobility::KeyData::Target, unsigned) 0x00009661   Thumb Code    52  qcrmlparser.o(.text)
    QtMobility::KeyData::KeyData__sub_object(const QString&, unsigned long long, QtMobility::KeyData::Target, unsigned) 0x00009661   Thumb Code     0  qcrmlparser.o(.text)
    QtMobility::QCrmlParser::setError(QtMobility::QCrmlParser::Error, const QString&) 0x00009695   Thumb Code    22  qcrmlparser.o(.text)
    QtMobility::QCrmlParser::parseUnknownElement() 0x000096ab   Thumb Code    90  qcrmlparser.o(.text)
    QtMobility::QCrmlParser::error()         0x00009705   Thumb Code     6  qcrmlparser.o(.text)
    QtMobility::QCrmlParser::checkMandatoryAttributes(const QStringList&) 0x0000970b   Thumb Code   262  qcrmlparser.o(.text)
    QtMobility::QCrmlParser::parseBit(unsigned, unsigned) 0x00009811   Thumb Code  1012  qcrmlparser.o(.text)
    QtMobility::QCrmlParser::uidStringToUInt32(const QString&, bool*) 0x00009c05   Thumb Code    88  qcrmlparser.o(.text)
    QtMobility::QCrmlParser::parseKey(unsigned) 0x00009c5d   Thumb Code  1294  qcrmlparser.o(.text)
    QtMobility::QCrmlParser::parseKeyRange(unsigned) 0x0000a16b   Thumb Code  2712  qcrmlparser.o(.text)
    QtMobility::QCrmlParser::parseRepository() 0x0000ac03   Thumb Code   868  qcrmlparser.o(.text)
    QtMobility::QCrmlParser::parseQCrml(const QString&) 0x0000af67   Thumb Code   632  qcrmlparser.o(.text)
    QtMobility::QCrmlParser::errorString()   0x0000b1df   Thumb Code    20  qcrmlparser.o(.text)
    QtMobility::CPSPathMapperServer::Shutdown() 0x0000b23d   Thumb Code    12  pspathmapperserver.o(.text)
    QtMobility::CPSPathMapperServer::CPSPathMapperServer() 0x0000b257   Thumb Code    92  pspathmapperserver.o(.text)
    QtMobility::CPSPathMapperServer::CPSPathMapperServer__sub_object() 0x0000b257   Thumb Code     0  pspathmapperserver.o(.text)
    QtMobility::CPSPathMapperServer::NewSessionL(const TVersion&, const RMessage2&) const 0x0000b2b3   Thumb Code    64  pspathmapperserver.o(.text)
    QtMobility::CPSPathMapperServer::PanicServer(TPSPathMapperServerPanic) 0x0000b2f3   Thumb Code    22  pspathmapperserver.o(.text)
    QtMobility::CPSPathMapperServer::IncreaseSessions() 0x0000b309   Thumb Code    18  pspathmapperserver.o(.text)
    QtMobility::CPSPathMapperServer::DecreaseSessions() 0x0000b31b   Thumb Code    70  pspathmapperserver.o(.text)
    QtMobility::CPSPathMapperServerSession::CPSPathMapperServerSession(const QtMobility::PathMapper&, QtMobility::CPSPathMapperServer&) 0x0000b371   Thumb Code    52  pspathmappersession.o(.text)
    QtMobility::CPSPathMapperServerSession::CPSPathMapperServerSession__sub_object(const QtMobility::PathMapper&, QtMobility::CPSPathMapperServer&) 0x0000b371   Thumb Code     0  pspathmappersession.o(.text)
    QtMobility::CPSPathMapperServerSession::~CPSPathMapperServerSession() 0x0000b3a5   Thumb Code    36  pspathmappersession.o(.text)
    QtMobility::CPSPathMapperServerSession::~CPSPathMapperServerSession__sub_object() 0x0000b3a5   Thumb Code     0  pspathmappersession.o(.text)
    QtMobility::CPSPathMapperServerSession::~CPSPathMapperServerSession__deallocating() 0x0000b3c9   Thumb Code    22  pspathmappersession.o(.text)
    QtMobility::CPSPathMapperServerSession::ResolvePathL(const RMessage2&) 0x0000b3df   Thumb Code    44  pspathmappersession.o(.text)
    QtMobility::CPSPathMapperServerSession::ResolvePathLengthL(const RMessage2&) 0x0000b40b   Thumb Code   250  pspathmappersession.o(.text)
    QtMobility::CPSPathMapperServerSession::ChildPathsL(const RMessage2&) 0x0000b505   Thumb Code    44  pspathmappersession.o(.text)
    QtMobility::CPSPathMapperServerSession::ChildPathsLengthL(const RMessage2&) 0x0000b531   Thumb Code   340  pspathmappersession.o(.text)
    QtMobility::CPSPathMapperServerSession::GetChildrenL(const RMessage2&) 0x0000b685   Thumb Code    44  pspathmappersession.o(.text)
    QtMobility::CPSPathMapperServerSession::GetChildrenLengthL(const RMessage2&) 0x0000b6b1   Thumb Code   288  pspathmappersession.o(.text)
    QtMobility::CPSPathMapperServerSession::DispatchMessageL(const RMessage2&) 0x0000b7d1   Thumb Code   108  pspathmappersession.o(.text)
    QtMobility::CPSPathMapperServerSession::ServiceL(const RMessage2&) 0x0000b83d   Thumb Code    74  pspathmappersession.o(.text)
    XQSettingsKey::XQSettingsKey(XQSettingsKey::Target, long, unsigned long) 0x0000b88d   Thumb Code     8  xqsettingskey.o(.text)
    XQSettingsKey::XQSettingsKey__sub_object(XQSettingsKey::Target, long, unsigned long) 0x0000b88d   Thumb Code     0  xqsettingskey.o(.text)
    XQSettingsKey::~XQSettingsKey()          0x0000b895   Thumb Code     2  xqsettingskey.o(.text)
    XQSettingsKey::~XQSettingsKey__sub_object() 0x0000b895   Thumb Code     0  xqsettingskey.o(.text)
    XQSettingsKey::target() const            0x0000b897   Thumb Code     6  xqsettingskey.o(.text)
    XQSettingsKey::uid() const               0x0000b89d   Thumb Code     6  xqsettingskey.o(.text)
    XQSettingsKey::key() const               0x0000b8a3   Thumb Code     6  xqsettingskey.o(.text)
    XQCentralRepositorySettingsKey::XQCentralRepositorySettingsKey(long, unsigned long) 0x0000b8a9   Thumb Code    24  xqsettingskey.o(.text)
    XQCentralRepositorySettingsKey::XQCentralRepositorySettingsKey__sub_object(long, unsigned long) 0x0000b8a9   Thumb Code     0  xqsettingskey.o(.text)
    XQCentralRepositorySettingsKey::~XQCentralRepositorySettingsKey() 0x0000b8c1   Thumb Code    14  xqsettingskey.o(.text)
    XQCentralRepositorySettingsKey::~XQCentralRepositorySettingsKey__sub_object() 0x0000b8c1   Thumb Code     0  xqsettingskey.o(.text)
    XQPublishAndSubscribeSettingsKey::XQPublishAndSubscribeSettingsKey(long, unsigned long) 0x0000b8cf   Thumb Code    24  xqsettingskey.o(.text)
    XQPublishAndSubscribeSettingsKey::XQPublishAndSubscribeSettingsKey__sub_object(long, unsigned long) 0x0000b8cf   Thumb Code     0  xqsettingskey.o(.text)
    XQPublishAndSubscribeSettingsKey::~XQPublishAndSubscribeSettingsKey() 0x0000b8e7   Thumb Code    14  xqsettingskey.o(.text)
    XQPublishAndSubscribeSettingsKey::~XQPublishAndSubscribeSettingsKey__sub_object() 0x0000b8e7   Thumb Code     0  xqsettingskey.o(.text)
    XQSettingsManager::XQSettingsManager(QObject*) 0x0000b8f5   Thumb Code    62  xqsettingsmanager.o(.text)
    XQSettingsManager::XQSettingsManager__sub_object(QObject*) 0x0000b8f5   Thumb Code     0  xqsettingsmanager.o(.text)
    XQSettingsManager::~XQSettingsManager()  0x0000b933   Thumb Code    34  xqsettingsmanager.o(.text)
    XQSettingsManager::~XQSettingsManager__sub_object() 0x0000b933   Thumb Code     0  xqsettingsmanager.o(.text)
    XQSettingsManager::~XQSettingsManager__deallocating() 0x0000b955   Thumb Code    22  xqsettingsmanager.o(.text)
    XQSettingsManager::readItemValue(const XQSettingsKey&, XQSettingsManager::Type) 0x0000b96b   Thumb Code    24  xqsettingsmanager.o(.text)
    XQSettingsManager::writeItemValue(const XQSettingsKey&, const QVariant&) 0x0000b983   Thumb Code    20  xqsettingsmanager.o(.text)
    XQSettingsManager::startMonitoring(const XQSettingsKey&, XQSettingsManager::Type) 0x0000b997   Thumb Code    20  xqsettingsmanager.o(.text)
    XQSettingsManager::stopMonitoring(const XQSettingsKey&) 0x0000b9ab   Thumb Code    16  xqsettingsmanager.o(.text)
    XQSettingsManager::error() const         0x0000b9bb   Thumb Code    12  xqsettingsmanager.o(.text)
    XQSettingsManagerPrivate::XQSettingsManagerPrivate(XQSettingsManager*) 0x0000b9cd   Thumb Code    72  xqsettingsmanager_p.o(.text)
    XQSettingsManagerPrivate::XQSettingsManagerPrivate__sub_object(XQSettingsManager*) 0x0000b9cd   Thumb Code     0  xqsettingsmanager_p.o(.text)
    XQSettingsManagerPrivate::~XQSettingsManagerPrivate() 0x0000ba15   Thumb Code   534  xqsettingsmanager_p.o(.text)
    XQSettingsManagerPrivate::~XQSettingsManagerPrivate__sub_object() 0x0000ba15   Thumb Code     0  xqsettingsmanager_p.o(.text)
    XQSettingsManagerPrivate::~XQSettingsManagerPrivate__deallocating() 0x0000bc2b   Thumb Code    22  xqsettingsmanager_p.o(.text)
    XQSettingsManagerPrivate::pubSubHandlerInstance(long) 0x0000bc41   Thumb Code   138  xqsettingsmanager_p.o(.text)
    XQSettingsManagerPrivate::cenRepHandlerInstance(long) 0x0000bccb   Thumb Code   138  xqsettingsmanager_p.o(.text)
    XQSettingsManagerPrivate::handlerInstance(const XQSettingsKey&) 0x0000bd55   Thumb Code   114  xqsettingsmanager_p.o(.text)
    XQSettingsManagerPrivate::readItemValue(const XQSettingsKey&, XQSettingsManager::Type) 0x0000bdc7   Thumb Code    90  xqsettingsmanager_p.o(.text)
    XQSettingsManagerPrivate::writeItemValue(const XQSettingsKey&, const QVariant&) 0x0000be21   Thumb Code    42  xqsettingsmanager_p.o(.text)
    XQSettingsManagerPrivate::startMonitoring(const XQSettingsKey&, XQSettingsManager::Type) 0x0000be4b   Thumb Code    52  xqsettingsmanager_p.o(.text)
    XQSettingsManagerPrivate::stopMonitoring(const XQSettingsKey&) 0x0000be7f   Thumb Code   146  xqsettingsmanager_p.o(.text)
    XQSettingsManagerPrivate::error() const  0x0000bf11   Thumb Code    78  xqsettingsmanager_p.o(.text)
    XQSettingsManagerPrivate::valueChanged(const XQSettingsKey&, XQSettingsManager::Type) 0x0000bf5f   Thumb Code    38  xqsettingsmanager_p.o(.text)
    thunk{-4} to XQSettingsManagerPrivate::valueChanged(const XQSettingsKey&, XQSettingsManager::Type) 0x0000bf85   Thumb Code    22  xqsettingsmanager_p.o(.text)
    XQSettingsManagerPrivate::itemDeleted(const XQSettingsKey&) 0x0000bf9b   Thumb Code    42  xqsettingsmanager_p.o(.text)
    thunk{-4} to XQSettingsManagerPrivate::itemDeleted(const XQSettingsKey&) 0x0000bfc5   Thumb Code    18  xqsettingsmanager_p.o(.text)
    SettingsHandlerBase::handleReadItemValue(const XQSettingsKey&, XQSettingsManager::Type, int&) 0x0000c009   Thumb Code   806  settingshandlerbase.o(.text)
    SettingsHandlerBase::handleWriteItemValue(const XQSettingsKey&, const QVariant&, int&) 0x0000c32f   Thumb Code   286  settingshandlerbase.o(.text)
    CCentralRepositoryHandler::ConstructL()  0x0000c451   Thumb Code    14  ccentralrepositoryhandler.o(.text)
    CCentralRepositoryHandler::CCentralRepositoryHandler(TUid) 0x0000c45f   Thumb Code    50  ccentralrepositoryhandler.o(.text)
    CCentralRepositoryHandler::CCentralRepositoryHandler__sub_object(TUid) 0x0000c45f   Thumb Code     0  ccentralrepositoryhandler.o(.text)
    CCentralRepositoryHandler::NewL(TUid)    0x0000c491   Thumb Code    50  ccentralrepositoryhandler.o(.text)
    CCentralRepositoryHandler::~CCentralRepositoryHandler() 0x0000c4c3   Thumb Code   322  ccentralrepositoryhandler.o(.text)
    CCentralRepositoryHandler::~CCentralRepositoryHandler__sub_object() 0x0000c4c3   Thumb Code     0  ccentralrepositoryhandler.o(.text)
    CCentralRepositoryHandler::~CCentralRepositoryHandler__deallocating() 0x0000c605   Thumb Code    22  ccentralrepositoryhandler.o(.text)
    thunk{-4} to CCentralRepositoryHandler::~CCentralRepositoryHandler__deallocating() 0x0000c61b   Thumb Code    14  ccentralrepositoryhandler.o(.text)
    thunk{-4} to CCentralRepositoryHandler::~CCentralRepositoryHandler() 0x0000c629   Thumb Code    14  ccentralrepositoryhandler.o(.text)
    CCentralRepositoryHandler::createKey(unsigned long, const int&) 0x0000c637   Thumb Code    20  ccentralrepositoryhandler.o(.text)
    CCentralRepositoryHandler::createKey(unsigned long, const double&) 0x0000c64b   Thumb Code    20  ccentralrepositoryhandler.o(.text)
    CCentralRepositoryHandler::createKey(unsigned long, const TDesC8&) 0x0000c65f   Thumb Code    20  ccentralrepositoryhandler.o(.text)
    CCentralRepositoryHandler::createKey(unsigned long, const TDesC16&) 0x0000c673   Thumb Code    20  ccentralrepositoryhandler.o(.text)
    CCentralRepositoryHandler::deleteKey(unsigned long) 0x0000c687   Thumb Code    16  ccentralrepositoryhandler.o(.text)
    CCentralRepositoryHandler::resetKey(unsigned long) 0x0000c697   Thumb Code    16  ccentralrepositoryhandler.o(.text)
    CCentralRepositoryHandler::resetRepository() 0x0000c6a7   Thumb Code    12  ccentralrepositoryhandler.o(.text)
    CCentralRepositoryHandler::findKeyL(unsigned long, unsigned long, RArray<unsigned long>&) 0x0000c6b3   Thumb Code    24  ccentralrepositoryhandler.o(.text)
    CCentralRepositoryHandler::findKeyL(unsigned long, unsigned long, const int&, bool, RArray<unsigned long>&) 0x0000c6cb   Thumb Code    54  ccentralrepositoryhandler.o(.text)
    CCentralRepositoryHandler::findKeyL(unsigned long, unsigned long, const double&, bool, RArray<unsigned long>&) 0x0000c701   Thumb Code    54  ccentralrepositoryhandler.o(.text)
    CCentralRepositoryHandler::findKeyL(unsigned long, unsigned long, const TDesC8&, bool, RArray<unsigned long>&) 0x0000c737   Thumb Code    54  ccentralrepositoryhandler.o(.text)
    CCentralRepositoryHandler::findKeyL(unsigned long, unsigned long, const TDesC16&, bool, RArray<unsigned long>&) 0x0000c76d   Thumb Code    54  ccentralrepositoryhandler.o(.text)
    CCentralRepositoryHandler::startTransaction(CRepository::TTransactionMode) 0x0000c7a3   Thumb Code     8  ccentralrepositoryhandler.o(.text)
    CCentralRepositoryHandler::commitTransaction() 0x0000c7ab   Thumb Code     8  ccentralrepositoryhandler.o(.text)
    CCentralRepositoryHandler::cancelTransaction() 0x0000c7b3   Thumb Code     2  ccentralrepositoryhandler.o(.text)
    CCentralRepositoryHandler::failTransaction() 0x0000c7b5   Thumb Code     2  ccentralrepositoryhandler.o(.text)
    CCentralRepositoryHandler::transactionState() const 0x0000c7b7   Thumb Code     8  ccentralrepositoryhandler.o(.text)
    CCentralRepositoryHandler::setObserver(MSettingsHandlerObserver*) 0x0000c7bf   Thumb Code     4  ccentralrepositoryhandler.o(.text)
    thunk{-4} to CCentralRepositoryHandler::setObserver(MSettingsHandlerObserver*) 0x0000c7c3   Thumb Code    18  ccentralrepositoryhandler.o(.text)
    CCentralRepositoryHandler::handleStartMonitoring(const XQSettingsKey&, XQSettingsManager::Type, MSettingsHandlerObserver&, int&) 0x0000c7d5   Thumb Code   176  ccentralrepositoryhandler.o(.text)
    thunk{-4} to CCentralRepositoryHandler::handleStartMonitoring(const XQSettingsKey&, XQSettingsManager::Type, MSettingsHandlerObserver&, int&) 0x0000c885   Thumb Code   160  ccentralrepositoryhandler.o(.text)
    CCentralRepositoryHandler::handleStopMonitoring(const XQSettingsKey&, int&) 0x0000c925   Thumb Code   100  ccentralrepositoryhandler.o(.text)
    thunk{-4} to CCentralRepositoryHandler::handleStopMonitoring(const XQSettingsKey&, int&) 0x0000c989   Thumb Code    22  ccentralrepositoryhandler.o(.text)
    CCentralRepositoryHandler::getValue(unsigned long, int&) 0x0000c99f   Thumb Code    20  ccentralrepositoryhandler.o(.text)
    thunk{-4} to CCentralRepositoryHandler::getValue(unsigned long, int&) 0x0000c9b3   Thumb Code    22  ccentralrepositoryhandler.o(.text)
    CCentralRepositoryHandler::getValue(unsigned long, double&) 0x0000c9c9   Thumb Code    20  ccentralrepositoryhandler.o(.text)
    thunk{-4} to CCentralRepositoryHandler::getValue(unsigned long, double&) 0x0000c9dd   Thumb Code    22  ccentralrepositoryhandler.o(.text)
    CCentralRepositoryHandler::getValueL(unsigned long, RBuf8&) 0x0000c9f3   Thumb Code    58  ccentralrepositoryhandler.o(.text)
    thunk{-4} to CCentralRepositoryHandler::getValueL(unsigned long, RBuf8&) 0x0000ca2d   Thumb Code    22  ccentralrepositoryhandler.o(.text)
    CCentralRepositoryHandler::getValueL(unsigned long, RBuf16&) 0x0000ca43   Thumb Code    58  ccentralrepositoryhandler.o(.text)
    thunk{-4} to CCentralRepositoryHandler::getValueL(unsigned long, RBuf16&) 0x0000ca7d   Thumb Code    22  ccentralrepositoryhandler.o(.text)
    CCentralRepositoryHandler::setValue(unsigned long, const int&) 0x0000ca93   Thumb Code    20  ccentralrepositoryhandler.o(.text)
    thunk{-4} to CCentralRepositoryHandler::setValue(unsigned long, const int&) 0x0000caa7   Thumb Code    22  ccentralrepositoryhandler.o(.text)
    CCentralRepositoryHandler::setValue(unsigned long, const double&) 0x0000cabd   Thumb Code    20  ccentralrepositoryhandler.o(.text)
    thunk{-4} to CCentralRepositoryHandler::setValue(unsigned long, const double&) 0x0000cad1   Thumb Code    22  ccentralrepositoryhandler.o(.text)
    CCentralRepositoryHandler::setValue(unsigned long, const TDesC8&) 0x0000cae7   Thumb Code    20  ccentralrepositoryhandler.o(.text)
    thunk{-4} to CCentralRepositoryHandler::setValue(unsigned long, const TDesC8&) 0x0000cafb   Thumb Code    22  ccentralrepositoryhandler.o(.text)
    CCentralRepositoryHandler::setValue(unsigned long, const TDesC16&) 0x0000cb11   Thumb Code    20  ccentralrepositoryhandler.o(.text)
    thunk{-4} to CCentralRepositoryHandler::setValue(unsigned long, const TDesC16&) 0x0000cb25   Thumb Code    22  ccentralrepositoryhandler.o(.text)
    CPublishAndSubscribeHandler::ConstructL() 0x0000cb3d   Thumb Code     2  cpublishandsubscribehandler.o(.text)
    CPublishAndSubscribeHandler::CPublishAndSubscribeHandler(TUid) 0x0000cb3f   Thumb Code    66  cpublishandsubscribehandler.o(.text)
    CPublishAndSubscribeHandler::CPublishAndSubscribeHandler__sub_object(TUid) 0x0000cb3f   Thumb Code     0  cpublishandsubscribehandler.o(.text)
    CPublishAndSubscribeHandler::NewL(TUid)  0x0000cb81   Thumb Code    50  cpublishandsubscribehandler.o(.text)
    CPublishAndSubscribeHandler::~CPublishAndSubscribeHandler() 0x0000cbb3   Thumb Code   100  cpublishandsubscribehandler.o(.text)
    CPublishAndSubscribeHandler::~CPublishAndSubscribeHandler__sub_object() 0x0000cbb3   Thumb Code     0  cpublishandsubscribehandler.o(.text)
    CPublishAndSubscribeHandler::~CPublishAndSubscribeHandler__deallocating() 0x0000cc17   Thumb Code    22  cpublishandsubscribehandler.o(.text)
    thunk{-4} to CPublishAndSubscribeHandler::~CPublishAndSubscribeHandler__deallocating() 0x0000cc2d   Thumb Code    14  cpublishandsubscribehandler.o(.text)
    thunk{-4} to CPublishAndSubscribeHandler::~CPublishAndSubscribeHandler() 0x0000cc3b   Thumb Code    14  cpublishandsubscribehandler.o(.text)
    CPublishAndSubscribeHandler::defineProperty(unsigned long, XQSettingsManager::Type) 0x0000cc49   Thumb Code    76  cpublishandsubscribehandler.o(.text)
    CPublishAndSubscribeHandler::symbianCapability(const XQPublishAndSubscribeSecurityPolicy::Capability&) 0x0000cc95   Thumb Code   120  cpublishandsubscribehandler.o(.text)
    CPublishAndSubscribeHandler::symbianPolicy(const XQPublishAndSubscribeSecurityPolicy&) 0x0000cd0d   Thumb Code   552  cpublishandsubscribehandler.o(.text)
    CPublishAndSubscribeHandler::defineProperty(unsigned long, XQSettingsManager::Type, const XQPublishAndSubscribeSecurityPolicy&, const XQPublishAndSubscribeSecurityPolicy&) 0x0000cf35   Thumb Code   170  cpublishandsubscribehandler.o(.text)
    CPublishAndSubscribeHandler::deleteProperty(unsigned long) 0x0000cfdf   Thumb Code    16  cpublishandsubscribehandler.o(.text)
    CPublishAndSubscribeHandler::setObserver(MSettingsHandlerObserver*) 0x0000cfef   Thumb Code     4  cpublishandsubscribehandler.o(.text)
    thunk{-4} to CPublishAndSubscribeHandler::setObserver(MSettingsHandlerObserver*) 0x0000cff3   Thumb Code    18  cpublishandsubscribehandler.o(.text)
    CPublishAndSubscribeHandler::handleStartMonitoring(const XQSettingsKey&, XQSettingsManager::Type, MSettingsHandlerObserver&, int&) 0x0000d005   Thumb Code   150  cpublishandsubscribehandler.o(.text)
    thunk{-4} to CPublishAndSubscribeHandler::handleStartMonitoring(const XQSettingsKey&, XQSettingsManager::Type, MSettingsHandlerObserver&, int&) 0x0000d09b   Thumb Code   152  cpublishandsubscribehandler.o(.text)
    CPublishAndSubscribeHandler::handleStopMonitoring(const XQSettingsKey&, int&) 0x0000d133   Thumb Code   100  cpublishandsubscribehandler.o(.text)
    thunk{-4} to CPublishAndSubscribeHandler::handleStopMonitoring(const XQSettingsKey&, int&) 0x0000d197   Thumb Code    22  cpublishandsubscribehandler.o(.text)
    CPublishAndSubscribeHandler::getValue(unsigned long, int&) 0x0000d1ad   Thumb Code    20  cpublishandsubscribehandler.o(.text)
    thunk{-4} to CPublishAndSubscribeHandler::getValue(unsigned long, int&) 0x0000d1c1   Thumb Code    22  cpublishandsubscribehandler.o(.text)
    CPublishAndSubscribeHandler::getValue(unsigned long, double&) 0x0000d1d7   Thumb Code     8  cpublishandsubscribehandler.o(.text)
    thunk{-4} to CPublishAndSubscribeHandler::getValue(unsigned long, double&) 0x0000d1df   Thumb Code    22  cpublishandsubscribehandler.o(.text)
    CPublishAndSubscribeHandler::getValueL(unsigned long, RBuf8&) 0x0000d1f5   Thumb Code    86  cpublishandsubscribehandler.o(.text)
    thunk{-4} to CPublishAndSubscribeHandler::getValueL(unsigned long, RBuf8&) 0x0000d24b   Thumb Code    22  cpublishandsubscribehandler.o(.text)
    CPublishAndSubscribeHandler::getValueL(unsigned long, RBuf16&) 0x0000d261   Thumb Code    86  cpublishandsubscribehandler.o(.text)
    thunk{-4} to CPublishAndSubscribeHandler::getValueL(unsigned long, RBuf16&) 0x0000d2b7   Thumb Code    22  cpublishandsubscribehandler.o(.text)
    CPublishAndSubscribeHandler::setValue(unsigned long, const int&) 0x0000d2cd   Thumb Code    20  cpublishandsubscribehandler.o(.text)
    thunk{-4} to CPublishAndSubscribeHandler::setValue(unsigned long, const int&) 0x0000d2e1   Thumb Code    22  cpublishandsubscribehandler.o(.text)
    CPublishAndSubscribeHandler::setValue(unsigned long, const double&) 0x0000d2f7   Thumb Code     8  cpublishandsubscribehandler.o(.text)
    thunk{-4} to CPublishAndSubscribeHandler::setValue(unsigned long, const double&) 0x0000d2ff   Thumb Code    22  cpublishandsubscribehandler.o(.text)
    CPublishAndSubscribeHandler::setValue(unsigned long, const TDesC8&) 0x0000d315   Thumb Code    20  cpublishandsubscribehandler.o(.text)
    thunk{-4} to CPublishAndSubscribeHandler::setValue(unsigned long, const TDesC8&) 0x0000d329   Thumb Code    22  cpublishandsubscribehandler.o(.text)
    CPublishAndSubscribeHandler::setValue(unsigned long, const TDesC16&) 0x0000d33f   Thumb Code    20  cpublishandsubscribehandler.o(.text)
    thunk{-4} to CPublishAndSubscribeHandler::setValue(unsigned long, const TDesC16&) 0x0000d353   Thumb Code    22  cpublishandsubscribehandler.o(.text)
    CCenRepMonitor::CCenRepMonitor(CRepository&, const XQSettingsKey&, XQSettingsManager::Type, MSettingsHandlerObserver&) 0x0000d369   Thumb Code    74  cenrepmonitor.o(.text)
    CCenRepMonitor::CCenRepMonitor__sub_object(CRepository&, const XQSettingsKey&, XQSettingsManager::Type, MSettingsHandlerObserver&) 0x0000d369   Thumb Code     0  cenrepmonitor.o(.text)
    CCenRepMonitor::~CCenRepMonitor()        0x0000d3b3   Thumb Code    36  cenrepmonitor.o(.text)
    CCenRepMonitor::~CCenRepMonitor__sub_object() 0x0000d3b3   Thumb Code     0  cenrepmonitor.o(.text)
    CCenRepMonitor::~CCenRepMonitor__deallocating() 0x0000d3d7   Thumb Code    22  cenrepmonitor.o(.text)
    CCenRepMonitor::StartMonitoring()        0x0000d3ed   Thumb Code    36  cenrepmonitor.o(.text)
    CCenRepMonitor::RunL()                   0x0000d411   Thumb Code    94  cenrepmonitor.o(.text)
    CCenRepMonitor::DoCancel()               0x0000d46f   Thumb Code    24  cenrepmonitor.o(.text)
    CPubSubMonitor::CPubSubMonitor(const XQSettingsKey&, XQSettingsManager::Type, MSettingsHandlerObserver&) 0x0000d48d   Thumb Code    62  pubsubmonitor.o(.text)
    CPubSubMonitor::CPubSubMonitor__sub_object(const XQSettingsKey&, XQSettingsManager::Type, MSettingsHandlerObserver&) 0x0000d48d   Thumb Code     0  pubsubmonitor.o(.text)
    CPubSubMonitor::~CPubSubMonitor()        0x0000d4cb   Thumb Code    36  pubsubmonitor.o(.text)
    CPubSubMonitor::~CPubSubMonitor__sub_object() 0x0000d4cb   Thumb Code     0  pubsubmonitor.o(.text)
    CPubSubMonitor::~CPubSubMonitor__deallocating() 0x0000d4ef   Thumb Code    22  pubsubmonitor.o(.text)
    CPubSubMonitor::StartMonitoring()        0x0000d505   Thumb Code    64  pubsubmonitor.o(.text)
    CPubSubMonitor::RunL()                   0x0000d545   Thumb Code    94  pubsubmonitor.o(.text)
    CPubSubMonitor::DoCancel()               0x0000d5a3   Thumb Code    14  pubsubmonitor.o(.text)
    XQCentralRepositoryUtils::XQCentralRepositoryUtils(XQSettingsManager&, QObject*) 0x0000d5b5   Thumb Code    52  xqcentralrepositoryutils.o(.text)
    XQCentralRepositoryUtils::XQCentralRepositoryUtils__sub_object(XQSettingsManager&, QObject*) 0x0000d5b5   Thumb Code     0  xqcentralrepositoryutils.o(.text)
    XQCentralRepositoryUtils::~XQCentralRepositoryUtils() 0x0000d5e9   Thumb Code    14  xqcentralrepositoryutils.o(.text)
    XQCentralRepositoryUtils::~XQCentralRepositoryUtils__sub_object() 0x0000d5e9   Thumb Code     0  xqcentralrepositoryutils.o(.text)
    XQCentralRepositoryUtils::~XQCentralRepositoryUtils__deallocating() 0x0000d5f7   Thumb Code    22  xqcentralrepositoryutils.o(.text)
    XQCentralRepositoryUtils::createKey(const XQCentralRepositorySettingsKey&, const QVariant&) 0x0000d60d   Thumb Code    20  xqcentralrepositoryutils.o(.text)
    XQCentralRepositoryUtils::deleteKey(const XQCentralRepositorySettingsKey&) 0x0000d621   Thumb Code    16  xqcentralrepositoryutils.o(.text)
    XQCentralRepositoryUtils::resetKey(const XQCentralRepositorySettingsKey&) 0x0000d631   Thumb Code    16  xqcentralrepositoryutils.o(.text)
    XQCentralRepositoryUtils::resetRepository(long) 0x0000d641   Thumb Code    16  xqcentralrepositoryutils.o(.text)
    XQCentralRepositoryUtils::findKeys(const XQCentralRepositorySearchCriteria&) 0x0000d651   Thumb Code    20  xqcentralrepositoryutils.o(.text)
    XQCentralRepositoryUtils::startTransaction(long, XQCentralRepositoryUtils::TransactionMode) 0x0000d665   Thumb Code    20  xqcentralrepositoryutils.o(.text)
    XQCentralRepositoryUtils::commitTransaction(long) 0x0000d679   Thumb Code    16  xqcentralrepositoryutils.o(.text)
    XQCentralRepositoryUtils::cancelTransaction(long) 0x0000d689   Thumb Code    16  xqcentralrepositoryutils.o(.text)
    XQCentralRepositoryUtils::failTransaction(long) 0x0000d699   Thumb Code    16  xqcentralrepositoryutils.o(.text)
    XQCentralRepositoryUtils::transactionState(long) const 0x0000d6a9   Thumb Code    16  xqcentralrepositoryutils.o(.text)
    XQCentralRepositoryUtilsPrivate::XQCentralRepositoryUtilsPrivate(XQSettingsManager&) 0x0000d6bd   Thumb Code     6  xqcentralrepositoryutils_p.o(.text)
    XQCentralRepositoryUtilsPrivate::XQCentralRepositoryUtilsPrivate__sub_object(XQSettingsManager&) 0x0000d6bd   Thumb Code     0  xqcentralrepositoryutils_p.o(.text)
    XQCentralRepositoryUtilsPrivate::~XQCentralRepositoryUtilsPrivate() 0x0000d6c3   Thumb Code     2  xqcentralrepositoryutils_p.o(.text)
    XQCentralRepositoryUtilsPrivate::~XQCentralRepositoryUtilsPrivate__sub_object() 0x0000d6c3   Thumb Code     0  xqcentralrepositoryutils_p.o(.text)
    XQCentralRepositoryUtilsPrivate::createKey(const XQCentralRepositorySettingsKey&, const QVariant&) 0x0000d6c5   Thumb Code    16  xqcentralrepositoryutils_p.o(.text)
    XQCentralRepositoryUtilsPrivate::deleteKey(const XQCentralRepositorySettingsKey&) 0x0000d6d5   Thumb Code    14  xqcentralrepositoryutils_p.o(.text)
    XQCentralRepositoryUtilsPrivate::resetKey(const XQCentralRepositorySettingsKey&) 0x0000d6e3   Thumb Code    74  xqcentralrepositoryutils_p.o(.text)
    XQCentralRepositoryUtilsPrivate::resetRepository(long) 0x0000d72d   Thumb Code    56  xqcentralrepositoryutils_p.o(.text)
    XQCentralRepositoryUtilsPrivate::findKeys(const XQCentralRepositorySearchCriteria&) 0x0000d765   Thumb Code   686  xqcentralrepositoryutils_p.o(.text)
    XQCentralRepositoryUtilsPrivate::startTransaction(long, XQCentralRepositoryUtils::TransactionMode) 0x0000da13   Thumb Code   110  xqcentralrepositoryutils_p.o(.text)
    XQCentralRepositoryUtilsPrivate::commitTransaction(long) 0x0000da81   Thumb Code    56  xqcentralrepositoryutils_p.o(.text)
    XQCentralRepositoryUtilsPrivate::cancelTransaction(long) 0x0000dab9   Thumb Code    42  xqcentralrepositoryutils_p.o(.text)
    XQCentralRepositoryUtilsPrivate::failTransaction(long) 0x0000dae3   Thumb Code    42  xqcentralrepositoryutils_p.o(.text)
    XQCentralRepositoryUtilsPrivate::transactionState(long) const 0x0000db0d   Thumb Code    76  xqcentralrepositoryutils_p.o(.text)
    XQPublishAndSubscribeUtils::XQPublishAndSubscribeUtils(XQSettingsManager&, QObject*) 0x0000db5d   Thumb Code    52  xqpublishandsubscribeutils.o(.text)
    XQPublishAndSubscribeUtils::XQPublishAndSubscribeUtils__sub_object(XQSettingsManager&, QObject*) 0x0000db5d   Thumb Code     0  xqpublishandsubscribeutils.o(.text)
    XQPublishAndSubscribeUtils::~XQPublishAndSubscribeUtils() 0x0000db91   Thumb Code    14  xqpublishandsubscribeutils.o(.text)
    XQPublishAndSubscribeUtils::~XQPublishAndSubscribeUtils__sub_object() 0x0000db91   Thumb Code     0  xqpublishandsubscribeutils.o(.text)
    XQPublishAndSubscribeUtils::~XQPublishAndSubscribeUtils__deallocating() 0x0000db9f   Thumb Code    22  xqpublishandsubscribeutils.o(.text)
    XQPublishAndSubscribeUtils::defineProperty(const XQPublishAndSubscribeSettingsKey&, XQSettingsManager::Type) 0x0000dbb5   Thumb Code    20  xqpublishandsubscribeutils.o(.text)
    XQPublishAndSubscribeUtils::defineProperty(const XQPublishAndSubscribeSettingsKey&, XQSettingsManager::Type, const XQPublishAndSubscribeSecurityPolicy&, const XQPublishAndSubscribeSecurityPolicy&) 0x0000dbc9   Thumb Code    32  xqpublishandsubscribeutils.o(.text)
    XQPublishAndSubscribeUtils::deleteProperty(const XQPublishAndSubscribeSettingsKey&) 0x0000dbe9   Thumb Code    16  xqpublishandsubscribeutils.o(.text)
    XQPublishAndSubscribeUtilsPrivate::XQPublishAndSubscribeUtilsPrivate(XQSettingsManager&) 0x0000dbfd   Thumb Code     6  xqpublishandsubscribeutils_p.o(.text)
    XQPublishAndSubscribeUtilsPrivate::XQPublishAndSubscribeUtilsPrivate__sub_object(XQSettingsManager&) 0x0000dbfd   Thumb Code     0  xqpublishandsubscribeutils_p.o(.text)
    XQPublishAndSubscribeUtilsPrivate::~XQPublishAndSubscribeUtilsPrivate() 0x0000dc03   Thumb Code     2  xqpublishandsubscribeutils_p.o(.text)
    XQPublishAndSubscribeUtilsPrivate::~XQPublishAndSubscribeUtilsPrivate__sub_object() 0x0000dc03   Thumb Code     0  xqpublishandsubscribeutils_p.o(.text)
    XQPublishAndSubscribeUtilsPrivate::defineProperty(const XQPublishAndSubscribeSettingsKey&, XQSettingsManager::Type) 0x0000dc05   Thumb Code    78  xqpublishandsubscribeutils_p.o(.text)
    XQPublishAndSubscribeUtilsPrivate::defineProperty(const XQPublishAndSubscribeSettingsKey&, XQSettingsManager::Type, const XQPublishAndSubscribeSecurityPolicy&, const XQPublishAndSubscribeSecurityPolicy&) 0x0000dc53   Thumb Code    94  xqpublishandsubscribeutils_p.o(.text)
    XQPublishAndSubscribeUtilsPrivate::deleteProperty(const XQPublishAndSubscribeSettingsKey&) 0x0000dcb1   Thumb Code    74  xqpublishandsubscribeutils_p.o(.text)
    XQCentralRepositorySearchCriteria::XQCentralRepositorySearchCriteria(long, unsigned long, unsigned long) 0x0000dcfb   Thumb Code    60  xqcentralrepositorysearchcriteria.o(.text)
    XQCentralRepositorySearchCriteria::XQCentralRepositorySearchCriteria__sub_object(long, unsigned long, unsigned long) 0x0000dcfb   Thumb Code     0  xqcentralrepositorysearchcriteria.o(.text)
    XQCentralRepositorySearchCriteria::~XQCentralRepositorySearchCriteria() 0x0000dd37   Thumb Code    20  xqcentralrepositorysearchcriteria.o(.text)
    XQCentralRepositorySearchCriteria::~XQCentralRepositorySearchCriteria__sub_object() 0x0000dd37   Thumb Code     0  xqcentralrepositorysearchcriteria.o(.text)
    XQCentralRepositorySearchCriteria::setValueCriteria(const QVariant&, bool) 0x0000dd4b   Thumb Code    24  xqcentralrepositorysearchcriteria.o(.text)
    XQCentralRepositorySearchCriteria::repositoryUid() const 0x0000dd63   Thumb Code     6  xqcentralrepositorysearchcriteria.o(.text)
    XQCentralRepositorySearchCriteria::partialKey() const 0x0000dd69   Thumb Code     6  xqcentralrepositorysearchcriteria.o(.text)
    XQCentralRepositorySearchCriteria::bitMask() const 0x0000dd6f   Thumb Code     6  xqcentralrepositorysearchcriteria.o(.text)
    XQCentralRepositorySearchCriteria::value() const 0x0000dd75   Thumb Code     8  xqcentralrepositorysearchcriteria.o(.text)
    XQCentralRepositorySearchCriteria::negativeCriteria() const 0x0000dd7d   Thumb Code     8  xqcentralrepositorysearchcriteria.o(.text)
    XQPublishAndSubscribeSecurityPolicy::VendorId::VendorId(long) 0x0000dd85   Thumb Code     4  xqpublishandsubscribesecuritypolicy.o(.text)
    XQPublishAndSubscribeSecurityPolicy::VendorId::VendorId__sub_object(long) 0x0000dd85   Thumb Code     0  xqpublishandsubscribesecuritypolicy.o(.text)
    XQPublishAndSubscribeSecurityPolicy::SecureId::SecureId(long) 0x0000dd89   Thumb Code     4  xqpublishandsubscribesecuritypolicy.o(.text)
    XQPublishAndSubscribeSecurityPolicy::SecureId::SecureId__sub_object(long) 0x0000dd89   Thumb Code     0  xqpublishandsubscribesecuritypolicy.o(.text)
    XQPublishAndSubscribeSecurityPolicy::XQPublishAndSubscribeSecurityPolicy(XQPublishAndSubscribeSecurityPolicy::SecPolicyType) 0x0000dd8d   Thumb Code    58  xqpublishandsubscribesecuritypolicy.o(.text)
    XQPublishAndSubscribeSecurityPolicy::XQPublishAndSubscribeSecurityPolicy__sub_object(XQPublishAndSubscribeSecurityPolicy::SecPolicyType) 0x0000dd8d   Thumb Code     0  xqpublishandsubscribesecuritypolicy.o(.text)
    XQPublishAndSubscribeSecurityPolicy::XQPublishAndSubscribeSecurityPolicy(QList<XQPublishAndSubscribeSecurityPolicy::Capability>) 0x0000ddc7   Thumb Code    54  xqpublishandsubscribesecuritypolicy.o(.text)
    XQPublishAndSubscribeSecurityPolicy::XQPublishAndSubscribeSecurityPolicy__sub_object(QList<XQPublishAndSubscribeSecurityPolicy::Capability>) 0x0000ddc7   Thumb Code     0  xqpublishandsubscribesecuritypolicy.o(.text)
    XQPublishAndSubscribeSecurityPolicy::XQPublishAndSubscribeSecurityPolicy(XQPublishAndSubscribeSecurityPolicy::SecureId, QList<XQPublishAndSubscribeSecurityPolicy::Capability>) 0x0000ddfd   Thumb Code    46  xqpublishandsubscribesecuritypolicy.o(.text)
    XQPublishAndSubscribeSecurityPolicy::XQPublishAndSubscribeSecurityPolicy__sub_object(XQPublishAndSubscribeSecurityPolicy::SecureId, QList<XQPublishAndSubscribeSecurityPolicy::Capability>) 0x0000ddfd   Thumb Code     0  xqpublishandsubscribesecuritypolicy.o(.text)
    XQPublishAndSubscribeSecurityPolicy::XQPublishAndSubscribeSecurityPolicy(XQPublishAndSubscribeSecurityPolicy::VendorId, QList<XQPublishAndSubscribeSecurityPolicy::Capability>) 0x0000de2b   Thumb Code    42  xqpublishandsubscribesecuritypolicy.o(.text)
    XQPublishAndSubscribeSecurityPolicy::XQPublishAndSubscribeSecurityPolicy__sub_object(XQPublishAndSubscribeSecurityPolicy::VendorId, QList<XQPublishAndSubscribeSecurityPolicy::Capability>) 0x0000de2b   Thumb Code     0  xqpublishandsubscribesecuritypolicy.o(.text)
    XQPublishAndSubscribeSecurityPolicy::~XQPublishAndSubscribeSecurityPolicy() 0x0000de55   Thumb Code    20  xqpublishandsubscribesecuritypolicy.o(.text)
    XQPublishAndSubscribeSecurityPolicy::~XQPublishAndSubscribeSecurityPolicy__sub_object() 0x0000de55   Thumb Code     0  xqpublishandsubscribesecuritypolicy.o(.text)
    XQPublishAndSubscribeSecurityPolicy::secPolicyType() const 0x0000de69   Thumb Code     6  xqpublishandsubscribesecuritypolicy.o(.text)
    XQPublishAndSubscribeSecurityPolicy::secureId() const 0x0000de6f   Thumb Code     6  xqpublishandsubscribesecuritypolicy.o(.text)
    XQPublishAndSubscribeSecurityPolicy::vendorId() const 0x0000de75   Thumb Code     6  xqpublishandsubscribesecuritypolicy.o(.text)
    XQPublishAndSubscribeSecurityPolicy::capabilities() const 0x0000de7b   Thumb Code    20  xqpublishandsubscribesecuritypolicy.o(.text)
    __ARM_switch8                            0x0000de94   ARM Code      24  switch8.o(.text)
    __rt_switch8                             0x0000de94   ARM Code       0  switch8.o(.text)
    globalDestructorFunc                     0x0000deac   ARM Code      24  uc_exe.o(.text)
    RunThread                                0x0000dec4   ARM Code     100  uc_exe.o(.text)
    __GccGlueInit                            0x0000df2c   ARM Code       8  qts60main_mcrt0.o(.text)
    QtMainWrapper()                          0x0000df34   ARM Code     192  qts60main_mcrt0.o(.text)
    __main                                   0x0000dff4   ARM Code       4  qts60main_mcrt0.o(.text)
    CallThrdProcEntry                        0x0000dff8   ARM Code     140  callfirstprocessfn.o(.text)
    UserHeap::SetupThreadHeap(int, SStdEpocThreadCreateInfo&) 0x0000e088   ARM Code      28  newallocator_hook.o(.text)
    __DLL_Export_Table__                     0x0000e0a4   ARM Code       4  dllexp.o(.text)
    E32Main()                                0x0000e0a8   ARM Code     164  qts60main.o(.text)
    qStringComparisonHelper(const QStringRef&, const char*) 0x0000eaa1   Thumb Code    72  qcrmlparser.o(i._Z23qStringComparisonHelperRK10QStringRefPKc)
    QByteArray::QByteArray(const QByteArray&) 0x0000eaf7   Thumb Code    20  settingshandlerbase.o(i._ZN10QByteArrayC1ERKS_)
    QByteArray::QByteArray__sub_object(const QByteArray&) 0x0000eaf7   Thumb Code     0  settingshandlerbase.o(i._ZN10QByteArrayC1ERKS_)
    QByteArray::~QByteArray()                0x0000eb0b   Thumb Code    24  pathmapper_symbian.o(i._ZN10QByteArrayD1Ev)
    QByteArray::~QByteArray__sub_object()    0x0000eb0b   Thumb Code     0  pathmapper_symbian.o(i._ZN10QByteArrayD1Ev)
    QStringRef::~QStringRef()                0x0000eb23   Thumb Code     2  qcrmlparser.o(i._ZN10QStringRefD1Ev)
    QStringRef::~QStringRef__sub_object()    0x0000eb23   Thumb Code     0  qcrmlparser.o(i._ZN10QStringRefD1Ev)
    QtMobility::QCrmlParser::~QCrmlParser()  0x0000eb25   Thumb Code    26  pathmapper_symbian.o(i._ZN10QtMobility11QCrmlParserD1Ev)
    QtMobility::QCrmlParser::~QCrmlParser__sub_object() 0x0000eb25   Thumb Code     0  pathmapper_symbian.o(i._ZN10QtMobility11QCrmlParserD1Ev)
    QtMobility::CPSPathMapperServer::~CPSPathMapperServer__deallocating() 0x0000eb49   Thumb Code    22  pspathmapperserver.o(i._ZN10QtMobility19CPSPathMapperServerD0Ev)
    QtMobility::CPSPathMapperServer::~CPSPathMapperServer() 0x0000eb61   Thumb Code    30  pspathmapperserver.o(i._ZN10QtMobility19CPSPathMapperServerD1Ev)
    QtMobility::CPSPathMapperServer::~CPSPathMapperServer__sub_object() 0x0000eb61   Thumb Code     0  pspathmapperserver.o(i._ZN10QtMobility19CPSPathMapperServerD1Ev)
    QtMobility::KeyData::KeyData(const QtMobility::KeyData&) 0x0000eb8f   Thumb Code    42  pathmapper_symbian.o(i._ZN10QtMobility7KeyDataC1ERKS0_)
    QtMobility::KeyData::KeyData__sub_object(const QtMobility::KeyData&) 0x0000eb8f   Thumb Code     0  pathmapper_symbian.o(i._ZN10QtMobility7KeyDataC1ERKS0_)
    QtMobility::KeyData::~KeyData()          0x0000ebb9   Thumb Code    20  pathmapper_symbian.o(i._ZN10QtMobility7KeyDataD1Ev)
    QtMobility::KeyData::~KeyData__sub_object() 0x0000ebb9   Thumb Code     0  pathmapper_symbian.o(i._ZN10QtMobility7KeyDataD1Ev)
    QDataStream::operator <<(unsigned)       0x0000ebcd   Thumb Code    16  pspathmappersession.o(i._ZN11QDataStreamlsEj)
    QStringList::QStringList()               0x0000ebdd   Thumb Code    20  pathmapper_symbian.o(i._ZN11QStringListC1Ev)
    QStringList::QStringList__sub_object()   0x0000ebdd   Thumb Code     0  pathmapper_symbian.o(i._ZN11QStringListC1Ev)
    QStringList::~QStringList()              0x0000ebf5   Thumb Code    14  pathmapper_symbian.o(i._ZN11QStringListD1Ev)
    QStringList::~QStringList__sub_object()  0x0000ebf5   Thumb Code     0  pathmapper_symbian.o(i._ZN11QStringListD1Ev)
    QStringList::operator <<(const QString&) 0x0000ec03   Thumb Code    18  qcrmlparser.o(i._ZN11QStringListlsERK7QString)
    QHashIterator<QString, QtMobility::PathMapper::PathData>::~QHashIterator() 0x0000ec15   Thumb Code    14  pathmapper_symbian.o(i._ZN13QHashIteratorI7QStringN10QtMobility10PathMapper8PathDataEED1Ev)
    QHashIterator<QString, QtMobility::PathMapper::PathData>::~QHashIterator__sub_object() 0x0000ec15   Thumb Code     0  pathmapper_symbian.o(i._ZN13QHashIteratorI7QStringN10QtMobility10PathMapper8PathDataEED1Ev)
    QBasicAtomicInt::ref()                   0x0000ec23   Thumb Code    24  pathmapper_symbian.o(i._ZN15QBasicAtomicInt3refEv)
    QBasicAtomicInt::deref()                 0x0000ec3b   Thumb Code    24  pathmapper_symbian.o(i._ZN15QBasicAtomicInt5derefEv)
    QForeachContainer<QStringList>::~QForeachContainer() 0x0000ec53   Thumb Code    14  pathmapper_symbian.o(i._ZN17QForeachContainerI11QStringListED1Ev)
    QForeachContainer<QStringList>::~QForeachContainer__sub_object() 0x0000ec53   Thumb Code     0  pathmapper_symbian.o(i._ZN17QForeachContainerI11QStringListED1Ev)
    QForeachContainer<QHash<long, CCentralRepositoryHandler*>>::~QForeachContainer() 0x0000ec61   Thumb Code    14  xqsettingsmanager_p.o(i._ZN17QForeachContainerI5QHashIlP25CCentralRepositoryHandlerEED1Ev)
    QForeachContainer<QHash<long, CCentralRepositoryHandler*>>::~QForeachContainer__sub_object() 0x0000ec61   Thumb Code     0  xqsettingsmanager_p.o(i._ZN17QForeachContainerI5QHashIlP25CCentralRepositoryHandlerEED1Ev)
    QForeachContainer<QHash<long, CPublishAndSubscribeHandler*>>::~QForeachContainer() 0x0000ec6f   Thumb Code    14  xqsettingsmanager_p.o(i._ZN17QForeachContainerI5QHashIlP27CPublishAndSubscribeHandlerEED1Ev)
    QForeachContainer<QHash<long, CPublishAndSubscribeHandler*>>::~QForeachContainer__sub_object() 0x0000ec6f   Thumb Code     0  xqsettingsmanager_p.o(i._ZN17QForeachContainerI5QHashIlP27CPublishAndSubscribeHandlerEED1Ev)
    QForeachContainer<QHash<unsigned long, CCenRepMonitor*>>::~QForeachContainer() 0x0000ec7d   Thumb Code    14  ccentralrepositoryhandler.o(i._ZN17QForeachContainerI5QHashImP14CCenRepMonitorEED1Ev)
    QForeachContainer<QHash<unsigned long, CCenRepMonitor*>>::~QForeachContainer__sub_object() 0x0000ec7d   Thumb Code     0  ccentralrepositoryhandler.o(i._ZN17QForeachContainerI5QHashImP14CCenRepMonitorEED1Ev)
    QForeachContainer<QList<QFileInfo>>::~QForeachContainer() 0x0000ec8b   Thumb Code    14  pathmapper_symbian.o(i._ZN17QForeachContainerI5QListI9QFileInfoEED1Ev)
    QForeachContainer<QList<QFileInfo>>::~QForeachContainer__sub_object() 0x0000ec8b   Thumb Code     0  pathmapper_symbian.o(i._ZN17QForeachContainerI5QListI9QFileInfoEED1Ev)
    QForeachContainer<QList<QtMobility::KeyData>>::~QForeachContainer() 0x0000ec99   Thumb Code    14  pathmapper_symbian.o(i._ZN17QForeachContainerI5QListIN10QtMobility7KeyDataEEED1Ev)
    QForeachContainer<QList<QtMobility::KeyData>>::~QForeachContainer__sub_object() 0x0000ec99   Thumb Code     0  pathmapper_symbian.o(i._ZN17QForeachContainerI5QListIN10QtMobility7KeyDataEEED1Ev)
    SettingsHandlerBase::~SettingsHandlerBase__deallocating() 0x0000eca7   Thumb Code    18  ccentralrepositoryhandler.o(i._ZN19SettingsHandlerBaseD0Ev)
    SettingsHandlerBase::~SettingsHandlerBase() 0x0000ecb9   Thumb Code     0  ccentralrepositoryhandler.o(i._ZN19SettingsHandlerBaseD2Ev)
    SettingsHandlerBase::~SettingsHandlerBase__sub_object() 0x0000ecb9   Thumb Code     2  ccentralrepositoryhandler.o(i._ZN19SettingsHandlerBaseD2Ev)
    QXmlStreamAttributes::~QXmlStreamAttributes() 0x0000ecbb   Thumb Code    14  qcrmlparser.o(i._ZN20QXmlStreamAttributesD1Ev)
    QXmlStreamAttributes::~QXmlStreamAttributes__sub_object() 0x0000ecbb   Thumb Code     0  qcrmlparser.o(i._ZN20QXmlStreamAttributesD1Ev)
    QSet<QString>::~QSet()                   0x0000ecc9   Thumb Code    14  pspathmappersession.o(i._ZN4QSetI7QStringED1Ev)
    QSet<QString>::~QSet__sub_object()       0x0000ecc9   Thumb Code     0  pspathmappersession.o(i._ZN4QSetI7QStringED1Ev)
    CBase::operator new(unsigned)            0x0000ecd7   Thumb Code    16  pspathmapperservermain.o(i._ZN5CBasenwEj)
    QDebug::maybeSpace()                     0x0000ece7   Thumb Code    24  pathmapper_symbian.o(i._ZN6QDebug10maybeSpaceEv)
    QDebug::~QDebug()                        0x0000ecff   Thumb Code   154  pathmapper_symbian.o(i._ZN6QDebugD1Ev)
    QDebug::~QDebug__sub_object()            0x0000ecff   Thumb Code     0  pathmapper_symbian.o(i._ZN6QDebugD1Ev)
    QObject::tr(const char*, const char*)    0x0000edad   Thumb Code    22  qcrmlparser.o(i._ZN7QObject2trEPKcS1_)
    QString::QString(const char*)            0x0000edc9   Thumb Code    22  pathmapper_symbian.o(i._ZN7QStringC1EPKc)
    QString::QString__sub_object(const char*) 0x0000edc9   Thumb Code     0  pathmapper_symbian.o(i._ZN7QStringC1EPKc)
    QString::QString(const QLatin1String&)   0x0000eddf   Thumb Code    26  qcrmlparser.o(i._ZN7QStringC1ERK13QLatin1String)
    QString::QString__sub_object(const QLatin1String&) 0x0000eddf   Thumb Code     0  qcrmlparser.o(i._ZN7QStringC1ERK13QLatin1String)
    QString::QString(const QString&)         0x0000edf9   Thumb Code    22  pathmapper_symbian.o(i._ZN7QStringC1ERKS_)
    QString::QString__sub_object(const QString&) 0x0000edf9   Thumb Code     0  pathmapper_symbian.o(i._ZN7QStringC1ERKS_)
    QString::QString()                       0x0000ee11   Thumb Code    18  pathmapper_symbian.o(i._ZN7QStringC1Ev)
    QString::QString__sub_object()           0x0000ee11   Thumb Code     0  pathmapper_symbian.o(i._ZN7QStringC1Ev)
    QString::~QString()                      0x0000ee29   Thumb Code    24  pathmapper_symbian.o(i._ZN7QStringD1Ev)
    QString::~QString__sub_object()          0x0000ee29   Thumb Code     0  pathmapper_symbian.o(i._ZN7QStringD1Ev)
    QVariant::QVariant()                     0x0000ee41   Thumb Code    38  settingshandlerbase.o(i._ZN8QVariantC1Ev)
    QVariant::QVariant__sub_object()         0x0000ee41   Thumb Code     0  settingshandlerbase.o(i._ZN8QVariantC1Ev)
    QHashData::willGrow()                    0x0000ee67   Thumb Code    32  pathmapper_symbian.o(i._ZN9QHashData8willGrowEv)
    QHashData::firstNode()                   0x0000ee87   Thumb Code    36  xqsettingsmanager_p.o(i._ZN9QHashData9firstNodeEv)
    QStringRef::isNull() const               0x0000eead   Thumb Code    36  qcrmlparser.o(i._ZNK10QStringRef6isNullEv)
    QBasicAtomicInt::operator !=(int) const  0x0000eed5   Thumb Code    16  pathmapper_symbian.o(i._ZNK15QBasicAtomicIntneEi)
    QXmlStreamReader::isEndElement() const   0x0000eee5   Thumb Code    22  qcrmlparser.o(i._ZNK16QXmlStreamReader12isEndElementEv)
    QXmlStreamReader::isStartElement() const 0x0000eefb   Thumb Code    22  qcrmlparser.o(i._ZNK16QXmlStreamReader14isStartElementEv)
    QString::isEmpty() const                 0x0000ef11   Thumb Code    18  qcrmlparser.o(i._ZNK7QString7isEmptyEv)
    QVariant::isDetached() const             0x0000ef23   Thumb Code    36  settingshandlerbase.o(i._ZNK8QVariant10isDetachedEv)
    QListData::at(int) const                 0x0000ef47   Thumb Code    20  qcrmlparser.o(i._ZNK9QListData2atEi)
    QListData::end() const                   0x0000ef5b   Thumb Code    16  pathmapper_symbian.o(i._ZNK9QListData3endEv)
    QListData::begin() const                 0x0000ef6b   Thumb Code    16  pathmapper_symbian.o(i._ZNK9QListData5beginEv)
    operator delete (void*, void*)           0x0000ef7b   Thumb Code     2  pathmapper_symbian.o(i._ZdlPvS_)
    operator ==(const QStringRef&, const char*) 0x0000ef7d   Thumb Code    16  qcrmlparser.o(i._ZeqRK10QStringRefPKc)
    operator !=(const QStringRef&, const char*) 0x0000ef8d   Thumb Code    20  qcrmlparser.o(i._ZneRK10QStringRefPKc)
    operator new(unsigned, void*)            0x0000efa1   Thumb Code     6  pathmapper_symbian.o(i._ZnwjPv)
    operator +(const QString&, const QString&) 0x0000efa7   Thumb Code    44  qcrmlparser.o(i._ZplRK7QStringS1_)
    qDeleteAll<QHash<unsigned long, CPubSubMonitor*>::const_iterator>(T1, T1) 0x0000efdd   Thumb Code    60  cpublishandsubscribehandler.o(t._Z10qDeleteAllIN5QHashImP14CPubSubMonitorE14const_iteratorEEvT_S5_)
    qVariantSetValue<QByteArray>(QVariant&, const T1&) 0x0000f019   Thumb Code   162  settingshandlerbase.o(t._Z16qVariantSetValueI10QByteArrayEvR8QVariantRKT_)
    qVariantSetValue<QString>(QVariant&, const T1&) 0x0000f0cf   Thumb Code   172  settingshandlerbase.o(t._Z16qVariantSetValueI7QStringEvR8QVariantRKT_)
    CleanupClosePushL<RBuf8>(T1&)            0x0000f191   Thumb Code    24  settingshandlerbase.o(t._Z17CleanupClosePushLI5RBuf8EvRT_)
    qForeachContainerNew<QStringList>(const T1&) 0x0000f1ad   Thumb Code   132  pathmapper_symbian.o(t._Z20qForeachContainerNewI11QStringListE17QForeachContainerIT_ERKS2_)
    CleanupClose<RBuf8>::Close(void*)        0x0000f23b   Thumb Code    12  settingshandlerbase.o(t._ZN12CleanupCloseI5RBuf8E5CloseEPv)
    CleanupClose<RArray<unsigned long>>::Close(void*) 0x0000f247   Thumb Code    14  xqcentralrepositoryutils_p.o(t._ZN12CleanupCloseI6RArrayImEE5CloseEPv)
    CleanupClose<RBuf16>::Close(void*)       0x0000f255   Thumb Code    12  settingshandlerbase.o(t._ZN12CleanupCloseI6RBuf16E5CloseEPv)
    QHashDummyNode<QString, QHashDummyValue>::QHashDummyNode(const QString&) 0x0000f261   Thumb Code    24  pathmapper_symbian.o(t._ZN14QHashDummyNodeI7QString15QHashDummyValueEC1ERKS0_)
    QHashDummyNode<QString, QHashDummyValue>::QHashDummyNode__sub_object(const QString&) 0x0000f261   Thumb Code     0  pathmapper_symbian.o(t._ZN14QHashDummyNodeI7QString15QHashDummyValueEC1ERKS0_)
    QHash<QString, QHashDummyValue>::deleteNode2(QHashData::Node*) 0x0000f279   Thumb Code    24  pathmapper_symbian.o(t._ZN5QHashI7QString15QHashDummyValueE11deleteNode2EPN9QHashData4NodeE)
    QHash<QString, QHashDummyValue>::detach_helper() 0x0000f291   Thumb Code    52  pathmapper_symbian.o(t._ZN5QHashI7QString15QHashDummyValueE13detach_helperEv)
    QHash<QString, QHashDummyValue>::duplicateNode(QHashData::Node*, void*) 0x0000f2cd   Thumb Code    44  pathmapper_symbian.o(t._ZN5QHashI7QString15QHashDummyValueE13duplicateNodeEPN9QHashData4NodeEPv)
    QHash<QString, QHashDummyValue>::insert(const QString&, const QHashDummyValue&) 0x0000f305   Thumb Code   186  pathmapper_symbian.o(t._ZN5QHashI7QString15QHashDummyValueE6insertERKS0_RKS1_)
    QHash<QString, QHashDummyValue>::freeData(QHashData*) 0x0000f3cd   Thumb Code    16  pathmapper_symbian.o(t._ZN5QHashI7QString15QHashDummyValueE8freeDataEP9QHashData)
    QHash<QString, QHashDummyValue>::~QHash() 0x0000f3e1   Thumb Code    30  pspathmappersession.o(t._ZN5QHashI7QString15QHashDummyValueED1Ev)
    QHash<QString, QHashDummyValue>::~QHash__sub_object() 0x0000f3e1   Thumb Code     0  pspathmappersession.o(t._ZN5QHashI7QString15QHashDummyValueED1Ev)
    QHash<QString, QtMobility::PathMapper::PathData>::deleteNode2(QHashData::Node*) 0x0000f3ff   Thumb Code    24  pathmapper_symbian.o(t._ZN5QHashI7QStringN10QtMobility10PathMapper8PathDataEE11deleteNode2EPN9QHashData4NodeE)
    QHash<QString, QtMobility::PathMapper::PathData>::detach_helper() 0x0000f419   Thumb Code    52  pathmapper_symbian.o(t._ZN5QHashI7QStringN10QtMobility10PathMapper8PathDataEE13detach_helperEv)
    QHash<QString, QtMobility::PathMapper::PathData>::duplicateNode(QHashData::Node*, void*) 0x0000f455   Thumb Code    46  pathmapper_symbian.o(t._ZN5QHashI7QStringN10QtMobility10PathMapper8PathDataEE13duplicateNodeEPN9QHashData4NodeEPv)
    QHash<QString, QtMobility::PathMapper::PathData>::detach() 0x0000f491   Thumb Code    28  pathmapper_symbian.o(t._ZN5QHashI7QStringN10QtMobility10PathMapper8PathDataEE6detachEv)
    QHash<QString, QtMobility::PathMapper::PathData>::insert(const QString&, const QtMobility::PathMapper::PathData&) 0x0000f4ad   Thumb Code   180  pathmapper_symbian.o(t._ZN5QHashI7QStringN10QtMobility10PathMapper8PathDataEE6insertERKS0_RKS3_)
    QHash<QString, QtMobility::PathMapper::PathData>::freeData(QHashData*) 0x0000f571   Thumb Code    16  pathmapper_symbian.o(t._ZN5QHashI7QStringN10QtMobility10PathMapper8PathDataEE8freeDataEP9QHashData)
    QHash<QString, QtMobility::PathMapper::PathData>::QHash() 0x0000f585   Thumb Code    22  pathmapper_symbian.o(t._ZN5QHashI7QStringN10QtMobility10PathMapper8PathDataEEC1Ev)
    QHash<QString, QtMobility::PathMapper::PathData>::QHash__sub_object() 0x0000f585   Thumb Code     0  pathmapper_symbian.o(t._ZN5QHashI7QStringN10QtMobility10PathMapper8PathDataEEC1Ev)
    QHash<QString, QtMobility::PathMapper::PathData>::~QHash() 0x0000f5a1   Thumb Code    30  pathmapper_symbian.o(t._ZN5QHashI7QStringN10QtMobility10PathMapper8PathDataEED1Ev)
    QHash<QString, QtMobility::PathMapper::PathData>::~QHash__sub_object() 0x0000f5a1   Thumb Code     0  pathmapper_symbian.o(t._ZN5QHashI7QStringN10QtMobility10PathMapper8PathDataEED1Ev)
    QHash<long, CCentralRepositoryHandler*>::deleteNode2(QHashData::Node*) 0x0000f5bf   Thumb Code     6  xqsettingsmanager_p.o(t._ZN5QHashIlP25CCentralRepositoryHandlerE11deleteNode2EPN9QHashData4NodeE)
    QHash<long, CCentralRepositoryHandler*>::detach_helper() 0x0000f5c5   Thumb Code    52  xqsettingsmanager_p.o(t._ZN5QHashIlP25CCentralRepositoryHandlerE13detach_helperEv)
    QHash<long, CCentralRepositoryHandler*>::duplicateNode(QHashData::Node*, void*) 0x0000f601   Thumb Code    48  xqsettingsmanager_p.o(t._ZN5QHashIlP25CCentralRepositoryHandlerE13duplicateNodeEPN9QHashData4NodeEPv)
    QHash<long, CCentralRepositoryHandler*>::detach() 0x0000f631   Thumb Code    28  xqsettingsmanager_p.o(t._ZN5QHashIlP25CCentralRepositoryHandlerE6detachEv)
    QHash<long, CCentralRepositoryHandler*>::freeData(QHashData*) 0x0000f64d   Thumb Code    16  xqsettingsmanager_p.o(t._ZN5QHashIlP25CCentralRepositoryHandlerE8freeDataEP9QHashData)
    QHash<long, CCentralRepositoryHandler*>::~QHash() 0x0000f661   Thumb Code    30  xqsettingsmanager_p.o(t._ZN5QHashIlP25CCentralRepositoryHandlerED1Ev)
    QHash<long, CCentralRepositoryHandler*>::~QHash__sub_object() 0x0000f661   Thumb Code     0  xqsettingsmanager_p.o(t._ZN5QHashIlP25CCentralRepositoryHandlerED1Ev)
    QHash<long, CCentralRepositoryHandler*>::operator [](const long&) 0x0000f67f   Thumb Code   170  xqsettingsmanager_p.o(t._ZN5QHashIlP25CCentralRepositoryHandlerEixERKl)
    QHash<long, CPublishAndSubscribeHandler*>::deleteNode2(QHashData::Node*) 0x0000f72d   Thumb Code     6  xqsettingsmanager_p.o(t._ZN5QHashIlP27CPublishAndSubscribeHandlerE11deleteNode2EPN9QHashData4NodeE)
    QHash<long, CPublishAndSubscribeHandler*>::detach_helper() 0x0000f735   Thumb Code    52  xqsettingsmanager_p.o(t._ZN5QHashIlP27CPublishAndSubscribeHandlerE13detach_helperEv)
    QHash<long, CPublishAndSubscribeHandler*>::duplicateNode(QHashData::Node*, void*) 0x0000f771   Thumb Code    48  xqsettingsmanager_p.o(t._ZN5QHashIlP27CPublishAndSubscribeHandlerE13duplicateNodeEPN9QHashData4NodeEPv)
    QHash<long, CPublishAndSubscribeHandler*>::detach() 0x0000f7a1   Thumb Code    28  xqsettingsmanager_p.o(t._ZN5QHashIlP27CPublishAndSubscribeHandlerE6detachEv)
    QHash<long, CPublishAndSubscribeHandler*>::freeData(QHashData*) 0x0000f7bd   Thumb Code    16  xqsettingsmanager_p.o(t._ZN5QHashIlP27CPublishAndSubscribeHandlerE8freeDataEP9QHashData)
    QHash<long, CPublishAndSubscribeHandler*>::~QHash() 0x0000f7d1   Thumb Code    30  xqsettingsmanager_p.o(t._ZN5QHashIlP27CPublishAndSubscribeHandlerED1Ev)
    QHash<long, CPublishAndSubscribeHandler*>::~QHash__sub_object() 0x0000f7d1   Thumb Code     0  xqsettingsmanager_p.o(t._ZN5QHashIlP27CPublishAndSubscribeHandlerED1Ev)
    QHash<long, CPublishAndSubscribeHandler*>::operator [](const long&) 0x0000f7ef   Thumb Code   170  xqsettingsmanager_p.o(t._ZN5QHashIlP27CPublishAndSubscribeHandlerEixERKl)
    QHash<unsigned long, CCenRepMonitor*>::deleteNode2(QHashData::Node*) 0x0000f89d   Thumb Code     6  ccentralrepositoryhandler.o(t._ZN5QHashImP14CCenRepMonitorE11deleteNode2EPN9QHashData4NodeE)
    QHash<unsigned long, CCenRepMonitor*>::detach_helper() 0x0000f8a5   Thumb Code    52  ccentralrepositoryhandler.o(t._ZN5QHashImP14CCenRepMonitorE13detach_helperEv)
    QHash<unsigned long, CCenRepMonitor*>::duplicateNode(QHashData::Node*, void*) 0x0000f8e1   Thumb Code    46  ccentralrepositoryhandler.o(t._ZN5QHashImP14CCenRepMonitorE13duplicateNodeEPN9QHashData4NodeEPv)
    QHash<unsigned long, CCenRepMonitor*>::detach() 0x0000f90f   Thumb Code    34  ccentralrepositoryhandler.o(t._ZN5QHashImP14CCenRepMonitorE6detachEv)
    QHash<unsigned long, CCenRepMonitor*>::remove(const unsigned long&) 0x0000f931   Thumb Code   242  ccentralrepositoryhandler.o(t._ZN5QHashImP14CCenRepMonitorE6removeERKm)
    QHash<unsigned long, CCenRepMonitor*>::freeData(QHashData*) 0x0000fa25   Thumb Code    16  ccentralrepositoryhandler.o(t._ZN5QHashImP14CCenRepMonitorE8freeDataEP9QHashData)
    QHash<unsigned long, CCenRepMonitor*>::~QHash() 0x0000fa39   Thumb Code    30  ccentralrepositoryhandler.o(t._ZN5QHashImP14CCenRepMonitorED1Ev)
    QHash<unsigned long, CCenRepMonitor*>::~QHash__sub_object() 0x0000fa39   Thumb Code     0  ccentralrepositoryhandler.o(t._ZN5QHashImP14CCenRepMonitorED1Ev)
    QHash<unsigned long, CCenRepMonitor*>::operator [](const unsigned long&) 0x0000fa57   Thumb Code   192  ccentralrepositoryhandler.o(t._ZN5QHashImP14CCenRepMonitorEixERKm)
    QHash<unsigned long, CPubSubMonitor*>::deleteNode2(QHashData::Node*) 0x0000fb1b   Thumb Code     6  cpublishandsubscribehandler.o(t._ZN5QHashImP14CPubSubMonitorE11deleteNode2EPN9QHashData4NodeE)
    QHash<unsigned long, CPubSubMonitor*>::detach_helper() 0x0000fb21   Thumb Code    52  cpublishandsubscribehandler.o(t._ZN5QHashImP14CPubSubMonitorE13detach_helperEv)
    QHash<unsigned long, CPubSubMonitor*>::duplicateNode(QHashData::Node*, void*) 0x0000fb5d   Thumb Code    46  cpublishandsubscribehandler.o(t._ZN5QHashImP14CPubSubMonitorE13duplicateNodeEPN9QHashData4NodeEPv)
    QHash<unsigned long, CPubSubMonitor*>::detach() 0x0000fb8b   Thumb Code    34  cpublishandsubscribehandler.o(t._ZN5QHashImP14CPubSubMonitorE6detachEv)
    QHash<unsigned long, CPubSubMonitor*>::remove(const unsigned long&) 0x0000fbad   Thumb Code   242  cpublishandsubscribehandler.o(t._ZN5QHashImP14CPubSubMonitorE6removeERKm)
    QHash<unsigned long, CPubSubMonitor*>::freeData(QHashData*) 0x0000fca1   Thumb Code    16  cpublishandsubscribehandler.o(t._ZN5QHashImP14CPubSubMonitorE8freeDataEP9QHashData)
    QHash<unsigned long, CPubSubMonitor*>::~QHash() 0x0000fcb5   Thumb Code    30  cpublishandsubscribehandler.o(t._ZN5QHashImP14CPubSubMonitorED1Ev)
    QHash<unsigned long, CPubSubMonitor*>::~QHash__sub_object() 0x0000fcb5   Thumb Code     0  cpublishandsubscribehandler.o(t._ZN5QHashImP14CPubSubMonitorED1Ev)
    QHash<unsigned long, CPubSubMonitor*>::operator [](const unsigned long&) 0x0000fcd3   Thumb Code   192  cpublishandsubscribehandler.o(t._ZN5QHashImP14CPubSubMonitorEixERKm)
    QList<XQCentralRepositorySettingsKey>::detach_helper(int) 0x0000fd97   Thumb Code    94  xqcentralrepositoryutils_p.o(t._ZN5QListI30XQCentralRepositorySettingsKeyE13detach_helperEi)
    QList<XQCentralRepositorySettingsKey>::detach_helper() 0x0000fdfd   Thumb Code    16  xqcentralrepositoryutils_p.o(t._ZN5QListI30XQCentralRepositorySettingsKeyE13detach_helperEv)
    QList<XQCentralRepositorySettingsKey>::node_destruct(QList<XQCentralRepositorySettingsKey>::Node*, QList<XQCentralRepositorySettingsKey>::Node*) 0x0000fe0d   Thumb Code    38  xqcentralrepositoryutils_p.o(t._ZN5QListI30XQCentralRepositorySettingsKeyE13node_destructEPNS1_4NodeES3_)
    QList<XQCentralRepositorySettingsKey>::node_construct(QList<XQCentralRepositorySettingsKey>::Node*, const XQCentralRepositorySettingsKey&) 0x0000fe33   Thumb Code    32  xqcentralrepositoryutils_p.o(t._ZN5QListI30XQCentralRepositorySettingsKeyE14node_constructEPNS1_4NodeERKS0_)
    QList<XQCentralRepositorySettingsKey>::detach_helper_grow(int, int) 0x0000fe57   Thumb Code   208  xqcentralrepositoryutils_p.o(t._ZN5QListI30XQCentralRepositorySettingsKeyE18detach_helper_growEii)
    QList<XQCentralRepositorySettingsKey>::free(QListData::Data*) 0x0000ff37   Thumb Code    58  xqcentralrepositoryutils_p.o(t._ZN5QListI30XQCentralRepositorySettingsKeyE4freeEPN9QListData4DataE)
    QList<XQCentralRepositorySettingsKey>::append(const XQCentralRepositorySettingsKey&) 0x0000ff71   Thumb Code   112  xqcentralrepositoryutils_p.o(t._ZN5QListI30XQCentralRepositorySettingsKeyE6appendERKS0_)
    QList<XQCentralRepositorySettingsKey>::node_copy(QList<XQCentralRepositorySettingsKey>::Node*, QList<XQCentralRepositorySettingsKey>::Node*, QList<XQCentralRepositorySettingsKey>::Node*) 0x0000fff3   Thumb Code    94  xqcentralrepositoryutils_p.o(t._ZN5QListI30XQCentralRepositorySettingsKeyE9node_copyEPNS1_4NodeES3_S3_)
    QList<XQCentralRepositorySettingsKey>::QList() 0x0001005d   Thumb Code    18  xqcentralrepositoryutils_p.o(t._ZN5QListI30XQCentralRepositorySettingsKeyEC1Ev)
    QList<XQCentralRepositorySettingsKey>::QList__sub_object() 0x0001005d   Thumb Code     0  xqcentralrepositoryutils_p.o(t._ZN5QListI30XQCentralRepositorySettingsKeyEC1Ev)
    QList<XQCentralRepositorySettingsKey>::~QList() 0x00010075   Thumb Code    32  xqcentralrepositoryutils_p.o(t._ZN5QListI30XQCentralRepositorySettingsKeyED1Ev)
    QList<XQCentralRepositorySettingsKey>::~QList__sub_object() 0x00010075   Thumb Code     0  xqcentralrepositoryutils_p.o(t._ZN5QListI30XQCentralRepositorySettingsKeyED1Ev)
    QList<QString>::detach_helper(int)       0x00010095   Thumb Code    94  pathmapper_symbian.o(t._ZN5QListI7QStringE13detach_helperEi)
    QList<QString>::detach_helper()          0x000100fb   Thumb Code    16  pathmapper_symbian.o(t._ZN5QListI7QStringE13detach_helperEv)
    QList<QString>::node_destruct(QList<QString>::Node*, QList<QString>::Node*) 0x0001010b   Thumb Code    26  pathmapper_symbian.o(t._ZN5QListI7QStringE13node_destructEPNS1_4NodeES3_)
    QList<QString>::node_construct(QList<QString>::Node*, const QString&) 0x00010125   Thumb Code    36  pathmapper_symbian.o(t._ZN5QListI7QStringE14node_constructEPNS1_4NodeERKS0_)
    QList<QString>::detach_helper_grow(int, int) 0x00010157   Thumb Code   208  pathmapper_symbian.o(t._ZN5QListI7QStringE18detach_helper_growEii)
    QList<QString>::free(QListData::Data*)   0x00010237   Thumb Code    58  pathmapper_symbian.o(t._ZN5QListI7QStringE4freeEPN9QListData4DataE)
    QList<QString>::append(const QString&)   0x00010271   Thumb Code   114  pathmapper_symbian.o(t._ZN5QListI7QStringE6appendERKS0_)
    QList<QString>::node_copy(QList<QString>::Node*, QList<QString>::Node*, QList<QString>::Node*) 0x000102f7   Thumb Code    82  pathmapper_symbian.o(t._ZN5QListI7QStringE9node_copyEPNS1_4NodeES3_S3_)
    QList<QString>::~QList()                 0x0001035f   Thumb Code    32  pathmapper_symbian.o(t._ZN5QListI7QStringED1Ev)
    QList<QString>::~QList__sub_object()     0x0001035f   Thumb Code     0  pathmapper_symbian.o(t._ZN5QListI7QStringED1Ev)
    QList<QFileInfo>::detach_helper(int)     0x0001037f   Thumb Code   176  pathmapper_symbian.o(t._ZN5QListI9QFileInfoE13detach_helperEi)
    QList<QFileInfo>::detach_helper()        0x0001044d   Thumb Code    16  pathmapper_symbian.o(t._ZN5QListI9QFileInfoE13detach_helperEv)
    QList<QFileInfo>::free(QListData::Data*) 0x0001045d   Thumb Code    70  pathmapper_symbian.o(t._ZN5QListI9QFileInfoE4freeEPN9QListData4DataE)
    QList<QFileInfo>::~QList()               0x000104a3   Thumb Code    32  pathmapper_symbian.o(t._ZN5QListI9QFileInfoED1Ev)
    QList<QFileInfo>::~QList__sub_object()   0x000104a3   Thumb Code     0  pathmapper_symbian.o(t._ZN5QListI9QFileInfoED1Ev)
    QList<QtMobility::KeyData>::detach_helper(int) 0x000104c3   Thumb Code    94  qcrmlparser.o(t._ZN5QListIN10QtMobility7KeyDataEE13detach_helperEi)
    QList<QtMobility::KeyData>::detach_helper() 0x00010529   Thumb Code    16  pathmapper_symbian.o(t._ZN5QListIN10QtMobility7KeyDataEE13detach_helperEv)
    QList<QtMobility::KeyData>::node_destruct(QList<QtMobility::KeyData>::Node*, QList<QtMobility::KeyData>::Node*) 0x00010539   Thumb Code    38  qcrmlparser.o(t._ZN5QListIN10QtMobility7KeyDataEE13node_destructEPNS2_4NodeES4_)
    QList<QtMobility::KeyData>::node_construct(QList<QtMobility::KeyData>::Node*, const QtMobility::KeyData&) 0x0001055f   Thumb Code    34  qcrmlparser.o(t._ZN5QListIN10QtMobility7KeyDataEE14node_constructEPNS2_4NodeERKS1_)
    QList<QtMobility::KeyData>::detach_helper_grow(int, int) 0x0001058f   Thumb Code   208  qcrmlparser.o(t._ZN5QListIN10QtMobility7KeyDataEE18detach_helper_growEii)
    QList<QtMobility::KeyData>::free(QListData::Data*) 0x0001066f   Thumb Code    58  qcrmlparser.o(t._ZN5QListIN10QtMobility7KeyDataEE4freeEPN9QListData4DataE)
    QList<QtMobility::KeyData>::clear()      0x000106a9   Thumb Code    28  qcrmlparser.o(t._ZN5QListIN10QtMobility7KeyDataEE5clearEv)
    QList<QtMobility::KeyData>::append(const QtMobility::KeyData&) 0x000106d1   Thumb Code   106  qcrmlparser.o(t._ZN5QListIN10QtMobility7KeyDataEE6appendERKS1_)
    QList<QtMobility::KeyData>::node_copy(QList<QtMobility::KeyData>::Node*, QList<QtMobility::KeyData>::Node*, QList<QtMobility::KeyData>::Node*) 0x0001074f   Thumb Code    92  qcrmlparser.o(t._ZN5QListIN10QtMobility7KeyDataEE9node_copyEPNS2_4NodeES4_S4_)
    QList<QtMobility::KeyData>::QList()      0x000107c1   Thumb Code    18  qcrmlparser.o(t._ZN5QListIN10QtMobility7KeyDataEEC1Ev)
    QList<QtMobility::KeyData>::QList__sub_object() 0x000107c1   Thumb Code     0  qcrmlparser.o(t._ZN5QListIN10QtMobility7KeyDataEEC1Ev)
    QList<QtMobility::KeyData>::~QList()     0x000107d9   Thumb Code    32  pathmapper_symbian.o(t._ZN5QListIN10QtMobility7KeyDataEED1Ev)
    QList<QtMobility::KeyData>::~QList__sub_object() 0x000107d9   Thumb Code     0  pathmapper_symbian.o(t._ZN5QListIN10QtMobility7KeyDataEED1Ev)
    QList<QtMobility::KeyData>::operator =(const QList<QtMobility::KeyData>&) 0x000107f9   Thumb Code    64  qcrmlparser.o(t._ZN5QListIN10QtMobility7KeyDataEEaSERKS2_)
    QList<QtMobility::KeyData>::operator +=(const QList<QtMobility::KeyData>&) 0x00010839   Thumb Code   154  qcrmlparser.o(t._ZN5QListIN10QtMobility7KeyDataEEpLERKS2_)
    QList<XQPublishAndSubscribeSecurityPolicy::Capability>::detach_helper(int) 0x000108e1   Thumb Code   190  xqpublishandsubscribesecuritypolicy.o(t._ZN5QListIN35XQPublishAndSubscribeSecurityPolicy10CapabilityEE13detach_helperEi)
    QList<XQPublishAndSubscribeSecurityPolicy::Capability>::detach_helper() 0x000109af   Thumb Code    16  xqpublishandsubscribesecuritypolicy.o(t._ZN5QListIN35XQPublishAndSubscribeSecurityPolicy10CapabilityEE13detach_helperEv)
    QList<XQPublishAndSubscribeSecurityPolicy::Capability>::free(QListData::Data*) 0x000109bf   Thumb Code    70  cpublishandsubscribehandler.o(t._ZN5QListIN35XQPublishAndSubscribeSecurityPolicy10CapabilityEE4freeEPN9QListData4DataE)
    QList<XQPublishAndSubscribeSecurityPolicy::Capability>::QList(const QList<XQPublishAndSubscribeSecurityPolicy::Capability>&) 0x00010a05   Thumb Code    36  xqpublishandsubscribesecuritypolicy.o(t._ZN5QListIN35XQPublishAndSubscribeSecurityPolicy10CapabilityEEC1ERKS2_)
    QList<XQPublishAndSubscribeSecurityPolicy::Capability>::QList__sub_object(const QList<XQPublishAndSubscribeSecurityPolicy::Capability>&) 0x00010a05   Thumb Code     0  xqpublishandsubscribesecuritypolicy.o(t._ZN5QListIN35XQPublishAndSubscribeSecurityPolicy10CapabilityEEC1ERKS2_)
    QList<XQPublishAndSubscribeSecurityPolicy::Capability>::~QList() 0x00010a29   Thumb Code    32  cpublishandsubscribehandler.o(t._ZN5QListIN35XQPublishAndSubscribeSecurityPolicy10CapabilityEED1Ev)
    QList<XQPublishAndSubscribeSecurityPolicy::Capability>::~QList__sub_object() 0x00010a29   Thumb Code     0  cpublishandsubscribehandler.o(t._ZN5QListIN35XQPublishAndSubscribeSecurityPolicy10CapabilityEED1Ev)
    QVector<QXmlStreamAttribute>::free(QVectorTypedData<QXmlStreamAttribute>*) 0x00010a49   Thumb Code    54  qcrmlparser.o(t._ZN7QVectorI19QXmlStreamAttributeE4freeEP16QVectorTypedDataIS0_E)
    QVector<QXmlStreamAttribute>::~QVector() 0x00010a7f   Thumb Code    34  qcrmlparser.o(t._ZN7QVectorI19QXmlStreamAttributeED1Ev)
    QVector<QXmlStreamAttribute>::~QVector__sub_object() 0x00010a7f   Thumb Code     0  qcrmlparser.o(t._ZN7QVectorI19QXmlStreamAttributeED1Ev)
    TPckgBuf<int>::TPckgBuf(const int&)      0x00010aa1   Thumb Code    46  pspathmappersession.o(t._ZN8TPckgBufIiEC1ERKi)
    TPckgBuf<int>::TPckgBuf__sub_object(const int&) 0x00010aa1   Thumb Code     0  pspathmappersession.o(t._ZN8TPckgBufIiEC1ERKi)
    QHashNode<QString, QtMobility::PathMapper::PathData>::QHashNode(const QString&, const QtMobility::PathMapper::PathData&) 0x00010acf   Thumb Code    38  pathmapper_symbian.o(t._ZN9QHashNodeI7QStringN10QtMobility10PathMapper8PathDataEEC1ERKS0_RKS3_)
    QHashNode<QString, QtMobility::PathMapper::PathData>::QHashNode__sub_object(const QString&, const QtMobility::PathMapper::PathData&) 0x00010acf   Thumb Code     0  pathmapper_symbian.o(t._ZN9QHashNodeI7QStringN10QtMobility10PathMapper8PathDataEEC1ERKS0_RKS3_)
    QForeachContainer<QStringList>::condition() const 0x00010af9   Thumb Code    40  pathmapper_symbian.o(t._ZNK17QForeachContainerI11QStringListE9conditionEv)
    QHash<QString, QHashDummyValue>::findNode(const QString&, unsigned*) const 0x00010b21   Thumb Code   116  pathmapper_symbian.o(t._ZNK5QHashI7QString15QHashDummyValueE8findNodeERKS0_Pj)
    QHash<QString, QtMobility::PathMapper::PathData>::contains(const QString&) const 0x00010b95   Thumb Code    32  pathmapper_symbian.o(t._ZNK5QHashI7QStringN10QtMobility10PathMapper8PathDataEE8containsERKS0_)
    QHash<QString, QtMobility::PathMapper::PathData>::findNode(const QString&, unsigned*) const 0x00010bb5   Thumb Code   116  pathmapper_symbian.o(t._ZNK5QHashI7QStringN10QtMobility10PathMapper8PathDataEE8findNodeERKS0_Pj)
    QHash<long, CCentralRepositoryHandler*>::value(const long&) const 0x00010c29   Thumb Code    40  xqsettingsmanager_p.o(t._ZNK5QHashIlP25CCentralRepositoryHandlerE5valueERKl)
    QHash<long, CCentralRepositoryHandler*>::contains(const long&) const 0x00010c51   Thumb Code    32  xqsettingsmanager_p.o(t._ZNK5QHashIlP25CCentralRepositoryHandlerE8containsERKl)
    QHash<long, CCentralRepositoryHandler*>::findNode(const long&, unsigned*) const 0x00010c71   Thumb Code   106  xqsettingsmanager_p.o(t._ZNK5QHashIlP25CCentralRepositoryHandlerE8findNodeERKlPj)
    QHash<long, CPublishAndSubscribeHandler*>::value(const long&) const 0x00010cdb   Thumb Code    40  xqsettingsmanager_p.o(t._ZNK5QHashIlP27CPublishAndSubscribeHandlerE5valueERKl)
    QHash<long, CPublishAndSubscribeHandler*>::contains(const long&) const 0x00010d03   Thumb Code    32  xqsettingsmanager_p.o(t._ZNK5QHashIlP27CPublishAndSubscribeHandlerE8containsERKl)
    QHash<long, CPublishAndSubscribeHandler*>::findNode(const long&, unsigned*) const 0x00010d23   Thumb Code   106  xqsettingsmanager_p.o(t._ZNK5QHashIlP27CPublishAndSubscribeHandlerE8findNodeERKlPj)
    QHash<unsigned long, CCenRepMonitor*>::contains(const unsigned long&) const 0x00010d8d   Thumb Code    32  ccentralrepositoryhandler.o(t._ZNK5QHashImP14CCenRepMonitorE8containsERKm)
    QHash<unsigned long, CCenRepMonitor*>::findNode(const unsigned long&, unsigned*) const 0x00010dad   Thumb Code   102  ccentralrepositoryhandler.o(t._ZNK5QHashImP14CCenRepMonitorE8findNodeERKmPj)
    QHash<unsigned long, CPubSubMonitor*>::contains(const unsigned long&) const 0x00010e13   Thumb Code    32  cpublishandsubscribehandler.o(t._ZNK5QHashImP14CPubSubMonitorE8containsERKm)
    QHash<unsigned long, CPubSubMonitor*>::findNode(const unsigned long&, unsigned*) const 0x00010e33   Thumb Code   102  cpublishandsubscribehandler.o(t._ZNK5QHashImP14CPubSubMonitorE8findNodeERKmPj)
    QList<QtMobility::KeyData>::isEmpty() const 0x00010e99   Thumb Code    24  qcrmlparser.o(t._ZNK5QListIN10QtMobility7KeyDataEE7isEmptyEv)
    QList<XQPublishAndSubscribeSecurityPolicy::Capability>::count() const 0x00010eb1   Thumb Code    16  cpublishandsubscribehandler.o(t._ZNK5QListIN35XQPublishAndSubscribeSecurityPolicy10CapabilityEE5countEv)
    QList<XQPublishAndSubscribeSecurityPolicy::Capability>::operator [](int) const 0x00010ec1   Thumb Code    30  cpublishandsubscribehandler.o(t._ZNK5QListIN35XQPublishAndSubscribeSecurityPolicy10CapabilityEEixEi)
    operator <<<QString>(QDataStream&, const QSet<T1>&) 0x00010edf   Thumb Code   190  pspathmappersession.o(t._ZlsI7QStringER11QDataStreamS2_RK4QSetIT_E)
    operator <<<QString>(QDataStream&, const QList<T1>&) 0x00010f9d   Thumb Code   100  pspathmappersession.o(t._ZlsI7QStringER11QDataStreamS2_RK5QListIT_E)
    XQSettingsManager::staticMetaObject      0x00012a10   Data          16  moc_xqsettingsmanager.o(.constdata)
    QtMobility::CCRMLDirectoryMonitor::staticMetaObject 0x00012a50   Data          16  pathmapper_symbian.o(.constdata)
    QtMobility::PathMapper::staticMetaObject 0x00012a60   Data          16  pathmapper_symbian.o(.constdata)
    QtMobility::CPSPathMapperServer::timeoutInterval 0x00012c50   Data           4  pspathmapperserver.o(.constdata)
    stlp_priv::_Integer_limits<signed char, (signed char)-128, (signed char)127, (int)-1, (bool)1>::digits 0x00012cc0   Data           4  moc_xqsettingsmanager.o(.constdata__ZN9stlp_priv15_Integer_limitsIaLan128ELa127ELin1ELb1EE6digitsE)
    stlp_priv::_Integer_limits<bool, (bool)0, (bool)1, (int)1, (bool)0>::digits 0x00012cc4   Data           4  moc_xqsettingsmanager.o(.constdata__ZN9stlp_priv15_Integer_limitsIbLb0ELb1ELi1ELb0EE6digitsE)
    stlp_priv::_Integer_limits<char, (char)128, (char)127, (int)-1, (bool)1>::digits 0x00012cc8   Data           4  moc_xqsettingsmanager.o(.constdata__ZN9stlp_priv15_Integer_limitsIcLc128ELc127ELin1ELb1EE6digitsE)
    stlp_priv::_Integer_limits<unsigned char, (unsigned char)0, (unsigned char)255, (int)-1, (bool)1>::digits 0x00012ccc   Data           4  moc_xqsettingsmanager.o(.constdata__ZN9stlp_priv15_Integer_limitsIhLh0ELh255ELin1ELb1EE6digitsE)
    stlp_priv::_Integer_limits<int, (int)-2147483648, (int)2147483647, (int)-1, (bool)1>::digits 0x00012cd0   Data           4  moc_xqsettingsmanager.o(.constdata__ZN9stlp_priv15_Integer_limitsIiLin2147483648ELi2147483647ELin1ELb1EE6digitsE)
    stlp_priv::_Integer_limits<int, (int)-2147483648, (int)2147483647, (int)-1, (bool)1>::is_signed 0x00012cd4   Data           1  moc_xqsettingsmanager.o(.constdata__ZN9stlp_priv15_Integer_limitsIiLin2147483648ELi2147483647ELin1ELb1EE9is_signedE)
    stlp_priv::_Integer_limits<unsigned, (unsigned)0, (unsigned)4294967295, (int)-1, (bool)1>::digits 0x00012cd8   Data           4  moc_xqsettingsmanager.o(.constdata__ZN9stlp_priv15_Integer_limitsIjLj0ELj4294967295ELin1ELb1EE6digitsE)
    stlp_priv::_Integer_limits<long, (long)-2147483648, (long)2147483647, (int)-1, (bool)1>::digits 0x00012cdc   Data           4  moc_xqsettingsmanager.o(.constdata__ZN9stlp_priv15_Integer_limitsIlLln2147483648ELl2147483647ELin1ELb1EE6digitsE)
    stlp_priv::_Integer_limits<unsigned long, (unsigned long)0, (unsigned long)4294967295, (int)-1, (bool)1>::digits 0x00012ce0   Data           4  moc_xqsettingsmanager.o(.constdata__ZN9stlp_priv15_Integer_limitsImLm0ELm4294967295ELin1ELb1EE6digitsE)
    stlp_priv::_Integer_limits<short, (short)-32768, (short)32767, (int)-1, (bool)1>::digits 0x00012ce4   Data           4  moc_xqsettingsmanager.o(.constdata__ZN9stlp_priv15_Integer_limitsIsLsn32768ELs32767ELin1ELb1EE6digitsE)
    stlp_priv::_Integer_limits<unsigned short, (unsigned short)0, (unsigned short)65535, (int)-1, (bool)1>::digits 0x00012ce8   Data           4  moc_xqsettingsmanager.o(.constdata__ZN9stlp_priv15_Integer_limitsItLt0ELt65535ELin1ELb1EE6digitsE)
    stlp_priv::_Integer_limits<wchar_t, (wchar_t)0, (wchar_t)65535, (int)-1, (bool)1>::digits 0x00012cec   Data           4  moc_xqsettingsmanager.o(.constdata__ZN9stlp_priv15_Integer_limitsIwLw0ELw65535ELin1ELb1EE6digitsE)
    stlp_priv::_Integer_limits<long long, (long long)-9223372036854775808, (long long)9223372036854775807, (int)-1, (bool)1>::digits 0x00012cf0   Data           4  moc_xqsettingsmanager.o(.constdata__ZN9stlp_priv15_Integer_limitsIxLxn9223372036854775808ELx9223372036854775807ELin1ELb1EE6digitsE)
    stlp_priv::_Integer_limits<unsigned long long, (unsigned long long)0, (unsigned long long)18446744073709551615, (int)-1, (bool)1>::digits 0x00012cf4   Data           4  moc_xqsettingsmanager.o(.constdata__ZN9stlp_priv15_Integer_limitsIyLy0ELy18446744073709551615ELin1ELb1EE6digitsE)
    typeinfo for CCenRepMonitor              0x00012cf8   Data          12  cenrepmonitor.o(.constdata__ZTI14CCenRepMonitor)
    typeinfo for CPubSubMonitor              0x00012d04   Data          12  pubsubmonitor.o(.constdata__ZTI14CPubSubMonitor)
    typeinfo for XQSettingsManager           0x00012d10   Data          12  moc_xqsettingsmanager.o(.constdata__ZTI17XQSettingsManager)
    typeinfo for SettingsHandlerBase         0x00012d1c   Data           8  ccentralrepositoryhandler.o(.constdata__ZTI19SettingsHandlerBase)
    typeinfo for MSettingsHandlerObserver    0x00012d24   Data           8  xqsettingsmanager_p.o(.constdata__ZTI24MSettingsHandlerObserver)
    typeinfo for XQCentralRepositoryUtils    0x00012d2c   Data          12  xqcentralrepositoryutils.o(.constdata__ZTI24XQCentralRepositoryUtils)
    typeinfo for XQSettingsManagerPrivate    0x00012d38   Data          32  xqsettingsmanager_p.o(.constdata__ZTI24XQSettingsManagerPrivate)
    typeinfo for CCentralRepositoryHandler   0x00012d58   Data          32  ccentralrepositoryhandler.o(.constdata__ZTI25CCentralRepositoryHandler)
    typeinfo for XQPublishAndSubscribeUtils  0x00012d78   Data          12  xqpublishandsubscribeutils.o(.constdata__ZTI26XQPublishAndSubscribeUtils)
    typeinfo for CPublishAndSubscribeHandler 0x00012d84   Data          32  cpublishandsubscribehandler.o(.constdata__ZTI27CPublishAndSubscribeHandler)
    typeinfo for QtMobility::PathMapper      0x00012da4   Data          12  pathmapper_symbian.o(.constdata__ZTIN10QtMobility10PathMapperE)
    typeinfo for QtMobility::CPSPathMapperServer 0x00012db0   Data          12  pspathmapperserver.o(.constdata__ZTIN10QtMobility19CPSPathMapperServerE)
    typeinfo for QtMobility::CCRMLDirectoryMonitor 0x00012dbc   Data          32  pathmapper_symbian.o(.constdata__ZTIN10QtMobility21CCRMLDirectoryMonitorE)
    typeinfo for QtMobility::CPSPathMapperServerSession 0x00012ddc   Data          12  pspathmappersession.o(.constdata__ZTIN10QtMobility26CPSPathMapperServerSessionE)
    typeinfo name for CCenRepMonitor         0x00012de8   Data          17  cenrepmonitor.o(.constdata__ZTS14CCenRepMonitor)
    typeinfo name for CPubSubMonitor         0x00012df9   Data          17  pubsubmonitor.o(.constdata__ZTS14CPubSubMonitor)
    typeinfo name for XQSettingsManager      0x00012e0a   Data          20  moc_xqsettingsmanager.o(.constdata__ZTS17XQSettingsManager)
    typeinfo name for SettingsHandlerBase    0x00012e1e   Data          22  ccentralrepositoryhandler.o(.constdata__ZTS19SettingsHandlerBase)
    typeinfo name for MSettingsHandlerObserver 0x00012e34   Data          27  xqsettingsmanager_p.o(.constdata__ZTS24MSettingsHandlerObserver)
    typeinfo name for XQCentralRepositoryUtils 0x00012e4f   Data          27  xqcentralrepositoryutils.o(.constdata__ZTS24XQCentralRepositoryUtils)
    typeinfo name for XQSettingsManagerPrivate 0x00012e6a   Data          27  xqsettingsmanager_p.o(.constdata__ZTS24XQSettingsManagerPrivate)
    typeinfo name for CCentralRepositoryHandler 0x00012e85   Data          28  ccentralrepositoryhandler.o(.constdata__ZTS25CCentralRepositoryHandler)
    typeinfo name for XQPublishAndSubscribeUtils 0x00012ea1   Data          29  xqpublishandsubscribeutils.o(.constdata__ZTS26XQPublishAndSubscribeUtils)
    typeinfo name for CPublishAndSubscribeHandler 0x00012ebe   Data          30  cpublishandsubscribehandler.o(.constdata__ZTS27CPublishAndSubscribeHandler)
    typeinfo name for QtMobility::PathMapper 0x00012edc   Data          27  pathmapper_symbian.o(.constdata__ZTSN10QtMobility10PathMapperE)
    typeinfo name for QtMobility::CPSPathMapperServer 0x00012ef7   Data          36  pspathmapperserver.o(.constdata__ZTSN10QtMobility19CPSPathMapperServerE)
    typeinfo name for QtMobility::CCRMLDirectoryMonitor 0x00012f1b   Data          38  pathmapper_symbian.o(.constdata__ZTSN10QtMobility21CCRMLDirectoryMonitorE)
    typeinfo name for QtMobility::CPSPathMapperServerSession 0x00012f41   Data          43  pspathmappersession.o(.constdata__ZTSN10QtMobility26CPSPathMapperServerSessionE)
    vtable for CCenRepMonitor                0x00012f6c   Data          32  cenrepmonitor.o(.constdata__ZTV14CCenRepMonitor)
    vtable for CPubSubMonitor                0x00012f8c   Data          32  pubsubmonitor.o(.constdata__ZTV14CPubSubMonitor)
    vtable for XQSettingsManager             0x00012fac   Data          56  moc_xqsettingsmanager.o(.constdata__ZTV17XQSettingsManager)
    vtable for SettingsHandlerBase           0x00012fe4   Data          60  ccentralrepositoryhandler.o(.constdata__ZTV19SettingsHandlerBase)
    vtable for MSettingsHandlerObserver      0x00013020   Data          16  xqsettingsmanager_p.o(.constdata__ZTV24MSettingsHandlerObserver)
    vtable for XQCentralRepositoryUtils      0x00013030   Data          56  xqcentralrepositoryutils.o(.constdata__ZTV24XQCentralRepositoryUtils)
    vtable for XQSettingsManagerPrivate      0x00013068   Data          44  xqsettingsmanager_p.o(.constdata__ZTV24XQSettingsManagerPrivate)
    vtable for CCentralRepositoryHandler     0x00013094   Data         124  ccentralrepositoryhandler.o(.constdata__ZTV25CCentralRepositoryHandler)
    vtable for XQPublishAndSubscribeUtils    0x00013110   Data          56  xqpublishandsubscribeutils.o(.constdata__ZTV26XQPublishAndSubscribeUtils)
    vtable for CPublishAndSubscribeHandler   0x00013148   Data         124  cpublishandsubscribehandler.o(.constdata__ZTV27CPublishAndSubscribeHandler)
    vtable for QtMobility::PathMapper        0x000131c4   Data          56  pathmapper_symbian.o(.constdata__ZTVN10QtMobility10PathMapperE)
    vtable for QtMobility::CPSPathMapperServer 0x000131fc   Data          40  pspathmapperserver.o(.constdata__ZTVN10QtMobility19CPSPathMapperServerE)
    vtable for QtMobility::CCRMLDirectoryMonitor 0x00013224   Data          96  pathmapper_symbian.o(.constdata__ZTVN10QtMobility21CCRMLDirectoryMonitorE)
    vtable for QtMobility::CPSPathMapperServerSession 0x00013284   Data          40  pspathmappersession.o(.constdata__ZTVN10QtMobility26CPSPathMapperServerSessionE)
    .ARM.exidx$$Base                         0x000132ac   Number         0  uc_exe_.o(.ARM.exidx)
    .ARM.exidx$$Limit                        0x00013ccc   Number         0  pspathmappersession.o(.ARM.exidx)
    Image$$ER_RO$$Limit                      0x00013ccc   Number         0  anon$$obj.o(linker$$defined$$symbols)
    std::_Atomic_swap_struct<(int)1>::_S_swap_lock 0x00400000   Data          12  moc_xqsettingsmanager.o(.data__ZNSt19_Atomic_swap_structILi1EE12_S_swap_lockE)

