ARM Linker, RVCT2.2 [Build 686]

================================================================================

Image Symbol Table

    Local Symbols

    Symbol Name                              Value     Ov Type        Size  Object(Section)

    ../../unhosted.s                         0x00000000   Number         0  switch8.o ABSOLUTE
    M:\\epoc32\\build\\euser\\c_e18a23aea4fd210f\\eexe_lib\\armv5\\udeb\\uc_exe_.cpp 0x00000000   Number         0  uc_exe_.o ABSOLUTE
    M:\\sf\\os\\kernelhwsrv\\kernel\\eka\\compsupp\\rvct\\ucppinit.cpp 0x00000000   Number         0  ucppinit.o ABSOLUTE
    M:\epoc32\build\euser\c_e18a23aea4fd210f\eexe_lib\armv5\udeb\uc_exe_.cpp 0x00000000   Number         0  uc_exe_.o ABSOLUTE
    M:\sf\os\kernelhwsrv\kernel\eka\compsupp\rvct\dllexp.cpp 0x00000000   Number         0  dllexp.o ABSOLUTE
    M:\sf\os\kernelhwsrv\kernel\eka\compsupp\rvct\ucppinit.cpp 0x00000000   Number         0  ucppinit.o ABSOLUTE
    M:\sf\os\kernelhwsrv\kernel\eka\compsupp\symaehabi\callfirstprocessfn.cpp 0x00000000   Number         0  callfirstprocessfn.o ABSOLUTE
    M:\sf\os\kernelhwsrv\kernel\eka\euser\epoc\arm\uc_exe.cpp 0x00000000   Number         0  uc_exe.o ABSOLUTE
    S:\\sf\\mw\\qt\\src\\s60main\\qts60main_mcrt0.cpp 0x00000000   Number         0  qts60main_mcrt0.o ABSOLUTE
    S:\sf\mw\qt\src\s60main\newallocator_hook.cpp 0x00000000   Number         0  newallocator_hook.o ABSOLUTE
    S:\sf\mw\qt\src\s60main\qts60main.cpp    0x00000000   Number         0  qts60main.o ABSOLUTE
    S:\sf\mw\qt\src\s60main\qts60main_mcrt0.cpp 0x00000000   Number         0  qts60main_mcrt0.o ABSOLUTE
    S:\sf\mw\qtmobility\src\serviceframework\databasemanagerserver_symbian\databasemanagerserver.cpp 0x00000000   Number         0  databasemanagerserver.o ABSOLUTE
    S:\sf\mw\qtmobility\src\serviceframework\databasemanagerserver_symbian\databasemanagerservermain.cpp 0x00000000   Number         0  databasemanagerservermain.o ABSOLUTE
    S:\sf\mw\qtmobility\src\serviceframework\databasemanagerserver_symbian\databasemanagersession.cpp 0x00000000   Number         0  databasemanagersession.o ABSOLUTE
    S:\sf\mw\qtmobility\src\serviceframework\databasemanagerserver_symbian\databasemanagersignalhandler.cpp 0x00000000   Number         0  databasemanagersignalhandler.o ABSOLUTE
    S:\sf\mw\qtmobility\src\serviceframework\dberror.cpp 0x00000000   Number         0  dberror.o ABSOLUTE
    S:\sf\mw\qtmobility\src\serviceframework\qabstractsecuritysession.cpp 0x00000000   Number         0  qabstractsecuritysession.o ABSOLUTE
    S:\sf\mw\qtmobility\src\serviceframework\qservicefilter.cpp 0x00000000   Number         0  qservicefilter.o ABSOLUTE
    S:\sf\mw\qtmobility\src\serviceframework\qserviceinterfacedescriptor.cpp 0x00000000   Number         0  qserviceinterfacedescriptor.o ABSOLUTE
    S:\sf\mw\qtmobility\src\serviceframework\qserviceplugininterface.cpp 0x00000000   Number         0  qserviceplugininterface.o ABSOLUTE
    S:\sf\mw\qtmobility\src\serviceframework\servicedatabase.cpp 0x00000000   Number         0  servicedatabase.o ABSOLUTE
    S:\sf\mw\qtmobility\src\serviceframework\servicemetadata.cpp 0x00000000   Number         0  servicemetadata.o ABSOLUTE
    .emb_text                                0x00008000   Section      112  uc_exe_.o(.emb_text)
    Symbian$$eit_base                        0x0000805c   Data           4  uc_exe_.o(.emb_text)
    Symbian$$eit_limit                       0x00008060   Data           4  uc_exe_.o(.emb_text)
    Symbian$$code_seg_base                   0x00008064   Data           4  uc_exe_.o(.emb_text)
    Symbian$$code_seg_limit                  0x00008068   Data           4  uc_exe_.o(.emb_text)
    Symbian$$reserved                        0x0000806c   Data           4  uc_exe_.o(.emb_text)
    $v0                                      0x00008070   ARM Code       0  qts60main_mcrt0.o(.emb_text)
    .emb_text                                0x00008070   Section        4  qts60main_mcrt0.o(.emb_text)
    .emb_text                                0x00008074   Section       52  ucppinit.o(.emb_text)
    loop                                     0x00008088   ARM Code       0  ucppinit.o(.emb_text)
    ret                                      0x00008090   ARM Code       0  ucppinit.o(.emb_text)
    base                                     0x000080a0   Data           0  ucppinit.o(.emb_text)
    limit                                    0x000080a4   Data           0  ucppinit.o(.emb_text)
    .text                                    0x00008878   Section       32  uc_exe_.o(.text)
    .text                                    0x00008898   Section     7264  servicemetadata.o(.text)
    |L1.1360|                                0x00008de8   Data           0  servicemetadata.o(.text)
    |L1.2444|                                0x00009224   Data           0  servicemetadata.o(.text)
    |L1.2452|                                0x0000922c   Data           0  servicemetadata.o(.text)
    |L1.2464|                                0x00009238   Data           0  servicemetadata.o(.text)
    |L1.2512|                                0x00009268   Data           0  servicemetadata.o(.text)
    |L1.4724|                                0x00009b0c   Data           0  servicemetadata.o(.text)
    |L1.4732|                                0x00009b14   Data           0  servicemetadata.o(.text)
    |L1.4736|                                0x00009b18   Data           0  servicemetadata.o(.text)
    .text                                    0x0000a4f8   Section    23452  servicedatabase.o(.text)
    |L1.3320|                                0x0000b1f0   Data           0  servicedatabase.o(.text)
    |L1.3340|                                0x0000b204   Data           0  servicedatabase.o(.text)
    |L1.3356|                                0x0000b214   Data           0  servicedatabase.o(.text)
    |L1.3368|                                0x0000b220   Data           0  servicedatabase.o(.text)
    |L1.3380|                                0x0000b22c   Data           0  servicedatabase.o(.text)
    |L1.5724|                                0x0000bb54   Data           0  servicedatabase.o(.text)
    |L1.6816|                                0x0000bf98   Data           0  servicedatabase.o(.text)
    |L1.6900|                                0x0000bfec   Data           0  servicedatabase.o(.text)
    |L1.8000|                                0x0000c438   Data           0  servicedatabase.o(.text)
    |L1.11212|                               0x0000d0c4   Data           0  servicedatabase.o(.text)
    |L1.11228|                               0x0000d0d4   Data           0  servicedatabase.o(.text)
    |L1.16176|                               0x0000e428   Data           0  servicedatabase.o(.text)
    |L1.17288|                               0x0000e880   Data           0  servicedatabase.o(.text)
    .text                                    0x00010094   Section       40  qserviceplugininterface.o(.text)
    .text                                    0x000100bc   Section      180  qabstractsecuritysession.o(.text)
    .text                                    0x00010170   Section     1964  qserviceinterfacedescriptor.o(.text)
    .text                                    0x0001091c   Section     1872  qservicefilter.o(.text)
    .text                                    0x0001106c   Section      316  dberror.o(.text)
    .text                                    0x000111b0   Section      132  databasemanagerservermain.o(.text)
    .text                                    0x00011234   Section     2888  databasemanagerserver.o(.text)
    |L1.1040|                                0x00011644   Data           0  databasemanagerserver.o(.text)
    |L1.1060|                                0x00011658   Data           0  databasemanagerserver.o(.text)
    QtMobility::Timeout(void*)               0x00011a05   Thumb Code    14  databasemanagerserver.o(.text)
    .text                                    0x00011d7c   Section     5400  databasemanagersession.o(.text)
    .text                                    0x00013294   Section      188  databasemanagersignalhandler.o(.text)
    .text                                    0x00013350   Section       24  switch8.o(.text)
    .text                                    0x00013368   Section      128  uc_exe.o(.text)
    .text                                    0x000133e8   Section      204  qts60main_mcrt0.o(.text)
    .text                                    0x000134b4   Section      144  callfirstprocessfn.o(.text)
    .text                                    0x00013544   Section       28  newallocator_hook.o(.text)
    .text                                    0x00013560   Section        4  dllexp.o(.text)
    .text                                    0x00013564   Section      164  qts60main.o(.text)
    .text.clean                              0x00013608   Section     1268  servicemetadata.o(.text.clean)
    .text.clean                              0x00013afc   Section     3868  servicedatabase.o(.text.clean)
    .text.clean                              0x00014a18   Section      142  qserviceinterfacedescriptor.o(.text.clean)
    .text.clean                              0x00014aa6   Section      138  qservicefilter.o(.text.clean)
    .text.clean                              0x00014b30   Section       16  dberror.o(.text.clean)
    .text.clean                              0x00014b40   Section       22  databasemanagerservermain.o(.text.clean)
    .text.clean                              0x00014b56   Section      602  databasemanagerserver.o(.text.clean)
    .text.clean                              0x00014db0   Section      712  databasemanagersession.o(.text.clean)
    .text.clean                              0x00015078   Section       24  qts60main_mcrt0.o(.text.clean)
    .text.clean                              0x00015090   Section       16  callfirstprocessfn.o(.text.clean)
    .text.clean                              0x000150a0   Section       20  qts60main.o(.text.clean)
    i._Z23qStringComparisonHelperRK10QStringRefPKc 0x000150b4   Section       76  servicemetadata.o(i._Z23qStringComparisonHelperRK10QStringRefPKc)
    i._Z23qStringComparisonHelperRK10QStringRefPKc.clean 0x00015100   Section       10  servicemetadata.o(i._Z23qStringComparisonHelperRK10QStringRefPKc.clean)
    i._Z6qDebugv                             0x0001510a   Section       92  servicemetadata.o(i._Z6qDebugv)
    i._Z6qDebugv.clean                       0x00015166   Section       24  servicemetadata.o(i._Z6qDebugv.clean)
    i._Z8qWarningv                           0x0001517e   Section       88  servicedatabase.o(i._Z8qWarningv)
    i._Z8qWarningv.clean                     0x000151d6   Section       24  servicedatabase.o(i._Z8qWarningv.clean)
    i._ZN10QByteArrayC1Ev                    0x000151f0   Section       24  databasemanagersession.o(i._ZN10QByteArrayC1Ev)
    i._ZN10QByteArrayD1Ev                    0x00015208   Section       24  servicemetadata.o(i._ZN10QByteArrayD1Ev)
    i._ZN10QStringRefD1Ev                    0x00015220   Section        2  servicemetadata.o(i._ZN10QStringRefD1Ev)
    i._ZN10QtMobility21QServiceFilterPrivateC1Ev 0x00015222   Section       52  qservicefilter.o(i._ZN10QtMobility21QServiceFilterPrivateC1Ev)
    i._ZN10QtMobility21QServiceFilterPrivateC1Ev.clean 0x00015256   Section       30  qservicefilter.o(i._ZN10QtMobility21QServiceFilterPrivateC1Ev.clean)
    i._ZN10QtMobility22CDatabaseManagerServerD0Ev 0x00015274   Section       24  databasemanagerserver.o(i._ZN10QtMobility22CDatabaseManagerServerD0Ev)
    i._ZN10QtMobility22CDatabaseManagerServerD1Ev 0x0001528c   Section       14  databasemanagerserver.o(i._ZN10QtMobility22CDatabaseManagerServerD1Ev)
    i._ZN10QtMobility22ServiceMetaDataResultsD1Ev 0x0001529a   Section       64  servicemetadata.o(i._ZN10QtMobility22ServiceMetaDataResultsD1Ev)
    i._ZN10QtMobility22ServiceMetaDataResultsD1Ev.clean 0x000152da   Section       46  servicemetadata.o(i._ZN10QtMobility22ServiceMetaDataResultsD1Ev.clean)
    i._ZN10QtMobility28DatabaseManagerSignalHandlerD0Ev 0x00015308   Section       24  databasemanagersignalhandler.o(i._ZN10QtMobility28DatabaseManagerSignalHandlerD0Ev)
    i._ZN10QtMobility28DatabaseManagerSignalHandlerD1Ev 0x00015320   Section       14  databasemanagersignalhandler.o(i._ZN10QtMobility28DatabaseManagerSignalHandlerD1Ev)
    i._ZN10QtMobility34DatabaseManagerServerSignalHandlerD0Ev 0x0001532e   Section       24  databasemanagerserver.o(i._ZN10QtMobility34DatabaseManagerServerSignalHandlerD0Ev)
    i._ZN10QtMobility34DatabaseManagerServerSignalHandlerD1Ev 0x00015346   Section       14  databasemanagerserver.o(i._ZN10QtMobility34DatabaseManagerServerSignalHandlerD1Ev)
    i._ZN10QtMobility34QServiceInterfaceDescriptorPrivateC1Ev 0x00015354   Section       60  servicedatabase.o(i._ZN10QtMobility34QServiceInterfaceDescriptorPrivateC1Ev)
    i._ZN10QtMobility34QServiceInterfaceDescriptorPrivateC1Ev.clean 0x00015390   Section       30  servicedatabase.o(i._ZN10QtMobility34QServiceInterfaceDescriptorPrivateC1Ev.clean)
    i._ZN10QtMobility34QServiceInterfaceDescriptorPrivateD1Ev 0x000153ae   Section       46  qserviceinterfacedescriptor.o(i._ZN10QtMobility34QServiceInterfaceDescriptorPrivateD1Ev)
    i._ZN10QtMobility34QServiceInterfaceDescriptorPrivateD1Ev.clean 0x000153dc   Section       30  qserviceinterfacedescriptor.o(i._ZN10QtMobility34QServiceInterfaceDescriptorPrivateD1Ev.clean)
    i._ZN10QtMobility7DBErrorD1Ev            0x000153fa   Section       14  servicedatabase.o(i._ZN10QtMobility7DBErrorD1Ev)
    i._ZN11QDataStreamlsEt                   0x00015408   Section       18  qserviceinterfacedescriptor.o(i._ZN11QDataStreamlsEt)
    i._ZN11QStringListC1Ev                   0x0001541a   Section       14  servicedatabase.o(i._ZN11QStringListC1Ev)
    i._ZN11QStringListD1Ev                   0x00015428   Section       14  servicemetadata.o(i._ZN11QStringListD1Ev)
    i._ZN11QStringListlsERK7QString          0x00015436   Section       18  servicedatabase.o(i._ZN11QStringListlsERK7QString)
    i._ZN15QBasicAtomicInt3refEv             0x00015448   Section       24  servicemetadata.o(i._ZN15QBasicAtomicInt3refEv)
    i._ZN15QBasicAtomicInt5derefEv           0x00015460   Section       24  servicemetadata.o(i._ZN15QBasicAtomicInt5derefEv)
    i._ZN17QForeachContainerI11QStringListED1Ev 0x00015478   Section       14  servicedatabase.o(i._ZN17QForeachContainerI11QStringListED1Ev)
    i._ZN17QForeachContainerI4QSetI7QStringEED1Ev 0x00015486   Section       14  databasemanagerserver.o(i._ZN17QForeachContainerI4QSetI7QStringEED1Ev)
    i._ZN17QForeachContainerI5QListI8QVariantEED1Ev 0x00015494   Section       14  servicedatabase.o(i._ZN17QForeachContainerI5QListI8QVariantEED1Ev)
    i._ZN17QForeachContainerI5QListIN10QtMobility27QServiceInterfaceDescriptorEEED1Ev 0x000154a2   Section       14  servicedatabase.o(i._ZN17QForeachContainerI5QListIN10QtMobility27QServiceInterfaceDescriptorEEED1Ev)
    i._ZN20QXmlStreamAttributesD1Ev          0x000154b0   Section       14  servicemetadata.o(i._ZN20QXmlStreamAttributesD1Ev)
    i._ZN4QSetI7QStringED1Ev                 0x000154be   Section       14  servicemetadata.o(i._ZN4QSetI7QStringED1Ev)
    i._ZN5CBasenwEj                          0x000154cc   Section       16  databasemanagerservermain.o(i._ZN5CBasenwEj)
    i._ZN5QPairI7QStringS0_EC1ERKS1_         0x000154dc   Section       30  servicedatabase.o(i._ZN5QPairI7QStringS0_EC1ERKS1_)
    i._ZN5QPairI7QStringS0_EC1ERKS1_.clean   0x000154fa   Section       10  servicedatabase.o(i._ZN5QPairI7QStringS0_EC1ERKS1_.clean)
    i._ZN5QPairI7QStringS0_ED1Ev             0x00015504   Section       22  servicedatabase.o(i._ZN5QPairI7QStringS0_ED1Ev)
    i._ZN5QPairI7QStringS0_ED1Ev.clean       0x0001551a   Section       10  servicedatabase.o(i._ZN5QPairI7QStringS0_ED1Ev.clean)
    i._ZN6QDebug10maybeSpaceEv               0x00015524   Section       24  servicemetadata.o(i._ZN6QDebug10maybeSpaceEv)
    i._ZN6QDebugD1Ev                         0x0001553c   Section      154  servicemetadata.o(i._ZN6QDebugD1Ev)
    i._ZN6QDebugD1Ev.clean                   0x000155d6   Section       20  servicemetadata.o(i._ZN6QDebugD1Ev.clean)
    i._ZN6QDebuglsEPKc                       0x000155ea   Section       44  servicemetadata.o(i._ZN6QDebuglsEPKc)
    i._ZN6QDebuglsEPKc.clean                 0x00015616   Section       10  servicemetadata.o(i._ZN6QDebuglsEPKc.clean)
    i._ZN6QDebuglsERK7QString                0x00015620   Section       38  servicemetadata.o(i._ZN6QDebuglsERK7QString)
    i._ZN6TPtr16C1ERKS_                      0x00015646   Section       14  databasemanagersession.o(i._ZN6TPtr16C1ERKS_)
    i._ZN7QString5clearEv                    0x00015654   Section       40  servicemetadata.o(i._ZN7QString5clearEv)
    i._ZN7QString5clearEv.clean              0x0001567c   Section       10  servicemetadata.o(i._ZN7QString5clearEv.clean)
    i._ZN7QString6appendEPKc                 0x00015686   Section       40  servicedatabase.o(i._ZN7QString6appendEPKc)
    i._ZN7QString6appendEPKc.clean           0x000156ae   Section       10  servicedatabase.o(i._ZN7QString6appendEPKc.clean)
    i._ZN7QStringC1EPKc                      0x000156b8   Section       22  servicemetadata.o(i._ZN7QStringC1EPKc)
    i._ZN7QStringC1ERK13QLatin1String        0x000156ce   Section       26  servicedatabase.o(i._ZN7QStringC1ERK13QLatin1String)
    i._ZN7QStringC1ERKS_                     0x000156e8   Section       22  servicemetadata.o(i._ZN7QStringC1ERKS_)
    i._ZN7QStringC1Ev                        0x00015700   Section       24  servicemetadata.o(i._ZN7QStringC1Ev)
    i._ZN7QStringD1Ev                        0x00015718   Section       24  servicemetadata.o(i._ZN7QStringD1Ev)
    i._ZN7QStringaSEPKc                      0x00015730   Section       40  servicedatabase.o(i._ZN7QStringaSEPKc)
    i._ZN7QStringaSEPKc.clean                0x00015758   Section       10  servicedatabase.o(i._ZN7QStringaSEPKc.clean)
    i._ZN8QVariantC1Ev                       0x00015762   Section       38  servicedatabase.o(i._ZN8QVariantC1Ev)
    i._ZN9QHashData8willGrowEv               0x00015788   Section       32  servicemetadata.o(i._ZN9QHashData8willGrowEv)
    i._ZN9QHashData9firstNodeEv              0x000157a8   Section       36  servicedatabase.o(i._ZN9QHashData9firstNodeEv)
    i._ZNK10QtMobility15ServiceDatabase9lastErrorEv 0x000157cc   Section       30  databasemanagersession.o(i._ZNK10QtMobility15ServiceDatabase9lastErrorEv)
    i._ZNK11QStringList8containsERK7QStringN2Qt15CaseSensitivityE 0x000157ea   Section       22  servicedatabase.o(i._ZNK11QStringList8containsERK7QStringN2Qt15CaseSensitivityE)
    i._ZNK15QBasicAtomicInteqEi              0x00015800   Section       16  servicedatabase.o(i._ZNK15QBasicAtomicInteqEi)
    i._ZNK15QBasicAtomicIntneEi              0x00015810   Section       16  servicemetadata.o(i._ZNK15QBasicAtomicIntneEi)
    i._ZNK16QXmlStreamReader12isEndElementEv 0x00015820   Section       22  servicemetadata.o(i._ZNK16QXmlStreamReader12isEndElementEv)
    i._ZNK16QXmlStreamReader14isStartElementEv 0x00015836   Section       22  servicemetadata.o(i._ZNK16QXmlStreamReader14isStartElementEv)
    i._ZNK20QXmlStreamAttributes12hasAttributeERK7QString 0x0001584c   Section       52  servicemetadata.o(i._ZNK20QXmlStreamAttributes12hasAttributeERK7QString)
    i._ZNK20QXmlStreamAttributes12hasAttributeERK7QString.clean 0x00015880   Section       10  servicemetadata.o(i._ZNK20QXmlStreamAttributes12hasAttributeERK7QString.clean)
    i._ZNK5QBoolcvPKvEv                      0x0001588a   Section       16  servicedatabase.o(i._ZNK5QBoolcvPKvEv)
    i._ZNK7QString3argEiiiRK5QChar           0x0001589a   Section       36  servicedatabase.o(i._ZNK7QString3argEiiiRK5QChar)
    i._ZNK7QString6isNullEv                  0x000158c0   Section       24  servicemetadata.o(i._ZNK7QString6isNullEv)
    i._ZNK7QString7isEmptyEv                 0x000158d8   Section       18  servicemetadata.o(i._ZNK7QString7isEmptyEv)
    i._ZNK7QStringeqEPKc                     0x000158ec   Section       76  servicedatabase.o(i._ZNK7QStringeqEPKc)
    i._ZNK7QStringeqEPKc.clean               0x00015938   Section       10  servicedatabase.o(i._ZNK7QStringeqEPKc.clean)
    i._ZNK7QStringneERKS_                    0x00015942   Section       20  servicedatabase.o(i._ZNK7QStringneERKS_)
    i._ZNK9QListData2atEi                    0x00015956   Section       20  servicemetadata.o(i._ZNK9QListData2atEi)
    i._ZNK9QListData3endEv                   0x0001596a   Section       16  servicemetadata.o(i._ZNK9QListData3endEv)
    i._ZNK9QListData4sizeEv                  0x0001597a   Section       14  databasemanagersession.o(i._ZNK9QListData4sizeEv)
    i._ZNK9QListData5beginEv                 0x00015988   Section       16  servicemetadata.o(i._ZNK9QListData5beginEv)
    i._ZdlPvS_                               0x00015998   Section        2  servicemetadata.o(i._ZdlPvS_)
    i._ZeqRK10QStringRefPKc                  0x0001599a   Section       16  servicemetadata.o(i._ZeqRK10QStringRefPKc)
    i._ZneRK10QStringRefPKc                  0x000159aa   Section       20  servicemetadata.o(i._ZneRK10QStringRefPKc)
    i._ZnwjPv                                0x000159be   Section        6  servicemetadata.o(i._ZnwjPv)
    i._ZplPKcRK7QString                      0x000159c4   Section       48  servicedatabase.o(i._ZplPKcRK7QString)
    i._ZplPKcRK7QString.clean                0x000159f4   Section       10  servicedatabase.o(i._ZplPKcRK7QString.clean)
    i._ZplRK7QString5QChar                   0x000159fe   Section      128  databasemanagerserver.o(i._ZplRK7QString5QChar)
    i._ZplRK7QString5QChar.clean             0x00015a7e   Section       10  databasemanagerserver.o(i._ZplRK7QString5QChar.clean)
    i._ZplRK7QStringPKc                      0x00015a88   Section       60  servicedatabase.o(i._ZplRK7QStringPKc)
    i._ZplRK7QStringPKc.clean                0x00015ac4   Section       16  servicedatabase.o(i._ZplRK7QStringPKc.clean)
    i._ZplRK7QStringS1_                      0x00015ad4   Section       44  servicemetadata.o(i._ZplRK7QStringS1_)
    i._ZplRK7QStringS1_.clean                0x00015b00   Section       10  servicemetadata.o(i._ZplRK7QStringS1_.clean)
    t._Z20qForeachContainerNewI11QStringListE17QForeachContainerIT_ERKS2_ 0x00015b0a   Section      132  servicedatabase.o(t._Z20qForeachContainerNewI11QStringListE17QForeachContainerIT_ERKS2_)
    t._Z20qForeachContainerNewI11QStringListE17QForeachContainerIT_ERKS2_.clean 0x00015b8e   Section       10  servicedatabase.o(t._Z20qForeachContainerNewI11QStringListE17QForeachContainerIT_ERKS2_.clean)
    t._Z20qForeachContainerNewI5QListIN10QtMobility27QServiceInterfaceDescriptorEEE17QForeachContainerIT_ERKS5_ 0x00015b98   Section      102  servicedatabase.o(t._Z20qForeachContainerNewI5QListIN10QtMobility27QServiceInterfaceDescriptorEEE17QForeachContainerIT_ERKS5_)
    t._Z20qForeachContainerNewI5QListIN10QtMobility27QServiceInterfaceDescriptorEEE17QForeachContainerIT_ERKS5_.clean 0x00015bfe   Section       10  servicedatabase.o(t._Z20qForeachContainerNewI5QListIN10QtMobility27QServiceInterfaceDescriptorEEE17QForeachContainerIT_ERKS5_.clean)
    t._Z9qMakePairI7QStringS0_E5QPairIT_T0_ERKS2_RKS3_ 0x00015c08   Section       34  servicedatabase.o(t._Z9qMakePairI7QStringS0_E5QPairIT_T0_ERKS2_RKS3_)
    t._Z9qMakePairI7QStringS0_E5QPairIT_T0_ERKS2_RKS3_.clean 0x00015c2a   Section       10  servicedatabase.o(t._Z9qMakePairI7QStringS0_E5QPairIT_T0_ERKS2_RKS3_.clean)
    t._ZN14QHashDummyNodeI7QString15QHashDummyValueEC1ERKS0_ 0x00015c34   Section       24  servicemetadata.o(t._ZN14QHashDummyNodeI7QString15QHashDummyValueEC1ERKS0_)
    t._ZN4QSetI7QStringE6insertERKS0_        0x00015c4c   Section       46  databasemanagerserver.o(t._ZN4QSetI7QStringE6insertERKS0_)
    t._ZN4QSetI7QStringE8subtractERKS1_      0x00015c7a   Section      204  databasemanagerserver.o(t._ZN4QSetI7QStringE8subtractERKS1_)
    t._ZN4QSetI7QStringE8subtractERKS1_.clean 0x00015d46   Section       16  databasemanagerserver.o(t._ZN4QSetI7QStringE8subtractERKS1_.clean)
    t._ZN4QSetI7QStringEC1ERKS1_             0x00015d56   Section       42  servicedatabase.o(t._ZN4QSetI7QStringEC1ERKS1_)
    t._ZN4QSetI7QStringEC1Ev                 0x00015d80   Section       14  servicemetadata.o(t._ZN4QSetI7QStringEC1Ev)
    t._ZN5QHashI7QString15QHashDummyValueE11deleteNode2EPN9QHashData4NodeE 0x00015d8e   Section       24  servicemetadata.o(t._ZN5QHashI7QString15QHashDummyValueE11deleteNode2EPN9QHashData4NodeE)
    t._ZN5QHashI7QString15QHashDummyValueE13detach_helperEv 0x00015da8   Section       60  servicemetadata.o(t._ZN5QHashI7QString15QHashDummyValueE13detach_helperEv)
    t._ZN5QHashI7QString15QHashDummyValueE13duplicateNodeEPN9QHashData4NodeEPv 0x00015de4   Section       44  servicemetadata.o(t._ZN5QHashI7QString15QHashDummyValueE13duplicateNodeEPN9QHashData4NodeEPv)
    t._ZN5QHashI7QString15QHashDummyValueE13duplicateNodeEPN9QHashData4NodeEPv.clean 0x00015e10   Section       12  servicemetadata.o(t._ZN5QHashI7QString15QHashDummyValueE13duplicateNodeEPN9QHashData4NodeEPv.clean)
    t._ZN5QHashI7QString15QHashDummyValueE6detachEv 0x00015e1c   Section       28  servicedatabase.o(t._ZN5QHashI7QString15QHashDummyValueE6detachEv)
    t._ZN5QHashI7QString15QHashDummyValueE6insertERKS0_RKS1_ 0x00015e38   Section      168  servicedatabase.o(t._ZN5QHashI7QString15QHashDummyValueE6insertERKS0_RKS1_)
    t._ZN5QHashI7QString15QHashDummyValueE6insertERKS0_RKS1_.clean 0x00015ee0   Section       12  servicedatabase.o(t._ZN5QHashI7QString15QHashDummyValueE6insertERKS0_RKS1_.clean)
    t._ZN5QHashI7QString15QHashDummyValueE6removeERKS0_ 0x00015eec   Section      248  servicedatabase.o(t._ZN5QHashI7QString15QHashDummyValueE6removeERKS0_)
    t._ZN5QHashI7QString15QHashDummyValueE8freeDataEP9QHashData 0x00015fe4   Section       20  servicemetadata.o(t._ZN5QHashI7QString15QHashDummyValueE8freeDataEP9QHashData)
    t._ZN5QHashI7QString15QHashDummyValueEC1Ev 0x00015ff8   Section       28  servicemetadata.o(t._ZN5QHashI7QString15QHashDummyValueEC1Ev)
    t._ZN5QHashI7QString15QHashDummyValueED1Ev 0x00016014   Section       30  servicemetadata.o(t._ZN5QHashI7QString15QHashDummyValueED1Ev)
    t._ZN5QHashI7QString15QHashDummyValueEaSERKS2_ 0x00016032   Section       70  servicedatabase.o(t._ZN5QHashI7QString15QHashDummyValueEaSERKS2_)
    t._ZN5QHashI7QStringS0_E10createNodeEjRKS0_S3_PP9QHashNodeIS0_S0_E 0x00016078   Section      100  qserviceinterfacedescriptor.o(t._ZN5QHashI7QStringS0_E10createNodeEjRKS0_S3_PP9QHashNodeIS0_S0_E)
    t._ZN5QHashI7QStringS0_E10createNodeEjRKS0_S3_PP9QHashNodeIS0_S0_E.clean 0x000160dc   Section       14  qserviceinterfacedescriptor.o(t._ZN5QHashI7QStringS0_E10createNodeEjRKS0_S3_PP9QHashNodeIS0_S0_E.clean)
    t._ZN5QHashI7QStringS0_E11deleteNode2EPN9QHashData4NodeE 0x000160ea   Section       36  servicemetadata.o(t._ZN5QHashI7QStringS0_E11deleteNode2EPN9QHashData4NodeE)
    t._ZN5QHashI7QStringS0_E11deleteNode2EPN9QHashData4NodeE.clean 0x0001610e   Section       12  servicemetadata.o(t._ZN5QHashI7QStringS0_E11deleteNode2EPN9QHashData4NodeE.clean)
    t._ZN5QHashI7QStringS0_E13detach_helperEv 0x0001611c   Section       60  servicemetadata.o(t._ZN5QHashI7QStringS0_E13detach_helperEv)
    t._ZN5QHashI7QStringS0_E13duplicateNodeEPN9QHashData4NodeEPv 0x00016158   Section       46  servicemetadata.o(t._ZN5QHashI7QStringS0_E13duplicateNodeEPN9QHashData4NodeEPv)
    t._ZN5QHashI7QStringS0_E13duplicateNodeEPN9QHashData4NodeEPv.clean 0x00016186   Section       14  servicemetadata.o(t._ZN5QHashI7QStringS0_E13duplicateNodeEPN9QHashData4NodeEPv.clean)
    t._ZN5QHashI7QStringS0_E14const_iteratorppEv 0x00016194   Section       16  servicedatabase.o(t._ZN5QHashI7QStringS0_E14const_iteratorppEv)
    t._ZN5QHashI7QStringS0_E5clearEv         0x000161a4   Section       28  qserviceinterfacedescriptor.o(t._ZN5QHashI7QStringS0_E5clearEv)
    t._ZN5QHashI7QStringS0_E5clearEv.clean   0x000161c0   Section       10  qserviceinterfacedescriptor.o(t._ZN5QHashI7QStringS0_E5clearEv.clean)
    t._ZN5QHashI7QStringS0_E6detachEv        0x000161ca   Section       28  qserviceinterfacedescriptor.o(t._ZN5QHashI7QStringS0_E6detachEv)
    t._ZN5QHashI7QStringS0_E6removeERKS0_    0x000161e6   Section      248  qservicefilter.o(t._ZN5QHashI7QStringS0_E6removeERKS0_)
    t._ZN5QHashI7QStringS0_E8freeDataEP9QHashData 0x000162e0   Section       20  servicemetadata.o(t._ZN5QHashI7QStringS0_E8freeDataEP9QHashData)
    t._ZN5QHashI7QStringS0_EC1Ev             0x000162f4   Section       28  servicedatabase.o(t._ZN5QHashI7QStringS0_EC1Ev)
    t._ZN5QHashI7QStringS0_ED1Ev             0x00016310   Section       30  servicedatabase.o(t._ZN5QHashI7QStringS0_ED1Ev)
    t._ZN5QHashI7QStringS0_EaSERKS1_         0x0001632e   Section       70  qserviceinterfacedescriptor.o(t._ZN5QHashI7QStringS0_EaSERKS1_)
    t._ZN5QHashI7QStringS0_EixERKS0_         0x00016374   Section      208  servicemetadata.o(t._ZN5QHashI7QStringS0_EixERKS0_)
    t._ZN5QHashI7QStringS0_EixERKS0_.clean   0x00016444   Section       24  servicemetadata.o(t._ZN5QHashI7QStringS0_EixERKS0_.clean)
    t._ZN5QHashI7QStringiE11deleteNode2EPN9QHashData4NodeE 0x0001645c   Section       24  servicemetadata.o(t._ZN5QHashI7QStringiE11deleteNode2EPN9QHashData4NodeE)
    t._ZN5QHashI7QStringiE13detach_helperEv  0x00016474   Section       60  servicemetadata.o(t._ZN5QHashI7QStringiE13detach_helperEv)
    t._ZN5QHashI7QStringiE13duplicateNodeEPN9QHashData4NodeEPv 0x000164b0   Section       46  servicemetadata.o(t._ZN5QHashI7QStringiE13duplicateNodeEPN9QHashData4NodeEPv)
    t._ZN5QHashI7QStringiE13duplicateNodeEPN9QHashData4NodeEPv.clean 0x000164de   Section       14  servicemetadata.o(t._ZN5QHashI7QStringiE13duplicateNodeEPN9QHashData4NodeEPv.clean)
    t._ZN5QHashI7QStringiE8freeDataEP9QHashData 0x000164ec   Section       20  servicemetadata.o(t._ZN5QHashI7QStringiE8freeDataEP9QHashData)
    t._ZN5QHashI7QStringiEC1Ev               0x00016500   Section       28  servicemetadata.o(t._ZN5QHashI7QStringiEC1Ev)
    t._ZN5QHashI7QStringiED1Ev               0x0001651c   Section       30  servicemetadata.o(t._ZN5QHashI7QStringiED1Ev)
    t._ZN5QHashI7QStringiEixERKS0_           0x0001653a   Section      182  servicemetadata.o(t._ZN5QHashI7QStringiEixERKS0_)
    t._ZN5QHashI7QStringiEixERKS0_.clean     0x000165f0   Section       14  servicemetadata.o(t._ZN5QHashI7QStringiEixERKS0_.clean)
    t._ZN5QHashIN10QtMobility27QServiceInterfaceDescriptor9AttributeE8QVariantE11deleteNode2EPN9QHashData4NodeE 0x000165fe   Section       24  servicemetadata.o(t._ZN5QHashIN10QtMobility27QServiceInterfaceDescriptor9AttributeE8QVariantE11deleteNode2EPN9QHashData4NodeE)
    t._ZN5QHashIN10QtMobility27QServiceInterfaceDescriptor9AttributeE8QVariantE13detach_helperEv 0x00016618   Section       60  servicemetadata.o(t._ZN5QHashIN10QtMobility27QServiceInterfaceDescriptor9AttributeE8QVariantE13detach_helperEv)
    t._ZN5QHashIN10QtMobility27QServiceInterfaceDescriptor9AttributeE8QVariantE13duplicateNodeEPN9QHashData4NodeEPv 0x00016654   Section       48  servicemetadata.o(t._ZN5QHashIN10QtMobility27QServiceInterfaceDescriptor9AttributeE8QVariantE13duplicateNodeEPN9QHashData4NodeEPv)
    t._ZN5QHashIN10QtMobility27QServiceInterfaceDescriptor9AttributeE8QVariantE13duplicateNodeEPN9QHashData4NodeEPv.clean 0x00016684   Section       14  servicemetadata.o(t._ZN5QHashIN10QtMobility27QServiceInterfaceDescriptor9AttributeE8QVariantE13duplicateNodeEPN9QHashData4NodeEPv.clean)
    t._ZN5QHashIN10QtMobility27QServiceInterfaceDescriptor9AttributeE8QVariantE5clearEv 0x00016692   Section       28  qserviceinterfacedescriptor.o(t._ZN5QHashIN10QtMobility27QServiceInterfaceDescriptor9AttributeE8QVariantE5clearEv)
    t._ZN5QHashIN10QtMobility27QServiceInterfaceDescriptor9AttributeE8QVariantE5clearEv.clean 0x000166ae   Section       10  qserviceinterfacedescriptor.o(t._ZN5QHashIN10QtMobility27QServiceInterfaceDescriptor9AttributeE8QVariantE5clearEv.clean)
    t._ZN5QHashIN10QtMobility27QServiceInterfaceDescriptor9AttributeE8QVariantE8freeDataEP9QHashData 0x000166b8   Section       20  servicemetadata.o(t._ZN5QHashIN10QtMobility27QServiceInterfaceDescriptor9AttributeE8QVariantE8freeDataEP9QHashData)
    t._ZN5QHashIN10QtMobility27QServiceInterfaceDescriptor9AttributeE8QVariantEC1Ev 0x000166cc   Section       28  servicedatabase.o(t._ZN5QHashIN10QtMobility27QServiceInterfaceDescriptor9AttributeE8QVariantEC1Ev)
    t._ZN5QHashIN10QtMobility27QServiceInterfaceDescriptor9AttributeE8QVariantED1Ev 0x000166e8   Section       30  servicemetadata.o(t._ZN5QHashIN10QtMobility27QServiceInterfaceDescriptor9AttributeE8QVariantED1Ev)
    t._ZN5QHashIN10QtMobility27QServiceInterfaceDescriptor9AttributeE8QVariantEaSERKS4_ 0x00016706   Section       70  qserviceinterfacedescriptor.o(t._ZN5QHashIN10QtMobility27QServiceInterfaceDescriptor9AttributeE8QVariantEaSERKS4_)
    t._ZN5QHashIN10QtMobility27QServiceInterfaceDescriptor9AttributeE8QVariantEixERKS2_ 0x0001674c   Section      208  servicedatabase.o(t._ZN5QHashIN10QtMobility27QServiceInterfaceDescriptor9AttributeE8QVariantEixERKS2_)
    t._ZN5QHashIN10QtMobility27QServiceInterfaceDescriptor9AttributeE8QVariantEixERKS2_.clean 0x0001681c   Section       24  servicedatabase.o(t._ZN5QHashIN10QtMobility27QServiceInterfaceDescriptor9AttributeE8QVariantEixERKS2_.clean)
    t._ZN5QListI5QPairI7QStringS1_EE13node_destructEPNS3_4NodeES5_ 0x00016834   Section       38  servicedatabase.o(t._ZN5QListI5QPairI7QStringS1_EE13node_destructEPNS3_4NodeES5_)
    t._ZN5QListI5QPairI7QStringS1_EE14node_constructEPNS3_4NodeERKS2_ 0x0001685a   Section       34  servicedatabase.o(t._ZN5QListI5QPairI7QStringS1_EE14node_constructEPNS3_4NodeERKS2_)
    t._ZN5QListI5QPairI7QStringS1_EE14node_constructEPNS3_4NodeERKS2_.clean 0x0001687c   Section       14  servicedatabase.o(t._ZN5QListI5QPairI7QStringS1_EE14node_constructEPNS3_4NodeERKS2_.clean)
    t._ZN5QListI5QPairI7QStringS1_EE18detach_helper_growEii 0x0001688a   Section      208  servicedatabase.o(t._ZN5QListI5QPairI7QStringS1_EE18detach_helper_growEii)
    t._ZN5QListI5QPairI7QStringS1_EE18detach_helper_growEii.clean 0x0001695a   Section       16  servicedatabase.o(t._ZN5QListI5QPairI7QStringS1_EE18detach_helper_growEii.clean)
    t._ZN5QListI5QPairI7QStringS1_EE4freeEPN9QListData4DataE 0x0001696a   Section       52  servicedatabase.o(t._ZN5QListI5QPairI7QStringS1_EE4freeEPN9QListData4DataE)
    t._ZN5QListI5QPairI7QStringS1_EE6appendERKS2_ 0x000169a0   Section      112  servicedatabase.o(t._ZN5QListI5QPairI7QStringS1_EE6appendERKS2_)
    t._ZN5QListI5QPairI7QStringS1_EE6appendERKS2_.clean 0x00016a10   Section       14  servicedatabase.o(t._ZN5QListI5QPairI7QStringS1_EE6appendERKS2_.clean)
    t._ZN5QListI5QPairI7QStringS1_EE9node_copyEPNS3_4NodeES5_S5_ 0x00016a1e   Section       92  servicedatabase.o(t._ZN5QListI5QPairI7QStringS1_EE9node_copyEPNS3_4NodeES5_S5_)
    t._ZN5QListI5QPairI7QStringS1_EE9node_copyEPNS3_4NodeES5_S5_.clean 0x00016a7a   Section       22  servicedatabase.o(t._ZN5QListI5QPairI7QStringS1_EE9node_copyEPNS3_4NodeES5_S5_.clean)
    t._ZN5QListI5QPairI7QStringS1_EED1Ev     0x00016a90   Section       32  servicedatabase.o(t._ZN5QListI5QPairI7QStringS1_EED1Ev)
    t._ZN5QListI7QStringE13detach_helperEi   0x00016ab0   Section       94  servicedatabase.o(t._ZN5QListI7QStringE13detach_helperEi)
    t._ZN5QListI7QStringE13detach_helperEi.clean 0x00016b0e   Section        8  servicedatabase.o(t._ZN5QListI7QStringE13detach_helperEi.clean)
    t._ZN5QListI7QStringE13detach_helperEv   0x00016b16   Section       16  servicemetadata.o(t._ZN5QListI7QStringE13detach_helperEv)
    t._ZN5QListI7QStringE13node_destructEPNS1_4NodeES3_ 0x00016b26   Section       26  servicedatabase.o(t._ZN5QListI7QStringE13node_destructEPNS1_4NodeES3_)
    t._ZN5QListI7QStringE14node_constructEPNS1_4NodeERKS0_ 0x00016b40   Section       36  servicedatabase.o(t._ZN5QListI7QStringE14node_constructEPNS1_4NodeERKS0_)
    t._ZN5QListI7QStringE14node_constructEPNS1_4NodeERKS0_.clean 0x00016b64   Section       14  servicedatabase.o(t._ZN5QListI7QStringE14node_constructEPNS1_4NodeERKS0_.clean)
    t._ZN5QListI7QStringE18detach_helper_growEii 0x00016b72   Section      208  servicedatabase.o(t._ZN5QListI7QStringE18detach_helper_growEii)
    t._ZN5QListI7QStringE18detach_helper_growEii.clean 0x00016c42   Section       16  servicedatabase.o(t._ZN5QListI7QStringE18detach_helper_growEii.clean)
    t._ZN5QListI7QStringE4freeEPN9QListData4DataE 0x00016c52   Section       52  servicedatabase.o(t._ZN5QListI7QStringE4freeEPN9QListData4DataE)
    t._ZN5QListI7QStringE5beginEv            0x00016c86   Section       40  databasemanagerserver.o(t._ZN5QListI7QStringE5beginEv)
    t._ZN5QListI7QStringE5clearEv            0x00016cae   Section       28  qservicefilter.o(t._ZN5QListI7QStringE5clearEv)
    t._ZN5QListI7QStringE5clearEv.clean      0x00016cca   Section       10  qservicefilter.o(t._ZN5QListI7QStringE5clearEv.clean)
    t._ZN5QListI7QStringE5firstEv            0x00016cd4   Section       50  servicedatabase.o(t._ZN5QListI7QStringE5firstEv)
    t._ZN5QListI7QStringE6appendERKS0_       0x00016d08   Section      120  servicedatabase.o(t._ZN5QListI7QStringE6appendERKS0_)
    t._ZN5QListI7QStringE6appendERKS0_.clean 0x00016d80   Section       14  servicedatabase.o(t._ZN5QListI7QStringE6appendERKS0_.clean)
    t._ZN5QListI7QStringE7reserveEi          0x00016d8e   Section       46  servicedatabase.o(t._ZN5QListI7QStringE7reserveEi)
    t._ZN5QListI7QStringE9node_copyEPNS1_4NodeES3_S3_ 0x00016dbc   Section       82  servicedatabase.o(t._ZN5QListI7QStringE9node_copyEPNS1_4NodeES3_S3_)
    t._ZN5QListI7QStringE9node_copyEPNS1_4NodeES3_S3_.clean 0x00016e0e   Section       22  servicedatabase.o(t._ZN5QListI7QStringE9node_copyEPNS1_4NodeES3_S3_.clean)
    t._ZN5QListI7QStringEC1ERKS1_            0x00016e24   Section       36  qservicefilter.o(t._ZN5QListI7QStringEC1ERKS1_)
    t._ZN5QListI7QStringEC1Ev                0x00016e48   Section       24  servicedatabase.o(t._ZN5QListI7QStringEC1Ev)
    t._ZN5QListI7QStringED1Ev                0x00016e60   Section       32  servicemetadata.o(t._ZN5QListI7QStringED1Ev)
    t._ZN5QListI7QStringEaSERKS1_            0x00016e80   Section       64  qservicefilter.o(t._ZN5QListI7QStringEaSERKS1_)
    t._ZN5QListI7QStringEixEi                0x00016ec0   Section       42  servicemetadata.o(t._ZN5QListI7QStringEixEi)
    t._ZN5QListI8QVariantE13detach_helperEi  0x00016eea   Section       94  servicedatabase.o(t._ZN5QListI8QVariantE13detach_helperEi)
    t._ZN5QListI8QVariantE13detach_helperEi.clean 0x00016f48   Section        8  servicedatabase.o(t._ZN5QListI8QVariantE13detach_helperEi.clean)
    t._ZN5QListI8QVariantE13detach_helperEv  0x00016f50   Section       16  servicedatabase.o(t._ZN5QListI8QVariantE13detach_helperEv)
    t._ZN5QListI8QVariantE13node_destructEPNS1_4NodeES3_ 0x00016f60   Section       38  servicedatabase.o(t._ZN5QListI8QVariantE13node_destructEPNS1_4NodeES3_)
    t._ZN5QListI8QVariantE14node_constructEPNS1_4NodeERKS0_ 0x00016f86   Section       34  servicedatabase.o(t._ZN5QListI8QVariantE14node_constructEPNS1_4NodeERKS0_)
    t._ZN5QListI8QVariantE14node_constructEPNS1_4NodeERKS0_.clean 0x00016fa8   Section       14  servicedatabase.o(t._ZN5QListI8QVariantE14node_constructEPNS1_4NodeERKS0_.clean)
    t._ZN5QListI8QVariantE18detach_helper_growEii 0x00016fb6   Section      208  servicedatabase.o(t._ZN5QListI8QVariantE18detach_helper_growEii)
    t._ZN5QListI8QVariantE18detach_helper_growEii.clean 0x00017086   Section       16  servicedatabase.o(t._ZN5QListI8QVariantE18detach_helper_growEii.clean)
    t._ZN5QListI8QVariantE4freeEPN9QListData4DataE 0x00017096   Section       52  servicedatabase.o(t._ZN5QListI8QVariantE4freeEPN9QListData4DataE)
    t._ZN5QListI8QVariantE5clearEv           0x000170ca   Section       76  servicedatabase.o(t._ZN5QListI8QVariantE5clearEv)
    t._ZN5QListI8QVariantE5clearEv.clean     0x00017116   Section       10  servicedatabase.o(t._ZN5QListI8QVariantE5clearEv.clean)
    t._ZN5QListI8QVariantE6appendERKS0_      0x00017120   Section      112  servicedatabase.o(t._ZN5QListI8QVariantE6appendERKS0_)
    t._ZN5QListI8QVariantE6appendERKS0_.clean 0x00017190   Section       14  servicedatabase.o(t._ZN5QListI8QVariantE6appendERKS0_.clean)
    t._ZN5QListI8QVariantE9node_copyEPNS1_4NodeES3_S3_ 0x0001719e   Section       92  servicedatabase.o(t._ZN5QListI8QVariantE9node_copyEPNS1_4NodeES3_S3_)
    t._ZN5QListI8QVariantE9node_copyEPNS1_4NodeES3_S3_.clean 0x000171fa   Section       22  servicedatabase.o(t._ZN5QListI8QVariantE9node_copyEPNS1_4NodeES3_S3_.clean)
    t._ZN5QListI8QVariantEC1Ev               0x00017210   Section       24  servicedatabase.o(t._ZN5QListI8QVariantEC1Ev)
    t._ZN5QListI8QVariantED1Ev               0x00017228   Section       32  servicedatabase.o(t._ZN5QListI8QVariantED1Ev)
    t._ZN5QListIN10QtMobility27QServiceInterfaceDescriptorEE13detach_helperEi 0x00017248   Section       94  servicemetadata.o(t._ZN5QListIN10QtMobility27QServiceInterfaceDescriptorEE13detach_helperEi)
    t._ZN5QListIN10QtMobility27QServiceInterfaceDescriptorEE13detach_helperEi.clean 0x000172a6   Section        8  servicemetadata.o(t._ZN5QListIN10QtMobility27QServiceInterfaceDescriptorEE13detach_helperEi.clean)
    t._ZN5QListIN10QtMobility27QServiceInterfaceDescriptorEE13detach_helperEv 0x000172ae   Section       16  servicemetadata.o(t._ZN5QListIN10QtMobility27QServiceInterfaceDescriptorEE13detach_helperEv)
    t._ZN5QListIN10QtMobility27QServiceInterfaceDescriptorEE13node_destructEPNS2_4NodeES4_ 0x000172be   Section       38  servicemetadata.o(t._ZN5QListIN10QtMobility27QServiceInterfaceDescriptorEE13node_destructEPNS2_4NodeES4_)
    t._ZN5QListIN10QtMobility27QServiceInterfaceDescriptorEE14node_constructEPNS2_4NodeERKS1_ 0x000172e4   Section       34  servicemetadata.o(t._ZN5QListIN10QtMobility27QServiceInterfaceDescriptorEE14node_constructEPNS2_4NodeERKS1_)
    t._ZN5QListIN10QtMobility27QServiceInterfaceDescriptorEE14node_constructEPNS2_4NodeERKS1_.clean 0x00017306   Section       14  servicemetadata.o(t._ZN5QListIN10QtMobility27QServiceInterfaceDescriptorEE14node_constructEPNS2_4NodeERKS1_.clean)
    t._ZN5QListIN10QtMobility27QServiceInterfaceDescriptorEE18detach_helper_growEii 0x00017314   Section      208  servicemetadata.o(t._ZN5QListIN10QtMobility27QServiceInterfaceDescriptorEE18detach_helper_growEii)
    t._ZN5QListIN10QtMobility27QServiceInterfaceDescriptorEE18detach_helper_growEii.clean 0x000173e4   Section       16  servicemetadata.o(t._ZN5QListIN10QtMobility27QServiceInterfaceDescriptorEE18detach_helper_growEii.clean)
    t._ZN5QListIN10QtMobility27QServiceInterfaceDescriptorEE4freeEPN9QListData4DataE 0x000173f4   Section       52  servicedatabase.o(t._ZN5QListIN10QtMobility27QServiceInterfaceDescriptorEE4freeEPN9QListData4DataE)
    t._ZN5QListIN10QtMobility27QServiceInterfaceDescriptorEE5clearEv 0x00017428   Section       28  servicemetadata.o(t._ZN5QListIN10QtMobility27QServiceInterfaceDescriptorEE5clearEv)
    t._ZN5QListIN10QtMobility27QServiceInterfaceDescriptorEE5clearEv.clean 0x00017444   Section       10  servicemetadata.o(t._ZN5QListIN10QtMobility27QServiceInterfaceDescriptorEE5clearEv.clean)
    t._ZN5QListIN10QtMobility27QServiceInterfaceDescriptorEE6appendERKS1_ 0x00017450   Section      112  servicemetadata.o(t._ZN5QListIN10QtMobility27QServiceInterfaceDescriptorEE6appendERKS1_)
    t._ZN5QListIN10QtMobility27QServiceInterfaceDescriptorEE6appendERKS1_.clean 0x000174c0   Section       14  servicemetadata.o(t._ZN5QListIN10QtMobility27QServiceInterfaceDescriptorEE6appendERKS1_.clean)
    t._ZN5QListIN10QtMobility27QServiceInterfaceDescriptorEE7reserveEi 0x000174ce   Section       46  servicemetadata.o(t._ZN5QListIN10QtMobility27QServiceInterfaceDescriptorEE7reserveEi)
    t._ZN5QListIN10QtMobility27QServiceInterfaceDescriptorEE9node_copyEPNS2_4NodeES4_S4_ 0x000174fc   Section       92  servicemetadata.o(t._ZN5QListIN10QtMobility27QServiceInterfaceDescriptorEE9node_copyEPNS2_4NodeES4_S4_)
    t._ZN5QListIN10QtMobility27QServiceInterfaceDescriptorEE9node_copyEPNS2_4NodeES4_S4_.clean 0x00017558   Section       22  servicemetadata.o(t._ZN5QListIN10QtMobility27QServiceInterfaceDescriptorEE9node_copyEPNS2_4NodeES4_S4_.clean)
    t._ZN5QListIN10QtMobility27QServiceInterfaceDescriptorEEC1ERKS2_ 0x0001756e   Section       36  servicedatabase.o(t._ZN5QListIN10QtMobility27QServiceInterfaceDescriptorEEC1ERKS2_)
    t._ZN5QListIN10QtMobility27QServiceInterfaceDescriptorEEC1Ev 0x00017594   Section       24  servicemetadata.o(t._ZN5QListIN10QtMobility27QServiceInterfaceDescriptorEEC1Ev)
    t._ZN5QListIN10QtMobility27QServiceInterfaceDescriptorEED1Ev 0x000175ac   Section       32  servicemetadata.o(t._ZN5QListIN10QtMobility27QServiceInterfaceDescriptorEED1Ev)
    t._ZN5QListIN10QtMobility27QServiceInterfaceDescriptorEEaSERKS2_ 0x000175cc   Section       64  servicemetadata.o(t._ZN5QListIN10QtMobility27QServiceInterfaceDescriptorEEaSERKS2_)
    t._ZN5QListIN10QtMobility27QServiceInterfaceDescriptorEEixEi 0x0001760c   Section       42  databasemanagersession.o(t._ZN5QListIN10QtMobility27QServiceInterfaceDescriptorEEixEi)
    t._ZN7QVectorI19QXmlStreamAttributeE4freeEP16QVectorTypedDataIS0_E 0x00017636   Section       54  servicemetadata.o(t._ZN7QVectorI19QXmlStreamAttributeE4freeEP16QVectorTypedDataIS0_E)
    t._ZN7QVectorI19QXmlStreamAttributeED1Ev 0x0001766c   Section       34  servicemetadata.o(t._ZN7QVectorI19QXmlStreamAttributeED1Ev)
    t._ZN8TPckgBufIiEC1ERKi                  0x0001768e   Section       46  databasemanagersession.o(t._ZN8TPckgBufIiEC1ERKi)
    t._ZN9QHashNodeI7QStringS0_EC1ERKS0_S3_  0x000176bc   Section       40  servicemetadata.o(t._ZN9QHashNodeI7QStringS0_EC1ERKS0_S3_)
    t._ZN9QHashNodeI7QStringS0_EC1ERKS0_S3_.clean 0x000176e4   Section       12  servicemetadata.o(t._ZN9QHashNodeI7QStringS0_EC1ERKS0_S3_.clean)
    t._ZN9QHashNodeI7QStringiEC1ERKS0_RKi    0x000176f0   Section       30  servicemetadata.o(t._ZN9QHashNodeI7QStringiEC1ERKS0_RKi)
    t._ZN9QHashNodeIN10QtMobility27QServiceInterfaceDescriptor9AttributeE8QVariantEC1ERKS2_RKS3_ 0x0001770e   Section       30  servicemetadata.o(t._ZN9QHashNodeIN10QtMobility27QServiceInterfaceDescriptor9AttributeE8QVariantEC1ERKS2_RKS3_)
    t._ZNK17QForeachContainerI11QStringListE9conditionEv 0x0001772c   Section       40  servicedatabase.o(t._ZNK17QForeachContainerI11QStringListE9conditionEv)
    t._ZNK17QForeachContainerI5QListIN10QtMobility27QServiceInterfaceDescriptorEEE9conditionEv 0x00017754   Section       40  servicedatabase.o(t._ZNK17QForeachContainerI5QListIN10QtMobility27QServiceInterfaceDescriptorEEE9conditionEv)
    t._ZNK4QSetI7QStringE14const_iteratorneERKS2_ 0x0001777c   Section       20  databasemanagerserver.o(t._ZNK4QSetI7QStringE14const_iteratorneERKS2_)
    t._ZNK4QSetI7QStringEmiERKS1_            0x00017790   Section       32  servicedatabase.o(t._ZNK4QSetI7QStringEmiERKS1_)
    t._ZNK4QSetI7QStringEmiERKS1_.clean      0x000177b0   Section       10  servicedatabase.o(t._ZNK4QSetI7QStringEmiERKS1_.clean)
    t._ZNK5QHashI7QString15QHashDummyValueE7isEmptyEv 0x000177ba   Section       18  servicedatabase.o(t._ZNK5QHashI7QString15QHashDummyValueE7isEmptyEv)
    t._ZNK5QHashI7QString15QHashDummyValueE8findNodeERKS0_Pj 0x000177cc   Section      116  servicemetadata.o(t._ZNK5QHashI7QString15QHashDummyValueE8findNodeERKS0_Pj)
    t._ZNK5QHashI7QStringS0_E10uniqueKeysEv  0x00017840   Section      158  servicedatabase.o(t._ZNK5QHashI7QStringS0_E10uniqueKeysEv)
    t._ZNK5QHashI7QStringS0_E10uniqueKeysEv.clean 0x000178de   Section       10  servicedatabase.o(t._ZNK5QHashI7QStringS0_E10uniqueKeysEv.clean)
    t._ZNK5QHashI7QStringS0_E14const_iteratorneERKS2_ 0x000178e8   Section       18  servicedatabase.o(t._ZNK5QHashI7QStringS0_E14const_iteratorneERKS2_)
    t._ZNK5QHashI7QStringS0_E4keysEv         0x000178fa   Section       94  qservicefilter.o(t._ZNK5QHashI7QStringS0_E4keysEv)
    t._ZNK5QHashI7QStringS0_E4keysEv.clean   0x00017958   Section       10  qservicefilter.o(t._ZNK5QHashI7QStringS0_E4keysEv.clean)
    t._ZNK5QHashI7QStringS0_E5beginEv        0x00017962   Section       44  qservicefilter.o(t._ZNK5QHashI7QStringS0_E5beginEv)
    t._ZNK5QHashI7QStringS0_E8findNodeERKS0_Pj 0x0001798e   Section      116  servicemetadata.o(t._ZNK5QHashI7QStringS0_E8findNodeERKS0_Pj)
    t._ZNK5QHashI7QStringS0_EeqERKS1_        0x00017a02   Section      274  qserviceinterfacedescriptor.o(t._ZNK5QHashI7QStringS0_EeqERKS1_)
    t._ZNK5QHashI7QStringiE8containsERKS0_   0x00017b14   Section       32  servicemetadata.o(t._ZNK5QHashI7QStringiE8containsERKS0_)
    t._ZNK5QHashI7QStringiE8findNodeERKS0_Pj 0x00017b34   Section      116  servicemetadata.o(t._ZNK5QHashI7QStringiE8findNodeERKS0_Pj)
    t._ZNK5QHashIN10QtMobility27QServiceInterfaceDescriptor9AttributeE8QVariantE14const_iteratorneERKS5_ 0x00017ba8   Section       18  qserviceinterfacedescriptor.o(t._ZNK5QHashIN10QtMobility27QServiceInterfaceDescriptor9AttributeE8QVariantE14const_iteratorneERKS5_)
    t._ZNK5QHashIN10QtMobility27QServiceInterfaceDescriptor9AttributeE8QVariantE8findNodeERKS2_Pj 0x00017bba   Section      100  servicemetadata.o(t._ZNK5QHashIN10QtMobility27QServiceInterfaceDescriptor9AttributeE8QVariantE8findNodeERKS2_Pj)
    t._ZNK5QHashIN10QtMobility27QServiceInterfaceDescriptor9AttributeE8QVariantEeqERKS4_ 0x00017c1e   Section      262  qserviceinterfacedescriptor.o(t._ZNK5QHashIN10QtMobility27QServiceInterfaceDescriptor9AttributeE8QVariantEeqERKS4_)
    t._ZNK5QListI7QStringE5countEv           0x00017d24   Section       16  servicedatabase.o(t._ZNK5QListI7QStringE5countEv)
    t._ZNK5QListI7QStringE5toSetEv           0x00017d34   Section      142  databasemanagerserver.o(t._ZNK5QListI7QStringE5toSetEv)
    t._ZNK5QListI7QStringE5toSetEv.clean     0x00017dc2   Section       10  databasemanagerserver.o(t._ZNK5QListI7QStringE5toSetEv.clean)
    t._ZNK5QListI7QStringE7isEmptyEv         0x00017dcc   Section       24  servicedatabase.o(t._ZNK5QListI7QStringE7isEmptyEv)
    t._ZNK5QListI7QStringEeqERKS1_           0x00017de4   Section      108  databasemanagersession.o(t._ZNK5QListI7QStringEeqERKS1_)
    t._ZNK5QListIN10QtMobility27QServiceInterfaceDescriptorEE2atEi 0x00017e50   Section       22  servicemetadata.o(t._ZNK5QListIN10QtMobility27QServiceInterfaceDescriptorEE2atEi)
    t._ZlsI7QStringER11QDataStreamS2_RK5QListIT_E 0x00017e66   Section       74  databasemanagersession.o(t._ZlsI7QStringER11QDataStreamS2_RK5QListIT_E)
    t._ZlsI7QStringS0_ER11QDataStreamS2_RK5QHashIT_T0_E 0x00017eb0   Section      106  qservicefilter.o(t._ZlsI7QStringS0_ER11QDataStreamS2_RK5QHashIT_T0_E)
    t._ZlsIN10QtMobility27QServiceInterfaceDescriptor9AttributeE8QVariantER11QDataStreamS5_RK5QHashIT_T0_E 0x00017f1a   Section      114  qserviceinterfacedescriptor.o(t._ZlsIN10QtMobility27QServiceInterfaceDescriptor9AttributeE8QVariantER11QDataStreamS5_RK5QHashIT_T0_E)
    t._ZlsIN10QtMobility27QServiceInterfaceDescriptorEER11QDataStreamS3_RK5QListIT_E 0x00017f8c   Section       76  databasemanagersession.o(t._ZlsIN10QtMobility27QServiceInterfaceDescriptorEER11QDataStreamS3_RK5QListIT_E)
    t._ZrsI7QStringER11QDataStreamS2_R5QListIT_E 0x00017fd8   Section       94  qservicefilter.o(t._ZrsI7QStringER11QDataStreamS2_R5QListIT_E)
    t._ZrsI7QStringER11QDataStreamS2_R5QListIT_E.clean 0x00018036   Section       10  qservicefilter.o(t._ZrsI7QStringER11QDataStreamS2_R5QListIT_E.clean)
    t._ZrsI7QStringS0_ER11QDataStreamS2_R5QHashIT_T0_E 0x00018040   Section      188  qserviceinterfacedescriptor.o(t._ZrsI7QStringS0_ER11QDataStreamS2_R5QHashIT_T0_E)
    t._ZrsI7QStringS0_ER11QDataStreamS2_R5QHashIT_T0_E.clean 0x000180fc   Section       16  qserviceinterfacedescriptor.o(t._ZrsI7QStringS0_ER11QDataStreamS2_R5QHashIT_T0_E.clean)
    t._ZrsIN10QtMobility27QServiceInterfaceDescriptor9AttributeE8QVariantER11QDataStreamS5_R5QHashIT_T0_E 0x0001810c   Section      274  qserviceinterfacedescriptor.o(t._ZrsIN10QtMobility27QServiceInterfaceDescriptor9AttributeE8QVariantER11QDataStreamS5_R5QHashIT_T0_E)
    t._ZrsIN10QtMobility27QServiceInterfaceDescriptor9AttributeE8QVariantER11QDataStreamS5_R5QHashIT_T0_E.clean 0x0001821e   Section       24  qserviceinterfacedescriptor.o(t._ZrsIN10QtMobility27QServiceInterfaceDescriptor9AttributeE8QVariantER11QDataStreamS5_R5QHashIT_T0_E.clean)
    t._ZrsIN10QtMobility27QServiceInterfaceDescriptorEER11QDataStreamS3_R5QListIT_E 0x00018236   Section       94  servicemetadata.o(t._ZrsIN10QtMobility27QServiceInterfaceDescriptorEER11QDataStreamS3_R5QListIT_E)
    t._ZrsIN10QtMobility27QServiceInterfaceDescriptorEER11QDataStreamS3_R5QListIT_E.clean 0x00018294   Section       10  servicemetadata.o(t._ZrsIN10QtMobility27QServiceInterfaceDescriptorEER11QDataStreamS3_R5QListIT_E.clean)
    .ARM.extab                               0x000182a0   Section       16  uc_exe_.o(.ARM.extab)
    .extab._ZN10QtMobility15ServiceMetaDataC1ERK7QString 0x000182b0   Data           0  servicemetadata.o(.ARM.extab)
    .extab._ZN10QtMobility15ServiceMetaDataC1EP9QIODevice 0x000182f8   Data           0  servicemetadata.o(.ARM.extab)
    .extab._ZN10QtMobility15ServiceMetaDataD1Ev 0x00018330   Data           0  servicemetadata.o(.ARM.extab)
    .extab._ZN10QtMobility15ServiceMetaData13clearMetadataEv 0x00018370   Data           0  servicemetadata.o(.ARM.extab)
    .extab._ZNK10QtMobility15ServiceMetaData12checkVersionERK7QString 0x00018390   Data           0  servicemetadata.o(.ARM.extab)
    .extab._ZNK10QtMobility15ServiceMetaData16transformVersionERK7QStringPiS4_ 0x000183b8   Data           0  servicemetadata.o(.ARM.extab)
    .extab._ZN10QtMobility15ServiceMetaData22latestInterfaceVersionERK7QString 0x000183e0   Data           0  servicemetadata.o(.ARM.extab)
    .extab._ZN10QtMobility15ServiceMetaData23processInterfaceElementER16QXmlStreamReader 0x00018418   Data           0  servicemetadata.o(.ARM.extab)
    .extab._ZN10QtMobility15ServiceMetaData21processServiceElementER16QXmlStreamReader 0x00018680   Data           0  servicemetadata.o(.ARM.extab)
    .extab._ZN10QtMobility15ServiceMetaData21processVersionElementER16QXmlStreamReader 0x00018710   Data           0  servicemetadata.o(.ARM.extab)
    .extab._ZN10QtMobility15ServiceMetaData15extractMetadataEv 0x00018780   Data           0  servicemetadata.o(.ARM.extab)
    .extab._ZNK10QtMobility15ServiceMetaData16latestInterfacesEv 0x00018938   Data           0  servicemetadata.o(.ARM.extab)
    .extab._ZNK10QtMobility15ServiceMetaData12parseResultsEv 0x00018948   Data           0  servicemetadata.o(.ARM.extab)
    .extab._ZplRK7QStringS1_                 0x00018988   Data           0  servicemetadata.o(.ARM.extab)
    .extab._Z23qStringComparisonHelperRK10QStringRefPKc 0x00018998   Data           0  servicemetadata.o(.ARM.extab)
    .extab._Z6qDebugv                        0x000189a8   Data           0  servicemetadata.o(.ARM.extab)
    .extab._ZN5QListIN10QtMobility27QServiceInterfaceDescriptorEE14node_constructEPNS2_4NodeERKS1_ 0x000189c0   Data           0  servicemetadata.o(.ARM.extab)
    .extab._ZN5QListIN10QtMobility27QServiceInterfaceDescriptorEE9node_copyEPNS2_4NodeES4_S4_ 0x000189d0   Data           0  servicemetadata.o(.ARM.extab)
    .extab._ZN5QListIN10QtMobility27QServiceInterfaceDescriptorEE18detach_helper_growEii 0x000189f4   Data           0  servicemetadata.o(.ARM.extab)
    .extab._ZN5QListIN10QtMobility27QServiceInterfaceDescriptorEE6appendERKS1_ 0x00018a24   Data           0  servicemetadata.o(.ARM.extab)
    .extab._ZN5QListIN10QtMobility27QServiceInterfaceDescriptorEE13detach_helperEi 0x00018a54   Data           0  servicemetadata.o(.ARM.extab)
    .extab._ZN5QListIN10QtMobility27QServiceInterfaceDescriptorEE5clearEv 0x00018a70   Data           0  servicemetadata.o(.ARM.extab)
    .extab._ZrsIN10QtMobility27QServiceInterfaceDescriptorEER11QDataStreamS3_R5QListIT_E 0x00018a80   Data           0  servicemetadata.o(.ARM.extab)
    .extab._ZN7QString5clearEv               0x00018a90   Data           0  servicemetadata.o(.ARM.extab)
    .extab._ZNK20QXmlStreamAttributes12hasAttributeERK7QString 0x00018aa0   Data           0  servicemetadata.o(.ARM.extab)
    .extab._ZN6QDebugD1Ev                    0x00018ab0   Data           0  servicemetadata.o(.ARM.extab)
    .extab._ZN6QDebuglsEPKc                  0x00018ad4   Data           0  servicemetadata.o(.ARM.extab)
    .extab._ZN9QHashNodeI7QStringS0_EC1ERKS0_S3_ 0x00018ae4   Data           0  servicemetadata.o(.ARM.extab)
    .extab._ZN5QHashI7QStringiEixERKS0_      0x00018af4   Data           0  servicemetadata.o(.ARM.extab)
    .extab._ZN10QtMobility22ServiceMetaDataResultsD1Ev 0x00018b0c   Data           0  servicemetadata.o(.ARM.extab)
    .extab._ZN5QHashI7QStringiE13duplicateNodeEPN9QHashData4NodeEPv 0x00018b34   Data           0  servicemetadata.o(.ARM.extab)
    .extab._ZN5QHashI7QString15QHashDummyValueE13duplicateNodeEPN9QHashData4NodeEPv 0x00018b44   Data           0  servicemetadata.o(.ARM.extab)
    .extab._ZN5QHashIN10QtMobility27QServiceInterfaceDescriptor9AttributeE8QVariantE13duplicateNodeEPN9QHashData4NodeEPv 0x00018b54   Data           0  servicemetadata.o(.ARM.extab)
    .extab._ZN5QHashI7QStringS0_E11deleteNode2EPN9QHashData4NodeE 0x00018b64   Data           0  servicemetadata.o(.ARM.extab)
    .extab._ZN5QHashI7QStringS0_E13duplicateNodeEPN9QHashData4NodeEPv 0x00018b74   Data           0  servicemetadata.o(.ARM.extab)
    .extab._ZN5QHashI7QStringS0_EixERKS0_    0x00018b84   Data           0  servicemetadata.o(.ARM.extab)
    .extab._ZN10QtMobility15ServiceDatabaseC1Ev 0x00018ba4   Data           0  servicedatabase.o(.ARM.extab)
    .extab._ZN10QtMobility15ServiceDatabase5closeEv 0x00018bc4   Data           0  servicedatabase.o(.ARM.extab)
    .extab._ZN10QtMobility15ServiceDatabaseD1Ev 0x00018bf4   Data           0  servicedatabase.o(.ARM.extab)
    .extab._ZN10QtMobility15ServiceDatabase19rollbackTransactionEP9QSqlQuery 0x00018c1c   Data           0  servicedatabase.o(.ARM.extab)
    .extab._ZN10QtMobility15ServiceDatabase17commitTransactionEP9QSqlQuery 0x00018c44   Data           0  servicedatabase.o(.ARM.extab)
    .extab._ZNK10QtMobility15ServiceDatabase12databasePathEv 0x00018c74   Data           0  servicedatabase.o(.ARM.extab)
    .extab._ZN10QtMobility15ServiceDatabase12executeQueryEP9QSqlQueryRK7QStringRK5QListI8QVariantE 0x00018d14   Data           0  servicedatabase.o(.ARM.extab)
    .extab._ZN10QtMobility15ServiceDatabase16beginTransactionEP9QSqlQueryNS0_15TransactionTypeE 0x00018e4c   Data           0  servicedatabase.o(.ARM.extab)
    .extab._ZN10QtMobility15ServiceDatabase12createTablesEv 0x00018eec   Data           0  servicedatabase.o(.ARM.extab)
    .extab._ZN10QtMobility15ServiceDatabase10dropTablesEv 0x0001902c   Data           0  servicedatabase.o(.ARM.extab)
    .extab._ZN10QtMobility15ServiceDatabase11checkTablesEv 0x00019194   Data           0  servicedatabase.o(.ARM.extab)
    .extab._ZN10QtMobility15ServiceDatabase4openEv 0x000191fc   Data           0  servicedatabase.o(.ARM.extab)
    .extab._ZN10QtMobility15ServiceDatabase15setDatabasePathERK7QString 0x0001936c   Data           0  servicedatabase.o(.ARM.extab)
    .extab._ZN10QtMobility15ServiceDatabase14getInterfaceIDEP9QSqlQueryRKNS_27QServiceInterfaceDescriptorE 0x0001937c   Data           0  servicedatabase.o(.ARM.extab)
    .extab._ZN10QtMobility15ServiceDatabase27populateInterfacePropertiesEPNS_27QServiceInterfaceDescriptorERK7QString 0x000194ac   Data           0  servicedatabase.o(.ARM.extab)
    .extab._ZN10QtMobility15ServiceDatabase25populateServicePropertiesEPNS_27QServiceInterfaceDescriptorERK7QString 0x0001968c   Data           0  servicedatabase.o(.ARM.extab)
    .extab._ZN10QtMobility15ServiceDatabase15checkConnectionEv 0x000197dc   Data           0  servicedatabase.o(.ARM.extab)
    .extab._ZN10QtMobility15ServiceDatabase16interfaceDefaultERK7QStringPS1_b 0x000197fc   Data           0  servicedatabase.o(.ARM.extab)
    .extab._ZN10QtMobility15ServiceDatabase19insertInterfaceDataEP9QSqlQueryRKNS_27QServiceInterfaceDescriptorERK7QString 0x00019b54   Data           0  servicedatabase.o(.ARM.extab)
    .extab._ZN10QtMobility15ServiceDatabase15registerServiceERKNS_22ServiceMetaDataResultsERK7QString 0x00019d6c   Data           0  servicedatabase.o(.ARM.extab)
    .extab._ZN10QtMobility15ServiceDatabase17unregisterServiceERK7QStringS3_ 0x0001a48c   Data           0  servicedatabase.o(.ARM.extab)
    .extab._ZN10QtMobility15ServiceDatabase18serviceInitializedERK7QStringS3_ 0x0001aa2c   Data           0  servicedatabase.o(.ARM.extab)
    .extab._ZN10QtMobility15ServiceDatabase13getInterfacesERKNS_14QServiceFilterE 0x0001ac2c   Data           0  servicedatabase.o(.ARM.extab)
    .extab._ZN10QtMobility15ServiceDatabase12getInterfaceERK7QString 0x0001b1bc   Data           0  servicedatabase.o(.ARM.extab)
    .extab._ZN10QtMobility15ServiceDatabase14getInterfaceIDERKNS_27QServiceInterfaceDescriptorE 0x0001b4cc   Data           0  servicedatabase.o(.ARM.extab)
    .extab._ZN10QtMobility15ServiceDatabase15getServiceNamesERK7QString 0x0001b514   Data           0  servicedatabase.o(.ARM.extab)
    .extab._ZN10QtMobility15ServiceDatabase19setInterfaceDefaultERKNS_27QServiceInterfaceDescriptorERK7QString 0x0001b62c   Data           0  servicedatabase.o(.ARM.extab)
    .extab._ZN10QtMobility15ServiceDatabase20externalDefaultsInfoEv 0x0001b90c   Data           0  servicedatabase.o(.ARM.extab)
    .extab._ZN10QtMobility15ServiceDatabase37removeExternalDefaultServiceInterfaceERK7QString 0x0001ba3c   Data           0  servicedatabase.o(.ARM.extab)
    .extab._ZplRK7QStringPKc                 0x0001bb9c   Data           0  servicedatabase.o(.ARM.extab)
    .extab._ZplPKcRK7QString                 0x0001bbbc   Data           0  servicedatabase.o(.ARM.extab)
    .extab._Z8qWarningv                      0x0001bbcc   Data           0  servicedatabase.o(.ARM.extab)
    .extab._Z20qForeachContainerNewI5QListIN10QtMobility27QServiceInterfaceDescriptorEEE17QForeachContainerIT_ERKS5_ 0x0001bbe4   Data           0  servicedatabase.o(.ARM.extab)
    .extab._Z9qMakePairI7QStringS0_E5QPairIT_T0_ERKS2_RKS3_ 0x0001bbf4   Data           0  servicedatabase.o(.ARM.extab)
    .extab._ZN5QListI8QVariantE9node_copyEPNS1_4NodeES3_S3_ 0x0001bc04   Data           0  servicedatabase.o(.ARM.extab)
    .extab._ZN5QListI8QVariantE13detach_helperEi 0x0001bc28   Data           0  servicedatabase.o(.ARM.extab)
    .extab._ZN5QListI7QStringE9node_copyEPNS1_4NodeES3_S3_ 0x0001bc44   Data           0  servicedatabase.o(.ARM.extab)
    .extab._ZN5QListI7QStringE13detach_helperEi 0x0001bc68   Data           0  servicedatabase.o(.ARM.extab)
    .extab._Z20qForeachContainerNewI11QStringListE17QForeachContainerIT_ERKS2_ 0x0001bc84   Data           0  servicedatabase.o(.ARM.extab)
    .extab._ZN7QStringaSEPKc                 0x0001bc94   Data           0  servicedatabase.o(.ARM.extab)
    .extab._ZN7QString6appendEPKc            0x0001bca4   Data           0  servicedatabase.o(.ARM.extab)
    .extab._ZNK7QStringeqEPKc                0x0001bcb4   Data           0  servicedatabase.o(.ARM.extab)
    .extab._ZN5QListI8QVariantE5clearEv      0x0001bcc4   Data           0  servicedatabase.o(.ARM.extab)
    .extab._ZN5QListI8QVariantE14node_constructEPNS1_4NodeERKS0_ 0x0001bcd4   Data           0  servicedatabase.o(.ARM.extab)
    .extab._ZN5QListI8QVariantE18detach_helper_growEii 0x0001bce4   Data           0  servicedatabase.o(.ARM.extab)
    .extab._ZN5QListI8QVariantE6appendERKS0_ 0x0001bd14   Data           0  servicedatabase.o(.ARM.extab)
    .extab._ZN5QListI7QStringE14node_constructEPNS1_4NodeERKS0_ 0x0001bd44   Data           0  servicedatabase.o(.ARM.extab)
    .extab._ZN5QListI7QStringE18detach_helper_growEii 0x0001bd54   Data           0  servicedatabase.o(.ARM.extab)
    .extab._ZN5QListI7QStringE6appendERKS0_  0x0001bd84   Data           0  servicedatabase.o(.ARM.extab)
    .extab._ZN5QPairI7QStringS0_EC1ERKS1_    0x0001bdb4   Data           0  servicedatabase.o(.ARM.extab)
    .extab._ZN5QListI5QPairI7QStringS1_EE14node_constructEPNS3_4NodeERKS2_ 0x0001bdc4   Data           0  servicedatabase.o(.ARM.extab)
    .extab._ZN5QListI5QPairI7QStringS1_EE9node_copyEPNS3_4NodeES5_S5_ 0x0001bdd4   Data           0  servicedatabase.o(.ARM.extab)
    .extab._ZN5QListI5QPairI7QStringS1_EE18detach_helper_growEii 0x0001bdf8   Data           0  servicedatabase.o(.ARM.extab)
    .extab._ZN5QListI5QPairI7QStringS1_EE6appendERKS2_ 0x0001be28   Data           0  servicedatabase.o(.ARM.extab)
    .extab._ZN5QHashI7QString15QHashDummyValueE6removeERKS0_ 0x0001be58   Data           0  servicedatabase.o(.ARM.extab)
    .extab._ZN5QHashIN10QtMobility27QServiceInterfaceDescriptor9AttributeE8QVariantEixERKS2_ 0x0001be6c   Data           0  servicedatabase.o(.ARM.extab)
    .extab._ZN10QtMobility34QServiceInterfaceDescriptorPrivateC1Ev 0x0001be8c   Data           0  servicedatabase.o(.ARM.extab)
    .extab._ZNK5QHashI7QStringS0_E10uniqueKeysEv 0x0001beac   Data           0  servicedatabase.o(.ARM.extab)
    .extab._ZN5QHashI7QString15QHashDummyValueE6insertERKS0_RKS1_ 0x0001bebc   Data           0  servicedatabase.o(.ARM.extab)
    .extab._ZN5QPairI7QStringS0_ED1Ev        0x0001becc   Data           0  servicedatabase.o(.ARM.extab)
    .extab._ZNK4QSetI7QStringEmiERKS1_       0x0001bedc   Data           0  servicedatabase.o(.ARM.extab)
    .extab._ZN10QtMobility27QServiceInterfaceDescriptoraSERKS0_ 0x0001beec   Data           0  qserviceinterfacedescriptor.o(.ARM.extab)
    .extab._ZNK10QtMobility27QServiceInterfaceDescriptor11serviceNameEv 0x0001befc   Data           0  qserviceinterfacedescriptor.o(.ARM.extab)
    .extab._ZNK10QtMobility27QServiceInterfaceDescriptor13interfaceNameEv 0x0001bf0c   Data           0  qserviceinterfacedescriptor.o(.ARM.extab)
    .extab._ZNK10QtMobility27QServiceInterfaceDescriptor15customAttributeERK7QString 0x0001bf1c   Data           0  qserviceinterfacedescriptor.o(.ARM.extab)
    .extab._ZNK10QtMobility27QServiceInterfaceDescriptor16customAttributesEv 0x0001bf2c   Data           0  qserviceinterfacedescriptor.o(.ARM.extab)
    .extab._ZN10QtMobilitylsE6QDebugRKNS_27QServiceInterfaceDescriptorE 0x0001bf3c   Data           0  qserviceinterfacedescriptor.o(.ARM.extab)
    .extab._ZN10QtMobilityrsER11QDataStreamRNS_27QServiceInterfaceDescriptorE 0x0001bf94   Data           0  qserviceinterfacedescriptor.o(.ARM.extab)
    .extab._ZN5QHashIN10QtMobility27QServiceInterfaceDescriptor9AttributeE8QVariantE5clearEv 0x0001bfbc   Data           0  qserviceinterfacedescriptor.o(.ARM.extab)
    .extab._ZrsIN10QtMobility27QServiceInterfaceDescriptor9AttributeE8QVariantER11QDataStreamS5_R5QHashIT_T0_E 0x0001bfcc   Data           0  qserviceinterfacedescriptor.o(.ARM.extab)
    .extab._ZN5QHashI7QStringS0_E5clearEv    0x0001bfec   Data           0  qserviceinterfacedescriptor.o(.ARM.extab)
    .extab._ZN5QHashI7QStringS0_E10createNodeEjRKS0_S3_PP9QHashNodeIS0_S0_E 0x0001bffc   Data           0  qserviceinterfacedescriptor.o(.ARM.extab)
    .extab._ZrsI7QStringS0_ER11QDataStreamS2_R5QHashIT_T0_E 0x0001c014   Data           0  qserviceinterfacedescriptor.o(.ARM.extab)
    .extab._ZN10QtMobility34QServiceInterfaceDescriptorPrivateD1Ev 0x0001c034   Data           0  qserviceinterfacedescriptor.o(.ARM.extab)
    .extab._ZN10QtMobility14QServiceFilterC1Ev 0x0001c054   Data           0  qservicefilter.o(.ARM.extab)
    .extab._ZN10QtMobility14QServiceFilterD1Ev 0x0001c064   Data           0  qservicefilter.o(.ARM.extab)
    .extab._ZN10QtMobility14QServiceFilterC1ERKS0_ 0x0001c084   Data           0  qservicefilter.o(.ARM.extab)
    .extab._ZN10QtMobility14QServiceFilter12setInterfaceERK7QStringS3_NS0_16VersionMatchRuleE 0x0001c094   Data           0  qservicefilter.o(.ARM.extab)
    .extab._ZN10QtMobility14QServiceFilterC1ERK7QStringS3_NS0_16VersionMatchRuleE 0x0001c0d4   Data           0  qservicefilter.o(.ARM.extab)
    .extab._ZNK10QtMobility14QServiceFilter16customAttributesEv 0x0001c0e4   Data           0  qservicefilter.o(.ARM.extab)
    .extab._ZN10QtMobilityrsER11QDataStreamRNS_14QServiceFilterE 0x0001c0f4   Data           0  qservicefilter.o(.ARM.extab)
    .extab._ZN5QListI7QStringE5clearEv       0x0001c10c   Data           0  qservicefilter.o(.ARM.extab)
    .extab._ZrsI7QStringER11QDataStreamS2_R5QListIT_E 0x0001c11c   Data           0  qservicefilter.o(.ARM.extab)
    .extab._ZN10QtMobility21QServiceFilterPrivateC1Ev 0x0001c12c   Data           0  qservicefilter.o(.ARM.extab)
    .extab._ZNK5QHashI7QStringS0_E4keysEv    0x0001c14c   Data           0  qservicefilter.o(.ARM.extab)
    .extab._ZN5QHashI7QStringS0_E6removeERKS0_ 0x0001c15c   Data           0  qservicefilter.o(.ARM.extab)
    .extab._ZN10QtMobility7DBErrorC1Ev       0x0001c170   Data           0  dberror.o(.ARM.extab)
    .extab.main                              0x0001c190   Data           0  databasemanagerservermain.o(.ARM.extab)
    .extab._ZN5CBasenwEj                     0x0001c1a8   Data           0  databasemanagerservermain.o(.ARM.extab)
    .extab._ZN10QtMobility22CDatabaseManagerServer16DiscoverServicesEv 0x0001c1b8   Data           0  databasemanagerserver.o(.ARM.extab)
    .extab._ZN10QtMobility22CDatabaseManagerServer10initDbPathEv 0x0001c488   Data           0  databasemanagerserver.o(.ARM.extab)
    .extab._ZN10QtMobility22CDatabaseManagerServerC1Ev 0x0001c620   Data           0  databasemanagerserver.o(.ARM.extab)
    .extab._ZNK10QtMobility22CDatabaseManagerServer11NewSessionLERK8TVersionRK9RMessage2 0x0001c6c8   Data           0  databasemanagerserver.o(.ARM.extab)
    .extab._ZplRK7QString5QChar              0x0001c6d8   Data           0  databasemanagerserver.o(.ARM.extab)
    .extab._ZNK5QListI7QStringE5toSetEv      0x0001c6e8   Data           0  databasemanagerserver.o(.ARM.extab)
    .extab._ZN4QSetI7QStringE8subtractERKS1_ 0x0001c6f8   Data           0  databasemanagerserver.o(.ARM.extab)
    .extab._ZN10QtMobility29CDatabaseManagerServerSession10ConstructLE7QString 0x0001c718   Data           0  databasemanagersession.o(.ARM.extab)
    .extab._ZN10QtMobility29CDatabaseManagerServerSessionC1ERNS_22CDatabaseManagerServerE 0x0001c738   Data           0  databasemanagersession.o(.ARM.extab)
    .extab._ZN10QtMobility29CDatabaseManagerServerSession5NewLCERNS_22CDatabaseManagerServerE7QString 0x0001c750   Data           0  databasemanagersession.o(.ARM.extab)
    .extab._ZN10QtMobility29CDatabaseManagerServerSession4NewLERNS_22CDatabaseManagerServerE7QString 0x0001c760   Data           0  databasemanagersession.o(.ARM.extab)
    .extab._ZN10QtMobility29CDatabaseManagerServerSessionD1Ev 0x0001c770   Data           0  databasemanagersession.o(.ARM.extab)
    .extab._ZN10QtMobility29CDatabaseManagerServerSession13LastErrorCodeEv 0x0001c788   Data           0  databasemanagersession.o(.ARM.extab)
    .extab._ZN10QtMobility29CDatabaseManagerServerSession20InterfaceDefaultSizeERK9RMessage2 0x0001c798   Data           0  databasemanagersession.o(.ARM.extab)
    .extab._ZN10QtMobility29CDatabaseManagerServerSession29SetChangeNotificationsEnabledERK9RMessage2 0x0001c810   Data           0  databasemanagersession.o(.ARM.extab)
    .extab._ZN10QtMobility29CDatabaseManagerServerSession21SetInterfaceDefault2LERK9RMessage2 0x0001c840   Data           0  databasemanagersession.o(.ARM.extab)
    .extab._ZN10QtMobility29CDatabaseManagerServerSession20SetInterfaceDefaultLERK9RMessage2 0x0001c8c0   Data           0  databasemanagersession.o(.ARM.extab)
    .extab._ZN10QtMobility29CDatabaseManagerServerSession17ServiceNamesSizeLERK9RMessage2 0x0001c9b8   Data           0  databasemanagersession.o(.ARM.extab)
    .extab._ZN10QtMobility29CDatabaseManagerServerSession15InterfacesSizeLERK9RMessage2 0x0001ca38   Data           0  databasemanagersession.o(.ARM.extab)
    .extab._ZN10QtMobility29CDatabaseManagerServerSession19ServiceInitializedLERK9RMessage2 0x0001cad8   Data           0  databasemanagersession.o(.ARM.extab)
    .extab._ZN10QtMobility29CDatabaseManagerServerSession18UnregisterServiceLERK9RMessage2 0x0001cb80   Data           0  databasemanagersession.o(.ARM.extab)
    .extab._ZN10QtMobility29CDatabaseManagerServerSession16RegisterServiceLERK9RMessage2 0x0001cc28   Data           0  databasemanagersession.o(.ARM.extab)
    .extab._ZN10QtMobility29CDatabaseManagerServerSession8ServiceLERK9RMessage2 0x0001cd10   Data           0  databasemanagersession.o(.ARM.extab)
    .extab._ZN10QtMobility29CDatabaseManagerServerSession15databaseChangedERK7QString 0x0001cd40   Data           0  databasemanagersession.o(.ARM.extab)
    .extab._Z13QtMainWrapperv                0x0001cd80   Data           0  qts60main_mcrt0.o(.ARM.extab)
    .extab.CallThrdProcEntry                 0x0001cdc4   Data           0  callfirstprocessfn.o(.ARM.extab)
    .extab._Z7E32Mainv                       0x0001cde0   Data           0  qts60main.o(.ARM.extab)
    .constdata$1                             0x0001ce10   Data           0  servicemetadata.o(.constdata)
    .constdata                               0x0001ce10   Section      140  servicemetadata.o(.constdata)
    .constdata$1                             0x0001ce9c   Data           0  servicedatabase.o(.constdata)
    .constdata                               0x0001ce9c   Section     3952  servicedatabase.o(.constdata)
    QtMobility::qt_meta_data_ServiceDatabase 0x0001ceac   Data         100  servicedatabase.o(.constdata)
    QtMobility::qt_meta_stringdata_ServiceDatabase 0x0001cf10   Data          76  servicedatabase.o(.constdata)
    .constdata$1                             0x0001de0c   Data           0  qabstractsecuritysession.o(.constdata)
    .constdata                               0x0001de0c   Section      102  qabstractsecuritysession.o(.constdata)
    QtMobility::qt_meta_data_QAbstractSecuritySession 0x0001de1c   Data          60  qabstractsecuritysession.o(.constdata)
    QtMobility::qt_meta_stringdata_QAbstractSecuritySession 0x0001de58   Data          26  qabstractsecuritysession.o(.constdata)
    .constdata$1                             0x0001de74   Data           0  qserviceinterfacedescriptor.o(.constdata)
    .constdata                               0x0001de74   Section       68  qserviceinterfacedescriptor.o(.constdata)
    .constdata$1                             0x0001deb8   Data           0  databasemanagerservermain.o(.constdata)
    KDatabaseManagerServerName               0x0001deb8   Data          60  databasemanagerservermain.o(.constdata)
    .constdata                               0x0001deb8   Section       60  databasemanagerservermain.o(.constdata)
    .constdata$1                             0x0001def4   Data           0  databasemanagerserver.o(.constdata)
    qt_meta_data_QtMobility__DatabaseManagerServerSignalHandler 0x0001def4   Data          80  databasemanagerserver.o(.constdata)
    .constdata                               0x0001def4   Section      244  databasemanagerserver.o(.constdata)
    qt_meta_stringdata_QtMobility__DatabaseManagerServerSignalHandler 0x0001df44   Data          77  databasemanagerserver.o(.constdata)
    KTxtServerPanic@_ZN10QtMobility22CDatabaseManagerServer11PanicServerE30TDatabaseManagerSerververPanic_0 0x0001dfa8   Data          64  databasemanagerserver.o(.constdata)
    .constdata$1                             0x0001dfe8   Data           0  databasemanagersession.o(.constdata)
    KUnknownOpCode                           0x0001dfe8   Data          36  databasemanagersession.o(.constdata)
    .constdata                               0x0001dfe8   Section       36  databasemanagersession.o(.constdata)
    .constdata$1                             0x0001e00c   Data           0  databasemanagersignalhandler.o(.constdata)
    .constdata                               0x0001e00c   Section      157  databasemanagersignalhandler.o(.constdata)
    QtMobility::qt_meta_data_DatabaseManagerSignalHandler 0x0001e01c   Data          80  databasemanagersignalhandler.o(.constdata)
    QtMobility::qt_meta_stringdata_DatabaseManagerSignalHandler 0x0001e06c   Data          61  databasemanagersignalhandler.o(.constdata)
    .constdata$1                             0x0001e0ac   Data           0  callfirstprocessfn.o(.constdata)
    KLitUser                                 0x0001e0ac   Data          16  callfirstprocessfn.o(.constdata)
    .constdata                               0x0001e0ac   Section       16  callfirstprocessfn.o(.constdata)
    .constdata__ZN9stlp_priv15_Integer_limitsIaLan128ELa127ELin1ELb1EE6digitsE 0x0001e0bc   Section        4  servicemetadata.o(.constdata__ZN9stlp_priv15_Integer_limitsIaLan128ELa127ELin1ELb1EE6digitsE)
    .constdata__ZN9stlp_priv15_Integer_limitsIbLb0ELb1ELi1ELb0EE6digitsE 0x0001e0c0   Section        4  servicemetadata.o(.constdata__ZN9stlp_priv15_Integer_limitsIbLb0ELb1ELi1ELb0EE6digitsE)
    .constdata__ZN9stlp_priv15_Integer_limitsIcLc128ELc127ELin1ELb1EE6digitsE 0x0001e0c4   Section        4  servicemetadata.o(.constdata__ZN9stlp_priv15_Integer_limitsIcLc128ELc127ELin1ELb1EE6digitsE)
    .constdata__ZN9stlp_priv15_Integer_limitsIhLh0ELh255ELin1ELb1EE6digitsE 0x0001e0c8   Section        4  servicemetadata.o(.constdata__ZN9stlp_priv15_Integer_limitsIhLh0ELh255ELin1ELb1EE6digitsE)
    .constdata__ZN9stlp_priv15_Integer_limitsIiLin2147483648ELi2147483647ELin1ELb1EE6digitsE 0x0001e0cc   Section        4  servicemetadata.o(.constdata__ZN9stlp_priv15_Integer_limitsIiLin2147483648ELi2147483647ELin1ELb1EE6digitsE)
    .constdata__ZN9stlp_priv15_Integer_limitsIiLin2147483648ELi2147483647ELin1ELb1EE9is_signedE 0x0001e0d0   Section        1  servicemetadata.o(.constdata__ZN9stlp_priv15_Integer_limitsIiLin2147483648ELi2147483647ELin1ELb1EE9is_signedE)
    .constdata__ZN9stlp_priv15_Integer_limitsIjLj0ELj4294967295ELin1ELb1EE6digitsE 0x0001e0d4   Section        4  servicemetadata.o(.constdata__ZN9stlp_priv15_Integer_limitsIjLj0ELj4294967295ELin1ELb1EE6digitsE)
    .constdata__ZN9stlp_priv15_Integer_limitsIlLln2147483648ELl2147483647ELin1ELb1EE6digitsE 0x0001e0d8   Section        4  servicemetadata.o(.constdata__ZN9stlp_priv15_Integer_limitsIlLln2147483648ELl2147483647ELin1ELb1EE6digitsE)
    .constdata__ZN9stlp_priv15_Integer_limitsImLm0ELm4294967295ELin1ELb1EE6digitsE 0x0001e0dc   Section        4  servicemetadata.o(.constdata__ZN9stlp_priv15_Integer_limitsImLm0ELm4294967295ELin1ELb1EE6digitsE)
    .constdata__ZN9stlp_priv15_Integer_limitsIsLsn32768ELs32767ELin1ELb1EE6digitsE 0x0001e0e0   Section        4  servicemetadata.o(.constdata__ZN9stlp_priv15_Integer_limitsIsLsn32768ELs32767ELin1ELb1EE6digitsE)
    .constdata__ZN9stlp_priv15_Integer_limitsItLt0ELt65535ELin1ELb1EE6digitsE 0x0001e0e4   Section        4  servicemetadata.o(.constdata__ZN9stlp_priv15_Integer_limitsItLt0ELt65535ELin1ELb1EE6digitsE)
    .constdata__ZN9stlp_priv15_Integer_limitsIwLw0ELw65535ELin1ELb1EE6digitsE 0x0001e0e8   Section        4  servicemetadata.o(.constdata__ZN9stlp_priv15_Integer_limitsIwLw0ELw65535ELin1ELb1EE6digitsE)
    .constdata__ZN9stlp_priv15_Integer_limitsIxLxn9223372036854775808ELx9223372036854775807ELin1ELb1EE6digitsE 0x0001e0ec   Section        4  servicemetadata.o(.constdata__ZN9stlp_priv15_Integer_limitsIxLxn9223372036854775808ELx9223372036854775807ELin1ELb1EE6digitsE)
    .constdata__ZN9stlp_priv15_Integer_limitsIyLy0ELy18446744073709551615ELin1ELb1EE6digitsE 0x0001e0f0   Section        4  servicemetadata.o(.constdata__ZN9stlp_priv15_Integer_limitsIyLy0ELy18446744073709551615ELin1ELb1EE6digitsE)
    .constdata__ZTIN10QtMobility15ServiceDatabaseE 0x0001e0f4   Section       12  servicedatabase.o(.constdata__ZTIN10QtMobility15ServiceDatabaseE)
    .constdata__ZTIN10QtMobility22CDatabaseManagerServerE 0x0001e100   Section       12  databasemanagerserver.o(.constdata__ZTIN10QtMobility22CDatabaseManagerServerE)
    .constdata__ZTIN10QtMobility23QServicePluginInterfaceE 0x0001e10c   Section        8  qserviceplugininterface.o(.constdata__ZTIN10QtMobility23QServicePluginInterfaceE)
    .constdata__ZTIN10QtMobility24QAbstractSecuritySessionE 0x0001e114   Section       12  qabstractsecuritysession.o(.constdata__ZTIN10QtMobility24QAbstractSecuritySessionE)
    .constdata__ZTIN10QtMobility28DatabaseManagerSignalHandlerE 0x0001e120   Section       12  databasemanagersignalhandler.o(.constdata__ZTIN10QtMobility28DatabaseManagerSignalHandlerE)
    .constdata__ZTIN10QtMobility29CDatabaseManagerServerSessionE 0x0001e12c   Section       12  databasemanagersession.o(.constdata__ZTIN10QtMobility29CDatabaseManagerServerSessionE)
    .constdata__ZTIN10QtMobility34DatabaseManagerServerSignalHandlerE 0x0001e138   Section       12  databasemanagerserver.o(.constdata__ZTIN10QtMobility34DatabaseManagerServerSignalHandlerE)
    .constdata__ZTSN10QtMobility15ServiceDatabaseE 0x0001e144   Section       32  servicedatabase.o(.constdata__ZTSN10QtMobility15ServiceDatabaseE)
    .constdata__ZTSN10QtMobility22CDatabaseManagerServerE 0x0001e164   Section       39  databasemanagerserver.o(.constdata__ZTSN10QtMobility22CDatabaseManagerServerE)
    .constdata__ZTSN10QtMobility23QServicePluginInterfaceE 0x0001e18b   Section       40  qserviceplugininterface.o(.constdata__ZTSN10QtMobility23QServicePluginInterfaceE)
    .constdata__ZTSN10QtMobility24QAbstractSecuritySessionE 0x0001e1b3   Section       41  qabstractsecuritysession.o(.constdata__ZTSN10QtMobility24QAbstractSecuritySessionE)
    .constdata__ZTSN10QtMobility28DatabaseManagerSignalHandlerE 0x0001e1dc   Section       45  databasemanagersignalhandler.o(.constdata__ZTSN10QtMobility28DatabaseManagerSignalHandlerE)
    .constdata__ZTSN10QtMobility29CDatabaseManagerServerSessionE 0x0001e209   Section       46  databasemanagersession.o(.constdata__ZTSN10QtMobility29CDatabaseManagerServerSessionE)
    .constdata__ZTSN10QtMobility34DatabaseManagerServerSignalHandlerE 0x0001e237   Section       51  databasemanagerserver.o(.constdata__ZTSN10QtMobility34DatabaseManagerServerSignalHandlerE)
    .constdata__ZTVN10QtMobility15ServiceDatabaseE 0x0001e26c   Section       56  servicedatabase.o(.constdata__ZTVN10QtMobility15ServiceDatabaseE)
    .constdata__ZTVN10QtMobility22CDatabaseManagerServerE 0x0001e2a4   Section       40  databasemanagerserver.o(.constdata__ZTVN10QtMobility22CDatabaseManagerServerE)
    .constdata__ZTVN10QtMobility23QServicePluginInterfaceE 0x0001e2cc   Section       28  qserviceplugininterface.o(.constdata__ZTVN10QtMobility23QServicePluginInterfaceE)
    .constdata__ZTVN10QtMobility24QAbstractSecuritySessionE 0x0001e2e8   Section       60  qabstractsecuritysession.o(.constdata__ZTVN10QtMobility24QAbstractSecuritySessionE)
    .constdata__ZTVN10QtMobility28DatabaseManagerSignalHandlerE 0x0001e324   Section       56  databasemanagersignalhandler.o(.constdata__ZTVN10QtMobility28DatabaseManagerSignalHandlerE)
    .constdata__ZTVN10QtMobility29CDatabaseManagerServerSessionE 0x0001e35c   Section       40  databasemanagersession.o(.constdata__ZTVN10QtMobility29CDatabaseManagerServerSessionE)
    .constdata__ZTVN10QtMobility34DatabaseManagerServerSignalHandlerE 0x0001e384   Section       56  databasemanagerserver.o(.constdata__ZTVN10QtMobility34DatabaseManagerServerSignalHandlerE)
    .ARM.exidx                               0x0001e3bc   Section        8  uc_exe_.o(.ARM.exidx)
    .ARM.exidx                               0x0001e3c4   Section        8  qts60main_mcrt0.o(.ARM.exidx)
    .ARM.exidx                               0x0001f0b4   Number         8  ucppinit.o(.ARM.exidx)
    .data__ZNSt19_Atomic_swap_structILi1EE12_S_swap_lockE 0x00400000   Section       12  servicemetadata.o(.data__ZNSt19_Atomic_swap_structILi1EE12_S_swap_lockE)

    Global Symbols

    Symbol Name                              Value     Ov Type        Size  Object(Section)

    BuildAttributes$$THUMB_ISAv2$ARM_ISAv5$M$VFPv2$PE$A:L22$X:L11$S22$IEEE1$IW$USESV6$~STKCKD$USESV7$~SHL$OSPACE$ROPI$IEEEJ$EBA8$UX$FPIC$INDIRECT$REQ8$PRES8$EABIv2 0x00000000   Number         0  anon$$obj.o ABSOLUTE
    QtCore{00040703}[2001b2dc].dll           0x00000000   Data           0  anon$$obj.o ABSOLUTE
    QtSql{00040703}[2001e61d].dll            0x00000000   Data           0  anon$$obj.o ABSOLUTE
    drtaeabi{000a0000}.dll                   0x00000000   Data           0  anon$$obj.o ABSOLUTE
    euser{000a0000}[100039e5].dll            0x00000000   Data           0  anon$$obj.o ABSOLUTE
    libc{00010001}[10207369].dll             0x00000000   Data           0  anon$$obj.o ABSOLUTE
    qsfwdatabasemanagerserver{000a0000}[2002ac7f].exe 0x00000000   Data           0  anon$$obj.o ABSOLUTE
    stdnew{000a0000}[20022178].dll           0x00000000   Data           0  anon$$obj.o ABSOLUTE
    SHT$$INIT_ARRAY$$Base                     - Undefined Weak Reference
    SHT$$INIT_ARRAY$$Limit                    - Undefined Weak Reference
    qt_message_output(QtMsgType, const char*)  - Undefined Reference
    _Z17qt_message_output9QtMsgTypePKc@QtCore{00040703}[2001b2dc].dll  - Undefined Reference
    qt_symbian_SetupThreadHeap(int, SStdEpocThreadCreateInfo&)  - Undefined Reference
    _Z26qt_symbian_SetupThreadHeapiR24SStdEpocThreadCreateInfo@QtCore{00040703}[2001b2dc].dll  - Undefined Reference
    qt_symbian_exception2Error(const std::exception&)  - Undefined Reference
    _Z26qt_symbian_exception2ErrorRKSt9exception@QtCore{00040703}[2001b2dc].dll  - Undefined Reference
    qFree(void*)                              - Undefined Reference
    _Z5qFreePv@QtCore{00040703}[2001b2dc].dll  - Undefined Reference
    qHash(const QString&)                     - Undefined Reference
    _Z5qHashRK7QString@QtCore{00040703}[2001b2dc].dll  - Undefined Reference
    __crt0(int&, char**&, char**&)            - Undefined Reference
    _Z6__crt0RiRPPcS2_@libc{00010001}[10207369].dll  - Undefined Reference
    qsrand(unsigned)                          - Undefined Reference
    _Z6qsrandj@QtCore{00040703}[2001b2dc].dll  - Undefined Reference
    qVersion()                                - Undefined Reference
    _Z8qVersionv@QtCore{00040703}[2001b2dc].dll  - Undefined Reference
    qBadAlloc()                               - Undefined Reference
    _Z9qBadAllocv@QtCore{00040703}[2001b2dc].dll  - Undefined Reference
    QByteArray::shared_null                   - Undefined Reference
    _ZN10QByteArray11shared_nullE@QtCore{00040703}[2001b2dc].dll  - Undefined Reference
    QByteArray::realloc(int)                  - Undefined Reference
    _ZN10QByteArray7reallocEi@QtCore{00040703}[2001b2dc].dll  - Undefined Reference
    QByteArray::QByteArray(const char*, int)  - Undefined Reference
    _ZN10QByteArrayC1EPKci@QtCore{00040703}[2001b2dc].dll  - Undefined Reference
    QDataStream::resetStatus()                - Undefined Reference
    _ZN11QDataStream11resetStatusEv@QtCore{00040703}[2001b2dc].dll  - Undefined Reference
    QDataStream::setStatus(QDataStream::Status)  - Undefined Reference
    _ZN11QDataStream9setStatusENS_6StatusE@QtCore{00040703}[2001b2dc].dll  - Undefined Reference
    QDataStream::QDataStream(QByteArray*, QFlags<QIODevice::OpenModeFlag>)  - Undefined Reference
    _ZN11QDataStreamC1EP10QByteArray6QFlagsIN9QIODevice12OpenModeFlagEE@QtCore{00040703}[2001b2dc].dll  - Undefined Reference
    QDataStream::QDataStream(const QByteArray&)  - Undefined Reference
    _ZN11QDataStreamC1ERK10QByteArray@QtCore{00040703}[2001b2dc].dll  - Undefined Reference
    QDataStream::~QDataStream()               - Undefined Reference
    _ZN11QDataStreamD1Ev@QtCore{00040703}[2001b2dc].dll  - Undefined Reference
    QDataStream::operator <<(signed char)     - Undefined Reference
    _ZN11QDataStreamlsEa@QtCore{00040703}[2001b2dc].dll  - Undefined Reference
    QDataStream::operator <<(int)             - Undefined Reference
    _ZN11QDataStreamlsEi@QtCore{00040703}[2001b2dc].dll  - Undefined Reference
    QDataStream::operator <<(short)           - Undefined Reference
    _ZN11QDataStreamlsEs@QtCore{00040703}[2001b2dc].dll  - Undefined Reference
    QDataStream::operator >>(signed char&)    - Undefined Reference
    _ZN11QDataStreamrsERa@QtCore{00040703}[2001b2dc].dll  - Undefined Reference
    QDataStream::operator >>(int&)            - Undefined Reference
    _ZN11QDataStreamrsERi@QtCore{00040703}[2001b2dc].dll  - Undefined Reference
    QDataStream::operator >>(short&)          - Undefined Reference
    _ZN11QDataStreamrsERs@QtCore{00040703}[2001b2dc].dll  - Undefined Reference
    QMetaObject::activate(QObject*, const QMetaObject*, int, void**)  - Undefined Reference
    _ZN11QMetaObject8activateEP7QObjectPKS_iPPv@QtCore{00040703}[2001b2dc].dll  - Undefined Reference
    QTextStream::QTextStream(QString*, QFlags<QIODevice::OpenModeFlag>)  - Undefined Reference
    _ZN11QTextStreamC1EP7QString6QFlagsIN9QIODevice12OpenModeFlagEE@QtCore{00040703}[2001b2dc].dll  - Undefined Reference
    QTextStream::~QTextStream()               - Undefined Reference
    _ZN11QTextStreamD1Ev@QtCore{00040703}[2001b2dc].dll  - Undefined Reference
    QTextStream::operator <<(const QString&)  - Undefined Reference
    _ZN11QTextStreamlsERK7QString@QtCore{00040703}[2001b2dc].dll  - Undefined Reference
    QTextStream::operator <<(char)            - Undefined Reference
    _ZN11QTextStreamlsEc@QtCore{00040703}[2001b2dc].dll  - Undefined Reference
    QVectorData::free(QVectorData*, int)      - Undefined Reference
    _ZN11QVectorData4freeEPS_i@QtCore{00040703}[2001b2dc].dll  - Undefined Reference
    CTrapCleanup::New()                       - Undefined Reference
    _ZN12CTrapCleanup3NewEv@euser{000a0000}[100039e5].dll  - Undefined Reference
    CleanupStack::Pop()                       - Undefined Reference
    _ZN12CleanupStack3PopEv@euser{000a0000}[100039e5].dll  - Undefined Reference
    CleanupStack::Check(void*)                - Undefined Reference
    _ZN12CleanupStack5CheckEPv@euser{000a0000}[100039e5].dll  - Undefined Reference
    CleanupStack::PushL(CBase*)               - Undefined Reference
    _ZN12CleanupStack5PushLEP5CBase@euser{000a0000}[100039e5].dll  - Undefined Reference
    QSqlDatabase::addDatabase(const QString&, const QString&)  - Undefined Reference
    _ZN12QSqlDatabase11addDatabaseERK7QStringS2_@QtSql{00040703}[2001e61d].dll  - Undefined Reference
    QSqlDatabase::setDatabaseName(const QString&)  - Undefined Reference
    _ZN12QSqlDatabase15setDatabaseNameERK7QString@QtSql{00040703}[2001e61d].dll  - Undefined Reference
    QSqlDatabase::open()                      - Undefined Reference
    _ZN12QSqlDatabase4openEv@QtSql{00040703}[2001e61d].dll  - Undefined Reference
    QSqlDatabase::close()                     - Undefined Reference
    _ZN12QSqlDatabase5closeEv@QtSql{00040703}[2001e61d].dll  - Undefined Reference
    QSqlDatabase::contains(const QString&)    - Undefined Reference
    _ZN12QSqlDatabase8containsERK7QString@QtSql{00040703}[2001e61d].dll  - Undefined Reference
    QSqlDatabase::database(const QString&, bool)  - Undefined Reference
    _ZN12QSqlDatabase8databaseERK7QStringb@QtSql{00040703}[2001e61d].dll  - Undefined Reference
    QSqlDatabase::QSqlDatabase(const QSqlDatabase&)  - Undefined Reference
    _ZN12QSqlDatabaseC1ERKS_@QtSql{00040703}[2001e61d].dll  - Undefined Reference
    QSqlDatabase::QSqlDatabase()              - Undefined Reference
    _ZN12QSqlDatabaseC1Ev@QtSql{00040703}[2001e61d].dll  - Undefined Reference
    QSqlDatabase::~QSqlDatabase()             - Undefined Reference
    _ZN12QSqlDatabaseD1Ev@QtSql{00040703}[2001e61d].dll  - Undefined Reference
    QSqlDatabase::operator =(const QSqlDatabase&)  - Undefined Reference
    _ZN12QSqlDatabaseaSERKS_@QtSql{00040703}[2001e61d].dll  - Undefined Reference
    QCoreApplication::applicationDirPath()    - Undefined Reference
    _ZN16QCoreApplication18applicationDirPathEv@QtCore{00040703}[2001b2dc].dll  - Undefined Reference
    QCoreApplication::exec()                  - Undefined Reference
    _ZN16QCoreApplication4execEv@QtCore{00040703}[2001b2dc].dll  - Undefined Reference
    QCoreApplication::exit(int)               - Undefined Reference
    _ZN16QCoreApplication4exitEi@QtCore{00040703}[2001b2dc].dll  - Undefined Reference
    QCoreApplication::QCoreApplication(int&, char**)  - Undefined Reference
    _ZN16QCoreApplicationC1ERiPPc@QtCore{00040703}[2001b2dc].dll  - Undefined Reference
    QCoreApplication::~QCoreApplication()     - Undefined Reference
    _ZN16QCoreApplicationD1Ev@QtCore{00040703}[2001b2dc].dll  - Undefined Reference
    QXmlStreamReader::readElementText()       - Undefined Reference
    _ZN16QXmlStreamReader15readElementTextEv@QtCore{00040703}[2001b2dc].dll  - Undefined Reference
    QXmlStreamReader::readNext()              - Undefined Reference
    _ZN16QXmlStreamReader8readNextEv@QtCore{00040703}[2001b2dc].dll  - Undefined Reference
    QXmlStreamReader::setDevice(QIODevice*)   - Undefined Reference
    _ZN16QXmlStreamReader9setDeviceEP9QIODevice@QtCore{00040703}[2001b2dc].dll  - Undefined Reference
    QXmlStreamReader::QXmlStreamReader()      - Undefined Reference
    _ZN16QXmlStreamReaderC1Ev@QtCore{00040703}[2001b2dc].dll  - Undefined Reference
    QXmlStreamReader::~QXmlStreamReader()     - Undefined Reference
    _ZN16QXmlStreamReaderD1Ev@QtCore{00040703}[2001b2dc].dll  - Undefined Reference
    QFileSystemWatcher::removePath(const QString&)  - Undefined Reference
    _ZN18QFileSystemWatcher10removePathERK7QString@QtCore{00040703}[2001b2dc].dll  - Undefined Reference
    QFileSystemWatcher::addPath(const QString&)  - Undefined Reference
    _ZN18QFileSystemWatcher7addPathERK7QString@QtCore{00040703}[2001b2dc].dll  - Undefined Reference
    QFileSystemWatcher::QFileSystemWatcher(QObject*)  - Undefined Reference
    _ZN18QFileSystemWatcherC1EP7QObject@QtCore{00040703}[2001b2dc].dll  - Undefined Reference
    QXmlStreamAttribute::~QXmlStreamAttribute()  - Undefined Reference
    _ZN19QXmlStreamAttributeD1Ev@QtCore{00040703}[2001b2dc].dll  - Undefined Reference
    TCppRTExceptionsGlobals::TCppRTExceptionsGlobals()  - Undefined Reference
    _ZN23TCppRTExceptionsGlobalsC1Ev@drtaeabi{000a0000}.dll  - Undefined Reference
    QDir::setNameFilters(const QStringList&)  - Undefined Reference
    _ZN4QDir14setNameFiltersERK11QStringList@QtCore{00040703}[2001b2dc].dll  - Undefined Reference
    QDir::toNativeSeparators(const QString&)  - Undefined Reference
    _ZN4QDir18toNativeSeparatorsERK7QString@QtCore{00040703}[2001b2dc].dll  - Undefined Reference
    QDir::rootPath()                          - Undefined Reference
    _ZN4QDir8rootPathEv@QtCore{00040703}[2001b2dc].dll  - Undefined Reference
    QDir::separator()                         - Undefined Reference
    _ZN4QDir9separatorEv@QtCore{00040703}[2001b2dc].dll  - Undefined Reference
    QDir::setFilter(QFlags<QDir::Filter>)     - Undefined Reference
    _ZN4QDir9setFilterE6QFlagsINS_6FilterEE@QtCore{00040703}[2001b2dc].dll  - Undefined Reference
    QDir::QDir(const QString&)                - Undefined Reference
    _ZN4QDirC1ERK7QString@QtCore{00040703}[2001b2dc].dll  - Undefined Reference
    QDir::~QDir()                             - Undefined Reference
    _ZN4QDirD1Ev@QtCore{00040703}[2001b2dc].dll  - Undefined Reference
    User::InitProcess()                       - Undefined Reference
    _ZN4User11InitProcessEv@euser{000a0000}[100039e5].dll  - Undefined Reference
    User::LeaveIfError(int)                   - Undefined Reference
    _ZN4User12LeaveIfErrorEi@euser{000a0000}[100039e5].dll  - Undefined Reference
    User::HandleException(void*)              - Undefined Reference
    _ZN4User15HandleExceptionEPv@euser{000a0000}[100039e5].dll  - Undefined Reference
    User::MarkCleanupStack()                  - Undefined Reference
    _ZN4User16MarkCleanupStackEv@euser{000a0000}[100039e5].dll  - Undefined Reference
    User::UnMarkCleanupStack(TTrapHandler*)   - Undefined Reference
    _ZN4User18UnMarkCleanupStackEP12TTrapHandler@euser{000a0000}[100039e5].dll  - Undefined Reference
    User::QueryVersionSupported(const TVersion&, const TVersion&)  - Undefined Reference
    _ZN4User21QueryVersionSupportedERK8TVersionS2_@euser{000a0000}[100039e5].dll  - Undefined Reference
    User::Exit(int)                           - Undefined Reference
    _ZN4User4ExitEi@euser{000a0000}[100039e5].dll  - Undefined Reference
    User::Leave(int)                          - Undefined Reference
    _ZN4User5LeaveEi@euser{000a0000}[100039e5].dll  - Undefined Reference
    User::Panic(const TDesC16&, int)          - Undefined Reference
    _ZN4User5PanicERK7TDesC16i@euser{000a0000}[100039e5].dll  - Undefined Reference
    User::AllocZ(int)                         - Undefined Reference
    _ZN4User6AllocZEi@euser{000a0000}[100039e5].dll  - Undefined Reference
    User::AllocZL(int)                        - Undefined Reference
    _ZN4User7AllocZLEi@euser{000a0000}[100039e5].dll  - Undefined Reference
    User::Invariant()                         - Undefined Reference
    _ZN4User9InvariantEv@euser{000a0000}[100039e5].dll  - Undefined Reference
    User::LockedDec(int&)                     - Undefined Reference
    _ZN4User9LockedDecERi@euser{000a0000}[100039e5].dll  - Undefined Reference
    User::LockedInc(int&)                     - Undefined Reference
    _ZN4User9LockedIncERi@euser{000a0000}[100039e5].dll  - Undefined Reference
    QChar::QChar(char)                        - Undefined Reference
    _ZN5QCharC1Ec@QtCore{00040703}[2001b2dc].dll  - Undefined Reference
    QFile::open(QFlags<QIODevice::OpenModeFlag>)  - Undefined Reference
    _ZN5QFile4openE6QFlagsIN9QIODevice12OpenModeFlagEE@QtCore{00040703}[2001b2dc].dll  - Undefined Reference
    QFile::close()                            - Undefined Reference
    _ZN5QFile5closeEv@QtCore{00040703}[2001b2dc].dll  - Undefined Reference
    QFile::remove()                           - Undefined Reference
    _ZN5QFile6removeEv@QtCore{00040703}[2001b2dc].dll  - Undefined Reference
    QFile::QFile(const QString&)              - Undefined Reference
    _ZN5QFileC1ERK7QString@QtCore{00040703}[2001b2dc].dll  - Undefined Reference
    QFile::~QFile()                           - Undefined Reference
    _ZN5QFileD1Ev@QtCore{00040703}[2001b2dc].dll  - Undefined Reference
    QTime::currentTime()                      - Undefined Reference
    _ZN5QTime11currentTimeEv@QtCore{00040703}[2001b2dc].dll  - Undefined Reference
    QUuid::createUuid()                       - Undefined Reference
    _ZN5QUuid10createUuidEv@QtCore{00040703}[2001b2dc].dll  - Undefined Reference
    HBufC8::Des()                             - Undefined Reference
    _ZN6HBufC83DesEv@euser{000a0000}[100039e5].dll  - Undefined Reference
    HBufC8::New(int)                          - Undefined Reference
    _ZN6HBufC83NewEi@euser{000a0000}[100039e5].dll  - Undefined Reference
    TPtrC8::TPtrC8(const unsigned char*, int)  - Undefined Reference
    _ZN6TPtrC8C1EPKhi@euser{000a0000}[100039e5].dll  - Undefined Reference
    CActive::Cancel()                         - Undefined Reference
    _ZN7CActive6CancelEv@euser{000a0000}[100039e5].dll  - Undefined Reference
    HBufC16::Des()                            - Undefined Reference
    _ZN7HBufC163DesEv@euser{000a0000}[100039e5].dll  - Undefined Reference
    HBufC16::New(int)                         - Undefined Reference
    _ZN7HBufC163NewEi@euser{000a0000}[100039e5].dll  - Undefined Reference
    QObject::childEvent(QChildEvent*)         - Undefined Reference
    _ZN7QObject10childEventEP11QChildEvent@QtCore{00040703}[2001b2dc].dll  - Undefined Reference
    QObject::timerEvent(QTimerEvent*)         - Undefined Reference
    _ZN7QObject10timerEventEP11QTimerEvent@QtCore{00040703}[2001b2dc].dll  - Undefined Reference
    QObject::customEvent(QEvent*)             - Undefined Reference
    _ZN7QObject11customEventEP6QEvent@QtCore{00040703}[2001b2dc].dll  - Undefined Reference
    QObject::eventFilter(QObject*, QEvent*)   - Undefined Reference
    _ZN7QObject11eventFilterEPS_P6QEvent@QtCore{00040703}[2001b2dc].dll  - Undefined Reference
    QObject::qt_metacall(QMetaObject::Call, int, void**)  - Undefined Reference
    _ZN7QObject11qt_metacallEN11QMetaObject4CallEiPPv@QtCore{00040703}[2001b2dc].dll  - Undefined Reference
    QObject::qt_metacast(const char*)         - Undefined Reference
    _ZN7QObject11qt_metacastEPKc@QtCore{00040703}[2001b2dc].dll  - Undefined Reference
    QObject::connectNotify(const char*)       - Undefined Reference
    _ZN7QObject13connectNotifyEPKc@QtCore{00040703}[2001b2dc].dll  - Undefined Reference
    QObject::disconnectNotify(const char*)    - Undefined Reference
    _ZN7QObject16disconnectNotifyEPKc@QtCore{00040703}[2001b2dc].dll  - Undefined Reference
    QObject::staticMetaObject                 - Undefined Reference
    _ZN7QObject16staticMetaObjectE@QtCore{00040703}[2001b2dc].dll  - Undefined Reference
    QObject::event(QEvent*)                   - Undefined Reference
    _ZN7QObject5eventEP6QEvent@QtCore{00040703}[2001b2dc].dll  - Undefined Reference
    QObject::connect(const QObject*, const char*, const QObject*, const char*, Qt::ConnectionType)  - Undefined Reference
    _ZN7QObject7connectEPKS_PKcS1_S3_N2Qt14ConnectionTypeE@QtCore{00040703}[2001b2dc].dll  - Undefined Reference
    QObject::QObject(QObject*)                - Undefined Reference
    _ZN7QObjectC1EPS_@QtCore{00040703}[2001b2dc].dll  - Undefined Reference
    QObject::~QObject()                       - Undefined Reference
    _ZN7QObjectD1Ev@QtCore{00040703}[2001b2dc].dll  - Undefined Reference
    QRegExp::capturedTexts()                  - Undefined Reference
    _ZN7QRegExp13capturedTextsEv@QtCore{00040703}[2001b2dc].dll  - Undefined Reference
    QRegExp::QRegExp(const QString&, Qt::CaseSensitivity, QRegExp::PatternSyntax)  - Undefined Reference
    _ZN7QRegExpC1ERK7QStringN2Qt15CaseSensitivityENS_13PatternSyntaxE@QtCore{00040703}[2001b2dc].dll  - Undefined Reference
    QRegExp::~QRegExp()                       - Undefined Reference
    _ZN7QRegExpD1Ev@QtCore{00040703}[2001b2dc].dll  - Undefined Reference
    QString::shared_null                      - Undefined Reference
    _ZN7QString11shared_nullE@QtCore{00040703}[2001b2dc].dll  - Undefined Reference
    QString::codecForCStrings                 - Undefined Reference
    _ZN7QString16codecForCStringsE@QtCore{00040703}[2001b2dc].dll  - Undefined Reference
    QString::fromAscii_helper(const char*, int)  - Undefined Reference
    _ZN7QString16fromAscii_helperEPKci@QtCore{00040703}[2001b2dc].dll  - Undefined Reference
    QString::fromLatin1_helper(const char*, int)  - Undefined Reference
    _ZN7QString17fromLatin1_helperEPKci@QtCore{00040703}[2001b2dc].dll  - Undefined Reference
    QString::free(QString::Data*)             - Undefined Reference
    _ZN7QString4freeEPNS_4DataE@QtCore{00040703}[2001b2dc].dll  - Undefined Reference
    QString::grow(int)                        - Undefined Reference
    _ZN7QString4growEi@QtCore{00040703}[2001b2dc].dll  - Undefined Reference
    QString::append(const QString&)           - Undefined Reference
    _ZN7QString6appendERKS_@QtCore{00040703}[2001b2dc].dll  - Undefined Reference
    QString::number(int, int)                 - Undefined Reference
    _ZN7QString6numberEii@QtCore{00040703}[2001b2dc].dll  - Undefined Reference
    QString::number(unsigned long, int)       - Undefined Reference
    _ZN7QString6numberEmi@QtCore{00040703}[2001b2dc].dll  - Undefined Reference
    QString::remove(int, int)                 - Undefined Reference
    _ZN7QString6removeEii@QtCore{00040703}[2001b2dc].dll  - Undefined Reference
    QString::realloc(int)                     - Undefined Reference
    _ZN7QString7reallocEi@QtCore{00040703}[2001b2dc].dll  - Undefined Reference
    QString::fromAscii(const char*, int)      - Undefined Reference
    _ZN7QString9fromAsciiEPKci@QtCore{00040703}[2001b2dc].dll  - Undefined Reference
    QString::fromUtf16(const unsigned short*, int)  - Undefined Reference
    _ZN7QString9fromUtf16EPKti@QtCore{00040703}[2001b2dc].dll  - Undefined Reference
    QString::QString(QChar)                   - Undefined Reference
    _ZN7QStringC1E5QChar@QtCore{00040703}[2001b2dc].dll  - Undefined Reference
    QString::operator =(const QString&)       - Undefined Reference
    _ZN7QStringaSERKS_@QtCore{00040703}[2001b2dc].dll  - Undefined Reference
    TPtrC16::TPtrC16(const unsigned short*)   - Undefined Reference
    _ZN7TPtrC16C1EPKt@euser{000a0000}[100039e5].dll  - Undefined Reference
    UserSvr::DllSetTls(int, int, void*)       - Undefined Reference
    _ZN7UserSvr9DllSetTlsEiiPv@euser{000a0000}[100039e5].dll  - Undefined Reference
    CServer2::Extension_(unsigned, void*&, void*)  - Undefined Reference
    _ZN8CServer210Extension_EjRPvS0_@euser{000a0000}[100039e5].dll  - Undefined Reference
    CServer2::RunL()                          - Undefined Reference
    _ZN8CServer24RunLEv@euser{000a0000}[100039e5].dll  - Undefined Reference
    CServer2::Start(const TDesC16&)           - Undefined Reference
    _ZN8CServer25StartERK7TDesC16@euser{000a0000}[100039e5].dll  - Undefined Reference
    CServer2::DoCancel()                      - Undefined Reference
    _ZN8CServer28DoCancelEv@euser{000a0000}[100039e5].dll  - Undefined Reference
    CServer2::RunError(int)                   - Undefined Reference
    _ZN8CServer28RunErrorEi@euser{000a0000}[100039e5].dll  - Undefined Reference
    CServer2::DoConnect(const RMessage2&)     - Undefined Reference
    _ZN8CServer29DoConnectERK9RMessage2@euser{000a0000}[100039e5].dll  - Undefined Reference
    CServer2::CServer2__sub_object(int, CServer2::TServerType)  - Undefined Reference
    _ZN8CServer2C2EiNS_11TServerTypeE@euser{000a0000}[100039e5].dll  - Undefined Reference
    CServer2::~CServer2__sub_object()         - Undefined Reference
    _ZN8CServer2D2Ev@euser{000a0000}[100039e5].dll  - Undefined Reference
    QVariant::QVariant(const char*)           - Undefined Reference
    _ZN8QVariantC1EPKc@QtCore{00040703}[2001b2dc].dll  - Undefined Reference
    QVariant::QVariant(const QStringList&)    - Undefined Reference
    _ZN8QVariantC1ERK11QStringList@QtCore{00040703}[2001b2dc].dll  - Undefined Reference
    QVariant::QVariant(const QString&)        - Undefined Reference
    _ZN8QVariantC1ERK7QString@QtCore{00040703}[2001b2dc].dll  - Undefined Reference
    QVariant::QVariant(const QDateTime&)      - Undefined Reference
    _ZN8QVariantC1ERK9QDateTime@QtCore{00040703}[2001b2dc].dll  - Undefined Reference
    QVariant::QVariant(const QVariant&)       - Undefined Reference
    _ZN8QVariantC1ERKS_@QtCore{00040703}[2001b2dc].dll  - Undefined Reference
    QVariant::QVariant(int)                   - Undefined Reference
    _ZN8QVariantC1Ei@QtCore{00040703}[2001b2dc].dll  - Undefined Reference
    QVariant::~QVariant()                     - Undefined Reference
    _ZN8QVariantD1Ev@QtCore{00040703}[2001b2dc].dll  - Undefined Reference
    QVariant::operator =(const QVariant&)     - Undefined Reference
    _ZN8QVariantaSERKS_@QtCore{00040703}[2001b2dc].dll  - Undefined Reference
    RProcess::Rendezvous(int)                 - Undefined Reference
    _ZN8RProcess10RendezvousEi@euser{000a0000}[100039e5].dll  - Undefined Reference
    TVersion::TVersion(int, int, int)         - Undefined Reference
    _ZN8TVersionC1Eiii@euser{000a0000}[100039e5].dll  - Undefined Reference
    CPeriodic::NewL(int)                      - Undefined Reference
    _ZN9CPeriodic4NewLEi@euser{000a0000}[100039e5].dll  - Undefined Reference
    CPeriodic::Start(TTimeIntervalMicroSeconds32, TTimeIntervalMicroSeconds32, TCallBack)  - Undefined Reference
    _ZN9CPeriodic5StartE27TTimeIntervalMicroSeconds32S0_9TCallBack@euser{000a0000}[100039e5].dll  - Undefined Reference
    CSession2::Disconnect(const RMessage2&)   - Undefined Reference
    _ZN9CSession210DisconnectERK9RMessage2@euser{000a0000}[100039e5].dll  - Undefined Reference
    CSession2::Extension_(unsigned, void*&, void*)  - Undefined Reference
    _ZN9CSession210Extension_EjRPvS0_@euser{000a0000}[100039e5].dll  - Undefined Reference
    CSession2::ServiceError(const RMessage2&, int)  - Undefined Reference
    _ZN9CSession212ServiceErrorERK9RMessage2i@euser{000a0000}[100039e5].dll  - Undefined Reference
    CSession2::CountResources()               - Undefined Reference
    _ZN9CSession214CountResourcesEv@euser{000a0000}[100039e5].dll  - Undefined Reference
    CSession2::CreateL()                      - Undefined Reference
    _ZN9CSession27CreateLEv@euser{000a0000}[100039e5].dll  - Undefined Reference
    CSession2::CSession2__sub_object()        - Undefined Reference
    _ZN9CSession2C2Ev@euser{000a0000}[100039e5].dll  - Undefined Reference
    CSession2::~CSession2__sub_object()       - Undefined Reference
    _ZN9CSession2D2Ev@euser{000a0000}[100039e5].dll  - Undefined Reference
    QDateTime::~QDateTime()                   - Undefined Reference
    _ZN9QDateTimeD1Ev@QtCore{00040703}[2001b2dc].dll  - Undefined Reference
    QFileInfo::QFileInfo(const QFile&)        - Undefined Reference
    _ZN9QFileInfoC1ERK5QFile@QtCore{00040703}[2001b2dc].dll  - Undefined Reference
    QFileInfo::QFileInfo(const QString&)      - Undefined Reference
    _ZN9QFileInfoC1ERK7QString@QtCore{00040703}[2001b2dc].dll  - Undefined Reference
    QFileInfo::~QFileInfo()                   - Undefined Reference
    _ZN9QFileInfoD1Ev@QtCore{00040703}[2001b2dc].dll  - Undefined Reference
    QHashData::free_helper(void(*)(QHashData::Node*))  - Undefined Reference
    _ZN9QHashData11free_helperEPFvPNS_4NodeEE@QtCore{00040703}[2001b2dc].dll  - Undefined Reference
    QHashData::shared_null                    - Undefined Reference
    _ZN9QHashData11shared_nullE@QtCore{00040703}[2001b2dc].dll  - Undefined Reference
    QHashData::allocateNode(int)              - Undefined Reference
    _ZN9QHashData12allocateNodeEi@QtCore{00040703}[2001b2dc].dll  - Undefined Reference
    QHashData::previousNode(QHashData::Node*)  - Undefined Reference
    _ZN9QHashData12previousNodeEPNS_4NodeE@QtCore{00040703}[2001b2dc].dll  - Undefined Reference
    QHashData::detach_helper2(void(*)(QHashData::Node*, void*), void(*)(QHashData::Node*), int, int)  - Undefined Reference
    _ZN9QHashData14detach_helper2EPFvPNS_4NodeEPvEPFvS1_Eii@QtCore{00040703}[2001b2dc].dll  - Undefined Reference
    QHashData::rehash(int)                    - Undefined Reference
    _ZN9QHashData6rehashEi@QtCore{00040703}[2001b2dc].dll  - Undefined Reference
    QHashData::freeNode(void*)                - Undefined Reference
    _ZN9QHashData8freeNodeEPv@QtCore{00040703}[2001b2dc].dll  - Undefined Reference
    QHashData::nextNode(QHashData::Node*)     - Undefined Reference
    _ZN9QHashData8nextNodeEPNS_4NodeE@QtCore{00040703}[2001b2dc].dll  - Undefined Reference
    QIODevice::write(const char*, long long)  - Undefined Reference
    _ZN9QIODevice5writeEPKcx@QtCore{00040703}[2001b2dc].dll  - Undefined Reference
    QIODevice::readAll()                      - Undefined Reference
    _ZN9QIODevice7readAllEv@QtCore{00040703}[2001b2dc].dll  - Undefined Reference
    QListData::detach_grow(int*, int)         - Undefined Reference
    _ZN9QListData11detach_growEPii@QtCore{00040703}[2001b2dc].dll  - Undefined Reference
    QListData::shared_null                    - Undefined Reference
    _ZN9QListData11shared_nullE@QtCore{00040703}[2001b2dc].dll  - Undefined Reference
    QListData::erase(void**)                  - Undefined Reference
    _ZN9QListData5eraseEPPv@QtCore{00040703}[2001b2dc].dll  - Undefined Reference
    QListData::append()                       - Undefined Reference
    _ZN9QListData6appendEv@QtCore{00040703}[2001b2dc].dll  - Undefined Reference
    QListData::detach(int)                    - Undefined Reference
    _ZN9QListData6detachEi@QtCore{00040703}[2001b2dc].dll  - Undefined Reference
    QListData::realloc(int)                   - Undefined Reference
    _ZN9QListData7reallocEi@QtCore{00040703}[2001b2dc].dll  - Undefined Reference
    QSettings::remove(const QString&)         - Undefined Reference
    _ZN9QSettings6removeERK7QString@QtCore{00040703}[2001b2dc].dll  - Undefined Reference
    QSettings::setValue(const QString&, const QVariant&)  - Undefined Reference
    _ZN9QSettings8setValueERK7QStringRK8QVariant@QtCore{00040703}[2001b2dc].dll  - Undefined Reference
    QSettings::QSettings(const QString&, QSettings::Format, QObject*)  - Undefined Reference
    _ZN9QSettingsC1ERK7QStringNS_6FormatEP7QObject@QtCore{00040703}[2001b2dc].dll  - Undefined Reference
    QSettings::~QSettings()                   - Undefined Reference
    _ZN9QSettingsD1Ev@QtCore{00040703}[2001b2dc].dll  - Undefined Reference
    QSqlError::~QSqlError()                   - Undefined Reference
    _ZN9QSqlErrorD1Ev@QtSql{00040703}[2001e61d].dll  - Undefined Reference
    QSqlQuery::addBindValue(const QVariant&, QFlags<QSql::ParamTypeFlag>)  - Undefined Reference
    _ZN9QSqlQuery12addBindValueERK8QVariant6QFlagsIN4QSql13ParamTypeFlagEE@QtSql{00040703}[2001e61d].dll  - Undefined Reference
    QSqlQuery::exec(const QString&)           - Undefined Reference
    _ZN9QSqlQuery4execERK7QString@QtSql{00040703}[2001e61d].dll  - Undefined Reference
    QSqlQuery::exec()                         - Undefined Reference
    _ZN9QSqlQuery4execEv@QtSql{00040703}[2001e61d].dll  - Undefined Reference
    QSqlQuery::next()                         - Undefined Reference
    _ZN9QSqlQuery4nextEv@QtSql{00040703}[2001e61d].dll  - Undefined Reference
    QSqlQuery::clear()                        - Undefined Reference
    _ZN9QSqlQuery5clearEv@QtSql{00040703}[2001e61d].dll  - Undefined Reference
    QSqlQuery::finish()                       - Undefined Reference
    _ZN9QSqlQuery6finishEv@QtSql{00040703}[2001e61d].dll  - Undefined Reference
    QSqlQuery::prepare(const QString&)        - Undefined Reference
    _ZN9QSqlQuery7prepareERK7QString@QtSql{00040703}[2001e61d].dll  - Undefined Reference
    QSqlQuery::QSqlQuery(QSqlDatabase)        - Undefined Reference
    _ZN9QSqlQueryC1E12QSqlDatabase@QtSql{00040703}[2001e61d].dll  - Undefined Reference
    QSqlQuery::~QSqlQuery()                   - Undefined Reference
    _ZN9QSqlQueryD1Ev@QtSql{00040703}[2001e61d].dll  - Undefined Reference
    QtPrivate::QStringList_join(const QStringList*, const QString&)  - Undefined Reference
    _ZN9QtPrivate16QStringList_joinEPK11QStringListRK7QString@QtCore{00040703}[2001b2dc].dll  - Undefined Reference
    QtPrivate::QStringList_contains(const QStringList*, const QString&, Qt::CaseSensitivity)  - Undefined Reference
    _ZN9QtPrivate20QStringList_containsEPK11QStringListRK7QStringN2Qt15CaseSensitivityE@QtCore{00040703}[2001b2dc].dll  - Undefined Reference
    TBufBase8::TBufBase8(int, int)            - Undefined Reference
    _ZN9TBufBase8C1Eii@euser{000a0000}[100039e5].dll  - Undefined Reference
    QStringRef::toString() const              - Undefined Reference
    _ZNK10QStringRef8toStringEv@QtCore{00040703}[2001b2dc].dll  - Undefined Reference
    QDataStream::atEnd() const                - Undefined Reference
    _ZNK11QDataStream5atEndEv@QtCore{00040703}[2001b2dc].dll  - Undefined Reference
    QDataStream::status() const               - Undefined Reference
    _ZNK11QDataStream6statusEv@QtCore{00040703}[2001b2dc].dll  - Undefined Reference
    QSqlDatabase::isOpen() const              - Undefined Reference
    _ZNK12QSqlDatabase6isOpenEv@QtSql{00040703}[2001e61d].dll  - Undefined Reference
    QSqlDatabase::tables(QSql::TableType) const  - Undefined Reference
    _ZNK12QSqlDatabase6tablesEN4QSql9TableTypeE@QtSql{00040703}[2001e61d].dll  - Undefined Reference
    QSqlDatabase::isValid() const             - Undefined Reference
    _ZNK12QSqlDatabase7isValidEv@QtSql{00040703}[2001e61d].dll  - Undefined Reference
    QSqlDatabase::lastError() const           - Undefined Reference
    _ZNK12QSqlDatabase9lastErrorEv@QtSql{00040703}[2001e61d].dll  - Undefined Reference
    RMessagePtr2::GetDesLength(int) const     - Undefined Reference
    _ZNK12RMessagePtr212GetDesLengthEi@euser{000a0000}[100039e5].dll  - Undefined Reference
    RMessagePtr2::Panic(const TDesC16&, int) const  - Undefined Reference
    _ZNK12RMessagePtr25PanicERK7TDesC16i@euser{000a0000}[100039e5].dll  - Undefined Reference
    RMessagePtr2::ReadL(int, TDes8&, int) const  - Undefined Reference
    _ZNK12RMessagePtr25ReadLEiR5TDes8i@euser{000a0000}[100039e5].dll  - Undefined Reference
    RMessagePtr2::ReadL(int, TDes16&, int) const  - Undefined Reference
    _ZNK12RMessagePtr25ReadLEiR6TDes16i@euser{000a0000}[100039e5].dll  - Undefined Reference
    RMessagePtr2::Write(int, const TDesC8&, int) const  - Undefined Reference
    _ZNK12RMessagePtr25WriteEiRK6TDesC8i@euser{000a0000}[100039e5].dll  - Undefined Reference
    RMessagePtr2::Write(int, const TDesC16&, int) const  - Undefined Reference
    _ZNK12RMessagePtr25WriteEiRK7TDesC16i@euser{000a0000}[100039e5].dll  - Undefined Reference
    RMessagePtr2::Complete(int) const         - Undefined Reference
    _ZNK12RMessagePtr28CompleteEi@euser{000a0000}[100039e5].dll  - Undefined Reference
    RMessagePtr2::SecureId() const            - Undefined Reference
    _ZNK12RMessagePtr28SecureIdEv@euser{000a0000}[100039e5].dll  - Undefined Reference
    RMessagePtr2::VendorId() const            - Undefined Reference
    _ZNK12RMessagePtr28VendorIdEv@euser{000a0000}[100039e5].dll  - Undefined Reference
    XLeaveException::GetReason() const        - Undefined Reference
    _ZNK15XLeaveException9GetReasonEv@euser{000a0000}[100039e5].dll  - Undefined Reference
    QXmlStreamReader::attributes() const      - Undefined Reference
    _ZNK16QXmlStreamReader10attributesEv@QtCore{00040703}[2001b2dc].dll  - Undefined Reference
    QXmlStreamReader::name() const            - Undefined Reference
    _ZNK16QXmlStreamReader4nameEv@QtCore{00040703}[2001b2dc].dll  - Undefined Reference
    QXmlStreamReader::atEnd() const           - Undefined Reference
    _ZNK16QXmlStreamReader5atEndEv@QtCore{00040703}[2001b2dc].dll  - Undefined Reference
    QXmlStreamReader::tokenType() const       - Undefined Reference
    _ZNK16QXmlStreamReader9tokenTypeEv@QtCore{00040703}[2001b2dc].dll  - Undefined Reference
    QXmlStreamAttributes::value(const QString&) const  - Undefined Reference
    _ZNK20QXmlStreamAttributes5valueERK7QString@QtCore{00040703}[2001b2dc].dll  - Undefined Reference
    QDir::path() const                        - Undefined Reference
    _ZNK4QDir4pathEv@QtCore{00040703}[2001b2dc].dll  - Undefined Reference
    QDir::mkdir(const QString&) const         - Undefined Reference
    _ZNK4QDir5mkdirERK7QString@QtCore{00040703}[2001b2dc].dll  - Undefined Reference
    QDir::exists() const                      - Undefined Reference
    _ZNK4QDir6existsEv@QtCore{00040703}[2001b2dc].dll  - Undefined Reference
    QDir::mkpath(const QString&) const        - Undefined Reference
    _ZNK4QDir6mkpathERK7QString@QtCore{00040703}[2001b2dc].dll  - Undefined Reference
    QDir::entryList(QFlags<QDir::Filter>, QFlags<QDir::SortFlag>) const  - Undefined Reference
    _ZNK4QDir9entryListE6QFlagsINS_6FilterEES0_INS_8SortFlagEE@QtCore{00040703}[2001b2dc].dll  - Undefined Reference
    QTime::msec() const                       - Undefined Reference
    _ZNK5QTime4msecEv@QtCore{00040703}[2001b2dc].dll  - Undefined Reference
    QUuid::toString() const                   - Undefined Reference
    _ZNK5QUuid8toStringEv@QtCore{00040703}[2001b2dc].dll  - Undefined Reference
    TDesC8::Ptr() const                       - Undefined Reference
    _ZNK6TDesC83PtrEv@euser{000a0000}[100039e5].dll  - Undefined Reference
    QRegExp::matchedLength() const            - Undefined Reference
    _ZNK7QRegExp13matchedLengthEv@QtCore{00040703}[2001b2dc].dll  - Undefined Reference
    QRegExp::indexIn(const QString&, int, QRegExp::CaretMode) const  - Undefined Reference
    _ZNK7QRegExp7indexInERK7QStringiNS_9CaretModeE@QtCore{00040703}[2001b2dc].dll  - Undefined Reference
    QString::startsWith(const QString&, Qt::CaseSensitivity) const  - Undefined Reference
    _ZNK7QString10startsWithERKS_N2Qt15CaseSensitivityE@QtCore{00040703}[2001b2dc].dll  - Undefined Reference
    QString::toLocal8Bit() const              - Undefined Reference
    _ZNK7QString11toLocal8BitEv@QtCore{00040703}[2001b2dc].dll  - Undefined Reference
    QString::arg(const QString&, int, const QChar&) const  - Undefined Reference
    _ZNK7QString3argERKS_iRK5QChar@QtCore{00040703}[2001b2dc].dll  - Undefined Reference
    QString::arg(long long, int, int, const QChar&) const  - Undefined Reference
    _ZNK7QString3argExiiRK5QChar@QtCore{00040703}[2001b2dc].dll  - Undefined Reference
    QString::mid(int, int) const              - Undefined Reference
    _ZNK7QString3midEii@QtCore{00040703}[2001b2dc].dll  - Undefined Reference
    QString::left(int) const                  - Undefined Reference
    _ZNK7QString4leftEi@QtCore{00040703}[2001b2dc].dll  - Undefined Reference
    QString::split(const QString&, QString::SplitBehavior, Qt::CaseSensitivity) const  - Undefined Reference
    _ZNK7QString5splitERKS_NS_13SplitBehaviorEN2Qt15CaseSensitivityE@QtCore{00040703}[2001b2dc].dll  - Undefined Reference
    QString::toInt(bool*, int) const          - Undefined Reference
    _ZNK7QString5toIntEPbi@QtCore{00040703}[2001b2dc].dll  - Undefined Reference
    QString::utf16() const                    - Undefined Reference
    _ZNK7QString5utf16Ev@QtCore{00040703}[2001b2dc].dll  - Undefined Reference
    QString::indexOf(QChar, int, Qt::CaseSensitivity) const  - Undefined Reference
    _ZNK7QString7indexOfE5QChariN2Qt15CaseSensitivityE@QtCore{00040703}[2001b2dc].dll  - Undefined Reference
    QString::toLower() const                  - Undefined Reference
    _ZNK7QString7toLowerEv@QtCore{00040703}[2001b2dc].dll  - Undefined Reference
    QString::operator ==(const QLatin1String&) const  - Undefined Reference
    _ZNK7QStringeqERK13QLatin1String@QtCore{00040703}[2001b2dc].dll  - Undefined Reference
    QString::operator ==(const QString&) const  - Undefined Reference
    _ZNK7QStringeqERKS_@QtCore{00040703}[2001b2dc].dll  - Undefined Reference
    TDesC16::Ptr() const                      - Undefined Reference
    _ZNK7TDesC163PtrEv@euser{000a0000}[100039e5].dll  - Undefined Reference
    QVariant::toDateTime() const              - Undefined Reference
    _ZNK8QVariant10toDateTimeEv@QtCore{00040703}[2001b2dc].dll  - Undefined Reference
    QVariant::toStringList() const            - Undefined Reference
    _ZNK8QVariant12toStringListEv@QtCore{00040703}[2001b2dc].dll  - Undefined Reference
    QVariant::cmp(const QVariant&) const      - Undefined Reference
    _ZNK8QVariant3cmpERKS_@QtCore{00040703}[2001b2dc].dll  - Undefined Reference
    QVariant::toInt(bool*) const              - Undefined Reference
    _ZNK8QVariant5toIntEPb@QtCore{00040703}[2001b2dc].dll  - Undefined Reference
    QVariant::toString() const                - Undefined Reference
    _ZNK8QVariant8toStringEv@QtCore{00040703}[2001b2dc].dll  - Undefined Reference
    QDateTime::operator ==(const QDateTime&) const  - Undefined Reference
    _ZNK9QDateTimeeqERKS_@QtCore{00040703}[2001b2dc].dll  - Undefined Reference
    QFileInfo::lastModified() const           - Undefined Reference
    _ZNK9QFileInfo12lastModifiedEv@QtCore{00040703}[2001b2dc].dll  - Undefined Reference
    QFileInfo::completeBaseName() const       - Undefined Reference
    _ZNK9QFileInfo16completeBaseNameEv@QtCore{00040703}[2001b2dc].dll  - Undefined Reference
    QFileInfo::dir() const                    - Undefined Reference
    _ZNK9QFileInfo3dirEv@QtCore{00040703}[2001b2dc].dll  - Undefined Reference
    QFileInfo::path() const                   - Undefined Reference
    _ZNK9QFileInfo4pathEv@QtCore{00040703}[2001b2dc].dll  - Undefined Reference
    QFileInfo::exists() const                 - Undefined Reference
    _ZNK9QFileInfo6existsEv@QtCore{00040703}[2001b2dc].dll  - Undefined Reference
    QFileInfo::fileName() const               - Undefined Reference
    _ZNK9QFileInfo8fileNameEv@QtCore{00040703}[2001b2dc].dll  - Undefined Reference
    QIODevice::isOpen() const                 - Undefined Reference
    _ZNK9QIODevice6isOpenEv@QtCore{00040703}[2001b2dc].dll  - Undefined Reference
    QSettings::value(const QString&, const QVariant&) const  - Undefined Reference
    _ZNK9QSettings5valueERK7QStringRK8QVariant@QtCore{00040703}[2001b2dc].dll  - Undefined Reference
    QSettings::allKeys() const                - Undefined Reference
    _ZNK9QSettings7allKeysEv@QtCore{00040703}[2001b2dc].dll  - Undefined Reference
    QSettings::contains(const QString&) const  - Undefined Reference
    _ZNK9QSettings8containsERK7QString@QtCore{00040703}[2001b2dc].dll  - Undefined Reference
    QSqlError::text() const                   - Undefined Reference
    _ZNK9QSqlError4textEv@QtSql{00040703}[2001e61d].dll  - Undefined Reference
    QSqlError::number() const                 - Undefined Reference
    _ZNK9QSqlError6numberEv@QtSql{00040703}[2001e61d].dll  - Undefined Reference
    QSqlQuery::value(int) const               - Undefined Reference
    _ZNK9QSqlQuery5valueEi@QtSql{00040703}[2001e61d].dll  - Undefined Reference
    QSqlQuery::lastError() const              - Undefined Reference
    _ZNK9QSqlQuery9lastErrorEv@QtSql{00040703}[2001e61d].dll  - Undefined Reference
    typeinfo for XLeaveException              - Undefined Reference
    _ZTI15XLeaveException@drtaeabi{000a0000}.dll  - Undefined Reference
    typeinfo for QObject                      - Undefined Reference
    _ZTI7QObject@QtCore{00040703}[2001b2dc].dll  - Undefined Reference
    typeinfo for CServer2                     - Undefined Reference
    _ZTI8CServer2@euser{000a0000}[100039e5].dll  - Undefined Reference
    typeinfo for CSession2                    - Undefined Reference
    _ZTI9CSession2@euser{000a0000}[100039e5].dll  - Undefined Reference
    typeinfo for std::bad_alloc               - Undefined Reference
    _ZTISt9bad_alloc@stdnew{000a0000}[20022178].dll  - Undefined Reference
    typeinfo for std::exception               - Undefined Reference
    _ZTISt9exception@stdnew{000a0000}[20022178].dll  - Undefined Reference
    vtable for __cxxabiv1::__class_type_info  - Undefined Reference
    _ZTVN10__cxxabiv117__class_type_infoE@drtaeabi{000a0000}.dll  - Undefined Reference
    vtable for __cxxabiv1::__si_class_type_info  - Undefined Reference
    _ZTVN10__cxxabiv120__si_class_type_infoE@drtaeabi{000a0000}.dll  - Undefined Reference
    operator delete[] (void*)                 - Undefined Reference
    _ZdaPv@stdnew{000a0000}[20022178].dll     - Undefined Reference
    operator delete (void*)                   - Undefined Reference
    _ZdlPv@stdnew{000a0000}[20022178].dll     - Undefined Reference
    operator ==(const QLatin1String&, const QStringRef&)  - Undefined Reference
    _ZeqRK13QLatin1StringRK10QStringRef@QtCore{00040703}[2001b2dc].dll  - Undefined Reference
    operator ==(const QString&, const QStringRef&)  - Undefined Reference
    _ZeqRK7QStringRK10QStringRef@QtCore{00040703}[2001b2dc].dll  - Undefined Reference
    operator <<(QDataStream&, const QString&)  - Undefined Reference
    _ZlsR11QDataStreamRK7QString@QtCore{00040703}[2001b2dc].dll  - Undefined Reference
    operator <<(QDataStream&, const QVariant&)  - Undefined Reference
    _ZlsR11QDataStreamRK8QVariant@QtCore{00040703}[2001b2dc].dll  - Undefined Reference
    operator new(unsigned)                    - Undefined Reference
    _Znwj@stdnew{000a0000}[20022178].dll      - Undefined Reference
    operator >>(QDataStream&, QString&)       - Undefined Reference
    _ZrsR11QDataStreamR7QString@QtCore{00040703}[2001b2dc].dll  - Undefined Reference
    operator >>(QDataStream&, QVariant&)      - Undefined Reference
    _ZrsR11QDataStreamR8QVariant@QtCore{00040703}[2001b2dc].dll  - Undefined Reference
    __aeabi_memclr4                           - Undefined Reference
    __aeabi_memclr4@drtaeabi{000a0000}.dll    - Undefined Reference
    __aeabi_memcpy4                           - Undefined Reference
    __aeabi_memcpy4@drtaeabi{000a0000}.dll    - Undefined Reference
    __aeabi_uidivmod                          - Undefined Reference
    __aeabi_uidivmod@drtaeabi{000a0000}.dll   - Undefined Reference
    __aeabi_unwind_cpp_pr0                    - Undefined Reference
    __aeabi_unwind_cpp_pr0@drtaeabi{000a0000}.dll  - Undefined Reference
    __aeabi_unwind_cpp_pr1                    - Undefined Reference
    __aeabi_unwind_cpp_pr1@drtaeabi{000a0000}.dll  - Undefined Reference
    __cxa_begin_catch                         - Undefined Reference
    __cxa_begin_catch@drtaeabi{000a0000}.dll  - Undefined Reference
    __cxa_call_unexpected                     - Undefined Reference
    __cxa_call_unexpected@drtaeabi{000a0000}.dll  - Undefined Reference
    __cxa_end_catch                           - Undefined Reference
    __cxa_end_catch@drtaeabi{000a0000}.dll    - Undefined Reference
    __cxa_end_cleanup                         - Undefined Reference
    __cxa_end_cleanup@drtaeabi{000a0000}.dll  - Undefined Reference
    __cxa_pure_virtual                        - Undefined Reference
    __cxa_pure_virtual@drtaeabi{000a0000}.dll  - Undefined Reference
    __cxa_rethrow                             - Undefined Reference
    __cxa_rethrow@drtaeabi{000a0000}.dll      - Undefined Reference
    run_static_dtors                          - Undefined Weak Reference
    strcmp                                    - Undefined Reference
    strcmp@libc{00010001}[10207369].dll       - Undefined Reference
    Image$$ER_RO$$Base                       0x00008000   Number         0  anon$$obj.o(linker$$defined$$symbols)
    _E32Startup                              0x00008000   ARM Code     112  uc_exe_.o(.emb_text)
    Symbian$$CPP$$Exception$$Descriptor      0x0000805c   Data           0  uc_exe_.o(.emb_text)
    CallMain(int, char**, char**)            0x00008070   ARM Code       4  qts60main_mcrt0.o(.emb_text)
    __cpp_initialize__aeabi_                 0x00008074   ARM Code      52  ucppinit.o(.emb_text)
    std::nothrow                             0x000080a8   ARM Code       0  ucppinit.o(.emb_text)
    __PLT                                    0x000080a8   ARM Code       0  anon$$obj.o(.plt)
    _xxxx_call_user_invariant                0x00008878   ARM Code      12  uc_exe_.o(.text)
    _xxxx_call_user_handle_exception         0x00008884   ARM Code      20  uc_exe_.o(.text)
    QtMobility::ServiceMetaData::ServiceMetaData(const QString&) 0x00008899   Thumb Code   126  servicemetadata.o(.text)
    QtMobility::ServiceMetaData::ServiceMetaData__sub_object(const QString&) 0x00008899   Thumb Code     0  servicemetadata.o(.text)
    QtMobility::ServiceMetaData::ServiceMetaData(QIODevice*) 0x00008917   Thumb Code   102  servicemetadata.o(.text)
    QtMobility::ServiceMetaData::ServiceMetaData__sub_object(QIODevice*) 0x00008917   Thumb Code     0  servicemetadata.o(.text)
    QtMobility::ServiceMetaData::~ServiceMetaData() 0x0000897d   Thumb Code   114  servicemetadata.o(.text)
    QtMobility::ServiceMetaData::~ServiceMetaData__sub_object() 0x0000897d   Thumb Code     0  servicemetadata.o(.text)
    QtMobility::ServiceMetaData::clearMetadata() 0x000089ef   Thumb Code   250  servicemetadata.o(.text)
    QtMobility::ServiceMetaData::setDevice(QIODevice*) 0x00008ae9   Thumb Code    20  servicemetadata.o(.text)
    QtMobility::ServiceMetaData::device() const 0x00008afd   Thumb Code     6  servicemetadata.o(.text)
    QtMobility::ServiceMetaData::checkVersion(const QString&) const 0x00008b03   Thumb Code   164  servicemetadata.o(.text)
    QtMobility::ServiceMetaData::transformVersion(const QString&, int*, int*) const 0x00008ba7   Thumb Code   144  servicemetadata.o(.text)
    QtMobility::ServiceMetaData::greaterThan(const QString&, const QString&) const 0x00008c37   Thumb Code    82  servicemetadata.o(.text)
    QtMobility::ServiceMetaData::latestInterfaceVersion(const QString&) 0x00008c89   Thumb Code   158  servicemetadata.o(.text)
    QtMobility::ServiceMetaData::lessThan(const QtMobility::QServiceInterfaceDescriptor&, const QtMobility::QServiceInterfaceDescriptor&) const 0x00008d27   Thumb Code    70  servicemetadata.o(.text)
    QtMobility::ServiceMetaData::processInterfaceElement(QXmlStreamReader&) 0x00008d6d   Thumb Code  1808  servicemetadata.o(.text)
    QtMobility::ServiceMetaData::processServiceElement(QXmlStreamReader&) 0x0000947d   Thumb Code  1254  servicemetadata.o(.text)
    QtMobility::ServiceMetaData::processVersionElement(QXmlStreamReader&) 0x00009963   Thumb Code   502  servicemetadata.o(.text)
    QtMobility::ServiceMetaData::extractMetadata() 0x00009b59   Thumb Code  1950  servicemetadata.o(.text)
    QtMobility::ServiceMetaData::getLatestError() const 0x0000a2f7   Thumb Code     6  servicemetadata.o(.text)
    QtMobility::ServiceMetaData::latestInterfaces() const 0x0000a2fd   Thumb Code   162  servicemetadata.o(.text)
    QtMobility::ServiceMetaData::parseResults() const 0x0000a39f   Thumb Code   142  servicemetadata.o(.text)
    QtMobility::operator <<(QDataStream&, const QtMobility::ServiceMetaDataResults&) 0x0000a42d   Thumb Code    66  servicemetadata.o(.text)
    QtMobility::operator >>(QDataStream&, QtMobility::ServiceMetaDataResults&) 0x0000a46f   Thumb Code    66  servicemetadata.o(.text)
    QtMobility::ServiceDatabase::getStaticMetaObject() 0x0000a4f9   Thumb Code     4  servicedatabase.o(.text)
    QtMobility::ServiceDatabase::metaObject() const 0x0000a4fd   Thumb Code    28  servicedatabase.o(.text)
    QtMobility::ServiceDatabase::qt_metacast(const char*) 0x0000a519   Thumb Code    40  servicedatabase.o(.text)
    QtMobility::ServiceDatabase::serviceRemoved(const QString&) 0x0000a541   Thumb Code    30  servicedatabase.o(.text)
    QtMobility::ServiceDatabase::serviceAdded(const QString&) 0x0000a55f   Thumb Code    30  servicedatabase.o(.text)
    QtMobility::ServiceDatabase::qt_metacall(QMetaObject::Call, int, void**) 0x0000a57d   Thumb Code    76  servicedatabase.o(.text)
    QtMobility::ServiceDatabase::ServiceDatabase() 0x0000a5c9   Thumb Code    64  servicedatabase.o(.text)
    QtMobility::ServiceDatabase::ServiceDatabase__sub_object() 0x0000a5c9   Thumb Code     0  servicedatabase.o(.text)
    QtMobility::ServiceDatabase::close()     0x0000a609   Thumb Code   136  servicedatabase.o(.text)
    QtMobility::ServiceDatabase::~ServiceDatabase() 0x0000a691   Thumb Code    62  servicedatabase.o(.text)
    QtMobility::ServiceDatabase::~ServiceDatabase__sub_object() 0x0000a691   Thumb Code     0  servicedatabase.o(.text)
    QtMobility::ServiceDatabase::~ServiceDatabase__deallocating() 0x0000a6cf   Thumb Code    22  servicedatabase.o(.text)
    QtMobility::ServiceDatabase::rollbackTransaction(QSqlQuery*) 0x0000a6e5   Thumb Code   112  servicedatabase.o(.text)
    QtMobility::ServiceDatabase::commitTransaction(QSqlQuery*) 0x0000a755   Thumb Code   138  servicedatabase.o(.text)
    QtMobility::ServiceDatabase::databasePath() const 0x0000a7df   Thumb Code   290  servicedatabase.o(.text)
    QtMobility::ServiceDatabase::executeQuery(QSqlQuery*, const QString&, const QList<QVariant>&) 0x0000a901   Thumb Code   926  servicedatabase.o(.text)
    QtMobility::ServiceDatabase::beginTransaction(QSqlQuery*, QtMobility::ServiceDatabase::TransactionType) 0x0000ac9f   Thumb Code   562  servicedatabase.o(.text)
    QtMobility::ServiceDatabase::createTables() 0x0000aed1   Thumb Code   544  servicedatabase.o(.text)
    QtMobility::ServiceDatabase::dropTables() 0x0000b0f1   Thumb Code   710  servicedatabase.o(.text)
    QtMobility::ServiceDatabase::checkTables() 0x0000b3b7   Thumb Code   290  servicedatabase.o(.text)
    QtMobility::ServiceDatabase::open()      0x0000b4d9   Thumb Code   740  servicedatabase.o(.text)
    QtMobility::ServiceDatabase::isOpen() const 0x0000b7bd   Thumb Code     6  servicedatabase.o(.text)
    QtMobility::ServiceDatabase::setDatabasePath(const QString&) 0x0000b7c3   Thumb Code    32  servicedatabase.o(.text)
    QtMobility::ServiceDatabase::getInterfaceID(QSqlQuery*, const QtMobility::QServiceInterfaceDescriptor&) 0x0000b7e3   Thumb Code   542  servicedatabase.o(.text)
    QtMobility::ServiceDatabase::populateInterfaceProperties(QtMobility::QServiceInterfaceDescriptor*, const QString&) 0x0000ba01   Thumb Code   894  servicedatabase.o(.text)
    QtMobility::ServiceDatabase::populateServiceProperties(QtMobility::QServiceInterfaceDescriptor*, const QString&) 0x0000bd7f   Thumb Code   634  servicedatabase.o(.text)
    QtMobility::ServiceDatabase::checkConnection() 0x0000bff9   Thumb Code   110  servicedatabase.o(.text)
    QtMobility::ServiceDatabase::interfaceDefault(const QString&, QString*, bool) 0x0000c067   Thumb Code  1448  servicedatabase.o(.text)
    QtMobility::ServiceDatabase::insertInterfaceData(QSqlQuery*, const QtMobility::QServiceInterfaceDescriptor&, const QString&) 0x0000c60f   Thumb Code  1028  servicedatabase.o(.text)
    QtMobility::ServiceDatabase::registerService(const QtMobility::ServiceMetaDataResults&, const QString&) 0x0000ca13   Thumb Code  3180  servicedatabase.o(.text)
    QtMobility::ServiceDatabase::unregisterService(const QString&, const QString&) 0x0000d67f   Thumb Code  2762  servicedatabase.o(.text)
    QtMobility::ServiceDatabase::serviceInitialized(const QString&, const QString&) 0x0000e149   Thumb Code  1030  servicedatabase.o(.text)
    QtMobility::ServiceDatabase::getInterfaces(const QtMobility::QServiceFilter&) 0x0000e54f   Thumb Code  2718  servicedatabase.o(.text)
    QtMobility::ServiceDatabase::getInterface(const QString&) 0x0000efed   Thumb Code  1286  servicedatabase.o(.text)
    QtMobility::ServiceDatabase::getInterfaceID(const QtMobility::QServiceInterfaceDescriptor&) 0x0000f4f3   Thumb Code   114  servicedatabase.o(.text)
    QtMobility::ServiceDatabase::getServiceNames(const QString&) 0x0000f565   Thumb Code   376  servicedatabase.o(.text)
    QtMobility::ServiceDatabase::setInterfaceDefault(const QtMobility::QServiceInterfaceDescriptor&, const QString&) 0x0000f6dd   Thumb Code  1286  servicedatabase.o(.text)
    QtMobility::ServiceDatabase::externalDefaultsInfo() 0x0000fbe3   Thumb Code   352  servicedatabase.o(.text)
    QtMobility::ServiceDatabase::removeExternalDefaultServiceInterface(const QString&) 0x0000fd43   Thumb Code   780  servicedatabase.o(.text)
    QtMobility::QServicePluginInterface::QServicePluginInterface__sub_object() 0x00010095   Thumb Code     6  qserviceplugininterface.o(.text)
    QtMobility::QServicePluginInterface::~QServicePluginInterface() 0x0001009b   Thumb Code     0  qserviceplugininterface.o(.text)
    QtMobility::QServicePluginInterface::~QServicePluginInterface__sub_object() 0x0001009b   Thumb Code     2  qserviceplugininterface.o(.text)
    QtMobility::QServicePluginInterface::~QServicePluginInterface__deallocating() 0x0001009d   Thumb Code    22  qserviceplugininterface.o(.text)
    QtMobility::QServicePluginInterface::installService() 0x000100b3   Thumb Code     2  qserviceplugininterface.o(.text)
    QtMobility::QServicePluginInterface::uninstallService() 0x000100b5   Thumb Code     2  qserviceplugininterface.o(.text)
    QtMobility::QAbstractSecuritySession::getStaticMetaObject() 0x000100bd   Thumb Code     4  qabstractsecuritysession.o(.text)
    QtMobility::QAbstractSecuritySession::metaObject() const 0x000100c1   Thumb Code    28  qabstractsecuritysession.o(.text)
    QtMobility::QAbstractSecuritySession::qt_metacast(const char*) 0x000100dd   Thumb Code    40  qabstractsecuritysession.o(.text)
    QtMobility::QAbstractSecuritySession::qt_metacall(QMetaObject::Call, int, void**) 0x00010105   Thumb Code    36  qabstractsecuritysession.o(.text)
    QtMobility::QAbstractSecuritySession::QAbstractSecuritySession__sub_object(QObject*) 0x00010129   Thumb Code    24  qabstractsecuritysession.o(.text)
    QtMobility::QAbstractSecuritySession::~QAbstractSecuritySession() 0x00010141   Thumb Code     0  qabstractsecuritysession.o(.text)
    QtMobility::QAbstractSecuritySession::~QAbstractSecuritySession__sub_object() 0x00010141   Thumb Code    14  qabstractsecuritysession.o(.text)
    QtMobility::QAbstractSecuritySession::~QAbstractSecuritySession__deallocating() 0x0001014f   Thumb Code    22  qabstractsecuritysession.o(.text)
    QtMobility::operator <<(QDataStream&, const QtMobility::QServiceInterfaceDescriptor::Attribute&) 0x00010171   Thumb Code    22  qserviceinterfacedescriptor.o(.text)
    QtMobility::operator >>(QDataStream&, QtMobility::QServiceInterfaceDescriptor::Attribute&) 0x00010187   Thumb Code    26  qserviceinterfacedescriptor.o(.text)
    QtMobility::QServiceInterfaceDescriptor::QServiceInterfaceDescriptor() 0x000101a1   Thumb Code     6  qserviceinterfacedescriptor.o(.text)
    QtMobility::QServiceInterfaceDescriptor::QServiceInterfaceDescriptor__sub_object() 0x000101a1   Thumb Code     0  qserviceinterfacedescriptor.o(.text)
    QtMobility::QServiceInterfaceDescriptor::isValid() const 0x000101a7   Thumb Code    16  qserviceinterfacedescriptor.o(.text)
    QtMobility::QServiceInterfaceDescriptor::operator =(const QtMobility::QServiceInterfaceDescriptor&) 0x000101b7   Thumb Code   140  qserviceinterfacedescriptor.o(.text)
    QtMobility::QServiceInterfaceDescriptor::QServiceInterfaceDescriptor(const QtMobility::QServiceInterfaceDescriptor&) 0x00010243   Thumb Code    22  qserviceinterfacedescriptor.o(.text)
    QtMobility::QServiceInterfaceDescriptor::QServiceInterfaceDescriptor__sub_object(const QtMobility::QServiceInterfaceDescriptor&) 0x00010243   Thumb Code     0  qserviceinterfacedescriptor.o(.text)
    QtMobility::QServiceInterfaceDescriptor::~QServiceInterfaceDescriptor() 0x00010259   Thumb Code    32  qserviceinterfacedescriptor.o(.text)
    QtMobility::QServiceInterfaceDescriptor::~QServiceInterfaceDescriptor__sub_object() 0x00010259   Thumb Code     0  qserviceinterfacedescriptor.o(.text)
    QtMobility::QServiceInterfaceDescriptor::operator ==(const QtMobility::QServiceInterfaceDescriptor&) const 0x00010279   Thumb Code   140  qserviceinterfacedescriptor.o(.text)
    QtMobility::QServiceInterfaceDescriptor::serviceName() const 0x00010305   Thumb Code    52  qserviceinterfacedescriptor.o(.text)
    QtMobility::QServiceInterfaceDescriptor::interfaceName() const 0x00010339   Thumb Code    54  qserviceinterfacedescriptor.o(.text)
    QtMobility::QServiceInterfaceDescriptor::majorVersion() const 0x0001036f   Thumb Code    20  qserviceinterfacedescriptor.o(.text)
    QtMobility::QServiceInterfaceDescriptor::minorVersion() const 0x00010383   Thumb Code    20  qserviceinterfacedescriptor.o(.text)
    QtMobility::QServiceInterfaceDescriptor::scope() const 0x00010397   Thumb Code    18  qserviceinterfacedescriptor.o(.text)
    QtMobility::QServiceInterfaceDescriptor::attribute(QtMobility::QServiceInterfaceDescriptor::Attribute) const 0x000103a9   Thumb Code    86  qserviceinterfacedescriptor.o(.text)
    QtMobility::QServiceInterfaceDescriptor::customAttribute(const QString&) const 0x000103ff   Thumb Code   152  qserviceinterfacedescriptor.o(.text)
    QtMobility::QServiceInterfaceDescriptor::customAttributes() const 0x00010497   Thumb Code    80  qserviceinterfacedescriptor.o(.text)
    QtMobility::operator <<(QDebug, const QtMobility::QServiceInterfaceDescriptor&) 0x000104e7   Thumb Code   434  qserviceinterfacedescriptor.o(.text)
    QtMobility::operator <<(QDataStream&, const QtMobility::QServiceInterfaceDescriptor&) 0x00010699   Thumb Code   158  qserviceinterfacedescriptor.o(.text)
    QtMobility::operator >>(QDataStream&, QtMobility::QServiceInterfaceDescriptor&) 0x00010737   Thumb Code   298  qserviceinterfacedescriptor.o(.text)
    QtMobility::QServiceFilter::QServiceFilter() 0x0001091d   Thumb Code    60  qservicefilter.o(.text)
    QtMobility::QServiceFilter::QServiceFilter__sub_object() 0x0001091d   Thumb Code     0  qservicefilter.o(.text)
    QtMobility::QServiceFilter::~QServiceFilter() 0x00010959   Thumb Code    60  qservicefilter.o(.text)
    QtMobility::QServiceFilter::~QServiceFilter__sub_object() 0x00010959   Thumb Code     0  qservicefilter.o(.text)
    QtMobility::QServiceFilter::operator =(const QtMobility::QServiceFilter&) 0x00010995   Thumb Code    98  qservicefilter.o(.text)
    QtMobility::QServiceFilter::QServiceFilter(const QtMobility::QServiceFilter&) 0x000109f7   Thumb Code    48  qservicefilter.o(.text)
    QtMobility::QServiceFilter::QServiceFilter__sub_object(const QtMobility::QServiceFilter&) 0x000109f7   Thumb Code     0  qservicefilter.o(.text)
    QtMobility::QServiceFilter::setInterface(const QString&, const QString&, QtMobility::QServiceFilter::VersionMatchRule) 0x00010a27   Thumb Code   414  qservicefilter.o(.text)
    QtMobility::QServiceFilter::QServiceFilter(const QString&, const QString&, QtMobility::QServiceFilter::VersionMatchRule) 0x00010bc5   Thumb Code    88  qservicefilter.o(.text)
    QtMobility::QServiceFilter::QServiceFilter__sub_object(const QString&, const QString&, QtMobility::QServiceFilter::VersionMatchRule) 0x00010bc5   Thumb Code     0  qservicefilter.o(.text)
    QtMobility::QServiceFilter::setServiceName(const QString&) 0x00010c1d   Thumb Code    18  qservicefilter.o(.text)
    QtMobility::QServiceFilter::serviceName() const 0x00010c2f   Thumb Code    20  qservicefilter.o(.text)
    QtMobility::QServiceFilter::interfaceName() const 0x00010c43   Thumb Code    18  qservicefilter.o(.text)
    QtMobility::QServiceFilter::majorVersion() const 0x00010c55   Thumb Code     8  qservicefilter.o(.text)
    QtMobility::QServiceFilter::minorVersion() const 0x00010c5d   Thumb Code     8  qservicefilter.o(.text)
    QtMobility::QServiceFilter::versionMatchRule() const 0x00010c65   Thumb Code     8  qservicefilter.o(.text)
    QtMobility::QServiceFilter::customAttributes() const 0x00010c6d   Thumb Code    40  qservicefilter.o(.text)
    QtMobility::QServiceFilter::customAttribute(const QString&) const 0x00010c95   Thumb Code    72  qservicefilter.o(.text)
    QtMobility::QServiceFilter::setCustomAttribute(const QString&, const QString&) 0x00010cdd   Thumb Code   116  qservicefilter.o(.text)
    QtMobility::QServiceFilter::clearCustomAttribute(const QString&) 0x00010d51   Thumb Code    42  qservicefilter.o(.text)
    QtMobility::QServiceFilter::setCapabilities(QtMobility::QServiceFilter::CapabilityMatchRule, const QStringList&) 0x00010d7b   Thumb Code    28  qservicefilter.o(.text)
    QtMobility::QServiceFilter::capabilities() const 0x00010d97   Thumb Code    28  qservicefilter.o(.text)
    QtMobility::QServiceFilter::capabilityMatchRule() const 0x00010db3   Thumb Code     8  qservicefilter.o(.text)
    QtMobility::operator <<(QDataStream&, const QtMobility::QServiceFilter&) 0x00010dbb   Thumb Code   324  qservicefilter.o(.text)
    QtMobility::operator >>(QDataStream&, QtMobility::QServiceFilter&) 0x00010eff   Thumb Code   254  qservicefilter.o(.text)
    QtMobility::DBError::setError(QtMobility::DBError::ErrorCode, const QString&) 0x0001106d   Thumb Code   162  dberror.o(.text)
    QtMobility::DBError::DBError()           0x0001110f   Thumb Code    40  dberror.o(.text)
    QtMobility::DBError::DBError__sub_object() 0x0001110f   Thumb Code     0  dberror.o(.text)
    Inline ARM to Thumb Veneer to main       0x000111a8   ARM Code       0  databasemanagerservermain.o(.text)
    main                                     0x000111b1   Thumb Code   128  databasemanagerservermain.o(.text)
    QtMobility::CDatabaseManagerServer::DiscoverServices() 0x00011235   Thumb Code  1400  databasemanagerserver.o(.text)
    QtMobility::CDatabaseManagerServer::initDbPath() 0x000117ad   Thumb Code   588  databasemanagerserver.o(.text)
    QtMobility::CDatabaseManagerServer::Shutdown() 0x000119f9   Thumb Code    12  databasemanagerserver.o(.text)
    QtMobility::CDatabaseManagerServer::CDatabaseManagerServer() 0x00011a13   Thumb Code   472  databasemanagerserver.o(.text)
    QtMobility::CDatabaseManagerServer::CDatabaseManagerServer__sub_object() 0x00011a13   Thumb Code     0  databasemanagerserver.o(.text)
    QtMobility::CDatabaseManagerServer::NewSessionL(const TVersion&, const RMessage2&) const 0x00011beb   Thumb Code    70  databasemanagerserver.o(.text)
    QtMobility::CDatabaseManagerServer::PanicServer(TDatabaseManagerSerververPanic) 0x00011c31   Thumb Code    22  databasemanagerserver.o(.text)
    QtMobility::CDatabaseManagerServer::IncreaseSessions() 0x00011c47   Thumb Code    18  databasemanagerserver.o(.text)
    QtMobility::CDatabaseManagerServer::DecreaseSessions() 0x00011c59   Thumb Code    64  databasemanagerserver.o(.text)
    QtMobility::DatabaseManagerServerSignalHandler::getStaticMetaObject() 0x00011c99   Thumb Code     4  databasemanagerserver.o(.text)
    QtMobility::DatabaseManagerServerSignalHandler::metaObject() const 0x00011c9d   Thumb Code    28  databasemanagerserver.o(.text)
    QtMobility::DatabaseManagerServerSignalHandler::qt_metacast(const char*) 0x00011cb9   Thumb Code    42  databasemanagerserver.o(.text)
    QtMobility::DatabaseManagerServerSignalHandler::importChanged(const QString&) 0x00011ce3   Thumb Code    14  databasemanagerserver.o(.text)
    QtMobility::DatabaseManagerServerSignalHandler::qt_metacall(QMetaObject::Call, int, void**) 0x00011cf1   Thumb Code    60  databasemanagerserver.o(.text)
    QtMobility::CDatabaseManagerServerSession::openDb() 0x00011d7d   Thumb Code    36  databasemanagersession.o(.text)
    QtMobility::CDatabaseManagerServerSession::ConstructL(QString) 0x00011da1   Thumb Code   128  databasemanagersession.o(.text)
    QtMobility::CDatabaseManagerServerSession::CDatabaseManagerServerSession(QtMobility::CDatabaseManagerServer&) 0x00011e21   Thumb Code    78  databasemanagersession.o(.text)
    QtMobility::CDatabaseManagerServerSession::CDatabaseManagerServerSession__sub_object(QtMobility::CDatabaseManagerServer&) 0x00011e21   Thumb Code     0  databasemanagersession.o(.text)
    QtMobility::CDatabaseManagerServerSession::NewLC(QtMobility::CDatabaseManagerServer&, QString) 0x00011e6f   Thumb Code    64  databasemanagersession.o(.text)
    QtMobility::CDatabaseManagerServerSession::NewL(QtMobility::CDatabaseManagerServer&, QString) 0x00011eaf   Thumb Code    54  databasemanagersession.o(.text)
    QtMobility::CDatabaseManagerServerSession::~CDatabaseManagerServerSession() 0x00011ee5   Thumb Code   102  databasemanagersession.o(.text)
    QtMobility::CDatabaseManagerServerSession::~CDatabaseManagerServerSession__sub_object() 0x00011ee5   Thumb Code     0  databasemanagersession.o(.text)
    QtMobility::CDatabaseManagerServerSession::~CDatabaseManagerServerSession__deallocating() 0x00011f4b   Thumb Code    22  databasemanagersession.o(.text)
    QtMobility::CDatabaseManagerServerSession::CancelNotifyServiceSignal(const RMessage2&) 0x00011f61   Thumb Code    32  databasemanagersession.o(.text)
    QtMobility::CDatabaseManagerServerSession::LastErrorCode() 0x00011f81   Thumb Code    62  databasemanagersession.o(.text)
    QtMobility::CDatabaseManagerServerSession::InterfaceDefaultSize(const RMessage2&) 0x00011fbf   Thumb Code   324  databasemanagersession.o(.text)
    QtMobility::CDatabaseManagerServerSession::SetChangeNotificationsEnabled(const RMessage2&) 0x00012103   Thumb Code   146  databasemanagersession.o(.text)
    QtMobility::CDatabaseManagerServerSession::SetInterfaceDefault2L(const RMessage2&) 0x00012195   Thumb Code   376  databasemanagersession.o(.text)
    QtMobility::lessThan(const QtMobility::QServiceInterfaceDescriptor&, const QtMobility::QServiceInterfaceDescriptor&) 0x0001230d   Thumb Code    68  databasemanagersession.o(.text)
    QtMobility::CDatabaseManagerServerSession::SetInterfaceDefaultL(const RMessage2&) 0x00012351   Thumb Code   744  databasemanagersession.o(.text)
    QtMobility::CDatabaseManagerServerSession::InterfaceDefaultL(const RMessage2&) 0x00012639   Thumb Code    66  databasemanagersession.o(.text)
    QtMobility::CDatabaseManagerServerSession::ServiceNamesSizeL(const RMessage2&) 0x0001267b   Thumb Code   378  databasemanagersession.o(.text)
    QtMobility::CDatabaseManagerServerSession::ServiceNamesL(const RMessage2&) 0x000127f5   Thumb Code    66  databasemanagersession.o(.text)
    QtMobility::CDatabaseManagerServerSession::InterfacesSizeL(const RMessage2&) 0x00012837   Thumb Code   414  databasemanagersession.o(.text)
    QtMobility::CDatabaseManagerServerSession::InterfacesL(const RMessage2&) 0x000129d5   Thumb Code    66  databasemanagersession.o(.text)
    QtMobility::CDatabaseManagerServerSession::ServiceInitializedL(const RMessage2&) 0x00012a17   Thumb Code   378  databasemanagersession.o(.text)
    QtMobility::CDatabaseManagerServerSession::UnregisterServiceL(const RMessage2&) 0x00012b91   Thumb Code   374  databasemanagersession.o(.text)
    QtMobility::CDatabaseManagerServerSession::RegisterServiceL(const RMessage2&) 0x00012d07   Thumb Code   470  databasemanagersession.o(.text)
    QtMobility::CDatabaseManagerServerSession::DispatchMessageL(const RMessage2&) 0x00012edd   Thumb Code   258  databasemanagersession.o(.text)
    QtMobility::CDatabaseManagerServerSession::NotifyServiceSignal(const RMessage2&) 0x00012fdf   Thumb Code    24  databasemanagersession.o(.text)
    QtMobility::CDatabaseManagerServerSession::ServiceL(const RMessage2&) 0x00012ff7   Thumb Code    94  databasemanagersession.o(.text)
    QtMobility::CDatabaseManagerServerSession::ServiceRemoved(const QString&) 0x00013055   Thumb Code   112  databasemanagersession.o(.text)
    QtMobility::CDatabaseManagerServerSession::ServiceAdded(const QString&) 0x000130c5   Thumb Code   112  databasemanagersession.o(.text)
    QtMobility::CDatabaseManagerServerSession::databaseChanged(const QString&) 0x00013135   Thumb Code   346  databasemanagersession.o(.text)
    QtMobility::DatabaseManagerSignalHandler::getStaticMetaObject() 0x00013295   Thumb Code     4  databasemanagersignalhandler.o(.text)
    QtMobility::DatabaseManagerSignalHandler::metaObject() const 0x00013299   Thumb Code    28  databasemanagersignalhandler.o(.text)
    QtMobility::DatabaseManagerSignalHandler::qt_metacast(const char*) 0x000132b5   Thumb Code    40  databasemanagersignalhandler.o(.text)
    QtMobility::DatabaseManagerSignalHandler::databaseChanged(const QString&) 0x000132dd   Thumb Code    16  databasemanagersignalhandler.o(.text)
    QtMobility::DatabaseManagerSignalHandler::qt_metacall(QMetaObject::Call, int, void**) 0x000132ed   Thumb Code    60  databasemanagersignalhandler.o(.text)
    QtMobility::DatabaseManagerSignalHandler::DatabaseManagerSignalHandler(QtMobility::CDatabaseManagerServerSession&) 0x00013329   Thumb Code    26  databasemanagersignalhandler.o(.text)
    QtMobility::DatabaseManagerSignalHandler::DatabaseManagerSignalHandler__sub_object(QtMobility::CDatabaseManagerServerSession&) 0x00013329   Thumb Code     0  databasemanagersignalhandler.o(.text)
    __ARM_switch8                            0x00013350   ARM Code      24  switch8.o(.text)
    __rt_switch8                             0x00013350   ARM Code       0  switch8.o(.text)
    globalDestructorFunc                     0x00013368   ARM Code      24  uc_exe.o(.text)
    RunThread                                0x00013380   ARM Code     100  uc_exe.o(.text)
    __GccGlueInit                            0x000133e8   ARM Code       8  qts60main_mcrt0.o(.text)
    QtMainWrapper()                          0x000133f0   ARM Code     192  qts60main_mcrt0.o(.text)
    __main                                   0x000134b0   ARM Code       4  qts60main_mcrt0.o(.text)
    CallThrdProcEntry                        0x000134b4   ARM Code     140  callfirstprocessfn.o(.text)
    UserHeap::SetupThreadHeap(int, SStdEpocThreadCreateInfo&) 0x00013544   ARM Code      28  newallocator_hook.o(.text)
    __DLL_Export_Table__                     0x00013560   ARM Code       4  dllexp.o(.text)
    E32Main()                                0x00013564   ARM Code     164  qts60main.o(.text)
    qStringComparisonHelper(const QStringRef&, const char*) 0x000150b5   Thumb Code    72  servicemetadata.o(i._Z23qStringComparisonHelperRK10QStringRefPKc)
    qDebug()                                 0x0001510b   Thumb Code    92  servicemetadata.o(i._Z6qDebugv)
    qWarning()                               0x0001517f   Thumb Code    88  servicedatabase.o(i._Z8qWarningv)
    QByteArray::QByteArray()                 0x000151f1   Thumb Code    18  databasemanagersession.o(i._ZN10QByteArrayC1Ev)
    QByteArray::QByteArray__sub_object()     0x000151f1   Thumb Code     0  databasemanagersession.o(i._ZN10QByteArrayC1Ev)
    QByteArray::~QByteArray()                0x00015209   Thumb Code    24  servicemetadata.o(i._ZN10QByteArrayD1Ev)
    QByteArray::~QByteArray__sub_object()    0x00015209   Thumb Code     0  servicemetadata.o(i._ZN10QByteArrayD1Ev)
    QStringRef::~QStringRef()                0x00015221   Thumb Code     2  servicemetadata.o(i._ZN10QStringRefD1Ev)
    QStringRef::~QStringRef__sub_object()    0x00015221   Thumb Code     0  servicemetadata.o(i._ZN10QStringRefD1Ev)
    QtMobility::QServiceFilterPrivate::QServiceFilterPrivate() 0x00015223   Thumb Code    52  qservicefilter.o(i._ZN10QtMobility21QServiceFilterPrivateC1Ev)
    QtMobility::QServiceFilterPrivate::QServiceFilterPrivate__sub_object() 0x00015223   Thumb Code     0  qservicefilter.o(i._ZN10QtMobility21QServiceFilterPrivateC1Ev)
    QtMobility::CDatabaseManagerServer::~CDatabaseManagerServer__deallocating() 0x00015275   Thumb Code    24  databasemanagerserver.o(i._ZN10QtMobility22CDatabaseManagerServerD0Ev)
    QtMobility::CDatabaseManagerServer::~CDatabaseManagerServer() 0x0001528d   Thumb Code    14  databasemanagerserver.o(i._ZN10QtMobility22CDatabaseManagerServerD1Ev)
    QtMobility::CDatabaseManagerServer::~CDatabaseManagerServer__sub_object() 0x0001528d   Thumb Code     0  databasemanagerserver.o(i._ZN10QtMobility22CDatabaseManagerServerD1Ev)
    QtMobility::ServiceMetaDataResults::~ServiceMetaDataResults() 0x0001529b   Thumb Code    64  servicemetadata.o(i._ZN10QtMobility22ServiceMetaDataResultsD1Ev)
    QtMobility::ServiceMetaDataResults::~ServiceMetaDataResults__sub_object() 0x0001529b   Thumb Code     0  servicemetadata.o(i._ZN10QtMobility22ServiceMetaDataResultsD1Ev)
    QtMobility::DatabaseManagerSignalHandler::~DatabaseManagerSignalHandler__deallocating() 0x00015309   Thumb Code    24  databasemanagersignalhandler.o(i._ZN10QtMobility28DatabaseManagerSignalHandlerD0Ev)
    QtMobility::DatabaseManagerSignalHandler::~DatabaseManagerSignalHandler() 0x00015321   Thumb Code    14  databasemanagersignalhandler.o(i._ZN10QtMobility28DatabaseManagerSignalHandlerD1Ev)
    QtMobility::DatabaseManagerSignalHandler::~DatabaseManagerSignalHandler__sub_object() 0x00015321   Thumb Code     0  databasemanagersignalhandler.o(i._ZN10QtMobility28DatabaseManagerSignalHandlerD1Ev)
    QtMobility::DatabaseManagerServerSignalHandler::~DatabaseManagerServerSignalHandler__deallocating() 0x0001532f   Thumb Code    24  databasemanagerserver.o(i._ZN10QtMobility34DatabaseManagerServerSignalHandlerD0Ev)
    QtMobility::DatabaseManagerServerSignalHandler::~DatabaseManagerServerSignalHandler() 0x00015347   Thumb Code    14  databasemanagerserver.o(i._ZN10QtMobility34DatabaseManagerServerSignalHandlerD1Ev)
    QtMobility::DatabaseManagerServerSignalHandler::~DatabaseManagerServerSignalHandler__sub_object() 0x00015347   Thumb Code     0  databasemanagerserver.o(i._ZN10QtMobility34DatabaseManagerServerSignalHandlerD1Ev)
    QtMobility::QServiceInterfaceDescriptorPrivate::QServiceInterfaceDescriptorPrivate() 0x00015355   Thumb Code    60  servicedatabase.o(i._ZN10QtMobility34QServiceInterfaceDescriptorPrivateC1Ev)
    QtMobility::QServiceInterfaceDescriptorPrivate::QServiceInterfaceDescriptorPrivate__sub_object() 0x00015355   Thumb Code     0  servicedatabase.o(i._ZN10QtMobility34QServiceInterfaceDescriptorPrivateC1Ev)
    QtMobility::QServiceInterfaceDescriptorPrivate::~QServiceInterfaceDescriptorPrivate() 0x000153af   Thumb Code    46  qserviceinterfacedescriptor.o(i._ZN10QtMobility34QServiceInterfaceDescriptorPrivateD1Ev)
    QtMobility::QServiceInterfaceDescriptorPrivate::~QServiceInterfaceDescriptorPrivate__sub_object() 0x000153af   Thumb Code     0  qserviceinterfacedescriptor.o(i._ZN10QtMobility34QServiceInterfaceDescriptorPrivateD1Ev)
    QtMobility::DBError::~DBError()          0x000153fb   Thumb Code    14  servicedatabase.o(i._ZN10QtMobility7DBErrorD1Ev)
    QtMobility::DBError::~DBError__sub_object() 0x000153fb   Thumb Code     0  servicedatabase.o(i._ZN10QtMobility7DBErrorD1Ev)
    QDataStream::operator <<(unsigned short) 0x00015409   Thumb Code    18  qserviceinterfacedescriptor.o(i._ZN11QDataStreamlsEt)
    QStringList::QStringList()               0x0001541b   Thumb Code    14  servicedatabase.o(i._ZN11QStringListC1Ev)
    QStringList::QStringList__sub_object()   0x0001541b   Thumb Code     0  servicedatabase.o(i._ZN11QStringListC1Ev)
    QStringList::~QStringList()              0x00015429   Thumb Code    14  servicemetadata.o(i._ZN11QStringListD1Ev)
    QStringList::~QStringList__sub_object()  0x00015429   Thumb Code     0  servicemetadata.o(i._ZN11QStringListD1Ev)
    QStringList::operator <<(const QString&) 0x00015437   Thumb Code    18  servicedatabase.o(i._ZN11QStringListlsERK7QString)
    QBasicAtomicInt::ref()                   0x00015449   Thumb Code    24  servicemetadata.o(i._ZN15QBasicAtomicInt3refEv)
    QBasicAtomicInt::deref()                 0x00015461   Thumb Code    24  servicemetadata.o(i._ZN15QBasicAtomicInt5derefEv)
    QForeachContainer<QStringList>::~QForeachContainer() 0x00015479   Thumb Code    14  servicedatabase.o(i._ZN17QForeachContainerI11QStringListED1Ev)
    QForeachContainer<QStringList>::~QForeachContainer__sub_object() 0x00015479   Thumb Code     0  servicedatabase.o(i._ZN17QForeachContainerI11QStringListED1Ev)
    QForeachContainer<QSet<QString>>::~QForeachContainer() 0x00015487   Thumb Code    14  databasemanagerserver.o(i._ZN17QForeachContainerI4QSetI7QStringEED1Ev)
    QForeachContainer<QSet<QString>>::~QForeachContainer__sub_object() 0x00015487   Thumb Code     0  databasemanagerserver.o(i._ZN17QForeachContainerI4QSetI7QStringEED1Ev)
    QForeachContainer<QList<QVariant>>::~QForeachContainer() 0x00015495   Thumb Code    14  servicedatabase.o(i._ZN17QForeachContainerI5QListI8QVariantEED1Ev)
    QForeachContainer<QList<QVariant>>::~QForeachContainer__sub_object() 0x00015495   Thumb Code     0  servicedatabase.o(i._ZN17QForeachContainerI5QListI8QVariantEED1Ev)
    QForeachContainer<QList<QtMobility::QServiceInterfaceDescriptor>>::~QForeachContainer() 0x000154a3   Thumb Code    14  servicedatabase.o(i._ZN17QForeachContainerI5QListIN10QtMobility27QServiceInterfaceDescriptorEEED1Ev)
    QForeachContainer<QList<QtMobility::QServiceInterfaceDescriptor>>::~QForeachContainer__sub_object() 0x000154a3   Thumb Code     0  servicedatabase.o(i._ZN17QForeachContainerI5QListIN10QtMobility27QServiceInterfaceDescriptorEEED1Ev)
    QXmlStreamAttributes::~QXmlStreamAttributes() 0x000154b1   Thumb Code    14  servicemetadata.o(i._ZN20QXmlStreamAttributesD1Ev)
    QXmlStreamAttributes::~QXmlStreamAttributes__sub_object() 0x000154b1   Thumb Code     0  servicemetadata.o(i._ZN20QXmlStreamAttributesD1Ev)
    QSet<QString>::~QSet()                   0x000154bf   Thumb Code    14  servicemetadata.o(i._ZN4QSetI7QStringED1Ev)
    QSet<QString>::~QSet__sub_object()       0x000154bf   Thumb Code     0  servicemetadata.o(i._ZN4QSetI7QStringED1Ev)
    CBase::operator new(unsigned)            0x000154cd   Thumb Code    16  databasemanagerservermain.o(i._ZN5CBasenwEj)
    QPair<QString, QString>::QPair(const QPair<QString, QString>&) 0x000154dd   Thumb Code    30  servicedatabase.o(i._ZN5QPairI7QStringS0_EC1ERKS1_)
    QPair<QString, QString>::QPair__sub_object(const QPair<QString, QString>&) 0x000154dd   Thumb Code     0  servicedatabase.o(i._ZN5QPairI7QStringS0_EC1ERKS1_)
    QPair<QString, QString>::~QPair()        0x00015505   Thumb Code    22  servicedatabase.o(i._ZN5QPairI7QStringS0_ED1Ev)
    QPair<QString, QString>::~QPair__sub_object() 0x00015505   Thumb Code     0  servicedatabase.o(i._ZN5QPairI7QStringS0_ED1Ev)
    QDebug::maybeSpace()                     0x00015525   Thumb Code    24  servicemetadata.o(i._ZN6QDebug10maybeSpaceEv)
    QDebug::~QDebug()                        0x0001553d   Thumb Code   154  servicemetadata.o(i._ZN6QDebugD1Ev)
    QDebug::~QDebug__sub_object()            0x0001553d   Thumb Code     0  servicemetadata.o(i._ZN6QDebugD1Ev)
    QDebug::operator <<(const char*)         0x000155eb   Thumb Code    44  servicemetadata.o(i._ZN6QDebuglsEPKc)
    QDebug::operator <<(const QString&)      0x00015621   Thumb Code    38  servicemetadata.o(i._ZN6QDebuglsERK7QString)
    TPtr16::TPtr16(const TPtr16&)            0x00015647   Thumb Code    14  databasemanagersession.o(i._ZN6TPtr16C1ERKS_)
    TPtr16::TPtr16__sub_object(const TPtr16&) 0x00015647   Thumb Code     0  databasemanagersession.o(i._ZN6TPtr16C1ERKS_)
    QString::clear()                         0x00015655   Thumb Code    40  servicemetadata.o(i._ZN7QString5clearEv)
    QString::append(const char*)             0x00015687   Thumb Code    40  servicedatabase.o(i._ZN7QString6appendEPKc)
    QString::QString(const char*)            0x000156b9   Thumb Code    22  servicemetadata.o(i._ZN7QStringC1EPKc)
    QString::QString__sub_object(const char*) 0x000156b9   Thumb Code     0  servicemetadata.o(i._ZN7QStringC1EPKc)
    QString::QString(const QLatin1String&)   0x000156cf   Thumb Code    26  servicedatabase.o(i._ZN7QStringC1ERK13QLatin1String)
    QString::QString__sub_object(const QLatin1String&) 0x000156cf   Thumb Code     0  servicedatabase.o(i._ZN7QStringC1ERK13QLatin1String)
    QString::QString(const QString&)         0x000156e9   Thumb Code    22  servicemetadata.o(i._ZN7QStringC1ERKS_)
    QString::QString__sub_object(const QString&) 0x000156e9   Thumb Code     0  servicemetadata.o(i._ZN7QStringC1ERKS_)
    QString::QString()                       0x00015701   Thumb Code    18  servicemetadata.o(i._ZN7QStringC1Ev)
    QString::QString__sub_object()           0x00015701   Thumb Code     0  servicemetadata.o(i._ZN7QStringC1Ev)
    QString::~QString()                      0x00015719   Thumb Code    24  servicemetadata.o(i._ZN7QStringD1Ev)
    QString::~QString__sub_object()          0x00015719   Thumb Code     0  servicemetadata.o(i._ZN7QStringD1Ev)
    QString::operator =(const char*)         0x00015731   Thumb Code    40  servicedatabase.o(i._ZN7QStringaSEPKc)
    QVariant::QVariant()                     0x00015763   Thumb Code    38  servicedatabase.o(i._ZN8QVariantC1Ev)
    QVariant::QVariant__sub_object()         0x00015763   Thumb Code     0  servicedatabase.o(i._ZN8QVariantC1Ev)
    QHashData::willGrow()                    0x00015789   Thumb Code    32  servicemetadata.o(i._ZN9QHashData8willGrowEv)
    QHashData::firstNode()                   0x000157a9   Thumb Code    36  servicedatabase.o(i._ZN9QHashData9firstNodeEv)
    QtMobility::ServiceDatabase::lastError() const 0x000157cd   Thumb Code    30  databasemanagersession.o(i._ZNK10QtMobility15ServiceDatabase9lastErrorEv)
    QStringList::contains(const QString&, Qt::CaseSensitivity) const 0x000157eb   Thumb Code    22  servicedatabase.o(i._ZNK11QStringList8containsERK7QStringN2Qt15CaseSensitivityE)
    QBasicAtomicInt::operator ==(int) const  0x00015801   Thumb Code    16  servicedatabase.o(i._ZNK15QBasicAtomicInteqEi)
    QBasicAtomicInt::operator !=(int) const  0x00015811   Thumb Code    16  servicemetadata.o(i._ZNK15QBasicAtomicIntneEi)
    QXmlStreamReader::isEndElement() const   0x00015821   Thumb Code    22  servicemetadata.o(i._ZNK16QXmlStreamReader12isEndElementEv)
    QXmlStreamReader::isStartElement() const 0x00015837   Thumb Code    22  servicemetadata.o(i._ZNK16QXmlStreamReader14isStartElementEv)
    QXmlStreamAttributes::hasAttribute(const QString&) const 0x0001584d   Thumb Code    52  servicemetadata.o(i._ZNK20QXmlStreamAttributes12hasAttributeERK7QString)
    QBool::operator const void*() const      0x0001588b   Thumb Code    16  servicedatabase.o(i._ZNK5QBoolcvPKvEv)
    QString::arg(int, int, int, const QChar&) const 0x0001589b   Thumb Code    36  servicedatabase.o(i._ZNK7QString3argEiiiRK5QChar)
    QString::isNull() const                  0x000158c1   Thumb Code    18  servicemetadata.o(i._ZNK7QString6isNullEv)
    QString::isEmpty() const                 0x000158d9   Thumb Code    18  servicemetadata.o(i._ZNK7QString7isEmptyEv)
    QString::operator ==(const char*) const  0x000158ed   Thumb Code    72  servicedatabase.o(i._ZNK7QStringeqEPKc)
    QString::operator !=(const QString&) const 0x00015943   Thumb Code    20  servicedatabase.o(i._ZNK7QStringneERKS_)
    QListData::at(int) const                 0x00015957   Thumb Code    20  servicemetadata.o(i._ZNK9QListData2atEi)
    QListData::end() const                   0x0001596b   Thumb Code    16  servicemetadata.o(i._ZNK9QListData3endEv)
    QListData::size() const                  0x0001597b   Thumb Code    14  databasemanagersession.o(i._ZNK9QListData4sizeEv)
    QListData::begin() const                 0x00015989   Thumb Code    16  servicemetadata.o(i._ZNK9QListData5beginEv)
    operator delete (void*, void*)           0x00015999   Thumb Code     2  servicemetadata.o(i._ZdlPvS_)
    operator ==(const QStringRef&, const char*) 0x0001599b   Thumb Code    16  servicemetadata.o(i._ZeqRK10QStringRefPKc)
    operator !=(const QStringRef&, const char*) 0x000159ab   Thumb Code    20  servicemetadata.o(i._ZneRK10QStringRefPKc)
    operator new(unsigned, void*)            0x000159bf   Thumb Code     6  servicemetadata.o(i._ZnwjPv)
    operator +(const char*, const QString&)  0x000159c5   Thumb Code    48  servicedatabase.o(i._ZplPKcRK7QString)
    operator +(const QString&, QChar)        0x000159ff   Thumb Code   128  databasemanagerserver.o(i._ZplRK7QString5QChar)
    operator +(const QString&, const char*)  0x00015a89   Thumb Code    60  servicedatabase.o(i._ZplRK7QStringPKc)
    operator +(const QString&, const QString&) 0x00015ad5   Thumb Code    44  servicemetadata.o(i._ZplRK7QStringS1_)
    qForeachContainerNew<QStringList>(const T1&) 0x00015b0b   Thumb Code   132  servicedatabase.o(t._Z20qForeachContainerNewI11QStringListE17QForeachContainerIT_ERKS2_)
    qForeachContainerNew<QList<QtMobility::QServiceInterfaceDescriptor>>(const T1&) 0x00015b99   Thumb Code   102  servicedatabase.o(t._Z20qForeachContainerNewI5QListIN10QtMobility27QServiceInterfaceDescriptorEEE17QForeachContainerIT_ERKS5_)
    qMakePair<QString, QString>(const T1&, const T2&) 0x00015c09   Thumb Code    34  servicedatabase.o(t._Z9qMakePairI7QStringS0_E5QPairIT_T0_ERKS2_RKS3_)
    QHashDummyNode<QString, QHashDummyValue>::QHashDummyNode(const QString&) 0x00015c35   Thumb Code    24  servicemetadata.o(t._ZN14QHashDummyNodeI7QString15QHashDummyValueEC1ERKS0_)
    QHashDummyNode<QString, QHashDummyValue>::QHashDummyNode__sub_object(const QString&) 0x00015c35   Thumb Code     0  servicemetadata.o(t._ZN14QHashDummyNodeI7QString15QHashDummyValueEC1ERKS0_)
    QSet<QString>::insert(const QString&)    0x00015c4d   Thumb Code    46  databasemanagerserver.o(t._ZN4QSetI7QStringE6insertERKS0_)
    QSet<QString>::subtract(const QSet<QString>&) 0x00015c7b   Thumb Code   204  databasemanagerserver.o(t._ZN4QSetI7QStringE8subtractERKS1_)
    QSet<QString>::QSet(const QSet<QString>&) 0x00015d57   Thumb Code    42  servicedatabase.o(t._ZN4QSetI7QStringEC1ERKS1_)
    QSet<QString>::QSet__sub_object(const QSet<QString>&) 0x00015d57   Thumb Code     0  servicedatabase.o(t._ZN4QSetI7QStringEC1ERKS1_)
    QSet<QString>::QSet()                    0x00015d81   Thumb Code    14  servicemetadata.o(t._ZN4QSetI7QStringEC1Ev)
    QSet<QString>::QSet__sub_object()        0x00015d81   Thumb Code     0  servicemetadata.o(t._ZN4QSetI7QStringEC1Ev)
    QHash<QString, QHashDummyValue>::deleteNode2(QHashData::Node*) 0x00015d8f   Thumb Code    24  servicemetadata.o(t._ZN5QHashI7QString15QHashDummyValueE11deleteNode2EPN9QHashData4NodeE)
    QHash<QString, QHashDummyValue>::detach_helper() 0x00015da9   Thumb Code    52  servicemetadata.o(t._ZN5QHashI7QString15QHashDummyValueE13detach_helperEv)
    QHash<QString, QHashDummyValue>::duplicateNode(QHashData::Node*, void*) 0x00015de5   Thumb Code    44  servicemetadata.o(t._ZN5QHashI7QString15QHashDummyValueE13duplicateNodeEPN9QHashData4NodeEPv)
    QHash<QString, QHashDummyValue>::detach() 0x00015e1d   Thumb Code    28  servicedatabase.o(t._ZN5QHashI7QString15QHashDummyValueE6detachEv)
    QHash<QString, QHashDummyValue>::insert(const QString&, const QHashDummyValue&) 0x00015e39   Thumb Code   168  servicedatabase.o(t._ZN5QHashI7QString15QHashDummyValueE6insertERKS0_RKS1_)
    QHash<QString, QHashDummyValue>::remove(const QString&) 0x00015eed   Thumb Code   248  servicedatabase.o(t._ZN5QHashI7QString15QHashDummyValueE6removeERKS0_)
    QHash<QString, QHashDummyValue>::freeData(QHashData*) 0x00015fe5   Thumb Code    16  servicemetadata.o(t._ZN5QHashI7QString15QHashDummyValueE8freeDataEP9QHashData)
    QHash<QString, QHashDummyValue>::QHash() 0x00015ff9   Thumb Code    22  servicemetadata.o(t._ZN5QHashI7QString15QHashDummyValueEC1Ev)
    QHash<QString, QHashDummyValue>::QHash__sub_object() 0x00015ff9   Thumb Code     0  servicemetadata.o(t._ZN5QHashI7QString15QHashDummyValueEC1Ev)
    QHash<QString, QHashDummyValue>::~QHash() 0x00016015   Thumb Code    30  servicemetadata.o(t._ZN5QHashI7QString15QHashDummyValueED1Ev)
    QHash<QString, QHashDummyValue>::~QHash__sub_object() 0x00016015   Thumb Code     0  servicemetadata.o(t._ZN5QHashI7QString15QHashDummyValueED1Ev)
    QHash<QString, QHashDummyValue>::operator =(const QHash<QString, QHashDummyValue>&) 0x00016033   Thumb Code    70  servicedatabase.o(t._ZN5QHashI7QString15QHashDummyValueEaSERKS2_)
    QHash<QString, QString>::createNode(unsigned, const QString&, const QString&, QHashNode<QString, QString>**) 0x00016079   Thumb Code   100  qserviceinterfacedescriptor.o(t._ZN5QHashI7QStringS0_E10createNodeEjRKS0_S3_PP9QHashNodeIS0_S0_E)
    QHash<QString, QString>::deleteNode2(QHashData::Node*) 0x000160eb   Thumb Code    36  servicemetadata.o(t._ZN5QHashI7QStringS0_E11deleteNode2EPN9QHashData4NodeE)
    QHash<QString, QString>::detach_helper() 0x0001611d   Thumb Code    52  servicemetadata.o(t._ZN5QHashI7QStringS0_E13detach_helperEv)
    QHash<QString, QString>::duplicateNode(QHashData::Node*, void*) 0x00016159   Thumb Code    46  servicemetadata.o(t._ZN5QHashI7QStringS0_E13duplicateNodeEPN9QHashData4NodeEPv)
    QHash<QString, QString>::const_iterator::operator ++() 0x00016195   Thumb Code    16  servicedatabase.o(t._ZN5QHashI7QStringS0_E14const_iteratorppEv)
    QHash<QString, QString>::clear()         0x000161a5   Thumb Code    28  qserviceinterfacedescriptor.o(t._ZN5QHashI7QStringS0_E5clearEv)
    QHash<QString, QString>::detach()        0x000161cb   Thumb Code    28  qserviceinterfacedescriptor.o(t._ZN5QHashI7QStringS0_E6detachEv)
    QHash<QString, QString>::remove(const QString&) 0x000161e7   Thumb Code   248  qservicefilter.o(t._ZN5QHashI7QStringS0_E6removeERKS0_)
    QHash<QString, QString>::freeData(QHashData*) 0x000162e1   Thumb Code    16  servicemetadata.o(t._ZN5QHashI7QStringS0_E8freeDataEP9QHashData)
    QHash<QString, QString>::QHash()         0x000162f5   Thumb Code    22  servicedatabase.o(t._ZN5QHashI7QStringS0_EC1Ev)
    QHash<QString, QString>::QHash__sub_object() 0x000162f5   Thumb Code     0  servicedatabase.o(t._ZN5QHashI7QStringS0_EC1Ev)
    QHash<QString, QString>::~QHash()        0x00016311   Thumb Code    30  servicedatabase.o(t._ZN5QHashI7QStringS0_ED1Ev)
    QHash<QString, QString>::~QHash__sub_object() 0x00016311   Thumb Code     0  servicedatabase.o(t._ZN5QHashI7QStringS0_ED1Ev)
    QHash<QString, QString>::operator =(const QHash<QString, QString>&) 0x0001632f   Thumb Code    70  qserviceinterfacedescriptor.o(t._ZN5QHashI7QStringS0_EaSERKS1_)
    QHash<QString, QString>::operator [](const QString&) 0x00016375   Thumb Code   208  servicemetadata.o(t._ZN5QHashI7QStringS0_EixERKS0_)
    QHash<QString, int>::deleteNode2(QHashData::Node*) 0x0001645d   Thumb Code    24  servicemetadata.o(t._ZN5QHashI7QStringiE11deleteNode2EPN9QHashData4NodeE)
    QHash<QString, int>::detach_helper()     0x00016475   Thumb Code    52  servicemetadata.o(t._ZN5QHashI7QStringiE13detach_helperEv)
    QHash<QString, int>::duplicateNode(QHashData::Node*, void*) 0x000164b1   Thumb Code    46  servicemetadata.o(t._ZN5QHashI7QStringiE13duplicateNodeEPN9QHashData4NodeEPv)
    QHash<QString, int>::freeData(QHashData*) 0x000164ed   Thumb Code    16  servicemetadata.o(t._ZN5QHashI7QStringiE8freeDataEP9QHashData)
    QHash<QString, int>::QHash()             0x00016501   Thumb Code    22  servicemetadata.o(t._ZN5QHashI7QStringiEC1Ev)
    QHash<QString, int>::QHash__sub_object() 0x00016501   Thumb Code     0  servicemetadata.o(t._ZN5QHashI7QStringiEC1Ev)
    QHash<QString, int>::~QHash()            0x0001651d   Thumb Code    30  servicemetadata.o(t._ZN5QHashI7QStringiED1Ev)
    QHash<QString, int>::~QHash__sub_object() 0x0001651d   Thumb Code     0  servicemetadata.o(t._ZN5QHashI7QStringiED1Ev)
    QHash<QString, int>::operator [](const QString&) 0x0001653b   Thumb Code   182  servicemetadata.o(t._ZN5QHashI7QStringiEixERKS0_)
    QHash<QtMobility::QServiceInterfaceDescriptor::Attribute, QVariant>::deleteNode2(QHashData::Node*) 0x000165ff   Thumb Code    24  servicemetadata.o(t._ZN5QHashIN10QtMobility27QServiceInterfaceDescriptor9AttributeE8QVariantE11deleteNode2EPN9QHashData4NodeE)
    QHash<QtMobility::QServiceInterfaceDescriptor::Attribute, QVariant>::detach_helper() 0x00016619   Thumb Code    52  servicemetadata.o(t._ZN5QHashIN10QtMobility27QServiceInterfaceDescriptor9AttributeE8QVariantE13detach_helperEv)
    QHash<QtMobility::QServiceInterfaceDescriptor::Attribute, QVariant>::duplicateNode(QHashData::Node*, void*) 0x00016655   Thumb Code    48  servicemetadata.o(t._ZN5QHashIN10QtMobility27QServiceInterfaceDescriptor9AttributeE8QVariantE13duplicateNodeEPN9QHashData4NodeEPv)
    QHash<QtMobility::QServiceInterfaceDescriptor::Attribute, QVariant>::clear() 0x00016693   Thumb Code    28  qserviceinterfacedescriptor.o(t._ZN5QHashIN10QtMobility27QServiceInterfaceDescriptor9AttributeE8QVariantE5clearEv)
    QHash<QtMobility::QServiceInterfaceDescriptor::Attribute, QVariant>::freeData(QHashData*) 0x000166b9   Thumb Code    16  servicemetadata.o(t._ZN5QHashIN10QtMobility27QServiceInterfaceDescriptor9AttributeE8QVariantE8freeDataEP9QHashData)
    QHash<QtMobility::QServiceInterfaceDescriptor::Attribute, QVariant>::QHash() 0x000166cd   Thumb Code    22  servicedatabase.o(t._ZN5QHashIN10QtMobility27QServiceInterfaceDescriptor9AttributeE8QVariantEC1Ev)
    QHash<QtMobility::QServiceInterfaceDescriptor::Attribute, QVariant>::QHash__sub_object() 0x000166cd   Thumb Code     0  servicedatabase.o(t._ZN5QHashIN10QtMobility27QServiceInterfaceDescriptor9AttributeE8QVariantEC1Ev)
    QHash<QtMobility::QServiceInterfaceDescriptor::Attribute, QVariant>::~QHash() 0x000166e9   Thumb Code    30  servicemetadata.o(t._ZN5QHashIN10QtMobility27QServiceInterfaceDescriptor9AttributeE8QVariantED1Ev)
    QHash<QtMobility::QServiceInterfaceDescriptor::Attribute, QVariant>::~QHash__sub_object() 0x000166e9   Thumb Code     0  servicemetadata.o(t._ZN5QHashIN10QtMobility27QServiceInterfaceDescriptor9AttributeE8QVariantED1Ev)
    QHash<QtMobility::QServiceInterfaceDescriptor::Attribute, QVariant>::operator =(const QHash<QtMobility::QServiceInterfaceDescriptor::Attribute, QVariant>&) 0x00016707   Thumb Code    70  qserviceinterfacedescriptor.o(t._ZN5QHashIN10QtMobility27QServiceInterfaceDescriptor9AttributeE8QVariantEaSERKS4_)
    QHash<QtMobility::QServiceInterfaceDescriptor::Attribute, QVariant>::operator [](const QtMobility::QServiceInterfaceDescriptor::Attribute&) 0x0001674d   Thumb Code   208  servicedatabase.o(t._ZN5QHashIN10QtMobility27QServiceInterfaceDescriptor9AttributeE8QVariantEixERKS2_)
    QList<QPair<QString, QString>>::node_destruct(QList<QPair<QString, QString>>::Node*, QList<QPair<QString, QString>>::Node*) 0x00016835   Thumb Code    38  servicedatabase.o(t._ZN5QListI5QPairI7QStringS1_EE13node_destructEPNS3_4NodeES5_)
    QList<QPair<QString, QString>>::node_construct(QList<QPair<QString, QString>>::Node*, const QPair<QString, QString>&) 0x0001685b   Thumb Code    34  servicedatabase.o(t._ZN5QListI5QPairI7QStringS1_EE14node_constructEPNS3_4NodeERKS2_)
    QList<QPair<QString, QString>>::detach_helper_grow(int, int) 0x0001688b   Thumb Code   208  servicedatabase.o(t._ZN5QListI5QPairI7QStringS1_EE18detach_helper_growEii)
    QList<QPair<QString, QString>>::free(QListData::Data*) 0x0001696b   Thumb Code    52  servicedatabase.o(t._ZN5QListI5QPairI7QStringS1_EE4freeEPN9QListData4DataE)
    QList<QPair<QString, QString>>::append(const QPair<QString, QString>&) 0x000169a1   Thumb Code   106  servicedatabase.o(t._ZN5QListI5QPairI7QStringS1_EE6appendERKS2_)
    QList<QPair<QString, QString>>::node_copy(QList<QPair<QString, QString>>::Node*, QList<QPair<QString, QString>>::Node*, QList<QPair<QString, QString>>::Node*) 0x00016a1f   Thumb Code    92  servicedatabase.o(t._ZN5QListI5QPairI7QStringS1_EE9node_copyEPNS3_4NodeES5_S5_)
    QList<QPair<QString, QString>>::~QList() 0x00016a91   Thumb Code    32  servicedatabase.o(t._ZN5QListI5QPairI7QStringS1_EED1Ev)
    QList<QPair<QString, QString>>::~QList__sub_object() 0x00016a91   Thumb Code     0  servicedatabase.o(t._ZN5QListI5QPairI7QStringS1_EED1Ev)
    QList<QString>::detach_helper(int)       0x00016ab1   Thumb Code    94  servicedatabase.o(t._ZN5QListI7QStringE13detach_helperEi)
    QList<QString>::detach_helper()          0x00016b17   Thumb Code    16  servicemetadata.o(t._ZN5QListI7QStringE13detach_helperEv)
    QList<QString>::node_destruct(QList<QString>::Node*, QList<QString>::Node*) 0x00016b27   Thumb Code    26  servicedatabase.o(t._ZN5QListI7QStringE13node_destructEPNS1_4NodeES3_)
    QList<QString>::node_construct(QList<QString>::Node*, const QString&) 0x00016b41   Thumb Code    36  servicedatabase.o(t._ZN5QListI7QStringE14node_constructEPNS1_4NodeERKS0_)
    QList<QString>::detach_helper_grow(int, int) 0x00016b73   Thumb Code   208  servicedatabase.o(t._ZN5QListI7QStringE18detach_helper_growEii)
    QList<QString>::free(QListData::Data*)   0x00016c53   Thumb Code    52  servicedatabase.o(t._ZN5QListI7QStringE4freeEPN9QListData4DataE)
    QList<QString>::begin()                  0x00016c87   Thumb Code    40  databasemanagerserver.o(t._ZN5QListI7QStringE5beginEv)
    QList<QString>::clear()                  0x00016caf   Thumb Code    28  qservicefilter.o(t._ZN5QListI7QStringE5clearEv)
    QList<QString>::first()                  0x00016cd5   Thumb Code    50  servicedatabase.o(t._ZN5QListI7QStringE5firstEv)
    QList<QString>::append(const QString&)   0x00016d09   Thumb Code   114  servicedatabase.o(t._ZN5QListI7QStringE6appendERKS0_)
    QList<QString>::reserve(int)             0x00016d8f   Thumb Code    46  servicedatabase.o(t._ZN5QListI7QStringE7reserveEi)
    QList<QString>::node_copy(QList<QString>::Node*, QList<QString>::Node*, QList<QString>::Node*) 0x00016dbd   Thumb Code    82  servicedatabase.o(t._ZN5QListI7QStringE9node_copyEPNS1_4NodeES3_S3_)
    QList<QString>::QList(const QList<QString>&) 0x00016e25   Thumb Code    36  qservicefilter.o(t._ZN5QListI7QStringEC1ERKS1_)
    QList<QString>::QList__sub_object(const QList<QString>&) 0x00016e25   Thumb Code     0  qservicefilter.o(t._ZN5QListI7QStringEC1ERKS1_)
    QList<QString>::QList()                  0x00016e49   Thumb Code    18  servicedatabase.o(t._ZN5QListI7QStringEC1Ev)
    QList<QString>::QList__sub_object()      0x00016e49   Thumb Code     0  servicedatabase.o(t._ZN5QListI7QStringEC1Ev)
    QList<QString>::~QList()                 0x00016e61   Thumb Code    32  servicemetadata.o(t._ZN5QListI7QStringED1Ev)
    QList<QString>::~QList__sub_object()     0x00016e61   Thumb Code     0  servicemetadata.o(t._ZN5QListI7QStringED1Ev)
    QList<QString>::operator =(const QList<QString>&) 0x00016e81   Thumb Code    64  qservicefilter.o(t._ZN5QListI7QStringEaSERKS1_)
    QList<QString>::operator [](int)         0x00016ec1   Thumb Code    42  servicemetadata.o(t._ZN5QListI7QStringEixEi)
    QList<QVariant>::detach_helper(int)      0x00016eeb   Thumb Code    94  servicedatabase.o(t._ZN5QListI8QVariantE13detach_helperEi)
    QList<QVariant>::detach_helper()         0x00016f51   Thumb Code    16  servicedatabase.o(t._ZN5QListI8QVariantE13detach_helperEv)
    QList<QVariant>::node_destruct(QList<QVariant>::Node*, QList<QVariant>::Node*) 0x00016f61   Thumb Code    38  servicedatabase.o(t._ZN5QListI8QVariantE13node_destructEPNS1_4NodeES3_)
    QList<QVariant>::node_construct(QList<QVariant>::Node*, const QVariant&) 0x00016f87   Thumb Code    34  servicedatabase.o(t._ZN5QListI8QVariantE14node_constructEPNS1_4NodeERKS0_)
    QList<QVariant>::detach_helper_grow(int, int) 0x00016fb7   Thumb Code   208  servicedatabase.o(t._ZN5QListI8QVariantE18detach_helper_growEii)
    QList<QVariant>::free(QListData::Data*)  0x00017097   Thumb Code    52  servicedatabase.o(t._ZN5QListI8QVariantE4freeEPN9QListData4DataE)
    QList<QVariant>::clear()                 0x000170cb   Thumb Code    76  servicedatabase.o(t._ZN5QListI8QVariantE5clearEv)
    QList<QVariant>::append(const QVariant&) 0x00017121   Thumb Code   106  servicedatabase.o(t._ZN5QListI8QVariantE6appendERKS0_)
    QList<QVariant>::node_copy(QList<QVariant>::Node*, QList<QVariant>::Node*, QList<QVariant>::Node*) 0x0001719f   Thumb Code    92  servicedatabase.o(t._ZN5QListI8QVariantE9node_copyEPNS1_4NodeES3_S3_)
    QList<QVariant>::QList()                 0x00017211   Thumb Code    18  servicedatabase.o(t._ZN5QListI8QVariantEC1Ev)
    QList<QVariant>::QList__sub_object()     0x00017211   Thumb Code     0  servicedatabase.o(t._ZN5QListI8QVariantEC1Ev)
    QList<QVariant>::~QList()                0x00017229   Thumb Code    32  servicedatabase.o(t._ZN5QListI8QVariantED1Ev)
    QList<QVariant>::~QList__sub_object()    0x00017229   Thumb Code     0  servicedatabase.o(t._ZN5QListI8QVariantED1Ev)
    QList<QtMobility::QServiceInterfaceDescriptor>::detach_helper(int) 0x00017249   Thumb Code    94  servicemetadata.o(t._ZN5QListIN10QtMobility27QServiceInterfaceDescriptorEE13detach_helperEi)
    QList<QtMobility::QServiceInterfaceDescriptor>::detach_helper() 0x000172af   Thumb Code    16  servicemetadata.o(t._ZN5QListIN10QtMobility27QServiceInterfaceDescriptorEE13detach_helperEv)
    QList<QtMobility::QServiceInterfaceDescriptor>::node_destruct(QList<QtMobility::QServiceInterfaceDescriptor>::Node*, QList<QtMobility::QServiceInterfaceDescriptor>::Node*) 0x000172bf   Thumb Code    38  servicemetadata.o(t._ZN5QListIN10QtMobility27QServiceInterfaceDescriptorEE13node_destructEPNS2_4NodeES4_)
    QList<QtMobility::QServiceInterfaceDescriptor>::node_construct(QList<QtMobility::QServiceInterfaceDescriptor>::Node*, const QtMobility::QServiceInterfaceDescriptor&) 0x000172e5   Thumb Code    34  servicemetadata.o(t._ZN5QListIN10QtMobility27QServiceInterfaceDescriptorEE14node_constructEPNS2_4NodeERKS1_)
    QList<QtMobility::QServiceInterfaceDescriptor>::detach_helper_grow(int, int) 0x00017315   Thumb Code   208  servicemetadata.o(t._ZN5QListIN10QtMobility27QServiceInterfaceDescriptorEE18detach_helper_growEii)
    QList<QtMobility::QServiceInterfaceDescriptor>::free(QListData::Data*) 0x000173f5   Thumb Code    52  servicedatabase.o(t._ZN5QListIN10QtMobility27QServiceInterfaceDescriptorEE4freeEPN9QListData4DataE)
    QList<QtMobility::QServiceInterfaceDescriptor>::clear() 0x00017429   Thumb Code    28  servicemetadata.o(t._ZN5QListIN10QtMobility27QServiceInterfaceDescriptorEE5clearEv)
    QList<QtMobility::QServiceInterfaceDescriptor>::append(const QtMobility::QServiceInterfaceDescriptor&) 0x00017451   Thumb Code   106  servicemetadata.o(t._ZN5QListIN10QtMobility27QServiceInterfaceDescriptorEE6appendERKS1_)
    QList<QtMobility::QServiceInterfaceDescriptor>::reserve(int) 0x000174cf   Thumb Code    46  servicemetadata.o(t._ZN5QListIN10QtMobility27QServiceInterfaceDescriptorEE7reserveEi)
    QList<QtMobility::QServiceInterfaceDescriptor>::node_copy(QList<QtMobility::QServiceInterfaceDescriptor>::Node*, QList<QtMobility::QServiceInterfaceDescriptor>::Node*, QList<QtMobility::QServiceInterfaceDescriptor>::Node*) 0x000174fd   Thumb Code    92  servicemetadata.o(t._ZN5QListIN10QtMobility27QServiceInterfaceDescriptorEE9node_copyEPNS2_4NodeES4_S4_)
    QList<QtMobility::QServiceInterfaceDescriptor>::QList(const QList<QtMobility::QServiceInterfaceDescriptor>&) 0x0001756f   Thumb Code    36  servicedatabase.o(t._ZN5QListIN10QtMobility27QServiceInterfaceDescriptorEEC1ERKS2_)
    QList<QtMobility::QServiceInterfaceDescriptor>::QList__sub_object(const QList<QtMobility::QServiceInterfaceDescriptor>&) 0x0001756f   Thumb Code     0  servicedatabase.o(t._ZN5QListIN10QtMobility27QServiceInterfaceDescriptorEEC1ERKS2_)
    QList<QtMobility::QServiceInterfaceDescriptor>::QList() 0x00017595   Thumb Code    18  servicemetadata.o(t._ZN5QListIN10QtMobility27QServiceInterfaceDescriptorEEC1Ev)
    QList<QtMobility::QServiceInterfaceDescriptor>::QList__sub_object() 0x00017595   Thumb Code     0  servicemetadata.o(t._ZN5QListIN10QtMobility27QServiceInterfaceDescriptorEEC1Ev)
    QList<QtMobility::QServiceInterfaceDescriptor>::~QList() 0x000175ad   Thumb Code    32  servicemetadata.o(t._ZN5QListIN10QtMobility27QServiceInterfaceDescriptorEED1Ev)
    QList<QtMobility::QServiceInterfaceDescriptor>::~QList__sub_object() 0x000175ad   Thumb Code     0  servicemetadata.o(t._ZN5QListIN10QtMobility27QServiceInterfaceDescriptorEED1Ev)
    QList<QtMobility::QServiceInterfaceDescriptor>::operator =(const QList<QtMobility::QServiceInterfaceDescriptor>&) 0x000175cd   Thumb Code    64  servicemetadata.o(t._ZN5QListIN10QtMobility27QServiceInterfaceDescriptorEEaSERKS2_)
    QList<QtMobility::QServiceInterfaceDescriptor>::operator [](int) 0x0001760d   Thumb Code    42  databasemanagersession.o(t._ZN5QListIN10QtMobility27QServiceInterfaceDescriptorEEixEi)
    QVector<QXmlStreamAttribute>::free(QVectorTypedData<QXmlStreamAttribute>*) 0x00017637   Thumb Code    54  servicemetadata.o(t._ZN7QVectorI19QXmlStreamAttributeE4freeEP16QVectorTypedDataIS0_E)
    QVector<QXmlStreamAttribute>::~QVector() 0x0001766d   Thumb Code    34  servicemetadata.o(t._ZN7QVectorI19QXmlStreamAttributeED1Ev)
    QVector<QXmlStreamAttribute>::~QVector__sub_object() 0x0001766d   Thumb Code     0  servicemetadata.o(t._ZN7QVectorI19QXmlStreamAttributeED1Ev)
    TPckgBuf<int>::TPckgBuf(const int&)      0x0001768f   Thumb Code    46  databasemanagersession.o(t._ZN8TPckgBufIiEC1ERKi)
    TPckgBuf<int>::TPckgBuf__sub_object(const int&) 0x0001768f   Thumb Code     0  databasemanagersession.o(t._ZN8TPckgBufIiEC1ERKi)
    QHashNode<QString, QString>::QHashNode(const QString&, const QString&) 0x000176bd   Thumb Code    40  servicemetadata.o(t._ZN9QHashNodeI7QStringS0_EC1ERKS0_S3_)
    QHashNode<QString, QString>::QHashNode__sub_object(const QString&, const QString&) 0x000176bd   Thumb Code     0  servicemetadata.o(t._ZN9QHashNodeI7QStringS0_EC1ERKS0_S3_)
    QHashNode<QString, int>::QHashNode(const QString&, const int&) 0x000176f1   Thumb Code    30  servicemetadata.o(t._ZN9QHashNodeI7QStringiEC1ERKS0_RKi)
    QHashNode<QString, int>::QHashNode__sub_object(const QString&, const int&) 0x000176f1   Thumb Code     0  servicemetadata.o(t._ZN9QHashNodeI7QStringiEC1ERKS0_RKi)
    QHashNode<QtMobility::QServiceInterfaceDescriptor::Attribute, QVariant>::QHashNode(const QtMobility::QServiceInterfaceDescriptor::Attribute&, const QVariant&) 0x0001770f   Thumb Code    30  servicemetadata.o(t._ZN9QHashNodeIN10QtMobility27QServiceInterfaceDescriptor9AttributeE8QVariantEC1ERKS2_RKS3_)
    QHashNode<QtMobility::QServiceInterfaceDescriptor::Attribute, QVariant>::QHashNode__sub_object(const QtMobility::QServiceInterfaceDescriptor::Attribute&, const QVariant&) 0x0001770f   Thumb Code     0  servicemetadata.o(t._ZN9QHashNodeIN10QtMobility27QServiceInterfaceDescriptor9AttributeE8QVariantEC1ERKS2_RKS3_)
    QForeachContainer<QStringList>::condition() const 0x0001772d   Thumb Code    40  servicedatabase.o(t._ZNK17QForeachContainerI11QStringListE9conditionEv)
    QForeachContainer<QList<QtMobility::QServiceInterfaceDescriptor>>::condition() const 0x00017755   Thumb Code    40  servicedatabase.o(t._ZNK17QForeachContainerI5QListIN10QtMobility27QServiceInterfaceDescriptorEEE9conditionEv)
    QSet<QString>::const_iterator::operator !=(const QSet<QString>::const_iterator&) const 0x0001777d   Thumb Code    20  databasemanagerserver.o(t._ZNK4QSetI7QStringE14const_iteratorneERKS2_)
    QSet<QString>::operator -(const QSet<QString>&) const 0x00017791   Thumb Code    32  servicedatabase.o(t._ZNK4QSetI7QStringEmiERKS1_)
    QHash<QString, QHashDummyValue>::isEmpty() const 0x000177bb   Thumb Code    18  servicedatabase.o(t._ZNK5QHashI7QString15QHashDummyValueE7isEmptyEv)
    QHash<QString, QHashDummyValue>::findNode(const QString&, unsigned*) const 0x000177cd   Thumb Code   116  servicemetadata.o(t._ZNK5QHashI7QString15QHashDummyValueE8findNodeERKS0_Pj)
    QHash<QString, QString>::uniqueKeys() const 0x00017841   Thumb Code   158  servicedatabase.o(t._ZNK5QHashI7QStringS0_E10uniqueKeysEv)
    QHash<QString, QString>::const_iterator::operator !=(const QHash<QString, QString>::const_iterator&) const 0x000178e9   Thumb Code    18  servicedatabase.o(t._ZNK5QHashI7QStringS0_E14const_iteratorneERKS2_)
    QHash<QString, QString>::keys() const    0x000178fb   Thumb Code    94  qservicefilter.o(t._ZNK5QHashI7QStringS0_E4keysEv)
    QHash<QString, QString>::begin() const   0x00017963   Thumb Code    44  qservicefilter.o(t._ZNK5QHashI7QStringS0_E5beginEv)
    QHash<QString, QString>::findNode(const QString&, unsigned*) const 0x0001798f   Thumb Code   116  servicemetadata.o(t._ZNK5QHashI7QStringS0_E8findNodeERKS0_Pj)
    QHash<QString, QString>::operator ==(const QHash<QString, QString>&) const 0x00017a03   Thumb Code   274  qserviceinterfacedescriptor.o(t._ZNK5QHashI7QStringS0_EeqERKS1_)
    QHash<QString, int>::contains(const QString&) const 0x00017b15   Thumb Code    32  servicemetadata.o(t._ZNK5QHashI7QStringiE8containsERKS0_)
    QHash<QString, int>::findNode(const QString&, unsigned*) const 0x00017b35   Thumb Code   116  servicemetadata.o(t._ZNK5QHashI7QStringiE8findNodeERKS0_Pj)
    QHash<QtMobility::QServiceInterfaceDescriptor::Attribute, QVariant>::const_iterator::operator !=(const QHash<QtMobility::QServiceInterfaceDescriptor::Attribute, QVariant>::const_iterator&) const 0x00017ba9   Thumb Code    18  qserviceinterfacedescriptor.o(t._ZNK5QHashIN10QtMobility27QServiceInterfaceDescriptor9AttributeE8QVariantE14const_iteratorneERKS5_)
    QHash<QtMobility::QServiceInterfaceDescriptor::Attribute, QVariant>::findNode(const QtMobility::QServiceInterfaceDescriptor::Attribute&, unsigned*) const 0x00017bbb   Thumb Code   100  servicemetadata.o(t._ZNK5QHashIN10QtMobility27QServiceInterfaceDescriptor9AttributeE8QVariantE8findNodeERKS2_Pj)
    QHash<QtMobility::QServiceInterfaceDescriptor::Attribute, QVariant>::operator ==(const QHash<QtMobility::QServiceInterfaceDescriptor::Attribute, QVariant>&) const 0x00017c1f   Thumb Code   262  qserviceinterfacedescriptor.o(t._ZNK5QHashIN10QtMobility27QServiceInterfaceDescriptor9AttributeE8QVariantEeqERKS4_)
    QList<QString>::count() const            0x00017d25   Thumb Code    16  servicedatabase.o(t._ZNK5QListI7QStringE5countEv)
    QList<QString>::toSet() const            0x00017d35   Thumb Code   142  databasemanagerserver.o(t._ZNK5QListI7QStringE5toSetEv)
    QList<QString>::isEmpty() const          0x00017dcd   Thumb Code    24  servicedatabase.o(t._ZNK5QListI7QStringE7isEmptyEv)
    QList<QString>::operator ==(const QList<QString>&) const 0x00017de5   Thumb Code   108  databasemanagersession.o(t._ZNK5QListI7QStringEeqERKS1_)
    QList<QtMobility::QServiceInterfaceDescriptor>::at(int) const 0x00017e51   Thumb Code    22  servicemetadata.o(t._ZNK5QListIN10QtMobility27QServiceInterfaceDescriptorEE2atEi)
    operator <<<QString>(QDataStream&, const QList<T1>&) 0x00017e67   Thumb Code    74  databasemanagersession.o(t._ZlsI7QStringER11QDataStreamS2_RK5QListIT_E)
    operator <<<QString, QString>(QDataStream&, const QHash<T1, T2>&) 0x00017eb1   Thumb Code   106  qservicefilter.o(t._ZlsI7QStringS0_ER11QDataStreamS2_RK5QHashIT_T0_E)
    operator <<<QtMobility::QServiceInterfaceDescriptor::Attribute, QVariant>(QDataStream&, const QHash<T1, T2>&) 0x00017f1b   Thumb Code   114  qserviceinterfacedescriptor.o(t._ZlsIN10QtMobility27QServiceInterfaceDescriptor9AttributeE8QVariantER11QDataStreamS5_RK5QHashIT_T0_E)
    operator <<<QtMobility::QServiceInterfaceDescriptor>(QDataStream&, const QList<T1>&) 0x00017f8d   Thumb Code    76  databasemanagersession.o(t._ZlsIN10QtMobility27QServiceInterfaceDescriptorEER11QDataStreamS3_RK5QListIT_E)
    operator >><QString>(QDataStream&, QList<T1>&) 0x00017fd9   Thumb Code    94  qservicefilter.o(t._ZrsI7QStringER11QDataStreamS2_R5QListIT_E)
    operator >><QString, QString>(QDataStream&, QHash<T1, T2>&) 0x00018041   Thumb Code   188  qserviceinterfacedescriptor.o(t._ZrsI7QStringS0_ER11QDataStreamS2_R5QHashIT_T0_E)
    operator >><QtMobility::QServiceInterfaceDescriptor::Attribute, QVariant>(QDataStream&, QHash<T1, T2>&) 0x0001810d   Thumb Code   274  qserviceinterfacedescriptor.o(t._ZrsIN10QtMobility27QServiceInterfaceDescriptor9AttributeE8QVariantER11QDataStreamS5_R5QHashIT_T0_E)
    operator >><QtMobility::QServiceInterfaceDescriptor>(QDataStream&, QList<T1>&) 0x00018237   Thumb Code    94  servicemetadata.o(t._ZrsIN10QtMobility27QServiceInterfaceDescriptorEER11QDataStreamS3_R5QListIT_E)
    QtMobility::ServiceDatabase::staticMetaObject 0x0001ce9c   Data          16  servicedatabase.o(.constdata)
    QtMobility::QAbstractSecuritySession::staticMetaObject 0x0001de0c   Data          16  qabstractsecuritysession.o(.constdata)
    QtMobility::CDatabaseManagerServer::timeoutInterval 0x0001df94   Data           4  databasemanagerserver.o(.constdata)
    QtMobility::DatabaseManagerServerSignalHandler::staticMetaObject 0x0001df98   Data          16  databasemanagerserver.o(.constdata)
    QtMobility::DatabaseManagerSignalHandler::staticMetaObject 0x0001e00c   Data          16  databasemanagersignalhandler.o(.constdata)
    stlp_priv::_Integer_limits<signed char, (signed char)-128, (signed char)127, (int)-1, (bool)1>::digits 0x0001e0bc   Data           4  servicemetadata.o(.constdata__ZN9stlp_priv15_Integer_limitsIaLan128ELa127ELin1ELb1EE6digitsE)
    stlp_priv::_Integer_limits<bool, (bool)0, (bool)1, (int)1, (bool)0>::digits 0x0001e0c0   Data           4  servicemetadata.o(.constdata__ZN9stlp_priv15_Integer_limitsIbLb0ELb1ELi1ELb0EE6digitsE)
    stlp_priv::_Integer_limits<char, (char)128, (char)127, (int)-1, (bool)1>::digits 0x0001e0c4   Data           4  servicemetadata.o(.constdata__ZN9stlp_priv15_Integer_limitsIcLc128ELc127ELin1ELb1EE6digitsE)
    stlp_priv::_Integer_limits<unsigned char, (unsigned char)0, (unsigned char)255, (int)-1, (bool)1>::digits 0x0001e0c8   Data           4  servicemetadata.o(.constdata__ZN9stlp_priv15_Integer_limitsIhLh0ELh255ELin1ELb1EE6digitsE)
    stlp_priv::_Integer_limits<int, (int)-2147483648, (int)2147483647, (int)-1, (bool)1>::digits 0x0001e0cc   Data           4  servicemetadata.o(.constdata__ZN9stlp_priv15_Integer_limitsIiLin2147483648ELi2147483647ELin1ELb1EE6digitsE)
    stlp_priv::_Integer_limits<int, (int)-2147483648, (int)2147483647, (int)-1, (bool)1>::is_signed 0x0001e0d0   Data           1  servicemetadata.o(.constdata__ZN9stlp_priv15_Integer_limitsIiLin2147483648ELi2147483647ELin1ELb1EE9is_signedE)
    stlp_priv::_Integer_limits<unsigned, (unsigned)0, (unsigned)4294967295, (int)-1, (bool)1>::digits 0x0001e0d4   Data           4  servicemetadata.o(.constdata__ZN9stlp_priv15_Integer_limitsIjLj0ELj4294967295ELin1ELb1EE6digitsE)
    stlp_priv::_Integer_limits<long, (long)-2147483648, (long)2147483647, (int)-1, (bool)1>::digits 0x0001e0d8   Data           4  servicemetadata.o(.constdata__ZN9stlp_priv15_Integer_limitsIlLln2147483648ELl2147483647ELin1ELb1EE6digitsE)
    stlp_priv::_Integer_limits<unsigned long, (unsigned long)0, (unsigned long)4294967295, (int)-1, (bool)1>::digits 0x0001e0dc   Data           4  servicemetadata.o(.constdata__ZN9stlp_priv15_Integer_limitsImLm0ELm4294967295ELin1ELb1EE6digitsE)
    stlp_priv::_Integer_limits<short, (short)-32768, (short)32767, (int)-1, (bool)1>::digits 0x0001e0e0   Data           4  servicemetadata.o(.constdata__ZN9stlp_priv15_Integer_limitsIsLsn32768ELs32767ELin1ELb1EE6digitsE)
    stlp_priv::_Integer_limits<unsigned short, (unsigned short)0, (unsigned short)65535, (int)-1, (bool)1>::digits 0x0001e0e4   Data           4  servicemetadata.o(.constdata__ZN9stlp_priv15_Integer_limitsItLt0ELt65535ELin1ELb1EE6digitsE)
    stlp_priv::_Integer_limits<wchar_t, (wchar_t)0, (wchar_t)65535, (int)-1, (bool)1>::digits 0x0001e0e8   Data           4  servicemetadata.o(.constdata__ZN9stlp_priv15_Integer_limitsIwLw0ELw65535ELin1ELb1EE6digitsE)
    stlp_priv::_Integer_limits<long long, (long long)-9223372036854775808, (long long)9223372036854775807, (int)-1, (bool)1>::digits 0x0001e0ec   Data           4  servicemetadata.o(.constdata__ZN9stlp_priv15_Integer_limitsIxLxn9223372036854775808ELx9223372036854775807ELin1ELb1EE6digitsE)
    stlp_priv::_Integer_limits<unsigned long long, (unsigned long long)0, (unsigned long long)18446744073709551615, (int)-1, (bool)1>::digits 0x0001e0f0   Data           4  servicemetadata.o(.constdata__ZN9stlp_priv15_Integer_limitsIyLy0ELy18446744073709551615ELin1ELb1EE6digitsE)
    typeinfo for QtMobility::ServiceDatabase 0x0001e0f4   Data          12  servicedatabase.o(.constdata__ZTIN10QtMobility15ServiceDatabaseE)
    typeinfo for QtMobility::CDatabaseManagerServer 0x0001e100   Data          12  databasemanagerserver.o(.constdata__ZTIN10QtMobility22CDatabaseManagerServerE)
    typeinfo for QtMobility::QServicePluginInterface 0x0001e10c   Data           8  qserviceplugininterface.o(.constdata__ZTIN10QtMobility23QServicePluginInterfaceE)
    typeinfo for QtMobility::QAbstractSecuritySession 0x0001e114   Data          12  qabstractsecuritysession.o(.constdata__ZTIN10QtMobility24QAbstractSecuritySessionE)
    typeinfo for QtMobility::DatabaseManagerSignalHandler 0x0001e120   Data          12  databasemanagersignalhandler.o(.constdata__ZTIN10QtMobility28DatabaseManagerSignalHandlerE)
    typeinfo for QtMobility::CDatabaseManagerServerSession 0x0001e12c   Data          12  databasemanagersession.o(.constdata__ZTIN10QtMobility29CDatabaseManagerServerSessionE)
    typeinfo for QtMobility::DatabaseManagerServerSignalHandler 0x0001e138   Data          12  databasemanagerserver.o(.constdata__ZTIN10QtMobility34DatabaseManagerServerSignalHandlerE)
    typeinfo name for QtMobility::ServiceDatabase 0x0001e144   Data          32  servicedatabase.o(.constdata__ZTSN10QtMobility15ServiceDatabaseE)
    typeinfo name for QtMobility::CDatabaseManagerServer 0x0001e164   Data          39  databasemanagerserver.o(.constdata__ZTSN10QtMobility22CDatabaseManagerServerE)
    typeinfo name for QtMobility::QServicePluginInterface 0x0001e18b   Data          40  qserviceplugininterface.o(.constdata__ZTSN10QtMobility23QServicePluginInterfaceE)
    typeinfo name for QtMobility::QAbstractSecuritySession 0x0001e1b3   Data          41  qabstractsecuritysession.o(.constdata__ZTSN10QtMobility24QAbstractSecuritySessionE)
    typeinfo name for QtMobility::DatabaseManagerSignalHandler 0x0001e1dc   Data          45  databasemanagersignalhandler.o(.constdata__ZTSN10QtMobility28DatabaseManagerSignalHandlerE)
    typeinfo name for QtMobility::CDatabaseManagerServerSession 0x0001e209   Data          46  databasemanagersession.o(.constdata__ZTSN10QtMobility29CDatabaseManagerServerSessionE)
    typeinfo name for QtMobility::DatabaseManagerServerSignalHandler 0x0001e237   Data          51  databasemanagerserver.o(.constdata__ZTSN10QtMobility34DatabaseManagerServerSignalHandlerE)
    vtable for QtMobility::ServiceDatabase   0x0001e26c   Data          56  servicedatabase.o(.constdata__ZTVN10QtMobility15ServiceDatabaseE)
    vtable for QtMobility::CDatabaseManagerServer 0x0001e2a4   Data          40  databasemanagerserver.o(.constdata__ZTVN10QtMobility22CDatabaseManagerServerE)
    vtable for QtMobility::QServicePluginInterface 0x0001e2cc   Data          28  qserviceplugininterface.o(.constdata__ZTVN10QtMobility23QServicePluginInterfaceE)
    vtable for QtMobility::QAbstractSecuritySession 0x0001e2e8   Data          60  qabstractsecuritysession.o(.constdata__ZTVN10QtMobility24QAbstractSecuritySessionE)
    vtable for QtMobility::DatabaseManagerSignalHandler 0x0001e324   Data          56  databasemanagersignalhandler.o(.constdata__ZTVN10QtMobility28DatabaseManagerSignalHandlerE)
    vtable for QtMobility::CDatabaseManagerServerSession 0x0001e35c   Data          40  databasemanagersession.o(.constdata__ZTVN10QtMobility29CDatabaseManagerServerSessionE)
    vtable for QtMobility::DatabaseManagerServerSignalHandler 0x0001e384   Data          56  databasemanagerserver.o(.constdata__ZTVN10QtMobility34DatabaseManagerServerSignalHandlerE)
    .ARM.exidx$$Base                         0x0001e3bc   Number         0  uc_exe_.o(.ARM.exidx)
    .ARM.exidx$$Limit                        0x0001ef1c   Number         0  servicemetadata.o(.ARM.exidx)
    Image$$ER_RO$$Limit                      0x0001ef1c   Number         0  anon$$obj.o(linker$$defined$$symbols)
    std::_Atomic_swap_struct<(int)1>::_S_swap_lock 0x00400000   Data          12  servicemetadata.o(.data__ZNSt19_Atomic_swap_structILi1EE12_S_swap_lockE)

