ARM Linker, RVCT2.2 [Build 686]

================================================================================

Image Symbol Table

    Local Symbols

    Symbol Name                              Value     Ov Type        Size  Object(Section)

    ../../unhosted.s                         0x00000000   Number         0  switch8.o ABSOLUTE
    M:\\epoc32\\build\\euser\\c_e18a23aea4fd210f\\edll_lib\\armv5\\udeb\\uc_dll_.cpp 0x00000000   Number         0  uc_dll_.o ABSOLUTE
    M:\\sf\\os\\kernelhwsrv\\kernel\\eka\\compsupp\\rvct\\ucppinit.cpp 0x00000000   Number         0  ucppinit.o ABSOLUTE
    M:\epoc32\build\euser\c_e18a23aea4fd210f\edll_lib\armv5\udeb\uc_dll_.cpp 0x00000000   Number         0  uc_dll_.o ABSOLUTE
    M:\sf\os\kernelhwsrv\kernel\eka\compsupp\rvct\dllexp.cpp 0x00000000   Number         0  dllexp.o ABSOLUTE
    M:\sf\os\kernelhwsrv\kernel\eka\compsupp\rvct\ucppfini.cpp 0x00000000   Number         0  ucppfini.o ABSOLUTE
    M:\sf\os\kernelhwsrv\kernel\eka\compsupp\rvct\ucppinit.cpp 0x00000000   Number         0  ucppinit.o ABSOLUTE
    M:\sf\os\kernelhwsrv\kernel\eka\euser\epoc\arm\uc_dll.cpp 0x00000000   Number         0  uc_dll.o ABSOLUTE
    S:\sf\mw\qtmobility\build\Release\qtcontacts_symbiansim\moc\moc_cntabstractsimrequest.cpp 0x00000000   Number         0  moc_cntabstractsimrequest.o ABSOLUTE
    S:\sf\mw\qtmobility\build\Release\qtcontacts_symbiansim\moc\moc_cntsimcontactfetchrequest.cpp 0x00000000   Number         0  moc_cntsimcontactfetchrequest.o ABSOLUTE
    S:\sf\mw\qtmobility\build\Release\qtcontacts_symbiansim\moc\moc_cntsimcontactlocalidfetchrequest.cpp 0x00000000   Number         0  moc_cntsimcontactlocalidfetchrequest.o ABSOLUTE
    S:\sf\mw\qtmobility\build\Release\qtcontacts_symbiansim\moc\moc_cntsimcontactremoverequest.cpp 0x00000000   Number         0  moc_cntsimcontactremoverequest.o ABSOLUTE
    S:\sf\mw\qtmobility\build\Release\qtcontacts_symbiansim\moc\moc_cntsimcontactsaverequest.cpp 0x00000000   Number         0  moc_cntsimcontactsaverequest.o ABSOLUTE
    S:\sf\mw\qtmobility\build\Release\qtcontacts_symbiansim\moc\moc_cntsimdetaildefinitionfetchrequest.cpp 0x00000000   Number         0  moc_cntsimdetaildefinitionfetchrequest.o ABSOLUTE
    S:\sf\mw\qtmobility\build\Release\qtcontacts_symbiansim\moc\moc_cntsimstore.cpp 0x00000000   Number         0  moc_cntsimstore.o ABSOLUTE
    S:\sf\mw\qtmobility\build\Release\qtcontacts_symbiansim\moc\moc_cntsymbiansimengine.cpp 0x00000000   Number         0  moc_cntsymbiansimengine.o ABSOLUTE
    S:\sf\mw\qtmobility\plugins\contacts\symbiansim\src\cntabstractsimrequest.cpp 0x00000000   Number         0  cntabstractsimrequest.o ABSOLUTE
    S:\sf\mw\qtmobility\plugins\contacts\symbiansim\src\cntsimcontactfetchrequest.cpp 0x00000000   Number         0  cntsimcontactfetchrequest.o ABSOLUTE
    S:\sf\mw\qtmobility\plugins\contacts\symbiansim\src\cntsimcontactlocalidfetchrequest.cpp 0x00000000   Number         0  cntsimcontactlocalidfetchrequest.o ABSOLUTE
    S:\sf\mw\qtmobility\plugins\contacts\symbiansim\src\cntsimcontactremoverequest.cpp 0x00000000   Number         0  cntsimcontactremoverequest.o ABSOLUTE
    S:\sf\mw\qtmobility\plugins\contacts\symbiansim\src\cntsimcontactsaverequest.cpp 0x00000000   Number         0  cntsimcontactsaverequest.o ABSOLUTE
    S:\sf\mw\qtmobility\plugins\contacts\symbiansim\src\cntsimdetaildefinitionfetchrequest.cpp 0x00000000   Number         0  cntsimdetaildefinitionfetchrequest.o ABSOLUTE
    S:\sf\mw\qtmobility\plugins\contacts\symbiansim\src\cntsimstore.cpp 0x00000000   Number         0  cntsimstore.o ABSOLUTE
    S:\sf\mw\qtmobility\plugins\contacts\symbiansim\src\cntsimstoreeventlistener.cpp 0x00000000   Number         0  cntsimstoreeventlistener.o ABSOLUTE
    S:\sf\mw\qtmobility\plugins\contacts\symbiansim\src\cntsimstoreprivate.cpp 0x00000000   Number         0  cntsimstoreprivate.o ABSOLUTE
    S:\sf\mw\qtmobility\plugins\contacts\symbiansim\src\cntsymbiansimengine.cpp 0x00000000   Number         0  cntsymbiansimengine.o ABSOLUTE
    S:\sf\mw\qtmobility\plugins\contacts\symbiansim\src\cntsymbiansimtransformerror.cpp 0x00000000   Number         0  cntsymbiansimtransformerror.o ABSOLUTE
    .emb_text                                0x00008000   Section       40  uc_dll_.o(.emb_text)
    Symbian$$eit_base                        0x00008014   Data           4  uc_dll_.o(.emb_text)
    Symbian$$eit_limit                       0x00008018   Data           4  uc_dll_.o(.emb_text)
    Symbian$$code_seg_base                   0x0000801c   Data           4  uc_dll_.o(.emb_text)
    Symbian$$code_seg_limit                  0x00008020   Data           4  uc_dll_.o(.emb_text)
    Symbian$$reserved                        0x00008024   Data           4  uc_dll_.o(.emb_text)
    .emb_text                                0x00008028   Section       52  ucppinit.o(.emb_text)
    loop                                     0x0000803c   ARM Code       0  ucppinit.o(.emb_text)
    ret                                      0x00008044   ARM Code       0  ucppinit.o(.emb_text)
    base                                     0x00008054   Data           0  ucppinit.o(.emb_text)
    limit                                    0x00008058   Data           0  ucppinit.o(.emb_text)
    .text                                    0x0000885c   Section      364  moc_cntsymbiansimengine.o(.text)
    <unnamed>::PbkPrintToLog(TRefByValue<const TDesC16>, ...) 0x0000895b   Thumb Code    14  moc_cntsymbiansimengine.o(.text)
    .text                                    0x000089c8   Section      468  moc_cntsimstore.o(.text)
    .text                                    0x00008b9c   Section      176  moc_cntabstractsimrequest.o(.text)
    .text                                    0x00008c4c   Section      236  moc_cntsimcontactfetchrequest.o(.text)
    .text                                    0x00008d38   Section      236  moc_cntsimcontactlocalidfetchrequest.o(.text)
    .text                                    0x00008e24   Section      272  moc_cntsimcontactremoverequest.o(.text)
    .text                                    0x00008f34   Section      204  moc_cntsimcontactsaverequest.o(.text)
    .text                                    0x00009000   Section      140  moc_cntsimdetaildefinitionfetchrequest.o(.text)
    .text                                    0x0000908c   Section     7068  cntsymbiansimengine.o(.text)
    |L1.3360|                                0x00009dac   Data           0  cntsymbiansimengine.o(.text)
    <unnamed>::PbkPrintToLog(TRefByValue<const TDesC16>, ...) 0x0000ac15   Thumb Code    14  cntsymbiansimengine.o(.text)
    .text                                    0x0000ac28   Section      148  cntsymbiansimtransformerror.o(.text)
    .text                                    0x0000acbc   Section      516  cntsimstore.o(.text)
    <unnamed>::PbkPrintToLog(TRefByValue<const TDesC16>, ...) 0x0000ae6f   Thumb Code    14  cntsimstore.o(.text)
    .text                                    0x0000aec0   Section     6896  cntsimstoreprivate.o(.text)
    <unnamed>::PbkPrintToLog(TRefByValue<const TDesC16>, ...) 0x0000bfa3   Thumb Code    14  cntsimstoreprivate.o(.text)
    .text                                    0x0000c9b0   Section      408  cntsimstoreeventlistener.o(.text)
    <unnamed>::PbkPrintToLog(TRefByValue<const TDesC16>, ...) 0x0000cb11   Thumb Code    14  cntsimstoreeventlistener.o(.text)
    .text                                    0x0000cb48   Section      364  cntabstractsimrequest.o(.text)
    <unnamed>::PbkPrintToLog(TRefByValue<const TDesC16>, ...) 0x0000cc8f   Thumb Code    14  cntabstractsimrequest.o(.text)
    .text                                    0x0000ccb4   Section      744  cntsimcontactfetchrequest.o(.text)
    <unnamed>::PbkPrintToLog(TRefByValue<const TDesC16>, ...) 0x0000cf1b   Thumb Code    14  cntsimcontactfetchrequest.o(.text)
    .text                                    0x0000cf9c   Section      632  cntsimcontactlocalidfetchrequest.o(.text)
    <unnamed>::PbkPrintToLog(TRefByValue<const TDesC16>, ...) 0x0000d18f   Thumb Code    14  cntsimcontactlocalidfetchrequest.o(.text)
    .text                                    0x0000d214   Section     1168  cntsimcontactremoverequest.o(.text)
    |L1.1060|                                0x0000d638   Data           0  cntsimcontactremoverequest.o(.text)
    <unnamed>::PbkPrintToLog(TRefByValue<const TDesC16>, ...) 0x0000d693   Thumb Code    14  cntsimcontactremoverequest.o(.text)
    .text                                    0x0000d6a4   Section      956  cntsimcontactsaverequest.o(.text)
    <unnamed>::PbkPrintToLog(TRefByValue<const TDesC16>, ...) 0x0000d9d5   Thumb Code    14  cntsimcontactsaverequest.o(.text)
    .text                                    0x0000da60   Section      784  cntsimdetaildefinitionfetchrequest.o(.text)
    <unnamed>::PbkPrintToLog(TRefByValue<const TDesC16>, ...) 0x0000dd59   Thumb Code    14  cntsimdetaildefinitionfetchrequest.o(.text)
    .text                                    0x0000dd70   Section       24  switch8.o(.text)
    .text                                    0x0000dd88   Section       80  uc_dll.o(.text)
    .text                                    0x0000ddd8   Section      180  ucppfini.o(.text)
    .text                                    0x0000de8c   Section        4  dllexp.o(.text)
    .text.clean                              0x0000de90   Section       26  moc_cntsimstore.o(.text.clean)
    .text.clean                              0x0000deaa   Section       10  moc_cntsimcontactfetchrequest.o(.text.clean)
    .text.clean                              0x0000deb4   Section       10  moc_cntsimcontactlocalidfetchrequest.o(.text.clean)
    .text.clean                              0x0000debe   Section       10  moc_cntsimcontactremoverequest.o(.text.clean)
    .text.clean                              0x0000dec8   Section       10  moc_cntsimcontactsaverequest.o(.text.clean)
    .text.clean                              0x0000ded4   Section      856  cntsymbiansimengine.o(.text.clean)
    .text.clean                              0x0000e22c   Section       26  cntsimstore.o(.text.clean)
    .text.clean                              0x0000e246   Section      698  cntsimstoreprivate.o(.text.clean)
    .text.clean                              0x0000e500   Section       48  cntsimstoreeventlistener.o(.text.clean)
    .text.clean                              0x0000e530   Section       14  cntabstractsimrequest.o(.text.clean)
    .text.clean                              0x0000e53e   Section       90  cntsimcontactfetchrequest.o(.text.clean)
    .text.clean                              0x0000e598   Section       62  cntsimcontactlocalidfetchrequest.o(.text.clean)
    .text.clean                              0x0000e5d6   Section      116  cntsimcontactremoverequest.o(.text.clean)
    .text.clean                              0x0000e64a   Section      106  cntsimcontactsaverequest.o(.text.clean)
    .text.clean                              0x0000e6b4   Section       58  cntsimdetaildefinitionfetchrequest.o(.text.clean)
    i._Z8qWarningv                           0x0000e6f0   Section      128  cntsimstoreeventlistener.o(i._Z8qWarningv)
    i._Z8qWarningv.clean                     0x0000e770   Section       24  cntsimstoreeventlistener.o(i._Z8qWarningv.clean)
    i._ZN10QByteArrayD1Ev                    0x0000e788   Section       24  cntsimstoreeventlistener.o(i._ZN10QByteArrayD1Ev)
    i._ZN10QtMobility12QContactName14setCustomLabelERK7QString 0x0000e7a0   Section       48  cntsimstoreprivate.o(i._ZN10QtMobility12QContactName14setCustomLabelERK7QString)
    i._ZN10QtMobility12QContactName14setCustomLabelERK7QString.clean 0x0000e7d0   Section       10  cntsimstoreprivate.o(i._ZN10QtMobility12QContactName14setCustomLabelERK7QString.clean)
    i._ZN10QtMobility12QContactNameC1Ev      0x0000e7dc   Section       28  cntsimstoreprivate.o(i._ZN10QtMobility12QContactNameC1Ev)
    i._ZN10QtMobility12QContactNameD1Ev      0x0000e7f8   Section       14  cntsymbiansimengine.o(i._ZN10QtMobility12QContactNameD1Ev)
    i._ZN10QtMobility12QContactTypeC1ERKNS_14QContactDetailE 0x0000e808   Section       32  cntsimstoreprivate.o(i._ZN10QtMobility12QContactTypeC1ERKNS_14QContactDetailE)
    i._ZN10QtMobility12QContactTypeD1Ev      0x0000e828   Section       14  cntsimstoreprivate.o(i._ZN10QtMobility12QContactTypeD1Ev)
    i._ZN10QtMobility16QContactNicknameD1Ev  0x0000e836   Section       14  cntsimstoreprivate.o(i._ZN10QtMobility16QContactNicknameD1Ev)
    i._ZN10QtMobility18QContactSyncTarget13setSyncTargetERK7QString 0x0000e844   Section       48  cntsimstoreprivate.o(i._ZN10QtMobility18QContactSyncTarget13setSyncTargetERK7QString)
    i._ZN10QtMobility18QContactSyncTarget13setSyncTargetERK7QString.clean 0x0000e874   Section       10  cntsimstoreprivate.o(i._ZN10QtMobility18QContactSyncTarget13setSyncTargetERK7QString.clean)
    i._ZN10QtMobility18QContactSyncTargetD1Ev 0x0000e87e   Section       14  cntsimstoreprivate.o(i._ZN10QtMobility18QContactSyncTargetD1Ev)
    i._ZN10QtMobility19QContactPhoneNumber9setNumberERK7QString 0x0000e88c   Section       48  cntsimstoreprivate.o(i._ZN10QtMobility19QContactPhoneNumber9setNumberERK7QString)
    i._ZN10QtMobility19QContactPhoneNumber9setNumberERK7QString.clean 0x0000e8bc   Section       10  cntsimstoreprivate.o(i._ZN10QtMobility19QContactPhoneNumber9setNumberERK7QString.clean)
    i._ZN10QtMobility19QContactPhoneNumberC1ERKNS_14QContactDetailE 0x0000e8c8   Section       32  cntsimstoreprivate.o(i._ZN10QtMobility19QContactPhoneNumberC1ERKNS_14QContactDetailE)
    i._ZN10QtMobility19QContactPhoneNumberC1ERKS0_ 0x0000e8e8   Section       18  cntsymbiansimengine.o(i._ZN10QtMobility19QContactPhoneNumberC1ERKS0_)
    i._ZN10QtMobility19QContactPhoneNumberC1Ev 0x0000e8fc   Section       28  cntsimstoreprivate.o(i._ZN10QtMobility19QContactPhoneNumberC1Ev)
    i._ZN10QtMobility19QContactPhoneNumberD1Ev 0x0000e918   Section       14  cntsymbiansimengine.o(i._ZN10QtMobility19QContactPhoneNumberD1Ev)
    i._ZN10QtMobility20QContactDetailFilterD1Ev 0x0000e926   Section       14  cntsymbiansimengine.o(i._ZN10QtMobility20QContactDetailFilterD1Ev)
    i._ZN10QtMobility20QContactEmailAddressD1Ev 0x0000e934   Section       14  cntsimstoreprivate.o(i._ZN10QtMobility20QContactEmailAddressD1Ev)
    i._ZN10QtMobility21QContactLocalIdFilterD1Ev 0x0000e942   Section       14  cntsymbiansimengine.o(i._ZN10QtMobility21QContactLocalIdFilterD1Ev)
    i._ZN10QtMobility21QContactManagerEngineC2Ev 0x0000e950   Section       28  cntsymbiansimengine.o(i._ZN10QtMobility21QContactManagerEngineC2Ev)
    i._ZN10QtMobility21QContactManagerEngineD2Ev 0x0000e96c   Section       14  cntsymbiansimengine.o(i._ZN10QtMobility21QContactManagerEngineD2Ev)
    i._ZN11QStringListD1Ev                   0x0000e97a   Section       14  cntsymbiansimengine.o(i._ZN11QStringListD1Ev)
    i._ZN12SimStoreInfoD1Ev                  0x0000e988   Section       14  cntsymbiansimengine.o(i._ZN12SimStoreInfoD1Ev)
    i._ZN15QBasicAtomicInt3refEv             0x0000e996   Section       24  moc_cntsimstore.o(i._ZN15QBasicAtomicInt3refEv)
    i._ZN15QBasicAtomicInt5derefEv           0x0000e9ae   Section       24  moc_cntsimstore.o(i._ZN15QBasicAtomicInt5derefEv)
    i._ZN17QForeachContainerI5QListIN10QtMobility14QContactDetailEEED1Ev 0x0000e9c6   Section       14  cntsimstoreprivate.o(i._ZN17QForeachContainerI5QListIN10QtMobility14QContactDetailEEED1Ev)
    i._ZN17QForeachContainerI5QListIN10QtMobility19QContactPhoneNumberEEED1Ev 0x0000e9d4   Section       14  cntsymbiansimengine.o(i._ZN17QForeachContainerI5QListIN10QtMobility19QContactPhoneNumberEEED1Ev)
    i._ZN17QForeachContainerI5QListIPN10QtMobility23QContactAbstractRequestEEED1Ev 0x0000e9e2   Section       14  cntsymbiansimengine.o(i._ZN17QForeachContainerI5QListIPN10QtMobility23QContactAbstractRequestEEED1Ev)
    i._ZN17QForeachContainerI7QStringED1Ev   0x0000e9f0   Section       14  cntsimstoreprivate.o(i._ZN17QForeachContainerI7QStringED1Ev)
    i._ZN20CntSymbianSimFactoryD0Ev          0x0000e9fe   Section       22  moc_cntsymbiansimengine.o(i._ZN20CntSymbianSimFactoryD0Ev)
    i._ZN20CntSymbianSimFactoryD1Ev          0x0000ea14   Section       26  moc_cntsymbiansimengine.o(i._ZN20CntSymbianSimFactoryD1Ev)
    i._ZN20CntSymbianSimFactoryD1Ev.clean    0x0000ea2e   Section       10  moc_cntsymbiansimengine.o(i._ZN20CntSymbianSimFactoryD1Ev.clean)
    i._ZN21CntAbstractSimRequestD0Ev         0x0000ea38   Section       24  moc_cntabstractsimrequest.o(i._ZN21CntAbstractSimRequestD0Ev)
    i._ZN21CntAbstractSimRequestD2Ev         0x0000ea50   Section       14  moc_cntabstractsimrequest.o(i._ZN21CntAbstractSimRequestD2Ev)
    i._ZN6QDebug10maybeSpaceEv               0x0000ea5e   Section       24  cntsimstoreeventlistener.o(i._ZN6QDebug10maybeSpaceEv)
    i._ZN6QDebugD1Ev                         0x0000ea76   Section      160  cntsimstoreeventlistener.o(i._ZN6QDebugD1Ev)
    i._ZN6QDebugD1Ev.clean                   0x0000eb16   Section       20  cntsimstoreeventlistener.o(i._ZN6QDebugD1Ev.clean)
    i._ZN6TDes16ixEi                         0x0000eb2a   Section       16  cntsymbiansimengine.o(i._ZN6TDes16ixEi)
    i._ZN7QStringC1EPKc                      0x0000eb3a   Section       22  cntsymbiansimengine.o(i._ZN7QStringC1EPKc)
    i._ZN7QStringC1ERK13QLatin1String        0x0000eb50   Section       26  cntsymbiansimengine.o(i._ZN7QStringC1ERK13QLatin1String)
    i._ZN7QStringC1ERKS_                     0x0000eb6a   Section       22  cntsymbiansimengine.o(i._ZN7QStringC1ERKS_)
    i._ZN7QStringC1Ev                        0x0000eb80   Section       24  cntsimstoreprivate.o(i._ZN7QStringC1Ev)
    i._ZN7QStringD1Ev                        0x0000eb98   Section       24  cntsymbiansimengine.o(i._ZN7QStringD1Ev)
    i._ZN7TPtrC163SetERK7TDesC16             0x0000ebb0   Section       32  cntsymbiansimengine.o(i._ZN7TPtrC163SetERK7TDesC16)
    i._ZN7TPtrC163SetERK7TDesC16.clean       0x0000ebd0   Section       12  cntsymbiansimengine.o(i._ZN7TPtrC163SetERK7TDesC16.clean)
    i._ZN7TPtrC163SetERKS_                   0x0000ebdc   Section       30  cntsymbiansimengine.o(i._ZN7TPtrC163SetERKS_)
    i._ZNK10QtMobility12QContactName11customLabelEv 0x0000ebfc   Section       32  cntsymbiansimengine.o(i._ZNK10QtMobility12QContactName11customLabelEv)
    i._ZNK10QtMobility19QContactPhoneNumber6numberEv 0x0000ec1c   Section       32  cntsymbiansimengine.o(i._ZNK10QtMobility19QContactPhoneNumber6numberEv)
    i._ZNK15QBasicAtomicInteqEi              0x0000ec3c   Section       16  cntsymbiansimengine.o(i._ZNK15QBasicAtomicInteqEi)
    i._ZNK15QBasicAtomicIntneEi              0x0000ec4c   Section       16  cntsymbiansimengine.o(i._ZNK15QBasicAtomicIntneEi)
    i._ZNK19CntSymbianSimEngine14managerVersionEv 0x0000ec5c   Section        6  moc_cntsymbiansimengine.o(i._ZNK19CntSymbianSimEngine14managerVersionEv)
    i._ZNK19CntSymbianSimEngine18supportedDataTypesEv 0x0000ec62   Section       16  moc_cntsymbiansimengine.o(i._ZNK19CntSymbianSimEngine18supportedDataTypesEv)
    i._ZNK7QString7isEmptyEv                 0x0000ec72   Section       18  cntsimstoreprivate.o(i._ZNK7QString7isEmptyEv)
    i._ZNK9QListData2atEi                    0x0000ec84   Section       20  cntsymbiansimengine.o(i._ZNK9QListData2atEi)
    i._ZNK9QListData3endEv                   0x0000ec98   Section       16  moc_cntsimstore.o(i._ZNK9QListData3endEv)
    i._ZNK9QListData5beginEv                 0x0000eca8   Section       16  moc_cntsimstore.o(i._ZNK9QListData5beginEv)
    i._ZThn8_N20CntSymbianSimFactoryD0Ev     0x0000ecb8   Section       14  moc_cntsymbiansimengine.o(i._ZThn8_N20CntSymbianSimFactoryD0Ev)
    i._ZThn8_N20CntSymbianSimFactoryD1Ev     0x0000ecc6   Section       14  moc_cntsymbiansimengine.o(i._ZThn8_N20CntSymbianSimFactoryD1Ev)
    i._ZdlPvS_                               0x0000ecd4   Section        2  moc_cntsimstore.o(i._ZdlPvS_)
    i._Zne5QCharS_                           0x0000ecd6   Section       24  cntsimstoreprivate.o(i._Zne5QCharS_)
    i._ZnwjPv                                0x0000ecee   Section        6  moc_cntsimstore.o(i._ZnwjPv)
    t._Z15qMapLessThanKeyI7QStringEbRKT_S3_  0x0000ecf4   Section       16  cntsymbiansimengine.o(t._Z15qMapLessThanKeyI7QStringEbRKT_S3_)
    t._Z15qMapLessThanKeyIPN10QtMobility23QContactAbstractRequestEEbRKT_S5_ 0x0000ed04   Section       18  cntsymbiansimengine.o(t._Z15qMapLessThanKeyIPN10QtMobility23QContactAbstractRequestEEbRKT_S5_)
    t._Z15qMapLessThanKeyIiEbRKT_S2_         0x0000ed16   Section       18  cntsimcontactremoverequest.o(t._Z15qMapLessThanKeyIiEbRKT_S2_)
    t._Z17qRegisterMetaTypeI5QListIN10QtMobility8QContactEEEiPKcPT_ 0x0000ed28   Section       64  cntsimstore.o(t._Z17qRegisterMetaTypeI5QListIN10QtMobility8QContactEEEiPKcPT_)
    t._Z17qRegisterMetaTypeI5QListIiEEiPKcPT_ 0x0000ed68   Section       64  cntsimstore.o(t._Z17qRegisterMetaTypeI5QListIiEEiPKcPT_)
    t._Z17qRegisterMetaTypeIN10QtMobility15QContactManager5ErrorEEiPKcPT_ 0x0000eda8   Section       64  cntsimstore.o(t._Z17qRegisterMetaTypeIN10QtMobility15QContactManager5ErrorEEiPKcPT_)
    t._Z17qRegisterMetaTypeIN10QtMobility8QContactEEiPKcPT_ 0x0000ede8   Section       64  cntsimstore.o(t._Z17qRegisterMetaTypeIN10QtMobility8QContactEEiPKcPT_)
    t._Z21qMetaTypeDeleteHelperI5QListIN10QtMobility8QContactEEEvPT_ 0x0000ee28   Section       22  cntsimstore.o(t._Z21qMetaTypeDeleteHelperI5QListIN10QtMobility8QContactEEEvPT_)
    t._Z21qMetaTypeDeleteHelperI5QListIiEEvPT_ 0x0000ee3e   Section       22  cntsimstore.o(t._Z21qMetaTypeDeleteHelperI5QListIiEEvPT_)
    t._Z21qMetaTypeDeleteHelperIN10QtMobility15QContactManager5ErrorEEvPT_ 0x0000ee54   Section       12  cntsimstore.o(t._Z21qMetaTypeDeleteHelperIN10QtMobility15QContactManager5ErrorEEvPT_)
    t._Z21qMetaTypeDeleteHelperIN10QtMobility8QContactEEvPT_ 0x0000ee60   Section       22  cntsimstore.o(t._Z21qMetaTypeDeleteHelperIN10QtMobility8QContactEEvPT_)
    t._Z24qMetaTypeConstructHelperI5QListIN10QtMobility8QContactEEEPvPKT_ 0x0000ee78   Section      116  cntsimstore.o(t._Z24qMetaTypeConstructHelperI5QListIN10QtMobility8QContactEEEPvPKT_)
    t._Z24qMetaTypeConstructHelperI5QListIN10QtMobility8QContactEEEPvPKT_.clean 0x0000eeec   Section       28  cntsimstore.o(t._Z24qMetaTypeConstructHelperI5QListIN10QtMobility8QContactEEEPvPKT_.clean)
    t._Z24qMetaTypeConstructHelperI5QListIiEEPvPKT_ 0x0000ef08   Section      116  cntsimstore.o(t._Z24qMetaTypeConstructHelperI5QListIiEEPvPKT_)
    t._Z24qMetaTypeConstructHelperI5QListIiEEPvPKT_.clean 0x0000ef7c   Section       28  cntsimstore.o(t._Z24qMetaTypeConstructHelperI5QListIiEEPvPKT_.clean)
    t._Z24qMetaTypeConstructHelperIN10QtMobility15QContactManager5ErrorEEPvPKT_ 0x0000ef98   Section       50  cntsimstore.o(t._Z24qMetaTypeConstructHelperIN10QtMobility15QContactManager5ErrorEEPvPKT_)
    t._Z24qMetaTypeConstructHelperIN10QtMobility8QContactEEPvPKT_ 0x0000efca   Section       80  cntsimstore.o(t._Z24qMetaTypeConstructHelperIN10QtMobility8QContactEEPvPKT_)
    t._Z24qMetaTypeConstructHelperIN10QtMobility8QContactEEPvPKT_.clean 0x0000f01a   Section       28  cntsimstore.o(t._Z24qMetaTypeConstructHelperIN10QtMobility8QContactEEPvPKT_.clean)
    t._ZN10QtMobilityeqILi11EEEbRK7QStringRKNS_15QLatin1ConstantIXT_EEE 0x0000f036   Section       24  cntsimstoreprivate.o(t._ZN10QtMobilityeqILi11EEEbRK7QStringRKNS_15QLatin1ConstantIXT_EEE)
    t._ZN10QtMobilityeqILi12EEEbRK7QStringRKNS_15QLatin1ConstantIXT_EEE 0x0000f04e   Section       24  cntsymbiansimengine.o(t._ZN10QtMobilityeqILi12EEEbRK7QStringRKNS_15QLatin1ConstantIXT_EEE)
    t._ZN10QtMobilityeqILi13EEEbRK7QStringRKNS_15QLatin1ConstantIXT_EEE 0x0000f066   Section       24  cntsimstoreprivate.o(t._ZN10QtMobilityeqILi13EEEbRK7QStringRKNS_15QLatin1ConstantIXT_EEE)
    t._ZN10QtMobilityeqILi3EEEbRK7QStringRKNS_15QLatin1ConstantIXT_EEE 0x0000f07e   Section       24  cntsimstoreprivate.o(t._ZN10QtMobilityeqILi3EEEbRK7QStringRKNS_15QLatin1ConstantIXT_EEE)
    t._ZN10QtMobilityeqILi4EEEbRK7QStringRKNS_15QLatin1ConstantIXT_EEE 0x0000f096   Section       24  cntsymbiansimengine.o(t._ZN10QtMobilityeqILi4EEEbRK7QStringRKNS_15QLatin1ConstantIXT_EEE)
    t._ZN10QtMobilityeqILi5EEEbRK7QStringRKNS_15QLatin1ConstantIXT_EEE 0x0000f0ae   Section       24  cntsimstoreprivate.o(t._ZN10QtMobilityeqILi5EEEbRK7QStringRKNS_15QLatin1ConstantIXT_EEE)
    t._ZN10QtMobilityeqILi9EEEbRK7QStringRKNS_15QLatin1ConstantIXT_EEE 0x0000f0c6   Section       24  cntsimstoreprivate.o(t._ZN10QtMobilityeqILi9EEEbRK7QStringRKNS_15QLatin1ConstantIXT_EEE)
    t._ZN14QScopedPointerIN10QtMobility10QContactIdE21QScopedPointerDeleterIS1_EED1Ev 0x0000f0de   Section       32  cntsimstoreprivate.o(t._ZN14QScopedPointerIN10QtMobility10QContactIdE21QScopedPointerDeleterIS1_EED1Ev)
    t._ZN28QExplicitlySharedDataPointerI23CntSymbianSimEngineDataED1Ev 0x0000f0fe   Section       42  cntsymbiansimengine.o(t._ZN28QExplicitlySharedDataPointerI23CntSymbianSimEngineDataED1Ev)
    t._ZN4QMapI7QStringN10QtMobility24QContactDetailDefinitionEE11node_createEP8QMapDataPPNS4_4NodeERKS0_RKS2_ 0x0000f128   Section      140  cntsymbiansimengine.o(t._ZN4QMapI7QStringN10QtMobility24QContactDetailDefinitionEE11node_createEP8QMapDataPPNS4_4NodeERKS0_RKS2_)
    t._ZN4QMapI7QStringN10QtMobility24QContactDetailDefinitionEE11node_createEP8QMapDataPPNS4_4NodeERKS0_RKS2_.clean 0x0000f1b4   Section       38  cntsymbiansimengine.o(t._ZN4QMapI7QStringN10QtMobility24QContactDetailDefinitionEE11node_createEP8QMapDataPPNS4_4NodeERKS0_RKS2_.clean)
    t._ZN4QMapI7QStringN10QtMobility24QContactDetailDefinitionEE13detach_helperEv 0x0000f1da   Section      146  cntsymbiansimengine.o(t._ZN4QMapI7QStringN10QtMobility24QContactDetailDefinitionEE13detach_helperEv)
    t._ZN4QMapI7QStringN10QtMobility24QContactDetailDefinitionEE13detach_helperEv.clean 0x0000f26c   Section        8  cntsymbiansimengine.o(t._ZN4QMapI7QStringN10QtMobility24QContactDetailDefinitionEE13detach_helperEv.clean)
    t._ZN4QMapI7QStringN10QtMobility24QContactDetailDefinitionEE6detachEv 0x0000f274   Section       28  cntsymbiansimengine.o(t._ZN4QMapI7QStringN10QtMobility24QContactDetailDefinitionEE6detachEv)
    t._ZN4QMapI7QStringN10QtMobility24QContactDetailDefinitionEE6insertERKS0_RKS2_ 0x0000f290   Section       80  cntsymbiansimengine.o(t._ZN4QMapI7QStringN10QtMobility24QContactDetailDefinitionEE6insertERKS0_RKS2_)
    t._ZN4QMapI7QStringN10QtMobility24QContactDetailDefinitionEE8freeDataEP8QMapData 0x0000f2e0   Section       62  cntsymbiansimengine.o(t._ZN4QMapI7QStringN10QtMobility24QContactDetailDefinitionEE8freeDataEP8QMapData)
    t._ZN4QMapI7QStringN10QtMobility24QContactDetailDefinitionEEC1Ev 0x0000f320   Section       28  cntsymbiansimengine.o(t._ZN4QMapI7QStringN10QtMobility24QContactDetailDefinitionEEC1Ev)
    t._ZN4QMapI7QStringN10QtMobility24QContactDetailDefinitionEED1Ev 0x0000f33c   Section       38  cntsymbiansimengine.o(t._ZN4QMapI7QStringN10QtMobility24QContactDetailDefinitionEED1Ev)
    t._ZN4QMapI7QStringN10QtMobility29QContactDetailFieldDefinitionEE11node_createEP8QMapDataPPNS4_4NodeERKS0_RKS2_ 0x0000f362   Section      140  cntsymbiansimengine.o(t._ZN4QMapI7QStringN10QtMobility29QContactDetailFieldDefinitionEE11node_createEP8QMapDataPPNS4_4NodeERKS0_RKS2_)
    t._ZN4QMapI7QStringN10QtMobility29QContactDetailFieldDefinitionEE11node_createEP8QMapDataPPNS4_4NodeERKS0_RKS2_.clean 0x0000f3ee   Section       38  cntsymbiansimengine.o(t._ZN4QMapI7QStringN10QtMobility29QContactDetailFieldDefinitionEE11node_createEP8QMapDataPPNS4_4NodeERKS0_RKS2_.clean)
    t._ZN4QMapI7QStringN10QtMobility29QContactDetailFieldDefinitionEE13detach_helperEv 0x0000f414   Section      146  cntsymbiansimengine.o(t._ZN4QMapI7QStringN10QtMobility29QContactDetailFieldDefinitionEE13detach_helperEv)
    t._ZN4QMapI7QStringN10QtMobility29QContactDetailFieldDefinitionEE13detach_helperEv.clean 0x0000f4a6   Section        8  cntsymbiansimengine.o(t._ZN4QMapI7QStringN10QtMobility29QContactDetailFieldDefinitionEE13detach_helperEv.clean)
    t._ZN4QMapI7QStringN10QtMobility29QContactDetailFieldDefinitionEE5clearEv 0x0000f4ae   Section       82  cntsymbiansimengine.o(t._ZN4QMapI7QStringN10QtMobility29QContactDetailFieldDefinitionEE5clearEv)
    t._ZN4QMapI7QStringN10QtMobility29QContactDetailFieldDefinitionEE5clearEv.clean 0x0000f500   Section       10  cntsymbiansimengine.o(t._ZN4QMapI7QStringN10QtMobility29QContactDetailFieldDefinitionEE5clearEv.clean)
    t._ZN4QMapI7QStringN10QtMobility29QContactDetailFieldDefinitionEE6insertERKS0_RKS2_ 0x0000f50a   Section      100  cntsymbiansimengine.o(t._ZN4QMapI7QStringN10QtMobility29QContactDetailFieldDefinitionEE6insertERKS0_RKS2_)
    t._ZN4QMapI7QStringN10QtMobility29QContactDetailFieldDefinitionEE8freeDataEP8QMapData 0x0000f56e   Section       62  cntsymbiansimengine.o(t._ZN4QMapI7QStringN10QtMobility29QContactDetailFieldDefinitionEE8freeDataEP8QMapData)
    t._ZN4QMapI7QStringN10QtMobility29QContactDetailFieldDefinitionEEC1Ev 0x0000f5ac   Section       28  cntsymbiansimengine.o(t._ZN4QMapI7QStringN10QtMobility29QContactDetailFieldDefinitionEEC1Ev)
    t._ZN4QMapI7QStringN10QtMobility29QContactDetailFieldDefinitionEED1Ev 0x0000f5c8   Section       38  cntsymbiansimengine.o(t._ZN4QMapI7QStringN10QtMobility29QContactDetailFieldDefinitionEED1Ev)
    t._ZN4QMapIPN10QtMobility23QContactAbstractRequestEP21CntAbstractSimRequestE11node_createEP8QMapDataPPNS6_4NodeERKS2_RKS4_ 0x0000f5ee   Section       82  cntsymbiansimengine.o(t._ZN4QMapIPN10QtMobility23QContactAbstractRequestEP21CntAbstractSimRequestE11node_createEP8QMapDataPPNS6_4NodeERKS2_RKS4_)
    t._ZN4QMapIPN10QtMobility23QContactAbstractRequestEP21CntAbstractSimRequestE11node_createEP8QMapDataPPNS6_4NodeERKS2_RKS4_.clean 0x0000f640   Section        4  cntsymbiansimengine.o(t._ZN4QMapIPN10QtMobility23QContactAbstractRequestEP21CntAbstractSimRequestE11node_createEP8QMapDataPPNS6_4NodeERKS2_RKS4_.clean)
    t._ZN4QMapIPN10QtMobility23QContactAbstractRequestEP21CntAbstractSimRequestE13detach_helperEv 0x0000f644   Section      146  cntsymbiansimengine.o(t._ZN4QMapIPN10QtMobility23QContactAbstractRequestEP21CntAbstractSimRequestE13detach_helperEv)
    t._ZN4QMapIPN10QtMobility23QContactAbstractRequestEP21CntAbstractSimRequestE13detach_helperEv.clean 0x0000f6d6   Section        8  cntsymbiansimengine.o(t._ZN4QMapIPN10QtMobility23QContactAbstractRequestEP21CntAbstractSimRequestE13detach_helperEv.clean)
    t._ZN4QMapIPN10QtMobility23QContactAbstractRequestEP21CntAbstractSimRequestE4takeERKS2_ 0x0000f6de   Section      162  cntsymbiansimengine.o(t._ZN4QMapIPN10QtMobility23QContactAbstractRequestEP21CntAbstractSimRequestE4takeERKS2_)
    t._ZN4QMapIPN10QtMobility23QContactAbstractRequestEP21CntAbstractSimRequestE6detachEv 0x0000f780   Section       28  cntsymbiansimengine.o(t._ZN4QMapIPN10QtMobility23QContactAbstractRequestEP21CntAbstractSimRequestE6detachEv)
    t._ZN4QMapIPN10QtMobility23QContactAbstractRequestEP21CntAbstractSimRequestE6removeERKS2_ 0x0000f79c   Section      246  cntsymbiansimengine.o(t._ZN4QMapIPN10QtMobility23QContactAbstractRequestEP21CntAbstractSimRequestE6removeERKS2_)
    t._ZN4QMapIPN10QtMobility23QContactAbstractRequestEP21CntAbstractSimRequestE8freeDataEP8QMapData 0x0000f892   Section       24  cntsymbiansimengine.o(t._ZN4QMapIPN10QtMobility23QContactAbstractRequestEP21CntAbstractSimRequestE8freeDataEP8QMapData)
    t._ZN4QMapIPN10QtMobility23QContactAbstractRequestEP21CntAbstractSimRequestED1Ev 0x0000f8aa   Section       38  cntsymbiansimengine.o(t._ZN4QMapIPN10QtMobility23QContactAbstractRequestEP21CntAbstractSimRequestED1Ev)
    t._ZN4QMapIiN10QtMobility15QContactManager5ErrorEE11node_createEP8QMapDataPPNS4_4NodeERKiRKS2_ 0x0000f8d0   Section       82  cntsimcontactremoverequest.o(t._ZN4QMapIiN10QtMobility15QContactManager5ErrorEE11node_createEP8QMapDataPPNS4_4NodeERKiRKS2_)
    t._ZN4QMapIiN10QtMobility15QContactManager5ErrorEE11node_createEP8QMapDataPPNS4_4NodeERKiRKS2_.clean 0x0000f922   Section        4  cntsimcontactremoverequest.o(t._ZN4QMapIiN10QtMobility15QContactManager5ErrorEE11node_createEP8QMapDataPPNS4_4NodeERKiRKS2_.clean)
    t._ZN4QMapIiN10QtMobility15QContactManager5ErrorEE13detach_helperEv 0x0000f926   Section      146  cntsimcontactremoverequest.o(t._ZN4QMapIiN10QtMobility15QContactManager5ErrorEE13detach_helperEv)
    t._ZN4QMapIiN10QtMobility15QContactManager5ErrorEE13detach_helperEv.clean 0x0000f9b8   Section        8  cntsimcontactremoverequest.o(t._ZN4QMapIiN10QtMobility15QContactManager5ErrorEE13detach_helperEv.clean)
    t._ZN4QMapIiN10QtMobility15QContactManager5ErrorEE6detachEv 0x0000f9c0   Section       28  cntsimcontactsaverequest.o(t._ZN4QMapIiN10QtMobility15QContactManager5ErrorEE6detachEv)
    t._ZN4QMapIiN10QtMobility15QContactManager5ErrorEE6insertERKiRKS2_ 0x0000f9dc   Section       74  cntsimcontactremoverequest.o(t._ZN4QMapIiN10QtMobility15QContactManager5ErrorEE6insertERKiRKS2_)
    t._ZN4QMapIiN10QtMobility15QContactManager5ErrorEE8freeDataEP8QMapData 0x0000fa26   Section       48  cntsymbiansimengine.o(t._ZN4QMapIiN10QtMobility15QContactManager5ErrorEE8freeDataEP8QMapData)
    t._ZN4QMapIiN10QtMobility15QContactManager5ErrorEEC1Ev 0x0000fa58   Section       28  cntsimcontactremoverequest.o(t._ZN4QMapIiN10QtMobility15QContactManager5ErrorEEC1Ev)
    t._ZN4QMapIiN10QtMobility15QContactManager5ErrorEED1Ev 0x0000fa74   Section       38  cntsymbiansimengine.o(t._ZN4QMapIiN10QtMobility15QContactManager5ErrorEED1Ev)
    t._ZN4QMapIiN10QtMobility15QContactManager5ErrorEEaSERKS3_ 0x0000fa9a   Section       70  cntsymbiansimengine.o(t._ZN4QMapIiN10QtMobility15QContactManager5ErrorEEaSERKS3_)
    t._ZN5QListI7QStringE13detach_helperEi   0x0000fae0   Section       94  cntsymbiansimengine.o(t._ZN5QListI7QStringE13detach_helperEi)
    t._ZN5QListI7QStringE13detach_helperEi.clean 0x0000fb3e   Section        8  cntsymbiansimengine.o(t._ZN5QListI7QStringE13detach_helperEi.clean)
    t._ZN5QListI7QStringE13detach_helperEv   0x0000fb46   Section       16  cntsymbiansimengine.o(t._ZN5QListI7QStringE13detach_helperEv)
    t._ZN5QListI7QStringE13node_destructEPNS1_4NodeES3_ 0x0000fb56   Section       26  cntsymbiansimengine.o(t._ZN5QListI7QStringE13node_destructEPNS1_4NodeES3_)
    t._ZN5QListI7QStringE14node_constructEPNS1_4NodeERKS0_ 0x0000fb70   Section       36  cntsymbiansimengine.o(t._ZN5QListI7QStringE14node_constructEPNS1_4NodeERKS0_)
    t._ZN5QListI7QStringE14node_constructEPNS1_4NodeERKS0_.clean 0x0000fb94   Section       14  cntsymbiansimengine.o(t._ZN5QListI7QStringE14node_constructEPNS1_4NodeERKS0_.clean)
    t._ZN5QListI7QStringE18detach_helper_growEii 0x0000fba2   Section      208  cntsymbiansimengine.o(t._ZN5QListI7QStringE18detach_helper_growEii)
    t._ZN5QListI7QStringE18detach_helper_growEii.clean 0x0000fc72   Section       16  cntsymbiansimengine.o(t._ZN5QListI7QStringE18detach_helper_growEii.clean)
    t._ZN5QListI7QStringE4freeEPN9QListData4DataE 0x0000fc82   Section       52  cntsymbiansimengine.o(t._ZN5QListI7QStringE4freeEPN9QListData4DataE)
    t._ZN5QListI7QStringE6appendERKS0_       0x0000fcb8   Section      120  cntsymbiansimengine.o(t._ZN5QListI7QStringE6appendERKS0_)
    t._ZN5QListI7QStringE6appendERKS0_.clean 0x0000fd30   Section       14  cntsymbiansimengine.o(t._ZN5QListI7QStringE6appendERKS0_.clean)
    t._ZN5QListI7QStringE9node_copyEPNS1_4NodeES3_S3_ 0x0000fd3e   Section       82  cntsymbiansimengine.o(t._ZN5QListI7QStringE9node_copyEPNS1_4NodeES3_S3_)
    t._ZN5QListI7QStringE9node_copyEPNS1_4NodeES3_S3_.clean 0x0000fd90   Section       22  cntsymbiansimengine.o(t._ZN5QListI7QStringE9node_copyEPNS1_4NodeES3_S3_.clean)
    t._ZN5QListI7QStringED1Ev                0x0000fda6   Section       32  cntsymbiansimengine.o(t._ZN5QListI7QStringED1Ev)
    t._ZN5QListI8QVariantE13detach_helperEi  0x0000fdc6   Section       94  cntsymbiansimengine.o(t._ZN5QListI8QVariantE13detach_helperEi)
    t._ZN5QListI8QVariantE13detach_helperEi.clean 0x0000fe24   Section        8  cntsymbiansimengine.o(t._ZN5QListI8QVariantE13detach_helperEi.clean)
    t._ZN5QListI8QVariantE13detach_helperEv  0x0000fe2c   Section       16  cntsymbiansimengine.o(t._ZN5QListI8QVariantE13detach_helperEv)
    t._ZN5QListI8QVariantE13node_destructEPNS1_4NodeES3_ 0x0000fe3c   Section       38  cntsymbiansimengine.o(t._ZN5QListI8QVariantE13node_destructEPNS1_4NodeES3_)
    t._ZN5QListI8QVariantE14node_constructEPNS1_4NodeERKS0_ 0x0000fe62   Section       34  cntsymbiansimengine.o(t._ZN5QListI8QVariantE14node_constructEPNS1_4NodeERKS0_)
    t._ZN5QListI8QVariantE14node_constructEPNS1_4NodeERKS0_.clean 0x0000fe84   Section       14  cntsymbiansimengine.o(t._ZN5QListI8QVariantE14node_constructEPNS1_4NodeERKS0_.clean)
    t._ZN5QListI8QVariantE18detach_helper_growEii 0x0000fe92   Section      208  cntsymbiansimengine.o(t._ZN5QListI8QVariantE18detach_helper_growEii)
    t._ZN5QListI8QVariantE18detach_helper_growEii.clean 0x0000ff62   Section       16  cntsymbiansimengine.o(t._ZN5QListI8QVariantE18detach_helper_growEii.clean)
    t._ZN5QListI8QVariantE4freeEPN9QListData4DataE 0x0000ff72   Section       52  cntsymbiansimengine.o(t._ZN5QListI8QVariantE4freeEPN9QListData4DataE)
    t._ZN5QListI8QVariantE5clearEv           0x0000ffa6   Section       76  cntsymbiansimengine.o(t._ZN5QListI8QVariantE5clearEv)
    t._ZN5QListI8QVariantE5clearEv.clean     0x0000fff2   Section       10  cntsymbiansimengine.o(t._ZN5QListI8QVariantE5clearEv.clean)
    t._ZN5QListI8QVariantE6appendERKS0_      0x0000fffc   Section      112  cntsymbiansimengine.o(t._ZN5QListI8QVariantE6appendERKS0_)
    t._ZN5QListI8QVariantE6appendERKS0_.clean 0x0001006c   Section       14  cntsymbiansimengine.o(t._ZN5QListI8QVariantE6appendERKS0_.clean)
    t._ZN5QListI8QVariantE9node_copyEPNS1_4NodeES3_S3_ 0x0001007a   Section       92  cntsymbiansimengine.o(t._ZN5QListI8QVariantE9node_copyEPNS1_4NodeES3_S3_)
    t._ZN5QListI8QVariantE9node_copyEPNS1_4NodeES3_S3_.clean 0x000100d6   Section       22  cntsymbiansimengine.o(t._ZN5QListI8QVariantE9node_copyEPNS1_4NodeES3_S3_.clean)
    t._ZN5QListI8QVariantEC1ERKS1_           0x000100ec   Section       36  cntsymbiansimengine.o(t._ZN5QListI8QVariantEC1ERKS1_)
    t._ZN5QListI8QVariantEC1Ev               0x00010110   Section       24  cntsymbiansimengine.o(t._ZN5QListI8QVariantEC1Ev)
    t._ZN5QListI8QVariantED1Ev               0x00010128   Section       32  cntsymbiansimengine.o(t._ZN5QListI8QVariantED1Ev)
    t._ZN5QListIN10QtMobility14QContactDetailEE13detach_helperEi 0x00010148   Section      176  cntsimstoreprivate.o(t._ZN5QListIN10QtMobility14QContactDetailEE13detach_helperEi)
    t._ZN5QListIN10QtMobility14QContactDetailEE13detach_helperEi.clean 0x000101f8   Section       30  cntsimstoreprivate.o(t._ZN5QListIN10QtMobility14QContactDetailEE13detach_helperEi.clean)
    t._ZN5QListIN10QtMobility14QContactDetailEE13detach_helperEv 0x00010216   Section       16  cntsimstoreprivate.o(t._ZN5QListIN10QtMobility14QContactDetailEE13detach_helperEv)
    t._ZN5QListIN10QtMobility14QContactDetailEE4freeEPN9QListData4DataE 0x00010226   Section       64  cntsymbiansimengine.o(t._ZN5QListIN10QtMobility14QContactDetailEE4freeEPN9QListData4DataE)
    t._ZN5QListIN10QtMobility14QContactDetailEED1Ev 0x00010266   Section       32  cntsymbiansimengine.o(t._ZN5QListIN10QtMobility14QContactDetailEED1Ev)
    t._ZN5QListIN10QtMobility17QContactSortOrderEE4freeEPN9QListData4DataE 0x00010286   Section       70  cntsimcontactfetchrequest.o(t._ZN5QListIN10QtMobility17QContactSortOrderEE4freeEPN9QListData4DataE)
    t._ZN5QListIN10QtMobility17QContactSortOrderEED1Ev 0x000102cc   Section       32  cntsimcontactfetchrequest.o(t._ZN5QListIN10QtMobility17QContactSortOrderEED1Ev)
    t._ZN5QListIN10QtMobility19QContactPhoneNumberEE13detach_helperEi 0x000102ec   Section       94  cntsymbiansimengine.o(t._ZN5QListIN10QtMobility19QContactPhoneNumberEE13detach_helperEi)
    t._ZN5QListIN10QtMobility19QContactPhoneNumberEE13detach_helperEi.clean 0x0001034a   Section        8  cntsymbiansimengine.o(t._ZN5QListIN10QtMobility19QContactPhoneNumberEE13detach_helperEi.clean)
    t._ZN5QListIN10QtMobility19QContactPhoneNumberEE13detach_helperEv 0x00010352   Section       16  cntsymbiansimengine.o(t._ZN5QListIN10QtMobility19QContactPhoneNumberEE13detach_helperEv)
    t._ZN5QListIN10QtMobility19QContactPhoneNumberEE13node_destructEPNS2_4NodeES4_ 0x00010362   Section       38  cntsymbiansimengine.o(t._ZN5QListIN10QtMobility19QContactPhoneNumberEE13node_destructEPNS2_4NodeES4_)
    t._ZN5QListIN10QtMobility19QContactPhoneNumberEE14node_constructEPNS2_4NodeERKS1_ 0x00010388   Section       34  cntsymbiansimengine.o(t._ZN5QListIN10QtMobility19QContactPhoneNumberEE14node_constructEPNS2_4NodeERKS1_)
    t._ZN5QListIN10QtMobility19QContactPhoneNumberEE14node_constructEPNS2_4NodeERKS1_.clean 0x000103aa   Section       14  cntsymbiansimengine.o(t._ZN5QListIN10QtMobility19QContactPhoneNumberEE14node_constructEPNS2_4NodeERKS1_.clean)
    t._ZN5QListIN10QtMobility19QContactPhoneNumberEE18detach_helper_growEii 0x000103b8   Section      208  cntsymbiansimengine.o(t._ZN5QListIN10QtMobility19QContactPhoneNumberEE18detach_helper_growEii)
    t._ZN5QListIN10QtMobility19QContactPhoneNumberEE18detach_helper_growEii.clean 0x00010488   Section       16  cntsymbiansimengine.o(t._ZN5QListIN10QtMobility19QContactPhoneNumberEE18detach_helper_growEii.clean)
    t._ZN5QListIN10QtMobility19QContactPhoneNumberEE4freeEPN9QListData4DataE 0x00010498   Section       52  cntsymbiansimengine.o(t._ZN5QListIN10QtMobility19QContactPhoneNumberEE4freeEPN9QListData4DataE)
    t._ZN5QListIN10QtMobility19QContactPhoneNumberEE6appendERKS1_ 0x000104cc   Section      112  cntsymbiansimengine.o(t._ZN5QListIN10QtMobility19QContactPhoneNumberEE6appendERKS1_)
    t._ZN5QListIN10QtMobility19QContactPhoneNumberEE6appendERKS1_.clean 0x0001053c   Section       14  cntsymbiansimengine.o(t._ZN5QListIN10QtMobility19QContactPhoneNumberEE6appendERKS1_.clean)
    t._ZN5QListIN10QtMobility19QContactPhoneNumberEE9node_copyEPNS2_4NodeES4_S4_ 0x0001054a   Section       92  cntsymbiansimengine.o(t._ZN5QListIN10QtMobility19QContactPhoneNumberEE9node_copyEPNS2_4NodeES4_S4_)
    t._ZN5QListIN10QtMobility19QContactPhoneNumberEE9node_copyEPNS2_4NodeES4_S4_.clean 0x000105a6   Section       22  cntsymbiansimengine.o(t._ZN5QListIN10QtMobility19QContactPhoneNumberEE9node_copyEPNS2_4NodeES4_S4_.clean)
    t._ZN5QListIN10QtMobility19QContactPhoneNumberEED1Ev 0x000105bc   Section       32  cntsymbiansimengine.o(t._ZN5QListIN10QtMobility19QContactPhoneNumberEED1Ev)
    t._ZN5QListIN10QtMobility8QContactEE13detach_helperEi 0x000105dc   Section       94  cntsimstoreprivate.o(t._ZN5QListIN10QtMobility8QContactEE13detach_helperEi)
    t._ZN5QListIN10QtMobility8QContactEE13detach_helperEi.clean 0x0001063a   Section        8  cntsimstoreprivate.o(t._ZN5QListIN10QtMobility8QContactEE13detach_helperEi.clean)
    t._ZN5QListIN10QtMobility8QContactEE13detach_helperEv 0x00010642   Section       16  moc_cntsimstore.o(t._ZN5QListIN10QtMobility8QContactEE13detach_helperEv)
    t._ZN5QListIN10QtMobility8QContactEE13node_destructEPNS2_4NodeES4_ 0x00010652   Section       26  cntsimstoreprivate.o(t._ZN5QListIN10QtMobility8QContactEE13node_destructEPNS2_4NodeES4_)
    t._ZN5QListIN10QtMobility8QContactEE14node_constructEPNS2_4NodeERKS1_ 0x0001066c   Section       36  cntsimstoreprivate.o(t._ZN5QListIN10QtMobility8QContactEE14node_constructEPNS2_4NodeERKS1_)
    t._ZN5QListIN10QtMobility8QContactEE14node_constructEPNS2_4NodeERKS1_.clean 0x00010690   Section       14  cntsimstoreprivate.o(t._ZN5QListIN10QtMobility8QContactEE14node_constructEPNS2_4NodeERKS1_.clean)
    t._ZN5QListIN10QtMobility8QContactEE18detach_helper_growEii 0x0001069e   Section      208  cntsimstoreprivate.o(t._ZN5QListIN10QtMobility8QContactEE18detach_helper_growEii)
    t._ZN5QListIN10QtMobility8QContactEE18detach_helper_growEii.clean 0x0001076e   Section       16  cntsimstoreprivate.o(t._ZN5QListIN10QtMobility8QContactEE18detach_helper_growEii.clean)
    t._ZN5QListIN10QtMobility8QContactEE4freeEPN9QListData4DataE 0x0001077e   Section       58  cntsimstoreprivate.o(t._ZN5QListIN10QtMobility8QContactEE4freeEPN9QListData4DataE)
    t._ZN5QListIN10QtMobility8QContactEE6appendERKS1_ 0x000107b8   Section      120  cntsimstoreprivate.o(t._ZN5QListIN10QtMobility8QContactEE6appendERKS1_)
    t._ZN5QListIN10QtMobility8QContactEE6appendERKS1_.clean 0x00010830   Section       14  cntsimstoreprivate.o(t._ZN5QListIN10QtMobility8QContactEE6appendERKS1_.clean)
    t._ZN5QListIN10QtMobility8QContactEE6detachEv 0x0001083e   Section       24  cntsimstoreprivate.o(t._ZN5QListIN10QtMobility8QContactEE6detachEv)
    t._ZN5QListIN10QtMobility8QContactEE9node_copyEPNS2_4NodeES4_S4_ 0x00010856   Section       82  cntsimstoreprivate.o(t._ZN5QListIN10QtMobility8QContactEE9node_copyEPNS2_4NodeES4_S4_)
    t._ZN5QListIN10QtMobility8QContactEE9node_copyEPNS2_4NodeES4_S4_.clean 0x000108a8   Section       22  cntsimstoreprivate.o(t._ZN5QListIN10QtMobility8QContactEE9node_copyEPNS2_4NodeES4_S4_.clean)
    t._ZN5QListIN10QtMobility8QContactEEC1ERKS2_ 0x000108be   Section       36  cntsimstoreprivate.o(t._ZN5QListIN10QtMobility8QContactEEC1ERKS2_)
    t._ZN5QListIN10QtMobility8QContactEEC1Ev 0x000108e4   Section       24  cntsimstoreprivate.o(t._ZN5QListIN10QtMobility8QContactEEC1Ev)
    t._ZN5QListIN10QtMobility8QContactEED1Ev 0x000108fc   Section       32  moc_cntsimstore.o(t._ZN5QListIN10QtMobility8QContactEED1Ev)
    t._ZN5QListIPN10QtMobility23QContactAbstractRequestEE13detach_helperEi 0x0001091c   Section       94  cntsymbiansimengine.o(t._ZN5QListIPN10QtMobility23QContactAbstractRequestEE13detach_helperEi)
    t._ZN5QListIPN10QtMobility23QContactAbstractRequestEE13detach_helperEi.clean 0x0001097a   Section        8  cntsymbiansimengine.o(t._ZN5QListIPN10QtMobility23QContactAbstractRequestEE13detach_helperEi.clean)
    t._ZN5QListIPN10QtMobility23QContactAbstractRequestEE13detach_helperEv 0x00010982   Section       16  cntsymbiansimengine.o(t._ZN5QListIPN10QtMobility23QContactAbstractRequestEE13detach_helperEv)
    t._ZN5QListIPN10QtMobility23QContactAbstractRequestEE18detach_helper_growEii 0x00010992   Section      204  cntsymbiansimengine.o(t._ZN5QListIPN10QtMobility23QContactAbstractRequestEE18detach_helper_growEii)
    t._ZN5QListIPN10QtMobility23QContactAbstractRequestEE18detach_helper_growEii.clean 0x00010a5e   Section       16  cntsymbiansimengine.o(t._ZN5QListIPN10QtMobility23QContactAbstractRequestEE18detach_helper_growEii.clean)
    t._ZN5QListIPN10QtMobility23QContactAbstractRequestEE4freeEPN9QListData4DataE 0x00010a6e   Section       52  cntsymbiansimengine.o(t._ZN5QListIPN10QtMobility23QContactAbstractRequestEE4freeEPN9QListData4DataE)
    t._ZN5QListIPN10QtMobility23QContactAbstractRequestEE6appendERKS2_ 0x00010aa4   Section      100  cntsymbiansimengine.o(t._ZN5QListIPN10QtMobility23QContactAbstractRequestEE6appendERKS2_)
    t._ZN5QListIPN10QtMobility23QContactAbstractRequestEE6appendERKS2_.clean 0x00010b08   Section       10  cntsymbiansimengine.o(t._ZN5QListIPN10QtMobility23QContactAbstractRequestEE6appendERKS2_.clean)
    t._ZN5QListIPN10QtMobility23QContactAbstractRequestEE7reserveEi 0x00010b12   Section       46  cntsymbiansimengine.o(t._ZN5QListIPN10QtMobility23QContactAbstractRequestEE7reserveEi)
    t._ZN5QListIPN10QtMobility23QContactAbstractRequestEE9node_copyEPNS3_4NodeES5_S5_ 0x00010b40   Section       46  cntsymbiansimengine.o(t._ZN5QListIPN10QtMobility23QContactAbstractRequestEE9node_copyEPNS3_4NodeES5_S5_)
    t._ZN5QListIPN10QtMobility23QContactAbstractRequestEED1Ev 0x00010b6e   Section       32  cntsymbiansimengine.o(t._ZN5QListIPN10QtMobility23QContactAbstractRequestEED1Ev)
    t._ZN5QListIiE13detach_helperEi          0x00010b8e   Section       94  cntsimstoreprivate.o(t._ZN5QListIiE13detach_helperEi)
    t._ZN5QListIiE13detach_helperEi.clean    0x00010bec   Section        8  cntsimstoreprivate.o(t._ZN5QListIiE13detach_helperEi.clean)
    t._ZN5QListIiE13detach_helperEv          0x00010bf4   Section       16  moc_cntsimstore.o(t._ZN5QListIiE13detach_helperEv)
    t._ZN5QListIiE18detach_helper_growEii    0x00010c04   Section      204  cntsimstoreprivate.o(t._ZN5QListIiE18detach_helper_growEii)
    t._ZN5QListIiE18detach_helper_growEii.clean 0x00010cd0   Section       16  cntsimstoreprivate.o(t._ZN5QListIiE18detach_helper_growEii.clean)
    t._ZN5QListIiE4freeEPN9QListData4DataE   0x00010ce0   Section       58  moc_cntsimstore.o(t._ZN5QListIiE4freeEPN9QListData4DataE)
    t._ZN5QListIiE5clearEv                   0x00010d1a   Section       28  cntsimcontactremoverequest.o(t._ZN5QListIiE5clearEv)
    t._ZN5QListIiE5clearEv.clean             0x00010d36   Section       10  cntsimcontactremoverequest.o(t._ZN5QListIiE5clearEv.clean)
    t._ZN5QListIiE6appendERKi                0x00010d40   Section      100  cntsimstoreprivate.o(t._ZN5QListIiE6appendERKi)
    t._ZN5QListIiE6appendERKi.clean          0x00010da4   Section       10  cntsimstoreprivate.o(t._ZN5QListIiE6appendERKi.clean)
    t._ZN5QListIiE9node_copyEPNS0_4NodeES2_S2_ 0x00010dae   Section       46  cntsimstoreprivate.o(t._ZN5QListIiE9node_copyEPNS0_4NodeES2_S2_)
    t._ZN5QListIiEC1Ev                       0x00010ddc   Section       24  cntsimstoreprivate.o(t._ZN5QListIiEC1Ev)
    t._ZN5QListIiED1Ev                       0x00010df4   Section       32  moc_cntsimstore.o(t._ZN5QListIiED1Ev)
    t._ZN5QListIiEaSERKS0_                   0x00010e14   Section       64  cntsimcontactremoverequest.o(t._ZN5QListIiEaSERKS0_)
    t._ZN5QListIjE13detach_helperEi          0x00010e54   Section      128  cntsimcontactremoverequest.o(t._ZN5QListIjE13detach_helperEi)
    t._ZN5QListIjE13detach_helperEi.clean    0x00010ed4   Section        8  cntsimcontactremoverequest.o(t._ZN5QListIjE13detach_helperEi.clean)
    t._ZN5QListIjE13detach_helperEv          0x00010edc   Section       16  cntsimcontactremoverequest.o(t._ZN5QListIjE13detach_helperEv)
    t._ZN5QListIjE18detach_helper_growEii    0x00010eec   Section      204  cntsymbiansimengine.o(t._ZN5QListIjE18detach_helper_growEii)
    t._ZN5QListIjE18detach_helper_growEii.clean 0x00010fb8   Section       16  cntsymbiansimengine.o(t._ZN5QListIjE18detach_helper_growEii.clean)
    t._ZN5QListIjE4freeEPN9QListData4DataE   0x00010fc8   Section       52  cntsymbiansimengine.o(t._ZN5QListIjE4freeEPN9QListData4DataE)
    t._ZN5QListIjE6appendERKj                0x00010ffc   Section      100  cntsymbiansimengine.o(t._ZN5QListIjE6appendERKj)
    t._ZN5QListIjE6appendERKj.clean          0x00011060   Section       10  cntsymbiansimengine.o(t._ZN5QListIjE6appendERKj.clean)
    t._ZN5QListIjE9node_copyEPNS0_4NodeES2_S2_ 0x0001106a   Section       46  cntsymbiansimengine.o(t._ZN5QListIjE9node_copyEPNS0_4NodeES2_S2_)
    t._ZN5QListIjEC1Ev                       0x00011098   Section       24  cntsimcontactlocalidfetchrequest.o(t._ZN5QListIjEC1Ev)
    t._ZN5QListIjED1Ev                       0x000110b0   Section       32  cntsymbiansimengine.o(t._ZN5QListIjED1Ev)
    t._ZN8QPointerI7QObjectED1Ev             0x000110d0   Section       14  cntsymbiansimengine.o(t._ZN8QPointerI7QObjectED1Ev)
    t._ZNK10QtMobility8QContact7detailsINS_19QContactPhoneNumberEEE5QListIT_Ev 0x000110e0   Section      140  cntsymbiansimengine.o(t._ZNK10QtMobility8QContact7detailsINS_19QContactPhoneNumberEEE5QListIT_Ev)
    t._ZNK10QtMobility8QContact7detailsINS_19QContactPhoneNumberEEE5QListIT_Ev.clean 0x0001116c   Section       22  cntsymbiansimengine.o(t._ZNK10QtMobility8QContact7detailsINS_19QContactPhoneNumberEEE5QListIT_Ev.clean)
    t._ZNK4QMapI7QStringN10QtMobility24QContactDetailDefinitionEE15mutableFindNodeEPPN8QMapData4NodeERKS0_ 0x00011182   Section      108  cntsymbiansimengine.o(t._ZNK4QMapI7QStringN10QtMobility24QContactDetailDefinitionEE15mutableFindNodeEPPN8QMapData4NodeERKS0_)
    t._ZNK4QMapI7QStringN10QtMobility24QContactDetailDefinitionEE8findNodeERKS0_ 0x000111ee   Section      104  cntsimdetaildefinitionfetchrequest.o(t._ZNK4QMapI7QStringN10QtMobility24QContactDetailDefinitionEE8findNodeERKS0_)
    t._ZNK4QMapI7QStringN10QtMobility29QContactDetailFieldDefinitionEE15mutableFindNodeEPPN8QMapData4NodeERKS0_ 0x00011256   Section      108  cntsymbiansimengine.o(t._ZNK4QMapI7QStringN10QtMobility29QContactDetailFieldDefinitionEE15mutableFindNodeEPPN8QMapData4NodeERKS0_)
    t._ZNK4QMapIPN10QtMobility23QContactAbstractRequestEP21CntAbstractSimRequestE15mutableFindNodeEPPN8QMapData4NodeERKS2_ 0x000112c2   Section      108  cntsymbiansimengine.o(t._ZNK4QMapIPN10QtMobility23QContactAbstractRequestEP21CntAbstractSimRequestE15mutableFindNodeEPPN8QMapData4NodeERKS2_)
    t._ZNK4QMapIPN10QtMobility23QContactAbstractRequestEP21CntAbstractSimRequestE4keysEv 0x00011330   Section      116  cntsymbiansimengine.o(t._ZNK4QMapIPN10QtMobility23QContactAbstractRequestEP21CntAbstractSimRequestE4keysEv)
    t._ZNK4QMapIPN10QtMobility23QContactAbstractRequestEP21CntAbstractSimRequestE4keysEv.clean 0x000113a4   Section       10  cntsymbiansimengine.o(t._ZNK4QMapIPN10QtMobility23QContactAbstractRequestEP21CntAbstractSimRequestE4keysEv.clean)
    t._ZNK4QMapIPN10QtMobility23QContactAbstractRequestEP21CntAbstractSimRequestE5valueERKS2_ 0x000113ae   Section       46  cntsymbiansimengine.o(t._ZNK4QMapIPN10QtMobility23QContactAbstractRequestEP21CntAbstractSimRequestE5valueERKS2_)
    t._ZNK4QMapIPN10QtMobility23QContactAbstractRequestEP21CntAbstractSimRequestE8containsERKS2_ 0x000113dc   Section       28  cntsymbiansimengine.o(t._ZNK4QMapIPN10QtMobility23QContactAbstractRequestEP21CntAbstractSimRequestE8containsERKS2_)
    t._ZNK4QMapIPN10QtMobility23QContactAbstractRequestEP21CntAbstractSimRequestE8findNodeERKS2_ 0x000113f8   Section      104  cntsymbiansimengine.o(t._ZNK4QMapIPN10QtMobility23QContactAbstractRequestEP21CntAbstractSimRequestE8findNodeERKS2_)
    t._ZNK4QMapIiN10QtMobility15QContactManager5ErrorEE15mutableFindNodeEPPN8QMapData4NodeERKi 0x00011460   Section      108  cntsimcontactremoverequest.o(t._ZNK4QMapIiN10QtMobility15QContactManager5ErrorEE15mutableFindNodeEPPN8QMapData4NodeERKi)
    t._ZNK5QListIN10QtMobility8QContactEE2atEi 0x000114cc   Section       30  cntsimcontactlocalidfetchrequest.o(t._ZNK5QListIN10QtMobility8QContactEE2atEi)
    t._ZNK5QListIiE8containsERKi             0x000114ea   Section       66  cntsimcontactremoverequest.o(t._ZNK5QListIiE8containsERKi)
    .extab._ZN20CntSymbianSimFactoryD1Ev     0x0001152c   Data           0  moc_cntsymbiansimengine.o(.ARM.extab)
    .extab._ZN11CntSimStore11qt_metacallEN11QMetaObject4CallEiPPv 0x0001153c   Data           0  moc_cntsimstore.o(.ARM.extab)
    .extab._ZN25CntSimContactFetchRequest11qt_metacallEN11QMetaObject4CallEiPPv 0x0001155c   Data           0  moc_cntsimcontactfetchrequest.o(.ARM.extab)
    .extab._ZN32CntSimContactLocalIdFetchRequest11qt_metacallEN11QMetaObject4CallEiPPv 0x0001156c   Data           0  moc_cntsimcontactlocalidfetchrequest.o(.ARM.extab)
    .extab._ZN26CntSimContactRemoveRequest11qt_metacallEN11QMetaObject4CallEiPPv 0x0001157c   Data           0  moc_cntsimcontactremoverequest.o(.ARM.extab)
    .extab._ZN24CntSimContactSaveRequest11qt_metacallEN11QMetaObject4CallEiPPv 0x0001158c   Data           0  moc_cntsimcontactsaverequest.o(.ARM.extab)
    .extab.qt_plugin_instance                0x0001159c   Data           0  cntsymbiansimengine.o(.ARM.extab)
    .extab._ZN23CntSymbianSimEngineDataD1Ev  0x000115b4   Data           0  cntsymbiansimengine.o(.ARM.extab)
    .extab._ZN19CntSymbianSimEngineC1ERK4QMapI7QStringS1_EPN10QtMobility15QContactManager5ErrorE 0x000115c4   Data           0  cntsymbiansimengine.o(.ARM.extab)
    .extab._ZN19CntSymbianSimEngineC1ERKS_   0x00011654   Data           0  cntsymbiansimengine.o(.ARM.extab)
    .extab._ZN19CntSymbianSimEngineD1Ev      0x00011664   Data           0  cntsymbiansimengine.o(.ARM.extab)
    .extab._ZN19CntSymbianSimEngine22waitForRequestFinishedEPN10QtMobility23QContactAbstractRequestEi 0x00011674   Data           0  cntsymbiansimengine.o(.ARM.extab)
    .extab._ZN19CntSymbianSimEngine12startRequestEPN10QtMobility23QContactAbstractRequestE 0x00011684   Data           0  cntsymbiansimengine.o(.ARM.extab)
    .extab._ZNK19CntSymbianSimEngine14executeRequestEPN10QtMobility23QContactAbstractRequestEPNS0_15QContactManager5ErrorE 0x000116cc   Data           0  cntsymbiansimengine.o(.ARM.extab)
    .extab._ZNK19CntSymbianSimEngine10contactIdsERKN10QtMobility14QContactFilterERK5QListINS0_17QContactSortOrderEEPNS0_15QContactManager5ErrorE 0x000116dc   Data           0  cntsymbiansimengine.o(.ARM.extab)
    .extab._ZNK19CntSymbianSimEngine8contactsERKN10QtMobility14QContactFilterERK5QListINS0_17QContactSortOrderEERKNS0_17QContactFetchHintEPNS0_15QContactManager5ErrorE 0x000116ec   Data           0  cntsymbiansimengine.o(.ARM.extab)
    .extab._ZNK19CntSymbianSimEngine7contactERKjRKN10QtMobility17QContactFetchHintEPNS2_15QContactManager5ErrorE 0x000116fc   Data           0  cntsymbiansimengine.o(.ARM.extab)
    .extab._ZN19CntSymbianSimEngine12saveContactsEP5QListIN10QtMobility8QContactEEP4QMapIiNS1_15QContactManager5ErrorEEPS7_ 0x0001174c   Data           0  cntsymbiansimengine.o(.ARM.extab)
    .extab._ZN19CntSymbianSimEngine14removeContactsERK5QListIjEP4QMapIiN10QtMobility15QContactManager5ErrorEEPS7_ 0x0001177c   Data           0  cntsymbiansimengine.o(.ARM.extab)
    .extab._ZNK19CntSymbianSimEngine23synthesizedDisplayLabelERKN10QtMobility8QContactEPNS0_15QContactManager5ErrorE 0x0001179c   Data           0  cntsymbiansimengine.o(.ARM.extab)
    .extab._ZNK19CntSymbianSimEngine17detailDefinitionsERK7QStringPN10QtMobility15QContactManager5ErrorE 0x000117bc   Data           0  cntsymbiansimengine.o(.ARM.extab)
    .extab._ZNK19CntSymbianSimEngine17isFilterSupportedERKN10QtMobility14QContactFilterE 0x00011a24   Data           0  cntsymbiansimengine.o(.ARM.extab)
    .extab._ZNK19CntSymbianSimEngine21supportedContactTypesEv 0x00011a54   Data           0  cntsymbiansimengine.o(.ARM.extab)
    .extab._ZNK19CntSymbianSimEngine18updateDisplayLabelERN10QtMobility8QContactE 0x00011a74   Data           0  cntsymbiansimengine.o(.ARM.extab)
    .extab._ZN19CntSymbianSimEngine6filterERKN10QtMobility14QContactFilterERKNS0_8QContactE 0x00011a84   Data           0  cntsymbiansimengine.o(.ARM.extab)
    .extab._ZN20CntSymbianSimFactory6engineERK4QMapI7QStringS1_EPN10QtMobility15QContactManager5ErrorE 0x00011bec   Data           0  cntsymbiansimengine.o(.ARM.extab)
    .extab._ZN5QListIPN10QtMobility23QContactAbstractRequestEE13detach_helperEi 0x00011bfc   Data           0  cntsymbiansimengine.o(.ARM.extab)
    .extab._ZN5QListIN10QtMobility19QContactPhoneNumberEE9node_copyEPNS2_4NodeES4_S4_ 0x00011c18   Data           0  cntsymbiansimengine.o(.ARM.extab)
    .extab._ZN5QListIN10QtMobility19QContactPhoneNumberEE13detach_helperEi 0x00011c3c   Data           0  cntsymbiansimengine.o(.ARM.extab)
    .extab._ZN5QListI8QVariantE9node_copyEPNS1_4NodeES3_S3_ 0x00011c58   Data           0  cntsymbiansimengine.o(.ARM.extab)
    .extab._ZN5QListI8QVariantE13detach_helperEi 0x00011c7c   Data           0  cntsymbiansimengine.o(.ARM.extab)
    .extab._ZN5QListI8QVariantE5clearEv      0x00011c98   Data           0  cntsymbiansimengine.o(.ARM.extab)
    .extab._ZN5QListI8QVariantE14node_constructEPNS1_4NodeERKS0_ 0x00011ca8   Data           0  cntsymbiansimengine.o(.ARM.extab)
    .extab._ZN5QListI8QVariantE18detach_helper_growEii 0x00011cb8   Data           0  cntsymbiansimengine.o(.ARM.extab)
    .extab._ZN5QListI8QVariantE6appendERKS0_ 0x00011ce8   Data           0  cntsymbiansimengine.o(.ARM.extab)
    .extab._ZN5QListI7QStringE9node_copyEPNS1_4NodeES3_S3_ 0x00011d18   Data           0  cntsymbiansimengine.o(.ARM.extab)
    .extab._ZN5QListI7QStringE13detach_helperEi 0x00011d3c   Data           0  cntsymbiansimengine.o(.ARM.extab)
    .extab._ZN5QListI7QStringE14node_constructEPNS1_4NodeERKS0_ 0x00011d58   Data           0  cntsymbiansimengine.o(.ARM.extab)
    .extab._ZN5QListI7QStringE18detach_helper_growEii 0x00011d68   Data           0  cntsymbiansimengine.o(.ARM.extab)
    .extab._ZN5QListI7QStringE6appendERKS0_  0x00011d98   Data           0  cntsymbiansimengine.o(.ARM.extab)
    .extab._ZN4QMapIPN10QtMobility23QContactAbstractRequestEP21CntAbstractSimRequestE13detach_helperEv 0x00011dc8   Data           0  cntsymbiansimengine.o(.ARM.extab)
    .extab._ZN5QListIPN10QtMobility23QContactAbstractRequestEE18detach_helper_growEii 0x00011de4   Data           0  cntsymbiansimengine.o(.ARM.extab)
    .extab._ZN5QListIPN10QtMobility23QContactAbstractRequestEE6appendERKS2_ 0x00011e14   Data           0  cntsymbiansimengine.o(.ARM.extab)
    .extab._ZNK4QMapIPN10QtMobility23QContactAbstractRequestEP21CntAbstractSimRequestE4keysEv 0x00011e30   Data           0  cntsymbiansimengine.o(.ARM.extab)
    .extab._ZN5QListIjE18detach_helper_growEii 0x00011e40   Data           0  cntsymbiansimengine.o(.ARM.extab)
    .extab._ZN5QListIjE6appendERKj           0x00011e70   Data           0  cntsymbiansimengine.o(.ARM.extab)
    .extab._ZN4QMapI7QStringN10QtMobility24QContactDetailDefinitionEE11node_createEP8QMapDataPPNS4_4NodeERKS0_RKS2_ 0x00011e8c   Data           0  cntsymbiansimengine.o(.ARM.extab)
    .extab._ZN4QMapI7QStringN10QtMobility24QContactDetailDefinitionEE13detach_helperEv 0x00011ed8   Data           0  cntsymbiansimengine.o(.ARM.extab)
    .extab._ZN4QMapI7QStringN10QtMobility29QContactDetailFieldDefinitionEE11node_createEP8QMapDataPPNS4_4NodeERKS0_RKS2_ 0x00011ef4   Data           0  cntsymbiansimengine.o(.ARM.extab)
    .extab._ZN4QMapI7QStringN10QtMobility29QContactDetailFieldDefinitionEE13detach_helperEv 0x00011f40   Data           0  cntsymbiansimengine.o(.ARM.extab)
    .extab._ZN4QMapI7QStringN10QtMobility29QContactDetailFieldDefinitionEE5clearEv 0x00011f5c   Data           0  cntsymbiansimengine.o(.ARM.extab)
    .extab._ZN5QListIN10QtMobility19QContactPhoneNumberEE14node_constructEPNS2_4NodeERKS1_ 0x00011f6c   Data           0  cntsymbiansimengine.o(.ARM.extab)
    .extab._ZN5QListIN10QtMobility19QContactPhoneNumberEE18detach_helper_growEii 0x00011f7c   Data           0  cntsymbiansimengine.o(.ARM.extab)
    .extab._ZN5QListIN10QtMobility19QContactPhoneNumberEE6appendERKS1_ 0x00011fac   Data           0  cntsymbiansimengine.o(.ARM.extab)
    .extab._ZN7TPtrC163SetERK7TDesC16        0x00011fdc   Data           0  cntsymbiansimengine.o(.ARM.extab)
    .extab._ZNK10QtMobility8QContact7detailsINS_19QContactPhoneNumberEEE5QListIT_Ev 0x00011fec   Data           0  cntsymbiansimengine.o(.ARM.extab)
    .extab._ZN11CntSimStoreC1EP19CntSymbianSimEngine7QStringPN10QtMobility15QContactManager5ErrorE 0x00012014   Data           0  cntsimstore.o(.ARM.extab)
    .extab._ZN11CntSimStoreD1Ev              0x0001205c   Data           0  cntsimstore.o(.ARM.extab)
    .extab._Z24qMetaTypeConstructHelperIN10QtMobility8QContactEEPvPKT_ 0x0001206c   Data           0  cntsimstore.o(.ARM.extab)
    .extab._Z24qMetaTypeConstructHelperI5QListIN10QtMobility8QContactEEEPvPKT_ 0x00012084   Data           0  cntsimstore.o(.ARM.extab)
    .extab._Z24qMetaTypeConstructHelperI5QListIiEEPvPKT_ 0x0001209c   Data           0  cntsimstore.o(.ARM.extab)
    .extab._ZN20CStoreInfoDispatcherD1Ev     0x000120b4   Data           0  cntsimstoreprivate.o(.ARM.extab)
    .extab._ZN18CntSimStorePrivate17convertStoreNameLER6TDes16 0x000120c4   Data           0  cntsimstoreprivate.o(.ARM.extab)
    .extab._ZN18CntSimStorePrivateC1ER19CntSymbianSimEngineR11CntSimStoreRK7QString 0x000120d4   Data           0  cntsimstoreprivate.o(.ARM.extab)
    .extab._ZN18CntSimStorePrivateD1Ev       0x0001210c   Data           0  cntsimstoreprivate.o(.ARM.extab)
    .extab._ZN18CntSimStorePrivate4readEiiPN10QtMobility15QContactManager5ErrorE 0x00012134   Data           0  cntsimstoreprivate.o(.ARM.extab)
    .extab._ZNK18CntSimStorePrivate17encodeSimContactLEPN10QtMobility8QContactER5TDes8 0x000121c4   Data           0  cntsimstoreprivate.o(.ARM.extab)
    .extab._ZN18CntSimStorePrivate5writeERKN10QtMobility8QContactEPNS0_15QContactManager5ErrorE 0x0001232c   Data           0  cntsimstoreprivate.o(.ARM.extab)
    .extab._ZNK18CntSimStorePrivate20decodeReservedSlotsLER5TDes8 0x0001237c   Data           0  cntsimstoreprivate.o(.ARM.extab)
    .extab._ZNK18CntSimStorePrivate18decodeSimContactsLER5TDes8 0x0001238c   Data           0  cntsimstoreprivate.o(.ARM.extab)
    .extab._ZN18CntSimStorePrivate4RunLEv    0x000124bc   Data           0  cntsimstoreprivate.o(.ARM.extab)
    .extab._ZN18CntSimStorePrivate8RunErrorEi 0x000125ac   Data           0  cntsimstoreprivate.o(.ARM.extab)
    .extab._ZN18CntSimStorePrivate6writeLEPN10QtMobility8QContactE 0x000125cc   Data           0  cntsimstoreprivate.o(.ARM.extab)
    .extab._ZN5QListIN10QtMobility14QContactDetailEE13detach_helperEi 0x000125f4   Data           0  cntsimstoreprivate.o(.ARM.extab)
    .extab._ZN5QListIN10QtMobility8QContactEE9node_copyEPNS2_4NodeES4_S4_ 0x00012638   Data           0  cntsimstoreprivate.o(.ARM.extab)
    .extab._ZN5QListIN10QtMobility8QContactEE13detach_helperEi 0x0001265c   Data           0  cntsimstoreprivate.o(.ARM.extab)
    .extab._ZN5QListIN10QtMobility8QContactEE14node_constructEPNS2_4NodeERKS1_ 0x00012678   Data           0  cntsimstoreprivate.o(.ARM.extab)
    .extab._ZN5QListIN10QtMobility8QContactEE18detach_helper_growEii 0x00012688   Data           0  cntsimstoreprivate.o(.ARM.extab)
    .extab._ZN5QListIN10QtMobility8QContactEE6appendERKS1_ 0x000126b8   Data           0  cntsimstoreprivate.o(.ARM.extab)
    .extab._ZN10QtMobility19QContactPhoneNumber9setNumberERK7QString 0x000126e8   Data           0  cntsimstoreprivate.o(.ARM.extab)
    .extab._ZN10QtMobility12QContactName14setCustomLabelERK7QString 0x000126f8   Data           0  cntsimstoreprivate.o(.ARM.extab)
    .extab._ZN5QListIiE13detach_helperEi     0x00012708   Data           0  cntsimstoreprivate.o(.ARM.extab)
    .extab._ZN5QListIiE18detach_helper_growEii 0x00012724   Data           0  cntsimstoreprivate.o(.ARM.extab)
    .extab._ZN5QListIiE6appendERKi           0x00012754   Data           0  cntsimstoreprivate.o(.ARM.extab)
    .extab._ZN10QtMobility18QContactSyncTarget13setSyncTargetERK7QString 0x00012770   Data           0  cntsimstoreprivate.o(.ARM.extab)
    .extab._ZN24CntSimStoreEventListenerC1ER19CntSymbianSimEngineR17RMobilePhoneStore 0x00012780   Data           0  cntsimstoreeventlistener.o(.ARM.extab)
    .extab._ZN24CntSimStoreEventListenerD1Ev 0x00012790   Data           0  cntsimstoreeventlistener.o(.ARM.extab)
    .extab._ZN24CntSimStoreEventListener4RunLEv 0x000127a0   Data           0  cntsimstoreeventlistener.o(.ARM.extab)
    .extab._Z8qWarningv                      0x000127c0   Data           0  cntsimstoreeventlistener.o(.ARM.extab)
    .extab._ZN6QDebugD1Ev                    0x000127d8   Data           0  cntsimstoreeventlistener.o(.ARM.extab)
    .extab._ZN21CntAbstractSimRequest15singleShotTimerEiP7QObjectPKc 0x000127fc   Data           0  cntabstractsimrequest.o(.ARM.extab)
    .extab._ZN25CntSimContactFetchRequestC1EP19CntSymbianSimEnginePN10QtMobility20QContactFetchRequestE 0x0001280c   Data           0  cntsimcontactfetchrequest.o(.ARM.extab)
    .extab._ZN25CntSimContactFetchRequestD1Ev 0x0001281c   Data           0  cntsimcontactfetchrequest.o(.ARM.extab)
    .extab._ZN25CntSimContactFetchRequest3runEv 0x0001282c   Data           0  cntsimcontactfetchrequest.o(.ARM.extab)
    .extab._ZN25CntSimContactFetchRequest12readCompleteE5QListIN10QtMobility8QContactEENS1_15QContactManager5ErrorE 0x0001288c   Data           0  cntsimcontactfetchrequest.o(.ARM.extab)
    .extab._ZN32CntSimContactLocalIdFetchRequestC1EP19CntSymbianSimEnginePN10QtMobility27QContactLocalIdFetchRequestE 0x000128bc   Data           0  cntsimcontactlocalidfetchrequest.o(.ARM.extab)
    .extab._ZN32CntSimContactLocalIdFetchRequestD1Ev 0x000128cc   Data           0  cntsimcontactlocalidfetchrequest.o(.ARM.extab)
    .extab._ZN32CntSimContactLocalIdFetchRequest3runEv 0x000128dc   Data           0  cntsimcontactlocalidfetchrequest.o(.ARM.extab)
    .extab._ZN32CntSimContactLocalIdFetchRequest12readCompleteE5QListIN10QtMobility8QContactEENS1_15QContactManager5ErrorE 0x000128ec   Data           0  cntsimcontactlocalidfetchrequest.o(.ARM.extab)
    .extab._ZN26CntSimContactRemoveRequestC1EP19CntSymbianSimEnginePN10QtMobility21QContactRemoveRequestE 0x0001292c   Data           0  cntsimcontactremoverequest.o(.ARM.extab)
    .extab._ZN26CntSimContactRemoveRequestD1Ev 0x00012954   Data           0  cntsimcontactremoverequest.o(.ARM.extab)
    .extab._ZN26CntSimContactRemoveRequest3runEv 0x0001297c   Data           0  cntsimcontactremoverequest.o(.ARM.extab)
    .extab._ZN5QListIiE5clearEv              0x00012994   Data           0  cntsimcontactremoverequest.o(.ARM.extab)
    .extab._ZN4QMapIiN10QtMobility15QContactManager5ErrorEE13detach_helperEv 0x000129a4   Data           0  cntsimcontactremoverequest.o(.ARM.extab)
    .extab._ZN5QListIjE13detach_helperEi     0x000129c0   Data           0  cntsimcontactremoverequest.o(.ARM.extab)
    .extab._ZN24CntSimContactSaveRequestC1EP19CntSymbianSimEnginePN10QtMobility19QContactSaveRequestE 0x000129dc   Data           0  cntsimcontactsaverequest.o(.ARM.extab)
    .extab._ZN24CntSimContactSaveRequestD1Ev 0x000129fc   Data           0  cntsimcontactsaverequest.o(.ARM.extab)
    .extab._ZN24CntSimContactSaveRequest9writeNextEv 0x00012a1c   Data           0  cntsimcontactsaverequest.o(.ARM.extab)
    .extab._ZN24CntSimContactSaveRequest3runEv 0x00012a34   Data           0  cntsimcontactsaverequest.o(.ARM.extab)
    .extab._ZN34CntSimDetailDefinitionFetchRequestD1Ev 0x00012a4c   Data           0  cntsimdetaildefinitionfetchrequest.o(.ARM.extab)
    .extab._ZN34CntSimDetailDefinitionFetchRequest3runEv 0x00012a5c   Data           0  cntsimdetaildefinitionfetchrequest.o(.ARM.extab)
    .constdata$1                             0x00012aec   Data           0  moc_cntsymbiansimengine.o(.constdata)
    qt_meta_data_CntSymbianSimEngine         0x00012aec   Data          60  moc_cntsymbiansimengine.o(.constdata)
    .constdata                               0x00012aec   Section      200  moc_cntsymbiansimengine.o(.constdata)
    qt_meta_stringdata_CntSymbianSimEngine   0x00012b28   Data          21  moc_cntsymbiansimengine.o(.constdata)
    qt_meta_data_CntSymbianSimFactory        0x00012b40   Data          60  moc_cntsymbiansimengine.o(.constdata)
    qt_meta_stringdata_CntSymbianSimFactory  0x00012b7c   Data          22  moc_cntsymbiansimengine.o(.constdata)
    .constdata$1                             0x00012bb4   Data           0  moc_cntsimstore.o(.constdata)
    qt_meta_data_CntSimStore                 0x00012bb4   Data         140  moc_cntsimstore.o(.constdata)
    .constdata                               0x00012bb4   Section      412  moc_cntsimstore.o(.constdata)
    qt_meta_stringdata_CntSimStore           0x00012c40   Data         254  moc_cntsimstore.o(.constdata)
    .constdata$1                             0x00012d50   Data           0  moc_cntabstractsimrequest.o(.constdata)
    qt_meta_data_CntAbstractSimRequest       0x00012d50   Data         100  moc_cntabstractsimrequest.o(.constdata)
    .constdata                               0x00012d50   Section      160  moc_cntabstractsimrequest.o(.constdata)
    qt_meta_stringdata_CntAbstractSimRequest 0x00012db4   Data          44  moc_cntabstractsimrequest.o(.constdata)
    .constdata$1                             0x00012df0   Data           0  moc_cntsimcontactfetchrequest.o(.constdata)
    qt_meta_data_CntSimContactFetchRequest   0x00012df0   Data         100  moc_cntsimcontactfetchrequest.o(.constdata)
    .constdata                               0x00012df0   Section      220  moc_cntsimcontactfetchrequest.o(.constdata)
    qt_meta_stringdata_CntSimContactFetchRequest 0x00012e54   Data         102  moc_cntsimcontactfetchrequest.o(.constdata)
    .constdata$1                             0x00012ecc   Data           0  moc_cntsimcontactlocalidfetchrequest.o(.constdata)
    qt_meta_data_CntSimContactLocalIdFetchRequest 0x00012ecc   Data         100  moc_cntsimcontactlocalidfetchrequest.o(.constdata)
    .constdata                               0x00012ecc   Section      228  moc_cntsimcontactlocalidfetchrequest.o(.constdata)
    qt_meta_stringdata_CntSimContactLocalIdFetchRequest 0x00012f30   Data         109  moc_cntsimcontactlocalidfetchrequest.o(.constdata)
    .constdata$1                             0x00012fb0   Data           0  moc_cntsimcontactremoverequest.o(.constdata)
    qt_meta_data_CntSimContactRemoveRequest  0x00012fb0   Data         160  moc_cntsimcontactremoverequest.o(.constdata)
    .constdata                               0x00012fb0   Section      368  moc_cntsimcontactremoverequest.o(.constdata)
    qt_meta_stringdata_CntSimContactRemoveRequest 0x00013050   Data         192  moc_cntsimcontactremoverequest.o(.constdata)
    .constdata$1                             0x00013120   Data           0  moc_cntsimcontactsaverequest.o(.constdata)
    qt_meta_data_CntSimContactSaveRequest    0x00013120   Data         120  moc_cntsimcontactsaverequest.o(.constdata)
    .constdata                               0x00013120   Section      244  moc_cntsimcontactsaverequest.o(.constdata)
    qt_meta_stringdata_CntSimContactSaveRequest 0x00013198   Data         106  moc_cntsimcontactsaverequest.o(.constdata)
    .constdata$1                             0x00013214   Data           0  moc_cntsimdetaildefinitionfetchrequest.o(.constdata)
    qt_meta_data_CntSimDetailDefinitionFetchRequest 0x00013214   Data          80  moc_cntsimdetaildefinitionfetchrequest.o(.constdata)
    .constdata                               0x00013214   Section      140  moc_cntsimdetaildefinitionfetchrequest.o(.constdata)
    qt_meta_stringdata_CntSimDetailDefinitionFetchRequest 0x00013264   Data          43  moc_cntsimdetaildefinitionfetchrequest.o(.constdata)
    .constdata$1                             0x000132a0   Data           0  cntsymbiansimengine.o(.constdata)
    KSimSyncTarget                           0x000132a0   Data           4  cntsymbiansimengine.o(.constdata)
    .constdata                               0x000132a0   Section      148  cntsymbiansimengine.o(.constdata)
    KParameterKeySimStoreName                0x000132a4   Data           6  cntsymbiansimengine.o(.constdata)
    KParameterValueSimStoreNameSdn           0x000132aa   Data           4  cntsymbiansimengine.o(.constdata)
    KCRUidTelConfiguration                   0x000132b0   Data           4  cntsymbiansimengine.o(.constdata)
    qt_plugin_verification_data              0x000132b4   Data          91  cntsymbiansimengine.o(.constdata)
    KOneZeroPattern@_ZN32CntSymbianSimPhoneNumberMatching24formatAndCheckNumberTypeER6TDes16_0 0x00013310   Data          12  cntsymbiansimengine.o(.constdata)
    KTwoZerosPattern@_ZN32CntSymbianSimPhoneNumberMatching24formatAndCheckNumberTypeER6TDes16_1 0x0001331c   Data          12  cntsymbiansimengine.o(.constdata)
    KPlusPattern@_ZN32CntSymbianSimPhoneNumberMatching24formatAndCheckNumberTypeER6TDes16_2 0x00013328   Data          12  cntsymbiansimengine.o(.constdata)
    .constdata$1                             0x00013334   Data           0  cntsimstoreprivate.o(.constdata)
    KETelIccAdnPhoneBook                     0x00013334   Data          12  cntsimstoreprivate.o(.constdata)
    .constdata                               0x00013334   Section      284  cntsimstoreprivate.o(.constdata)
    KETelIccFdnPhoneBook                     0x00013340   Data          12  cntsimstoreprivate.o(.constdata)
    KETelIccSdnPhoneBook                     0x0001334c   Data          12  cntsimstoreprivate.o(.constdata)
    KETelOwnNumberStore                      0x00013358   Data          12  cntsimstoreprivate.o(.constdata)
    KSimSyncTarget                           0x00013364   Data           4  cntsimstoreprivate.o(.constdata)
    KParameterValueSimStoreNameAdn           0x00013368   Data           4  cntsimstoreprivate.o(.constdata)
    KParameterValueSimStoreNameSdn           0x0001336c   Data           4  cntsimstoreprivate.o(.constdata)
    KParameterValueSimStoreNameFdn           0x00013370   Data           4  cntsimstoreprivate.o(.constdata)
    KParameterValueSimStoreNameOn            0x00013374   Data           3  cntsimstoreprivate.o(.constdata)
    KMmTsyModuleName                         0x00013378   Data          24  cntsimstoreprivate.o(.constdata)
    .constdata__ZN9stlp_priv15_Integer_limitsIaLan128ELa127ELin1ELb1EE6digitsE 0x00013450   Section        4  moc_cntsymbiansimengine.o(.constdata__ZN9stlp_priv15_Integer_limitsIaLan128ELa127ELin1ELb1EE6digitsE)
    .constdata__ZN9stlp_priv15_Integer_limitsIbLb0ELb1ELi1ELb0EE6digitsE 0x00013454   Section        4  moc_cntsymbiansimengine.o(.constdata__ZN9stlp_priv15_Integer_limitsIbLb0ELb1ELi1ELb0EE6digitsE)
    .constdata__ZN9stlp_priv15_Integer_limitsIcLc128ELc127ELin1ELb1EE6digitsE 0x00013458   Section        4  moc_cntsymbiansimengine.o(.constdata__ZN9stlp_priv15_Integer_limitsIcLc128ELc127ELin1ELb1EE6digitsE)
    .constdata__ZN9stlp_priv15_Integer_limitsIhLh0ELh255ELin1ELb1EE6digitsE 0x0001345c   Section        4  moc_cntsymbiansimengine.o(.constdata__ZN9stlp_priv15_Integer_limitsIhLh0ELh255ELin1ELb1EE6digitsE)
    .constdata__ZN9stlp_priv15_Integer_limitsIiLin2147483648ELi2147483647ELin1ELb1EE6digitsE 0x00013460   Section        4  moc_cntsymbiansimengine.o(.constdata__ZN9stlp_priv15_Integer_limitsIiLin2147483648ELi2147483647ELin1ELb1EE6digitsE)
    .constdata__ZN9stlp_priv15_Integer_limitsIiLin2147483648ELi2147483647ELin1ELb1EE9is_signedE 0x00013464   Section        1  moc_cntsymbiansimengine.o(.constdata__ZN9stlp_priv15_Integer_limitsIiLin2147483648ELi2147483647ELin1ELb1EE9is_signedE)
    .constdata__ZN9stlp_priv15_Integer_limitsIjLj0ELj4294967295ELin1ELb1EE6digitsE 0x00013468   Section        4  moc_cntsymbiansimengine.o(.constdata__ZN9stlp_priv15_Integer_limitsIjLj0ELj4294967295ELin1ELb1EE6digitsE)
    .constdata__ZN9stlp_priv15_Integer_limitsIlLln2147483648ELl2147483647ELin1ELb1EE6digitsE 0x0001346c   Section        4  moc_cntsymbiansimengine.o(.constdata__ZN9stlp_priv15_Integer_limitsIlLln2147483648ELl2147483647ELin1ELb1EE6digitsE)
    .constdata__ZN9stlp_priv15_Integer_limitsImLm0ELm4294967295ELin1ELb1EE6digitsE 0x00013470   Section        4  moc_cntsymbiansimengine.o(.constdata__ZN9stlp_priv15_Integer_limitsImLm0ELm4294967295ELin1ELb1EE6digitsE)
    .constdata__ZN9stlp_priv15_Integer_limitsIsLsn32768ELs32767ELin1ELb1EE6digitsE 0x00013474   Section        4  moc_cntsymbiansimengine.o(.constdata__ZN9stlp_priv15_Integer_limitsIsLsn32768ELs32767ELin1ELb1EE6digitsE)
    .constdata__ZN9stlp_priv15_Integer_limitsItLt0ELt65535ELin1ELb1EE6digitsE 0x00013478   Section        4  moc_cntsymbiansimengine.o(.constdata__ZN9stlp_priv15_Integer_limitsItLt0ELt65535ELin1ELb1EE6digitsE)
    .constdata__ZN9stlp_priv15_Integer_limitsIwLw0ELw65535ELin1ELb1EE6digitsE 0x0001347c   Section        4  moc_cntsymbiansimengine.o(.constdata__ZN9stlp_priv15_Integer_limitsIwLw0ELw65535ELin1ELb1EE6digitsE)
    .constdata__ZN9stlp_priv15_Integer_limitsIxLxn9223372036854775808ELx9223372036854775807ELin1ELb1EE6digitsE 0x00013480   Section        4  moc_cntsymbiansimengine.o(.constdata__ZN9stlp_priv15_Integer_limitsIxLxn9223372036854775808ELx9223372036854775807ELin1ELb1EE6digitsE)
    .constdata__ZN9stlp_priv15_Integer_limitsIyLy0ELy18446744073709551615ELin1ELb1EE6digitsE 0x00013484   Section        4  moc_cntsymbiansimengine.o(.constdata__ZN9stlp_priv15_Integer_limitsIyLy0ELy18446744073709551615ELin1ELb1EE6digitsE)
    .constdata__ZTI11CntSimStore             0x00013488   Section       12  moc_cntsimstore.o(.constdata__ZTI11CntSimStore)
    .constdata__ZTI16CDispatcherTimer        0x00013494   Section       12  cntsimstoreprivate.o(.constdata__ZTI16CDispatcherTimer)
    .constdata__ZTI18CntSimStorePrivate      0x000134a0   Section       12  cntsimstoreprivate.o(.constdata__ZTI18CntSimStorePrivate)
    .constdata__ZTI18MDispatcherTimeOut      0x000134ac   Section        8  cntsimstoreprivate.o(.constdata__ZTI18MDispatcherTimeOut)
    .constdata__ZTI19CntSymbianSimEngine     0x000134b4   Section       12  moc_cntsymbiansimengine.o(.constdata__ZTI19CntSymbianSimEngine)
    .constdata__ZTI20CStoreInfoDispatcher    0x000134c0   Section       32  cntsimstoreprivate.o(.constdata__ZTI20CStoreInfoDispatcher)
    .constdata__ZTI20CntSymbianSimFactory    0x000134e0   Section       32  moc_cntsymbiansimengine.o(.constdata__ZTI20CntSymbianSimFactory)
    .constdata__ZTI21CntAbstractSimRequest   0x00013500   Section       12  moc_cntabstractsimrequest.o(.constdata__ZTI21CntAbstractSimRequest)
    .constdata__ZTI24CntSimContactSaveRequest 0x0001350c   Section       12  moc_cntsimcontactsaverequest.o(.constdata__ZTI24CntSimContactSaveRequest)
    .constdata__ZTI24CntSimStoreEventListener 0x00013518   Section       12  cntsimstoreeventlistener.o(.constdata__ZTI24CntSimStoreEventListener)
    .constdata__ZTI25CntSimContactFetchRequest 0x00013524   Section       12  moc_cntsimcontactfetchrequest.o(.constdata__ZTI25CntSimContactFetchRequest)
    .constdata__ZTI26CntSimContactRemoveRequest 0x00013530   Section       12  moc_cntsimcontactremoverequest.o(.constdata__ZTI26CntSimContactRemoveRequest)
    .constdata__ZTI32CntSimContactLocalIdFetchRequest 0x0001353c   Section       12  moc_cntsimcontactlocalidfetchrequest.o(.constdata__ZTI32CntSimContactLocalIdFetchRequest)
    .constdata__ZTI34CntSimDetailDefinitionFetchRequest 0x00013548   Section       12  moc_cntsimdetaildefinitionfetchrequest.o(.constdata__ZTI34CntSimDetailDefinitionFetchRequest)
    .constdata__ZTS11CntSimStore             0x00013554   Section       14  moc_cntsimstore.o(.constdata__ZTS11CntSimStore)
    .constdata__ZTS16CDispatcherTimer        0x00013562   Section       19  cntsimstoreprivate.o(.constdata__ZTS16CDispatcherTimer)
    .constdata__ZTS18CntSimStorePrivate      0x00013575   Section       21  cntsimstoreprivate.o(.constdata__ZTS18CntSimStorePrivate)
    .constdata__ZTS18MDispatcherTimeOut      0x0001358a   Section       21  cntsimstoreprivate.o(.constdata__ZTS18MDispatcherTimeOut)
    .constdata__ZTS19CntSymbianSimEngine     0x0001359f   Section       22  moc_cntsymbiansimengine.o(.constdata__ZTS19CntSymbianSimEngine)
    .constdata__ZTS20CStoreInfoDispatcher    0x000135b5   Section       23  cntsimstoreprivate.o(.constdata__ZTS20CStoreInfoDispatcher)
    .constdata__ZTS20CntSymbianSimFactory    0x000135cc   Section       23  moc_cntsymbiansimengine.o(.constdata__ZTS20CntSymbianSimFactory)
    .constdata__ZTS21CntAbstractSimRequest   0x000135e3   Section       24  moc_cntabstractsimrequest.o(.constdata__ZTS21CntAbstractSimRequest)
    .constdata__ZTS24CntSimContactSaveRequest 0x000135fb   Section       27  moc_cntsimcontactsaverequest.o(.constdata__ZTS24CntSimContactSaveRequest)
    .constdata__ZTS24CntSimStoreEventListener 0x00013616   Section       27  cntsimstoreeventlistener.o(.constdata__ZTS24CntSimStoreEventListener)
    .constdata__ZTS25CntSimContactFetchRequest 0x00013631   Section       28  moc_cntsimcontactfetchrequest.o(.constdata__ZTS25CntSimContactFetchRequest)
    .constdata__ZTS26CntSimContactRemoveRequest 0x0001364d   Section       29  moc_cntsimcontactremoverequest.o(.constdata__ZTS26CntSimContactRemoveRequest)
    .constdata__ZTS32CntSimContactLocalIdFetchRequest 0x0001366a   Section       35  moc_cntsimcontactlocalidfetchrequest.o(.constdata__ZTS32CntSimContactLocalIdFetchRequest)
    .constdata__ZTS34CntSimDetailDefinitionFetchRequest 0x0001368d   Section       37  moc_cntsimdetaildefinitionfetchrequest.o(.constdata__ZTS34CntSimDetailDefinitionFetchRequest)
    .constdata__ZTV11CntSimStore             0x000136b4   Section       56  moc_cntsimstore.o(.constdata__ZTV11CntSimStore)
    .constdata__ZTV16CDispatcherTimer        0x000136ec   Section       32  cntsimstoreprivate.o(.constdata__ZTV16CDispatcherTimer)
    .constdata__ZTV18CntSimStorePrivate      0x0001370c   Section       32  cntsimstoreprivate.o(.constdata__ZTV18CntSimStorePrivate)
    .constdata__ZTV18MDispatcherTimeOut      0x0001372c   Section       12  cntsimstoreprivate.o(.constdata__ZTV18MDispatcherTimeOut)
    .constdata__ZTV19CntSymbianSimEngine     0x00013738   Section      192  moc_cntsymbiansimengine.o(.constdata__ZTV19CntSymbianSimEngine)
    .constdata__ZTV20CStoreInfoDispatcher    0x000137f8   Section       48  cntsimstoreprivate.o(.constdata__ZTV20CStoreInfoDispatcher)
    .constdata__ZTV20CntSymbianSimFactory    0x00013828   Section       92  moc_cntsymbiansimengine.o(.constdata__ZTV20CntSymbianSimFactory)
    .constdata__ZTV21CntAbstractSimRequest   0x00013884   Section       64  moc_cntabstractsimrequest.o(.constdata__ZTV21CntAbstractSimRequest)
    .constdata__ZTV24CntSimContactSaveRequest 0x000138c4   Section       64  moc_cntsimcontactsaverequest.o(.constdata__ZTV24CntSimContactSaveRequest)
    .constdata__ZTV24CntSimStoreEventListener 0x00013904   Section       32  cntsimstoreeventlistener.o(.constdata__ZTV24CntSimStoreEventListener)
    .constdata__ZTV25CntSimContactFetchRequest 0x00013924   Section       64  moc_cntsimcontactfetchrequest.o(.constdata__ZTV25CntSimContactFetchRequest)
    .constdata__ZTV26CntSimContactRemoveRequest 0x00013964   Section       64  moc_cntsimcontactremoverequest.o(.constdata__ZTV26CntSimContactRemoveRequest)
    .constdata__ZTV32CntSimContactLocalIdFetchRequest 0x000139a4   Section       64  moc_cntsimcontactlocalidfetchrequest.o(.constdata__ZTV32CntSimContactLocalIdFetchRequest)
    .constdata__ZTV34CntSimDetailDefinitionFetchRequest 0x000139e4   Section       64  moc_cntsimdetaildefinitionfetchrequest.o(.constdata__ZTV34CntSimDetailDefinitionFetchRequest)
    .ARM.exidx                               0x00013a24   Section        8  ucppinit.o(.ARM.exidx)
    .data$0                                  0x00400000   Data           0  cntsymbiansimengine.o(.data)
    _ZGV_instance@qt_plugin_instance_0       0x00400000   Data           4  cntsymbiansimengine.o(.data)
    .data                                    0x00400000   Section        8  cntsymbiansimengine.o(.data)
    _instance@qt_plugin_instance_1           0x00400004   Data           4  cntsymbiansimengine.o(.data)
    .data$0                                  0x00400008   Data           0  ucppfini.o(.data)
    .data                                    0x00400008   Section        4  ucppfini.o(.data)
    .data__ZNSt19_Atomic_swap_structILi1EE12_S_swap_lockE 0x0040000c   Section       12  moc_cntsymbiansimengine.o(.data__ZNSt19_Atomic_swap_structILi1EE12_S_swap_lockE)
    .bss$5                                   0x00400018   Data           0  ucppfini.o(.bss)
    .bss                                     0x00400018   Section     2048  ucppfini.o(.bss)

    Global Symbols

    Symbol Name                              Value     Ov Type        Size  Object(Section)

    BuildAttributes$$THUMB_ISAv2$ARM_ISAv5$M$VFPv2$PE$A:L22$X:L11$S22$IEEE1$IW$USESV6$~STKCKD$USESV7$~SHL$OSPACE$ROPI$IEEEJ$EBA8$UX$FPIC$INDIRECT$REQ8$PRES8$EABIv2 0x00000000   Number         0  anon$$obj.o ABSOLUTE
    QtContacts{00010103}[2002ac7a].dll       0x00000000   Data           0  anon$$obj.o ABSOLUTE
    QtCore{00040703}[2001b2dc].dll           0x00000000   Data           0  anon$$obj.o ABSOLUTE
    centralrepository{000a0000}[101fbc70].dll 0x00000000   Data           0  anon$$obj.o ABSOLUTE
    drtaeabi{000a0000}.dll                   0x00000000   Data           0  anon$$obj.o ABSOLUTE
    etelmm{000a0000}[100064dd].dll           0x00000000   Data           0  anon$$obj.o ABSOLUTE
    etel{000a0000}[10003d46].dll             0x00000000   Data           0  anon$$obj.o ABSOLUTE
    euser{000a0000}[100039e5].dll            0x00000000   Data           0  anon$$obj.o ABSOLUTE
    libc{00010001}[10207369].dll             0x00000000   Data           0  anon$$obj.o ABSOLUTE
    qtcontacts_symbiansim{000a0000}[2002ac85].dll 0x00000000   Data           0  anon$$obj.o ABSOLUTE
    stdnew{000a0000}[20022178].dll           0x00000000   Data           0  anon$$obj.o ABSOLUTE
    SHT$$INIT_ARRAY$$Base                     - Undefined Weak Reference
    SHT$$INIT_ARRAY$$Limit                    - Undefined Weak Reference
    qt_message_output(QtMsgType, const char*)  - Undefined Reference
    _Z17qt_message_output9QtMsgTypePKc@QtCore{00040703}[2001b2dc].dll  - Undefined Reference
    qFree(void*)                              - Undefined Reference
    _Z5qFreePv@QtCore{00040703}[2001b2dc].dll  - Undefined Reference
    qWarning(const char*, ...)                - Undefined Reference
    _Z8qWarningPKcz@QtCore{00040703}[2001b2dc].dll  - Undefined Reference
    QByteArray::realloc(int)                  - Undefined Reference
    _ZN10QByteArray7reallocEi@QtCore{00040703}[2001b2dc].dll  - Undefined Reference
    QEventLoop::exec(QFlags<QEventLoop::ProcessEventsFlag>)  - Undefined Reference
    _ZN10QEventLoop4execE6QFlagsINS_17ProcessEventsFlagEE@QtCore{00040703}[2001b2dc].dll  - Undefined Reference
    QEventLoop::QEventLoop(QObject*)          - Undefined Reference
    _ZN10QEventLoopC1EP7QObject@QtCore{00040703}[2001b2dc].dll  - Undefined Reference
    QtMobility::QContactId::setLocalId(const unsigned&)  - Undefined Reference
    _ZN10QtMobility10QContactId10setLocalIdERKj@QtContacts{00010103}[2002ac7a].dll  - Undefined Reference
    QtMobility::QContactId::setManagerUri(const QString&)  - Undefined Reference
    _ZN10QtMobility10QContactId13setManagerUriERK7QString@QtContacts{00010103}[2002ac7a].dll  - Undefined Reference
    QtMobility::QContactId::QContactId()      - Undefined Reference
    _ZN10QtMobility10QContactIdC1Ev@QtContacts{00010103}[2002ac7a].dll  - Undefined Reference
    QtMobility::QContactId::~QContactId()     - Undefined Reference
    _ZN10QtMobility10QContactIdD1Ev@QtContacts{00010103}[2002ac7a].dll  - Undefined Reference
    QtMobility::QContactName::DefinitionName  - Undefined Reference
    _ZN10QtMobility12QContactName14DefinitionNameE@QtContacts{00010103}[2002ac7a].dll  - Undefined Reference
    QtMobility::QContactName::FieldCustomLabel  - Undefined Reference
    _ZN10QtMobility12QContactName16FieldCustomLabelE@QtContacts{00010103}[2002ac7a].dll  - Undefined Reference
    QtMobility::QContactType::TypeContact     - Undefined Reference
    _ZN10QtMobility12QContactType11TypeContactE@QtContacts{00010103}[2002ac7a].dll  - Undefined Reference
    QtMobility::QContactType::DefinitionName  - Undefined Reference
    _ZN10QtMobility12QContactType14DefinitionNameE@QtContacts{00010103}[2002ac7a].dll  - Undefined Reference
    QtMobility::QContactType::FieldType       - Undefined Reference
    _ZN10QtMobility12QContactType9FieldTypeE@QtContacts{00010103}[2002ac7a].dll  - Undefined Reference
    QtMobility::QContactDetail::setValue(const char*, const QVariant&)  - Undefined Reference
    _ZN10QtMobility14QContactDetail8setValueEPKcRK8QVariant@QtContacts{00010103}[2002ac7a].dll  - Undefined Reference
    QtMobility::QContactDetail::QContactDetail(const char*)  - Undefined Reference
    _ZN10QtMobility14QContactDetailC1EPKc@QtContacts{00010103}[2002ac7a].dll  - Undefined Reference
    QtMobility::QContactDetail::QContactDetail(const QtMobility::QContactDetail&)  - Undefined Reference
    _ZN10QtMobility14QContactDetailC1ERKS0_@QtContacts{00010103}[2002ac7a].dll  - Undefined Reference
    QtMobility::QContactDetail::QContactDetail(const QtMobility::QContactDetail&, const char*)  - Undefined Reference
    _ZN10QtMobility14QContactDetailC1ERKS0_PKc@QtContacts{00010103}[2002ac7a].dll  - Undefined Reference
    QtMobility::QContactDetail::~QContactDetail()  - Undefined Reference
    _ZN10QtMobility14QContactDetailD1Ev@QtContacts{00010103}[2002ac7a].dll  - Undefined Reference
    QtMobility::QContactFilter::~QContactFilter()  - Undefined Reference
    _ZN10QtMobility14QContactFilterD1Ev@QtContacts{00010103}[2002ac7a].dll  - Undefined Reference
    QtMobility::QContactFilter::operator =(const QtMobility::QContactFilter&)  - Undefined Reference
    _ZN10QtMobility14QContactFilteraSERKS0_@QtContacts{00010103}[2002ac7a].dll  - Undefined Reference
    QtMobility::QContactNickname::FieldNickname  - Undefined Reference
    _ZN10QtMobility16QContactNickname13FieldNicknameE@QtContacts{00010103}[2002ac7a].dll  - Undefined Reference
    QtMobility::QContactNickname::DefinitionName  - Undefined Reference
    _ZN10QtMobility16QContactNickname14DefinitionNameE@QtContacts{00010103}[2002ac7a].dll  - Undefined Reference
    QtMobility::QContactChangeSet::emitSignals(QtMobility::QContactManagerEngine*)  - Undefined Reference
    _ZN10QtMobility17QContactChangeSet11emitSignalsEPNS_21QContactManagerEngineE@QtContacts{00010103}[2002ac7a].dll  - Undefined Reference
    QtMobility::QContactChangeSet::setDataChanged(bool)  - Undefined Reference
    _ZN10QtMobility17QContactChangeSet14setDataChangedEb@QtContacts{00010103}[2002ac7a].dll  - Undefined Reference
    QtMobility::QContactChangeSet::insertAddedContact(unsigned)  - Undefined Reference
    _ZN10QtMobility17QContactChangeSet18insertAddedContactEj@QtContacts{00010103}[2002ac7a].dll  - Undefined Reference
    QtMobility::QContactChangeSet::insertChangedContact(unsigned)  - Undefined Reference
    _ZN10QtMobility17QContactChangeSet20insertChangedContactEj@QtContacts{00010103}[2002ac7a].dll  - Undefined Reference
    QtMobility::QContactChangeSet::insertRemovedContact(unsigned)  - Undefined Reference
    _ZN10QtMobility17QContactChangeSet20insertRemovedContactEj@QtContacts{00010103}[2002ac7a].dll  - Undefined Reference
    QtMobility::QContactChangeSet::QContactChangeSet()  - Undefined Reference
    _ZN10QtMobility17QContactChangeSetC1Ev@QtContacts{00010103}[2002ac7a].dll  - Undefined Reference
    QtMobility::QContactChangeSet::~QContactChangeSet()  - Undefined Reference
    _ZN10QtMobility17QContactChangeSetD1Ev@QtContacts{00010103}[2002ac7a].dll  - Undefined Reference
    QtMobility::QContactSortOrder::~QContactSortOrder()  - Undefined Reference
    _ZN10QtMobility17QContactSortOrderD1Ev@QtContacts{00010103}[2002ac7a].dll  - Undefined Reference
    QtMobility::QContactSyncTarget::DefinitionName  - Undefined Reference
    _ZN10QtMobility18QContactSyncTarget14DefinitionNameE@QtContacts{00010103}[2002ac7a].dll  - Undefined Reference
    QtMobility::QContactSyncTarget::FieldSyncTarget  - Undefined Reference
    _ZN10QtMobility18QContactSyncTarget15FieldSyncTargetE@QtContacts{00010103}[2002ac7a].dll  - Undefined Reference
    QtMobility::QContactPhoneNumber::FieldNumber  - Undefined Reference
    _ZN10QtMobility19QContactPhoneNumber11FieldNumberE@QtContacts{00010103}[2002ac7a].dll  - Undefined Reference
    QtMobility::QContactPhoneNumber::DefinitionName  - Undefined Reference
    _ZN10QtMobility19QContactPhoneNumber14DefinitionNameE@QtContacts{00010103}[2002ac7a].dll  - Undefined Reference
    QtMobility::QContactSaveRequest::setContacts(const QList<QtMobility::QContact>&)  - Undefined Reference
    _ZN10QtMobility19QContactSaveRequest11setContactsERK5QListINS_8QContactEE@QtContacts{00010103}[2002ac7a].dll  - Undefined Reference
    QtMobility::QContactSaveRequest::QContactSaveRequest(QObject*)  - Undefined Reference
    _ZN10QtMobility19QContactSaveRequestC1EP7QObject@QtContacts{00010103}[2002ac7a].dll  - Undefined Reference
    QtMobility::QContactSaveRequest::~QContactSaveRequest()  - Undefined Reference
    _ZN10QtMobility19QContactSaveRequestD1Ev@QtContacts{00010103}[2002ac7a].dll  - Undefined Reference
    QtMobility::QContactDetailFilter::QContactDetailFilter(const QtMobility::QContactFilter&)  - Undefined Reference
    _ZN10QtMobility20QContactDetailFilterC1ERKNS_14QContactFilterE@QtContacts{00010103}[2002ac7a].dll  - Undefined Reference
    QtMobility::QContactDisplayLabel::FieldLabel  - Undefined Reference
    _ZN10QtMobility20QContactDisplayLabel10FieldLabelE@QtContacts{00010103}[2002ac7a].dll  - Undefined Reference
    QtMobility::QContactDisplayLabel::DefinitionName  - Undefined Reference
    _ZN10QtMobility20QContactDisplayLabel14DefinitionNameE@QtContacts{00010103}[2002ac7a].dll  - Undefined Reference
    QtMobility::QContactEmailAddress::DefinitionName  - Undefined Reference
    _ZN10QtMobility20QContactEmailAddress14DefinitionNameE@QtContacts{00010103}[2002ac7a].dll  - Undefined Reference
    QtMobility::QContactEmailAddress::FieldEmailAddress  - Undefined Reference
    _ZN10QtMobility20QContactEmailAddress17FieldEmailAddressE@QtContacts{00010103}[2002ac7a].dll  - Undefined Reference
    QtMobility::QContactFetchRequest::setSorting(const QList<QtMobility::QContactSortOrder>&)  - Undefined Reference
    _ZN10QtMobility20QContactFetchRequest10setSortingERK5QListINS_17QContactSortOrderEE@QtContacts{00010103}[2002ac7a].dll  - Undefined Reference
    QtMobility::QContactFetchRequest::setFetchHint(const QtMobility::QContactFetchHint&)  - Undefined Reference
    _ZN10QtMobility20QContactFetchRequest12setFetchHintERKNS_17QContactFetchHintE@QtContacts{00010103}[2002ac7a].dll  - Undefined Reference
    QtMobility::QContactFetchRequest::setFilter(const QtMobility::QContactFilter&)  - Undefined Reference
    _ZN10QtMobility20QContactFetchRequest9setFilterERKNS_14QContactFilterE@QtContacts{00010103}[2002ac7a].dll  - Undefined Reference
    QtMobility::QContactFetchRequest::QContactFetchRequest(QObject*)  - Undefined Reference
    _ZN10QtMobility20QContactFetchRequestC1EP7QObject@QtContacts{00010103}[2002ac7a].dll  - Undefined Reference
    QtMobility::QContactFetchRequest::~QContactFetchRequest()  - Undefined Reference
    _ZN10QtMobility20QContactFetchRequestD1Ev@QtContacts{00010103}[2002ac7a].dll  - Undefined Reference
    QtMobility::QContactLocalIdFilter::setIds(const QList<unsigned>&)  - Undefined Reference
    _ZN10QtMobility21QContactLocalIdFilter6setIdsERK5QListIjE@QtContacts{00010103}[2002ac7a].dll  - Undefined Reference
    QtMobility::QContactLocalIdFilter::QContactLocalIdFilter(const QtMobility::QContactFilter&)  - Undefined Reference
    _ZN10QtMobility21QContactLocalIdFilterC1ERKNS_14QContactFilterE@QtContacts{00010103}[2002ac7a].dll  - Undefined Reference
    QtMobility::QContactLocalIdFilter::QContactLocalIdFilter()  - Undefined Reference
    _ZN10QtMobility21QContactLocalIdFilterC1Ev@QtContacts{00010103}[2002ac7a].dll  - Undefined Reference
    QtMobility::QContactManagerEngine::testFilter(const QtMobility::QContactFilter&, const QtMobility::QContact&)  - Undefined Reference
    _ZN10QtMobility21QContactManagerEngine10testFilterERKNS_14QContactFilterERKNS_8QContactE@QtContacts{00010103}[2002ac7a].dll  - Undefined Reference
    QtMobility::QContactManagerEngine::qt_metacall(QMetaObject::Call, int, void**)  - Undefined Reference
    _ZN10QtMobility21QContactManagerEngine11qt_metacallEN11QMetaObject4CallEiPPv@QtContacts{00010103}[2002ac7a].dll  - Undefined Reference
    QtMobility::QContactManagerEngine::qt_metacast(const char*)  - Undefined Reference
    _ZN10QtMobility21QContactManagerEngine11qt_metacastEPKc@QtContacts{00010103}[2002ac7a].dll  - Undefined Reference
    QtMobility::QContactManagerEngine::saveContact(QtMobility::QContact*, QtMobility::QContactManager::Error*)  - Undefined Reference
    _ZN10QtMobility21QContactManagerEngine11saveContactEPNS_8QContactEPNS_15QContactManager5ErrorE@QtContacts{00010103}[2002ac7a].dll  - Undefined Reference
    QtMobility::QContactManagerEngine::removeContact(const unsigned&, QtMobility::QContactManager::Error*)  - Undefined Reference
    _ZN10QtMobility21QContactManagerEngine13removeContactERKjPNS_15QContactManager5ErrorE@QtContacts{00010103}[2002ac7a].dll  - Undefined Reference
    QtMobility::QContactManagerEngine::saveRelationship(QtMobility::QContactRelationship*, QtMobility::QContactManager::Error*)  - Undefined Reference
    _ZN10QtMobility21QContactManagerEngine16saveRelationshipEPNS_20QContactRelationshipEPNS_15QContactManager5ErrorE@QtContacts{00010103}[2002ac7a].dll  - Undefined Reference
    QtMobility::QContactManagerEngine::setSelfContactId(const unsigned&, QtMobility::QContactManager::Error*)  - Undefined Reference
    _ZN10QtMobility21QContactManagerEngine16setSelfContactIdERKjPNS_15QContactManager5ErrorE@QtContacts{00010103}[2002ac7a].dll  - Undefined Reference
    QtMobility::QContactManagerEngine::staticMetaObject  - Undefined Reference
    _ZN10QtMobility21QContactManagerEngine16staticMetaObjectE@QtContacts{00010103}[2002ac7a].dll  - Undefined Reference
    QtMobility::QContactManagerEngine::saveRelationships(QList<QtMobility::QContactRelationship>*, QMap<int, QtMobility::QContactManager::Error>*, QtMobility::QContactManager::Error*)  - Undefined Reference
    _ZN10QtMobility21QContactManagerEngine17saveRelationshipsEP5QListINS_20QContactRelationshipEEP4QMapIiNS_15QContactManager5ErrorEEPS7_@QtContacts{00010103}[2002ac7a].dll  - Undefined Reference
    QtMobility::QContactManagerEngine::removeRelationship(const QtMobility::QContactRelationship&, QtMobility::QContactManager::Error*)  - Undefined Reference
    _ZN10QtMobility21QContactManagerEngine18removeRelationshipERKNS_20QContactRelationshipEPNS_15QContactManager5ErrorE@QtContacts{00010103}[2002ac7a].dll  - Undefined Reference
    QtMobility::QContactManagerEngine::updateRequestState(QtMobility::QContactAbstractRequest*, QtMobility::QContactAbstractRequest::State)  - Undefined Reference
    _ZN10QtMobility21QContactManagerEngine18updateRequestStateEPNS_23QContactAbstractRequestENS1_5StateE@QtContacts{00010103}[2002ac7a].dll  - Undefined Reference
    QtMobility::QContactManagerEngine::removeRelationships(const QList<QtMobility::QContactRelationship>&, QMap<int, QtMobility::QContactManager::Error>*, QtMobility::QContactManager::Error*)  - Undefined Reference
    _ZN10QtMobility21QContactManagerEngine19removeRelationshipsERK5QListINS_20QContactRelationshipEEP4QMapIiNS_15QContactManager5ErrorEEPS8_@QtContacts{00010103}[2002ac7a].dll  - Undefined Reference
    QtMobility::QContactManagerEngine::saveDetailDefinition(const QtMobility::QContactDetailDefinition&, const QString&, QtMobility::QContactManager::Error*)  - Undefined Reference
    _ZN10QtMobility21QContactManagerEngine20saveDetailDefinitionERKNS_24QContactDetailDefinitionERK7QStringPNS_15QContactManager5ErrorE@QtContacts{00010103}[2002ac7a].dll  - Undefined Reference
    QtMobility::QContactManagerEngine::removeDetailDefinition(const QString&, const QString&, QtMobility::QContactManager::Error*)  - Undefined Reference
    _ZN10QtMobility21QContactManagerEngine22removeDetailDefinitionERK7QStringS3_PNS_15QContactManager5ErrorE@QtContacts{00010103}[2002ac7a].dll  - Undefined Reference
    QtMobility::QContactManagerEngine::setContactDisplayLabel(QtMobility::QContact*, const QString&)  - Undefined Reference
    _ZN10QtMobility21QContactManagerEngine22setContactDisplayLabelEPNS_8QContactERK7QString@QtContacts{00010103}[2002ac7a].dll  - Undefined Reference
    QtMobility::QContactManagerEngine::updateContactSaveRequest(QtMobility::QContactSaveRequest*, const QList<QtMobility::QContact>&, QtMobility::QContactManager::Error, const QMap<int, QtMobility::QContactManager::Error>&, QtMobility::QContactAbstractRequest::State)  - Undefined Reference
    _ZN10QtMobility21QContactManagerEngine24updateContactSaveRequestEPNS_19QContactSaveRequestERK5QListINS_8QContactEENS_15QContactManager5ErrorERK4QMapIiS9_ENS_23QContactAbstractRequest5StateE@QtContacts{00010103}[2002ac7a].dll  - Undefined Reference
    QtMobility::QContactManagerEngine::updateContactFetchRequest(QtMobility::QContactFetchRequest*, const QList<QtMobility::QContact>&, QtMobility::QContactManager::Error, QtMobility::QContactAbstractRequest::State)  - Undefined Reference
    _ZN10QtMobility21QContactManagerEngine25updateContactFetchRequestEPNS_20QContactFetchRequestERK5QListINS_8QContactEENS_15QContactManager5ErrorENS_23QContactAbstractRequest5StateE@QtContacts{00010103}[2002ac7a].dll  - Undefined Reference
    QtMobility::QContactManagerEngine::setDetailAccessConstraints(QtMobility::QContactDetail*, QFlags<QtMobility::QContactDetail::AccessConstraint>)  - Undefined Reference
    _ZN10QtMobility21QContactManagerEngine26setDetailAccessConstraintsEPNS_14QContactDetailE6QFlagsINS1_16AccessConstraintEE@QtContacts{00010103}[2002ac7a].dll  - Undefined Reference
    QtMobility::QContactManagerEngine::updateContactRemoveRequest(QtMobility::QContactRemoveRequest*, QtMobility::QContactManager::Error, const QMap<int, QtMobility::QContactManager::Error>&, QtMobility::QContactAbstractRequest::State)  - Undefined Reference
    _ZN10QtMobility21QContactManagerEngine26updateContactRemoveRequestEPNS_21QContactRemoveRequestENS_15QContactManager5ErrorERK4QMapIiS4_ENS_23QContactAbstractRequest5StateE@QtContacts{00010103}[2002ac7a].dll  - Undefined Reference
    QtMobility::QContactManagerEngine::updateDefinitionFetchRequest(QtMobility::QContactDetailDefinitionFetchRequest*, const QMap<QString, QtMobility::QContactDetailDefinition>&, QtMobility::QContactManager::Error, QMap<int, QtMobility::QContactManager::Error>&, QtMobility::QContactAbstractRequest::State)  - Undefined Reference
    _ZN10QtMobility21QContactManagerEngine28updateDefinitionFetchRequestEPNS_36QContactDetailDefinitionFetchRequestERK4QMapI7QStringNS_24QContactDetailDefinitionEENS_15QContactManager5ErrorERKS3_IiSA_ENS_23QContactAbstractRequest5StateE@QtContacts{00010103}[2002ac7a].dll  - Undefined Reference
    QtMobility::QContactManagerEngine::updateContactLocalIdFetchRequest(QtMobility::QContactLocalIdFetchRequest*, const QList<unsigned>&, QtMobility::QContactManager::Error, QtMobility::QContactAbstractRequest::State)  - Undefined Reference
    _ZN10QtMobility21QContactManagerEngine32updateContactLocalIdFetchRequestEPNS_27QContactLocalIdFetchRequestERK5QListIjENS_15QContactManager5ErrorENS_23QContactAbstractRequest5StateE@QtContacts{00010103}[2002ac7a].dll  - Undefined Reference
    QtMobility::QContactManagerEngine::addSorted(QList<QtMobility::QContact>*, const QtMobility::QContact&, QList<QtMobility::QContactSortOrder>&)  - Undefined Reference
    _ZN10QtMobility21QContactManagerEngine9addSortedEP5QListINS_8QContactEERKS2_RKS1_INS_17QContactSortOrderEE@QtContacts{00010103}[2002ac7a].dll  - Undefined Reference
    QtMobility::QContactRemoveRequest::setContactIds(const QList<unsigned>&)  - Undefined Reference
    _ZN10QtMobility21QContactRemoveRequest13setContactIdsERK5QListIjE@QtContacts{00010103}[2002ac7a].dll  - Undefined Reference
    QtMobility::QContactRemoveRequest::QContactRemoveRequest(QObject*)  - Undefined Reference
    _ZN10QtMobility21QContactRemoveRequestC1EP7QObject@QtContacts{00010103}[2002ac7a].dll  - Undefined Reference
    QtMobility::QContactRemoveRequest::~QContactRemoveRequest()  - Undefined Reference
    _ZN10QtMobility21QContactRemoveRequestD1Ev@QtContacts{00010103}[2002ac7a].dll  - Undefined Reference
    QtMobility::QContactDetailDefinition::setName(const QString&)  - Undefined Reference
    _ZN10QtMobility24QContactDetailDefinition7setNameERK7QString@QtContacts{00010103}[2002ac7a].dll  - Undefined Reference
    QtMobility::QContactDetailDefinition::setFields(const QMap<QString, QtMobility::QContactDetailFieldDefinition>&)  - Undefined Reference
    _ZN10QtMobility24QContactDetailDefinition9setFieldsERK4QMapI7QStringNS_29QContactDetailFieldDefinitionEE@QtContacts{00010103}[2002ac7a].dll  - Undefined Reference
    QtMobility::QContactDetailDefinition::setUnique(bool)  - Undefined Reference
    _ZN10QtMobility24QContactDetailDefinition9setUniqueEb@QtContacts{00010103}[2002ac7a].dll  - Undefined Reference
    QtMobility::QContactDetailDefinition::QContactDetailDefinition(const QtMobility::QContactDetailDefinition&)  - Undefined Reference
    _ZN10QtMobility24QContactDetailDefinitionC1ERKS0_@QtContacts{00010103}[2002ac7a].dll  - Undefined Reference
    QtMobility::QContactDetailDefinition::QContactDetailDefinition()  - Undefined Reference
    _ZN10QtMobility24QContactDetailDefinitionC1Ev@QtContacts{00010103}[2002ac7a].dll  - Undefined Reference
    QtMobility::QContactDetailDefinition::~QContactDetailDefinition()  - Undefined Reference
    _ZN10QtMobility24QContactDetailDefinitionD1Ev@QtContacts{00010103}[2002ac7a].dll  - Undefined Reference
    QtMobility::QContactDetailDefinition::operator =(const QtMobility::QContactDetailDefinition&)  - Undefined Reference
    _ZN10QtMobility24QContactDetailDefinitionaSERKS0_@QtContacts{00010103}[2002ac7a].dll  - Undefined Reference
    QtMobility::QContactLocalIdFetchRequest::setSorting(const QList<QtMobility::QContactSortOrder>&)  - Undefined Reference
    _ZN10QtMobility27QContactLocalIdFetchRequest10setSortingERK5QListINS_17QContactSortOrderEE@QtContacts{00010103}[2002ac7a].dll  - Undefined Reference
    QtMobility::QContactLocalIdFetchRequest::setFilter(const QtMobility::QContactFilter&)  - Undefined Reference
    _ZN10QtMobility27QContactLocalIdFetchRequest9setFilterERKNS_14QContactFilterE@QtContacts{00010103}[2002ac7a].dll  - Undefined Reference
    QtMobility::QContactLocalIdFetchRequest::QContactLocalIdFetchRequest(QObject*)  - Undefined Reference
    _ZN10QtMobility27QContactLocalIdFetchRequestC1EP7QObject@QtContacts{00010103}[2002ac7a].dll  - Undefined Reference
    QtMobility::QContactLocalIdFetchRequest::~QContactLocalIdFetchRequest()  - Undefined Reference
    _ZN10QtMobility27QContactLocalIdFetchRequestD1Ev@QtContacts{00010103}[2002ac7a].dll  - Undefined Reference
    QtMobility::QContactManagerEngineFactory::~QContactManagerEngineFactory__sub_object()  - Undefined Reference
    _ZN10QtMobility28QContactManagerEngineFactoryD2Ev@QtContacts{00010103}[2002ac7a].dll  - Undefined Reference
    QtMobility::QContactDetailFieldDefinition::setDataType(QVariant::Type)  - Undefined Reference
    _ZN10QtMobility29QContactDetailFieldDefinition11setDataTypeEN8QVariant4TypeE@QtContacts{00010103}[2002ac7a].dll  - Undefined Reference
    QtMobility::QContactDetailFieldDefinition::setAllowableValues(QList<QVariant>)  - Undefined Reference
    _ZN10QtMobility29QContactDetailFieldDefinition18setAllowableValuesE5QListI8QVariantE@QtContacts{00010103}[2002ac7a].dll  - Undefined Reference
    QtMobility::QContactDetailFieldDefinition::QContactDetailFieldDefinition(const QtMobility::QContactDetailFieldDefinition&)  - Undefined Reference
    _ZN10QtMobility29QContactDetailFieldDefinitionC1ERKS0_@QtContacts{00010103}[2002ac7a].dll  - Undefined Reference
    QtMobility::QContactDetailFieldDefinition::QContactDetailFieldDefinition()  - Undefined Reference
    _ZN10QtMobility29QContactDetailFieldDefinitionC1Ev@QtContacts{00010103}[2002ac7a].dll  - Undefined Reference
    QtMobility::QContactDetailFieldDefinition::~QContactDetailFieldDefinition()  - Undefined Reference
    _ZN10QtMobility29QContactDetailFieldDefinitionD1Ev@QtContacts{00010103}[2002ac7a].dll  - Undefined Reference
    QtMobility::QContactDetailFieldDefinition::operator =(const QtMobility::QContactDetailFieldDefinition&)  - Undefined Reference
    _ZN10QtMobility29QContactDetailFieldDefinitionaSERKS0_@QtContacts{00010103}[2002ac7a].dll  - Undefined Reference
    QtMobility::QContact::saveDetail(QtMobility::QContactDetail*)  - Undefined Reference
    _ZN10QtMobility8QContact10saveDetailEPNS_14QContactDetailE@QtContacts{00010103}[2002ac7a].dll  - Undefined Reference
    QtMobility::QContact::clearDetails()      - Undefined Reference
    _ZN10QtMobility8QContact12clearDetailsEv@QtContacts{00010103}[2002ac7a].dll  - Undefined Reference
    QtMobility::QContact::setId(const QtMobility::QContactId&)  - Undefined Reference
    _ZN10QtMobility8QContact5setIdERKNS_10QContactIdE@QtContacts{00010103}[2002ac7a].dll  - Undefined Reference
    QtMobility::QContact::setType(const QString&)  - Undefined Reference
    _ZN10QtMobility8QContact7setTypeERK7QString@QtContacts{00010103}[2002ac7a].dll  - Undefined Reference
    QtMobility::QContact::QContact(const QtMobility::QContact&)  - Undefined Reference
    _ZN10QtMobility8QContactC1ERKS0_@QtContacts{00010103}[2002ac7a].dll  - Undefined Reference
    QtMobility::QContact::QContact()          - Undefined Reference
    _ZN10QtMobility8QContactC1Ev@QtContacts{00010103}[2002ac7a].dll  - Undefined Reference
    QtMobility::QContact::~QContact()         - Undefined Reference
    _ZN10QtMobility8QContactD1Ev@QtContacts{00010103}[2002ac7a].dll  - Undefined Reference
    QtMobility::QContact::operator =(const QtMobility::QContact&)  - Undefined Reference
    _ZN10QtMobility8QContactaSERKS0_@QtContacts{00010103}[2002ac7a].dll  - Undefined Reference
    RTelServer::Connect(int)                  - Undefined Reference
    _ZN10RTelServer7ConnectEi@etel{000a0000}[10003d46].dll  - Undefined Reference
    RTelServer::RTelServer()                  - Undefined Reference
    _ZN10RTelServerC1Ev@etel{000a0000}[10003d46].dll  - Undefined Reference
    TBufBase16::TBufBase16(int)               - Undefined Reference
    _ZN10TBufBase16C1Ei@euser{000a0000}[100039e5].dll  - Undefined Reference
    CRepository::Get(unsigned long, int&)     - Undefined Reference
    _ZN11CRepository3GetEmRi@centralrepository{000a0000}[101fbc70].dll  - Undefined Reference
    CRepository::NewL(TUid)                   - Undefined Reference
    _ZN11CRepository4NewLE4TUid@centralrepository{000a0000}[101fbc70].dll  - Undefined Reference
    QMetaObject::changeGuard(QObject**, QObject*)  - Undefined Reference
    _ZN11QMetaObject11changeGuardEPP7QObjectS1_@QtCore{00040703}[2001b2dc].dll  - Undefined Reference
    QMetaObject::removeGuard(QObject**)       - Undefined Reference
    _ZN11QMetaObject11removeGuardEPP7QObject@QtCore{00040703}[2001b2dc].dll  - Undefined Reference
    QMetaObject::activate(QObject*, const QMetaObject*, int, void**)  - Undefined Reference
    _ZN11QMetaObject8activateEP7QObjectPKS_iPPv@QtCore{00040703}[2001b2dc].dll  - Undefined Reference
    QTextStream::QTextStream(QString*, QFlags<QIODevice::OpenModeFlag>)  - Undefined Reference
    _ZN11QTextStreamC1EP7QString6QFlagsIN9QIODevice12OpenModeFlagEE@QtCore{00040703}[2001b2dc].dll  - Undefined Reference
    QTextStream::~QTextStream()               - Undefined Reference
    _ZN11QTextStreamD1Ev@QtCore{00040703}[2001b2dc].dll  - Undefined Reference
    QTextStream::operator <<(const QString&)  - Undefined Reference
    _ZN11QTextStreamlsERK7QString@QtCore{00040703}[2001b2dc].dll  - Undefined Reference
    QTextStream::operator <<(char)            - Undefined Reference
    _ZN11QTextStreamlsEc@QtCore{00040703}[2001b2dc].dll  - Undefined Reference
    QTextStream::operator <<(int)             - Undefined Reference
    _ZN11QTextStreamlsEi@QtCore{00040703}[2001b2dc].dll  - Undefined Reference
    RHandleBase::Close()                      - Undefined Reference
    _ZN11RHandleBase5CloseEv@euser{000a0000}[100039e5].dll  - Undefined Reference
    CleanupStack::PopAndDestroy(int)          - Undefined Reference
    _ZN12CleanupStack13PopAndDestroyEi@euser{000a0000}[100039e5].dll  - Undefined Reference
    CleanupStack::PopAndDestroy()             - Undefined Reference
    _ZN12CleanupStack13PopAndDestroyEv@euser{000a0000}[100039e5].dll  - Undefined Reference
    CleanupStack::Pop()                       - Undefined Reference
    _ZN12CleanupStack3PopEv@euser{000a0000}[100039e5].dll  - Undefined Reference
    CleanupStack::Check(void*)                - Undefined Reference
    _ZN12CleanupStack5CheckEPv@euser{000a0000}[100039e5].dll  - Undefined Reference
    CleanupStack::PushL(CBase*)               - Undefined Reference
    _ZN12CleanupStack5PushLEP5CBase@euser{000a0000}[100039e5].dll  - Undefined Reference
    RMobilePhone::RMobilePhone()              - Undefined Reference
    _ZN12RMobilePhoneC1Ev@etelmm{000a0000}[100064dd].dll  - Undefined Reference
    RMobileONStore::TMobileONEntryV1::TMobileONEntryV1()  - Undefined Reference
    _ZN14RMobileONStore16TMobileONEntryV1C1Ev@etelmm{000a0000}[100064dd].dll  - Undefined Reference
    RMobileONStore::TMobileONStoreInfoV1::TMobileONStoreInfoV1()  - Undefined Reference
    _ZN14RMobileONStore20TMobileONStoreInfoV1C1Ev@etelmm{000a0000}[100064dd].dll  - Undefined Reference
    RMobileONStore::Open(RMobilePhone&)       - Undefined Reference
    _ZN14RMobileONStore4OpenER12RMobilePhone@etelmm{000a0000}[100064dd].dll  - Undefined Reference
    RMobileONStore::Close()                   - Undefined Reference
    _ZN14RMobileONStore5CloseEv@etelmm{000a0000}[100064dd].dll  - Undefined Reference
    RMobileONStore::RMobileONStore()          - Undefined Reference
    _ZN14RMobileONStoreC1Ev@etelmm{000a0000}[100064dd].dll  - Undefined Reference
    CActiveScheduler::Add(CActive*)           - Undefined Reference
    _ZN16CActiveScheduler3AddEP7CActive@euser{000a0000}[100039e5].dll  - Undefined Reference
    CPhoneBookBuffer::GetTagAndType(unsigned char&, CPhoneBookBuffer::TPhBkTagType&)  - Undefined Reference
    _ZN16CPhoneBookBuffer13GetTagAndTypeERhRNS_12TPhBkTagTypeE@etelmm{000a0000}[100064dd].dll  - Undefined Reference
    CPhoneBookBuffer::AddNewEntryTag()        - Undefined Reference
    _ZN16CPhoneBookBuffer14AddNewEntryTagEv@etelmm{000a0000}[100064dd].dll  - Undefined Reference
    CPhoneBookBuffer::PutTagAndValue(unsigned char, const TDesC16&)  - Undefined Reference
    _ZN16CPhoneBookBuffer14PutTagAndValueEhRK7TDesC16@etelmm{000a0000}[100064dd].dll  - Undefined Reference
    CPhoneBookBuffer::AddNewNumberTag()       - Undefined Reference
    _ZN16CPhoneBookBuffer15AddNewNumberTagEv@etelmm{000a0000}[100064dd].dll  - Undefined Reference
    CPhoneBookBuffer::RemainingReadLength()   - Undefined Reference
    _ZN16CPhoneBookBuffer19RemainingReadLengthEv@etelmm{000a0000}[100064dd].dll  - Undefined Reference
    CPhoneBookBuffer::Set(TDes8*)             - Undefined Reference
    _ZN16CPhoneBookBuffer3SetEP5TDes8@etelmm{000a0000}[100064dd].dll  - Undefined Reference
    CPhoneBookBuffer::GetValue(TPtrC16&)      - Undefined Reference
    _ZN16CPhoneBookBuffer8GetValueER7TPtrC16@etelmm{000a0000}[100064dd].dll  - Undefined Reference
    CPhoneBookBuffer::GetValue(unsigned char&)  - Undefined Reference
    _ZN16CPhoneBookBuffer8GetValueERh@etelmm{000a0000}[100064dd].dll  - Undefined Reference
    CPhoneBookBuffer::GetValue(unsigned short&)  - Undefined Reference
    _ZN16CPhoneBookBuffer8GetValueERt@etelmm{000a0000}[100064dd].dll  - Undefined Reference
    CPhoneBookBuffer::SkipValue(CPhoneBookBuffer::TPhBkTagType)  - Undefined Reference
    _ZN16CPhoneBookBuffer9SkipValueENS_12TPhBkTagTypeE@etelmm{000a0000}[100064dd].dll  - Undefined Reference
    CPhoneBookBuffer::StartRead()             - Undefined Reference
    _ZN16CPhoneBookBuffer9StartReadEv@etelmm{000a0000}[100064dd].dll  - Undefined Reference
    CPhoneBookBuffer::CPhoneBookBuffer()      - Undefined Reference
    _ZN16CPhoneBookBufferC1Ev@etelmm{000a0000}[100064dd].dll  - Undefined Reference
    CActiveSchedulerWait::Start()             - Undefined Reference
    _ZN20CActiveSchedulerWait5StartEv@euser{000a0000}[100039e5].dll  - Undefined Reference
    CActiveSchedulerWait::AsyncStop()         - Undefined Reference
    _ZN20CActiveSchedulerWait9AsyncStopEv@euser{000a0000}[100039e5].dll  - Undefined Reference
    CActiveSchedulerWait::CActiveSchedulerWait()  - Undefined Reference
    _ZN20CActiveSchedulerWaitC1Ev@euser{000a0000}[100039e5].dll  - Undefined Reference
    RMobilePhoneBookStore::TMobilePhoneBookInfoV5::TMobilePhoneBookInfoV5()  - Undefined Reference
    _ZN21RMobilePhoneBookStore22TMobilePhoneBookInfoV5C1Ev@etelmm{000a0000}[100064dd].dll  - Undefined Reference
    RMobilePhoneBookStore::Open(RMobilePhone&, const TDesC16&)  - Undefined Reference
    _ZN21RMobilePhoneBookStore4OpenER12RMobilePhoneRK7TDesC16@etelmm{000a0000}[100064dd].dll  - Undefined Reference
    RMobilePhoneBookStore::Close()            - Undefined Reference
    _ZN21RMobilePhoneBookStore5CloseEv@etelmm{000a0000}[100064dd].dll  - Undefined Reference
    RMobilePhoneBookStore::RMobilePhoneBookStore()  - Undefined Reference
    _ZN21RMobilePhoneBookStoreC1Ev@etelmm{000a0000}[100064dd].dll  - Undefined Reference
    User::LeaveIfError(int)                   - Undefined Reference
    _ZN4User12LeaveIfErrorEi@euser{000a0000}[100039e5].dll  - Undefined Reference
    User::WaitForRequest(TRequestStatus&)     - Undefined Reference
    _ZN4User14WaitForRequestER14TRequestStatus@euser{000a0000}[100039e5].dll  - Undefined Reference
    User::MarkCleanupStack()                  - Undefined Reference
    _ZN4User16MarkCleanupStackEv@euser{000a0000}[100039e5].dll  - Undefined Reference
    User::UnMarkCleanupStack(TTrapHandler*)   - Undefined Reference
    _ZN4User18UnMarkCleanupStackEP12TTrapHandler@euser{000a0000}[100039e5].dll  - Undefined Reference
    User::Leave(int)                          - Undefined Reference
    _ZN4User5LeaveEi@euser{000a0000}[100039e5].dll  - Undefined Reference
    User::AllocZL(int)                        - Undefined Reference
    _ZN4User7AllocZLEi@euser{000a0000}[100039e5].dll  - Undefined Reference
    User::Invariant()                         - Undefined Reference
    _ZN4User9InvariantEv@euser{000a0000}[100039e5].dll  - Undefined Reference
    User::LockedDec(int&)                     - Undefined Reference
    _ZN4User9LockedDecERi@euser{000a0000}[100039e5].dll  - Undefined Reference
    User::LockedInc(int&)                     - Undefined Reference
    _ZN4User9LockedIncERi@euser{000a0000}[100039e5].dll  - Undefined Reference
    QChar::QChar(char)                        - Undefined Reference
    _ZN5QCharC1Ec@QtCore{00040703}[2001b2dc].dll  - Undefined Reference
    RBuf8::ReAlloc(int)                       - Undefined Reference
    _ZN5RBuf87ReAllocEi@euser{000a0000}[100039e5].dll  - Undefined Reference
    RBuf8::RBuf8()                            - Undefined Reference
    _ZN5RBuf8C1Ev@euser{000a0000}[100039e5].dll  - Undefined Reference
    TDes8::Zero()                             - Undefined Reference
    _ZN5TDes84ZeroEv@euser{000a0000}[100039e5].dll  - Undefined Reference
    TPtr8::TPtr8(unsigned char*, int, int)    - Undefined Reference
    _ZN5TPtr8C1EPhii@euser{000a0000}[100039e5].dll  - Undefined Reference
    CTimer::ConstructL()                      - Undefined Reference
    _ZN6CTimer10ConstructLEv@euser{000a0000}[100039e5].dll  - Undefined Reference
    CTimer::After(TTimeIntervalMicroSeconds32)  - Undefined Reference
    _ZN6CTimer5AfterE27TTimeIntervalMicroSeconds32@euser{000a0000}[100039e5].dll  - Undefined Reference
    CTimer::DoCancel()                        - Undefined Reference
    _ZN6CTimer8DoCancelEv@euser{000a0000}[100039e5].dll  - Undefined Reference
    CTimer::CTimer__sub_object(int)           - Undefined Reference
    _ZN6CTimerC2Ei@euser{000a0000}[100039e5].dll  - Undefined Reference
    CTimer::~CTimer__sub_object()             - Undefined Reference
    _ZN6CTimerD2Ev@euser{000a0000}[100039e5].dll  - Undefined Reference
    QTimer::singleShot(int, QObject*, const char*)  - Undefined Reference
    _ZN6QTimer10singleShotEiP7QObjectPKc@QtCore{00040703}[2001b2dc].dll  - Undefined Reference
    QTimer::start(int)                        - Undefined Reference
    _ZN6QTimer5startEi@QtCore{00040703}[2001b2dc].dll  - Undefined Reference
    QTimer::QTimer(QObject*)                  - Undefined Reference
    _ZN6QTimerC1EP7QObject@QtCore{00040703}[2001b2dc].dll  - Undefined Reference
    RBuf16::CleanupClosePushL()               - Undefined Reference
    _ZN6RBuf1617CleanupClosePushLEv@euser{000a0000}[100039e5].dll  - Undefined Reference
    RBuf16::CreateL(const TDesC16&)           - Undefined Reference
    _ZN6RBuf167CreateLERK7TDesC16@euser{000a0000}[100039e5].dll  - Undefined Reference
    RBuf16::RBuf16()                          - Undefined Reference
    _ZN6RBuf16C1Ev@euser{000a0000}[100039e5].dll  - Undefined Reference
    RPhone::Open(RTelServer&, const TDesC16&)  - Undefined Reference
    _ZN6RPhone4OpenER10RTelServerRK7TDesC16@etel{000a0000}[10003d46].dll  - Undefined Reference
    RPhone::Close()                           - Undefined Reference
    _ZN6RPhone5CloseEv@etel{000a0000}[10003d46].dll  - Undefined Reference
    TDes16::Copy(const TDesC16&)              - Undefined Reference
    _ZN6TDes164CopyERK7TDesC16@euser{000a0000}[100039e5].dll  - Undefined Reference
    TDes16::Delete(int, int)                  - Undefined Reference
    _ZN6TDes166DeleteEii@euser{000a0000}[100039e5].dll  - Undefined Reference
    CActive::Extension_(unsigned, void*&, void*)  - Undefined Reference
    _ZN7CActive10Extension_EjRPvS0_@euser{000a0000}[100039e5].dll  - Undefined Reference
    CActive::Cancel()                         - Undefined Reference
    _ZN7CActive6CancelEv@euser{000a0000}[100039e5].dll  - Undefined Reference
    CActive::RunError(int)                    - Undefined Reference
    _ZN7CActive8RunErrorEi@euser{000a0000}[100039e5].dll  - Undefined Reference
    CActive::SetActive()                      - Undefined Reference
    _ZN7CActive9SetActiveEv@euser{000a0000}[100039e5].dll  - Undefined Reference
    CActive::CActive__sub_object(int)         - Undefined Reference
    _ZN7CActiveC2Ei@euser{000a0000}[100039e5].dll  - Undefined Reference
    CActive::~CActive__sub_object()           - Undefined Reference
    _ZN7CActiveD2Ev@euser{000a0000}[100039e5].dll  - Undefined Reference
    QObject::childEvent(QChildEvent*)         - Undefined Reference
    _ZN7QObject10childEventEP11QChildEvent@QtCore{00040703}[2001b2dc].dll  - Undefined Reference
    QObject::disconnect(const QObject*, const char*, const QObject*, const char*)  - Undefined Reference
    _ZN7QObject10disconnectEPKS_PKcS1_S3_@QtCore{00040703}[2001b2dc].dll  - Undefined Reference
    QObject::timerEvent(QTimerEvent*)         - Undefined Reference
    _ZN7QObject10timerEventEP11QTimerEvent@QtCore{00040703}[2001b2dc].dll  - Undefined Reference
    QObject::customEvent(QEvent*)             - Undefined Reference
    _ZN7QObject11customEventEP6QEvent@QtCore{00040703}[2001b2dc].dll  - Undefined Reference
    QObject::deleteLater()                    - Undefined Reference
    _ZN7QObject11deleteLaterEv@QtCore{00040703}[2001b2dc].dll  - Undefined Reference
    QObject::eventFilter(QObject*, QEvent*)   - Undefined Reference
    _ZN7QObject11eventFilterEPS_P6QEvent@QtCore{00040703}[2001b2dc].dll  - Undefined Reference
    QObject::qt_metacall(QMetaObject::Call, int, void**)  - Undefined Reference
    _ZN7QObject11qt_metacallEN11QMetaObject4CallEiPPv@QtCore{00040703}[2001b2dc].dll  - Undefined Reference
    QObject::qt_metacast(const char*)         - Undefined Reference
    _ZN7QObject11qt_metacastEPKc@QtCore{00040703}[2001b2dc].dll  - Undefined Reference
    QObject::connectNotify(const char*)       - Undefined Reference
    _ZN7QObject13connectNotifyEPKc@QtCore{00040703}[2001b2dc].dll  - Undefined Reference
    QObject::disconnectNotify(const char*)    - Undefined Reference
    _ZN7QObject16disconnectNotifyEPKc@QtCore{00040703}[2001b2dc].dll  - Undefined Reference
    QObject::staticMetaObject                 - Undefined Reference
    _ZN7QObject16staticMetaObjectE@QtCore{00040703}[2001b2dc].dll  - Undefined Reference
    QObject::event(QEvent*)                   - Undefined Reference
    _ZN7QObject5eventEP6QEvent@QtCore{00040703}[2001b2dc].dll  - Undefined Reference
    QObject::connect(const QObject*, const char*, const QObject*, const char*, Qt::ConnectionType)  - Undefined Reference
    _ZN7QObject7connectEPKS_PKcS1_S3_N2Qt14ConnectionTypeE@QtCore{00040703}[2001b2dc].dll  - Undefined Reference
    QObject::QObject(QObject*)                - Undefined Reference
    _ZN7QObjectC1EPS_@QtCore{00040703}[2001b2dc].dll  - Undefined Reference
    QObject::~QObject()                       - Undefined Reference
    _ZN7QObjectD1Ev@QtCore{00040703}[2001b2dc].dll  - Undefined Reference
    QString::fromLatin1(const char*, int)     - Undefined Reference
    _ZN7QString10fromLatin1EPKci@QtCore{00040703}[2001b2dc].dll  - Undefined Reference
    QString::shared_null                      - Undefined Reference
    _ZN7QString11shared_nullE@QtCore{00040703}[2001b2dc].dll  - Undefined Reference
    QString::fromAscii_helper(const char*, int)  - Undefined Reference
    _ZN7QString16fromAscii_helperEPKci@QtCore{00040703}[2001b2dc].dll  - Undefined Reference
    QString::fromLatin1_helper(const char*, int)  - Undefined Reference
    _ZN7QString17fromLatin1_helperEPKci@QtCore{00040703}[2001b2dc].dll  - Undefined Reference
    QString::free(QString::Data*)             - Undefined Reference
    _ZN7QString4freeEPNS_4DataE@QtCore{00040703}[2001b2dc].dll  - Undefined Reference
    QString::insert(int, const QChar*, int)   - Undefined Reference
    _ZN7QString6insertEiPK5QChari@QtCore{00040703}[2001b2dc].dll  - Undefined Reference
    QString::fromAscii(const char*, int)      - Undefined Reference
    _ZN7QString9fromAsciiEPKci@QtCore{00040703}[2001b2dc].dll  - Undefined Reference
    QString::fromUtf16(const unsigned short*, int)  - Undefined Reference
    _ZN7QString9fromUtf16EPKti@QtCore{00040703}[2001b2dc].dll  - Undefined Reference
    QString::operator =(const QString&)       - Undefined Reference
    _ZN7QStringaSERKS_@QtCore{00040703}[2001b2dc].dll  - Undefined Reference
    TPtrC16::TPtrC16(const unsigned short*)   - Undefined Reference
    _ZN7TPtrC16C1EPKt@euser{000a0000}[100039e5].dll  - Undefined Reference
    TPtrC16::TPtrC16(const TDesC16&)          - Undefined Reference
    _ZN7TPtrC16C1ERK7TDesC16@euser{000a0000}[100039e5].dll  - Undefined Reference
    TPtrC16::TPtrC16()                        - Undefined Reference
    _ZN7TPtrC16C1Ev@euser{000a0000}[100039e5].dll  - Undefined Reference
    QMapData::createData(int)                 - Undefined Reference
    _ZN8QMapData10createDataEi@QtCore{00040703}[2001b2dc].dll  - Undefined Reference
    QMapData::node_create(QMapData::Node**, int, int)  - Undefined Reference
    _ZN8QMapData11node_createEPPNS_4NodeEii@QtCore{00040703}[2001b2dc].dll  - Undefined Reference
    QMapData::node_delete(QMapData::Node**, int, QMapData::Node*)  - Undefined Reference
    _ZN8QMapData11node_deleteEPPNS_4NodeEiS1_@QtCore{00040703}[2001b2dc].dll  - Undefined Reference
    QMapData::shared_null                     - Undefined Reference
    _ZN8QMapData11shared_nullE@QtCore{00040703}[2001b2dc].dll  - Undefined Reference
    QMapData::continueFreeData(int)           - Undefined Reference
    _ZN8QMapData16continueFreeDataEi@QtCore{00040703}[2001b2dc].dll  - Undefined Reference
    QVariant::QVariant(const QString&)        - Undefined Reference
    _ZN8QVariantC1ERK7QString@QtCore{00040703}[2001b2dc].dll  - Undefined Reference
    QVariant::QVariant(const QVariant&)       - Undefined Reference
    _ZN8QVariantC1ERKS_@QtCore{00040703}[2001b2dc].dll  - Undefined Reference
    QVariant::~QVariant()                     - Undefined Reference
    _ZN8QVariantD1Ev@QtCore{00040703}[2001b2dc].dll  - Undefined Reference
    QListData::detach_grow(int*, int)         - Undefined Reference
    _ZN9QListData11detach_growEPii@QtCore{00040703}[2001b2dc].dll  - Undefined Reference
    QListData::shared_null                    - Undefined Reference
    _ZN9QListData11shared_nullE@QtCore{00040703}[2001b2dc].dll  - Undefined Reference
    QListData::append()                       - Undefined Reference
    _ZN9QListData6appendEv@QtCore{00040703}[2001b2dc].dll  - Undefined Reference
    QListData::detach(int)                    - Undefined Reference
    _ZN9QListData6detachEi@QtCore{00040703}[2001b2dc].dll  - Undefined Reference
    QListData::realloc(int)                   - Undefined Reference
    _ZN9QListData7reallocEi@QtCore{00040703}[2001b2dc].dll  - Undefined Reference
    QMetaType::registerType(const char*, void(*)(void*), void*(*)(const void*))  - Undefined Reference
    _ZN9QMetaType12registerTypeEPKcPFvPvEPFS2_PKvE@QtCore{00040703}[2001b2dc].dll  - Undefined Reference
    QMetaType::registerTypedef(const char*, int)  - Undefined Reference
    _ZN9QMetaType15registerTypedefEPKci@QtCore{00040703}[2001b2dc].dll  - Undefined Reference
    QtPrivate::QStringList_contains(const QStringList*, const QString&, Qt::CaseSensitivity)  - Undefined Reference
    _ZN9QtPrivate20QStringList_containsEPK11QStringListRK7QStringN2Qt15CaseSensitivityE@QtCore{00040703}[2001b2dc].dll  - Undefined Reference
    QtMobility::QContactId::managerUri() const  - Undefined Reference
    _ZNK10QtMobility10QContactId10managerUriEv@QtContacts{00010103}[2002ac7a].dll  - Undefined Reference
    QtMobility::QContactDetail::definitionName() const  - Undefined Reference
    _ZNK10QtMobility14QContactDetail14definitionNameEv@QtContacts{00010103}[2002ac7a].dll  - Undefined Reference
    QtMobility::QContactDetail::value(const char*) const  - Undefined Reference
    _ZNK10QtMobility14QContactDetail5valueEPKc@QtContacts{00010103}[2002ac7a].dll  - Undefined Reference
    QtMobility::QContactDetail::isEmpty() const  - Undefined Reference
    _ZNK10QtMobility14QContactDetail7isEmptyEv@QtContacts{00010103}[2002ac7a].dll  - Undefined Reference
    QtMobility::QContactFilter::type() const  - Undefined Reference
    _ZNK10QtMobility14QContactFilter4typeEv@QtContacts{00010103}[2002ac7a].dll  - Undefined Reference
    QtMobility::QContactSaveRequest::contacts() const  - Undefined Reference
    _ZNK10QtMobility19QContactSaveRequest8contactsEv@QtContacts{00010103}[2002ac7a].dll  - Undefined Reference
    QtMobility::QContactSaveRequest::errorMap() const  - Undefined Reference
    _ZNK10QtMobility19QContactSaveRequest8errorMapEv@QtContacts{00010103}[2002ac7a].dll  - Undefined Reference
    QtMobility::QContactDetailFilter::matchFlags() const  - Undefined Reference
    _ZNK10QtMobility20QContactDetailFilter10matchFlagsEv@QtContacts{00010103}[2002ac7a].dll  - Undefined Reference
    QtMobility::QContactDetailFilter::detailFieldName() const  - Undefined Reference
    _ZNK10QtMobility20QContactDetailFilter15detailFieldNameEv@QtContacts{00010103}[2002ac7a].dll  - Undefined Reference
    QtMobility::QContactDetailFilter::detailDefinitionName() const  - Undefined Reference
    _ZNK10QtMobility20QContactDetailFilter20detailDefinitionNameEv@QtContacts{00010103}[2002ac7a].dll  - Undefined Reference
    QtMobility::QContactDetailFilter::value() const  - Undefined Reference
    _ZNK10QtMobility20QContactDetailFilter5valueEv@QtContacts{00010103}[2002ac7a].dll  - Undefined Reference
    QtMobility::QContactFetchRequest::filter() const  - Undefined Reference
    _ZNK10QtMobility20QContactFetchRequest6filterEv@QtContacts{00010103}[2002ac7a].dll  - Undefined Reference
    QtMobility::QContactFetchRequest::sorting() const  - Undefined Reference
    _ZNK10QtMobility20QContactFetchRequest7sortingEv@QtContacts{00010103}[2002ac7a].dll  - Undefined Reference
    QtMobility::QContactFetchRequest::contacts() const  - Undefined Reference
    _ZNK10QtMobility20QContactFetchRequest8contactsEv@QtContacts{00010103}[2002ac7a].dll  - Undefined Reference
    QtMobility::QContactLocalIdFilter::ids() const  - Undefined Reference
    _ZNK10QtMobility21QContactLocalIdFilter3idsEv@QtContacts{00010103}[2002ac7a].dll  - Undefined Reference
    QtMobility::QContactManagerEngine::managerUri() const  - Undefined Reference
    _ZNK10QtMobility21QContactManagerEngine10managerUriEv@QtContacts{00010103}[2002ac7a].dll  - Undefined Reference
    QtMobility::QContactManagerEngine::relationships(const QString&, const QtMobility::QContactId&, QtMobility::QContactRelationship::Role, QtMobility::QContactManager::Error*) const  - Undefined Reference
    _ZNK10QtMobility21QContactManagerEngine13relationshipsERK7QStringRKNS_10QContactIdENS_20QContactRelationship4RoleEPNS_15QContactManager5ErrorE@QtContacts{00010103}[2002ac7a].dll  - Undefined Reference
    QtMobility::QContactManagerEngine::selfContactId(QtMobility::QContactManager::Error*) const  - Undefined Reference
    _ZNK10QtMobility21QContactManagerEngine13selfContactIdEPNS_15QContactManager5ErrorE@QtContacts{00010103}[2002ac7a].dll  - Undefined Reference
    QtMobility::QContactManagerEngine::validateContact(const QtMobility::QContact&, QtMobility::QContactManager::Error*) const  - Undefined Reference
    _ZNK10QtMobility21QContactManagerEngine15validateContactERKNS_8QContactEPNS_15QContactManager5ErrorE@QtContacts{00010103}[2002ac7a].dll  - Undefined Reference
    QtMobility::QContactManagerEngine::detailDefinition(const QString&, const QString&, QtMobility::QContactManager::Error*) const  - Undefined Reference
    _ZNK10QtMobility21QContactManagerEngine16detailDefinitionERK7QStringS3_PNS_15QContactManager5ErrorE@QtContacts{00010103}[2002ac7a].dll  - Undefined Reference
    QtMobility::QContactManagerEngine::compatibleContact(const QtMobility::QContact&, QtMobility::QContactManager::Error*) const  - Undefined Reference
    _ZNK10QtMobility21QContactManagerEngine17compatibleContactERKNS_8QContactEPNS_15QContactManager5ErrorE@QtContacts{00010103}[2002ac7a].dll  - Undefined Reference
    QtMobility::QContactManagerEngine::managerParameters() const  - Undefined Reference
    _ZNK10QtMobility21QContactManagerEngine17managerParametersEv@QtContacts{00010103}[2002ac7a].dll  - Undefined Reference
    QtMobility::QContactManagerEngine::supportedDataTypes() const  - Undefined Reference
    _ZNK10QtMobility21QContactManagerEngine18supportedDataTypesEv@QtContacts{00010103}[2002ac7a].dll  - Undefined Reference
    QtMobility::QContactManagerEngine::validateDefinition(const QtMobility::QContactDetailDefinition&, QtMobility::QContactManager::Error*) const  - Undefined Reference
    _ZNK10QtMobility21QContactManagerEngine18validateDefinitionERKNS_24QContactDetailDefinitionEPNS_15QContactManager5ErrorE@QtContacts{00010103}[2002ac7a].dll  - Undefined Reference
    QtMobility::QContactManagerEngine::isRelationshipTypeSupported(const QString&, const QString&) const  - Undefined Reference
    _ZNK10QtMobility21QContactManagerEngine27isRelationshipTypeSupportedERK7QStringS3_@QtContacts{00010103}[2002ac7a].dll  - Undefined Reference
    QtMobility::QContactRemoveRequest::contactIds() const  - Undefined Reference
    _ZNK10QtMobility21QContactRemoveRequest10contactIdsEv@QtContacts{00010103}[2002ac7a].dll  - Undefined Reference
    QtMobility::QContactRemoveRequest::errorMap() const  - Undefined Reference
    _ZNK10QtMobility21QContactRemoveRequest8errorMapEv@QtContacts{00010103}[2002ac7a].dll  - Undefined Reference
    QtMobility::QContactAbstractRequest::type() const  - Undefined Reference
    _ZNK10QtMobility23QContactAbstractRequest4typeEv@QtContacts{00010103}[2002ac7a].dll  - Undefined Reference
    QtMobility::QContactAbstractRequest::error() const  - Undefined Reference
    _ZNK10QtMobility23QContactAbstractRequest5errorEv@QtContacts{00010103}[2002ac7a].dll  - Undefined Reference
    QtMobility::QContactAbstractRequest::state() const  - Undefined Reference
    _ZNK10QtMobility23QContactAbstractRequest5stateEv@QtContacts{00010103}[2002ac7a].dll  - Undefined Reference
    QtMobility::QContactAbstractRequest::isActive() const  - Undefined Reference
    _ZNK10QtMobility23QContactAbstractRequest8isActiveEv@QtContacts{00010103}[2002ac7a].dll  - Undefined Reference
    QtMobility::QContactDetailDefinition::name() const  - Undefined Reference
    _ZNK10QtMobility24QContactDetailDefinition4nameEv@QtContacts{00010103}[2002ac7a].dll  - Undefined Reference
    QtMobility::QContactLocalIdFetchRequest::ids() const  - Undefined Reference
    _ZNK10QtMobility27QContactLocalIdFetchRequest3idsEv@QtContacts{00010103}[2002ac7a].dll  - Undefined Reference
    QtMobility::QContactLocalIdFetchRequest::filter() const  - Undefined Reference
    _ZNK10QtMobility27QContactLocalIdFetchRequest6filterEv@QtContacts{00010103}[2002ac7a].dll  - Undefined Reference
    QtMobility::QContactLocalIdFetchRequest::sorting() const  - Undefined Reference
    _ZNK10QtMobility27QContactLocalIdFetchRequest7sortingEv@QtContacts{00010103}[2002ac7a].dll  - Undefined Reference
    QtMobility::QContactManagerEngineFactory::supportedImplementationVersions() const  - Undefined Reference
    _ZNK10QtMobility28QContactManagerEngineFactory31supportedImplementationVersionsEv@QtContacts{00010103}[2002ac7a].dll  - Undefined Reference
    QtMobility::QContactDetailDefinitionFetchRequest::contactType() const  - Undefined Reference
    _ZNK10QtMobility36QContactDetailDefinitionFetchRequest11contactTypeEv@QtContacts{00010103}[2002ac7a].dll  - Undefined Reference
    QtMobility::QContactDetailDefinitionFetchRequest::definitionNames() const  - Undefined Reference
    _ZNK10QtMobility36QContactDetailDefinitionFetchRequest15definitionNamesEv@QtContacts{00010103}[2002ac7a].dll  - Undefined Reference
    QtMobility::QContact::id() const          - Undefined Reference
    _ZNK10QtMobility8QContact2idEv@QtContacts{00010103}[2002ac7a].dll  - Undefined Reference
    QtMobility::QContact::detail(const char*) const  - Undefined Reference
    _ZNK10QtMobility8QContact6detailEPKc@QtContacts{00010103}[2002ac7a].dll  - Undefined Reference
    QtMobility::QContact::details(const char*) const  - Undefined Reference
    _ZNK10QtMobility8QContact7detailsEPKc@QtContacts{00010103}[2002ac7a].dll  - Undefined Reference
    QtMobility::QContact::details(const QString&) const  - Undefined Reference
    _ZNK10QtMobility8QContact7detailsERK7QString@QtContacts{00010103}[2002ac7a].dll  - Undefined Reference
    QtMobility::QContact::localId() const     - Undefined Reference
    _ZNK10QtMobility8QContact7localIdEv@QtContacts{00010103}[2002ac7a].dll  - Undefined Reference
    RTelServer::GetPhoneInfo(int, RTelServer::TPhoneInfo&) const  - Undefined Reference
    _ZNK10RTelServer12GetPhoneInfoEiRNS_10TPhoneInfoE@etel{000a0000}[10003d46].dll  - Undefined Reference
    RTelServer::LoadPhoneModule(const TDesC16&) const  - Undefined Reference
    _ZNK10RTelServer15LoadPhoneModuleERK7TDesC16@etel{000a0000}[10003d46].dll  - Undefined Reference
    XLeaveException::GetReason() const        - Undefined Reference
    _ZNK15XLeaveException9GetReasonEv@euser{000a0000}[100039e5].dll  - Undefined Reference
    RMobilePhoneStore::NotifyStoreEvent(TRequestStatus&, unsigned long&, int&) const  - Undefined Reference
    _ZNK17RMobilePhoneStore16NotifyStoreEventER14TRequestStatusRmRi@etelmm{000a0000}[100064dd].dll  - Undefined Reference
    RMobilePhoneStore::Read(TRequestStatus&, TDes8&) const  - Undefined Reference
    _ZNK17RMobilePhoneStore4ReadER14TRequestStatusR5TDes8@etelmm{000a0000}[100064dd].dll  - Undefined Reference
    RMobilePhoneStore::Delete(TRequestStatus&, int) const  - Undefined Reference
    _ZNK17RMobilePhoneStore6DeleteER14TRequestStatusi@etelmm{000a0000}[100064dd].dll  - Undefined Reference
    RMobilePhoneStore::GetInfo(TRequestStatus&, TDes8&) const  - Undefined Reference
    _ZNK17RMobilePhoneStore7GetInfoER14TRequestStatusR5TDes8@etelmm{000a0000}[100064dd].dll  - Undefined Reference
    RTelSubSessionBase::CancelAsyncRequest(int) const  - Undefined Reference
    _ZNK18RTelSubSessionBase18CancelAsyncRequestEi@etel{000a0000}[10003d46].dll  - Undefined Reference
    RMobilePhoneBookStore::Read(TRequestStatus&, int, int, TDes8&) const  - Undefined Reference
    _ZNK21RMobilePhoneBookStore4ReadER14TRequestStatusiiR5TDes8@etelmm{000a0000}[100064dd].dll  - Undefined Reference
    RMobilePhoneBookStore::Write(TRequestStatus&, const TDesC8&, int&) const  - Undefined Reference
    _ZNK21RMobilePhoneBookStore5WriteER14TRequestStatusRK6TDesC8Ri@etelmm{000a0000}[100064dd].dll  - Undefined Reference
    QChar::isDigit() const                    - Undefined Reference
    _ZNK5QChar7isDigitEv@QtCore{00040703}[2001b2dc].dll  - Undefined Reference
    TChar::IsDigit() const                    - Undefined Reference
    _ZNK5TChar7IsDigitEv@euser{000a0000}[100039e5].dll  - Undefined Reference
    QString::toLocal8Bit() const              - Undefined Reference
    _ZNK7QString11toLocal8BitEv@QtCore{00040703}[2001b2dc].dll  - Undefined Reference
    QString::right(int) const                 - Undefined Reference
    _ZNK7QString5rightEi@QtCore{00040703}[2001b2dc].dll  - Undefined Reference
    QString::utf16() const                    - Undefined Reference
    _ZNK7QString5utf16Ev@QtCore{00040703}[2001b2dc].dll  - Undefined Reference
    QString::operator ==(const QLatin1String&) const  - Undefined Reference
    _ZNK7QStringeqERK13QLatin1String@QtCore{00040703}[2001b2dc].dll  - Undefined Reference
    QString::operator ==(const QString&) const  - Undefined Reference
    _ZNK7QStringeqERKS_@QtCore{00040703}[2001b2dc].dll  - Undefined Reference
    QString::operator <(const QString&) const  - Undefined Reference
    _ZNK7QStringltERKS_@QtCore{00040703}[2001b2dc].dll  - Undefined Reference
    TDesC16::AtC(int) const                   - Undefined Reference
    _ZNK7TDesC163AtCEi@euser{000a0000}[100039e5].dll  - Undefined Reference
    TDesC16::Ptr() const                      - Undefined Reference
    _ZNK7TDesC163PtrEv@euser{000a0000}[100039e5].dll  - Undefined Reference
    TDesC16::Match(const TDesC16&) const      - Undefined Reference
    _ZNK7TDesC165MatchERKS_@euser{000a0000}[100039e5].dll  - Undefined Reference
    TDesC16::Right(int) const                 - Undefined Reference
    _ZNK7TDesC165RightEi@euser{000a0000}[100039e5].dll  - Undefined Reference
    TDesC16::Compare(const TDesC16&) const    - Undefined Reference
    _ZNK7TDesC167CompareERKS_@euser{000a0000}[100039e5].dll  - Undefined Reference
    QVariant::toString() const                - Undefined Reference
    _ZNK8QVariant8toStringEv@QtCore{00040703}[2001b2dc].dll  - Undefined Reference
    typeinfo for XLeaveException              - Undefined Reference
    _ZTI15XLeaveException@drtaeabi{000a0000}.dll  - Undefined Reference
    typeinfo for CTimer                       - Undefined Reference
    _ZTI6CTimer@euser{000a0000}[100039e5].dll  - Undefined Reference
    typeinfo for CActive                      - Undefined Reference
    _ZTI7CActive@euser{000a0000}[100039e5].dll  - Undefined Reference
    typeinfo for QObject                      - Undefined Reference
    _ZTI7QObject@QtCore{00040703}[2001b2dc].dll  - Undefined Reference
    typeinfo for QtMobility::QContactManagerEngine  - Undefined Reference
    _ZTIN10QtMobility21QContactManagerEngineE@QtContacts{00010103}[2002ac7a].dll  - Undefined Reference
    typeinfo for QtMobility::QContactManagerEngineFactory  - Undefined Reference
    _ZTIN10QtMobility28QContactManagerEngineFactoryE@QtContacts{00010103}[2002ac7a].dll  - Undefined Reference
    typeinfo for std::bad_alloc               - Undefined Reference
    _ZTISt9bad_alloc@stdnew{000a0000}[20022178].dll  - Undefined Reference
    vtable for QtMobility::QContactManagerEngine  - Undefined Reference
    _ZTVN10QtMobility21QContactManagerEngineE@QtContacts{00010103}[2002ac7a].dll  - Undefined Reference
    vtable for QtMobility::QContactManagerEngineFactory  - Undefined Reference
    _ZTVN10QtMobility28QContactManagerEngineFactoryE@QtContacts{00010103}[2002ac7a].dll  - Undefined Reference
    vtable for __cxxabiv1::__class_type_info  - Undefined Reference
    _ZTVN10__cxxabiv117__class_type_infoE@drtaeabi{000a0000}.dll  - Undefined Reference
    vtable for __cxxabiv1::__si_class_type_info  - Undefined Reference
    _ZTVN10__cxxabiv120__si_class_type_infoE@drtaeabi{000a0000}.dll  - Undefined Reference
    vtable for __cxxabiv1::__vmi_class_type_info  - Undefined Reference
    _ZTVN10__cxxabiv121__vmi_class_type_infoE@drtaeabi{000a0000}.dll  - Undefined Reference
    operator delete (void*)                   - Undefined Reference
    _ZdlPv@stdnew{000a0000}[20022178].dll     - Undefined Reference
    operator new(unsigned)                    - Undefined Reference
    _Znwj@stdnew{000a0000}[20022178].dll      - Undefined Reference
    __aeabi_memcpy4                           - Undefined Reference
    __aeabi_memcpy4@drtaeabi{000a0000}.dll    - Undefined Reference
    __aeabi_unwind_cpp_pr0                    - Undefined Reference
    __aeabi_unwind_cpp_pr0@drtaeabi{000a0000}.dll  - Undefined Reference
    __cxa_begin_catch                         - Undefined Reference
    __cxa_begin_catch@drtaeabi{000a0000}.dll  - Undefined Reference
    __cxa_end_catch                           - Undefined Reference
    __cxa_end_catch@drtaeabi{000a0000}.dll    - Undefined Reference
    __cxa_end_cleanup                         - Undefined Reference
    __cxa_end_cleanup@drtaeabi{000a0000}.dll  - Undefined Reference
    __cxa_guard_abort                         - Undefined Reference
    __cxa_guard_abort@drtaeabi{000a0000}.dll  - Undefined Reference
    __cxa_guard_acquire                       - Undefined Reference
    __cxa_guard_acquire@drtaeabi{000a0000}.dll  - Undefined Reference
    __cxa_guard_release                       - Undefined Reference
    __cxa_guard_release@drtaeabi{000a0000}.dll  - Undefined Reference
    __cxa_pure_virtual                        - Undefined Reference
    __cxa_pure_virtual@drtaeabi{000a0000}.dll  - Undefined Reference
    __cxa_rethrow                             - Undefined Reference
    __cxa_rethrow@drtaeabi{000a0000}.dll      - Undefined Reference
    strcmp                                    - Undefined Reference
    strcmp@libc{00010001}[10207369].dll       - Undefined Reference
    Image$$ER_RO$$Base                       0x00008000   Number         0  anon$$obj.o(linker$$defined$$symbols)
    _E32Dll                                  0x00008000   ARM Code      40  uc_dll_.o(.emb_text)
    Symbian$$CPP$$Exception$$Descriptor      0x00008014   Data           0  uc_dll_.o(.emb_text)
    __cpp_initialize__aeabi_                 0x00008028   ARM Code      52  ucppinit.o(.emb_text)
    std::nothrow                             0x0000805c   ARM Code       0  ucppinit.o(.emb_text)
    __PLT                                    0x0000805c   ARM Code       0  anon$$obj.o(.plt)
    CntSymbianSimEngine::getStaticMetaObject() 0x0000885d   Thumb Code     4  moc_cntsymbiansimengine.o(.text)
    CntSymbianSimEngine::metaObject() const  0x00008861   Thumb Code    28  moc_cntsymbiansimengine.o(.text)
    CntSymbianSimEngine::qt_metacast(const char*) 0x0000887d   Thumb Code    40  moc_cntsymbiansimengine.o(.text)
    CntSymbianSimEngine::qt_metacall(QMetaObject::Call, int, void**) 0x000088a5   Thumb Code    36  moc_cntsymbiansimengine.o(.text)
    CntSymbianSimFactory::getStaticMetaObject() 0x000088c9   Thumb Code     4  moc_cntsymbiansimengine.o(.text)
    CntSymbianSimFactory::metaObject() const 0x000088cd   Thumb Code    28  moc_cntsymbiansimengine.o(.text)
    CntSymbianSimFactory::qt_metacast(const char*) 0x000088e9   Thumb Code    78  moc_cntsymbiansimengine.o(.text)
    CntSymbianSimFactory::qt_metacall(QMetaObject::Call, int, void**) 0x00008937   Thumb Code    36  moc_cntsymbiansimengine.o(.text)
    CntSimStore::getStaticMetaObject()       0x000089c9   Thumb Code     4  moc_cntsimstore.o(.text)
    CntSimStore::metaObject() const          0x000089cd   Thumb Code    28  moc_cntsimstore.o(.text)
    CntSimStore::qt_metacast(const char*)    0x000089e9   Thumb Code    40  moc_cntsimstore.o(.text)
    CntSimStore::getReservedSlotsComplete(QList<int>, QtMobility::QContactManager::Error) 0x00008a11   Thumb Code    40  moc_cntsimstore.o(.text)
    CntSimStore::removeComplete(QtMobility::QContactManager::Error) 0x00008a39   Thumb Code    32  moc_cntsimstore.o(.text)
    CntSimStore::writeComplete(QtMobility::QContact, QtMobility::QContactManager::Error) 0x00008a59   Thumb Code    40  moc_cntsimstore.o(.text)
    CntSimStore::readComplete(QList<QtMobility::QContact>, QtMobility::QContactManager::Error) 0x00008a81   Thumb Code    38  moc_cntsimstore.o(.text)
    CntSimStore::qt_metacall(QMetaObject::Call, int, void**) 0x00008aa7   Thumb Code   238  moc_cntsimstore.o(.text)
    CntAbstractSimRequest::getStaticMetaObject() 0x00008b9d   Thumb Code     4  moc_cntabstractsimrequest.o(.text)
    CntAbstractSimRequest::metaObject() const 0x00008ba1   Thumb Code    28  moc_cntabstractsimrequest.o(.text)
    CntAbstractSimRequest::qt_metacast(const char*) 0x00008bbd   Thumb Code    40  moc_cntabstractsimrequest.o(.text)
    CntAbstractSimRequest::qt_metacall(QMetaObject::Call, int, void**) 0x00008be5   Thumb Code    94  moc_cntabstractsimrequest.o(.text)
    CntSimContactFetchRequest::getStaticMetaObject() 0x00008c4d   Thumb Code     4  moc_cntsimcontactfetchrequest.o(.text)
    CntSimContactFetchRequest::metaObject() const 0x00008c51   Thumb Code    28  moc_cntsimcontactfetchrequest.o(.text)
    CntSimContactFetchRequest::qt_metacast(const char*) 0x00008c6d   Thumb Code    40  moc_cntsimcontactfetchrequest.o(.text)
    CntSimContactFetchRequest::qt_metacall(QMetaObject::Call, int, void**) 0x00008c95   Thumb Code   156  moc_cntsimcontactfetchrequest.o(.text)
    CntSimContactLocalIdFetchRequest::getStaticMetaObject() 0x00008d39   Thumb Code     4  moc_cntsimcontactlocalidfetchrequest.o(.text)
    CntSimContactLocalIdFetchRequest::metaObject() const 0x00008d3d   Thumb Code    28  moc_cntsimcontactlocalidfetchrequest.o(.text)
    CntSimContactLocalIdFetchRequest::qt_metacast(const char*) 0x00008d59   Thumb Code    40  moc_cntsimcontactlocalidfetchrequest.o(.text)
    CntSimContactLocalIdFetchRequest::qt_metacall(QMetaObject::Call, int, void**) 0x00008d81   Thumb Code   156  moc_cntsimcontactlocalidfetchrequest.o(.text)
    CntSimContactRemoveRequest::getStaticMetaObject() 0x00008e25   Thumb Code     4  moc_cntsimcontactremoverequest.o(.text)
    CntSimContactRemoveRequest::metaObject() const 0x00008e29   Thumb Code    28  moc_cntsimcontactremoverequest.o(.text)
    CntSimContactRemoveRequest::qt_metacast(const char*) 0x00008e45   Thumb Code    40  moc_cntsimcontactremoverequest.o(.text)
    CntSimContactRemoveRequest::qt_metacall(QMetaObject::Call, int, void**) 0x00008e6d   Thumb Code   192  moc_cntsimcontactremoverequest.o(.text)
    CntSimContactSaveRequest::getStaticMetaObject() 0x00008f35   Thumb Code     4  moc_cntsimcontactsaverequest.o(.text)
    CntSimContactSaveRequest::metaObject() const 0x00008f39   Thumb Code    28  moc_cntsimcontactsaverequest.o(.text)
    CntSimContactSaveRequest::qt_metacast(const char*) 0x00008f55   Thumb Code    40  moc_cntsimcontactsaverequest.o(.text)
    CntSimContactSaveRequest::qt_metacall(QMetaObject::Call, int, void**) 0x00008f7d   Thumb Code   124  moc_cntsimcontactsaverequest.o(.text)
    CntSimDetailDefinitionFetchRequest::getStaticMetaObject() 0x00009001   Thumb Code     4  moc_cntsimdetaildefinitionfetchrequest.o(.text)
    CntSimDetailDefinitionFetchRequest::metaObject() const 0x00009005   Thumb Code    28  moc_cntsimdetaildefinitionfetchrequest.o(.text)
    CntSimDetailDefinitionFetchRequest::qt_metacast(const char*) 0x00009021   Thumb Code    40  moc_cntsimdetaildefinitionfetchrequest.o(.text)
    CntSimDetailDefinitionFetchRequest::qt_metacall(QMetaObject::Call, int, void**) 0x00009049   Thumb Code    60  moc_cntsimdetaildefinitionfetchrequest.o(.text)
    qt_plugin_query_verification_data        0x0000908d   Thumb Code     4  cntsymbiansimengine.o(.text)
    qt_plugin_instance                       0x00009091   Thumb Code   142  cntsymbiansimengine.o(.text)
    CntSymbianSimPhoneNumberMatching::checkBestMatchingRules(const TDesC16&, CntSymbianSimPhoneNumberMatching::TNumberType, const TDesC16&, CntSymbianSimPhoneNumberMatching::TNumberType) 0x0000911f   Thumb Code   892  cntsymbiansimengine.o(.text)
    CntSymbianSimPhoneNumberMatching::formatAndCheckNumberType(TDes16&) 0x0000949b   Thumb Code   352  cntsymbiansimengine.o(.text)
    CntSymbianSimPhoneNumberMatching::validateBestMatchingRulesL(const TDesC16&, const TDesC16&) 0x000095fb   Thumb Code   126  cntsymbiansimengine.o(.text)
    CntSymbianSimPhoneNumberMatching::isBestMatchL(const QString&, const QString&) 0x00009679   Thumb Code    62  cntsymbiansimengine.o(.text)
    CntSymbianSimEngineData::CntSymbianSimEngineData() 0x000096b7   Thumb Code    46  cntsymbiansimengine.o(.text)
    CntSymbianSimEngineData::CntSymbianSimEngineData__sub_object() 0x000096b7   Thumb Code     0  cntsymbiansimengine.o(.text)
    CntSymbianSimEngineData::~CntSymbianSimEngineData() 0x000096e5   Thumb Code   120  cntsymbiansimengine.o(.text)
    CntSymbianSimEngineData::~CntSymbianSimEngineData__sub_object() 0x000096e5   Thumb Code     0  cntsymbiansimengine.o(.text)
    CntSymbianSimEngine::getMatchLengthL(int&) 0x0000975d   Thumb Code    54  cntsymbiansimengine.o(.text)
    CntSymbianSimEngine::CntSymbianSimEngine(const QMap<QString, QString>&, QtMobility::QContactManager::Error*) 0x00009793   Thumb Code   624  cntsymbiansimengine.o(.text)
    CntSymbianSimEngine::CntSymbianSimEngine__sub_object(const QMap<QString, QString>&, QtMobility::QContactManager::Error*) 0x00009793   Thumb Code     0  cntsymbiansimengine.o(.text)
    CntSymbianSimEngine::CntSymbianSimEngine(const CntSymbianSimEngine&) 0x00009a03   Thumb Code    50  cntsymbiansimengine.o(.text)
    CntSymbianSimEngine::CntSymbianSimEngine__sub_object(const CntSymbianSimEngine&) 0x00009a03   Thumb Code     0  cntsymbiansimengine.o(.text)
    CntSymbianSimEngine::~CntSymbianSimEngine() 0x00009a35   Thumb Code    30  cntsymbiansimengine.o(.text)
    CntSymbianSimEngine::~CntSymbianSimEngine__sub_object() 0x00009a35   Thumb Code     0  cntsymbiansimengine.o(.text)
    CntSymbianSimEngine::~CntSymbianSimEngine__deallocating() 0x00009a53   Thumb Code    22  cntsymbiansimengine.o(.text)
    CntSymbianSimEngine::managerName() const 0x00009a69   Thumb Code    18  cntsymbiansimengine.o(.text)
    CntSymbianSimEngine::requestDestroyed(QtMobility::QContactAbstractRequest*) 0x00009a7b   Thumb Code    56  cntsymbiansimengine.o(.text)
    CntSymbianSimEngine::waitForRequestFinished(QtMobility::QContactAbstractRequest*, int) 0x00009ab3   Thumb Code   170  cntsymbiansimengine.o(.text)
    CntSymbianSimEngine::startRequest(QtMobility::QContactAbstractRequest*) 0x00009b5d   Thumb Code   704  cntsymbiansimengine.o(.text)
    CntSymbianSimEngine::executeRequest(QtMobility::QContactAbstractRequest*, QtMobility::QContactManager::Error*) const 0x00009e1d   Thumb Code   106  cntsymbiansimengine.o(.text)
    CntSymbianSimEngine::contactIds(const QtMobility::QContactFilter&, const QList<QtMobility::QContactSortOrder>&, QtMobility::QContactManager::Error*) const 0x00009e87   Thumb Code    64  cntsymbiansimengine.o(.text)
    CntSymbianSimEngine::contacts(const QtMobility::QContactFilter&, const QList<QtMobility::QContactSortOrder>&, const QtMobility::QContactFetchHint&, QtMobility::QContactManager::Error*) const 0x00009ec7   Thumb Code    72  cntsymbiansimengine.o(.text)
    CntSymbianSimEngine::contact(const unsigned&, const QtMobility::QContactFetchHint&, QtMobility::QContactManager::Error*) const 0x00009f0f   Thumb Code   222  cntsymbiansimengine.o(.text)
    CntSymbianSimEngine::saveContacts(QList<QtMobility::QContact>*, QMap<int, QtMobility::QContactManager::Error>*, QtMobility::QContactManager::Error*) 0x00009fed   Thumb Code   176  cntsymbiansimengine.o(.text)
    CntSymbianSimEngine::removeContacts(const QList<unsigned>&, QMap<int, QtMobility::QContactManager::Error>*, QtMobility::QContactManager::Error*) 0x0000a09d   Thumb Code    90  cntsymbiansimengine.o(.text)
    CntSymbianSimEngine::synthesizedDisplayLabel(const QtMobility::QContact&, QtMobility::QContactManager::Error*) const 0x0000a0f7   Thumb Code   140  cntsymbiansimengine.o(.text)
    CntSymbianSimEngine::detailDefinitions(const QString&, QtMobility::QContactManager::Error*) const 0x0000a183   Thumb Code  1388  cntsymbiansimengine.o(.text)
    CntSymbianSimEngine::cancelRequest(QtMobility::QContactAbstractRequest*) 0x0000a6ef   Thumb Code   102  cntsymbiansimengine.o(.text)
    CntSymbianSimEngine::hasFeature(QtMobility::QContactManager::ManagerFeature, const QString&) const 0x0000a755   Thumb Code    14  cntsymbiansimengine.o(.text)
    CntSymbianSimEngine::isFilterSupported(const QtMobility::QContactFilter&) const 0x0000a763   Thumb Code   138  cntsymbiansimengine.o(.text)
    CntSymbianSimEngine::supportedContactTypes() const 0x0000a7ed   Thumb Code   110  cntsymbiansimengine.o(.text)
    CntSymbianSimEngine::updateDisplayLabel(QtMobility::QContact&) const 0x0000a85b   Thumb Code    46  cntsymbiansimengine.o(.text)
    CntSymbianSimEngine::setReadOnlyAccessConstraint(QtMobility::QContactDetail*) const 0x0000a889   Thumb Code    26  cntsymbiansimengine.o(.text)
    CntSymbianSimEngine::filter(const QtMobility::QContactFilter&, const QtMobility::QContact&) 0x0000a8a3   Thumb Code   752  cntsymbiansimengine.o(.text)
    CntSymbianSimFactory::engine(const QMap<QString, QString>&, QtMobility::QContactManager::Error*) 0x0000ab93   Thumb Code    72  cntsymbiansimengine.o(.text)
    thunk{-8} to CntSymbianSimFactory::engine(const QMap<QString, QString>&, QtMobility::QContactManager::Error*) 0x0000abdb   Thumb Code    22  cntsymbiansimengine.o(.text)
    CntSymbianSimFactory::managerName() const 0x0000abf1   Thumb Code    18  cntsymbiansimengine.o(.text)
    thunk{-8} to CntSymbianSimFactory::managerName() const 0x0000ac03   Thumb Code    18  cntsymbiansimengine.o(.text)
    CntSymbianSimTransformError::transformError(int, QtMobility::QContactManager::Error*) 0x0000ac29   Thumb Code   144  cntsymbiansimtransformerror.o(.text)
    CntSimStore::CntSimStore(CntSymbianSimEngine*, QString, QtMobility::QContactManager::Error*) 0x0000acbd   Thumb Code   142  cntsimstore.o(.text)
    CntSimStore::CntSimStore__sub_object(CntSymbianSimEngine*, QString, QtMobility::QContactManager::Error*) 0x0000acbd   Thumb Code     0  cntsimstore.o(.text)
    CntSimStore::~CntSimStore()              0x0000ad4b   Thumb Code    34  cntsimstore.o(.text)
    CntSimStore::~CntSimStore__sub_object()  0x0000ad4b   Thumb Code     0  cntsimstore.o(.text)
    CntSimStore::~CntSimStore__deallocating() 0x0000ad6d   Thumb Code    22  cntsimstore.o(.text)
    CntSimStore::storeInfo()                 0x0000ad83   Thumb Code   112  cntsimstore.o(.text)
    CntSimStore::read(int, int, QtMobility::QContactManager::Error*) 0x0000adf3   Thumb Code    24  cntsimstore.o(.text)
    CntSimStore::write(const QtMobility::QContact&, QtMobility::QContactManager::Error*) 0x0000ae0b   Thumb Code    20  cntsimstore.o(.text)
    CntSimStore::remove(int, QtMobility::QContactManager::Error*) 0x0000ae1f   Thumb Code    20  cntsimstore.o(.text)
    CntSimStore::getReservedSlots(QtMobility::QContactManager::Error*) 0x0000ae33   Thumb Code    16  cntsimstore.o(.text)
    CntSimStore::cancel()                    0x0000ae43   Thumb Code    12  cntsimstore.o(.text)
    CntSimStore::isBusy()                    0x0000ae4f   Thumb Code    22  cntsimstore.o(.text)
    CntSimStore::lastAsyncError()            0x0000ae65   Thumb Code    10  cntsimstore.o(.text)
    CDispatcherTimer::ConstructL()           0x0000aec1   Thumb Code    18  cntsimstoreprivate.o(.text)
    CDispatcherTimer::CDispatcherTimer(MDispatcherTimeOut&) 0x0000aed3   Thumb Code    26  cntsimstoreprivate.o(.text)
    CDispatcherTimer::CDispatcherTimer__sub_object(MDispatcherTimeOut&) 0x0000aed3   Thumb Code     0  cntsimstoreprivate.o(.text)
    CDispatcherTimer::NewL(MDispatcherTimeOut&) 0x0000aeed   Thumb Code    52  cntsimstoreprivate.o(.text)
    CDispatcherTimer::~CDispatcherTimer()    0x0000af21   Thumb Code    14  cntsimstoreprivate.o(.text)
    CDispatcherTimer::~CDispatcherTimer__sub_object() 0x0000af21   Thumb Code     0  cntsimstoreprivate.o(.text)
    CDispatcherTimer::~CDispatcherTimer__deallocating() 0x0000af2f   Thumb Code    22  cntsimstoreprivate.o(.text)
    CDispatcherTimer::RunL()                 0x0000af45   Thumb Code    16  cntsimstoreprivate.o(.text)
    CDispatcherTimer::RunError(int)          0x0000af55   Thumb Code     6  cntsimstoreprivate.o(.text)
    CStoreInfoDispatcher::ConstructL()       0x0000af5b   Thumb Code    40  cntsimstoreprivate.o(.text)
    CStoreInfoDispatcher::CStoreInfoDispatcher(RMobilePhoneBookStore&, RMobileONStore&) 0x0000af83   Thumb Code    40  cntsimstoreprivate.o(.text)
    CStoreInfoDispatcher::CStoreInfoDispatcher__sub_object(RMobilePhoneBookStore&, RMobileONStore&) 0x0000af83   Thumb Code     0  cntsimstoreprivate.o(.text)
    CStoreInfoDispatcher::NewL(RMobilePhoneBookStore&, RMobileONStore&) 0x0000afab   Thumb Code    56  cntsimstoreprivate.o(.text)
    CStoreInfoDispatcher::~CStoreInfoDispatcher() 0x0000afe3   Thumb Code    60  cntsimstoreprivate.o(.text)
    CStoreInfoDispatcher::~CStoreInfoDispatcher__sub_object() 0x0000afe3   Thumb Code     0  cntsimstoreprivate.o(.text)
    CStoreInfoDispatcher::~CStoreInfoDispatcher__deallocating() 0x0000b01f   Thumb Code    22  cntsimstoreprivate.o(.text)
    CStoreInfoDispatcher::DispatchL(TPckg<RMobilePhoneBookStore::TMobilePhoneBookInfoV1>&) 0x0000b035   Thumb Code    58  cntsimstoreprivate.o(.text)
    CStoreInfoDispatcher::DispatchL(TPckg<RMobilePhoneBookStore::TMobilePhoneBookInfoV5>&) 0x0000b06f   Thumb Code    58  cntsimstoreprivate.o(.text)
    CStoreInfoDispatcher::DispatchL(TPckg<RMobileONStore::TMobileONStoreInfoV1>&) 0x0000b0a9   Thumb Code    58  cntsimstoreprivate.o(.text)
    CStoreInfoDispatcher::TimerExpired()     0x0000b0e3   Thumb Code    12  cntsimstoreprivate.o(.text)
    thunk{-28} to CStoreInfoDispatcher::TimerExpired() 0x0000b0ef   Thumb Code    14  cntsimstoreprivate.o(.text)
    CStoreInfoDispatcher::StopWait()         0x0000b0fd   Thumb Code    36  cntsimstoreprivate.o(.text)
    CStoreInfoDispatcher::DoCancel()         0x0000b121   Thumb Code    54  cntsimstoreprivate.o(.text)
    CStoreInfoDispatcher::RunL()             0x0000b157   Thumb Code    24  cntsimstoreprivate.o(.text)
    CStoreInfoDispatcher::RunError(int)      0x0000b16f   Thumb Code     6  cntsimstoreprivate.o(.text)
    CntSimStorePrivate::updateStoreInfoL()   0x0000b175   Thumb Code   110  cntsimstoreprivate.o(.text)
    CntSimStorePrivate::convertStoreNameL(TDes16&) 0x0000b1e3   Thumb Code   310  cntsimstoreprivate.o(.text)
    CntSimStorePrivate::ConstructL()         0x0000b319   Thumb Code   278  cntsimstoreprivate.o(.text)
    CntSimStorePrivate::CntSimStorePrivate(CntSymbianSimEngine&, CntSimStore&, const QString&) 0x0000b42f   Thumb Code   260  cntsimstoreprivate.o(.text)
    CntSimStorePrivate::CntSimStorePrivate__sub_object(CntSymbianSimEngine&, CntSimStore&, const QString&) 0x0000b42f   Thumb Code     0  cntsimstoreprivate.o(.text)
    CntSimStorePrivate::NewL(CntSymbianSimEngine&, CntSimStore&, const QString&) 0x0000b533   Thumb Code    58  cntsimstoreprivate.o(.text)
    CntSimStorePrivate::~CntSimStorePrivate() 0x0000b56d   Thumb Code   134  cntsimstoreprivate.o(.text)
    CntSimStorePrivate::~CntSimStorePrivate__sub_object() 0x0000b56d   Thumb Code     0  cntsimstoreprivate.o(.text)
    CntSimStorePrivate::~CntSimStorePrivate__deallocating() 0x0000b5f3   Thumb Code    22  cntsimstoreprivate.o(.text)
    CntSimStorePrivate::read(int, int, QtMobility::QContactManager::Error*) 0x0000b609   Thumb Code   500  cntsimstoreprivate.o(.text)
    CntSimStorePrivate::putTagAndValueL(CPhoneBookBuffer*, unsigned char, QString) const 0x0000b7fd   Thumb Code    46  cntsimstoreprivate.o(.text)
    CntSimStorePrivate::encodeSimContactL(QtMobility::QContact*, TDes8&) const 0x0000b82b   Thumb Code  1302  cntsimstoreprivate.o(.text)
    CntSimStorePrivate::write(const QtMobility::QContact&, QtMobility::QContactManager::Error*) 0x0000bd41   Thumb Code   300  cntsimstoreprivate.o(.text)
    CntSimStorePrivate::remove(int, QtMobility::QContactManager::Error*) 0x0000be6d   Thumb Code    74  cntsimstoreprivate.o(.text)
    CntSimStorePrivate::getReservedSlots(QtMobility::QContactManager::Error*) 0x0000beb7   Thumb Code   100  cntsimstoreprivate.o(.text)
    CntSimStorePrivate::decodeReservedSlotsL(TDes8&) const 0x0000bf1b   Thumb Code   136  cntsimstoreprivate.o(.text)
    CntSimStorePrivate::decodeSimContactsL(TDes8&) const 0x0000bfb1   Thumb Code  1280  cntsimstoreprivate.o(.text)
    CntSimStorePrivate::RunL()               0x0000c4b1   Thumb Code   726  cntsimstoreprivate.o(.text)
    CntSimStorePrivate::DoCancel()           0x0000c787   Thumb Code    76  cntsimstoreprivate.o(.text)
    CntSimStorePrivate::RunError(int)        0x0000c7d3   Thumb Code   162  cntsimstoreprivate.o(.text)
    CntSimStorePrivate::writeL(QtMobility::QContact*) 0x0000c875   Thumb Code   238  cntsimstoreprivate.o(.text)
    CntSimStorePrivate::removeL(int)         0x0000c963   Thumb Code    78  cntsimstoreprivate.o(.text)
    CntSimStoreEventListener::CntSimStoreEventListener(CntSymbianSimEngine&, RMobilePhoneStore&) 0x0000c9b1   Thumb Code    36  cntsimstoreeventlistener.o(.text)
    CntSimStoreEventListener::CntSimStoreEventListener__sub_object(CntSymbianSimEngine&, RMobilePhoneStore&) 0x0000c9b1   Thumb Code     0  cntsimstoreeventlistener.o(.text)
    CntSimStoreEventListener::~CntSimStoreEventListener() 0x0000c9d5   Thumb Code    24  cntsimstoreeventlistener.o(.text)
    CntSimStoreEventListener::~CntSimStoreEventListener__sub_object() 0x0000c9d5   Thumb Code     0  cntsimstoreeventlistener.o(.text)
    CntSimStoreEventListener::~CntSimStoreEventListener__deallocating() 0x0000c9ed   Thumb Code    22  cntsimstoreeventlistener.o(.text)
    CntSimStoreEventListener::start()        0x0000ca03   Thumb Code    40  cntsimstoreeventlistener.o(.text)
    CntSimStoreEventListener::DoCancel()     0x0000ca2b   Thumb Code    26  cntsimstoreeventlistener.o(.text)
    CntSimStoreEventListener::RunL()         0x0000ca45   Thumb Code   204  cntsimstoreeventlistener.o(.text)
    CntAbstractSimRequest::CntAbstractSimRequest__sub_object(CntSymbianSimEngine*, QtMobility::QContactAbstractRequest*) 0x0000cb49   Thumb Code    34  cntabstractsimrequest.o(.text)
    CntAbstractSimRequest::singleShotTimer(int, QObject*, const char*) 0x0000cb6b   Thumb Code   102  cntabstractsimrequest.o(.text)
    CntAbstractSimRequest::start()           0x0000cbd1   Thumb Code    46  cntabstractsimrequest.o(.text)
    CntAbstractSimRequest::engine()          0x0000cbff   Thumb Code    14  cntabstractsimrequest.o(.text)
    CntAbstractSimRequest::simStore()        0x0000cc0d   Thumb Code    20  cntabstractsimrequest.o(.text)
    CntAbstractSimRequest::cancelTimer()     0x0000cc21   Thumb Code    26  cntabstractsimrequest.o(.text)
    CntAbstractSimRequest::cancel()          0x0000cc3b   Thumb Code    48  cntabstractsimrequest.o(.text)
    CntAbstractSimRequest::waitAndRetry()    0x0000cc6b   Thumb Code    36  cntabstractsimrequest.o(.text)
    CntSimContactFetchRequest::CntSimContactFetchRequest(CntSymbianSimEngine*, QtMobility::QContactFetchRequest*) 0x0000ccb5   Thumb Code    50  cntsimcontactfetchrequest.o(.text)
    CntSimContactFetchRequest::CntSimContactFetchRequest__sub_object(CntSymbianSimEngine*, QtMobility::QContactFetchRequest*) 0x0000ccb5   Thumb Code     0  cntsimcontactfetchrequest.o(.text)
    CntSimContactFetchRequest::~CntSimContactFetchRequest() 0x0000cce7   Thumb Code    28  cntsimcontactfetchrequest.o(.text)
    CntSimContactFetchRequest::~CntSimContactFetchRequest__sub_object() 0x0000cce7   Thumb Code     0  cntsimcontactfetchrequest.o(.text)
    CntSimContactFetchRequest::~CntSimContactFetchRequest__deallocating() 0x0000cd03   Thumb Code    22  cntsimcontactfetchrequest.o(.text)
    CntSimContactFetchRequest::run()         0x0000cd19   Thumb Code   300  cntsimcontactfetchrequest.o(.text)
    CntSimContactFetchRequest::readComplete(QList<QtMobility::QContact>, QtMobility::QContactManager::Error) 0x0000ce45   Thumb Code   214  cntsimcontactfetchrequest.o(.text)
    CntSimContactLocalIdFetchRequest::CntSimContactLocalIdFetchRequest(CntSymbianSimEngine*, QtMobility::QContactLocalIdFetchRequest*) 0x0000cf9d   Thumb Code    50  cntsimcontactlocalidfetchrequest.o(.text)
    CntSimContactLocalIdFetchRequest::CntSimContactLocalIdFetchRequest__sub_object(CntSymbianSimEngine*, QtMobility::QContactLocalIdFetchRequest*) 0x0000cf9d   Thumb Code     0  cntsimcontactlocalidfetchrequest.o(.text)
    CntSimContactLocalIdFetchRequest::~CntSimContactLocalIdFetchRequest() 0x0000cfcf   Thumb Code    28  cntsimcontactlocalidfetchrequest.o(.text)
    CntSimContactLocalIdFetchRequest::~CntSimContactLocalIdFetchRequest__sub_object() 0x0000cfcf   Thumb Code     0  cntsimcontactlocalidfetchrequest.o(.text)
    CntSimContactLocalIdFetchRequest::~CntSimContactLocalIdFetchRequest__deallocating() 0x0000cfeb   Thumb Code    22  cntsimcontactlocalidfetchrequest.o(.text)
    CntSimContactLocalIdFetchRequest::run()  0x0000d001   Thumb Code   124  cntsimcontactlocalidfetchrequest.o(.text)
    CntSimContactLocalIdFetchRequest::readComplete(QList<QtMobility::QContact>, QtMobility::QContactManager::Error) 0x0000d07d   Thumb Code   274  cntsimcontactlocalidfetchrequest.o(.text)
    CntSimContactRemoveRequest::CntSimContactRemoveRequest(CntSymbianSimEngine*, QtMobility::QContactRemoveRequest*) 0x0000d215   Thumb Code   114  cntsimcontactremoverequest.o(.text)
    CntSimContactRemoveRequest::CntSimContactRemoveRequest__sub_object(CntSymbianSimEngine*, QtMobility::QContactRemoveRequest*) 0x0000d215   Thumb Code     0  cntsimcontactremoverequest.o(.text)
    CntSimContactRemoveRequest::~CntSimContactRemoveRequest() 0x0000d287   Thumb Code    64  cntsimcontactremoverequest.o(.text)
    CntSimContactRemoveRequest::~CntSimContactRemoveRequest__sub_object() 0x0000d287   Thumb Code     0  cntsimcontactremoverequest.o(.text)
    CntSimContactRemoveRequest::~CntSimContactRemoveRequest__deallocating() 0x0000d2c7   Thumb Code    22  cntsimcontactremoverequest.o(.text)
    CntSimContactRemoveRequest::getReservedSlots() 0x0000d2dd   Thumb Code    60  cntsimcontactremoverequest.o(.text)
    CntSimContactRemoveRequest::run()        0x0000d319   Thumb Code   202  cntsimcontactremoverequest.o(.text)
    CntSimContactRemoveRequest::removeComplete(QtMobility::QContactManager::Error) 0x0000d3e3   Thumb Code    62  cntsimcontactremoverequest.o(.text)
    CntSimContactRemoveRequest::removeNext() 0x0000d421   Thumb Code   552  cntsimcontactremoverequest.o(.text)
    CntSimContactRemoveRequest::getReservedSlotsComplete(QList<int>, QtMobility::QContactManager::Error) 0x0000d649   Thumb Code    74  cntsimcontactremoverequest.o(.text)
    CntSimContactSaveRequest::CntSimContactSaveRequest(CntSymbianSimEngine*, QtMobility::QContactSaveRequest*) 0x0000d6a5   Thumb Code    74  cntsimcontactsaverequest.o(.text)
    CntSimContactSaveRequest::CntSimContactSaveRequest__sub_object(CntSymbianSimEngine*, QtMobility::QContactSaveRequest*) 0x0000d6a5   Thumb Code     0  cntsimcontactsaverequest.o(.text)
    CntSimContactSaveRequest::~CntSimContactSaveRequest() 0x0000d6ef   Thumb Code    52  cntsimcontactsaverequest.o(.text)
    CntSimContactSaveRequest::~CntSimContactSaveRequest__sub_object() 0x0000d6ef   Thumb Code     0  cntsimcontactsaverequest.o(.text)
    CntSimContactSaveRequest::~CntSimContactSaveRequest__deallocating() 0x0000d723   Thumb Code    22  cntsimcontactsaverequest.o(.text)
    CntSimContactSaveRequest::writeNext()    0x0000d739   Thumb Code   340  cntsimcontactsaverequest.o(.text)
    CntSimContactSaveRequest::run()          0x0000d88d   Thumb Code   194  cntsimcontactsaverequest.o(.text)
    CntSimContactSaveRequest::writeComplete(QtMobility::QContact, QtMobility::QContactManager::Error) 0x0000d94f   Thumb Code   134  cntsimcontactsaverequest.o(.text)
    CntSimDetailDefinitionFetchRequest::CntSimDetailDefinitionFetchRequest(CntSymbianSimEngine*, QtMobility::QContactDetailDefinitionFetchRequest*) 0x0000da61   Thumb Code    28  cntsimdetaildefinitionfetchrequest.o(.text)
    CntSimDetailDefinitionFetchRequest::CntSimDetailDefinitionFetchRequest__sub_object(CntSymbianSimEngine*, QtMobility::QContactDetailDefinitionFetchRequest*) 0x0000da61   Thumb Code     0  cntsimdetaildefinitionfetchrequest.o(.text)
    CntSimDetailDefinitionFetchRequest::~CntSimDetailDefinitionFetchRequest() 0x0000da7d   Thumb Code    28  cntsimdetaildefinitionfetchrequest.o(.text)
    CntSimDetailDefinitionFetchRequest::~CntSimDetailDefinitionFetchRequest__sub_object() 0x0000da7d   Thumb Code     0  cntsimdetaildefinitionfetchrequest.o(.text)
    CntSimDetailDefinitionFetchRequest::~CntSimDetailDefinitionFetchRequest__deallocating() 0x0000da99   Thumb Code    22  cntsimdetaildefinitionfetchrequest.o(.text)
    CntSimDetailDefinitionFetchRequest::run() 0x0000daaf   Thumb Code   682  cntsimdetaildefinitionfetchrequest.o(.text)
    __ARM_switch8                            0x0000dd70   ARM Code      24  switch8.o(.text)
    __rt_switch8                             0x0000dd70   ARM Code       0  switch8.o(.text)
    _E32Dll_Body                             0x0000dd88   ARM Code      76  uc_dll.o(.text)
    __aeabi_atexit                           0x0000ddd8   ARM Code      40  ucppfini.o(.text)
    __cxa_atexit                             0x0000de00   ARM Code      64  ucppfini.o(.text)
    __cxa_finalize                           0x0000de40   ARM Code      48  ucppfini.o(.text)
    run_static_dtors                         0x0000de70   ARM Code      16  ucppfini.o(.text)
    __DLL_Export_Table__                     0x0000de8c   ARM Code       4  dllexp.o(.text)
    qWarning()                               0x0000e6f1   Thumb Code   124  cntsimstoreeventlistener.o(i._Z8qWarningv)
    QByteArray::~QByteArray()                0x0000e789   Thumb Code    24  cntsimstoreeventlistener.o(i._ZN10QByteArrayD1Ev)
    QByteArray::~QByteArray__sub_object()    0x0000e789   Thumb Code     0  cntsimstoreeventlistener.o(i._ZN10QByteArrayD1Ev)
    QtMobility::QContactName::setCustomLabel(const QString&) 0x0000e7a1   Thumb Code    44  cntsimstoreprivate.o(i._ZN10QtMobility12QContactName14setCustomLabelERK7QString)
    QtMobility::QContactName::QContactName() 0x0000e7dd   Thumb Code    22  cntsimstoreprivate.o(i._ZN10QtMobility12QContactNameC1Ev)
    QtMobility::QContactName::QContactName__sub_object() 0x0000e7dd   Thumb Code     0  cntsimstoreprivate.o(i._ZN10QtMobility12QContactNameC1Ev)
    QtMobility::QContactName::~QContactName() 0x0000e7f9   Thumb Code    14  cntsymbiansimengine.o(i._ZN10QtMobility12QContactNameD1Ev)
    QtMobility::QContactName::~QContactName__sub_object() 0x0000e7f9   Thumb Code     0  cntsymbiansimengine.o(i._ZN10QtMobility12QContactNameD1Ev)
    QtMobility::QContactType::QContactType(const QtMobility::QContactDetail&) 0x0000e809   Thumb Code    26  cntsimstoreprivate.o(i._ZN10QtMobility12QContactTypeC1ERKNS_14QContactDetailE)
    QtMobility::QContactType::QContactType__sub_object(const QtMobility::QContactDetail&) 0x0000e809   Thumb Code     0  cntsimstoreprivate.o(i._ZN10QtMobility12QContactTypeC1ERKNS_14QContactDetailE)
    QtMobility::QContactType::~QContactType() 0x0000e829   Thumb Code    14  cntsimstoreprivate.o(i._ZN10QtMobility12QContactTypeD1Ev)
    QtMobility::QContactType::~QContactType__sub_object() 0x0000e829   Thumb Code     0  cntsimstoreprivate.o(i._ZN10QtMobility12QContactTypeD1Ev)
    QtMobility::QContactNickname::~QContactNickname() 0x0000e837   Thumb Code    14  cntsimstoreprivate.o(i._ZN10QtMobility16QContactNicknameD1Ev)
    QtMobility::QContactNickname::~QContactNickname__sub_object() 0x0000e837   Thumb Code     0  cntsimstoreprivate.o(i._ZN10QtMobility16QContactNicknameD1Ev)
    QtMobility::QContactSyncTarget::setSyncTarget(const QString&) 0x0000e845   Thumb Code    44  cntsimstoreprivate.o(i._ZN10QtMobility18QContactSyncTarget13setSyncTargetERK7QString)
    QtMobility::QContactSyncTarget::~QContactSyncTarget() 0x0000e87f   Thumb Code    14  cntsimstoreprivate.o(i._ZN10QtMobility18QContactSyncTargetD1Ev)
    QtMobility::QContactSyncTarget::~QContactSyncTarget__sub_object() 0x0000e87f   Thumb Code     0  cntsimstoreprivate.o(i._ZN10QtMobility18QContactSyncTargetD1Ev)
    QtMobility::QContactPhoneNumber::setNumber(const QString&) 0x0000e88d   Thumb Code    44  cntsimstoreprivate.o(i._ZN10QtMobility19QContactPhoneNumber9setNumberERK7QString)
    QtMobility::QContactPhoneNumber::QContactPhoneNumber(const QtMobility::QContactDetail&) 0x0000e8c9   Thumb Code    26  cntsimstoreprivate.o(i._ZN10QtMobility19QContactPhoneNumberC1ERKNS_14QContactDetailE)
    QtMobility::QContactPhoneNumber::QContactPhoneNumber__sub_object(const QtMobility::QContactDetail&) 0x0000e8c9   Thumb Code     0  cntsimstoreprivate.o(i._ZN10QtMobility19QContactPhoneNumberC1ERKNS_14QContactDetailE)
    QtMobility::QContactPhoneNumber::QContactPhoneNumber(const QtMobility::QContactPhoneNumber&) 0x0000e8e9   Thumb Code    18  cntsymbiansimengine.o(i._ZN10QtMobility19QContactPhoneNumberC1ERKS0_)
    QtMobility::QContactPhoneNumber::QContactPhoneNumber__sub_object(const QtMobility::QContactPhoneNumber&) 0x0000e8e9   Thumb Code     0  cntsymbiansimengine.o(i._ZN10QtMobility19QContactPhoneNumberC1ERKS0_)
    QtMobility::QContactPhoneNumber::QContactPhoneNumber() 0x0000e8fd   Thumb Code    22  cntsimstoreprivate.o(i._ZN10QtMobility19QContactPhoneNumberC1Ev)
    QtMobility::QContactPhoneNumber::QContactPhoneNumber__sub_object() 0x0000e8fd   Thumb Code     0  cntsimstoreprivate.o(i._ZN10QtMobility19QContactPhoneNumberC1Ev)
    QtMobility::QContactPhoneNumber::~QContactPhoneNumber() 0x0000e919   Thumb Code    14  cntsymbiansimengine.o(i._ZN10QtMobility19QContactPhoneNumberD1Ev)
    QtMobility::QContactPhoneNumber::~QContactPhoneNumber__sub_object() 0x0000e919   Thumb Code     0  cntsymbiansimengine.o(i._ZN10QtMobility19QContactPhoneNumberD1Ev)
    QtMobility::QContactDetailFilter::~QContactDetailFilter() 0x0000e927   Thumb Code    14  cntsymbiansimengine.o(i._ZN10QtMobility20QContactDetailFilterD1Ev)
    QtMobility::QContactDetailFilter::~QContactDetailFilter__sub_object() 0x0000e927   Thumb Code     0  cntsymbiansimengine.o(i._ZN10QtMobility20QContactDetailFilterD1Ev)
    QtMobility::QContactEmailAddress::~QContactEmailAddress() 0x0000e935   Thumb Code    14  cntsimstoreprivate.o(i._ZN10QtMobility20QContactEmailAddressD1Ev)
    QtMobility::QContactEmailAddress::~QContactEmailAddress__sub_object() 0x0000e935   Thumb Code     0  cntsimstoreprivate.o(i._ZN10QtMobility20QContactEmailAddressD1Ev)
    QtMobility::QContactLocalIdFilter::~QContactLocalIdFilter() 0x0000e943   Thumb Code    14  cntsymbiansimengine.o(i._ZN10QtMobility21QContactLocalIdFilterD1Ev)
    QtMobility::QContactLocalIdFilter::~QContactLocalIdFilter__sub_object() 0x0000e943   Thumb Code     0  cntsymbiansimengine.o(i._ZN10QtMobility21QContactLocalIdFilterD1Ev)
    QtMobility::QContactManagerEngine::QContactManagerEngine__sub_object() 0x0000e951   Thumb Code    22  cntsymbiansimengine.o(i._ZN10QtMobility21QContactManagerEngineC2Ev)
    QtMobility::QContactManagerEngine::~QContactManagerEngine() 0x0000e96d   Thumb Code     0  cntsymbiansimengine.o(i._ZN10QtMobility21QContactManagerEngineD2Ev)
    QtMobility::QContactManagerEngine::~QContactManagerEngine__sub_object() 0x0000e96d   Thumb Code    14  cntsymbiansimengine.o(i._ZN10QtMobility21QContactManagerEngineD2Ev)
    QStringList::~QStringList()              0x0000e97b   Thumb Code    14  cntsymbiansimengine.o(i._ZN11QStringListD1Ev)
    QStringList::~QStringList__sub_object()  0x0000e97b   Thumb Code     0  cntsymbiansimengine.o(i._ZN11QStringListD1Ev)
    SimStoreInfo::~SimStoreInfo()            0x0000e989   Thumb Code    14  cntsymbiansimengine.o(i._ZN12SimStoreInfoD1Ev)
    SimStoreInfo::~SimStoreInfo__sub_object() 0x0000e989   Thumb Code     0  cntsymbiansimengine.o(i._ZN12SimStoreInfoD1Ev)
    QBasicAtomicInt::ref()                   0x0000e997   Thumb Code    24  moc_cntsimstore.o(i._ZN15QBasicAtomicInt3refEv)
    QBasicAtomicInt::deref()                 0x0000e9af   Thumb Code    24  moc_cntsimstore.o(i._ZN15QBasicAtomicInt5derefEv)
    QForeachContainer<QList<QtMobility::QContactDetail>>::~QForeachContainer() 0x0000e9c7   Thumb Code    14  cntsimstoreprivate.o(i._ZN17QForeachContainerI5QListIN10QtMobility14QContactDetailEEED1Ev)
    QForeachContainer<QList<QtMobility::QContactDetail>>::~QForeachContainer__sub_object() 0x0000e9c7   Thumb Code     0  cntsimstoreprivate.o(i._ZN17QForeachContainerI5QListIN10QtMobility14QContactDetailEEED1Ev)
    QForeachContainer<QList<QtMobility::QContactPhoneNumber>>::~QForeachContainer() 0x0000e9d5   Thumb Code    14  cntsymbiansimengine.o(i._ZN17QForeachContainerI5QListIN10QtMobility19QContactPhoneNumberEEED1Ev)
    QForeachContainer<QList<QtMobility::QContactPhoneNumber>>::~QForeachContainer__sub_object() 0x0000e9d5   Thumb Code     0  cntsymbiansimengine.o(i._ZN17QForeachContainerI5QListIN10QtMobility19QContactPhoneNumberEEED1Ev)
    QForeachContainer<QList<QtMobility::QContactAbstractRequest*>>::~QForeachContainer() 0x0000e9e3   Thumb Code    14  cntsymbiansimengine.o(i._ZN17QForeachContainerI5QListIPN10QtMobility23QContactAbstractRequestEEED1Ev)
    QForeachContainer<QList<QtMobility::QContactAbstractRequest*>>::~QForeachContainer__sub_object() 0x0000e9e3   Thumb Code     0  cntsymbiansimengine.o(i._ZN17QForeachContainerI5QListIPN10QtMobility23QContactAbstractRequestEEED1Ev)
    QForeachContainer<QString>::~QForeachContainer() 0x0000e9f1   Thumb Code    14  cntsimstoreprivate.o(i._ZN17QForeachContainerI7QStringED1Ev)
    QForeachContainer<QString>::~QForeachContainer__sub_object() 0x0000e9f1   Thumb Code     0  cntsimstoreprivate.o(i._ZN17QForeachContainerI7QStringED1Ev)
    CntSymbianSimFactory::~CntSymbianSimFactory__deallocating() 0x0000e9ff   Thumb Code    22  moc_cntsymbiansimengine.o(i._ZN20CntSymbianSimFactoryD0Ev)
    CntSymbianSimFactory::~CntSymbianSimFactory() 0x0000ea15   Thumb Code    26  moc_cntsymbiansimengine.o(i._ZN20CntSymbianSimFactoryD1Ev)
    CntSymbianSimFactory::~CntSymbianSimFactory__sub_object() 0x0000ea15   Thumb Code     0  moc_cntsymbiansimengine.o(i._ZN20CntSymbianSimFactoryD1Ev)
    CntAbstractSimRequest::~CntAbstractSimRequest__deallocating() 0x0000ea39   Thumb Code    24  moc_cntabstractsimrequest.o(i._ZN21CntAbstractSimRequestD0Ev)
    CntAbstractSimRequest::~CntAbstractSimRequest() 0x0000ea51   Thumb Code     0  moc_cntabstractsimrequest.o(i._ZN21CntAbstractSimRequestD2Ev)
    CntAbstractSimRequest::~CntAbstractSimRequest__sub_object() 0x0000ea51   Thumb Code    14  moc_cntabstractsimrequest.o(i._ZN21CntAbstractSimRequestD2Ev)
    QDebug::maybeSpace()                     0x0000ea5f   Thumb Code    24  cntsimstoreeventlistener.o(i._ZN6QDebug10maybeSpaceEv)
    QDebug::~QDebug()                        0x0000ea77   Thumb Code   160  cntsimstoreeventlistener.o(i._ZN6QDebugD1Ev)
    QDebug::~QDebug__sub_object()            0x0000ea77   Thumb Code     0  cntsimstoreeventlistener.o(i._ZN6QDebugD1Ev)
    TDes16::operator [](int)                 0x0000eb2b   Thumb Code    16  cntsymbiansimengine.o(i._ZN6TDes16ixEi)
    QString::QString(const char*)            0x0000eb3b   Thumb Code    22  cntsymbiansimengine.o(i._ZN7QStringC1EPKc)
    QString::QString__sub_object(const char*) 0x0000eb3b   Thumb Code     0  cntsymbiansimengine.o(i._ZN7QStringC1EPKc)
    QString::QString(const QLatin1String&)   0x0000eb51   Thumb Code    26  cntsymbiansimengine.o(i._ZN7QStringC1ERK13QLatin1String)
    QString::QString__sub_object(const QLatin1String&) 0x0000eb51   Thumb Code     0  cntsymbiansimengine.o(i._ZN7QStringC1ERK13QLatin1String)
    QString::QString(const QString&)         0x0000eb6b   Thumb Code    22  cntsymbiansimengine.o(i._ZN7QStringC1ERKS_)
    QString::QString__sub_object(const QString&) 0x0000eb6b   Thumb Code     0  cntsymbiansimengine.o(i._ZN7QStringC1ERKS_)
    QString::QString()                       0x0000eb81   Thumb Code    18  cntsimstoreprivate.o(i._ZN7QStringC1Ev)
    QString::QString__sub_object()           0x0000eb81   Thumb Code     0  cntsimstoreprivate.o(i._ZN7QStringC1Ev)
    QString::~QString()                      0x0000eb99   Thumb Code    24  cntsymbiansimengine.o(i._ZN7QStringD1Ev)
    QString::~QString__sub_object()          0x0000eb99   Thumb Code     0  cntsymbiansimengine.o(i._ZN7QStringD1Ev)
    TPtrC16::Set(const TDesC16&)             0x0000ebb1   Thumb Code    32  cntsymbiansimengine.o(i._ZN7TPtrC163SetERK7TDesC16)
    TPtrC16::Set(const TPtrC16&)             0x0000ebdd   Thumb Code    30  cntsymbiansimengine.o(i._ZN7TPtrC163SetERKS_)
    QtMobility::QContactName::customLabel() const 0x0000ebfd   Thumb Code    28  cntsymbiansimengine.o(i._ZNK10QtMobility12QContactName11customLabelEv)
    QtMobility::QContactPhoneNumber::number() const 0x0000ec1d   Thumb Code    28  cntsymbiansimengine.o(i._ZNK10QtMobility19QContactPhoneNumber6numberEv)
    QBasicAtomicInt::operator ==(int) const  0x0000ec3d   Thumb Code    16  cntsymbiansimengine.o(i._ZNK15QBasicAtomicInteqEi)
    QBasicAtomicInt::operator !=(int) const  0x0000ec4d   Thumb Code    16  cntsymbiansimengine.o(i._ZNK15QBasicAtomicIntneEi)
    CntSymbianSimEngine::managerVersion() const 0x0000ec5d   Thumb Code     6  moc_cntsymbiansimengine.o(i._ZNK19CntSymbianSimEngine14managerVersionEv)
    CntSymbianSimEngine::supportedDataTypes() const 0x0000ec63   Thumb Code    16  moc_cntsymbiansimengine.o(i._ZNK19CntSymbianSimEngine18supportedDataTypesEv)
    QString::isEmpty() const                 0x0000ec73   Thumb Code    18  cntsimstoreprivate.o(i._ZNK7QString7isEmptyEv)
    QListData::at(int) const                 0x0000ec85   Thumb Code    20  cntsymbiansimengine.o(i._ZNK9QListData2atEi)
    QListData::end() const                   0x0000ec99   Thumb Code    16  moc_cntsimstore.o(i._ZNK9QListData3endEv)
    QListData::begin() const                 0x0000eca9   Thumb Code    16  moc_cntsimstore.o(i._ZNK9QListData5beginEv)
    thunk{-8} to CntSymbianSimFactory::~CntSymbianSimFactory__deallocating() 0x0000ecb9   Thumb Code    14  moc_cntsymbiansimengine.o(i._ZThn8_N20CntSymbianSimFactoryD0Ev)
    thunk{-8} to CntSymbianSimFactory::~CntSymbianSimFactory() 0x0000ecc7   Thumb Code    14  moc_cntsymbiansimengine.o(i._ZThn8_N20CntSymbianSimFactoryD1Ev)
    operator delete (void*, void*)           0x0000ecd5   Thumb Code     2  moc_cntsimstore.o(i._ZdlPvS_)
    operator !=(QChar, QChar)                0x0000ecd7   Thumb Code    24  cntsimstoreprivate.o(i._Zne5QCharS_)
    operator new(unsigned, void*)            0x0000ecef   Thumb Code     6  moc_cntsimstore.o(i._ZnwjPv)
    qMapLessThanKey<QString>(const T1&, const T1&) 0x0000ecf5   Thumb Code    16  cntsymbiansimengine.o(t._Z15qMapLessThanKeyI7QStringEbRKT_S3_)
    qMapLessThanKey<QtMobility::QContactAbstractRequest*>(const T1&, const T1&) 0x0000ed05   Thumb Code    18  cntsymbiansimengine.o(t._Z15qMapLessThanKeyIPN10QtMobility23QContactAbstractRequestEEbRKT_S5_)
    qMapLessThanKey<int>(const T1&, const T1&) 0x0000ed17   Thumb Code    18  cntsimcontactremoverequest.o(t._Z15qMapLessThanKeyIiEbRKT_S2_)
    qRegisterMetaType<QList<QtMobility::QContact>>(const char*, T1*) 0x0000ed29   Thumb Code    56  cntsimstore.o(t._Z17qRegisterMetaTypeI5QListIN10QtMobility8QContactEEEiPKcPT_)
    qRegisterMetaType<QList<int>>(const char*, T1*) 0x0000ed69   Thumb Code    56  cntsimstore.o(t._Z17qRegisterMetaTypeI5QListIiEEiPKcPT_)
    qRegisterMetaType<QtMobility::QContactManager::Error>(const char*, T1*) 0x0000eda9   Thumb Code    56  cntsimstore.o(t._Z17qRegisterMetaTypeIN10QtMobility15QContactManager5ErrorEEiPKcPT_)
    qRegisterMetaType<QtMobility::QContact>(const char*, T1*) 0x0000ede9   Thumb Code    56  cntsimstore.o(t._Z17qRegisterMetaTypeIN10QtMobility8QContactEEiPKcPT_)
    qMetaTypeDeleteHelper<QList<QtMobility::QContact>>(T1*) 0x0000ee29   Thumb Code    22  cntsimstore.o(t._Z21qMetaTypeDeleteHelperI5QListIN10QtMobility8QContactEEEvPT_)
    qMetaTypeDeleteHelper<QList<int>>(T1*)   0x0000ee3f   Thumb Code    22  cntsimstore.o(t._Z21qMetaTypeDeleteHelperI5QListIiEEvPT_)
    qMetaTypeDeleteHelper<QtMobility::QContactManager::Error>(T1*) 0x0000ee55   Thumb Code    12  cntsimstore.o(t._Z21qMetaTypeDeleteHelperIN10QtMobility15QContactManager5ErrorEEvPT_)
    qMetaTypeDeleteHelper<QtMobility::QContact>(T1*) 0x0000ee61   Thumb Code    22  cntsimstore.o(t._Z21qMetaTypeDeleteHelperIN10QtMobility8QContactEEvPT_)
    qMetaTypeConstructHelper<QList<QtMobility::QContact>>(const T1*) 0x0000ee79   Thumb Code   112  cntsimstore.o(t._Z24qMetaTypeConstructHelperI5QListIN10QtMobility8QContactEEEPvPKT_)
    qMetaTypeConstructHelper<QList<int>>(const T1*) 0x0000ef09   Thumb Code   112  cntsimstore.o(t._Z24qMetaTypeConstructHelperI5QListIiEEPvPKT_)
    qMetaTypeConstructHelper<QtMobility::QContactManager::Error>(const T1*) 0x0000ef99   Thumb Code    50  cntsimstore.o(t._Z24qMetaTypeConstructHelperIN10QtMobility15QContactManager5ErrorEEPvPKT_)
    qMetaTypeConstructHelper<QtMobility::QContact>(const T1*) 0x0000efcb   Thumb Code    80  cntsimstore.o(t._Z24qMetaTypeConstructHelperIN10QtMobility8QContactEEPvPKT_)
    QtMobility::operator ==<(int)11>(const QString&, const QtMobility::QLatin1Constant<T1>&) 0x0000f037   Thumb Code    24  cntsimstoreprivate.o(t._ZN10QtMobilityeqILi11EEEbRK7QStringRKNS_15QLatin1ConstantIXT_EEE)
    QtMobility::operator ==<(int)12>(const QString&, const QtMobility::QLatin1Constant<T1>&) 0x0000f04f   Thumb Code    24  cntsymbiansimengine.o(t._ZN10QtMobilityeqILi12EEEbRK7QStringRKNS_15QLatin1ConstantIXT_EEE)
    QtMobility::operator ==<(int)13>(const QString&, const QtMobility::QLatin1Constant<T1>&) 0x0000f067   Thumb Code    24  cntsimstoreprivate.o(t._ZN10QtMobilityeqILi13EEEbRK7QStringRKNS_15QLatin1ConstantIXT_EEE)
    QtMobility::operator ==<(int)3>(const QString&, const QtMobility::QLatin1Constant<T1>&) 0x0000f07f   Thumb Code    24  cntsimstoreprivate.o(t._ZN10QtMobilityeqILi3EEEbRK7QStringRKNS_15QLatin1ConstantIXT_EEE)
    QtMobility::operator ==<(int)4>(const QString&, const QtMobility::QLatin1Constant<T1>&) 0x0000f097   Thumb Code    24  cntsymbiansimengine.o(t._ZN10QtMobilityeqILi4EEEbRK7QStringRKNS_15QLatin1ConstantIXT_EEE)
    QtMobility::operator ==<(int)5>(const QString&, const QtMobility::QLatin1Constant<T1>&) 0x0000f0af   Thumb Code    24  cntsimstoreprivate.o(t._ZN10QtMobilityeqILi5EEEbRK7QStringRKNS_15QLatin1ConstantIXT_EEE)
    QtMobility::operator ==<(int)9>(const QString&, const QtMobility::QLatin1Constant<T1>&) 0x0000f0c7   Thumb Code    24  cntsimstoreprivate.o(t._ZN10QtMobilityeqILi9EEEbRK7QStringRKNS_15QLatin1ConstantIXT_EEE)
    QScopedPointer<QtMobility::QContactId, QScopedPointerDeleter<QtMobility::QContactId>>::~QScopedPointer() 0x0000f0df   Thumb Code    32  cntsimstoreprivate.o(t._ZN14QScopedPointerIN10QtMobility10QContactIdE21QScopedPointerDeleterIS1_EED1Ev)
    QScopedPointer<QtMobility::QContactId, QScopedPointerDeleter<QtMobility::QContactId>>::~QScopedPointer__sub_object() 0x0000f0df   Thumb Code     0  cntsimstoreprivate.o(t._ZN14QScopedPointerIN10QtMobility10QContactIdE21QScopedPointerDeleterIS1_EED1Ev)
    QExplicitlySharedDataPointer<CntSymbianSimEngineData>::~QExplicitlySharedDataPointer() 0x0000f0ff   Thumb Code    42  cntsymbiansimengine.o(t._ZN28QExplicitlySharedDataPointerI23CntSymbianSimEngineDataED1Ev)
    QExplicitlySharedDataPointer<CntSymbianSimEngineData>::~QExplicitlySharedDataPointer__sub_object() 0x0000f0ff   Thumb Code     0  cntsymbiansimengine.o(t._ZN28QExplicitlySharedDataPointerI23CntSymbianSimEngineDataED1Ev)
    QMap<QString, QtMobility::QContactDetailDefinition>::node_create(QMapData*, QMapData::Node**, const QString&, const QtMobility::QContactDetailDefinition&) 0x0000f129   Thumb Code   140  cntsymbiansimengine.o(t._ZN4QMapI7QStringN10QtMobility24QContactDetailDefinitionEE11node_createEP8QMapDataPPNS4_4NodeERKS0_RKS2_)
    QMap<QString, QtMobility::QContactDetailDefinition>::detach_helper() 0x0000f1db   Thumb Code   146  cntsymbiansimengine.o(t._ZN4QMapI7QStringN10QtMobility24QContactDetailDefinitionEE13detach_helperEv)
    QMap<QString, QtMobility::QContactDetailDefinition>::detach() 0x0000f275   Thumb Code    28  cntsymbiansimengine.o(t._ZN4QMapI7QStringN10QtMobility24QContactDetailDefinitionEE6detachEv)
    QMap<QString, QtMobility::QContactDetailDefinition>::insert(const QString&, const QtMobility::QContactDetailDefinition&) 0x0000f291   Thumb Code    80  cntsymbiansimengine.o(t._ZN4QMapI7QStringN10QtMobility24QContactDetailDefinitionEE6insertERKS0_RKS2_)
    QMap<QString, QtMobility::QContactDetailDefinition>::freeData(QMapData*) 0x0000f2e1   Thumb Code    62  cntsymbiansimengine.o(t._ZN4QMapI7QStringN10QtMobility24QContactDetailDefinitionEE8freeDataEP8QMapData)
    QMap<QString, QtMobility::QContactDetailDefinition>::QMap() 0x0000f321   Thumb Code    22  cntsymbiansimengine.o(t._ZN4QMapI7QStringN10QtMobility24QContactDetailDefinitionEEC1Ev)
    QMap<QString, QtMobility::QContactDetailDefinition>::QMap__sub_object() 0x0000f321   Thumb Code     0  cntsymbiansimengine.o(t._ZN4QMapI7QStringN10QtMobility24QContactDetailDefinitionEEC1Ev)
    QMap<QString, QtMobility::QContactDetailDefinition>::~QMap() 0x0000f33d   Thumb Code    38  cntsymbiansimengine.o(t._ZN4QMapI7QStringN10QtMobility24QContactDetailDefinitionEED1Ev)
    QMap<QString, QtMobility::QContactDetailDefinition>::~QMap__sub_object() 0x0000f33d   Thumb Code     0  cntsymbiansimengine.o(t._ZN4QMapI7QStringN10QtMobility24QContactDetailDefinitionEED1Ev)
    QMap<QString, QtMobility::QContactDetailFieldDefinition>::node_create(QMapData*, QMapData::Node**, const QString&, const QtMobility::QContactDetailFieldDefinition&) 0x0000f363   Thumb Code   140  cntsymbiansimengine.o(t._ZN4QMapI7QStringN10QtMobility29QContactDetailFieldDefinitionEE11node_createEP8QMapDataPPNS4_4NodeERKS0_RKS2_)
    QMap<QString, QtMobility::QContactDetailFieldDefinition>::detach_helper() 0x0000f415   Thumb Code   146  cntsymbiansimengine.o(t._ZN4QMapI7QStringN10QtMobility29QContactDetailFieldDefinitionEE13detach_helperEv)
    QMap<QString, QtMobility::QContactDetailFieldDefinition>::clear() 0x0000f4af   Thumb Code    82  cntsymbiansimengine.o(t._ZN4QMapI7QStringN10QtMobility29QContactDetailFieldDefinitionEE5clearEv)
    QMap<QString, QtMobility::QContactDetailFieldDefinition>::insert(const QString&, const QtMobility::QContactDetailFieldDefinition&) 0x0000f50b   Thumb Code   100  cntsymbiansimengine.o(t._ZN4QMapI7QStringN10QtMobility29QContactDetailFieldDefinitionEE6insertERKS0_RKS2_)
    QMap<QString, QtMobility::QContactDetailFieldDefinition>::freeData(QMapData*) 0x0000f56f   Thumb Code    62  cntsymbiansimengine.o(t._ZN4QMapI7QStringN10QtMobility29QContactDetailFieldDefinitionEE8freeDataEP8QMapData)
    QMap<QString, QtMobility::QContactDetailFieldDefinition>::QMap() 0x0000f5ad   Thumb Code    22  cntsymbiansimengine.o(t._ZN4QMapI7QStringN10QtMobility29QContactDetailFieldDefinitionEEC1Ev)
    QMap<QString, QtMobility::QContactDetailFieldDefinition>::QMap__sub_object() 0x0000f5ad   Thumb Code     0  cntsymbiansimengine.o(t._ZN4QMapI7QStringN10QtMobility29QContactDetailFieldDefinitionEEC1Ev)
    QMap<QString, QtMobility::QContactDetailFieldDefinition>::~QMap() 0x0000f5c9   Thumb Code    38  cntsymbiansimengine.o(t._ZN4QMapI7QStringN10QtMobility29QContactDetailFieldDefinitionEED1Ev)
    QMap<QString, QtMobility::QContactDetailFieldDefinition>::~QMap__sub_object() 0x0000f5c9   Thumb Code     0  cntsymbiansimengine.o(t._ZN4QMapI7QStringN10QtMobility29QContactDetailFieldDefinitionEED1Ev)
    QMap<QtMobility::QContactAbstractRequest*, CntAbstractSimRequest*>::node_create(QMapData*, QMapData::Node**, QtMobility::QContactAbstractRequest*const &, CntAbstractSimRequest*const &) 0x0000f5ef   Thumb Code    82  cntsymbiansimengine.o(t._ZN4QMapIPN10QtMobility23QContactAbstractRequestEP21CntAbstractSimRequestE11node_createEP8QMapDataPPNS6_4NodeERKS2_RKS4_)
    QMap<QtMobility::QContactAbstractRequest*, CntAbstractSimRequest*>::detach_helper() 0x0000f645   Thumb Code   146  cntsymbiansimengine.o(t._ZN4QMapIPN10QtMobility23QContactAbstractRequestEP21CntAbstractSimRequestE13detach_helperEv)
    QMap<QtMobility::QContactAbstractRequest*, CntAbstractSimRequest*>::take(QtMobility::QContactAbstractRequest*const &) 0x0000f6df   Thumb Code   162  cntsymbiansimengine.o(t._ZN4QMapIPN10QtMobility23QContactAbstractRequestEP21CntAbstractSimRequestE4takeERKS2_)
    QMap<QtMobility::QContactAbstractRequest*, CntAbstractSimRequest*>::detach() 0x0000f781   Thumb Code    28  cntsymbiansimengine.o(t._ZN4QMapIPN10QtMobility23QContactAbstractRequestEP21CntAbstractSimRequestE6detachEv)
    QMap<QtMobility::QContactAbstractRequest*, CntAbstractSimRequest*>::remove(QtMobility::QContactAbstractRequest*const &) 0x0000f79d   Thumb Code   246  cntsymbiansimengine.o(t._ZN4QMapIPN10QtMobility23QContactAbstractRequestEP21CntAbstractSimRequestE6removeERKS2_)
    QMap<QtMobility::QContactAbstractRequest*, CntAbstractSimRequest*>::freeData(QMapData*) 0x0000f893   Thumb Code    24  cntsymbiansimengine.o(t._ZN4QMapIPN10QtMobility23QContactAbstractRequestEP21CntAbstractSimRequestE8freeDataEP8QMapData)
    QMap<QtMobility::QContactAbstractRequest*, CntAbstractSimRequest*>::~QMap() 0x0000f8ab   Thumb Code    38  cntsymbiansimengine.o(t._ZN4QMapIPN10QtMobility23QContactAbstractRequestEP21CntAbstractSimRequestED1Ev)
    QMap<QtMobility::QContactAbstractRequest*, CntAbstractSimRequest*>::~QMap__sub_object() 0x0000f8ab   Thumb Code     0  cntsymbiansimengine.o(t._ZN4QMapIPN10QtMobility23QContactAbstractRequestEP21CntAbstractSimRequestED1Ev)
    QMap<int, QtMobility::QContactManager::Error>::node_create(QMapData*, QMapData::Node**, const int&, const QtMobility::QContactManager::Error&) 0x0000f8d1   Thumb Code    82  cntsimcontactremoverequest.o(t._ZN4QMapIiN10QtMobility15QContactManager5ErrorEE11node_createEP8QMapDataPPNS4_4NodeERKiRKS2_)
    QMap<int, QtMobility::QContactManager::Error>::detach_helper() 0x0000f927   Thumb Code   146  cntsimcontactremoverequest.o(t._ZN4QMapIiN10QtMobility15QContactManager5ErrorEE13detach_helperEv)
    QMap<int, QtMobility::QContactManager::Error>::detach() 0x0000f9c1   Thumb Code    28  cntsimcontactsaverequest.o(t._ZN4QMapIiN10QtMobility15QContactManager5ErrorEE6detachEv)
    QMap<int, QtMobility::QContactManager::Error>::insert(const int&, const QtMobility::QContactManager::Error&) 0x0000f9dd   Thumb Code    74  cntsimcontactremoverequest.o(t._ZN4QMapIiN10QtMobility15QContactManager5ErrorEE6insertERKiRKS2_)
    QMap<int, QtMobility::QContactManager::Error>::freeData(QMapData*) 0x0000fa27   Thumb Code    48  cntsymbiansimengine.o(t._ZN4QMapIiN10QtMobility15QContactManager5ErrorEE8freeDataEP8QMapData)
    QMap<int, QtMobility::QContactManager::Error>::QMap() 0x0000fa59   Thumb Code    22  cntsimcontactremoverequest.o(t._ZN4QMapIiN10QtMobility15QContactManager5ErrorEEC1Ev)
    QMap<int, QtMobility::QContactManager::Error>::QMap__sub_object() 0x0000fa59   Thumb Code     0  cntsimcontactremoverequest.o(t._ZN4QMapIiN10QtMobility15QContactManager5ErrorEEC1Ev)
    QMap<int, QtMobility::QContactManager::Error>::~QMap() 0x0000fa75   Thumb Code    38  cntsymbiansimengine.o(t._ZN4QMapIiN10QtMobility15QContactManager5ErrorEED1Ev)
    QMap<int, QtMobility::QContactManager::Error>::~QMap__sub_object() 0x0000fa75   Thumb Code     0  cntsymbiansimengine.o(t._ZN4QMapIiN10QtMobility15QContactManager5ErrorEED1Ev)
    QMap<int, QtMobility::QContactManager::Error>::operator =(const QMap<int, QtMobility::QContactManager::Error>&) 0x0000fa9b   Thumb Code    70  cntsymbiansimengine.o(t._ZN4QMapIiN10QtMobility15QContactManager5ErrorEEaSERKS3_)
    QList<QString>::detach_helper(int)       0x0000fae1   Thumb Code    94  cntsymbiansimengine.o(t._ZN5QListI7QStringE13detach_helperEi)
    QList<QString>::detach_helper()          0x0000fb47   Thumb Code    16  cntsymbiansimengine.o(t._ZN5QListI7QStringE13detach_helperEv)
    QList<QString>::node_destruct(QList<QString>::Node*, QList<QString>::Node*) 0x0000fb57   Thumb Code    26  cntsymbiansimengine.o(t._ZN5QListI7QStringE13node_destructEPNS1_4NodeES3_)
    QList<QString>::node_construct(QList<QString>::Node*, const QString&) 0x0000fb71   Thumb Code    36  cntsymbiansimengine.o(t._ZN5QListI7QStringE14node_constructEPNS1_4NodeERKS0_)
    QList<QString>::detach_helper_grow(int, int) 0x0000fba3   Thumb Code   208  cntsymbiansimengine.o(t._ZN5QListI7QStringE18detach_helper_growEii)
    QList<QString>::free(QListData::Data*)   0x0000fc83   Thumb Code    52  cntsymbiansimengine.o(t._ZN5QListI7QStringE4freeEPN9QListData4DataE)
    QList<QString>::append(const QString&)   0x0000fcb9   Thumb Code   114  cntsymbiansimengine.o(t._ZN5QListI7QStringE6appendERKS0_)
    QList<QString>::node_copy(QList<QString>::Node*, QList<QString>::Node*, QList<QString>::Node*) 0x0000fd3f   Thumb Code    82  cntsymbiansimengine.o(t._ZN5QListI7QStringE9node_copyEPNS1_4NodeES3_S3_)
    QList<QString>::~QList()                 0x0000fda7   Thumb Code    32  cntsymbiansimengine.o(t._ZN5QListI7QStringED1Ev)
    QList<QString>::~QList__sub_object()     0x0000fda7   Thumb Code     0  cntsymbiansimengine.o(t._ZN5QListI7QStringED1Ev)
    QList<QVariant>::detach_helper(int)      0x0000fdc7   Thumb Code    94  cntsymbiansimengine.o(t._ZN5QListI8QVariantE13detach_helperEi)
    QList<QVariant>::detach_helper()         0x0000fe2d   Thumb Code    16  cntsymbiansimengine.o(t._ZN5QListI8QVariantE13detach_helperEv)
    QList<QVariant>::node_destruct(QList<QVariant>::Node*, QList<QVariant>::Node*) 0x0000fe3d   Thumb Code    38  cntsymbiansimengine.o(t._ZN5QListI8QVariantE13node_destructEPNS1_4NodeES3_)
    QList<QVariant>::node_construct(QList<QVariant>::Node*, const QVariant&) 0x0000fe63   Thumb Code    34  cntsymbiansimengine.o(t._ZN5QListI8QVariantE14node_constructEPNS1_4NodeERKS0_)
    QList<QVariant>::detach_helper_grow(int, int) 0x0000fe93   Thumb Code   208  cntsymbiansimengine.o(t._ZN5QListI8QVariantE18detach_helper_growEii)
    QList<QVariant>::free(QListData::Data*)  0x0000ff73   Thumb Code    52  cntsymbiansimengine.o(t._ZN5QListI8QVariantE4freeEPN9QListData4DataE)
    QList<QVariant>::clear()                 0x0000ffa7   Thumb Code    76  cntsymbiansimengine.o(t._ZN5QListI8QVariantE5clearEv)
    QList<QVariant>::append(const QVariant&) 0x0000fffd   Thumb Code   106  cntsymbiansimengine.o(t._ZN5QListI8QVariantE6appendERKS0_)
    QList<QVariant>::node_copy(QList<QVariant>::Node*, QList<QVariant>::Node*, QList<QVariant>::Node*) 0x0001007b   Thumb Code    92  cntsymbiansimengine.o(t._ZN5QListI8QVariantE9node_copyEPNS1_4NodeES3_S3_)
    QList<QVariant>::QList(const QList<QVariant>&) 0x000100ed   Thumb Code    36  cntsymbiansimengine.o(t._ZN5QListI8QVariantEC1ERKS1_)
    QList<QVariant>::QList__sub_object(const QList<QVariant>&) 0x000100ed   Thumb Code     0  cntsymbiansimengine.o(t._ZN5QListI8QVariantEC1ERKS1_)
    QList<QVariant>::QList()                 0x00010111   Thumb Code    18  cntsymbiansimengine.o(t._ZN5QListI8QVariantEC1Ev)
    QList<QVariant>::QList__sub_object()     0x00010111   Thumb Code     0  cntsymbiansimengine.o(t._ZN5QListI8QVariantEC1Ev)
    QList<QVariant>::~QList()                0x00010129   Thumb Code    32  cntsymbiansimengine.o(t._ZN5QListI8QVariantED1Ev)
    QList<QVariant>::~QList__sub_object()    0x00010129   Thumb Code     0  cntsymbiansimengine.o(t._ZN5QListI8QVariantED1Ev)
    QList<QtMobility::QContactDetail>::detach_helper(int) 0x00010149   Thumb Code   176  cntsimstoreprivate.o(t._ZN5QListIN10QtMobility14QContactDetailEE13detach_helperEi)
    QList<QtMobility::QContactDetail>::detach_helper() 0x00010217   Thumb Code    16  cntsimstoreprivate.o(t._ZN5QListIN10QtMobility14QContactDetailEE13detach_helperEv)
    QList<QtMobility::QContactDetail>::free(QListData::Data*) 0x00010227   Thumb Code    64  cntsymbiansimengine.o(t._ZN5QListIN10QtMobility14QContactDetailEE4freeEPN9QListData4DataE)
    QList<QtMobility::QContactDetail>::~QList() 0x00010267   Thumb Code    32  cntsymbiansimengine.o(t._ZN5QListIN10QtMobility14QContactDetailEED1Ev)
    QList<QtMobility::QContactDetail>::~QList__sub_object() 0x00010267   Thumb Code     0  cntsymbiansimengine.o(t._ZN5QListIN10QtMobility14QContactDetailEED1Ev)
    QList<QtMobility::QContactSortOrder>::free(QListData::Data*) 0x00010287   Thumb Code    70  cntsimcontactfetchrequest.o(t._ZN5QListIN10QtMobility17QContactSortOrderEE4freeEPN9QListData4DataE)
    QList<QtMobility::QContactSortOrder>::~QList() 0x000102cd   Thumb Code    32  cntsimcontactfetchrequest.o(t._ZN5QListIN10QtMobility17QContactSortOrderEED1Ev)
    QList<QtMobility::QContactSortOrder>::~QList__sub_object() 0x000102cd   Thumb Code     0  cntsimcontactfetchrequest.o(t._ZN5QListIN10QtMobility17QContactSortOrderEED1Ev)
    QList<QtMobility::QContactPhoneNumber>::detach_helper(int) 0x000102ed   Thumb Code    94  cntsymbiansimengine.o(t._ZN5QListIN10QtMobility19QContactPhoneNumberEE13detach_helperEi)
    QList<QtMobility::QContactPhoneNumber>::detach_helper() 0x00010353   Thumb Code    16  cntsymbiansimengine.o(t._ZN5QListIN10QtMobility19QContactPhoneNumberEE13detach_helperEv)
    QList<QtMobility::QContactPhoneNumber>::node_destruct(QList<QtMobility::QContactPhoneNumber>::Node*, QList<QtMobility::QContactPhoneNumber>::Node*) 0x00010363   Thumb Code    38  cntsymbiansimengine.o(t._ZN5QListIN10QtMobility19QContactPhoneNumberEE13node_destructEPNS2_4NodeES4_)
    QList<QtMobility::QContactPhoneNumber>::node_construct(QList<QtMobility::QContactPhoneNumber>::Node*, const QtMobility::QContactPhoneNumber&) 0x00010389   Thumb Code    34  cntsymbiansimengine.o(t._ZN5QListIN10QtMobility19QContactPhoneNumberEE14node_constructEPNS2_4NodeERKS1_)
    QList<QtMobility::QContactPhoneNumber>::detach_helper_grow(int, int) 0x000103b9   Thumb Code   208  cntsymbiansimengine.o(t._ZN5QListIN10QtMobility19QContactPhoneNumberEE18detach_helper_growEii)
    QList<QtMobility::QContactPhoneNumber>::free(QListData::Data*) 0x00010499   Thumb Code    52  cntsymbiansimengine.o(t._ZN5QListIN10QtMobility19QContactPhoneNumberEE4freeEPN9QListData4DataE)
    QList<QtMobility::QContactPhoneNumber>::append(const QtMobility::QContactPhoneNumber&) 0x000104cd   Thumb Code   106  cntsymbiansimengine.o(t._ZN5QListIN10QtMobility19QContactPhoneNumberEE6appendERKS1_)
    QList<QtMobility::QContactPhoneNumber>::node_copy(QList<QtMobility::QContactPhoneNumber>::Node*, QList<QtMobility::QContactPhoneNumber>::Node*, QList<QtMobility::QContactPhoneNumber>::Node*) 0x0001054b   Thumb Code    92  cntsymbiansimengine.o(t._ZN5QListIN10QtMobility19QContactPhoneNumberEE9node_copyEPNS2_4NodeES4_S4_)
    QList<QtMobility::QContactPhoneNumber>::~QList() 0x000105bd   Thumb Code    32  cntsymbiansimengine.o(t._ZN5QListIN10QtMobility19QContactPhoneNumberEED1Ev)
    QList<QtMobility::QContactPhoneNumber>::~QList__sub_object() 0x000105bd   Thumb Code     0  cntsymbiansimengine.o(t._ZN5QListIN10QtMobility19QContactPhoneNumberEED1Ev)
    QList<QtMobility::QContact>::detach_helper(int) 0x000105dd   Thumb Code    94  cntsimstoreprivate.o(t._ZN5QListIN10QtMobility8QContactEE13detach_helperEi)
    QList<QtMobility::QContact>::detach_helper() 0x00010643   Thumb Code    16  moc_cntsimstore.o(t._ZN5QListIN10QtMobility8QContactEE13detach_helperEv)
    QList<QtMobility::QContact>::node_destruct(QList<QtMobility::QContact>::Node*, QList<QtMobility::QContact>::Node*) 0x00010653   Thumb Code    26  cntsimstoreprivate.o(t._ZN5QListIN10QtMobility8QContactEE13node_destructEPNS2_4NodeES4_)
    QList<QtMobility::QContact>::node_construct(QList<QtMobility::QContact>::Node*, const QtMobility::QContact&) 0x0001066d   Thumb Code    36  cntsimstoreprivate.o(t._ZN5QListIN10QtMobility8QContactEE14node_constructEPNS2_4NodeERKS1_)
    QList<QtMobility::QContact>::detach_helper_grow(int, int) 0x0001069f   Thumb Code   208  cntsimstoreprivate.o(t._ZN5QListIN10QtMobility8QContactEE18detach_helper_growEii)
    QList<QtMobility::QContact>::free(QListData::Data*) 0x0001077f   Thumb Code    58  cntsimstoreprivate.o(t._ZN5QListIN10QtMobility8QContactEE4freeEPN9QListData4DataE)
    QList<QtMobility::QContact>::append(const QtMobility::QContact&) 0x000107b9   Thumb Code   114  cntsimstoreprivate.o(t._ZN5QListIN10QtMobility8QContactEE6appendERKS1_)
    QList<QtMobility::QContact>::detach()    0x0001083f   Thumb Code    24  cntsimstoreprivate.o(t._ZN5QListIN10QtMobility8QContactEE6detachEv)
    QList<QtMobility::QContact>::node_copy(QList<QtMobility::QContact>::Node*, QList<QtMobility::QContact>::Node*, QList<QtMobility::QContact>::Node*) 0x00010857   Thumb Code    82  cntsimstoreprivate.o(t._ZN5QListIN10QtMobility8QContactEE9node_copyEPNS2_4NodeES4_S4_)
    QList<QtMobility::QContact>::QList(const QList<QtMobility::QContact>&) 0x000108bf   Thumb Code    36  cntsimstoreprivate.o(t._ZN5QListIN10QtMobility8QContactEEC1ERKS2_)
    QList<QtMobility::QContact>::QList__sub_object(const QList<QtMobility::QContact>&) 0x000108bf   Thumb Code     0  cntsimstoreprivate.o(t._ZN5QListIN10QtMobility8QContactEEC1ERKS2_)
    QList<QtMobility::QContact>::QList()     0x000108e5   Thumb Code    18  cntsimstoreprivate.o(t._ZN5QListIN10QtMobility8QContactEEC1Ev)
    QList<QtMobility::QContact>::QList__sub_object() 0x000108e5   Thumb Code     0  cntsimstoreprivate.o(t._ZN5QListIN10QtMobility8QContactEEC1Ev)
    QList<QtMobility::QContact>::~QList()    0x000108fd   Thumb Code    32  moc_cntsimstore.o(t._ZN5QListIN10QtMobility8QContactEED1Ev)
    QList<QtMobility::QContact>::~QList__sub_object() 0x000108fd   Thumb Code     0  moc_cntsimstore.o(t._ZN5QListIN10QtMobility8QContactEED1Ev)
    QList<QtMobility::QContactAbstractRequest*>::detach_helper(int) 0x0001091d   Thumb Code    94  cntsymbiansimengine.o(t._ZN5QListIPN10QtMobility23QContactAbstractRequestEE13detach_helperEi)
    QList<QtMobility::QContactAbstractRequest*>::detach_helper() 0x00010983   Thumb Code    16  cntsymbiansimengine.o(t._ZN5QListIPN10QtMobility23QContactAbstractRequestEE13detach_helperEv)
    QList<QtMobility::QContactAbstractRequest*>::detach_helper_grow(int, int) 0x00010993   Thumb Code   204  cntsymbiansimengine.o(t._ZN5QListIPN10QtMobility23QContactAbstractRequestEE18detach_helper_growEii)
    QList<QtMobility::QContactAbstractRequest*>::free(QListData::Data*) 0x00010a6f   Thumb Code    52  cntsymbiansimengine.o(t._ZN5QListIPN10QtMobility23QContactAbstractRequestEE4freeEPN9QListData4DataE)
    QList<QtMobility::QContactAbstractRequest*>::append(QtMobility::QContactAbstractRequest*const &) 0x00010aa5   Thumb Code    94  cntsymbiansimengine.o(t._ZN5QListIPN10QtMobility23QContactAbstractRequestEE6appendERKS2_)
    QList<QtMobility::QContactAbstractRequest*>::reserve(int) 0x00010b13   Thumb Code    46  cntsymbiansimengine.o(t._ZN5QListIPN10QtMobility23QContactAbstractRequestEE7reserveEi)
    QList<QtMobility::QContactAbstractRequest*>::node_copy(QList<QtMobility::QContactAbstractRequest*>::Node*, QList<QtMobility::QContactAbstractRequest*>::Node*, QList<QtMobility::QContactAbstractRequest*>::Node*) 0x00010b41   Thumb Code    46  cntsymbiansimengine.o(t._ZN5QListIPN10QtMobility23QContactAbstractRequestEE9node_copyEPNS3_4NodeES5_S5_)
    QList<QtMobility::QContactAbstractRequest*>::~QList() 0x00010b6f   Thumb Code    32  cntsymbiansimengine.o(t._ZN5QListIPN10QtMobility23QContactAbstractRequestEED1Ev)
    QList<QtMobility::QContactAbstractRequest*>::~QList__sub_object() 0x00010b6f   Thumb Code     0  cntsymbiansimengine.o(t._ZN5QListIPN10QtMobility23QContactAbstractRequestEED1Ev)
    QList<int>::detach_helper(int)           0x00010b8f   Thumb Code    94  cntsimstoreprivate.o(t._ZN5QListIiE13detach_helperEi)
    QList<int>::detach_helper()              0x00010bf5   Thumb Code    16  moc_cntsimstore.o(t._ZN5QListIiE13detach_helperEv)
    QList<int>::detach_helper_grow(int, int) 0x00010c05   Thumb Code   204  cntsimstoreprivate.o(t._ZN5QListIiE18detach_helper_growEii)
    QList<int>::free(QListData::Data*)       0x00010ce1   Thumb Code    58  moc_cntsimstore.o(t._ZN5QListIiE4freeEPN9QListData4DataE)
    QList<int>::clear()                      0x00010d1b   Thumb Code    28  cntsimcontactremoverequest.o(t._ZN5QListIiE5clearEv)
    QList<int>::append(const int&)           0x00010d41   Thumb Code    94  cntsimstoreprivate.o(t._ZN5QListIiE6appendERKi)
    QList<int>::node_copy(QList<int>::Node*, QList<int>::Node*, QList<int>::Node*) 0x00010daf   Thumb Code    46  cntsimstoreprivate.o(t._ZN5QListIiE9node_copyEPNS0_4NodeES2_S2_)
    QList<int>::QList()                      0x00010ddd   Thumb Code    18  cntsimstoreprivate.o(t._ZN5QListIiEC1Ev)
    QList<int>::QList__sub_object()          0x00010ddd   Thumb Code     0  cntsimstoreprivate.o(t._ZN5QListIiEC1Ev)
    QList<int>::~QList()                     0x00010df5   Thumb Code    32  moc_cntsimstore.o(t._ZN5QListIiED1Ev)
    QList<int>::~QList__sub_object()         0x00010df5   Thumb Code     0  moc_cntsimstore.o(t._ZN5QListIiED1Ev)
    QList<int>::operator =(const QList<int>&) 0x00010e15   Thumb Code    64  cntsimcontactremoverequest.o(t._ZN5QListIiEaSERKS0_)
    QList<unsigned>::detach_helper(int)      0x00010e55   Thumb Code   128  cntsimcontactremoverequest.o(t._ZN5QListIjE13detach_helperEi)
    QList<unsigned>::detach_helper()         0x00010edd   Thumb Code    16  cntsimcontactremoverequest.o(t._ZN5QListIjE13detach_helperEv)
    QList<unsigned>::detach_helper_grow(int, int) 0x00010eed   Thumb Code   204  cntsymbiansimengine.o(t._ZN5QListIjE18detach_helper_growEii)
    QList<unsigned>::free(QListData::Data*)  0x00010fc9   Thumb Code    52  cntsymbiansimengine.o(t._ZN5QListIjE4freeEPN9QListData4DataE)
    QList<unsigned>::append(const unsigned&) 0x00010ffd   Thumb Code    94  cntsymbiansimengine.o(t._ZN5QListIjE6appendERKj)
    QList<unsigned>::node_copy(QList<unsigned>::Node*, QList<unsigned>::Node*, QList<unsigned>::Node*) 0x0001106b   Thumb Code    46  cntsymbiansimengine.o(t._ZN5QListIjE9node_copyEPNS0_4NodeES2_S2_)
    QList<unsigned>::QList()                 0x00011099   Thumb Code    18  cntsimcontactlocalidfetchrequest.o(t._ZN5QListIjEC1Ev)
    QList<unsigned>::QList__sub_object()     0x00011099   Thumb Code     0  cntsimcontactlocalidfetchrequest.o(t._ZN5QListIjEC1Ev)
    QList<unsigned>::~QList()                0x000110b1   Thumb Code    32  cntsymbiansimengine.o(t._ZN5QListIjED1Ev)
    QList<unsigned>::~QList__sub_object()    0x000110b1   Thumb Code     0  cntsymbiansimengine.o(t._ZN5QListIjED1Ev)
    QPointer<QObject>::~QPointer()           0x000110d1   Thumb Code    14  cntsymbiansimengine.o(t._ZN8QPointerI7QObjectED1Ev)
    QPointer<QObject>::~QPointer__sub_object() 0x000110d1   Thumb Code     0  cntsymbiansimengine.o(t._ZN8QPointerI7QObjectED1Ev)
    QtMobility::QContact::details<QtMobility::QContactPhoneNumber>() const 0x000110e1   Thumb Code   130  cntsymbiansimengine.o(t._ZNK10QtMobility8QContact7detailsINS_19QContactPhoneNumberEEE5QListIT_Ev)
    QMap<QString, QtMobility::QContactDetailDefinition>::mutableFindNode(QMapData::Node**, const QString&) const 0x00011183   Thumb Code   108  cntsymbiansimengine.o(t._ZNK4QMapI7QStringN10QtMobility24QContactDetailDefinitionEE15mutableFindNodeEPPN8QMapData4NodeERKS0_)
    QMap<QString, QtMobility::QContactDetailDefinition>::findNode(const QString&) const 0x000111ef   Thumb Code   104  cntsimdetaildefinitionfetchrequest.o(t._ZNK4QMapI7QStringN10QtMobility24QContactDetailDefinitionEE8findNodeERKS0_)
    QMap<QString, QtMobility::QContactDetailFieldDefinition>::mutableFindNode(QMapData::Node**, const QString&) const 0x00011257   Thumb Code   108  cntsymbiansimengine.o(t._ZNK4QMapI7QStringN10QtMobility29QContactDetailFieldDefinitionEE15mutableFindNodeEPPN8QMapData4NodeERKS0_)
    QMap<QtMobility::QContactAbstractRequest*, CntAbstractSimRequest*>::mutableFindNode(QMapData::Node**, QtMobility::QContactAbstractRequest*const &) const 0x000112c3   Thumb Code   108  cntsymbiansimengine.o(t._ZNK4QMapIPN10QtMobility23QContactAbstractRequestEP21CntAbstractSimRequestE15mutableFindNodeEPPN8QMapData4NodeERKS2_)
    QMap<QtMobility::QContactAbstractRequest*, CntAbstractSimRequest*>::keys() const 0x00011331   Thumb Code   110  cntsymbiansimengine.o(t._ZNK4QMapIPN10QtMobility23QContactAbstractRequestEP21CntAbstractSimRequestE4keysEv)
    QMap<QtMobility::QContactAbstractRequest*, CntAbstractSimRequest*>::value(QtMobility::QContactAbstractRequest*const &) const 0x000113af   Thumb Code    46  cntsymbiansimengine.o(t._ZNK4QMapIPN10QtMobility23QContactAbstractRequestEP21CntAbstractSimRequestE5valueERKS2_)
    QMap<QtMobility::QContactAbstractRequest*, CntAbstractSimRequest*>::contains(QtMobility::QContactAbstractRequest*const &) const 0x000113dd   Thumb Code    28  cntsymbiansimengine.o(t._ZNK4QMapIPN10QtMobility23QContactAbstractRequestEP21CntAbstractSimRequestE8containsERKS2_)
    QMap<QtMobility::QContactAbstractRequest*, CntAbstractSimRequest*>::findNode(QtMobility::QContactAbstractRequest*const &) const 0x000113f9   Thumb Code   104  cntsymbiansimengine.o(t._ZNK4QMapIPN10QtMobility23QContactAbstractRequestEP21CntAbstractSimRequestE8findNodeERKS2_)
    QMap<int, QtMobility::QContactManager::Error>::mutableFindNode(QMapData::Node**, const int&) const 0x00011461   Thumb Code   108  cntsimcontactremoverequest.o(t._ZNK4QMapIiN10QtMobility15QContactManager5ErrorEE15mutableFindNodeEPPN8QMapData4NodeERKi)
    QList<QtMobility::QContact>::at(int) const 0x000114cd   Thumb Code    30  cntsimcontactlocalidfetchrequest.o(t._ZNK5QListIN10QtMobility8QContactEE2atEi)
    QList<int>::contains(const int&) const   0x000114eb   Thumb Code    66  cntsimcontactremoverequest.o(t._ZNK5QListIiE8containsERKi)
    CntSymbianSimEngine::staticMetaObject    0x00012b94   Data          16  moc_cntsymbiansimengine.o(.constdata)
    CntSymbianSimFactory::staticMetaObject   0x00012ba4   Data          16  moc_cntsymbiansimengine.o(.constdata)
    CntSimStore::staticMetaObject            0x00012d40   Data          16  moc_cntsimstore.o(.constdata)
    CntAbstractSimRequest::staticMetaObject  0x00012de0   Data          16  moc_cntabstractsimrequest.o(.constdata)
    CntSimContactFetchRequest::staticMetaObject 0x00012ebc   Data          16  moc_cntsimcontactfetchrequest.o(.constdata)
    CntSimContactLocalIdFetchRequest::staticMetaObject 0x00012fa0   Data          16  moc_cntsimcontactlocalidfetchrequest.o(.constdata)
    CntSimContactRemoveRequest::staticMetaObject 0x00013110   Data          16  moc_cntsimcontactremoverequest.o(.constdata)
    CntSimContactSaveRequest::staticMetaObject 0x00013204   Data          16  moc_cntsimcontactsaverequest.o(.constdata)
    CntSimDetailDefinitionFetchRequest::staticMetaObject 0x00013290   Data          16  moc_cntsimdetaildefinitionfetchrequest.o(.constdata)
    stlp_priv::_Integer_limits<signed char, (signed char)-128, (signed char)127, (int)-1, (bool)1>::digits 0x00013450   Data           4  moc_cntsymbiansimengine.o(.constdata__ZN9stlp_priv15_Integer_limitsIaLan128ELa127ELin1ELb1EE6digitsE)
    stlp_priv::_Integer_limits<bool, (bool)0, (bool)1, (int)1, (bool)0>::digits 0x00013454   Data           4  moc_cntsymbiansimengine.o(.constdata__ZN9stlp_priv15_Integer_limitsIbLb0ELb1ELi1ELb0EE6digitsE)
    stlp_priv::_Integer_limits<char, (char)128, (char)127, (int)-1, (bool)1>::digits 0x00013458   Data           4  moc_cntsymbiansimengine.o(.constdata__ZN9stlp_priv15_Integer_limitsIcLc128ELc127ELin1ELb1EE6digitsE)
    stlp_priv::_Integer_limits<unsigned char, (unsigned char)0, (unsigned char)255, (int)-1, (bool)1>::digits 0x0001345c   Data           4  moc_cntsymbiansimengine.o(.constdata__ZN9stlp_priv15_Integer_limitsIhLh0ELh255ELin1ELb1EE6digitsE)
    stlp_priv::_Integer_limits<int, (int)-2147483648, (int)2147483647, (int)-1, (bool)1>::digits 0x00013460   Data           4  moc_cntsymbiansimengine.o(.constdata__ZN9stlp_priv15_Integer_limitsIiLin2147483648ELi2147483647ELin1ELb1EE6digitsE)
    stlp_priv::_Integer_limits<int, (int)-2147483648, (int)2147483647, (int)-1, (bool)1>::is_signed 0x00013464   Data           1  moc_cntsymbiansimengine.o(.constdata__ZN9stlp_priv15_Integer_limitsIiLin2147483648ELi2147483647ELin1ELb1EE9is_signedE)
    stlp_priv::_Integer_limits<unsigned, (unsigned)0, (unsigned)4294967295, (int)-1, (bool)1>::digits 0x00013468   Data           4  moc_cntsymbiansimengine.o(.constdata__ZN9stlp_priv15_Integer_limitsIjLj0ELj4294967295ELin1ELb1EE6digitsE)
    stlp_priv::_Integer_limits<long, (long)-2147483648, (long)2147483647, (int)-1, (bool)1>::digits 0x0001346c   Data           4  moc_cntsymbiansimengine.o(.constdata__ZN9stlp_priv15_Integer_limitsIlLln2147483648ELl2147483647ELin1ELb1EE6digitsE)
    stlp_priv::_Integer_limits<unsigned long, (unsigned long)0, (unsigned long)4294967295, (int)-1, (bool)1>::digits 0x00013470   Data           4  moc_cntsymbiansimengine.o(.constdata__ZN9stlp_priv15_Integer_limitsImLm0ELm4294967295ELin1ELb1EE6digitsE)
    stlp_priv::_Integer_limits<short, (short)-32768, (short)32767, (int)-1, (bool)1>::digits 0x00013474   Data           4  moc_cntsymbiansimengine.o(.constdata__ZN9stlp_priv15_Integer_limitsIsLsn32768ELs32767ELin1ELb1EE6digitsE)
    stlp_priv::_Integer_limits<unsigned short, (unsigned short)0, (unsigned short)65535, (int)-1, (bool)1>::digits 0x00013478   Data           4  moc_cntsymbiansimengine.o(.constdata__ZN9stlp_priv15_Integer_limitsItLt0ELt65535ELin1ELb1EE6digitsE)
    stlp_priv::_Integer_limits<wchar_t, (wchar_t)0, (wchar_t)65535, (int)-1, (bool)1>::digits 0x0001347c   Data           4  moc_cntsymbiansimengine.o(.constdata__ZN9stlp_priv15_Integer_limitsIwLw0ELw65535ELin1ELb1EE6digitsE)
    stlp_priv::_Integer_limits<long long, (long long)-9223372036854775808, (long long)9223372036854775807, (int)-1, (bool)1>::digits 0x00013480   Data           4  moc_cntsymbiansimengine.o(.constdata__ZN9stlp_priv15_Integer_limitsIxLxn9223372036854775808ELx9223372036854775807ELin1ELb1EE6digitsE)
    stlp_priv::_Integer_limits<unsigned long long, (unsigned long long)0, (unsigned long long)18446744073709551615, (int)-1, (bool)1>::digits 0x00013484   Data           4  moc_cntsymbiansimengine.o(.constdata__ZN9stlp_priv15_Integer_limitsIyLy0ELy18446744073709551615ELin1ELb1EE6digitsE)
    typeinfo for CntSimStore                 0x00013488   Data          12  moc_cntsimstore.o(.constdata__ZTI11CntSimStore)
    typeinfo for CDispatcherTimer            0x00013494   Data          12  cntsimstoreprivate.o(.constdata__ZTI16CDispatcherTimer)
    typeinfo for CntSimStorePrivate          0x000134a0   Data          12  cntsimstoreprivate.o(.constdata__ZTI18CntSimStorePrivate)
    typeinfo for MDispatcherTimeOut          0x000134ac   Data           8  cntsimstoreprivate.o(.constdata__ZTI18MDispatcherTimeOut)
    typeinfo for CntSymbianSimEngine         0x000134b4   Data          12  moc_cntsymbiansimengine.o(.constdata__ZTI19CntSymbianSimEngine)
    typeinfo for CStoreInfoDispatcher        0x000134c0   Data          32  cntsimstoreprivate.o(.constdata__ZTI20CStoreInfoDispatcher)
    typeinfo for CntSymbianSimFactory        0x000134e0   Data          32  moc_cntsymbiansimengine.o(.constdata__ZTI20CntSymbianSimFactory)
    typeinfo for CntAbstractSimRequest       0x00013500   Data          12  moc_cntabstractsimrequest.o(.constdata__ZTI21CntAbstractSimRequest)
    typeinfo for CntSimContactSaveRequest    0x0001350c   Data          12  moc_cntsimcontactsaverequest.o(.constdata__ZTI24CntSimContactSaveRequest)
    typeinfo for CntSimStoreEventListener    0x00013518   Data          12  cntsimstoreeventlistener.o(.constdata__ZTI24CntSimStoreEventListener)
    typeinfo for CntSimContactFetchRequest   0x00013524   Data          12  moc_cntsimcontactfetchrequest.o(.constdata__ZTI25CntSimContactFetchRequest)
    typeinfo for CntSimContactRemoveRequest  0x00013530   Data          12  moc_cntsimcontactremoverequest.o(.constdata__ZTI26CntSimContactRemoveRequest)
    typeinfo for CntSimContactLocalIdFetchRequest 0x0001353c   Data          12  moc_cntsimcontactlocalidfetchrequest.o(.constdata__ZTI32CntSimContactLocalIdFetchRequest)
    typeinfo for CntSimDetailDefinitionFetchRequest 0x00013548   Data          12  moc_cntsimdetaildefinitionfetchrequest.o(.constdata__ZTI34CntSimDetailDefinitionFetchRequest)
    typeinfo name for CntSimStore            0x00013554   Data          14  moc_cntsimstore.o(.constdata__ZTS11CntSimStore)
    typeinfo name for CDispatcherTimer       0x00013562   Data          19  cntsimstoreprivate.o(.constdata__ZTS16CDispatcherTimer)
    typeinfo name for CntSimStorePrivate     0x00013575   Data          21  cntsimstoreprivate.o(.constdata__ZTS18CntSimStorePrivate)
    typeinfo name for MDispatcherTimeOut     0x0001358a   Data          21  cntsimstoreprivate.o(.constdata__ZTS18MDispatcherTimeOut)
    typeinfo name for CntSymbianSimEngine    0x0001359f   Data          22  moc_cntsymbiansimengine.o(.constdata__ZTS19CntSymbianSimEngine)
    typeinfo name for CStoreInfoDispatcher   0x000135b5   Data          23  cntsimstoreprivate.o(.constdata__ZTS20CStoreInfoDispatcher)
    typeinfo name for CntSymbianSimFactory   0x000135cc   Data          23  moc_cntsymbiansimengine.o(.constdata__ZTS20CntSymbianSimFactory)
    typeinfo name for CntAbstractSimRequest  0x000135e3   Data          24  moc_cntabstractsimrequest.o(.constdata__ZTS21CntAbstractSimRequest)
    typeinfo name for CntSimContactSaveRequest 0x000135fb   Data          27  moc_cntsimcontactsaverequest.o(.constdata__ZTS24CntSimContactSaveRequest)
    typeinfo name for CntSimStoreEventListener 0x00013616   Data          27  cntsimstoreeventlistener.o(.constdata__ZTS24CntSimStoreEventListener)
    typeinfo name for CntSimContactFetchRequest 0x00013631   Data          28  moc_cntsimcontactfetchrequest.o(.constdata__ZTS25CntSimContactFetchRequest)
    typeinfo name for CntSimContactRemoveRequest 0x0001364d   Data          29  moc_cntsimcontactremoverequest.o(.constdata__ZTS26CntSimContactRemoveRequest)
    typeinfo name for CntSimContactLocalIdFetchRequest 0x0001366a   Data          35  moc_cntsimcontactlocalidfetchrequest.o(.constdata__ZTS32CntSimContactLocalIdFetchRequest)
    typeinfo name for CntSimDetailDefinitionFetchRequest 0x0001368d   Data          37  moc_cntsimdetaildefinitionfetchrequest.o(.constdata__ZTS34CntSimDetailDefinitionFetchRequest)
    vtable for CntSimStore                   0x000136b4   Data          56  moc_cntsimstore.o(.constdata__ZTV11CntSimStore)
    vtable for CDispatcherTimer              0x000136ec   Data          32  cntsimstoreprivate.o(.constdata__ZTV16CDispatcherTimer)
    vtable for CntSimStorePrivate            0x0001370c   Data          32  cntsimstoreprivate.o(.constdata__ZTV18CntSimStorePrivate)
    vtable for MDispatcherTimeOut            0x0001372c   Data          12  cntsimstoreprivate.o(.constdata__ZTV18MDispatcherTimeOut)
    vtable for CntSymbianSimEngine           0x00013738   Data         192  moc_cntsymbiansimengine.o(.constdata__ZTV19CntSymbianSimEngine)
    vtable for CStoreInfoDispatcher          0x000137f8   Data          48  cntsimstoreprivate.o(.constdata__ZTV20CStoreInfoDispatcher)
    vtable for CntSymbianSimFactory          0x00013828   Data          92  moc_cntsymbiansimengine.o(.constdata__ZTV20CntSymbianSimFactory)
    vtable for CntAbstractSimRequest         0x00013884   Data          64  moc_cntabstractsimrequest.o(.constdata__ZTV21CntAbstractSimRequest)
    vtable for CntSimContactSaveRequest      0x000138c4   Data          64  moc_cntsimcontactsaverequest.o(.constdata__ZTV24CntSimContactSaveRequest)
    vtable for CntSimStoreEventListener      0x00013904   Data          32  cntsimstoreeventlistener.o(.constdata__ZTV24CntSimStoreEventListener)
    vtable for CntSimContactFetchRequest     0x00013924   Data          64  moc_cntsimcontactfetchrequest.o(.constdata__ZTV25CntSimContactFetchRequest)
    vtable for CntSimContactRemoveRequest    0x00013964   Data          64  moc_cntsimcontactremoverequest.o(.constdata__ZTV26CntSimContactRemoveRequest)
    vtable for CntSimContactLocalIdFetchRequest 0x000139a4   Data          64  moc_cntsimcontactlocalidfetchrequest.o(.constdata__ZTV32CntSimContactLocalIdFetchRequest)
    vtable for CntSimDetailDefinitionFetchRequest 0x000139e4   Data          64  moc_cntsimdetaildefinitionfetchrequest.o(.constdata__ZTV34CntSimDetailDefinitionFetchRequest)
    .ARM.exidx$$Base                         0x00013a24   Number         0  ucppinit.o(.ARM.exidx)
    .ARM.exidx$$Limit                        0x0001446c   Number         0  cntsimcontactremoverequest.o(.ARM.exidx)
    Image$$ER_RO$$Limit                      0x0001446c   Number         0  anon$$obj.o(linker$$defined$$symbols)
    __dso_handle                             0x00400008   Data           4  ucppfini.o(.data)
    std::_Atomic_swap_struct<(int)1>::_S_swap_lock 0x0040000c   Data          12  moc_cntsymbiansimengine.o(.data__ZNSt19_Atomic_swap_structILi1EE12_S_swap_lockE)
    dtor_rec                                 0x00400018   Data        2048  ucppfini.o(.bss)

