ARM Linker, RVCT2.2 [Build 686]

================================================================================

Image Symbol Table

    Local Symbols

    Symbol Name                              Value     Ov Type        Size  Object(Section)

    ../../unhosted.s                         0x00000000   Number         0  switch8.o ABSOLUTE
    M:\\epoc32\\build\\euser\\c_e18a23aea4fd210f\\edll_lib\\armv5\\udeb\\uc_dll_.cpp 0x00000000   Number         0  uc_dll_.o ABSOLUTE
    M:\\sf\\os\\kernelhwsrv\\kernel\\eka\\compsupp\\rvct\\ucppinit.cpp 0x00000000   Number         0  ucppinit.o ABSOLUTE
    M:\epoc32\build\euser\c_e18a23aea4fd210f\edll_lib\armv5\udeb\uc_dll_.cpp 0x00000000   Number         0  uc_dll_.o ABSOLUTE
    M:\sf\os\kernelhwsrv\kernel\eka\compsupp\rvct\dllexp.cpp 0x00000000   Number         0  dllexp.o ABSOLUTE
    M:\sf\os\kernelhwsrv\kernel\eka\compsupp\rvct\ucppfini.cpp 0x00000000   Number         0  ucppfini.o ABSOLUTE
    M:\sf\os\kernelhwsrv\kernel\eka\compsupp\rvct\ucppinit.cpp 0x00000000   Number         0  ucppinit.o ABSOLUTE
    M:\sf\os\kernelhwsrv\kernel\eka\euser\epoc\arm\uc_dll.cpp 0x00000000   Number         0  uc_dll.o ABSOLUTE
    S:\sf\mw\qtmobility\build\Release\qtcontacts_symbian\moc\moc_cntdbinfo.cpp 0x00000000   Number         0  moc_cntdbinfo.o ABSOLUTE
    S:\sf\mw\qtmobility\build\Release\qtcontacts_symbian\moc\moc_cntdisplaylabel.cpp 0x00000000   Number         0  moc_cntdisplaylabel.o ABSOLUTE
    S:\sf\mw\qtmobility\build\Release\qtcontacts_symbian\moc\moc_cntsymbiandatabase.cpp 0x00000000   Number         0  moc_cntsymbiandatabase.o ABSOLUTE
    S:\sf\mw\qtmobility\build\Release\qtcontacts_symbian\moc\moc_cntsymbianengine.cpp 0x00000000   Number         0  moc_cntsymbianengine.o ABSOLUTE
    S:\sf\mw\qtmobility\build\Release\qtcontacts_symbian\moc\moc_cnttransformcontactdata.cpp 0x00000000   Number         0  moc_cnttransformcontactdata.o ABSOLUTE
    S:\sf\mw\qtmobility\plugins\contacts\symbian\plugin\src\cntabstractrelationship.cpp 0x00000000   Number         0  cntabstractrelationship.o ABSOLUTE
    S:\sf\mw\qtmobility\plugins\contacts\symbian\plugin\src\cntdisplaylabel.cpp 0x00000000   Number         0  cntdisplaylabel.o ABSOLUTE
    S:\sf\mw\qtmobility\plugins\contacts\symbian\plugin\src\cntrelationship.cpp 0x00000000   Number         0  cntrelationship.o ABSOLUTE
    S:\sf\mw\qtmobility\plugins\contacts\symbian\plugin\src\cntrelationshipgroup.cpp 0x00000000   Number         0  cntrelationshipgroup.o ABSOLUTE
    S:\sf\mw\qtmobility\plugins\contacts\symbian\plugin\src\cntsymbiandatabase.cpp 0x00000000   Number         0  cntsymbiandatabase.o ABSOLUTE
    S:\sf\mw\qtmobility\plugins\contacts\symbian\plugin\src\cntsymbianengine.cpp 0x00000000   Number         0  cntsymbianengine.o ABSOLUTE
    S:\sf\mw\qtmobility\plugins\contacts\symbian\plugin\src\cntsymbiantransformerror.cpp 0x00000000   Number         0  cntsymbiantransformerror.o ABSOLUTE
    S:\sf\mw\qtmobility\plugins\contacts\symbian\plugin\src\filtering\cntdbinfo.cpp 0x00000000   Number         0  cntdbinfo.o ABSOLUTE
    S:\sf\mw\qtmobility\plugins\contacts\symbian\plugin\src\filtering\cntfilterdefault.cpp 0x00000000   Number         0  cntfilterdefault.o ABSOLUTE
    S:\sf\mw\qtmobility\plugins\contacts\symbian\plugin\src\filtering\cntfilterdetail.cpp 0x00000000   Number         0  cntfilterdetail.o ABSOLUTE
    S:\sf\mw\qtmobility\plugins\contacts\symbian\plugin\src\filtering\cntfilterintersection.cpp 0x00000000   Number         0  cntfilterintersection.o ABSOLUTE
    S:\sf\mw\qtmobility\plugins\contacts\symbian\plugin\src\filtering\cntfilterrelationship.cpp 0x00000000   Number         0  cntfilterrelationship.o ABSOLUTE
    S:\sf\mw\qtmobility\plugins\contacts\symbian\plugin\src\filtering\cntfilterunion.cpp 0x00000000   Number         0  cntfilterunion.o ABSOLUTE
    S:\sf\mw\qtmobility\plugins\contacts\symbian\plugin\src\filtering\cntsymbianfilterdbms.cpp 0x00000000   Number         0  cntsymbianfilterdbms.o ABSOLUTE
    S:\sf\mw\qtmobility\plugins\contacts\symbian\plugin\src\filtering\cntsymbianfiltersql.cpp 0x00000000   Number         0  cntsymbianfiltersql.o ABSOLUTE
    S:\sf\mw\qtmobility\plugins\contacts\symbian\plugin\src\filtering\cntsymbiansorterdbms.cpp 0x00000000   Number         0  cntsymbiansorterdbms.o ABSOLUTE
    S:\sf\mw\qtmobility\plugins\contacts\symbian\plugin\src\filtering\cntsymbiansrvconnection.cpp 0x00000000   Number         0  cntsymbiansrvconnection.o ABSOLUTE
    S:\sf\mw\qtmobility\plugins\contacts\symbian\plugin\src\transform\cntthumbnailcreator.cpp 0x00000000   Number         0  cntthumbnailcreator.o ABSOLUTE
    S:\sf\mw\qtmobility\plugins\contacts\symbian\plugin\src\transform\cnttransformaddress.cpp 0x00000000   Number         0  cnttransformaddress.o ABSOLUTE
    S:\sf\mw\qtmobility\plugins\contacts\symbian\plugin\src\transform\cnttransformanniversary.cpp 0x00000000   Number         0  cnttransformanniversary.o ABSOLUTE
    S:\sf\mw\qtmobility\plugins\contacts\symbian\plugin\src\transform\cnttransformanniversarysimple.cpp 0x00000000   Number         0  cnttransformanniversarysimple.o ABSOLUTE
    S:\sf\mw\qtmobility\plugins\contacts\symbian\plugin\src\transform\cnttransformavatar.cpp 0x00000000   Number         0  cnttransformavatar.o ABSOLUTE
    S:\sf\mw\qtmobility\plugins\contacts\symbian\plugin\src\transform\cnttransformbirthday.cpp 0x00000000   Number         0  cnttransformbirthday.o ABSOLUTE
    S:\sf\mw\qtmobility\plugins\contacts\symbian\plugin\src\transform\cnttransformcontact.cpp 0x00000000   Number         0  cnttransformcontact.o ABSOLUTE
    S:\sf\mw\qtmobility\plugins\contacts\symbian\plugin\src\transform\cnttransformcontactdata.cpp 0x00000000   Number         0  cnttransformcontactdata.o ABSOLUTE
    S:\sf\mw\qtmobility\plugins\contacts\symbian\plugin\src\transform\cnttransformemail.cpp 0x00000000   Number         0  cnttransformemail.o ABSOLUTE
    S:\sf\mw\qtmobility\plugins\contacts\symbian\plugin\src\transform\cnttransformempty.cpp 0x00000000   Number         0  cnttransformempty.o ABSOLUTE
    S:\sf\mw\qtmobility\plugins\contacts\symbian\plugin\src\transform\cnttransformfamily.cpp 0x00000000   Number         0  cnttransformfamily.o ABSOLUTE
    S:\sf\mw\qtmobility\plugins\contacts\symbian\plugin\src\transform\cnttransformfavorite.cpp 0x00000000   Number         0  cnttransformfavorite.o ABSOLUTE
    S:\sf\mw\qtmobility\plugins\contacts\symbian\plugin\src\transform\cnttransformgender.cpp 0x00000000   Number         0  cnttransformgender.o ABSOLUTE
    S:\sf\mw\qtmobility\plugins\contacts\symbian\plugin\src\transform\cnttransformgeolocation.cpp 0x00000000   Number         0  cnttransformgeolocation.o ABSOLUTE
    S:\sf\mw\qtmobility\plugins\contacts\symbian\plugin\src\transform\cnttransformname.cpp 0x00000000   Number         0  cnttransformname.o ABSOLUTE
    S:\sf\mw\qtmobility\plugins\contacts\symbian\plugin\src\transform\cnttransformnickname.cpp 0x00000000   Number         0  cnttransformnickname.o ABSOLUTE
    S:\sf\mw\qtmobility\plugins\contacts\symbian\plugin\src\transform\cnttransformnote.cpp 0x00000000   Number         0  cnttransformnote.o ABSOLUTE
    S:\sf\mw\qtmobility\plugins\contacts\symbian\plugin\src\transform\cnttransformonlineaccount.cpp 0x00000000   Number         0  cnttransformonlineaccount.o ABSOLUTE
    S:\sf\mw\qtmobility\plugins\contacts\symbian\plugin\src\transform\cnttransformonlineaccountsimple.cpp 0x00000000   Number         0  cnttransformonlineaccountsimple.o ABSOLUTE
    S:\sf\mw\qtmobility\plugins\contacts\symbian\plugin\src\transform\cnttransformorganisation.cpp 0x00000000   Number         0  cnttransformorganisation.o ABSOLUTE
    S:\sf\mw\qtmobility\plugins\contacts\symbian\plugin\src\transform\cnttransformphonenumber.cpp 0x00000000   Number         0  cnttransformphonenumber.o ABSOLUTE
    S:\sf\mw\qtmobility\plugins\contacts\symbian\plugin\src\transform\cnttransformpresence.cpp 0x00000000   Number         0  cnttransformpresence.o ABSOLUTE
    S:\sf\mw\qtmobility\plugins\contacts\symbian\plugin\src\transform\cnttransformringtone.cpp 0x00000000   Number         0  cnttransformringtone.o ABSOLUTE
    S:\sf\mw\qtmobility\plugins\contacts\symbian\plugin\src\transform\cnttransformsynctarget.cpp 0x00000000   Number         0  cnttransformsynctarget.o ABSOLUTE
    S:\sf\mw\qtmobility\plugins\contacts\symbian\plugin\src\transform\cnttransformthumbnail.cpp 0x00000000   Number         0  cnttransformthumbnail.o ABSOLUTE
    S:\sf\mw\qtmobility\plugins\contacts\symbian\plugin\src\transform\cnttransformurl.cpp 0x00000000   Number         0  cnttransformurl.o ABSOLUTE
    .emb_text                                0x00008000   Section       40  uc_dll_.o(.emb_text)
    Symbian$$eit_base                        0x00008014   Data           4  uc_dll_.o(.emb_text)
    Symbian$$eit_limit                       0x00008018   Data           4  uc_dll_.o(.emb_text)
    Symbian$$code_seg_base                   0x0000801c   Data           4  uc_dll_.o(.emb_text)
    Symbian$$code_seg_limit                  0x00008020   Data           4  uc_dll_.o(.emb_text)
    Symbian$$reserved                        0x00008024   Data           4  uc_dll_.o(.emb_text)
    .emb_text                                0x00008028   Section       52  ucppinit.o(.emb_text)
    loop                                     0x0000803c   ARM Code       0  ucppinit.o(.emb_text)
    ret                                      0x00008044   ARM Code       0  ucppinit.o(.emb_text)
    base                                     0x00008054   Data           0  ucppinit.o(.emb_text)
    limit                                    0x00008058   Data           0  ucppinit.o(.emb_text)
    .text                                    0x00008ddc   Section      372  moc_cntsymbianengine.o(.text)
    .text                                    0x00008f50   Section      156  moc_cntsymbiandatabase.o(.text)
    .text                                    0x00008fec   Section      192  moc_cntdisplaylabel.o(.text)
    .text                                    0x000090ac   Section      116  moc_cnttransformcontactdata.o(.text)
    .text                                    0x00009120   Section      116  moc_cntdbinfo.o(.text)
    .text                                    0x00009194   Section     8824  cntsymbianengine.o(.text)
    |L1.964|                                 0x00009558   Data           0  cntsymbianengine.o(.text)
    __sti___20_cntsymbianengine_cpp          0x0000b2b9   Thumb Code   142  cntsymbianengine.o(.text)
    .text                                    0x0000b40c   Section      156  cntabstractrelationship.o(.text)
    .text                                    0x0000b4a8   Section     1840  cntrelationshipgroup.o(.text)
    .text                                    0x0000bbd8   Section      132  cntsymbiantransformerror.o(.text)
    .text                                    0x0000bc5c   Section     1768  cntsymbiandatabase.o(.text)
    .text                                    0x0000c344   Section     1652  cntdisplaylabel.o(.text)
    .text                                    0x0000c9b8   Section     2344  cntrelationship.o(.text)
    .text                                    0x0000d2e0   Section      884  cntfilterrelationship.o(.text)
    .text                                    0x0000d654   Section     6220  cntfilterdetail.o(.text)
    |L1.2304|                                0x0000df54   Data           0  cntfilterdetail.o(.text)
    |L1.2316|                                0x0000df60   Data           0  cntfilterdetail.o(.text)
    |L1.2324|                                0x0000df68   Data           0  cntfilterdetail.o(.text)
    |L1.3804|                                0x0000e530   Data           0  cntfilterdetail.o(.text)
    |L1.3820|                                0x0000e540   Data           0  cntfilterdetail.o(.text)
    |L1.3864|                                0x0000e56c   Data           0  cntfilterdetail.o(.text)
    .text                                    0x0000eea0   Section     3568  cntdbinfo.o(.text)
    |L1.1032|                                0x0000f2a8   Data           0  cntdbinfo.o(.text)
    .text                                    0x0000fc90   Section      400  cntfilterdefault.o(.text)
    .text                                    0x0000fe20   Section      876  cntfilterintersection.o(.text)
    .text                                    0x0001018c   Section      872  cntfilterunion.o(.text)
    .text                                    0x000104f4   Section     4032  cntsymbianfilterdbms.o(.text)
    .text                                    0x000114b4   Section     1840  cntsymbiansorterdbms.o(.text)
    .text                                    0x00011be4   Section     2268  cntsymbiansrvconnection.o(.text)
    .text                                    0x000124c0   Section     5812  cnttransformcontact.o(.text)
    |L1.2120|                                0x00012d08   Data           0  cnttransformcontact.o(.text)
    |L1.2132|                                0x00012d14   Data           0  cnttransformcontact.o(.text)
    |L1.2140|                                0x00012d1c   Data           0  cnttransformcontact.o(.text)
    |L1.2156|                                0x00012d2c   Data           0  cnttransformcontact.o(.text)
    |L1.2168|                                0x00012d38   Data           0  cnttransformcontact.o(.text)
    |L1.2196|                                0x00012d54   Data           0  cnttransformcontact.o(.text)
    __sti___23_cnttransformcontact_cpp       0x00013a27   Thumb Code   142  cnttransformcontact.o(.text)
    .text                                    0x00013b74   Section      352  cnttransformcontactdata.o(.text)
    .text                                    0x00013cd4   Section     2170  cnttransformname.o(.text)
    .text                                    0x00014550   Section      892  cnttransformnickname.o(.text)
    .text                                    0x000148cc   Section     2908  cnttransformphonenumber.o(.text)
    .text                                    0x00015428   Section     1096  cnttransformemail.o(.text)
    .text                                    0x00015870   Section     3032  cnttransformaddress.o(.text)
    .text                                    0x00016448   Section     1516  cnttransformurl.o(.text)
    .text                                    0x00016a34   Section      892  cnttransformbirthday.o(.text)
    .text                                    0x00016db0   Section     1924  cnttransformonlineaccountsimple.o(.text)
    .text                                    0x00017534   Section     1944  cnttransformorganisation.o(.text)
    .text                                    0x00017ccc   Section     1396  cnttransformringtone.o(.text)
    .text                                    0x00018240   Section      808  cnttransformthumbnail.o(.text)
    __sti___25_cnttransformthumbnail_cpp     0x0001853b   Thumb Code    10  cnttransformthumbnail.o(.text)
    .text                                    0x00018568   Section     1182  cnttransformavatar.o(.text)
    .text                                    0x00018a08   Section     1392  cntthumbnailcreator.o(.text)
    __sti___23_cntthumbnailcreator_cpp       0x00018f67   Thumb Code    10  cntthumbnailcreator.o(.text)
    .text                                    0x00018f78   Section     1200  cnttransformsynctarget.o(.text)
    .text                                    0x00019428   Section      848  cnttransformgender.o(.text)
    .text                                    0x00019778   Section     1308  cnttransformanniversary.o(.text)
    .text                                    0x00019c94   Section      920  cnttransformanniversarysimple.o(.text)
    .text                                    0x0001a02c   Section     1564  cnttransformgeolocation.o(.text)
    .text                                    0x0001a648   Section      776  cnttransformnote.o(.text)
    .text                                    0x0001a950   Section     1312  cnttransformfamily.o(.text)
    .text                                    0x0001ae70   Section      492  cnttransformempty.o(.text)
    .text                                    0x0001b05c   Section       24  switch8.o(.text)
    .text                                    0x0001b074   Section       80  uc_dll.o(.text)
    .text                                    0x0001b0c4   Section      180  ucppfini.o(.text)
    .text                                    0x0001b178   Section        4  dllexp.o(.text)
    .text.clean                              0x0001b17c   Section     1256  cntsymbianengine.o(.text.clean)
    .text.clean                              0x0001b664   Section       24  cntabstractrelationship.o(.text.clean)
    .text.clean                              0x0001b67c   Section      280  cntrelationshipgroup.o(.text.clean)
    .text.clean                              0x0001b794   Section      202  cntsymbiandatabase.o(.text.clean)
    .text.clean                              0x0001b85e   Section      256  cntdisplaylabel.o(.text.clean)
    .text.clean                              0x0001b95e   Section      270  cntrelationship.o(.text.clean)
    .text.clean                              0x0001ba6c   Section      132  cntfilterrelationship.o(.text.clean)
    .text.clean                              0x0001baf0   Section     1044  cntfilterdetail.o(.text.clean)
    .text.clean                              0x0001bf04   Section      642  cntdbinfo.o(.text.clean)
    .text.clean                              0x0001c186   Section       38  cntfilterdefault.o(.text.clean)
    .text.clean                              0x0001c1ac   Section      118  cntfilterintersection.o(.text.clean)
    .text.clean                              0x0001c222   Section      118  cntfilterunion.o(.text.clean)
    .text.clean                              0x0001c298   Section      522  cntsymbianfilterdbms.o(.text.clean)
    .text.clean                              0x0001c4a2   Section      210  cntsymbiansorterdbms.o(.text.clean)
    .text.clean                              0x0001c574   Section      268  cntsymbiansrvconnection.o(.text.clean)
    .text.clean                              0x0001c680   Section      784  cnttransformcontact.o(.text.clean)
    .text.clean                              0x0001c990   Section       28  cnttransformcontactdata.o(.text.clean)
    .text.clean                              0x0001c9ac   Section      284  cnttransformname.o(.text.clean)
    .text.clean                              0x0001cac8   Section      146  cnttransformnickname.o(.text.clean)
    .text.clean                              0x0001cb5a   Section      314  cnttransformphonenumber.o(.text.clean)
    .text.clean                              0x0001cc94   Section      166  cnttransformemail.o(.text.clean)
    .text.clean                              0x0001cd3a   Section      356  cnttransformaddress.o(.text.clean)
    .text.clean                              0x0001ce9e   Section      230  cnttransformurl.o(.text.clean)
    .text.clean                              0x0001cf84   Section      116  cnttransformbirthday.o(.text.clean)
    .text.clean                              0x0001cff8   Section      294  cnttransformonlineaccountsimple.o(.text.clean)
    .text.clean                              0x0001d11e   Section      262  cnttransformorganisation.o(.text.clean)
    .text.clean                              0x0001d224   Section      268  cnttransformringtone.o(.text.clean)
    .text.clean                              0x0001d330   Section      106  cnttransformthumbnail.o(.text.clean)
    .text.clean                              0x0001d39a   Section      178  cnttransformavatar.o(.text.clean)
    .text.clean                              0x0001d44c   Section       28  cntthumbnailcreator.o(.text.clean)
    .text.clean                              0x0001d468   Section      190  cnttransformsynctarget.o(.text.clean)
    .text.clean                              0x0001d526   Section      124  cnttransformgender.o(.text.clean)
    .text.clean                              0x0001d5a2   Section      162  cnttransformanniversary.o(.text.clean)
    .text.clean                              0x0001d644   Section      124  cnttransformanniversarysimple.o(.text.clean)
    .text.clean                              0x0001d6c0   Section      174  cnttransformgeolocation.o(.text.clean)
    .text.clean                              0x0001d76e   Section      124  cnttransformnote.o(.text.clean)
    .text.clean                              0x0001d7ea   Section      192  cnttransformfamily.o(.text.clean)
    .text.clean                              0x0001d8aa   Section       96  cnttransformempty.o(.text.clean)
    i._ZN10QByteArrayD1Ev                    0x0001d90a   Section       24  cnttransformthumbnail.o(i._ZN10QByteArrayD1Ev)
    i._ZN10QtMobility12QContactGuidD1Ev      0x0001d922   Section       14  cntsymbianengine.o(i._ZN10QtMobility12QContactGuidD1Ev)
    i._ZN10QtMobility12QContactNameD1Ev      0x0001d930   Section       14  cntsymbiansrvconnection.o(i._ZN10QtMobility12QContactNameD1Ev)
    i._ZN10QtMobility14QContactDetail11setContextsERK7QString 0x0001d940   Section       76  cnttransformcontactdata.o(i._ZN10QtMobility14QContactDetail11setContextsERK7QString)
    i._ZN10QtMobility14QContactDetail11setContextsERK7QString.clean 0x0001d98c   Section       26  cnttransformcontactdata.o(i._ZN10QtMobility14QContactDetail11setContextsERK7QString.clean)
    i._ZN10QtMobility14QContactFamilyD1Ev    0x0001d9a6   Section       14  cnttransformfamily.o(i._ZN10QtMobility14QContactFamilyD1Ev)
    i._ZN10QtMobility15QContactAddressC1ERKS0_ 0x0001d9b4   Section       18  cnttransformaddress.o(i._ZN10QtMobility15QContactAddressC1ERKS0_)
    i._ZN10QtMobility15QContactAddressD1Ev   0x0001d9c6   Section       14  cnttransformaddress.o(i._ZN10QtMobility15QContactAddressD1Ev)
    i._ZN10QtMobility16QContactBirthdayD1Ev  0x0001d9d4   Section       14  cnttransformbirthday.o(i._ZN10QtMobility16QContactBirthdayD1Ev)
    i._ZN10QtMobility16QContactNicknameD1Ev  0x0001d9e2   Section       14  cnttransformnickname.o(i._ZN10QtMobility16QContactNicknameD1Ev)
    i._ZN10QtMobility16QContactRingtoneD1Ev  0x0001d9f0   Section       14  cnttransformringtone.o(i._ZN10QtMobility16QContactRingtoneD1Ev)
    i._ZN10QtMobility17QContactTimestampD1Ev 0x0001d9fe   Section       14  cnttransformcontact.o(i._ZN10QtMobility17QContactTimestampD1Ev)
    i._ZN10QtMobility19QContactAnniversaryD1Ev 0x0001da0c   Section       14  cnttransformanniversary.o(i._ZN10QtMobility19QContactAnniversaryD1Ev)
    i._ZN10QtMobility19QContactGeoLocation11setLatitudeEd 0x0001da1c   Section       48  cnttransformgeolocation.o(i._ZN10QtMobility19QContactGeoLocation11setLatitudeEd)
    i._ZN10QtMobility19QContactGeoLocation11setLatitudeEd.clean 0x0001da4c   Section       10  cnttransformgeolocation.o(i._ZN10QtMobility19QContactGeoLocation11setLatitudeEd.clean)
    i._ZN10QtMobility19QContactGeoLocation12setLongitudeEd 0x0001da58   Section       48  cnttransformgeolocation.o(i._ZN10QtMobility19QContactGeoLocation12setLongitudeEd)
    i._ZN10QtMobility19QContactGeoLocation12setLongitudeEd.clean 0x0001da88   Section       10  cnttransformgeolocation.o(i._ZN10QtMobility19QContactGeoLocation12setLongitudeEd.clean)
    i._ZN10QtMobility19QContactPhoneNumber11setSubTypesERK7QString 0x0001da94   Section       76  cnttransformphonenumber.o(i._ZN10QtMobility19QContactPhoneNumber11setSubTypesERK7QString)
    i._ZN10QtMobility19QContactPhoneNumber11setSubTypesERK7QString.clean 0x0001dae0   Section       26  cnttransformphonenumber.o(i._ZN10QtMobility19QContactPhoneNumber11setSubTypesERK7QString.clean)
    i._ZN10QtMobility19QContactUnionFilterD1Ev 0x0001dafa   Section       14  cntsymbianfilterdbms.o(i._ZN10QtMobility19QContactUnionFilterD1Ev)
    i._ZN10QtMobility20QContactDetailFilterD1Ev 0x0001db08   Section       14  cntsymbianengine.o(i._ZN10QtMobility20QContactDetailFilterD1Ev)
    i._ZN10QtMobility20QContactOrganizationD1Ev 0x0001db16   Section       14  cntsymbiansrvconnection.o(i._ZN10QtMobility20QContactOrganizationD1Ev)
    i._ZN10QtMobility21QContactInvalidFilterD1Ev 0x0001db24   Section       14  cntsymbianfilterdbms.o(i._ZN10QtMobility21QContactInvalidFilterD1Ev)
    i._ZN10QtMobility21QContactManagerEngineD2Ev 0x0001db32   Section       14  cntsymbianengine.o(i._ZN10QtMobility21QContactManagerEngineD2Ev)
    i._ZN10QtMobility21QContactOnlineAccount11setSubTypesERK7QString 0x0001db40   Section       76  cnttransformonlineaccountsimple.o(i._ZN10QtMobility21QContactOnlineAccount11setSubTypesERK7QString)
    i._ZN10QtMobility21QContactOnlineAccount11setSubTypesERK7QString.clean 0x0001db8c   Section       26  cnttransformonlineaccountsimple.o(i._ZN10QtMobility21QContactOnlineAccount11setSubTypesERK7QString.clean)
    i._ZN10QtMobility21QContactOnlineAccount13setAccountUriERK7QString 0x0001dba8   Section       48  cnttransformonlineaccountsimple.o(i._ZN10QtMobility21QContactOnlineAccount13setAccountUriERK7QString)
    i._ZN10QtMobility21QContactOnlineAccount13setAccountUriERK7QString.clean 0x0001dbd8   Section       10  cnttransformonlineaccountsimple.o(i._ZN10QtMobility21QContactOnlineAccount13setAccountUriERK7QString.clean)
    i._ZN10QtMobility26QContactIntersectionFilterD1Ev 0x0001dbe2   Section       14  cntsymbianfilterdbms.o(i._ZN10QtMobility26QContactIntersectionFilterD1Ev)
    i._ZN10QtMobility26QContactRelationshipFilterD1Ev 0x0001dbf0   Section       14  cntfilterrelationship.o(i._ZN10QtMobility26QContactRelationshipFilterD1Ev)
    i._ZN11QStringListC1ERKS_                0x0001dbfe   Section       18  cnttransformaddress.o(i._ZN11QStringListC1ERKS_)
    i._ZN11QStringListC1Ev                   0x0001dc10   Section       14  cnttransformcontactdata.o(i._ZN11QStringListC1Ev)
    i._ZN11QStringListD1Ev                   0x0001dc1e   Section       14  cntsymbianengine.o(i._ZN11QStringListD1Ev)
    i._ZN12CleanupStack13PopAndDestroyEPv    0x0001dc2c   Section       16  cntsymbianengine.o(i._ZN12CleanupStack13PopAndDestroyEPv)
    i._ZN13CArrayFixFlatIN16CContactDatabase9TSortPrefEED0Ev 0x0001dc3c   Section       24  cntsymbiansorterdbms.o(i._ZN13CArrayFixFlatIN16CContactDatabase9TSortPrefEED0Ev)
    i._ZN13CArrayFixFlatIN16CContactDatabase9TSortPrefEED1Ev 0x0001dc54   Section       14  cntsymbiansorterdbms.o(i._ZN13CArrayFixFlatIN16CContactDatabase9TSortPrefEED1Ev)
    i._ZN14RBufReadStreamC1Ev                0x0001dc62   Section       24  cntsymbiansrvconnection.o(i._ZN14RBufReadStreamC1Ev)
    i._ZN15CContactIdArrayixEi               0x0001dc7a   Section       18  cntsymbianfilterdbms.o(i._ZN15CContactIdArrayixEi)
    i._ZN15CntTransformUrlD0Ev               0x0001dc8c   Section       22  cnttransformurl.o(i._ZN15CntTransformUrlD0Ev)
    i._ZN15CntTransformUrlD1Ev               0x0001dca2   Section       16  cnttransformurl.o(i._ZN15CntTransformUrlD1Ev)
    i._ZN15QBasicAtomicInt3refEv             0x0001dcb2   Section       24  cntsymbianengine.o(i._ZN15QBasicAtomicInt3refEv)
    i._ZN15QBasicAtomicInt5derefEv           0x0001dcca   Section       24  cntsymbianengine.o(i._ZN15QBasicAtomicInt5derefEv)
    i._ZN16CntTransformNameD0Ev              0x0001dce2   Section       22  cnttransformname.o(i._ZN16CntTransformNameD0Ev)
    i._ZN16CntTransformNameD1Ev              0x0001dcf8   Section       16  cnttransformname.o(i._ZN16CntTransformNameD1Ev)
    i._ZN16CntTransformNoteD0Ev              0x0001dd08   Section       22  cnttransformnote.o(i._ZN16CntTransformNoteD0Ev)
    i._ZN16CntTransformNoteD1Ev              0x0001dd1e   Section       16  cnttransformnote.o(i._ZN16CntTransformNoteD1Ev)
    i._ZN17CntSymbianFactoryD0Ev             0x0001dd2e   Section       22  moc_cntsymbianengine.o(i._ZN17CntSymbianFactoryD0Ev)
    i._ZN17CntSymbianFactoryD1Ev             0x0001dd44   Section       26  moc_cntsymbianengine.o(i._ZN17CntSymbianFactoryD1Ev)
    i._ZN17CntSymbianFactoryD1Ev.clean       0x0001dd5e   Section       10  moc_cntsymbianengine.o(i._ZN17CntSymbianFactoryD1Ev.clean)
    i._ZN17CntTransformEmailD0Ev             0x0001dd68   Section       22  cnttransformemail.o(i._ZN17CntTransformEmailD0Ev)
    i._ZN17CntTransformEmailD1Ev             0x0001dd7e   Section       16  cnttransformemail.o(i._ZN17CntTransformEmailD1Ev)
    i._ZN17CntTransformEmptyD0Ev             0x0001dd8e   Section       22  cnttransformempty.o(i._ZN17CntTransformEmptyD0Ev)
    i._ZN17CntTransformEmptyD1Ev             0x0001dda4   Section       16  cnttransformempty.o(i._ZN17CntTransformEmptyD1Ev)
    i._ZN17QForeachContainerI11QStringListED1Ev 0x0001ddb4   Section       14  cntsymbianengine.o(i._ZN17QForeachContainerI11QStringListED1Ev)
    i._ZN17QForeachContainerI5QListI4TUidEED1Ev 0x0001ddc2   Section       14  cntsymbianengine.o(i._ZN17QForeachContainerI5QListI4TUidEED1Ev)
    i._ZN17QForeachContainerI5QListI7QStringEED1Ev 0x0001ddd0   Section       14  cntrelationship.o(i._ZN17QForeachContainerI5QListI7QStringEED1Ev)
    i._ZN17QForeachContainerI5QListIN10QtMobility15QContactAddressEEED1Ev 0x0001ddde   Section       14  cnttransformaddress.o(i._ZN17QForeachContainerI5QListIN10QtMobility15QContactAddressEEED1Ev)
    i._ZN17QForeachContainerI5QListIN10QtMobility17QContactSortOrderEEED1Ev 0x0001ddec   Section       14  cntdbinfo.o(i._ZN17QForeachContainerI5QListIN10QtMobility17QContactSortOrderEEED1Ev)
    i._ZN17QForeachContainerI5QListIjEED1Ev  0x0001ddfa   Section       14  cntsymbianengine.o(i._ZN17QForeachContainerI5QListIjEED1Ev)
    i._ZN18CntTransformAvatarD0Ev            0x0001de08   Section       22  cnttransformavatar.o(i._ZN18CntTransformAvatarD0Ev)
    i._ZN18CntTransformAvatarD1Ev            0x0001de1e   Section       16  cnttransformavatar.o(i._ZN18CntTransformAvatarD1Ev)
    i._ZN18CntTransformFamilyD0Ev            0x0001de2e   Section       22  cnttransformfamily.o(i._ZN18CntTransformFamilyD0Ev)
    i._ZN18CntTransformFamilyD1Ev            0x0001de44   Section       16  cnttransformfamily.o(i._ZN18CntTransformFamilyD1Ev)
    i._ZN18CntTransformGenderD0Ev            0x0001de54   Section       22  cnttransformgender.o(i._ZN18CntTransformGenderD0Ev)
    i._ZN18CntTransformGenderD1Ev            0x0001de6a   Section       16  cnttransformgender.o(i._ZN18CntTransformGenderD1Ev)
    i._ZN19CntTransformAddressD0Ev           0x0001de7a   Section       22  cnttransformaddress.o(i._ZN19CntTransformAddressD0Ev)
    i._ZN19CntTransformAddressD1Ev           0x0001de90   Section       16  cnttransformaddress.o(i._ZN19CntTransformAddressD1Ev)
    i._ZN20CContactItemFieldDefD0Ev          0x0001dea0   Section       24  cntsymbianfilterdbms.o(i._ZN20CContactItemFieldDefD0Ev)
    i._ZN20CContactItemFieldDefD1Ev          0x0001deb8   Section       14  cntsymbianfilterdbms.o(i._ZN20CContactItemFieldDefD1Ev)
    i._ZN20CContactItemFieldSetixEi          0x0001dec6   Section       20  cnttransformcontact.o(i._ZN20CContactItemFieldSetixEi)
    i._ZN20CntTransformBirthdayD0Ev          0x0001deda   Section       22  cnttransformbirthday.o(i._ZN20CntTransformBirthdayD0Ev)
    i._ZN20CntTransformBirthdayD1Ev          0x0001def0   Section       16  cnttransformbirthday.o(i._ZN20CntTransformBirthdayD1Ev)
    i._ZN20CntTransformNicknameD0Ev          0x0001df00   Section       22  cnttransformnickname.o(i._ZN20CntTransformNicknameD0Ev)
    i._ZN20CntTransformNicknameD1Ev          0x0001df16   Section       16  cnttransformnickname.o(i._ZN20CntTransformNicknameD1Ev)
    i._ZN20CntTransformRingtoneD0Ev          0x0001df26   Section       22  cnttransformringtone.o(i._ZN20CntTransformRingtoneD0Ev)
    i._ZN20CntTransformRingtoneD1Ev          0x0001df3c   Section       16  cnttransformringtone.o(i._ZN20CntTransformRingtoneD1Ev)
    i._ZN22CntTransformSyncTargetD0Ev        0x0001df4c   Section       22  cnttransformsynctarget.o(i._ZN22CntTransformSyncTargetD0Ev)
    i._ZN22CntTransformSyncTargetD1Ev        0x0001df62   Section       16  cnttransformsynctarget.o(i._ZN22CntTransformSyncTargetD1Ev)
    i._ZN23CntTransformAnniversaryD0Ev       0x0001df72   Section       22  cnttransformanniversary.o(i._ZN23CntTransformAnniversaryD0Ev)
    i._ZN23CntTransformAnniversaryD1Ev       0x0001df88   Section       16  cnttransformanniversary.o(i._ZN23CntTransformAnniversaryD1Ev)
    i._ZN23CntTransformContactData5resetEv   0x0001df98   Section        2  moc_cnttransformcontactdata.o(i._ZN23CntTransformContactData5resetEv)
    i._ZN23CntTransformContactDataC2Ev       0x0001df9c   Section       28  cnttransformcontact.o(i._ZN23CntTransformContactDataC2Ev)
    i._ZN23CntTransformContactDataD0Ev       0x0001dfb8   Section       24  moc_cnttransformcontactdata.o(i._ZN23CntTransformContactDataD0Ev)
    i._ZN23CntTransformContactDataD2Ev       0x0001dfd0   Section       14  moc_cnttransformcontactdata.o(i._ZN23CntTransformContactDataD2Ev)
    i._ZN23CntTransformGeolocationD0Ev       0x0001dfde   Section       22  cnttransformgeolocation.o(i._ZN23CntTransformGeolocationD0Ev)
    i._ZN23CntTransformGeolocationD1Ev       0x0001dff4   Section       16  cnttransformgeolocation.o(i._ZN23CntTransformGeolocationD1Ev)
    i._ZN23CntTransformPhoneNumberD0Ev       0x0001e004   Section       22  cnttransformphonenumber.o(i._ZN23CntTransformPhoneNumberD0Ev)
    i._ZN23CntTransformPhoneNumberD1Ev       0x0001e01a   Section       16  cnttransformphonenumber.o(i._ZN23CntTransformPhoneNumberD1Ev)
    i._ZN24CntAbstractContactFilterD0Ev      0x0001e02a   Section       18  cntfilterrelationship.o(i._ZN24CntAbstractContactFilterD0Ev)
    i._ZN24CntAbstractContactFilterD2Ev      0x0001e03c   Section        2  cntfilterrelationship.o(i._ZN24CntAbstractContactFilterD2Ev)
    i._ZN24CntTransformOrganisationD0Ev      0x0001e03e   Section       22  cnttransformorganisation.o(i._ZN24CntTransformOrganisationD0Ev)
    i._ZN24CntTransformOrganisationD1Ev      0x0001e054   Section       16  cnttransformorganisation.o(i._ZN24CntTransformOrganisationD1Ev)
    i._ZN25CntTransformOnlineAccountD0Ev     0x0001e064   Section       22  cnttransformonlineaccountsimple.o(i._ZN25CntTransformOnlineAccountD0Ev)
    i._ZN25CntTransformOnlineAccountD1Ev     0x0001e07a   Section       16  cnttransformonlineaccountsimple.o(i._ZN25CntTransformOnlineAccountD1Ev)
    i._ZN29CntTransformAnniversarySimpleD0Ev 0x0001e08a   Section       22  cnttransformanniversarysimple.o(i._ZN29CntTransformAnniversarySimpleD0Ev)
    i._ZN29CntTransformAnniversarySimpleD1Ev 0x0001e0a0   Section       16  cnttransformanniversarysimple.o(i._ZN29CntTransformAnniversarySimpleD1Ev)
    i._ZN4QSetIjED1Ev                        0x0001e0b0   Section       14  cntsymbianengine.o(i._ZN4QSetIjED1Ev)
    i._ZN5CBasenwEj                          0x0001e0be   Section       16  cntdisplaylabel.o(i._ZN5CBasenwEj)
    i._ZN5QPairI13QLatin1StringS0_EC1ERKS1_  0x0001e0ce   Section       10  cntdisplaylabel.o(i._ZN5QPairI13QLatin1StringS0_EC1ERKS1_)
    i._ZN5QPairIj7QStringEC1ERKS1_           0x0001e0d8   Section       24  cntsymbiansrvconnection.o(i._ZN5QPairIj7QStringEC1ERKS1_)
    i._ZN5QPairIj7QStringED1Ev               0x0001e0f0   Section       16  cntfilterdetail.o(i._ZN5QPairIj7QStringED1Ev)
    i._ZN6TLex16C1ERK7TDesC16                0x0001e100   Section       30  cntfilterdetail.o(i._ZN6TLex16C1ERK7TDesC16)
    i._ZN7QString5clearEv                    0x0001e120   Section       56  cntdbinfo.o(i._ZN7QString5clearEv)
    i._ZN7QString5clearEv.clean              0x0001e158   Section       10  cntdbinfo.o(i._ZN7QString5clearEv.clean)
    i._ZN7QStringC1EPKc                      0x0001e162   Section       22  cntsymbianengine.o(i._ZN7QStringC1EPKc)
    i._ZN7QStringC1ERK13QLatin1String        0x0001e178   Section       26  cntdisplaylabel.o(i._ZN7QStringC1ERK13QLatin1String)
    i._ZN7QStringC1ERKS_                     0x0001e192   Section       22  cntsymbianengine.o(i._ZN7QStringC1ERKS_)
    i._ZN7QStringC1Ev                        0x0001e1a8   Section       24  cntsymbianengine.o(i._ZN7QStringC1Ev)
    i._ZN7QStringD1Ev                        0x0001e1c0   Section       24  cntsymbianengine.o(i._ZN7QStringD1Ev)
    i._ZN7QStringaSEPKc                      0x0001e1d8   Section       40  cntfilterdetail.o(i._ZN7QStringaSEPKc)
    i._ZN7QStringaSEPKc.clean                0x0001e200   Section       10  cntfilterdetail.o(i._ZN7QStringaSEPKc.clean)
    i._ZN7QStringpLEPKc                      0x0001e20a   Section       40  cntfilterdetail.o(i._ZN7QStringpLEPKc)
    i._ZN7QStringpLEPKc.clean                0x0001e232   Section       10  cntfilterdetail.o(i._ZN7QStringpLEPKc.clean)
    i._ZN7QStringpLEc                        0x0001e23c   Section       24  cntfilterdetail.o(i._ZN7QStringpLEc)
    i._ZN8TIpcArgs3SetEiP5TDes8              0x0001e254   Section       22  cntsymbiansrvconnection.o(i._ZN8TIpcArgs3SetEiP5TDes8)
    i._ZN8TIpcArgs3SetEiPK7TDesC16           0x0001e26a   Section       22  cntsymbiansrvconnection.o(i._ZN8TIpcArgs3SetEiPK7TDesC16)
    i._ZN9CArrayFixIN16CContactDatabase9TSortPrefEED0Ev 0x0001e280   Section       22  cntsymbiansorterdbms.o(i._ZN9CArrayFixIN16CContactDatabase9TSortPrefEED0Ev)
    i._ZN9CArrayFixIN16CContactDatabase9TSortPrefEED1Ev 0x0001e296   Section       14  cntsymbiansorterdbms.o(i._ZN9CArrayFixIN16CContactDatabase9TSortPrefEED1Ev)
    i._ZN9QHashData8willGrowEv               0x0001e2a4   Section       32  cntdbinfo.o(i._ZN9QHashData8willGrowEv)
    i._ZNK10QtMobility14QContactDetail8contextsEv 0x0001e2c4   Section       32  cnttransformaddress.o(i._ZNK10QtMobility14QContactDetail8contextsEv)
    i._ZNK10QtMobility14QContactFamily8childrenEv 0x0001e2e4   Section       32  cnttransformfamily.o(i._ZNK10QtMobility14QContactFamily8childrenEv)
    i._ZNK10QtMobility16QContactBirthday4dateEv 0x0001e304   Section      136  cnttransformbirthday.o(i._ZNK10QtMobility16QContactBirthday4dateEv)
    i._ZNK10QtMobility16QContactBirthday4dateEv.clean 0x0001e38c   Section       10  cnttransformbirthday.o(i._ZNK10QtMobility16QContactBirthday4dateEv.clean)
    i._ZNK10QtMobility16QContactRingtone16audioRingtoneUrlEv 0x0001e398   Section       48  cnttransformringtone.o(i._ZNK10QtMobility16QContactRingtone16audioRingtoneUrlEv)
    i._ZNK10QtMobility16QContactRingtone16audioRingtoneUrlEv.clean 0x0001e3c8   Section       10  cnttransformringtone.o(i._ZNK10QtMobility16QContactRingtone16audioRingtoneUrlEv.clean)
    i._ZNK10QtMobility16QContactRingtone16videoRingtoneUrlEv 0x0001e3d4   Section       48  cnttransformringtone.o(i._ZNK10QtMobility16QContactRingtone16videoRingtoneUrlEv)
    i._ZNK10QtMobility16QContactRingtone16videoRingtoneUrlEv.clean 0x0001e404   Section       10  cnttransformringtone.o(i._ZNK10QtMobility16QContactRingtone16videoRingtoneUrlEv.clean)
    i._ZNK10QtMobility17QContactThumbnail9thumbnailEv 0x0001e410   Section       32  cnttransformthumbnail.o(i._ZNK10QtMobility17QContactThumbnail9thumbnailEv)
    i._ZNK10QtMobility19QContactAnniversary12originalDateEv 0x0001e430   Section      136  cnttransformanniversary.o(i._ZNK10QtMobility19QContactAnniversary12originalDateEv)
    i._ZNK10QtMobility19QContactAnniversary12originalDateEv.clean 0x0001e4b8   Section       10  cnttransformanniversary.o(i._ZNK10QtMobility19QContactAnniversary12originalDateEv.clean)
    i._ZNK10QtMobility19QContactGeoLocation8latitudeEv 0x0001e4c4   Section       60  cnttransformgeolocation.o(i._ZNK10QtMobility19QContactGeoLocation8latitudeEv)
    i._ZNK10QtMobility19QContactGeoLocation8latitudeEv.clean 0x0001e500   Section       10  cnttransformgeolocation.o(i._ZNK10QtMobility19QContactGeoLocation8latitudeEv.clean)
    i._ZNK10QtMobility19QContactGeoLocation9longitudeEv 0x0001e50c   Section       60  cnttransformgeolocation.o(i._ZNK10QtMobility19QContactGeoLocation9longitudeEv)
    i._ZNK10QtMobility19QContactGeoLocation9longitudeEv.clean 0x0001e548   Section       10  cnttransformgeolocation.o(i._ZNK10QtMobility19QContactGeoLocation9longitudeEv.clean)
    i._ZNK10QtMobility21QContactOnlineAccount10accountUriEv 0x0001e554   Section       32  cnttransformonlineaccountsimple.o(i._ZNK10QtMobility21QContactOnlineAccount10accountUriEv)
    i._ZNK11QStringList8containsERK7QStringN2Qt15CaseSensitivityE 0x0001e574   Section       22  cnttransformphonenumber.o(i._ZNK11QStringList8containsERK7QStringN2Qt15CaseSensitivityE)
    i._ZNK15CContactIdArrayixEi              0x0001e58a   Section       18  cntrelationshipgroup.o(i._ZNK15CContactIdArrayixEi)
    i._ZNK15QBasicAtomicInteqEi              0x0001e59c   Section       16  cntsymbianengine.o(i._ZNK15QBasicAtomicInteqEi)
    i._ZNK15QBasicAtomicIntneEi              0x0001e5ac   Section       16  cntsymbianengine.o(i._ZNK15QBasicAtomicIntneEi)
    i._ZNK16CntSymbianEngine14managerVersionEv 0x0001e5bc   Section        6  moc_cntsymbianengine.o(i._ZNK16CntSymbianEngine14managerVersionEv)
    i._ZNK16CntSymbianEngine17compatibleContactERKN10QtMobility8QContactEPNS0_15QContactManager5ErrorE 0x0001e5c2   Section       24  moc_cntsymbianengine.o(i._ZNK16CntSymbianEngine17compatibleContactERKN10QtMobility8QContactEPNS0_15QContactManager5ErrorE)
    i._ZNK20CContactItemFieldSet4FindE4TUidS0_ 0x0001e5da   Section       20  cntthumbnailcreator.o(i._ZNK20CContactItemFieldSet4FindE4TUidS0_)
    i._ZNK23CntTransformContactData13supportsFieldEm 0x0001e5ee   Section       58  cnttransformphonenumber.o(i._ZNK23CntTransformContactData13supportsFieldEm)
    i._ZNK23CntTransformContactData13supportsFieldEm.clean 0x0001e628   Section       10  cnttransformphonenumber.o(i._ZNK23CntTransformContactData13supportsFieldEm.clean)
    i._ZNK5QBoolcvPKvEv                      0x0001e632   Section       16  cnttransformphonenumber.o(i._ZNK5QBoolcvPKvEv)
    i._ZNK7QString3argERKS_S1_               0x0001e642   Section       28  cntdbinfo.o(i._ZNK7QString3argERKS_S1_)
    i._ZNK7QString3argEiiiRK5QChar           0x0001e65e   Section       36  cntfilterdetail.o(i._ZNK7QString3argEiiiRK5QChar)
    i._ZNK7QString3argEjiiRK5QChar           0x0001e682   Section       36  cntfilterrelationship.o(i._ZNK7QString3argEjiiRK5QChar)
    i._ZNK7QString3argEliiRK5QChar           0x0001e6a6   Section       36  cntfilterdetail.o(i._ZNK7QString3argEliiRK5QChar)
    i._ZNK7QString7isEmptyEv                 0x0001e6ca   Section       18  cntdisplaylabel.o(i._ZNK7QString7isEmptyEv)
    i._ZNK7QStringneERK13QLatin1String       0x0001e6dc   Section       20  cntsymbianengine.o(i._ZNK7QStringneERK13QLatin1String)
    i._ZNK9QListData2atEi                    0x0001e6f0   Section       20  cntsymbianengine.o(i._ZNK9QListData2atEi)
    i._ZNK9QListData3endEv                   0x0001e704   Section       16  cntsymbianengine.o(i._ZNK9QListData3endEv)
    i._ZNK9QListData4sizeEv                  0x0001e714   Section       14  cntsymbianengine.o(i._ZNK9QListData4sizeEv)
    i._ZNK9QListData5beginEv                 0x0001e722   Section       16  cntsymbianengine.o(i._ZNK9QListData5beginEv)
    i._ZNK9QListData7isEmptyEv               0x0001e732   Section       22  cntsymbianengine.o(i._ZNK9QListData7isEmptyEv)
    i._ZThn8_N17CntSymbianFactoryD0Ev        0x0001e748   Section       14  moc_cntsymbianengine.o(i._ZThn8_N17CntSymbianFactoryD0Ev)
    i._ZThn8_N17CntSymbianFactoryD1Ev        0x0001e756   Section       14  moc_cntsymbianengine.o(i._ZThn8_N17CntSymbianFactoryD1Ev)
    i._ZdlPvS_                               0x0001e764   Section        2  cntsymbianengine.o(i._ZdlPvS_)
    i._ZnwjPv                                0x0001e766   Section        6  cntsymbianengine.o(i._ZnwjPv)
    i._ZplPKcRK7QString                      0x0001e76c   Section       48  cntfilterdetail.o(i._ZplPKcRK7QString)
    i._ZplPKcRK7QString.clean                0x0001e79c   Section       10  cntfilterdetail.o(i._ZplPKcRK7QString.clean)
    i._ZplRK7QStringPKc                      0x0001e7a6   Section       60  cntfilterdetail.o(i._ZplRK7QStringPKc)
    i._ZplRK7QStringPKc.clean                0x0001e7e2   Section       16  cntfilterdetail.o(i._ZplRK7QStringPKc.clean)
    i._ZplRK7QStringS1_                      0x0001e7f2   Section       44  cntfilterdetail.o(i._ZplRK7QStringS1_)
    i._ZplRK7QStringS1_.clean                0x0001e81e   Section       10  cntfilterdetail.o(i._ZplRK7QStringS1_.clean)
    i._ZplRK7QStringc                        0x0001e828   Section      130  cntfilterdetail.o(i._ZplRK7QStringc)
    i._ZplRK7QStringc.clean                  0x0001e8aa   Section       10  cntfilterdetail.o(i._ZplRK7QStringc.clean)
    t._Z15qMapLessThanKeyI7QStringEbRKT_S3_  0x0001e8b4   Section       16  cntsymbianengine.o(t._Z15qMapLessThanKeyI7QStringEbRKT_S3_)
    t._Z15qMapLessThanKeyIN19CntTransformContact11ContactDataEEbRKT_S4_ 0x0001e8c4   Section       18  cnttransformcontact.o(t._Z15qMapLessThanKeyIN19CntTransformContact11ContactDataEEbRKT_S4_)
    t._Z15qMapLessThanKeyIiEbRKT_S2_         0x0001e8d6   Section       18  cntsymbianengine.o(t._Z15qMapLessThanKeyIiEbRKT_S2_)
    t._Z15qMapLessThanKeyIjEbRKT_S2_         0x0001e8e8   Section       18  cntsymbiandatabase.o(t._Z15qMapLessThanKeyIjEbRKT_S2_)
    t._Z20qForeachContainerNewI5QListIN10QtMobility17QContactSortOrderEEE17QForeachContainerIT_ERKS5_ 0x0001e8fa   Section      126  cntsymbiansorterdbms.o(t._Z20qForeachContainerNewI5QListIN10QtMobility17QContactSortOrderEEE17QForeachContainerIT_ERKS5_)
    t._Z20qForeachContainerNewI5QListIN10QtMobility17QContactSortOrderEEE17QForeachContainerIT_ERKS5_.clean 0x0001e978   Section       10  cntsymbiansorterdbms.o(t._Z20qForeachContainerNewI5QListIN10QtMobility17QContactSortOrderEEE17QForeachContainerIT_ERKS5_.clean)
    t._Z20qForeachContainerNewI5QListIjEE17QForeachContainerIT_ERKS3_ 0x0001e982   Section      102  cntsymbianengine.o(t._Z20qForeachContainerNewI5QListIjEE17QForeachContainerIT_ERKS3_)
    t._Z20qForeachContainerNewI5QListIjEE17QForeachContainerIT_ERKS3_.clean 0x0001e9e8   Section       10  cntsymbianengine.o(t._Z20qForeachContainerNewI5QListIjEE17QForeachContainerIT_ERKS3_.clean)
    t._Z9qMakePairI13QLatin1StringS0_E5QPairIT_T0_ERKS2_RKS3_ 0x0001e9f2   Section       22  cntdisplaylabel.o(t._Z9qMakePairI13QLatin1StringS0_E5QPairIT_T0_ERKS2_RKS3_)
    t._Z9qMakePairIj7QStringE5QPairIT_T0_ERKS2_RKS3_ 0x0001ea08   Section       30  cntsymbiansrvconnection.o(t._Z9qMakePairIj7QStringE5QPairIT_T0_ERKS2_RKS3_)
    t._ZN10QtMobilityeqILi10EEEbRK7QStringRKNS_15QLatin1ConstantIXT_EEE 0x0001ea26   Section       24  cntfilterrelationship.o(t._ZN10QtMobilityeqILi10EEEbRK7QStringRKNS_15QLatin1ConstantIXT_EEE)
    t._ZN10QtMobilityeqILi10EEEbRKNS_15QLatin1ConstantIXT_EEERK7QString 0x0001ea3e   Section       24  cnttransformname.o(t._ZN10QtMobilityeqILi10EEEbRKNS_15QLatin1ConstantIXT_EEERK7QString)
    t._ZN10QtMobilityeqILi11EEEbRK7QStringRKNS_15QLatin1ConstantIXT_EEE 0x0001ea56   Section       24  cntsymbianfilterdbms.o(t._ZN10QtMobilityeqILi11EEEbRK7QStringRKNS_15QLatin1ConstantIXT_EEE)
    t._ZN10QtMobilityeqILi11EEEbRKNS_15QLatin1ConstantIXT_EEERK7QString 0x0001ea6e   Section       24  cnttransformname.o(t._ZN10QtMobilityeqILi11EEEbRKNS_15QLatin1ConstantIXT_EEERK7QString)
    t._ZN10QtMobilityeqILi12EEEbRK7QStringRKNS_15QLatin1ConstantIXT_EEE 0x0001ea86   Section       24  cntfilterdetail.o(t._ZN10QtMobilityeqILi12EEEbRK7QStringRKNS_15QLatin1ConstantIXT_EEE)
    t._ZN10QtMobilityeqILi12EEEbRKNS_15QLatin1ConstantIXT_EEERK7QString 0x0001ea9e   Section       24  cnttransformname.o(t._ZN10QtMobilityeqILi12EEEbRKNS_15QLatin1ConstantIXT_EEERK7QString)
    t._ZN10QtMobilityeqILi13EEEbRK7QStringRKNS_15QLatin1ConstantIXT_EEE 0x0001eab6   Section       24  cntsymbianengine.o(t._ZN10QtMobilityeqILi13EEEbRK7QStringRKNS_15QLatin1ConstantIXT_EEE)
    t._ZN10QtMobilityeqILi13EEEbRKNS_15QLatin1ConstantIXT_EEERK7QString 0x0001eace   Section       24  cnttransformemail.o(t._ZN10QtMobilityeqILi13EEEbRKNS_15QLatin1ConstantIXT_EEERK7QString)
    t._ZN10QtMobilityeqILi14EEEbRK7QStringRKNS_15QLatin1ConstantIXT_EEE 0x0001eae6   Section       24  cntfilterdetail.o(t._ZN10QtMobilityeqILi14EEEbRK7QStringRKNS_15QLatin1ConstantIXT_EEE)
    t._ZN10QtMobilityeqILi14EEEbRKNS_15QLatin1ConstantIXT_EEERK7QString 0x0001eafe   Section       24  cnttransformaddress.o(t._ZN10QtMobilityeqILi14EEEbRKNS_15QLatin1ConstantIXT_EEERK7QString)
    t._ZN10QtMobilityeqILi17EEEbRKNS_15QLatin1ConstantIXT_EEERK7QString 0x0001eb16   Section       24  cnttransformphonenumber.o(t._ZN10QtMobilityeqILi17EEEbRKNS_15QLatin1ConstantIXT_EEERK7QString)
    t._ZN10QtMobilityeqILi20EEEbRKNS_15QLatin1ConstantIXT_EEERK7QString 0x0001eb2e   Section       24  cnttransformphonenumber.o(t._ZN10QtMobilityeqILi20EEEbRKNS_15QLatin1ConstantIXT_EEERK7QString)
    t._ZN10QtMobilityeqILi4EEEbRK7QStringRKNS_15QLatin1ConstantIXT_EEE 0x0001eb46   Section       24  cnttransformurl.o(t._ZN10QtMobilityeqILi4EEEbRK7QStringRKNS_15QLatin1ConstantIXT_EEE)
    t._ZN10QtMobilityeqILi4EEEbRKNS_15QLatin1ConstantIXT_EEERK7QString 0x0001eb5e   Section       24  cnttransformphonenumber.o(t._ZN10QtMobilityeqILi4EEEbRKNS_15QLatin1ConstantIXT_EEERK7QString)
    t._ZN10QtMobilityeqILi5EEEbRK7QStringRKNS_15QLatin1ConstantIXT_EEE 0x0001eb76   Section       24  cntsymbianengine.o(t._ZN10QtMobilityeqILi5EEEbRK7QStringRKNS_15QLatin1ConstantIXT_EEE)
    t._ZN10QtMobilityeqILi5EEEbRKNS_15QLatin1ConstantIXT_EEERK7QString 0x0001eb8e   Section       24  cnttransformorganisation.o(t._ZN10QtMobilityeqILi5EEEbRKNS_15QLatin1ConstantIXT_EEERK7QString)
    t._ZN10QtMobilityeqILi6EEEbRK7QStringRKNS_15QLatin1ConstantIXT_EEE 0x0001eba6   Section       24  cntsymbianengine.o(t._ZN10QtMobilityeqILi6EEEbRK7QStringRKNS_15QLatin1ConstantIXT_EEE)
    t._ZN10QtMobilityeqILi6EEEbRKNS_15QLatin1ConstantIXT_EEERK7QString 0x0001ebbe   Section       24  cnttransformphonenumber.o(t._ZN10QtMobilityeqILi6EEEbRKNS_15QLatin1ConstantIXT_EEERK7QString)
    t._ZN10QtMobilityeqILi7EEEbRK7QStringRKNS_15QLatin1ConstantIXT_EEE 0x0001ebd6   Section       24  cntsymbianfilterdbms.o(t._ZN10QtMobilityeqILi7EEEbRK7QStringRKNS_15QLatin1ConstantIXT_EEE)
    t._ZN10QtMobilityeqILi7EEEbRKNS_15QLatin1ConstantIXT_EEERK7QString 0x0001ebee   Section       24  cnttransformname.o(t._ZN10QtMobilityeqILi7EEEbRKNS_15QLatin1ConstantIXT_EEERK7QString)
    t._ZN10QtMobilityeqILi8EEEbRK7QStringRKNS_15QLatin1ConstantIXT_EEE 0x0001ec06   Section       24  cntsymbianengine.o(t._ZN10QtMobilityeqILi8EEEbRK7QStringRKNS_15QLatin1ConstantIXT_EEE)
    t._ZN10QtMobilityeqILi8EEEbRKNS_15QLatin1ConstantIXT_EEERK7QString 0x0001ec1e   Section       24  cnttransformaddress.o(t._ZN10QtMobilityeqILi8EEEbRKNS_15QLatin1ConstantIXT_EEERK7QString)
    t._ZN10QtMobilityeqILi9EEEbRK7QStringRKNS_15QLatin1ConstantIXT_EEE 0x0001ec36   Section       24  cntfilterdetail.o(t._ZN10QtMobilityeqILi9EEEbRK7QStringRKNS_15QLatin1ConstantIXT_EEE)
    t._ZN10QtMobilityeqILi9EEEbRKNS_15QLatin1ConstantIXT_EEERK7QString 0x0001ec4e   Section       24  cnttransformname.o(t._ZN10QtMobilityeqILi9EEEbRKNS_15QLatin1ConstantIXT_EEERK7QString)
    t._ZN10QtMobilityneILi10EEEbRK7QStringRKNS_15QLatin1ConstantIXT_EEE 0x0001ec66   Section       28  cnttransformthumbnail.o(t._ZN10QtMobilityneILi10EEEbRK7QStringRKNS_15QLatin1ConstantIXT_EEE)
    t._ZN10QtMobilityneILi11EEEbRK7QStringRKNS_15QLatin1ConstantIXT_EEE 0x0001ec82   Section       28  cnttransformsynctarget.o(t._ZN10QtMobilityneILi11EEEbRK7QStringRKNS_15QLatin1ConstantIXT_EEE)
    t._ZN10QtMobilityneILi12EEEbRK7QStringRKNS_15QLatin1ConstantIXT_EEE 0x0001ec9e   Section       28  cntfilterdetail.o(t._ZN10QtMobilityneILi12EEEbRK7QStringRKNS_15QLatin1ConstantIXT_EEE)
    t._ZN10QtMobilityneILi13EEEbRK7QStringRKNS_15QLatin1ConstantIXT_EEE 0x0001ecba   Section       28  cnttransformemail.o(t._ZN10QtMobilityneILi13EEEbRK7QStringRKNS_15QLatin1ConstantIXT_EEE)
    t._ZN10QtMobilityneILi14EEEbRK7QStringRKNS_15QLatin1ConstantIXT_EEE 0x0001ecd6   Section       28  cnttransformonlineaccountsimple.o(t._ZN10QtMobilityneILi14EEEbRK7QStringRKNS_15QLatin1ConstantIXT_EEE)
    t._ZN10QtMobilityneILi4EEEbRK7QStringRKNS_15QLatin1ConstantIXT_EEE 0x0001ecf2   Section       28  cnttransformurl.o(t._ZN10QtMobilityneILi4EEEbRK7QStringRKNS_15QLatin1ConstantIXT_EEE)
    t._ZN10QtMobilityneILi5EEEbRK7QStringRKNS_15QLatin1ConstantIXT_EEE 0x0001ed0e   Section       28  cnttransformname.o(t._ZN10QtMobilityneILi5EEEbRK7QStringRKNS_15QLatin1ConstantIXT_EEE)
    t._ZN10QtMobilityneILi6EEEbRK7QStringRKNS_15QLatin1ConstantIXT_EEE 0x0001ed2a   Section       24  cntsymbianengine.o(t._ZN10QtMobilityneILi6EEEbRK7QStringRKNS_15QLatin1ConstantIXT_EEE)
    t._ZN10QtMobilityneILi7EEEbRK7QStringRKNS_15QLatin1ConstantIXT_EEE 0x0001ed42   Section       28  cnttransformavatar.o(t._ZN10QtMobilityneILi7EEEbRK7QStringRKNS_15QLatin1ConstantIXT_EEE)
    t._ZN10QtMobilityneILi8EEEbRK7QStringRKNS_15QLatin1ConstantIXT_EEE 0x0001ed5e   Section       24  cntsymbianengine.o(t._ZN10QtMobilityneILi8EEEbRK7QStringRKNS_15QLatin1ConstantIXT_EEE)
    t._ZN10QtMobilityneILi9EEEbRK7QStringRKNS_15QLatin1ConstantIXT_EEE 0x0001ed76   Section       28  cnttransformnickname.o(t._ZN10QtMobilityneILi9EEEbRK7QStringRKNS_15QLatin1ConstantIXT_EEE)
    t._ZN14QScopedPointerI5QListIjE21QScopedPointerDeleterIS1_EED1Ev 0x0001ed92   Section       32  cntsymbiansorterdbms.o(t._ZN14QScopedPointerI5QListIjE21QScopedPointerDeleterIS1_EED1Ev)
    t._ZN14QScopedPointerI7QString21QScopedPointerDeleterIS0_EED1Ev 0x0001edb2   Section       32  cnttransformcontact.o(t._ZN14QScopedPointerI7QString21QScopedPointerDeleterIS0_EED1Ev)
    t._ZN14QScopedPointerIN10QtMobility10QContactIdE21QScopedPointerDeleterIS1_EED1Ev 0x0001edd2   Section       32  cntsymbianengine.o(t._ZN14QScopedPointerIN10QtMobility10QContactIdE21QScopedPointerDeleterIS1_EED1Ev)
    t._ZN14QScopedPointerIN10QtMobility14QContactDetailE21QScopedPointerDeleterIS1_EED1Ev 0x0001edf2   Section       32  cnttransformcontact.o(t._ZN14QScopedPointerIN10QtMobility14QContactDetailE21QScopedPointerDeleterIS1_EED1Ev)
    t._ZN14QScopedPointerIN10QtMobility8QContactE21QScopedPointerDeleterIS1_EED1Ev 0x0001ee12   Section       32  cntsymbianengine.o(t._ZN14QScopedPointerIN10QtMobility8QContactE21QScopedPointerDeleterIS1_EED1Ev)
    t._ZN4QMapI7QString8QVariantE8freeDataEP8QMapData 0x0001ee32   Section       64  cnttransformaddress.o(t._ZN4QMapI7QString8QVariantE8freeDataEP8QMapData)
    t._ZN4QMapI7QString8QVariantED1Ev        0x0001ee72   Section       38  cnttransformaddress.o(t._ZN4QMapI7QString8QVariantED1Ev)
    t._ZN4QMapI7QStringN10QtMobility24QContactDetailDefinitionEE11node_createEP8QMapDataPPNS4_4NodeERKS0_RKS2_ 0x0001ee98   Section      140  cntsymbianengine.o(t._ZN4QMapI7QStringN10QtMobility24QContactDetailDefinitionEE11node_createEP8QMapDataPPNS4_4NodeERKS0_RKS2_)
    t._ZN4QMapI7QStringN10QtMobility24QContactDetailDefinitionEE11node_createEP8QMapDataPPNS4_4NodeERKS0_RKS2_.clean 0x0001ef24   Section       38  cntsymbianengine.o(t._ZN4QMapI7QStringN10QtMobility24QContactDetailDefinitionEE11node_createEP8QMapDataPPNS4_4NodeERKS0_RKS2_.clean)
    t._ZN4QMapI7QStringN10QtMobility24QContactDetailDefinitionEE13detach_helperEv 0x0001ef4a   Section      146  cntsymbianengine.o(t._ZN4QMapI7QStringN10QtMobility24QContactDetailDefinitionEE13detach_helperEv)
    t._ZN4QMapI7QStringN10QtMobility24QContactDetailDefinitionEE13detach_helperEv.clean 0x0001efdc   Section        8  cntsymbianengine.o(t._ZN4QMapI7QStringN10QtMobility24QContactDetailDefinitionEE13detach_helperEv.clean)
    t._ZN4QMapI7QStringN10QtMobility24QContactDetailDefinitionEE6detachEv 0x0001efe4   Section       28  cntsymbianengine.o(t._ZN4QMapI7QStringN10QtMobility24QContactDetailDefinitionEE6detachEv)
    t._ZN4QMapI7QStringN10QtMobility24QContactDetailDefinitionEE6removeERKS0_ 0x0001f000   Section      290  cnttransformempty.o(t._ZN4QMapI7QStringN10QtMobility24QContactDetailDefinitionEE6removeERKS0_)
    t._ZN4QMapI7QStringN10QtMobility24QContactDetailDefinitionEE8freeDataEP8QMapData 0x0001f122   Section       62  cntsymbianengine.o(t._ZN4QMapI7QStringN10QtMobility24QContactDetailDefinitionEE8freeDataEP8QMapData)
    t._ZN4QMapI7QStringN10QtMobility24QContactDetailDefinitionEEC1ERKS3_ 0x0001f160   Section       40  cntsymbianengine.o(t._ZN4QMapI7QStringN10QtMobility24QContactDetailDefinitionEEC1ERKS3_)
    t._ZN4QMapI7QStringN10QtMobility24QContactDetailDefinitionEEC1Ev 0x0001f188   Section       28  cntsymbianengine.o(t._ZN4QMapI7QStringN10QtMobility24QContactDetailDefinitionEEC1Ev)
    t._ZN4QMapI7QStringN10QtMobility24QContactDetailDefinitionEED1Ev 0x0001f1a4   Section       38  cntsymbianengine.o(t._ZN4QMapI7QStringN10QtMobility24QContactDetailDefinitionEED1Ev)
    t._ZN4QMapI7QStringN10QtMobility29QContactDetailFieldDefinitionEE11node_createEP8QMapDataPPNS4_4NodeERKS0_RKS2_ 0x0001f1ca   Section      140  cnttransformname.o(t._ZN4QMapI7QStringN10QtMobility29QContactDetailFieldDefinitionEE11node_createEP8QMapDataPPNS4_4NodeERKS0_RKS2_)
    t._ZN4QMapI7QStringN10QtMobility29QContactDetailFieldDefinitionEE11node_createEP8QMapDataPPNS4_4NodeERKS0_RKS2_.clean 0x0001f256   Section       38  cnttransformname.o(t._ZN4QMapI7QStringN10QtMobility29QContactDetailFieldDefinitionEE11node_createEP8QMapDataPPNS4_4NodeERKS0_RKS2_.clean)
    t._ZN4QMapI7QStringN10QtMobility29QContactDetailFieldDefinitionEE13detach_helperEv 0x0001f27c   Section      146  cnttransformname.o(t._ZN4QMapI7QStringN10QtMobility29QContactDetailFieldDefinitionEE13detach_helperEv)
    t._ZN4QMapI7QStringN10QtMobility29QContactDetailFieldDefinitionEE13detach_helperEv.clean 0x0001f30e   Section        8  cnttransformname.o(t._ZN4QMapI7QStringN10QtMobility29QContactDetailFieldDefinitionEE13detach_helperEv.clean)
    t._ZN4QMapI7QStringN10QtMobility29QContactDetailFieldDefinitionEE6detachEv 0x0001f316   Section       28  cnttransformaddress.o(t._ZN4QMapI7QStringN10QtMobility29QContactDetailFieldDefinitionEE6detachEv)
    t._ZN4QMapI7QStringN10QtMobility29QContactDetailFieldDefinitionEE6insertERKS0_RKS2_ 0x0001f332   Section      100  cnttransformorganisation.o(t._ZN4QMapI7QStringN10QtMobility29QContactDetailFieldDefinitionEE6insertERKS0_RKS2_)
    t._ZN4QMapI7QStringN10QtMobility29QContactDetailFieldDefinitionEE6removeERKS0_ 0x0001f396   Section      264  cnttransformaddress.o(t._ZN4QMapI7QStringN10QtMobility29QContactDetailFieldDefinitionEE6removeERKS0_)
    t._ZN4QMapI7QStringN10QtMobility29QContactDetailFieldDefinitionEE8freeDataEP8QMapData 0x0001f49e   Section       62  cnttransformname.o(t._ZN4QMapI7QStringN10QtMobility29QContactDetailFieldDefinitionEE8freeDataEP8QMapData)
    t._ZN4QMapI7QStringN10QtMobility29QContactDetailFieldDefinitionEED1Ev 0x0001f4dc   Section       38  cnttransformname.o(t._ZN4QMapI7QStringN10QtMobility29QContactDetailFieldDefinitionEED1Ev)
    t._ZN4QMapI7QStringP23CntAbstractRelationshipE11node_createEP8QMapDataPPNS4_4NodeERKS0_RKS2_ 0x0001f502   Section      118  cntrelationship.o(t._ZN4QMapI7QStringP23CntAbstractRelationshipE11node_createEP8QMapDataPPNS4_4NodeERKS0_RKS2_)
    t._ZN4QMapI7QStringP23CntAbstractRelationshipE11node_createEP8QMapDataPPNS4_4NodeERKS0_RKS2_.clean 0x0001f578   Section       20  cntrelationship.o(t._ZN4QMapI7QStringP23CntAbstractRelationshipE11node_createEP8QMapDataPPNS4_4NodeERKS0_RKS2_.clean)
    t._ZN4QMapI7QStringP23CntAbstractRelationshipE13detach_helperEv 0x0001f58c   Section      146  cntrelationship.o(t._ZN4QMapI7QStringP23CntAbstractRelationshipE13detach_helperEv)
    t._ZN4QMapI7QStringP23CntAbstractRelationshipE13detach_helperEv.clean 0x0001f61e   Section        8  cntrelationship.o(t._ZN4QMapI7QStringP23CntAbstractRelationshipE13detach_helperEv.clean)
    t._ZN4QMapI7QStringP23CntAbstractRelationshipE6detachEv 0x0001f626   Section       28  cntrelationship.o(t._ZN4QMapI7QStringP23CntAbstractRelationshipE6detachEv)
    t._ZN4QMapI7QStringP23CntAbstractRelationshipE8freeDataEP8QMapData 0x0001f642   Section       56  cntrelationship.o(t._ZN4QMapI7QStringP23CntAbstractRelationshipE8freeDataEP8QMapData)
    t._ZN4QMapI7QStringP23CntAbstractRelationshipED1Ev 0x0001f67a   Section       38  cntrelationship.o(t._ZN4QMapI7QStringP23CntAbstractRelationshipED1Ev)
    t._ZN4QMapI7QStringS_IS0_N10QtMobility24QContactDetailDefinitionEEE8freeDataEP8QMapData 0x0001f6a0   Section       62  cntsymbianengine.o(t._ZN4QMapI7QStringS_IS0_N10QtMobility24QContactDetailDefinitionEEE8freeDataEP8QMapData)
    t._ZN4QMapI7QStringS_IS0_N10QtMobility24QContactDetailDefinitionEEED1Ev 0x0001f6de   Section       38  cntsymbianengine.o(t._ZN4QMapI7QStringS_IS0_N10QtMobility24QContactDetailDefinitionEEED1Ev)
    t._ZN4QMapIN19CntTransformContact11ContactDataEP23CntTransformContactDataE11node_createEP8QMapDataPPNS5_4NodeERKS1_RKS3_ 0x0001f704   Section       82  cnttransformcontact.o(t._ZN4QMapIN19CntTransformContact11ContactDataEP23CntTransformContactDataE11node_createEP8QMapDataPPNS5_4NodeERKS1_RKS3_)
    t._ZN4QMapIN19CntTransformContact11ContactDataEP23CntTransformContactDataE11node_createEP8QMapDataPPNS5_4NodeERKS1_RKS3_.clean 0x0001f756   Section        4  cnttransformcontact.o(t._ZN4QMapIN19CntTransformContact11ContactDataEP23CntTransformContactDataE11node_createEP8QMapDataPPNS5_4NodeERKS1_RKS3_.clean)
    t._ZN4QMapIN19CntTransformContact11ContactDataEP23CntTransformContactDataE13detach_helperEv 0x0001f75a   Section      146  cnttransformcontact.o(t._ZN4QMapIN19CntTransformContact11ContactDataEP23CntTransformContactDataE13detach_helperEv)
    t._ZN4QMapIN19CntTransformContact11ContactDataEP23CntTransformContactDataE13detach_helperEv.clean 0x0001f7ec   Section        8  cnttransformcontact.o(t._ZN4QMapIN19CntTransformContact11ContactDataEP23CntTransformContactDataE13detach_helperEv.clean)
    t._ZN4QMapIN19CntTransformContact11ContactDataEP23CntTransformContactDataE6detachEv 0x0001f7f4   Section       28  cnttransformcontact.o(t._ZN4QMapIN19CntTransformContact11ContactDataEP23CntTransformContactDataE6detachEv)
    t._ZN4QMapIN19CntTransformContact11ContactDataEP23CntTransformContactDataE6insertERKS1_RKS3_ 0x0001f810   Section       74  cnttransformcontact.o(t._ZN4QMapIN19CntTransformContact11ContactDataEP23CntTransformContactDataE6insertERKS1_RKS3_)
    t._ZN4QMapIN19CntTransformContact11ContactDataEP23CntTransformContactDataE8freeDataEP8QMapData 0x0001f85a   Section       48  cnttransformcontact.o(t._ZN4QMapIN19CntTransformContact11ContactDataEP23CntTransformContactDataE8freeDataEP8QMapData)
    t._ZN4QMapIN19CntTransformContact11ContactDataEP23CntTransformContactDataED1Ev 0x0001f88a   Section       38  cnttransformcontact.o(t._ZN4QMapIN19CntTransformContact11ContactDataEP23CntTransformContactDataED1Ev)
    t._ZN4QMapIiN10QtMobility15QContactManager5ErrorEE11node_createEP8QMapDataPPNS4_4NodeERKiRKS2_ 0x0001f8b0   Section       82  cntsymbianengine.o(t._ZN4QMapIiN10QtMobility15QContactManager5ErrorEE11node_createEP8QMapDataPPNS4_4NodeERKiRKS2_)
    t._ZN4QMapIiN10QtMobility15QContactManager5ErrorEE11node_createEP8QMapDataPPNS4_4NodeERKiRKS2_.clean 0x0001f902   Section        4  cntsymbianengine.o(t._ZN4QMapIiN10QtMobility15QContactManager5ErrorEE11node_createEP8QMapDataPPNS4_4NodeERKiRKS2_.clean)
    t._ZN4QMapIiN10QtMobility15QContactManager5ErrorEE13detach_helperEv 0x0001f906   Section      146  cntsymbianengine.o(t._ZN4QMapIiN10QtMobility15QContactManager5ErrorEE13detach_helperEv)
    t._ZN4QMapIiN10QtMobility15QContactManager5ErrorEE13detach_helperEv.clean 0x0001f998   Section        8  cntsymbianengine.o(t._ZN4QMapIiN10QtMobility15QContactManager5ErrorEE13detach_helperEv.clean)
    t._ZN4QMapIiN10QtMobility15QContactManager5ErrorEE5clearEv 0x0001f9a0   Section       82  cntsymbianengine.o(t._ZN4QMapIiN10QtMobility15QContactManager5ErrorEE5clearEv)
    t._ZN4QMapIiN10QtMobility15QContactManager5ErrorEE5clearEv.clean 0x0001f9f2   Section       10  cntsymbianengine.o(t._ZN4QMapIiN10QtMobility15QContactManager5ErrorEE5clearEv.clean)
    t._ZN4QMapIiN10QtMobility15QContactManager5ErrorEE6insertERKiRKS2_ 0x0001f9fc   Section       92  cntsymbianengine.o(t._ZN4QMapIiN10QtMobility15QContactManager5ErrorEE6insertERKiRKS2_)
    t._ZN4QMapIiN10QtMobility15QContactManager5ErrorEE8freeDataEP8QMapData 0x0001fa58   Section       48  cntsymbianengine.o(t._ZN4QMapIiN10QtMobility15QContactManager5ErrorEE8freeDataEP8QMapData)
    t._ZN4QMapIiN10QtMobility15QContactManager5ErrorEEC1Ev 0x0001fa88   Section       28  cntsymbianengine.o(t._ZN4QMapIiN10QtMobility15QContactManager5ErrorEEC1Ev)
    t._ZN4QMapIiN10QtMobility15QContactManager5ErrorEED1Ev 0x0001faa4   Section       38  cntsymbianengine.o(t._ZN4QMapIiN10QtMobility15QContactManager5ErrorEED1Ev)
    t._ZN4QMapIj4QSetIjEE11node_createEP8QMapDataPPNS3_4NodeERKjRKS1_ 0x0001faca   Section      130  cntsymbiandatabase.o(t._ZN4QMapIj4QSetIjEE11node_createEP8QMapDataPPNS3_4NodeERKjRKS1_)
    t._ZN4QMapIj4QSetIjEE11node_createEP8QMapDataPPNS3_4NodeERKjRKS1_.clean 0x0001fb4c   Section       28  cntsymbiandatabase.o(t._ZN4QMapIj4QSetIjEE11node_createEP8QMapDataPPNS3_4NodeERKjRKS1_.clean)
    t._ZN4QMapIj4QSetIjEE13detach_helperEv   0x0001fb68   Section      146  cntsymbiandatabase.o(t._ZN4QMapIj4QSetIjEE13detach_helperEv)
    t._ZN4QMapIj4QSetIjEE13detach_helperEv.clean 0x0001fbfa   Section        8  cntsymbiandatabase.o(t._ZN4QMapIj4QSetIjEE13detach_helperEv.clean)
    t._ZN4QMapIj4QSetIjEE6detachEv           0x0001fc02   Section       28  cntsymbiandatabase.o(t._ZN4QMapIj4QSetIjEE6detachEv)
    t._ZN4QMapIj4QSetIjEE6removeERKj         0x0001fc1e   Section      256  cntsymbiandatabase.o(t._ZN4QMapIj4QSetIjEE6removeERKj)
    t._ZN4QMapIj4QSetIjEE8freeDataEP8QMapData 0x0001fd1e   Section       56  cntsymbiandatabase.o(t._ZN4QMapIj4QSetIjEE8freeDataEP8QMapData)
    t._ZN4QMapIj4QSetIjEED1Ev                0x0001fd56   Section       38  cntsymbiandatabase.o(t._ZN4QMapIj4QSetIjEED1Ev)
    t._ZN4QSetIjE14const_iteratormmEv        0x0001fd7c   Section       20  cntsymbianfilterdbms.o(t._ZN4QSetIjE14const_iteratormmEv)
    t._ZN4QSetIjE6insertERKj                 0x0001fd90   Section       46  cntrelationshipgroup.o(t._ZN4QSetIjE6insertERKj)
    t._ZN4QSetIjE6removeERKj                 0x0001fdbe   Section       26  cntsymbiandatabase.o(t._ZN4QSetIjE6removeERKj)
    t._ZN4QSetIjE8subtractERKS0_             0x0001fdd8   Section      150  cntsymbiandatabase.o(t._ZN4QSetIjE8subtractERKS0_)
    t._ZN4QSetIjE8subtractERKS0_.clean       0x0001fe6e   Section       16  cntsymbiandatabase.o(t._ZN4QSetIjE8subtractERKS0_.clean)
    t._ZN4QSetIjE9intersectERKS0_            0x0001fe7e   Section      170  cntsymbianfilterdbms.o(t._ZN4QSetIjE9intersectERKS0_)
    t._ZN4QSetIjE9intersectERKS0_.clean      0x0001ff28   Section       16  cntsymbianfilterdbms.o(t._ZN4QSetIjE9intersectERKS0_.clean)
    t._ZN4QSetIjEC1ERKS0_                    0x0001ff38   Section       42  cntsymbiandatabase.o(t._ZN4QSetIjEC1ERKS0_)
    t._ZN4QSetIjEC1Ev                        0x0001ff64   Section       28  cntsymbianengine.o(t._ZN4QSetIjEC1Ev)
    t._ZN4QSetIjEaSERKS0_                    0x0001ff80   Section       74  cntsymbiandatabase.o(t._ZN4QSetIjEaSERKS0_)
    t._ZN4QSetIjEmiERKS0_                    0x0001ffca   Section       32  cntsymbiandatabase.o(t._ZN4QSetIjEmiERKS0_)
    t._ZN4QSetIjEmiERKS0_.clean              0x0001ffea   Section       10  cntsymbiandatabase.o(t._ZN4QSetIjEmiERKS0_.clean)
    t._ZN4TBufILi256EEC1Ev                   0x0001fff4   Section       18  cntsymbiansrvconnection.o(t._ZN4TBufILi256EEC1Ev)
    t._ZN5QHashI7QString5QPairIibEE11deleteNode2EPN9QHashData4NodeE 0x00020006   Section       24  cntdbinfo.o(t._ZN5QHashI7QString5QPairIibEE11deleteNode2EPN9QHashData4NodeE)
    t._ZN5QHashI7QString5QPairIibEE13detach_helperEv 0x00020020   Section       60  cntdbinfo.o(t._ZN5QHashI7QString5QPairIibEE13detach_helperEv)
    t._ZN5QHashI7QString5QPairIibEE13duplicateNodeEPN9QHashData4NodeEPv 0x0002005c   Section       46  cntdbinfo.o(t._ZN5QHashI7QString5QPairIibEE13duplicateNodeEPN9QHashData4NodeEPv)
    t._ZN5QHashI7QString5QPairIibEE13duplicateNodeEPN9QHashData4NodeEPv.clean 0x0002008a   Section       14  cntdbinfo.o(t._ZN5QHashI7QString5QPairIibEE13duplicateNodeEPN9QHashData4NodeEPv.clean)
    t._ZN5QHashI7QString5QPairIibEE6insertERKS0_RKS2_ 0x00020098   Section      204  cntdbinfo.o(t._ZN5QHashI7QString5QPairIibEE6insertERKS0_RKS2_)
    t._ZN5QHashI7QString5QPairIibEE6insertERKS0_RKS2_.clean 0x00020164   Section       14  cntdbinfo.o(t._ZN5QHashI7QString5QPairIibEE6insertERKS0_RKS2_.clean)
    t._ZN5QHashI7QString5QPairIibEE8freeDataEP9QHashData 0x00020174   Section       20  cntdbinfo.o(t._ZN5QHashI7QString5QPairIibEE8freeDataEP9QHashData)
    t._ZN5QHashI7QString5QPairIibEEC1Ev      0x00020188   Section       28  cntdbinfo.o(t._ZN5QHashI7QString5QPairIibEEC1Ev)
    t._ZN5QHashI7QString5QPairIibEED1Ev      0x000201a4   Section       30  cntdbinfo.o(t._ZN5QHashI7QString5QPairIibEED1Ev)
    t._ZN5QHashI7QStringS0_E11deleteNode2EPN9QHashData4NodeE 0x000201c2   Section       36  cntdbinfo.o(t._ZN5QHashI7QStringS0_E11deleteNode2EPN9QHashData4NodeE)
    t._ZN5QHashI7QStringS0_E11deleteNode2EPN9QHashData4NodeE.clean 0x000201e6   Section       12  cntdbinfo.o(t._ZN5QHashI7QStringS0_E11deleteNode2EPN9QHashData4NodeE.clean)
    t._ZN5QHashI7QStringS0_E13detach_helperEv 0x000201f4   Section       60  cntdbinfo.o(t._ZN5QHashI7QStringS0_E13detach_helperEv)
    t._ZN5QHashI7QStringS0_E13duplicateNodeEPN9QHashData4NodeEPv 0x00020230   Section       46  cntdbinfo.o(t._ZN5QHashI7QStringS0_E13duplicateNodeEPN9QHashData4NodeEPv)
    t._ZN5QHashI7QStringS0_E13duplicateNodeEPN9QHashData4NodeEPv.clean 0x0002025e   Section       14  cntdbinfo.o(t._ZN5QHashI7QStringS0_E13duplicateNodeEPN9QHashData4NodeEPv.clean)
    t._ZN5QHashI7QStringS0_E6insertERKS0_S3_ 0x0002026c   Section      200  cntdbinfo.o(t._ZN5QHashI7QStringS0_E6insertERKS0_S3_)
    t._ZN5QHashI7QStringS0_E6insertERKS0_S3_.clean 0x00020334   Section       14  cntdbinfo.o(t._ZN5QHashI7QStringS0_E6insertERKS0_S3_.clean)
    t._ZN5QHashI7QStringS0_E8freeDataEP9QHashData 0x00020344   Section       20  cntdbinfo.o(t._ZN5QHashI7QStringS0_E8freeDataEP9QHashData)
    t._ZN5QHashI7QStringS0_EC1Ev             0x00020358   Section       28  cntdbinfo.o(t._ZN5QHashI7QStringS0_EC1Ev)
    t._ZN5QHashI7QStringS0_ED1Ev             0x00020374   Section       30  cntdbinfo.o(t._ZN5QHashI7QStringS0_ED1Ev)
    t._ZN5QHashI7QStringiE11deleteNode2EPN9QHashData4NodeE 0x00020392   Section       24  cntdbinfo.o(t._ZN5QHashI7QStringiE11deleteNode2EPN9QHashData4NodeE)
    t._ZN5QHashI7QStringiE13detach_helperEv  0x000203ac   Section       60  cntdbinfo.o(t._ZN5QHashI7QStringiE13detach_helperEv)
    t._ZN5QHashI7QStringiE13duplicateNodeEPN9QHashData4NodeEPv 0x000203e8   Section       46  cntdbinfo.o(t._ZN5QHashI7QStringiE13duplicateNodeEPN9QHashData4NodeEPv)
    t._ZN5QHashI7QStringiE13duplicateNodeEPN9QHashData4NodeEPv.clean 0x00020416   Section       14  cntdbinfo.o(t._ZN5QHashI7QStringiE13duplicateNodeEPN9QHashData4NodeEPv.clean)
    t._ZN5QHashI7QStringiE6insertERKS0_RKi   0x00020424   Section      194  cntdbinfo.o(t._ZN5QHashI7QStringiE6insertERKS0_RKi)
    t._ZN5QHashI7QStringiE6insertERKS0_RKi.clean 0x000204e6   Section       14  cntdbinfo.o(t._ZN5QHashI7QStringiE6insertERKS0_RKi.clean)
    t._ZN5QHashI7QStringiE8freeDataEP9QHashData 0x000204f4   Section       20  cntdbinfo.o(t._ZN5QHashI7QStringiE8freeDataEP9QHashData)
    t._ZN5QHashI7QStringiEC1Ev               0x00020508   Section       28  cntdbinfo.o(t._ZN5QHashI7QStringiEC1Ev)
    t._ZN5QHashI7QStringiED1Ev               0x00020524   Section       30  cntdbinfo.o(t._ZN5QHashI7QStringiED1Ev)
    t._ZN5QHashIj15QHashDummyValueE11deleteNode2EPN9QHashData4NodeE 0x00020542   Section        6  cntsymbianengine.o(t._ZN5QHashIj15QHashDummyValueE11deleteNode2EPN9QHashData4NodeE)
    t._ZN5QHashIj15QHashDummyValueE13detach_helperEv 0x00020548   Section       60  cntrelationshipgroup.o(t._ZN5QHashIj15QHashDummyValueE13detach_helperEv)
    t._ZN5QHashIj15QHashDummyValueE13duplicateNodeEPN9QHashData4NodeEPv 0x00020584   Section       34  cntsymbiandatabase.o(t._ZN5QHashIj15QHashDummyValueE13duplicateNodeEPN9QHashData4NodeEPv)
    t._ZN5QHashIj15QHashDummyValueE6detachEv 0x000205a6   Section       28  cntsymbiandatabase.o(t._ZN5QHashIj15QHashDummyValueE6detachEv)
    t._ZN5QHashIj15QHashDummyValueE6insertERKjRKS0_ 0x000205c2   Section      188  cntsymbiandatabase.o(t._ZN5QHashIj15QHashDummyValueE6insertERKjRKS0_)
    t._ZN5QHashIj15QHashDummyValueE6insertERKjRKS0_.clean 0x0002067e   Section        4  cntsymbiandatabase.o(t._ZN5QHashIj15QHashDummyValueE6insertERKjRKS0_.clean)
    t._ZN5QHashIj15QHashDummyValueE6removeERKj 0x00020682   Section      242  cntsymbiandatabase.o(t._ZN5QHashIj15QHashDummyValueE6removeERKj)
    t._ZN5QHashIj15QHashDummyValueE8freeDataEP9QHashData 0x00020774   Section       20  cntsymbianengine.o(t._ZN5QHashIj15QHashDummyValueE8freeDataEP9QHashData)
    t._ZN5QHashIj15QHashDummyValueED1Ev      0x00020788   Section       30  cntsymbianengine.o(t._ZN5QHashIj15QHashDummyValueED1Ev)
    t._ZN5QHashImP23CntTransformContactDataE10createNodeEjRKmRKS1_PP9QHashNodeImS1_E 0x000207a6   Section      102  cnttransformcontact.o(t._ZN5QHashImP23CntTransformContactDataE10createNodeEjRKmRKS1_PP9QHashNodeImS1_E)
    t._ZN5QHashImP23CntTransformContactDataE10createNodeEjRKmRKS1_PP9QHashNodeImS1_E.clean 0x0002080c   Section        4  cnttransformcontact.o(t._ZN5QHashImP23CntTransformContactDataE10createNodeEjRKmRKS1_PP9QHashNodeImS1_E.clean)
    t._ZN5QHashImP23CntTransformContactDataE11deleteNode2EPN9QHashData4NodeE 0x00020810   Section        6  cnttransformcontact.o(t._ZN5QHashImP23CntTransformContactDataE11deleteNode2EPN9QHashData4NodeE)
    t._ZN5QHashImP23CntTransformContactDataE13detach_helperEv 0x00020818   Section       60  cnttransformcontact.o(t._ZN5QHashImP23CntTransformContactDataE13detach_helperEv)
    t._ZN5QHashImP23CntTransformContactDataE13duplicateNodeEPN9QHashData4NodeEPv 0x00020854   Section       46  cnttransformcontact.o(t._ZN5QHashImP23CntTransformContactDataE13duplicateNodeEPN9QHashData4NodeEPv)
    t._ZN5QHashImP23CntTransformContactDataE6detachEv 0x00020882   Section       28  cnttransformcontact.o(t._ZN5QHashImP23CntTransformContactDataE6detachEv)
    t._ZN5QHashImP23CntTransformContactDataE8freeDataEP9QHashData 0x000208a0   Section       20  cnttransformcontact.o(t._ZN5QHashImP23CntTransformContactDataE8freeDataEP9QHashData)
    t._ZN5QHashImP23CntTransformContactDataEC1Ev 0x000208b4   Section       28  cnttransformcontact.o(t._ZN5QHashImP23CntTransformContactDataEC1Ev)
    t._ZN5QHashImP23CntTransformContactDataED1Ev 0x000208d0   Section       30  cnttransformcontact.o(t._ZN5QHashImP23CntTransformContactDataED1Ev)
    t._ZN5QListI4TUidE13detach_helperEi      0x000208ee   Section       94  cnttransformcontact.o(t._ZN5QListI4TUidE13detach_helperEi)
    t._ZN5QListI4TUidE13detach_helperEi.clean 0x0002094c   Section        8  cnttransformcontact.o(t._ZN5QListI4TUidE13detach_helperEi.clean)
    t._ZN5QListI4TUidE13detach_helperEv      0x00020954   Section       16  cntsymbianengine.o(t._ZN5QListI4TUidE13detach_helperEv)
    t._ZN5QListI4TUidE13node_destructEPNS1_4NodeES3_ 0x00020964   Section       26  cnttransformcontact.o(t._ZN5QListI4TUidE13node_destructEPNS1_4NodeES3_)
    t._ZN5QListI4TUidE14node_constructEPNS1_4NodeERKS0_ 0x0002097e   Section       30  cnttransformname.o(t._ZN5QListI4TUidE14node_constructEPNS1_4NodeERKS0_)
    t._ZN5QListI4TUidE18detach_helper_growEii 0x0002099c   Section      208  cnttransformcontact.o(t._ZN5QListI4TUidE18detach_helper_growEii)
    t._ZN5QListI4TUidE18detach_helper_growEii.clean 0x00020a6c   Section       16  cnttransformcontact.o(t._ZN5QListI4TUidE18detach_helper_growEii.clean)
    t._ZN5QListI4TUidE4freeEPN9QListData4DataE 0x00020a7c   Section       52  cnttransformphonenumber.o(t._ZN5QListI4TUidE4freeEPN9QListData4DataE)
    t._ZN5QListI4TUidE6appendERKS0_          0x00020ab0   Section      112  cnttransformname.o(t._ZN5QListI4TUidE6appendERKS0_)
    t._ZN5QListI4TUidE6appendERKS0_.clean    0x00020b20   Section       14  cnttransformname.o(t._ZN5QListI4TUidE6appendERKS0_.clean)
    t._ZN5QListI4TUidE9node_copyEPNS1_4NodeES3_S3_ 0x00020b2e   Section       78  cnttransformcontact.o(t._ZN5QListI4TUidE9node_copyEPNS1_4NodeES3_S3_)
    t._ZN5QListI4TUidE9node_copyEPNS1_4NodeES3_S3_.clean 0x00020b7c   Section        8  cnttransformcontact.o(t._ZN5QListI4TUidE9node_copyEPNS1_4NodeES3_S3_.clean)
    t._ZN5QListI4TUidEC1ERKS1_               0x00020b84   Section       36  cnttransformname.o(t._ZN5QListI4TUidEC1ERKS1_)
    t._ZN5QListI4TUidEC1Ev                   0x00020ba8   Section       24  cnttransformcontact.o(t._ZN5QListI4TUidEC1Ev)
    t._ZN5QListI4TUidED1Ev                   0x00020bc0   Section       32  cntsymbianengine.o(t._ZN5QListI4TUidED1Ev)
    t._ZN5QListI4TUidEaSERKS1_               0x00020be0   Section       64  cnttransformcontact.o(t._ZN5QListI4TUidEaSERKS1_)
    t._ZN5QListI4TUidElsERKS0_               0x00020c20   Section       18  cnttransformname.o(t._ZN5QListI4TUidElsERKS0_)
    t._ZN5QListI4TUidEpLERKS1_               0x00020c34   Section      152  cnttransformcontact.o(t._ZN5QListI4TUidEpLERKS1_)
    t._ZN5QListI4TUidEpLERKS1_.clean         0x00020ccc   Section        8  cnttransformcontact.o(t._ZN5QListI4TUidEpLERKS1_.clean)
    t._ZN5QListI5QPairI13QLatin1StringS1_EE13detach_helperEi 0x00020cd4   Section       94  cntdisplaylabel.o(t._ZN5QListI5QPairI13QLatin1StringS1_EE13detach_helperEi)
    t._ZN5QListI5QPairI13QLatin1StringS1_EE13detach_helperEi.clean 0x00020d32   Section        8  cntdisplaylabel.o(t._ZN5QListI5QPairI13QLatin1StringS1_EE13detach_helperEi.clean)
    t._ZN5QListI5QPairI13QLatin1StringS1_EE13detach_helperEv 0x00020d3a   Section       16  cntdisplaylabel.o(t._ZN5QListI5QPairI13QLatin1StringS1_EE13detach_helperEv)
    t._ZN5QListI5QPairI13QLatin1StringS1_EE13node_destructEPNS3_4NodeES5_ 0x00020d4a   Section       26  cntdisplaylabel.o(t._ZN5QListI5QPairI13QLatin1StringS1_EE13node_destructEPNS3_4NodeES5_)
    t._ZN5QListI5QPairI13QLatin1StringS1_EE14node_constructEPNS3_4NodeERKS2_ 0x00020d64   Section       34  cntdisplaylabel.o(t._ZN5QListI5QPairI13QLatin1StringS1_EE14node_constructEPNS3_4NodeERKS2_)
    t._ZN5QListI5QPairI13QLatin1StringS1_EE14node_constructEPNS3_4NodeERKS2_.clean 0x00020d86   Section        4  cntdisplaylabel.o(t._ZN5QListI5QPairI13QLatin1StringS1_EE14node_constructEPNS3_4NodeERKS2_.clean)
    t._ZN5QListI5QPairI13QLatin1StringS1_EE18detach_helper_growEii 0x00020d8a   Section      208  cntdisplaylabel.o(t._ZN5QListI5QPairI13QLatin1StringS1_EE18detach_helper_growEii)
    t._ZN5QListI5QPairI13QLatin1StringS1_EE18detach_helper_growEii.clean 0x00020e5a   Section       16  cntdisplaylabel.o(t._ZN5QListI5QPairI13QLatin1StringS1_EE18detach_helper_growEii.clean)
    t._ZN5QListI5QPairI13QLatin1StringS1_EE4freeEPN9QListData4DataE 0x00020e6a   Section       58  cntdisplaylabel.o(t._ZN5QListI5QPairI13QLatin1StringS1_EE4freeEPN9QListData4DataE)
    t._ZN5QListI5QPairI13QLatin1StringS1_EE6appendERKS2_ 0x00020ea4   Section      112  cntdisplaylabel.o(t._ZN5QListI5QPairI13QLatin1StringS1_EE6appendERKS2_)
    t._ZN5QListI5QPairI13QLatin1StringS1_EE6appendERKS2_.clean 0x00020f14   Section       14  cntdisplaylabel.o(t._ZN5QListI5QPairI13QLatin1StringS1_EE6appendERKS2_.clean)
    t._ZN5QListI5QPairI13QLatin1StringS1_EE9node_copyEPNS3_4NodeES5_S5_ 0x00020f22   Section       80  cntdisplaylabel.o(t._ZN5QListI5QPairI13QLatin1StringS1_EE9node_copyEPNS3_4NodeES5_S5_)
    t._ZN5QListI5QPairI13QLatin1StringS1_EE9node_copyEPNS3_4NodeES5_S5_.clean 0x00020f72   Section       22  cntdisplaylabel.o(t._ZN5QListI5QPairI13QLatin1StringS1_EE9node_copyEPNS3_4NodeES5_S5_.clean)
    t._ZN5QListI5QPairI13QLatin1StringS1_EEC1ERKS3_ 0x00020f88   Section       36  cntdisplaylabel.o(t._ZN5QListI5QPairI13QLatin1StringS1_EEC1ERKS3_)
    t._ZN5QListI5QPairI13QLatin1StringS1_EEC1Ev 0x00020fac   Section       24  cntdisplaylabel.o(t._ZN5QListI5QPairI13QLatin1StringS1_EEC1Ev)
    t._ZN5QListI5QPairI13QLatin1StringS1_EED1Ev 0x00020fc4   Section       32  cntdisplaylabel.o(t._ZN5QListI5QPairI13QLatin1StringS1_EED1Ev)
    t._ZN5QListI5QPairIj7QStringEE13detach_helperEi 0x00020fe4   Section       94  cntsymbiansrvconnection.o(t._ZN5QListI5QPairIj7QStringEE13detach_helperEi)
    t._ZN5QListI5QPairIj7QStringEE13detach_helperEi.clean 0x00021042   Section        8  cntsymbiansrvconnection.o(t._ZN5QListI5QPairIj7QStringEE13detach_helperEi.clean)
    t._ZN5QListI5QPairIj7QStringEE13detach_helperEv 0x0002104a   Section       16  cntsymbiansrvconnection.o(t._ZN5QListI5QPairIj7QStringEE13detach_helperEv)
    t._ZN5QListI5QPairIj7QStringEE13node_destructEPNS3_4NodeES5_ 0x0002105a   Section       38  cntsymbiansrvconnection.o(t._ZN5QListI5QPairIj7QStringEE13node_destructEPNS3_4NodeES5_)
    t._ZN5QListI5QPairIj7QStringEE14node_constructEPNS3_4NodeERKS2_ 0x00021080   Section       34  cntsymbiansrvconnection.o(t._ZN5QListI5QPairIj7QStringEE14node_constructEPNS3_4NodeERKS2_)
    t._ZN5QListI5QPairIj7QStringEE14node_constructEPNS3_4NodeERKS2_.clean 0x000210a2   Section       14  cntsymbiansrvconnection.o(t._ZN5QListI5QPairIj7QStringEE14node_constructEPNS3_4NodeERKS2_.clean)
    t._ZN5QListI5QPairIj7QStringEE18detach_helper_growEii 0x000210b0   Section      208  cntsymbiansrvconnection.o(t._ZN5QListI5QPairIj7QStringEE18detach_helper_growEii)
    t._ZN5QListI5QPairIj7QStringEE18detach_helper_growEii.clean 0x00021180   Section       16  cntsymbiansrvconnection.o(t._ZN5QListI5QPairIj7QStringEE18detach_helper_growEii.clean)
    t._ZN5QListI5QPairIj7QStringEE4freeEPN9QListData4DataE 0x00021190   Section       58  cntsymbiansrvconnection.o(t._ZN5QListI5QPairIj7QStringEE4freeEPN9QListData4DataE)
    t._ZN5QListI5QPairIj7QStringEE6appendERKS2_ 0x000211cc   Section      112  cntsymbiansrvconnection.o(t._ZN5QListI5QPairIj7QStringEE6appendERKS2_)
    t._ZN5QListI5QPairIj7QStringEE6appendERKS2_.clean 0x0002123c   Section       14  cntsymbiansrvconnection.o(t._ZN5QListI5QPairIj7QStringEE6appendERKS2_.clean)
    t._ZN5QListI5QPairIj7QStringEE9node_copyEPNS3_4NodeES5_S5_ 0x0002124a   Section       92  cntsymbiansrvconnection.o(t._ZN5QListI5QPairIj7QStringEE9node_copyEPNS3_4NodeES5_S5_)
    t._ZN5QListI5QPairIj7QStringEE9node_copyEPNS3_4NodeES5_S5_.clean 0x000212a6   Section       22  cntsymbiansrvconnection.o(t._ZN5QListI5QPairIj7QStringEE9node_copyEPNS3_4NodeES5_S5_.clean)
    t._ZN5QListI5QPairIj7QStringEEC1Ev       0x000212bc   Section       24  cntsymbiansrvconnection.o(t._ZN5QListI5QPairIj7QStringEEC1Ev)
    t._ZN5QListI5QPairIj7QStringEED1Ev       0x000212d4   Section       32  cntfilterdetail.o(t._ZN5QListI5QPairIj7QStringEED1Ev)
    t._ZN5QListI7QStringE13detach_helperEi   0x000212f4   Section       94  cntsymbianengine.o(t._ZN5QListI7QStringE13detach_helperEi)
    t._ZN5QListI7QStringE13detach_helperEi.clean 0x00021352   Section        8  cntsymbianengine.o(t._ZN5QListI7QStringE13detach_helperEi.clean)
    t._ZN5QListI7QStringE13detach_helperEv   0x0002135a   Section       16  cntsymbianengine.o(t._ZN5QListI7QStringE13detach_helperEv)
    t._ZN5QListI7QStringE13node_destructEPNS1_4NodeES3_ 0x0002136a   Section       26  cntsymbianengine.o(t._ZN5QListI7QStringE13node_destructEPNS1_4NodeES3_)
    t._ZN5QListI7QStringE14node_constructEPNS1_4NodeERKS0_ 0x00021384   Section       36  cntsymbianengine.o(t._ZN5QListI7QStringE14node_constructEPNS1_4NodeERKS0_)
    t._ZN5QListI7QStringE14node_constructEPNS1_4NodeERKS0_.clean 0x000213a8   Section       14  cntsymbianengine.o(t._ZN5QListI7QStringE14node_constructEPNS1_4NodeERKS0_.clean)
    t._ZN5QListI7QStringE18detach_helper_growEii 0x000213b6   Section      208  cntsymbianengine.o(t._ZN5QListI7QStringE18detach_helper_growEii)
    t._ZN5QListI7QStringE18detach_helper_growEii.clean 0x00021486   Section       16  cntsymbianengine.o(t._ZN5QListI7QStringE18detach_helper_growEii.clean)
    t._ZN5QListI7QStringE4freeEPN9QListData4DataE 0x00021496   Section       52  cntsymbianengine.o(t._ZN5QListI7QStringE4freeEPN9QListData4DataE)
    t._ZN5QListI7QStringE6appendERKS0_       0x000214cc   Section      120  cntsymbianengine.o(t._ZN5QListI7QStringE6appendERKS0_)
    t._ZN5QListI7QStringE6appendERKS0_.clean 0x00021544   Section       14  cntsymbianengine.o(t._ZN5QListI7QStringE6appendERKS0_.clean)
    t._ZN5QListI7QStringE7reserveEi          0x00021552   Section       46  cntsymbianengine.o(t._ZN5QListI7QStringE7reserveEi)
    t._ZN5QListI7QStringE9node_copyEPNS1_4NodeES3_S3_ 0x00021580   Section       82  cntsymbianengine.o(t._ZN5QListI7QStringE9node_copyEPNS1_4NodeES3_S3_)
    t._ZN5QListI7QStringE9node_copyEPNS1_4NodeES3_S3_.clean 0x000215d2   Section       22  cntsymbianengine.o(t._ZN5QListI7QStringE9node_copyEPNS1_4NodeES3_S3_.clean)
    t._ZN5QListI7QStringEC1ERKS1_            0x000215e8   Section       36  cntsymbianengine.o(t._ZN5QListI7QStringEC1ERKS1_)
    t._ZN5QListI7QStringEC1Ev                0x0002160c   Section       24  cnttransformcontactdata.o(t._ZN5QListI7QStringEC1Ev)
    t._ZN5QListI7QStringED1Ev                0x00021624   Section       32  cntsymbianengine.o(t._ZN5QListI7QStringED1Ev)
    t._ZN5QListI8QVariantE13detach_helperEi  0x00021644   Section       94  cnttransformphonenumber.o(t._ZN5QListI8QVariantE13detach_helperEi)
    t._ZN5QListI8QVariantE13detach_helperEi.clean 0x000216a2   Section        8  cnttransformphonenumber.o(t._ZN5QListI8QVariantE13detach_helperEi.clean)
    t._ZN5QListI8QVariantE13detach_helperEv  0x000216aa   Section       16  cnttransformphonenumber.o(t._ZN5QListI8QVariantE13detach_helperEv)
    t._ZN5QListI8QVariantE13node_destructEPNS1_4NodeES3_ 0x000216ba   Section       38  cnttransformphonenumber.o(t._ZN5QListI8QVariantE13node_destructEPNS1_4NodeES3_)
    t._ZN5QListI8QVariantE14node_constructEPNS1_4NodeERKS0_ 0x000216e0   Section       34  cnttransformphonenumber.o(t._ZN5QListI8QVariantE14node_constructEPNS1_4NodeERKS0_)
    t._ZN5QListI8QVariantE14node_constructEPNS1_4NodeERKS0_.clean 0x00021702   Section       14  cnttransformphonenumber.o(t._ZN5QListI8QVariantE14node_constructEPNS1_4NodeERKS0_.clean)
    t._ZN5QListI8QVariantE18detach_helper_growEii 0x00021710   Section      208  cnttransformphonenumber.o(t._ZN5QListI8QVariantE18detach_helper_growEii)
    t._ZN5QListI8QVariantE18detach_helper_growEii.clean 0x000217e0   Section       16  cnttransformphonenumber.o(t._ZN5QListI8QVariantE18detach_helper_growEii.clean)
    t._ZN5QListI8QVariantE4freeEPN9QListData4DataE 0x000217f0   Section       52  cnttransformphonenumber.o(t._ZN5QListI8QVariantE4freeEPN9QListData4DataE)
    t._ZN5QListI8QVariantE6appendERKS0_      0x00021824   Section      112  cnttransformphonenumber.o(t._ZN5QListI8QVariantE6appendERKS0_)
    t._ZN5QListI8QVariantE6appendERKS0_.clean 0x00021894   Section       14  cnttransformphonenumber.o(t._ZN5QListI8QVariantE6appendERKS0_.clean)
    t._ZN5QListI8QVariantE9node_copyEPNS1_4NodeES3_S3_ 0x000218a2   Section       92  cnttransformphonenumber.o(t._ZN5QListI8QVariantE9node_copyEPNS1_4NodeES3_S3_)
    t._ZN5QListI8QVariantE9node_copyEPNS1_4NodeES3_S3_.clean 0x000218fe   Section       22  cnttransformphonenumber.o(t._ZN5QListI8QVariantE9node_copyEPNS1_4NodeES3_S3_.clean)
    t._ZN5QListI8QVariantEC1ERKS1_           0x00021914   Section       36  cnttransformurl.o(t._ZN5QListI8QVariantEC1ERKS1_)
    t._ZN5QListI8QVariantEC1Ev               0x00021938   Section       24  cnttransformurl.o(t._ZN5QListI8QVariantEC1Ev)
    t._ZN5QListI8QVariantED1Ev               0x00021950   Section       32  cnttransformphonenumber.o(t._ZN5QListI8QVariantED1Ev)
    t._ZN5QListI8QVariantElsERKS0_           0x00021970   Section       18  cnttransformphonenumber.o(t._ZN5QListI8QVariantElsERKS0_)
    t._ZN5QListIN10QtMobility14QContactDetailEE13detach_helperEi 0x00021982   Section      176  cntsymbianengine.o(t._ZN5QListIN10QtMobility14QContactDetailEE13detach_helperEi)
    t._ZN5QListIN10QtMobility14QContactDetailEE13detach_helperEi.clean 0x00021a32   Section       30  cntsymbianengine.o(t._ZN5QListIN10QtMobility14QContactDetailEE13detach_helperEi.clean)
    t._ZN5QListIN10QtMobility14QContactDetailEE13detach_helperEv 0x00021a50   Section       16  cntsymbianengine.o(t._ZN5QListIN10QtMobility14QContactDetailEE13detach_helperEv)
    t._ZN5QListIN10QtMobility14QContactDetailEE4freeEPN9QListData4DataE 0x00021a60   Section       64  cntsymbianengine.o(t._ZN5QListIN10QtMobility14QContactDetailEE4freeEPN9QListData4DataE)
    t._ZN5QListIN10QtMobility14QContactDetailEED1Ev 0x00021aa0   Section       32  cntsymbianengine.o(t._ZN5QListIN10QtMobility14QContactDetailEED1Ev)
    t._ZN5QListIN10QtMobility14QContactDetailEEixEi 0x00021ac0   Section       42  cnttransformcontact.o(t._ZN5QListIN10QtMobility14QContactDetailEEixEi)
    t._ZN5QListIN10QtMobility14QContactFilterEE13detach_helperEi 0x00021aea   Section      176  cntfilterintersection.o(t._ZN5QListIN10QtMobility14QContactFilterEE13detach_helperEi)
    t._ZN5QListIN10QtMobility14QContactFilterEE13detach_helperEi.clean 0x00021b9a   Section       30  cntfilterintersection.o(t._ZN5QListIN10QtMobility14QContactFilterEE13detach_helperEi.clean)
    t._ZN5QListIN10QtMobility14QContactFilterEE13detach_helperEv 0x00021bb8   Section       16  cntfilterintersection.o(t._ZN5QListIN10QtMobility14QContactFilterEE13detach_helperEv)
    t._ZN5QListIN10QtMobility14QContactFilterEE4freeEPN9QListData4DataE 0x00021bc8   Section       70  cntfilterintersection.o(t._ZN5QListIN10QtMobility14QContactFilterEE4freeEPN9QListData4DataE)
    t._ZN5QListIN10QtMobility14QContactFilterEED1Ev 0x00021c0e   Section       32  cntfilterintersection.o(t._ZN5QListIN10QtMobility14QContactFilterEED1Ev)
    t._ZN5QListIN10QtMobility14QContactFilterEEixEi 0x00021c2e   Section       42  cntsymbianfilterdbms.o(t._ZN5QListIN10QtMobility14QContactFilterEEixEi)
    t._ZN5QListIN10QtMobility15QContactAddressEE13detach_helperEi 0x00021c58   Section       94  cnttransformaddress.o(t._ZN5QListIN10QtMobility15QContactAddressEE13detach_helperEi)
    t._ZN5QListIN10QtMobility15QContactAddressEE13detach_helperEi.clean 0x00021cb6   Section        8  cnttransformaddress.o(t._ZN5QListIN10QtMobility15QContactAddressEE13detach_helperEi.clean)
    t._ZN5QListIN10QtMobility15QContactAddressEE13detach_helperEv 0x00021cbe   Section       16  cnttransformaddress.o(t._ZN5QListIN10QtMobility15QContactAddressEE13detach_helperEv)
    t._ZN5QListIN10QtMobility15QContactAddressEE13node_destructEPNS2_4NodeES4_ 0x00021cce   Section       38  cnttransformaddress.o(t._ZN5QListIN10QtMobility15QContactAddressEE13node_destructEPNS2_4NodeES4_)
    t._ZN5QListIN10QtMobility15QContactAddressEE14node_constructEPNS2_4NodeERKS1_ 0x00021cf4   Section       34  cnttransformaddress.o(t._ZN5QListIN10QtMobility15QContactAddressEE14node_constructEPNS2_4NodeERKS1_)
    t._ZN5QListIN10QtMobility15QContactAddressEE14node_constructEPNS2_4NodeERKS1_.clean 0x00021d16   Section       14  cnttransformaddress.o(t._ZN5QListIN10QtMobility15QContactAddressEE14node_constructEPNS2_4NodeERKS1_.clean)
    t._ZN5QListIN10QtMobility15QContactAddressEE18detach_helper_growEii 0x00021d24   Section      208  cnttransformaddress.o(t._ZN5QListIN10QtMobility15QContactAddressEE18detach_helper_growEii)
    t._ZN5QListIN10QtMobility15QContactAddressEE18detach_helper_growEii.clean 0x00021df4   Section       16  cnttransformaddress.o(t._ZN5QListIN10QtMobility15QContactAddressEE18detach_helper_growEii.clean)
    t._ZN5QListIN10QtMobility15QContactAddressEE4freeEPN9QListData4DataE 0x00021e04   Section       52  cnttransformaddress.o(t._ZN5QListIN10QtMobility15QContactAddressEE4freeEPN9QListData4DataE)
    t._ZN5QListIN10QtMobility15QContactAddressEE6appendERKS1_ 0x00021e38   Section      112  cnttransformaddress.o(t._ZN5QListIN10QtMobility15QContactAddressEE6appendERKS1_)
    t._ZN5QListIN10QtMobility15QContactAddressEE6appendERKS1_.clean 0x00021ea8   Section       14  cnttransformaddress.o(t._ZN5QListIN10QtMobility15QContactAddressEE6appendERKS1_.clean)
    t._ZN5QListIN10QtMobility15QContactAddressEE9node_copyEPNS2_4NodeES4_S4_ 0x00021eb6   Section       92  cnttransformaddress.o(t._ZN5QListIN10QtMobility15QContactAddressEE9node_copyEPNS2_4NodeES4_S4_)
    t._ZN5QListIN10QtMobility15QContactAddressEE9node_copyEPNS2_4NodeES4_S4_.clean 0x00021f12   Section       22  cnttransformaddress.o(t._ZN5QListIN10QtMobility15QContactAddressEE9node_copyEPNS2_4NodeES4_S4_.clean)
    t._ZN5QListIN10QtMobility15QContactAddressEED1Ev 0x00021f28   Section       32  cnttransformaddress.o(t._ZN5QListIN10QtMobility15QContactAddressEED1Ev)
    t._ZN5QListIN10QtMobility15QContactManager5ErrorEE4freeEPN9QListData4DataE 0x00021f48   Section       64  cntsymbianengine.o(t._ZN5QListIN10QtMobility15QContactManager5ErrorEE4freeEPN9QListData4DataE)
    t._ZN5QListIN10QtMobility15QContactManager5ErrorEED1Ev 0x00021f88   Section       32  cntsymbianengine.o(t._ZN5QListIN10QtMobility15QContactManager5ErrorEED1Ev)
    t._ZN5QListIN10QtMobility17QContactSortOrderEE13detach_helperEi 0x00021fa8   Section      176  cntdbinfo.o(t._ZN5QListIN10QtMobility17QContactSortOrderEE13detach_helperEi)
    t._ZN5QListIN10QtMobility17QContactSortOrderEE13detach_helperEi.clean 0x00022058   Section       30  cntdbinfo.o(t._ZN5QListIN10QtMobility17QContactSortOrderEE13detach_helperEi.clean)
    t._ZN5QListIN10QtMobility17QContactSortOrderEE13detach_helperEv 0x00022076   Section       16  cntdbinfo.o(t._ZN5QListIN10QtMobility17QContactSortOrderEE13detach_helperEv)
    t._ZN5QListIN10QtMobility17QContactSortOrderEE4freeEPN9QListData4DataE 0x00022086   Section       64  cntsymbianengine.o(t._ZN5QListIN10QtMobility17QContactSortOrderEE4freeEPN9QListData4DataE)
    t._ZN5QListIN10QtMobility17QContactSortOrderEED1Ev 0x000220c6   Section       32  cntsymbianengine.o(t._ZN5QListIN10QtMobility17QContactSortOrderEED1Ev)
    t._ZN5QListIN10QtMobility20QContactRelationshipEE13detach_helperEi 0x000220e6   Section       94  cntrelationship.o(t._ZN5QListIN10QtMobility20QContactRelationshipEE13detach_helperEi)
    t._ZN5QListIN10QtMobility20QContactRelationshipEE13detach_helperEi.clean 0x00022144   Section        8  cntrelationship.o(t._ZN5QListIN10QtMobility20QContactRelationshipEE13detach_helperEi.clean)
    t._ZN5QListIN10QtMobility20QContactRelationshipEE13detach_helperEv 0x0002214c   Section       16  cntrelationship.o(t._ZN5QListIN10QtMobility20QContactRelationshipEE13detach_helperEv)
    t._ZN5QListIN10QtMobility20QContactRelationshipEE13node_destructEPNS2_4NodeES4_ 0x0002215c   Section       38  cntsymbianengine.o(t._ZN5QListIN10QtMobility20QContactRelationshipEE13node_destructEPNS2_4NodeES4_)
    t._ZN5QListIN10QtMobility20QContactRelationshipEE14node_constructEPNS2_4NodeERKS1_ 0x00022182   Section       34  cntsymbianengine.o(t._ZN5QListIN10QtMobility20QContactRelationshipEE14node_constructEPNS2_4NodeERKS1_)
    t._ZN5QListIN10QtMobility20QContactRelationshipEE14node_constructEPNS2_4NodeERKS1_.clean 0x000221a4   Section       14  cntsymbianengine.o(t._ZN5QListIN10QtMobility20QContactRelationshipEE14node_constructEPNS2_4NodeERKS1_.clean)
    t._ZN5QListIN10QtMobility20QContactRelationshipEE18detach_helper_growEii 0x000221b2   Section      208  cntsymbianengine.o(t._ZN5QListIN10QtMobility20QContactRelationshipEE18detach_helper_growEii)
    t._ZN5QListIN10QtMobility20QContactRelationshipEE18detach_helper_growEii.clean 0x00022282   Section       16  cntsymbianengine.o(t._ZN5QListIN10QtMobility20QContactRelationshipEE18detach_helper_growEii.clean)
    t._ZN5QListIN10QtMobility20QContactRelationshipEE4freeEPN9QListData4DataE 0x00022292   Section       52  cntsymbianengine.o(t._ZN5QListIN10QtMobility20QContactRelationshipEE4freeEPN9QListData4DataE)
    t._ZN5QListIN10QtMobility20QContactRelationshipEE6appendERKS1_ 0x000222c8   Section      112  cntsymbianengine.o(t._ZN5QListIN10QtMobility20QContactRelationshipEE6appendERKS1_)
    t._ZN5QListIN10QtMobility20QContactRelationshipEE6appendERKS1_.clean 0x00022338   Section       14  cntsymbianengine.o(t._ZN5QListIN10QtMobility20QContactRelationshipEE6appendERKS1_.clean)
    t._ZN5QListIN10QtMobility20QContactRelationshipEE9node_copyEPNS2_4NodeES4_S4_ 0x00022346   Section       92  cntsymbianengine.o(t._ZN5QListIN10QtMobility20QContactRelationshipEE9node_copyEPNS2_4NodeES4_S4_)
    t._ZN5QListIN10QtMobility20QContactRelationshipEE9node_copyEPNS2_4NodeES4_S4_.clean 0x000223a2   Section       22  cntsymbianengine.o(t._ZN5QListIN10QtMobility20QContactRelationshipEE9node_copyEPNS2_4NodeES4_S4_.clean)
    t._ZN5QListIN10QtMobility20QContactRelationshipEEC1Ev 0x000223b8   Section       24  cntsymbianengine.o(t._ZN5QListIN10QtMobility20QContactRelationshipEEC1Ev)
    t._ZN5QListIN10QtMobility20QContactRelationshipEED1Ev 0x000223d0   Section       32  cntsymbianengine.o(t._ZN5QListIN10QtMobility20QContactRelationshipEED1Ev)
    t._ZN5QListIN10QtMobility20QContactRelationshipEEaSERKS2_ 0x000223f0   Section       64  cntrelationship.o(t._ZN5QListIN10QtMobility20QContactRelationshipEEaSERKS2_)
    t._ZN5QListIN10QtMobility20QContactRelationshipEEpLERKS2_ 0x00022430   Section      160  cntrelationship.o(t._ZN5QListIN10QtMobility20QContactRelationshipEEpLERKS2_)
    t._ZN5QListIN10QtMobility20QContactRelationshipEEpLERKS2_.clean 0x000224d0   Section        8  cntrelationship.o(t._ZN5QListIN10QtMobility20QContactRelationshipEEpLERKS2_.clean)
    t._ZN5QListIN10QtMobility8QContactEE13detach_helperEi 0x000224d8   Section       94  cntsymbianengine.o(t._ZN5QListIN10QtMobility8QContactEE13detach_helperEi)
    t._ZN5QListIN10QtMobility8QContactEE13detach_helperEi.clean 0x00022536   Section        8  cntsymbianengine.o(t._ZN5QListIN10QtMobility8QContactEE13detach_helperEi.clean)
    t._ZN5QListIN10QtMobility8QContactEE13detach_helperEv 0x0002253e   Section       16  cntsymbianengine.o(t._ZN5QListIN10QtMobility8QContactEE13detach_helperEv)
    t._ZN5QListIN10QtMobility8QContactEE13node_destructEPNS2_4NodeES4_ 0x0002254e   Section       26  cntsymbianengine.o(t._ZN5QListIN10QtMobility8QContactEE13node_destructEPNS2_4NodeES4_)
    t._ZN5QListIN10QtMobility8QContactEE14node_constructEPNS2_4NodeERKS1_ 0x00022568   Section       36  cntsymbianengine.o(t._ZN5QListIN10QtMobility8QContactEE14node_constructEPNS2_4NodeERKS1_)
    t._ZN5QListIN10QtMobility8QContactEE14node_constructEPNS2_4NodeERKS1_.clean 0x0002258c   Section       14  cntsymbianengine.o(t._ZN5QListIN10QtMobility8QContactEE14node_constructEPNS2_4NodeERKS1_.clean)
    t._ZN5QListIN10QtMobility8QContactEE18detach_helper_growEii 0x0002259a   Section      208  cntsymbianengine.o(t._ZN5QListIN10QtMobility8QContactEE18detach_helper_growEii)
    t._ZN5QListIN10QtMobility8QContactEE18detach_helper_growEii.clean 0x0002266a   Section       16  cntsymbianengine.o(t._ZN5QListIN10QtMobility8QContactEE18detach_helper_growEii.clean)
    t._ZN5QListIN10QtMobility8QContactEE4freeEPN9QListData4DataE 0x0002267a   Section       52  cntsymbianengine.o(t._ZN5QListIN10QtMobility8QContactEE4freeEPN9QListData4DataE)
    t._ZN5QListIN10QtMobility8QContactEE6appendERKS1_ 0x000226b0   Section      120  cntsymbianengine.o(t._ZN5QListIN10QtMobility8QContactEE6appendERKS1_)
    t._ZN5QListIN10QtMobility8QContactEE6appendERKS1_.clean 0x00022728   Section       14  cntsymbianengine.o(t._ZN5QListIN10QtMobility8QContactEE6appendERKS1_.clean)
    t._ZN5QListIN10QtMobility8QContactEE9node_copyEPNS2_4NodeES4_S4_ 0x00022736   Section       82  cntsymbianengine.o(t._ZN5QListIN10QtMobility8QContactEE9node_copyEPNS2_4NodeES4_S4_)
    t._ZN5QListIN10QtMobility8QContactEE9node_copyEPNS2_4NodeES4_S4_.clean 0x00022788   Section       22  cntsymbianengine.o(t._ZN5QListIN10QtMobility8QContactEE9node_copyEPNS2_4NodeES4_S4_.clean)
    t._ZN5QListIN10QtMobility8QContactEEC1Ev 0x000227a0   Section       24  cntsymbianengine.o(t._ZN5QListIN10QtMobility8QContactEEC1Ev)
    t._ZN5QListIN10QtMobility8QContactEED1Ev 0x000227b8   Section       32  cntsymbianengine.o(t._ZN5QListIN10QtMobility8QContactEED1Ev)
    t._ZN5QListIN10QtMobility8QContactEEaSERKS2_ 0x000227d8   Section       64  cntsymbiansrvconnection.o(t._ZN5QListIN10QtMobility8QContactEEaSERKS2_)
    t._ZN5QListIN8QVariant4TypeEE13node_destructEPNS2_4NodeES4_ 0x00022818   Section       26  cntsymbianengine.o(t._ZN5QListIN8QVariant4TypeEE13node_destructEPNS2_4NodeES4_)
    t._ZN5QListIN8QVariant4TypeEE14node_constructEPNS2_4NodeERKS1_ 0x00022832   Section       30  cntsymbianengine.o(t._ZN5QListIN8QVariant4TypeEE14node_constructEPNS2_4NodeERKS1_)
    t._ZN5QListIN8QVariant4TypeEE18detach_helper_growEii 0x00022850   Section      208  cntsymbianengine.o(t._ZN5QListIN8QVariant4TypeEE18detach_helper_growEii)
    t._ZN5QListIN8QVariant4TypeEE18detach_helper_growEii.clean 0x00022920   Section       16  cntsymbianengine.o(t._ZN5QListIN8QVariant4TypeEE18detach_helper_growEii.clean)
    t._ZN5QListIN8QVariant4TypeEE4freeEPN9QListData4DataE 0x00022930   Section       52  cntsymbianengine.o(t._ZN5QListIN8QVariant4TypeEE4freeEPN9QListData4DataE)
    t._ZN5QListIN8QVariant4TypeEE6appendERKS1_ 0x00022964   Section      112  cntsymbianengine.o(t._ZN5QListIN8QVariant4TypeEE6appendERKS1_)
    t._ZN5QListIN8QVariant4TypeEE6appendERKS1_.clean 0x000229d4   Section       14  cntsymbianengine.o(t._ZN5QListIN8QVariant4TypeEE6appendERKS1_.clean)
    t._ZN5QListIN8QVariant4TypeEE9node_copyEPNS2_4NodeES4_S4_ 0x000229e2   Section       78  cntsymbianengine.o(t._ZN5QListIN8QVariant4TypeEE9node_copyEPNS2_4NodeES4_S4_)
    t._ZN5QListIN8QVariant4TypeEE9node_copyEPNS2_4NodeES4_S4_.clean 0x00022a30   Section        8  cntsymbianengine.o(t._ZN5QListIN8QVariant4TypeEE9node_copyEPNS2_4NodeES4_S4_.clean)
    t._ZN5QListIN8QVariant4TypeEED1Ev        0x00022a38   Section       32  cntsymbianengine.o(t._ZN5QListIN8QVariant4TypeEED1Ev)
    t._ZN5QListIP17CContactItemFieldE13detach_helperEi 0x00022a58   Section      128  cnttransformcontact.o(t._ZN5QListIP17CContactItemFieldE13detach_helperEi)
    t._ZN5QListIP17CContactItemFieldE13detach_helperEi.clean 0x00022ad8   Section        8  cnttransformcontact.o(t._ZN5QListIP17CContactItemFieldE13detach_helperEi.clean)
    t._ZN5QListIP17CContactItemFieldE13detach_helperEv 0x00022ae0   Section       16  cnttransformcontact.o(t._ZN5QListIP17CContactItemFieldE13detach_helperEv)
    t._ZN5QListIP17CContactItemFieldE18detach_helper_growEii 0x00022af0   Section      204  cnttransformcontactdata.o(t._ZN5QListIP17CContactItemFieldE18detach_helper_growEii)
    t._ZN5QListIP17CContactItemFieldE18detach_helper_growEii.clean 0x00022bbc   Section       16  cnttransformcontactdata.o(t._ZN5QListIP17CContactItemFieldE18detach_helper_growEii.clean)
    t._ZN5QListIP17CContactItemFieldE4freeEPN9QListData4DataE 0x00022bcc   Section       52  cnttransformphonenumber.o(t._ZN5QListIP17CContactItemFieldE4freeEPN9QListData4DataE)
    t._ZN5QListIP17CContactItemFieldE6appendERKS1_ 0x00022c00   Section      100  cnttransformcontactdata.o(t._ZN5QListIP17CContactItemFieldE6appendERKS1_)
    t._ZN5QListIP17CContactItemFieldE6appendERKS1_.clean 0x00022c64   Section       10  cnttransformcontactdata.o(t._ZN5QListIP17CContactItemFieldE6appendERKS1_.clean)
    t._ZN5QListIP17CContactItemFieldE9node_copyEPNS2_4NodeES4_S4_ 0x00022c6e   Section       46  cnttransformcontactdata.o(t._ZN5QListIP17CContactItemFieldE9node_copyEPNS2_4NodeES4_S4_)
    t._ZN5QListIP17CContactItemFieldED1Ev    0x00022c9c   Section       32  cnttransformcontact.o(t._ZN5QListIP17CContactItemFieldED1Ev)
    t._ZN5QListIPN10QtMobility23QContactAbstractRequestEE13detach_helperEi 0x00022cbc   Section       94  cntsymbianengine.o(t._ZN5QListIPN10QtMobility23QContactAbstractRequestEE13detach_helperEi)
    t._ZN5QListIPN10QtMobility23QContactAbstractRequestEE13detach_helperEi.clean 0x00022d1a   Section        8  cntsymbianengine.o(t._ZN5QListIPN10QtMobility23QContactAbstractRequestEE13detach_helperEi.clean)
    t._ZN5QListIPN10QtMobility23QContactAbstractRequestEE13detach_helperEv 0x00022d22   Section       16  cntsymbianengine.o(t._ZN5QListIPN10QtMobility23QContactAbstractRequestEE13detach_helperEv)
    t._ZN5QListIPN10QtMobility23QContactAbstractRequestEE18detach_helper_growEii 0x00022d32   Section      204  cntsymbianengine.o(t._ZN5QListIPN10QtMobility23QContactAbstractRequestEE18detach_helper_growEii)
    t._ZN5QListIPN10QtMobility23QContactAbstractRequestEE18detach_helper_growEii.clean 0x00022dfe   Section       16  cntsymbianengine.o(t._ZN5QListIPN10QtMobility23QContactAbstractRequestEE18detach_helper_growEii.clean)
    t._ZN5QListIPN10QtMobility23QContactAbstractRequestEE4freeEPN9QListData4DataE 0x00022e0e   Section       52  cntsymbianengine.o(t._ZN5QListIPN10QtMobility23QContactAbstractRequestEE4freeEPN9QListData4DataE)
    t._ZN5QListIPN10QtMobility23QContactAbstractRequestEE5beginEv 0x00022e42   Section       26  cntsymbianengine.o(t._ZN5QListIPN10QtMobility23QContactAbstractRequestEE5beginEv)
    t._ZN5QListIPN10QtMobility23QContactAbstractRequestEE6appendERKS2_ 0x00022e5c   Section      100  cntsymbianengine.o(t._ZN5QListIPN10QtMobility23QContactAbstractRequestEE6appendERKS2_)
    t._ZN5QListIPN10QtMobility23QContactAbstractRequestEE6appendERKS2_.clean 0x00022ec0   Section       10  cntsymbianengine.o(t._ZN5QListIPN10QtMobility23QContactAbstractRequestEE6appendERKS2_.clean)
    t._ZN5QListIPN10QtMobility23QContactAbstractRequestEE6detachEv 0x00022eca   Section       24  cntsymbianengine.o(t._ZN5QListIPN10QtMobility23QContactAbstractRequestEE6detachEv)
    t._ZN5QListIPN10QtMobility23QContactAbstractRequestEE9node_copyEPNS3_4NodeES5_S5_ 0x00022ee2   Section       46  cntsymbianengine.o(t._ZN5QListIPN10QtMobility23QContactAbstractRequestEE9node_copyEPNS3_4NodeES5_S5_)
    t._ZN5QListIPN10QtMobility23QContactAbstractRequestEE9removeOneERKS2_ 0x00022f10   Section      108  cntsymbianengine.o(t._ZN5QListIPN10QtMobility23QContactAbstractRequestEE9removeOneERKS2_)
    t._ZN5QListIPN10QtMobility23QContactAbstractRequestEED1Ev 0x00022f7c   Section       32  cntsymbianengine.o(t._ZN5QListIPN10QtMobility23QContactAbstractRequestEED1Ev)
    t._ZN5QListIS_I5QPairI13QLatin1StringS1_EEE13detach_helperEi 0x00022f9c   Section       94  cntdisplaylabel.o(t._ZN5QListIS_I5QPairI13QLatin1StringS1_EEE13detach_helperEi)
    t._ZN5QListIS_I5QPairI13QLatin1StringS1_EEE13detach_helperEi.clean 0x00022ffa   Section        8  cntdisplaylabel.o(t._ZN5QListIS_I5QPairI13QLatin1StringS1_EEE13detach_helperEi.clean)
    t._ZN5QListIS_I5QPairI13QLatin1StringS1_EEE13detach_helperEv 0x00023002   Section       16  cntdisplaylabel.o(t._ZN5QListIS_I5QPairI13QLatin1StringS1_EEE13detach_helperEv)
    t._ZN5QListIS_I5QPairI13QLatin1StringS1_EEE13node_destructEPNS4_4NodeES6_ 0x00023012   Section       38  cntdisplaylabel.o(t._ZN5QListIS_I5QPairI13QLatin1StringS1_EEE13node_destructEPNS4_4NodeES6_)
    t._ZN5QListIS_I5QPairI13QLatin1StringS1_EEE14node_constructEPNS4_4NodeERKS3_ 0x00023038   Section       34  cntdisplaylabel.o(t._ZN5QListIS_I5QPairI13QLatin1StringS1_EEE14node_constructEPNS4_4NodeERKS3_)
    t._ZN5QListIS_I5QPairI13QLatin1StringS1_EEE14node_constructEPNS4_4NodeERKS3_.clean 0x0002305a   Section       14  cntdisplaylabel.o(t._ZN5QListIS_I5QPairI13QLatin1StringS1_EEE14node_constructEPNS4_4NodeERKS3_.clean)
    t._ZN5QListIS_I5QPairI13QLatin1StringS1_EEE18detach_helper_growEii 0x00023068   Section      208  cntdisplaylabel.o(t._ZN5QListIS_I5QPairI13QLatin1StringS1_EEE18detach_helper_growEii)
    t._ZN5QListIS_I5QPairI13QLatin1StringS1_EEE18detach_helper_growEii.clean 0x00023138   Section       16  cntdisplaylabel.o(t._ZN5QListIS_I5QPairI13QLatin1StringS1_EEE18detach_helper_growEii.clean)
    t._ZN5QListIS_I5QPairI13QLatin1StringS1_EEE4freeEPN9QListData4DataE 0x00023148   Section       58  cntdisplaylabel.o(t._ZN5QListIS_I5QPairI13QLatin1StringS1_EEE4freeEPN9QListData4DataE)
    t._ZN5QListIS_I5QPairI13QLatin1StringS1_EEE5clearEv 0x00023182   Section       76  cntdisplaylabel.o(t._ZN5QListIS_I5QPairI13QLatin1StringS1_EEE5clearEv)
    t._ZN5QListIS_I5QPairI13QLatin1StringS1_EEE5clearEv.clean 0x000231ce   Section       10  cntdisplaylabel.o(t._ZN5QListIS_I5QPairI13QLatin1StringS1_EEE5clearEv.clean)
    t._ZN5QListIS_I5QPairI13QLatin1StringS1_EEE6appendERKS3_ 0x000231d8   Section      112  cntdisplaylabel.o(t._ZN5QListIS_I5QPairI13QLatin1StringS1_EEE6appendERKS3_)
    t._ZN5QListIS_I5QPairI13QLatin1StringS1_EEE6appendERKS3_.clean 0x00023248   Section       14  cntdisplaylabel.o(t._ZN5QListIS_I5QPairI13QLatin1StringS1_EEE6appendERKS3_.clean)
    t._ZN5QListIS_I5QPairI13QLatin1StringS1_EEE9node_copyEPNS4_4NodeES6_S6_ 0x00023256   Section       92  cntdisplaylabel.o(t._ZN5QListIS_I5QPairI13QLatin1StringS1_EEE9node_copyEPNS4_4NodeES6_S6_)
    t._ZN5QListIS_I5QPairI13QLatin1StringS1_EEE9node_copyEPNS4_4NodeES6_S6_.clean 0x000232b2   Section       22  cntdisplaylabel.o(t._ZN5QListIS_I5QPairI13QLatin1StringS1_EEE9node_copyEPNS4_4NodeES6_S6_.clean)
    t._ZN5QListIS_I5QPairI13QLatin1StringS1_EEEC1ERKS4_ 0x000232c8   Section       36  cntdisplaylabel.o(t._ZN5QListIS_I5QPairI13QLatin1StringS1_EEEC1ERKS4_)
    t._ZN5QListIS_I5QPairI13QLatin1StringS1_EEEC1Ev 0x000232ec   Section       24  cntdisplaylabel.o(t._ZN5QListIS_I5QPairI13QLatin1StringS1_EEEC1Ev)
    t._ZN5QListIS_I5QPairI13QLatin1StringS1_EEED1Ev 0x00023304   Section       32  cntdisplaylabel.o(t._ZN5QListIS_I5QPairI13QLatin1StringS1_EEED1Ev)
    t._ZN5QListIjE13detach_helperEi          0x00023324   Section       94  cntsymbianengine.o(t._ZN5QListIjE13detach_helperEi)
    t._ZN5QListIjE13detach_helperEi.clean    0x00023382   Section        8  cntsymbianengine.o(t._ZN5QListIjE13detach_helperEi.clean)
    t._ZN5QListIjE13detach_helperEv          0x0002338a   Section       16  cntsymbianengine.o(t._ZN5QListIjE13detach_helperEv)
    t._ZN5QListIjE18detach_helper_growEii    0x0002339a   Section      204  cntsymbianengine.o(t._ZN5QListIjE18detach_helper_growEii)
    t._ZN5QListIjE18detach_helper_growEii.clean 0x00023466   Section       16  cntsymbianengine.o(t._ZN5QListIjE18detach_helper_growEii.clean)
    t._ZN5QListIjE4freeEPN9QListData4DataE   0x00023476   Section       52  cntsymbianengine.o(t._ZN5QListIjE4freeEPN9QListData4DataE)
    t._ZN5QListIjE6appendERKj                0x000234ac   Section      100  cntsymbianengine.o(t._ZN5QListIjE6appendERKj)
    t._ZN5QListIjE6appendERKj.clean          0x00023510   Section       10  cntsymbianengine.o(t._ZN5QListIjE6appendERKj.clean)
    t._ZN5QListIjE7reserveEi                 0x0002351a   Section       46  cntsymbiandatabase.o(t._ZN5QListIjE7reserveEi)
    t._ZN5QListIjE9node_copyEPNS0_4NodeES2_S2_ 0x00023548   Section       46  cntsymbianengine.o(t._ZN5QListIjE9node_copyEPNS0_4NodeES2_S2_)
    t._ZN5QListIjEC1ERKS0_                   0x00023576   Section       36  cntsymbianengine.o(t._ZN5QListIjEC1ERKS0_)
    t._ZN5QListIjEC1Ev                       0x0002359c   Section       24  cntsymbianengine.o(t._ZN5QListIjEC1Ev)
    t._ZN5QListIjED1Ev                       0x000235b4   Section       32  cntsymbianengine.o(t._ZN5QListIjED1Ev)
    t._ZN5QListIjEaSERKS0_                   0x000235d4   Section       64  cntsymbianengine.o(t._ZN5QListIjEaSERKS0_)
    t._ZN5QListIjEpLERKS0_                   0x00023614   Section      208  cntsymbiandatabase.o(t._ZN5QListIjEpLERKS0_)
    t._ZN5QListIjEpLERKS0_.clean             0x000236e4   Section        8  cntsymbiandatabase.o(t._ZN5QListIjEpLERKS0_.clean)
    t._ZN6QQueueIPN10QtMobility23QContactAbstractRequestEED1Ev 0x000236ec   Section       14  cntsymbianengine.o(t._ZN6QQueueIPN10QtMobility23QContactAbstractRequestEED1Ev)
    t._ZN8QPointerI7QObjectED1Ev             0x000236fa   Section       14  cntsymbianengine.o(t._ZN8QPointerI7QObjectED1Ev)
    t._ZN9CArrayFixI4TUidE7AppendLERKS0_     0x00023708   Section       24  cntsymbianfilterdbms.o(t._ZN9CArrayFixI4TUidE7AppendLERKS0_)
    t._ZN9QHashNodeI7QString5QPairIibEEC1ERKS0_RKS2_ 0x00023720   Section       34  cntdbinfo.o(t._ZN9QHashNodeI7QString5QPairIibEEC1ERKS0_RKS2_)
    t._ZN9QHashNodeI7QString5QPairIibEEC1ERKS0_RKS2_.clean 0x00023742   Section        4  cntdbinfo.o(t._ZN9QHashNodeI7QString5QPairIibEEC1ERKS0_RKS2_.clean)
    t._ZN9QHashNodeI7QStringS0_EC1ERKS0_S3_  0x00023746   Section       40  cntdbinfo.o(t._ZN9QHashNodeI7QStringS0_EC1ERKS0_S3_)
    t._ZN9QHashNodeI7QStringS0_EC1ERKS0_S3_.clean 0x0002376e   Section       12  cntdbinfo.o(t._ZN9QHashNodeI7QStringS0_EC1ERKS0_S3_.clean)
    t._ZN9QHashNodeI7QStringiEC1ERKS0_RKi    0x0002377a   Section       30  cntdbinfo.o(t._ZN9QHashNodeI7QStringiEC1ERKS0_RKi)
    t._ZNK10QtMobility14QContactDetail5valueI11QStringListEET_PKc 0x00023798   Section      156  cnttransformfamily.o(t._ZNK10QtMobility14QContactDetail5valueI11QStringListEET_PKc)
    t._ZNK10QtMobility14QContactDetail5valueI11QStringListEET_PKc.clean 0x00023834   Section       20  cnttransformfamily.o(t._ZNK10QtMobility14QContactDetail5valueI11QStringListEET_PKc.clean)
    t._ZNK10QtMobility14QContactDetail5valueI4QUrlEET_PKc 0x00023848   Section      156  cnttransformavatar.o(t._ZNK10QtMobility14QContactDetail5valueI4QUrlEET_PKc)
    t._ZNK10QtMobility14QContactDetail5valueI4QUrlEET_PKc.clean 0x000238e4   Section       20  cnttransformavatar.o(t._ZNK10QtMobility14QContactDetail5valueI4QUrlEET_PKc.clean)
    t._ZNK10QtMobility14QContactDetail5valueI6QImageEET_PKc 0x000238f8   Section      156  cnttransformthumbnail.o(t._ZNK10QtMobility14QContactDetail5valueI6QImageEET_PKc)
    t._ZNK10QtMobility14QContactDetail5valueI6QImageEET_PKc.clean 0x00023994   Section       20  cnttransformthumbnail.o(t._ZNK10QtMobility14QContactDetail5valueI6QImageEET_PKc.clean)
    t._ZNK10QtMobility15QLatin1ConstantILi4EEcv7QStringEv 0x000239a8   Section       18  cnttransformphonenumber.o(t._ZNK10QtMobility15QLatin1ConstantILi4EEcv7QStringEv)
    t._ZNK10QtMobility15QLatin1ConstantILi5EEcv7QStringEv 0x000239ba   Section       18  cntdbinfo.o(t._ZNK10QtMobility15QLatin1ConstantILi5EEcv7QStringEv)
    t._ZNK10QtMobility15QLatin1ConstantILi6EEcv7QStringEv 0x000239cc   Section       18  cnttransformphonenumber.o(t._ZNK10QtMobility15QLatin1ConstantILi6EEcv7QStringEv)
    t._ZNK10QtMobility15QLatin1ConstantILi9EEcv7QStringEv 0x000239de   Section       18  cntdbinfo.o(t._ZNK10QtMobility15QLatin1ConstantILi9EEcv7QStringEv)
    t._ZNK10QtMobility8QContact7detailsINS_15QContactAddressEEE5QListIT_Ev 0x000239f0   Section      148  cnttransformaddress.o(t._ZNK10QtMobility8QContact7detailsINS_15QContactAddressEEE5QListIT_Ev)
    t._ZNK10QtMobility8QContact7detailsINS_15QContactAddressEEE5QListIT_Ev.clean 0x00023a84   Section       22  cnttransformaddress.o(t._ZNK10QtMobility8QContact7detailsINS_15QContactAddressEEE5QListIT_Ev.clean)
    t._ZNK17QForeachContainerI5QListIN10QtMobility17QContactSortOrderEEE9conditionEv 0x00023a9a   Section       40  cntsymbiansorterdbms.o(t._ZNK17QForeachContainerI5QListIN10QtMobility17QContactSortOrderEEE9conditionEv)
    t._ZNK17QForeachContainerI5QListIjEE9conditionEv 0x00023ac2   Section       40  cntsymbianengine.o(t._ZNK17QForeachContainerI5QListIjEE9conditionEv)
    t._ZNK4QMapI7QString8QVariantE4keysEv    0x00023aea   Section      104  cnttransformaddress.o(t._ZNK4QMapI7QString8QVariantE4keysEv)
    t._ZNK4QMapI7QString8QVariantE4keysEv.clean 0x00023b52   Section       10  cnttransformaddress.o(t._ZNK4QMapI7QString8QVariantE4keysEv.clean)
    t._ZNK4QMapI7QStringN10QtMobility24QContactDetailDefinitionEE15mutableFindNodeEPPN8QMapData4NodeERKS0_ 0x00023b5c   Section      108  cntsymbianengine.o(t._ZNK4QMapI7QStringN10QtMobility24QContactDetailDefinitionEE15mutableFindNodeEPPN8QMapData4NodeERKS0_)
    t._ZNK4QMapI7QStringN10QtMobility24QContactDetailDefinitionEE4keysEv 0x00023bc8   Section      116  cntsymbianengine.o(t._ZNK4QMapI7QStringN10QtMobility24QContactDetailDefinitionEE4keysEv)
    t._ZNK4QMapI7QStringN10QtMobility24QContactDetailDefinitionEE4keysEv.clean 0x00023c3c   Section       10  cntsymbianengine.o(t._ZNK4QMapI7QStringN10QtMobility24QContactDetailDefinitionEE4keysEv.clean)
    t._ZNK4QMapI7QStringN10QtMobility24QContactDetailDefinitionEE8containsERKS0_ 0x00023c46   Section      122  cnttransformempty.o(t._ZNK4QMapI7QStringN10QtMobility24QContactDetailDefinitionEE8containsERKS0_)
    t._ZNK4QMapI7QStringN10QtMobility24QContactDetailDefinitionEE8findNodeERKS0_ 0x00023cc0   Section      104  cnttransformname.o(t._ZNK4QMapI7QStringN10QtMobility24QContactDetailDefinitionEE8findNodeERKS0_)
    t._ZNK4QMapI7QStringN10QtMobility29QContactDetailFieldDefinitionEE15mutableFindNodeEPPN8QMapData4NodeERKS0_ 0x00023d28   Section      108  cnttransformphonenumber.o(t._ZNK4QMapI7QStringN10QtMobility29QContactDetailFieldDefinitionEE15mutableFindNodeEPPN8QMapData4NodeERKS0_)
    t._ZNK4QMapI7QStringP23CntAbstractRelationshipE15mutableFindNodeEPPN8QMapData4NodeERKS0_ 0x00023d94   Section      108  cntrelationship.o(t._ZNK4QMapI7QStringP23CntAbstractRelationshipE15mutableFindNodeEPPN8QMapData4NodeERKS0_)
    t._ZNK4QMapI7QStringP23CntAbstractRelationshipE4keysEv 0x00023e00   Section      116  cntrelationship.o(t._ZNK4QMapI7QStringP23CntAbstractRelationshipE4keysEv)
    t._ZNK4QMapI7QStringP23CntAbstractRelationshipE4keysEv.clean 0x00023e74   Section       10  cntrelationship.o(t._ZNK4QMapI7QStringP23CntAbstractRelationshipE4keysEv.clean)
    t._ZNK4QMapI7QStringP23CntAbstractRelationshipE5valueERKS0_ 0x00023e7e   Section       46  cntrelationship.o(t._ZNK4QMapI7QStringP23CntAbstractRelationshipE5valueERKS0_)
    t._ZNK4QMapI7QStringP23CntAbstractRelationshipE8containsERKS0_ 0x00023eac   Section       28  cntrelationship.o(t._ZNK4QMapI7QStringP23CntAbstractRelationshipE8containsERKS0_)
    t._ZNK4QMapI7QStringP23CntAbstractRelationshipE8findNodeERKS0_ 0x00023ec8   Section      104  cntrelationship.o(t._ZNK4QMapI7QStringP23CntAbstractRelationshipE8findNodeERKS0_)
    t._ZNK4QMapIN19CntTransformContact11ContactDataEP23CntTransformContactDataE14const_iteratorneERKS5_ 0x00023f30   Section       18  cnttransformcontact.o(t._ZNK4QMapIN19CntTransformContact11ContactDataEP23CntTransformContactDataE14const_iteratorneERKS5_)
    t._ZNK4QMapIN19CntTransformContact11ContactDataEP23CntTransformContactDataE15mutableFindNodeEPPN8QMapData4NodeERKS1_ 0x00023f42   Section      108  cnttransformcontact.o(t._ZNK4QMapIN19CntTransformContact11ContactDataEP23CntTransformContactDataE15mutableFindNodeEPPN8QMapData4NodeERKS1_)
    t._ZNK4QMapIiN10QtMobility15QContactManager5ErrorEE15mutableFindNodeEPPN8QMapData4NodeERKi 0x00023fae   Section      108  cntsymbianengine.o(t._ZNK4QMapIiN10QtMobility15QContactManager5ErrorEE15mutableFindNodeEPPN8QMapData4NodeERKi)
    t._ZNK4QMapIj4QSetIjEE15mutableFindNodeEPPN8QMapData4NodeERKj 0x0002401a   Section      108  cntsymbiandatabase.o(t._ZNK4QMapIj4QSetIjEE15mutableFindNodeEPPN8QMapData4NodeERKj)
    t._ZNK4QMapIj4QSetIjEE5valueERKj         0x00024086   Section       62  cntsymbiandatabase.o(t._ZNK4QMapIj4QSetIjEE5valueERKj)
    t._ZNK4QMapIj4QSetIjEE8findNodeERKj      0x000240c4   Section      104  cntsymbiandatabase.o(t._ZNK4QMapIj4QSetIjEE8findNodeERKj)
    t._ZNK4QSetIjE10constBeginEv             0x0002412c   Section       62  cntsymbiandatabase.o(t._ZNK4QSetIjE10constBeginEv)
    t._ZNK4QSetIjE14const_iteratorneERKS1_   0x0002416a   Section       20  cntsymbiandatabase.o(t._ZNK4QSetIjE14const_iteratorneERKS1_)
    t._ZNK4QSetIjE6toListEv                  0x0002417e   Section      120  cntsymbiandatabase.o(t._ZNK4QSetIjE6toListEv)
    t._ZNK4QSetIjE6toListEv.clean            0x000241f6   Section       10  cntsymbiandatabase.o(t._ZNK4QSetIjE6toListEv.clean)
    t._ZNK4QSetIjE8containsERKj              0x00024200   Section       34  cntsymbiandatabase.o(t._ZNK4QSetIjE8containsERKj)
    t._ZNK5QHashI7QString5QPairIibEE8containsERKS0_ 0x00024222   Section       32  cntdbinfo.o(t._ZNK5QHashI7QString5QPairIibEE8containsERKS0_)
    t._ZNK5QHashI7QString5QPairIibEE8findNodeERKS0_Pj 0x00024242   Section      116  cntdbinfo.o(t._ZNK5QHashI7QString5QPairIibEE8findNodeERKS0_Pj)
    t._ZNK5QHashI7QStringS0_E8containsERKS0_ 0x000242b6   Section       32  cntdbinfo.o(t._ZNK5QHashI7QStringS0_E8containsERKS0_)
    t._ZNK5QHashI7QStringS0_E8findNodeERKS0_Pj 0x000242d6   Section      116  cntdbinfo.o(t._ZNK5QHashI7QStringS0_E8findNodeERKS0_Pj)
    t._ZNK5QHashI7QStringiE8containsERKS0_   0x0002434a   Section       32  cntdbinfo.o(t._ZNK5QHashI7QStringiE8containsERKS0_)
    t._ZNK5QHashI7QStringiE8findNodeERKS0_Pj 0x0002436a   Section      116  cntdbinfo.o(t._ZNK5QHashI7QStringiE8findNodeERKS0_Pj)
    t._ZNK5QHashIj15QHashDummyValueE8findNodeERKjPj 0x000243de   Section       94  cntrelationshipgroup.o(t._ZNK5QHashIj15QHashDummyValueE8findNodeERKjPj)
    t._ZNK5QHashImP23CntTransformContactDataE8findNodeERKmPj 0x0002443c   Section      102  cnttransformcontact.o(t._ZNK5QHashImP23CntTransformContactDataE8findNodeERKmPj)
    t._ZNK5QListI4TUidE7isEmptyEv            0x000244a2   Section       24  cnttransformcontact.o(t._ZNK5QListI4TUidE7isEmptyEv)
    t._ZNK5QListI4TUidE8containsERKS0_       0x000244ba   Section       72  cnttransformname.o(t._ZNK5QListI4TUidE8containsERKS0_)
    t._ZNK5QListI5QPairIj7QStringEE2atEi     0x00024502   Section       22  cntfilterdetail.o(t._ZNK5QListI5QPairIj7QStringEE2atEi)
    t._ZNK5QListI7QStringE2atEi              0x00024518   Section       22  cntsymbianengine.o(t._ZNK5QListI7QStringE2atEi)
    t._ZNK5QListI7QStringEeqERKS1_           0x0002452e   Section      122  cnttransformaddress.o(t._ZNK5QListI7QStringEeqERKS1_)
    t._ZNK5QListIN10QtMobility20QContactRelationshipEE2atEi 0x000245a8   Section       22  cntsymbianengine.o(t._ZNK5QListIN10QtMobility20QContactRelationshipEE2atEi)
    t._ZNK5QListIN10QtMobility20QContactRelationshipEE7isEmptyEv 0x000245be   Section       24  cntrelationship.o(t._ZNK5QListIN10QtMobility20QContactRelationshipEE7isEmptyEv)
    t._ZNK5QListIP17CContactItemFieldE2atEi  0x000245d6   Section       22  cnttransformcontact.o(t._ZNK5QListIP17CContactItemFieldE2atEi)
    t._ZNK5QListIPN10QtMobility23QContactAbstractRequestEE7indexOfERKS2_i 0x000245ec   Section      116  cntsymbianengine.o(t._ZNK5QListIPN10QtMobility23QContactAbstractRequestEE7indexOfERKS2_i)
    t._ZNK5QListIPN10QtMobility23QContactAbstractRequestEE8containsERKS2_ 0x00024660   Section       66  cntsymbianengine.o(t._ZNK5QListIPN10QtMobility23QContactAbstractRequestEE8containsERKS2_)
    t._ZNK5QListIS_I5QPairI13QLatin1StringS1_EEE2atEi 0x000246a2   Section       22  cntdisplaylabel.o(t._ZNK5QListIS_I5QPairI13QLatin1StringS1_EEE2atEi)
    t._ZNK5QListIjE2atEi                     0x000246b8   Section       22  cntsymbianengine.o(t._ZNK5QListIjE2atEi)
    t._ZNK5QListIjE5countEv                  0x000246ce   Section       12  cntsymbianengine.o(t._ZNK5QListIjE5countEv)
    t._ZNK5QListIjE5toSetEv                  0x000246dc   Section      156  cntsymbianfilterdbms.o(t._ZNK5QListIjE5toSetEv)
    t._ZNK5QListIjE5toSetEv.clean            0x00024778   Section       10  cntsymbianfilterdbms.o(t._ZNK5QListIjE5toSetEv.clean)
    t._ZNK5QListIjE7isEmptyEv                0x00024782   Section       24  cntsymbiandatabase.o(t._ZNK5QListIjE7isEmptyEv)
    t._ZNK5QListIjE8containsERKj             0x0002479a   Section       66  cntsymbianengine.o(t._ZNK5QListIjE8containsERKj)
    t._ZrsI4TBufILi256EEER11RReadStreamS3_RT_ 0x000247dc   Section       28  cntsymbiansrvconnection.o(t._ZrsI4TBufILi256EEER11RReadStreamS3_RT_)
    .extab._ZN17CntSymbianFactoryD1Ev        0x000247f8   Data           0  moc_cntsymbianengine.o(.ARM.extab)
    .extab.qt_plugin_instance                0x00024808   Data           0  cntsymbianengine.o(.ARM.extab)
    .extab._ZN16CntSymbianEngineC1ERK4QMapI7QStringS1_EPN10QtMobility15QContactManager5ErrorE 0x00024820   Data           0  cntsymbianengine.o(.ARM.extab)
    .extab._ZN16CntSymbianEngineD1Ev         0x000248d0   Data           0  cntsymbianengine.o(.ARM.extab)
    .extab._ZN16CntSymbianEngine16saveRelationshipEPN10QtMobility20QContactRelationshipEPNS0_15QContactManager5ErrorE 0x000248f0   Data           0  cntsymbianengine.o(.ARM.extab)
    .extab._ZN16CntSymbianEngine18removeRelationshipERKN10QtMobility20QContactRelationshipEPNS0_15QContactManager5ErrorE 0x00024900   Data           0  cntsymbianengine.o(.ARM.extab)
    .extab._ZNK16CntSymbianEngine18updateDisplayLabelERN10QtMobility8QContactE 0x00024910   Data           0  cntsymbianengine.o(.ARM.extab)
    .extab._ZN16CntSymbianEngine14updateContactLERN10QtMobility8QContactE 0x00024920   Data           0  cntsymbianengine.o(.ARM.extab)
    .extab._ZN16CntSymbianEngine11addContactLERN10QtMobility8QContactE 0x00024948   Data           0  cntsymbianengine.o(.ARM.extab)
    .extab._ZN16CntSymbianEngine10addContactERN10QtMobility8QContactERNS0_17QContactChangeSetEPNS0_15QContactManager5ErrorE 0x00024978   Data           0  cntsymbianengine.o(.ARM.extab)
    .extab._ZN16CntSymbianEngine13updateContactERN10QtMobility8QContactERNS0_17QContactChangeSetEPNS0_15QContactManager5ErrorE 0x000249a8   Data           0  cntsymbianengine.o(.ARM.extab)
    .extab._ZN16CntSymbianEngine13doSaveContactEPN10QtMobility8QContactERNS0_17QContactChangeSetEPNS0_15QContactManager5ErrorE 0x000249d8   Data           0  cntsymbianengine.o(.ARM.extab)
    .extab._ZN16CntSymbianEngine11saveContactEPN10QtMobility8QContactEPNS0_15QContactManager5ErrorE 0x00024ac0   Data           0  cntsymbianengine.o(.ARM.extab)
    .extab._ZN16CntSymbianEngine13removeContactERKjRN10QtMobility17QContactChangeSetEPNS2_15QContactManager5ErrorE 0x00024ad0   Data           0  cntsymbianengine.o(.ARM.extab)
    .extab._ZN16CntSymbianEngine13removeContactERKjPN10QtMobility15QContactManager5ErrorE 0x00024b00   Data           0  cntsymbianengine.o(.ARM.extab)
    .extab._ZNK16CntSymbianEngine8slowSortERK5QListIjERKS0_IN10QtMobility17QContactSortOrderEEPNS4_15QContactManager5ErrorE 0x00024b10   Data           0  cntsymbianengine.o(.ARM.extab)
    .extab._ZNK16CntSymbianEngine10slowFilterERKN10QtMobility14QContactFilterERK5QListIjEPNS0_15QContactManager5ErrorE 0x00024b68   Data           0  cntsymbianengine.o(.ARM.extab)
    .extab._ZNK16CntSymbianEngine10contactIdsERKN10QtMobility14QContactFilterERK5QListINS0_17QContactSortOrderEEPNS0_15QContactManager5ErrorE 0x00024b98   Data           0  cntsymbianengine.o(.ARM.extab)
    .extab._ZNK16CntSymbianEngine8contactsERKN10QtMobility14QContactFilterERK5QListINS0_17QContactSortOrderEERKNS0_17QContactFetchHintEPNS0_15QContactManager5ErrorE 0x00024bf8   Data           0  cntsymbianengine.o(.ARM.extab)
    .extab._ZNK16CntSymbianEngine13fetchContactLERKjRK11QStringList 0x00024cc8   Data           0  cntsymbianengine.o(.ARM.extab)
    .extab._ZNK16CntSymbianEngine7contactERKjRKN10QtMobility17QContactFetchHintEPNS2_15QContactManager5ErrorE 0x00024d40   Data           0  cntsymbianengine.o(.ARM.extab)
    .extab._ZN16CntSymbianEngine12saveContactsEP5QListIN10QtMobility8QContactEEP4QMapIiNS1_15QContactManager5ErrorEEPS7_ 0x00024df0   Data           0  cntsymbianengine.o(.ARM.extab)
    .extab._ZN16CntSymbianEngine14removeContactsERK5QListIjEP4QMapIiN10QtMobility15QContactManager5ErrorEEPS7_ 0x00024e10   Data           0  cntsymbianengine.o(.ARM.extab)
    .extab._ZN16CntSymbianEngine16setSelfContactIdERKjPN10QtMobility15QContactManager5ErrorE 0x00024e28   Data           0  cntsymbianengine.o(.ARM.extab)
    .extab._ZN16CntSymbianEngine17saveRelationshipsEP5QListIN10QtMobility20QContactRelationshipEEP4QMapIiNS1_15QContactManager5ErrorEEPS7_ 0x00024e58   Data           0  cntsymbianengine.o(.ARM.extab)
    .extab._ZN16CntSymbianEngine19removeRelationshipsERK5QListIN10QtMobility20QContactRelationshipEEP4QMapIiNS1_15QContactManager5ErrorEEPS8_ 0x00024e68   Data           0  cntsymbianengine.o(.ARM.extab)
    .extab._ZNK16CntSymbianEngine17detailDefinitionsERK7QStringPN10QtMobility15QContactManager5ErrorE 0x00024e78   Data           0  cntsymbianengine.o(.ARM.extab)
    .extab._ZNK16CntSymbianEngine18supportedDataTypesEv 0x00024e98   Data           0  cntsymbianengine.o(.ARM.extab)
    .extab._ZN16CntSymbianEngine28performAsynchronousOperationEv 0x00024ea8   Data           0  cntsymbianengine.o(.ARM.extab)
    .extab._ZN16CntSymbianEngine22waitForRequestProgressEPN10QtMobility23QContactAbstractRequestEi 0x00025198   Data           0  cntsymbianengine.o(.ARM.extab)
    .extab._ZN17CntSymbianFactory6engineERK4QMapI7QStringS1_EPN10QtMobility15QContactManager5ErrorE 0x000251b4   Data           0  cntsymbianengine.o(.ARM.extab)
    .extab.__sti___20_cntsymbianengine_cpp   0x000251c4   Data           0  cntsymbianengine.o(.ARM.extab)
    .extab._ZN5QListIjE13detach_helperEi     0x00025204   Data           0  cntsymbianengine.o(.ARM.extab)
    .extab._Z20qForeachContainerNewI5QListIjEE17QForeachContainerIT_ERKS3_ 0x00025220   Data           0  cntsymbianengine.o(.ARM.extab)
    .extab._ZN5QListI7QStringE9node_copyEPNS1_4NodeES3_S3_ 0x00025230   Data           0  cntsymbianengine.o(.ARM.extab)
    .extab._ZN5QListI7QStringE13detach_helperEi 0x00025254   Data           0  cntsymbianengine.o(.ARM.extab)
    .extab._ZN5QListI7QStringE14node_constructEPNS1_4NodeERKS0_ 0x00025270   Data           0  cntsymbianengine.o(.ARM.extab)
    .extab._ZN5QListI7QStringE18detach_helper_growEii 0x00025280   Data           0  cntsymbianengine.o(.ARM.extab)
    .extab._ZN5QListI7QStringE6appendERKS0_  0x000252b0   Data           0  cntsymbianengine.o(.ARM.extab)
    .extab._ZN5QListIN10QtMobility14QContactDetailEE13detach_helperEi 0x000252e0   Data           0  cntsymbianengine.o(.ARM.extab)
    .extab._ZN5QListIN10QtMobility8QContactEE14node_constructEPNS2_4NodeERKS1_ 0x00025324   Data           0  cntsymbianengine.o(.ARM.extab)
    .extab._ZN5QListIN10QtMobility8QContactEE9node_copyEPNS2_4NodeES4_S4_ 0x00025334   Data           0  cntsymbianengine.o(.ARM.extab)
    .extab._ZN5QListIN10QtMobility8QContactEE18detach_helper_growEii 0x00025358   Data           0  cntsymbianengine.o(.ARM.extab)
    .extab._ZN5QListIN10QtMobility8QContactEE6appendERKS1_ 0x00025388   Data           0  cntsymbianengine.o(.ARM.extab)
    .extab._ZN5QListIjE18detach_helper_growEii 0x000253b8   Data           0  cntsymbianengine.o(.ARM.extab)
    .extab._ZN5QListIjE6appendERKj           0x000253e8   Data           0  cntsymbianengine.o(.ARM.extab)
    .extab._ZN5QListIN10QtMobility8QContactEE13detach_helperEi 0x00025404   Data           0  cntsymbianengine.o(.ARM.extab)
    .extab._ZN4QMapIiN10QtMobility15QContactManager5ErrorEE13detach_helperEv 0x00025420   Data           0  cntsymbianengine.o(.ARM.extab)
    .extab._ZN4QMapIiN10QtMobility15QContactManager5ErrorEE5clearEv 0x0002543c   Data           0  cntsymbianengine.o(.ARM.extab)
    .extab._ZN4QMapI7QStringN10QtMobility24QContactDetailDefinitionEE11node_createEP8QMapDataPPNS4_4NodeERKS0_RKS2_ 0x0002544c   Data           0  cntsymbianengine.o(.ARM.extab)
    .extab._ZN4QMapI7QStringN10QtMobility24QContactDetailDefinitionEE13detach_helperEv 0x00025498   Data           0  cntsymbianengine.o(.ARM.extab)
    .extab._ZN5QListIN8QVariant4TypeEE9node_copyEPNS2_4NodeES4_S4_ 0x000254b4   Data           0  cntsymbianengine.o(.ARM.extab)
    .extab._ZN5QListIN8QVariant4TypeEE18detach_helper_growEii 0x000254d0   Data           0  cntsymbianengine.o(.ARM.extab)
    .extab._ZN5QListIN8QVariant4TypeEE6appendERKS1_ 0x00025500   Data           0  cntsymbianengine.o(.ARM.extab)
    .extab._ZN5QListIPN10QtMobility23QContactAbstractRequestEE13detach_helperEi 0x00025530   Data           0  cntsymbianengine.o(.ARM.extab)
    .extab._ZN5QListIPN10QtMobility23QContactAbstractRequestEE18detach_helper_growEii 0x0002554c   Data           0  cntsymbianengine.o(.ARM.extab)
    .extab._ZN5QListIPN10QtMobility23QContactAbstractRequestEE6appendERKS2_ 0x0002557c   Data           0  cntsymbianengine.o(.ARM.extab)
    .extab._ZN5QListIN10QtMobility20QContactRelationshipEE14node_constructEPNS2_4NodeERKS1_ 0x00025598   Data           0  cntsymbianengine.o(.ARM.extab)
    .extab._ZN5QListIN10QtMobility20QContactRelationshipEE9node_copyEPNS2_4NodeES4_S4_ 0x000255a8   Data           0  cntsymbianengine.o(.ARM.extab)
    .extab._ZN5QListIN10QtMobility20QContactRelationshipEE18detach_helper_growEii 0x000255cc   Data           0  cntsymbianengine.o(.ARM.extab)
    .extab._ZN5QListIN10QtMobility20QContactRelationshipEE6appendERKS1_ 0x000255fc   Data           0  cntsymbianengine.o(.ARM.extab)
    .extab._ZNK4QMapI7QStringN10QtMobility24QContactDetailDefinitionEE4keysEv 0x0002562c   Data           0  cntsymbianengine.o(.ARM.extab)
    .extab._ZN23CntAbstractRelationshipC2EP16CContactDatabaseRK7QStringS4_ 0x0002563c   Data           0  cntabstractrelationship.o(.ARM.extab)
    .extab._ZN23CntAbstractRelationshipD2Ev  0x0002564c   Data           0  cntabstractrelationship.o(.ARM.extab)
    .extab._ZN20CntRelationshipGroupC1EP16CContactDatabaseRK7QString 0x0002565c   Data           0  cntrelationshipgroup.o(.ARM.extab)
    .extab._ZN20CntRelationshipGroup18fetchGroupMembersLERKjP5QListIN10QtMobility20QContactRelationshipEE 0x0002566c   Data           0  cntrelationshipgroup.o(.ARM.extab)
    .extab._ZN20CntRelationshipGroup20fetchMemberOfGroupsLERKjP5QListIN10QtMobility20QContactRelationshipEE 0x000256cc   Data           0  cntrelationshipgroup.o(.ARM.extab)
    .extab._ZN20CntRelationshipGroup14relationshipsLERKN10QtMobility10QContactIdENS0_20QContactRelationship4RoleEPNS0_15QContactManager5ErrorE 0x0002572c   Data           0  cntrelationshipgroup.o(.ARM.extab)
    .extab._ZN20CntRelationshipGroup17saveRelationshipLEP4QSetIjEPN10QtMobility20QContactRelationshipEPNS3_15QContactManager5ErrorE 0x0002574c   Data           0  cntrelationshipgroup.o(.ARM.extab)
    .extab._ZN20CntRelationshipGroup19removeRelationshipLEP4QSetIjERKN10QtMobility20QContactRelationshipEPNS3_15QContactManager5ErrorE 0x0002578c   Data           0  cntrelationshipgroup.o(.ARM.extab)
    .extab._ZN20CntRelationshipGroup20validateRelationshipERKN10QtMobility20QContactRelationshipEPNS0_15QContactManager5ErrorE 0x000257cc   Data           0  cntrelationshipgroup.o(.ARM.extab)
    .extab._ZN18CntSymbianDatabase13groupMembersLEj 0x0002581c   Data           0  cntsymbiandatabase.o(.ARM.extab)
    .extab._ZN18CntSymbianDatabase23updateGroupMembershipsLEjR4QSetIjES2_ 0x0002582c   Data           0  cntsymbiandatabase.o(.ARM.extab)
    .extab._ZN18CntSymbianDatabase23updateGroupMembershipsLEv 0x0002586c   Data           0  cntsymbiandatabase.o(.ARM.extab)
    .extab._ZN18CntSymbianDatabase11initializeLEv 0x0002587c   Data           0  cntsymbiandatabase.o(.ARM.extab)
    .extab._ZN18CntSymbianDatabaseC1EPN10QtMobility21QContactManagerEngineEPNS0_15QContactManager5ErrorE 0x000258d4   Data           0  cntsymbiandatabase.o(.ARM.extab)
    .extab._ZN18CntSymbianDatabaseD1Ev       0x00025924   Data           0  cntsymbiandatabase.o(.ARM.extab)
    .extab._ZN18CntSymbianDatabase20HandleDatabaseEventLE23TContactDbObserverEvent 0x00025944   Data           0  cntsymbiandatabase.o(.ARM.extab)
    .extab._ZN4QMapIj4QSetIjEE11node_createEP8QMapDataPPNS3_4NodeERKjRKS1_ 0x000259f4   Data           0  cntsymbiandatabase.o(.ARM.extab)
    .extab._ZN4QMapIj4QSetIjEE13detach_helperEv 0x00025a2c   Data           0  cntsymbiandatabase.o(.ARM.extab)
    .extab._ZN5QHashIj15QHashDummyValueE6removeERKj 0x00025a48   Data           0  cntsymbiandatabase.o(.ARM.extab)
    .extab._ZN5QListIjEpLERKS0_              0x00025a5c   Data           0  cntsymbiandatabase.o(.ARM.extab)
    .extab._ZNK4QSetIjE6toListEv             0x00025a78   Data           0  cntsymbiandatabase.o(.ARM.extab)
    .extab._ZN4QSetIjEmiERKS0_               0x00025a88   Data           0  cntsymbiandatabase.o(.ARM.extab)
    .extab._ZN4QSetIjE8subtractERKS0_        0x00025a98   Data           0  cntsymbiandatabase.o(.ARM.extab)
    .extab._ZN9CntCenrepC1ER13MDisplayLabel  0x00025ab8   Data           0  cntdisplaylabel.o(.ARM.extab)
    .extab._ZN9CntCenrepD1Ev                 0x00025b30   Data           0  cntdisplaylabel.o(.ARM.extab)
    .extab._ZN15CntDisplayLabel22setDisplayLabelDetailsEv 0x00025b40   Data           0  cntdisplaylabel.o(.ARM.extab)
    .extab._ZN15CntDisplayLabelC1Ev          0x00025b60   Data           0  cntdisplaylabel.o(.ARM.extab)
    .extab._ZN15CntDisplayLabelD1Ev          0x00025b88   Data           0  cntdisplaylabel.o(.ARM.extab)
    .extab._ZNK15CntDisplayLabel20generateDisplayLabelERKN10QtMobility8QContactE5QListIS4_I5QPairI13QLatin1StringS6_EEE 0x00025ba8   Data           0  cntdisplaylabel.o(.ARM.extab)
    .extab._ZN15CntDisplayLabel23synthesizedDisplayLabelERKN10QtMobility8QContactEPNS0_15QContactManager5ErrorE 0x00025c58   Data           0  cntdisplaylabel.o(.ARM.extab)
    .extab._ZN5QListI5QPairI13QLatin1StringS1_EE9node_copyEPNS3_4NodeES5_S5_ 0x00025cc8   Data           0  cntdisplaylabel.o(.ARM.extab)
    .extab._ZN5QListI5QPairI13QLatin1StringS1_EE13detach_helperEi 0x00025cec   Data           0  cntdisplaylabel.o(.ARM.extab)
    .extab._ZN5QListIS_I5QPairI13QLatin1StringS1_EEE14node_constructEPNS4_4NodeERKS3_ 0x00025d08   Data           0  cntdisplaylabel.o(.ARM.extab)
    .extab._ZN5QListIS_I5QPairI13QLatin1StringS1_EEE9node_copyEPNS4_4NodeES6_S6_ 0x00025d18   Data           0  cntdisplaylabel.o(.ARM.extab)
    .extab._ZN5QListIS_I5QPairI13QLatin1StringS1_EEE18detach_helper_growEii 0x00025d3c   Data           0  cntdisplaylabel.o(.ARM.extab)
    .extab._ZN5QListIS_I5QPairI13QLatin1StringS1_EEE6appendERKS3_ 0x00025d6c   Data           0  cntdisplaylabel.o(.ARM.extab)
    .extab._ZN5QListI5QPairI13QLatin1StringS1_EE18detach_helper_growEii 0x00025d9c   Data           0  cntdisplaylabel.o(.ARM.extab)
    .extab._ZN5QListI5QPairI13QLatin1StringS1_EE6appendERKS2_ 0x00025dcc   Data           0  cntdisplaylabel.o(.ARM.extab)
    .extab._ZN5QListIS_I5QPairI13QLatin1StringS1_EEE13detach_helperEi 0x00025dfc   Data           0  cntdisplaylabel.o(.ARM.extab)
    .extab._ZN5QListIS_I5QPairI13QLatin1StringS1_EEE5clearEv 0x00025e18   Data           0  cntdisplaylabel.o(.ARM.extab)
    .extab._ZN5CBasenwEj                     0x00025e28   Data           0  cntdisplaylabel.o(.ARM.extab)
    .extab._ZN15CntRelationshipC1EP16CContactDatabaseRK7QString 0x00025e38   Data           0  cntrelationship.o(.ARM.extab)
    .extab._ZN15CntRelationshipD1Ev          0x00025e70   Data           0  cntrelationship.o(.ARM.extab)
    .extab._ZNK15CntRelationship13relationshipsERK7QStringRKN10QtMobility10QContactIdENS3_20QContactRelationship4RoleEPNS3_15QContactManager5ErrorE 0x00025e88   Data           0  cntrelationship.o(.ARM.extab)
    .extab._ZN15CntRelationship20validateRelationshipERKN10QtMobility20QContactRelationshipEPNS0_15QContactManager5ErrorE 0x00025f48   Data           0  cntrelationship.o(.ARM.extab)
    .extab._ZN15CntRelationship16saveRelationshipEP4QSetIjEPN10QtMobility20QContactRelationshipEPNS3_15QContactManager5ErrorE 0x00026070   Data           0  cntrelationship.o(.ARM.extab)
    .extab._ZN15CntRelationship18removeRelationshipEP4QSetIjERKN10QtMobility20QContactRelationshipEPNS3_15QContactManager5ErrorE 0x000260c8   Data           0  cntrelationship.o(.ARM.extab)
    .extab._ZN4QMapI7QStringP23CntAbstractRelationshipE11node_createEP8QMapDataPPNS4_4NodeERKS0_RKS2_ 0x00026100   Data           0  cntrelationship.o(.ARM.extab)
    .extab._ZN4QMapI7QStringP23CntAbstractRelationshipE13detach_helperEv 0x00026124   Data           0  cntrelationship.o(.ARM.extab)
    .extab._ZN5QListIN10QtMobility20QContactRelationshipEE13detach_helperEi 0x00026140   Data           0  cntrelationship.o(.ARM.extab)
    .extab._ZN5QListIN10QtMobility20QContactRelationshipEEpLERKS2_ 0x0002615c   Data           0  cntrelationship.o(.ARM.extab)
    .extab._ZNK4QMapI7QStringP23CntAbstractRelationshipE4keysEv 0x00026178   Data           0  cntrelationship.o(.ARM.extab)
    .extab._ZN21CntFilterRelationship17createSelectQueryERKN10QtMobility14QContactFilterER7QStringPNS0_15QContactManager5ErrorE 0x00026188   Data           0  cntfilterrelationship.o(.ARM.extab)
    .extab._ZN21CntFilterRelationship8contactsERKN10QtMobility14QContactFilterERK5QListINS0_17QContactSortOrderEERbPNS0_15QContactManager5ErrorE 0x00026230   Data           0  cntfilterrelationship.o(.ARM.extab)
    .extab._ZN21CntFilterRelationship15filterSupportedERKN10QtMobility14QContactFilterE 0x00026280   Data           0  cntfilterrelationship.o(.ARM.extab)
    .extab._ZNK15CntFilterDetail18updateForMatchFlagERKN10QtMobility20QContactDetailFilterER7QStringPNS0_15QContactManager5ErrorE 0x000262a0   Data           0  cntfilterdetail.o(.ARM.extab)
    .extab._ZNK15CntFilterDetail23getTableNameWhereClauseERKN10QtMobility20QContactDetailFilterER7QStringS5_PNS0_15QContactManager5ErrorE 0x000263d0   Data           0  cntfilterdetail.o(.ARM.extab)
    .extab._ZN15CntFilterDetail17createSelectQueryERKN10QtMobility14QContactFilterER7QStringPNS0_15QContactManager5ErrorE 0x00026478   Data           0  cntfilterdetail.o(.ARM.extab)
    .extab._ZN15CntFilterDetail28HandlePredictiveSearchFilterERKN10QtMobility14QContactFilterEPNS0_15QContactManager5ErrorE 0x00026668   Data           0  cntfilterdetail.o(.ARM.extab)
    .extab._ZN15CntFilterDetail27createMatchPhoneNumberQueryERKN10QtMobility14QContactFilterER7QStringPNS0_15QContactManager5ErrorE 0x00026698   Data           0  cntfilterdetail.o(.ARM.extab)
    .extab._ZN15CntFilterDetail25bestMatchPhoneNumberQueryERKN10QtMobility14QContactFilterER7QStringPNS0_15QContactManager5ErrorE 0x00026908   Data           0  cntfilterdetail.o(.ARM.extab)
    .extab._ZN15CntFilterDetail19bestMatchingEnabledEv 0x00026a90   Data           0  cntfilterdetail.o(.ARM.extab)
    .extab._ZN15CntFilterDetail20fetchAllPhoneNumbersER7QString 0x00026ac0   Data           0  cntfilterdetail.o(.ARM.extab)
    .extab._ZN15CntFilterDetail22createPhoneNumberQueryERKN10QtMobility14QContactFilterER7QStringPNS0_15QContactManager5ErrorE 0x00026af8   Data           0  cntfilterdetail.o(.ARM.extab)
    .extab._ZN15CntFilterDetail8contactsERKN10QtMobility14QContactFilterERK5QListINS0_17QContactSortOrderEERbPNS0_15QContactManager5ErrorE 0x00026b50   Data           0  cntfilterdetail.o(.ARM.extab)
    .extab._ZN15CntFilterDetail15filterSupportedERKN10QtMobility14QContactFilterE 0x00026bd0   Data           0  cntfilterdetail.o(.ARM.extab)
    .extab._ZplRK7QStringS1_                 0x00026c98   Data           0  cntfilterdetail.o(.ARM.extab)
    .extab._ZplRK7QStringPKc                 0x00026ca8   Data           0  cntfilterdetail.o(.ARM.extab)
    .extab._ZplPKcRK7QString                 0x00026cc8   Data           0  cntfilterdetail.o(.ARM.extab)
    .extab._ZplRK7QStringc                   0x00026cd8   Data           0  cntfilterdetail.o(.ARM.extab)
    .extab._ZN7QStringaSEPKc                 0x00026ce8   Data           0  cntfilterdetail.o(.ARM.extab)
    .extab._ZN7QStringpLEPKc                 0x00026cf8   Data           0  cntfilterdetail.o(.ARM.extab)
    .extab._ZN9CntDbInfoC1EPN10QtMobility21QContactManagerEngineE 0x00026d08   Data           0  cntdbinfo.o(.ARM.extab)
    .extab._ZN9CntDbInfoD1Ev                 0x00026f40   Data           0  cntdbinfo.o(.ARM.extab)
    .extab._ZNK9CntDbInfo23getDbTableAndColumnNameE7QStringS0_RS0_S1_Rb 0x00026f80   Data           0  cntdbinfo.o(.ARM.extab)
    .extab._ZN9CntDbInfo14SupportsDetailE7QStringS0_ 0x00026fe8   Data           0  cntdbinfo.o(.ARM.extab)
    .extab._ZN9CntDbInfo12getSortQueryERK5QListIN10QtMobility17QContactSortOrderEERK7QStringPNS1_15QContactManager5ErrorE 0x00027010   Data           0  cntdbinfo.o(.ARM.extab)
    .extab._ZN5QListIN10QtMobility17QContactSortOrderEE13detach_helperEi 0x00027268   Data           0  cntdbinfo.o(.ARM.extab)
    .extab._ZN7QString5clearEv               0x000272ac   Data           0  cntdbinfo.o(.ARM.extab)
    .extab._ZN5QHashI7QString5QPairIibEE6insertERKS0_RKS2_ 0x000272bc   Data           0  cntdbinfo.o(.ARM.extab)
    .extab._ZN9QHashNodeI7QStringS0_EC1ERKS0_S3_ 0x000272d4   Data           0  cntdbinfo.o(.ARM.extab)
    .extab._ZN5QHashI7QStringS0_E6insertERKS0_S3_ 0x000272e4   Data           0  cntdbinfo.o(.ARM.extab)
    .extab._ZN5QHashI7QStringS0_E11deleteNode2EPN9QHashData4NodeE 0x000272fc   Data           0  cntdbinfo.o(.ARM.extab)
    .extab._ZN5QHashI7QStringiE13duplicateNodeEPN9QHashData4NodeEPv 0x0002730c   Data           0  cntdbinfo.o(.ARM.extab)
    .extab._ZN5QHashI7QStringiE6insertERKS0_RKi 0x0002731c   Data           0  cntdbinfo.o(.ARM.extab)
    .extab._ZN5QHashI7QString5QPairIibEE13duplicateNodeEPN9QHashData4NodeEPv 0x00027334   Data           0  cntdbinfo.o(.ARM.extab)
    .extab._ZN5QHashI7QStringS0_E13duplicateNodeEPN9QHashData4NodeEPv 0x00027344   Data           0  cntdbinfo.o(.ARM.extab)
    .extab._ZN16CntFilterDefault17createSelectQueryERKN10QtMobility14QContactFilterER7QStringPNS0_15QContactManager5ErrorE 0x00027354   Data           0  cntfilterdefault.o(.ARM.extab)
    .extab._ZN16CntFilterDefault8contactsERKN10QtMobility14QContactFilterERK5QListINS0_17QContactSortOrderEERbPNS0_15QContactManager5ErrorE 0x00027364   Data           0  cntfilterdefault.o(.ARM.extab)
    .extab._ZN21CntFilterIntersection23getSelectQueryforFilterERKN10QtMobility14QContactFilterER7QStringPNS0_15QContactManager5ErrorE 0x000273a4   Data           0  cntfilterintersection.o(.ARM.extab)
    .extab._ZN21CntFilterIntersection17createSelectQueryERKN10QtMobility14QContactFilterER7QStringPNS0_15QContactManager5ErrorE 0x00027404   Data           0  cntfilterintersection.o(.ARM.extab)
    .extab._ZN21CntFilterIntersection8contactsERKN10QtMobility14QContactFilterERK5QListINS0_17QContactSortOrderEERbPNS0_15QContactManager5ErrorE 0x0002742c   Data           0  cntfilterintersection.o(.ARM.extab)
    .extab._ZN5QListIN10QtMobility14QContactFilterEE13detach_helperEi 0x0002746c   Data           0  cntfilterintersection.o(.ARM.extab)
    .extab._ZN14CntFilterUnion23getSelectQueryforFilterERKN10QtMobility14QContactFilterER7QStringPNS0_15QContactManager5ErrorE 0x000274b0   Data           0  cntfilterunion.o(.ARM.extab)
    .extab._ZN14CntFilterUnion17createSelectQueryERKN10QtMobility14QContactFilterER7QStringPNS0_15QContactManager5ErrorE 0x00027510   Data           0  cntfilterunion.o(.ARM.extab)
    .extab._ZN14CntFilterUnion8contactsERKN10QtMobility14QContactFilterERK5QListINS0_17QContactSortOrderEERbPNS0_15QContactManager5ErrorE 0x00027538   Data           0  cntfilterunion.o(.ARM.extab)
    .extab._ZN16CntSymbianFilterC1ER16CContactDatabase 0x00027578   Data           0  cntsymbianfilterdbms.o(.ARM.extab)
    .extab._ZN16CntSymbianFilterD1Ev         0x000275a0   Data           0  cntsymbianfilterdbms.o(.ARM.extab)
    .extab._ZNK16CntSymbianFilter12findContactsERP15CContactIdArrayRK20CContactItemFieldDefRK7TDesC16 0x000275b0   Data           0  cntsymbianfilterdbms.o(.ARM.extab)
    .extab._ZN16CntSymbianFilter22transformDetailFilterLERKN10QtMobility20QContactDetailFilterERP20CContactItemFieldDef 0x000275e0   Data           0  cntsymbianfilterdbms.o(.ARM.extab)
    .extab._ZN16CntSymbianFilter13contactExistsERKl 0x00027630   Data           0  cntsymbianfilterdbms.o(.ARM.extab)
    .extab._ZN16CntSymbianFilter13matchContactsERP15CContactIdArrayRK7TDesC16i 0x00027660   Data           0  cntsymbianfilterdbms.o(.ARM.extab)
    .extab._ZN16CntSymbianFilter18filterSupportLevelERKN10QtMobility14QContactFilterE 0x00027690   Data           0  cntsymbianfilterdbms.o(.ARM.extab)
    .extab._ZN16CntSymbianFilter14filterContactsERKN10QtMobility14QContactFilterEPNS0_15QContactManager5ErrorE 0x00027740   Data           0  cntsymbianfilterdbms.o(.ARM.extab)
    .extab._ZN16CntSymbianFilter8contactsERKN10QtMobility14QContactFilterERK5QListINS0_17QContactSortOrderEERbPNS0_15QContactManager5ErrorE 0x00027840   Data           0  cntsymbianfilterdbms.o(.ARM.extab)
    .extab._ZNK5QListIjE5toSetEv             0x00027a48   Data           0  cntsymbianfilterdbms.o(.ARM.extab)
    .extab._ZN4QSetIjE9intersectERKS0_       0x00027a58   Data           0  cntsymbianfilterdbms.o(.ARM.extab)
    .extab._ZNK20CntSymbianSorterDbms5sortLEPK15CContactIdArrayRK5QListIN10QtMobility17QContactSortOrderEE 0x00027a78   Data           0  cntsymbiansorterdbms.o(.ARM.extab)
    .extab._ZNK20CntSymbianSorterDbms9contactsLERK5QListIN10QtMobility17QContactSortOrderEE 0x00027ad0   Data           0  cntsymbiansorterdbms.o(.ARM.extab)
    .extab._ZN20CntSymbianSorterDbms8contactsERK5QListIN10QtMobility17QContactSortOrderEEPNS1_15QContactManager5ErrorE 0x00027ae0   Data           0  cntsymbiansorterdbms.o(.ARM.extab)
    .extab._ZNK20CntSymbianSorterDbms5sortLERK5QListIjERKS0_IN10QtMobility17QContactSortOrderEE 0x00027b3c   Data           0  cntsymbiansorterdbms.o(.ARM.extab)
    .extab._ZN20CntSymbianSorterDbms4sortE5QListIjERKS0_IN10QtMobility17QContactSortOrderEEPNS2_15QContactManager5ErrorE 0x00027b5c   Data           0  cntsymbiansorterdbms.o(.ARM.extab)
    .extab._ZN20CntSymbianSorterDbms18sortOrderSupportedERK5QListIN10QtMobility17QContactSortOrderEE 0x00027bb8   Data           0  cntsymbiansorterdbms.o(.ARM.extab)
    .extab._Z20qForeachContainerNewI5QListIN10QtMobility17QContactSortOrderEEE17QForeachContainerIT_ERKS5_ 0x00027c20   Data           0  cntsymbiansorterdbms.o(.ARM.extab)
    .extab._ZN23CntSymbianSrvConnection17searchContactIdsLERK7TDesC16NS_9QueryTypeE 0x00027c30   Data           0  cntsymbiansrvconnection.o(.ARM.extab)
    .extab._ZN23CntSymbianSrvConnection14searchContactsERK7QStringPN10QtMobility15QContactManager5ErrorE 0x00027c40   Data           0  cntsymbiansrvconnection.o(.ARM.extab)
    .extab._ZN23CntSymbianSrvConnection19searchContactNamesLERK7TDesC16 0x00027c90   Data           0  cntsymbiansrvconnection.o(.ARM.extab)
    .extab._ZN23CntSymbianSrvConnection17searchContactNameEjPN10QtMobility15QContactManager5ErrorE 0x00027d7c   Data           0  cntsymbiansrvconnection.o(.ARM.extab)
    .extab._ZN23CntSymbianSrvConnection14searchOnServerERK7QStringNS_9QueryTypeEPN10QtMobility15QContactManager5ErrorE 0x00027dd4   Data           0  cntsymbiansrvconnection.o(.ARM.extab)
    .extab._ZN23CntSymbianSrvConnection21searchAllContactNamesEPN10QtMobility15QContactManager5ErrorE 0x00027e24   Data           0  cntsymbiansrvconnection.o(.ARM.extab)
    .extab._ZN23CntSymbianSrvConnection19searchPhoneNumbersLERK7TDesC16NS_9QueryTypeE 0x00027e6c   Data           0  cntsymbiansrvconnection.o(.ARM.extab)
    .extab._ZN23CntSymbianSrvConnection18searchPhoneNumbersERK7QStringPN10QtMobility15QContactManager5ErrorE 0x00027e9c   Data           0  cntsymbiansrvconnection.o(.ARM.extab)
    .extab._ZN5QListI5QPairIj7QStringEE14node_constructEPNS3_4NodeERKS2_ 0x00027eec   Data           0  cntsymbiansrvconnection.o(.ARM.extab)
    .extab._ZN5QListI5QPairIj7QStringEE9node_copyEPNS3_4NodeES5_S5_ 0x00027efc   Data           0  cntsymbiansrvconnection.o(.ARM.extab)
    .extab._ZN5QListI5QPairIj7QStringEE18detach_helper_growEii 0x00027f20   Data           0  cntsymbiansrvconnection.o(.ARM.extab)
    .extab._ZN5QListI5QPairIj7QStringEE6appendERKS2_ 0x00027f50   Data           0  cntsymbiansrvconnection.o(.ARM.extab)
    .extab._ZN5QListI5QPairIj7QStringEE13detach_helperEi 0x00027f80   Data           0  cntsymbiansrvconnection.o(.ARM.extab)
    .extab._ZN19CntTransformContact33initializeCntTransformContactDataEv 0x00027f9c   Data           0  cnttransformcontact.o(.ARM.extab)
    .extab._ZN19CntTransformContactC1Ev      0x0002802c   Data           0  cnttransformcontact.o(.ARM.extab)
    .extab._ZN19CntTransformContactD1Ev      0x0002804c   Data           0  cnttransformcontact.o(.ARM.extab)
    .extab._ZNK19CntTransformContact24transformPreferredDetailERK17CContactItemFieldRKN10QtMobility14QContactDetailERNS3_8QContactE 0x00028074   Data           0  cnttransformcontact.o(.ARM.extab)
    .extab._ZN19CntTransformContact17transformContactLER12CContactItem 0x000280ac   Data           0  cnttransformcontact.o(.ARM.extab)
    .extab._ZN19CntTransformContact28transformTimestampItemFieldLERK12CContactItemRK16CContactDatabase 0x000280dc   Data           0  cnttransformcontact.o(.ARM.extab)
    .extab._ZNK19CntTransformContact23transformGuidItemFieldLERK12CContactItemRK16CContactDatabase 0x00028144   Data           0  cnttransformcontact.o(.ARM.extab)
    .extab._ZN19CntTransformContact25transformPostSaveDetailsLERK12CContactItemRN10QtMobility8QContactERK16CContactDatabase7QString 0x0002816c   Data           0  cnttransformcontact.o(.ARM.extab)
    .extab._ZNK19CntTransformContact25transformPreferredDetailLERKN10QtMobility8QContactERKNS0_14QContactDetailER5QListIP17CContactItemFieldE 0x000281bc   Data           0  cnttransformcontact.o(.ARM.extab)
    .extab._ZNK19CntTransformContact16transformDetailLERKN10QtMobility14QContactDetailE 0x000281f4   Data           0  cnttransformcontact.o(.ARM.extab)
    .extab._ZNK19CntTransformContact17transformContactLERN10QtMobility8QContactER12CContactItem 0x00028244   Data           0  cnttransformcontact.o(.ARM.extab)
    .extab._ZN19CntTransformContact26supportedSortingFieldTypesE7QStringS0_ 0x000282a4   Data           0  cnttransformcontact.o(.ARM.extab)
    .extab._ZNK19CntTransformContact14itemFieldUidsLE7QString 0x000282e4   Data           0  cnttransformcontact.o(.ARM.extab)
    .extab._ZNK19CntTransformContact15GetIdForDetailLERKN10QtMobility20QContactDetailFilterERb 0x00028314   Data           0  cnttransformcontact.o(.ARM.extab)
    .extab.__sti___23_cnttransformcontact_cpp 0x00028364   Data           0  cnttransformcontact.o(.ARM.extab)
    .extab._ZN4QMapIN19CntTransformContact11ContactDataEP23CntTransformContactDataE13detach_helperEv 0x000283a4   Data           0  cnttransformcontact.o(.ARM.extab)
    .extab._ZN5QHashImP23CntTransformContactDataE10createNodeEjRKmRKS1_PP9QHashNodeImS1_E 0x000283c0   Data           0  cnttransformcontact.o(.ARM.extab)
    .extab._ZN5QListIP17CContactItemFieldE13detach_helperEi 0x000283d0   Data           0  cnttransformcontact.o(.ARM.extab)
    .extab._ZN5QListI4TUidE9node_copyEPNS1_4NodeES3_S3_ 0x000283ec   Data           0  cnttransformcontact.o(.ARM.extab)
    .extab._ZN5QListI4TUidE13detach_helperEi 0x00028408   Data           0  cnttransformcontact.o(.ARM.extab)
    .extab._ZN5QListI4TUidE18detach_helper_growEii 0x00028424   Data           0  cnttransformcontact.o(.ARM.extab)
    .extab._ZN5QListI4TUidEpLERKS1_          0x00028454   Data           0  cnttransformcontact.o(.ARM.extab)
    .extab._ZN23CntTransformContactData12setContextsLERKN10QtMobility14QContactDetailER17CContactItemField 0x00028470   Data           0  cnttransformcontactdata.o(.ARM.extab)
    .extab._ZN23CntTransformContactData11setContextsERK4TUidRN10QtMobility14QContactDetailE 0x00028480   Data           0  cnttransformcontactdata.o(.ARM.extab)
    .extab._ZN5QListIP17CContactItemFieldE18detach_helper_growEii 0x00028498   Data           0  cnttransformcontactdata.o(.ARM.extab)
    .extab._ZN5QListIP17CContactItemFieldE6appendERKS1_ 0x000284c8   Data           0  cnttransformcontactdata.o(.ARM.extab)
    .extab._ZN10QtMobility14QContactDetail11setContextsERK7QString 0x000284e4   Data           0  cnttransformcontactdata.o(.ARM.extab)
    .extab._ZN16CntTransformName16transformDetailLERKN10QtMobility14QContactDetailE 0x0002850c   Data           0  cnttransformname.o(.ARM.extab)
    .extab._ZN16CntTransformName18transformItemFieldERK17CContactItemFieldRKN10QtMobility8QContactE 0x00028584   Data           0  cnttransformname.o(.ARM.extab)
    .extab._ZNK16CntTransformName15supportedFieldsEv 0x000285e4   Data           0  cnttransformname.o(.ARM.extab)
    .extab._ZNK16CntTransformName26supportedSortingFieldTypesE7QString 0x000285f4   Data           0  cnttransformname.o(.ARM.extab)
    .extab._ZNK16CntTransformName17detailDefinitionsER4QMapI7QStringN10QtMobility24QContactDetailDefinitionEERKS1_ 0x00028634   Data           0  cnttransformname.o(.ARM.extab)
    .extab._ZN5QListI4TUidE6appendERKS0_     0x000286e4   Data           0  cnttransformname.o(.ARM.extab)
    .extab._ZN4QMapI7QStringN10QtMobility29QContactDetailFieldDefinitionEE13detach_helperEv 0x00028714   Data           0  cnttransformname.o(.ARM.extab)
    .extab._ZN4QMapI7QStringN10QtMobility29QContactDetailFieldDefinitionEE11node_createEP8QMapDataPPNS4_4NodeERKS0_RKS2_ 0x00028730   Data           0  cnttransformname.o(.ARM.extab)
    .extab._ZN20CntTransformNickname16transformDetailLERKN10QtMobility14QContactDetailE 0x0002877c   Data           0  cnttransformnickname.o(.ARM.extab)
    .extab._ZN20CntTransformNickname18transformItemFieldERK17CContactItemFieldRKN10QtMobility8QContactE 0x000287a4   Data           0  cnttransformnickname.o(.ARM.extab)
    .extab._ZNK20CntTransformNickname15supportedFieldsEv 0x000287dc   Data           0  cnttransformnickname.o(.ARM.extab)
    .extab._ZNK20CntTransformNickname26supportedSortingFieldTypesE7QString 0x000287ec   Data           0  cnttransformnickname.o(.ARM.extab)
    .extab._ZNK20CntTransformNickname17detailDefinitionsER4QMapI7QStringN10QtMobility24QContactDetailDefinitionEERKS1_ 0x000287fc   Data           0  cnttransformnickname.o(.ARM.extab)
    .extab._ZN23CntTransformPhoneNumber16transformDetailLERKN10QtMobility14QContactDetailE 0x0002884c   Data           0  cnttransformphonenumber.o(.ARM.extab)
    .extab._ZN23CntTransformPhoneNumber18transformItemFieldERK17CContactItemFieldRKN10QtMobility8QContactE 0x00028914   Data           0  cnttransformphonenumber.o(.ARM.extab)
    .extab._ZNK23CntTransformPhoneNumber15supportedFieldsEv 0x000289c4   Data           0  cnttransformphonenumber.o(.ARM.extab)
    .extab._ZNK23CntTransformPhoneNumber26supportedSortingFieldTypesE7QString 0x000289d4   Data           0  cnttransformphonenumber.o(.ARM.extab)
    .extab._ZNK23CntTransformPhoneNumber17detailDefinitionsER4QMapI7QStringN10QtMobility24QContactDetailDefinitionEERKS1_ 0x000289e4   Data           0  cnttransformphonenumber.o(.ARM.extab)
    .extab._ZN5QListI8QVariantE9node_copyEPNS1_4NodeES3_S3_ 0x00028a8c   Data           0  cnttransformphonenumber.o(.ARM.extab)
    .extab._ZN5QListI8QVariantE13detach_helperEi 0x00028ab0   Data           0  cnttransformphonenumber.o(.ARM.extab)
    .extab._ZN5QListI8QVariantE14node_constructEPNS1_4NodeERKS0_ 0x00028acc   Data           0  cnttransformphonenumber.o(.ARM.extab)
    .extab._ZN5QListI8QVariantE18detach_helper_growEii 0x00028adc   Data           0  cnttransformphonenumber.o(.ARM.extab)
    .extab._ZN5QListI8QVariantE6appendERKS0_ 0x00028b0c   Data           0  cnttransformphonenumber.o(.ARM.extab)
    .extab._ZN10QtMobility19QContactPhoneNumber11setSubTypesERK7QString 0x00028b3c   Data           0  cnttransformphonenumber.o(.ARM.extab)
    .extab._ZNK23CntTransformContactData13supportsFieldEm 0x00028b64   Data           0  cnttransformphonenumber.o(.ARM.extab)
    .extab._ZN17CntTransformEmail16transformDetailLERKN10QtMobility14QContactDetailE 0x00028b74   Data           0  cnttransformemail.o(.ARM.extab)
    .extab._ZN17CntTransformEmail18transformItemFieldERK17CContactItemFieldRKN10QtMobility8QContactE 0x00028b9c   Data           0  cnttransformemail.o(.ARM.extab)
    .extab._ZNK17CntTransformEmail15supportedFieldsEv 0x00028bbc   Data           0  cnttransformemail.o(.ARM.extab)
    .extab._ZNK17CntTransformEmail26supportedSortingFieldTypesE7QString 0x00028bcc   Data           0  cnttransformemail.o(.ARM.extab)
    .extab._ZNK17CntTransformEmail17detailDefinitionsER4QMapI7QStringN10QtMobility24QContactDetailDefinitionEERKS1_ 0x00028bdc   Data           0  cnttransformemail.o(.ARM.extab)
    .extab._ZN19CntTransformAddress16transformDetailLERKN10QtMobility14QContactDetailE 0x00028c84   Data           0  cnttransformaddress.o(.ARM.extab)
    .extab._ZN19CntTransformAddress18transformItemFieldERK17CContactItemFieldRKN10QtMobility8QContactE 0x00028cfc   Data           0  cnttransformaddress.o(.ARM.extab)
    .extab._ZNK19CntTransformAddress15supportedFieldsEv 0x00028df4   Data           0  cnttransformaddress.o(.ARM.extab)
    .extab._ZNK19CntTransformAddress26supportedSortingFieldTypesE7QString 0x00028e04   Data           0  cnttransformaddress.o(.ARM.extab)
    .extab._ZNK19CntTransformAddress17detailDefinitionsER4QMapI7QStringN10QtMobility24QContactDetailDefinitionEERKS1_ 0x00028e44   Data           0  cnttransformaddress.o(.ARM.extab)
    .extab._ZN5QListIN10QtMobility15QContactAddressEE9node_copyEPNS2_4NodeES4_S4_ 0x00028efc   Data           0  cnttransformaddress.o(.ARM.extab)
    .extab._ZN5QListIN10QtMobility15QContactAddressEE13detach_helperEi 0x00028f20   Data           0  cnttransformaddress.o(.ARM.extab)
    .extab._ZNK4QMapI7QString8QVariantE4keysEv 0x00028f3c   Data           0  cnttransformaddress.o(.ARM.extab)
    .extab._ZN5QListIN10QtMobility15QContactAddressEE14node_constructEPNS2_4NodeERKS1_ 0x00028f4c   Data           0  cnttransformaddress.o(.ARM.extab)
    .extab._ZN5QListIN10QtMobility15QContactAddressEE18detach_helper_growEii 0x00028f5c   Data           0  cnttransformaddress.o(.ARM.extab)
    .extab._ZN5QListIN10QtMobility15QContactAddressEE6appendERKS1_ 0x00028f8c   Data           0  cnttransformaddress.o(.ARM.extab)
    .extab._ZNK10QtMobility8QContact7detailsINS_15QContactAddressEEE5QListIT_Ev 0x00028fbc   Data           0  cnttransformaddress.o(.ARM.extab)
    .extab._ZN15CntTransformUrl16transformDetailLERKN10QtMobility14QContactDetailE 0x00028fe4   Data           0  cnttransformurl.o(.ARM.extab)
    .extab._ZN15CntTransformUrl18transformItemFieldERK17CContactItemFieldRKN10QtMobility8QContactE 0x0002902c   Data           0  cnttransformurl.o(.ARM.extab)
    .extab._ZNK15CntTransformUrl15supportedFieldsEv 0x00029064   Data           0  cnttransformurl.o(.ARM.extab)
    .extab._ZNK15CntTransformUrl26supportedSortingFieldTypesE7QString 0x00029074   Data           0  cnttransformurl.o(.ARM.extab)
    .extab._ZNK15CntTransformUrl17detailDefinitionsER4QMapI7QStringN10QtMobility24QContactDetailDefinitionEERKS1_ 0x00029084   Data           0  cnttransformurl.o(.ARM.extab)
    .extab._ZN20CntTransformBirthday16transformDetailLERKN10QtMobility14QContactDetailE 0x0002917c   Data           0  cnttransformbirthday.o(.ARM.extab)
    .extab._ZN20CntTransformBirthday18transformItemFieldERK17CContactItemFieldRKN10QtMobility8QContactE 0x000291a4   Data           0  cnttransformbirthday.o(.ARM.extab)
    .extab._ZNK20CntTransformBirthday15supportedFieldsEv 0x000291bc   Data           0  cnttransformbirthday.o(.ARM.extab)
    .extab._ZNK20CntTransformBirthday26supportedSortingFieldTypesE7QString 0x000291cc   Data           0  cnttransformbirthday.o(.ARM.extab)
    .extab._ZNK20CntTransformBirthday17detailDefinitionsER4QMapI7QStringN10QtMobility24QContactDetailDefinitionEERKS1_ 0x000291dc   Data           0  cnttransformbirthday.o(.ARM.extab)
    .extab._ZNK10QtMobility16QContactBirthday4dateEv 0x0002922c   Data           0  cnttransformbirthday.o(.ARM.extab)
    .extab._ZN25CntTransformOnlineAccount16transformDetailLERKN10QtMobility14QContactDetailE 0x0002923c   Data           0  cnttransformonlineaccountsimple.o(.ARM.extab)
    .extab._ZN25CntTransformOnlineAccount18transformItemFieldERK17CContactItemFieldRKN10QtMobility8QContactE 0x000292c4   Data           0  cnttransformonlineaccountsimple.o(.ARM.extab)
    .extab._ZNK25CntTransformOnlineAccount15supportedFieldsEv 0x0002930c   Data           0  cnttransformonlineaccountsimple.o(.ARM.extab)
    .extab._ZNK25CntTransformOnlineAccount26supportedSortingFieldTypesE7QString 0x0002931c   Data           0  cnttransformonlineaccountsimple.o(.ARM.extab)
    .extab._ZNK25CntTransformOnlineAccount17detailDefinitionsER4QMapI7QStringN10QtMobility24QContactDetailDefinitionEERKS1_ 0x0002932c   Data           0  cnttransformonlineaccountsimple.o(.ARM.extab)
    .extab._ZN10QtMobility21QContactOnlineAccount11setSubTypesERK7QString 0x00029464   Data           0  cnttransformonlineaccountsimple.o(.ARM.extab)
    .extab._ZN10QtMobility21QContactOnlineAccount13setAccountUriERK7QString 0x0002948c   Data           0  cnttransformonlineaccountsimple.o(.ARM.extab)
    .extab._ZN24CntTransformOrganisation16transformDetailLERKN10QtMobility14QContactDetailE 0x0002949c   Data           0  cnttransformorganisation.o(.ARM.extab)
    .extab._ZN24CntTransformOrganisation18transformItemFieldERK17CContactItemFieldRKN10QtMobility8QContactE 0x000294f4   Data           0  cnttransformorganisation.o(.ARM.extab)
    .extab._ZNK24CntTransformOrganisation15supportedFieldsEv 0x0002955c   Data           0  cnttransformorganisation.o(.ARM.extab)
    .extab._ZNK24CntTransformOrganisation26supportedSortingFieldTypesE7QString 0x0002956c   Data           0  cnttransformorganisation.o(.ARM.extab)
    .extab._ZNK24CntTransformOrganisation17detailDefinitionsER4QMapI7QStringN10QtMobility24QContactDetailDefinitionEERKS1_ 0x0002959c   Data           0  cnttransformorganisation.o(.ARM.extab)
    .extab._ZN20CntTransformRingtone16transformDetailLERKN10QtMobility14QContactDetailE 0x00029644   Data           0  cnttransformringtone.o(.ARM.extab)
    .extab._ZN20CntTransformRingtone18transformItemFieldERK17CContactItemFieldRKN10QtMobility8QContactE 0x0002975c   Data           0  cnttransformringtone.o(.ARM.extab)
    .extab._ZNK20CntTransformRingtone15supportedFieldsEv 0x000297ac   Data           0  cnttransformringtone.o(.ARM.extab)
    .extab._ZNK20CntTransformRingtone17detailDefinitionsER4QMapI7QStringN10QtMobility24QContactDetailDefinitionEERKS1_ 0x000297bc   Data           0  cnttransformringtone.o(.ARM.extab)
    .extab._ZNK10QtMobility16QContactRingtone16videoRingtoneUrlEv 0x0002981c   Data           0  cnttransformringtone.o(.ARM.extab)
    .extab._ZNK10QtMobility16QContactRingtone16audioRingtoneUrlEv 0x0002982c   Data           0  cnttransformringtone.o(.ARM.extab)
    .extab._ZN21CntTransformThumbnailD1Ev    0x0002983c   Data           0  cnttransformthumbnail.o(.ARM.extab)
    .extab._ZN21CntTransformThumbnail16transformDetailLERKN10QtMobility14QContactDetailE 0x0002984c   Data           0  cnttransformthumbnail.o(.ARM.extab)
    .extab._ZN21CntTransformThumbnail18transformItemFieldERK17CContactItemFieldRKN10QtMobility8QContactE 0x000298a4   Data           0  cnttransformthumbnail.o(.ARM.extab)
    .extab._ZNK21CntTransformThumbnail15supportedFieldsEv 0x000298d4   Data           0  cnttransformthumbnail.o(.ARM.extab)
    .extab._ZNK10QtMobility14QContactDetail5valueI6QImageEET_PKc 0x000298e4   Data           0  cnttransformthumbnail.o(.ARM.extab)
    .extab._ZN18CntTransformAvatar16transformDetailLERKN10QtMobility14QContactDetailE 0x000298fc   Data           0  cnttransformavatar.o(.ARM.extab)
    .extab._ZN18CntTransformAvatar18transformItemFieldERK17CContactItemFieldRKN10QtMobility8QContactE 0x00029994   Data           0  cnttransformavatar.o(.ARM.extab)
    .extab._ZNK18CntTransformAvatar15supportedFieldsEv 0x000299c4   Data           0  cnttransformavatar.o(.ARM.extab)
    .extab._ZNK18CntTransformAvatar17detailDefinitionsER4QMapI7QStringN10QtMobility24QContactDetailDefinitionEERKS1_ 0x000299d4   Data           0  cnttransformavatar.o(.ARM.extab)
    .extab._ZNK10QtMobility14QContactDetail5valueI4QUrlEET_PKc 0x00029a34   Data           0  cnttransformavatar.o(.ARM.extab)
    .extab._ZN19CntThumbnailCreatorC1Ev      0x00029a4c   Data           0  cntthumbnailcreator.o(.ARM.extab)
    .extab._ZN19CntThumbnailCreatorD1Ev      0x00029a5c   Data           0  cntthumbnailcreator.o(.ARM.extab)
    .extab._ZN19CntThumbnailCreator19CreateContactFieldLEv 0x00029a6c   Data           0  cntthumbnailcreator.o(.ARM.extab)
    .extab._ZN22CntTransformSyncTarget16transformDetailLERKN10QtMobility14QContactDetailE 0x00029a88   Data           0  cnttransformsynctarget.o(.ARM.extab)
    .extab._ZN22CntTransformSyncTarget18transformItemFieldERK17CContactItemFieldRKN10QtMobility8QContactE 0x00029ab0   Data           0  cnttransformsynctarget.o(.ARM.extab)
    .extab._ZNK22CntTransformSyncTarget15supportedFieldsEv 0x00029ad0   Data           0  cnttransformsynctarget.o(.ARM.extab)
    .extab._ZNK22CntTransformSyncTarget26supportedSortingFieldTypesE7QString 0x00029ae0   Data           0  cnttransformsynctarget.o(.ARM.extab)
    .extab._ZNK22CntTransformSyncTarget17detailDefinitionsER4QMapI7QStringN10QtMobility24QContactDetailDefinitionEERKS1_ 0x00029af0   Data           0  cnttransformsynctarget.o(.ARM.extab)
    .extab._ZN18CntTransformGender16transformDetailLERKN10QtMobility14QContactDetailE 0x00029bd8   Data           0  cnttransformgender.o(.ARM.extab)
    .extab._ZN18CntTransformGender18transformItemFieldERK17CContactItemFieldRKN10QtMobility8QContactE 0x00029c00   Data           0  cnttransformgender.o(.ARM.extab)
    .extab._ZNK18CntTransformGender15supportedFieldsEv 0x00029c20   Data           0  cnttransformgender.o(.ARM.extab)
    .extab._ZNK18CntTransformGender26supportedSortingFieldTypesE7QString 0x00029c30   Data           0  cnttransformgender.o(.ARM.extab)
    .extab._ZNK18CntTransformGender17detailDefinitionsER4QMapI7QStringN10QtMobility24QContactDetailDefinitionEERKS1_ 0x00029c40   Data           0  cnttransformgender.o(.ARM.extab)
    .extab._ZN23CntTransformAnniversary16transformDetailLERKN10QtMobility14QContactDetailE 0x00029c90   Data           0  cnttransformanniversary.o(.ARM.extab)
    .extab._ZN23CntTransformAnniversary18transformItemFieldERK17CContactItemFieldRKN10QtMobility8QContactE 0x00029cb8   Data           0  cnttransformanniversary.o(.ARM.extab)
    .extab._ZNK23CntTransformAnniversary15supportedFieldsEv 0x00029cf8   Data           0  cnttransformanniversary.o(.ARM.extab)
    .extab._ZNK23CntTransformAnniversary17detailDefinitionsER4QMapI7QStringN10QtMobility24QContactDetailDefinitionEERKS1_ 0x00029d08   Data           0  cnttransformanniversary.o(.ARM.extab)
    .extab._ZNK10QtMobility19QContactAnniversary12originalDateEv 0x00029d78   Data           0  cnttransformanniversary.o(.ARM.extab)
    .extab._ZN29CntTransformAnniversarySimple16transformDetailLERKN10QtMobility14QContactDetailE 0x00029d88   Data           0  cnttransformanniversarysimple.o(.ARM.extab)
    .extab._ZN29CntTransformAnniversarySimple18transformItemFieldERK17CContactItemFieldRKN10QtMobility8QContactE 0x00029da0   Data           0  cnttransformanniversarysimple.o(.ARM.extab)
    .extab._ZNK29CntTransformAnniversarySimple15supportedFieldsEv 0x00029db8   Data           0  cnttransformanniversarysimple.o(.ARM.extab)
    .extab._ZNK29CntTransformAnniversarySimple17detailDefinitionsER4QMapI7QStringN10QtMobility24QContactDetailDefinitionEERKS1_ 0x00029dc8   Data           0  cnttransformanniversarysimple.o(.ARM.extab)
    .extab._ZN23CntTransformGeolocation16transformDetailLERKN10QtMobility14QContactDetailE 0x00029e48   Data           0  cnttransformgeolocation.o(.ARM.extab)
    .extab._ZN23CntTransformGeolocation18transformItemFieldERK17CContactItemFieldRKN10QtMobility8QContactE 0x00029e90   Data           0  cnttransformgeolocation.o(.ARM.extab)
    .extab._ZNK23CntTransformGeolocation15supportedFieldsEv 0x00029ec8   Data           0  cnttransformgeolocation.o(.ARM.extab)
    .extab._ZNK23CntTransformGeolocation17detailDefinitionsER4QMapI7QStringN10QtMobility24QContactDetailDefinitionEERKS1_ 0x00029ed8   Data           0  cnttransformgeolocation.o(.ARM.extab)
    .extab._ZNK10QtMobility19QContactGeoLocation9longitudeEv 0x00029f80   Data           0  cnttransformgeolocation.o(.ARM.extab)
    .extab._ZNK10QtMobility19QContactGeoLocation8latitudeEv 0x00029f90   Data           0  cnttransformgeolocation.o(.ARM.extab)
    .extab._ZN10QtMobility19QContactGeoLocation12setLongitudeEd 0x00029fa0   Data           0  cnttransformgeolocation.o(.ARM.extab)
    .extab._ZN10QtMobility19QContactGeoLocation11setLatitudeEd 0x00029fb0   Data           0  cnttransformgeolocation.o(.ARM.extab)
    .extab._ZN16CntTransformNote16transformDetailLERKN10QtMobility14QContactDetailE 0x00029fc0   Data           0  cnttransformnote.o(.ARM.extab)
    .extab._ZN16CntTransformNote18transformItemFieldERK17CContactItemFieldRKN10QtMobility8QContactE 0x00029fe8   Data           0  cnttransformnote.o(.ARM.extab)
    .extab._ZNK16CntTransformNote15supportedFieldsEv 0x0002a008   Data           0  cnttransformnote.o(.ARM.extab)
    .extab._ZNK16CntTransformNote26supportedSortingFieldTypesE7QString 0x0002a018   Data           0  cnttransformnote.o(.ARM.extab)
    .extab._ZNK16CntTransformNote17detailDefinitionsER4QMapI7QStringN10QtMobility24QContactDetailDefinitionEERKS1_ 0x0002a028   Data           0  cnttransformnote.o(.ARM.extab)
    .extab._ZN18CntTransformFamily16transformDetailLERKN10QtMobility14QContactDetailE 0x0002a078   Data           0  cnttransformfamily.o(.ARM.extab)
    .extab._ZN18CntTransformFamily18transformItemFieldERK17CContactItemFieldRKN10QtMobility8QContactE 0x0002a0c8   Data           0  cnttransformfamily.o(.ARM.extab)
    .extab._ZNK18CntTransformFamily15supportedFieldsEv 0x0002a118   Data           0  cnttransformfamily.o(.ARM.extab)
    .extab._ZNK18CntTransformFamily17detailDefinitionsER4QMapI7QStringN10QtMobility24QContactDetailDefinitionEERKS1_ 0x0002a128   Data           0  cnttransformfamily.o(.ARM.extab)
    .extab._ZNK10QtMobility14QContactDetail5valueI11QStringListEET_PKc 0x0002a1a8   Data           0  cnttransformfamily.o(.ARM.extab)
    .extab._ZN17CntTransformEmpty18transformItemFieldERK17CContactItemFieldRKN10QtMobility8QContactE 0x0002a1c0   Data           0  cnttransformempty.o(.ARM.extab)
    .extab._ZNK17CntTransformEmpty17detailDefinitionsER4QMapI7QStringN10QtMobility24QContactDetailDefinitionEERKS1_ 0x0002a1d0   Data           0  cnttransformempty.o(.ARM.extab)
    .constdata$1                             0x0002a228   Data           0  moc_cntsymbianengine.o(.constdata)
    qt_meta_data_CntSymbianEngine            0x0002a228   Data          80  moc_cntsymbianengine.o(.constdata)
    .constdata                               0x0002a228   Section      244  moc_cntsymbianengine.o(.constdata)
    qt_meta_stringdata_CntSymbianEngine      0x0002a278   Data          50  moc_cntsymbianengine.o(.constdata)
    qt_meta_data_CntSymbianFactory           0x0002a2ac   Data          60  moc_cntsymbianengine.o(.constdata)
    qt_meta_stringdata_CntSymbianFactory     0x0002a2e8   Data          19  moc_cntsymbianengine.o(.constdata)
    .constdata$1                             0x0002a31c   Data           0  moc_cntsymbiandatabase.o(.constdata)
    qt_meta_data_CntSymbianDatabase          0x0002a31c   Data          60  moc_cntsymbiandatabase.o(.constdata)
    .constdata                               0x0002a31c   Section       96  moc_cntsymbiandatabase.o(.constdata)
    qt_meta_stringdata_CntSymbianDatabase    0x0002a358   Data          20  moc_cntsymbiandatabase.o(.constdata)
    .constdata$1                             0x0002a37c   Data           0  moc_cntdisplaylabel.o(.constdata)
    qt_meta_data_CntDisplayLabel             0x0002a37c   Data          80  moc_cntdisplaylabel.o(.constdata)
    .constdata                               0x0002a37c   Section      136  moc_cntdisplaylabel.o(.constdata)
    qt_meta_stringdata_CntDisplayLabel       0x0002a3cc   Data          40  moc_cntdisplaylabel.o(.constdata)
    .constdata$1                             0x0002a404   Data           0  moc_cnttransformcontactdata.o(.constdata)
    qt_meta_data_CntTransformContactData     0x0002a404   Data          60  moc_cnttransformcontactdata.o(.constdata)
    .constdata                               0x0002a404   Section      104  moc_cnttransformcontactdata.o(.constdata)
    qt_meta_stringdata_CntTransformContactData 0x0002a440   Data          25  moc_cnttransformcontactdata.o(.constdata)
    .constdata$1                             0x0002a46c   Data           0  moc_cntdbinfo.o(.constdata)
    qt_meta_data_CntDbInfo                   0x0002a46c   Data          60  moc_cntdbinfo.o(.constdata)
    .constdata                               0x0002a46c   Section       88  moc_cntdbinfo.o(.constdata)
    qt_meta_stringdata_CntDbInfo             0x0002a4a8   Data          11  moc_cntdbinfo.o(.constdata)
    .constdata$1                             0x0002a4c4   Data           0  cntsymbianengine.o(.constdata)
    KUidContactCard                          0x0002a4c4   Data           4  cntsymbianengine.o(.constdata)
    .constdata                               0x0002a4c4   Section      103  cntsymbianengine.o(.constdata)
    KUidContactGroup                         0x0002a4c8   Data           4  cntsymbianengine.o(.constdata)
    KUidContactOwnCard                       0x0002a4cc   Data           4  cntsymbianengine.o(.constdata)
    qt_plugin_verification_data              0x0002a4d0   Data          91  cntsymbianengine.o(.constdata)
    .constdata$1                             0x0002a52c   Data           0  cntrelationshipgroup.o(.constdata)
    KUidContactCard                          0x0002a52c   Data           4  cntrelationshipgroup.o(.constdata)
    .constdata                               0x0002a52c   Section       16  cntrelationshipgroup.o(.constdata)
    KUidContactGroup                         0x0002a530   Data           4  cntrelationshipgroup.o(.constdata)
    KUidContactOwnCard                       0x0002a534   Data           4  cntrelationshipgroup.o(.constdata)
    KUidContactICCEntry                      0x0002a538   Data           4  cntrelationshipgroup.o(.constdata)
    .constdata$1                             0x0002a53c   Data           0  cntdisplaylabel.o(.constdata)
    KCRCntSettings                           0x0002a53c   Data           4  cntdisplaylabel.o(.constdata)
    .constdata                               0x0002a53c   Section        8  cntdisplaylabel.o(.constdata)
    KCRUidPhonebook                          0x0002a540   Data           4  cntdisplaylabel.o(.constdata)
    .constdata$1                             0x0002a544   Data           0  cntfilterrelationship.o(.constdata)
    .constdata                               0x0002a544   Section      316  cntfilterrelationship.o(.constdata)
    .constdata$1                             0x0002a680   Data           0  cntfilterdetail.o(.constdata)
    KCRUidTelConfiguration                   0x0002a680   Data           4  cntfilterdetail.o(.constdata)
    .constdata                               0x0002a680   Section        4  cntfilterdetail.o(.constdata)
    .constdata$1                             0x0002a684   Data           0  cntfilterdefault.o(.constdata)
    .constdata                               0x0002a684   Section       92  cntfilterdefault.o(.constdata)
    .constdata$1                             0x0002a6e0   Data           0  cntsymbianfilterdbms.o(.constdata)
    KUidContactFieldCompanyName              0x0002a6e0   Data           4  cntsymbianfilterdbms.o(.constdata)
    .constdata                               0x0002a6e0   Section       36  cntsymbianfilterdbms.o(.constdata)
    KUidContactFieldGivenName                0x0002a6e4   Data           4  cntsymbianfilterdbms.o(.constdata)
    KUidContactFieldFamilyName               0x0002a6e8   Data           4  cntsymbianfilterdbms.o(.constdata)
    KUidContactFieldAdditionalName           0x0002a6ec   Data           4  cntsymbianfilterdbms.o(.constdata)
    KUidContactFieldSuffixName               0x0002a6f0   Data           4  cntsymbianfilterdbms.o(.constdata)
    KUidContactFieldPrefixName               0x0002a6f4   Data           4  cntsymbianfilterdbms.o(.constdata)
    KUidContactFieldEMail                    0x0002a6f8   Data           4  cntsymbianfilterdbms.o(.constdata)
    KUidContactFieldSecondName               0x0002a6fc   Data           4  cntsymbianfilterdbms.o(.constdata)
    KCRUidTelConfiguration                   0x0002a700   Data           4  cntsymbianfilterdbms.o(.constdata)
    .constdata$1                             0x0002a704   Data           0  cntsymbiansrvconnection.o(.constdata)
    KNullDesC                                0x0002a704   Data           8  cntsymbiansrvconnection.o(.constdata)
    .constdata                               0x0002a704   Section      424  cntsymbiansrvconnection.o(.constdata)
    KCntServerExe                            0x0002a70c   Data          28  cntsymbiansrvconnection.o(.constdata)
    KCntServerName                           0x0002a728   Data          20  cntsymbiansrvconnection.o(.constdata)
    .constdata$1                             0x0002a8ac   Data           0  cnttransformcontact.o(.constdata)
    KUidContactGroup                         0x0002a8ac   Data           4  cnttransformcontact.o(.constdata)
    .constdata                               0x0002a8ac   Section       40  cnttransformcontact.o(.constdata)
    KDateFormat@_ZN19CntTransformContact28transformTimestampItemFieldLERK12CContactItemRK16CContactDatabase_0 0x0002a8b0   Data          36  cnttransformcontact.o(.constdata)
    .constdata$1                             0x0002a8d4   Data           0  cnttransformcontactdata.o(.constdata)
    KUidContactFieldVCardMapWORK             0x0002a8d4   Data           4  cnttransformcontactdata.o(.constdata)
    .constdata                               0x0002a8d4   Section        8  cnttransformcontactdata.o(.constdata)
    KUidContactFieldVCardMapHOME             0x0002a8d8   Data           4  cnttransformcontactdata.o(.constdata)
    .constdata$1                             0x0002a8dc   Data           0  cnttransformname.o(.constdata)
    KUidContactFieldGivenName                0x0002a8dc   Data           4  cnttransformname.o(.constdata)
    .constdata                               0x0002a8dc   Section       28  cnttransformname.o(.constdata)
    KUidContactFieldFamilyName               0x0002a8e0   Data           4  cnttransformname.o(.constdata)
    KUidContactFieldAdditionalName           0x0002a8e4   Data           4  cnttransformname.o(.constdata)
    KUidContactFieldSuffixName               0x0002a8e8   Data           4  cnttransformname.o(.constdata)
    KUidContactFieldPrefixName               0x0002a8ec   Data           4  cnttransformname.o(.constdata)
    KUidContactFieldTemplateLabel            0x0002a8f0   Data           4  cnttransformname.o(.constdata)
    KUidContactFieldVCardMapUnusedN          0x0002a8f4   Data           4  cnttransformname.o(.constdata)
    .constdata$1                             0x0002a8f8   Data           0  cnttransformnickname.o(.constdata)
    KUidContactFieldSecondName               0x0002a8f8   Data           4  cnttransformnickname.o(.constdata)
    .constdata                               0x0002a8f8   Section        8  cnttransformnickname.o(.constdata)
    KUidContactFieldVCardMapSECONDNAME       0x0002a8fc   Data           4  cnttransformnickname.o(.constdata)
    .constdata$1                             0x0002a900   Data           0  cnttransformphonenumber.o(.constdata)
    KUidContactFieldPhoneNumber              0x0002a900   Data           4  cnttransformphonenumber.o(.constdata)
    .constdata                               0x0002a900   Section       52  cnttransformphonenumber.o(.constdata)
    KUidContactFieldFax                      0x0002a904   Data           4  cnttransformphonenumber.o(.constdata)
    KUidContactFieldDTMF                     0x0002a908   Data           4  cnttransformphonenumber.o(.constdata)
    KUidContactFieldVCardMapTEL              0x0002a90c   Data           4  cnttransformphonenumber.o(.constdata)
    KUidContactFieldVCardMapUnknown          0x0002a910   Data           4  cnttransformphonenumber.o(.constdata)
    KUidContactFieldVCardMapVOICE            0x0002a914   Data           4  cnttransformphonenumber.o(.constdata)
    KUidContactFieldVCardMapFAX              0x0002a918   Data           4  cnttransformphonenumber.o(.constdata)
    KUidContactFieldVCardMapCELL             0x0002a91c   Data           4  cnttransformphonenumber.o(.constdata)
    KUidContactFieldVCardMapPAGER            0x0002a920   Data           4  cnttransformphonenumber.o(.constdata)
    KUidContactFieldVCardMapBBS              0x0002a924   Data           4  cnttransformphonenumber.o(.constdata)
    KUidContactFieldVCardMapCAR              0x0002a928   Data           4  cnttransformphonenumber.o(.constdata)
    KUidContactFieldVCardMapVIDEO            0x0002a92c   Data           4  cnttransformphonenumber.o(.constdata)
    KUidContactFieldVCardMapAssistantTel     0x0002a930   Data           4  cnttransformphonenumber.o(.constdata)
    .constdata$1                             0x0002a934   Data           0  cnttransformemail.o(.constdata)
    KUidContactFieldEMail                    0x0002a934   Data           4  cnttransformemail.o(.constdata)
    .constdata                               0x0002a934   Section        8  cnttransformemail.o(.constdata)
    KUidContactFieldVCardMapEMAILINTERNET    0x0002a938   Data           4  cnttransformemail.o(.constdata)
    .constdata$1                             0x0002a93c   Data           0  cnttransformaddress.o(.constdata)
    KUidContactFieldAddress                  0x0002a93c   Data           4  cnttransformaddress.o(.constdata)
    .constdata                               0x0002a93c   Section       48  cnttransformaddress.o(.constdata)
    KUidContactFieldPostOffice               0x0002a940   Data           4  cnttransformaddress.o(.constdata)
    KUidContactFieldLocality                 0x0002a944   Data           4  cnttransformaddress.o(.constdata)
    KUidContactFieldRegion                   0x0002a948   Data           4  cnttransformaddress.o(.constdata)
    KUidContactFieldPostcode                 0x0002a94c   Data           4  cnttransformaddress.o(.constdata)
    KUidContactFieldCountry                  0x0002a950   Data           4  cnttransformaddress.o(.constdata)
    KUidContactFieldVCardMapPOSTOFFICE       0x0002a954   Data           4  cnttransformaddress.o(.constdata)
    KUidContactFieldVCardMapADR              0x0002a958   Data           4  cnttransformaddress.o(.constdata)
    KUidContactFieldVCardMapLOCALITY         0x0002a95c   Data           4  cnttransformaddress.o(.constdata)
    KUidContactFieldVCardMapREGION           0x0002a960   Data           4  cnttransformaddress.o(.constdata)
    KUidContactFieldVCardMapPOSTCODE         0x0002a964   Data           4  cnttransformaddress.o(.constdata)
    KUidContactFieldVCardMapCOUNTRY          0x0002a968   Data           4  cnttransformaddress.o(.constdata)
    .constdata$1                             0x0002a96c   Data           0  cnttransformurl.o(.constdata)
    KUidContactFieldUrl                      0x0002a96c   Data           4  cnttransformurl.o(.constdata)
    .constdata                               0x0002a96c   Section        8  cnttransformurl.o(.constdata)
    KUidContactFieldVCardMapURL              0x0002a970   Data           4  cnttransformurl.o(.constdata)
    .constdata$1                             0x0002a974   Data           0  cnttransformbirthday.o(.constdata)
    KUidContactFieldBirthday                 0x0002a974   Data           4  cnttransformbirthday.o(.constdata)
    .constdata                               0x0002a974   Section        8  cnttransformbirthday.o(.constdata)
    KUidContactFieldVCardMapBDAY             0x0002a978   Data           4  cnttransformbirthday.o(.constdata)
    .constdata$1                             0x0002a97c   Data           0  cnttransformonlineaccountsimple.o(.constdata)
    KUidContactFieldSIPID                    0x0002a97c   Data           4  cnttransformonlineaccountsimple.o(.constdata)
    .constdata                               0x0002a97c   Section       16  cnttransformonlineaccountsimple.o(.constdata)
    KUidContactFieldVCardMapSIPID            0x0002a980   Data           4  cnttransformonlineaccountsimple.o(.constdata)
    KUidContactFieldVCardMapSWIS             0x0002a984   Data           4  cnttransformonlineaccountsimple.o(.constdata)
    KUidContactFieldVCardMapVOIP             0x0002a988   Data           4  cnttransformonlineaccountsimple.o(.constdata)
    .constdata$1                             0x0002a98c   Data           0  cnttransformorganisation.o(.constdata)
    KUidContactFieldCompanyName              0x0002a98c   Data           4  cnttransformorganisation.o(.constdata)
    .constdata                               0x0002a98c   Section       32  cnttransformorganisation.o(.constdata)
    KUidContactFieldJobTitle                 0x0002a990   Data           4  cnttransformorganisation.o(.constdata)
    KUidContactFieldAssistant                0x0002a994   Data           4  cnttransformorganisation.o(.constdata)
    KUidContactFieldDepartmentName           0x0002a998   Data           4  cnttransformorganisation.o(.constdata)
    KUidContactFieldVCardMapORG              0x0002a99c   Data           4  cnttransformorganisation.o(.constdata)
    KUidContactFieldVCardMapTITLE            0x0002a9a0   Data           4  cnttransformorganisation.o(.constdata)
    KUidContactFieldVCardMapAssistant        0x0002a9a4   Data           4  cnttransformorganisation.o(.constdata)
    KUidContactFieldVCardMapDepartment       0x0002a9a8   Data           4  cnttransformorganisation.o(.constdata)
    .constdata$1                             0x0002a9ac   Data           0  cnttransformringtone.o(.constdata)
    KUidContactFieldRingTone                 0x0002a9ac   Data           4  cnttransformringtone.o(.constdata)
    .constdata                               0x0002a9ac   Section       12  cnttransformringtone.o(.constdata)
    KUidContactFieldVCardMapUnknown          0x0002a9b0   Data           4  cnttransformringtone.o(.constdata)
    KUidContactFieldVideoRingTone            0x0002a9b4   Data           4  cnttransformringtone.o(.constdata)
    .constdata$1                             0x0002a9b8   Data           0  cnttransformthumbnail.o(.constdata)
    KUidContactFieldPicture                  0x0002a9b8   Data           4  cnttransformthumbnail.o(.constdata)
    .constdata                               0x0002a9b8   Section        8  cnttransformthumbnail.o(.constdata)
    KUidContactFieldVCardMapJPEG             0x0002a9bc   Data           4  cnttransformthumbnail.o(.constdata)
    .constdata$1                             0x0002a9c0   Data           0  cnttransformavatar.o(.constdata)
    KUidContactFieldVCardMapUnknown          0x0002a9c0   Data           4  cnttransformavatar.o(.constdata)
    .constdata                               0x0002a9c0   Section        8  cnttransformavatar.o(.constdata)
    KUidContactFieldCodImage                 0x0002a9c4   Data           4  cnttransformavatar.o(.constdata)
    .constdata$1                             0x0002a9c8   Data           0  cntthumbnailcreator.o(.constdata)
    KUidContactFieldPicture                  0x0002a9c8   Data           4  cntthumbnailcreator.o(.constdata)
    .constdata                               0x0002a9c8   Section       56  cntthumbnailcreator.o(.constdata)
    KUidContactFieldVCardMapPHOTO            0x0002a9cc   Data           4  cntthumbnailcreator.o(.constdata)
    KUidContactFieldVCardMapJPEG             0x0002a9d0   Data           4  cntthumbnailcreator.o(.constdata)
    KImageTypeJPGUid                         0x0002a9d4   Data           4  cntthumbnailcreator.o(.constdata)
    KPanicCategory                           0x0002a9d8   Data          40  cntthumbnailcreator.o(.constdata)
    .constdata$1                             0x0002aa00   Data           0  cnttransformsynctarget.o(.constdata)
    KUidContactFieldClass                    0x0002aa00   Data           4  cnttransformsynctarget.o(.constdata)
    .constdata                               0x0002aa00   Section        8  cnttransformsynctarget.o(.constdata)
    KUidContactFieldVCardMapClass            0x0002aa04   Data           4  cnttransformsynctarget.o(.constdata)
    .constdata$1                             0x0002aa08   Data           0  cnttransformgender.o(.constdata)
    KUidContactFieldVCardMapUnknown          0x0002aa08   Data           4  cnttransformgender.o(.constdata)
    .constdata                               0x0002aa08   Section        8  cnttransformgender.o(.constdata)
    KUidContactFieldGender                   0x0002aa0c   Data           4  cnttransformgender.o(.constdata)
    .constdata$1                             0x0002aa10   Data           0  cnttransformanniversary.o(.constdata)
    KUidContactFieldAnniversary              0x0002aa10   Data           4  cnttransformanniversary.o(.constdata)
    .constdata                               0x0002aa10   Section       16  cnttransformanniversary.o(.constdata)
    KUidContactFieldVCardMapUnknown          0x0002aa14   Data           4  cnttransformanniversary.o(.constdata)
    KUidContactFieldVCardMapAnniversary      0x0002aa18   Data           4  cnttransformanniversary.o(.constdata)
    KUidContactFieldAnniversaryEvent         0x0002aa1c   Data           4  cnttransformanniversary.o(.constdata)
    .constdata$1                             0x0002aa20   Data           0  cnttransformanniversarysimple.o(.constdata)
    KUidContactFieldAnniversary              0x0002aa20   Data           4  cnttransformanniversarysimple.o(.constdata)
    .constdata                               0x0002aa20   Section        8  cnttransformanniversarysimple.o(.constdata)
    KUidContactFieldVCardMapAnniversary      0x0002aa24   Data           4  cnttransformanniversarysimple.o(.constdata)
    .constdata$1                             0x0002aa28   Data           0  cnttransformgeolocation.o(.constdata)
    KUidContactFieldGEO                      0x0002aa28   Data           4  cnttransformgeolocation.o(.constdata)
    .constdata                               0x0002aa28   Section        8  cnttransformgeolocation.o(.constdata)
    KUidContactFieldVCardMapGEO              0x0002aa2c   Data           4  cnttransformgeolocation.o(.constdata)
    .constdata$1                             0x0002aa30   Data           0  cnttransformnote.o(.constdata)
    KUidContactFieldNote                     0x0002aa30   Data           4  cnttransformnote.o(.constdata)
    .constdata                               0x0002aa30   Section        8  cnttransformnote.o(.constdata)
    KUidContactFieldVCardMapNOTE             0x0002aa34   Data           4  cnttransformnote.o(.constdata)
    .constdata$1                             0x0002aa38   Data           0  cnttransformfamily.o(.constdata)
    KUidContactFieldSpouse                   0x0002aa38   Data           4  cnttransformfamily.o(.constdata)
    .constdata                               0x0002aa38   Section       16  cnttransformfamily.o(.constdata)
    KUidContactFieldChildren                 0x0002aa3c   Data           4  cnttransformfamily.o(.constdata)
    KUidContactFieldVCardMapSpouse           0x0002aa40   Data           4  cnttransformfamily.o(.constdata)
    KUidContactFieldVCardMapChildren         0x0002aa44   Data           4  cnttransformfamily.o(.constdata)
    .constdata__ZN9stlp_priv15_Integer_limitsIaLan128ELa127ELin1ELb1EE6digitsE 0x0002aa48   Section        4  moc_cntsymbianengine.o(.constdata__ZN9stlp_priv15_Integer_limitsIaLan128ELa127ELin1ELb1EE6digitsE)
    .constdata__ZN9stlp_priv15_Integer_limitsIbLb0ELb1ELi1ELb0EE6digitsE 0x0002aa4c   Section        4  moc_cntsymbianengine.o(.constdata__ZN9stlp_priv15_Integer_limitsIbLb0ELb1ELi1ELb0EE6digitsE)
    .constdata__ZN9stlp_priv15_Integer_limitsIcLc128ELc127ELin1ELb1EE6digitsE 0x0002aa50   Section        4  moc_cntsymbianengine.o(.constdata__ZN9stlp_priv15_Integer_limitsIcLc128ELc127ELin1ELb1EE6digitsE)
    .constdata__ZN9stlp_priv15_Integer_limitsIhLh0ELh255ELin1ELb1EE6digitsE 0x0002aa54   Section        4  moc_cntsymbianengine.o(.constdata__ZN9stlp_priv15_Integer_limitsIhLh0ELh255ELin1ELb1EE6digitsE)
    .constdata__ZN9stlp_priv15_Integer_limitsIiLin2147483648ELi2147483647ELin1ELb1EE6digitsE 0x0002aa58   Section        4  moc_cntsymbianengine.o(.constdata__ZN9stlp_priv15_Integer_limitsIiLin2147483648ELi2147483647ELin1ELb1EE6digitsE)
    .constdata__ZN9stlp_priv15_Integer_limitsIiLin2147483648ELi2147483647ELin1ELb1EE9is_signedE 0x0002aa5c   Section        1  moc_cntsymbianengine.o(.constdata__ZN9stlp_priv15_Integer_limitsIiLin2147483648ELi2147483647ELin1ELb1EE9is_signedE)
    .constdata__ZN9stlp_priv15_Integer_limitsIjLj0ELj4294967295ELin1ELb1EE6digitsE 0x0002aa60   Section        4  moc_cntsymbianengine.o(.constdata__ZN9stlp_priv15_Integer_limitsIjLj0ELj4294967295ELin1ELb1EE6digitsE)
    .constdata__ZN9stlp_priv15_Integer_limitsIlLln2147483648ELl2147483647ELin1ELb1EE6digitsE 0x0002aa64   Section        4  moc_cntsymbianengine.o(.constdata__ZN9stlp_priv15_Integer_limitsIlLln2147483648ELl2147483647ELin1ELb1EE6digitsE)
    .constdata__ZN9stlp_priv15_Integer_limitsImLm0ELm4294967295ELin1ELb1EE6digitsE 0x0002aa68   Section        4  moc_cntsymbianengine.o(.constdata__ZN9stlp_priv15_Integer_limitsImLm0ELm4294967295ELin1ELb1EE6digitsE)
    .constdata__ZN9stlp_priv15_Integer_limitsIsLsn32768ELs32767ELin1ELb1EE6digitsE 0x0002aa6c   Section        4  moc_cntsymbianengine.o(.constdata__ZN9stlp_priv15_Integer_limitsIsLsn32768ELs32767ELin1ELb1EE6digitsE)
    .constdata__ZN9stlp_priv15_Integer_limitsItLt0ELt65535ELin1ELb1EE6digitsE 0x0002aa70   Section        4  moc_cntsymbianengine.o(.constdata__ZN9stlp_priv15_Integer_limitsItLt0ELt65535ELin1ELb1EE6digitsE)
    .constdata__ZN9stlp_priv15_Integer_limitsIwLw0ELw65535ELin1ELb1EE6digitsE 0x0002aa74   Section        4  moc_cntsymbianengine.o(.constdata__ZN9stlp_priv15_Integer_limitsIwLw0ELw65535ELin1ELb1EE6digitsE)
    .constdata__ZN9stlp_priv15_Integer_limitsIxLxn9223372036854775808ELx9223372036854775807ELin1ELb1EE6digitsE 0x0002aa78   Section        4  moc_cntsymbianengine.o(.constdata__ZN9stlp_priv15_Integer_limitsIxLxn9223372036854775808ELx9223372036854775807ELin1ELb1EE6digitsE)
    .constdata__ZN9stlp_priv15_Integer_limitsIyLy0ELy18446744073709551615ELin1ELb1EE6digitsE 0x0002aa7c   Section        4  moc_cntsymbianengine.o(.constdata__ZN9stlp_priv15_Integer_limitsIyLy0ELy18446744073709551615ELin1ELb1EE6digitsE)
    .constdata__ZTI13CArrayFixFlatIN16CContactDatabase9TSortPrefEE 0x0002aa80   Section       12  cntsymbiansorterdbms.o(.constdata__ZTI13CArrayFixFlatIN16CContactDatabase9TSortPrefEE)
    .constdata__ZTI13MDisplayLabel           0x0002aa8c   Section        8  moc_cntdisplaylabel.o(.constdata__ZTI13MDisplayLabel)
    .constdata__ZTI14CntFilterUnion          0x0002aa94   Section       12  cntfilterunion.o(.constdata__ZTI14CntFilterUnion)
    .constdata__ZTI15CntDisplayLabel         0x0002aaa0   Section       32  moc_cntdisplaylabel.o(.constdata__ZTI15CntDisplayLabel)
    .constdata__ZTI15CntFilterDetail         0x0002aac0   Section       12  cntfilterdetail.o(.constdata__ZTI15CntFilterDetail)
    .constdata__ZTI15CntRelationship         0x0002aacc   Section        8  cntrelationship.o(.constdata__ZTI15CntRelationship)
    .constdata__ZTI15CntTransformUrl         0x0002aad4   Section       12  cnttransformurl.o(.constdata__ZTI15CntTransformUrl)
    .constdata__ZTI16CntFilterDefault        0x0002aae0   Section       12  cntfilterdefault.o(.constdata__ZTI16CntFilterDefault)
    .constdata__ZTI16CntSymbianEngine        0x0002aaec   Section       12  moc_cntsymbianengine.o(.constdata__ZTI16CntSymbianEngine)
    .constdata__ZTI16CntSymbianFilter        0x0002aaf8   Section       12  cntsymbianfilterdbms.o(.constdata__ZTI16CntSymbianFilter)
    .constdata__ZTI16CntTransformName        0x0002ab04   Section       12  cnttransformname.o(.constdata__ZTI16CntTransformName)
    .constdata__ZTI16CntTransformNote        0x0002ab10   Section       12  cnttransformnote.o(.constdata__ZTI16CntTransformNote)
    .constdata__ZTI17CntSymbianFactory       0x0002ab1c   Section       32  moc_cntsymbianengine.o(.constdata__ZTI17CntSymbianFactory)
    .constdata__ZTI17CntTransformEmail       0x0002ab3c   Section       12  cnttransformemail.o(.constdata__ZTI17CntTransformEmail)
    .constdata__ZTI17CntTransformEmpty       0x0002ab48   Section       12  cnttransformempty.o(.constdata__ZTI17CntTransformEmpty)
    .constdata__ZTI18CntSymbianDatabase      0x0002ab54   Section       32  moc_cntsymbiandatabase.o(.constdata__ZTI18CntSymbianDatabase)
    .constdata__ZTI18CntTransformAvatar      0x0002ab74   Section       12  cnttransformavatar.o(.constdata__ZTI18CntTransformAvatar)
    .constdata__ZTI18CntTransformFamily      0x0002ab80   Section       12  cnttransformfamily.o(.constdata__ZTI18CntTransformFamily)
    .constdata__ZTI18CntTransformGender      0x0002ab8c   Section       12  cnttransformgender.o(.constdata__ZTI18CntTransformGender)
    .constdata__ZTI18MContactDbObserver      0x0002ab98   Section        8  moc_cntsymbiandatabase.o(.constdata__ZTI18MContactDbObserver)
    .constdata__ZTI19CntThumbnailCreator     0x0002aba0   Section       12  cntthumbnailcreator.o(.constdata__ZTI19CntThumbnailCreator)
    .constdata__ZTI19CntTransformAddress     0x0002abac   Section       12  cnttransformaddress.o(.constdata__ZTI19CntTransformAddress)
    .constdata__ZTI19CntTransformContact     0x0002abb8   Section        8  cnttransformcontact.o(.constdata__ZTI19CntTransformContact)
    .constdata__ZTI20CContactItemFieldDef    0x0002abc0   Section       12  cntsymbianfilterdbms.o(.constdata__ZTI20CContactItemFieldDef)
    .constdata__ZTI20CntRelationshipGroup    0x0002abcc   Section       12  cntrelationshipgroup.o(.constdata__ZTI20CntRelationshipGroup)
    .constdata__ZTI20CntSymbianSorterDbms    0x0002abd8   Section       12  cntsymbiansorterdbms.o(.constdata__ZTI20CntSymbianSorterDbms)
    .constdata__ZTI20CntTransformBirthday    0x0002abe4   Section       12  cnttransformbirthday.o(.constdata__ZTI20CntTransformBirthday)
    .constdata__ZTI20CntTransformNickname    0x0002abf0   Section       12  cnttransformnickname.o(.constdata__ZTI20CntTransformNickname)
    .constdata__ZTI20CntTransformRingtone    0x0002abfc   Section       12  cnttransformringtone.o(.constdata__ZTI20CntTransformRingtone)
    .constdata__ZTI21CntFilterIntersection   0x0002ac08   Section       12  cntfilterintersection.o(.constdata__ZTI21CntFilterIntersection)
    .constdata__ZTI21CntFilterRelationship   0x0002ac14   Section       12  cntfilterrelationship.o(.constdata__ZTI21CntFilterRelationship)
    .constdata__ZTI21CntTransformThumbnail   0x0002ac20   Section       12  cnttransformthumbnail.o(.constdata__ZTI21CntTransformThumbnail)
    .constdata__ZTI22CntTransformSyncTarget  0x0002ac2c   Section       12  cnttransformsynctarget.o(.constdata__ZTI22CntTransformSyncTarget)
    .constdata__ZTI23CntAbstractRelationship 0x0002ac38   Section        8  cntabstractrelationship.o(.constdata__ZTI23CntAbstractRelationship)
    .constdata__ZTI23CntTransformAnniversary 0x0002ac40   Section       12  cnttransformanniversary.o(.constdata__ZTI23CntTransformAnniversary)
    .constdata__ZTI23CntTransformContactData 0x0002ac4c   Section       12  moc_cnttransformcontactdata.o(.constdata__ZTI23CntTransformContactData)
    .constdata__ZTI23CntTransformGeolocation 0x0002ac58   Section       12  cnttransformgeolocation.o(.constdata__ZTI23CntTransformGeolocation)
    .constdata__ZTI23CntTransformPhoneNumber 0x0002ac64   Section       12  cnttransformphonenumber.o(.constdata__ZTI23CntTransformPhoneNumber)
    .constdata__ZTI24CntAbstractContactFilter 0x0002ac70   Section        8  cntfilterrelationship.o(.constdata__ZTI24CntAbstractContactFilter)
    .constdata__ZTI24CntAbstractContactSorter 0x0002ac78   Section        8  cntsymbiansorterdbms.o(.constdata__ZTI24CntAbstractContactSorter)
    .constdata__ZTI24CntTransformOrganisation 0x0002ac80   Section       12  cnttransformorganisation.o(.constdata__ZTI24CntTransformOrganisation)
    .constdata__ZTI25CntTransformOnlineAccount 0x0002ac8c   Section       12  cnttransformonlineaccountsimple.o(.constdata__ZTI25CntTransformOnlineAccount)
    .constdata__ZTI29CntTransformAnniversarySimple 0x0002ac98   Section       12  cnttransformanniversarysimple.o(.constdata__ZTI29CntTransformAnniversarySimple)
    .constdata__ZTI9CArrayFixIN16CContactDatabase9TSortPrefEE 0x0002aca4   Section       12  cntsymbiansorterdbms.o(.constdata__ZTI9CArrayFixIN16CContactDatabase9TSortPrefEE)
    .constdata__ZTI9CntCenrep                0x0002acb0   Section       12  cntdisplaylabel.o(.constdata__ZTI9CntCenrep)
    .constdata__ZTI9CntDbInfo                0x0002acbc   Section       12  moc_cntdbinfo.o(.constdata__ZTI9CntDbInfo)
    .constdata__ZTS13CArrayFixFlatIN16CContactDatabase9TSortPrefEE 0x0002acc8   Section       48  cntsymbiansorterdbms.o(.constdata__ZTS13CArrayFixFlatIN16CContactDatabase9TSortPrefEE)
    .constdata__ZTS13MDisplayLabel           0x0002acf8   Section       16  moc_cntdisplaylabel.o(.constdata__ZTS13MDisplayLabel)
    .constdata__ZTS14CntFilterUnion          0x0002ad08   Section       17  cntfilterunion.o(.constdata__ZTS14CntFilterUnion)
    .constdata__ZTS15CntDisplayLabel         0x0002ad19   Section       18  moc_cntdisplaylabel.o(.constdata__ZTS15CntDisplayLabel)
    .constdata__ZTS15CntFilterDetail         0x0002ad2b   Section       18  cntfilterdetail.o(.constdata__ZTS15CntFilterDetail)
    .constdata__ZTS15CntRelationship         0x0002ad3d   Section       18  cntrelationship.o(.constdata__ZTS15CntRelationship)
    .constdata__ZTS15CntTransformUrl         0x0002ad4f   Section       18  cnttransformurl.o(.constdata__ZTS15CntTransformUrl)
    .constdata__ZTS16CntFilterDefault        0x0002ad61   Section       19  cntfilterdefault.o(.constdata__ZTS16CntFilterDefault)
    .constdata__ZTS16CntSymbianEngine        0x0002ad74   Section       19  moc_cntsymbianengine.o(.constdata__ZTS16CntSymbianEngine)
    .constdata__ZTS16CntSymbianFilter        0x0002ad87   Section       19  cntsymbianfilterdbms.o(.constdata__ZTS16CntSymbianFilter)
    .constdata__ZTS16CntTransformName        0x0002ad9a   Section       19  cnttransformname.o(.constdata__ZTS16CntTransformName)
    .constdata__ZTS16CntTransformNote        0x0002adad   Section       19  cnttransformnote.o(.constdata__ZTS16CntTransformNote)
    .constdata__ZTS17CntSymbianFactory       0x0002adc0   Section       20  moc_cntsymbianengine.o(.constdata__ZTS17CntSymbianFactory)
    .constdata__ZTS17CntTransformEmail       0x0002add4   Section       20  cnttransformemail.o(.constdata__ZTS17CntTransformEmail)
    .constdata__ZTS17CntTransformEmpty       0x0002ade8   Section       20  cnttransformempty.o(.constdata__ZTS17CntTransformEmpty)
    .constdata__ZTS18CntSymbianDatabase      0x0002adfc   Section       21  moc_cntsymbiandatabase.o(.constdata__ZTS18CntSymbianDatabase)
    .constdata__ZTS18CntTransformAvatar      0x0002ae11   Section       21  cnttransformavatar.o(.constdata__ZTS18CntTransformAvatar)
    .constdata__ZTS18CntTransformFamily      0x0002ae26   Section       21  cnttransformfamily.o(.constdata__ZTS18CntTransformFamily)
    .constdata__ZTS18CntTransformGender      0x0002ae3b   Section       21  cnttransformgender.o(.constdata__ZTS18CntTransformGender)
    .constdata__ZTS18MContactDbObserver      0x0002ae50   Section       21  moc_cntsymbiandatabase.o(.constdata__ZTS18MContactDbObserver)
    .constdata__ZTS19CntThumbnailCreator     0x0002ae65   Section       22  cntthumbnailcreator.o(.constdata__ZTS19CntThumbnailCreator)
    .constdata__ZTS19CntTransformAddress     0x0002ae7b   Section       22  cnttransformaddress.o(.constdata__ZTS19CntTransformAddress)
    .constdata__ZTS19CntTransformContact     0x0002ae91   Section       22  cnttransformcontact.o(.constdata__ZTS19CntTransformContact)
    .constdata__ZTS20CContactItemFieldDef    0x0002aea7   Section       23  cntsymbianfilterdbms.o(.constdata__ZTS20CContactItemFieldDef)
    .constdata__ZTS20CntRelationshipGroup    0x0002aebe   Section       23  cntrelationshipgroup.o(.constdata__ZTS20CntRelationshipGroup)
    .constdata__ZTS20CntSymbianSorterDbms    0x0002aed5   Section       23  cntsymbiansorterdbms.o(.constdata__ZTS20CntSymbianSorterDbms)
    .constdata__ZTS20CntTransformBirthday    0x0002aeec   Section       23  cnttransformbirthday.o(.constdata__ZTS20CntTransformBirthday)
    .constdata__ZTS20CntTransformNickname    0x0002af03   Section       23  cnttransformnickname.o(.constdata__ZTS20CntTransformNickname)
    .constdata__ZTS20CntTransformRingtone    0x0002af1a   Section       23  cnttransformringtone.o(.constdata__ZTS20CntTransformRingtone)
    .constdata__ZTS21CntFilterIntersection   0x0002af31   Section       24  cntfilterintersection.o(.constdata__ZTS21CntFilterIntersection)
    .constdata__ZTS21CntFilterRelationship   0x0002af49   Section       24  cntfilterrelationship.o(.constdata__ZTS21CntFilterRelationship)
    .constdata__ZTS21CntTransformThumbnail   0x0002af61   Section       24  cnttransformthumbnail.o(.constdata__ZTS21CntTransformThumbnail)
    .constdata__ZTS22CntTransformSyncTarget  0x0002af79   Section       25  cnttransformsynctarget.o(.constdata__ZTS22CntTransformSyncTarget)
    .constdata__ZTS23CntAbstractRelationship 0x0002af92   Section       26  cntabstractrelationship.o(.constdata__ZTS23CntAbstractRelationship)
    .constdata__ZTS23CntTransformAnniversary 0x0002afac   Section       26  cnttransformanniversary.o(.constdata__ZTS23CntTransformAnniversary)
    .constdata__ZTS23CntTransformContactData 0x0002afc6   Section       26  moc_cnttransformcontactdata.o(.constdata__ZTS23CntTransformContactData)
    .constdata__ZTS23CntTransformGeolocation 0x0002afe0   Section       26  cnttransformgeolocation.o(.constdata__ZTS23CntTransformGeolocation)
    .constdata__ZTS23CntTransformPhoneNumber 0x0002affa   Section       26  cnttransformphonenumber.o(.constdata__ZTS23CntTransformPhoneNumber)
    .constdata__ZTS24CntAbstractContactFilter 0x0002b014   Section       27  cntfilterrelationship.o(.constdata__ZTS24CntAbstractContactFilter)
    .constdata__ZTS24CntAbstractContactSorter 0x0002b02f   Section       27  cntsymbiansorterdbms.o(.constdata__ZTS24CntAbstractContactSorter)
    .constdata__ZTS24CntTransformOrganisation 0x0002b04a   Section       27  cnttransformorganisation.o(.constdata__ZTS24CntTransformOrganisation)
    .constdata__ZTS25CntTransformOnlineAccount 0x0002b065   Section       28  cnttransformonlineaccountsimple.o(.constdata__ZTS25CntTransformOnlineAccount)
    .constdata__ZTS29CntTransformAnniversarySimple 0x0002b081   Section       32  cnttransformanniversarysimple.o(.constdata__ZTS29CntTransformAnniversarySimple)
    .constdata__ZTS9CArrayFixIN16CContactDatabase9TSortPrefEE 0x0002b0a1   Section       43  cntsymbiansorterdbms.o(.constdata__ZTS9CArrayFixIN16CContactDatabase9TSortPrefEE)
    .constdata__ZTS9CntCenrep                0x0002b0cc   Section       11  cntdisplaylabel.o(.constdata__ZTS9CntCenrep)
    .constdata__ZTS9CntDbInfo                0x0002b0d7   Section       11  moc_cntdbinfo.o(.constdata__ZTS9CntDbInfo)
    .constdata__ZTV13CArrayFixFlatIN16CContactDatabase9TSortPrefEE 0x0002b0e4   Section       20  cntsymbiansorterdbms.o(.constdata__ZTV13CArrayFixFlatIN16CContactDatabase9TSortPrefEE)
    .constdata__ZTV13MDisplayLabel           0x0002b0f8   Section       12  cntdisplaylabel.o(.constdata__ZTV13MDisplayLabel)
    .constdata__ZTV14CntFilterUnion          0x0002b104   Section       24  cntfilterunion.o(.constdata__ZTV14CntFilterUnion)
    .constdata__ZTV15CntDisplayLabel         0x0002b11c   Section       72  moc_cntdisplaylabel.o(.constdata__ZTV15CntDisplayLabel)
    .constdata__ZTV15CntFilterDetail         0x0002b164   Section       24  cntfilterdetail.o(.constdata__ZTV15CntFilterDetail)
    .constdata__ZTV15CntRelationship         0x0002b17c   Section       16  cntrelationship.o(.constdata__ZTV15CntRelationship)
    .constdata__ZTV15CntTransformUrl         0x0002b18c   Section       96  cnttransformurl.o(.constdata__ZTV15CntTransformUrl)
    .constdata__ZTV16CntFilterDefault        0x0002b1ec   Section       24  cntfilterdefault.o(.constdata__ZTV16CntFilterDefault)
    .constdata__ZTV16CntSymbianEngine        0x0002b204   Section      192  moc_cntsymbianengine.o(.constdata__ZTV16CntSymbianEngine)
    .constdata__ZTV16CntSymbianFilter        0x0002b2c4   Section       24  cntsymbianfilterdbms.o(.constdata__ZTV16CntSymbianFilter)
    .constdata__ZTV16CntTransformName        0x0002b2dc   Section       96  cnttransformname.o(.constdata__ZTV16CntTransformName)
    .constdata__ZTV16CntTransformNote        0x0002b33c   Section       96  cnttransformnote.o(.constdata__ZTV16CntTransformNote)
    .constdata__ZTV17CntSymbianFactory       0x0002b39c   Section       92  moc_cntsymbianengine.o(.constdata__ZTV17CntSymbianFactory)
    .constdata__ZTV17CntTransformEmail       0x0002b3f8   Section       96  cnttransformemail.o(.constdata__ZTV17CntTransformEmail)
    .constdata__ZTV17CntTransformEmpty       0x0002b458   Section       96  cnttransformempty.o(.constdata__ZTV17CntTransformEmpty)
    .constdata__ZTV18CntSymbianDatabase      0x0002b4b8   Section       72  moc_cntsymbiandatabase.o(.constdata__ZTV18CntSymbianDatabase)
    .constdata__ZTV18CntTransformAvatar      0x0002b500   Section       96  cnttransformavatar.o(.constdata__ZTV18CntTransformAvatar)
    .constdata__ZTV18CntTransformFamily      0x0002b560   Section       96  cnttransformfamily.o(.constdata__ZTV18CntTransformFamily)
    .constdata__ZTV18CntTransformGender      0x0002b5c0   Section       96  cnttransformgender.o(.constdata__ZTV18CntTransformGender)
    .constdata__ZTV18MContactDbObserver      0x0002b620   Section       12  cntsymbiandatabase.o(.constdata__ZTV18MContactDbObserver)
    .constdata__ZTV19CntThumbnailCreator     0x0002b62c   Section       32  cntthumbnailcreator.o(.constdata__ZTV19CntThumbnailCreator)
    .constdata__ZTV19CntTransformAddress     0x0002b64c   Section       96  cnttransformaddress.o(.constdata__ZTV19CntTransformAddress)
    .constdata__ZTV19CntTransformContact     0x0002b6ac   Section       16  cnttransformcontact.o(.constdata__ZTV19CntTransformContact)
    .constdata__ZTV20CContactItemFieldDef    0x0002b6bc   Section       20  cntsymbianfilterdbms.o(.constdata__ZTV20CContactItemFieldDef)
    .constdata__ZTV20CntRelationshipGroup    0x0002b6d0   Section       32  cntrelationshipgroup.o(.constdata__ZTV20CntRelationshipGroup)
    .constdata__ZTV20CntSymbianSorterDbms    0x0002b6f0   Section       20  cntsymbiansorterdbms.o(.constdata__ZTV20CntSymbianSorterDbms)
    .constdata__ZTV20CntTransformBirthday    0x0002b704   Section       96  cnttransformbirthday.o(.constdata__ZTV20CntTransformBirthday)
    .constdata__ZTV20CntTransformNickname    0x0002b764   Section       96  cnttransformnickname.o(.constdata__ZTV20CntTransformNickname)
    .constdata__ZTV20CntTransformRingtone    0x0002b7c4   Section       96  cnttransformringtone.o(.constdata__ZTV20CntTransformRingtone)
    .constdata__ZTV21CntFilterIntersection   0x0002b824   Section       24  cntfilterintersection.o(.constdata__ZTV21CntFilterIntersection)
    .constdata__ZTV21CntFilterRelationship   0x0002b83c   Section       24  cntfilterrelationship.o(.constdata__ZTV21CntFilterRelationship)
    .constdata__ZTV21CntTransformThumbnail   0x0002b854   Section       96  cnttransformthumbnail.o(.constdata__ZTV21CntTransformThumbnail)
    .constdata__ZTV22CntTransformSyncTarget  0x0002b8b4   Section       96  cnttransformsynctarget.o(.constdata__ZTV22CntTransformSyncTarget)
    .constdata__ZTV23CntAbstractRelationship 0x0002b914   Section       32  cntabstractrelationship.o(.constdata__ZTV23CntAbstractRelationship)
    .constdata__ZTV23CntTransformAnniversary 0x0002b934   Section       96  cnttransformanniversary.o(.constdata__ZTV23CntTransformAnniversary)
    .constdata__ZTV23CntTransformContactData 0x0002b994   Section       96  moc_cnttransformcontactdata.o(.constdata__ZTV23CntTransformContactData)
    .constdata__ZTV23CntTransformGeolocation 0x0002b9f4   Section       96  cnttransformgeolocation.o(.constdata__ZTV23CntTransformGeolocation)
    .constdata__ZTV23CntTransformPhoneNumber 0x0002ba54   Section       96  cnttransformphonenumber.o(.constdata__ZTV23CntTransformPhoneNumber)
    .constdata__ZTV24CntAbstractContactFilter 0x0002bab4   Section       24  cntfilterrelationship.o(.constdata__ZTV24CntAbstractContactFilter)
    .constdata__ZTV24CntAbstractContactSorter 0x0002bacc   Section       20  cntsymbiansorterdbms.o(.constdata__ZTV24CntAbstractContactSorter)
    .constdata__ZTV24CntTransformOrganisation 0x0002bae0   Section       96  cnttransformorganisation.o(.constdata__ZTV24CntTransformOrganisation)
    .constdata__ZTV25CntTransformOnlineAccount 0x0002bb40   Section       96  cnttransformonlineaccountsimple.o(.constdata__ZTV25CntTransformOnlineAccount)
    .constdata__ZTV29CntTransformAnniversarySimple 0x0002bba0   Section       96  cnttransformanniversarysimple.o(.constdata__ZTV29CntTransformAnniversarySimple)
    .constdata__ZTV9CArrayFixIN16CContactDatabase9TSortPrefEE 0x0002bc00   Section       20  cntsymbiansorterdbms.o(.constdata__ZTV9CArrayFixIN16CContactDatabase9TSortPrefEE)
    .constdata__ZTV9CntCenrep                0x0002bc14   Section       32  cntdisplaylabel.o(.constdata__ZTV9CntCenrep)
    .constdata__ZTV9CntDbInfo                0x0002bc34   Section       56  moc_cntdbinfo.o(.constdata__ZTV9CntDbInfo)
    .init_array                              0x0002bc6c   Section        4  cntsymbianengine.o(.init_array)
    .init_array                              0x0002bc70   Section        4  cnttransformcontact.o(.init_array)
    .init_array                              0x0002bc74   Section        4  cnttransformthumbnail.o(.init_array)
    .init_array                              0x0002bc78   Section        4  cntthumbnailcreator.o(.init_array)
    .ARM.exidx                               0x0002bc7c   Section        8  ucppinit.o(.ARM.exidx)
    .data$0                                  0x00400000   Data           0  cntsymbianengine.o(.data)
    _ZGV_instance@qt_plugin_instance_0       0x00400000   Data           4  cntsymbianengine.o(.data)
    .data                                    0x00400000   Section       36  cntsymbianengine.o(.data)
    _instance@qt_plugin_instance_1           0x00400004   Data           4  cntsymbianengine.o(.data)
    SYMBIAN_BACKEND                          0x00400008   Data           4  cntsymbianengine.o(.data)
    SIM_BACKEND                              0x0040000c   Data           4  cntsymbianengine.o(.data)
    SIM_BACKEND_ADN                          0x00400010   Data           4  cntsymbianengine.o(.data)
    SIM_BACKEND_SDN                          0x00400014   Data           4  cntsymbianengine.o(.data)
    SIM_BACKEND_FDN                          0x00400018   Data           4  cntsymbianengine.o(.data)
    SIM_BACKEND_ON                           0x0040001c   Data           4  cntsymbianengine.o(.data)
    MYCARD_DEFINTION                         0x00400020   Data           4  cntsymbianengine.o(.data)
    .data$0                                  0x00400024   Data           0  cnttransformcontact.o(.data)
    SYMBIAN_BACKEND                          0x00400024   Data           4  cnttransformcontact.o(.data)
    .data                                    0x00400024   Section       28  cnttransformcontact.o(.data)
    SIM_BACKEND                              0x00400028   Data           4  cnttransformcontact.o(.data)
    SIM_BACKEND_ADN                          0x0040002c   Data           4  cnttransformcontact.o(.data)
    SIM_BACKEND_SDN                          0x00400030   Data           4  cnttransformcontact.o(.data)
    SIM_BACKEND_FDN                          0x00400034   Data           4  cnttransformcontact.o(.data)
    SIM_BACKEND_ON                           0x00400038   Data           4  cnttransformcontact.o(.data)
    MYCARD_DEFINTION                         0x0040003c   Data           4  cnttransformcontact.o(.data)
    .data$0                                  0x00400040   Data           0  cnttransformthumbnail.o(.data)
    KMaxThumbnailSize                        0x00400040   Data           8  cnttransformthumbnail.o(.data)
    .data                                    0x00400040   Section        8  cnttransformthumbnail.o(.data)
    .data$0                                  0x00400048   Data           0  cntthumbnailcreator.o(.data)
    KThumbnailSizeUninitialized              0x00400048   Data           8  cntthumbnailcreator.o(.data)
    .data                                    0x00400048   Section        8  cntthumbnailcreator.o(.data)
    .data$0                                  0x00400050   Data           0  ucppfini.o(.data)
    .data                                    0x00400050   Section        4  ucppfini.o(.data)
    .data__ZNSt19_Atomic_swap_structILi1EE12_S_swap_lockE 0x00400054   Section       12  moc_cntsymbianengine.o(.data__ZNSt19_Atomic_swap_structILi1EE12_S_swap_lockE)
    .bss$5                                   0x00400060   Data           0  ucppfini.o(.bss)
    .bss                                     0x00400060   Section     2048  ucppfini.o(.bss)

    Global Symbols

    Symbol Name                              Value     Ov Type        Size  Object(Section)

    BuildAttributes$$THUMB_ISAv2$ARM_ISAv5$M$VFPv2$PE$A:L22$X:L11$S22$IEEE1$IW$USESV6$~STKCKD$USESV7$~SHL$OSPACE$ROPI$IEEEJ$EBA8$UX$FPIC$INDIRECT$REQ8$PRES8$EABIv2 0x00000000   Number         0  anon$$obj.o ABSOLUTE
    QtContacts{00010103}[2002ac7a].dll       0x00000000   Data           0  anon$$obj.o ABSOLUTE
    QtCore{00040703}[2001b2dc].dll           0x00000000   Data           0  anon$$obj.o ABSOLUTE
    QtGui{00040703}[2001b2dd].dll            0x00000000   Data           0  anon$$obj.o ABSOLUTE
    bafl{000a0000}[10003a0f].dll             0x00000000   Data           0  anon$$obj.o ABSOLUTE
    bitmaptransforms{000a0000}[101f45ec].dll 0x00000000   Data           0  anon$$obj.o ABSOLUTE
    centralrepository{000a0000}[101fbc70].dll 0x00000000   Data           0  anon$$obj.o ABSOLUTE
    cntmodel{000a0000}[10003a71].dll         0x00000000   Data           0  anon$$obj.o ABSOLUTE
    dfpaeabi{000a0000}.dll                   0x00000000   Data           0  anon$$obj.o ABSOLUTE
    drtaeabi{000a0000}.dll                   0x00000000   Data           0  anon$$obj.o ABSOLUTE
    efsrv{000a0000}[100039e4].dll            0x00000000   Data           0  anon$$obj.o ABSOLUTE
    estor{000a0000}[10003b0d].dll            0x00000000   Data           0  anon$$obj.o ABSOLUTE
    euser{000a0000}[100039e5].dll            0x00000000   Data           0  anon$$obj.o ABSOLUTE
    fbscli{000a0000}[10003a15].dll           0x00000000   Data           0  anon$$obj.o ABSOLUTE
    imageconversion{000a0000}[101f45ad].dll  0x00000000   Data           0  anon$$obj.o ABSOLUTE
    libc{00010001}[10207369].dll             0x00000000   Data           0  anon$$obj.o ABSOLUTE
    qtcontacts_symbian{000a0000}[2002ac7b].dll 0x00000000   Data           0  anon$$obj.o ABSOLUTE
    stdnew{000a0000}[20022178].dll           0x00000000   Data           0  anon$$obj.o ABSOLUTE
    tzclient{000a0000}[1020383d].dll         0x00000000   Data           0  anon$$obj.o ABSOLUTE
    InternalizeL(TDes16&, RReadStream&)       - Undefined Reference
    _Z12InternalizeLR6TDes16R11RReadStream@estor{000a0000}[10003b0d].dll  - Undefined Reference
    qt_symbian_exception2Error(const std::exception&)  - Undefined Reference
    _Z26qt_symbian_exception2ErrorRKSt9exception@QtCore{00040703}[2001b2dc].dll  - Undefined Reference
    qFree(void*)                              - Undefined Reference
    _Z5qFreePv@QtCore{00040703}[2001b2dc].dll  - Undefined Reference
    qHash(const QString&)                     - Undefined Reference
    _Z5qHashRK7QString@QtCore{00040703}[2001b2dc].dll  - Undefined Reference
    CFbsBitmap::Create(const TSize&, TDisplayMode)  - Undefined Reference
    _ZN10CFbsBitmap6CreateERK5TSize12TDisplayMode@fbscli{000a0000}[10003a15].dll  - Undefined Reference
    CFbsBitmap::CFbsBitmap()                  - Undefined Reference
    _ZN10CFbsBitmapC1Ev@fbscli{000a0000}[10003a15].dll  - Undefined Reference
    QByteArray::QByteArray(const char*, int)  - Undefined Reference
    _ZN10QByteArrayC1EPKci@QtCore{00040703}[2001b2dc].dll  - Undefined Reference
    QtMobility::QContactId::setLocalId(const unsigned&)  - Undefined Reference
    _ZN10QtMobility10QContactId10setLocalIdERKj@QtContacts{00010103}[2002ac7a].dll  - Undefined Reference
    QtMobility::QContactId::setManagerUri(const QString&)  - Undefined Reference
    _ZN10QtMobility10QContactId13setManagerUriERK7QString@QtContacts{00010103}[2002ac7a].dll  - Undefined Reference
    QtMobility::QContactId::QContactId(const QtMobility::QContactId&)  - Undefined Reference
    _ZN10QtMobility10QContactIdC1ERKS0_@QtContacts{00010103}[2002ac7a].dll  - Undefined Reference
    QtMobility::QContactId::QContactId()      - Undefined Reference
    _ZN10QtMobility10QContactIdC1Ev@QtContacts{00010103}[2002ac7a].dll  - Undefined Reference
    QtMobility::QContactId::~QContactId()     - Undefined Reference
    _ZN10QtMobility10QContactIdD1Ev@QtContacts{00010103}[2002ac7a].dll  - Undefined Reference
    QtMobility::QContactTag::DefinitionName   - Undefined Reference
    _ZN10QtMobility11QContactTag14DefinitionNameE@QtContacts{00010103}[2002ac7a].dll  - Undefined Reference
    QtMobility::QContactUrl::FieldSubType     - Undefined Reference
    _ZN10QtMobility11QContactUrl12FieldSubTypeE@QtContacts{00010103}[2002ac7a].dll  - Undefined Reference
    QtMobility::QContactUrl::DefinitionName   - Undefined Reference
    _ZN10QtMobility11QContactUrl14DefinitionNameE@QtContacts{00010103}[2002ac7a].dll  - Undefined Reference
    QtMobility::QContactUrl::SubTypeHomePage  - Undefined Reference
    _ZN10QtMobility11QContactUrl15SubTypeHomePageE@QtContacts{00010103}[2002ac7a].dll  - Undefined Reference
    QtMobility::QContactUrl::SubTypeFavourite  - Undefined Reference
    _ZN10QtMobility11QContactUrl16SubTypeFavouriteE@QtContacts{00010103}[2002ac7a].dll  - Undefined Reference
    QtMobility::QContactUrl::FieldUrl         - Undefined Reference
    _ZN10QtMobility11QContactUrl8FieldUrlE@QtContacts{00010103}[2002ac7a].dll  - Undefined Reference
    QtMobility::QContactGuid::DefinitionName  - Undefined Reference
    _ZN10QtMobility12QContactGuid14DefinitionNameE@QtContacts{00010103}[2002ac7a].dll  - Undefined Reference
    QtMobility::QContactGuid::FieldGuid       - Undefined Reference
    _ZN10QtMobility12QContactGuid9FieldGuidE@QtContacts{00010103}[2002ac7a].dll  - Undefined Reference
    QtMobility::QContactName::FieldPrefix     - Undefined Reference
    _ZN10QtMobility12QContactName11FieldPrefixE@QtContacts{00010103}[2002ac7a].dll  - Undefined Reference
    QtMobility::QContactName::FieldSuffix     - Undefined Reference
    _ZN10QtMobility12QContactName11FieldSuffixE@QtContacts{00010103}[2002ac7a].dll  - Undefined Reference
    QtMobility::QContactName::FieldLastName   - Undefined Reference
    _ZN10QtMobility12QContactName13FieldLastNameE@QtContacts{00010103}[2002ac7a].dll  - Undefined Reference
    QtMobility::QContactName::DefinitionName  - Undefined Reference
    _ZN10QtMobility12QContactName14DefinitionNameE@QtContacts{00010103}[2002ac7a].dll  - Undefined Reference
    QtMobility::QContactName::FieldFirstName  - Undefined Reference
    _ZN10QtMobility12QContactName14FieldFirstNameE@QtContacts{00010103}[2002ac7a].dll  - Undefined Reference
    QtMobility::QContactName::FieldMiddleName  - Undefined Reference
    _ZN10QtMobility12QContactName15FieldMiddleNameE@QtContacts{00010103}[2002ac7a].dll  - Undefined Reference
    QtMobility::QContactName::FieldCustomLabel  - Undefined Reference
    _ZN10QtMobility12QContactName16FieldCustomLabelE@QtContacts{00010103}[2002ac7a].dll  - Undefined Reference
    QtMobility::QContactNote::DefinitionName  - Undefined Reference
    _ZN10QtMobility12QContactNote14DefinitionNameE@QtContacts{00010103}[2002ac7a].dll  - Undefined Reference
    QtMobility::QContactNote::FieldNote       - Undefined Reference
    _ZN10QtMobility12QContactNote9FieldNoteE@QtContacts{00010103}[2002ac7a].dll  - Undefined Reference
    QtMobility::QContactType::TypeContact     - Undefined Reference
    _ZN10QtMobility12QContactType11TypeContactE@QtContacts{00010103}[2002ac7a].dll  - Undefined Reference
    QtMobility::QContactType::DefinitionName  - Undefined Reference
    _ZN10QtMobility12QContactType14DefinitionNameE@QtContacts{00010103}[2002ac7a].dll  - Undefined Reference
    QtMobility::QContactType::FieldType       - Undefined Reference
    _ZN10QtMobility12QContactType9FieldTypeE@QtContacts{00010103}[2002ac7a].dll  - Undefined Reference
    QtMobility::QContactType::TypeGroup       - Undefined Reference
    _ZN10QtMobility12QContactType9TypeGroupE@QtContacts{00010103}[2002ac7a].dll  - Undefined Reference
    QtMobility::QContactAvatar::FieldImageUrl  - Undefined Reference
    _ZN10QtMobility14QContactAvatar13FieldImageUrlE@QtContacts{00010103}[2002ac7a].dll  - Undefined Reference
    QtMobility::QContactAvatar::FieldVideoUrl  - Undefined Reference
    _ZN10QtMobility14QContactAvatar13FieldVideoUrlE@QtContacts{00010103}[2002ac7a].dll  - Undefined Reference
    QtMobility::QContactAvatar::DefinitionName  - Undefined Reference
    _ZN10QtMobility14QContactAvatar14DefinitionNameE@QtContacts{00010103}[2002ac7a].dll  - Undefined Reference
    QtMobility::QContactDetail::ContextHome   - Undefined Reference
    _ZN10QtMobility14QContactDetail11ContextHomeE@QtContacts{00010103}[2002ac7a].dll  - Undefined Reference
    QtMobility::QContactDetail::ContextWork   - Undefined Reference
    _ZN10QtMobility14QContactDetail11ContextWorkE@QtContacts{00010103}[2002ac7a].dll  - Undefined Reference
    QtMobility::QContactDetail::FieldContext  - Undefined Reference
    _ZN10QtMobility14QContactDetail12FieldContextE@QtContacts{00010103}[2002ac7a].dll  - Undefined Reference
    QtMobility::QContactDetail::FieldDetailUri  - Undefined Reference
    _ZN10QtMobility14QContactDetail14FieldDetailUriE@QtContacts{00010103}[2002ac7a].dll  - Undefined Reference
    QtMobility::QContactDetail::FieldLinkedDetailUris  - Undefined Reference
    _ZN10QtMobility14QContactDetail21FieldLinkedDetailUrisE@QtContacts{00010103}[2002ac7a].dll  - Undefined Reference
    QtMobility::QContactDetail::setValue(const char*, const QVariant&)  - Undefined Reference
    _ZN10QtMobility14QContactDetail8setValueEPKcRK8QVariant@QtContacts{00010103}[2002ac7a].dll  - Undefined Reference
    QtMobility::QContactDetail::setValue(const QString&, const QVariant&)  - Undefined Reference
    _ZN10QtMobility14QContactDetail8setValueERK7QStringRK8QVariant@QtContacts{00010103}[2002ac7a].dll  - Undefined Reference
    QtMobility::QContactDetail::QContactDetail(const char*)  - Undefined Reference
    _ZN10QtMobility14QContactDetailC1EPKc@QtContacts{00010103}[2002ac7a].dll  - Undefined Reference
    QtMobility::QContactDetail::QContactDetail(const QString&)  - Undefined Reference
    _ZN10QtMobility14QContactDetailC1ERK7QString@QtContacts{00010103}[2002ac7a].dll  - Undefined Reference
    QtMobility::QContactDetail::QContactDetail(const QtMobility::QContactDetail&)  - Undefined Reference
    _ZN10QtMobility14QContactDetailC1ERKS0_@QtContacts{00010103}[2002ac7a].dll  - Undefined Reference
    QtMobility::QContactDetail::QContactDetail(const QtMobility::QContactDetail&, const char*)  - Undefined Reference
    _ZN10QtMobility14QContactDetailC1ERKS0_PKc@QtContacts{00010103}[2002ac7a].dll  - Undefined Reference
    QtMobility::QContactDetail::QContactDetail()  - Undefined Reference
    _ZN10QtMobility14QContactDetailC1Ev@QtContacts{00010103}[2002ac7a].dll  - Undefined Reference
    QtMobility::QContactDetail::~QContactDetail()  - Undefined Reference
    _ZN10QtMobility14QContactDetailD1Ev@QtContacts{00010103}[2002ac7a].dll  - Undefined Reference
    QtMobility::QContactDetail::operator =(const QtMobility::QContactDetail&)  - Undefined Reference
    _ZN10QtMobility14QContactDetailaSERKS0_@QtContacts{00010103}[2002ac7a].dll  - Undefined Reference
    QtMobility::QContactFamily::FieldSpouse   - Undefined Reference
    _ZN10QtMobility14QContactFamily11FieldSpouseE@QtContacts{00010103}[2002ac7a].dll  - Undefined Reference
    QtMobility::QContactFamily::FieldChildren  - Undefined Reference
    _ZN10QtMobility14QContactFamily13FieldChildrenE@QtContacts{00010103}[2002ac7a].dll  - Undefined Reference
    QtMobility::QContactFamily::DefinitionName  - Undefined Reference
    _ZN10QtMobility14QContactFamily14DefinitionNameE@QtContacts{00010103}[2002ac7a].dll  - Undefined Reference
    QtMobility::QContactFilter::QContactFilter(const QtMobility::QContactFilter&)  - Undefined Reference
    _ZN10QtMobility14QContactFilterC1ERKS0_@QtContacts{00010103}[2002ac7a].dll  - Undefined Reference
    QtMobility::QContactFilter::QContactFilter()  - Undefined Reference
    _ZN10QtMobility14QContactFilterC1Ev@QtContacts{00010103}[2002ac7a].dll  - Undefined Reference
    QtMobility::QContactFilter::~QContactFilter()  - Undefined Reference
    _ZN10QtMobility14QContactFilterD1Ev@QtContacts{00010103}[2002ac7a].dll  - Undefined Reference
    QtMobility::QContactGender::GenderMale    - Undefined Reference
    _ZN10QtMobility14QContactGender10GenderMaleE@QtContacts{00010103}[2002ac7a].dll  - Undefined Reference
    QtMobility::QContactGender::FieldGender   - Undefined Reference
    _ZN10QtMobility14QContactGender11FieldGenderE@QtContacts{00010103}[2002ac7a].dll  - Undefined Reference
    QtMobility::QContactGender::GenderFemale  - Undefined Reference
    _ZN10QtMobility14QContactGender12GenderFemaleE@QtContacts{00010103}[2002ac7a].dll  - Undefined Reference
    QtMobility::QContactGender::DefinitionName  - Undefined Reference
    _ZN10QtMobility14QContactGender14DefinitionNameE@QtContacts{00010103}[2002ac7a].dll  - Undefined Reference
    QtMobility::QContactGender::GenderUnspecified  - Undefined Reference
    _ZN10QtMobility14QContactGender17GenderUnspecifiedE@QtContacts{00010103}[2002ac7a].dll  - Undefined Reference
    QtMobility::QContactAddress::FieldRegion  - Undefined Reference
    _ZN10QtMobility15QContactAddress11FieldRegionE@QtContacts{00010103}[2002ac7a].dll  - Undefined Reference
    QtMobility::QContactAddress::FieldStreet  - Undefined Reference
    _ZN10QtMobility15QContactAddress11FieldStreetE@QtContacts{00010103}[2002ac7a].dll  - Undefined Reference
    QtMobility::QContactAddress::FieldCountry  - Undefined Reference
    _ZN10QtMobility15QContactAddress12FieldCountryE@QtContacts{00010103}[2002ac7a].dll  - Undefined Reference
    QtMobility::QContactAddress::FieldLocality  - Undefined Reference
    _ZN10QtMobility15QContactAddress13FieldLocalityE@QtContacts{00010103}[2002ac7a].dll  - Undefined Reference
    QtMobility::QContactAddress::FieldPostcode  - Undefined Reference
    _ZN10QtMobility15QContactAddress13FieldPostcodeE@QtContacts{00010103}[2002ac7a].dll  - Undefined Reference
    QtMobility::QContactAddress::FieldSubTypes  - Undefined Reference
    _ZN10QtMobility15QContactAddress13FieldSubTypesE@QtContacts{00010103}[2002ac7a].dll  - Undefined Reference
    QtMobility::QContactAddress::SubTypeParcel  - Undefined Reference
    _ZN10QtMobility15QContactAddress13SubTypeParcelE@QtContacts{00010103}[2002ac7a].dll  - Undefined Reference
    QtMobility::QContactAddress::SubTypePostal  - Undefined Reference
    _ZN10QtMobility15QContactAddress13SubTypePostalE@QtContacts{00010103}[2002ac7a].dll  - Undefined Reference
    QtMobility::QContactAddress::DefinitionName  - Undefined Reference
    _ZN10QtMobility15QContactAddress14DefinitionNameE@QtContacts{00010103}[2002ac7a].dll  - Undefined Reference
    QtMobility::QContactAddress::SubTypeDomestic  - Undefined Reference
    _ZN10QtMobility15QContactAddress15SubTypeDomesticE@QtContacts{00010103}[2002ac7a].dll  - Undefined Reference
    QtMobility::QContactAddress::FieldPostOfficeBox  - Undefined Reference
    _ZN10QtMobility15QContactAddress18FieldPostOfficeBoxE@QtContacts{00010103}[2002ac7a].dll  - Undefined Reference
    QtMobility::QContactAddress::SubTypeInternational  - Undefined Reference
    _ZN10QtMobility15QContactAddress20SubTypeInternationalE@QtContacts{00010103}[2002ac7a].dll  - Undefined Reference
    QtMobility::QContactManager::buildUri(const QString&, const QMap<QString, QString>&, int)  - Undefined Reference
    _ZN10QtMobility15QContactManager8buildUriERK7QStringRK4QMapIS1_S1_Ei@QtContacts{00010103}[2002ac7a].dll  - Undefined Reference
    QtMobility::QContactBirthday::FieldBirthday  - Undefined Reference
    _ZN10QtMobility16QContactBirthday13FieldBirthdayE@QtContacts{00010103}[2002ac7a].dll  - Undefined Reference
    QtMobility::QContactBirthday::DefinitionName  - Undefined Reference
    _ZN10QtMobility16QContactBirthday14DefinitionNameE@QtContacts{00010103}[2002ac7a].dll  - Undefined Reference
    QtMobility::QContactFavorite::FieldFavorite  - Undefined Reference
    _ZN10QtMobility16QContactFavorite13FieldFavoriteE@QtContacts{00010103}[2002ac7a].dll  - Undefined Reference
    QtMobility::QContactFavorite::DefinitionName  - Undefined Reference
    _ZN10QtMobility16QContactFavorite14DefinitionNameE@QtContacts{00010103}[2002ac7a].dll  - Undefined Reference
    QtMobility::QContactNickname::FieldNickname  - Undefined Reference
    _ZN10QtMobility16QContactNickname13FieldNicknameE@QtContacts{00010103}[2002ac7a].dll  - Undefined Reference
    QtMobility::QContactNickname::DefinitionName  - Undefined Reference
    _ZN10QtMobility16QContactNickname14DefinitionNameE@QtContacts{00010103}[2002ac7a].dll  - Undefined Reference
    QtMobility::QContactPresence::DefinitionName  - Undefined Reference
    _ZN10QtMobility16QContactPresence14DefinitionNameE@QtContacts{00010103}[2002ac7a].dll  - Undefined Reference
    QtMobility::QContactRingtone::DefinitionName  - Undefined Reference
    _ZN10QtMobility16QContactRingtone14DefinitionNameE@QtContacts{00010103}[2002ac7a].dll  - Undefined Reference
    QtMobility::QContactRingtone::FieldAudioRingtoneUrl  - Undefined Reference
    _ZN10QtMobility16QContactRingtone21FieldAudioRingtoneUrlE@QtContacts{00010103}[2002ac7a].dll  - Undefined Reference
    QtMobility::QContactRingtone::FieldVideoRingtoneUrl  - Undefined Reference
    _ZN10QtMobility16QContactRingtone21FieldVideoRingtoneUrlE@QtContacts{00010103}[2002ac7a].dll  - Undefined Reference
    QtMobility::QContactRingtone::FieldVibrationRingtoneUrl  - Undefined Reference
    _ZN10QtMobility16QContactRingtone25FieldVibrationRingtoneUrlE@QtContacts{00010103}[2002ac7a].dll  - Undefined Reference
    QtMobility::QContactChangeSet::emitSignals(QtMobility::QContactManagerEngine*)  - Undefined Reference
    _ZN10QtMobility17QContactChangeSet11emitSignalsEPNS_21QContactManagerEngineE@QtContacts{00010103}[2002ac7a].dll  - Undefined Reference
    QtMobility::QContactChangeSet::setDataChanged(bool)  - Undefined Reference
    _ZN10QtMobility17QContactChangeSet14setDataChangedEb@QtContacts{00010103}[2002ac7a].dll  - Undefined Reference
    QtMobility::QContactChangeSet::insertAddedContact(unsigned)  - Undefined Reference
    _ZN10QtMobility17QContactChangeSet18insertAddedContactEj@QtContacts{00010103}[2002ac7a].dll  - Undefined Reference
    QtMobility::QContactChangeSet::insertChangedContact(unsigned)  - Undefined Reference
    _ZN10QtMobility17QContactChangeSet20insertChangedContactEj@QtContacts{00010103}[2002ac7a].dll  - Undefined Reference
    QtMobility::QContactChangeSet::insertRemovedContact(unsigned)  - Undefined Reference
    _ZN10QtMobility17QContactChangeSet20insertRemovedContactEj@QtContacts{00010103}[2002ac7a].dll  - Undefined Reference
    QtMobility::QContactChangeSet::setOldAndNewSelfContactId(const QPair<unsigned, unsigned>&)  - Undefined Reference
    _ZN10QtMobility17QContactChangeSet25setOldAndNewSelfContactIdERK5QPairIjjE@QtContacts{00010103}[2002ac7a].dll  - Undefined Reference
    QtMobility::QContactChangeSet::insertAddedRelationshipsContact(unsigned)  - Undefined Reference
    _ZN10QtMobility17QContactChangeSet31insertAddedRelationshipsContactEj@QtContacts{00010103}[2002ac7a].dll  - Undefined Reference
    QtMobility::QContactChangeSet::insertAddedRelationshipsContacts(const QList<unsigned>&)  - Undefined Reference
    _ZN10QtMobility17QContactChangeSet32insertAddedRelationshipsContactsERK5QListIjE@QtContacts{00010103}[2002ac7a].dll  - Undefined Reference
    QtMobility::QContactChangeSet::insertRemovedRelationshipsContact(unsigned)  - Undefined Reference
    _ZN10QtMobility17QContactChangeSet33insertRemovedRelationshipsContactEj@QtContacts{00010103}[2002ac7a].dll  - Undefined Reference
    QtMobility::QContactChangeSet::insertRemovedRelationshipsContacts(const QList<unsigned>&)  - Undefined Reference
    _ZN10QtMobility17QContactChangeSet34insertRemovedRelationshipsContactsERK5QListIjE@QtContacts{00010103}[2002ac7a].dll  - Undefined Reference
    QtMobility::QContactChangeSet::QContactChangeSet()  - Undefined Reference
    _ZN10QtMobility17QContactChangeSetC1Ev@QtContacts{00010103}[2002ac7a].dll  - Undefined Reference
    QtMobility::QContactChangeSet::~QContactChangeSet()  - Undefined Reference
    _ZN10QtMobility17QContactChangeSetD1Ev@QtContacts{00010103}[2002ac7a].dll  - Undefined Reference
    QtMobility::QContactFetchHint::QContactFetchHint()  - Undefined Reference
    _ZN10QtMobility17QContactFetchHintC1Ev@QtContacts{00010103}[2002ac7a].dll  - Undefined Reference
    QtMobility::QContactFetchHint::~QContactFetchHint()  - Undefined Reference
    _ZN10QtMobility17QContactFetchHintD1Ev@QtContacts{00010103}[2002ac7a].dll  - Undefined Reference
    QtMobility::QContactSortOrder::QContactSortOrder(const QtMobility::QContactSortOrder&)  - Undefined Reference
    _ZN10QtMobility17QContactSortOrderC1ERKS0_@QtContacts{00010103}[2002ac7a].dll  - Undefined Reference
    QtMobility::QContactSortOrder::QContactSortOrder()  - Undefined Reference
    _ZN10QtMobility17QContactSortOrderC1Ev@QtContacts{00010103}[2002ac7a].dll  - Undefined Reference
    QtMobility::QContactSortOrder::~QContactSortOrder()  - Undefined Reference
    _ZN10QtMobility17QContactSortOrderD1Ev@QtContacts{00010103}[2002ac7a].dll  - Undefined Reference
    QtMobility::QContactSortOrder::operator =(const QtMobility::QContactSortOrder&)  - Undefined Reference
    _ZN10QtMobility17QContactSortOrderaSERKS0_@QtContacts{00010103}[2002ac7a].dll  - Undefined Reference
    QtMobility::QContactThumbnail::DefinitionName  - Undefined Reference
    _ZN10QtMobility17QContactThumbnail14DefinitionNameE@QtContacts{00010103}[2002ac7a].dll  - Undefined Reference
    QtMobility::QContactThumbnail::FieldThumbnail  - Undefined Reference
    _ZN10QtMobility17QContactThumbnail14FieldThumbnailE@QtContacts{00010103}[2002ac7a].dll  - Undefined Reference
    QtMobility::QContactTimestamp::DefinitionName  - Undefined Reference
    _ZN10QtMobility17QContactTimestamp14DefinitionNameE@QtContacts{00010103}[2002ac7a].dll  - Undefined Reference
    QtMobility::QContactTimestamp::FieldCreationTimestamp  - Undefined Reference
    _ZN10QtMobility17QContactTimestamp22FieldCreationTimestampE@QtContacts{00010103}[2002ac7a].dll  - Undefined Reference
    QtMobility::QContactTimestamp::FieldModificationTimestamp  - Undefined Reference
    _ZN10QtMobility17QContactTimestamp26FieldModificationTimestampE@QtContacts{00010103}[2002ac7a].dll  - Undefined Reference
    QtMobility::QContactSyncTarget::DefinitionName  - Undefined Reference
    _ZN10QtMobility18QContactSyncTarget14DefinitionNameE@QtContacts{00010103}[2002ac7a].dll  - Undefined Reference
    QtMobility::QContactSyncTarget::FieldSyncTarget  - Undefined Reference
    _ZN10QtMobility18QContactSyncTarget15FieldSyncTargetE@QtContacts{00010103}[2002ac7a].dll  - Undefined Reference
    QtMobility::QContactAnniversary::FieldEvent  - Undefined Reference
    _ZN10QtMobility19QContactAnniversary10FieldEventE@QtContacts{00010103}[2002ac7a].dll  - Undefined Reference
    QtMobility::QContactAnniversary::FieldSubType  - Undefined Reference
    _ZN10QtMobility19QContactAnniversary12FieldSubTypeE@QtContacts{00010103}[2002ac7a].dll  - Undefined Reference
    QtMobility::QContactAnniversary::SubTypeHouse  - Undefined Reference
    _ZN10QtMobility19QContactAnniversary12SubTypeHouseE@QtContacts{00010103}[2002ac7a].dll  - Undefined Reference
    QtMobility::QContactAnniversary::DefinitionName  - Undefined Reference
    _ZN10QtMobility19QContactAnniversary14DefinitionNameE@QtContacts{00010103}[2002ac7a].dll  - Undefined Reference
    QtMobility::QContactAnniversary::SubTypeWedding  - Undefined Reference
    _ZN10QtMobility19QContactAnniversary14SubTypeWeddingE@QtContacts{00010103}[2002ac7a].dll  - Undefined Reference
    QtMobility::QContactAnniversary::FieldCalendarId  - Undefined Reference
    _ZN10QtMobility19QContactAnniversary15FieldCalendarIdE@QtContacts{00010103}[2002ac7a].dll  - Undefined Reference
    QtMobility::QContactAnniversary::SubTypeMemorial  - Undefined Reference
    _ZN10QtMobility19QContactAnniversary15SubTypeMemorialE@QtContacts{00010103}[2002ac7a].dll  - Undefined Reference
    QtMobility::QContactAnniversary::FieldOriginalDate  - Undefined Reference
    _ZN10QtMobility19QContactAnniversary17FieldOriginalDateE@QtContacts{00010103}[2002ac7a].dll  - Undefined Reference
    QtMobility::QContactAnniversary::SubTypeEmployment  - Undefined Reference
    _ZN10QtMobility19QContactAnniversary17SubTypeEmploymentE@QtContacts{00010103}[2002ac7a].dll  - Undefined Reference
    QtMobility::QContactAnniversary::SubTypeEngagement  - Undefined Reference
    _ZN10QtMobility19QContactAnniversary17SubTypeEngagementE@QtContacts{00010103}[2002ac7a].dll  - Undefined Reference
    QtMobility::QContactGeoLocation::FieldLabel  - Undefined Reference
    _ZN10QtMobility19QContactGeoLocation10FieldLabelE@QtContacts{00010103}[2002ac7a].dll  - Undefined Reference
    QtMobility::QContactGeoLocation::FieldSpeed  - Undefined Reference
    _ZN10QtMobility19QContactGeoLocation10FieldSpeedE@QtContacts{00010103}[2002ac7a].dll  - Undefined Reference
    QtMobility::QContactGeoLocation::FieldHeading  - Undefined Reference
    _ZN10QtMobility19QContactGeoLocation12FieldHeadingE@QtContacts{00010103}[2002ac7a].dll  - Undefined Reference
    QtMobility::QContactGeoLocation::FieldAccuracy  - Undefined Reference
    _ZN10QtMobility19QContactGeoLocation13FieldAccuracyE@QtContacts{00010103}[2002ac7a].dll  - Undefined Reference
    QtMobility::QContactGeoLocation::FieldAltitude  - Undefined Reference
    _ZN10QtMobility19QContactGeoLocation13FieldAltitudeE@QtContacts{00010103}[2002ac7a].dll  - Undefined Reference
    QtMobility::QContactGeoLocation::FieldLatitude  - Undefined Reference
    _ZN10QtMobility19QContactGeoLocation13FieldLatitudeE@QtContacts{00010103}[2002ac7a].dll  - Undefined Reference
    QtMobility::QContactGeoLocation::DefinitionName  - Undefined Reference
    _ZN10QtMobility19QContactGeoLocation14DefinitionNameE@QtContacts{00010103}[2002ac7a].dll  - Undefined Reference
    QtMobility::QContactGeoLocation::FieldLongitude  - Undefined Reference
    _ZN10QtMobility19QContactGeoLocation14FieldLongitudeE@QtContacts{00010103}[2002ac7a].dll  - Undefined Reference
    QtMobility::QContactGeoLocation::FieldTimestamp  - Undefined Reference
    _ZN10QtMobility19QContactGeoLocation14FieldTimestampE@QtContacts{00010103}[2002ac7a].dll  - Undefined Reference
    QtMobility::QContactGeoLocation::FieldAltitudeAccuracy  - Undefined Reference
    _ZN10QtMobility19QContactGeoLocation21FieldAltitudeAccuracyE@QtContacts{00010103}[2002ac7a].dll  - Undefined Reference
    QtMobility::QContactPhoneNumber::SubTypeCar  - Undefined Reference
    _ZN10QtMobility19QContactPhoneNumber10SubTypeCarE@QtContacts{00010103}[2002ac7a].dll  - Undefined Reference
    QtMobility::QContactPhoneNumber::SubTypeFax  - Undefined Reference
    _ZN10QtMobility19QContactPhoneNumber10SubTypeFaxE@QtContacts{00010103}[2002ac7a].dll  - Undefined Reference
    QtMobility::QContactPhoneNumber::FieldNumber  - Undefined Reference
    _ZN10QtMobility19QContactPhoneNumber11FieldNumberE@QtContacts{00010103}[2002ac7a].dll  - Undefined Reference
    QtMobility::QContactPhoneNumber::SubTypeModem  - Undefined Reference
    _ZN10QtMobility19QContactPhoneNumber12SubTypeModemE@QtContacts{00010103}[2002ac7a].dll  - Undefined Reference
    QtMobility::QContactPhoneNumber::SubTypePager  - Undefined Reference
    _ZN10QtMobility19QContactPhoneNumber12SubTypePagerE@QtContacts{00010103}[2002ac7a].dll  - Undefined Reference
    QtMobility::QContactPhoneNumber::SubTypeVideo  - Undefined Reference
    _ZN10QtMobility19QContactPhoneNumber12SubTypeVideoE@QtContacts{00010103}[2002ac7a].dll  - Undefined Reference
    QtMobility::QContactPhoneNumber::SubTypeVoice  - Undefined Reference
    _ZN10QtMobility19QContactPhoneNumber12SubTypeVoiceE@QtContacts{00010103}[2002ac7a].dll  - Undefined Reference
    QtMobility::QContactPhoneNumber::FieldSubTypes  - Undefined Reference
    _ZN10QtMobility19QContactPhoneNumber13FieldSubTypesE@QtContacts{00010103}[2002ac7a].dll  - Undefined Reference
    QtMobility::QContactPhoneNumber::SubTypeMobile  - Undefined Reference
    _ZN10QtMobility19QContactPhoneNumber13SubTypeMobileE@QtContacts{00010103}[2002ac7a].dll  - Undefined Reference
    QtMobility::QContactPhoneNumber::DefinitionName  - Undefined Reference
    _ZN10QtMobility19QContactPhoneNumber14DefinitionNameE@QtContacts{00010103}[2002ac7a].dll  - Undefined Reference
    QtMobility::QContactPhoneNumber::SubTypeDtmfMenu  - Undefined Reference
    _ZN10QtMobility19QContactPhoneNumber15SubTypeDtmfMenuE@QtContacts{00010103}[2002ac7a].dll  - Undefined Reference
    QtMobility::QContactPhoneNumber::SubTypeLandline  - Undefined Reference
    _ZN10QtMobility19QContactPhoneNumber15SubTypeLandlineE@QtContacts{00010103}[2002ac7a].dll  - Undefined Reference
    QtMobility::QContactPhoneNumber::SubTypeAssistant  - Undefined Reference
    _ZN10QtMobility19QContactPhoneNumber16SubTypeAssistantE@QtContacts{00010103}[2002ac7a].dll  - Undefined Reference
    QtMobility::QContactPhoneNumber::SubTypeMessagingCapable  - Undefined Reference
    _ZN10QtMobility19QContactPhoneNumber23SubTypeMessagingCapableE@QtContacts{00010103}[2002ac7a].dll  - Undefined Reference
    QtMobility::QContactPhoneNumber::SubTypeBulletinBoardSystem  - Undefined Reference
    _ZN10QtMobility19QContactPhoneNumber26SubTypeBulletinBoardSystemE@QtContacts{00010103}[2002ac7a].dll  - Undefined Reference
    QtMobility::QContactUnionFilter::QContactUnionFilter(const QtMobility::QContactFilter&)  - Undefined Reference
    _ZN10QtMobility19QContactUnionFilterC1ERKNS_14QContactFilterE@QtContacts{00010103}[2002ac7a].dll  - Undefined Reference
    QtMobility::QContactDetailFilter::setDetailDefinitionName(const QString&, const QString&)  - Undefined Reference
    _ZN10QtMobility20QContactDetailFilter23setDetailDefinitionNameERK7QStringS3_@QtContacts{00010103}[2002ac7a].dll  - Undefined Reference
    QtMobility::QContactDetailFilter::setValue(const QVariant&)  - Undefined Reference
    _ZN10QtMobility20QContactDetailFilter8setValueERK8QVariant@QtContacts{00010103}[2002ac7a].dll  - Undefined Reference
    QtMobility::QContactDetailFilter::QContactDetailFilter(const QtMobility::QContactFilter&)  - Undefined Reference
    _ZN10QtMobility20QContactDetailFilterC1ERKNS_14QContactFilterE@QtContacts{00010103}[2002ac7a].dll  - Undefined Reference
    QtMobility::QContactDetailFilter::QContactDetailFilter()  - Undefined Reference
    _ZN10QtMobility20QContactDetailFilterC1Ev@QtContacts{00010103}[2002ac7a].dll  - Undefined Reference
    QtMobility::QContactDisplayLabel::DefinitionName  - Undefined Reference
    _ZN10QtMobility20QContactDisplayLabel14DefinitionNameE@QtContacts{00010103}[2002ac7a].dll  - Undefined Reference
    QtMobility::QContactEmailAddress::DefinitionName  - Undefined Reference
    _ZN10QtMobility20QContactEmailAddress14DefinitionNameE@QtContacts{00010103}[2002ac7a].dll  - Undefined Reference
    QtMobility::QContactEmailAddress::FieldEmailAddress  - Undefined Reference
    _ZN10QtMobility20QContactEmailAddress17FieldEmailAddressE@QtContacts{00010103}[2002ac7a].dll  - Undefined Reference
    QtMobility::QContactOrganization::FieldTitle  - Undefined Reference
    _ZN10QtMobility20QContactOrganization10FieldTitleE@QtContacts{00010103}[2002ac7a].dll  - Undefined Reference
    QtMobility::QContactOrganization::FieldLogoUrl  - Undefined Reference
    _ZN10QtMobility20QContactOrganization12FieldLogoUrlE@QtContacts{00010103}[2002ac7a].dll  - Undefined Reference
    QtMobility::QContactOrganization::FieldLocation  - Undefined Reference
    _ZN10QtMobility20QContactOrganization13FieldLocationE@QtContacts{00010103}[2002ac7a].dll  - Undefined Reference
    QtMobility::QContactOrganization::DefinitionName  - Undefined Reference
    _ZN10QtMobility20QContactOrganization14DefinitionNameE@QtContacts{00010103}[2002ac7a].dll  - Undefined Reference
    QtMobility::QContactOrganization::FieldDepartment  - Undefined Reference
    _ZN10QtMobility20QContactOrganization15FieldDepartmentE@QtContacts{00010103}[2002ac7a].dll  - Undefined Reference
    QtMobility::QContactOrganization::FieldAssistantName  - Undefined Reference
    _ZN10QtMobility20QContactOrganization18FieldAssistantNameE@QtContacts{00010103}[2002ac7a].dll  - Undefined Reference
    QtMobility::QContactOrganization::FieldName  - Undefined Reference
    _ZN10QtMobility20QContactOrganization9FieldNameE@QtContacts{00010103}[2002ac7a].dll  - Undefined Reference
    QtMobility::QContactRelationship::setRelationshipType(const QString&)  - Undefined Reference
    _ZN10QtMobility20QContactRelationship19setRelationshipTypeERK7QString@QtContacts{00010103}[2002ac7a].dll  - Undefined Reference
    QtMobility::QContactRelationship::setFirst(const QtMobility::QContactId&)  - Undefined Reference
    _ZN10QtMobility20QContactRelationship8setFirstERKNS_10QContactIdE@QtContacts{00010103}[2002ac7a].dll  - Undefined Reference
    QtMobility::QContactRelationship::HasMember  - Undefined Reference
    _ZN10QtMobility20QContactRelationship9HasMemberE@QtContacts{00010103}[2002ac7a].dll  - Undefined Reference
    QtMobility::QContactRelationship::setSecond(const QtMobility::QContactId&)  - Undefined Reference
    _ZN10QtMobility20QContactRelationship9setSecondERKNS_10QContactIdE@QtContacts{00010103}[2002ac7a].dll  - Undefined Reference
    QtMobility::QContactRelationship::QContactRelationship(const QtMobility::QContactRelationship&)  - Undefined Reference
    _ZN10QtMobility20QContactRelationshipC1ERKS0_@QtContacts{00010103}[2002ac7a].dll  - Undefined Reference
    QtMobility::QContactRelationship::QContactRelationship()  - Undefined Reference
    _ZN10QtMobility20QContactRelationshipC1Ev@QtContacts{00010103}[2002ac7a].dll  - Undefined Reference
    QtMobility::QContactRelationship::~QContactRelationship()  - Undefined Reference
    _ZN10QtMobility20QContactRelationshipD1Ev@QtContacts{00010103}[2002ac7a].dll  - Undefined Reference
    QtMobility::QContactInvalidFilter::QContactInvalidFilter()  - Undefined Reference
    _ZN10QtMobility21QContactInvalidFilterC1Ev@QtContacts{00010103}[2002ac7a].dll  - Undefined Reference
    QtMobility::QContactManagerEngine::testFilter(const QtMobility::QContactFilter&, const QtMobility::QContact&)  - Undefined Reference
    _ZN10QtMobility21QContactManagerEngine10testFilterERKNS_14QContactFilterERKNS_8QContactE@QtContacts{00010103}[2002ac7a].dll  - Undefined Reference
    QtMobility::QContactManagerEngine::qt_metacall(QMetaObject::Call, int, void**)  - Undefined Reference
    _ZN10QtMobility21QContactManagerEngine11qt_metacallEN11QMetaObject4CallEiPPv@QtContacts{00010103}[2002ac7a].dll  - Undefined Reference
    QtMobility::QContactManagerEngine::qt_metacast(const char*)  - Undefined Reference
    _ZN10QtMobility21QContactManagerEngine11qt_metacastEPKc@QtContacts{00010103}[2002ac7a].dll  - Undefined Reference
    QtMobility::QContactManagerEngine::sortContacts(const QList<QtMobility::QContact>&, QList<QtMobility::QContactSortOrder>&)  - Undefined Reference
    _ZN10QtMobility21QContactManagerEngine12sortContactsERK5QListINS_8QContactEERKS1_INS_17QContactSortOrderEE@QtContacts{00010103}[2002ac7a].dll  - Undefined Reference
    QtMobility::QContactManagerEngine::staticMetaObject  - Undefined Reference
    _ZN10QtMobility21QContactManagerEngine16staticMetaObjectE@QtContacts{00010103}[2002ac7a].dll  - Undefined Reference
    QtMobility::QContactManagerEngine::schemaDefinitions(int)  - Undefined Reference
    _ZN10QtMobility21QContactManagerEngine17schemaDefinitionsEi@QtContacts{00010103}[2002ac7a].dll  - Undefined Reference
    QtMobility::QContactManagerEngine::updateRequestState(QtMobility::QContactAbstractRequest*, QtMobility::QContactAbstractRequest::State)  - Undefined Reference
    _ZN10QtMobility21QContactManagerEngine18updateRequestStateEPNS_23QContactAbstractRequestENS1_5StateE@QtContacts{00010103}[2002ac7a].dll  - Undefined Reference
    QtMobility::QContactManagerEngine::saveDetailDefinition(const QtMobility::QContactDetailDefinition&, const QString&, QtMobility::QContactManager::Error*)  - Undefined Reference
    _ZN10QtMobility21QContactManagerEngine20saveDetailDefinitionERKNS_24QContactDetailDefinitionERK7QStringPNS_15QContactManager5ErrorE@QtContacts{00010103}[2002ac7a].dll  - Undefined Reference
    QtMobility::QContactManagerEngine::removeDetailDefinition(const QString&, const QString&, QtMobility::QContactManager::Error*)  - Undefined Reference
    _ZN10QtMobility21QContactManagerEngine22removeDetailDefinitionERK7QStringS3_PNS_15QContactManager5ErrorE@QtContacts{00010103}[2002ac7a].dll  - Undefined Reference
    QtMobility::QContactManagerEngine::setContactDisplayLabel(QtMobility::QContact*, const QString&)  - Undefined Reference
    _ZN10QtMobility21QContactManagerEngine22setContactDisplayLabelEPNS_8QContactERK7QString@QtContacts{00010103}[2002ac7a].dll  - Undefined Reference
    QtMobility::QContactManagerEngine::setContactRelationships(QtMobility::QContact*, const QList<QtMobility::QContactRelationship>&)  - Undefined Reference
    _ZN10QtMobility21QContactManagerEngine23setContactRelationshipsEPNS_8QContactERK5QListINS_20QContactRelationshipEE@QtContacts{00010103}[2002ac7a].dll  - Undefined Reference
    QtMobility::QContactManagerEngine::updateContactSaveRequest(QtMobility::QContactSaveRequest*, const QList<QtMobility::QContact>&, QtMobility::QContactManager::Error, const QMap<int, QtMobility::QContactManager::Error>&, QtMobility::QContactAbstractRequest::State)  - Undefined Reference
    _ZN10QtMobility21QContactManagerEngine24updateContactSaveRequestEPNS_19QContactSaveRequestERK5QListINS_8QContactEENS_15QContactManager5ErrorERK4QMapIiS9_ENS_23QContactAbstractRequest5StateE@QtContacts{00010103}[2002ac7a].dll  - Undefined Reference
    QtMobility::QContactManagerEngine::updateContactFetchRequest(QtMobility::QContactFetchRequest*, const QList<QtMobility::QContact>&, QtMobility::QContactManager::Error, QtMobility::QContactAbstractRequest::State)  - Undefined Reference
    _ZN10QtMobility21QContactManagerEngine25updateContactFetchRequestEPNS_20QContactFetchRequestERK5QListINS_8QContactEENS_15QContactManager5ErrorENS_23QContactAbstractRequest5StateE@QtContacts{00010103}[2002ac7a].dll  - Undefined Reference
    QtMobility::QContactManagerEngine::updateContactRemoveRequest(QtMobility::QContactRemoveRequest*, QtMobility::QContactManager::Error, const QMap<int, QtMobility::QContactManager::Error>&, QtMobility::QContactAbstractRequest::State)  - Undefined Reference
    _ZN10QtMobility21QContactManagerEngine26updateContactRemoveRequestEPNS_21QContactRemoveRequestENS_15QContactManager5ErrorERK4QMapIiS4_ENS_23QContactAbstractRequest5StateE@QtContacts{00010103}[2002ac7a].dll  - Undefined Reference
    QtMobility::QContactManagerEngine::updateDefinitionFetchRequest(QtMobility::QContactDetailDefinitionFetchRequest*, const QMap<QString, QtMobility::QContactDetailDefinition>&, QtMobility::QContactManager::Error, QMap<int, QtMobility::QContactManager::Error>&, QtMobility::QContactAbstractRequest::State)  - Undefined Reference
    _ZN10QtMobility21QContactManagerEngine28updateDefinitionFetchRequestEPNS_36QContactDetailDefinitionFetchRequestERK4QMapI7QStringNS_24QContactDetailDefinitionEENS_15QContactManager5ErrorERKS3_IiSA_ENS_23QContactAbstractRequest5StateE@QtContacts{00010103}[2002ac7a].dll  - Undefined Reference
    QtMobility::QContactManagerEngine::updateRelationshipSaveRequest(QtMobility::QContactRelationshipSaveRequest*, const QList<QtMobility::QContactRelationship>&, QtMobility::QContactManager::Error, const QMap<int, QtMobility::QContactManager::Error>&, QtMobility::QContactAbstractRequest::State)  - Undefined Reference
    _ZN10QtMobility21QContactManagerEngine29updateRelationshipSaveRequestEPNS_31QContactRelationshipSaveRequestERK5QListINS_20QContactRelationshipEENS_15QContactManager5ErrorERK4QMapIiS9_ENS_23QContactAbstractRequest5StateE@QtContacts{00010103}[2002ac7a].dll  - Undefined Reference
    QtMobility::QContactManagerEngine::updateRelationshipFetchRequest(QtMobility::QContactRelationshipFetchRequest*, const QList<QtMobility::QContactRelationship>&, QtMobility::QContactManager::Error, QtMobility::QContactAbstractRequest::State)  - Undefined Reference
    _ZN10QtMobility21QContactManagerEngine30updateRelationshipFetchRequestEPNS_32QContactRelationshipFetchRequestERK5QListINS_20QContactRelationshipEENS_15QContactManager5ErrorENS_23QContactAbstractRequest5StateE@QtContacts{00010103}[2002ac7a].dll  - Undefined Reference
    QtMobility::QContactManagerEngine::updateRelationshipRemoveRequest(QtMobility::QContactRelationshipRemoveRequest*, QtMobility::QContactManager::Error, const QMap<int, QtMobility::QContactManager::Error>&, QtMobility::QContactAbstractRequest::State)  - Undefined Reference
    _ZN10QtMobility21QContactManagerEngine31updateRelationshipRemoveRequestEPNS_33QContactRelationshipRemoveRequestENS_15QContactManager5ErrorERK4QMapIiS4_ENS_23QContactAbstractRequest5StateE@QtContacts{00010103}[2002ac7a].dll  - Undefined Reference
    QtMobility::QContactManagerEngine::updateContactLocalIdFetchRequest(QtMobility::QContactLocalIdFetchRequest*, const QList<unsigned>&, QtMobility::QContactManager::Error, QtMobility::QContactAbstractRequest::State)  - Undefined Reference
    _ZN10QtMobility21QContactManagerEngine32updateContactLocalIdFetchRequestEPNS_27QContactLocalIdFetchRequestERK5QListIjENS_15QContactManager5ErrorENS_23QContactAbstractRequest5StateE@QtContacts{00010103}[2002ac7a].dll  - Undefined Reference
    QtMobility::QContactOnlineAccount::SubTypeSip  - Undefined Reference
    _ZN10QtMobility21QContactOnlineAccount10SubTypeSipE@QtContacts{00010103}[2002ac7a].dll  - Undefined Reference
    QtMobility::QContactOnlineAccount::FieldSubTypes  - Undefined Reference
    _ZN10QtMobility21QContactOnlineAccount13FieldSubTypesE@QtContacts{00010103}[2002ac7a].dll  - Undefined Reference
    QtMobility::QContactOnlineAccount::DefinitionName  - Undefined Reference
    _ZN10QtMobility21QContactOnlineAccount14DefinitionNameE@QtContacts{00010103}[2002ac7a].dll  - Undefined Reference
    QtMobility::QContactOnlineAccount::SubTypeSipVoip  - Undefined Reference
    _ZN10QtMobility21QContactOnlineAccount14SubTypeSipVoipE@QtContacts{00010103}[2002ac7a].dll  - Undefined Reference
    QtMobility::QContactOnlineAccount::FieldAccountUri  - Undefined Reference
    _ZN10QtMobility21QContactOnlineAccount15FieldAccountUriE@QtContacts{00010103}[2002ac7a].dll  - Undefined Reference
    QtMobility::QContactOnlineAccount::FieldCapabilities  - Undefined Reference
    _ZN10QtMobility21QContactOnlineAccount17FieldCapabilitiesE@QtContacts{00010103}[2002ac7a].dll  - Undefined Reference
    QtMobility::QContactOnlineAccount::SubTypeVideoShare  - Undefined Reference
    _ZN10QtMobility21QContactOnlineAccount17SubTypeVideoShareE@QtContacts{00010103}[2002ac7a].dll  - Undefined Reference
    QtMobility::QContactOnlineAccount::FieldServiceProvider  - Undefined Reference
    _ZN10QtMobility21QContactOnlineAccount20FieldServiceProviderE@QtContacts{00010103}[2002ac7a].dll  - Undefined Reference
    QtMobility::QContactGlobalPresence::DefinitionName  - Undefined Reference
    _ZN10QtMobility22QContactGlobalPresence14DefinitionNameE@QtContacts{00010103}[2002ac7a].dll  - Undefined Reference
    QtMobility::QContactDetailDefinition::setName(const QString&)  - Undefined Reference
    _ZN10QtMobility24QContactDetailDefinition7setNameERK7QString@QtContacts{00010103}[2002ac7a].dll  - Undefined Reference
    QtMobility::QContactDetailDefinition::setFields(const QMap<QString, QtMobility::QContactDetailFieldDefinition>&)  - Undefined Reference
    _ZN10QtMobility24QContactDetailDefinition9setFieldsERK4QMapI7QStringNS_29QContactDetailFieldDefinitionEE@QtContacts{00010103}[2002ac7a].dll  - Undefined Reference
    QtMobility::QContactDetailDefinition::setUnique(bool)  - Undefined Reference
    _ZN10QtMobility24QContactDetailDefinition9setUniqueEb@QtContacts{00010103}[2002ac7a].dll  - Undefined Reference
    QtMobility::QContactDetailDefinition::QContactDetailDefinition(const QtMobility::QContactDetailDefinition&)  - Undefined Reference
    _ZN10QtMobility24QContactDetailDefinitionC1ERKS0_@QtContacts{00010103}[2002ac7a].dll  - Undefined Reference
    QtMobility::QContactDetailDefinition::QContactDetailDefinition()  - Undefined Reference
    _ZN10QtMobility24QContactDetailDefinitionC1Ev@QtContacts{00010103}[2002ac7a].dll  - Undefined Reference
    QtMobility::QContactDetailDefinition::~QContactDetailDefinition()  - Undefined Reference
    _ZN10QtMobility24QContactDetailDefinitionD1Ev@QtContacts{00010103}[2002ac7a].dll  - Undefined Reference
    QtMobility::QContactDetailDefinition::operator =(const QtMobility::QContactDetailDefinition&)  - Undefined Reference
    _ZN10QtMobility24QContactDetailDefinitionaSERKS0_@QtContacts{00010103}[2002ac7a].dll  - Undefined Reference
    QtMobility::QContactIntersectionFilter::append(const QtMobility::QContactFilter&)  - Undefined Reference
    _ZN10QtMobility26QContactIntersectionFilter6appendERKNS_14QContactFilterE@QtContacts{00010103}[2002ac7a].dll  - Undefined Reference
    QtMobility::QContactIntersectionFilter::QContactIntersectionFilter(const QtMobility::QContactFilter&)  - Undefined Reference
    _ZN10QtMobility26QContactIntersectionFilterC1ERKNS_14QContactFilterE@QtContacts{00010103}[2002ac7a].dll  - Undefined Reference
    QtMobility::QContactIntersectionFilter::QContactIntersectionFilter()  - Undefined Reference
    _ZN10QtMobility26QContactIntersectionFilterC1Ev@QtContacts{00010103}[2002ac7a].dll  - Undefined Reference
    QtMobility::QContactRelationshipFilter::QContactRelationshipFilter(const QtMobility::QContactFilter&)  - Undefined Reference
    _ZN10QtMobility26QContactRelationshipFilterC1ERKNS_14QContactFilterE@QtContacts{00010103}[2002ac7a].dll  - Undefined Reference
    QtMobility::QContactManagerEngineFactory::~QContactManagerEngineFactory__sub_object()  - Undefined Reference
    _ZN10QtMobility28QContactManagerEngineFactoryD2Ev@QtContacts{00010103}[2002ac7a].dll  - Undefined Reference
    QtMobility::QContactDetailFieldDefinition::setDataType(QVariant::Type)  - Undefined Reference
    _ZN10QtMobility29QContactDetailFieldDefinition11setDataTypeEN8QVariant4TypeE@QtContacts{00010103}[2002ac7a].dll  - Undefined Reference
    QtMobility::QContactDetailFieldDefinition::setAllowableValues(QList<QVariant>)  - Undefined Reference
    _ZN10QtMobility29QContactDetailFieldDefinition18setAllowableValuesE5QListI8QVariantE@QtContacts{00010103}[2002ac7a].dll  - Undefined Reference
    QtMobility::QContactDetailFieldDefinition::QContactDetailFieldDefinition(const QtMobility::QContactDetailFieldDefinition&)  - Undefined Reference
    _ZN10QtMobility29QContactDetailFieldDefinitionC1ERKS0_@QtContacts{00010103}[2002ac7a].dll  - Undefined Reference
    QtMobility::QContactDetailFieldDefinition::QContactDetailFieldDefinition()  - Undefined Reference
    _ZN10QtMobility29QContactDetailFieldDefinitionC1Ev@QtContacts{00010103}[2002ac7a].dll  - Undefined Reference
    QtMobility::QContactDetailFieldDefinition::~QContactDetailFieldDefinition()  - Undefined Reference
    _ZN10QtMobility29QContactDetailFieldDefinitionD1Ev@QtContacts{00010103}[2002ac7a].dll  - Undefined Reference
    QtMobility::QContactDetailFieldDefinition::operator =(const QtMobility::QContactDetailFieldDefinition&)  - Undefined Reference
    _ZN10QtMobility29QContactDetailFieldDefinitionaSERKS0_@QtContacts{00010103}[2002ac7a].dll  - Undefined Reference
    QtMobility::QContact::saveDetail(QtMobility::QContactDetail*)  - Undefined Reference
    _ZN10QtMobility8QContact10saveDetailEPNS_14QContactDetailE@QtContacts{00010103}[2002ac7a].dll  - Undefined Reference
    QtMobility::QContact::clearDetails()      - Undefined Reference
    _ZN10QtMobility8QContact12clearDetailsEv@QtContacts{00010103}[2002ac7a].dll  - Undefined Reference
    QtMobility::QContact::removeDetail(QtMobility::QContactDetail*)  - Undefined Reference
    _ZN10QtMobility8QContact12removeDetailEPNS_14QContactDetailE@QtContacts{00010103}[2002ac7a].dll  - Undefined Reference
    QtMobility::QContact::setPreferredDetail(const QString&, const QtMobility::QContactDetail&)  - Undefined Reference
    _ZN10QtMobility8QContact18setPreferredDetailERK7QStringRKNS_14QContactDetailE@QtContacts{00010103}[2002ac7a].dll  - Undefined Reference
    QtMobility::QContact::setId(const QtMobility::QContactId&)  - Undefined Reference
    _ZN10QtMobility8QContact5setIdERKNS_10QContactIdE@QtContacts{00010103}[2002ac7a].dll  - Undefined Reference
    QtMobility::QContact::setType(const QString&)  - Undefined Reference
    _ZN10QtMobility8QContact7setTypeERK7QString@QtContacts{00010103}[2002ac7a].dll  - Undefined Reference
    QtMobility::QContact::QContact(const QtMobility::QContact&)  - Undefined Reference
    _ZN10QtMobility8QContactC1ERKS0_@QtContacts{00010103}[2002ac7a].dll  - Undefined Reference
    QtMobility::QContact::QContact()          - Undefined Reference
    _ZN10QtMobility8QContactC1Ev@QtContacts{00010103}[2002ac7a].dll  - Undefined Reference
    QtMobility::QContact::~QContact()         - Undefined Reference
    _ZN10QtMobility8QContactD1Ev@QtContacts{00010103}[2002ac7a].dll  - Undefined Reference
    QtMobility::QContact::operator =(const QtMobility::QContact&)  - Undefined Reference
    _ZN10QtMobility8QContactaSERKS0_@QtContacts{00010103}[2002ac7a].dll  - Undefined Reference
    TBufBase16::TBufBase16(int)               - Undefined Reference
    _ZN10TBufBase16C1Ei@euser{000a0000}[100039e5].dll  - Undefined Reference
    CRepository::NotifyCancel(unsigned long)  - Undefined Reference
    _ZN11CRepository12NotifyCancelEm@centralrepository{000a0000}[101fbc70].dll  - Undefined Reference
    CRepository::NotifyRequest(unsigned long, TRequestStatus&)  - Undefined Reference
    _ZN11CRepository13NotifyRequestEmR14TRequestStatus@centralrepository{000a0000}[101fbc70].dll  - Undefined Reference
    CRepository::Get(unsigned long, int&)     - Undefined Reference
    _ZN11CRepository3GetEmRi@centralrepository{000a0000}[101fbc70].dll  - Undefined Reference
    CRepository::NewL(TUid)                   - Undefined Reference
    _ZN11CRepository4NewLE4TUid@centralrepository{000a0000}[101fbc70].dll  - Undefined Reference
    ContactGuid::GetCreationDate(TDes16&, long long)  - Undefined Reference
    _ZN11ContactGuid15GetCreationDateER6TDes16x@cntmodel{000a0000}[10003a71].dll  - Undefined Reference
    QMetaObject::changeGuard(QObject**, QObject*)  - Undefined Reference
    _ZN11QMetaObject11changeGuardEPP7QObjectS1_@QtCore{00040703}[2001b2dc].dll  - Undefined Reference
    QMetaObject::removeGuard(QObject**)       - Undefined Reference
    _ZN11QMetaObject11removeGuardEPP7QObject@QtCore{00040703}[2001b2dc].dll  - Undefined Reference
    QMetaObject::activate(QObject*, const QMetaObject*, int, void**)  - Undefined Reference
    _ZN11QMetaObject8activateEP7QObjectPKS_iPPv@QtCore{00040703}[2001b2dc].dll  - Undefined Reference
    RHandleBase::Close()                      - Undefined Reference
    _ZN11RHandleBase5CloseEv@euser{000a0000}[100039e5].dll  - Undefined Reference
    RReadStream::ReadInt32L()                 - Undefined Reference
    _ZN11RReadStream10ReadInt32LEv@estor{000a0000}[10003b0d].dll  - Undefined Reference
    CContactCard::NewLC()                     - Undefined Reference
    _ZN12CContactCard5NewLCEv@cntmodel{000a0000}[10003a71].dll  - Undefined Reference
    CContactItem::UpdateFieldSet(CContactItemFieldSet*)  - Undefined Reference
    _ZN12CContactItem14UpdateFieldSetEP20CContactItemFieldSet@cntmodel{000a0000}[10003a71].dll  - Undefined Reference
    CTzConverter::ConvertToLocalTime(TTime&)  - Undefined Reference
    _ZN12CTzConverter18ConvertToLocalTimeER5TTime@tzclient{000a0000}[1020383d].dll  - Undefined Reference
    CTzConverter::NewL(RTz&)                  - Undefined Reference
    _ZN12CTzConverter4NewLER3RTz@tzclient{000a0000}[1020383d].dll  - Undefined Reference
    CleanupStack::PopAndDestroy(int)          - Undefined Reference
    _ZN12CleanupStack13PopAndDestroyEi@euser{000a0000}[100039e5].dll  - Undefined Reference
    CleanupStack::PopAndDestroy()             - Undefined Reference
    _ZN12CleanupStack13PopAndDestroyEv@euser{000a0000}[100039e5].dll  - Undefined Reference
    CleanupStack::Pop()                       - Undefined Reference
    _ZN12CleanupStack3PopEv@euser{000a0000}[100039e5].dll  - Undefined Reference
    CleanupStack::Check(void*)                - Undefined Reference
    _ZN12CleanupStack5CheckEPv@euser{000a0000}[100039e5].dll  - Undefined Reference
    CleanupStack::PushL(CBase*)               - Undefined Reference
    _ZN12CleanupStack5PushLEP5CBase@euser{000a0000}[100039e5].dll  - Undefined Reference
    CleanupStack::PushL(void*)                - Undefined Reference
    _ZN12CleanupStack5PushLEPv@euser{000a0000}[100039e5].dll  - Undefined Reference
    RSessionBase::CreateSession(const TDesC16&, const TVersion&, int)  - Undefined Reference
    _ZN12RSessionBase13CreateSessionERK7TDesC16RK8TVersioni@euser{000a0000}[100039e5].dll  - Undefined Reference
    CArrayFixBase::SetReserveFlatL(int)       - Undefined Reference
    _ZN13CArrayFixBase15SetReserveFlatLEi@euser{000a0000}[100039e5].dll  - Undefined Reference
    CArrayFixBase::Delete(int)                - Undefined Reference
    _ZN13CArrayFixBase6DeleteEi@euser{000a0000}[100039e5].dll  - Undefined Reference
    CArrayFixBase::InsertL(int, const void*)  - Undefined Reference
    _ZN13CArrayFixBase7InsertLEiPKv@euser{000a0000}[100039e5].dll  - Undefined Reference
    CArrayFixBase::CArrayFixBase(CBufBase*(*)(int), int, int)  - Undefined Reference
    _ZN13CArrayFixBaseC1EPFP8CBufBaseiEii@euser{000a0000}[100039e5].dll  - Undefined Reference
    CArrayFixBase::~CArrayFixBase()           - Undefined Reference
    _ZN13CArrayFixBaseD1Ev@euser{000a0000}[100039e5].dll  - Undefined Reference
    CArrayFixFlat<TUid>::CArrayFixFlat(int)   - Undefined Reference
    _ZN13CArrayFixFlatI4TUidEC1Ei@euser{000a0000}[100039e5].dll  - Undefined Reference
    CArrayFixFlat<TUid>::~CArrayFixFlat()     - Undefined Reference
    _ZN13CArrayFixFlatI4TUidED1Ev@euser{000a0000}[100039e5].dll  - Undefined Reference
    CBitmapScaler::NewL()                     - Undefined Reference
    _ZN13CBitmapScaler4NewLEv@bitmaptransforms{000a0000}[101f45ec].dll  - Undefined Reference
    CBitmapScaler::Scale(TRequestStatus*, CFbsBitmap&, const TSize&, int)  - Undefined Reference
    _ZN13CBitmapScaler5ScaleEP14TRequestStatusR10CFbsBitmapRK5TSizei@bitmaptransforms{000a0000}[101f45ec].dll  - Undefined Reference
    CImageDecoder::FileNewL(RFs&, const TDesC16&, CImageDecoder::TOptions, TUid, TUid, TUid)  - Undefined Reference
    _ZN13CImageDecoder8FileNewLER3RFsRK7TDesC16NS_8TOptionsE4TUidS6_S6_@imageconversion{000a0000}[101f45ad].dll  - Undefined Reference
    CImageEncoder::Convert(TRequestStatus*, const CFbsBitmap&, const CFrameImageData*)  - Undefined Reference
    _ZN13CImageEncoder7ConvertEP14TRequestStatusRK10CFbsBitmapPK15CFrameImageData@imageconversion{000a0000}[101f45ad].dll  - Undefined Reference
    CImageEncoder::DataNewL(HBufC8*&, CImageEncoder::TOptions, TUid, TUid, TUid)  - Undefined Reference
    _ZN13CImageEncoder8DataNewLERP6HBufC8NS_8TOptionsE4TUidS4_S4_@imageconversion{000a0000}[101f45ad].dll  - Undefined Reference
    RBufReadStream::Open(const CBufBase&, int)  - Undefined Reference
    _ZN14RBufReadStream4OpenERK8CBufBasei@estor{000a0000}[10003b0d].dll  - Undefined Reference
    CContactIdArray::AddL(long)               - Undefined Reference
    _ZN15CContactIdArray4AddLEl@cntmodel{000a0000}[10003a71].dll  - Undefined Reference
    CContactIdArray::NewL(const CContactIdArray*)  - Undefined Reference
    _ZN15CContactIdArray4NewLEPKS_@cntmodel{000a0000}[10003a71].dll  - Undefined Reference
    CContactIdArray::NewLC()                  - Undefined Reference
    _ZN15CContactIdArray5NewLCEv@cntmodel{000a0000}[10003a71].dll  - Undefined Reference
    CActiveScheduler::Add(CActive*)           - Undefined Reference
    _ZN16CActiveScheduler3AddEP7CActive@euser{000a0000}[100039e5].dll  - Undefined Reference
    CContactDatabase::SortArrayL(const CContactIdArray*, const CArrayFix<CContactDatabase::TSortPref>*)  - Undefined Reference
    _ZN16CContactDatabase10SortArrayLEPK15CContactIdArrayPK9CArrayFixINS_9TSortPrefEE@cntmodel{000a0000}[10003a71].dll  - Undefined Reference
    CContactDatabase::SetOwnCardL(const CContactItem&)  - Undefined Reference
    _ZN16CContactDatabase11SetOwnCardLERK12CContactItem@cntmodel{000a0000}[10003a71].dll  - Undefined Reference
    CContactDatabase::ReadContactL(long)      - Undefined Reference
    _ZN16CContactDatabase12ReadContactLEl@cntmodel{000a0000}[10003a71].dll  - Undefined Reference
    CContactDatabase::ReadContactL(long, const CContactItemViewDef&)  - Undefined Reference
    _ZN16CContactDatabase12ReadContactLElRK19CContactItemViewDef@cntmodel{000a0000}[10003a71].dll  - Undefined Reference
    CContactDatabase::OpenContactLX(long)     - Undefined Reference
    _ZN16CContactDatabase13OpenContactLXEl@cntmodel{000a0000}[10003a71].dll  - Undefined Reference
    CContactDatabase::ReadContactLC(long)     - Undefined Reference
    _ZN16CContactDatabase13ReadContactLCEl@cntmodel{000a0000}[10003a71].dll  - Undefined Reference
    CContactDatabase::AddNewContactL(CContactItem&)  - Undefined Reference
    _ZN16CContactDatabase14AddNewContactLER12CContactItem@cntmodel{000a0000}[10003a71].dll  - Undefined Reference
    CContactDatabase::CommitContactL(const CContactItem&)  - Undefined Reference
    _ZN16CContactDatabase14CommitContactLERK12CContactItem@cntmodel{000a0000}[10003a71].dll  - Undefined Reference
    CContactDatabase::DeleteContactL(long)    - Undefined Reference
    _ZN16CContactDatabase14DeleteContactLEl@cntmodel{000a0000}[10003a71].dll  - Undefined Reference
    CContactDatabase::MatchPhoneNumberL(const TDesC16&, int)  - Undefined Reference
    _ZN16CContactDatabase17MatchPhoneNumberLERK7TDesC16i@cntmodel{000a0000}[10003a71].dll  - Undefined Reference
    CContactDatabase::AddContactToGroupL(long, long)  - Undefined Reference
    _ZN16CContactDatabase18AddContactToGroupLEll@cntmodel{000a0000}[10003a71].dll  - Undefined Reference
    CContactDatabase::ReadMinimalContactL(long)  - Undefined Reference
    _ZN16CContactDatabase19ReadMinimalContactLEl@cntmodel{000a0000}[10003a71].dll  - Undefined Reference
    CContactDatabase::CreateContactGroupLC(int)  - Undefined Reference
    _ZN16CContactDatabase20CreateContactGroupLCEi@cntmodel{000a0000}[10003a71].dll  - Undefined Reference
    CContactDatabase::ContactsChangedSinceL(const TTime&)  - Undefined Reference
    _ZN16CContactDatabase21ContactsChangedSinceLERK5TTime@cntmodel{000a0000}[10003a71].dll  - Undefined Reference
    CContactDatabase::RemoveContactFromGroupL(long, long)  - Undefined Reference
    _ZN16CContactDatabase23RemoveContactFromGroupLEll@cntmodel{000a0000}[10003a71].dll  - Undefined Reference
    CContactDatabase::OpenL(CContactDatabase::TThreadAccess)  - Undefined Reference
    _ZN16CContactDatabase5OpenLENS_13TThreadAccessE@cntmodel{000a0000}[10003a71].dll  - Undefined Reference
    CContactDatabase::FindLC(const TDesC16&, const CContactItemFieldDef*)  - Undefined Reference
    _ZN16CContactDatabase6FindLCERK7TDesC16PK20CContactItemFieldDef@cntmodel{000a0000}[10003a71].dll  - Undefined Reference
    CContactDatabase::CreateL(CContactDatabase::TThreadAccess)  - Undefined Reference
    _ZN16CContactDatabase7CreateLENS_13TThreadAccessE@cntmodel{000a0000}[10003a71].dll  - Undefined Reference
    CContactDateField::SetTime(TDateTime)     - Undefined Reference
    _ZN17CContactDateField7SetTimeE9TDateTime@cntmodel{000a0000}[10003a71].dll  - Undefined Reference
    CContactItemField::SetMapping(TUid)       - Undefined Reference
    _ZN17CContactItemField10SetMappingE4TUid@cntmodel{000a0000}[10003a71].dll  - Undefined Reference
    CContactItemField::AddFieldTypeL(TUid)    - Undefined Reference
    _ZN17CContactItemField13AddFieldTypeLE4TUid@cntmodel{000a0000}[10003a71].dll  - Undefined Reference
    CContactItemField::NewL(const CContactItemField&)  - Undefined Reference
    _ZN17CContactItemField4NewLERKS_@cntmodel{000a0000}[10003a71].dll  - Undefined Reference
    CContactItemField::NewLC(const CContactItemField&)  - Undefined Reference
    _ZN17CContactItemField5NewLCERKS_@cntmodel{000a0000}[10003a71].dll  - Undefined Reference
    CContactItemField::NewLC(unsigned)        - Undefined Reference
    CContactItemField::NewLC(unsigned, TUid)  - Undefined Reference
    _ZN17CContactItemField5NewLCEj4TUid@cntmodel{000a0000}[10003a71].dll  - Undefined Reference
    _ZN17CContactItemField5NewLCEj@cntmodel{000a0000}[10003a71].dll  - Undefined Reference
    CContactTextField::SetTextL(const TDesC16&)  - Undefined Reference
    _ZN17CContactTextField8SetTextLERK7TDesC16@cntmodel{000a0000}[10003a71].dll  - Undefined Reference
    CContactStoreField::SetThingL(const HBufC8&)  - Undefined Reference
    _ZN18CContactStoreField9SetThingLERK6HBufC8@cntmodel{000a0000}[10003a71].dll  - Undefined Reference
    CContactItemViewDef::AddL(TUid)           - Undefined Reference
    _ZN19CContactItemViewDef4AddLE4TUid@cntmodel{000a0000}[10003a71].dll  - Undefined Reference
    CContactItemViewDef::NewLC(CContactItemViewDef::TUse, CContactItemViewDef::TMode)  - Undefined Reference
    _ZN19CContactItemViewDef5NewLCENS_4TUseENS_5TModeE@cntmodel{000a0000}[10003a71].dll  - Undefined Reference
    CActiveSchedulerWait::Start()             - Undefined Reference
    _ZN20CActiveSchedulerWait5StartEv@euser{000a0000}[100039e5].dll  - Undefined Reference
    CActiveSchedulerWait::AsyncStop()         - Undefined Reference
    _ZN20CActiveSchedulerWait9AsyncStopEv@euser{000a0000}[100039e5].dll  - Undefined Reference
    CActiveSchedulerWait::CActiveSchedulerWait()  - Undefined Reference
    _ZN20CActiveSchedulerWaitC1Ev@euser{000a0000}[100039e5].dll  - Undefined Reference
    CContactItemFieldSet::AddL(CContactItemField&)  - Undefined Reference
    _ZN20CContactItemFieldSet4AddLER17CContactItemField@cntmodel{000a0000}[10003a71].dll  - Undefined Reference
    CContactItemFieldSet::NewLC()             - Undefined Reference
    _ZN20CContactItemFieldSet5NewLCEv@cntmodel{000a0000}[10003a71].dll  - Undefined Reference
    CContactChangeNotifier::NewL(CContactDatabase&, MContactDbObserver*)  - Undefined Reference
    _ZN22CContactChangeNotifier4NewLER16CContactDatabaseP18MContactDbObserver@cntmodel{000a0000}[10003a71].dll  - Undefined Reference
    RFs::Close()                              - Undefined Reference
    _ZN3RFs5CloseEv@efsrv{000a0000}[100039e4].dll  - Undefined Reference
    RFs::Connect(int)                         - Undefined Reference
    _ZN3RFs7ConnectEi@efsrv{000a0000}[100039e4].dll  - Undefined Reference
    RTz::Close()                              - Undefined Reference
    _ZN3RTz5CloseEv@tzclient{000a0000}[1020383d].dll  - Undefined Reference
    RTz::Connect()                            - Undefined Reference
    _ZN3RTz7ConnectEv@tzclient{000a0000}[1020383d].dll  - Undefined Reference
    RTz::RTz()                                - Undefined Reference
    _ZN3RTzC1Ev@tzclient{000a0000}[1020383d].dll  - Undefined Reference
    RTz::~RTz()                               - Undefined Reference
    _ZN3RTzD1Ev@tzclient{000a0000}[1020383d].dll  - Undefined Reference
    QUrl::fromUserInput(const QString&)       - Undefined Reference
    _ZN4QUrl13fromUserInputERK7QString@QtCore{00040703}[2001b2dc].dll  - Undefined Reference
    QUrl::QUrl(const QString&)                - Undefined Reference
    _ZN4QUrlC1ERK7QString@QtCore{00040703}[2001b2dc].dll  - Undefined Reference
    QUrl::QUrl(const QUrl&)                   - Undefined Reference
    _ZN4QUrlC1ERKS_@QtCore{00040703}[2001b2dc].dll  - Undefined Reference
    QUrl::QUrl()                              - Undefined Reference
    _ZN4QUrlC1Ev@QtCore{00040703}[2001b2dc].dll  - Undefined Reference
    QUrl::~QUrl()                             - Undefined Reference
    _ZN4QUrlD1Ev@QtCore{00040703}[2001b2dc].dll  - Undefined Reference
    User::LeaveIfNull(void*)                  - Undefined Reference
    _ZN4User11LeaveIfNullEPv@euser{000a0000}[100039e5].dll  - Undefined Reference
    User::LeaveIfError(int)                   - Undefined Reference
    _ZN4User12LeaveIfErrorEi@euser{000a0000}[100039e5].dll  - Undefined Reference
    User::WaitForRequest(TRequestStatus&)     - Undefined Reference
    _ZN4User14WaitForRequestER14TRequestStatus@euser{000a0000}[100039e5].dll  - Undefined Reference
    User::RequestComplete(TRequestStatus*&, int)  - Undefined Reference
    _ZN4User15RequestCompleteERP14TRequestStatusi@euser{000a0000}[100039e5].dll  - Undefined Reference
    User::MarkCleanupStack()                  - Undefined Reference
    _ZN4User16MarkCleanupStackEv@euser{000a0000}[100039e5].dll  - Undefined Reference
    User::UnMarkCleanupStack(TTrapHandler*)   - Undefined Reference
    _ZN4User18UnMarkCleanupStackEP12TTrapHandler@euser{000a0000}[100039e5].dll  - Undefined Reference
    User::Leave(int)                          - Undefined Reference
    _ZN4User5LeaveEi@euser{000a0000}[100039e5].dll  - Undefined Reference
    User::Panic(const TDesC16&, int)          - Undefined Reference
    _ZN4User5PanicERK7TDesC16i@euser{000a0000}[100039e5].dll  - Undefined Reference
    User::AllocZ(int)                         - Undefined Reference
    _ZN4User6AllocZEi@euser{000a0000}[100039e5].dll  - Undefined Reference
    User::AllocZL(int)                        - Undefined Reference
    _ZN4User7AllocZLEi@euser{000a0000}[100039e5].dll  - Undefined Reference
    User::Invariant()                         - Undefined Reference
    _ZN4User9InvariantEv@euser{000a0000}[100039e5].dll  - Undefined Reference
    User::LockedDec(int&)                     - Undefined Reference
    _ZN4User9LockedDecERi@euser{000a0000}[100039e5].dll  - Undefined Reference
    User::LockedInc(int&)                     - Undefined Reference
    _ZN4User9LockedIncERi@euser{000a0000}[100039e5].dll  - Undefined Reference
    CBase::Extension_(unsigned, void*&, void*)  - Undefined Reference
    _ZN5CBase10Extension_EjRPvS0_@euser{000a0000}[100039e5].dll  - Undefined Reference
    QChar::fromAscii(char)                    - Undefined Reference
    _ZN5QChar9fromAsciiEc@QtCore{00040703}[2001b2dc].dll  - Undefined Reference
    QChar::QChar(char)                        - Undefined Reference
    _ZN5QCharC1Ec@QtCore{00040703}[2001b2dc].dll  - Undefined Reference
    QDate::QDate(int, int, int)               - Undefined Reference
    _ZN5QDateC1Eiii@QtCore{00040703}[2001b2dc].dll  - Undefined Reference
    TPtr8::TPtr8(unsigned char*, int, int)    - Undefined Reference
    _ZN5TPtr8C1EPhii@euser{000a0000}[100039e5].dll  - Undefined Reference
    QImage::loadFromData(const unsigned char*, int, const char*)  - Undefined Reference
    _ZN6QImage12loadFromDataEPKhiPKc@QtGui{00040703}[2001b2dd].dll  - Undefined Reference
    QImage::QImage(const QImage&)             - Undefined Reference
    _ZN6QImageC1ERKS_@QtGui{00040703}[2001b2dd].dll  - Undefined Reference
    QImage::QImage()                          - Undefined Reference
    _ZN6QImageC1Ev@QtGui{00040703}[2001b2dd].dll  - Undefined Reference
    QImage::~QImage()                         - Undefined Reference
    _ZN6QImageD1Ev@QtGui{00040703}[2001b2dd].dll  - Undefined Reference
    QTimer::singleShot(int, QObject*, const char*)  - Undefined Reference
    _ZN6QTimer10singleShotEiP7QObjectPKc@QtCore{00040703}[2001b2dc].dll  - Undefined Reference
    TDes16::Copy(const TDesC16&)              - Undefined Reference
    _ZN6TDes164CopyERK7TDesC16@euser{000a0000}[100039e5].dll  - Undefined Reference
    TDes16::Append(TChar)                     - Undefined Reference
    _ZN6TDes166AppendE5TChar@euser{000a0000}[100039e5].dll  - Undefined Reference
    TDes16::Delete(int, int)                  - Undefined Reference
    _ZN6TDes166DeleteEii@euser{000a0000}[100039e5].dll  - Undefined Reference
    TDes16::Format(TRefByValue<const TDesC16>, ...)  - Undefined Reference
    _ZN6TDes166FormatE11TRefByValueIK7TDesC16Ez@euser{000a0000}[100039e5].dll  - Undefined Reference
    TLex16::Val(long&)                        - Undefined Reference
    _ZN6TLex163ValERl@euser{000a0000}[100039e5].dll  - Undefined Reference
    TLex16::Val(long long&, TRadix)           - Undefined Reference
    _ZN6TLex163ValERx6TRadix@euser{000a0000}[100039e5].dll  - Undefined Reference
    TLex16::Assign(const TDesC16&)            - Undefined Reference
    _ZN6TLex166AssignERK7TDesC16@euser{000a0000}[100039e5].dll  - Undefined Reference
    CActive::Extension_(unsigned, void*&, void*)  - Undefined Reference
    _ZN7CActive10Extension_EjRPvS0_@euser{000a0000}[100039e5].dll  - Undefined Reference
    CActive::Cancel()                         - Undefined Reference
    _ZN7CActive6CancelEv@euser{000a0000}[100039e5].dll  - Undefined Reference
    CActive::SetActive()                      - Undefined Reference
    _ZN7CActive9SetActiveEv@euser{000a0000}[100039e5].dll  - Undefined Reference
    CActive::CActive__sub_object(int)         - Undefined Reference
    _ZN7CActiveC2Ei@euser{000a0000}[100039e5].dll  - Undefined Reference
    CActive::~CActive__sub_object()           - Undefined Reference
    _ZN7CActiveD2Ev@euser{000a0000}[100039e5].dll  - Undefined Reference
    HBufC16::Des()                            - Undefined Reference
    _ZN7HBufC163DesEv@euser{000a0000}[100039e5].dll  - Undefined Reference
    QObject::childEvent(QChildEvent*)         - Undefined Reference
    _ZN7QObject10childEventEP11QChildEvent@QtCore{00040703}[2001b2dc].dll  - Undefined Reference
    QObject::timerEvent(QTimerEvent*)         - Undefined Reference
    _ZN7QObject10timerEventEP11QTimerEvent@QtCore{00040703}[2001b2dc].dll  - Undefined Reference
    QObject::customEvent(QEvent*)             - Undefined Reference
    _ZN7QObject11customEventEP6QEvent@QtCore{00040703}[2001b2dc].dll  - Undefined Reference
    QObject::eventFilter(QObject*, QEvent*)   - Undefined Reference
    _ZN7QObject11eventFilterEPS_P6QEvent@QtCore{00040703}[2001b2dc].dll  - Undefined Reference
    QObject::qt_metacall(QMetaObject::Call, int, void**)  - Undefined Reference
    _ZN7QObject11qt_metacallEN11QMetaObject4CallEiPPv@QtCore{00040703}[2001b2dc].dll  - Undefined Reference
    QObject::qt_metacast(const char*)         - Undefined Reference
    _ZN7QObject11qt_metacastEPKc@QtCore{00040703}[2001b2dc].dll  - Undefined Reference
    QObject::connectNotify(const char*)       - Undefined Reference
    _ZN7QObject13connectNotifyEPKc@QtCore{00040703}[2001b2dc].dll  - Undefined Reference
    QObject::disconnectNotify(const char*)    - Undefined Reference
    _ZN7QObject16disconnectNotifyEPKc@QtCore{00040703}[2001b2dc].dll  - Undefined Reference
    QObject::staticMetaObject                 - Undefined Reference
    _ZN7QObject16staticMetaObjectE@QtCore{00040703}[2001b2dc].dll  - Undefined Reference
    QObject::event(QEvent*)                   - Undefined Reference
    _ZN7QObject5eventEP6QEvent@QtCore{00040703}[2001b2dc].dll  - Undefined Reference
    QObject::connect(const QObject*, const char*, const QObject*, const char*, Qt::ConnectionType)  - Undefined Reference
    _ZN7QObject7connectEPKS_PKcS1_S3_N2Qt14ConnectionTypeE@QtCore{00040703}[2001b2dc].dll  - Undefined Reference
    QObject::QObject(QObject*)                - Undefined Reference
    _ZN7QObjectC1EPS_@QtCore{00040703}[2001b2dc].dll  - Undefined Reference
    QObject::~QObject()                       - Undefined Reference
    _ZN7QObjectD1Ev@QtCore{00040703}[2001b2dc].dll  - Undefined Reference
    QPixmap::fromImage(const QImage&, QFlags<Qt::ImageConversionFlag>)  - Undefined Reference
    _ZN7QPixmap9fromImageERK6QImage6QFlagsIN2Qt19ImageConversionFlagEE@QtGui{00040703}[2001b2dd].dll  - Undefined Reference
    QPixmap::~QPixmap()                       - Undefined Reference
    _ZN7QPixmapD1Ev@QtGui{00040703}[2001b2dd].dll  - Undefined Reference
    QString::fromLatin1(const char*, int)     - Undefined Reference
    _ZN7QString10fromLatin1EPKci@QtCore{00040703}[2001b2dc].dll  - Undefined Reference
    QString::shared_null                      - Undefined Reference
    _ZN7QString11shared_nullE@QtCore{00040703}[2001b2dc].dll  - Undefined Reference
    QString::fromAscii_helper(const char*, int)  - Undefined Reference
    _ZN7QString16fromAscii_helperEPKci@QtCore{00040703}[2001b2dc].dll  - Undefined Reference
    QString::fromLatin1_helper(const char*, int)  - Undefined Reference
    _ZN7QString17fromLatin1_helperEPKci@QtCore{00040703}[2001b2dc].dll  - Undefined Reference
    QString::free(QString::Data*)             - Undefined Reference
    _ZN7QString4freeEPNS_4DataE@QtCore{00040703}[2001b2dc].dll  - Undefined Reference
    QString::grow(int)                        - Undefined Reference
    _ZN7QString4growEi@QtCore{00040703}[2001b2dc].dll  - Undefined Reference
    QString::append(QChar)                    - Undefined Reference
    _ZN7QString6appendE5QChar@QtCore{00040703}[2001b2dc].dll  - Undefined Reference
    QString::append(const QString&)           - Undefined Reference
    _ZN7QString6appendERKS_@QtCore{00040703}[2001b2dc].dll  - Undefined Reference
    QString::insert(int, QChar)               - Undefined Reference
    _ZN7QString6insertEi5QChar@QtCore{00040703}[2001b2dc].dll  - Undefined Reference
    QString::number(double, char, int)        - Undefined Reference
    _ZN7QString6numberEdci@QtCore{00040703}[2001b2dc].dll  - Undefined Reference
    QString::realloc(int)                     - Undefined Reference
    _ZN7QString7reallocEi@QtCore{00040703}[2001b2dc].dll  - Undefined Reference
    QString::replace(const QString&, const QString&, Qt::CaseSensitivity)  - Undefined Reference
    _ZN7QString7replaceERKS_S1_N2Qt15CaseSensitivityE@QtCore{00040703}[2001b2dc].dll  - Undefined Reference
    QString::fromAscii(const char*, int)      - Undefined Reference
    _ZN7QString9fromAsciiEPKci@QtCore{00040703}[2001b2dc].dll  - Undefined Reference
    QString::fromUtf16(const unsigned short*, int)  - Undefined Reference
    _ZN7QString9fromUtf16EPKti@QtCore{00040703}[2001b2dc].dll  - Undefined Reference
    QString::operator =(const QString&)       - Undefined Reference
    _ZN7QStringaSERKS_@QtCore{00040703}[2001b2dc].dll  - Undefined Reference
    TBufBuf::TBufBuf()                        - Undefined Reference
    _ZN7TBufBufC1Ev@estor{000a0000}[10003b0d].dll  - Undefined Reference
    TPtrC16::TPtrC16(const unsigned short*)   - Undefined Reference
    _ZN7TPtrC16C1EPKt@euser{000a0000}[100039e5].dll  - Undefined Reference
    CBufBase::ResizeL(int)                    - Undefined Reference
    _ZN8CBufBase7ResizeLEi@euser{000a0000}[100039e5].dll  - Undefined Reference
    CBufFlat::NewL(int)                       - Undefined Reference
    _ZN8CBufFlat4NewLEi@euser{000a0000}[100039e5].dll  - Undefined Reference
    QMapData::createData(int)                 - Undefined Reference
    _ZN8QMapData10createDataEi@QtCore{00040703}[2001b2dc].dll  - Undefined Reference
    QMapData::node_create(QMapData::Node**, int, int)  - Undefined Reference
    _ZN8QMapData11node_createEPPNS_4NodeEii@QtCore{00040703}[2001b2dc].dll  - Undefined Reference
    QMapData::node_delete(QMapData::Node**, int, QMapData::Node*)  - Undefined Reference
    _ZN8QMapData11node_deleteEPPNS_4NodeEiS1_@QtCore{00040703}[2001b2dc].dll  - Undefined Reference
    QMapData::shared_null                     - Undefined Reference
    _ZN8QMapData11shared_nullE@QtCore{00040703}[2001b2dc].dll  - Undefined Reference
    QMapData::continueFreeData(int)           - Undefined Reference
    _ZN8QMapData16continueFreeDataEi@QtCore{00040703}[2001b2dc].dll  - Undefined Reference
    QVariant::handler                         - Undefined Reference
    _ZN8QVariant7handlerE@QtCore{00040703}[2001b2dc].dll  - Undefined Reference
    QVariant::QVariant(const QStringList&)    - Undefined Reference
    _ZN8QVariantC1ERK11QStringList@QtCore{00040703}[2001b2dc].dll  - Undefined Reference
    QVariant::QVariant(const QLatin1String&)  - Undefined Reference
    _ZN8QVariantC1ERK13QLatin1String@QtCore{00040703}[2001b2dc].dll  - Undefined Reference
    QVariant::QVariant(const QUrl&)           - Undefined Reference
    _ZN8QVariantC1ERK4QUrl@QtCore{00040703}[2001b2dc].dll  - Undefined Reference
    QVariant::QVariant(const QDate&)          - Undefined Reference
    _ZN8QVariantC1ERK5QDate@QtCore{00040703}[2001b2dc].dll  - Undefined Reference
    QVariant::QVariant(const QString&)        - Undefined Reference
    _ZN8QVariantC1ERK7QString@QtCore{00040703}[2001b2dc].dll  - Undefined Reference
    QVariant::QVariant(const QDateTime&)      - Undefined Reference
    _ZN8QVariantC1ERK9QDateTime@QtCore{00040703}[2001b2dc].dll  - Undefined Reference
    QVariant::QVariant(const QVariant&)       - Undefined Reference
    _ZN8QVariantC1ERKS_@QtCore{00040703}[2001b2dc].dll  - Undefined Reference
    QVariant::QVariant(double)                - Undefined Reference
    _ZN8QVariantC1Ed@QtCore{00040703}[2001b2dc].dll  - Undefined Reference
    QVariant::~QVariant()                     - Undefined Reference
    _ZN8QVariantD1Ev@QtCore{00040703}[2001b2dc].dll  - Undefined Reference
    RProcess::Create(const TDesC16&, const TDesC16&, TOwnerType)  - Undefined Reference
    _ZN8RProcess6CreateERK7TDesC16S2_10TOwnerType@euser{000a0000}[100039e5].dll  - Undefined Reference
    RProcess::Resume()                        - Undefined Reference
    _ZN8RProcess6ResumeEv@euser{000a0000}[100039e5].dll  - Undefined Reference
    TVersion::TVersion(int, int, int)         - Undefined Reference
    _ZN8TVersionC1Eiii@euser{000a0000}[100039e5].dll  - Undefined Reference
    BaflUtils::FileExists(const RFs&, const TDesC16&)  - Undefined Reference
    _ZN9BaflUtils10FileExistsERK3RFsRK7TDesC16@bafl{000a0000}[10003a0f].dll  - Undefined Reference
    QDateTime::fromString(const QString&, const QString&)  - Undefined Reference
    _ZN9QDateTime10fromStringERK7QStringS2_@QtCore{00040703}[2001b2dc].dll  - Undefined Reference
    QDateTime::~QDateTime()                   - Undefined Reference
    _ZN9QDateTimeD1Ev@QtCore{00040703}[2001b2dc].dll  - Undefined Reference
    QHashData::free_helper(void(*)(QHashData::Node*))  - Undefined Reference
    _ZN9QHashData11free_helperEPFvPNS_4NodeEE@QtCore{00040703}[2001b2dc].dll  - Undefined Reference
    QHashData::shared_null                    - Undefined Reference
    _ZN9QHashData11shared_nullE@QtCore{00040703}[2001b2dc].dll  - Undefined Reference
    QHashData::allocateNode(int)              - Undefined Reference
    _ZN9QHashData12allocateNodeEi@QtCore{00040703}[2001b2dc].dll  - Undefined Reference
    QHashData::previousNode(QHashData::Node*)  - Undefined Reference
    _ZN9QHashData12previousNodeEPNS_4NodeE@QtCore{00040703}[2001b2dc].dll  - Undefined Reference
    QHashData::detach_helper2(void(*)(QHashData::Node*, void*), void(*)(QHashData::Node*), int, int)  - Undefined Reference
    _ZN9QHashData14detach_helper2EPFvPNS_4NodeEPvEPFvS1_Eii@QtCore{00040703}[2001b2dc].dll  - Undefined Reference
    QHashData::rehash(int)                    - Undefined Reference
    _ZN9QHashData6rehashEi@QtCore{00040703}[2001b2dc].dll  - Undefined Reference
    QHashData::freeNode(void*)                - Undefined Reference
    _ZN9QHashData8freeNodeEPv@QtCore{00040703}[2001b2dc].dll  - Undefined Reference
    QHashData::nextNode(QHashData::Node*)     - Undefined Reference
    _ZN9QHashData8nextNodeEPNS_4NodeE@QtCore{00040703}[2001b2dc].dll  - Undefined Reference
    QListData::detach_grow(int*, int)         - Undefined Reference
    _ZN9QListData11detach_growEPii@QtCore{00040703}[2001b2dc].dll  - Undefined Reference
    QListData::shared_null                    - Undefined Reference
    _ZN9QListData11shared_nullE@QtCore{00040703}[2001b2dc].dll  - Undefined Reference
    QListData::erase(void**)                  - Undefined Reference
    _ZN9QListData5eraseEPPv@QtCore{00040703}[2001b2dc].dll  - Undefined Reference
    QListData::append()                       - Undefined Reference
    _ZN9QListData6appendEv@QtCore{00040703}[2001b2dc].dll  - Undefined Reference
    QListData::detach(int)                    - Undefined Reference
    _ZN9QListData6detachEi@QtCore{00040703}[2001b2dc].dll  - Undefined Reference
    QListData::insert(int)                    - Undefined Reference
    _ZN9QListData6insertEi@QtCore{00040703}[2001b2dc].dll  - Undefined Reference
    QListData::remove(int)                    - Undefined Reference
    _ZN9QListData6removeEi@QtCore{00040703}[2001b2dc].dll  - Undefined Reference
    QListData::append2(const QListData&)      - Undefined Reference
    _ZN9QListData7append2ERKS_@QtCore{00040703}[2001b2dc].dll  - Undefined Reference
    QListData::realloc(int)                   - Undefined Reference
    _ZN9QListData7reallocEi@QtCore{00040703}[2001b2dc].dll  - Undefined Reference
    QtPrivate::QStringList_join(const QStringList*, const QString&)  - Undefined Reference
    _ZN9QtPrivate16QStringList_joinEPK11QStringListRK7QString@QtCore{00040703}[2001b2dc].dll  - Undefined Reference
    QtPrivate::QStringList_contains(const QStringList*, const QString&, Qt::CaseSensitivity)  - Undefined Reference
    _ZN9QtPrivate20QStringList_containsEPK11QStringListRK7QStringN2Qt15CaseSensitivityE@QtCore{00040703}[2001b2dc].dll  - Undefined Reference
    TDateTime::TDateTime(int, TMonth, int, int, int, int, int)  - Undefined Reference
    _ZN9TDateTimeC1Ei6TMonthiiiii@euser{000a0000}[100039e5].dll  - Undefined Reference
    QtMobility::QContactId::managerUri() const  - Undefined Reference
    _ZNK10QtMobility10QContactId10managerUriEv@QtContacts{00010103}[2002ac7a].dll  - Undefined Reference
    QtMobility::QContactId::localId() const   - Undefined Reference
    _ZNK10QtMobility10QContactId7localIdEv@QtContacts{00010103}[2002ac7a].dll  - Undefined Reference
    QtMobility::QContactId::operator !=(const QtMobility::QContactId&) const  - Undefined Reference
    _ZNK10QtMobility10QContactIdneERKS0_@QtContacts{00010103}[2002ac7a].dll  - Undefined Reference
    QtMobility::QContactDetail::variantValue(const char*) const  - Undefined Reference
    _ZNK10QtMobility14QContactDetail12variantValueEPKc@QtContacts{00010103}[2002ac7a].dll  - Undefined Reference
    QtMobility::QContactDetail::variantValue(const QString&) const  - Undefined Reference
    _ZNK10QtMobility14QContactDetail12variantValueERK7QString@QtContacts{00010103}[2002ac7a].dll  - Undefined Reference
    QtMobility::QContactDetail::variantValues() const  - Undefined Reference
    _ZNK10QtMobility14QContactDetail13variantValuesEv@QtContacts{00010103}[2002ac7a].dll  - Undefined Reference
    QtMobility::QContactDetail::definitionName() const  - Undefined Reference
    _ZNK10QtMobility14QContactDetail14definitionNameEv@QtContacts{00010103}[2002ac7a].dll  - Undefined Reference
    QtMobility::QContactDetail::value(const char*) const  - Undefined Reference
    _ZNK10QtMobility14QContactDetail5valueEPKc@QtContacts{00010103}[2002ac7a].dll  - Undefined Reference
    QtMobility::QContactDetail::value(const QString&) const  - Undefined Reference
    _ZNK10QtMobility14QContactDetail5valueERK7QString@QtContacts{00010103}[2002ac7a].dll  - Undefined Reference
    QtMobility::QContactDetail::isEmpty() const  - Undefined Reference
    _ZNK10QtMobility14QContactDetail7isEmptyEv@QtContacts{00010103}[2002ac7a].dll  - Undefined Reference
    QtMobility::QContactFilter::type() const  - Undefined Reference
    _ZNK10QtMobility14QContactFilter4typeEv@QtContacts{00010103}[2002ac7a].dll  - Undefined Reference
    QtMobility::QContactFilter::operator ==(const QtMobility::QContactFilter&) const  - Undefined Reference
    _ZNK10QtMobility14QContactFiltereqERKS0_@QtContacts{00010103}[2002ac7a].dll  - Undefined Reference
    QtMobility::QContactFetchHint::optimizationHints() const  - Undefined Reference
    _ZNK10QtMobility17QContactFetchHint17optimizationHintsEv@QtContacts{00010103}[2002ac7a].dll  - Undefined Reference
    QtMobility::QContactFetchHint::detailDefinitionsHint() const  - Undefined Reference
    _ZNK10QtMobility17QContactFetchHint21detailDefinitionsHintEv@QtContacts{00010103}[2002ac7a].dll  - Undefined Reference
    QtMobility::QContactSortOrder::blankPolicy() const  - Undefined Reference
    _ZNK10QtMobility17QContactSortOrder11blankPolicyEv@QtContacts{00010103}[2002ac7a].dll  - Undefined Reference
    QtMobility::QContactSortOrder::caseSensitivity() const  - Undefined Reference
    _ZNK10QtMobility17QContactSortOrder15caseSensitivityEv@QtContacts{00010103}[2002ac7a].dll  - Undefined Reference
    QtMobility::QContactSortOrder::detailFieldName() const  - Undefined Reference
    _ZNK10QtMobility17QContactSortOrder15detailFieldNameEv@QtContacts{00010103}[2002ac7a].dll  - Undefined Reference
    QtMobility::QContactSortOrder::detailDefinitionName() const  - Undefined Reference
    _ZNK10QtMobility17QContactSortOrder20detailDefinitionNameEv@QtContacts{00010103}[2002ac7a].dll  - Undefined Reference
    QtMobility::QContactSortOrder::isValid() const  - Undefined Reference
    _ZNK10QtMobility17QContactSortOrder7isValidEv@QtContacts{00010103}[2002ac7a].dll  - Undefined Reference
    QtMobility::QContactSortOrder::direction() const  - Undefined Reference
    _ZNK10QtMobility17QContactSortOrder9directionEv@QtContacts{00010103}[2002ac7a].dll  - Undefined Reference
    QtMobility::QContactSaveRequest::contacts() const  - Undefined Reference
    _ZNK10QtMobility19QContactSaveRequest8contactsEv@QtContacts{00010103}[2002ac7a].dll  - Undefined Reference
    QtMobility::QContactUnionFilter::filters() const  - Undefined Reference
    _ZNK10QtMobility19QContactUnionFilter7filtersEv@QtContacts{00010103}[2002ac7a].dll  - Undefined Reference
    QtMobility::QContactDetailFilter::matchFlags() const  - Undefined Reference
    _ZNK10QtMobility20QContactDetailFilter10matchFlagsEv@QtContacts{00010103}[2002ac7a].dll  - Undefined Reference
    QtMobility::QContactDetailFilter::detailFieldName() const  - Undefined Reference
    _ZNK10QtMobility20QContactDetailFilter15detailFieldNameEv@QtContacts{00010103}[2002ac7a].dll  - Undefined Reference
    QtMobility::QContactDetailFilter::detailDefinitionName() const  - Undefined Reference
    _ZNK10QtMobility20QContactDetailFilter20detailDefinitionNameEv@QtContacts{00010103}[2002ac7a].dll  - Undefined Reference
    QtMobility::QContactDetailFilter::value() const  - Undefined Reference
    _ZNK10QtMobility20QContactDetailFilter5valueEv@QtContacts{00010103}[2002ac7a].dll  - Undefined Reference
    QtMobility::QContactFetchRequest::filter() const  - Undefined Reference
    _ZNK10QtMobility20QContactFetchRequest6filterEv@QtContacts{00010103}[2002ac7a].dll  - Undefined Reference
    QtMobility::QContactFetchRequest::sorting() const  - Undefined Reference
    _ZNK10QtMobility20QContactFetchRequest7sortingEv@QtContacts{00010103}[2002ac7a].dll  - Undefined Reference
    QtMobility::QContactFetchRequest::fetchHint() const  - Undefined Reference
    _ZNK10QtMobility20QContactFetchRequest9fetchHintEv@QtContacts{00010103}[2002ac7a].dll  - Undefined Reference
    QtMobility::QContactRelationship::relationshipType() const  - Undefined Reference
    _ZNK10QtMobility20QContactRelationship16relationshipTypeEv@QtContacts{00010103}[2002ac7a].dll  - Undefined Reference
    QtMobility::QContactRelationship::first() const  - Undefined Reference
    _ZNK10QtMobility20QContactRelationship5firstEv@QtContacts{00010103}[2002ac7a].dll  - Undefined Reference
    QtMobility::QContactRelationship::second() const  - Undefined Reference
    _ZNK10QtMobility20QContactRelationship6secondEv@QtContacts{00010103}[2002ac7a].dll  - Undefined Reference
    QtMobility::QContactManagerEngine::managerUri() const  - Undefined Reference
    _ZNK10QtMobility21QContactManagerEngine10managerUriEv@QtContacts{00010103}[2002ac7a].dll  - Undefined Reference
    QtMobility::QContactManagerEngine::validateContact(const QtMobility::QContact&, QtMobility::QContactManager::Error*) const  - Undefined Reference
    _ZNK10QtMobility21QContactManagerEngine15validateContactERKNS_8QContactEPNS_15QContactManager5ErrorE@QtContacts{00010103}[2002ac7a].dll  - Undefined Reference
    QtMobility::QContactManagerEngine::detailDefinition(const QString&, const QString&, QtMobility::QContactManager::Error*) const  - Undefined Reference
    _ZNK10QtMobility21QContactManagerEngine16detailDefinitionERK7QStringS3_PNS_15QContactManager5ErrorE@QtContacts{00010103}[2002ac7a].dll  - Undefined Reference
    QtMobility::QContactManagerEngine::compatibleContact(const QtMobility::QContact&, QtMobility::QContactManager::Error*) const  - Undefined Reference
    _ZNK10QtMobility21QContactManagerEngine17compatibleContactERKNS_8QContactEPNS_15QContactManager5ErrorE@QtContacts{00010103}[2002ac7a].dll  - Undefined Reference
    QtMobility::QContactManagerEngine::managerParameters() const  - Undefined Reference
    _ZNK10QtMobility21QContactManagerEngine17managerParametersEv@QtContacts{00010103}[2002ac7a].dll  - Undefined Reference
    QtMobility::QContactManagerEngine::validateDefinition(const QtMobility::QContactDetailDefinition&, QtMobility::QContactManager::Error*) const  - Undefined Reference
    _ZNK10QtMobility21QContactManagerEngine18validateDefinitionERKNS_24QContactDetailDefinitionEPNS_15QContactManager5ErrorE@QtContacts{00010103}[2002ac7a].dll  - Undefined Reference
    QtMobility::QContactManagerEngine::supportedContactTypes() const  - Undefined Reference
    _ZNK10QtMobility21QContactManagerEngine21supportedContactTypesEv@QtContacts{00010103}[2002ac7a].dll  - Undefined Reference
    QtMobility::QContactRemoveRequest::contactIds() const  - Undefined Reference
    _ZNK10QtMobility21QContactRemoveRequest10contactIdsEv@QtContacts{00010103}[2002ac7a].dll  - Undefined Reference
    QtMobility::QContactAbstractRequest::type() const  - Undefined Reference
    _ZNK10QtMobility23QContactAbstractRequest4typeEv@QtContacts{00010103}[2002ac7a].dll  - Undefined Reference
    QtMobility::QContactAbstractRequest::state() const  - Undefined Reference
    _ZNK10QtMobility23QContactAbstractRequest5stateEv@QtContacts{00010103}[2002ac7a].dll  - Undefined Reference
    QtMobility::QContactDetailDefinition::name() const  - Undefined Reference
    _ZNK10QtMobility24QContactDetailDefinition4nameEv@QtContacts{00010103}[2002ac7a].dll  - Undefined Reference
    QtMobility::QContactDetailDefinition::fields() const  - Undefined Reference
    _ZNK10QtMobility24QContactDetailDefinition6fieldsEv@QtContacts{00010103}[2002ac7a].dll  - Undefined Reference
    QtMobility::QContactIntersectionFilter::filters() const  - Undefined Reference
    _ZNK10QtMobility26QContactIntersectionFilter7filtersEv@QtContacts{00010103}[2002ac7a].dll  - Undefined Reference
    QtMobility::QContactRelationshipFilter::relatedContactId() const  - Undefined Reference
    _ZNK10QtMobility26QContactRelationshipFilter16relatedContactIdEv@QtContacts{00010103}[2002ac7a].dll  - Undefined Reference
    QtMobility::QContactRelationshipFilter::relationshipType() const  - Undefined Reference
    _ZNK10QtMobility26QContactRelationshipFilter16relationshipTypeEv@QtContacts{00010103}[2002ac7a].dll  - Undefined Reference
    QtMobility::QContactRelationshipFilter::relatedContactRole() const  - Undefined Reference
    _ZNK10QtMobility26QContactRelationshipFilter18relatedContactRoleEv@QtContacts{00010103}[2002ac7a].dll  - Undefined Reference
    QtMobility::QContactLocalIdFetchRequest::filter() const  - Undefined Reference
    _ZNK10QtMobility27QContactLocalIdFetchRequest6filterEv@QtContacts{00010103}[2002ac7a].dll  - Undefined Reference
    QtMobility::QContactLocalIdFetchRequest::sorting() const  - Undefined Reference
    _ZNK10QtMobility27QContactLocalIdFetchRequest7sortingEv@QtContacts{00010103}[2002ac7a].dll  - Undefined Reference
    QtMobility::QContactManagerEngineFactory::supportedImplementationVersions() const  - Undefined Reference
    _ZNK10QtMobility28QContactManagerEngineFactory31supportedImplementationVersionsEv@QtContacts{00010103}[2002ac7a].dll  - Undefined Reference
    QtMobility::QContactRelationshipSaveRequest::relationships() const  - Undefined Reference
    _ZNK10QtMobility31QContactRelationshipSaveRequest13relationshipsEv@QtContacts{00010103}[2002ac7a].dll  - Undefined Reference
    QtMobility::QContactRelationshipFetchRequest::relationshipType() const  - Undefined Reference
    _ZNK10QtMobility32QContactRelationshipFetchRequest16relationshipTypeEv@QtContacts{00010103}[2002ac7a].dll  - Undefined Reference
    QtMobility::QContactRelationshipFetchRequest::first() const  - Undefined Reference
    _ZNK10QtMobility32QContactRelationshipFetchRequest5firstEv@QtContacts{00010103}[2002ac7a].dll  - Undefined Reference
    QtMobility::QContactRelationshipFetchRequest::second() const  - Undefined Reference
    _ZNK10QtMobility32QContactRelationshipFetchRequest6secondEv@QtContacts{00010103}[2002ac7a].dll  - Undefined Reference
    QtMobility::QContactRelationshipRemoveRequest::relationships() const  - Undefined Reference
    _ZNK10QtMobility33QContactRelationshipRemoveRequest13relationshipsEv@QtContacts{00010103}[2002ac7a].dll  - Undefined Reference
    QtMobility::QContactDetailDefinitionFetchRequest::contactType() const  - Undefined Reference
    _ZNK10QtMobility36QContactDetailDefinitionFetchRequest11contactTypeEv@QtContacts{00010103}[2002ac7a].dll  - Undefined Reference
    QtMobility::QContactDetailDefinitionFetchRequest::definitionNames() const  - Undefined Reference
    _ZNK10QtMobility36QContactDetailDefinitionFetchRequest15definitionNamesEv@QtContacts{00010103}[2002ac7a].dll  - Undefined Reference
    QtMobility::QContact::isPreferredDetail(const QString&, const QtMobility::QContactDetail&) const  - Undefined Reference
    _ZNK10QtMobility8QContact17isPreferredDetailERK7QStringRKNS_14QContactDetailE@QtContacts{00010103}[2002ac7a].dll  - Undefined Reference
    QtMobility::QContact::id() const          - Undefined Reference
    _ZNK10QtMobility8QContact2idEv@QtContacts{00010103}[2002ac7a].dll  - Undefined Reference
    QtMobility::QContact::type() const        - Undefined Reference
    _ZNK10QtMobility8QContact4typeEv@QtContacts{00010103}[2002ac7a].dll  - Undefined Reference
    QtMobility::QContact::detail(const char*) const  - Undefined Reference
    _ZNK10QtMobility8QContact6detailEPKc@QtContacts{00010103}[2002ac7a].dll  - Undefined Reference
    QtMobility::QContact::detail(const QString&) const  - Undefined Reference
    _ZNK10QtMobility8QContact6detailERK7QString@QtContacts{00010103}[2002ac7a].dll  - Undefined Reference
    QtMobility::QContact::details(const char*) const  - Undefined Reference
    _ZNK10QtMobility8QContact7detailsEPKc@QtContacts{00010103}[2002ac7a].dll  - Undefined Reference
    QtMobility::QContact::details(const QString&) const  - Undefined Reference
    _ZNK10QtMobility8QContact7detailsERK7QString@QtContacts{00010103}[2002ac7a].dll  - Undefined Reference
    QtMobility::QContact::localId() const     - Undefined Reference
    _ZNK10QtMobility8QContact7localIdEv@QtContacts{00010103}[2002ac7a].dll  - Undefined Reference
    CContactItem::CardFields() const          - Undefined Reference
    _ZNK12CContactItem10CardFieldsEv@cntmodel{000a0000}[10003a71].dll  - Undefined Reference
    CContactItem::UidStringL(long long) const  - Undefined Reference
    _ZNK12CContactItem10UidStringLEx@cntmodel{000a0000}[10003a71].dll  - Undefined Reference
    CContactItem::LastModified() const        - Undefined Reference
    _ZNK12CContactItem12LastModifiedEv@cntmodel{000a0000}[10003a71].dll  - Undefined Reference
    CContactItem::Id() const                  - Undefined Reference
    _ZNK12CContactItem2IdEv@cntmodel{000a0000}[10003a71].dll  - Undefined Reference
    CContentType::FieldTypeCount() const      - Undefined Reference
    _ZNK12CContentType14FieldTypeCountEv@cntmodel{000a0000}[10003a71].dll  - Undefined Reference
    CContentType::ContainsFieldType(TUid) const  - Undefined Reference
    _ZNK12CContentType17ContainsFieldTypeE4TUid@cntmodel{000a0000}[10003a71].dll  - Undefined Reference
    CContentType::Mapping() const             - Undefined Reference
    _ZNK12CContentType7MappingEv@cntmodel{000a0000}[10003a71].dll  - Undefined Reference
    CContentType::FieldType(int) const        - Undefined Reference
    _ZNK12CContentType9FieldTypeEi@cntmodel{000a0000}[10003a71].dll  - Undefined Reference
    RSessionBase::DoSendReceive(int, const TIpcArgs*) const  - Undefined Reference
    _ZNK12RSessionBase13DoSendReceiveEiPK8TIpcArgs@euser{000a0000}[100039e5].dll  - Undefined Reference
    CArrayFixBase::At(int) const              - Undefined Reference
    _ZNK13CArrayFixBase2AtEi@euser{000a0000}[100039e5].dll  - Undefined Reference
    CContactGroup::ItemsContained() const     - Undefined Reference
    _ZNK13CContactGroup14ItemsContainedEv@cntmodel{000a0000}[10003a71].dll  - Undefined Reference
    CImageDecoder::FrameInfo(int) const       - Undefined Reference
    _ZNK13CImageDecoder9FrameInfoEi@imageconversion{000a0000}[101f45ad].dll  - Undefined Reference
    CContactIdArray::Find(long) const         - Undefined Reference
    _ZNK15CContactIdArray4FindEl@cntmodel{000a0000}[10003a71].dll  - Undefined Reference
    XLeaveException::GetReason() const        - Undefined Reference
    _ZNK15XLeaveException9GetReasonEv@euser{000a0000}[100039e5].dll  - Undefined Reference
    CContactDatabase::GetGroupIdListL() const  - Undefined Reference
    _ZNK16CContactDatabase15GetGroupIdListLEv@cntmodel{000a0000}[10003a71].dll  - Undefined Reference
    CContactDatabase::GetCardTemplateIdListL() const  - Undefined Reference
    _ZNK16CContactDatabase22GetCardTemplateIdListLEv@cntmodel{000a0000}[10003a71].dll  - Undefined Reference
    CContactDatabase::MachineId() const       - Undefined Reference
    _ZNK16CContactDatabase9MachineIdEv@cntmodel{000a0000}[10003a71].dll  - Undefined Reference
    CContactDatabase::OwnCardId() const       - Undefined Reference
    _ZNK16CContactDatabase9OwnCardIdEv@cntmodel{000a0000}[10003a71].dll  - Undefined Reference
    CContactDateField::Time() const           - Undefined Reference
    _ZNK17CContactDateField4TimeEv@cntmodel{000a0000}[10003a71].dll  - Undefined Reference
    CContactItemField::ContentType() const    - Undefined Reference
    _ZNK17CContactItemField11ContentTypeEv@cntmodel{000a0000}[10003a71].dll  - Undefined Reference
    CContactItemField::StorageType() const    - Undefined Reference
    _ZNK17CContactItemField11StorageTypeEv@cntmodel{000a0000}[10003a71].dll  - Undefined Reference
    CContactItemField::TextStorage() const    - Undefined Reference
    _ZNK17CContactItemField11TextStorageEv@cntmodel{000a0000}[10003a71].dll  - Undefined Reference
    CContactItemField::StoreStorage() const   - Undefined Reference
    _ZNK17CContactItemField12StoreStorageEv@cntmodel{000a0000}[10003a71].dll  - Undefined Reference
    CContactItemField::DateTimeStorage() const  - Undefined Reference
    _ZNK17CContactItemField15DateTimeStorageEv@cntmodel{000a0000}[10003a71].dll  - Undefined Reference
    CContactTextField::Text() const           - Undefined Reference
    _ZNK17CContactTextField4TextEv@cntmodel{000a0000}[10003a71].dll  - Undefined Reference
    CContactStoreField::Thing() const         - Undefined Reference
    _ZNK18CContactStoreField5ThingEv@cntmodel{000a0000}[10003a71].dll  - Undefined Reference
    CContactItemFieldSet::FindNext(TUid, TUid, int) const  - Undefined Reference
    _ZNK20CContactItemFieldSet8FindNextE4TUidS0_i@cntmodel{000a0000}[10003a71].dll  - Undefined Reference
    CContactItemFieldSet::FindNext(TUid, int) const  - Undefined Reference
    _ZNK20CContactItemFieldSet8FindNextE4TUidi@cntmodel{000a0000}[10003a71].dll  - Undefined Reference
    CContactItemPlusGroup::GroupsJoined() const  - Undefined Reference
    _ZNK21CContactItemPlusGroup12GroupsJoinedEv@cntmodel{000a0000}[10003a71].dll  - Undefined Reference
    RFs::IsValidName(const TDesC16&) const    - Undefined Reference
    _ZNK3RFs11IsValidNameERK7TDesC16@efsrv{000a0000}[100039e4].dll  - Undefined Reference
    QUrl::toLocalFile() const                 - Undefined Reference
    _ZNK4QUrl11toLocalFileEv@QtCore{00040703}[2001b2dc].dll  - Undefined Reference
    QUrl::scheme() const                      - Undefined Reference
    _ZNK4QUrl6schemeEv@QtCore{00040703}[2001b2dc].dll  - Undefined Reference
    QUrl::isValid() const                     - Undefined Reference
    _ZNK4QUrl7isValidEv@QtCore{00040703}[2001b2dc].dll  - Undefined Reference
    QUrl::toString(QFlags<QUrl::FormattingOption>) const  - Undefined Reference
    _ZNK4QUrl8toStringE6QFlagsINS_16FormattingOptionEE@QtCore{00040703}[2001b2dc].dll  - Undefined Reference
    TUid::operator ==(const TUid&) const      - Undefined Reference
    _ZNK4TUideqERKS_@euser{000a0000}[100039e5].dll  - Undefined Reference
    TUid::operator !=(const TUid&) const      - Undefined Reference
    _ZNK4TUidneERKS_@euser{000a0000}[100039e5].dll  - Undefined Reference
    QDate::day() const                        - Undefined Reference
    _ZNK5QDate3dayEv@QtCore{00040703}[2001b2dc].dll  - Undefined Reference
    QDate::year() const                       - Undefined Reference
    _ZNK5QDate4yearEv@QtCore{00040703}[2001b2dc].dll  - Undefined Reference
    QDate::month() const                      - Undefined Reference
    _ZNK5QDate5monthEv@QtCore{00040703}[2001b2dc].dll  - Undefined Reference
    TChar::GetNumericValue() const            - Undefined Reference
    _ZNK5TChar15GetNumericValueEv@euser{000a0000}[100039e5].dll  - Undefined Reference
    TChar::IsDigit() const                    - Undefined Reference
    _ZNK5TChar7IsDigitEv@euser{000a0000}[100039e5].dll  - Undefined Reference
    TSize::operator !=(const TSize&) const    - Undefined Reference
    _ZNK5TSizeneERKS_@euser{000a0000}[100039e5].dll  - Undefined Reference
    TTime::FormatL(TDes16&, const TDesC16&) const  - Undefined Reference
    _ZNK5TTime7FormatLER6TDes16RK7TDesC16@euser{000a0000}[100039e5].dll  - Undefined Reference
    TTime::DateTime() const                   - Undefined Reference
    _ZNK5TTime8DateTimeEv@euser{000a0000}[100039e5].dll  - Undefined Reference
    QImage::isNull() const                    - Undefined Reference
    _ZNK6QImage6isNullEv@QtGui{00040703}[2001b2dd].dll  - Undefined Reference
    QImage::scaled(const QSize&, Qt::AspectRatioMode, Qt::TransformationMode) const  - Undefined Reference
    _ZNK6QImage6scaledERK5QSizeN2Qt15AspectRatioModeENS3_18TransformationModeE@QtGui{00040703}[2001b2dd].dll  - Undefined Reference
    QImage::operator QVariant() const         - Undefined Reference
    _ZNK6QImagecv8QVariantEv@QtGui{00040703}[2001b2dd].dll  - Undefined Reference
    TDesC8::Ptr() const                       - Undefined Reference
    _ZNK6TDesC83PtrEv@euser{000a0000}[100039e5].dll  - Undefined Reference
    QPixmap::toSymbianCFbsBitmap() const      - Undefined Reference
    _ZNK7QPixmap19toSymbianCFbsBitmapEv@QtGui{00040703}[2001b2dd].dll  - Undefined Reference
    QString::arg(long long, int, int, const QChar&) const  - Undefined Reference
    _ZNK7QString3argExiiRK5QChar@QtCore{00040703}[2001b2dc].dll  - Undefined Reference
    QString::arg(unsigned long long, int, int, const QChar&) const  - Undefined Reference
    _ZNK7QString3argEyiiRK5QChar@QtCore{00040703}[2001b2dc].dll  - Undefined Reference
    QString::left(int) const                  - Undefined Reference
    _ZNK7QString4leftEi@QtCore{00040703}[2001b2dc].dll  - Undefined Reference
    QString::right(int) const                 - Undefined Reference
    _ZNK7QString5rightEi@QtCore{00040703}[2001b2dc].dll  - Undefined Reference
    QString::split(const QChar&, QString::SplitBehavior, Qt::CaseSensitivity) const  - Undefined Reference
    _ZNK7QString5splitERK5QCharNS_13SplitBehaviorEN2Qt15CaseSensitivityE@QtCore{00040703}[2001b2dc].dll  - Undefined Reference
    QString::utf16() const                    - Undefined Reference
    _ZNK7QString5utf16Ev@QtCore{00040703}[2001b2dc].dll  - Undefined Reference
    QString::compare(const QString&) const    - Undefined Reference
    _ZNK7QString7compareERKS_@QtCore{00040703}[2001b2dc].dll  - Undefined Reference
    QString::indexOf(QChar, int, Qt::CaseSensitivity) const  - Undefined Reference
    _ZNK7QString7indexOfE5QChariN2Qt15CaseSensitivityE@QtCore{00040703}[2001b2dc].dll  - Undefined Reference
    QString::multiArg(int, const QString**) const  - Undefined Reference
    _ZNK7QString8multiArgEiPPKS_@QtCore{00040703}[2001b2dc].dll  - Undefined Reference
    QString::toDouble(bool*) const            - Undefined Reference
    _ZNK7QString8toDoubleEPb@QtCore{00040703}[2001b2dc].dll  - Undefined Reference
    QString::operator ==(const QLatin1String&) const  - Undefined Reference
    _ZNK7QStringeqERK13QLatin1String@QtCore{00040703}[2001b2dc].dll  - Undefined Reference
    QString::operator ==(const QString&) const  - Undefined Reference
    _ZNK7QStringeqERKS_@QtCore{00040703}[2001b2dc].dll  - Undefined Reference
    QString::operator <(const QString&) const  - Undefined Reference
    _ZNK7QStringltERKS_@QtCore{00040703}[2001b2dc].dll  - Undefined Reference
    TDesC16::AtC(int) const                   - Undefined Reference
    _ZNK7TDesC163AtCEi@euser{000a0000}[100039e5].dll  - Undefined Reference
    TDesC16::Ptr() const                      - Undefined Reference
    _ZNK7TDesC163PtrEv@euser{000a0000}[100039e5].dll  - Undefined Reference
    TDesC16::Left(int) const                  - Undefined Reference
    _ZNK7TDesC164LeftEi@euser{000a0000}[100039e5].dll  - Undefined Reference
    TDesC16::FindC(const TDesC16&) const      - Undefined Reference
    _ZNK7TDesC165FindCERKS_@euser{000a0000}[100039e5].dll  - Undefined Reference
    TDesC16::Right(int) const                 - Undefined Reference
    _ZNK7TDesC165RightEi@euser{000a0000}[100039e5].dll  - Undefined Reference
    TDesC16::AllocLC() const                  - Undefined Reference
    _ZNK7TDesC167AllocLCEv@euser{000a0000}[100039e5].dll  - Undefined Reference
    QVariant::canConvert(QVariant::Type) const  - Undefined Reference
    _ZNK8QVariant10canConvertENS_4TypeE@QtCore{00040703}[2001b2dc].dll  - Undefined Reference
    QVariant::toStringList() const            - Undefined Reference
    _ZNK8QVariant12toStringListEv@QtCore{00040703}[2001b2dc].dll  - Undefined Reference
    QVariant::type() const                    - Undefined Reference
    _ZNK8QVariant4typeEv@QtCore{00040703}[2001b2dc].dll  - Undefined Reference
    QVariant::toBool() const                  - Undefined Reference
    _ZNK8QVariant6toBoolEv@QtCore{00040703}[2001b2dc].dll  - Undefined Reference
    QVariant::toDouble(bool*) const           - Undefined Reference
    _ZNK8QVariant8toDoubleEPb@QtCore{00040703}[2001b2dc].dll  - Undefined Reference
    QVariant::toString() const                - Undefined Reference
    _ZNK8QVariant8toStringEv@QtCore{00040703}[2001b2dc].dll  - Undefined Reference
    QVariant::userType() const                - Undefined Reference
    _ZNK8QVariant8userTypeEv@QtCore{00040703}[2001b2dc].dll  - Undefined Reference
    QVariant::constData() const               - Undefined Reference
    _ZNK8QVariant9constDataEv@QtCore{00040703}[2001b2dc].dll  - Undefined Reference
    RProcess::Rendezvous(TRequestStatus&) const  - Undefined Reference
    _ZNK8RProcess10RendezvousER14TRequestStatus@euser{000a0000}[100039e5].dll  - Undefined Reference
    RProcess::SetPriority(TProcessPriority) const  - Undefined Reference
    _ZNK8RProcess11SetPriorityE16TProcessPriority@euser{000a0000}[100039e5].dll  - Undefined Reference
    typeinfo for CArrayFixBase                - Undefined Reference
    _ZTI13CArrayFixBase@euser{000a0000}[100039e5].dll  - Undefined Reference
    typeinfo for CArrayFixFlat<TUid>          - Undefined Reference
    _ZTI13CArrayFixFlatI4TUidE@euser{000a0000}[100039e5].dll  - Undefined Reference
    typeinfo for XLeaveException              - Undefined Reference
    _ZTI15XLeaveException@drtaeabi{000a0000}.dll  - Undefined Reference
    typeinfo for CActive                      - Undefined Reference
    _ZTI7CActive@euser{000a0000}[100039e5].dll  - Undefined Reference
    typeinfo for QObject                      - Undefined Reference
    _ZTI7QObject@QtCore{00040703}[2001b2dc].dll  - Undefined Reference
    typeinfo for QtMobility::QContactManagerEngine  - Undefined Reference
    _ZTIN10QtMobility21QContactManagerEngineE@QtContacts{00010103}[2002ac7a].dll  - Undefined Reference
    typeinfo for QtMobility::QContactManagerEngineFactory  - Undefined Reference
    _ZTIN10QtMobility28QContactManagerEngineFactoryE@QtContacts{00010103}[2002ac7a].dll  - Undefined Reference
    typeinfo for std::bad_alloc               - Undefined Reference
    _ZTISt9bad_alloc@stdnew{000a0000}[20022178].dll  - Undefined Reference
    typeinfo for std::exception               - Undefined Reference
    _ZTISt9exception@stdnew{000a0000}[20022178].dll  - Undefined Reference
    vtable for QtMobility::QContactManagerEngine  - Undefined Reference
    _ZTVN10QtMobility21QContactManagerEngineE@QtContacts{00010103}[2002ac7a].dll  - Undefined Reference
    vtable for QtMobility::QContactManagerEngineFactory  - Undefined Reference
    _ZTVN10QtMobility28QContactManagerEngineFactoryE@QtContacts{00010103}[2002ac7a].dll  - Undefined Reference
    vtable for __cxxabiv1::__class_type_info  - Undefined Reference
    _ZTVN10__cxxabiv117__class_type_infoE@drtaeabi{000a0000}.dll  - Undefined Reference
    vtable for __cxxabiv1::__si_class_type_info  - Undefined Reference
    _ZTVN10__cxxabiv120__si_class_type_infoE@drtaeabi{000a0000}.dll  - Undefined Reference
    vtable for __cxxabiv1::__vmi_class_type_info  - Undefined Reference
    _ZTVN10__cxxabiv121__vmi_class_type_infoE@drtaeabi{000a0000}.dll  - Undefined Reference
    operator delete (void*)                   - Undefined Reference
    _ZdlPv@stdnew{000a0000}[20022178].dll     - Undefined Reference
    operator new(unsigned)                    - Undefined Reference
    _Znwj@stdnew{000a0000}[20022178].dll      - Undefined Reference
    __aeabi_cdrcmple                          - Undefined Reference
    __aeabi_cdrcmple@dfpaeabi{000a0000}.dll   - Undefined Reference
    __aeabi_idivmod                           - Undefined Reference
    __aeabi_idivmod@drtaeabi{000a0000}.dll    - Undefined Reference
    __aeabi_memcpy4                           - Undefined Reference
    __aeabi_memcpy4@drtaeabi{000a0000}.dll    - Undefined Reference
    __aeabi_uidivmod                          - Undefined Reference
    __aeabi_uidivmod@drtaeabi{000a0000}.dll   - Undefined Reference
    __aeabi_unwind_cpp_pr0                    - Undefined Reference
    __aeabi_unwind_cpp_pr0@drtaeabi{000a0000}.dll  - Undefined Reference
    __aeabi_unwind_cpp_pr1                    - Undefined Reference
    __aeabi_unwind_cpp_pr1@drtaeabi{000a0000}.dll  - Undefined Reference
    __cxa_begin_catch                         - Undefined Reference
    __cxa_begin_catch@drtaeabi{000a0000}.dll  - Undefined Reference
    __cxa_call_unexpected                     - Undefined Reference
    __cxa_call_unexpected@drtaeabi{000a0000}.dll  - Undefined Reference
    __cxa_end_catch                           - Undefined Reference
    __cxa_end_catch@drtaeabi{000a0000}.dll    - Undefined Reference
    __cxa_end_cleanup                         - Undefined Reference
    __cxa_end_cleanup@drtaeabi{000a0000}.dll  - Undefined Reference
    __cxa_guard_abort                         - Undefined Reference
    __cxa_guard_abort@drtaeabi{000a0000}.dll  - Undefined Reference
    __cxa_guard_acquire                       - Undefined Reference
    __cxa_guard_acquire@drtaeabi{000a0000}.dll  - Undefined Reference
    __cxa_guard_release                       - Undefined Reference
    __cxa_guard_release@drtaeabi{000a0000}.dll  - Undefined Reference
    __cxa_pure_virtual                        - Undefined Reference
    __cxa_pure_virtual@drtaeabi{000a0000}.dll  - Undefined Reference
    __cxa_rethrow                             - Undefined Reference
    __cxa_rethrow@drtaeabi{000a0000}.dll      - Undefined Reference
    strcmp                                    - Undefined Reference
    strcmp@libc{00010001}[10207369].dll       - Undefined Reference
    Image$$ER_RO$$Base                       0x00008000   Number         0  anon$$obj.o(linker$$defined$$symbols)
    _E32Dll                                  0x00008000   ARM Code      40  uc_dll_.o(.emb_text)
    Symbian$$CPP$$Exception$$Descriptor      0x00008014   Data           0  uc_dll_.o(.emb_text)
    __cpp_initialize__aeabi_                 0x00008028   ARM Code      52  ucppinit.o(.emb_text)
    std::nothrow                             0x0000805c   ARM Code       0  ucppinit.o(.emb_text)
    __PLT                                    0x0000805c   ARM Code       0  anon$$obj.o(.plt)
    CntSymbianEngine::getStaticMetaObject()  0x00008ddd   Thumb Code     4  moc_cntsymbianengine.o(.text)
    CntSymbianEngine::metaObject() const     0x00008de1   Thumb Code    28  moc_cntsymbianengine.o(.text)
    CntSymbianEngine::qt_metacast(const char*) 0x00008dfd   Thumb Code    40  moc_cntsymbianengine.o(.text)
    CntSymbianEngine::qt_metacall(QMetaObject::Call, int, void**) 0x00008e25   Thumb Code    58  moc_cntsymbianengine.o(.text)
    CntSymbianFactory::getStaticMetaObject() 0x00008e5f   Thumb Code     4  moc_cntsymbianengine.o(.text)
    CntSymbianFactory::metaObject() const    0x00008e63   Thumb Code    28  moc_cntsymbianengine.o(.text)
    CntSymbianFactory::qt_metacast(const char*) 0x00008e7f   Thumb Code    78  moc_cntsymbianengine.o(.text)
    CntSymbianFactory::qt_metacall(QMetaObject::Call, int, void**) 0x00008ecd   Thumb Code    36  moc_cntsymbianengine.o(.text)
    CntSymbianDatabase::getStaticMetaObject() 0x00008f51   Thumb Code     4  moc_cntsymbiandatabase.o(.text)
    CntSymbianDatabase::metaObject() const   0x00008f55   Thumb Code    28  moc_cntsymbiandatabase.o(.text)
    CntSymbianDatabase::qt_metacast(const char*) 0x00008f71   Thumb Code    58  moc_cntsymbiandatabase.o(.text)
    CntSymbianDatabase::qt_metacall(QMetaObject::Call, int, void**) 0x00008fab   Thumb Code    36  moc_cntsymbiandatabase.o(.text)
    CntDisplayLabel::getStaticMetaObject()   0x00008fed   Thumb Code     4  moc_cntdisplaylabel.o(.text)
    CntDisplayLabel::metaObject() const      0x00008ff1   Thumb Code    28  moc_cntdisplaylabel.o(.text)
    CntDisplayLabel::qt_metacast(const char*) 0x0000900d   Thumb Code    58  moc_cntdisplaylabel.o(.text)
    CntDisplayLabel::displayLabelChanged()   0x00009047   Thumb Code    18  moc_cntdisplaylabel.o(.text)
    CntDisplayLabel::qt_metacall(QMetaObject::Call, int, void**) 0x00009059   Thumb Code    58  moc_cntdisplaylabel.o(.text)
    CntTransformContactData::getStaticMetaObject() 0x000090ad   Thumb Code     4  moc_cnttransformcontactdata.o(.text)
    CntTransformContactData::metaObject() const 0x000090b1   Thumb Code    28  moc_cnttransformcontactdata.o(.text)
    CntTransformContactData::qt_metacast(const char*) 0x000090cd   Thumb Code    40  moc_cnttransformcontactdata.o(.text)
    CntTransformContactData::qt_metacall(QMetaObject::Call, int, void**) 0x000090f5   Thumb Code    36  moc_cnttransformcontactdata.o(.text)
    CntDbInfo::getStaticMetaObject()         0x00009121   Thumb Code     4  moc_cntdbinfo.o(.text)
    CntDbInfo::metaObject() const            0x00009125   Thumb Code    28  moc_cntdbinfo.o(.text)
    CntDbInfo::qt_metacast(const char*)      0x00009141   Thumb Code    40  moc_cntdbinfo.o(.text)
    CntDbInfo::qt_metacall(QMetaObject::Call, int, void**) 0x00009169   Thumb Code    36  moc_cntdbinfo.o(.text)
    qt_plugin_query_verification_data        0x00009195   Thumb Code     4  cntsymbianengine.o(.text)
    qt_plugin_instance                       0x00009199   Thumb Code   142  cntsymbianengine.o(.text)
    CntSymbianEngine::CntSymbianEngine(const QMap<QString, QString>&, QtMobility::QContactManager::Error*) 0x00009227   Thumb Code   454  cntsymbianengine.o(.text)
    CntSymbianEngine::CntSymbianEngine__sub_object(const QMap<QString, QString>&, QtMobility::QContactManager::Error*) 0x00009227   Thumb Code     0  cntsymbianengine.o(.text)
    CntSymbianEngine::~CntSymbianEngine()    0x000093ed   Thumb Code   152  cntsymbianengine.o(.text)
    CntSymbianEngine::~CntSymbianEngine__sub_object() 0x000093ed   Thumb Code     0  cntsymbianengine.o(.text)
    CntSymbianEngine::~CntSymbianEngine__deallocating() 0x00009485   Thumb Code    22  cntsymbianengine.o(.text)
    CntSymbianEngine::managerName() const    0x0000949b   Thumb Code    18  cntsymbianengine.o(.text)
    CntSymbianEngine::saveRelationship(QtMobility::QContactRelationship*, QtMobility::QContactManager::Error*) 0x000094ad   Thumb Code    44  cntsymbianengine.o(.text)
    CntSymbianEngine::removeRelationship(const QtMobility::QContactRelationship&, QtMobility::QContactManager::Error*) 0x000094d9   Thumb Code    44  cntsymbianengine.o(.text)
    CntSymbianEngine::updateDisplayLabel(QtMobility::QContact&) const 0x00009505   Thumb Code   132  cntsymbianengine.o(.text)
    CntSymbianEngine::updateContactL(QtMobility::QContact&) 0x00009589   Thumb Code   318  cntsymbianengine.o(.text)
    CntSymbianEngine::addContactL(QtMobility::QContact&) 0x000096c7   Thumb Code   396  cntsymbianengine.o(.text)
    CntSymbianEngine::addContact(QtMobility::QContact&, QtMobility::QContactChangeSet&, QtMobility::QContactManager::Error*) 0x00009853   Thumb Code   104  cntsymbianengine.o(.text)
    CntSymbianEngine::updateContact(QtMobility::QContact&, QtMobility::QContactChangeSet&, QtMobility::QContactManager::Error*) 0x000098bb   Thumb Code    98  cntsymbianengine.o(.text)
    CntSymbianEngine::doSaveContact(QtMobility::QContact*, QtMobility::QContactChangeSet&, QtMobility::QContactManager::Error*) 0x0000991d   Thumb Code   730  cntsymbianengine.o(.text)
    CntSymbianEngine::saveContact(QtMobility::QContact*, QtMobility::QContactManager::Error*) 0x00009bf7   Thumb Code    50  cntsymbianengine.o(.text)
    CntSymbianEngine::removeContactL(unsigned) 0x00009c29   Thumb Code    34  cntsymbianengine.o(.text)
    CntSymbianEngine::removeContact(const unsigned&, QtMobility::QContactChangeSet&, QtMobility::QContactManager::Error*) 0x00009c4b   Thumb Code    90  cntsymbianengine.o(.text)
    CntSymbianEngine::removeContact(const unsigned&, QtMobility::QContactManager::Error*) 0x00009ca5   Thumb Code    66  cntsymbianengine.o(.text)
    CntSymbianEngine::slowSort(const QList<unsigned>&, QList<QtMobility::QContactSortOrder>&, QtMobility::QContactManager::Error*) const 0x00009ce7   Thumb Code   222  cntsymbianengine.o(.text)
    CntSymbianEngine::slowFilter(const QtMobility::QContactFilter&, const QList<unsigned>&, QtMobility::QContactManager::Error*) const 0x00009dc5   Thumb Code   112  cntsymbianengine.o(.text)
    CntSymbianEngine::contactIds(const QtMobility::QContactFilter&, const QList<QtMobility::QContactSortOrder>&, QtMobility::QContactManager::Error*) const 0x00009e35   Thumb Code   228  cntsymbianengine.o(.text)
    CntSymbianEngine::contacts(const QtMobility::QContactFilter&, const QList<QtMobility::QContactSortOrder>&, const QtMobility::QContactFetchHint&, QtMobility::QContactManager::Error*) const 0x00009f19   Thumb Code   518  cntsymbianengine.o(.text)
    CntSymbianEngine::fetchContactL(const unsigned&, const QStringList&) const 0x0000a11f   Thumb Code   746  cntsymbianengine.o(.text)
    CntSymbianEngine::contact(const unsigned&, const QtMobility::QContactFetchHint&, QtMobility::QContactManager::Error*) const 0x0000a409   Thumb Code   420  cntsymbianengine.o(.text)
    CntSymbianEngine::saveContacts(QList<QtMobility::QContact>*, QMap<int, QtMobility::QContactManager::Error>*, QtMobility::QContactManager::Error*) 0x0000a5ad   Thumb Code   230  cntsymbianengine.o(.text)
    CntSymbianEngine::removeContacts(const QList<unsigned>&, QMap<int, QtMobility::QContactManager::Error>*, QtMobility::QContactManager::Error*) 0x0000a693   Thumb Code   210  cntsymbianengine.o(.text)
    CntSymbianEngine::synthesizedDisplayLabel(const QtMobility::QContact&, QtMobility::QContactManager::Error*) const 0x0000a765   Thumb Code    28  cntsymbianengine.o(.text)
    CntSymbianEngine::setSelfContactId(const unsigned&, QtMobility::QContactManager::Error*) 0x0000a781   Thumb Code   156  cntsymbianengine.o(.text)
    CntSymbianEngine::selfContactId(QtMobility::QContactManager::Error*) const 0x0000a81d   Thumb Code    42  cntsymbianengine.o(.text)
    CntSymbianEngine::relationships(const QString&, const QtMobility::QContactId&, QtMobility::QContactRelationship::Role, QtMobility::QContactManager::Error*) const 0x0000a847   Thumb Code    34  cntsymbianengine.o(.text)
    CntSymbianEngine::saveRelationships(QList<QtMobility::QContactRelationship>*, QMap<int, QtMobility::QContactManager::Error>*, QtMobility::QContactManager::Error*) 0x0000a869   Thumb Code    46  cntsymbianengine.o(.text)
    CntSymbianEngine::removeRelationships(const QList<QtMobility::QContactRelationship>&, QMap<int, QtMobility::QContactManager::Error>*, QtMobility::QContactManager::Error*) 0x0000a897   Thumb Code    46  cntsymbianengine.o(.text)
    CntSymbianEngine::detailDefinitions(const QString&, QtMobility::QContactManager::Error*) const 0x0000a8c5   Thumb Code   266  cntsymbianengine.o(.text)
    CntSymbianEngine::hasFeature(QtMobility::QContactManager::ManagerFeature, const QString&) const 0x0000a9cf   Thumb Code    70  cntsymbianengine.o(.text)
    CntSymbianEngine::isRelationshipTypeSupported(const QString&, const QString&) const 0x0000aa15   Thumb Code    20  cntsymbianengine.o(.text)
    CntSymbianEngine::isFilterSupported(const QtMobility::QContactFilter&) const 0x0000aa29   Thumb Code    20  cntsymbianengine.o(.text)
    CntSymbianEngine::supportedDataTypes() const 0x0000aa3d   Thumb Code    34  cntsymbianengine.o(.text)
    CntSymbianEngine::requestDestroyed(QtMobility::QContactAbstractRequest*) 0x0000aa5f   Thumb Code    16  cntsymbianengine.o(.text)
    CntSymbianEngine::startRequest(QtMobility::QContactAbstractRequest*) 0x0000aa6f   Thumb Code    72  cntsymbianengine.o(.text)
    CntSymbianEngine::cancelRequest(QtMobility::QContactAbstractRequest*) 0x0000aab7   Thumb Code    18  cntsymbianengine.o(.text)
    CntSymbianEngine::performAsynchronousOperation() 0x0000aac9   Thumb Code  1784  cntsymbianengine.o(.text)
    CntSymbianEngine::waitForRequestProgress(QtMobility::QContactAbstractRequest*, int) 0x0000b1c1   Thumb Code   136  cntsymbianengine.o(.text)
    CntSymbianEngine::waitForRequestFinished(QtMobility::QContactAbstractRequest*, int) 0x0000b249   Thumb Code    20  cntsymbianengine.o(.text)
    CntSymbianFactory::engine(const QMap<QString, QString>&, QtMobility::QContactManager::Error*) 0x0000b25d   Thumb Code    34  cntsymbianengine.o(.text)
    thunk{-8} to CntSymbianFactory::engine(const QMap<QString, QString>&, QtMobility::QContactManager::Error*) 0x0000b27f   Thumb Code    22  cntsymbianengine.o(.text)
    CntSymbianFactory::managerName() const   0x0000b295   Thumb Code    18  cntsymbianengine.o(.text)
    thunk{-8} to CntSymbianFactory::managerName() const 0x0000b2a7   Thumb Code    18  cntsymbianengine.o(.text)
    CntAbstractRelationship::CntAbstractRelationship__sub_object(CContactDatabase*, const QString&, const QString&) 0x0000b40d   Thumb Code    48  cntabstractrelationship.o(.text)
    CntAbstractRelationship::~CntAbstractRelationship() 0x0000b43d   Thumb Code     0  cntabstractrelationship.o(.text)
    CntAbstractRelationship::~CntAbstractRelationship__sub_object() 0x0000b43d   Thumb Code    36  cntabstractrelationship.o(.text)
    CntAbstractRelationship::~CntAbstractRelationship__deallocating() 0x0000b461   Thumb Code    22  cntabstractrelationship.o(.text)
    CntAbstractRelationship::relationshipType() const 0x0000b477   Thumb Code    20  cntabstractrelationship.o(.text)
    CntAbstractRelationship::database()      0x0000b48b   Thumb Code     6  cntabstractrelationship.o(.text)
    CntAbstractRelationship::managerUri()    0x0000b491   Thumb Code    20  cntabstractrelationship.o(.text)
    CntRelationshipGroup::CntRelationshipGroup(CContactDatabase*, const QString&) 0x0000b4a9   Thumb Code    50  cntrelationshipgroup.o(.text)
    CntRelationshipGroup::CntRelationshipGroup__sub_object(CContactDatabase*, const QString&) 0x0000b4a9   Thumb Code     0  cntrelationshipgroup.o(.text)
    CntRelationshipGroup::~CntRelationshipGroup() 0x0000b4db   Thumb Code    14  cntrelationshipgroup.o(.text)
    CntRelationshipGroup::~CntRelationshipGroup__sub_object() 0x0000b4db   Thumb Code     0  cntrelationshipgroup.o(.text)
    CntRelationshipGroup::~CntRelationshipGroup__deallocating() 0x0000b4e9   Thumb Code    22  cntrelationshipgroup.o(.text)
    CntRelationshipGroup::fetchGroupMembersL(const unsigned&, QList<QtMobility::QContactRelationship>*) 0x0000b4ff   Thumb Code   254  cntrelationshipgroup.o(.text)
    CntRelationshipGroup::fetchMembersOfAllGroupsL(QList<QtMobility::QContactRelationship>*) 0x0000b5fd   Thumb Code    86  cntrelationshipgroup.o(.text)
    CntRelationshipGroup::fetchMemberOfGroupsL(const unsigned&, QList<QtMobility::QContactRelationship>*) 0x0000b653   Thumb Code   336  cntrelationshipgroup.o(.text)
    CntRelationshipGroup::relationshipsL(const QtMobility::QContactId&, QtMobility::QContactRelationship::Role, QtMobility::QContactManager::Error*) 0x0000b7a3   Thumb Code   194  cntrelationshipgroup.o(.text)
    CntRelationshipGroup::saveRelationshipL(QSet<unsigned>*, QtMobility::QContactRelationship*, QtMobility::QContactManager::Error*) 0x0000b865   Thumb Code   236  cntrelationshipgroup.o(.text)
    CntRelationshipGroup::isGroupMemberL(const CContactItem*, long) const 0x0000b951   Thumb Code   164  cntrelationshipgroup.o(.text)
    CntRelationshipGroup::removeRelationshipL(QSet<unsigned>*, const QtMobility::QContactRelationship&, QtMobility::QContactManager::Error*) 0x0000b9f5   Thumb Code   318  cntrelationshipgroup.o(.text)
    CntRelationshipGroup::validateRelationship(const QtMobility::QContactRelationship&, QtMobility::QContactManager::Error*) 0x0000bb33   Thumb Code   160  cntrelationshipgroup.o(.text)
    CntSymbianTransformError::transformError(int, QtMobility::QContactManager::Error*) 0x0000bbd9   Thumb Code   124  cntsymbiantransformerror.o(.text)
    CntSymbianDatabase::groupMembersL(unsigned) 0x0000bc5d   Thumb Code   134  cntsymbiandatabase.o(.text)
    CntSymbianDatabase::updateGroupMembershipsL(unsigned, QSet<unsigned>&, QSet<unsigned>&) 0x0000bce3   Thumb Code   232  cntsymbiandatabase.o(.text)
    CntSymbianDatabase::updateGroupMembershipsL() 0x0000bdcb   Thumb Code    86  cntsymbiandatabase.o(.text)
    CntSymbianDatabase::initializeL()        0x0000be21   Thumb Code   178  cntsymbiandatabase.o(.text)
    CntSymbianDatabase::CntSymbianDatabase(QtMobility::QContactManagerEngine*, QtMobility::QContactManager::Error*) 0x0000bed3   Thumb Code   156  cntsymbiandatabase.o(.text)
    CntSymbianDatabase::CntSymbianDatabase__sub_object(QtMobility::QContactManagerEngine*, QtMobility::QContactManager::Error*) 0x0000bed3   Thumb Code     0  cntsymbiandatabase.o(.text)
    CntSymbianDatabase::~CntSymbianDatabase() 0x0000bf6f   Thumb Code    82  cntsymbiandatabase.o(.text)
    CntSymbianDatabase::~CntSymbianDatabase__sub_object() 0x0000bf6f   Thumb Code     0  cntsymbiandatabase.o(.text)
    CntSymbianDatabase::~CntSymbianDatabase__deallocating() 0x0000bfc1   Thumb Code    22  cntsymbiandatabase.o(.text)
    CntSymbianDatabase::contactDatabase()    0x0000bfd7   Thumb Code     6  cntsymbiandatabase.o(.text)
    CntSymbianDatabase::appendContactsEmitted(const QList<unsigned>&) 0x0000bfdd   Thumb Code    18  cntsymbiandatabase.o(.text)
    CntSymbianDatabase::appendContactEmitted(unsigned) 0x0000bfef   Thumb Code    16  cntsymbiandatabase.o(.text)
    CntSymbianDatabase::HandleDatabaseEventL(TContactDbObserverEvent) 0x0000bfff   Thumb Code   820  cntsymbiandatabase.o(.text)
    thunk{-8} to CntSymbianDatabase::HandleDatabaseEventL(TContactDbObserverEvent) 0x0000c333   Thumb Code    18  cntsymbiandatabase.o(.text)
    CntCenrep::getValue()                    0x0000c345   Thumb Code    34  cntdisplaylabel.o(.text)
    CntCenrep::CntCenrep(MDisplayLabel&)     0x0000c367   Thumb Code   222  cntdisplaylabel.o(.text)
    CntCenrep::CntCenrep__sub_object(MDisplayLabel&) 0x0000c367   Thumb Code     0  cntdisplaylabel.o(.text)
    CntCenrep::~CntCenrep()                  0x0000c445   Thumb Code    40  cntdisplaylabel.o(.text)
    CntCenrep::~CntCenrep__sub_object()      0x0000c445   Thumb Code     0  cntdisplaylabel.o(.text)
    CntCenrep::~CntCenrep__deallocating()    0x0000c46d   Thumb Code    22  cntdisplaylabel.o(.text)
    CntCenrep::RunL()                        0x0000c483   Thumb Code    52  cntdisplaylabel.o(.text)
    CntCenrep::RunError(int)                 0x0000c4b7   Thumb Code     6  cntdisplaylabel.o(.text)
    CntCenrep::DoCancel()                    0x0000c4bd   Thumb Code    20  cntdisplaylabel.o(.text)
    CntDisplayLabel::setDisplayLabelDetails() 0x0000c4d1   Thumb Code   270  cntdisplaylabel.o(.text)
    CntDisplayLabel::CntDisplayLabel()       0x0000c5df   Thumb Code   100  cntdisplaylabel.o(.text)
    CntDisplayLabel::CntDisplayLabel__sub_object() 0x0000c5df   Thumb Code     0  cntdisplaylabel.o(.text)
    CntDisplayLabel::~CntDisplayLabel()      0x0000c643   Thumb Code    62  cntdisplaylabel.o(.text)
    CntDisplayLabel::~CntDisplayLabel__sub_object() 0x0000c643   Thumb Code     0  cntdisplaylabel.o(.text)
    CntDisplayLabel::~CntDisplayLabel__deallocating() 0x0000c681   Thumb Code    22  cntdisplaylabel.o(.text)
    CntDisplayLabel::delimiter() const       0x0000c697   Thumb Code    18  cntdisplaylabel.o(.text)
    CntDisplayLabel::comma() const           0x0000c6a9   Thumb Code    18  cntdisplaylabel.o(.text)
    CntDisplayLabel::generateDisplayLabel(const QtMobility::QContact&, QList<QList<QPair<QLatin1String, QLatin1String>>>) const 0x0000c6bb   Thumb Code   446  cntdisplaylabel.o(.text)
    CntDisplayLabel::synthesizedDisplayLabel(const QtMobility::QContact&, QtMobility::QContactManager::Error*) 0x0000c879   Thumb Code   222  cntdisplaylabel.o(.text)
    CntDisplayLabel::contactFilterDetails() const 0x0000c957   Thumb Code    30  cntdisplaylabel.o(.text)
    CntDisplayLabel::groupFilterDetails() const 0x0000c975   Thumb Code    30  cntdisplaylabel.o(.text)
    CntDisplayLabel::updateNameOrdering()    0x0000c993   Thumb Code    12  cntdisplaylabel.o(.text)
    thunk{-8} to CntDisplayLabel::updateNameOrdering() 0x0000c99f   Thumb Code    14  cntdisplaylabel.o(.text)
    CntRelationship::CntRelationship(CContactDatabase*, const QString&) 0x0000c9b9   Thumb Code   190  cntrelationship.o(.text)
    CntRelationship::CntRelationship__sub_object(CContactDatabase*, const QString&) 0x0000c9b9   Thumb Code     0  cntrelationship.o(.text)
    CntRelationship::~CntRelationship()      0x0000ca77   Thumb Code   140  cntrelationship.o(.text)
    CntRelationship::~CntRelationship__sub_object() 0x0000ca77   Thumb Code     0  cntrelationship.o(.text)
    CntRelationship::~CntRelationship__deallocating() 0x0000cb03   Thumb Code    22  cntrelationship.o(.text)
    CntRelationship::isRelationshipTypeSupported(const QString&, const QString&) const 0x0000cb19   Thumb Code    24  cntrelationship.o(.text)
    CntRelationship::relationships(const QString&, const QtMobility::QContactId&, QtMobility::QContactRelationship::Role, QtMobility::QContactManager::Error*) const 0x0000cb31   Thumb Code   694  cntrelationship.o(.text)
    CntRelationship::validateRelationship(const QtMobility::QContactRelationship&, QtMobility::QContactManager::Error*) 0x0000cde7   Thumb Code   612  cntrelationship.o(.text)
    CntRelationship::saveRelationship(QSet<unsigned>*, QtMobility::QContactRelationship*, QtMobility::QContactManager::Error*) 0x0000d04b   Thumb Code   220  cntrelationship.o(.text)
    CntRelationship::saveRelationships(QSet<unsigned>*, QList<QtMobility::QContactRelationship>*, QMap<int, QtMobility::QContactManager::Error>*, QtMobility::QContactManager::Error*) 0x0000d127   Thumb Code   160  cntrelationship.o(.text)
    CntRelationship::removeRelationship(QSet<unsigned>*, const QtMobility::QContactRelationship&, QtMobility::QContactManager::Error*) 0x0000d1c7   Thumb Code   144  cntrelationship.o(.text)
    CntRelationship::removeRelationships(QSet<unsigned>*, const QList<QtMobility::QContactRelationship>&, QMap<int, QtMobility::QContactManager::Error>*, QtMobility::QContactManager::Error*) 0x0000d257   Thumb Code   138  cntrelationship.o(.text)
    CntFilterRelationship::CntFilterRelationship(CContactDatabase&, CntSymbianSrvConnection&, CntDbInfo&) 0x0000d2e1   Thumb Code    18  cntfilterrelationship.o(.text)
    CntFilterRelationship::CntFilterRelationship__sub_object(CContactDatabase&, CntSymbianSrvConnection&, CntDbInfo&) 0x0000d2e1   Thumb Code     0  cntfilterrelationship.o(.text)
    CntFilterRelationship::~CntFilterRelationship() 0x0000d2f3   Thumb Code     4  cntfilterrelationship.o(.text)
    CntFilterRelationship::~CntFilterRelationship__sub_object() 0x0000d2f3   Thumb Code     0  cntfilterrelationship.o(.text)
    CntFilterRelationship::~CntFilterRelationship__deallocating() 0x0000d2f7   Thumb Code    22  cntfilterrelationship.o(.text)
    CntFilterRelationship::createSelectQuery(const QtMobility::QContactFilter&, QString&, QtMobility::QContactManager::Error*) 0x0000d30d   Thumb Code   474  cntfilterrelationship.o(.text)
    CntFilterRelationship::contacts(const QtMobility::QContactFilter&, const QList<QtMobility::QContactSortOrder>&, bool&, QtMobility::QContactManager::Error*) 0x0000d4e7   Thumb Code   254  cntfilterrelationship.o(.text)
    CntFilterRelationship::filterSupported(const QtMobility::QContactFilter&) 0x0000d5e5   Thumb Code    72  cntfilterrelationship.o(.text)
    CntFilterRelationship::getSqlquery(const QtMobility::QContactRelationshipFilter&, QString&, QtMobility::QContactManager::Error*) const 0x0000d62d   Thumb Code    14  cntfilterrelationship.o(.text)
    CntFilterDetail::CntFilterDetail(CContactDatabase&, CntSymbianSrvConnection&, CntDbInfo&) 0x0000d655   Thumb Code    22  cntfilterdetail.o(.text)
    CntFilterDetail::CntFilterDetail__sub_object(CContactDatabase&, CntSymbianSrvConnection&, CntDbInfo&) 0x0000d655   Thumb Code     0  cntfilterdetail.o(.text)
    CntFilterDetail::~CntFilterDetail()      0x0000d66b   Thumb Code     4  cntfilterdetail.o(.text)
    CntFilterDetail::~CntFilterDetail__sub_object() 0x0000d66b   Thumb Code     0  cntfilterdetail.o(.text)
    CntFilterDetail::~CntFilterDetail__deallocating() 0x0000d66f   Thumb Code    22  cntfilterdetail.o(.text)
    CntFilterDetail::updateForMatchFlag(const QtMobility::QContactDetailFilter&, QString&, QtMobility::QContactManager::Error*) const 0x0000d685   Thumb Code   464  cntfilterdetail.o(.text)
    CntFilterDetail::getTableNameWhereClause(const QtMobility::QContactDetailFilter&, QString&, QString&, QtMobility::QContactManager::Error*) const 0x0000d855   Thumb Code   386  cntfilterdetail.o(.text)
    CntFilterDetail::createSelectQuery(const QtMobility::QContactFilter&, QString&, QtMobility::QContactManager::Error*) 0x0000d9d7   Thumb Code  1012  cntfilterdetail.o(.text)
    CntFilterDetail::HandlePredictiveSearchFilter(const QtMobility::QContactFilter&, QtMobility::QContactManager::Error*) 0x0000ddcb   Thumb Code   118  cntfilterdetail.o(.text)
    CntFilterDetail::TMatch::padOutPhoneMatchNumber(long&, int) 0x0000de41   Thumb Code    26  cntfilterdetail.o(.text)
    CntFilterDetail::TMatch::createHash(const TDesC16&, int, int&) 0x0000de5b   Thumb Code   362  cntfilterdetail.o(.text)
    CntFilterDetail::TMatch::TMatch()        0x0000dfc5   Thumb Code    12  cntfilterdetail.o(.text)
    CntFilterDetail::TMatch::TMatch__sub_object() 0x0000dfc5   Thumb Code     0  cntfilterdetail.o(.text)
    CntFilterDetail::TMatch::stripOutNonDigitChars(TDes16&) 0x0000dfd1   Thumb Code    60  cntfilterdetail.o(.text)
    CntFilterDetail::createPhoneMatchNumber(const TDesC16&, int, int, QtMobility::QContactManager::Error*) 0x0000e00d   Thumb Code   190  cntfilterdetail.o(.text)
    CntFilterDetail::createPaddedPhoneDigits(const TDesC16&, int, int, QtMobility::QContactManager::Error*) 0x0000e0cb   Thumb Code   100  cntfilterdetail.o(.text)
    CntFilterDetail::getMatchLengthL(int&)   0x0000e12f   Thumb Code    58  cntfilterdetail.o(.text)
    CntFilterDetail::createMatchPhoneNumberQuery(const QtMobility::QContactFilter&, QString&, QtMobility::QContactManager::Error*) 0x0000e169   Thumb Code  1208  cntfilterdetail.o(.text)
    CntFilterDetail::bestMatchPhoneNumberQuery(const QtMobility::QContactFilter&, QString&, QtMobility::QContactManager::Error*) 0x0000e621   Thumb Code   924  cntfilterdetail.o(.text)
    CntFilterDetail::bestMatchingEnabled()   0x0000e9bd   Thumb Code    78  cntfilterdetail.o(.text)
    CntFilterDetail::fetchAllPhoneNumbers(QString&) 0x0000ea0b   Thumb Code   114  cntfilterdetail.o(.text)
    CntFilterDetail::createPhoneNumberQuery(const QtMobility::QContactFilter&, QString&, QtMobility::QContactManager::Error*) 0x0000ea7d   Thumb Code   206  cntfilterdetail.o(.text)
    CntFilterDetail::contacts(const QtMobility::QContactFilter&, const QList<QtMobility::QContactSortOrder>&, bool&, QtMobility::QContactManager::Error*) 0x0000eb4b   Thumb Code   320  cntfilterdetail.o(.text)
    CntFilterDetail::filterSupported(const QtMobility::QContactFilter&) 0x0000ec8b   Thumb Code   526  cntfilterdetail.o(.text)
    CntDbInfo::CntDbInfo(QtMobility::QContactManagerEngine*) 0x0000eea1   Thumb Code   810  cntdbinfo.o(.text)
    CntDbInfo::CntDbInfo__sub_object(QtMobility::QContactManagerEngine*) 0x0000eea1   Thumb Code     0  cntdbinfo.o(.text)
    CntDbInfo::~CntDbInfo()                  0x0000f1cb   Thumb Code   438  cntdbinfo.o(.text)
    CntDbInfo::~CntDbInfo__sub_object()      0x0000f1cb   Thumb Code     0  cntdbinfo.o(.text)
    CntDbInfo::~CntDbInfo__deallocating()    0x0000f381   Thumb Code    22  cntdbinfo.o(.text)
    CntDbInfo::getDbTableAndColumnName(QString, QString, QString&, QString&, bool&) const 0x0000f397   Thumb Code   502  cntdbinfo.o(.text)
    CntDbInfo::SupportsDetail(QString, QString) 0x0000f58d   Thumb Code   118  cntdbinfo.o(.text)
    CntDbInfo::setDirAndCaseSensitivity(QtMobility::QContactSortOrder, QString&) 0x0000f603   Thumb Code    78  cntdbinfo.o(.text)
    CntDbInfo::isStringFieldType(QString)    0x0000f651   Thumb Code    38  cntdbinfo.o(.text)
    CntDbInfo::getSortQuery(const QList<QtMobility::QContactSortOrder>&, const QString&, QtMobility::QContactManager::Error*) 0x0000f677   Thumb Code  1356  cntdbinfo.o(.text)
    CntFilterDefault::CntFilterDefault(CContactDatabase&, CntSymbianSrvConnection&, CntDbInfo&) 0x0000fc91   Thumb Code    18  cntfilterdefault.o(.text)
    CntFilterDefault::CntFilterDefault__sub_object(CContactDatabase&, CntSymbianSrvConnection&, CntDbInfo&) 0x0000fc91   Thumb Code     0  cntfilterdefault.o(.text)
    CntFilterDefault::~CntFilterDefault()    0x0000fca3   Thumb Code     4  cntfilterdefault.o(.text)
    CntFilterDefault::~CntFilterDefault__sub_object() 0x0000fca3   Thumb Code     0  cntfilterdefault.o(.text)
    CntFilterDefault::~CntFilterDefault__deallocating() 0x0000fca7   Thumb Code    22  cntfilterdefault.o(.text)
    CntFilterDefault::createSelectQuery(const QtMobility::QContactFilter&, QString&, QtMobility::QContactManager::Error*) 0x0000fcbd   Thumb Code    70  cntfilterdefault.o(.text)
    CntFilterDefault::contacts(const QtMobility::QContactFilter&, const QList<QtMobility::QContactSortOrder>&, bool&, QtMobility::QContactManager::Error*) 0x0000fd03   Thumb Code   246  cntfilterdefault.o(.text)
    CntFilterDefault::filterSupported(const QtMobility::QContactFilter&) 0x0000fdf9   Thumb Code    24  cntfilterdefault.o(.text)
    CntFilterIntersection::CntFilterIntersection(CContactDatabase&, CntSymbianSrvConnection&, CntDbInfo&) 0x0000fe21   Thumb Code    22  cntfilterintersection.o(.text)
    CntFilterIntersection::CntFilterIntersection__sub_object(CContactDatabase&, CntSymbianSrvConnection&, CntDbInfo&) 0x0000fe21   Thumb Code     0  cntfilterintersection.o(.text)
    CntFilterIntersection::~CntFilterIntersection() 0x0000fe37   Thumb Code     4  cntfilterintersection.o(.text)
    CntFilterIntersection::~CntFilterIntersection__sub_object() 0x0000fe37   Thumb Code     0  cntfilterintersection.o(.text)
    CntFilterIntersection::~CntFilterIntersection__deallocating() 0x0000fe3b   Thumb Code    22  cntfilterintersection.o(.text)
    CntFilterIntersection::getSelectQueryforFilter(const QtMobility::QContactFilter&, QString&, QtMobility::QContactManager::Error*) 0x0000fe51   Thumb Code   316  cntfilterintersection.o(.text)
    CntFilterIntersection::createSelectQuery(const QtMobility::QContactFilter&, QString&, QtMobility::QContactManager::Error*) 0x0000ff8d   Thumb Code   190  cntfilterintersection.o(.text)
    CntFilterIntersection::contacts(const QtMobility::QContactFilter&, const QList<QtMobility::QContactSortOrder>&, bool&, QtMobility::QContactManager::Error*) 0x0001004b   Thumb Code   238  cntfilterintersection.o(.text)
    CntFilterIntersection::filterSupported(const QtMobility::QContactFilter&) 0x00010139   Thumb Code    24  cntfilterintersection.o(.text)
    CntFilterUnion::CntFilterUnion(CContactDatabase&, CntSymbianSrvConnection&, CntDbInfo&) 0x0001018d   Thumb Code    22  cntfilterunion.o(.text)
    CntFilterUnion::CntFilterUnion__sub_object(CContactDatabase&, CntSymbianSrvConnection&, CntDbInfo&) 0x0001018d   Thumb Code     0  cntfilterunion.o(.text)
    CntFilterUnion::~CntFilterUnion()        0x000101a3   Thumb Code     4  cntfilterunion.o(.text)
    CntFilterUnion::~CntFilterUnion__sub_object() 0x000101a3   Thumb Code     0  cntfilterunion.o(.text)
    CntFilterUnion::~CntFilterUnion__deallocating() 0x000101a7   Thumb Code    22  cntfilterunion.o(.text)
    CntFilterUnion::getSelectQueryforFilter(const QtMobility::QContactFilter&, QString&, QtMobility::QContactManager::Error*) 0x000101bd   Thumb Code   316  cntfilterunion.o(.text)
    CntFilterUnion::createSelectQuery(const QtMobility::QContactFilter&, QString&, QtMobility::QContactManager::Error*) 0x000102f9   Thumb Code   190  cntfilterunion.o(.text)
    CntFilterUnion::contacts(const QtMobility::QContactFilter&, const QList<QtMobility::QContactSortOrder>&, bool&, QtMobility::QContactManager::Error*) 0x000103b7   Thumb Code   238  cntfilterunion.o(.text)
    CntFilterUnion::filterSupported(const QtMobility::QContactFilter&) 0x000104a5   Thumb Code    24  cntfilterunion.o(.text)
    CntSymbianFilter::CntSymbianFilter(CContactDatabase&) 0x000104f5   Thumb Code    96  cntsymbianfilterdbms.o(.text)
    CntSymbianFilter::CntSymbianFilter__sub_object(CContactDatabase&) 0x000104f5   Thumb Code     0  cntsymbianfilterdbms.o(.text)
    CntSymbianFilter::~CntSymbianFilter()    0x00010555   Thumb Code    36  cntsymbianfilterdbms.o(.text)
    CntSymbianFilter::~CntSymbianFilter__sub_object() 0x00010555   Thumb Code     0  cntsymbianfilterdbms.o(.text)
    CntSymbianFilter::~CntSymbianFilter__deallocating() 0x00010579   Thumb Code    22  cntsymbianfilterdbms.o(.text)
    CntSymbianFilter::isFalsePositive(const CContactItemFieldSet&, const TUid&, const TDesC16&) 0x0001058f   Thumb Code   144  cntsymbianfilterdbms.o(.text)
    CntSymbianFilter::findContactsL(const CContactItemFieldDef&, const TDesC16&) const 0x0001061f   Thumb Code    36  cntsymbianfilterdbms.o(.text)
    CntSymbianFilter::findContacts(CContactIdArray*&, const CContactItemFieldDef&, const TDesC16&) const 0x00010643   Thumb Code    84  cntsymbianfilterdbms.o(.text)
    CntSymbianFilter::transformDetailFilterL(const QtMobility::QContactDetailFilter&, CContactItemFieldDef*&) 0x00010697   Thumb Code   602  cntsymbianfilterdbms.o(.text)
    CntSymbianFilter::contactExists(const long&) 0x000108f1   Thumb Code    80  cntsymbianfilterdbms.o(.text)
    CntSymbianFilter::matchContacts(CContactIdArray*&, const TDesC16&, int) 0x00010941   Thumb Code    86  cntsymbianfilterdbms.o(.text)
    CntSymbianFilter::getMatchLengthL(int&)  0x00010997   Thumb Code    52  cntsymbianfilterdbms.o(.text)
    CntSymbianFilter::filterSupportLevel(const QtMobility::QContactFilter&) 0x000109cb   Thumb Code   614  cntsymbianfilterdbms.o(.text)
    CntSymbianFilter::filterContacts(const QtMobility::QContactFilter&, QtMobility::QContactManager::Error*) 0x00010c31   Thumb Code   806  cntsymbianfilterdbms.o(.text)
    CntSymbianFilter::contacts(const QtMobility::QContactFilter&, const QList<QtMobility::QContactSortOrder>&, bool&, QtMobility::QContactManager::Error*) 0x00010f57   Thumb Code  1332  cntsymbianfilterdbms.o(.text)
    CntSymbianFilter::filterSupported(const QtMobility::QContactFilter&) 0x0001148b   Thumb Code    42  cntsymbianfilterdbms.o(.text)
    CntSymbianSorterDbms::CntSymbianSorterDbms(CContactDatabase&, CntTransformContact&) 0x000114b5   Thumb Code    14  cntsymbiansorterdbms.o(.text)
    CntSymbianSorterDbms::CntSymbianSorterDbms__sub_object(CContactDatabase&, CntTransformContact&) 0x000114b5   Thumb Code     0  cntsymbiansorterdbms.o(.text)
    CntSymbianSorterDbms::~CntSymbianSorterDbms() 0x000114c3   Thumb Code     2  cntsymbiansorterdbms.o(.text)
    CntSymbianSorterDbms::~CntSymbianSorterDbms__sub_object() 0x000114c3   Thumb Code     0  cntsymbiansorterdbms.o(.text)
    CntSymbianSorterDbms::sortL(const CContactIdArray*, const QList<QtMobility::QContactSortOrder>&) const 0x000114c5   Thumb Code   608  cntsymbiansorterdbms.o(.text)
    CntSymbianSorterDbms::contactsL(const QList<QtMobility::QContactSortOrder>&) const 0x00011725   Thumb Code   202  cntsymbiansorterdbms.o(.text)
    CntSymbianSorterDbms::contacts(const QList<QtMobility::QContactSortOrder>&, QtMobility::QContactManager::Error*) 0x000117ef   Thumb Code   206  cntsymbiansorterdbms.o(.text)
    CntSymbianSorterDbms::sortL(const QList<unsigned>&, QList<QtMobility::QContactSortOrder>&) const 0x000118bd   Thumb Code   330  cntsymbiansorterdbms.o(.text)
    CntSymbianSorterDbms::sort(QList<unsigned>, QList<QtMobility::QContactSortOrder>&, QtMobility::QContactManager::Error*) 0x00011a07   Thumb Code   176  cntsymbiansorterdbms.o(.text)
    CntSymbianSorterDbms::sortOrderSupported(const QList<QtMobility::QContactSortOrder>&) 0x00011ab7   Thumb Code   302  cntsymbiansorterdbms.o(.text)
    CntSymbianSrvConnection::CntSymbianSrvConnection(QtMobility::QContactManagerEngine*) 0x00011be5   Thumb Code    44  cntsymbiansrvconnection.o(.text)
    CntSymbianSrvConnection::CntSymbianSrvConnection__sub_object(QtMobility::QContactManagerEngine*) 0x00011be5   Thumb Code     0  cntsymbiansrvconnection.o(.text)
    CntSymbianSrvConnection::~CntSymbianSrvConnection() 0x00011c11   Thumb Code    30  cntsymbiansrvconnection.o(.text)
    CntSymbianSrvConnection::~CntSymbianSrvConnection__sub_object() 0x00011c11   Thumb Code     0  cntsymbiansrvconnection.o(.text)
    CntSymbianSrvConnection::GetReceivingBufferL(int) 0x00011c2f   Thumb Code   116  cntsymbiansrvconnection.o(.text)
    CntSymbianSrvConnection::OpenDatabaseL() 0x00011ca3   Thumb Code    50  cntsymbiansrvconnection.o(.text)
    CntSymbianSrvConnection::Version() const 0x00011cd5   Thumb Code    20  cntsymbiansrvconnection.o(.text)
    CntSymbianSrvConnection::ConnectSrvL()   0x00011ce9   Thumb Code   202  cntsymbiansrvconnection.o(.text)
    CntSymbianSrvConnection::readContactsToBufferL(const TDesC16&, CntSymbianSrvConnection::QueryType) 0x00011db3   Thumb Code   178  cntsymbiansrvconnection.o(.text)
    CntSymbianSrvConnection::searchContactIdsL(const TDesC16&, CntSymbianSrvConnection::QueryType) 0x00011e65   Thumb Code    74  cntsymbiansrvconnection.o(.text)
    CntSymbianSrvConnection::searchContacts(const QString&, QtMobility::QContactManager::Error*) 0x00011eaf   Thumb Code   120  cntsymbiansrvconnection.o(.text)
    CntSymbianSrvConnection::searchContactNamesL(const TDesC16&) 0x00011f27   Thumb Code   646  cntsymbiansrvconnection.o(.text)
    CntSymbianSrvConnection::searchContactName(unsigned, QtMobility::QContactManager::Error*) 0x000121ad   Thumb Code   220  cntsymbiansrvconnection.o(.text)
    CntSymbianSrvConnection::searchOnServer(const QString&, CntSymbianSrvConnection::QueryType, QtMobility::QContactManager::Error*) 0x00012289   Thumb Code   120  cntsymbiansrvconnection.o(.text)
    CntSymbianSrvConnection::searchAllContactNames(QtMobility::QContactManager::Error*) 0x00012301   Thumb Code   114  cntsymbiansrvconnection.o(.text)
    CntSymbianSrvConnection::searchPhoneNumbersL(const TDesC16&, CntSymbianSrvConnection::QueryType) 0x00012373   Thumb Code   140  cntsymbiansrvconnection.o(.text)
    CntSymbianSrvConnection::searchPhoneNumbers(const QString&, QtMobility::QContactManager::Error*) 0x000123ff   Thumb Code   180  cntsymbiansrvconnection.o(.text)
    CntTransformContact::initializeCntTransformContactData() 0x000124c1   Thumb Code  1092  cnttransformcontact.o(.text)
    CntTransformContact::CntTransformContact() 0x00012905   Thumb Code    64  cnttransformcontact.o(.text)
    CntTransformContact::CntTransformContact__sub_object() 0x00012905   Thumb Code     0  cnttransformcontact.o(.text)
    CntTransformContact::~CntTransformContact() 0x00012945   Thumb Code   250  cnttransformcontact.o(.text)
    CntTransformContact::~CntTransformContact__sub_object() 0x00012945   Thumb Code     0  cnttransformcontact.o(.text)
    CntTransformContact::~CntTransformContact__deallocating() 0x00012a3f   Thumb Code    22  cnttransformcontact.o(.text)
    CntTransformContact::transformPreferredDetail(const CContactItemField&, const QtMobility::QContactDetail&, QtMobility::QContact&) const 0x00012a55   Thumb Code   352  cnttransformcontact.o(.text)
    CntTransformContact::transformItemField(const CContactItemField&, const QtMobility::QContact&) 0x00012bb5   Thumb Code   518  cnttransformcontact.o(.text)
    CntTransformContact::transformContactL(CContactItem&) 0x00012dbb   Thumb Code   202  cnttransformcontact.o(.text)
    CntTransformContact::transformTimestampItemFieldL(const CContactItem&, const CContactDatabase&) 0x00012e85   Thumb Code   522  cnttransformcontact.o(.text)
    CntTransformContact::transformGuidItemFieldL(const CContactItem&, const CContactDatabase&) const 0x0001308f   Thumb Code   172  cnttransformcontact.o(.text)
    CntTransformContact::transformPostSaveDetailsL(const CContactItem&, QtMobility::QContact&, const CContactDatabase&, QString) 0x0001313b   Thumb Code   388  cnttransformcontact.o(.text)
    CntTransformContact::resetTransformObjects() const 0x000132bf   Thumb Code    74  cnttransformcontact.o(.text)
    CntTransformContact::transformPreferredDetailL(const QtMobility::QContact&, const QtMobility::QContactDetail&, QList<CContactItemField*>&) const 0x00013309   Thumb Code   390  cnttransformcontact.o(.text)
    CntTransformContact::transformDetailL(const QtMobility::QContactDetail&) const 0x0001348f   Thumb Code   298  cnttransformcontact.o(.text)
    CntTransformContact::transformContactL(QtMobility::QContact&, CContactItem&) const 0x000135b9   Thumb Code   404  cnttransformcontact.o(.text)
    CntTransformContact::supportedSortingFieldTypes(QString, QString) 0x0001374d   Thumb Code   190  cnttransformcontact.o(.text)
    CntTransformContact::itemFieldUidsL(QString) const 0x0001380b   Thumb Code   166  cnttransformcontact.o(.text)
    CntTransformContact::GetIdForDetailL(const QtMobility::QContactDetailFilter&, bool&) const 0x000138b1   Thumb Code   278  cnttransformcontact.o(.text)
    CntTransformContact::detailDefinitions(QMap<QString, QtMobility::QContactDetailDefinition>&, const QString&, QtMobility::QContactManager::Error*) const 0x000139c7   Thumb Code    96  cnttransformcontact.o(.text)
    CntTransformContactData::setContextsL(const QtMobility::QContactDetail&, CContactItemField&) 0x00013b75   Thumb Code   126  cnttransformcontactdata.o(.text)
    CntTransformContactData::transformToTextFieldL(const QtMobility::QContactDetail&, QList<CContactItemField*>&, const QString&, TUid, TUid, bool) 0x00013bf3   Thumb Code   114  cnttransformcontactdata.o(.text)
    CntTransformContactData::setContexts(const TUid&, QtMobility::QContactDetail&) 0x00013c65   Thumb Code    96  cnttransformcontactdata.o(.text)
    CntTransformName::transformDetailL(const QtMobility::QContactDetail&) 0x00013cd5   Thumb Code   430  cnttransformname.o(.text)
    CntTransformName::transformItemField(const CContactItemField&, const QtMobility::QContact&) 0x00013e83   Thumb Code   658  cnttransformname.o(.text)
    CntTransformName::supportsDetail(QString) const 0x00014115   Thumb Code    26  cnttransformname.o(.text)
    CntTransformName::supportedFields() const 0x0001412f   Thumb Code    90  cnttransformname.o(.text)
    CntTransformName::supportedSortingFieldTypes(QString) const 0x00014189   Thumb Code   282  cnttransformname.o(.text)
    CntTransformName::supportsSubType(const QString&) const 0x000142a3   Thumb Code    10  cnttransformname.o(.text)
    CntTransformName::getIdForField(const QString&) const 0x000142ad   Thumb Code   128  cnttransformname.o(.text)
    CntTransformName::detailDefinitions(QMap<QString, QtMobility::QContactDetailDefinition>&, const QString&) const 0x0001432d   Thumb Code   546  cnttransformname.o(.text)
    CntTransformNickname::transformDetailL(const QtMobility::QContactDetail&) 0x00014551   Thumb Code   130  cnttransformnickname.o(.text)
    CntTransformNickname::transformItemField(const CContactItemField&, const QtMobility::QContact&) 0x000145d3   Thumb Code   266  cnttransformnickname.o(.text)
    CntTransformNickname::supportsDetail(QString) const 0x000146dd   Thumb Code    26  cnttransformnickname.o(.text)
    CntTransformNickname::supportedFields() const 0x000146f7   Thumb Code    62  cnttransformnickname.o(.text)
    CntTransformNickname::supportedSortingFieldTypes(QString) const 0x00014735   Thumb Code    46  cnttransformnickname.o(.text)
    CntTransformNickname::supportsSubType(const QString&) const 0x00014763   Thumb Code    10  cnttransformnickname.o(.text)
    CntTransformNickname::getIdForField(const QString&) const 0x0001476d   Thumb Code    30  cnttransformnickname.o(.text)
    CntTransformNickname::detailDefinitions(QMap<QString, QtMobility::QContactDetailDefinition>&, const QString&) const 0x0001478b   Thumb Code   300  cnttransformnickname.o(.text)
    CntTransformPhoneNumber::transformDetailL(const QtMobility::QContactDetail&) 0x000148cd   Thumb Code  1108  cnttransformphonenumber.o(.text)
    CntTransformPhoneNumber::transformItemField(const CContactItemField&, const QtMobility::QContact&) 0x00014d21   Thumb Code   682  cnttransformphonenumber.o(.text)
    CntTransformPhoneNumber::supportsDetail(QString) const 0x00014fcb   Thumb Code    26  cnttransformphonenumber.o(.text)
    CntTransformPhoneNumber::supportedFields() const 0x00014fe5   Thumb Code    78  cnttransformphonenumber.o(.text)
    CntTransformPhoneNumber::supportedSortingFieldTypes(QString) const 0x00015033   Thumb Code    72  cnttransformphonenumber.o(.text)
    CntTransformPhoneNumber::supportsSubType(const QString&) const 0x0001507b   Thumb Code    26  cnttransformphonenumber.o(.text)
    CntTransformPhoneNumber::getIdForField(const QString&) const 0x00015095   Thumb Code   304  cnttransformphonenumber.o(.text)
    CntTransformPhoneNumber::detailDefinitions(QMap<QString, QtMobility::QContactDetailDefinition>&, const QString&) const 0x000151c5   Thumb Code   562  cnttransformphonenumber.o(.text)
    CntTransformEmail::transformDetailL(const QtMobility::QContactDetail&) 0x00015429   Thumb Code   130  cnttransformemail.o(.text)
    CntTransformEmail::transformItemField(const CContactItemField&, const QtMobility::QContact&) 0x000154ab   Thumb Code   200  cnttransformemail.o(.text)
    CntTransformEmail::supportsDetail(QString) const 0x00015573   Thumb Code    26  cnttransformemail.o(.text)
    CntTransformEmail::supportedFields() const 0x0001558d   Thumb Code    62  cnttransformemail.o(.text)
    CntTransformEmail::supportedSortingFieldTypes(QString) const 0x000155cb   Thumb Code    46  cnttransformemail.o(.text)
    CntTransformEmail::supportsSubType(const QString&) const 0x000155f9   Thumb Code    10  cnttransformemail.o(.text)
    CntTransformEmail::getIdForField(const QString&) const 0x00015603   Thumb Code    30  cnttransformemail.o(.text)
    CntTransformEmail::detailDefinitions(QMap<QString, QtMobility::QContactDetailDefinition>&, const QString&) const 0x00015621   Thumb Code   592  cnttransformemail.o(.text)
    CntTransformAddress::transformDetailL(const QtMobility::QContactDetail&) 0x00015871   Thumb Code   440  cnttransformaddress.o(.text)
    CntTransformAddress::transformItemField(const CContactItemField&, const QtMobility::QContact&) 0x00015a29   Thumb Code  1328  cnttransformaddress.o(.text)
    CntTransformAddress::supportsDetail(QString) const 0x00015f59   Thumb Code    26  cnttransformaddress.o(.text)
    CntTransformAddress::supportedFields() const 0x00015f73   Thumb Code    90  cnttransformaddress.o(.text)
    CntTransformAddress::supportedSortingFieldTypes(QString) const 0x00015fcd   Thumb Code   282  cnttransformaddress.o(.text)
    CntTransformAddress::supportsSubType(const QString&) const 0x000160e7   Thumb Code    26  cnttransformaddress.o(.text)
    CntTransformAddress::getIdForField(const QString&) const 0x00016101   Thumb Code   192  cnttransformaddress.o(.text)
    CntTransformAddress::detailDefinitions(QMap<QString, QtMobility::QContactDetailDefinition>&, const QString&) const 0x000161c1   Thumb Code   642  cnttransformaddress.o(.text)
    CntTransformUrl::transformDetailL(const QtMobility::QContactDetail&) 0x00016449   Thumb Code   282  cnttransformurl.o(.text)
    CntTransformUrl::transformItemField(const CContactItemField&, const QtMobility::QContact&) 0x00016563   Thumb Code   254  cnttransformurl.o(.text)
    CntTransformUrl::supportsDetail(QString) const 0x00016661   Thumb Code    26  cnttransformurl.o(.text)
    CntTransformUrl::supportedFields() const 0x0001667b   Thumb Code    60  cnttransformurl.o(.text)
    CntTransformUrl::supportedSortingFieldTypes(QString) const 0x000166b7   Thumb Code    44  cnttransformurl.o(.text)
    CntTransformUrl::supportsSubType(const QString&) const 0x000166e3   Thumb Code    26  cnttransformurl.o(.text)
    CntTransformUrl::getIdForField(const QString&) const 0x000166fd   Thumb Code    58  cnttransformurl.o(.text)
    CntTransformUrl::detailDefinitions(QMap<QString, QtMobility::QContactDetailDefinition>&, const QString&) const 0x00016737   Thumb Code   750  cnttransformurl.o(.text)
    CntTransformBirthday::transformDetailL(const QtMobility::QContactDetail&) 0x00016a35   Thumb Code   238  cnttransformbirthday.o(.text)
    CntTransformBirthday::transformItemField(const CContactItemField&, const QtMobility::QContact&) 0x00016b23   Thumb Code   166  cnttransformbirthday.o(.text)
    CntTransformBirthday::supportsDetail(QString) const 0x00016bc9   Thumb Code    26  cnttransformbirthday.o(.text)
    CntTransformBirthday::supportedFields() const 0x00016be3   Thumb Code    60  cnttransformbirthday.o(.text)
    CntTransformBirthday::supportedSortingFieldTypes(QString) const 0x00016c1f   Thumb Code    44  cnttransformbirthday.o(.text)
    CntTransformBirthday::supportsSubType(const QString&) const 0x00016c4b   Thumb Code    10  cnttransformbirthday.o(.text)
    CntTransformBirthday::getIdForField(const QString&) const 0x00016c55   Thumb Code    28  cnttransformbirthday.o(.text)
    CntTransformBirthday::detailDefinitions(QMap<QString, QtMobility::QContactDetailDefinition>&, const QString&) const 0x00016c71   Thumb Code   300  cnttransformbirthday.o(.text)
    CntTransformOnlineAccount::transformDetailL(const QtMobility::QContactDetail&) 0x00016db1   Thumb Code   452  cnttransformonlineaccountsimple.o(.text)
    CntTransformOnlineAccount::transformItemField(const CContactItemField&, const QtMobility::QContact&) 0x00016f75   Thumb Code   370  cnttransformonlineaccountsimple.o(.text)
    CntTransformOnlineAccount::supportsDetail(QString) const 0x000170e7   Thumb Code    26  cnttransformonlineaccountsimple.o(.text)
    CntTransformOnlineAccount::supportedFields() const 0x00017101   Thumb Code    62  cnttransformonlineaccountsimple.o(.text)
    CntTransformOnlineAccount::supportedSortingFieldTypes(QString) const 0x0001713f   Thumb Code    78  cnttransformonlineaccountsimple.o(.text)
    CntTransformOnlineAccount::supportsSubType(const QString&) const 0x0001718d   Thumb Code    26  cnttransformonlineaccountsimple.o(.text)
    CntTransformOnlineAccount::getIdForField(const QString&) const 0x000171a7   Thumb Code    84  cnttransformonlineaccountsimple.o(.text)
    CntTransformOnlineAccount::detailDefinitions(QMap<QString, QtMobility::QContactDetailDefinition>&, const QString&) const 0x000171fb   Thumb Code   774  cnttransformonlineaccountsimple.o(.text)
    CntTransformOrganisation::transformDetailL(const QtMobility::QContactDetail&) 0x00017535   Thumb Code   388  cnttransformorganisation.o(.text)
    CntTransformOrganisation::transformItemField(const CContactItemField&, const QtMobility::QContact&) 0x000176b9   Thumb Code   506  cnttransformorganisation.o(.text)
    CntTransformOrganisation::supportsDetail(QString) const 0x000178b3   Thumb Code    26  cnttransformorganisation.o(.text)
    CntTransformOrganisation::supportedFields() const 0x000178cd   Thumb Code   100  cnttransformorganisation.o(.text)
    CntTransformOrganisation::supportedSortingFieldTypes(QString) const 0x00017931   Thumb Code   198  cnttransformorganisation.o(.text)
    CntTransformOrganisation::supportsSubType(const QString&) const 0x000179f7   Thumb Code    10  cnttransformorganisation.o(.text)
    CntTransformOrganisation::getIdForField(const QString&) const 0x00017a01   Thumb Code   120  cnttransformorganisation.o(.text)
    CntTransformOrganisation::detailDefinitions(QMap<QString, QtMobility::QContactDetailDefinition>&, const QString&) const 0x00017a79   Thumb Code   554  cnttransformorganisation.o(.text)
    CntTransformRingtone::transformDetailL(const QtMobility::QContactDetail&) 0x00017ccd   Thumb Code   518  cnttransformringtone.o(.text)
    CntTransformRingtone::transformItemField(const CContactItemField&, const QtMobility::QContact&) 0x00017ed3   Thumb Code   314  cnttransformringtone.o(.text)
    CntTransformRingtone::supportsDetail(QString) const 0x0001800d   Thumb Code    26  cnttransformringtone.o(.text)
    CntTransformRingtone::supportedFields() const 0x00018027   Thumb Code    76  cnttransformringtone.o(.text)
    CntTransformRingtone::supportedSortingFieldTypes(QString) const 0x00018073   Thumb Code    54  cnttransformringtone.o(.text)
    CntTransformRingtone::supportsSubType(const QString&) const 0x000180a9   Thumb Code     6  cnttransformringtone.o(.text)
    CntTransformRingtone::getIdForField(const QString&) const 0x000180af   Thumb Code    42  cnttransformringtone.o(.text)
    CntTransformRingtone::detailDefinitions(QMap<QString, QtMobility::QContactDetailDefinition>&, const QString&) const 0x000180d9   Thumb Code   338  cnttransformringtone.o(.text)
    CntTransformThumbnail::CntTransformThumbnail() 0x00018241   Thumb Code    34  cnttransformthumbnail.o(.text)
    CntTransformThumbnail::CntTransformThumbnail__sub_object() 0x00018241   Thumb Code     0  cnttransformthumbnail.o(.text)
    CntTransformThumbnail::~CntTransformThumbnail() 0x00018263   Thumb Code    36  cnttransformthumbnail.o(.text)
    CntTransformThumbnail::~CntTransformThumbnail__sub_object() 0x00018263   Thumb Code     0  cnttransformthumbnail.o(.text)
    CntTransformThumbnail::~CntTransformThumbnail__deallocating() 0x00018287   Thumb Code    22  cnttransformthumbnail.o(.text)
    CntTransformThumbnail::transformDetailL(const QtMobility::QContactDetail&) 0x0001829d   Thumb Code   268  cnttransformthumbnail.o(.text)
    CntTransformThumbnail::transformItemField(const CContactItemField&, const QtMobility::QContact&) 0x000183a9   Thumb Code   262  cnttransformthumbnail.o(.text)
    CntTransformThumbnail::supportsDetail(QString) const 0x000184af   Thumb Code    26  cnttransformthumbnail.o(.text)
    CntTransformThumbnail::supportedFields() const 0x000184c9   Thumb Code    74  cnttransformthumbnail.o(.text)
    CntTransformThumbnail::supportedSortingFieldTypes(QString) const 0x00018513   Thumb Code    18  cnttransformthumbnail.o(.text)
    CntTransformThumbnail::supportsSubType(const QString&) const 0x00018525   Thumb Code     6  cnttransformthumbnail.o(.text)
    CntTransformThumbnail::getIdForField(const QString&) const 0x0001852b   Thumb Code     6  cnttransformthumbnail.o(.text)
    CntTransformThumbnail::detailDefinitions(QMap<QString, QtMobility::QContactDetailDefinition>&, const QString&) const 0x00018531   Thumb Code    10  cnttransformthumbnail.o(.text)
    CntTransformAvatar::transformDetailL(const QtMobility::QContactDetail&) 0x00018569   Thumb Code   474  cnttransformavatar.o(.text)
    CntTransformAvatar::transformItemField(const CContactItemField&, const QtMobility::QContact&) 0x00018743   Thumb Code   188  cnttransformavatar.o(.text)
    CntTransformAvatar::supportsDetail(QString) const 0x000187ff   Thumb Code    26  cnttransformavatar.o(.text)
    CntTransformAvatar::supportedFields() const 0x00018819   Thumb Code    60  cnttransformavatar.o(.text)
    CntTransformAvatar::supportedSortingFieldTypes(QString) const 0x00018855   Thumb Code    18  cnttransformavatar.o(.text)
    CntTransformAvatar::supportsSubType(const QString&) const 0x00018867   Thumb Code     6  cnttransformavatar.o(.text)
    CntTransformAvatar::getIdForField(const QString&) const 0x0001886d   Thumb Code    26  cnttransformavatar.o(.text)
    CntTransformAvatar::detailDefinitions(QMap<QString, QtMobility::QContactDetailDefinition>&, const QString&) const 0x00018887   Thumb Code   384  cnttransformavatar.o(.text)
    CntThumbnailCreator::CntThumbnailCreator() 0x00018a09   Thumb Code    64  cntthumbnailcreator.o(.text)
    CntThumbnailCreator::CntThumbnailCreator__sub_object() 0x00018a09   Thumb Code     0  cntthumbnailcreator.o(.text)
    CntThumbnailCreator::~CntThumbnailCreator() 0x00018a49   Thumb Code   120  cntthumbnailcreator.o(.text)
    CntThumbnailCreator::~CntThumbnailCreator__sub_object() 0x00018a49   Thumb Code     0  cntthumbnailcreator.o(.text)
    CntThumbnailCreator::~CntThumbnailCreator__deallocating() 0x00018ac1   Thumb Code    22  cntthumbnailcreator.o(.text)
    CntThumbnailCreator::DecodeImageL(const TBuf<(int)256>&) 0x00018ad7   Thumb Code   214  cntthumbnailcreator.o(.text)
    CntThumbnailCreator::addThumbnailFieldL(QList<CContactItemField*>*, const TBuf<(int)256>&, const TSize&) 0x00018bad   Thumb Code   106  cntthumbnailcreator.o(.text)
    CntThumbnailCreator::EncodeImageL()      0x00018c17   Thumb Code    92  cntthumbnailcreator.o(.text)
    CntThumbnailCreator::addThumbnailFieldL(QList<CContactItemField*>*, CFbsBitmap*, const TSize&) 0x00018c73   Thumb Code   134  cntthumbnailcreator.o(.text)
    CntThumbnailCreator::initializeThumbnailFieldL() 0x00018cf9   Thumb Code   142  cntthumbnailcreator.o(.text)
    CntThumbnailCreator::CreateContactFieldL() 0x00018d87   Thumb Code   138  cntthumbnailcreator.o(.text)
    CntThumbnailCreator::ScaleImageL()       0x00018e11   Thumb Code   150  cntthumbnailcreator.o(.text)
    CntThumbnailCreator::RunL()              0x00018ea7   Thumb Code   112  cntthumbnailcreator.o(.text)
    CntThumbnailCreator::DoCancel()          0x00018f17   Thumb Code    40  cntthumbnailcreator.o(.text)
    CntThumbnailCreator::RunError(int)       0x00018f3f   Thumb Code    40  cntthumbnailcreator.o(.text)
    CntTransformSyncTarget::transformDetailL(const QtMobility::QContactDetail&) 0x00018f79   Thumb Code   130  cnttransformsynctarget.o(.text)
    CntTransformSyncTarget::transformItemField(const CContactItemField&, const QtMobility::QContact&) 0x00018ffb   Thumb Code   152  cnttransformsynctarget.o(.text)
    CntTransformSyncTarget::supportsDetail(QString) const 0x00019093   Thumb Code    26  cnttransformsynctarget.o(.text)
    CntTransformSyncTarget::supportedFields() const 0x000190ad   Thumb Code    62  cnttransformsynctarget.o(.text)
    CntTransformSyncTarget::supportedSortingFieldTypes(QString) const 0x000190eb   Thumb Code    46  cnttransformsynctarget.o(.text)
    CntTransformSyncTarget::supportsSubType(const QString&) const 0x00019119   Thumb Code    10  cnttransformsynctarget.o(.text)
    CntTransformSyncTarget::getIdForField(const QString&) const 0x00019123   Thumb Code    30  cnttransformsynctarget.o(.text)
    CntTransformSyncTarget::detailDefinitions(QMap<QString, QtMobility::QContactDetailDefinition>&, const QString&) const 0x00019141   Thumb Code   744  cnttransformsynctarget.o(.text)
    CntTransformGender::transformDetailL(const QtMobility::QContactDetail&) 0x00019429   Thumb Code   130  cnttransformgender.o(.text)
    CntTransformGender::transformItemField(const CContactItemField&, const QtMobility::QContact&) 0x000194ab   Thumb Code   152  cnttransformgender.o(.text)
    CntTransformGender::supportsDetail(QString) const 0x00019543   Thumb Code    26  cnttransformgender.o(.text)
    CntTransformGender::supportedFields() const 0x0001955d   Thumb Code    62  cnttransformgender.o(.text)
    CntTransformGender::supportedSortingFieldTypes(QString) const 0x0001959b   Thumb Code    46  cnttransformgender.o(.text)
    CntTransformGender::supportsSubType(const QString&) const 0x000195c9   Thumb Code    10  cnttransformgender.o(.text)
    CntTransformGender::getIdForField(const QString&) const 0x000195d3   Thumb Code    78  cnttransformgender.o(.text)
    CntTransformGender::detailDefinitions(QMap<QString, QtMobility::QContactDetailDefinition>&, const QString&) const 0x00019621   Thumb Code   312  cnttransformgender.o(.text)
    CntTransformAnniversary::transformDetailL(const QtMobility::QContactDetail&) 0x00019779   Thumb Code   270  cnttransformanniversary.o(.text)
    CntTransformAnniversary::transformItemField(const CContactItemField&, const QtMobility::QContact&) 0x00019887   Thumb Code   338  cnttransformanniversary.o(.text)
    CntTransformAnniversary::supportsDetail(QString) const 0x000199d9   Thumb Code    26  cnttransformanniversary.o(.text)
    CntTransformAnniversary::supportedFields() const 0x000199f3   Thumb Code    60  cnttransformanniversary.o(.text)
    CntTransformAnniversary::supportedSortingFieldTypes(QString) const 0x00019a2f   Thumb Code    18  cnttransformanniversary.o(.text)
    CntTransformAnniversary::supportsSubType(const QString&) const 0x00019a41   Thumb Code    26  cnttransformanniversary.o(.text)
    CntTransformAnniversary::getIdForField(const QString&) const 0x00019a5b   Thumb Code   138  cnttransformanniversary.o(.text)
    CntTransformAnniversary::detailDefinitions(QMap<QString, QtMobility::QContactDetailDefinition>&, const QString&) const 0x00019ae5   Thumb Code   418  cnttransformanniversary.o(.text)
    CntTransformAnniversarySimple::transformDetailL(const QtMobility::QContactDetail&) 0x00019c95   Thumb Code   208  cnttransformanniversarysimple.o(.text)
    CntTransformAnniversarySimple::transformItemField(const CContactItemField&, const QtMobility::QContact&) 0x00019d65   Thumb Code   166  cnttransformanniversarysimple.o(.text)
    CntTransformAnniversarySimple::supportsDetail(QString) const 0x00019e0b   Thumb Code    26  cnttransformanniversarysimple.o(.text)
    CntTransformAnniversarySimple::supportedFields() const 0x00019e25   Thumb Code    60  cnttransformanniversarysimple.o(.text)
    CntTransformAnniversarySimple::supportedSortingFieldTypes(QString) const 0x00019e61   Thumb Code    18  cnttransformanniversarysimple.o(.text)
    CntTransformAnniversarySimple::supportsSubType(const QString&) const 0x00019e73   Thumb Code     6  cnttransformanniversarysimple.o(.text)
    CntTransformAnniversarySimple::getIdForField(const QString&) const 0x00019e79   Thumb Code     6  cnttransformanniversarysimple.o(.text)
    CntTransformAnniversarySimple::detailDefinitions(QMap<QString, QtMobility::QContactDetailDefinition>&, const QString&) const 0x00019e7f   Thumb Code   396  cnttransformanniversarysimple.o(.text)
    CntTransformGeolocation::transformDetailL(const QtMobility::QContactDetail&) 0x0001a02d   Thumb Code   278  cnttransformgeolocation.o(.text)
    CntTransformGeolocation::transformItemField(const CContactItemField&, const QtMobility::QContact&) 0x0001a143   Thumb Code   368  cnttransformgeolocation.o(.text)
    CntTransformGeolocation::supportsDetail(QString) const 0x0001a2b3   Thumb Code    26  cnttransformgeolocation.o(.text)
    CntTransformGeolocation::supportedFields() const 0x0001a2cd   Thumb Code    62  cnttransformgeolocation.o(.text)
    CntTransformGeolocation::supportedSortingFieldTypes(QString) const 0x0001a30b   Thumb Code    18  cnttransformgeolocation.o(.text)
    CntTransformGeolocation::supportsSubType(const QString&) const 0x0001a31d   Thumb Code    10  cnttransformgeolocation.o(.text)
    CntTransformGeolocation::getIdForField(const QString&) const 0x0001a327   Thumb Code   154  cnttransformgeolocation.o(.text)
    CntTransformGeolocation::detailDefinitions(QMap<QString, QtMobility::QContactDetailDefinition>&, const QString&) const 0x0001a3c1   Thumb Code   632  cnttransformgeolocation.o(.text)
    CntTransformNote::transformDetailL(const QtMobility::QContactDetail&) 0x0001a649   Thumb Code   130  cnttransformnote.o(.text)
    CntTransformNote::transformItemField(const CContactItemField&, const QtMobility::QContact&) 0x0001a6cb   Thumb Code   152  cnttransformnote.o(.text)
    CntTransformNote::supportsDetail(QString) const 0x0001a763   Thumb Code    26  cnttransformnote.o(.text)
    CntTransformNote::supportedFields() const 0x0001a77d   Thumb Code    62  cnttransformnote.o(.text)
    CntTransformNote::supportedSortingFieldTypes(QString) const 0x0001a7bb   Thumb Code    46  cnttransformnote.o(.text)
    CntTransformNote::supportsSubType(const QString&) const 0x0001a7e9   Thumb Code    10  cnttransformnote.o(.text)
    CntTransformNote::getIdForField(const QString&) const 0x0001a7f3   Thumb Code    30  cnttransformnote.o(.text)
    CntTransformNote::detailDefinitions(QMap<QString, QtMobility::QContactDetailDefinition>&, const QString&) const 0x0001a811   Thumb Code   300  cnttransformnote.o(.text)
    CntTransformFamily::transformDetailL(const QtMobility::QContactDetail&) 0x0001a951   Thumb Code   412  cnttransformfamily.o(.text)
    CntTransformFamily::transformItemField(const CContactItemField&, const QtMobility::QContact&) 0x0001aaed   Thumb Code   358  cnttransformfamily.o(.text)
    CntTransformFamily::supportsDetail(QString) const 0x0001ac53   Thumb Code    26  cnttransformfamily.o(.text)
    CntTransformFamily::supportedFields() const 0x0001ac6d   Thumb Code    76  cnttransformfamily.o(.text)
    CntTransformFamily::supportedSortingFieldTypes(QString) const 0x0001acb9   Thumb Code    18  cnttransformfamily.o(.text)
    CntTransformFamily::supportsSubType(const QString&) const 0x0001accb   Thumb Code    10  cnttransformfamily.o(.text)
    CntTransformFamily::getIdForField(const QString&) const 0x0001acd5   Thumb Code    72  cnttransformfamily.o(.text)
    CntTransformFamily::detailDefinitions(QMap<QString, QtMobility::QContactDetailDefinition>&, const QString&) const 0x0001ad1d   Thumb Code   320  cnttransformfamily.o(.text)
    CntTransformEmpty::transformDetailL(const QtMobility::QContactDetail&) 0x0001ae71   Thumb Code    28  cnttransformempty.o(.text)
    CntTransformEmpty::transformItemField(const CContactItemField&, const QtMobility::QContact&) 0x0001ae8d   Thumb Code    38  cnttransformempty.o(.text)
    CntTransformEmpty::supportsDetail(QString) const 0x0001aeb3   Thumb Code    10  cnttransformempty.o(.text)
    CntTransformEmpty::supportedFields() const 0x0001aebd   Thumb Code    16  cnttransformempty.o(.text)
    CntTransformEmpty::supportedSortingFieldTypes(QString) const 0x0001aecd   Thumb Code    22  cnttransformempty.o(.text)
    CntTransformEmpty::supportsSubType(const QString&) const 0x0001aee3   Thumb Code    10  cnttransformempty.o(.text)
    CntTransformEmpty::getIdForField(const QString&) const 0x0001aeed   Thumb Code    10  cnttransformempty.o(.text)
    CntTransformEmpty::detailDefinitions(QMap<QString, QtMobility::QContactDetailDefinition>&, const QString&) const 0x0001aef7   Thumb Code   334  cnttransformempty.o(.text)
    __ARM_switch8                            0x0001b05c   ARM Code      24  switch8.o(.text)
    __rt_switch8                             0x0001b05c   ARM Code       0  switch8.o(.text)
    _E32Dll_Body                             0x0001b074   ARM Code      76  uc_dll.o(.text)
    __aeabi_atexit                           0x0001b0c4   ARM Code      40  ucppfini.o(.text)
    __cxa_atexit                             0x0001b0ec   ARM Code      64  ucppfini.o(.text)
    __cxa_finalize                           0x0001b12c   ARM Code      48  ucppfini.o(.text)
    run_static_dtors                         0x0001b15c   ARM Code      16  ucppfini.o(.text)
    __DLL_Export_Table__                     0x0001b178   ARM Code       4  dllexp.o(.text)
    QByteArray::~QByteArray()                0x0001d90b   Thumb Code    24  cnttransformthumbnail.o(i._ZN10QByteArrayD1Ev)
    QByteArray::~QByteArray__sub_object()    0x0001d90b   Thumb Code     0  cnttransformthumbnail.o(i._ZN10QByteArrayD1Ev)
    QtMobility::QContactGuid::~QContactGuid() 0x0001d923   Thumb Code    14  cntsymbianengine.o(i._ZN10QtMobility12QContactGuidD1Ev)
    QtMobility::QContactGuid::~QContactGuid__sub_object() 0x0001d923   Thumb Code     0  cntsymbianengine.o(i._ZN10QtMobility12QContactGuidD1Ev)
    QtMobility::QContactName::~QContactName() 0x0001d931   Thumb Code    14  cntsymbiansrvconnection.o(i._ZN10QtMobility12QContactNameD1Ev)
    QtMobility::QContactName::~QContactName__sub_object() 0x0001d931   Thumb Code     0  cntsymbiansrvconnection.o(i._ZN10QtMobility12QContactNameD1Ev)
    QtMobility::QContactDetail::setContexts(const QString&) 0x0001d941   Thumb Code    70  cnttransformcontactdata.o(i._ZN10QtMobility14QContactDetail11setContextsERK7QString)
    QtMobility::QContactFamily::~QContactFamily() 0x0001d9a7   Thumb Code    14  cnttransformfamily.o(i._ZN10QtMobility14QContactFamilyD1Ev)
    QtMobility::QContactFamily::~QContactFamily__sub_object() 0x0001d9a7   Thumb Code     0  cnttransformfamily.o(i._ZN10QtMobility14QContactFamilyD1Ev)
    QtMobility::QContactAddress::QContactAddress(const QtMobility::QContactAddress&) 0x0001d9b5   Thumb Code    18  cnttransformaddress.o(i._ZN10QtMobility15QContactAddressC1ERKS0_)
    QtMobility::QContactAddress::QContactAddress__sub_object(const QtMobility::QContactAddress&) 0x0001d9b5   Thumb Code     0  cnttransformaddress.o(i._ZN10QtMobility15QContactAddressC1ERKS0_)
    QtMobility::QContactAddress::~QContactAddress() 0x0001d9c7   Thumb Code    14  cnttransformaddress.o(i._ZN10QtMobility15QContactAddressD1Ev)
    QtMobility::QContactAddress::~QContactAddress__sub_object() 0x0001d9c7   Thumb Code     0  cnttransformaddress.o(i._ZN10QtMobility15QContactAddressD1Ev)
    QtMobility::QContactBirthday::~QContactBirthday() 0x0001d9d5   Thumb Code    14  cnttransformbirthday.o(i._ZN10QtMobility16QContactBirthdayD1Ev)
    QtMobility::QContactBirthday::~QContactBirthday__sub_object() 0x0001d9d5   Thumb Code     0  cnttransformbirthday.o(i._ZN10QtMobility16QContactBirthdayD1Ev)
    QtMobility::QContactNickname::~QContactNickname() 0x0001d9e3   Thumb Code    14  cnttransformnickname.o(i._ZN10QtMobility16QContactNicknameD1Ev)
    QtMobility::QContactNickname::~QContactNickname__sub_object() 0x0001d9e3   Thumb Code     0  cnttransformnickname.o(i._ZN10QtMobility16QContactNicknameD1Ev)
    QtMobility::QContactRingtone::~QContactRingtone() 0x0001d9f1   Thumb Code    14  cnttransformringtone.o(i._ZN10QtMobility16QContactRingtoneD1Ev)
    QtMobility::QContactRingtone::~QContactRingtone__sub_object() 0x0001d9f1   Thumb Code     0  cnttransformringtone.o(i._ZN10QtMobility16QContactRingtoneD1Ev)
    QtMobility::QContactTimestamp::~QContactTimestamp() 0x0001d9ff   Thumb Code    14  cnttransformcontact.o(i._ZN10QtMobility17QContactTimestampD1Ev)
    QtMobility::QContactTimestamp::~QContactTimestamp__sub_object() 0x0001d9ff   Thumb Code     0  cnttransformcontact.o(i._ZN10QtMobility17QContactTimestampD1Ev)
    QtMobility::QContactAnniversary::~QContactAnniversary() 0x0001da0d   Thumb Code    14  cnttransformanniversary.o(i._ZN10QtMobility19QContactAnniversaryD1Ev)
    QtMobility::QContactAnniversary::~QContactAnniversary__sub_object() 0x0001da0d   Thumb Code     0  cnttransformanniversary.o(i._ZN10QtMobility19QContactAnniversaryD1Ev)
    QtMobility::QContactGeoLocation::setLatitude(double) 0x0001da1d   Thumb Code    44  cnttransformgeolocation.o(i._ZN10QtMobility19QContactGeoLocation11setLatitudeEd)
    QtMobility::QContactGeoLocation::setLongitude(double) 0x0001da59   Thumb Code    44  cnttransformgeolocation.o(i._ZN10QtMobility19QContactGeoLocation12setLongitudeEd)
    QtMobility::QContactPhoneNumber::setSubTypes(const QString&) 0x0001da95   Thumb Code    70  cnttransformphonenumber.o(i._ZN10QtMobility19QContactPhoneNumber11setSubTypesERK7QString)
    QtMobility::QContactUnionFilter::~QContactUnionFilter() 0x0001dafb   Thumb Code    14  cntsymbianfilterdbms.o(i._ZN10QtMobility19QContactUnionFilterD1Ev)
    QtMobility::QContactUnionFilter::~QContactUnionFilter__sub_object() 0x0001dafb   Thumb Code     0  cntsymbianfilterdbms.o(i._ZN10QtMobility19QContactUnionFilterD1Ev)
    QtMobility::QContactDetailFilter::~QContactDetailFilter() 0x0001db09   Thumb Code    14  cntsymbianengine.o(i._ZN10QtMobility20QContactDetailFilterD1Ev)
    QtMobility::QContactDetailFilter::~QContactDetailFilter__sub_object() 0x0001db09   Thumb Code     0  cntsymbianengine.o(i._ZN10QtMobility20QContactDetailFilterD1Ev)
    QtMobility::QContactOrganization::~QContactOrganization() 0x0001db17   Thumb Code    14  cntsymbiansrvconnection.o(i._ZN10QtMobility20QContactOrganizationD1Ev)
    QtMobility::QContactOrganization::~QContactOrganization__sub_object() 0x0001db17   Thumb Code     0  cntsymbiansrvconnection.o(i._ZN10QtMobility20QContactOrganizationD1Ev)
    QtMobility::QContactInvalidFilter::~QContactInvalidFilter() 0x0001db25   Thumb Code    14  cntsymbianfilterdbms.o(i._ZN10QtMobility21QContactInvalidFilterD1Ev)
    QtMobility::QContactInvalidFilter::~QContactInvalidFilter__sub_object() 0x0001db25   Thumb Code     0  cntsymbianfilterdbms.o(i._ZN10QtMobility21QContactInvalidFilterD1Ev)
    QtMobility::QContactManagerEngine::~QContactManagerEngine() 0x0001db33   Thumb Code     0  cntsymbianengine.o(i._ZN10QtMobility21QContactManagerEngineD2Ev)
    QtMobility::QContactManagerEngine::~QContactManagerEngine__sub_object() 0x0001db33   Thumb Code    14  cntsymbianengine.o(i._ZN10QtMobility21QContactManagerEngineD2Ev)
    QtMobility::QContactOnlineAccount::setSubTypes(const QString&) 0x0001db41   Thumb Code    70  cnttransformonlineaccountsimple.o(i._ZN10QtMobility21QContactOnlineAccount11setSubTypesERK7QString)
    QtMobility::QContactOnlineAccount::setAccountUri(const QString&) 0x0001dba9   Thumb Code    44  cnttransformonlineaccountsimple.o(i._ZN10QtMobility21QContactOnlineAccount13setAccountUriERK7QString)
    QtMobility::QContactIntersectionFilter::~QContactIntersectionFilter() 0x0001dbe3   Thumb Code    14  cntsymbianfilterdbms.o(i._ZN10QtMobility26QContactIntersectionFilterD1Ev)
    QtMobility::QContactIntersectionFilter::~QContactIntersectionFilter__sub_object() 0x0001dbe3   Thumb Code     0  cntsymbianfilterdbms.o(i._ZN10QtMobility26QContactIntersectionFilterD1Ev)
    QtMobility::QContactRelationshipFilter::~QContactRelationshipFilter() 0x0001dbf1   Thumb Code    14  cntfilterrelationship.o(i._ZN10QtMobility26QContactRelationshipFilterD1Ev)
    QtMobility::QContactRelationshipFilter::~QContactRelationshipFilter__sub_object() 0x0001dbf1   Thumb Code     0  cntfilterrelationship.o(i._ZN10QtMobility26QContactRelationshipFilterD1Ev)
    QStringList::QStringList(const QStringList&) 0x0001dbff   Thumb Code    18  cnttransformaddress.o(i._ZN11QStringListC1ERKS_)
    QStringList::QStringList__sub_object(const QStringList&) 0x0001dbff   Thumb Code     0  cnttransformaddress.o(i._ZN11QStringListC1ERKS_)
    QStringList::QStringList()               0x0001dc11   Thumb Code    14  cnttransformcontactdata.o(i._ZN11QStringListC1Ev)
    QStringList::QStringList__sub_object()   0x0001dc11   Thumb Code     0  cnttransformcontactdata.o(i._ZN11QStringListC1Ev)
    QStringList::~QStringList()              0x0001dc1f   Thumb Code    14  cntsymbianengine.o(i._ZN11QStringListD1Ev)
    QStringList::~QStringList__sub_object()  0x0001dc1f   Thumb Code     0  cntsymbianengine.o(i._ZN11QStringListD1Ev)
    CleanupStack::PopAndDestroy(void*)       0x0001dc2d   Thumb Code    16  cntsymbianengine.o(i._ZN12CleanupStack13PopAndDestroyEPv)
    CArrayFixFlat<CContactDatabase::TSortPref>::~CArrayFixFlat__deallocating() 0x0001dc3d   Thumb Code    24  cntsymbiansorterdbms.o(i._ZN13CArrayFixFlatIN16CContactDatabase9TSortPrefEED0Ev)
    CArrayFixFlat<CContactDatabase::TSortPref>::~CArrayFixFlat() 0x0001dc55   Thumb Code    14  cntsymbiansorterdbms.o(i._ZN13CArrayFixFlatIN16CContactDatabase9TSortPrefEED1Ev)
    CArrayFixFlat<CContactDatabase::TSortPref>::~CArrayFixFlat__sub_object() 0x0001dc55   Thumb Code     0  cntsymbiansorterdbms.o(i._ZN13CArrayFixFlatIN16CContactDatabase9TSortPrefEED1Ev)
    RBufReadStream::RBufReadStream()         0x0001dc63   Thumb Code    24  cntsymbiansrvconnection.o(i._ZN14RBufReadStreamC1Ev)
    RBufReadStream::RBufReadStream__sub_object() 0x0001dc63   Thumb Code     0  cntsymbiansrvconnection.o(i._ZN14RBufReadStreamC1Ev)
    CContactIdArray::operator [](int)        0x0001dc7b   Thumb Code    18  cntsymbianfilterdbms.o(i._ZN15CContactIdArrayixEi)
    CntTransformUrl::~CntTransformUrl__deallocating() 0x0001dc8d   Thumb Code    22  cnttransformurl.o(i._ZN15CntTransformUrlD0Ev)
    CntTransformUrl::~CntTransformUrl()      0x0001dca3   Thumb Code    16  cnttransformurl.o(i._ZN15CntTransformUrlD1Ev)
    CntTransformUrl::~CntTransformUrl__sub_object() 0x0001dca3   Thumb Code     0  cnttransformurl.o(i._ZN15CntTransformUrlD1Ev)
    QBasicAtomicInt::ref()                   0x0001dcb3   Thumb Code    24  cntsymbianengine.o(i._ZN15QBasicAtomicInt3refEv)
    QBasicAtomicInt::deref()                 0x0001dccb   Thumb Code    24  cntsymbianengine.o(i._ZN15QBasicAtomicInt5derefEv)
    CntTransformName::~CntTransformName__deallocating() 0x0001dce3   Thumb Code    22  cnttransformname.o(i._ZN16CntTransformNameD0Ev)
    CntTransformName::~CntTransformName()    0x0001dcf9   Thumb Code    16  cnttransformname.o(i._ZN16CntTransformNameD1Ev)
    CntTransformName::~CntTransformName__sub_object() 0x0001dcf9   Thumb Code     0  cnttransformname.o(i._ZN16CntTransformNameD1Ev)
    CntTransformNote::~CntTransformNote__deallocating() 0x0001dd09   Thumb Code    22  cnttransformnote.o(i._ZN16CntTransformNoteD0Ev)
    CntTransformNote::~CntTransformNote()    0x0001dd1f   Thumb Code    16  cnttransformnote.o(i._ZN16CntTransformNoteD1Ev)
    CntTransformNote::~CntTransformNote__sub_object() 0x0001dd1f   Thumb Code     0  cnttransformnote.o(i._ZN16CntTransformNoteD1Ev)
    CntSymbianFactory::~CntSymbianFactory__deallocating() 0x0001dd2f   Thumb Code    22  moc_cntsymbianengine.o(i._ZN17CntSymbianFactoryD0Ev)
    CntSymbianFactory::~CntSymbianFactory()  0x0001dd45   Thumb Code    26  moc_cntsymbianengine.o(i._ZN17CntSymbianFactoryD1Ev)
    CntSymbianFactory::~CntSymbianFactory__sub_object() 0x0001dd45   Thumb Code     0  moc_cntsymbianengine.o(i._ZN17CntSymbianFactoryD1Ev)
    CntTransformEmail::~CntTransformEmail__deallocating() 0x0001dd69   Thumb Code    22  cnttransformemail.o(i._ZN17CntTransformEmailD0Ev)
    CntTransformEmail::~CntTransformEmail()  0x0001dd7f   Thumb Code    16  cnttransformemail.o(i._ZN17CntTransformEmailD1Ev)
    CntTransformEmail::~CntTransformEmail__sub_object() 0x0001dd7f   Thumb Code     0  cnttransformemail.o(i._ZN17CntTransformEmailD1Ev)
    CntTransformEmpty::~CntTransformEmpty__deallocating() 0x0001dd8f   Thumb Code    22  cnttransformempty.o(i._ZN17CntTransformEmptyD0Ev)
    CntTransformEmpty::~CntTransformEmpty()  0x0001dda5   Thumb Code    16  cnttransformempty.o(i._ZN17CntTransformEmptyD1Ev)
    CntTransformEmpty::~CntTransformEmpty__sub_object() 0x0001dda5   Thumb Code     0  cnttransformempty.o(i._ZN17CntTransformEmptyD1Ev)
    QForeachContainer<QStringList>::~QForeachContainer() 0x0001ddb5   Thumb Code    14  cntsymbianengine.o(i._ZN17QForeachContainerI11QStringListED1Ev)
    QForeachContainer<QStringList>::~QForeachContainer__sub_object() 0x0001ddb5   Thumb Code     0  cntsymbianengine.o(i._ZN17QForeachContainerI11QStringListED1Ev)
    QForeachContainer<QList<TUid>>::~QForeachContainer() 0x0001ddc3   Thumb Code    14  cntsymbianengine.o(i._ZN17QForeachContainerI5QListI4TUidEED1Ev)
    QForeachContainer<QList<TUid>>::~QForeachContainer__sub_object() 0x0001ddc3   Thumb Code     0  cntsymbianengine.o(i._ZN17QForeachContainerI5QListI4TUidEED1Ev)
    QForeachContainer<QList<QString>>::~QForeachContainer() 0x0001ddd1   Thumb Code    14  cntrelationship.o(i._ZN17QForeachContainerI5QListI7QStringEED1Ev)
    QForeachContainer<QList<QString>>::~QForeachContainer__sub_object() 0x0001ddd1   Thumb Code     0  cntrelationship.o(i._ZN17QForeachContainerI5QListI7QStringEED1Ev)
    QForeachContainer<QList<QtMobility::QContactAddress>>::~QForeachContainer() 0x0001dddf   Thumb Code    14  cnttransformaddress.o(i._ZN17QForeachContainerI5QListIN10QtMobility15QContactAddressEEED1Ev)
    QForeachContainer<QList<QtMobility::QContactAddress>>::~QForeachContainer__sub_object() 0x0001dddf   Thumb Code     0  cnttransformaddress.o(i._ZN17QForeachContainerI5QListIN10QtMobility15QContactAddressEEED1Ev)
    QForeachContainer<QList<QtMobility::QContactSortOrder>>::~QForeachContainer() 0x0001dded   Thumb Code    14  cntdbinfo.o(i._ZN17QForeachContainerI5QListIN10QtMobility17QContactSortOrderEEED1Ev)
    QForeachContainer<QList<QtMobility::QContactSortOrder>>::~QForeachContainer__sub_object() 0x0001dded   Thumb Code     0  cntdbinfo.o(i._ZN17QForeachContainerI5QListIN10QtMobility17QContactSortOrderEEED1Ev)
    QForeachContainer<QList<unsigned>>::~QForeachContainer() 0x0001ddfb   Thumb Code    14  cntsymbianengine.o(i._ZN17QForeachContainerI5QListIjEED1Ev)
    QForeachContainer<QList<unsigned>>::~QForeachContainer__sub_object() 0x0001ddfb   Thumb Code     0  cntsymbianengine.o(i._ZN17QForeachContainerI5QListIjEED1Ev)
    CntTransformAvatar::~CntTransformAvatar__deallocating() 0x0001de09   Thumb Code    22  cnttransformavatar.o(i._ZN18CntTransformAvatarD0Ev)
    CntTransformAvatar::~CntTransformAvatar() 0x0001de1f   Thumb Code    16  cnttransformavatar.o(i._ZN18CntTransformAvatarD1Ev)
    CntTransformAvatar::~CntTransformAvatar__sub_object() 0x0001de1f   Thumb Code     0  cnttransformavatar.o(i._ZN18CntTransformAvatarD1Ev)
    CntTransformFamily::~CntTransformFamily__deallocating() 0x0001de2f   Thumb Code    22  cnttransformfamily.o(i._ZN18CntTransformFamilyD0Ev)
    CntTransformFamily::~CntTransformFamily() 0x0001de45   Thumb Code    16  cnttransformfamily.o(i._ZN18CntTransformFamilyD1Ev)
    CntTransformFamily::~CntTransformFamily__sub_object() 0x0001de45   Thumb Code     0  cnttransformfamily.o(i._ZN18CntTransformFamilyD1Ev)
    CntTransformGender::~CntTransformGender__deallocating() 0x0001de55   Thumb Code    22  cnttransformgender.o(i._ZN18CntTransformGenderD0Ev)
    CntTransformGender::~CntTransformGender() 0x0001de6b   Thumb Code    16  cnttransformgender.o(i._ZN18CntTransformGenderD1Ev)
    CntTransformGender::~CntTransformGender__sub_object() 0x0001de6b   Thumb Code     0  cnttransformgender.o(i._ZN18CntTransformGenderD1Ev)
    CntTransformAddress::~CntTransformAddress__deallocating() 0x0001de7b   Thumb Code    22  cnttransformaddress.o(i._ZN19CntTransformAddressD0Ev)
    CntTransformAddress::~CntTransformAddress() 0x0001de91   Thumb Code    16  cnttransformaddress.o(i._ZN19CntTransformAddressD1Ev)
    CntTransformAddress::~CntTransformAddress__sub_object() 0x0001de91   Thumb Code     0  cnttransformaddress.o(i._ZN19CntTransformAddressD1Ev)
    CContactItemFieldDef::~CContactItemFieldDef__deallocating() 0x0001dea1   Thumb Code    24  cntsymbianfilterdbms.o(i._ZN20CContactItemFieldDefD0Ev)
    CContactItemFieldDef::~CContactItemFieldDef() 0x0001deb9   Thumb Code    14  cntsymbianfilterdbms.o(i._ZN20CContactItemFieldDefD1Ev)
    CContactItemFieldDef::~CContactItemFieldDef__sub_object() 0x0001deb9   Thumb Code     0  cntsymbianfilterdbms.o(i._ZN20CContactItemFieldDefD1Ev)
    CContactItemFieldSet::operator [](int)   0x0001dec7   Thumb Code    20  cnttransformcontact.o(i._ZN20CContactItemFieldSetixEi)
    CntTransformBirthday::~CntTransformBirthday__deallocating() 0x0001dedb   Thumb Code    22  cnttransformbirthday.o(i._ZN20CntTransformBirthdayD0Ev)
    CntTransformBirthday::~CntTransformBirthday() 0x0001def1   Thumb Code    16  cnttransformbirthday.o(i._ZN20CntTransformBirthdayD1Ev)
    CntTransformBirthday::~CntTransformBirthday__sub_object() 0x0001def1   Thumb Code     0  cnttransformbirthday.o(i._ZN20CntTransformBirthdayD1Ev)
    CntTransformNickname::~CntTransformNickname__deallocating() 0x0001df01   Thumb Code    22  cnttransformnickname.o(i._ZN20CntTransformNicknameD0Ev)
    CntTransformNickname::~CntTransformNickname() 0x0001df17   Thumb Code    16  cnttransformnickname.o(i._ZN20CntTransformNicknameD1Ev)
    CntTransformNickname::~CntTransformNickname__sub_object() 0x0001df17   Thumb Code     0  cnttransformnickname.o(i._ZN20CntTransformNicknameD1Ev)
    CntTransformRingtone::~CntTransformRingtone__deallocating() 0x0001df27   Thumb Code    22  cnttransformringtone.o(i._ZN20CntTransformRingtoneD0Ev)
    CntTransformRingtone::~CntTransformRingtone() 0x0001df3d   Thumb Code    16  cnttransformringtone.o(i._ZN20CntTransformRingtoneD1Ev)
    CntTransformRingtone::~CntTransformRingtone__sub_object() 0x0001df3d   Thumb Code     0  cnttransformringtone.o(i._ZN20CntTransformRingtoneD1Ev)
    CntTransformSyncTarget::~CntTransformSyncTarget__deallocating() 0x0001df4d   Thumb Code    22  cnttransformsynctarget.o(i._ZN22CntTransformSyncTargetD0Ev)
    CntTransformSyncTarget::~CntTransformSyncTarget() 0x0001df63   Thumb Code    16  cnttransformsynctarget.o(i._ZN22CntTransformSyncTargetD1Ev)
    CntTransformSyncTarget::~CntTransformSyncTarget__sub_object() 0x0001df63   Thumb Code     0  cnttransformsynctarget.o(i._ZN22CntTransformSyncTargetD1Ev)
    CntTransformAnniversary::~CntTransformAnniversary__deallocating() 0x0001df73   Thumb Code    22  cnttransformanniversary.o(i._ZN23CntTransformAnniversaryD0Ev)
    CntTransformAnniversary::~CntTransformAnniversary() 0x0001df89   Thumb Code    16  cnttransformanniversary.o(i._ZN23CntTransformAnniversaryD1Ev)
    CntTransformAnniversary::~CntTransformAnniversary__sub_object() 0x0001df89   Thumb Code     0  cnttransformanniversary.o(i._ZN23CntTransformAnniversaryD1Ev)
    CntTransformContactData::reset()         0x0001df99   Thumb Code     2  moc_cnttransformcontactdata.o(i._ZN23CntTransformContactData5resetEv)
    CntTransformContactData::CntTransformContactData__sub_object() 0x0001df9d   Thumb Code    22  cnttransformcontact.o(i._ZN23CntTransformContactDataC2Ev)
    CntTransformContactData::~CntTransformContactData__deallocating() 0x0001dfb9   Thumb Code    24  moc_cnttransformcontactdata.o(i._ZN23CntTransformContactDataD0Ev)
    CntTransformContactData::~CntTransformContactData() 0x0001dfd1   Thumb Code     0  moc_cnttransformcontactdata.o(i._ZN23CntTransformContactDataD2Ev)
    CntTransformContactData::~CntTransformContactData__sub_object() 0x0001dfd1   Thumb Code    14  moc_cnttransformcontactdata.o(i._ZN23CntTransformContactDataD2Ev)
    CntTransformGeolocation::~CntTransformGeolocation__deallocating() 0x0001dfdf   Thumb Code    22  cnttransformgeolocation.o(i._ZN23CntTransformGeolocationD0Ev)
    CntTransformGeolocation::~CntTransformGeolocation() 0x0001dff5   Thumb Code    16  cnttransformgeolocation.o(i._ZN23CntTransformGeolocationD1Ev)
    CntTransformGeolocation::~CntTransformGeolocation__sub_object() 0x0001dff5   Thumb Code     0  cnttransformgeolocation.o(i._ZN23CntTransformGeolocationD1Ev)
    CntTransformPhoneNumber::~CntTransformPhoneNumber__deallocating() 0x0001e005   Thumb Code    22  cnttransformphonenumber.o(i._ZN23CntTransformPhoneNumberD0Ev)
    CntTransformPhoneNumber::~CntTransformPhoneNumber() 0x0001e01b   Thumb Code    16  cnttransformphonenumber.o(i._ZN23CntTransformPhoneNumberD1Ev)
    CntTransformPhoneNumber::~CntTransformPhoneNumber__sub_object() 0x0001e01b   Thumb Code     0  cnttransformphonenumber.o(i._ZN23CntTransformPhoneNumberD1Ev)
    CntAbstractContactFilter::~CntAbstractContactFilter__deallocating() 0x0001e02b   Thumb Code    18  cntfilterrelationship.o(i._ZN24CntAbstractContactFilterD0Ev)
    CntAbstractContactFilter::~CntAbstractContactFilter() 0x0001e03d   Thumb Code     0  cntfilterrelationship.o(i._ZN24CntAbstractContactFilterD2Ev)
    CntAbstractContactFilter::~CntAbstractContactFilter__sub_object() 0x0001e03d   Thumb Code     2  cntfilterrelationship.o(i._ZN24CntAbstractContactFilterD2Ev)
    CntTransformOrganisation::~CntTransformOrganisation__deallocating() 0x0001e03f   Thumb Code    22  cnttransformorganisation.o(i._ZN24CntTransformOrganisationD0Ev)
    CntTransformOrganisation::~CntTransformOrganisation() 0x0001e055   Thumb Code    16  cnttransformorganisation.o(i._ZN24CntTransformOrganisationD1Ev)
    CntTransformOrganisation::~CntTransformOrganisation__sub_object() 0x0001e055   Thumb Code     0  cnttransformorganisation.o(i._ZN24CntTransformOrganisationD1Ev)
    CntTransformOnlineAccount::~CntTransformOnlineAccount__deallocating() 0x0001e065   Thumb Code    22  cnttransformonlineaccountsimple.o(i._ZN25CntTransformOnlineAccountD0Ev)
    CntTransformOnlineAccount::~CntTransformOnlineAccount() 0x0001e07b   Thumb Code    16  cnttransformonlineaccountsimple.o(i._ZN25CntTransformOnlineAccountD1Ev)
    CntTransformOnlineAccount::~CntTransformOnlineAccount__sub_object() 0x0001e07b   Thumb Code     0  cnttransformonlineaccountsimple.o(i._ZN25CntTransformOnlineAccountD1Ev)
    CntTransformAnniversarySimple::~CntTransformAnniversarySimple__deallocating() 0x0001e08b   Thumb Code    22  cnttransformanniversarysimple.o(i._ZN29CntTransformAnniversarySimpleD0Ev)
    CntTransformAnniversarySimple::~CntTransformAnniversarySimple() 0x0001e0a1   Thumb Code    16  cnttransformanniversarysimple.o(i._ZN29CntTransformAnniversarySimpleD1Ev)
    CntTransformAnniversarySimple::~CntTransformAnniversarySimple__sub_object() 0x0001e0a1   Thumb Code     0  cnttransformanniversarysimple.o(i._ZN29CntTransformAnniversarySimpleD1Ev)
    QSet<unsigned>::~QSet()                  0x0001e0b1   Thumb Code    14  cntsymbianengine.o(i._ZN4QSetIjED1Ev)
    QSet<unsigned>::~QSet__sub_object()      0x0001e0b1   Thumb Code     0  cntsymbianengine.o(i._ZN4QSetIjED1Ev)
    CBase::operator new(unsigned)            0x0001e0bf   Thumb Code    16  cntdisplaylabel.o(i._ZN5CBasenwEj)
    QPair<QLatin1String, QLatin1String>::QPair(const QPair<QLatin1String, QLatin1String>&) 0x0001e0cf   Thumb Code    10  cntdisplaylabel.o(i._ZN5QPairI13QLatin1StringS0_EC1ERKS1_)
    QPair<QLatin1String, QLatin1String>::QPair__sub_object(const QPair<QLatin1String, QLatin1String>&) 0x0001e0cf   Thumb Code     0  cntdisplaylabel.o(i._ZN5QPairI13QLatin1StringS0_EC1ERKS1_)
    QPair<unsigned, QString>::QPair(const QPair<unsigned, QString>&) 0x0001e0d9   Thumb Code    24  cntsymbiansrvconnection.o(i._ZN5QPairIj7QStringEC1ERKS1_)
    QPair<unsigned, QString>::QPair__sub_object(const QPair<unsigned, QString>&) 0x0001e0d9   Thumb Code     0  cntsymbiansrvconnection.o(i._ZN5QPairIj7QStringEC1ERKS1_)
    QPair<unsigned, QString>::~QPair()       0x0001e0f1   Thumb Code    16  cntfilterdetail.o(i._ZN5QPairIj7QStringED1Ev)
    QPair<unsigned, QString>::~QPair__sub_object() 0x0001e0f1   Thumb Code     0  cntfilterdetail.o(i._ZN5QPairIj7QStringED1Ev)
    TLex16::TLex16(const TDesC16&)           0x0001e101   Thumb Code    30  cntfilterdetail.o(i._ZN6TLex16C1ERK7TDesC16)
    TLex16::TLex16__sub_object(const TDesC16&) 0x0001e101   Thumb Code     0  cntfilterdetail.o(i._ZN6TLex16C1ERK7TDesC16)
    QString::clear()                         0x0001e121   Thumb Code    50  cntdbinfo.o(i._ZN7QString5clearEv)
    QString::QString(const char*)            0x0001e163   Thumb Code    22  cntsymbianengine.o(i._ZN7QStringC1EPKc)
    QString::QString__sub_object(const char*) 0x0001e163   Thumb Code     0  cntsymbianengine.o(i._ZN7QStringC1EPKc)
    QString::QString(const QLatin1String&)   0x0001e179   Thumb Code    26  cntdisplaylabel.o(i._ZN7QStringC1ERK13QLatin1String)
    QString::QString__sub_object(const QLatin1String&) 0x0001e179   Thumb Code     0  cntdisplaylabel.o(i._ZN7QStringC1ERK13QLatin1String)
    QString::QString(const QString&)         0x0001e193   Thumb Code    22  cntsymbianengine.o(i._ZN7QStringC1ERKS_)
    QString::QString__sub_object(const QString&) 0x0001e193   Thumb Code     0  cntsymbianengine.o(i._ZN7QStringC1ERKS_)
    QString::QString()                       0x0001e1a9   Thumb Code    18  cntsymbianengine.o(i._ZN7QStringC1Ev)
    QString::QString__sub_object()           0x0001e1a9   Thumb Code     0  cntsymbianengine.o(i._ZN7QStringC1Ev)
    QString::~QString()                      0x0001e1c1   Thumb Code    24  cntsymbianengine.o(i._ZN7QStringD1Ev)
    QString::~QString__sub_object()          0x0001e1c1   Thumb Code     0  cntsymbianengine.o(i._ZN7QStringD1Ev)
    QString::operator =(const char*)         0x0001e1d9   Thumb Code    40  cntfilterdetail.o(i._ZN7QStringaSEPKc)
    QString::operator +=(const char*)        0x0001e20b   Thumb Code    40  cntfilterdetail.o(i._ZN7QStringpLEPKc)
    QString::operator +=(char)               0x0001e23d   Thumb Code    24  cntfilterdetail.o(i._ZN7QStringpLEc)
    TIpcArgs::Set(int, TDes8*)               0x0001e255   Thumb Code    22  cntsymbiansrvconnection.o(i._ZN8TIpcArgs3SetEiP5TDes8)
    TIpcArgs::Set(int, const TDesC16*)       0x0001e26b   Thumb Code    22  cntsymbiansrvconnection.o(i._ZN8TIpcArgs3SetEiPK7TDesC16)
    CArrayFix<CContactDatabase::TSortPref>::~CArrayFix__deallocating() 0x0001e281   Thumb Code    22  cntsymbiansorterdbms.o(i._ZN9CArrayFixIN16CContactDatabase9TSortPrefEED0Ev)
    CArrayFix<CContactDatabase::TSortPref>::~CArrayFix() 0x0001e297   Thumb Code    14  cntsymbiansorterdbms.o(i._ZN9CArrayFixIN16CContactDatabase9TSortPrefEED1Ev)
    CArrayFix<CContactDatabase::TSortPref>::~CArrayFix__sub_object() 0x0001e297   Thumb Code     0  cntsymbiansorterdbms.o(i._ZN9CArrayFixIN16CContactDatabase9TSortPrefEED1Ev)
    QHashData::willGrow()                    0x0001e2a5   Thumb Code    32  cntdbinfo.o(i._ZN9QHashData8willGrowEv)
    QtMobility::QContactDetail::contexts() const 0x0001e2c5   Thumb Code    28  cnttransformaddress.o(i._ZNK10QtMobility14QContactDetail8contextsEv)
    QtMobility::QContactFamily::children() const 0x0001e2e5   Thumb Code    28  cnttransformfamily.o(i._ZNK10QtMobility14QContactFamily8childrenEv)
    QtMobility::QContactBirthday::date() const 0x0001e305   Thumb Code   128  cnttransformbirthday.o(i._ZNK10QtMobility16QContactBirthday4dateEv)
    QtMobility::QContactRingtone::audioRingtoneUrl() const 0x0001e399   Thumb Code    44  cnttransformringtone.o(i._ZNK10QtMobility16QContactRingtone16audioRingtoneUrlEv)
    QtMobility::QContactRingtone::videoRingtoneUrl() const 0x0001e3d5   Thumb Code    44  cnttransformringtone.o(i._ZNK10QtMobility16QContactRingtone16videoRingtoneUrlEv)
    QtMobility::QContactThumbnail::thumbnail() const 0x0001e411   Thumb Code    28  cnttransformthumbnail.o(i._ZNK10QtMobility17QContactThumbnail9thumbnailEv)
    QtMobility::QContactAnniversary::originalDate() const 0x0001e431   Thumb Code   128  cnttransformanniversary.o(i._ZNK10QtMobility19QContactAnniversary12originalDateEv)
    QtMobility::QContactGeoLocation::latitude() const 0x0001e4c5   Thumb Code    56  cnttransformgeolocation.o(i._ZNK10QtMobility19QContactGeoLocation8latitudeEv)
    QtMobility::QContactGeoLocation::longitude() const 0x0001e50d   Thumb Code    56  cnttransformgeolocation.o(i._ZNK10QtMobility19QContactGeoLocation9longitudeEv)
    QtMobility::QContactOnlineAccount::accountUri() const 0x0001e555   Thumb Code    28  cnttransformonlineaccountsimple.o(i._ZNK10QtMobility21QContactOnlineAccount10accountUriEv)
    QStringList::contains(const QString&, Qt::CaseSensitivity) const 0x0001e575   Thumb Code    22  cnttransformphonenumber.o(i._ZNK11QStringList8containsERK7QStringN2Qt15CaseSensitivityE)
    CContactIdArray::operator [](int) const  0x0001e58b   Thumb Code    18  cntrelationshipgroup.o(i._ZNK15CContactIdArrayixEi)
    QBasicAtomicInt::operator ==(int) const  0x0001e59d   Thumb Code    16  cntsymbianengine.o(i._ZNK15QBasicAtomicInteqEi)
    QBasicAtomicInt::operator !=(int) const  0x0001e5ad   Thumb Code    16  cntsymbianengine.o(i._ZNK15QBasicAtomicIntneEi)
    CntSymbianEngine::managerVersion() const 0x0001e5bd   Thumb Code     6  moc_cntsymbianengine.o(i._ZNK16CntSymbianEngine14managerVersionEv)
    CntSymbianEngine::compatibleContact(const QtMobility::QContact&, QtMobility::QContactManager::Error*) const 0x0001e5c3   Thumb Code    24  moc_cntsymbianengine.o(i._ZNK16CntSymbianEngine17compatibleContactERKN10QtMobility8QContactEPNS0_15QContactManager5ErrorE)
    CContactItemFieldSet::Find(TUid, TUid) const 0x0001e5db   Thumb Code    20  cntthumbnailcreator.o(i._ZNK20CContactItemFieldSet4FindE4TUidS0_)
    CntTransformContactData::supportsField(unsigned long) const 0x0001e5ef   Thumb Code    58  cnttransformphonenumber.o(i._ZNK23CntTransformContactData13supportsFieldEm)
    QBool::operator const void*() const      0x0001e633   Thumb Code    16  cnttransformphonenumber.o(i._ZNK5QBoolcvPKvEv)
    QString::arg(const QString&, const QString&) const 0x0001e643   Thumb Code    28  cntdbinfo.o(i._ZNK7QString3argERKS_S1_)
    QString::arg(int, int, int, const QChar&) const 0x0001e65f   Thumb Code    36  cntfilterdetail.o(i._ZNK7QString3argEiiiRK5QChar)
    QString::arg(unsigned, int, int, const QChar&) const 0x0001e683   Thumb Code    36  cntfilterrelationship.o(i._ZNK7QString3argEjiiRK5QChar)
    QString::arg(long, int, int, const QChar&) const 0x0001e6a7   Thumb Code    36  cntfilterdetail.o(i._ZNK7QString3argEliiRK5QChar)
    QString::isEmpty() const                 0x0001e6cb   Thumb Code    18  cntdisplaylabel.o(i._ZNK7QString7isEmptyEv)
    QString::operator !=(const QLatin1String&) const 0x0001e6dd   Thumb Code    20  cntsymbianengine.o(i._ZNK7QStringneERK13QLatin1String)
    QListData::at(int) const                 0x0001e6f1   Thumb Code    20  cntsymbianengine.o(i._ZNK9QListData2atEi)
    QListData::end() const                   0x0001e705   Thumb Code    16  cntsymbianengine.o(i._ZNK9QListData3endEv)
    QListData::size() const                  0x0001e715   Thumb Code    14  cntsymbianengine.o(i._ZNK9QListData4sizeEv)
    QListData::begin() const                 0x0001e723   Thumb Code    16  cntsymbianengine.o(i._ZNK9QListData5beginEv)
    QListData::isEmpty() const               0x0001e733   Thumb Code    22  cntsymbianengine.o(i._ZNK9QListData7isEmptyEv)
    thunk{-8} to CntSymbianFactory::~CntSymbianFactory__deallocating() 0x0001e749   Thumb Code    14  moc_cntsymbianengine.o(i._ZThn8_N17CntSymbianFactoryD0Ev)
    thunk{-8} to CntSymbianFactory::~CntSymbianFactory() 0x0001e757   Thumb Code    14  moc_cntsymbianengine.o(i._ZThn8_N17CntSymbianFactoryD1Ev)
    operator delete (void*, void*)           0x0001e765   Thumb Code     2  cntsymbianengine.o(i._ZdlPvS_)
    operator new(unsigned, void*)            0x0001e767   Thumb Code     6  cntsymbianengine.o(i._ZnwjPv)
    operator +(const char*, const QString&)  0x0001e76d   Thumb Code    48  cntfilterdetail.o(i._ZplPKcRK7QString)
    operator +(const QString&, const char*)  0x0001e7a7   Thumb Code    60  cntfilterdetail.o(i._ZplRK7QStringPKc)
    operator +(const QString&, const QString&) 0x0001e7f3   Thumb Code    44  cntfilterdetail.o(i._ZplRK7QStringS1_)
    operator +(const QString&, char)         0x0001e829   Thumb Code   130  cntfilterdetail.o(i._ZplRK7QStringc)
    qMapLessThanKey<QString>(const T1&, const T1&) 0x0001e8b5   Thumb Code    16  cntsymbianengine.o(t._Z15qMapLessThanKeyI7QStringEbRKT_S3_)
    qMapLessThanKey<CntTransformContact::ContactData>(const T1&, const T1&) 0x0001e8c5   Thumb Code    18  cnttransformcontact.o(t._Z15qMapLessThanKeyIN19CntTransformContact11ContactDataEEbRKT_S4_)
    qMapLessThanKey<int>(const T1&, const T1&) 0x0001e8d7   Thumb Code    18  cntsymbianengine.o(t._Z15qMapLessThanKeyIiEbRKT_S2_)
    qMapLessThanKey<unsigned>(const T1&, const T1&) 0x0001e8e9   Thumb Code    18  cntsymbiandatabase.o(t._Z15qMapLessThanKeyIjEbRKT_S2_)
    qForeachContainerNew<QList<QtMobility::QContactSortOrder>>(const T1&) 0x0001e8fb   Thumb Code   126  cntsymbiansorterdbms.o(t._Z20qForeachContainerNewI5QListIN10QtMobility17QContactSortOrderEEE17QForeachContainerIT_ERKS5_)
    qForeachContainerNew<QList<unsigned>>(const T1&) 0x0001e983   Thumb Code   102  cntsymbianengine.o(t._Z20qForeachContainerNewI5QListIjEE17QForeachContainerIT_ERKS3_)
    qMakePair<QLatin1String, QLatin1String>(const T1&, const T2&) 0x0001e9f3   Thumb Code    22  cntdisplaylabel.o(t._Z9qMakePairI13QLatin1StringS0_E5QPairIT_T0_ERKS2_RKS3_)
    qMakePair<unsigned, QString>(const T1&, const T2&) 0x0001ea09   Thumb Code    30  cntsymbiansrvconnection.o(t._Z9qMakePairIj7QStringE5QPairIT_T0_ERKS2_RKS3_)
    QtMobility::operator ==<(int)10>(const QString&, const QtMobility::QLatin1Constant<T1>&) 0x0001ea27   Thumb Code    24  cntfilterrelationship.o(t._ZN10QtMobilityeqILi10EEEbRK7QStringRKNS_15QLatin1ConstantIXT_EEE)
    QtMobility::operator ==<(int)10>(const QtMobility::QLatin1Constant<T1>&, const QString&) 0x0001ea3f   Thumb Code    24  cnttransformname.o(t._ZN10QtMobilityeqILi10EEEbRKNS_15QLatin1ConstantIXT_EEERK7QString)
    QtMobility::operator ==<(int)11>(const QString&, const QtMobility::QLatin1Constant<T1>&) 0x0001ea57   Thumb Code    24  cntsymbianfilterdbms.o(t._ZN10QtMobilityeqILi11EEEbRK7QStringRKNS_15QLatin1ConstantIXT_EEE)
    QtMobility::operator ==<(int)11>(const QtMobility::QLatin1Constant<T1>&, const QString&) 0x0001ea6f   Thumb Code    24  cnttransformname.o(t._ZN10QtMobilityeqILi11EEEbRKNS_15QLatin1ConstantIXT_EEERK7QString)
    QtMobility::operator ==<(int)12>(const QString&, const QtMobility::QLatin1Constant<T1>&) 0x0001ea87   Thumb Code    24  cntfilterdetail.o(t._ZN10QtMobilityeqILi12EEEbRK7QStringRKNS_15QLatin1ConstantIXT_EEE)
    QtMobility::operator ==<(int)12>(const QtMobility::QLatin1Constant<T1>&, const QString&) 0x0001ea9f   Thumb Code    24  cnttransformname.o(t._ZN10QtMobilityeqILi12EEEbRKNS_15QLatin1ConstantIXT_EEERK7QString)
    QtMobility::operator ==<(int)13>(const QString&, const QtMobility::QLatin1Constant<T1>&) 0x0001eab7   Thumb Code    24  cntsymbianengine.o(t._ZN10QtMobilityeqILi13EEEbRK7QStringRKNS_15QLatin1ConstantIXT_EEE)
    QtMobility::operator ==<(int)13>(const QtMobility::QLatin1Constant<T1>&, const QString&) 0x0001eacf   Thumb Code    24  cnttransformemail.o(t._ZN10QtMobilityeqILi13EEEbRKNS_15QLatin1ConstantIXT_EEERK7QString)
    QtMobility::operator ==<(int)14>(const QString&, const QtMobility::QLatin1Constant<T1>&) 0x0001eae7   Thumb Code    24  cntfilterdetail.o(t._ZN10QtMobilityeqILi14EEEbRK7QStringRKNS_15QLatin1ConstantIXT_EEE)
    QtMobility::operator ==<(int)14>(const QtMobility::QLatin1Constant<T1>&, const QString&) 0x0001eaff   Thumb Code    24  cnttransformaddress.o(t._ZN10QtMobilityeqILi14EEEbRKNS_15QLatin1ConstantIXT_EEERK7QString)
    QtMobility::operator ==<(int)17>(const QtMobility::QLatin1Constant<T1>&, const QString&) 0x0001eb17   Thumb Code    24  cnttransformphonenumber.o(t._ZN10QtMobilityeqILi17EEEbRKNS_15QLatin1ConstantIXT_EEERK7QString)
    QtMobility::operator ==<(int)20>(const QtMobility::QLatin1Constant<T1>&, const QString&) 0x0001eb2f   Thumb Code    24  cnttransformphonenumber.o(t._ZN10QtMobilityeqILi20EEEbRKNS_15QLatin1ConstantIXT_EEERK7QString)
    QtMobility::operator ==<(int)4>(const QString&, const QtMobility::QLatin1Constant<T1>&) 0x0001eb47   Thumb Code    24  cnttransformurl.o(t._ZN10QtMobilityeqILi4EEEbRK7QStringRKNS_15QLatin1ConstantIXT_EEE)
    QtMobility::operator ==<(int)4>(const QtMobility::QLatin1Constant<T1>&, const QString&) 0x0001eb5f   Thumb Code    24  cnttransformphonenumber.o(t._ZN10QtMobilityeqILi4EEEbRKNS_15QLatin1ConstantIXT_EEERK7QString)
    QtMobility::operator ==<(int)5>(const QString&, const QtMobility::QLatin1Constant<T1>&) 0x0001eb77   Thumb Code    24  cntsymbianengine.o(t._ZN10QtMobilityeqILi5EEEbRK7QStringRKNS_15QLatin1ConstantIXT_EEE)
    QtMobility::operator ==<(int)5>(const QtMobility::QLatin1Constant<T1>&, const QString&) 0x0001eb8f   Thumb Code    24  cnttransformorganisation.o(t._ZN10QtMobilityeqILi5EEEbRKNS_15QLatin1ConstantIXT_EEERK7QString)
    QtMobility::operator ==<(int)6>(const QString&, const QtMobility::QLatin1Constant<T1>&) 0x0001eba7   Thumb Code    24  cntsymbianengine.o(t._ZN10QtMobilityeqILi6EEEbRK7QStringRKNS_15QLatin1ConstantIXT_EEE)
    QtMobility::operator ==<(int)6>(const QtMobility::QLatin1Constant<T1>&, const QString&) 0x0001ebbf   Thumb Code    24  cnttransformphonenumber.o(t._ZN10QtMobilityeqILi6EEEbRKNS_15QLatin1ConstantIXT_EEERK7QString)
    QtMobility::operator ==<(int)7>(const QString&, const QtMobility::QLatin1Constant<T1>&) 0x0001ebd7   Thumb Code    24  cntsymbianfilterdbms.o(t._ZN10QtMobilityeqILi7EEEbRK7QStringRKNS_15QLatin1ConstantIXT_EEE)
    QtMobility::operator ==<(int)7>(const QtMobility::QLatin1Constant<T1>&, const QString&) 0x0001ebef   Thumb Code    24  cnttransformname.o(t._ZN10QtMobilityeqILi7EEEbRKNS_15QLatin1ConstantIXT_EEERK7QString)
    QtMobility::operator ==<(int)8>(const QString&, const QtMobility::QLatin1Constant<T1>&) 0x0001ec07   Thumb Code    24  cntsymbianengine.o(t._ZN10QtMobilityeqILi8EEEbRK7QStringRKNS_15QLatin1ConstantIXT_EEE)
    QtMobility::operator ==<(int)8>(const QtMobility::QLatin1Constant<T1>&, const QString&) 0x0001ec1f   Thumb Code    24  cnttransformaddress.o(t._ZN10QtMobilityeqILi8EEEbRKNS_15QLatin1ConstantIXT_EEERK7QString)
    QtMobility::operator ==<(int)9>(const QString&, const QtMobility::QLatin1Constant<T1>&) 0x0001ec37   Thumb Code    24  cntfilterdetail.o(t._ZN10QtMobilityeqILi9EEEbRK7QStringRKNS_15QLatin1ConstantIXT_EEE)
    QtMobility::operator ==<(int)9>(const QtMobility::QLatin1Constant<T1>&, const QString&) 0x0001ec4f   Thumb Code    24  cnttransformname.o(t._ZN10QtMobilityeqILi9EEEbRKNS_15QLatin1ConstantIXT_EEERK7QString)
    QtMobility::operator !=<(int)10>(const QString&, const QtMobility::QLatin1Constant<T1>&) 0x0001ec67   Thumb Code    28  cnttransformthumbnail.o(t._ZN10QtMobilityneILi10EEEbRK7QStringRKNS_15QLatin1ConstantIXT_EEE)
    QtMobility::operator !=<(int)11>(const QString&, const QtMobility::QLatin1Constant<T1>&) 0x0001ec83   Thumb Code    28  cnttransformsynctarget.o(t._ZN10QtMobilityneILi11EEEbRK7QStringRKNS_15QLatin1ConstantIXT_EEE)
    QtMobility::operator !=<(int)12>(const QString&, const QtMobility::QLatin1Constant<T1>&) 0x0001ec9f   Thumb Code    28  cntfilterdetail.o(t._ZN10QtMobilityneILi12EEEbRK7QStringRKNS_15QLatin1ConstantIXT_EEE)
    QtMobility::operator !=<(int)13>(const QString&, const QtMobility::QLatin1Constant<T1>&) 0x0001ecbb   Thumb Code    28  cnttransformemail.o(t._ZN10QtMobilityneILi13EEEbRK7QStringRKNS_15QLatin1ConstantIXT_EEE)
    QtMobility::operator !=<(int)14>(const QString&, const QtMobility::QLatin1Constant<T1>&) 0x0001ecd7   Thumb Code    28  cnttransformonlineaccountsimple.o(t._ZN10QtMobilityneILi14EEEbRK7QStringRKNS_15QLatin1ConstantIXT_EEE)
    QtMobility::operator !=<(int)4>(const QString&, const QtMobility::QLatin1Constant<T1>&) 0x0001ecf3   Thumb Code    28  cnttransformurl.o(t._ZN10QtMobilityneILi4EEEbRK7QStringRKNS_15QLatin1ConstantIXT_EEE)
    QtMobility::operator !=<(int)5>(const QString&, const QtMobility::QLatin1Constant<T1>&) 0x0001ed0f   Thumb Code    28  cnttransformname.o(t._ZN10QtMobilityneILi5EEEbRK7QStringRKNS_15QLatin1ConstantIXT_EEE)
    QtMobility::operator !=<(int)6>(const QString&, const QtMobility::QLatin1Constant<T1>&) 0x0001ed2b   Thumb Code    24  cntsymbianengine.o(t._ZN10QtMobilityneILi6EEEbRK7QStringRKNS_15QLatin1ConstantIXT_EEE)
    QtMobility::operator !=<(int)7>(const QString&, const QtMobility::QLatin1Constant<T1>&) 0x0001ed43   Thumb Code    28  cnttransformavatar.o(t._ZN10QtMobilityneILi7EEEbRK7QStringRKNS_15QLatin1ConstantIXT_EEE)
    QtMobility::operator !=<(int)8>(const QString&, const QtMobility::QLatin1Constant<T1>&) 0x0001ed5f   Thumb Code    24  cntsymbianengine.o(t._ZN10QtMobilityneILi8EEEbRK7QStringRKNS_15QLatin1ConstantIXT_EEE)
    QtMobility::operator !=<(int)9>(const QString&, const QtMobility::QLatin1Constant<T1>&) 0x0001ed77   Thumb Code    28  cnttransformnickname.o(t._ZN10QtMobilityneILi9EEEbRK7QStringRKNS_15QLatin1ConstantIXT_EEE)
    QScopedPointer<QList<unsigned>, QScopedPointerDeleter<QList<unsigned>>>::~QScopedPointer() 0x0001ed93   Thumb Code    32  cntsymbiansorterdbms.o(t._ZN14QScopedPointerI5QListIjE21QScopedPointerDeleterIS1_EED1Ev)
    QScopedPointer<QList<unsigned>, QScopedPointerDeleter<QList<unsigned>>>::~QScopedPointer__sub_object() 0x0001ed93   Thumb Code     0  cntsymbiansorterdbms.o(t._ZN14QScopedPointerI5QListIjE21QScopedPointerDeleterIS1_EED1Ev)
    QScopedPointer<QString, QScopedPointerDeleter<QString>>::~QScopedPointer() 0x0001edb3   Thumb Code    32  cnttransformcontact.o(t._ZN14QScopedPointerI7QString21QScopedPointerDeleterIS0_EED1Ev)
    QScopedPointer<QString, QScopedPointerDeleter<QString>>::~QScopedPointer__sub_object() 0x0001edb3   Thumb Code     0  cnttransformcontact.o(t._ZN14QScopedPointerI7QString21QScopedPointerDeleterIS0_EED1Ev)
    QScopedPointer<QtMobility::QContactId, QScopedPointerDeleter<QtMobility::QContactId>>::~QScopedPointer() 0x0001edd3   Thumb Code    32  cntsymbianengine.o(t._ZN14QScopedPointerIN10QtMobility10QContactIdE21QScopedPointerDeleterIS1_EED1Ev)
    QScopedPointer<QtMobility::QContactId, QScopedPointerDeleter<QtMobility::QContactId>>::~QScopedPointer__sub_object() 0x0001edd3   Thumb Code     0  cntsymbianengine.o(t._ZN14QScopedPointerIN10QtMobility10QContactIdE21QScopedPointerDeleterIS1_EED1Ev)
    QScopedPointer<QtMobility::QContactDetail, QScopedPointerDeleter<QtMobility::QContactDetail>>::~QScopedPointer() 0x0001edf3   Thumb Code    32  cnttransformcontact.o(t._ZN14QScopedPointerIN10QtMobility14QContactDetailE21QScopedPointerDeleterIS1_EED1Ev)
    QScopedPointer<QtMobility::QContactDetail, QScopedPointerDeleter<QtMobility::QContactDetail>>::~QScopedPointer__sub_object() 0x0001edf3   Thumb Code     0  cnttransformcontact.o(t._ZN14QScopedPointerIN10QtMobility14QContactDetailE21QScopedPointerDeleterIS1_EED1Ev)
    QScopedPointer<QtMobility::QContact, QScopedPointerDeleter<QtMobility::QContact>>::~QScopedPointer() 0x0001ee13   Thumb Code    32  cntsymbianengine.o(t._ZN14QScopedPointerIN10QtMobility8QContactE21QScopedPointerDeleterIS1_EED1Ev)
    QScopedPointer<QtMobility::QContact, QScopedPointerDeleter<QtMobility::QContact>>::~QScopedPointer__sub_object() 0x0001ee13   Thumb Code     0  cntsymbianengine.o(t._ZN14QScopedPointerIN10QtMobility8QContactE21QScopedPointerDeleterIS1_EED1Ev)
    QMap<QString, QVariant>::freeData(QMapData*) 0x0001ee33   Thumb Code    64  cnttransformaddress.o(t._ZN4QMapI7QString8QVariantE8freeDataEP8QMapData)
    QMap<QString, QVariant>::~QMap()         0x0001ee73   Thumb Code    38  cnttransformaddress.o(t._ZN4QMapI7QString8QVariantED1Ev)
    QMap<QString, QVariant>::~QMap__sub_object() 0x0001ee73   Thumb Code     0  cnttransformaddress.o(t._ZN4QMapI7QString8QVariantED1Ev)
    QMap<QString, QtMobility::QContactDetailDefinition>::node_create(QMapData*, QMapData::Node**, const QString&, const QtMobility::QContactDetailDefinition&) 0x0001ee99   Thumb Code   140  cntsymbianengine.o(t._ZN4QMapI7QStringN10QtMobility24QContactDetailDefinitionEE11node_createEP8QMapDataPPNS4_4NodeERKS0_RKS2_)
    QMap<QString, QtMobility::QContactDetailDefinition>::detach_helper() 0x0001ef4b   Thumb Code   146  cntsymbianengine.o(t._ZN4QMapI7QStringN10QtMobility24QContactDetailDefinitionEE13detach_helperEv)
    QMap<QString, QtMobility::QContactDetailDefinition>::detach() 0x0001efe5   Thumb Code    28  cntsymbianengine.o(t._ZN4QMapI7QStringN10QtMobility24QContactDetailDefinitionEE6detachEv)
    QMap<QString, QtMobility::QContactDetailDefinition>::remove(const QString&) 0x0001f001   Thumb Code   290  cnttransformempty.o(t._ZN4QMapI7QStringN10QtMobility24QContactDetailDefinitionEE6removeERKS0_)
    QMap<QString, QtMobility::QContactDetailDefinition>::freeData(QMapData*) 0x0001f123   Thumb Code    62  cntsymbianengine.o(t._ZN4QMapI7QStringN10QtMobility24QContactDetailDefinitionEE8freeDataEP8QMapData)
    QMap<QString, QtMobility::QContactDetailDefinition>::QMap(const QMap<QString, QtMobility::QContactDetailDefinition>&) 0x0001f161   Thumb Code    40  cntsymbianengine.o(t._ZN4QMapI7QStringN10QtMobility24QContactDetailDefinitionEEC1ERKS3_)
    QMap<QString, QtMobility::QContactDetailDefinition>::QMap__sub_object(const QMap<QString, QtMobility::QContactDetailDefinition>&) 0x0001f161   Thumb Code     0  cntsymbianengine.o(t._ZN4QMapI7QStringN10QtMobility24QContactDetailDefinitionEEC1ERKS3_)
    QMap<QString, QtMobility::QContactDetailDefinition>::QMap() 0x0001f189   Thumb Code    22  cntsymbianengine.o(t._ZN4QMapI7QStringN10QtMobility24QContactDetailDefinitionEEC1Ev)
    QMap<QString, QtMobility::QContactDetailDefinition>::QMap__sub_object() 0x0001f189   Thumb Code     0  cntsymbianengine.o(t._ZN4QMapI7QStringN10QtMobility24QContactDetailDefinitionEEC1Ev)
    QMap<QString, QtMobility::QContactDetailDefinition>::~QMap() 0x0001f1a5   Thumb Code    38  cntsymbianengine.o(t._ZN4QMapI7QStringN10QtMobility24QContactDetailDefinitionEED1Ev)
    QMap<QString, QtMobility::QContactDetailDefinition>::~QMap__sub_object() 0x0001f1a5   Thumb Code     0  cntsymbianengine.o(t._ZN4QMapI7QStringN10QtMobility24QContactDetailDefinitionEED1Ev)
    QMap<QString, QtMobility::QContactDetailFieldDefinition>::node_create(QMapData*, QMapData::Node**, const QString&, const QtMobility::QContactDetailFieldDefinition&) 0x0001f1cb   Thumb Code   140  cnttransformname.o(t._ZN4QMapI7QStringN10QtMobility29QContactDetailFieldDefinitionEE11node_createEP8QMapDataPPNS4_4NodeERKS0_RKS2_)
    QMap<QString, QtMobility::QContactDetailFieldDefinition>::detach_helper() 0x0001f27d   Thumb Code   146  cnttransformname.o(t._ZN4QMapI7QStringN10QtMobility29QContactDetailFieldDefinitionEE13detach_helperEv)
    QMap<QString, QtMobility::QContactDetailFieldDefinition>::detach() 0x0001f317   Thumb Code    28  cnttransformaddress.o(t._ZN4QMapI7QStringN10QtMobility29QContactDetailFieldDefinitionEE6detachEv)
    QMap<QString, QtMobility::QContactDetailFieldDefinition>::insert(const QString&, const QtMobility::QContactDetailFieldDefinition&) 0x0001f333   Thumb Code   100  cnttransformorganisation.o(t._ZN4QMapI7QStringN10QtMobility29QContactDetailFieldDefinitionEE6insertERKS0_RKS2_)
    QMap<QString, QtMobility::QContactDetailFieldDefinition>::remove(const QString&) 0x0001f397   Thumb Code   264  cnttransformaddress.o(t._ZN4QMapI7QStringN10QtMobility29QContactDetailFieldDefinitionEE6removeERKS0_)
    QMap<QString, QtMobility::QContactDetailFieldDefinition>::freeData(QMapData*) 0x0001f49f   Thumb Code    62  cnttransformname.o(t._ZN4QMapI7QStringN10QtMobility29QContactDetailFieldDefinitionEE8freeDataEP8QMapData)
    QMap<QString, QtMobility::QContactDetailFieldDefinition>::~QMap() 0x0001f4dd   Thumb Code    38  cnttransformname.o(t._ZN4QMapI7QStringN10QtMobility29QContactDetailFieldDefinitionEED1Ev)
    QMap<QString, QtMobility::QContactDetailFieldDefinition>::~QMap__sub_object() 0x0001f4dd   Thumb Code     0  cnttransformname.o(t._ZN4QMapI7QStringN10QtMobility29QContactDetailFieldDefinitionEED1Ev)
    QMap<QString, CntAbstractRelationship*>::node_create(QMapData*, QMapData::Node**, const QString&, CntAbstractRelationship*const &) 0x0001f503   Thumb Code   118  cntrelationship.o(t._ZN4QMapI7QStringP23CntAbstractRelationshipE11node_createEP8QMapDataPPNS4_4NodeERKS0_RKS2_)
    QMap<QString, CntAbstractRelationship*>::detach_helper() 0x0001f58d   Thumb Code   146  cntrelationship.o(t._ZN4QMapI7QStringP23CntAbstractRelationshipE13detach_helperEv)
    QMap<QString, CntAbstractRelationship*>::detach() 0x0001f627   Thumb Code    28  cntrelationship.o(t._ZN4QMapI7QStringP23CntAbstractRelationshipE6detachEv)
    QMap<QString, CntAbstractRelationship*>::freeData(QMapData*) 0x0001f643   Thumb Code    56  cntrelationship.o(t._ZN4QMapI7QStringP23CntAbstractRelationshipE8freeDataEP8QMapData)
    QMap<QString, CntAbstractRelationship*>::~QMap() 0x0001f67b   Thumb Code    38  cntrelationship.o(t._ZN4QMapI7QStringP23CntAbstractRelationshipED1Ev)
    QMap<QString, CntAbstractRelationship*>::~QMap__sub_object() 0x0001f67b   Thumb Code     0  cntrelationship.o(t._ZN4QMapI7QStringP23CntAbstractRelationshipED1Ev)
    QMap<QString, QMap<QString, QtMobility::QContactDetailDefinition>>::freeData(QMapData*) 0x0001f6a1   Thumb Code    62  cntsymbianengine.o(t._ZN4QMapI7QStringS_IS0_N10QtMobility24QContactDetailDefinitionEEE8freeDataEP8QMapData)
    QMap<QString, QMap<QString, QtMobility::QContactDetailDefinition>>::~QMap() 0x0001f6df   Thumb Code    38  cntsymbianengine.o(t._ZN4QMapI7QStringS_IS0_N10QtMobility24QContactDetailDefinitionEEED1Ev)
    QMap<QString, QMap<QString, QtMobility::QContactDetailDefinition>>::~QMap__sub_object() 0x0001f6df   Thumb Code     0  cntsymbianengine.o(t._ZN4QMapI7QStringS_IS0_N10QtMobility24QContactDetailDefinitionEEED1Ev)
    QMap<CntTransformContact::ContactData, CntTransformContactData*>::node_create(QMapData*, QMapData::Node**, const CntTransformContact::ContactData&, CntTransformContactData*const &) 0x0001f705   Thumb Code    82  cnttransformcontact.o(t._ZN4QMapIN19CntTransformContact11ContactDataEP23CntTransformContactDataE11node_createEP8QMapDataPPNS5_4NodeERKS1_RKS3_)
    QMap<CntTransformContact::ContactData, CntTransformContactData*>::detach_helper() 0x0001f75b   Thumb Code   146  cnttransformcontact.o(t._ZN4QMapIN19CntTransformContact11ContactDataEP23CntTransformContactDataE13detach_helperEv)
    QMap<CntTransformContact::ContactData, CntTransformContactData*>::detach() 0x0001f7f5   Thumb Code    28  cnttransformcontact.o(t._ZN4QMapIN19CntTransformContact11ContactDataEP23CntTransformContactDataE6detachEv)
    QMap<CntTransformContact::ContactData, CntTransformContactData*>::insert(const CntTransformContact::ContactData&, CntTransformContactData*const &) 0x0001f811   Thumb Code    74  cnttransformcontact.o(t._ZN4QMapIN19CntTransformContact11ContactDataEP23CntTransformContactDataE6insertERKS1_RKS3_)
    QMap<CntTransformContact::ContactData, CntTransformContactData*>::freeData(QMapData*) 0x0001f85b   Thumb Code    48  cnttransformcontact.o(t._ZN4QMapIN19CntTransformContact11ContactDataEP23CntTransformContactDataE8freeDataEP8QMapData)
    QMap<CntTransformContact::ContactData, CntTransformContactData*>::~QMap() 0x0001f88b   Thumb Code    38  cnttransformcontact.o(t._ZN4QMapIN19CntTransformContact11ContactDataEP23CntTransformContactDataED1Ev)
    QMap<CntTransformContact::ContactData, CntTransformContactData*>::~QMap__sub_object() 0x0001f88b   Thumb Code     0  cnttransformcontact.o(t._ZN4QMapIN19CntTransformContact11ContactDataEP23CntTransformContactDataED1Ev)
    QMap<int, QtMobility::QContactManager::Error>::node_create(QMapData*, QMapData::Node**, const int&, const QtMobility::QContactManager::Error&) 0x0001f8b1   Thumb Code    82  cntsymbianengine.o(t._ZN4QMapIiN10QtMobility15QContactManager5ErrorEE11node_createEP8QMapDataPPNS4_4NodeERKiRKS2_)
    QMap<int, QtMobility::QContactManager::Error>::detach_helper() 0x0001f907   Thumb Code   146  cntsymbianengine.o(t._ZN4QMapIiN10QtMobility15QContactManager5ErrorEE13detach_helperEv)
    QMap<int, QtMobility::QContactManager::Error>::clear() 0x0001f9a1   Thumb Code    82  cntsymbianengine.o(t._ZN4QMapIiN10QtMobility15QContactManager5ErrorEE5clearEv)
    QMap<int, QtMobility::QContactManager::Error>::insert(const int&, const QtMobility::QContactManager::Error&) 0x0001f9fd   Thumb Code    92  cntsymbianengine.o(t._ZN4QMapIiN10QtMobility15QContactManager5ErrorEE6insertERKiRKS2_)
    QMap<int, QtMobility::QContactManager::Error>::freeData(QMapData*) 0x0001fa59   Thumb Code    48  cntsymbianengine.o(t._ZN4QMapIiN10QtMobility15QContactManager5ErrorEE8freeDataEP8QMapData)
    QMap<int, QtMobility::QContactManager::Error>::QMap() 0x0001fa89   Thumb Code    22  cntsymbianengine.o(t._ZN4QMapIiN10QtMobility15QContactManager5ErrorEEC1Ev)
    QMap<int, QtMobility::QContactManager::Error>::QMap__sub_object() 0x0001fa89   Thumb Code     0  cntsymbianengine.o(t._ZN4QMapIiN10QtMobility15QContactManager5ErrorEEC1Ev)
    QMap<int, QtMobility::QContactManager::Error>::~QMap() 0x0001faa5   Thumb Code    38  cntsymbianengine.o(t._ZN4QMapIiN10QtMobility15QContactManager5ErrorEED1Ev)
    QMap<int, QtMobility::QContactManager::Error>::~QMap__sub_object() 0x0001faa5   Thumb Code     0  cntsymbianengine.o(t._ZN4QMapIiN10QtMobility15QContactManager5ErrorEED1Ev)
    QMap<unsigned, QSet<unsigned>>::node_create(QMapData*, QMapData::Node**, const unsigned&, const QSet<unsigned>&) 0x0001facb   Thumb Code   130  cntsymbiandatabase.o(t._ZN4QMapIj4QSetIjEE11node_createEP8QMapDataPPNS3_4NodeERKjRKS1_)
    QMap<unsigned, QSet<unsigned>>::detach_helper() 0x0001fb69   Thumb Code   146  cntsymbiandatabase.o(t._ZN4QMapIj4QSetIjEE13detach_helperEv)
    QMap<unsigned, QSet<unsigned>>::detach() 0x0001fc03   Thumb Code    28  cntsymbiandatabase.o(t._ZN4QMapIj4QSetIjEE6detachEv)
    QMap<unsigned, QSet<unsigned>>::remove(const unsigned&) 0x0001fc1f   Thumb Code   256  cntsymbiandatabase.o(t._ZN4QMapIj4QSetIjEE6removeERKj)
    QMap<unsigned, QSet<unsigned>>::freeData(QMapData*) 0x0001fd1f   Thumb Code    56  cntsymbiandatabase.o(t._ZN4QMapIj4QSetIjEE8freeDataEP8QMapData)
    QMap<unsigned, QSet<unsigned>>::~QMap()  0x0001fd57   Thumb Code    38  cntsymbiandatabase.o(t._ZN4QMapIj4QSetIjEED1Ev)
    QMap<unsigned, QSet<unsigned>>::~QMap__sub_object() 0x0001fd57   Thumb Code     0  cntsymbiandatabase.o(t._ZN4QMapIj4QSetIjEED1Ev)
    QSet<unsigned>::const_iterator::operator --() 0x0001fd7d   Thumb Code    20  cntsymbianfilterdbms.o(t._ZN4QSetIjE14const_iteratormmEv)
    QSet<unsigned>::insert(const unsigned&)  0x0001fd91   Thumb Code    46  cntrelationshipgroup.o(t._ZN4QSetIjE6insertERKj)
    QSet<unsigned>::remove(const unsigned&)  0x0001fdbf   Thumb Code    26  cntsymbiandatabase.o(t._ZN4QSetIjE6removeERKj)
    QSet<unsigned>::subtract(const QSet<unsigned>&) 0x0001fdd9   Thumb Code   150  cntsymbiandatabase.o(t._ZN4QSetIjE8subtractERKS0_)
    QSet<unsigned>::intersect(const QSet<unsigned>&) 0x0001fe7f   Thumb Code   170  cntsymbianfilterdbms.o(t._ZN4QSetIjE9intersectERKS0_)
    QSet<unsigned>::QSet(const QSet<unsigned>&) 0x0001ff39   Thumb Code    42  cntsymbiandatabase.o(t._ZN4QSetIjEC1ERKS0_)
    QSet<unsigned>::QSet__sub_object(const QSet<unsigned>&) 0x0001ff39   Thumb Code     0  cntsymbiandatabase.o(t._ZN4QSetIjEC1ERKS0_)
    QSet<unsigned>::QSet()                   0x0001ff65   Thumb Code    24  cntsymbianengine.o(t._ZN4QSetIjEC1Ev)
    QSet<unsigned>::QSet__sub_object()       0x0001ff65   Thumb Code     0  cntsymbianengine.o(t._ZN4QSetIjEC1Ev)
    QSet<unsigned>::operator =(const QSet<unsigned>&) 0x0001ff81   Thumb Code    74  cntsymbiandatabase.o(t._ZN4QSetIjEaSERKS0_)
    QSet<unsigned>::operator -(const QSet<unsigned>&) 0x0001ffcb   Thumb Code    32  cntsymbiandatabase.o(t._ZN4QSetIjEmiERKS0_)
    TBuf<(int)256>::TBuf()                   0x0001fff5   Thumb Code    18  cntsymbiansrvconnection.o(t._ZN4TBufILi256EEC1Ev)
    TBuf<(int)256>::TBuf__sub_object()       0x0001fff5   Thumb Code     0  cntsymbiansrvconnection.o(t._ZN4TBufILi256EEC1Ev)
    QHash<QString, QPair<int, bool>>::deleteNode2(QHashData::Node*) 0x00020007   Thumb Code    24  cntdbinfo.o(t._ZN5QHashI7QString5QPairIibEE11deleteNode2EPN9QHashData4NodeE)
    QHash<QString, QPair<int, bool>>::detach_helper() 0x00020021   Thumb Code    52  cntdbinfo.o(t._ZN5QHashI7QString5QPairIibEE13detach_helperEv)
    QHash<QString, QPair<int, bool>>::duplicateNode(QHashData::Node*, void*) 0x0002005d   Thumb Code    46  cntdbinfo.o(t._ZN5QHashI7QString5QPairIibEE13duplicateNodeEPN9QHashData4NodeEPv)
    QHash<QString, QPair<int, bool>>::insert(const QString&, const QPair<int, bool>&) 0x00020099   Thumb Code   204  cntdbinfo.o(t._ZN5QHashI7QString5QPairIibEE6insertERKS0_RKS2_)
    QHash<QString, QPair<int, bool>>::freeData(QHashData*) 0x00020175   Thumb Code    16  cntdbinfo.o(t._ZN5QHashI7QString5QPairIibEE8freeDataEP9QHashData)
    QHash<QString, QPair<int, bool>>::QHash() 0x00020189   Thumb Code    22  cntdbinfo.o(t._ZN5QHashI7QString5QPairIibEEC1Ev)
    QHash<QString, QPair<int, bool>>::QHash__sub_object() 0x00020189   Thumb Code     0  cntdbinfo.o(t._ZN5QHashI7QString5QPairIibEEC1Ev)
    QHash<QString, QPair<int, bool>>::~QHash() 0x000201a5   Thumb Code    30  cntdbinfo.o(t._ZN5QHashI7QString5QPairIibEED1Ev)
    QHash<QString, QPair<int, bool>>::~QHash__sub_object() 0x000201a5   Thumb Code     0  cntdbinfo.o(t._ZN5QHashI7QString5QPairIibEED1Ev)
    QHash<QString, QString>::deleteNode2(QHashData::Node*) 0x000201c3   Thumb Code    36  cntdbinfo.o(t._ZN5QHashI7QStringS0_E11deleteNode2EPN9QHashData4NodeE)
    QHash<QString, QString>::detach_helper() 0x000201f5   Thumb Code    52  cntdbinfo.o(t._ZN5QHashI7QStringS0_E13detach_helperEv)
    QHash<QString, QString>::duplicateNode(QHashData::Node*, void*) 0x00020231   Thumb Code    46  cntdbinfo.o(t._ZN5QHashI7QStringS0_E13duplicateNodeEPN9QHashData4NodeEPv)
    QHash<QString, QString>::insert(const QString&, const QString&) 0x0002026d   Thumb Code   200  cntdbinfo.o(t._ZN5QHashI7QStringS0_E6insertERKS0_S3_)
    QHash<QString, QString>::freeData(QHashData*) 0x00020345   Thumb Code    16  cntdbinfo.o(t._ZN5QHashI7QStringS0_E8freeDataEP9QHashData)
    QHash<QString, QString>::QHash()         0x00020359   Thumb Code    22  cntdbinfo.o(t._ZN5QHashI7QStringS0_EC1Ev)
    QHash<QString, QString>::QHash__sub_object() 0x00020359   Thumb Code     0  cntdbinfo.o(t._ZN5QHashI7QStringS0_EC1Ev)
    QHash<QString, QString>::~QHash()        0x00020375   Thumb Code    30  cntdbinfo.o(t._ZN5QHashI7QStringS0_ED1Ev)
    QHash<QString, QString>::~QHash__sub_object() 0x00020375   Thumb Code     0  cntdbinfo.o(t._ZN5QHashI7QStringS0_ED1Ev)
    QHash<QString, int>::deleteNode2(QHashData::Node*) 0x00020393   Thumb Code    24  cntdbinfo.o(t._ZN5QHashI7QStringiE11deleteNode2EPN9QHashData4NodeE)
    QHash<QString, int>::detach_helper()     0x000203ad   Thumb Code    52  cntdbinfo.o(t._ZN5QHashI7QStringiE13detach_helperEv)
    QHash<QString, int>::duplicateNode(QHashData::Node*, void*) 0x000203e9   Thumb Code    46  cntdbinfo.o(t._ZN5QHashI7QStringiE13duplicateNodeEPN9QHashData4NodeEPv)
    QHash<QString, int>::insert(const QString&, const int&) 0x00020425   Thumb Code   194  cntdbinfo.o(t._ZN5QHashI7QStringiE6insertERKS0_RKi)
    QHash<QString, int>::freeData(QHashData*) 0x000204f5   Thumb Code    16  cntdbinfo.o(t._ZN5QHashI7QStringiE8freeDataEP9QHashData)
    QHash<QString, int>::QHash()             0x00020509   Thumb Code    22  cntdbinfo.o(t._ZN5QHashI7QStringiEC1Ev)
    QHash<QString, int>::QHash__sub_object() 0x00020509   Thumb Code     0  cntdbinfo.o(t._ZN5QHashI7QStringiEC1Ev)
    QHash<QString, int>::~QHash()            0x00020525   Thumb Code    30  cntdbinfo.o(t._ZN5QHashI7QStringiED1Ev)
    QHash<QString, int>::~QHash__sub_object() 0x00020525   Thumb Code     0  cntdbinfo.o(t._ZN5QHashI7QStringiED1Ev)
    QHash<unsigned, QHashDummyValue>::deleteNode2(QHashData::Node*) 0x00020543   Thumb Code     6  cntsymbianengine.o(t._ZN5QHashIj15QHashDummyValueE11deleteNode2EPN9QHashData4NodeE)
    QHash<unsigned, QHashDummyValue>::detach_helper() 0x00020549   Thumb Code    52  cntrelationshipgroup.o(t._ZN5QHashIj15QHashDummyValueE13detach_helperEv)
    QHash<unsigned, QHashDummyValue>::duplicateNode(QHashData::Node*, void*) 0x00020585   Thumb Code    34  cntsymbiandatabase.o(t._ZN5QHashIj15QHashDummyValueE13duplicateNodeEPN9QHashData4NodeEPv)
    QHash<unsigned, QHashDummyValue>::detach() 0x000205a7   Thumb Code    28  cntsymbiandatabase.o(t._ZN5QHashIj15QHashDummyValueE6detachEv)
    QHash<unsigned, QHashDummyValue>::insert(const unsigned&, const QHashDummyValue&) 0x000205c3   Thumb Code   188  cntsymbiandatabase.o(t._ZN5QHashIj15QHashDummyValueE6insertERKjRKS0_)
    QHash<unsigned, QHashDummyValue>::remove(const unsigned&) 0x00020683   Thumb Code   242  cntsymbiandatabase.o(t._ZN5QHashIj15QHashDummyValueE6removeERKj)
    QHash<unsigned, QHashDummyValue>::freeData(QHashData*) 0x00020775   Thumb Code    16  cntsymbianengine.o(t._ZN5QHashIj15QHashDummyValueE8freeDataEP9QHashData)
    QHash<unsigned, QHashDummyValue>::~QHash() 0x00020789   Thumb Code    30  cntsymbianengine.o(t._ZN5QHashIj15QHashDummyValueED1Ev)
    QHash<unsigned, QHashDummyValue>::~QHash__sub_object() 0x00020789   Thumb Code     0  cntsymbianengine.o(t._ZN5QHashIj15QHashDummyValueED1Ev)
    QHash<unsigned long, CntTransformContactData*>::createNode(unsigned, const unsigned long&, CntTransformContactData*const &, QHashNode<unsigned long, CntTransformContactData*>**) 0x000207a7   Thumb Code   102  cnttransformcontact.o(t._ZN5QHashImP23CntTransformContactDataE10createNodeEjRKmRKS1_PP9QHashNodeImS1_E)
    QHash<unsigned long, CntTransformContactData*>::deleteNode2(QHashData::Node*) 0x00020811   Thumb Code     6  cnttransformcontact.o(t._ZN5QHashImP23CntTransformContactDataE11deleteNode2EPN9QHashData4NodeE)
    QHash<unsigned long, CntTransformContactData*>::detach_helper() 0x00020819   Thumb Code    52  cnttransformcontact.o(t._ZN5QHashImP23CntTransformContactDataE13detach_helperEv)
    QHash<unsigned long, CntTransformContactData*>::duplicateNode(QHashData::Node*, void*) 0x00020855   Thumb Code    46  cnttransformcontact.o(t._ZN5QHashImP23CntTransformContactDataE13duplicateNodeEPN9QHashData4NodeEPv)
    QHash<unsigned long, CntTransformContactData*>::detach() 0x00020883   Thumb Code    28  cnttransformcontact.o(t._ZN5QHashImP23CntTransformContactDataE6detachEv)
    QHash<unsigned long, CntTransformContactData*>::freeData(QHashData*) 0x000208a1   Thumb Code    16  cnttransformcontact.o(t._ZN5QHashImP23CntTransformContactDataE8freeDataEP9QHashData)
    QHash<unsigned long, CntTransformContactData*>::QHash() 0x000208b5   Thumb Code    22  cnttransformcontact.o(t._ZN5QHashImP23CntTransformContactDataEC1Ev)
    QHash<unsigned long, CntTransformContactData*>::QHash__sub_object() 0x000208b5   Thumb Code     0  cnttransformcontact.o(t._ZN5QHashImP23CntTransformContactDataEC1Ev)
    QHash<unsigned long, CntTransformContactData*>::~QHash() 0x000208d1   Thumb Code    30  cnttransformcontact.o(t._ZN5QHashImP23CntTransformContactDataED1Ev)
    QHash<unsigned long, CntTransformContactData*>::~QHash__sub_object() 0x000208d1   Thumb Code     0  cnttransformcontact.o(t._ZN5QHashImP23CntTransformContactDataED1Ev)
    QList<TUid>::detach_helper(int)          0x000208ef   Thumb Code    94  cnttransformcontact.o(t._ZN5QListI4TUidE13detach_helperEi)
    QList<TUid>::detach_helper()             0x00020955   Thumb Code    16  cntsymbianengine.o(t._ZN5QListI4TUidE13detach_helperEv)
    QList<TUid>::node_destruct(QList<TUid>::Node*, QList<TUid>::Node*) 0x00020965   Thumb Code    26  cnttransformcontact.o(t._ZN5QListI4TUidE13node_destructEPNS1_4NodeES3_)
    QList<TUid>::node_construct(QList<TUid>::Node*, const TUid&) 0x0002097f   Thumb Code    30  cnttransformname.o(t._ZN5QListI4TUidE14node_constructEPNS1_4NodeERKS0_)
    QList<TUid>::detach_helper_grow(int, int) 0x0002099d   Thumb Code   208  cnttransformcontact.o(t._ZN5QListI4TUidE18detach_helper_growEii)
    QList<TUid>::free(QListData::Data*)      0x00020a7d   Thumb Code    52  cnttransformphonenumber.o(t._ZN5QListI4TUidE4freeEPN9QListData4DataE)
    QList<TUid>::append(const TUid&)         0x00020ab1   Thumb Code   106  cnttransformname.o(t._ZN5QListI4TUidE6appendERKS0_)
    QList<TUid>::node_copy(QList<TUid>::Node*, QList<TUid>::Node*, QList<TUid>::Node*) 0x00020b2f   Thumb Code    78  cnttransformcontact.o(t._ZN5QListI4TUidE9node_copyEPNS1_4NodeES3_S3_)
    QList<TUid>::QList(const QList<TUid>&)   0x00020b85   Thumb Code    36  cnttransformname.o(t._ZN5QListI4TUidEC1ERKS1_)
    QList<TUid>::QList__sub_object(const QList<TUid>&) 0x00020b85   Thumb Code     0  cnttransformname.o(t._ZN5QListI4TUidEC1ERKS1_)
    QList<TUid>::QList()                     0x00020ba9   Thumb Code    18  cnttransformcontact.o(t._ZN5QListI4TUidEC1Ev)
    QList<TUid>::QList__sub_object()         0x00020ba9   Thumb Code     0  cnttransformcontact.o(t._ZN5QListI4TUidEC1Ev)
    QList<TUid>::~QList()                    0x00020bc1   Thumb Code    32  cntsymbianengine.o(t._ZN5QListI4TUidED1Ev)
    QList<TUid>::~QList__sub_object()        0x00020bc1   Thumb Code     0  cntsymbianengine.o(t._ZN5QListI4TUidED1Ev)
    QList<TUid>::operator =(const QList<TUid>&) 0x00020be1   Thumb Code    64  cnttransformcontact.o(t._ZN5QListI4TUidEaSERKS1_)
    QList<TUid>::operator <<(const TUid&)    0x00020c21   Thumb Code    18  cnttransformname.o(t._ZN5QListI4TUidElsERKS0_)
    QList<TUid>::operator +=(const QList<TUid>&) 0x00020c35   Thumb Code   146  cnttransformcontact.o(t._ZN5QListI4TUidEpLERKS1_)
    QList<QPair<QLatin1String, QLatin1String>>::detach_helper(int) 0x00020cd5   Thumb Code    94  cntdisplaylabel.o(t._ZN5QListI5QPairI13QLatin1StringS1_EE13detach_helperEi)
    QList<QPair<QLatin1String, QLatin1String>>::detach_helper() 0x00020d3b   Thumb Code    16  cntdisplaylabel.o(t._ZN5QListI5QPairI13QLatin1StringS1_EE13detach_helperEv)
    QList<QPair<QLatin1String, QLatin1String>>::node_destruct(QList<QPair<QLatin1String, QLatin1String>>::Node*, QList<QPair<QLatin1String, QLatin1String>>::Node*) 0x00020d4b   Thumb Code    26  cntdisplaylabel.o(t._ZN5QListI5QPairI13QLatin1StringS1_EE13node_destructEPNS3_4NodeES5_)
    QList<QPair<QLatin1String, QLatin1String>>::node_construct(QList<QPair<QLatin1String, QLatin1String>>::Node*, const QPair<QLatin1String, QLatin1String>&) 0x00020d65   Thumb Code    34  cntdisplaylabel.o(t._ZN5QListI5QPairI13QLatin1StringS1_EE14node_constructEPNS3_4NodeERKS2_)
    QList<QPair<QLatin1String, QLatin1String>>::detach_helper_grow(int, int) 0x00020d8b   Thumb Code   208  cntdisplaylabel.o(t._ZN5QListI5QPairI13QLatin1StringS1_EE18detach_helper_growEii)
    QList<QPair<QLatin1String, QLatin1String>>::free(QListData::Data*) 0x00020e6b   Thumb Code    58  cntdisplaylabel.o(t._ZN5QListI5QPairI13QLatin1StringS1_EE4freeEPN9QListData4DataE)
    QList<QPair<QLatin1String, QLatin1String>>::append(const QPair<QLatin1String, QLatin1String>&) 0x00020ea5   Thumb Code   106  cntdisplaylabel.o(t._ZN5QListI5QPairI13QLatin1StringS1_EE6appendERKS2_)
    QList<QPair<QLatin1String, QLatin1String>>::node_copy(QList<QPair<QLatin1String, QLatin1String>>::Node*, QList<QPair<QLatin1String, QLatin1String>>::Node*, QList<QPair<QLatin1String, QLatin1String>>::Node*) 0x00020f23   Thumb Code    80  cntdisplaylabel.o(t._ZN5QListI5QPairI13QLatin1StringS1_EE9node_copyEPNS3_4NodeES5_S5_)
    QList<QPair<QLatin1String, QLatin1String>>::QList(const QList<QPair<QLatin1String, QLatin1String>>&) 0x00020f89   Thumb Code    36  cntdisplaylabel.o(t._ZN5QListI5QPairI13QLatin1StringS1_EEC1ERKS3_)
    QList<QPair<QLatin1String, QLatin1String>>::QList__sub_object(const QList<QPair<QLatin1String, QLatin1String>>&) 0x00020f89   Thumb Code     0  cntdisplaylabel.o(t._ZN5QListI5QPairI13QLatin1StringS1_EEC1ERKS3_)
    QList<QPair<QLatin1String, QLatin1String>>::QList() 0x00020fad   Thumb Code    18  cntdisplaylabel.o(t._ZN5QListI5QPairI13QLatin1StringS1_EEC1Ev)
    QList<QPair<QLatin1String, QLatin1String>>::QList__sub_object() 0x00020fad   Thumb Code     0  cntdisplaylabel.o(t._ZN5QListI5QPairI13QLatin1StringS1_EEC1Ev)
    QList<QPair<QLatin1String, QLatin1String>>::~QList() 0x00020fc5   Thumb Code    32  cntdisplaylabel.o(t._ZN5QListI5QPairI13QLatin1StringS1_EED1Ev)
    QList<QPair<QLatin1String, QLatin1String>>::~QList__sub_object() 0x00020fc5   Thumb Code     0  cntdisplaylabel.o(t._ZN5QListI5QPairI13QLatin1StringS1_EED1Ev)
    QList<QPair<unsigned, QString>>::detach_helper(int) 0x00020fe5   Thumb Code    94  cntsymbiansrvconnection.o(t._ZN5QListI5QPairIj7QStringEE13detach_helperEi)
    QList<QPair<unsigned, QString>>::detach_helper() 0x0002104b   Thumb Code    16  cntsymbiansrvconnection.o(t._ZN5QListI5QPairIj7QStringEE13detach_helperEv)
    QList<QPair<unsigned, QString>>::node_destruct(QList<QPair<unsigned, QString>>::Node*, QList<QPair<unsigned, QString>>::Node*) 0x0002105b   Thumb Code    38  cntsymbiansrvconnection.o(t._ZN5QListI5QPairIj7QStringEE13node_destructEPNS3_4NodeES5_)
    QList<QPair<unsigned, QString>>::node_construct(QList<QPair<unsigned, QString>>::Node*, const QPair<unsigned, QString>&) 0x00021081   Thumb Code    34  cntsymbiansrvconnection.o(t._ZN5QListI5QPairIj7QStringEE14node_constructEPNS3_4NodeERKS2_)
    QList<QPair<unsigned, QString>>::detach_helper_grow(int, int) 0x000210b1   Thumb Code   208  cntsymbiansrvconnection.o(t._ZN5QListI5QPairIj7QStringEE18detach_helper_growEii)
    QList<QPair<unsigned, QString>>::free(QListData::Data*) 0x00021191   Thumb Code    58  cntsymbiansrvconnection.o(t._ZN5QListI5QPairIj7QStringEE4freeEPN9QListData4DataE)
    QList<QPair<unsigned, QString>>::append(const QPair<unsigned, QString>&) 0x000211cd   Thumb Code   106  cntsymbiansrvconnection.o(t._ZN5QListI5QPairIj7QStringEE6appendERKS2_)
    QList<QPair<unsigned, QString>>::node_copy(QList<QPair<unsigned, QString>>::Node*, QList<QPair<unsigned, QString>>::Node*, QList<QPair<unsigned, QString>>::Node*) 0x0002124b   Thumb Code    92  cntsymbiansrvconnection.o(t._ZN5QListI5QPairIj7QStringEE9node_copyEPNS3_4NodeES5_S5_)
    QList<QPair<unsigned, QString>>::QList() 0x000212bd   Thumb Code    18  cntsymbiansrvconnection.o(t._ZN5QListI5QPairIj7QStringEEC1Ev)
    QList<QPair<unsigned, QString>>::QList__sub_object() 0x000212bd   Thumb Code     0  cntsymbiansrvconnection.o(t._ZN5QListI5QPairIj7QStringEEC1Ev)
    QList<QPair<unsigned, QString>>::~QList() 0x000212d5   Thumb Code    32  cntfilterdetail.o(t._ZN5QListI5QPairIj7QStringEED1Ev)
    QList<QPair<unsigned, QString>>::~QList__sub_object() 0x000212d5   Thumb Code     0  cntfilterdetail.o(t._ZN5QListI5QPairIj7QStringEED1Ev)
    QList<QString>::detach_helper(int)       0x000212f5   Thumb Code    94  cntsymbianengine.o(t._ZN5QListI7QStringE13detach_helperEi)
    QList<QString>::detach_helper()          0x0002135b   Thumb Code    16  cntsymbianengine.o(t._ZN5QListI7QStringE13detach_helperEv)
    QList<QString>::node_destruct(QList<QString>::Node*, QList<QString>::Node*) 0x0002136b   Thumb Code    26  cntsymbianengine.o(t._ZN5QListI7QStringE13node_destructEPNS1_4NodeES3_)
    QList<QString>::node_construct(QList<QString>::Node*, const QString&) 0x00021385   Thumb Code    36  cntsymbianengine.o(t._ZN5QListI7QStringE14node_constructEPNS1_4NodeERKS0_)
    QList<QString>::detach_helper_grow(int, int) 0x000213b7   Thumb Code   208  cntsymbianengine.o(t._ZN5QListI7QStringE18detach_helper_growEii)
    QList<QString>::free(QListData::Data*)   0x00021497   Thumb Code    52  cntsymbianengine.o(t._ZN5QListI7QStringE4freeEPN9QListData4DataE)
    QList<QString>::append(const QString&)   0x000214cd   Thumb Code   114  cntsymbianengine.o(t._ZN5QListI7QStringE6appendERKS0_)
    QList<QString>::reserve(int)             0x00021553   Thumb Code    46  cntsymbianengine.o(t._ZN5QListI7QStringE7reserveEi)
    QList<QString>::node_copy(QList<QString>::Node*, QList<QString>::Node*, QList<QString>::Node*) 0x00021581   Thumb Code    82  cntsymbianengine.o(t._ZN5QListI7QStringE9node_copyEPNS1_4NodeES3_S3_)
    QList<QString>::QList(const QList<QString>&) 0x000215e9   Thumb Code    36  cntsymbianengine.o(t._ZN5QListI7QStringEC1ERKS1_)
    QList<QString>::QList__sub_object(const QList<QString>&) 0x000215e9   Thumb Code     0  cntsymbianengine.o(t._ZN5QListI7QStringEC1ERKS1_)
    QList<QString>::QList()                  0x0002160d   Thumb Code    18  cnttransformcontactdata.o(t._ZN5QListI7QStringEC1Ev)
    QList<QString>::QList__sub_object()      0x0002160d   Thumb Code     0  cnttransformcontactdata.o(t._ZN5QListI7QStringEC1Ev)
    QList<QString>::~QList()                 0x00021625   Thumb Code    32  cntsymbianengine.o(t._ZN5QListI7QStringED1Ev)
    QList<QString>::~QList__sub_object()     0x00021625   Thumb Code     0  cntsymbianengine.o(t._ZN5QListI7QStringED1Ev)
    QList<QVariant>::detach_helper(int)      0x00021645   Thumb Code    94  cnttransformphonenumber.o(t._ZN5QListI8QVariantE13detach_helperEi)
    QList<QVariant>::detach_helper()         0x000216ab   Thumb Code    16  cnttransformphonenumber.o(t._ZN5QListI8QVariantE13detach_helperEv)
    QList<QVariant>::node_destruct(QList<QVariant>::Node*, QList<QVariant>::Node*) 0x000216bb   Thumb Code    38  cnttransformphonenumber.o(t._ZN5QListI8QVariantE13node_destructEPNS1_4NodeES3_)
    QList<QVariant>::node_construct(QList<QVariant>::Node*, const QVariant&) 0x000216e1   Thumb Code    34  cnttransformphonenumber.o(t._ZN5QListI8QVariantE14node_constructEPNS1_4NodeERKS0_)
    QList<QVariant>::detach_helper_grow(int, int) 0x00021711   Thumb Code   208  cnttransformphonenumber.o(t._ZN5QListI8QVariantE18detach_helper_growEii)
    QList<QVariant>::free(QListData::Data*)  0x000217f1   Thumb Code    52  cnttransformphonenumber.o(t._ZN5QListI8QVariantE4freeEPN9QListData4DataE)
    QList<QVariant>::append(const QVariant&) 0x00021825   Thumb Code   106  cnttransformphonenumber.o(t._ZN5QListI8QVariantE6appendERKS0_)
    QList<QVariant>::node_copy(QList<QVariant>::Node*, QList<QVariant>::Node*, QList<QVariant>::Node*) 0x000218a3   Thumb Code    92  cnttransformphonenumber.o(t._ZN5QListI8QVariantE9node_copyEPNS1_4NodeES3_S3_)
    QList<QVariant>::QList(const QList<QVariant>&) 0x00021915   Thumb Code    36  cnttransformurl.o(t._ZN5QListI8QVariantEC1ERKS1_)
    QList<QVariant>::QList__sub_object(const QList<QVariant>&) 0x00021915   Thumb Code     0  cnttransformurl.o(t._ZN5QListI8QVariantEC1ERKS1_)
    QList<QVariant>::QList()                 0x00021939   Thumb Code    18  cnttransformurl.o(t._ZN5QListI8QVariantEC1Ev)
    QList<QVariant>::QList__sub_object()     0x00021939   Thumb Code     0  cnttransformurl.o(t._ZN5QListI8QVariantEC1Ev)
    QList<QVariant>::~QList()                0x00021951   Thumb Code    32  cnttransformphonenumber.o(t._ZN5QListI8QVariantED1Ev)
    QList<QVariant>::~QList__sub_object()    0x00021951   Thumb Code     0  cnttransformphonenumber.o(t._ZN5QListI8QVariantED1Ev)
    QList<QVariant>::operator <<(const QVariant&) 0x00021971   Thumb Code    18  cnttransformphonenumber.o(t._ZN5QListI8QVariantElsERKS0_)
    QList<QtMobility::QContactDetail>::detach_helper(int) 0x00021983   Thumb Code   176  cntsymbianengine.o(t._ZN5QListIN10QtMobility14QContactDetailEE13detach_helperEi)
    QList<QtMobility::QContactDetail>::detach_helper() 0x00021a51   Thumb Code    16  cntsymbianengine.o(t._ZN5QListIN10QtMobility14QContactDetailEE13detach_helperEv)
    QList<QtMobility::QContactDetail>::free(QListData::Data*) 0x00021a61   Thumb Code    64  cntsymbianengine.o(t._ZN5QListIN10QtMobility14QContactDetailEE4freeEPN9QListData4DataE)
    QList<QtMobility::QContactDetail>::~QList() 0x00021aa1   Thumb Code    32  cntsymbianengine.o(t._ZN5QListIN10QtMobility14QContactDetailEED1Ev)
    QList<QtMobility::QContactDetail>::~QList__sub_object() 0x00021aa1   Thumb Code     0  cntsymbianengine.o(t._ZN5QListIN10QtMobility14QContactDetailEED1Ev)
    QList<QtMobility::QContactDetail>::operator [](int) 0x00021ac1   Thumb Code    42  cnttransformcontact.o(t._ZN5QListIN10QtMobility14QContactDetailEEixEi)
    QList<QtMobility::QContactFilter>::detach_helper(int) 0x00021aeb   Thumb Code   176  cntfilterintersection.o(t._ZN5QListIN10QtMobility14QContactFilterEE13detach_helperEi)
    QList<QtMobility::QContactFilter>::detach_helper() 0x00021bb9   Thumb Code    16  cntfilterintersection.o(t._ZN5QListIN10QtMobility14QContactFilterEE13detach_helperEv)
    QList<QtMobility::QContactFilter>::free(QListData::Data*) 0x00021bc9   Thumb Code    70  cntfilterintersection.o(t._ZN5QListIN10QtMobility14QContactFilterEE4freeEPN9QListData4DataE)
    QList<QtMobility::QContactFilter>::~QList() 0x00021c0f   Thumb Code    32  cntfilterintersection.o(t._ZN5QListIN10QtMobility14QContactFilterEED1Ev)
    QList<QtMobility::QContactFilter>::~QList__sub_object() 0x00021c0f   Thumb Code     0  cntfilterintersection.o(t._ZN5QListIN10QtMobility14QContactFilterEED1Ev)
    QList<QtMobility::QContactFilter>::operator [](int) 0x00021c2f   Thumb Code    42  cntsymbianfilterdbms.o(t._ZN5QListIN10QtMobility14QContactFilterEEixEi)
    QList<QtMobility::QContactAddress>::detach_helper(int) 0x00021c59   Thumb Code    94  cnttransformaddress.o(t._ZN5QListIN10QtMobility15QContactAddressEE13detach_helperEi)
    QList<QtMobility::QContactAddress>::detach_helper() 0x00021cbf   Thumb Code    16  cnttransformaddress.o(t._ZN5QListIN10QtMobility15QContactAddressEE13detach_helperEv)
    QList<QtMobility::QContactAddress>::node_destruct(QList<QtMobility::QContactAddress>::Node*, QList<QtMobility::QContactAddress>::Node*) 0x00021ccf   Thumb Code    38  cnttransformaddress.o(t._ZN5QListIN10QtMobility15QContactAddressEE13node_destructEPNS2_4NodeES4_)
    QList<QtMobility::QContactAddress>::node_construct(QList<QtMobility::QContactAddress>::Node*, const QtMobility::QContactAddress&) 0x00021cf5   Thumb Code    34  cnttransformaddress.o(t._ZN5QListIN10QtMobility15QContactAddressEE14node_constructEPNS2_4NodeERKS1_)
    QList<QtMobility::QContactAddress>::detach_helper_grow(int, int) 0x00021d25   Thumb Code   208  cnttransformaddress.o(t._ZN5QListIN10QtMobility15QContactAddressEE18detach_helper_growEii)
    QList<QtMobility::QContactAddress>::free(QListData::Data*) 0x00021e05   Thumb Code    52  cnttransformaddress.o(t._ZN5QListIN10QtMobility15QContactAddressEE4freeEPN9QListData4DataE)
    QList<QtMobility::QContactAddress>::append(const QtMobility::QContactAddress&) 0x00021e39   Thumb Code   106  cnttransformaddress.o(t._ZN5QListIN10QtMobility15QContactAddressEE6appendERKS1_)
    QList<QtMobility::QContactAddress>::node_copy(QList<QtMobility::QContactAddress>::Node*, QList<QtMobility::QContactAddress>::Node*, QList<QtMobility::QContactAddress>::Node*) 0x00021eb7   Thumb Code    92  cnttransformaddress.o(t._ZN5QListIN10QtMobility15QContactAddressEE9node_copyEPNS2_4NodeES4_S4_)
    QList<QtMobility::QContactAddress>::~QList() 0x00021f29   Thumb Code    32  cnttransformaddress.o(t._ZN5QListIN10QtMobility15QContactAddressEED1Ev)
    QList<QtMobility::QContactAddress>::~QList__sub_object() 0x00021f29   Thumb Code     0  cnttransformaddress.o(t._ZN5QListIN10QtMobility15QContactAddressEED1Ev)
    QList<QtMobility::QContactManager::Error>::free(QListData::Data*) 0x00021f49   Thumb Code    64  cntsymbianengine.o(t._ZN5QListIN10QtMobility15QContactManager5ErrorEE4freeEPN9QListData4DataE)
    QList<QtMobility::QContactManager::Error>::~QList() 0x00021f89   Thumb Code    32  cntsymbianengine.o(t._ZN5QListIN10QtMobility15QContactManager5ErrorEED1Ev)
    QList<QtMobility::QContactManager::Error>::~QList__sub_object() 0x00021f89   Thumb Code     0  cntsymbianengine.o(t._ZN5QListIN10QtMobility15QContactManager5ErrorEED1Ev)
    QList<QtMobility::QContactSortOrder>::detach_helper(int) 0x00021fa9   Thumb Code   176  cntdbinfo.o(t._ZN5QListIN10QtMobility17QContactSortOrderEE13detach_helperEi)
    QList<QtMobility::QContactSortOrder>::detach_helper() 0x00022077   Thumb Code    16  cntdbinfo.o(t._ZN5QListIN10QtMobility17QContactSortOrderEE13detach_helperEv)
    QList<QtMobility::QContactSortOrder>::free(QListData::Data*) 0x00022087   Thumb Code    64  cntsymbianengine.o(t._ZN5QListIN10QtMobility17QContactSortOrderEE4freeEPN9QListData4DataE)
    QList<QtMobility::QContactSortOrder>::~QList() 0x000220c7   Thumb Code    32  cntsymbianengine.o(t._ZN5QListIN10QtMobility17QContactSortOrderEED1Ev)
    QList<QtMobility::QContactSortOrder>::~QList__sub_object() 0x000220c7   Thumb Code     0  cntsymbianengine.o(t._ZN5QListIN10QtMobility17QContactSortOrderEED1Ev)
    QList<QtMobility::QContactRelationship>::detach_helper(int) 0x000220e7   Thumb Code    94  cntrelationship.o(t._ZN5QListIN10QtMobility20QContactRelationshipEE13detach_helperEi)
    QList<QtMobility::QContactRelationship>::detach_helper() 0x0002214d   Thumb Code    16  cntrelationship.o(t._ZN5QListIN10QtMobility20QContactRelationshipEE13detach_helperEv)
    QList<QtMobility::QContactRelationship>::node_destruct(QList<QtMobility::QContactRelationship>::Node*, QList<QtMobility::QContactRelationship>::Node*) 0x0002215d   Thumb Code    38  cntsymbianengine.o(t._ZN5QListIN10QtMobility20QContactRelationshipEE13node_destructEPNS2_4NodeES4_)
    QList<QtMobility::QContactRelationship>::node_construct(QList<QtMobility::QContactRelationship>::Node*, const QtMobility::QContactRelationship&) 0x00022183   Thumb Code    34  cntsymbianengine.o(t._ZN5QListIN10QtMobility20QContactRelationshipEE14node_constructEPNS2_4NodeERKS1_)
    QList<QtMobility::QContactRelationship>::detach_helper_grow(int, int) 0x000221b3   Thumb Code   208  cntsymbianengine.o(t._ZN5QListIN10QtMobility20QContactRelationshipEE18detach_helper_growEii)
    QList<QtMobility::QContactRelationship>::free(QListData::Data*) 0x00022293   Thumb Code    52  cntsymbianengine.o(t._ZN5QListIN10QtMobility20QContactRelationshipEE4freeEPN9QListData4DataE)
    QList<QtMobility::QContactRelationship>::append(const QtMobility::QContactRelationship&) 0x000222c9   Thumb Code   106  cntsymbianengine.o(t._ZN5QListIN10QtMobility20QContactRelationshipEE6appendERKS1_)
    QList<QtMobility::QContactRelationship>::node_copy(QList<QtMobility::QContactRelationship>::Node*, QList<QtMobility::QContactRelationship>::Node*, QList<QtMobility::QContactRelationship>::Node*) 0x00022347   Thumb Code    92  cntsymbianengine.o(t._ZN5QListIN10QtMobility20QContactRelationshipEE9node_copyEPNS2_4NodeES4_S4_)
    QList<QtMobility::QContactRelationship>::QList() 0x000223b9   Thumb Code    18  cntsymbianengine.o(t._ZN5QListIN10QtMobility20QContactRelationshipEEC1Ev)
    QList<QtMobility::QContactRelationship>::QList__sub_object() 0x000223b9   Thumb Code     0  cntsymbianengine.o(t._ZN5QListIN10QtMobility20QContactRelationshipEEC1Ev)
    QList<QtMobility::QContactRelationship>::~QList() 0x000223d1   Thumb Code    32  cntsymbianengine.o(t._ZN5QListIN10QtMobility20QContactRelationshipEED1Ev)
    QList<QtMobility::QContactRelationship>::~QList__sub_object() 0x000223d1   Thumb Code     0  cntsymbianengine.o(t._ZN5QListIN10QtMobility20QContactRelationshipEED1Ev)
    QList<QtMobility::QContactRelationship>::operator =(const QList<QtMobility::QContactRelationship>&) 0x000223f1   Thumb Code    64  cntrelationship.o(t._ZN5QListIN10QtMobility20QContactRelationshipEEaSERKS2_)
    QList<QtMobility::QContactRelationship>::operator +=(const QList<QtMobility::QContactRelationship>&) 0x00022431   Thumb Code   154  cntrelationship.o(t._ZN5QListIN10QtMobility20QContactRelationshipEEpLERKS2_)
    QList<QtMobility::QContact>::detach_helper(int) 0x000224d9   Thumb Code    94  cntsymbianengine.o(t._ZN5QListIN10QtMobility8QContactEE13detach_helperEi)
    QList<QtMobility::QContact>::detach_helper() 0x0002253f   Thumb Code    16  cntsymbianengine.o(t._ZN5QListIN10QtMobility8QContactEE13detach_helperEv)
    QList<QtMobility::QContact>::node_destruct(QList<QtMobility::QContact>::Node*, QList<QtMobility::QContact>::Node*) 0x0002254f   Thumb Code    26  cntsymbianengine.o(t._ZN5QListIN10QtMobility8QContactEE13node_destructEPNS2_4NodeES4_)
    QList<QtMobility::QContact>::node_construct(QList<QtMobility::QContact>::Node*, const QtMobility::QContact&) 0x00022569   Thumb Code    36  cntsymbianengine.o(t._ZN5QListIN10QtMobility8QContactEE14node_constructEPNS2_4NodeERKS1_)
    QList<QtMobility::QContact>::detach_helper_grow(int, int) 0x0002259b   Thumb Code   208  cntsymbianengine.o(t._ZN5QListIN10QtMobility8QContactEE18detach_helper_growEii)
    QList<QtMobility::QContact>::free(QListData::Data*) 0x0002267b   Thumb Code    52  cntsymbianengine.o(t._ZN5QListIN10QtMobility8QContactEE4freeEPN9QListData4DataE)
    QList<QtMobility::QContact>::append(const QtMobility::QContact&) 0x000226b1   Thumb Code   114  cntsymbianengine.o(t._ZN5QListIN10QtMobility8QContactEE6appendERKS1_)
    QList<QtMobility::QContact>::node_copy(QList<QtMobility::QContact>::Node*, QList<QtMobility::QContact>::Node*, QList<QtMobility::QContact>::Node*) 0x00022737   Thumb Code    82  cntsymbianengine.o(t._ZN5QListIN10QtMobility8QContactEE9node_copyEPNS2_4NodeES4_S4_)
    QList<QtMobility::QContact>::QList()     0x000227a1   Thumb Code    18  cntsymbianengine.o(t._ZN5QListIN10QtMobility8QContactEEC1Ev)
    QList<QtMobility::QContact>::QList__sub_object() 0x000227a1   Thumb Code     0  cntsymbianengine.o(t._ZN5QListIN10QtMobility8QContactEEC1Ev)
    QList<QtMobility::QContact>::~QList()    0x000227b9   Thumb Code    32  cntsymbianengine.o(t._ZN5QListIN10QtMobility8QContactEED1Ev)
    QList<QtMobility::QContact>::~QList__sub_object() 0x000227b9   Thumb Code     0  cntsymbianengine.o(t._ZN5QListIN10QtMobility8QContactEED1Ev)
    QList<QtMobility::QContact>::operator =(const QList<QtMobility::QContact>&) 0x000227d9   Thumb Code    64  cntsymbiansrvconnection.o(t._ZN5QListIN10QtMobility8QContactEEaSERKS2_)
    QList<QVariant::Type>::node_destruct(QList<QVariant::Type>::Node*, QList<QVariant::Type>::Node*) 0x00022819   Thumb Code    26  cntsymbianengine.o(t._ZN5QListIN8QVariant4TypeEE13node_destructEPNS2_4NodeES4_)
    QList<QVariant::Type>::node_construct(QList<QVariant::Type>::Node*, const QVariant::Type&) 0x00022833   Thumb Code    30  cntsymbianengine.o(t._ZN5QListIN8QVariant4TypeEE14node_constructEPNS2_4NodeERKS1_)
    QList<QVariant::Type>::detach_helper_grow(int, int) 0x00022851   Thumb Code   208  cntsymbianengine.o(t._ZN5QListIN8QVariant4TypeEE18detach_helper_growEii)
    QList<QVariant::Type>::free(QListData::Data*) 0x00022931   Thumb Code    52  cntsymbianengine.o(t._ZN5QListIN8QVariant4TypeEE4freeEPN9QListData4DataE)
    QList<QVariant::Type>::append(const QVariant::Type&) 0x00022965   Thumb Code   106  cntsymbianengine.o(t._ZN5QListIN8QVariant4TypeEE6appendERKS1_)
    QList<QVariant::Type>::node_copy(QList<QVariant::Type>::Node*, QList<QVariant::Type>::Node*, QList<QVariant::Type>::Node*) 0x000229e3   Thumb Code    78  cntsymbianengine.o(t._ZN5QListIN8QVariant4TypeEE9node_copyEPNS2_4NodeES4_S4_)
    QList<QVariant::Type>::~QList()          0x00022a39   Thumb Code    32  cntsymbianengine.o(t._ZN5QListIN8QVariant4TypeEED1Ev)
    QList<QVariant::Type>::~QList__sub_object() 0x00022a39   Thumb Code     0  cntsymbianengine.o(t._ZN5QListIN8QVariant4TypeEED1Ev)
    QList<CContactItemField*>::detach_helper(int) 0x00022a59   Thumb Code   128  cnttransformcontact.o(t._ZN5QListIP17CContactItemFieldE13detach_helperEi)
    QList<CContactItemField*>::detach_helper() 0x00022ae1   Thumb Code    16  cnttransformcontact.o(t._ZN5QListIP17CContactItemFieldE13detach_helperEv)
    QList<CContactItemField*>::detach_helper_grow(int, int) 0x00022af1   Thumb Code   204  cnttransformcontactdata.o(t._ZN5QListIP17CContactItemFieldE18detach_helper_growEii)
    QList<CContactItemField*>::free(QListData::Data*) 0x00022bcd   Thumb Code    52  cnttransformphonenumber.o(t._ZN5QListIP17CContactItemFieldE4freeEPN9QListData4DataE)
    QList<CContactItemField*>::append(CContactItemField*const &) 0x00022c01   Thumb Code    94  cnttransformcontactdata.o(t._ZN5QListIP17CContactItemFieldE6appendERKS1_)
    QList<CContactItemField*>::node_copy(QList<CContactItemField*>::Node*, QList<CContactItemField*>::Node*, QList<CContactItemField*>::Node*) 0x00022c6f   Thumb Code    46  cnttransformcontactdata.o(t._ZN5QListIP17CContactItemFieldE9node_copyEPNS2_4NodeES4_S4_)
    QList<CContactItemField*>::~QList()      0x00022c9d   Thumb Code    32  cnttransformcontact.o(t._ZN5QListIP17CContactItemFieldED1Ev)
    QList<CContactItemField*>::~QList__sub_object() 0x00022c9d   Thumb Code     0  cnttransformcontact.o(t._ZN5QListIP17CContactItemFieldED1Ev)
    QList<QtMobility::QContactAbstractRequest*>::detach_helper(int) 0x00022cbd   Thumb Code    94  cntsymbianengine.o(t._ZN5QListIPN10QtMobility23QContactAbstractRequestEE13detach_helperEi)
    QList<QtMobility::QContactAbstractRequest*>::detach_helper() 0x00022d23   Thumb Code    16  cntsymbianengine.o(t._ZN5QListIPN10QtMobility23QContactAbstractRequestEE13detach_helperEv)
    QList<QtMobility::QContactAbstractRequest*>::detach_helper_grow(int, int) 0x00022d33   Thumb Code   204  cntsymbianengine.o(t._ZN5QListIPN10QtMobility23QContactAbstractRequestEE18detach_helper_growEii)
    QList<QtMobility::QContactAbstractRequest*>::free(QListData::Data*) 0x00022e0f   Thumb Code    52  cntsymbianengine.o(t._ZN5QListIPN10QtMobility23QContactAbstractRequestEE4freeEPN9QListData4DataE)
    QList<QtMobility::QContactAbstractRequest*>::begin() 0x00022e43   Thumb Code    26  cntsymbianengine.o(t._ZN5QListIPN10QtMobility23QContactAbstractRequestEE5beginEv)
    QList<QtMobility::QContactAbstractRequest*>::append(QtMobility::QContactAbstractRequest*const &) 0x00022e5d   Thumb Code    94  cntsymbianengine.o(t._ZN5QListIPN10QtMobility23QContactAbstractRequestEE6appendERKS2_)
    QList<QtMobility::QContactAbstractRequest*>::detach() 0x00022ecb   Thumb Code    24  cntsymbianengine.o(t._ZN5QListIPN10QtMobility23QContactAbstractRequestEE6detachEv)
    QList<QtMobility::QContactAbstractRequest*>::node_copy(QList<QtMobility::QContactAbstractRequest*>::Node*, QList<QtMobility::QContactAbstractRequest*>::Node*, QList<QtMobility::QContactAbstractRequest*>::Node*) 0x00022ee3   Thumb Code    46  cntsymbianengine.o(t._ZN5QListIPN10QtMobility23QContactAbstractRequestEE9node_copyEPNS3_4NodeES5_S5_)
    QList<QtMobility::QContactAbstractRequest*>::removeOne(QtMobility::QContactAbstractRequest*const &) 0x00022f11   Thumb Code   104  cntsymbianengine.o(t._ZN5QListIPN10QtMobility23QContactAbstractRequestEE9removeOneERKS2_)
    QList<QtMobility::QContactAbstractRequest*>::~QList() 0x00022f7d   Thumb Code    32  cntsymbianengine.o(t._ZN5QListIPN10QtMobility23QContactAbstractRequestEED1Ev)
    QList<QtMobility::QContactAbstractRequest*>::~QList__sub_object() 0x00022f7d   Thumb Code     0  cntsymbianengine.o(t._ZN5QListIPN10QtMobility23QContactAbstractRequestEED1Ev)
    QList<QList<QPair<QLatin1String, QLatin1String>>>::detach_helper(int) 0x00022f9d   Thumb Code    94  cntdisplaylabel.o(t._ZN5QListIS_I5QPairI13QLatin1StringS1_EEE13detach_helperEi)
    QList<QList<QPair<QLatin1String, QLatin1String>>>::detach_helper() 0x00023003   Thumb Code    16  cntdisplaylabel.o(t._ZN5QListIS_I5QPairI13QLatin1StringS1_EEE13detach_helperEv)
    QList<QList<QPair<QLatin1String, QLatin1String>>>::node_destruct(QList<QList<QPair<QLatin1String, QLatin1String>>>::Node*, QList<QList<QPair<QLatin1String, QLatin1String>>>::Node*) 0x00023013   Thumb Code    38  cntdisplaylabel.o(t._ZN5QListIS_I5QPairI13QLatin1StringS1_EEE13node_destructEPNS4_4NodeES6_)
    QList<QList<QPair<QLatin1String, QLatin1String>>>::node_construct(QList<QList<QPair<QLatin1String, QLatin1String>>>::Node*, const QList<QPair<QLatin1String, QLatin1String>>&) 0x00023039   Thumb Code    34  cntdisplaylabel.o(t._ZN5QListIS_I5QPairI13QLatin1StringS1_EEE14node_constructEPNS4_4NodeERKS3_)
    QList<QList<QPair<QLatin1String, QLatin1String>>>::detach_helper_grow(int, int) 0x00023069   Thumb Code   208  cntdisplaylabel.o(t._ZN5QListIS_I5QPairI13QLatin1StringS1_EEE18detach_helper_growEii)
    QList<QList<QPair<QLatin1String, QLatin1String>>>::free(QListData::Data*) 0x00023149   Thumb Code    58  cntdisplaylabel.o(t._ZN5QListIS_I5QPairI13QLatin1StringS1_EEE4freeEPN9QListData4DataE)
    QList<QList<QPair<QLatin1String, QLatin1String>>>::clear() 0x00023183   Thumb Code    76  cntdisplaylabel.o(t._ZN5QListIS_I5QPairI13QLatin1StringS1_EEE5clearEv)
    QList<QList<QPair<QLatin1String, QLatin1String>>>::append(const QList<QPair<QLatin1String, QLatin1String>>&) 0x000231d9   Thumb Code   106  cntdisplaylabel.o(t._ZN5QListIS_I5QPairI13QLatin1StringS1_EEE6appendERKS3_)
    QList<QList<QPair<QLatin1String, QLatin1String>>>::node_copy(QList<QList<QPair<QLatin1String, QLatin1String>>>::Node*, QList<QList<QPair<QLatin1String, QLatin1String>>>::Node*, QList<QList<QPair<QLatin1String, QLatin1String>>>::Node*) 0x00023257   Thumb Code    92  cntdisplaylabel.o(t._ZN5QListIS_I5QPairI13QLatin1StringS1_EEE9node_copyEPNS4_4NodeES6_S6_)
    QList<QList<QPair<QLatin1String, QLatin1String>>>::QList(const QList<QList<QPair<QLatin1String, QLatin1String>>>&) 0x000232c9   Thumb Code    36  cntdisplaylabel.o(t._ZN5QListIS_I5QPairI13QLatin1StringS1_EEEC1ERKS4_)
    QList<QList<QPair<QLatin1String, QLatin1String>>>::QList__sub_object(const QList<QList<QPair<QLatin1String, QLatin1String>>>&) 0x000232c9   Thumb Code     0  cntdisplaylabel.o(t._ZN5QListIS_I5QPairI13QLatin1StringS1_EEEC1ERKS4_)
    QList<QList<QPair<QLatin1String, QLatin1String>>>::QList() 0x000232ed   Thumb Code    18  cntdisplaylabel.o(t._ZN5QListIS_I5QPairI13QLatin1StringS1_EEEC1Ev)
    QList<QList<QPair<QLatin1String, QLatin1String>>>::QList__sub_object() 0x000232ed   Thumb Code     0  cntdisplaylabel.o(t._ZN5QListIS_I5QPairI13QLatin1StringS1_EEEC1Ev)
    QList<QList<QPair<QLatin1String, QLatin1String>>>::~QList() 0x00023305   Thumb Code    32  cntdisplaylabel.o(t._ZN5QListIS_I5QPairI13QLatin1StringS1_EEED1Ev)
    QList<QList<QPair<QLatin1String, QLatin1String>>>::~QList__sub_object() 0x00023305   Thumb Code     0  cntdisplaylabel.o(t._ZN5QListIS_I5QPairI13QLatin1StringS1_EEED1Ev)
    QList<unsigned>::detach_helper(int)      0x00023325   Thumb Code    94  cntsymbianengine.o(t._ZN5QListIjE13detach_helperEi)
    QList<unsigned>::detach_helper()         0x0002338b   Thumb Code    16  cntsymbianengine.o(t._ZN5QListIjE13detach_helperEv)
    QList<unsigned>::detach_helper_grow(int, int) 0x0002339b   Thumb Code   204  cntsymbianengine.o(t._ZN5QListIjE18detach_helper_growEii)
    QList<unsigned>::free(QListData::Data*)  0x00023477   Thumb Code    52  cntsymbianengine.o(t._ZN5QListIjE4freeEPN9QListData4DataE)
    QList<unsigned>::append(const unsigned&) 0x000234ad   Thumb Code    94  cntsymbianengine.o(t._ZN5QListIjE6appendERKj)
    QList<unsigned>::reserve(int)            0x0002351b   Thumb Code    46  cntsymbiandatabase.o(t._ZN5QListIjE7reserveEi)
    QList<unsigned>::node_copy(QList<unsigned>::Node*, QList<unsigned>::Node*, QList<unsigned>::Node*) 0x00023549   Thumb Code    46  cntsymbianengine.o(t._ZN5QListIjE9node_copyEPNS0_4NodeES2_S2_)
    QList<unsigned>::QList(const QList<unsigned>&) 0x00023577   Thumb Code    36  cntsymbianengine.o(t._ZN5QListIjEC1ERKS0_)
    QList<unsigned>::QList__sub_object(const QList<unsigned>&) 0x00023577   Thumb Code     0  cntsymbianengine.o(t._ZN5QListIjEC1ERKS0_)
    QList<unsigned>::QList()                 0x0002359d   Thumb Code    18  cntsymbianengine.o(t._ZN5QListIjEC1Ev)
    QList<unsigned>::QList__sub_object()     0x0002359d   Thumb Code     0  cntsymbianengine.o(t._ZN5QListIjEC1Ev)
    QList<unsigned>::~QList()                0x000235b5   Thumb Code    32  cntsymbianengine.o(t._ZN5QListIjED1Ev)
    QList<unsigned>::~QList__sub_object()    0x000235b5   Thumb Code     0  cntsymbianengine.o(t._ZN5QListIjED1Ev)
    QList<unsigned>::operator =(const QList<unsigned>&) 0x000235d5   Thumb Code    64  cntsymbianengine.o(t._ZN5QListIjEaSERKS0_)
    QList<unsigned>::operator +=(const QList<unsigned>&) 0x00023615   Thumb Code   204  cntsymbiandatabase.o(t._ZN5QListIjEpLERKS0_)
    QQueue<QtMobility::QContactAbstractRequest*>::~QQueue() 0x000236ed   Thumb Code    14  cntsymbianengine.o(t._ZN6QQueueIPN10QtMobility23QContactAbstractRequestEED1Ev)
    QQueue<QtMobility::QContactAbstractRequest*>::~QQueue__sub_object() 0x000236ed   Thumb Code     0  cntsymbianengine.o(t._ZN6QQueueIPN10QtMobility23QContactAbstractRequestEED1Ev)
    QPointer<QObject>::~QPointer()           0x000236fb   Thumb Code    14  cntsymbianengine.o(t._ZN8QPointerI7QObjectED1Ev)
    QPointer<QObject>::~QPointer__sub_object() 0x000236fb   Thumb Code     0  cntsymbianengine.o(t._ZN8QPointerI7QObjectED1Ev)
    CArrayFix<TUid>::AppendL(const TUid&)    0x00023709   Thumb Code    24  cntsymbianfilterdbms.o(t._ZN9CArrayFixI4TUidE7AppendLERKS0_)
    QHashNode<QString, QPair<int, bool>>::QHashNode(const QString&, const QPair<int, bool>&) 0x00023721   Thumb Code    34  cntdbinfo.o(t._ZN9QHashNodeI7QString5QPairIibEEC1ERKS0_RKS2_)
    QHashNode<QString, QPair<int, bool>>::QHashNode__sub_object(const QString&, const QPair<int, bool>&) 0x00023721   Thumb Code     0  cntdbinfo.o(t._ZN9QHashNodeI7QString5QPairIibEEC1ERKS0_RKS2_)
    QHashNode<QString, QString>::QHashNode(const QString&, const QString&) 0x00023747   Thumb Code    40  cntdbinfo.o(t._ZN9QHashNodeI7QStringS0_EC1ERKS0_S3_)
    QHashNode<QString, QString>::QHashNode__sub_object(const QString&, const QString&) 0x00023747   Thumb Code     0  cntdbinfo.o(t._ZN9QHashNodeI7QStringS0_EC1ERKS0_S3_)
    QHashNode<QString, int>::QHashNode(const QString&, const int&) 0x0002377b   Thumb Code    30  cntdbinfo.o(t._ZN9QHashNodeI7QStringiEC1ERKS0_RKi)
    QHashNode<QString, int>::QHashNode__sub_object(const QString&, const int&) 0x0002377b   Thumb Code     0  cntdbinfo.o(t._ZN9QHashNodeI7QStringiEC1ERKS0_RKi)
    QtMobility::QContactDetail::value<QStringList>(const char*) const 0x00023799   Thumb Code   150  cnttransformfamily.o(t._ZNK10QtMobility14QContactDetail5valueI11QStringListEET_PKc)
    QtMobility::QContactDetail::value<QUrl>(const char*) const 0x00023849   Thumb Code   150  cnttransformavatar.o(t._ZNK10QtMobility14QContactDetail5valueI4QUrlEET_PKc)
    QtMobility::QContactDetail::value<QImage>(const char*) const 0x000238f9   Thumb Code   150  cnttransformthumbnail.o(t._ZNK10QtMobility14QContactDetail5valueI6QImageEET_PKc)
    QtMobility::QLatin1Constant<(int)4>::operator QString() const 0x000239a9   Thumb Code    18  cnttransformphonenumber.o(t._ZNK10QtMobility15QLatin1ConstantILi4EEcv7QStringEv)
    QtMobility::QLatin1Constant<(int)5>::operator QString() const 0x000239bb   Thumb Code    18  cntdbinfo.o(t._ZNK10QtMobility15QLatin1ConstantILi5EEcv7QStringEv)
    QtMobility::QLatin1Constant<(int)6>::operator QString() const 0x000239cd   Thumb Code    18  cnttransformphonenumber.o(t._ZNK10QtMobility15QLatin1ConstantILi6EEcv7QStringEv)
    QtMobility::QLatin1Constant<(int)9>::operator QString() const 0x000239df   Thumb Code    18  cntdbinfo.o(t._ZNK10QtMobility15QLatin1ConstantILi9EEcv7QStringEv)
    QtMobility::QContact::details<QtMobility::QContactAddress>() const 0x000239f1   Thumb Code   140  cnttransformaddress.o(t._ZNK10QtMobility8QContact7detailsINS_15QContactAddressEEE5QListIT_Ev)
    QForeachContainer<QList<QtMobility::QContactSortOrder>>::condition() const 0x00023a9b   Thumb Code    40  cntsymbiansorterdbms.o(t._ZNK17QForeachContainerI5QListIN10QtMobility17QContactSortOrderEEE9conditionEv)
    QForeachContainer<QList<unsigned>>::condition() const 0x00023ac3   Thumb Code    40  cntsymbianengine.o(t._ZNK17QForeachContainerI5QListIjEE9conditionEv)
    QMap<QString, QVariant>::keys() const    0x00023aeb   Thumb Code   104  cnttransformaddress.o(t._ZNK4QMapI7QString8QVariantE4keysEv)
    QMap<QString, QtMobility::QContactDetailDefinition>::mutableFindNode(QMapData::Node**, const QString&) const 0x00023b5d   Thumb Code   108  cntsymbianengine.o(t._ZNK4QMapI7QStringN10QtMobility24QContactDetailDefinitionEE15mutableFindNodeEPPN8QMapData4NodeERKS0_)
    QMap<QString, QtMobility::QContactDetailDefinition>::keys() const 0x00023bc9   Thumb Code   110  cntsymbianengine.o(t._ZNK4QMapI7QStringN10QtMobility24QContactDetailDefinitionEE4keysEv)
    QMap<QString, QtMobility::QContactDetailDefinition>::contains(const QString&) const 0x00023c47   Thumb Code   122  cnttransformempty.o(t._ZNK4QMapI7QStringN10QtMobility24QContactDetailDefinitionEE8containsERKS0_)
    QMap<QString, QtMobility::QContactDetailDefinition>::findNode(const QString&) const 0x00023cc1   Thumb Code   104  cnttransformname.o(t._ZNK4QMapI7QStringN10QtMobility24QContactDetailDefinitionEE8findNodeERKS0_)
    QMap<QString, QtMobility::QContactDetailFieldDefinition>::mutableFindNode(QMapData::Node**, const QString&) const 0x00023d29   Thumb Code   108  cnttransformphonenumber.o(t._ZNK4QMapI7QStringN10QtMobility29QContactDetailFieldDefinitionEE15mutableFindNodeEPPN8QMapData4NodeERKS0_)
    QMap<QString, CntAbstractRelationship*>::mutableFindNode(QMapData::Node**, const QString&) const 0x00023d95   Thumb Code   108  cntrelationship.o(t._ZNK4QMapI7QStringP23CntAbstractRelationshipE15mutableFindNodeEPPN8QMapData4NodeERKS0_)
    QMap<QString, CntAbstractRelationship*>::keys() const 0x00023e01   Thumb Code   110  cntrelationship.o(t._ZNK4QMapI7QStringP23CntAbstractRelationshipE4keysEv)
    QMap<QString, CntAbstractRelationship*>::value(const QString&) const 0x00023e7f   Thumb Code    46  cntrelationship.o(t._ZNK4QMapI7QStringP23CntAbstractRelationshipE5valueERKS0_)
    QMap<QString, CntAbstractRelationship*>::contains(const QString&) const 0x00023ead   Thumb Code    28  cntrelationship.o(t._ZNK4QMapI7QStringP23CntAbstractRelationshipE8containsERKS0_)
    QMap<QString, CntAbstractRelationship*>::findNode(const QString&) const 0x00023ec9   Thumb Code   104  cntrelationship.o(t._ZNK4QMapI7QStringP23CntAbstractRelationshipE8findNodeERKS0_)
    QMap<CntTransformContact::ContactData, CntTransformContactData*>::const_iterator::operator !=(const QMap<CntTransformContact::ContactData, CntTransformContactData*>::const_iterator&) const 0x00023f31   Thumb Code    18  cnttransformcontact.o(t._ZNK4QMapIN19CntTransformContact11ContactDataEP23CntTransformContactDataE14const_iteratorneERKS5_)
    QMap<CntTransformContact::ContactData, CntTransformContactData*>::mutableFindNode(QMapData::Node**, const CntTransformContact::ContactData&) const 0x00023f43   Thumb Code   108  cnttransformcontact.o(t._ZNK4QMapIN19CntTransformContact11ContactDataEP23CntTransformContactDataE15mutableFindNodeEPPN8QMapData4NodeERKS1_)
    QMap<int, QtMobility::QContactManager::Error>::mutableFindNode(QMapData::Node**, const int&) const 0x00023faf   Thumb Code   108  cntsymbianengine.o(t._ZNK4QMapIiN10QtMobility15QContactManager5ErrorEE15mutableFindNodeEPPN8QMapData4NodeERKi)
    QMap<unsigned, QSet<unsigned>>::mutableFindNode(QMapData::Node**, const unsigned&) const 0x0002401b   Thumb Code   108  cntsymbiandatabase.o(t._ZNK4QMapIj4QSetIjEE15mutableFindNodeEPPN8QMapData4NodeERKj)
