ARM Linker, RVCT2.2 [Build 686]

================================================================================

Image Symbol Table

    Local Symbols

    Symbol Name                              Value     Ov Type        Size  Object(Section)

    ../../unhosted.s                         0x00000000   Number         0  switch8.o ABSOLUTE
    M:\\epoc32\\build\\euser\\c_e18a23aea4fd210f\\edll_lib\\armv5\\udeb\\uc_dll_.cpp 0x00000000   Number         0  uc_dll_.o ABSOLUTE
    M:\\sf\\os\\kernelhwsrv\\kernel\\eka\\compsupp\\rvct\\ucppinit.cpp 0x00000000   Number         0  ucppinit.o ABSOLUTE
    M:\epoc32\build\euser\c_e18a23aea4fd210f\edll_lib\armv5\udeb\uc_dll_.cpp 0x00000000   Number         0  uc_dll_.o ABSOLUTE
    M:\sf\os\kernelhwsrv\kernel\eka\compsupp\rvct\dllexp.cpp 0x00000000   Number         0  dllexp.o ABSOLUTE
    M:\sf\os\kernelhwsrv\kernel\eka\compsupp\rvct\ucppfini.cpp 0x00000000   Number         0  ucppfini.o ABSOLUTE
    M:\sf\os\kernelhwsrv\kernel\eka\compsupp\rvct\ucppinit.cpp 0x00000000   Number         0  ucppinit.o ABSOLUTE
    M:\sf\os\kernelhwsrv\kernel\eka\euser\epoc\arm\uc_dll.cpp 0x00000000   Number         0  uc_dll.o ABSOLUTE
    S:\sf\mw\qtmobility\build\Release\QtContacts\moc\moc_qcontactmanagerenginev2wrapper_p.cpp 0x00000000   Number         0  moc_qcontactmanagerenginev2wrapper_p.o ABSOLUTE
    S:\sf\mw\qtmobility\src\contacts\details\qcontactdetails.cpp 0x00000000   Number         0  qcontactdetails.o ABSOLUTE
    S:\sf\mw\qtmobility\src\contacts\engines\qcontactinvalidbackend.cpp 0x00000000   Number         0  qcontactinvalidbackend.o ABSOLUTE
    S:\sf\mw\qtmobility\src\contacts\engines\qcontactmemorybackend.cpp 0x00000000   Number         0  qcontactmemorybackend.o ABSOLUTE
    S:\sf\mw\qtmobility\src\contacts\filters\qcontactactionfilter.cpp 0x00000000   Number         0  qcontactactionfilter.o ABSOLUTE
    S:\sf\mw\qtmobility\src\contacts\filters\qcontactchangelogfilter.cpp 0x00000000   Number         0  qcontactchangelogfilter.o ABSOLUTE
    S:\sf\mw\qtmobility\src\contacts\filters\qcontactdetailfilter.cpp 0x00000000   Number         0  qcontactdetailfilter.o ABSOLUTE
    S:\sf\mw\qtmobility\src\contacts\filters\qcontactdetailrangefilter.cpp 0x00000000   Number         0  qcontactdetailrangefilter.o ABSOLUTE
    S:\sf\mw\qtmobility\src\contacts\filters\qcontactintersectionfilter.cpp 0x00000000   Number         0  qcontactintersectionfilter.o ABSOLUTE
    S:\sf\mw\qtmobility\src\contacts\filters\qcontactinvalidfilter.cpp 0x00000000   Number         0  qcontactinvalidfilter.o ABSOLUTE
    S:\sf\mw\qtmobility\src\contacts\filters\qcontactlocalidfilter.cpp 0x00000000   Number         0  qcontactlocalidfilter.o ABSOLUTE
    S:\sf\mw\qtmobility\src\contacts\filters\qcontactrelationshipfilter.cpp 0x00000000   Number         0  qcontactrelationshipfilter.o ABSOLUTE
    S:\sf\mw\qtmobility\src\contacts\filters\qcontactunionfilter.cpp 0x00000000   Number         0  qcontactunionfilter.o ABSOLUTE
    S:\sf\mw\qtmobility\src\contacts\qcontact.cpp 0x00000000   Number         0  qcontact.o ABSOLUTE
    S:\sf\mw\qtmobility\src\contacts\qcontactabstractrequest.cpp 0x00000000   Number         0  qcontactabstractrequest.o ABSOLUTE
    S:\sf\mw\qtmobility\src\contacts\qcontactaction.cpp 0x00000000   Number         0  qcontactaction.o ABSOLUTE
    S:\sf\mw\qtmobility\src\contacts\qcontactactiondescriptor.cpp 0x00000000   Number         0  qcontactactiondescriptor.o ABSOLUTE
    S:\sf\mw\qtmobility\src\contacts\qcontactactionfactory.cpp 0x00000000   Number         0  qcontactactionfactory.o ABSOLUTE
    S:\sf\mw\qtmobility\src\contacts\qcontactactionmanager_p.cpp 0x00000000   Number         0  qcontactactionmanager_p.o ABSOLUTE
    S:\sf\mw\qtmobility\src\contacts\qcontactactiontarget.cpp 0x00000000   Number         0  qcontactactiontarget.o ABSOLUTE
    S:\sf\mw\qtmobility\src\contacts\qcontactchangeset.cpp 0x00000000   Number         0  qcontactchangeset.o ABSOLUTE
    S:\sf\mw\qtmobility\src\contacts\qcontactdetail.cpp 0x00000000   Number         0  qcontactdetail.o ABSOLUTE
    S:\sf\mw\qtmobility\src\contacts\qcontactdetaildefinition.cpp 0x00000000   Number         0  qcontactdetaildefinition.o ABSOLUTE
    S:\sf\mw\qtmobility\src\contacts\qcontactdetailfielddefinition.cpp 0x00000000   Number         0  qcontactdetailfielddefinition.o ABSOLUTE
    S:\sf\mw\qtmobility\src\contacts\qcontactfetchhint.cpp 0x00000000   Number         0  qcontactfetchhint.o ABSOLUTE
    S:\sf\mw\qtmobility\src\contacts\qcontactfilter.cpp 0x00000000   Number         0  qcontactfilter.o ABSOLUTE
    S:\sf\mw\qtmobility\src\contacts\qcontactid.cpp 0x00000000   Number         0  qcontactid.o ABSOLUTE
    S:\sf\mw\qtmobility\src\contacts\qcontactmanager.cpp 0x00000000   Number         0  qcontactmanager.o ABSOLUTE
    S:\sf\mw\qtmobility\src\contacts\qcontactmanager_p.cpp 0x00000000   Number         0  qcontactmanager_p.o ABSOLUTE
    S:\sf\mw\qtmobility\src\contacts\qcontactmanagerengine.cpp 0x00000000   Number         0  qcontactmanagerengine.o ABSOLUTE
    S:\sf\mw\qtmobility\src\contacts\qcontactmanagerenginefactory.cpp 0x00000000   Number         0  qcontactmanagerenginefactory.o ABSOLUTE
    S:\sf\mw\qtmobility\src\contacts\qcontactmanagerenginev2wrapper_p.cpp 0x00000000   Number         0  qcontactmanagerenginev2wrapper_p.o ABSOLUTE
    S:\sf\mw\qtmobility\src\contacts\qcontactrelationship.cpp 0x00000000   Number         0  qcontactrelationship.o ABSOLUTE
    S:\sf\mw\qtmobility\src\contacts\qcontactsortorder.cpp 0x00000000   Number         0  qcontactsortorder.o ABSOLUTE
    S:\sf\mw\qtmobility\src\contacts\requests\qcontactdetaildefinitionfetchrequest.cpp 0x00000000   Number         0  qcontactdetaildefinitionfetchrequest.o ABSOLUTE
    S:\sf\mw\qtmobility\src\contacts\requests\qcontactdetaildefinitionremoverequest.cpp 0x00000000   Number         0  qcontactdetaildefinitionremoverequest.o ABSOLUTE
    S:\sf\mw\qtmobility\src\contacts\requests\qcontactdetaildefinitionsaverequest.cpp 0x00000000   Number         0  qcontactdetaildefinitionsaverequest.o ABSOLUTE
    S:\sf\mw\qtmobility\src\contacts\requests\qcontactfetchbyidrequest.cpp 0x00000000   Number         0  qcontactfetchbyidrequest.o ABSOLUTE
    S:\sf\mw\qtmobility\src\contacts\requests\qcontactfetchrequest.cpp 0x00000000   Number         0  qcontactfetchrequest.o ABSOLUTE
    S:\sf\mw\qtmobility\src\contacts\requests\qcontactlocalidfetchrequest.cpp 0x00000000   Number         0  qcontactlocalidfetchrequest.o ABSOLUTE
    S:\sf\mw\qtmobility\src\contacts\requests\qcontactrelationshipfetchrequest.cpp 0x00000000   Number         0  qcontactrelationshipfetchrequest.o ABSOLUTE
    S:\sf\mw\qtmobility\src\contacts\requests\qcontactrelationshipremoverequest.cpp 0x00000000   Number         0  qcontactrelationshipremoverequest.o ABSOLUTE
    S:\sf\mw\qtmobility\src\contacts\requests\qcontactrelationshipsaverequest.cpp 0x00000000   Number         0  qcontactrelationshipsaverequest.o ABSOLUTE
    S:\sf\mw\qtmobility\src\contacts\requests\qcontactremoverequest.cpp 0x00000000   Number         0  qcontactremoverequest.o ABSOLUTE
    S:\sf\mw\qtmobility\src\contacts\requests\qcontactsaverequest.cpp 0x00000000   Number         0  qcontactsaverequest.o ABSOLUTE
    .emb_text                                0x00008000   Section       40  uc_dll_.o(.emb_text)
    Symbian$$eit_base                        0x00008014   Data           4  uc_dll_.o(.emb_text)
    Symbian$$eit_limit                       0x00008018   Data           4  uc_dll_.o(.emb_text)
    Symbian$$code_seg_base                   0x0000801c   Data           4  uc_dll_.o(.emb_text)
    Symbian$$code_seg_limit                  0x00008020   Data           4  uc_dll_.o(.emb_text)
    Symbian$$reserved                        0x00008024   Data           4  uc_dll_.o(.emb_text)
    .emb_text                                0x00008028   Section       52  ucppinit.o(.emb_text)
    loop                                     0x0000803c   ARM Code       0  ucppinit.o(.emb_text)
    ret                                      0x00008044   ARM Code       0  ucppinit.o(.emb_text)
    base                                     0x00008054   Data           0  ucppinit.o(.emb_text)
    limit                                    0x00008058   Data           0  ucppinit.o(.emb_text)
    .text                                    0x00008614   Section      560  moc_qcontactmanagerenginev2wrapper_p.o(.text)
    .text                                    0x00008844   Section     5572  qcontact.o(.text)
    .text                                    0x00009e08   Section     1152  qcontactabstractrequest.o(.text)
    .text                                    0x0000a288   Section      616  qcontactaction.o(.text)
    .text                                    0x0000a4f0   Section     1252  qcontactactiondescriptor.o(.text)
    .text                                    0x0000a9d4   Section      308  qcontactactionfactory.o(.text)
    .text                                    0x0000ab08   Section      880  qcontactactionmanager_p.o(.text)
    QtMobility::contactActionManagerInstance() 0x0000ab9d   Thumb Code   162  qcontactactionmanager_p.o(.text)
    .text                                    0x0000ae78   Section     1152  qcontactactiontarget.o(.text)
    .text                                    0x0000b2f8   Section     1688  qcontactchangeset.o(.text)
    .text                                    0x0000b990   Section     2788  qcontactdetail.o(.text)
    QtMobility::qClearAllocatedStringHash()  0x0000bf91   Thumb Code   262  qcontactdetail.o(.text)
    __sti___18_qcontactdetail_cpp            0x0000c41d   Thumb Code    54  qcontactdetail.o(.text)
    .text                                    0x0000c474   Section      828  qcontactdetaildefinition.o(.text)
    .text                                    0x0000c7b0   Section      524  qcontactdetailfielddefinition.o(.text)
    .text                                    0x0000c9bc   Section      688  qcontactfetchhint.o(.text)
    .text                                    0x0000cc6c   Section      938  qcontactfilter.o(.text)
    .text                                    0x0000d018   Section      816  qcontactid.o(.text)
    QtMobility::qSymbian_CheckDir(const QDir&, RFs&) 0x0000d349   Thumb Code    86  qcontactmanager_p.o(.text)
    .text                                    0x0000d348   Section     3636  qcontactmanager_p.o(.text)
    QtMobility::qContactsCleanEngines()      0x0000d39f   Thumb Code   590  qcontactmanager_p.o(.text)
    |L1.1132|                                0x0000d7b4   Data           0  qcontactmanager_p.o(.text)
    |L1.1140|                                0x0000d7bc   Data           0  qcontactmanager_p.o(.text)
    |L1.1220|                                0x0000d80c   Data           0  qcontactmanager_p.o(.text)
    QtMobility::parameterValue(const QMap<QString, QString>&, const char*, int) 0x0000dd53   Thumb Code   176  qcontactmanager_p.o(.text)
    __sti___21_qcontactmanager_p_cpp         0x0000e0a7   Thumb Code    74  qcontactmanager_p.o(.text)
    .text                                    0x0000e17c   Section     6108  qcontactmanager.o(.text)
    |L1.1940|                                0x0000e910   Data           0  qcontactmanager.o(.text)
    |L1.2032|                                0x0000e96c   Data           0  qcontactmanager.o(.text)
    |L1.2044|                                0x0000e978   Data           0  qcontactmanager.o(.text)
    |L1.3520|                                0x0000ef3c   Data           0  qcontactmanager.o(.text)
    QtMobility::compareStrings(const QString&, const QString&, Qt::CaseSensitivity) 0x0000f959   Thumb Code    72  qcontactmanagerengine.o(.text)
    .text                                    0x0000f958   Section    32896  qcontactmanagerengine.o(.text)
    QtMobility::validateActionFilter(const QtMobility::QContactFilter&) 0x00014513   Thumb Code   228  qcontactmanagerengine.o(.text)
    .text                                    0x000179d8   Section       64  qcontactmanagerenginefactory.o(.text)
    .text                                    0x00017a18   Section     4492  qcontactmanagerenginev2wrapper_p.o(.text)
    |L1.1536|                                0x00018018   Data           0  qcontactmanagerenginev2wrapper_p.o(.text)
    |L1.2680|                                0x00018490   Data           0  qcontactmanagerenginev2wrapper_p.o(.text)
    .text                                    0x00018ba4   Section     1048  qcontactrelationship.o(.text)
    .text                                    0x00018fbc   Section      868  qcontactsortorder.o(.text)
    .text                                    0x00019320   Section     1568  qcontactdetails.o(.text)
    .text                                    0x00019940   Section       96  qcontactinvalidbackend.o(.text)
    .text                                    0x000199a0   Section     8648  qcontactmemorybackend.o(.text)
    __sti___25_qcontactmemorybackend_cpp     0x0001bb39   Thumb Code    32  qcontactmemorybackend.o(.text)
    .text                                    0x0001bb68   Section      154  qcontactactionfilter.o(.text)
    .text                                    0x0001bc02   Section      156  qcontactchangelogfilter.o(.text)
    .text                                    0x0001bc9e   Section      266  qcontactdetailfilter.o(.text)
    .text                                    0x0001bda8   Section      412  qcontactdetailrangefilter.o(.text)
    .text                                    0x0001bf44   Section      222  qcontactlocalidfilter.o(.text)
    .text                                    0x0001c022   Section      358  qcontactintersectionfilter.o(.text)
    .text                                    0x0001c188   Section       80  qcontactinvalidfilter.o(.text)
    .text                                    0x0001c1d8   Section      208  qcontactrelationshipfilter.o(.text)
    .text                                    0x0001c2a8   Section      358  qcontactunionfilter.o(.text)
    .text                                    0x0001c410   Section      676  qcontactfetchrequest.o(.text)
    .text                                    0x0001c6b4   Section      684  qcontactfetchbyidrequest.o(.text)
    .text                                    0x0001c960   Section      592  qcontactlocalidfetchrequest.o(.text)
    .text                                    0x0001cbb0   Section      692  qcontactsaverequest.o(.text)
    .text                                    0x0001ce64   Section      516  qcontactremoverequest.o(.text)
    .text                                    0x0001d068   Section      704  qcontactdetaildefinitionfetchrequest.o(.text)
    .text                                    0x0001d328   Section      600  qcontactdetaildefinitionsaverequest.o(.text)
    .text                                    0x0001d580   Section      616  qcontactdetaildefinitionremoverequest.o(.text)
    .text                                    0x0001d7e8   Section      600  qcontactrelationshipfetchrequest.o(.text)
    .text                                    0x0001da40   Section      516  qcontactrelationshipremoverequest.o(.text)
    .text                                    0x0001dc44   Section      516  qcontactrelationshipsaverequest.o(.text)
    .text                                    0x0001de48   Section       24  switch8.o(.text)
    .text                                    0x0001de60   Section       80  uc_dll.o(.text)
    .text                                    0x0001deb0   Section      180  ucppfini.o(.text)
    .text                                    0x0001df64   Section        4  dllexp.o(.text)
    .text.clean                              0x0001df68   Section      578  qcontact.o(.text.clean)
    .text.clean                              0x0001e1aa   Section       64  qcontactabstractrequest.o(.text.clean)
    .text.clean                              0x0001e1ea   Section       56  qcontactaction.o(.text.clean)
    .text.clean                              0x0001e222   Section      126  qcontactactiondescriptor.o(.text.clean)
    .text.clean                              0x0001e2a0   Section       14  qcontactactionfactory.o(.text.clean)
    .text.clean                              0x0001e2b0   Section      112  qcontactactionmanager_p.o(.text.clean)
    .text.clean                              0x0001e320   Section      142  qcontactactiontarget.o(.text.clean)
    .text.clean                              0x0001e3ae   Section      106  qcontactchangeset.o(.text.clean)
    .text.clean                              0x0001e418   Section      358  qcontactdetail.o(.text.clean)
    .text.clean                              0x0001e57e   Section       64  qcontactdetaildefinition.o(.text.clean)
    .text.clean                              0x0001e5be   Section       48  qcontactdetailfielddefinition.o(.text.clean)
    .text.clean                              0x0001e5ee   Section       64  qcontactfetchhint.o(.text.clean)
    .text.clean                              0x0001e62e   Section      126  qcontactfilter.o(.text.clean)
    .text.clean                              0x0001e6ac   Section       78  qcontactid.o(.text.clean)
    .text.clean                              0x0001e6fa   Section      404  qcontactmanager_p.o(.text.clean)
    .text.clean                              0x0001e88e   Section      606  qcontactmanager.o(.text.clean)
    .text.clean                              0x0001eaec   Section     5710  qcontactmanagerengine.o(.text.clean)
    .text.clean                              0x0002013a   Section      458  qcontactmanagerenginev2wrapper_p.o(.text.clean)
    .text.clean                              0x00020304   Section      166  qcontactrelationship.o(.text.clean)
    .text.clean                              0x000203aa   Section       66  qcontactsortorder.o(.text.clean)
    .text.clean                              0x000203ec   Section      314  qcontactdetails.o(.text.clean)
    .text.clean                              0x00020526   Section     1230  qcontactmemorybackend.o(.text.clean)
    .text.clean                              0x000209f4   Section       24  qcontactactionfilter.o(.text.clean)
    .text.clean                              0x00020a0c   Section       24  qcontactchangelogfilter.o(.text.clean)
    .text.clean                              0x00020a24   Section       24  qcontactdetailfilter.o(.text.clean)
    .text.clean                              0x00020a3c   Section       24  qcontactdetailrangefilter.o(.text.clean)
    .text.clean                              0x00020a54   Section       24  qcontactlocalidfilter.o(.text.clean)
    .text.clean                              0x00020a6c   Section       38  qcontactintersectionfilter.o(.text.clean)
    .text.clean                              0x00020a92   Section       28  qcontactinvalidfilter.o(.text.clean)
    .text.clean                              0x00020aae   Section       24  qcontactrelationshipfilter.o(.text.clean)
    .text.clean                              0x00020ac6   Section       38  qcontactunionfilter.o(.text.clean)
    .text.clean                              0x00020aec   Section      104  qcontactfetchrequest.o(.text.clean)
    .text.clean                              0x00020b54   Section       94  qcontactfetchbyidrequest.o(.text.clean)
    .text.clean                              0x00020bb2   Section       84  qcontactlocalidfetchrequest.o(.text.clean)
    .text.clean                              0x00020c06   Section       94  qcontactsaverequest.o(.text.clean)
    .text.clean                              0x00020c64   Section       74  qcontactremoverequest.o(.text.clean)
    .text.clean                              0x00020cae   Section      104  qcontactdetaildefinitionfetchrequest.o(.text.clean)
    .text.clean                              0x00020d16   Section       94  qcontactdetaildefinitionsaverequest.o(.text.clean)
    .text.clean                              0x00020d74   Section       94  qcontactdetaildefinitionremoverequest.o(.text.clean)
    .text.clean                              0x00020dd2   Section      104  qcontactrelationshipfetchrequest.o(.text.clean)
    .text.clean                              0x00020e3a   Section       74  qcontactrelationshipremoverequest.o(.text.clean)
    .text.clean                              0x00020e84   Section       74  qcontactrelationshipsaverequest.o(.text.clean)
    i._Z8qWarningv                           0x00020ece   Section       88  qcontactmanager_p.o(i._Z8qWarningv)
    i._Z8qWarningv.clean                     0x00020f26   Section       24  qcontactmanager_p.o(i._Z8qWarningv.clean)
    i._ZN10QByteArrayD1Ev                    0x00020f3e   Section       24  qcontact.o(i._ZN10QByteArrayD1Ev)
    i._ZN10QMultiHashI7QStringN10QtMobility24QContactActionDescriptorEED1Ev 0x00020f56   Section       14  qcontactactionmanager_p.o(i._ZN10QMultiHashI7QStringN10QtMobility24QContactActionDescriptorEED1Ev)
    i._ZN10QtMobility12QContactDataC1ERKS0_  0x00020f64   Section      106  qcontact.o(i._ZN10QtMobility12QContactDataC1ERKS0_)
    i._ZN10QtMobility12QContactDataC1ERKS0_.clean 0x00020fce   Section       34  qcontact.o(i._ZN10QtMobility12QContactDataC1ERKS0_.clean)
    i._ZN10QtMobility12QContactDataD1Ev      0x00020ff0   Section       52  qcontact.o(i._ZN10QtMobility12QContactDataD1Ev)
    i._ZN10QtMobility12QContactDataD1Ev.clean 0x00021024   Section       34  qcontact.o(i._ZN10QtMobility12QContactDataD1Ev.clean)
    i._ZN10QtMobility12QContactNameD1Ev      0x00021046   Section       14  qcontactmanagerengine.o(i._ZN10QtMobility12QContactNameD1Ev)
    i._ZN10QtMobility12QContactType7setTypeERK7QString 0x00021054   Section       48  qcontact.o(i._ZN10QtMobility12QContactType7setTypeERK7QString)
    i._ZN10QtMobility12QContactType7setTypeERK7QString.clean 0x00021084   Section       10  qcontact.o(i._ZN10QtMobility12QContactType7setTypeERK7QString.clean)
    i._ZN10QtMobility12QContactTypeC1Ev      0x00021090   Section       28  qcontact.o(i._ZN10QtMobility12QContactTypeC1Ev)
    i._ZN10QtMobility12QContactTypeD1Ev      0x000210ac   Section       14  qcontact.o(i._ZN10QtMobility12QContactTypeD1Ev)
    i._ZN10QtMobility15mobilityPluginsERK7QString 0x000210bc   Section      716  qcontactmanager_p.o(i._ZN10QtMobility15mobilityPluginsERK7QString)
    i._ZN10QtMobility15mobilityPluginsERK7QString.clean 0x00021388   Section      124  qcontactmanager_p.o(i._ZN10QtMobility15mobilityPluginsERK7QString.clean)
    i._ZN10QtMobility17QContactIdPrivateD1Ev 0x00021404   Section       16  qcontactid.o(i._ZN10QtMobility17QContactIdPrivateD1Ev)
    i._ZN10QtMobility17QContactTimestamp15setLastModifiedERK9QDateTime 0x00021414   Section       48  qcontactmemorybackend.o(i._ZN10QtMobility17QContactTimestamp15setLastModifiedERK9QDateTime)
    i._ZN10QtMobility17QContactTimestamp15setLastModifiedERK9QDateTime.clean 0x00021444   Section       10  qcontactmemorybackend.o(i._ZN10QtMobility17QContactTimestamp15setLastModifiedERK9QDateTime.clean)
    i._ZN10QtMobility17QContactTimestampC1ERKNS_14QContactDetailE 0x00021450   Section       32  qcontactmemorybackend.o(i._ZN10QtMobility17QContactTimestampC1ERKNS_14QContactDetailE)
    i._ZN10QtMobility17QContactTimestampD1Ev 0x00021470   Section       14  qcontactmanagerengine.o(i._ZN10QtMobility17QContactTimestampD1Ev)
    i._ZN10QtMobility17RequestControllerC2Ev 0x00021480   Section       60  qcontactmanagerenginev2wrapper_p.o(i._ZN10QtMobility17RequestControllerC2Ev)
    i._ZN10QtMobility17RequestControllerC2Ev.clean 0x000214bc   Section       10  qcontactmanagerenginev2wrapper_p.o(i._ZN10QtMobility17RequestControllerC2Ev.clean)
    i._ZN10QtMobility17RequestControllerD0Ev 0x000214c6   Section       22  moc_qcontactmanagerenginev2wrapper_p.o(i._ZN10QtMobility17RequestControllerD0Ev)
    i._ZN10QtMobility17RequestControllerD2Ev 0x000214dc   Section       48  moc_qcontactmanagerenginev2wrapper_p.o(i._ZN10QtMobility17RequestControllerD2Ev)
    i._ZN10QtMobility17RequestControllerD2Ev.clean 0x0002150c   Section       22  moc_qcontactmanagerenginev2wrapper_p.o(i._ZN10QtMobility17RequestControllerD2Ev.clean)
    i._ZN10QtMobility19QContactManagerDataC1Ev 0x00021522   Section       26  qcontactmanager.o(i._ZN10QtMobility19QContactManagerDataC1Ev)
    i._ZN10QtMobility19QContactUnionFilter6d_funcEv 0x0002153c   Section       38  qcontactunionfilter.o(i._ZN10QtMobility19QContactUnionFilter6d_funcEv)
    i._ZN10QtMobility19QContactUnionFilterD1Ev 0x00021562   Section       14  qcontactfilter.o(i._ZN10QtMobility19QContactUnionFilterD1Ev)
    i._ZN10QtMobility20QContactActionFilterD1Ev 0x00021570   Section       14  qcontactfilter.o(i._ZN10QtMobility20QContactActionFilterD1Ev)
    i._ZN10QtMobility20QContactDetailFilter6d_funcEv 0x0002157e   Section       44  qcontactdetailfilter.o(i._ZN10QtMobility20QContactDetailFilter6d_funcEv)
    i._ZN10QtMobility20QContactDetailFilterD1Ev 0x000215aa   Section       14  qcontactfilter.o(i._ZN10QtMobility20QContactDetailFilterD1Ev)
    i._ZN10QtMobility20QContactDisplayLabelD1Ev 0x000215b8   Section       14  qcontact.o(i._ZN10QtMobility20QContactDisplayLabelD1Ev)
    i._ZN10QtMobility20QContactOrganizationD1Ev 0x000215c6   Section       14  qcontactmanagerengine.o(i._ZN10QtMobility20QContactOrganizationD1Ev)
    i._ZN10QtMobility20QContactStringHolderC1ERK7QString 0x000215d4   Section       18  qcontactdetail.o(i._ZN10QtMobility20QContactStringHolderC1ERK7QString)
    i._ZN10QtMobility20QContactStringHolderD1Ev 0x000215e6   Section        2  qcontact.o(i._ZN10QtMobility20QContactStringHolderD1Ev)
    i._ZN10QtMobility20QContactStringHolderaSERK7QString 0x000215e8   Section       84  qcontactdetail.o(i._ZN10QtMobility20QContactStringHolderaSERK7QString)
    i._ZN10QtMobility20QContactStringHolderaSERK7QString.clean 0x0002163c   Section       10  qcontactdetail.o(i._ZN10QtMobility20QContactStringHolderaSERK7QString.clean)
    i._ZN10QtMobility21QContactChangeSetDataC1ERKS0_ 0x00021646   Section      118  qcontactchangeset.o(i._ZN10QtMobility21QContactChangeSetDataC1ERKS0_)
    i._ZN10QtMobility21QContactChangeSetDataC1ERKS0_.clean 0x000216bc   Section       48  qcontactchangeset.o(i._ZN10QtMobility21QContactChangeSetDataC1ERKS0_.clean)
    i._ZN10QtMobility21QContactChangeSetDataC1Ev 0x000216ec   Section       98  qcontactchangeset.o(i._ZN10QtMobility21QContactChangeSetDataC1Ev)
    i._ZN10QtMobility21QContactChangeSetDataC1Ev.clean 0x0002174e   Section       48  qcontactchangeset.o(i._ZN10QtMobility21QContactChangeSetDataC1Ev.clean)
    i._ZN10QtMobility21QContactChangeSetDataD1Ev 0x0002177e   Section       68  qcontactchangeset.o(i._ZN10QtMobility21QContactChangeSetDataD1Ev)
    i._ZN10QtMobility21QContactChangeSetDataD1Ev.clean 0x000217c2   Section       48  qcontactchangeset.o(i._ZN10QtMobility21QContactChangeSetDataD1Ev.clean)
    i._ZN10QtMobility21QContactDetailPrivateC1Ev 0x000217f4   Section       88  qcontactdetail.o(i._ZN10QtMobility21QContactDetailPrivateC1Ev)
    i._ZN10QtMobility21QContactDetailPrivateC1Ev.clean 0x0002184c   Section       12  qcontactdetail.o(i._ZN10QtMobility21QContactDetailPrivateC1Ev.clean)
    i._ZN10QtMobility21QContactDetailPrivateD1Ev 0x00021858   Section       28  qcontactdetail.o(i._ZN10QtMobility21QContactDetailPrivateD1Ev)
    i._ZN10QtMobility21QContactDetailPrivateD1Ev.clean 0x00021874   Section       12  qcontactdetail.o(i._ZN10QtMobility21QContactDetailPrivateD1Ev.clean)
    i._ZN10QtMobility21QContactFilterPrivateD0Ev 0x00021880   Section       18  qcontactactionfilter.o(i._ZN10QtMobility21QContactFilterPrivateD0Ev)
    i._ZN10QtMobility21QContactFilterPrivateD2Ev 0x00021892   Section        2  qcontactactionfilter.o(i._ZN10QtMobility21QContactFilterPrivateD2Ev)
    i._ZN10QtMobility21QContactInvalidEngineD0Ev 0x00021894   Section       24  qcontactinvalidbackend.o(i._ZN10QtMobility21QContactInvalidEngineD0Ev)
    i._ZN10QtMobility21QContactInvalidEngineD1Ev 0x000218ac   Section       14  qcontactinvalidbackend.o(i._ZN10QtMobility21QContactInvalidEngineD1Ev)
    i._ZN10QtMobility21QContactInvalidFilterD1Ev 0x000218ba   Section       14  qcontactactiondescriptor.o(i._ZN10QtMobility21QContactInvalidFilterD1Ev)
    i._ZN10QtMobility21QContactLocalIdFilter6d_funcEv 0x000218c8   Section       38  qcontactlocalidfilter.o(i._ZN10QtMobility21QContactLocalIdFilter6d_funcEv)
    i._ZN10QtMobility21QContactLocalIdFilterD1Ev 0x000218ee   Section       14  qcontactfilter.o(i._ZN10QtMobility21QContactLocalIdFilterD1Ev)
    i._ZN10QtMobility21QContactManagerEngineD0Ev 0x000218fc   Section       22  qcontactmanagerengine.o(i._ZN10QtMobility21QContactManagerEngineD0Ev)
    i._ZN10QtMobility21QContactManagerEngineD2Ev 0x00021912   Section       14  qcontactmanagerengine.o(i._ZN10QtMobility21QContactManagerEngineD2Ev)
    i._ZN10QtMobility23QContactChangeLogFilter6d_funcEv 0x00021920   Section       44  qcontactchangelogfilter.o(i._ZN10QtMobility23QContactChangeLogFilter6d_funcEv)
    i._ZN10QtMobility23QContactChangeLogFilterD1Ev 0x0002194c   Section       14  qcontactfilter.o(i._ZN10QtMobility23QContactChangeLogFilterD1Ev)
    i._ZN10QtMobility23QContactManagerEngineV2D0Ev 0x0002195a   Section       24  qcontactmanagerengine.o(i._ZN10QtMobility23QContactManagerEngineV2D0Ev)
    i._ZN10QtMobility23QContactManagerEngineV2D2Ev 0x00021972   Section       14  qcontactmanagerengine.o(i._ZN10QtMobility23QContactManagerEngineV2D2Ev)
    i._ZN10QtMobility24QContactFetchHintPrivateD1Ev 0x00021980   Section       28  qcontactfetchhint.o(i._ZN10QtMobility24QContactFetchHintPrivateD1Ev)
    i._ZN10QtMobility24QContactFetchHintPrivateD1Ev.clean 0x0002199c   Section       10  qcontactfetchhint.o(i._ZN10QtMobility24QContactFetchHintPrivateD1Ev.clean)
    i._ZN10QtMobility24QContactMemoryEngineData17emitSharedSignalsEPNS_17QContactChangeSetE 0x000219a6   Section      276  qcontactmemorybackend.o(i._ZN10QtMobility24QContactMemoryEngineData17emitSharedSignalsEPNS_17QContactChangeSetE)
    i._ZN10QtMobility24QContactMemoryEngineData17emitSharedSignalsEPNS_17QContactChangeSetE.clean 0x00021aba   Section       20  qcontactmemorybackend.o(i._ZN10QtMobility24QContactMemoryEngineData17emitSharedSignalsEPNS_17QContactChangeSetE.clean)
    i._ZN10QtMobility24QContactMemoryEngineDataC1Ev 0x00021ad0   Section      180  qcontactmemorybackend.o(i._ZN10QtMobility24QContactMemoryEngineDataC1Ev)
    i._ZN10QtMobility24QContactMemoryEngineDataC1Ev.clean 0x00021b84   Section       84  qcontactmemorybackend.o(i._ZN10QtMobility24QContactMemoryEngineDataC1Ev.clean)
    i._ZN10QtMobility24QContactMemoryEngineDataD1Ev 0x00021bd8   Section      104  qcontactmemorybackend.o(i._ZN10QtMobility24QContactMemoryEngineDataD1Ev)
    i._ZN10QtMobility24QContactMemoryEngineDataD1Ev.clean 0x00021c40   Section       84  qcontactmemorybackend.o(i._ZN10QtMobility24QContactMemoryEngineDataD1Ev.clean)
    i._ZN10QtMobility24QContactSortOrderPrivateD1Ev 0x00021c94   Section       32  qcontactsortorder.o(i._ZN10QtMobility24QContactSortOrderPrivateD1Ev)
    i._ZN10QtMobility24QContactSortOrderPrivateD1Ev.clean 0x00021cb4   Section       12  qcontactsortorder.o(i._ZN10QtMobility24QContactSortOrderPrivateD1Ev.clean)
    i._ZN10QtMobility25QContactDetailRangeFilter6d_funcEv 0x00021cc0   Section       44  qcontactdetailrangefilter.o(i._ZN10QtMobility25QContactDetailRangeFilter6d_funcEv)
    i._ZN10QtMobility25QContactDetailRangeFilterD1Ev 0x00021cec   Section       14  qcontactfilter.o(i._ZN10QtMobility25QContactDetailRangeFilterD1Ev)
    i._ZN10QtMobility26FetchByIdRequestControllerD0Ev 0x00021cfa   Section       24  moc_qcontactmanagerenginev2wrapper_p.o(i._ZN10QtMobility26FetchByIdRequestControllerD0Ev)
    i._ZN10QtMobility26FetchByIdRequestControllerD1Ev 0x00021d12   Section       14  moc_qcontactmanagerenginev2wrapper_p.o(i._ZN10QtMobility26FetchByIdRequestControllerD1Ev)
    i._ZN10QtMobility26QContactIntersectionFilter6d_funcEv 0x00021d20   Section       38  qcontactintersectionfilter.o(i._ZN10QtMobility26QContactIntersectionFilter6d_funcEv)
    i._ZN10QtMobility26QContactIntersectionFilterD1Ev 0x00021d46   Section       14  qcontactfilter.o(i._ZN10QtMobility26QContactIntersectionFilterD1Ev)
    i._ZN10QtMobility26QContactRelationshipFilter6d_funcEv 0x00021d54   Section       44  qcontactrelationshipfilter.o(i._ZN10QtMobility26QContactRelationshipFilter6d_funcEv)
    i._ZN10QtMobility26QContactRelationshipFilterD1Ev 0x00021d80   Section       14  qcontactfilter.o(i._ZN10QtMobility26QContactRelationshipFilterD1Ev)
    i._ZN10QtMobility26QContactSaveRequestPrivateC1Ev 0x00021d90   Section      144  qcontactsaverequest.o(i._ZN10QtMobility26QContactSaveRequestPrivateC1Ev)
    i._ZN10QtMobility26QContactSaveRequestPrivateC1Ev.clean 0x00021e20   Section       58  qcontactsaverequest.o(i._ZN10QtMobility26QContactSaveRequestPrivateC1Ev.clean)
    i._ZN10QtMobility26QContactSaveRequestPrivateD0Ev 0x00021e5a   Section       22  qcontactmanagerengine.o(i._ZN10QtMobility26QContactSaveRequestPrivateD0Ev)
    i._ZN10QtMobility26QContactSaveRequestPrivateD1Ev 0x00021e70   Section       60  qcontactmanagerengine.o(i._ZN10QtMobility26QContactSaveRequestPrivateD1Ev)
    i._ZN10QtMobility26QContactSaveRequestPrivateD1Ev.clean 0x00021eac   Section       34  qcontactmanagerengine.o(i._ZN10QtMobility26QContactSaveRequestPrivateD1Ev.clean)
    i._ZN10QtMobility26QContactUnionFilterPrivate14copyIfPossibleER18QSharedDataPointerINS_21QContactFilterPrivateEERKNS_14QContactFilterE 0x00021ece   Section      168  qcontactunionfilter.o(i._ZN10QtMobility26QContactUnionFilterPrivate14copyIfPossibleER18QSharedDataPointerINS_21QContactFilterPrivateEERKNS_14QContactFilterE)
    i._ZN10QtMobility26QContactUnionFilterPrivate14copyIfPossibleER18QSharedDataPointerINS_21QContactFilterPrivateEERKNS_14QContactFilterE.clean 0x00021f76   Section       14  qcontactunionfilter.o(i._ZN10QtMobility26QContactUnionFilterPrivate14copyIfPossibleER18QSharedDataPointerINS_21QContactFilterPrivateEERKNS_14QContactFilterE.clean)
    i._ZN10QtMobility26QContactUnionFilterPrivate15inputFromStreamER11QDataStreamh 0x00021f84   Section       26  qcontactunionfilter.o(i._ZN10QtMobility26QContactUnionFilterPrivate15inputFromStreamER11QDataStreamh)
    i._ZN10QtMobility26QContactUnionFilterPrivateC1Ev 0x00021fa0   Section       52  qcontactunionfilter.o(i._ZN10QtMobility26QContactUnionFilterPrivateC1Ev)
    i._ZN10QtMobility26QContactUnionFilterPrivateC1Ev.clean 0x00021fd4   Section       10  qcontactunionfilter.o(i._ZN10QtMobility26QContactUnionFilterPrivateC1Ev.clean)
    i._ZN10QtMobility26QContactUnionFilterPrivateD0Ev 0x00021fde   Section       22  qcontactunionfilter.o(i._ZN10QtMobility26QContactUnionFilterPrivateD0Ev)
    i._ZN10QtMobility26QContactUnionFilterPrivateD1Ev 0x00021ff4   Section       28  qcontactunionfilter.o(i._ZN10QtMobility26QContactUnionFilterPrivateD1Ev)
    i._ZN10QtMobility26QContactUnionFilterPrivateD1Ev.clean 0x00022010   Section       10  qcontactunionfilter.o(i._ZN10QtMobility26QContactUnionFilterPrivateD1Ev.clean)
    i._ZN10QtMobility27QContactActionFilterPrivate14copyIfPossibleER18QSharedDataPointerINS_21QContactFilterPrivateEERKNS_14QContactFilterE 0x0002201a   Section      168  qcontactactionfilter.o(i._ZN10QtMobility27QContactActionFilterPrivate14copyIfPossibleER18QSharedDataPointerINS_21QContactFilterPrivateEERKNS_14QContactFilterE)
    i._ZN10QtMobility27QContactActionFilterPrivate14copyIfPossibleER18QSharedDataPointerINS_21QContactFilterPrivateEERKNS_14QContactFilterE.clean 0x000220c2   Section       14  qcontactactionfilter.o(i._ZN10QtMobility27QContactActionFilterPrivate14copyIfPossibleER18QSharedDataPointerINS_21QContactFilterPrivateEERKNS_14QContactFilterE.clean)
    i._ZN10QtMobility27QContactActionFilterPrivate15inputFromStreamER11QDataStreamh 0x000220d0   Section       26  qcontactactionfilter.o(i._ZN10QtMobility27QContactActionFilterPrivate15inputFromStreamER11QDataStreamh)
    i._ZN10QtMobility27QContactActionFilterPrivateC1Ev 0x000220ec   Section       64  qcontactactionfilter.o(i._ZN10QtMobility27QContactActionFilterPrivateC1Ev)
    i._ZN10QtMobility27QContactActionFilterPrivateC1Ev.clean 0x0002212c   Section       10  qcontactactionfilter.o(i._ZN10QtMobility27QContactActionFilterPrivateC1Ev.clean)
    i._ZN10QtMobility27QContactActionFilterPrivateD0Ev 0x00022136   Section       22  qcontactactionfilter.o(i._ZN10QtMobility27QContactActionFilterPrivateD0Ev)
    i._ZN10QtMobility27QContactActionFilterPrivateD1Ev 0x0002214c   Section       28  qcontactactionfilter.o(i._ZN10QtMobility27QContactActionFilterPrivateD1Ev)
    i._ZN10QtMobility27QContactActionFilterPrivateD1Ev.clean 0x00022168   Section       10  qcontactactionfilter.o(i._ZN10QtMobility27QContactActionFilterPrivateD1Ev.clean)
    i._ZN10QtMobility27QContactActionTargetPrivateC1ERKNS_8QContactERK5QListINS_14QContactDetailEE 0x00022172   Section       48  qcontactactiontarget.o(i._ZN10QtMobility27QContactActionTargetPrivateC1ERKNS_8QContactERK5QListINS_14QContactDetailEE)
    i._ZN10QtMobility27QContactActionTargetPrivateC1ERKNS_8QContactERK5QListINS_14QContactDetailEE.clean 0x000221a2   Section       10  qcontactactiontarget.o(i._ZN10QtMobility27QContactActionTargetPrivateC1ERKNS_8QContactERK5QListINS_14QContactDetailEE.clean)
    i._ZN10QtMobility27QContactActionTargetPrivateD1Ev 0x000221ac   Section       28  qcontactactiontarget.o(i._ZN10QtMobility27QContactActionTargetPrivateD1Ev)
    i._ZN10QtMobility27QContactActionTargetPrivateD1Ev.clean 0x000221c8   Section       10  qcontactactiontarget.o(i._ZN10QtMobility27QContactActionTargetPrivateD1Ev.clean)
    i._ZN10QtMobility27QContactDetailFilterPrivate14copyIfPossibleER18QSharedDataPointerINS_21QContactFilterPrivateEERKNS_14QContactFilterE 0x000221d2   Section      168  qcontactdetailfilter.o(i._ZN10QtMobility27QContactDetailFilterPrivate14copyIfPossibleER18QSharedDataPointerINS_21QContactFilterPrivateEERKNS_14QContactFilterE)
    i._ZN10QtMobility27QContactDetailFilterPrivate14copyIfPossibleER18QSharedDataPointerINS_21QContactFilterPrivateEERKNS_14QContactFilterE.clean 0x0002227a   Section       14  qcontactdetailfilter.o(i._ZN10QtMobility27QContactDetailFilterPrivate14copyIfPossibleER18QSharedDataPointerINS_21QContactFilterPrivateEERKNS_14QContactFilterE.clean)
    i._ZN10QtMobility27QContactDetailFilterPrivate15inputFromStreamER11QDataStreamh 0x00022288   Section       90  qcontactdetailfilter.o(i._ZN10QtMobility27QContactDetailFilterPrivate15inputFromStreamER11QDataStreamh)
    i._ZN10QtMobility27QContactDetailFilterPrivateC1Ev 0x000222e4   Section      120  qcontactdetailfilter.o(i._ZN10QtMobility27QContactDetailFilterPrivateC1Ev)
    i._ZN10QtMobility27QContactDetailFilterPrivateC1Ev.clean 0x0002235c   Section       22  qcontactdetailfilter.o(i._ZN10QtMobility27QContactDetailFilterPrivateC1Ev.clean)
    i._ZN10QtMobility27QContactDetailFilterPrivateD0Ev 0x00022372   Section       22  qcontactdetailfilter.o(i._ZN10QtMobility27QContactDetailFilterPrivateD0Ev)
    i._ZN10QtMobility27QContactDetailFilterPrivateD1Ev 0x00022388   Section       52  qcontactdetailfilter.o(i._ZN10QtMobility27QContactDetailFilterPrivateD1Ev)
    i._ZN10QtMobility27QContactDetailFilterPrivateD1Ev.clean 0x000223bc   Section       34  qcontactdetailfilter.o(i._ZN10QtMobility27QContactDetailFilterPrivateD1Ev.clean)
    i._ZN10QtMobility27QContactFetchRequestPrivateC1Ev 0x000223e0   Section      144  qcontactfetchrequest.o(i._ZN10QtMobility27QContactFetchRequestPrivateC1Ev)
    i._ZN10QtMobility27QContactFetchRequestPrivateC1Ev.clean 0x00022470   Section       70  qcontactfetchrequest.o(i._ZN10QtMobility27QContactFetchRequestPrivateC1Ev.clean)
    i._ZN10QtMobility27QContactFetchRequestPrivateD0Ev 0x000224b6   Section       22  qcontactmanagerengine.o(i._ZN10QtMobility27QContactFetchRequestPrivateD0Ev)
    i._ZN10QtMobility27QContactFetchRequestPrivateD1Ev 0x000224cc   Section       72  qcontactmanagerengine.o(i._ZN10QtMobility27QContactFetchRequestPrivateD1Ev)
    i._ZN10QtMobility27QContactFetchRequestPrivateD1Ev.clean 0x00022514   Section       46  qcontactmanagerengine.o(i._ZN10QtMobility27QContactFetchRequestPrivateD1Ev.clean)
    i._ZN10QtMobility27QContactRelationshipPrivateD1Ev 0x00022542   Section       40  qcontactrelationship.o(i._ZN10QtMobility27QContactRelationshipPrivateD1Ev)
    i._ZN10QtMobility27QContactRelationshipPrivateD1Ev.clean 0x0002256a   Section       22  qcontactrelationship.o(i._ZN10QtMobility27QContactRelationshipPrivateD1Ev.clean)
    i._ZN10QtMobility28PartialSaveRequestControllerD0Ev 0x00022580   Section       22  moc_qcontactmanagerenginev2wrapper_p.o(i._ZN10QtMobility28PartialSaveRequestControllerD0Ev)
    i._ZN10QtMobility28PartialSaveRequestControllerD1Ev 0x00022598   Section       60  moc_qcontactmanagerenginev2wrapper_p.o(i._ZN10QtMobility28PartialSaveRequestControllerD1Ev)
    i._ZN10QtMobility28PartialSaveRequestControllerD1Ev.clean 0x000225d4   Section       34  moc_qcontactmanagerenginev2wrapper_p.o(i._ZN10QtMobility28PartialSaveRequestControllerD1Ev.clean)
    i._ZN10QtMobility28QContactDetailDefinitionDataD1Ev 0x000225f6   Section       28  qcontactdetaildefinition.o(i._ZN10QtMobility28QContactDetailDefinitionDataD1Ev)
    i._ZN10QtMobility28QContactDetailDefinitionDataD1Ev.clean 0x00022612   Section       10  qcontactdetaildefinition.o(i._ZN10QtMobility28QContactDetailDefinitionDataD1Ev.clean)
    i._ZN10QtMobility28QContactInvalidFilterPrivate15inputFromStreamER11QDataStreamh 0x0002261c   Section       12  qcontactinvalidfilter.o(i._ZN10QtMobility28QContactInvalidFilterPrivate15inputFromStreamER11QDataStreamh)
    i._ZN10QtMobility28QContactInvalidFilterPrivateC1Ev 0x00022628   Section       36  qcontactinvalidfilter.o(i._ZN10QtMobility28QContactInvalidFilterPrivateC1Ev)
    i._ZN10QtMobility28QContactInvalidFilterPrivateD0Ev 0x0002264c   Section       18  qcontactinvalidfilter.o(i._ZN10QtMobility28QContactInvalidFilterPrivateD0Ev)
    i._ZN10QtMobility28QContactInvalidFilterPrivateD1Ev 0x0002265e   Section        2  qcontactinvalidfilter.o(i._ZN10QtMobility28QContactInvalidFilterPrivateD1Ev)
    i._ZN10QtMobility28QContactLocalIdFilterPrivate14copyIfPossibleER18QSharedDataPointerINS_21QContactFilterPrivateEERKNS_14QContactFilterE 0x00022660   Section      168  qcontactlocalidfilter.o(i._ZN10QtMobility28QContactLocalIdFilterPrivate14copyIfPossibleER18QSharedDataPointerINS_21QContactFilterPrivateEERKNS_14QContactFilterE)
    i._ZN10QtMobility28QContactLocalIdFilterPrivate14copyIfPossibleER18QSharedDataPointerINS_21QContactFilterPrivateEERKNS_14QContactFilterE.clean 0x00022708   Section       14  qcontactlocalidfilter.o(i._ZN10QtMobility28QContactLocalIdFilterPrivate14copyIfPossibleER18QSharedDataPointerINS_21QContactFilterPrivateEERKNS_14QContactFilterE.clean)
    i._ZN10QtMobility28QContactLocalIdFilterPrivate15inputFromStreamER11QDataStreamh 0x00022716   Section       26  qcontactlocalidfilter.o(i._ZN10QtMobility28QContactLocalIdFilterPrivate15inputFromStreamER11QDataStreamh)
    i._ZN10QtMobility28QContactLocalIdFilterPrivateC1Ev 0x00022730   Section       52  qcontactlocalidfilter.o(i._ZN10QtMobility28QContactLocalIdFilterPrivateC1Ev)
    i._ZN10QtMobility28QContactLocalIdFilterPrivateC1Ev.clean 0x00022764   Section       10  qcontactlocalidfilter.o(i._ZN10QtMobility28QContactLocalIdFilterPrivateC1Ev.clean)
    i._ZN10QtMobility28QContactLocalIdFilterPrivateD0Ev 0x0002276e   Section       22  qcontactlocalidfilter.o(i._ZN10QtMobility28QContactLocalIdFilterPrivateD0Ev)
    i._ZN10QtMobility28QContactLocalIdFilterPrivateD1Ev 0x00022784   Section       28  qcontactlocalidfilter.o(i._ZN10QtMobility28QContactLocalIdFilterPrivateD1Ev)
    i._ZN10QtMobility28QContactLocalIdFilterPrivateD1Ev.clean 0x000227a0   Section       10  qcontactlocalidfilter.o(i._ZN10QtMobility28QContactLocalIdFilterPrivateD1Ev.clean)
    i._ZN10QtMobility28QContactRemoveRequestPrivateC1Ev 0x000227ac   Section      120  qcontactremoverequest.o(i._ZN10QtMobility28QContactRemoveRequestPrivateC1Ev)
    i._ZN10QtMobility28QContactRemoveRequestPrivateC1Ev.clean 0x00022824   Section       46  qcontactremoverequest.o(i._ZN10QtMobility28QContactRemoveRequestPrivateC1Ev.clean)
    i._ZN10QtMobility28QContactRemoveRequestPrivateD0Ev 0x00022852   Section       22  qcontactmanagerengine.o(i._ZN10QtMobility28QContactRemoveRequestPrivateD0Ev)
    i._ZN10QtMobility28QContactRemoveRequestPrivateD1Ev 0x00022868   Section       48  qcontactmanagerengine.o(i._ZN10QtMobility28QContactRemoveRequestPrivateD1Ev)
    i._ZN10QtMobility28QContactRemoveRequestPrivateD1Ev.clean 0x00022898   Section       22  qcontactmanagerengine.o(i._ZN10QtMobility28QContactRemoveRequestPrivateD1Ev.clean)
    i._ZN10QtMobility30QContactAbstractRequestPrivateD0Ev 0x000228ae   Section       22  qcontactabstractrequest.o(i._ZN10QtMobility30QContactAbstractRequestPrivateD0Ev)
    i._ZN10QtMobility30QContactAbstractRequestPrivateD1Ev 0x000228c4   Section       56  qcontactabstractrequest.o(i._ZN10QtMobility30QContactAbstractRequestPrivateD1Ev)
    i._ZN10QtMobility30QContactAbstractRequestPrivateD1Ev.clean 0x000228fc   Section       24  qcontactabstractrequest.o(i._ZN10QtMobility30QContactAbstractRequestPrivateD1Ev.clean)
    i._ZN10QtMobility30QContactChangeLogFilterPrivate14copyIfPossibleER18QSharedDataPointerINS_21QContactFilterPrivateEERKNS_14QContactFilterE 0x00022914   Section      170  qcontactchangelogfilter.o(i._ZN10QtMobility30QContactChangeLogFilterPrivate14copyIfPossibleER18QSharedDataPointerINS_21QContactFilterPrivateEERKNS_14QContactFilterE)
    i._ZN10QtMobility30QContactChangeLogFilterPrivate14copyIfPossibleER18QSharedDataPointerINS_21QContactFilterPrivateEERKNS_14QContactFilterE.clean 0x000229be   Section       14  qcontactchangelogfilter.o(i._ZN10QtMobility30QContactChangeLogFilterPrivate14copyIfPossibleER18QSharedDataPointerINS_21QContactFilterPrivateEERKNS_14QContactFilterE.clean)
    i._ZN10QtMobility30QContactChangeLogFilterPrivate15inputFromStreamER11QDataStreamh 0x000229cc   Section       42  qcontactchangelogfilter.o(i._ZN10QtMobility30QContactChangeLogFilterPrivate15inputFromStreamER11QDataStreamh)
    i._ZN10QtMobility30QContactChangeLogFilterPrivateC1ENS_23QContactChangeLogFilter9EventTypeE 0x000229f8   Section       56  qcontactchangelogfilter.o(i._ZN10QtMobility30QContactChangeLogFilterPrivateC1ENS_23QContactChangeLogFilter9EventTypeE)
    i._ZN10QtMobility30QContactChangeLogFilterPrivateC1ENS_23QContactChangeLogFilter9EventTypeE.clean 0x00022a30   Section       10  qcontactchangelogfilter.o(i._ZN10QtMobility30QContactChangeLogFilterPrivateC1ENS_23QContactChangeLogFilter9EventTypeE.clean)
    i._ZN10QtMobility30QContactChangeLogFilterPrivateD0Ev 0x00022a3a   Section       22  qcontactchangelogfilter.o(i._ZN10QtMobility30QContactChangeLogFilterPrivateD0Ev)
    i._ZN10QtMobility30QContactChangeLogFilterPrivateD1Ev 0x00022a50   Section       28  qcontactchangelogfilter.o(i._ZN10QtMobility30QContactChangeLogFilterPrivateD1Ev)
    i._ZN10QtMobility30QContactChangeLogFilterPrivateD1Ev.clean 0x00022a6c   Section       10  qcontactchangelogfilter.o(i._ZN10QtMobility30QContactChangeLogFilterPrivateD1Ev.clean)
    i._ZN10QtMobility30QContactManagerEngineV2Wrapper11saveContactEPNS_8QContactEPNS_15QContactManager5ErrorE 0x00022a76   Section       24  moc_qcontactmanagerenginev2wrapper_p.o(i._ZN10QtMobility30QContactManagerEngineV2Wrapper11saveContactEPNS_8QContactEPNS_15QContactManager5ErrorE)
    i._ZN10QtMobility30QContactManagerEngineV2Wrapper12saveContactsEP5QListINS_8QContactEEP4QMapIiNS_15QContactManager5ErrorEEPS7_ 0x00022a8e   Section       32  moc_qcontactmanagerenginev2wrapper_p.o(i._ZN10QtMobility30QContactManagerEngineV2Wrapper12saveContactsEP5QListINS_8QContactEEP4QMapIiNS_15QContactManager5ErrorEEPS7_)
    i._ZN10QtMobility30QContactManagerEngineV2Wrapper13removeContactERKjPNS_15QContactManager5ErrorE 0x00022aae   Section       24  moc_qcontactmanagerenginev2wrapper_p.o(i._ZN10QtMobility30QContactManagerEngineV2Wrapper13removeContactERKjPNS_15QContactManager5ErrorE)
    i._ZN10QtMobility30QContactManagerEngineV2Wrapper14removeContactsERK5QListIjEP4QMapIiNS_15QContactManager5ErrorEEPS7_ 0x00022ac6   Section       32  moc_qcontactmanagerenginev2wrapper_p.o(i._ZN10QtMobility30QContactManagerEngineV2Wrapper14removeContactsERK5QListIjEP4QMapIiNS_15QContactManager5ErrorEEPS7_)
    i._ZN10QtMobility30QContactManagerEngineV2Wrapper16saveRelationshipEPNS_20QContactRelationshipEPNS_15QContactManager5ErrorE 0x00022ae6   Section       24  moc_qcontactmanagerenginev2wrapper_p.o(i._ZN10QtMobility30QContactManagerEngineV2Wrapper16saveRelationshipEPNS_20QContactRelationshipEPNS_15QContactManager5ErrorE)
    i._ZN10QtMobility30QContactManagerEngineV2Wrapper16setSelfContactIdERKjPNS_15QContactManager5ErrorE 0x00022afe   Section       24  moc_qcontactmanagerenginev2wrapper_p.o(i._ZN10QtMobility30QContactManagerEngineV2Wrapper16setSelfContactIdERKjPNS_15QContactManager5ErrorE)
    i._ZN10QtMobility30QContactManagerEngineV2Wrapper17saveRelationshipsEP5QListINS_20QContactRelationshipEEP4QMapIiNS_15QContactManager5ErrorEEPS7_ 0x00022b16   Section       32  moc_qcontactmanagerenginev2wrapper_p.o(i._ZN10QtMobility30QContactManagerEngineV2Wrapper17saveRelationshipsEP5QListINS_20QContactRelationshipEEP4QMapIiNS_15QContactManager5ErrorEEPS7_)
    i._ZN10QtMobility30QContactManagerEngineV2Wrapper18removeRelationshipERKNS_20QContactRelationshipEPNS_15QContactManager5ErrorE 0x00022b36   Section       24  moc_qcontactmanagerenginev2wrapper_p.o(i._ZN10QtMobility30QContactManagerEngineV2Wrapper18removeRelationshipERKNS_20QContactRelationshipEPNS_15QContactManager5ErrorE)
    i._ZN10QtMobility30QContactManagerEngineV2Wrapper19removeRelationshipsERK5QListINS_20QContactRelationshipEEP4QMapIiNS_15QContactManager5ErrorEEPS8_ 0x00022b4e   Section       32  moc_qcontactmanagerenginev2wrapper_p.o(i._ZN10QtMobility30QContactManagerEngineV2Wrapper19removeRelationshipsERK5QListINS_20QContactRelationshipEEP4QMapIiNS_15QContactManager5ErrorEEPS8_)
    i._ZN10QtMobility30QContactManagerEngineV2Wrapper20saveDetailDefinitionERKNS_24QContactDetailDefinitionERK7QStringPNS_15QContactManager5ErrorE 0x00022b6e   Section       34  moc_qcontactmanagerenginev2wrapper_p.o(i._ZN10QtMobility30QContactManagerEngineV2Wrapper20saveDetailDefinitionERKNS_24QContactDetailDefinitionERK7QStringPNS_15QContactManager5ErrorE)
    i._ZN10QtMobility30QContactManagerEngineV2Wrapper22removeDetailDefinitionERK7QStringS3_PNS_15QContactManager5ErrorE 0x00022b90   Section       34  moc_qcontactmanagerenginev2wrapper_p.o(i._ZN10QtMobility30QContactManagerEngineV2Wrapper22removeDetailDefinitionERK7QStringS3_PNS_15QContactManager5ErrorE)
    i._ZN10QtMobility31QContactActionDescriptorPrivateD1Ev 0x00022bb2   Section       40  qcontactactiondescriptor.o(i._ZN10QtMobility31QContactActionDescriptorPrivateD1Ev)
    i._ZN10QtMobility31QContactActionDescriptorPrivateD1Ev.clean 0x00022bda   Section       22  qcontactactiondescriptor.o(i._ZN10QtMobility31QContactActionDescriptorPrivateD1Ev.clean)
    i._ZN10QtMobility31QContactFetchByIdRequestPrivateC1Ev 0x00022bf0   Section      160  qcontactfetchbyidrequest.o(i._ZN10QtMobility31QContactFetchByIdRequestPrivateC1Ev)
    i._ZN10QtMobility31QContactFetchByIdRequestPrivateC1Ev.clean 0x00022c90   Section       70  qcontactfetchbyidrequest.o(i._ZN10QtMobility31QContactFetchByIdRequestPrivateC1Ev.clean)
    i._ZN10QtMobility31QContactFetchByIdRequestPrivateD0Ev 0x00022cd6   Section       22  qcontactmanagerengine.o(i._ZN10QtMobility31QContactFetchByIdRequestPrivateD0Ev)
    i._ZN10QtMobility31QContactFetchByIdRequestPrivateD1Ev 0x00022cec   Section       72  qcontactmanagerengine.o(i._ZN10QtMobility31QContactFetchByIdRequestPrivateD1Ev)
    i._ZN10QtMobility31QContactFetchByIdRequestPrivateD1Ev.clean 0x00022d34   Section       46  qcontactmanagerengine.o(i._ZN10QtMobility31QContactFetchByIdRequestPrivateD1Ev.clean)
    i._ZN10QtMobility32QContactDetailRangeFilterPrivate14copyIfPossibleER18QSharedDataPointerINS_21QContactFilterPrivateEERKNS_14QContactFilterE 0x00022d62   Section      168  qcontactdetailrangefilter.o(i._ZN10QtMobility32QContactDetailRangeFilterPrivate14copyIfPossibleER18QSharedDataPointerINS_21QContactFilterPrivateEERKNS_14QContactFilterE)
    i._ZN10QtMobility32QContactDetailRangeFilterPrivate14copyIfPossibleER18QSharedDataPointerINS_21QContactFilterPrivateEERKNS_14QContactFilterE.clean 0x00022e0a   Section       14  qcontactdetailrangefilter.o(i._ZN10QtMobility32QContactDetailRangeFilterPrivate14copyIfPossibleER18QSharedDataPointerINS_21QContactFilterPrivateEERKNS_14QContactFilterE.clean)
    i._ZN10QtMobility32QContactDetailRangeFilterPrivate15inputFromStreamER11QDataStreamh 0x00022e18   Section      140  qcontactdetailrangefilter.o(i._ZN10QtMobility32QContactDetailRangeFilterPrivate15inputFromStreamER11QDataStreamh)
    i._ZN10QtMobility32QContactDetailRangeFilterPrivateC1ERKS0_ 0x00022ea4   Section      136  qcontactdetailrangefilter.o(i._ZN10QtMobility32QContactDetailRangeFilterPrivateC1ERKS0_)
    i._ZN10QtMobility32QContactDetailRangeFilterPrivateC1ERKS0_.clean 0x00022f2c   Section       46  qcontactdetailrangefilter.o(i._ZN10QtMobility32QContactDetailRangeFilterPrivateC1ERKS0_.clean)
    i._ZN10QtMobility32QContactDetailRangeFilterPrivateC1Ev 0x00022f5c   Section      112  qcontactdetailrangefilter.o(i._ZN10QtMobility32QContactDetailRangeFilterPrivateC1Ev)
    i._ZN10QtMobility32QContactDetailRangeFilterPrivateC1Ev.clean 0x00022fcc   Section       46  qcontactdetailrangefilter.o(i._ZN10QtMobility32QContactDetailRangeFilterPrivateC1Ev.clean)
    i._ZN10QtMobility32QContactDetailRangeFilterPrivateD0Ev 0x00022ffa   Section       22  qcontactdetailrangefilter.o(i._ZN10QtMobility32QContactDetailRangeFilterPrivateD0Ev)
    i._ZN10QtMobility32QContactDetailRangeFilterPrivateD1Ev 0x00023010   Section       64  qcontactdetailrangefilter.o(i._ZN10QtMobility32QContactDetailRangeFilterPrivateD1Ev)
    i._ZN10QtMobility32QContactDetailRangeFilterPrivateD1Ev.clean 0x00023050   Section       46  qcontactdetailrangefilter.o(i._ZN10QtMobility32QContactDetailRangeFilterPrivateD1Ev.clean)
    i._ZN10QtMobility33QContactIntersectionFilterPrivate14copyIfPossibleER18QSharedDataPointerINS_21QContactFilterPrivateEERKNS_14QContactFilterE 0x0002307e   Section      168  qcontactintersectionfilter.o(i._ZN10QtMobility33QContactIntersectionFilterPrivate14copyIfPossibleER18QSharedDataPointerINS_21QContactFilterPrivateEERKNS_14QContactFilterE)
    i._ZN10QtMobility33QContactIntersectionFilterPrivate14copyIfPossibleER18QSharedDataPointerINS_21QContactFilterPrivateEERKNS_14QContactFilterE.clean 0x00023126   Section       14  qcontactintersectionfilter.o(i._ZN10QtMobility33QContactIntersectionFilterPrivate14copyIfPossibleER18QSharedDataPointerINS_21QContactFilterPrivateEERKNS_14QContactFilterE.clean)
    i._ZN10QtMobility33QContactIntersectionFilterPrivate15inputFromStreamER11QDataStreamh 0x00023134   Section       26  qcontactintersectionfilter.o(i._ZN10QtMobility33QContactIntersectionFilterPrivate15inputFromStreamER11QDataStreamh)
    i._ZN10QtMobility33QContactIntersectionFilterPrivateC1Ev 0x00023150   Section       52  qcontactintersectionfilter.o(i._ZN10QtMobility33QContactIntersectionFilterPrivateC1Ev)
    i._ZN10QtMobility33QContactIntersectionFilterPrivateC1Ev.clean 0x00023184   Section       10  qcontactintersectionfilter.o(i._ZN10QtMobility33QContactIntersectionFilterPrivateC1Ev.clean)
    i._ZN10QtMobility33QContactIntersectionFilterPrivateD0Ev 0x0002318e   Section       22  qcontactintersectionfilter.o(i._ZN10QtMobility33QContactIntersectionFilterPrivateD0Ev)
    i._ZN10QtMobility33QContactIntersectionFilterPrivateD1Ev 0x000231a4   Section       28  qcontactintersectionfilter.o(i._ZN10QtMobility33QContactIntersectionFilterPrivateD1Ev)
    i._ZN10QtMobility33QContactIntersectionFilterPrivateD1Ev.clean 0x000231c0   Section       10  qcontactintersectionfilter.o(i._ZN10QtMobility33QContactIntersectionFilterPrivateD1Ev.clean)
    i._ZN10QtMobility33QContactRelationshipFilterPrivate14copyIfPossibleER18QSharedDataPointerINS_21QContactFilterPrivateEERKNS_14QContactFilterE 0x000231ca   Section      168  qcontactrelationshipfilter.o(i._ZN10QtMobility33QContactRelationshipFilterPrivate14copyIfPossibleER18QSharedDataPointerINS_21QContactFilterPrivateEERKNS_14QContactFilterE)
    i._ZN10QtMobility33QContactRelationshipFilterPrivate14copyIfPossibleER18QSharedDataPointerINS_21QContactFilterPrivateEERKNS_14QContactFilterE.clean 0x00023272   Section       14  qcontactrelationshipfilter.o(i._ZN10QtMobility33QContactRelationshipFilterPrivate14copyIfPossibleER18QSharedDataPointerINS_21QContactFilterPrivateEERKNS_14QContactFilterE.clean)
    i._ZN10QtMobility33QContactRelationshipFilterPrivate15inputFromStreamER11QDataStreamh 0x00023280   Section       52  qcontactrelationshipfilter.o(i._ZN10QtMobility33QContactRelationshipFilterPrivate15inputFromStreamER11QDataStreamh)
    i._ZN10QtMobility33QContactRelationshipFilterPrivateC1Ev 0x000232b4   Section       80  qcontactrelationshipfilter.o(i._ZN10QtMobility33QContactRelationshipFilterPrivateC1Ev)
    i._ZN10QtMobility33QContactRelationshipFilterPrivateC1Ev.clean 0x00023304   Section       22  qcontactrelationshipfilter.o(i._ZN10QtMobility33QContactRelationshipFilterPrivateC1Ev.clean)
    i._ZN10QtMobility33QContactRelationshipFilterPrivateD0Ev 0x0002331a   Section       22  qcontactrelationshipfilter.o(i._ZN10QtMobility33QContactRelationshipFilterPrivateD0Ev)
    i._ZN10QtMobility33QContactRelationshipFilterPrivateD1Ev 0x00023330   Section       40  qcontactrelationshipfilter.o(i._ZN10QtMobility33QContactRelationshipFilterPrivateD1Ev)
    i._ZN10QtMobility33QContactRelationshipFilterPrivateD1Ev.clean 0x00023358   Section       22  qcontactrelationshipfilter.o(i._ZN10QtMobility33QContactRelationshipFilterPrivateD1Ev.clean)
    i._ZN10QtMobility34QContactLocalIdFetchRequestPrivateC1Ev 0x00023370   Section      132  qcontactlocalidfetchrequest.o(i._ZN10QtMobility34QContactLocalIdFetchRequestPrivateC1Ev)
    i._ZN10QtMobility34QContactLocalIdFetchRequestPrivateC1Ev.clean 0x000233f4   Section       58  qcontactlocalidfetchrequest.o(i._ZN10QtMobility34QContactLocalIdFetchRequestPrivateC1Ev.clean)
    i._ZN10QtMobility34QContactLocalIdFetchRequestPrivateD0Ev 0x0002342e   Section       22  qcontactmanagerengine.o(i._ZN10QtMobility34QContactLocalIdFetchRequestPrivateD0Ev)
    i._ZN10QtMobility34QContactLocalIdFetchRequestPrivateD1Ev 0x00023444   Section       60  qcontactmanagerengine.o(i._ZN10QtMobility34QContactLocalIdFetchRequestPrivateD1Ev)
    i._ZN10QtMobility34QContactLocalIdFetchRequestPrivateD1Ev.clean 0x00023480   Section       34  qcontactmanagerengine.o(i._ZN10QtMobility34QContactLocalIdFetchRequestPrivateD1Ev.clean)
    i._ZN10QtMobility36QContactDetailFieldDefinitionPrivateD1Ev 0x000234a2   Section       16  qcontactdetailfielddefinition.o(i._ZN10QtMobility36QContactDetailFieldDefinitionPrivateD1Ev)
    i._ZN10QtMobility38QContactRelationshipSaveRequestPrivateC1Ev 0x000234b4   Section      120  qcontactrelationshipsaverequest.o(i._ZN10QtMobility38QContactRelationshipSaveRequestPrivateC1Ev)
    i._ZN10QtMobility38QContactRelationshipSaveRequestPrivateC1Ev.clean 0x0002352c   Section       46  qcontactrelationshipsaverequest.o(i._ZN10QtMobility38QContactRelationshipSaveRequestPrivateC1Ev.clean)
    i._ZN10QtMobility38QContactRelationshipSaveRequestPrivateD0Ev 0x0002355a   Section       22  qcontactmanagerengine.o(i._ZN10QtMobility38QContactRelationshipSaveRequestPrivateD0Ev)
    i._ZN10QtMobility38QContactRelationshipSaveRequestPrivateD1Ev 0x00023570   Section       48  qcontactmanagerengine.o(i._ZN10QtMobility38QContactRelationshipSaveRequestPrivateD1Ev)
    i._ZN10QtMobility38QContactRelationshipSaveRequestPrivateD1Ev.clean 0x000235a0   Section       22  qcontactmanagerengine.o(i._ZN10QtMobility38QContactRelationshipSaveRequestPrivateD1Ev.clean)
    i._ZN10QtMobility39QContactRelationshipFetchRequestPrivateC1Ev 0x000235b8   Section      148  qcontactrelationshipfetchrequest.o(i._ZN10QtMobility39QContactRelationshipFetchRequestPrivateC1Ev)
    i._ZN10QtMobility39QContactRelationshipFetchRequestPrivateC1Ev.clean 0x0002364c   Section       70  qcontactrelationshipfetchrequest.o(i._ZN10QtMobility39QContactRelationshipFetchRequestPrivateC1Ev.clean)
    i._ZN10QtMobility39QContactRelationshipFetchRequestPrivateD0Ev 0x00023692   Section       22  qcontactmanagerengine.o(i._ZN10QtMobility39QContactRelationshipFetchRequestPrivateD0Ev)
    i._ZN10QtMobility39QContactRelationshipFetchRequestPrivateD1Ev 0x000236a8   Section       72  qcontactmanagerengine.o(i._ZN10QtMobility39QContactRelationshipFetchRequestPrivateD1Ev)
    i._ZN10QtMobility39QContactRelationshipFetchRequestPrivateD1Ev.clean 0x000236f0   Section       46  qcontactmanagerengine.o(i._ZN10QtMobility39QContactRelationshipFetchRequestPrivateD1Ev.clean)
    i._ZN10QtMobility39qClearAllocatedStringHash__dest_class__D1Ev 0x0002371e   Section       12  qcontactdetail.o(i._ZN10QtMobility39qClearAllocatedStringHash__dest_class__D1Ev)
    i._ZN10QtMobility40QContactRelationshipRemoveRequestPrivateC1Ev 0x0002372c   Section      120  qcontactrelationshipremoverequest.o(i._ZN10QtMobility40QContactRelationshipRemoveRequestPrivateC1Ev)
    i._ZN10QtMobility40QContactRelationshipRemoveRequestPrivateC1Ev.clean 0x000237a4   Section       46  qcontactrelationshipremoverequest.o(i._ZN10QtMobility40QContactRelationshipRemoveRequestPrivateC1Ev.clean)
    i._ZN10QtMobility40QContactRelationshipRemoveRequestPrivateD0Ev 0x000237d2   Section       22  qcontactmanagerengine.o(i._ZN10QtMobility40QContactRelationshipRemoveRequestPrivateD0Ev)
    i._ZN10QtMobility40QContactRelationshipRemoveRequestPrivateD1Ev 0x000237e8   Section       48  qcontactmanagerengine.o(i._ZN10QtMobility40QContactRelationshipRemoveRequestPrivateD1Ev)
    i._ZN10QtMobility40QContactRelationshipRemoveRequestPrivateD1Ev.clean 0x00023818   Section       22  qcontactmanagerengine.o(i._ZN10QtMobility40QContactRelationshipRemoveRequestPrivateD1Ev.clean)
    i._ZN10QtMobility42QContactDetailDefinitionSaveRequestPrivateC1Ev 0x00023830   Section      184  qcontactdetaildefinitionsaverequest.o(i._ZN10QtMobility42QContactDetailDefinitionSaveRequestPrivateC1Ev)
    i._ZN10QtMobility42QContactDetailDefinitionSaveRequestPrivateC1Ev.clean 0x000238e8   Section       66  qcontactdetaildefinitionsaverequest.o(i._ZN10QtMobility42QContactDetailDefinitionSaveRequestPrivateC1Ev.clean)
    i._ZN10QtMobility42QContactDetailDefinitionSaveRequestPrivateD0Ev 0x0002392a   Section       22  qcontactmanagerengine.o(i._ZN10QtMobility42QContactDetailDefinitionSaveRequestPrivateD0Ev)
    i._ZN10QtMobility42QContactDetailDefinitionSaveRequestPrivateD1Ev 0x00023940   Section       60  qcontactmanagerengine.o(i._ZN10QtMobility42QContactDetailDefinitionSaveRequestPrivateD1Ev)
    i._ZN10QtMobility42QContactDetailDefinitionSaveRequestPrivateD1Ev.clean 0x0002397c   Section       34  qcontactmanagerengine.o(i._ZN10QtMobility42QContactDetailDefinitionSaveRequestPrivateD1Ev.clean)
    i._ZN10QtMobility43QContactDetailDefinitionFetchRequestPrivateC1Ev 0x000239a0   Section      208  qcontactdetaildefinitionfetchrequest.o(i._ZN10QtMobility43QContactDetailDefinitionFetchRequestPrivateC1Ev)
    i._ZN10QtMobility43QContactDetailDefinitionFetchRequestPrivateC1Ev.clean 0x00023a70   Section       78  qcontactdetaildefinitionfetchrequest.o(i._ZN10QtMobility43QContactDetailDefinitionFetchRequestPrivateC1Ev.clean)
    i._ZN10QtMobility43QContactDetailDefinitionFetchRequestPrivateD0Ev 0x00023abe   Section       22  qcontactmanagerengine.o(i._ZN10QtMobility43QContactDetailDefinitionFetchRequestPrivateD0Ev)
    i._ZN10QtMobility43QContactDetailDefinitionFetchRequestPrivateD1Ev 0x00023ad4   Section       72  qcontactmanagerengine.o(i._ZN10QtMobility43QContactDetailDefinitionFetchRequestPrivateD1Ev)
    i._ZN10QtMobility43QContactDetailDefinitionFetchRequestPrivateD1Ev.clean 0x00023b1c   Section       46  qcontactmanagerengine.o(i._ZN10QtMobility43QContactDetailDefinitionFetchRequestPrivateD1Ev.clean)
    i._ZN10QtMobility44QContactDetailDefinitionRemoveRequestPrivateC1Ev 0x00023b4c   Section      188  qcontactdetaildefinitionremoverequest.o(i._ZN10QtMobility44QContactDetailDefinitionRemoveRequestPrivateC1Ev)
    i._ZN10QtMobility44QContactDetailDefinitionRemoveRequestPrivateC1Ev.clean 0x00023c08   Section       66  qcontactdetaildefinitionremoverequest.o(i._ZN10QtMobility44QContactDetailDefinitionRemoveRequestPrivateC1Ev.clean)
    i._ZN10QtMobility44QContactDetailDefinitionRemoveRequestPrivateD0Ev 0x00023c4a   Section       22  qcontactmanagerengine.o(i._ZN10QtMobility44QContactDetailDefinitionRemoveRequestPrivateD0Ev)
    i._ZN10QtMobility44QContactDetailDefinitionRemoveRequestPrivateD1Ev 0x00023c60   Section       60  qcontactmanagerengine.o(i._ZN10QtMobility44QContactDetailDefinitionRemoveRequestPrivateD1Ev)
    i._ZN10QtMobility44QContactDetailDefinitionRemoveRequestPrivateD1Ev.clean 0x00023c9c   Section       34  qcontactmanagerengine.o(i._ZN10QtMobility44QContactDetailDefinitionRemoveRequestPrivateD1Ev.clean)
    i._ZN11QDataStreamlsEj                   0x00023cbe   Section       16  qcontactdetail.o(i._ZN11QDataStreamlsEj)
    i._ZN11QStringListC1ERKS_                0x00023cce   Section       38  qcontactfetchhint.o(i._ZN11QStringListC1ERKS_)
    i._ZN11QStringListC1Ev                   0x00023cf4   Section       14  qcontactfetchhint.o(i._ZN11QStringListC1Ev)
    i._ZN11QStringListD1Ev                   0x00023d02   Section       14  qcontact.o(i._ZN11QStringListD1Ev)
    i._ZN11QStringListlsERK7QString          0x00023d10   Section       18  qcontactdetails.o(i._ZN11QStringListlsERK7QString)
    i._ZN12QMapIteratorI7QString8QVariantED1Ev 0x00023d22   Section       14  qcontactdetail.o(i._ZN12QMapIteratorI7QString8QVariantED1Ev)
    i._ZN12QMapIteratorI7QStringN10QtMobility29QContactDetailFieldDefinitionEED1Ev 0x00023d30   Section       14  qcontactmanagerengine.o(i._ZN12QMapIteratorI7QStringN10QtMobility29QContactDetailFieldDefinitionEED1Ev)
    i._ZN12QMutexLocker6unlockEv             0x00023d3e   Section       38  qcontactabstractrequest.o(i._ZN12QMutexLocker6unlockEv)
    i._ZN12QMutexLockerC1EP6QMutex           0x00023d64   Section       34  qcontactabstractrequest.o(i._ZN12QMutexLockerC1EP6QMutex)
    i._ZN12QMutexLockerD1Ev                  0x00023d86   Section       14  qcontactabstractrequest.o(i._ZN12QMutexLockerD1Ev)
    i._ZN13QListIteratorI8QVariantED1Ev      0x00023d94   Section       14  qcontactmanagerengine.o(i._ZN13QListIteratorI8QVariantED1Ev)
    i._ZN15QBasicAtomicInt3refEv             0x00023da2   Section       24  qcontact.o(i._ZN15QBasicAtomicInt3refEv)
    i._ZN15QBasicAtomicInt5derefEv           0x00023dba   Section       24  moc_qcontactmanagerenginev2wrapper_p.o(i._ZN15QBasicAtomicInt5derefEv)
    i._ZN17QForeachContainerI11QStringListED1Ev 0x00023dd2   Section       14  qcontactdetails.o(i._ZN17QForeachContainerI11QStringListED1Ev)
    i._ZN17QForeachContainerI4QSetI7QStringEED1Ev 0x00023de0   Section       14  qcontactmanagerengine.o(i._ZN17QForeachContainerI4QSetI7QStringEED1Ev)
    i._ZN17QForeachContainerI4QSetIPN10QtMobility15QContactManagerEEED1Ev 0x00023dee   Section       14  qcontactmanager_p.o(i._ZN17QForeachContainerI4QSetIPN10QtMobility15QContactManagerEEED1Ev)
    i._ZN17QForeachContainerI5QListIN10QtMobility14QContactDetailEEED1Ev 0x00023dfc   Section       14  qcontact.o(i._ZN17QForeachContainerI5QListIN10QtMobility14QContactDetailEEED1Ev)
    i._ZN17QForeachContainerI5QListIN10QtMobility17QContactSortOrderEEED1Ev 0x00023e0a   Section       14  qcontactmanagerengine.o(i._ZN17QForeachContainerI5QListIN10QtMobility17QContactSortOrderEEED1Ev)
    i._ZN17QForeachContainerI5QListIN10QtMobility20QContactRelationshipEEED1Ev 0x00023e18   Section       14  qcontactmanagerengine.o(i._ZN17QForeachContainerI5QListIN10QtMobility20QContactRelationshipEEED1Ev)
    i._ZN17QForeachContainerI5QListIN10QtMobility24QContactActionDescriptorEEED1Ev 0x00023e26   Section       14  qcontact.o(i._ZN17QForeachContainerI5QListIN10QtMobility24QContactActionDescriptorEEED1Ev)
    i._ZN17QForeachContainerI5QListIN10QtMobility8QContactEEED1Ev 0x00023e34   Section       14  qcontactmanagerengine.o(i._ZN17QForeachContainerI5QListIN10QtMobility8QContactEEED1Ev)
    i._ZN17QForeachContainerI5QListIPN10QtMobility21QContactManagerEngineEEED1Ev 0x00023e42   Section       14  qcontactmemorybackend.o(i._ZN17QForeachContainerI5QListIPN10QtMobility21QContactManagerEngineEEED1Ev)
    i._ZN17QForeachContainerI5QListIPN10QtMobility28QContactManagerEngineFactoryEEED1Ev 0x00023e50   Section       14  qcontactmanager_p.o(i._ZN17QForeachContainerI5QListIPN10QtMobility28QContactManagerEngineFactoryEEED1Ev)
    i._ZN17QForeachContainerI5QListIiEED1Ev  0x00023e5e   Section       14  qcontactmanager_p.o(i._ZN17QForeachContainerI5QListIiEED1Ev)
    i._ZN17QForeachContainerI5QListIjEED1Ev  0x00023e6c   Section       14  qcontactchangeset.o(i._ZN17QForeachContainerI5QListIjEED1Ev)
    i._ZN4QSetI7QStringED1Ev                 0x00023e7a   Section       14  qcontactaction.o(i._ZN4QSetI7QStringED1Ev)
    i._ZN4QSetIPN10QtMobility15QContactManagerEED1Ev 0x00023e88   Section       14  qcontactmanager_p.o(i._ZN4QSetIPN10QtMobility15QContactManagerEED1Ev)
    i._ZN4QSetIjED1Ev                        0x00023e96   Section       14  qcontactchangeset.o(i._ZN4QSetIjED1Ev)
    i._ZN6QDebug10maybeSpaceEv               0x00023ea4   Section       24  qcontact.o(i._ZN6QDebug10maybeSpaceEv)
    i._ZN6QDebugC1ERKS_                      0x00023ebc   Section       16  qcontact.o(i._ZN6QDebugC1ERKS_)
    i._ZN6QDebugD1Ev                         0x00023ecc   Section      144  qcontactdetail.o(i._ZN6QDebugD1Ev)
    i._ZN6QDebugD1Ev.clean                   0x00023f5c   Section       20  qcontactdetail.o(i._ZN6QDebugD1Ev.clean)
    i._ZN6QDebuglsEPKc                       0x00023f70   Section       44  qcontact.o(i._ZN6QDebuglsEPKc)
    i._ZN6QDebuglsEPKc.clean                 0x00023f9c   Section       10  qcontact.o(i._ZN6QDebuglsEPKc.clean)
    i._ZN6QDebuglsERK7QString                0x00023fa6   Section       38  qcontactactiondescriptor.o(i._ZN6QDebuglsERK7QString)
    i._ZN6QDebuglsEc                         0x00023fcc   Section       22  qcontactactiontarget.o(i._ZN6QDebuglsEc)
    i._ZN7QString5clearEv                    0x00023fe4   Section       56  qcontactsortorder.o(i._ZN7QString5clearEv)
    i._ZN7QString5clearEv.clean              0x0002401c   Section       10  qcontactsortorder.o(i._ZN7QString5clearEv.clean)
    i._ZN7QStringC1ERK13QLatin1String        0x00024026   Section       26  qcontactmanager_p.o(i._ZN7QStringC1ERK13QLatin1String)
    i._ZN7QStringC1ERKS_                     0x00024040   Section       22  qcontact.o(i._ZN7QStringC1ERKS_)
    i._ZN7QStringC1Ev                        0x00024058   Section       24  qcontact.o(i._ZN7QStringC1Ev)
    i._ZN7QStringD1Ev                        0x00024070   Section       24  qcontact.o(i._ZN7QStringD1Ev)
    i._ZN8QVariantC1Ev                       0x00024088   Section       38  qcontactdetail.o(i._ZN8QVariantC1Ev)
    i._ZN9QHashData8willGrowEv               0x000240ae   Section       32  qcontactdetail.o(i._ZN9QHashData8willGrowEv)
    i._ZN9QHashData9firstNodeEv              0x000240ce   Section       36  qcontactactionmanager_p.o(i._ZN9QHashData9firstNodeEv)
    i._ZNK10QtMobility12QContactName11customLabelEv 0x000240f4   Section       32  qcontactmanagerengine.o(i._ZNK10QtMobility12QContactName11customLabelEv)
    i._ZNK10QtMobility15ContactLessThanclERKNS_8QContactES3_ 0x00024114   Section       22  qcontactmanagerengine.o(i._ZNK10QtMobility15ContactLessThanclERKNS_8QContactES3_)
    i._ZNK10QtMobility20QContactMemoryEngine14managerVersionEv 0x0002412a   Section        6  qcontactmemorybackend.o(i._ZNK10QtMobility20QContactMemoryEngine14managerVersionEv)
    i._ZNK10QtMobility20QContactMemoryEngine15validateContactERKNS_8QContactEPNS_15QContactManager5ErrorE 0x00024130   Section       20  qcontactmemorybackend.o(i._ZNK10QtMobility20QContactMemoryEngine15validateContactERKNS_8QContactEPNS_15QContactManager5ErrorE)
    i._ZNK10QtMobility20QContactMemoryEngine16detailDefinitionERK7QStringS3_PNS_15QContactManager5ErrorE 0x00024144   Section       30  qcontactmemorybackend.o(i._ZNK10QtMobility20QContactMemoryEngine16detailDefinitionERK7QStringS3_PNS_15QContactManager5ErrorE)
    i._ZNK10QtMobility20QContactMemoryEngine17compatibleContactERKNS_8QContactEPNS_15QContactManager5ErrorE 0x00024162   Section       24  qcontactmemorybackend.o(i._ZNK10QtMobility20QContactMemoryEngine17compatibleContactERKNS_8QContactEPNS_15QContactManager5ErrorE)
    i._ZNK10QtMobility20QContactMemoryEngine18validateDefinitionERKNS_24QContactDetailDefinitionEPNS_15QContactManager5ErrorE 0x0002417a   Section       20  qcontactmemorybackend.o(i._ZNK10QtMobility20QContactMemoryEngine18validateDefinitionERKNS_24QContactDetailDefinitionEPNS_15QContactManager5ErrorE)
    i._ZNK10QtMobility20QContactMemoryEngine21supportedContactTypesEv 0x0002418e   Section       16  qcontactmemorybackend.o(i._ZNK10QtMobility20QContactMemoryEngine21supportedContactTypesEv)
    i._ZNK10QtMobility20QContactMemoryEngine23synthesizedDisplayLabelERKNS_8QContactEPNS_15QContactManager5ErrorE 0x0002419e   Section       24  qcontactmemorybackend.o(i._ZNK10QtMobility20QContactMemoryEngine23synthesizedDisplayLabelERKNS_8QContactEPNS_15QContactManager5ErrorE)
    i._ZNK10QtMobility20QContactOrganization4nameEv 0x000241b8   Section       32  qcontactmanagerengine.o(i._ZNK10QtMobility20QContactOrganization4nameEv)
    i._ZNK10QtMobility20QContactStringHolder9toQStringEv 0x000241d8   Section      128  qcontactdetail.o(i._ZNK10QtMobility20QContactStringHolder9toQStringEv)
    i._ZNK10QtMobility20QContactStringHolder9toQStringEv.clean 0x00024258   Section       16  qcontactdetail.o(i._ZNK10QtMobility20QContactStringHolder9toQStringEv.clean)
    i._ZNK10QtMobility20QContactStringHoldereqEPKc 0x00024268   Section       32  qcontact.o(i._ZNK10QtMobility20QContactStringHoldereqEPKc)
    i._ZNK10QtMobility20QContactStringHoldereqERK7QString 0x00024288   Section       56  qcontactdetail.o(i._ZNK10QtMobility20QContactStringHoldereqERK7QString)
    i._ZNK10QtMobility20QContactStringHoldereqERKS0_ 0x000242c0   Section       34  qcontactdetail.o(i._ZNK10QtMobility20QContactStringHoldereqERKS0_)
    i._ZNK10QtMobility21QContactInvalidEngine14managerVersionEv 0x000242e2   Section        6  qcontactinvalidbackend.o(i._ZNK10QtMobility21QContactInvalidEngine14managerVersionEv)
    i._ZNK10QtMobility21QContactInvalidEngine17compatibleContactERKNS_8QContactEPNS_15QContactManager5ErrorE 0x000242e8   Section       24  qcontactinvalidbackend.o(i._ZNK10QtMobility21QContactInvalidEngine17compatibleContactERKNS_8QContactEPNS_15QContactManager5ErrorE)
    i._ZNK10QtMobility21QContactInvalidEngine23synthesizedDisplayLabelERKNS_8QContactEPNS_15QContactManager5ErrorE 0x00024300   Section       48  qcontactinvalidbackend.o(i._ZNK10QtMobility21QContactInvalidEngine23synthesizedDisplayLabelERKNS_8QContactEPNS_15QContactManager5ErrorE)
    i._ZNK10QtMobility26QContactSaveRequestPrivate4typeEv 0x00024330   Section        6  qcontactmanagerengine.o(i._ZNK10QtMobility26QContactSaveRequestPrivate4typeEv)
    i._ZNK10QtMobility26QContactUnionFilterPrivate14outputToStreamER11QDataStreamh 0x00024336   Section       26  qcontactunionfilter.o(i._ZNK10QtMobility26QContactUnionFilterPrivate14outputToStreamER11QDataStreamh)
    i._ZNK10QtMobility26QContactUnionFilterPrivate4typeEv 0x00024350   Section        6  qcontactunionfilter.o(i._ZNK10QtMobility26QContactUnionFilterPrivate4typeEv)
    i._ZNK10QtMobility26QContactUnionFilterPrivate5cloneEv 0x00024358   Section       88  qcontactunionfilter.o(i._ZNK10QtMobility26QContactUnionFilterPrivate5cloneEv)
    i._ZNK10QtMobility26QContactUnionFilterPrivate5cloneEv.clean 0x000243b0   Section       24  qcontactunionfilter.o(i._ZNK10QtMobility26QContactUnionFilterPrivate5cloneEv.clean)
    i._ZNK10QtMobility26QContactUnionFilterPrivate7compareEPKNS_21QContactFilterPrivateE 0x000243c8   Section       44  qcontactunionfilter.o(i._ZNK10QtMobility26QContactUnionFilterPrivate7compareEPKNS_21QContactFilterPrivateE)
    i._ZNK10QtMobility27QContactActionFilterPrivate14outputToStreamER11QDataStreamh 0x000243f4   Section       26  qcontactactionfilter.o(i._ZNK10QtMobility27QContactActionFilterPrivate14outputToStreamER11QDataStreamh)
    i._ZNK10QtMobility27QContactActionFilterPrivate4typeEv 0x0002440e   Section        6  qcontactactionfilter.o(i._ZNK10QtMobility27QContactActionFilterPrivate4typeEv)
    i._ZNK10QtMobility27QContactActionFilterPrivate5cloneEv 0x00024414   Section       88  qcontactactionfilter.o(i._ZNK10QtMobility27QContactActionFilterPrivate5cloneEv)
    i._ZNK10QtMobility27QContactActionFilterPrivate5cloneEv.clean 0x0002446c   Section       24  qcontactactionfilter.o(i._ZNK10QtMobility27QContactActionFilterPrivate5cloneEv.clean)
    i._ZNK10QtMobility27QContactActionFilterPrivate7compareEPKNS_21QContactFilterPrivateE 0x00024484   Section       44  qcontactactionfilter.o(i._ZNK10QtMobility27QContactActionFilterPrivate7compareEPKNS_21QContactFilterPrivateE)
    i._ZNK10QtMobility27QContactDetailFilterPrivate14outputToStreamER11QDataStreamh 0x000244b0   Section       62  qcontactdetailfilter.o(i._ZNK10QtMobility27QContactDetailFilterPrivate14outputToStreamER11QDataStreamh)
    i._ZNK10QtMobility27QContactDetailFilterPrivate4typeEv 0x000244ee   Section        6  qcontactdetailfilter.o(i._ZNK10QtMobility27QContactDetailFilterPrivate4typeEv)
    i._ZNK10QtMobility27QContactDetailFilterPrivate5cloneEv 0x000244f4   Section      140  qcontactdetailfilter.o(i._ZNK10QtMobility27QContactDetailFilterPrivate5cloneEv)
    i._ZNK10QtMobility27QContactDetailFilterPrivate5cloneEv.clean 0x00024580   Section       48  qcontactdetailfilter.o(i._ZNK10QtMobility27QContactDetailFilterPrivate5cloneEv.clean)
    i._ZNK10QtMobility27QContactDetailFilterPrivate7compareEPKNS_21QContactFilterPrivateE 0x000245b0   Section      100  qcontactdetailfilter.o(i._ZNK10QtMobility27QContactDetailFilterPrivate7compareEPKNS_21QContactFilterPrivateE)
    i._ZNK10QtMobility27QContactFetchRequestPrivate4typeEv 0x00024614   Section        6  qcontactmanagerengine.o(i._ZNK10QtMobility27QContactFetchRequestPrivate4typeEv)
    i._ZNK10QtMobility28QContactInvalidFilterPrivate14outputToStreamER11QDataStreamh 0x0002461a   Section       12  qcontactinvalidfilter.o(i._ZNK10QtMobility28QContactInvalidFilterPrivate14outputToStreamER11QDataStreamh)
    i._ZNK10QtMobility28QContactInvalidFilterPrivate4typeEv 0x00024626   Section        6  qcontactinvalidfilter.o(i._ZNK10QtMobility28QContactInvalidFilterPrivate4typeEv)
    i._ZNK10QtMobility28QContactInvalidFilterPrivate5cloneEv 0x0002462c   Section       30  qcontactinvalidfilter.o(i._ZNK10QtMobility28QContactInvalidFilterPrivate5cloneEv)
    i._ZNK10QtMobility28QContactInvalidFilterPrivate5cloneEv.clean 0x0002464a   Section       14  qcontactinvalidfilter.o(i._ZNK10QtMobility28QContactInvalidFilterPrivate5cloneEv.clean)
    i._ZNK10QtMobility28QContactInvalidFilterPrivate7compareEPKNS_21QContactFilterPrivateE 0x00024658   Section        6  qcontactinvalidfilter.o(i._ZNK10QtMobility28QContactInvalidFilterPrivate7compareEPKNS_21QContactFilterPrivateE)
    i._ZNK10QtMobility28QContactLocalIdFilterPrivate14outputToStreamER11QDataStreamh 0x0002465e   Section       26  qcontactlocalidfilter.o(i._ZNK10QtMobility28QContactLocalIdFilterPrivate14outputToStreamER11QDataStreamh)
    i._ZNK10QtMobility28QContactLocalIdFilterPrivate4typeEv 0x00024678   Section        6  qcontactlocalidfilter.o(i._ZNK10QtMobility28QContactLocalIdFilterPrivate4typeEv)
    i._ZNK10QtMobility28QContactLocalIdFilterPrivate5cloneEv 0x00024680   Section       88  qcontactlocalidfilter.o(i._ZNK10QtMobility28QContactLocalIdFilterPrivate5cloneEv)
    i._ZNK10QtMobility28QContactLocalIdFilterPrivate5cloneEv.clean 0x000246d8   Section       24  qcontactlocalidfilter.o(i._ZNK10QtMobility28QContactLocalIdFilterPrivate5cloneEv.clean)
    i._ZNK10QtMobility28QContactLocalIdFilterPrivate7compareEPKNS_21QContactFilterPrivateE 0x000246f0   Section       44  qcontactlocalidfilter.o(i._ZNK10QtMobility28QContactLocalIdFilterPrivate7compareEPKNS_21QContactFilterPrivateE)
    i._ZNK10QtMobility28QContactRemoveRequestPrivate4typeEv 0x0002471c   Section        6  qcontactmanagerengine.o(i._ZNK10QtMobility28QContactRemoveRequestPrivate4typeEv)
    i._ZNK10QtMobility30QContactAbstractRequestPrivate4typeEv 0x00024722   Section        6  qcontactabstractrequest.o(i._ZNK10QtMobility30QContactAbstractRequestPrivate4typeEv)
    i._ZNK10QtMobility30QContactChangeLogFilterPrivate14outputToStreamER11QDataStreamh 0x00024728   Section       38  qcontactchangelogfilter.o(i._ZNK10QtMobility30QContactChangeLogFilterPrivate14outputToStreamER11QDataStreamh)
    i._ZNK10QtMobility30QContactChangeLogFilterPrivate4typeEv 0x0002474e   Section        6  qcontactchangelogfilter.o(i._ZNK10QtMobility30QContactChangeLogFilterPrivate4typeEv)
    i._ZNK10QtMobility30QContactChangeLogFilterPrivate5cloneEv 0x00024754   Section       96  qcontactchangelogfilter.o(i._ZNK10QtMobility30QContactChangeLogFilterPrivate5cloneEv)
    i._ZNK10QtMobility30QContactChangeLogFilterPrivate5cloneEv.clean 0x000247b4   Section       24  qcontactchangelogfilter.o(i._ZNK10QtMobility30QContactChangeLogFilterPrivate5cloneEv.clean)
    i._ZNK10QtMobility30QContactChangeLogFilterPrivate7compareEPKNS_21QContactFilterPrivateE 0x000247cc   Section       56  qcontactchangelogfilter.o(i._ZNK10QtMobility30QContactChangeLogFilterPrivate7compareEPKNS_21QContactFilterPrivateE)
    i._ZNK10QtMobility30QContactManagerEngineV2Wrapper10contactIdsERKNS_14QContactFilterERK5QListINS_17QContactSortOrderEEPNS_15QContactManager5ErrorE 0x00024804   Section       34  moc_qcontactmanagerenginev2wrapper_p.o(i._ZNK10QtMobility30QContactManagerEngineV2Wrapper10contactIdsERKNS_14QContactFilterERK5QListINS_17QContactSortOrderEEPNS_15QContactManager5ErrorE)
    i._ZNK10QtMobility30QContactManagerEngineV2Wrapper10hasFeatureENS_15QContactManager14ManagerFeatureERK7QString 0x00024826   Section       26  moc_qcontactmanagerenginev2wrapper_p.o(i._ZNK10QtMobility30QContactManagerEngineV2Wrapper10hasFeatureENS_15QContactManager14ManagerFeatureERK7QString)
    i._ZNK10QtMobility30QContactManagerEngineV2Wrapper11managerNameEv 0x00024840   Section       20  moc_qcontactmanagerenginev2wrapper_p.o(i._ZNK10QtMobility30QContactManagerEngineV2Wrapper11managerNameEv)
    i._ZNK10QtMobility30QContactManagerEngineV2Wrapper13relationshipsERK7QStringRKNS_10QContactIdENS_20QContactRelationship4RoleEPNS_15QContactManager5ErrorE 0x00024854   Section       36  moc_qcontactmanagerenginev2wrapper_p.o(i._ZNK10QtMobility30QContactManagerEngineV2Wrapper13relationshipsERK7QStringRKNS_10QContactIdENS_20QContactRelationship4RoleEPNS_15QContactManager5ErrorE)
    i._ZNK10QtMobility30QContactManagerEngineV2Wrapper13selfContactIdEPNS_15QContactManager5ErrorE 0x00024878   Section       20  moc_qcontactmanagerenginev2wrapper_p.o(i._ZNK10QtMobility30QContactManagerEngineV2Wrapper13selfContactIdEPNS_15QContactManager5ErrorE)
    i._ZNK10QtMobility30QContactManagerEngineV2Wrapper14managerVersionEv 0x0002488c   Section       16  moc_qcontactmanagerenginev2wrapper_p.o(i._ZNK10QtMobility30QContactManagerEngineV2Wrapper14managerVersionEv)
    i._ZNK10QtMobility30QContactManagerEngineV2Wrapper15validateContactERKNS_8QContactEPNS_15QContactManager5ErrorE 0x0002489c   Section       24  moc_qcontactmanagerenginev2wrapper_p.o(i._ZNK10QtMobility30QContactManagerEngineV2Wrapper15validateContactERKNS_8QContactEPNS_15QContactManager5ErrorE)
    i._ZNK10QtMobility30QContactManagerEngineV2Wrapper16detailDefinitionERK7QStringS3_PNS_15QContactManager5ErrorE 0x000248b4   Section       36  moc_qcontactmanagerenginev2wrapper_p.o(i._ZNK10QtMobility30QContactManagerEngineV2Wrapper16detailDefinitionERK7QStringS3_PNS_15QContactManager5ErrorE)
    i._ZNK10QtMobility30QContactManagerEngineV2Wrapper17compatibleContactERKNS_8QContactEPNS_15QContactManager5ErrorE 0x000248d8   Section       30  moc_qcontactmanagerenginev2wrapper_p.o(i._ZNK10QtMobility30QContactManagerEngineV2Wrapper17compatibleContactERKNS_8QContactEPNS_15QContactManager5ErrorE)
    i._ZNK10QtMobility30QContactManagerEngineV2Wrapper17detailDefinitionsERK7QStringPNS_15QContactManager5ErrorE 0x000248f6   Section       32  moc_qcontactmanagerenginev2wrapper_p.o(i._ZNK10QtMobility30QContactManagerEngineV2Wrapper17detailDefinitionsERK7QStringPNS_15QContactManager5ErrorE)
    i._ZNK10QtMobility30QContactManagerEngineV2Wrapper17isFilterSupportedERKNS_14QContactFilterE 0x00024916   Section       22  moc_qcontactmanagerenginev2wrapper_p.o(i._ZNK10QtMobility30QContactManagerEngineV2Wrapper17isFilterSupportedERKNS_14QContactFilterE)
    i._ZNK10QtMobility30QContactManagerEngineV2Wrapper17managerParametersEv 0x0002492c   Section       20  moc_qcontactmanagerenginev2wrapper_p.o(i._ZNK10QtMobility30QContactManagerEngineV2Wrapper17managerParametersEv)
    i._ZNK10QtMobility30QContactManagerEngineV2Wrapper18supportedDataTypesEv 0x00024940   Section       22  moc_qcontactmanagerenginev2wrapper_p.o(i._ZNK10QtMobility30QContactManagerEngineV2Wrapper18supportedDataTypesEv)
    i._ZNK10QtMobility30QContactManagerEngineV2Wrapper18validateDefinitionERKNS_24QContactDetailDefinitionEPNS_15QContactManager5ErrorE 0x00024956   Section       26  moc_qcontactmanagerenginev2wrapper_p.o(i._ZNK10QtMobility30QContactManagerEngineV2Wrapper18validateDefinitionERKNS_24QContactDetailDefinitionEPNS_15QContactManager5ErrorE)
    i._ZNK10QtMobility30QContactManagerEngineV2Wrapper21supportedContactTypesEv 0x00024970   Section       22  moc_qcontactmanagerenginev2wrapper_p.o(i._ZNK10QtMobility30QContactManagerEngineV2Wrapper21supportedContactTypesEv)
    i._ZNK10QtMobility30QContactManagerEngineV2Wrapper23synthesizedDisplayLabelERKNS_8QContactEPNS_15QContactManager5ErrorE 0x00024986   Section       30  moc_qcontactmanagerenginev2wrapper_p.o(i._ZNK10QtMobility30QContactManagerEngineV2Wrapper23synthesizedDisplayLabelERKNS_8QContactEPNS_15QContactManager5ErrorE)
    i._ZNK10QtMobility30QContactManagerEngineV2Wrapper27isRelationshipTypeSupportedERK7QStringS3_ 0x000249a4   Section       26  moc_qcontactmanagerenginev2wrapper_p.o(i._ZNK10QtMobility30QContactManagerEngineV2Wrapper27isRelationshipTypeSupportedERK7QStringS3_)
    i._ZNK10QtMobility30QContactManagerEngineV2Wrapper7contactERKjRKNS_17QContactFetchHintEPNS_15QContactManager5ErrorE 0x000249be   Section       34  moc_qcontactmanagerenginev2wrapper_p.o(i._ZNK10QtMobility30QContactManagerEngineV2Wrapper7contactERKjRKNS_17QContactFetchHintEPNS_15QContactManager5ErrorE)
    i._ZNK10QtMobility30QContactManagerEngineV2Wrapper8contactsERKNS_14QContactFilterERK5QListINS_17QContactSortOrderEERKNS_17QContactFetchHintEPNS_15QContactManager5ErrorE 0x000249e0   Section       36  moc_qcontactmanagerenginev2wrapper_p.o(i._ZNK10QtMobility30QContactManagerEngineV2Wrapper8contactsERKNS_14QContactFilterERK5QListINS_17QContactSortOrderEERKNS_17QContactFetchHintEPNS_15QContactManager5ErrorE)
    i._ZNK10QtMobility31QContactFetchByIdRequestPrivate4typeEv 0x00024a04   Section        6  qcontactmanagerengine.o(i._ZNK10QtMobility31QContactFetchByIdRequestPrivate4typeEv)
    i._ZNK10QtMobility32QContactDetailRangeFilterPrivate14outputToStreamER11QDataStreamh 0x00024a0a   Section       90  qcontactdetailrangefilter.o(i._ZNK10QtMobility32QContactDetailRangeFilterPrivate14outputToStreamER11QDataStreamh)
    i._ZNK10QtMobility32QContactDetailRangeFilterPrivate4typeEv 0x00024a64   Section        6  qcontactdetailrangefilter.o(i._ZNK10QtMobility32QContactDetailRangeFilterPrivate4typeEv)
    i._ZNK10QtMobility32QContactDetailRangeFilterPrivate5cloneEv 0x00024a6a   Section       32  qcontactdetailrangefilter.o(i._ZNK10QtMobility32QContactDetailRangeFilterPrivate5cloneEv)
    i._ZNK10QtMobility32QContactDetailRangeFilterPrivate5cloneEv.clean 0x00024a8a   Section       14  qcontactdetailrangefilter.o(i._ZNK10QtMobility32QContactDetailRangeFilterPrivate5cloneEv.clean)
    i._ZNK10QtMobility32QContactDetailRangeFilterPrivate7compareEPKNS_21QContactFilterPrivateE 0x00024a98   Section      128  qcontactdetailrangefilter.o(i._ZNK10QtMobility32QContactDetailRangeFilterPrivate7compareEPKNS_21QContactFilterPrivateE)
    i._ZNK10QtMobility33QContactIntersectionFilterPrivate14outputToStreamER11QDataStreamh 0x00024b18   Section       26  qcontactintersectionfilter.o(i._ZNK10QtMobility33QContactIntersectionFilterPrivate14outputToStreamER11QDataStreamh)
    i._ZNK10QtMobility33QContactIntersectionFilterPrivate4typeEv 0x00024b32   Section        6  qcontactintersectionfilter.o(i._ZNK10QtMobility33QContactIntersectionFilterPrivate4typeEv)
    i._ZNK10QtMobility33QContactIntersectionFilterPrivate5cloneEv 0x00024b38   Section       88  qcontactintersectionfilter.o(i._ZNK10QtMobility33QContactIntersectionFilterPrivate5cloneEv)
    i._ZNK10QtMobility33QContactIntersectionFilterPrivate5cloneEv.clean 0x00024b90   Section       24  qcontactintersectionfilter.o(i._ZNK10QtMobility33QContactIntersectionFilterPrivate5cloneEv.clean)
    i._ZNK10QtMobility33QContactIntersectionFilterPrivate7compareEPKNS_21QContactFilterPrivateE 0x00024ba8   Section       44  qcontactintersectionfilter.o(i._ZNK10QtMobility33QContactIntersectionFilterPrivate7compareEPKNS_21QContactFilterPrivateE)
    i._ZNK10QtMobility33QContactRelationshipFilterPrivate14outputToStreamER11QDataStreamh 0x00024bd4   Section       50  qcontactrelationshipfilter.o(i._ZNK10QtMobility33QContactRelationshipFilterPrivate14outputToStreamER11QDataStreamh)
    i._ZNK10QtMobility33QContactRelationshipFilterPrivate4typeEv 0x00024c06   Section        6  qcontactrelationshipfilter.o(i._ZNK10QtMobility33QContactRelationshipFilterPrivate4typeEv)
    i._ZNK10QtMobility33QContactRelationshipFilterPrivate5cloneEv 0x00024c0c   Section      112  qcontactrelationshipfilter.o(i._ZNK10QtMobility33QContactRelationshipFilterPrivate5cloneEv)
    i._ZNK10QtMobility33QContactRelationshipFilterPrivate5cloneEv.clean 0x00024c7c   Section       36  qcontactrelationshipfilter.o(i._ZNK10QtMobility33QContactRelationshipFilterPrivate5cloneEv.clean)
    i._ZNK10QtMobility33QContactRelationshipFilterPrivate7compareEPKNS_21QContactFilterPrivateE 0x00024ca0   Section       76  qcontactrelationshipfilter.o(i._ZNK10QtMobility33QContactRelationshipFilterPrivate7compareEPKNS_21QContactFilterPrivateE)
    i._ZNK10QtMobility34QContactLocalIdFetchRequestPrivate4typeEv 0x00024cec   Section        6  qcontactmanagerengine.o(i._ZNK10QtMobility34QContactLocalIdFetchRequestPrivate4typeEv)
    i._ZNK10QtMobility38QContactRelationshipSaveRequestPrivate4typeEv 0x00024cf2   Section        6  qcontactmanagerengine.o(i._ZNK10QtMobility38QContactRelationshipSaveRequestPrivate4typeEv)
    i._ZNK10QtMobility39QContactRelationshipFetchRequestPrivate4typeEv 0x00024cf8   Section        6  qcontactmanagerengine.o(i._ZNK10QtMobility39QContactRelationshipFetchRequestPrivate4typeEv)
    i._ZNK10QtMobility40QContactRelationshipRemoveRequestPrivate4typeEv 0x00024cfe   Section        6  qcontactmanagerengine.o(i._ZNK10QtMobility40QContactRelationshipRemoveRequestPrivate4typeEv)
    i._ZNK10QtMobility42QContactDetailDefinitionSaveRequestPrivate4typeEv 0x00024d04   Section        6  qcontactmanagerengine.o(i._ZNK10QtMobility42QContactDetailDefinitionSaveRequestPrivate4typeEv)
    i._ZNK10QtMobility43QContactDetailDefinitionFetchRequestPrivate4typeEv 0x00024d0a   Section        6  qcontactmanagerengine.o(i._ZNK10QtMobility43QContactDetailDefinitionFetchRequestPrivate4typeEv)
    i._ZNK10QtMobility44QContactDetailDefinitionRemoveRequestPrivate4typeEv 0x00024d10   Section        6  qcontactmanagerengine.o(i._ZNK10QtMobility44QContactDetailDefinitionRemoveRequestPrivate4typeEv)
    i._ZNK11QStringList8containsERK7QStringN2Qt15CaseSensitivityE 0x00024d16   Section       22  qcontactmanager.o(i._ZNK11QStringList8containsERK7QStringN2Qt15CaseSensitivityE)
    i._ZNK15QBasicAtomicInteqEi              0x00024d2c   Section       16  qcontact.o(i._ZNK15QBasicAtomicInteqEi)
    i._ZNK15QBasicAtomicIntneEi              0x00024d3c   Section       16  qcontact.o(i._ZNK15QBasicAtomicIntneEi)
    i._ZNK5QBoolcvPKvEv                      0x00024d4c   Section       16  qcontact.o(i._ZNK5QBoolcvPKvEv)
    i._ZNK7QString7isEmptyEv                 0x00024d5c   Section       18  qcontact.o(i._ZNK7QString7isEmptyEv)
    i._ZNK7QString8containsERKS_N2Qt15CaseSensitivityE 0x00024d6e   Section       38  qcontactmanagerengine.o(i._ZNK7QString8containsERKS_N2Qt15CaseSensitivityE)
    i._ZNK7QStringneERK13QLatin1String       0x00024d94   Section       20  qcontactmanager_p.o(i._ZNK7QStringneERK13QLatin1String)
    i._ZNK7QStringneERKS_                    0x00024da8   Section       20  qcontactmemorybackend.o(i._ZNK7QStringneERKS_)
    i._ZNK8QVariant7isValidEv                0x00024dbc   Section       18  qcontactdetail.o(i._ZNK8QVariant7isValidEv)
    i._ZNK8QVariantneERKS_                   0x00024dce   Section       20  qcontactdetailrangefilter.o(i._ZNK8QVariantneERKS_)
    i._ZNK9QDateTimeleERKS_                  0x00024de2   Section       20  qcontactmanagerengine.o(i._ZNK9QDateTimeleERKS_)
    i._ZNK9QListData2atEi                    0x00024df6   Section       20  qcontact.o(i._ZNK9QListData2atEi)
    i._ZNK9QListData3endEv                   0x00024e0a   Section       16  qcontact.o(i._ZNK9QListData3endEv)
    i._ZNK9QListData4sizeEv                  0x00024e1a   Section       14  qcontact.o(i._ZNK9QListData4sizeEv)
    i._ZNK9QListData5beginEv                 0x00024e28   Section       16  qcontact.o(i._ZNK9QListData5beginEv)
    i._ZNK9QListData7isEmptyEv               0x00024e38   Section       22  qcontactmanager.o(i._ZNK9QListData7isEmptyEv)
    i._ZdlPvS_                               0x00024e4e   Section        2  qcontact.o(i._ZdlPvS_)
    i._Zeq5QCharS_                           0x00024e50   Section       24  qcontactmanagerengine.o(i._Zeq5QCharS_)
    i._ZnwjPv                                0x00024e68   Section        6  qcontact.o(i._ZnwjPv)
    i._ZplRK7QString5QChar                   0x00024e6e   Section      128  qcontactmanager.o(i._ZplRK7QString5QChar)
    i._ZplRK7QString5QChar.clean             0x00024eee   Section       10  qcontactmanager.o(i._ZplRK7QString5QChar.clean)
    i._ZplRK7QStringS1_                      0x00024ef8   Section       44  qcontactmanager.o(i._ZplRK7QStringS1_)
    i._ZplRK7QStringS1_.clean                0x00024f24   Section       10  qcontactmanager.o(i._ZplRK7QStringS1_.clean)
    t._Z11qLowerBoundIN5QListIN10QtMobility8QContactEE8iteratorES2_NS1_15ContactLessThanEET_S6_S6_RKT0_T1_ 0x00024f2e   Section       48  qcontactmanagerengine.o(t._Z11qLowerBoundIN5QListIN10QtMobility8QContactEE8iteratorES2_NS1_15ContactLessThanEET_S6_S6_RKT0_T1_)
    t._Z11qUpperBoundIN5QListIN10QtMobility8QContactEE8iteratorES2_NS1_15ContactLessThanEET_S6_S6_RKT0_T1_ 0x00024f5e   Section       48  qcontactmanagerengine.o(t._Z11qUpperBoundIN5QListIN10QtMobility8QContactEE8iteratorES2_NS1_15ContactLessThanEET_S6_S6_RKT0_T1_)
    t._Z12qobject_castIPN10QtMobility28QContactManagerEngineFactoryEET_P7QObject 0x00024f90   Section       76  qcontactmanager_p.o(t._Z12qobject_castIPN10QtMobility28QContactManagerEngineFactoryEET_P7QObject)
    t._Z15qMapLessThanKeyI7QStringEbRKT_S3_  0x00024fdc   Section       16  qcontact.o(t._Z15qMapLessThanKeyI7QStringEbRKT_S3_)
    t._Z15qMapLessThanKeyIiEbRKT_S2_         0x00024fec   Section       18  qcontactmanagerengine.o(t._Z15qMapLessThanKeyIiEbRKT_S2_)
    t._Z15qMapLessThanKeyIjEbRKT_S2_         0x00024ffe   Section       18  qcontactmemorybackend.o(t._Z15qMapLessThanKeyIjEbRKT_S2_)
    t._Z20qForeachContainerNewI5QListIN10QtMobility14QContactDetailEEE17QForeachContainerIT_ERKS5_ 0x00025010   Section      102  qcontact.o(t._Z20qForeachContainerNewI5QListIN10QtMobility14QContactDetailEEE17QForeachContainerIT_ERKS5_)
    t._Z20qForeachContainerNewI5QListIN10QtMobility14QContactDetailEEE17QForeachContainerIT_ERKS5_.clean 0x00025076   Section       10  qcontact.o(t._Z20qForeachContainerNewI5QListIN10QtMobility14QContactDetailEEE17QForeachContainerIT_ERKS5_.clean)
    t._Z20qForeachContainerNewI5QListIN10QtMobility8QContactEEE17QForeachContainerIT_ERKS5_ 0x00025080   Section      126  qcontactmemorybackend.o(t._Z20qForeachContainerNewI5QListIN10QtMobility8QContactEEE17QForeachContainerIT_ERKS5_)
    t._Z20qForeachContainerNewI5QListIN10QtMobility8QContactEEE17QForeachContainerIT_ERKS5_.clean 0x000250fe   Section       10  qcontactmemorybackend.o(t._Z20qForeachContainerNewI5QListIN10QtMobility8QContactEEE17QForeachContainerIT_ERKS5_.clean)
    t._Z20qForeachContainerNewI5QListIPN10QtMobility28QContactManagerEngineFactoryEEE17QForeachContainerIT_ERKS6_ 0x00025108   Section      126  qcontactmanager_p.o(t._Z20qForeachContainerNewI5QListIPN10QtMobility28QContactManagerEngineFactoryEEE17QForeachContainerIT_ERKS6_)
    t._Z20qForeachContainerNewI5QListIPN10QtMobility28QContactManagerEngineFactoryEEE17QForeachContainerIT_ERKS6_.clean 0x00025186   Section       10  qcontactmanager_p.o(t._Z20qForeachContainerNewI5QListIPN10QtMobility28QContactManagerEngineFactoryEEE17QForeachContainerIT_ERKS6_.clean)
    t._Z20qForeachContainerNewI5QListIjEE17QForeachContainerIT_ERKS3_ 0x00025190   Section      126  qcontactchangeset.o(t._Z20qForeachContainerNewI5QListIjEE17QForeachContainerIT_ERKS3_)
    t._Z20qForeachContainerNewI5QListIjEE17QForeachContainerIT_ERKS3_.clean 0x0002520e   Section       10  qcontactchangeset.o(t._Z20qForeachContainerNewI5QListIjEE17QForeachContainerIT_ERKS3_.clean)
    t._Z5qSwapIN10QtMobility8QContactEEvRT_S3_ 0x00025218   Section       38  qcontactmanagerengine.o(t._Z5qSwapIN10QtMobility8QContactEEvRT_S3_)
    t._Z5qSwapIN10QtMobility8QContactEEvRT_S3_.clean 0x0002523e   Section       10  qcontactmanagerengine.o(t._Z5qSwapIN10QtMobility8QContactEEvRT_S3_.clean)
    t._ZN10QtMobilityeqILi10EEEbRK7QStringRKNS_15QLatin1ConstantIXT_EEE 0x00025248   Section       24  qcontactmemorybackend.o(t._ZN10QtMobilityeqILi10EEEbRK7QStringRKNS_15QLatin1ConstantIXT_EEE)
    t._ZN10QtMobilityeqILi13EEEbRK7QStringRKNS_15QLatin1ConstantIXT_EEE 0x00025260   Section       24  qcontactmemorybackend.o(t._ZN10QtMobilityeqILi13EEEbRK7QStringRKNS_15QLatin1ConstantIXT_EEE)
    t._ZN10QtMobilityeqILi6EEEbRK7QStringRKNS_15QLatin1ConstantIXT_EEE 0x00025278   Section       24  qcontactmemorybackend.o(t._ZN10QtMobilityeqILi6EEEbRK7QStringRKNS_15QLatin1ConstantIXT_EEE)
    t._ZN12QMapIteratorI7QString8QVariantEC1ERK4QMapIS0_S1_E 0x00025290   Section       98  qcontactmanagerengine.o(t._ZN12QMapIteratorI7QString8QVariantEC1ERK4QMapIS0_S1_E)
    t._ZN12QMapIteratorI7QString8QVariantEC1ERK4QMapIS0_S1_E.clean 0x000252f2   Section        4  qcontactmanagerengine.o(t._ZN12QMapIteratorI7QString8QVariantEC1ERK4QMapIS0_S1_E.clean)
    t._ZN12QWeakPointerIN10QtMobility19QContactSaveRequestEED1Ev 0x000252f6   Section       42  qcontactmanagerengine.o(t._ZN12QWeakPointerIN10QtMobility19QContactSaveRequestEED1Ev)
    t._ZN12QWeakPointerIN10QtMobility20QContactFetchRequestEED1Ev 0x00025320   Section       42  qcontactmanagerengine.o(t._ZN12QWeakPointerIN10QtMobility20QContactFetchRequestEED1Ev)
    t._ZN12QWeakPointerIN10QtMobility21QContactRemoveRequestEED1Ev 0x0002534a   Section       42  qcontactmanagerengine.o(t._ZN12QWeakPointerIN10QtMobility21QContactRemoveRequestEED1Ev)
    t._ZN12QWeakPointerIN10QtMobility23QContactAbstractRequestEED1Ev 0x00025374   Section       42  qcontactmemorybackend.o(t._ZN12QWeakPointerIN10QtMobility23QContactAbstractRequestEED1Ev)
    t._ZN12QWeakPointerIN10QtMobility24QContactFetchByIdRequestEED1Ev 0x0002539e   Section       42  qcontactmanagerengine.o(t._ZN12QWeakPointerIN10QtMobility24QContactFetchByIdRequestEED1Ev)
    t._ZN12QWeakPointerIN10QtMobility27QContactLocalIdFetchRequestEED1Ev 0x000253c8   Section       42  qcontactmanagerengine.o(t._ZN12QWeakPointerIN10QtMobility27QContactLocalIdFetchRequestEED1Ev)
    t._ZN12QWeakPointerIN10QtMobility31QContactRelationshipSaveRequestEED1Ev 0x000253f2   Section       42  qcontactmanagerengine.o(t._ZN12QWeakPointerIN10QtMobility31QContactRelationshipSaveRequestEED1Ev)
    t._ZN12QWeakPointerIN10QtMobility32QContactRelationshipFetchRequestEED1Ev 0x0002541c   Section       42  qcontactmanagerengine.o(t._ZN12QWeakPointerIN10QtMobility32QContactRelationshipFetchRequestEED1Ev)
    t._ZN12QWeakPointerIN10QtMobility33QContactRelationshipRemoveRequestEED1Ev 0x00025446   Section       42  qcontactmanagerengine.o(t._ZN12QWeakPointerIN10QtMobility33QContactRelationshipRemoveRequestEED1Ev)
    t._ZN12QWeakPointerIN10QtMobility35QContactDetailDefinitionSaveRequestEED1Ev 0x00025470   Section       42  qcontactmanagerengine.o(t._ZN12QWeakPointerIN10QtMobility35QContactDetailDefinitionSaveRequestEED1Ev)
    t._ZN12QWeakPointerIN10QtMobility36QContactDetailDefinitionFetchRequestEED1Ev 0x0002549a   Section       42  qcontactmanagerengine.o(t._ZN12QWeakPointerIN10QtMobility36QContactDetailDefinitionFetchRequestEED1Ev)
    t._ZN12QWeakPointerIN10QtMobility37QContactDetailDefinitionRemoveRequestEED1Ev 0x000254c4   Section       42  qcontactmanagerengine.o(t._ZN12QWeakPointerIN10QtMobility37QContactDetailDefinitionRemoveRequestEED1Ev)
    t._ZN14QHashDummyNodeI7QString15QHashDummyValueEC1ERKS0_ 0x000254ee   Section       24  qcontactaction.o(t._ZN14QHashDummyNodeI7QString15QHashDummyValueEC1ERKS0_)
    t._ZN14QScopedPointerIN10QtMobility23QContactAbstractRequestE21QScopedPointerDeleterIS1_EE5resetEPS1_ 0x00025506   Section       34  qcontactmanagerenginev2wrapper_p.o(t._ZN14QScopedPointerIN10QtMobility23QContactAbstractRequestE21QScopedPointerDeleterIS1_EE5resetEPS1_)
    t._ZN14QScopedPointerIN10QtMobility23QContactAbstractRequestE21QScopedPointerDeleterIS1_EED1Ev 0x00025528   Section       28  moc_qcontactmanagerenginev2wrapper_p.o(t._ZN14QScopedPointerIN10QtMobility23QContactAbstractRequestE21QScopedPointerDeleterIS1_EED1Ev)
    t._ZN18QAlgorithmsPrivate17qLowerBoundHelperIN5QListIN10QtMobility8QContactEE8iteratorES3_NS2_15ContactLessThanEEET_S7_S7_RKT0_T1_ 0x00025544   Section      136  qcontactmanagerengine.o(t._ZN18QAlgorithmsPrivate17qLowerBoundHelperIN5QListIN10QtMobility8QContactEE8iteratorES3_NS2_15ContactLessThanEEET_S7_S7_RKT0_T1_)
    t._ZN18QAlgorithmsPrivate17qStableSortHelperIN5QListIN10QtMobility8QContactEE8iteratorES3_NS2_15ContactLessThanEEEvT_S7_RKT0_T1_ 0x000255cc   Section      166  qcontactmanagerengine.o(t._ZN18QAlgorithmsPrivate17qStableSortHelperIN5QListIN10QtMobility8QContactEE8iteratorES3_NS2_15ContactLessThanEEEvT_S7_RKT0_T1_)
    t._ZN18QAlgorithmsPrivate17qUpperBoundHelperIN5QListIN10QtMobility8QContactEE8iteratorES3_NS2_15ContactLessThanEEET_S7_S7_RKT0_T1_ 0x00025672   Section      138  qcontactmanagerengine.o(t._ZN18QAlgorithmsPrivate17qUpperBoundHelperIN5QListIN10QtMobility8QContactEE8iteratorES3_NS2_15ContactLessThanEEET_S7_S7_RKT0_T1_)
    t._ZN18QAlgorithmsPrivate6qMergeIN5QListIN10QtMobility8QContactEE8iteratorEKS3_NS2_15ContactLessThanEEEvT_S8_S8_RT0_T1_ 0x000256fc   Section      518  qcontactmanagerengine.o(t._ZN18QAlgorithmsPrivate6qMergeIN5QListIN10QtMobility8QContactEE8iteratorEKS3_NS2_15ContactLessThanEEEvT_S8_S8_RT0_T1_)
    t._ZN18QAlgorithmsPrivate7qRotateIN5QListIN10QtMobility8QContactEE8iteratorEEEvT_S6_S6_ 0x00025902   Section       88  qcontactmanagerengine.o(t._ZN18QAlgorithmsPrivate7qRotateIN5QListIN10QtMobility8QContactEE8iteratorEEEvT_S6_S6_)
    t._ZN18QAlgorithmsPrivate8qReverseIN5QListIN10QtMobility8QContactEE8iteratorEEEvT_S6_ 0x0002595a   Section       98  qcontactmanagerengine.o(t._ZN18QAlgorithmsPrivate8qReverseIN5QListIN10QtMobility8QContactEE8iteratorEEEvT_S6_)
    t._ZN18QSharedDataPointerIN10QtMobility12QContactDataEE13detach_helperEv 0x000259bc   Section       82  qcontact.o(t._ZN18QSharedDataPointerIN10QtMobility12QContactDataEE13detach_helperEv)
    t._ZN18QSharedDataPointerIN10QtMobility12QContactDataEE13detach_helperEv.clean 0x00025a0e   Section       16  qcontact.o(t._ZN18QSharedDataPointerIN10QtMobility12QContactDataEE13detach_helperEv.clean)
    t._ZN18QSharedDataPointerIN10QtMobility12QContactDataEED1Ev 0x00025a1e   Section       42  qcontact.o(t._ZN18QSharedDataPointerIN10QtMobility12QContactDataEED1Ev)
    t._ZN18QSharedDataPointerIN10QtMobility12QContactDataEEptEv 0x00025a48   Section       34  qcontact.o(t._ZN18QSharedDataPointerIN10QtMobility12QContactDataEEptEv)
    t._ZN18QSharedDataPointerIN10QtMobility17QContactIdPrivateEE13detach_helperEv 0x00025a6a   Section      124  qcontactid.o(t._ZN18QSharedDataPointerIN10QtMobility17QContactIdPrivateEE13detach_helperEv)
    t._ZN18QSharedDataPointerIN10QtMobility17QContactIdPrivateEE13detach_helperEv.clean 0x00025ae6   Section       16  qcontactid.o(t._ZN18QSharedDataPointerIN10QtMobility17QContactIdPrivateEE13detach_helperEv.clean)
    t._ZN18QSharedDataPointerIN10QtMobility17QContactIdPrivateEED1Ev 0x00025af6   Section       42  qcontactid.o(t._ZN18QSharedDataPointerIN10QtMobility17QContactIdPrivateEED1Ev)
    t._ZN18QSharedDataPointerIN10QtMobility17QContactIdPrivateEEptEv 0x00025b20   Section       40  qcontactid.o(t._ZN18QSharedDataPointerIN10QtMobility17QContactIdPrivateEEptEv)
    t._ZN18QSharedDataPointerIN10QtMobility21QContactChangeSetDataEE13detach_helperEv 0x00025b48   Section       82  qcontactchangeset.o(t._ZN18QSharedDataPointerIN10QtMobility21QContactChangeSetDataEE13detach_helperEv)
    t._ZN18QSharedDataPointerIN10QtMobility21QContactChangeSetDataEE13detach_helperEv.clean 0x00025b9a   Section       16  qcontactchangeset.o(t._ZN18QSharedDataPointerIN10QtMobility21QContactChangeSetDataEE13detach_helperEv.clean)
    t._ZN18QSharedDataPointerIN10QtMobility21QContactChangeSetDataEED1Ev 0x00025baa   Section       42  qcontactchangeset.o(t._ZN18QSharedDataPointerIN10QtMobility21QContactChangeSetDataEED1Ev)
    t._ZN18QSharedDataPointerIN10QtMobility21QContactChangeSetDataEEptEv 0x00025bd4   Section       34  qcontactchangeset.o(t._ZN18QSharedDataPointerIN10QtMobility21QContactChangeSetDataEEptEv)
    t._ZN18QSharedDataPointerIN10QtMobility21QContactDetailPrivateEE13detach_helperEv 0x00025bf6   Section       68  qcontact.o(t._ZN18QSharedDataPointerIN10QtMobility21QContactDetailPrivateEE13detach_helperEv)
    t._ZN18QSharedDataPointerIN10QtMobility21QContactDetailPrivateEE13detach_helperEv.clean 0x00025c3a   Section       12  qcontact.o(t._ZN18QSharedDataPointerIN10QtMobility21QContactDetailPrivateEE13detach_helperEv.clean)
    t._ZN18QSharedDataPointerIN10QtMobility21QContactDetailPrivateEE5cloneEv 0x00025c46   Section      178  qcontact.o(t._ZN18QSharedDataPointerIN10QtMobility21QContactDetailPrivateEE5cloneEv)
    t._ZN18QSharedDataPointerIN10QtMobility21QContactDetailPrivateEE5cloneEv.clean 0x00025cf8   Section       26  qcontact.o(t._ZN18QSharedDataPointerIN10QtMobility21QContactDetailPrivateEE5cloneEv.clean)
    t._ZN18QSharedDataPointerIN10QtMobility21QContactDetailPrivateEEC1EPS1_ 0x00025d12   Section       24  qcontactdetail.o(t._ZN18QSharedDataPointerIN10QtMobility21QContactDetailPrivateEEC1EPS1_)
    t._ZN18QSharedDataPointerIN10QtMobility21QContactDetailPrivateEED1Ev 0x00025d2a   Section       42  qcontactdetail.o(t._ZN18QSharedDataPointerIN10QtMobility21QContactDetailPrivateEED1Ev)
    t._ZN18QSharedDataPointerIN10QtMobility21QContactDetailPrivateEEaSEPS1_ 0x00025d54   Section       62  qcontactdetail.o(t._ZN18QSharedDataPointerIN10QtMobility21QContactDetailPrivateEEaSEPS1_)
    t._ZN18QSharedDataPointerIN10QtMobility21QContactDetailPrivateEEaSERKS2_ 0x00025d92   Section       68  qcontactdetail.o(t._ZN18QSharedDataPointerIN10QtMobility21QContactDetailPrivateEEaSERKS2_)
    t._ZN18QSharedDataPointerIN10QtMobility21QContactDetailPrivateEEptEv 0x00025dd6   Section       34  qcontact.o(t._ZN18QSharedDataPointerIN10QtMobility21QContactDetailPrivateEEptEv)
    t._ZN18QSharedDataPointerIN10QtMobility21QContactFilterPrivateEE13detach_helperEv 0x00025df8   Section       50  qcontactfilter.o(t._ZN18QSharedDataPointerIN10QtMobility21QContactFilterPrivateEE13detach_helperEv)
    t._ZN18QSharedDataPointerIN10QtMobility21QContactFilterPrivateEE5cloneEv 0x00025e2a   Section       16  qcontactfilter.o(t._ZN18QSharedDataPointerIN10QtMobility21QContactFilterPrivateEE5cloneEv)
    t._ZN18QSharedDataPointerIN10QtMobility21QContactFilterPrivateEE6detachEv 0x00025e3a   Section       38  qcontactfilter.o(t._ZN18QSharedDataPointerIN10QtMobility21QContactFilterPrivateEE6detachEv)
    t._ZN18QSharedDataPointerIN10QtMobility21QContactFilterPrivateEEC1EPS1_ 0x00025e60   Section       26  qcontactfilter.o(t._ZN18QSharedDataPointerIN10QtMobility21QContactFilterPrivateEEC1EPS1_)
    t._ZN18QSharedDataPointerIN10QtMobility21QContactFilterPrivateEED1Ev 0x00025e7a   Section       42  qcontactfilter.o(t._ZN18QSharedDataPointerIN10QtMobility21QContactFilterPrivateEED1Ev)
    t._ZN18QSharedDataPointerIN10QtMobility24QContactFetchHintPrivateEE13detach_helperEv 0x00025ea4   Section      168  qcontactfetchhint.o(t._ZN18QSharedDataPointerIN10QtMobility24QContactFetchHintPrivateEE13detach_helperEv)
    t._ZN18QSharedDataPointerIN10QtMobility24QContactFetchHintPrivateEE13detach_helperEv.clean 0x00025f4c   Section       28  qcontactfetchhint.o(t._ZN18QSharedDataPointerIN10QtMobility24QContactFetchHintPrivateEE13detach_helperEv.clean)
    t._ZN18QSharedDataPointerIN10QtMobility24QContactFetchHintPrivateEED1Ev 0x00025f68   Section       42  qcontactfetchhint.o(t._ZN18QSharedDataPointerIN10QtMobility24QContactFetchHintPrivateEED1Ev)
    t._ZN18QSharedDataPointerIN10QtMobility24QContactFetchHintPrivateEEptEv 0x00025f92   Section       34  qcontactfetchhint.o(t._ZN18QSharedDataPointerIN10QtMobility24QContactFetchHintPrivateEEptEv)
    t._ZN18QSharedDataPointerIN10QtMobility24QContactSortOrderPrivateEE13detach_helperEv 0x00025fb4   Section      150  qcontactsortorder.o(t._ZN18QSharedDataPointerIN10QtMobility24QContactSortOrderPrivateEE13detach_helperEv)
    t._ZN18QSharedDataPointerIN10QtMobility24QContactSortOrderPrivateEE13detach_helperEv.clean 0x0002604a   Section       28  qcontactsortorder.o(t._ZN18QSharedDataPointerIN10QtMobility24QContactSortOrderPrivateEE13detach_helperEv.clean)
    t._ZN18QSharedDataPointerIN10QtMobility24QContactSortOrderPrivateEED1Ev 0x00026066   Section       42  qcontactsortorder.o(t._ZN18QSharedDataPointerIN10QtMobility24QContactSortOrderPrivateEED1Ev)
    t._ZN18QSharedDataPointerIN10QtMobility24QContactSortOrderPrivateEEptEv 0x00026090   Section       40  qcontactsortorder.o(t._ZN18QSharedDataPointerIN10QtMobility24QContactSortOrderPrivateEEptEv)
    t._ZN18QSharedDataPointerIN10QtMobility27QContactActionTargetPrivateEE13detach_helperEv 0x000260b8   Section      130  qcontactactiontarget.o(t._ZN18QSharedDataPointerIN10QtMobility27QContactActionTargetPrivateEE13detach_helperEv)
    t._ZN18QSharedDataPointerIN10QtMobility27QContactActionTargetPrivateEE13detach_helperEv.clean 0x0002613a   Section       28  qcontactactiontarget.o(t._ZN18QSharedDataPointerIN10QtMobility27QContactActionTargetPrivateEE13detach_helperEv.clean)
    t._ZN18QSharedDataPointerIN10QtMobility27QContactActionTargetPrivateEEC1EPS1_ 0x00026156   Section       24  qcontactactiontarget.o(t._ZN18QSharedDataPointerIN10QtMobility27QContactActionTargetPrivateEEC1EPS1_)
    t._ZN18QSharedDataPointerIN10QtMobility27QContactActionTargetPrivateEED1Ev 0x0002616e   Section       42  qcontactactiontarget.o(t._ZN18QSharedDataPointerIN10QtMobility27QContactActionTargetPrivateEED1Ev)
    t._ZN18QSharedDataPointerIN10QtMobility27QContactActionTargetPrivateEEptEv 0x00026198   Section       34  qcontactactiontarget.o(t._ZN18QSharedDataPointerIN10QtMobility27QContactActionTargetPrivateEEptEv)
    t._ZN18QSharedDataPointerIN10QtMobility27QContactRelationshipPrivateEE13detach_helperEv 0x000261ba   Section      146  qcontactrelationship.o(t._ZN18QSharedDataPointerIN10QtMobility27QContactRelationshipPrivateEE13detach_helperEv)
    t._ZN18QSharedDataPointerIN10QtMobility27QContactRelationshipPrivateEE13detach_helperEv.clean 0x0002624c   Section       40  qcontactrelationship.o(t._ZN18QSharedDataPointerIN10QtMobility27QContactRelationshipPrivateEE13detach_helperEv.clean)
    t._ZN18QSharedDataPointerIN10QtMobility27QContactRelationshipPrivateEED1Ev 0x00026274   Section       42  qcontactrelationship.o(t._ZN18QSharedDataPointerIN10QtMobility27QContactRelationshipPrivateEED1Ev)
    t._ZN18QSharedDataPointerIN10QtMobility27QContactRelationshipPrivateEEptEv 0x0002629e   Section       34  qcontactrelationship.o(t._ZN18QSharedDataPointerIN10QtMobility27QContactRelationshipPrivateEEptEv)
    t._ZN18QSharedDataPointerIN10QtMobility28QContactDetailDefinitionDataEE13detach_helperEv 0x000262c0   Section      138  qcontactdetaildefinition.o(t._ZN18QSharedDataPointerIN10QtMobility28QContactDetailDefinitionDataEE13detach_helperEv)
    t._ZN18QSharedDataPointerIN10QtMobility28QContactDetailDefinitionDataEE13detach_helperEv.clean 0x0002634a   Section       28  qcontactdetaildefinition.o(t._ZN18QSharedDataPointerIN10QtMobility28QContactDetailDefinitionDataEE13detach_helperEv.clean)
    t._ZN18QSharedDataPointerIN10QtMobility28QContactDetailDefinitionDataEED1Ev 0x00026366   Section       42  qcontactdetaildefinition.o(t._ZN18QSharedDataPointerIN10QtMobility28QContactDetailDefinitionDataEED1Ev)
    t._ZN18QSharedDataPointerIN10QtMobility28QContactDetailDefinitionDataEEptEv 0x00026390   Section       34  qcontactdetaildefinition.o(t._ZN18QSharedDataPointerIN10QtMobility28QContactDetailDefinitionDataEEptEv)
    t._ZN18QSharedDataPointerIN10QtMobility31QContactActionDescriptorPrivateEE13detach_helperEv 0x000263b2   Section      194  qcontactactionfactory.o(t._ZN18QSharedDataPointerIN10QtMobility31QContactActionDescriptorPrivateEE13detach_helperEv)
    t._ZN18QSharedDataPointerIN10QtMobility31QContactActionDescriptorPrivateEE13detach_helperEv.clean 0x00026474   Section       62  qcontactactionfactory.o(t._ZN18QSharedDataPointerIN10QtMobility31QContactActionDescriptorPrivateEE13detach_helperEv.clean)
    t._ZN18QSharedDataPointerIN10QtMobility31QContactActionDescriptorPrivateEED1Ev 0x000264b2   Section       42  qcontactactiondescriptor.o(t._ZN18QSharedDataPointerIN10QtMobility31QContactActionDescriptorPrivateEED1Ev)
    t._ZN18QSharedDataPointerIN10QtMobility31QContactActionDescriptorPrivateEEptEv 0x000264dc   Section       40  qcontactactionfactory.o(t._ZN18QSharedDataPointerIN10QtMobility31QContactActionDescriptorPrivateEEptEv)
    t._ZN18QSharedDataPointerIN10QtMobility36QContactDetailFieldDefinitionPrivateEE13detach_helperEv 0x00026504   Section      124  qcontactdetailfielddefinition.o(t._ZN18QSharedDataPointerIN10QtMobility36QContactDetailFieldDefinitionPrivateEE13detach_helperEv)
    t._ZN18QSharedDataPointerIN10QtMobility36QContactDetailFieldDefinitionPrivateEE13detach_helperEv.clean 0x00026580   Section       16  qcontactdetailfielddefinition.o(t._ZN18QSharedDataPointerIN10QtMobility36QContactDetailFieldDefinitionPrivateEE13detach_helperEv.clean)
    t._ZN18QSharedDataPointerIN10QtMobility36QContactDetailFieldDefinitionPrivateEED1Ev 0x00026590   Section       42  qcontactdetailfielddefinition.o(t._ZN18QSharedDataPointerIN10QtMobility36QContactDetailFieldDefinitionPrivateEED1Ev)
    t._ZN18QSharedDataPointerIN10QtMobility36QContactDetailFieldDefinitionPrivateEEptEv 0x000265ba   Section       34  qcontactdetailfielddefinition.o(t._ZN18QSharedDataPointerIN10QtMobility36QContactDetailFieldDefinitionPrivateEEptEv)
    t._ZN20QGlobalStaticDeleterIN10QtMobility21QContactActionManagerEED1Ev 0x000265dc   Section       38  qcontactactionmanager_p.o(t._ZN20QGlobalStaticDeleterIN10QtMobility21QContactActionManagerEED1Ev)
    t._ZN20QMutableListIteratorI7QStringED1Ev 0x00026602   Section       16  qcontactmanagerengine.o(t._ZN20QMutableListIteratorI7QStringED1Ev)
    t._ZN20QMutableListIteratorI8QVariantED1Ev 0x00026612   Section       16  qcontactmanagerengine.o(t._ZN20QMutableListIteratorI8QVariantED1Ev)
    t._ZN4QMapI7QString8QVariantE11node_createEP8QMapDataPPNS3_4NodeERKS0_RKS1_ 0x00026622   Section      142  qcontactdetail.o(t._ZN4QMapI7QString8QVariantE11node_createEP8QMapDataPPNS3_4NodeERKS0_RKS1_)
    t._ZN4QMapI7QString8QVariantE11node_createEP8QMapDataPPNS3_4NodeERKS0_RKS1_.clean 0x000266b0   Section       38  qcontactdetail.o(t._ZN4QMapI7QString8QVariantE11node_createEP8QMapDataPPNS3_4NodeERKS0_RKS1_.clean)
    t._ZN4QMapI7QString8QVariantE13detach_helperEv 0x000266d6   Section      148  qcontactdetail.o(t._ZN4QMapI7QString8QVariantE13detach_helperEv)
    t._ZN4QMapI7QString8QVariantE13detach_helperEv.clean 0x0002676a   Section        8  qcontactdetail.o(t._ZN4QMapI7QString8QVariantE13detach_helperEv.clean)
    t._ZN4QMapI7QString8QVariantE5clearEv    0x00026772   Section       82  qcontactdetail.o(t._ZN4QMapI7QString8QVariantE5clearEv)
    t._ZN4QMapI7QString8QVariantE5clearEv.clean 0x000267c4   Section       10  qcontactdetail.o(t._ZN4QMapI7QString8QVariantE5clearEv.clean)
    t._ZN4QMapI7QString8QVariantE6detachEv   0x000267ce   Section       28  qcontactdetail.o(t._ZN4QMapI7QString8QVariantE6detachEv)
    t._ZN4QMapI7QString8QVariantE8freeDataEP8QMapData 0x000267ea   Section       64  qcontactdetail.o(t._ZN4QMapI7QString8QVariantE8freeDataEP8QMapData)
    t._ZN4QMapI7QString8QVariantEC1Ev        0x0002682c   Section       28  qcontactdetail.o(t._ZN4QMapI7QString8QVariantEC1Ev)
    t._ZN4QMapI7QString8QVariantED1Ev        0x00026848   Section       38  qcontactdetail.o(t._ZN4QMapI7QString8QVariantED1Ev)
    t._ZN4QMapI7QStringN10QtMobility14QContactDetailEE11node_createEP8QMapDataPPNS4_4NodeERKS0_RKS2_ 0x0002686e   Section      140  qcontact.o(t._ZN4QMapI7QStringN10QtMobility14QContactDetailEE11node_createEP8QMapDataPPNS4_4NodeERKS0_RKS2_)
    t._ZN4QMapI7QStringN10QtMobility14QContactDetailEE11node_createEP8QMapDataPPNS4_4NodeERKS0_RKS2_.clean 0x000268fa   Section       38  qcontact.o(t._ZN4QMapI7QStringN10QtMobility14QContactDetailEE11node_createEP8QMapDataPPNS4_4NodeERKS0_RKS2_.clean)
    t._ZN4QMapI7QStringN10QtMobility14QContactDetailEE13detach_helperEv 0x00026920   Section      146  qcontact.o(t._ZN4QMapI7QStringN10QtMobility14QContactDetailEE13detach_helperEv)
    t._ZN4QMapI7QStringN10QtMobility14QContactDetailEE13detach_helperEv.clean 0x000269b2   Section        8  qcontact.o(t._ZN4QMapI7QStringN10QtMobility14QContactDetailEE13detach_helperEv.clean)
    t._ZN4QMapI7QStringN10QtMobility14QContactDetailEE8freeDataEP8QMapData 0x000269ba   Section       62  qcontact.o(t._ZN4QMapI7QStringN10QtMobility14QContactDetailEE8freeDataEP8QMapData)
    t._ZN4QMapI7QStringN10QtMobility14QContactDetailEED1Ev 0x000269f8   Section       38  qcontact.o(t._ZN4QMapI7QStringN10QtMobility14QContactDetailEED1Ev)
    t._ZN4QMapI7QStringN10QtMobility24QContactDetailDefinitionEE11node_createEP8QMapDataPPNS4_4NodeERKS0_RKS2_ 0x00026a1e   Section      140  qcontactmanagerengine.o(t._ZN4QMapI7QStringN10QtMobility24QContactDetailDefinitionEE11node_createEP8QMapDataPPNS4_4NodeERKS0_RKS2_)
    t._ZN4QMapI7QStringN10QtMobility24QContactDetailDefinitionEE11node_createEP8QMapDataPPNS4_4NodeERKS0_RKS2_.clean 0x00026aaa   Section       38  qcontactmanagerengine.o(t._ZN4QMapI7QStringN10QtMobility24QContactDetailDefinitionEE11node_createEP8QMapDataPPNS4_4NodeERKS0_RKS2_.clean)
    t._ZN4QMapI7QStringN10QtMobility24QContactDetailDefinitionEE13detach_helperEv 0x00026ad0   Section      146  qcontactmanagerengine.o(t._ZN4QMapI7QStringN10QtMobility24QContactDetailDefinitionEE13detach_helperEv)
    t._ZN4QMapI7QStringN10QtMobility24QContactDetailDefinitionEE13detach_helperEv.clean 0x00026b62   Section        8  qcontactmanagerengine.o(t._ZN4QMapI7QStringN10QtMobility24QContactDetailDefinitionEE13detach_helperEv.clean)
    t._ZN4QMapI7QStringN10QtMobility24QContactDetailDefinitionEE6detachEv 0x00026b6a   Section       28  qcontactmanagerengine.o(t._ZN4QMapI7QStringN10QtMobility24QContactDetailDefinitionEE6detachEv)
    t._ZN4QMapI7QStringN10QtMobility24QContactDetailDefinitionEE6insertERKS0_RKS2_ 0x00026b86   Section       80  qcontactmanagerengine.o(t._ZN4QMapI7QStringN10QtMobility24QContactDetailDefinitionEE6insertERKS0_RKS2_)
    t._ZN4QMapI7QStringN10QtMobility24QContactDetailDefinitionEE6removeERKS0_ 0x00026bd6   Section      264  qcontactmemorybackend.o(t._ZN4QMapI7QStringN10QtMobility24QContactDetailDefinitionEE6removeERKS0_)
    t._ZN4QMapI7QStringN10QtMobility24QContactDetailDefinitionEE8freeDataEP8QMapData 0x00026cde   Section       62  qcontactmanagerengine.o(t._ZN4QMapI7QStringN10QtMobility24QContactDetailDefinitionEE8freeDataEP8QMapData)
    t._ZN4QMapI7QStringN10QtMobility24QContactDetailDefinitionEEC1ERKS3_ 0x00026d1c   Section       40  qcontactmemorybackend.o(t._ZN4QMapI7QStringN10QtMobility24QContactDetailDefinitionEEC1ERKS3_)
    t._ZN4QMapI7QStringN10QtMobility24QContactDetailDefinitionEEC1Ev 0x00026d44   Section       28  qcontactmanagerengine.o(t._ZN4QMapI7QStringN10QtMobility24QContactDetailDefinitionEEC1Ev)
    t._ZN4QMapI7QStringN10QtMobility24QContactDetailDefinitionEED1Ev 0x00026d60   Section       38  qcontactmanagerengine.o(t._ZN4QMapI7QStringN10QtMobility24QContactDetailDefinitionEED1Ev)
    t._ZN4QMapI7QStringN10QtMobility24QContactDetailDefinitionEEaSERKS3_ 0x00026d86   Section       70  qcontactmanagerengine.o(t._ZN4QMapI7QStringN10QtMobility24QContactDetailDefinitionEEaSERKS3_)
    t._ZN4QMapI7QStringN10QtMobility29QContactDetailFieldDefinitionEE11node_createEP8QMapDataPPNS4_4NodeERKS0_RKS2_ 0x00026dcc   Section      140  qcontactdetaildefinition.o(t._ZN4QMapI7QStringN10QtMobility29QContactDetailFieldDefinitionEE11node_createEP8QMapDataPPNS4_4NodeERKS0_RKS2_)
    t._ZN4QMapI7QStringN10QtMobility29QContactDetailFieldDefinitionEE11node_createEP8QMapDataPPNS4_4NodeERKS0_RKS2_.clean 0x00026e58   Section       38  qcontactdetaildefinition.o(t._ZN4QMapI7QStringN10QtMobility29QContactDetailFieldDefinitionEE11node_createEP8QMapDataPPNS4_4NodeERKS0_RKS2_.clean)
    t._ZN4QMapI7QStringN10QtMobility29QContactDetailFieldDefinitionEE13detach_helperEv 0x00026e7e   Section      146  qcontactdetaildefinition.o(t._ZN4QMapI7QStringN10QtMobility29QContactDetailFieldDefinitionEE13detach_helperEv)
    t._ZN4QMapI7QStringN10QtMobility29QContactDetailFieldDefinitionEE13detach_helperEv.clean 0x00026f10   Section        8  qcontactdetaildefinition.o(t._ZN4QMapI7QStringN10QtMobility29QContactDetailFieldDefinitionEE13detach_helperEv.clean)
    t._ZN4QMapI7QStringN10QtMobility29QContactDetailFieldDefinitionEE5clearEv 0x00026f18   Section       28  qcontactdetaildefinition.o(t._ZN4QMapI7QStringN10QtMobility29QContactDetailFieldDefinitionEE5clearEv)
    t._ZN4QMapI7QStringN10QtMobility29QContactDetailFieldDefinitionEE5clearEv.clean 0x00026f34   Section       10  qcontactdetaildefinition.o(t._ZN4QMapI7QStringN10QtMobility29QContactDetailFieldDefinitionEE5clearEv.clean)
    t._ZN4QMapI7QStringN10QtMobility29QContactDetailFieldDefinitionEE6detachEv 0x00026f3e   Section       28  qcontactdetaildefinition.o(t._ZN4QMapI7QStringN10QtMobility29QContactDetailFieldDefinitionEE6detachEv)
    t._ZN4QMapI7QStringN10QtMobility29QContactDetailFieldDefinitionEE6insertERKS0_RKS2_ 0x00026f5a   Section       80  qcontactmanagerengine.o(t._ZN4QMapI7QStringN10QtMobility29QContactDetailFieldDefinitionEE6insertERKS0_RKS2_)
    t._ZN4QMapI7QStringN10QtMobility29QContactDetailFieldDefinitionEE6removeERKS0_ 0x00026faa   Section      264  qcontactdetaildefinition.o(t._ZN4QMapI7QStringN10QtMobility29QContactDetailFieldDefinitionEE6removeERKS0_)
    t._ZN4QMapI7QStringN10QtMobility29QContactDetailFieldDefinitionEE8freeDataEP8QMapData 0x000270b2   Section       62  qcontactdetaildefinition.o(t._ZN4QMapI7QStringN10QtMobility29QContactDetailFieldDefinitionEE8freeDataEP8QMapData)
    t._ZN4QMapI7QStringN10QtMobility29QContactDetailFieldDefinitionEEC1ERKS3_ 0x000270f0   Section       40  qcontactdetaildefinition.o(t._ZN4QMapI7QStringN10QtMobility29QContactDetailFieldDefinitionEEC1ERKS3_)
    t._ZN4QMapI7QStringN10QtMobility29QContactDetailFieldDefinitionEEC1Ev 0x00027118   Section       28  qcontactdetaildefinition.o(t._ZN4QMapI7QStringN10QtMobility29QContactDetailFieldDefinitionEEC1Ev)
    t._ZN4QMapI7QStringN10QtMobility29QContactDetailFieldDefinitionEED1Ev 0x00027134   Section       38  qcontactdetaildefinition.o(t._ZN4QMapI7QStringN10QtMobility29QContactDetailFieldDefinitionEED1Ev)
    t._ZN4QMapI7QStringN10QtMobility29QContactDetailFieldDefinitionEEaSERKS3_ 0x0002715a   Section       70  qcontactdetaildefinition.o(t._ZN4QMapI7QStringN10QtMobility29QContactDetailFieldDefinitionEEaSERKS3_)
    t._ZN4QMapI7QStringPN10QtMobility24QContactMemoryEngineDataEE11node_createEP8QMapDataPPNS5_4NodeERKS0_RKS3_ 0x000271a0   Section      118  qcontactmemorybackend.o(t._ZN4QMapI7QStringPN10QtMobility24QContactMemoryEngineDataEE11node_createEP8QMapDataPPNS5_4NodeERKS0_RKS3_)
    t._ZN4QMapI7QStringPN10QtMobility24QContactMemoryEngineDataEE11node_createEP8QMapDataPPNS5_4NodeERKS0_RKS3_.clean 0x00027216   Section       20  qcontactmemorybackend.o(t._ZN4QMapI7QStringPN10QtMobility24QContactMemoryEngineDataEE11node_createEP8QMapDataPPNS5_4NodeERKS0_RKS3_.clean)
    t._ZN4QMapI7QStringPN10QtMobility24QContactMemoryEngineDataEE13detach_helperEv 0x0002722a   Section      146  qcontactmemorybackend.o(t._ZN4QMapI7QStringPN10QtMobility24QContactMemoryEngineDataEE13detach_helperEv)
    t._ZN4QMapI7QStringPN10QtMobility24QContactMemoryEngineDataEE13detach_helperEv.clean 0x000272bc   Section        8  qcontactmemorybackend.o(t._ZN4QMapI7QStringPN10QtMobility24QContactMemoryEngineDataEE13detach_helperEv.clean)
    t._ZN4QMapI7QStringPN10QtMobility24QContactMemoryEngineDataEE6detachEv 0x000272c4   Section       28  qcontactmemorybackend.o(t._ZN4QMapI7QStringPN10QtMobility24QContactMemoryEngineDataEE6detachEv)
    t._ZN4QMapI7QStringPN10QtMobility24QContactMemoryEngineDataEE6removeERKS0_ 0x000272e0   Section      254  qcontactmemorybackend.o(t._ZN4QMapI7QStringPN10QtMobility24QContactMemoryEngineDataEE6removeERKS0_)
    t._ZN4QMapI7QStringPN10QtMobility24QContactMemoryEngineDataEE8freeDataEP8QMapData 0x000273de   Section       56  qcontactmemorybackend.o(t._ZN4QMapI7QStringPN10QtMobility24QContactMemoryEngineDataEE8freeDataEP8QMapData)
    t._ZN4QMapI7QStringPN10QtMobility24QContactMemoryEngineDataEED1Ev 0x00027416   Section       38  qcontactmemorybackend.o(t._ZN4QMapI7QStringPN10QtMobility24QContactMemoryEngineDataEED1Ev)
    t._ZN4QMapI7QStringS0_E11node_createEP8QMapDataPPNS2_4NodeERKS0_S8_ 0x0002743c   Section      140  qcontactmanager.o(t._ZN4QMapI7QStringS0_E11node_createEP8QMapDataPPNS2_4NodeERKS0_S8_)
    t._ZN4QMapI7QStringS0_E11node_createEP8QMapDataPPNS2_4NodeERKS0_S8_.clean 0x000274c8   Section       38  qcontactmanager.o(t._ZN4QMapI7QStringS0_E11node_createEP8QMapDataPPNS2_4NodeERKS0_S8_.clean)
    t._ZN4QMapI7QStringS0_E13detach_helperEv 0x000274ee   Section      146  qcontactmanager.o(t._ZN4QMapI7QStringS0_E13detach_helperEv)
    t._ZN4QMapI7QStringS0_E13detach_helperEv.clean 0x00027580   Section        8  qcontactmanager.o(t._ZN4QMapI7QStringS0_E13detach_helperEv.clean)
    t._ZN4QMapI7QStringS0_E6detachEv         0x00027588   Section       28  qcontactmanager.o(t._ZN4QMapI7QStringS0_E6detachEv)
    t._ZN4QMapI7QStringS0_E6removeERKS0_     0x000275a4   Section      264  qcontactmanager.o(t._ZN4QMapI7QStringS0_E6removeERKS0_)
    t._ZN4QMapI7QStringS0_E8freeDataEP8QMapData 0x000276ac   Section       62  qcontactmanager.o(t._ZN4QMapI7QStringS0_E8freeDataEP8QMapData)
    t._ZN4QMapI7QStringS0_EC1Ev              0x000276ec   Section       28  qcontactmanager.o(t._ZN4QMapI7QStringS0_EC1Ev)
    t._ZN4QMapI7QStringS0_ED1Ev              0x00027708   Section       38  qcontactmanager.o(t._ZN4QMapI7QStringS0_ED1Ev)
    t._ZN4QMapI7QStringS_IS0_N10QtMobility24QContactDetailDefinitionEEE11node_createEP8QMapDataPPNS5_4NodeERKS0_RKS3_ 0x0002772e   Section      140  qcontactmemorybackend.o(t._ZN4QMapI7QStringS_IS0_N10QtMobility24QContactDetailDefinitionEEE11node_createEP8QMapDataPPNS5_4NodeERKS0_RKS3_)
    t._ZN4QMapI7QStringS_IS0_N10QtMobility24QContactDetailDefinitionEEE11node_createEP8QMapDataPPNS5_4NodeERKS0_RKS3_.clean 0x000277ba   Section       38  qcontactmemorybackend.o(t._ZN4QMapI7QStringS_IS0_N10QtMobility24QContactDetailDefinitionEEE11node_createEP8QMapDataPPNS5_4NodeERKS0_RKS3_.clean)
    t._ZN4QMapI7QStringS_IS0_N10QtMobility24QContactDetailDefinitionEEE13detach_helperEv 0x000277e0   Section      146  qcontactmanagerengine.o(t._ZN4QMapI7QStringS_IS0_N10QtMobility24QContactDetailDefinitionEEE13detach_helperEv)
    t._ZN4QMapI7QStringS_IS0_N10QtMobility24QContactDetailDefinitionEEE13detach_helperEv.clean 0x00027872   Section        8  qcontactmanagerengine.o(t._ZN4QMapI7QStringS_IS0_N10QtMobility24QContactDetailDefinitionEEE13detach_helperEv.clean)
    t._ZN4QMapI7QStringS_IS0_N10QtMobility24QContactDetailDefinitionEEE6detachEv 0x0002787a   Section       28  qcontactmanagerengine.o(t._ZN4QMapI7QStringS_IS0_N10QtMobility24QContactDetailDefinitionEEE6detachEv)
    t._ZN4QMapI7QStringS_IS0_N10QtMobility24QContactDetailDefinitionEEE6insertERKS0_RKS3_ 0x00027896   Section       80  qcontactmanagerengine.o(t._ZN4QMapI7QStringS_IS0_N10QtMobility24QContactDetailDefinitionEEE6insertERKS0_RKS3_)
    t._ZN4QMapI7QStringS_IS0_N10QtMobility24QContactDetailDefinitionEEE8freeDataEP8QMapData 0x000278e6   Section       62  qcontactmanagerengine.o(t._ZN4QMapI7QStringS_IS0_N10QtMobility24QContactDetailDefinitionEEE8freeDataEP8QMapData)
    t._ZN4QMapI7QStringS_IS0_N10QtMobility24QContactDetailDefinitionEEEC1Ev 0x00027924   Section       28  qcontactmanagerengine.o(t._ZN4QMapI7QStringS_IS0_N10QtMobility24QContactDetailDefinitionEEEC1Ev)
    t._ZN4QMapI7QStringS_IS0_N10QtMobility24QContactDetailDefinitionEEED1Ev 0x00027940   Section       38  qcontactmanagerengine.o(t._ZN4QMapI7QStringS_IS0_N10QtMobility24QContactDetailDefinitionEEED1Ev)
    t._ZN4QMapI7QStringiE11node_createEP8QMapDataPPNS2_4NodeERKS0_RKi 0x00027966   Section      118  qcontact.o(t._ZN4QMapI7QStringiE11node_createEP8QMapDataPPNS2_4NodeERKS0_RKi)
    t._ZN4QMapI7QStringiE11node_createEP8QMapDataPPNS2_4NodeERKS0_RKi.clean 0x000279dc   Section       20  qcontact.o(t._ZN4QMapI7QStringiE11node_createEP8QMapDataPPNS2_4NodeERKS0_RKi.clean)
    t._ZN4QMapI7QStringiE13detach_helperEv   0x000279f0   Section      146  qcontact.o(t._ZN4QMapI7QStringiE13detach_helperEv)
    t._ZN4QMapI7QStringiE13detach_helperEv.clean 0x00027a82   Section        8  qcontact.o(t._ZN4QMapI7QStringiE13detach_helperEv.clean)
    t._ZN4QMapI7QStringiE5clearEv            0x00027a8a   Section       82  qcontact.o(t._ZN4QMapI7QStringiE5clearEv)
    t._ZN4QMapI7QStringiE5clearEv.clean      0x00027adc   Section       10  qcontact.o(t._ZN4QMapI7QStringiE5clearEv.clean)
    t._ZN4QMapI7QStringiE6detachEv           0x00027ae6   Section       28  qcontact.o(t._ZN4QMapI7QStringiE6detachEv)
    t._ZN4QMapI7QStringiE6removeERKS0_       0x00027b02   Section      254  qcontact.o(t._ZN4QMapI7QStringiE6removeERKS0_)
    t._ZN4QMapI7QStringiE8freeDataEP8QMapData 0x00027c00   Section       56  qcontact.o(t._ZN4QMapI7QStringiE8freeDataEP8QMapData)
    t._ZN4QMapI7QStringiEC1Ev                0x00027c38   Section       28  qcontact.o(t._ZN4QMapI7QStringiEC1Ev)
    t._ZN4QMapI7QStringiED1Ev                0x00027c54   Section       38  qcontact.o(t._ZN4QMapI7QStringiED1Ev)
    t._ZN4QMapIiN10QtMobility15QContactManager5ErrorEE11node_createEP8QMapDataPPNS4_4NodeERKiRKS2_ 0x00027c7a   Section       82  qcontactmanagerengine.o(t._ZN4QMapIiN10QtMobility15QContactManager5ErrorEE11node_createEP8QMapDataPPNS4_4NodeERKiRKS2_)
    t._ZN4QMapIiN10QtMobility15QContactManager5ErrorEE11node_createEP8QMapDataPPNS4_4NodeERKiRKS2_.clean 0x00027ccc   Section        4  qcontactmanagerengine.o(t._ZN4QMapIiN10QtMobility15QContactManager5ErrorEE11node_createEP8QMapDataPPNS4_4NodeERKiRKS2_.clean)
    t._ZN4QMapIiN10QtMobility15QContactManager5ErrorEE13detach_helperEv 0x00027cd0   Section      146  qcontactmanagerengine.o(t._ZN4QMapIiN10QtMobility15QContactManager5ErrorEE13detach_helperEv)
    t._ZN4QMapIiN10QtMobility15QContactManager5ErrorEE13detach_helperEv.clean 0x00027d62   Section        8  qcontactmanagerengine.o(t._ZN4QMapIiN10QtMobility15QContactManager5ErrorEE13detach_helperEv.clean)
    t._ZN4QMapIiN10QtMobility15QContactManager5ErrorEE5beginEv 0x00027d6a   Section       20  qcontactmanagerengine.o(t._ZN4QMapIiN10QtMobility15QContactManager5ErrorEE5beginEv)
    t._ZN4QMapIiN10QtMobility15QContactManager5ErrorEE5clearEv 0x00027d7e   Section       28  qcontactmanager.o(t._ZN4QMapIiN10QtMobility15QContactManager5ErrorEE5clearEv)
    t._ZN4QMapIiN10QtMobility15QContactManager5ErrorEE5clearEv.clean 0x00027d9a   Section       10  qcontactmanager.o(t._ZN4QMapIiN10QtMobility15QContactManager5ErrorEE5clearEv.clean)
    t._ZN4QMapIiN10QtMobility15QContactManager5ErrorEE6detachEv 0x00027da4   Section       28  qcontactmanagerengine.o(t._ZN4QMapIiN10QtMobility15QContactManager5ErrorEE6detachEv)
    t._ZN4QMapIiN10QtMobility15QContactManager5ErrorEE6insertERKiRKS2_ 0x00027dc0   Section       74  qcontactmanagerengine.o(t._ZN4QMapIiN10QtMobility15QContactManager5ErrorEE6insertERKiRKS2_)
    t._ZN4QMapIiN10QtMobility15QContactManager5ErrorEE8freeDataEP8QMapData 0x00027e0a   Section       48  moc_qcontactmanagerenginev2wrapper_p.o(t._ZN4QMapIiN10QtMobility15QContactManager5ErrorEE8freeDataEP8QMapData)
    t._ZN4QMapIiN10QtMobility15QContactManager5ErrorEEC1ERKS3_ 0x00027e3a   Section       40  qcontactmanagerenginev2wrapper_p.o(t._ZN4QMapIiN10QtMobility15QContactManager5ErrorEEC1ERKS3_)
    t._ZN4QMapIiN10QtMobility15QContactManager5ErrorEEC1Ev 0x00027e64   Section       28  qcontactmanager.o(t._ZN4QMapIiN10QtMobility15QContactManager5ErrorEEC1Ev)
    t._ZN4QMapIiN10QtMobility15QContactManager5ErrorEED1Ev 0x00027e80   Section       38  moc_qcontactmanagerenginev2wrapper_p.o(t._ZN4QMapIiN10QtMobility15QContactManager5ErrorEED1Ev)
    t._ZN4QMapIiN10QtMobility15QContactManager5ErrorEEaSERKS3_ 0x00027ea6   Section       70  qcontactmanager.o(t._ZN4QMapIiN10QtMobility15QContactManager5ErrorEEaSERKS3_)
    t._ZN4QMapIiN10QtMobility15QContactManager5ErrorEEixERKi 0x00027eec   Section       70  qcontactmanagerengine.o(t._ZN4QMapIiN10QtMobility15QContactManager5ErrorEEixERKi)
    t._ZN4QMapIj5QListIN10QtMobility20QContactRelationshipEEE11node_createEP8QMapDataPPNS5_4NodeERKjRKS3_ 0x00027f32   Section      130  qcontactmemorybackend.o(t._ZN4QMapIj5QListIN10QtMobility20QContactRelationshipEEE11node_createEP8QMapDataPPNS5_4NodeERKjRKS3_)
    t._ZN4QMapIj5QListIN10QtMobility20QContactRelationshipEEE11node_createEP8QMapDataPPNS5_4NodeERKjRKS3_.clean 0x00027fb4   Section       28  qcontactmemorybackend.o(t._ZN4QMapIj5QListIN10QtMobility20QContactRelationshipEEE11node_createEP8QMapDataPPNS5_4NodeERKjRKS3_.clean)
    t._ZN4QMapIj5QListIN10QtMobility20QContactRelationshipEEE13detach_helperEv 0x00027fd0   Section      146  qcontactmemorybackend.o(t._ZN4QMapIj5QListIN10QtMobility20QContactRelationshipEEE13detach_helperEv)
    t._ZN4QMapIj5QListIN10QtMobility20QContactRelationshipEEE13detach_helperEv.clean 0x00028062   Section        8  qcontactmemorybackend.o(t._ZN4QMapIj5QListIN10QtMobility20QContactRelationshipEEE13detach_helperEv.clean)
    t._ZN4QMapIj5QListIN10QtMobility20QContactRelationshipEEE6insertERKjRKS3_ 0x0002806a   Section      162  qcontactmemorybackend.o(t._ZN4QMapIj5QListIN10QtMobility20QContactRelationshipEEE6insertERKjRKS3_)
    t._ZN4QMapIj5QListIN10QtMobility20QContactRelationshipEEE8freeDataEP8QMapData 0x0002810c   Section       56  qcontactmemorybackend.o(t._ZN4QMapIj5QListIN10QtMobility20QContactRelationshipEEE8freeDataEP8QMapData)
    t._ZN4QMapIj5QListIN10QtMobility20QContactRelationshipEEED1Ev 0x00028144   Section       38  qcontactmemorybackend.o(t._ZN4QMapIj5QListIN10QtMobility20QContactRelationshipEEED1Ev)
    t._ZN4QSetI7QStringE6insertERKS0_        0x0002816a   Section       46  qcontactmanager_p.o(t._ZN4QSetI7QStringE6insertERKS0_)
    t._ZN4QSetI7QStringEC1ERKS1_             0x00028198   Section       42  qcontactmanagerenginev2wrapper_p.o(t._ZN4QSetI7QStringEC1ERKS1_)
    t._ZN4QSetIjE5clearEv                    0x000281c2   Section       86  qcontactchangeset.o(t._ZN4QSetIjE5clearEv)
    t._ZN4QSetIjE5clearEv.clean              0x00028218   Section       10  qcontactchangeset.o(t._ZN4QSetIjE5clearEv.clean)
    t._ZN4QSetIjE6insertERKj                 0x00028222   Section       46  qcontactchangeset.o(t._ZN4QSetIjE6insertERKj)
    t._ZN4QSetIjEC1ERKS0_                    0x00028250   Section       42  qcontactchangeset.o(t._ZN4QSetIjEC1ERKS0_)
    t._ZN4QSetIjEC1Ev                        0x0002827a   Section       14  qcontactchangeset.o(t._ZN4QSetIjEC1Ev)
    t._ZN5QHashI7QString15QHashDummyValueE11deleteNode2EPN9QHashData4NodeE 0x00028288   Section       24  qcontactaction.o(t._ZN5QHashI7QString15QHashDummyValueE11deleteNode2EPN9QHashData4NodeE)
    t._ZN5QHashI7QString15QHashDummyValueE13detach_helperEv 0x000282a0   Section       60  qcontactaction.o(t._ZN5QHashI7QString15QHashDummyValueE13detach_helperEv)
    t._ZN5QHashI7QString15QHashDummyValueE13duplicateNodeEPN9QHashData4NodeEPv 0x000282dc   Section       44  qcontactaction.o(t._ZN5QHashI7QString15QHashDummyValueE13duplicateNodeEPN9QHashData4NodeEPv)
    t._ZN5QHashI7QString15QHashDummyValueE13duplicateNodeEPN9QHashData4NodeEPv.clean 0x00028308   Section       12  qcontactaction.o(t._ZN5QHashI7QString15QHashDummyValueE13duplicateNodeEPN9QHashData4NodeEPv.clean)
    t._ZN5QHashI7QString15QHashDummyValueE6detachEv 0x00028314   Section       28  qcontactmanagerengine.o(t._ZN5QHashI7QString15QHashDummyValueE6detachEv)
    t._ZN5QHashI7QString15QHashDummyValueE6insertERKS0_RKS1_ 0x00028330   Section      168  qcontactmanagerengine.o(t._ZN5QHashI7QString15QHashDummyValueE6insertERKS0_RKS1_)
    t._ZN5QHashI7QString15QHashDummyValueE6insertERKS0_RKS1_.clean 0x000283d8   Section       12  qcontactmanagerengine.o(t._ZN5QHashI7QString15QHashDummyValueE6insertERKS0_RKS1_.clean)
    t._ZN5QHashI7QString15QHashDummyValueE8freeDataEP9QHashData 0x000283e4   Section       20  qcontactaction.o(t._ZN5QHashI7QString15QHashDummyValueE8freeDataEP9QHashData)
    t._ZN5QHashI7QString15QHashDummyValueED1Ev 0x000283f8   Section       30  qcontactaction.o(t._ZN5QHashI7QString15QHashDummyValueED1Ev)
    t._ZN5QHashI7QStringN10QtMobility24QContactActionDescriptorEE11deleteNode2EPN9QHashData4NodeE 0x00028416   Section       36  qcontactactionmanager_p.o(t._ZN5QHashI7QStringN10QtMobility24QContactActionDescriptorEE11deleteNode2EPN9QHashData4NodeE)
    t._ZN5QHashI7QStringN10QtMobility24QContactActionDescriptorEE11deleteNode2EPN9QHashData4NodeE.clean 0x0002843a   Section       12  qcontactactionmanager_p.o(t._ZN5QHashI7QStringN10QtMobility24QContactActionDescriptorEE11deleteNode2EPN9QHashData4NodeE.clean)
    t._ZN5QHashI7QStringN10QtMobility24QContactActionDescriptorEE8freeDataEP9QHashData 0x00028448   Section       20  qcontactactionmanager_p.o(t._ZN5QHashI7QStringN10QtMobility24QContactActionDescriptorEE8freeDataEP9QHashData)
    t._ZN5QHashI7QStringN10QtMobility24QContactActionDescriptorEED1Ev 0x0002845c   Section       30  qcontactactionmanager_p.o(t._ZN5QHashI7QStringN10QtMobility24QContactActionDescriptorEED1Ev)
    t._ZN5QHashI7QStringPN10QtMobility28QContactManagerEngineFactoryEE11deleteNode2EPN9QHashData4NodeE 0x0002847a   Section       24  qcontactmanager_p.o(t._ZN5QHashI7QStringPN10QtMobility28QContactManagerEngineFactoryEE11deleteNode2EPN9QHashData4NodeE)
    t._ZN5QHashI7QStringPN10QtMobility28QContactManagerEngineFactoryEE11insertMultiERKS0_RKS3_ 0x00028492   Section      156  qcontactmanager_p.o(t._ZN5QHashI7QStringPN10QtMobility28QContactManagerEngineFactoryEE11insertMultiERKS0_RKS3_)
    t._ZN5QHashI7QStringPN10QtMobility28QContactManagerEngineFactoryEE11insertMultiERKS0_RKS3_.clean 0x0002852e   Section       14  qcontactmanager_p.o(t._ZN5QHashI7QStringPN10QtMobility28QContactManagerEngineFactoryEE11insertMultiERKS0_RKS3_.clean)
    t._ZN5QHashI7QStringPN10QtMobility28QContactManagerEngineFactoryEE13detach_helperEv 0x0002853c   Section       60  qcontactmanager_p.o(t._ZN5QHashI7QStringPN10QtMobility28QContactManagerEngineFactoryEE13detach_helperEv)
    t._ZN5QHashI7QStringPN10QtMobility28QContactManagerEngineFactoryEE13duplicateNodeEPN9QHashData4NodeEPv 0x00028578   Section       46  qcontactmanager_p.o(t._ZN5QHashI7QStringPN10QtMobility28QContactManagerEngineFactoryEE13duplicateNodeEPN9QHashData4NodeEPv)
    t._ZN5QHashI7QStringPN10QtMobility28QContactManagerEngineFactoryEE13duplicateNodeEPN9QHashData4NodeEPv.clean 0x000285a6   Section       14  qcontactmanager_p.o(t._ZN5QHashI7QStringPN10QtMobility28QContactManagerEngineFactoryEE13duplicateNodeEPN9QHashData4NodeEPv.clean)
    t._ZN5QHashI7QStringPN10QtMobility28QContactManagerEngineFactoryEE8freeDataEP9QHashData 0x000285b4   Section       20  qcontactmanager_p.o(t._ZN5QHashI7QStringPN10QtMobility28QContactManagerEngineFactoryEE8freeDataEP9QHashData)
    t._ZN5QHashI7QStringPN10QtMobility28QContactManagerEngineFactoryEEC1Ev 0x000285c8   Section       28  qcontactmanager_p.o(t._ZN5QHashI7QStringPN10QtMobility28QContactManagerEngineFactoryEEC1Ev)
    t._ZN5QHashI7QStringPN10QtMobility28QContactManagerEngineFactoryEED1Ev 0x000285e4   Section       30  qcontactmanager_p.o(t._ZN5QHashI7QStringPN10QtMobility28QContactManagerEngineFactoryEED1Ev)
    t._ZN5QHashI7QStringPcE11deleteNode2EPN9QHashData4NodeE 0x00028602   Section       24  qcontactdetail.o(t._ZN5QHashI7QStringPcE11deleteNode2EPN9QHashData4NodeE)
    t._ZN5QHashI7QStringPcE13detach_helperEv 0x0002861c   Section       60  qcontactdetail.o(t._ZN5QHashI7QStringPcE13detach_helperEv)
    t._ZN5QHashI7QStringPcE13duplicateNodeEPN9QHashData4NodeEPv 0x00028658   Section       46  qcontactdetail.o(t._ZN5QHashI7QStringPcE13duplicateNodeEPN9QHashData4NodeEPv)
    t._ZN5QHashI7QStringPcE13duplicateNodeEPN9QHashData4NodeEPv.clean 0x00028686   Section       14  qcontactdetail.o(t._ZN5QHashI7QStringPcE13duplicateNodeEPN9QHashData4NodeEPv.clean)
    t._ZN5QHashI7QStringPcE6insertERKS0_RKS1_ 0x00028694   Section      194  qcontactdetail.o(t._ZN5QHashI7QStringPcE6insertERKS0_RKS1_)
    t._ZN5QHashI7QStringPcE6insertERKS0_RKS1_.clean 0x00028756   Section       14  qcontactdetail.o(t._ZN5QHashI7QStringPcE6insertERKS0_RKS1_.clean)
    t._ZN5QHashI7QStringPcE8freeDataEP9QHashData 0x00028764   Section       20  qcontactdetail.o(t._ZN5QHashI7QStringPcE8freeDataEP9QHashData)
    t._ZN5QHashI7QStringPcEC1Ev              0x00028778   Section       28  qcontactdetail.o(t._ZN5QHashI7QStringPcEC1Ev)
    t._ZN5QHashI7QStringPcED1Ev              0x00028794   Section       30  qcontactdetail.o(t._ZN5QHashI7QStringPcED1Ev)
    t._ZN5QHashIN10QtMobility20QContactActionTargetE15QHashDummyValueE11deleteNode2EPN9QHashData4NodeE 0x000287b2   Section       24  qcontactactiondescriptor.o(t._ZN5QHashIN10QtMobility20QContactActionTargetE15QHashDummyValueE11deleteNode2EPN9QHashData4NodeE)
    t._ZN5QHashIN10QtMobility20QContactActionTargetE15QHashDummyValueE8freeDataEP9QHashData 0x000287cc   Section       20  qcontactactiondescriptor.o(t._ZN5QHashIN10QtMobility20QContactActionTargetE15QHashDummyValueE8freeDataEP9QHashData)
    t._ZN5QHashIN10QtMobility20QContactActionTargetE15QHashDummyValueED1Ev 0x000287e0   Section       30  qcontactactionfactory.o(t._ZN5QHashIN10QtMobility20QContactActionTargetE15QHashDummyValueED1Ev)
    t._ZN5QHashIN10QtMobility20QContactStringHolderE8QVariantE11deleteNode2EPN9QHashData4NodeE 0x000287fe   Section       32  qcontact.o(t._ZN5QHashIN10QtMobility20QContactStringHolderE8QVariantE11deleteNode2EPN9QHashData4NodeE)
    t._ZN5QHashIN10QtMobility20QContactStringHolderE8QVariantE11deleteNode2EPN9QHashData4NodeE.clean 0x0002881e   Section       12  qcontact.o(t._ZN5QHashIN10QtMobility20QContactStringHolderE8QVariantE11deleteNode2EPN9QHashData4NodeE.clean)
    t._ZN5QHashIN10QtMobility20QContactStringHolderE8QVariantE13detach_helperEv 0x0002882c   Section       60  qcontact.o(t._ZN5QHashIN10QtMobility20QContactStringHolderE8QVariantE13detach_helperEv)
    t._ZN5QHashIN10QtMobility20QContactStringHolderE8QVariantE13duplicateNodeEPN9QHashData4NodeEPv 0x00028868   Section       48  qcontactdetail.o(t._ZN5QHashIN10QtMobility20QContactStringHolderE8QVariantE13duplicateNodeEPN9QHashData4NodeEPv)
    t._ZN5QHashIN10QtMobility20QContactStringHolderE8QVariantE13duplicateNodeEPN9QHashData4NodeEPv.clean 0x00028898   Section       14  qcontactdetail.o(t._ZN5QHashIN10QtMobility20QContactStringHolderE8QVariantE13duplicateNodeEPN9QHashData4NodeEPv.clean)
    t._ZN5QHashIN10QtMobility20QContactStringHolderE8QVariantE14const_iteratorppEv 0x000288a6   Section       16  qcontactdetail.o(t._ZN5QHashIN10QtMobility20QContactStringHolderE8QVariantE14const_iteratorppEv)
    t._ZN5QHashIN10QtMobility20QContactStringHolderE8QVariantE6detachEv 0x000288b6   Section       28  qcontactdetail.o(t._ZN5QHashIN10QtMobility20QContactStringHolderE8QVariantE6detachEv)
    t._ZN5QHashIN10QtMobility20QContactStringHolderE8QVariantE6insertERKS1_RKS2_ 0x000288d2   Section      182  qcontactdetail.o(t._ZN5QHashIN10QtMobility20QContactStringHolderE8QVariantE6insertERKS1_RKS2_)
    t._ZN5QHashIN10QtMobility20QContactStringHolderE8QVariantE6insertERKS1_RKS2_.clean 0x00028988   Section       14  qcontactdetail.o(t._ZN5QHashIN10QtMobility20QContactStringHolderE8QVariantE6insertERKS1_RKS2_.clean)
    t._ZN5QHashIN10QtMobility20QContactStringHolderE8QVariantE6removeERKS1_ 0x00028996   Section      236  qcontactdetail.o(t._ZN5QHashIN10QtMobility20QContactStringHolderE8QVariantE6removeERKS1_)
    t._ZN5QHashIN10QtMobility20QContactStringHolderE8QVariantE8freeDataEP9QHashData 0x00028a84   Section       20  qcontact.o(t._ZN5QHashIN10QtMobility20QContactStringHolderE8QVariantE8freeDataEP9QHashData)
    t._ZN5QHashIN10QtMobility20QContactStringHolderE8QVariantED1Ev 0x00028a98   Section       30  qcontact.o(t._ZN5QHashIN10QtMobility20QContactStringHolderE8QVariantED1Ev)
    t._ZN5QHashIN10QtMobility24QContactActionDescriptorEPNS0_21QContactActionFactoryEE11deleteNode2EPN9QHashData4NodeE 0x00028ab6   Section       24  qcontactactionmanager_p.o(t._ZN5QHashIN10QtMobility24QContactActionDescriptorEPNS0_21QContactActionFactoryEE11deleteNode2EPN9QHashData4NodeE)
    t._ZN5QHashIN10QtMobility24QContactActionDescriptorEPNS0_21QContactActionFactoryEE8freeDataEP9QHashData 0x00028ad0   Section       20  qcontactactionmanager_p.o(t._ZN5QHashIN10QtMobility24QContactActionDescriptorEPNS0_21QContactActionFactoryEE8freeDataEP9QHashData)
    t._ZN5QHashIN10QtMobility24QContactActionDescriptorEPNS0_21QContactActionFactoryEED1Ev 0x00028ae4   Section       30  qcontactactionmanager_p.o(t._ZN5QHashIN10QtMobility24QContactActionDescriptorEPNS0_21QContactActionFactoryEED1Ev)
    t._ZN5QHashIPKc7QStringE11deleteNode2EPN9QHashData4NodeE 0x00028b02   Section       24  qcontactdetail.o(t._ZN5QHashIPKc7QStringE11deleteNode2EPN9QHashData4NodeE)
    t._ZN5QHashIPKc7QStringE13detach_helperEv 0x00028b1c   Section       60  qcontactdetail.o(t._ZN5QHashIPKc7QStringE13detach_helperEv)
    t._ZN5QHashIPKc7QStringE13duplicateNodeEPN9QHashData4NodeEPv 0x00028b58   Section       46  qcontactdetail.o(t._ZN5QHashIPKc7QStringE13duplicateNodeEPN9QHashData4NodeEPv)
    t._ZN5QHashIPKc7QStringE13duplicateNodeEPN9QHashData4NodeEPv.clean 0x00028b86   Section       14  qcontactdetail.o(t._ZN5QHashIPKc7QStringE13duplicateNodeEPN9QHashData4NodeEPv.clean)
    t._ZN5QHashIPKc7QStringE6insertERKS1_RKS2_ 0x00028b94   Section      200  qcontactdetail.o(t._ZN5QHashIPKc7QStringE6insertERKS1_RKS2_)
    t._ZN5QHashIPKc7QStringE6insertERKS1_RKS2_.clean 0x00028c5c   Section       14  qcontactdetail.o(t._ZN5QHashIPKc7QStringE6insertERKS1_RKS2_.clean)
    t._ZN5QHashIPKc7QStringE8freeDataEP9QHashData 0x00028c6c   Section       20  qcontactdetail.o(t._ZN5QHashIPKc7QStringE8freeDataEP9QHashData)
    t._ZN5QHashIPKc7QStringEC1Ev             0x00028c80   Section       28  qcontactdetail.o(t._ZN5QHashIPKc7QStringEC1Ev)
    t._ZN5QHashIPKc7QStringED1Ev             0x00028c9c   Section       30  qcontactdetail.o(t._ZN5QHashIPKc7QStringED1Ev)
    t._ZN5QHashIPN10QtMobility15QContactManagerE15QHashDummyValueE11deleteNode2EPN9QHashData4NodeE 0x00028cba   Section        6  qcontactmanager_p.o(t._ZN5QHashIPN10QtMobility15QContactManagerE15QHashDummyValueE11deleteNode2EPN9QHashData4NodeE)
    t._ZN5QHashIPN10QtMobility15QContactManagerE15QHashDummyValueE13detach_helperEv 0x00028cc0   Section       60  qcontactmanager_p.o(t._ZN5QHashIPN10QtMobility15QContactManagerE15QHashDummyValueE13detach_helperEv)
    t._ZN5QHashIPN10QtMobility15QContactManagerE15QHashDummyValueE13duplicateNodeEPN9QHashData4NodeEPv 0x00028cfc   Section       40  qcontactmanager_p.o(t._ZN5QHashIPN10QtMobility15QContactManagerE15QHashDummyValueE13duplicateNodeEPN9QHashData4NodeEPv)
    t._ZN5QHashIPN10QtMobility15QContactManagerE15QHashDummyValueE6detachEv 0x00028d24   Section       28  qcontactmanager.o(t._ZN5QHashIPN10QtMobility15QContactManagerE15QHashDummyValueE6detachEv)
    t._ZN5QHashIPN10QtMobility15QContactManagerE15QHashDummyValueE6insertERKS2_RKS3_ 0x00028d40   Section      192  qcontactmanager.o(t._ZN5QHashIPN10QtMobility15QContactManagerE15QHashDummyValueE6insertERKS2_RKS3_)
    t._ZN5QHashIPN10QtMobility15QContactManagerE15QHashDummyValueE6insertERKS2_RKS3_.clean 0x00028e00   Section        4  qcontactmanager.o(t._ZN5QHashIPN10QtMobility15QContactManagerE15QHashDummyValueE6insertERKS2_RKS3_.clean)
    t._ZN5QHashIPN10QtMobility15QContactManagerE15QHashDummyValueE6removeERKS2_ 0x00028e04   Section      242  qcontactmanager.o(t._ZN5QHashIPN10QtMobility15QContactManagerE15QHashDummyValueE6removeERKS2_)
    t._ZN5QHashIPN10QtMobility15QContactManagerE15QHashDummyValueE8freeDataEP9QHashData 0x00028ef8   Section       20  qcontactmanager_p.o(t._ZN5QHashIPN10QtMobility15QContactManagerE15QHashDummyValueE8freeDataEP9QHashData)
    t._ZN5QHashIPN10QtMobility15QContactManagerE15QHashDummyValueEC1Ev 0x00028f0c   Section       28  qcontactmanager_p.o(t._ZN5QHashIPN10QtMobility15QContactManagerE15QHashDummyValueEC1Ev)
    t._ZN5QHashIPN10QtMobility15QContactManagerE15QHashDummyValueED1Ev 0x00028f28   Section       30  qcontactmanager_p.o(t._ZN5QHashIPN10QtMobility15QContactManagerE15QHashDummyValueED1Ev)
    t._ZN5QHashIPN10QtMobility23QContactAbstractRequestEPNS0_17RequestControllerEE11deleteNode2EPN9QHashData4NodeE 0x00028f46   Section        6  qcontactmanagerenginev2wrapper_p.o(t._ZN5QHashIPN10QtMobility23QContactAbstractRequestEPNS0_17RequestControllerEE11deleteNode2EPN9QHashData4NodeE)
    t._ZN5QHashIPN10QtMobility23QContactAbstractRequestEPNS0_17RequestControllerEE13detach_helperEv 0x00028f4c   Section       60  qcontactmanagerenginev2wrapper_p.o(t._ZN5QHashIPN10QtMobility23QContactAbstractRequestEPNS0_17RequestControllerEE13detach_helperEv)
    t._ZN5QHashIPN10QtMobility23QContactAbstractRequestEPNS0_17RequestControllerEE13duplicateNodeEPN9QHashData4NodeEPv 0x00028f88   Section       46  qcontactmanagerenginev2wrapper_p.o(t._ZN5QHashIPN10QtMobility23QContactAbstractRequestEPNS0_17RequestControllerEE13duplicateNodeEPN9QHashData4NodeEPv)
    t._ZN5QHashIPN10QtMobility23QContactAbstractRequestEPNS0_17RequestControllerEE6insertERKS2_RKS4_ 0x00028fb6   Section      200  qcontactmanagerenginev2wrapper_p.o(t._ZN5QHashIPN10QtMobility23QContactAbstractRequestEPNS0_17RequestControllerEE6insertERKS2_RKS4_)
    t._ZN5QHashIPN10QtMobility23QContactAbstractRequestEPNS0_17RequestControllerEE6insertERKS2_RKS4_.clean 0x0002907e   Section        4  qcontactmanagerenginev2wrapper_p.o(t._ZN5QHashIPN10QtMobility23QContactAbstractRequestEPNS0_17RequestControllerEE6insertERKS2_RKS4_.clean)
    t._ZN5QHashIPN10QtMobility23QContactAbstractRequestEPNS0_17RequestControllerEE8freeDataEP9QHashData 0x00029084   Section       20  qcontactmanagerenginev2wrapper_p.o(t._ZN5QHashIPN10QtMobility23QContactAbstractRequestEPNS0_17RequestControllerEE8freeDataEP9QHashData)
    t._ZN5QHashIPN10QtMobility23QContactAbstractRequestEPNS0_17RequestControllerEED1Ev 0x00029098   Section       30  qcontactmanagerenginev2wrapper_p.o(t._ZN5QHashIPN10QtMobility23QContactAbstractRequestEPNS0_17RequestControllerEED1Ev)
    t._ZN5QHashIiiE11deleteNode2EPN9QHashData4NodeE 0x000290b6   Section        6  moc_qcontactmanagerenginev2wrapper_p.o(t._ZN5QHashIiiE11deleteNode2EPN9QHashData4NodeE)
    t._ZN5QHashIiiE13detach_helperEv         0x000290bc   Section       60  qcontactmanagerengine.o(t._ZN5QHashIiiE13detach_helperEv)
    t._ZN5QHashIiiE13duplicateNodeEPN9QHashData4NodeEPv 0x000290f8   Section       42  qcontactmanagerengine.o(t._ZN5QHashIiiE13duplicateNodeEPN9QHashData4NodeEPv)
    t._ZN5QHashIiiE6insertERKiS2_            0x00029122   Section      196  qcontactmanagerengine.o(t._ZN5QHashIiiE6insertERKiS2_)
    t._ZN5QHashIiiE6insertERKiS2_.clean      0x000291e6   Section        4  qcontactmanagerengine.o(t._ZN5QHashIiiE6insertERKiS2_.clean)
    t._ZN5QHashIiiE8freeDataEP9QHashData     0x000291ec   Section       20  moc_qcontactmanagerenginev2wrapper_p.o(t._ZN5QHashIiiE8freeDataEP9QHashData)
    t._ZN5QHashIiiED1Ev                      0x00029200   Section       30  moc_qcontactmanagerenginev2wrapper_p.o(t._ZN5QHashIiiED1Ev)
    t._ZN5QHashIj15QHashDummyValueE11deleteNode2EPN9QHashData4NodeE 0x0002921e   Section        6  qcontactchangeset.o(t._ZN5QHashIj15QHashDummyValueE11deleteNode2EPN9QHashData4NodeE)
    t._ZN5QHashIj15QHashDummyValueE13detach_helperEv 0x00029224   Section       60  qcontactchangeset.o(t._ZN5QHashIj15QHashDummyValueE13detach_helperEv)
    t._ZN5QHashIj15QHashDummyValueE13duplicateNodeEPN9QHashData4NodeEPv 0x00029260   Section       36  qcontactchangeset.o(t._ZN5QHashIj15QHashDummyValueE13duplicateNodeEPN9QHashData4NodeEPv)
    t._ZN5QHashIj15QHashDummyValueE6detachEv 0x00029284   Section       28  qcontactchangeset.o(t._ZN5QHashIj15QHashDummyValueE6detachEv)
    t._ZN5QHashIj15QHashDummyValueE6insertERKjRKS0_ 0x000292a0   Section      188  qcontactchangeset.o(t._ZN5QHashIj15QHashDummyValueE6insertERKjRKS0_)
    t._ZN5QHashIj15QHashDummyValueE6insertERKjRKS0_.clean 0x0002935c   Section        4  qcontactchangeset.o(t._ZN5QHashIj15QHashDummyValueE6insertERKjRKS0_.clean)
    t._ZN5QHashIj15QHashDummyValueE8freeDataEP9QHashData 0x00029360   Section       20  qcontactchangeset.o(t._ZN5QHashIj15QHashDummyValueE8freeDataEP9QHashData)
    t._ZN5QHashIj15QHashDummyValueEC1Ev      0x00029374   Section       28  qcontactchangeset.o(t._ZN5QHashIj15QHashDummyValueEC1Ev)
    t._ZN5QHashIj15QHashDummyValueED1Ev      0x00029390   Section       30  qcontactchangeset.o(t._ZN5QHashIj15QHashDummyValueED1Ev)
    t._ZN5QHashIjiE10createNodeEjRKjRKiPP9QHashNodeIjiE 0x000293ae   Section      100  qcontactmanagerengine.o(t._ZN5QHashIjiE10createNodeEjRKjRKiPP9QHashNodeIjiE)
    t._ZN5QHashIjiE10createNodeEjRKjRKiPP9QHashNodeIjiE.clean 0x00029412   Section        4  qcontactmanagerengine.o(t._ZN5QHashIjiE10createNodeEjRKjRKiPP9QHashNodeIjiE.clean)
    t._ZN5QHashIjiE11deleteNode2EPN9QHashData4NodeE 0x00029416   Section        6  qcontactmanagerengine.o(t._ZN5QHashIjiE11deleteNode2EPN9QHashData4NodeE)
    t._ZN5QHashIjiE13detach_helperEv         0x0002941c   Section       60  qcontactmanagerengine.o(t._ZN5QHashIjiE13detach_helperEv)
    t._ZN5QHashIjiE13duplicateNodeEPN9QHashData4NodeEPv 0x00029458   Section       42  qcontactmanagerengine.o(t._ZN5QHashIjiE13duplicateNodeEPN9QHashData4NodeEPv)
    t._ZN5QHashIjiE6detachEv                 0x00029482   Section       28  qcontactmanagerengine.o(t._ZN5QHashIjiE6detachEv)
    t._ZN5QHashIjiE8freeDataEP9QHashData     0x000294a0   Section       20  qcontactmanagerengine.o(t._ZN5QHashIjiE8freeDataEP9QHashData)
    t._ZN5QHashIjiED1Ev                      0x000294b4   Section       30  qcontactmanagerengine.o(t._ZN5QHashIjiED1Ev)
    t._ZN5QListI7QStringE11setSharableEb     0x000294d2   Section       22  qcontactmanagerengine.o(t._ZN5QListI7QStringE11setSharableEb)
    t._ZN5QListI7QStringE13detach_helperEi   0x000294e8   Section       94  qcontact.o(t._ZN5QListI7QStringE13detach_helperEi)
    t._ZN5QListI7QStringE13detach_helperEi.clean 0x00029546   Section        8  qcontact.o(t._ZN5QListI7QStringE13detach_helperEi.clean)
    t._ZN5QListI7QStringE13detach_helperEv   0x0002954e   Section       16  qcontact.o(t._ZN5QListI7QStringE13detach_helperEv)
    t._ZN5QListI7QStringE13node_destructEPNS1_4NodeES3_ 0x0002955e   Section       26  qcontact.o(t._ZN5QListI7QStringE13node_destructEPNS1_4NodeES3_)
    t._ZN5QListI7QStringE14node_constructEPNS1_4NodeERKS0_ 0x00029578   Section       36  qcontact.o(t._ZN5QListI7QStringE14node_constructEPNS1_4NodeERKS0_)
    t._ZN5QListI7QStringE14node_constructEPNS1_4NodeERKS0_.clean 0x0002959c   Section       14  qcontact.o(t._ZN5QListI7QStringE14node_constructEPNS1_4NodeERKS0_.clean)
    t._ZN5QListI7QStringE18detach_helper_growEii 0x000295aa   Section      208  qcontact.o(t._ZN5QListI7QStringE18detach_helper_growEii)
    t._ZN5QListI7QStringE18detach_helper_growEii.clean 0x0002967a   Section       16  qcontact.o(t._ZN5QListI7QStringE18detach_helper_growEii.clean)
    t._ZN5QListI7QStringE3endEv              0x0002968a   Section       26  qcontactmanagerengine.o(t._ZN5QListI7QStringE3endEv)
    t._ZN5QListI7QStringE4freeEPN9QListData4DataE 0x000296a4   Section       52  qcontact.o(t._ZN5QListI7QStringE4freeEPN9QListData4DataE)
    t._ZN5QListI7QStringE5clearEv            0x000296d8   Section       28  qcontactfetchhint.o(t._ZN5QListI7QStringE5clearEv)
    t._ZN5QListI7QStringE5clearEv.clean      0x000296f4   Section       10  qcontactfetchhint.o(t._ZN5QListI7QStringE5clearEv.clean)
    t._ZN5QListI7QStringE6appendERKS0_       0x00029700   Section      120  qcontact.o(t._ZN5QListI7QStringE6appendERKS0_)
    t._ZN5QListI7QStringE6appendERKS0_.clean 0x00029778   Section       14  qcontact.o(t._ZN5QListI7QStringE6appendERKS0_.clean)
    t._ZN5QListI7QStringE6detachEv           0x00029786   Section       24  qcontactmanagerengine.o(t._ZN5QListI7QStringE6detachEv)
    t._ZN5QListI7QStringE7reserveEi          0x0002979e   Section       46  qcontact.o(t._ZN5QListI7QStringE7reserveEi)
    t._ZN5QListI7QStringE9node_copyEPNS1_4NodeES3_S3_ 0x000297cc   Section       82  qcontact.o(t._ZN5QListI7QStringE9node_copyEPNS1_4NodeES3_S3_)
    t._ZN5QListI7QStringE9node_copyEPNS1_4NodeES3_S3_.clean 0x0002981e   Section       22  qcontact.o(t._ZN5QListI7QStringE9node_copyEPNS1_4NodeES3_S3_.clean)
    t._ZN5QListI7QStringE9removeAllERKS0_    0x00029834   Section      132  qcontactmanager.o(t._ZN5QListI7QStringE9removeAllERKS0_)
    t._ZN5QListI7QStringE9removeAllERKS0_.clean 0x000298b8   Section       10  qcontactmanager.o(t._ZN5QListI7QStringE9removeAllERKS0_.clean)
    t._ZN5QListI7QStringEC1Ev                0x000298c4   Section       24  qcontactfetchhint.o(t._ZN5QListI7QStringEC1Ev)
    t._ZN5QListI7QStringED1Ev                0x000298dc   Section       32  qcontact.o(t._ZN5QListI7QStringED1Ev)
    t._ZN5QListI7QStringEaSERKS1_            0x000298fc   Section       64  qcontactfetchhint.o(t._ZN5QListI7QStringEaSERKS1_)
    t._ZN5QListI7QStringEpLERKS1_            0x0002993c   Section      204  qcontactmanager.o(t._ZN5QListI7QStringEpLERKS1_)
    t._ZN5QListI7QStringEpLERKS1_.clean      0x00029a08   Section        8  qcontactmanager.o(t._ZN5QListI7QStringEpLERKS1_.clean)
    t._ZN5QListI8QVariantE11setSharableEb    0x00029a10   Section       22  qcontactmanagerengine.o(t._ZN5QListI8QVariantE11setSharableEb)
    t._ZN5QListI8QVariantE13detach_helperEi  0x00029a26   Section       94  qcontactdetailfielddefinition.o(t._ZN5QListI8QVariantE13detach_helperEi)
    t._ZN5QListI8QVariantE13detach_helperEi.clean 0x00029a84   Section        8  qcontactdetailfielddefinition.o(t._ZN5QListI8QVariantE13detach_helperEi.clean)
    t._ZN5QListI8QVariantE13detach_helperEv  0x00029a8c   Section       16  qcontactdetailfielddefinition.o(t._ZN5QListI8QVariantE13detach_helperEv)
    t._ZN5QListI8QVariantE13node_destructEPNS1_4NodeE 0x00029a9c   Section       28  qcontactmanagerengine.o(t._ZN5QListI8QVariantE13node_destructEPNS1_4NodeE)
    t._ZN5QListI8QVariantE13node_destructEPNS1_4NodeES3_ 0x00029ab8   Section       38  qcontactdetailfielddefinition.o(t._ZN5QListI8QVariantE13node_destructEPNS1_4NodeES3_)
    t._ZN5QListI8QVariantE14node_constructEPNS1_4NodeERKS0_ 0x00029ade   Section       34  qcontactdetailfielddefinition.o(t._ZN5QListI8QVariantE14node_constructEPNS1_4NodeERKS0_)
    t._ZN5QListI8QVariantE14node_constructEPNS1_4NodeERKS0_.clean 0x00029b00   Section       14  qcontactdetailfielddefinition.o(t._ZN5QListI8QVariantE14node_constructEPNS1_4NodeERKS0_.clean)
    t._ZN5QListI8QVariantE18detach_helper_growEii 0x00029b0e   Section      208  qcontactdetailfielddefinition.o(t._ZN5QListI8QVariantE18detach_helper_growEii)
    t._ZN5QListI8QVariantE18detach_helper_growEii.clean 0x00029bde   Section       16  qcontactdetailfielddefinition.o(t._ZN5QListI8QVariantE18detach_helper_growEii.clean)
    t._ZN5QListI8QVariantE3endEv             0x00029bee   Section       26  qcontactmanagerengine.o(t._ZN5QListI8QVariantE3endEv)
    t._ZN5QListI8QVariantE4freeEPN9QListData4DataE 0x00029c08   Section       52  qcontactmanagerengine.o(t._ZN5QListI8QVariantE4freeEPN9QListData4DataE)
    t._ZN5QListI8QVariantE5clearEv           0x00029c3c   Section       28  qcontactdetailfielddefinition.o(t._ZN5QListI8QVariantE5clearEv)
    t._ZN5QListI8QVariantE5clearEv.clean     0x00029c58   Section       10  qcontactdetailfielddefinition.o(t._ZN5QListI8QVariantE5clearEv.clean)
    t._ZN5QListI8QVariantE6appendERKS0_      0x00029c64   Section      112  qcontactdetailfielddefinition.o(t._ZN5QListI8QVariantE6appendERKS0_)
    t._ZN5QListI8QVariantE6appendERKS0_.clean 0x00029cd4   Section       14  qcontactdetailfielddefinition.o(t._ZN5QListI8QVariantE6appendERKS0_.clean)
    t._ZN5QListI8QVariantE6detachEv          0x00029ce2   Section       24  qcontactmanagerengine.o(t._ZN5QListI8QVariantE6detachEv)
    t._ZN5QListI8QVariantE7reserveEi         0x00029cfa   Section       46  qcontactdetailfielddefinition.o(t._ZN5QListI8QVariantE7reserveEi)
    t._ZN5QListI8QVariantE9node_copyEPNS1_4NodeES3_S3_ 0x00029d28   Section       92  qcontactdetailfielddefinition.o(t._ZN5QListI8QVariantE9node_copyEPNS1_4NodeES3_S3_)
    t._ZN5QListI8QVariantE9node_copyEPNS1_4NodeES3_S3_.clean 0x00029d84   Section       22  qcontactdetailfielddefinition.o(t._ZN5QListI8QVariantE9node_copyEPNS1_4NodeES3_S3_.clean)
    t._ZN5QListI8QVariantEC1ERKS1_           0x00029d9a   Section       36  qcontactdetailfielddefinition.o(t._ZN5QListI8QVariantEC1ERKS1_)
    t._ZN5QListI8QVariantEC1Ev               0x00029dc0   Section       24  qcontactdetailfielddefinition.o(t._ZN5QListI8QVariantEC1Ev)
    t._ZN5QListI8QVariantED1Ev               0x00029dd8   Section       32  qcontactdetailfielddefinition.o(t._ZN5QListI8QVariantED1Ev)
    t._ZN5QListI8QVariantEaSERKS1_           0x00029df8   Section       64  qcontactdetailfielddefinition.o(t._ZN5QListI8QVariantEaSERKS1_)
    t._ZN5QListI8QVariantElsERKS0_           0x00029e38   Section       18  qcontactmanagerengine.o(t._ZN5QListI8QVariantElsERKS0_)
    t._ZN5QListIN10QtMobility10QContactIdEE13node_destructEPNS2_4NodeES4_ 0x00029e4a   Section       26  qcontact.o(t._ZN5QListIN10QtMobility10QContactIdEE13node_destructEPNS2_4NodeES4_)
    t._ZN5QListIN10QtMobility10QContactIdEE14node_constructEPNS2_4NodeERKS1_ 0x00029e64   Section       36  qcontact.o(t._ZN5QListIN10QtMobility10QContactIdEE14node_constructEPNS2_4NodeERKS1_)
    t._ZN5QListIN10QtMobility10QContactIdEE14node_constructEPNS2_4NodeERKS1_.clean 0x00029e88   Section       14  qcontact.o(t._ZN5QListIN10QtMobility10QContactIdEE14node_constructEPNS2_4NodeERKS1_.clean)
    t._ZN5QListIN10QtMobility10QContactIdEE18detach_helper_growEii 0x00029e96   Section      208  qcontact.o(t._ZN5QListIN10QtMobility10QContactIdEE18detach_helper_growEii)
    t._ZN5QListIN10QtMobility10QContactIdEE18detach_helper_growEii.clean 0x00029f66   Section       16  qcontact.o(t._ZN5QListIN10QtMobility10QContactIdEE18detach_helper_growEii.clean)
    t._ZN5QListIN10QtMobility10QContactIdEE4freeEPN9QListData4DataE 0x00029f76   Section       52  qcontact.o(t._ZN5QListIN10QtMobility10QContactIdEE4freeEPN9QListData4DataE)
    t._ZN5QListIN10QtMobility10QContactIdEE6appendERKS1_ 0x00029fac   Section      120  qcontact.o(t._ZN5QListIN10QtMobility10QContactIdEE6appendERKS1_)
    t._ZN5QListIN10QtMobility10QContactIdEE6appendERKS1_.clean 0x0002a024   Section       14  qcontact.o(t._ZN5QListIN10QtMobility10QContactIdEE6appendERKS1_.clean)
    t._ZN5QListIN10QtMobility10QContactIdEE9node_copyEPNS2_4NodeES4_S4_ 0x0002a032   Section       82  qcontact.o(t._ZN5QListIN10QtMobility10QContactIdEE9node_copyEPNS2_4NodeES4_S4_)
    t._ZN5QListIN10QtMobility10QContactIdEE9node_copyEPNS2_4NodeES4_S4_.clean 0x0002a084   Section       22  qcontact.o(t._ZN5QListIN10QtMobility10QContactIdEE9node_copyEPNS2_4NodeES4_S4_.clean)
    t._ZN5QListIN10QtMobility10QContactIdEED1Ev 0x0002a09a   Section       32  qcontact.o(t._ZN5QListIN10QtMobility10QContactIdEED1Ev)
    t._ZN5QListIN10QtMobility14QContactDetailEE13detach_helperEi 0x0002a0ba   Section       94  qcontact.o(t._ZN5QListIN10QtMobility14QContactDetailEE13detach_helperEi)
    t._ZN5QListIN10QtMobility14QContactDetailEE13detach_helperEi.clean 0x0002a118   Section        8  qcontact.o(t._ZN5QListIN10QtMobility14QContactDetailEE13detach_helperEi.clean)
    t._ZN5QListIN10QtMobility14QContactDetailEE13detach_helperEv 0x0002a120   Section       16  qcontact.o(t._ZN5QListIN10QtMobility14QContactDetailEE13detach_helperEv)
    t._ZN5QListIN10QtMobility14QContactDetailEE13node_destructEPNS2_4NodeE 0x0002a130   Section       16  qcontact.o(t._ZN5QListIN10QtMobility14QContactDetailEE13node_destructEPNS2_4NodeE)
    t._ZN5QListIN10QtMobility14QContactDetailEE13node_destructEPNS2_4NodeES4_ 0x0002a140   Section       26  qcontact.o(t._ZN5QListIN10QtMobility14QContactDetailEE13node_destructEPNS2_4NodeES4_)
    t._ZN5QListIN10QtMobility14QContactDetailEE14node_constructEPNS2_4NodeERKS1_ 0x0002a15a   Section       36  qcontact.o(t._ZN5QListIN10QtMobility14QContactDetailEE14node_constructEPNS2_4NodeERKS1_)
    t._ZN5QListIN10QtMobility14QContactDetailEE14node_constructEPNS2_4NodeERKS1_.clean 0x0002a17e   Section       14  qcontact.o(t._ZN5QListIN10QtMobility14QContactDetailEE14node_constructEPNS2_4NodeERKS1_.clean)
    t._ZN5QListIN10QtMobility14QContactDetailEE18detach_helper_growEii 0x0002a18c   Section      208  qcontact.o(t._ZN5QListIN10QtMobility14QContactDetailEE18detach_helper_growEii)
    t._ZN5QListIN10QtMobility14QContactDetailEE18detach_helper_growEii.clean 0x0002a25c   Section       16  qcontact.o(t._ZN5QListIN10QtMobility14QContactDetailEE18detach_helper_growEii.clean)
    t._ZN5QListIN10QtMobility14QContactDetailEE4freeEPN9QListData4DataE 0x0002a26c   Section       52  qcontact.o(t._ZN5QListIN10QtMobility14QContactDetailEE4freeEPN9QListData4DataE)
    t._ZN5QListIN10QtMobility14QContactDetailEE5clearEv 0x0002a2a0   Section       28  qcontact.o(t._ZN5QListIN10QtMobility14QContactDetailEE5clearEv)
    t._ZN5QListIN10QtMobility14QContactDetailEE5clearEv.clean 0x0002a2bc   Section       10  qcontact.o(t._ZN5QListIN10QtMobility14QContactDetailEE5clearEv.clean)
    t._ZN5QListIN10QtMobility14QContactDetailEE6appendERKS1_ 0x0002a2c8   Section      120  qcontact.o(t._ZN5QListIN10QtMobility14QContactDetailEE6appendERKS1_)
    t._ZN5QListIN10QtMobility14QContactDetailEE6appendERKS1_.clean 0x0002a340   Section       14  qcontact.o(t._ZN5QListIN10QtMobility14QContactDetailEE6appendERKS1_.clean)
    t._ZN5QListIN10QtMobility14QContactDetailEE6detachEv 0x0002a34e   Section       24  qcontact.o(t._ZN5QListIN10QtMobility14QContactDetailEE6detachEv)
    t._ZN5QListIN10QtMobility14QContactDetailEE6insertEiRKS1_ 0x0002a366   Section      118  qcontact.o(t._ZN5QListIN10QtMobility14QContactDetailEE6insertEiRKS1_)
    t._ZN5QListIN10QtMobility14QContactDetailEE6insertEiRKS1_.clean 0x0002a3dc   Section       14  qcontact.o(t._ZN5QListIN10QtMobility14QContactDetailEE6insertEiRKS1_.clean)
    t._ZN5QListIN10QtMobility14QContactDetailEE7reserveEi 0x0002a3ea   Section       46  qcontact.o(t._ZN5QListIN10QtMobility14QContactDetailEE7reserveEi)
    t._ZN5QListIN10QtMobility14QContactDetailEE9node_copyEPNS2_4NodeES4_S4_ 0x0002a418   Section       82  qcontact.o(t._ZN5QListIN10QtMobility14QContactDetailEE9node_copyEPNS2_4NodeES4_S4_)
    t._ZN5QListIN10QtMobility14QContactDetailEE9node_copyEPNS2_4NodeES4_S4_.clean 0x0002a46a   Section       22  qcontact.o(t._ZN5QListIN10QtMobility14QContactDetailEE9node_copyEPNS2_4NodeES4_S4_.clean)
    t._ZN5QListIN10QtMobility14QContactDetailEEC1ERKS2_ 0x0002a480   Section       36  qcontact.o(t._ZN5QListIN10QtMobility14QContactDetailEEC1ERKS2_)
    t._ZN5QListIN10QtMobility14QContactDetailEEC1Ev 0x0002a4a4   Section       24  qcontact.o(t._ZN5QListIN10QtMobility14QContactDetailEEC1Ev)
    t._ZN5QListIN10QtMobility14QContactDetailEED1Ev 0x0002a4bc   Section       32  qcontact.o(t._ZN5QListIN10QtMobility14QContactDetailEED1Ev)
    t._ZN5QListIN10QtMobility14QContactDetailEEaSERKS2_ 0x0002a4dc   Section       64  qcontact.o(t._ZN5QListIN10QtMobility14QContactDetailEEaSERKS2_)
    t._ZN5QListIN10QtMobility14QContactDetailEEixEi 0x0002a51c   Section       28  qcontact.o(t._ZN5QListIN10QtMobility14QContactDetailEEixEi)
    t._ZN5QListIN10QtMobility14QContactFilterEE13detach_helperEi 0x0002a538   Section       94  qcontactmanagerengine.o(t._ZN5QListIN10QtMobility14QContactFilterEE13detach_helperEi)
    t._ZN5QListIN10QtMobility14QContactFilterEE13detach_helperEi.clean 0x0002a596   Section        8  qcontactmanagerengine.o(t._ZN5QListIN10QtMobility14QContactFilterEE13detach_helperEi.clean)
    t._ZN5QListIN10QtMobility14QContactFilterEE13detach_helperEv 0x0002a59e   Section       16  qcontactmanagerengine.o(t._ZN5QListIN10QtMobility14QContactFilterEE13detach_helperEv)
    t._ZN5QListIN10QtMobility14QContactFilterEE13node_destructEPNS2_4NodeES4_ 0x0002a5ae   Section       26  qcontactmanagerengine.o(t._ZN5QListIN10QtMobility14QContactFilterEE13node_destructEPNS2_4NodeES4_)
    t._ZN5QListIN10QtMobility14QContactFilterEE14node_constructEPNS2_4NodeERKS1_ 0x0002a5c8   Section       36  qcontactmanagerengine.o(t._ZN5QListIN10QtMobility14QContactFilterEE14node_constructEPNS2_4NodeERKS1_)
    t._ZN5QListIN10QtMobility14QContactFilterEE14node_constructEPNS2_4NodeERKS1_.clean 0x0002a5ec   Section       14  qcontactmanagerengine.o(t._ZN5QListIN10QtMobility14QContactFilterEE14node_constructEPNS2_4NodeERKS1_.clean)
    t._ZN5QListIN10QtMobility14QContactFilterEE18detach_helper_growEii 0x0002a5fa   Section      208  qcontactmanagerengine.o(t._ZN5QListIN10QtMobility14QContactFilterEE18detach_helper_growEii)
    t._ZN5QListIN10QtMobility14QContactFilterEE18detach_helper_growEii.clean 0x0002a6ca   Section       16  qcontactmanagerengine.o(t._ZN5QListIN10QtMobility14QContactFilterEE18detach_helper_growEii.clean)
    t._ZN5QListIN10QtMobility14QContactFilterEE3endEv 0x0002a6da   Section       26  qcontactmanagerengine.o(t._ZN5QListIN10QtMobility14QContactFilterEE3endEv)
    t._ZN5QListIN10QtMobility14QContactFilterEE4freeEPN9QListData4DataE 0x0002a6f4   Section       52  qcontactmanagerengine.o(t._ZN5QListIN10QtMobility14QContactFilterEE4freeEPN9QListData4DataE)
    t._ZN5QListIN10QtMobility14QContactFilterEE5beginEv 0x0002a728   Section       26  qcontactmanagerengine.o(t._ZN5QListIN10QtMobility14QContactFilterEE5beginEv)
    t._ZN5QListIN10QtMobility14QContactFilterEE5clearEv 0x0002a742   Section       28  qcontactintersectionfilter.o(t._ZN5QListIN10QtMobility14QContactFilterEE5clearEv)
    t._ZN5QListIN10QtMobility14QContactFilterEE5clearEv.clean 0x0002a75e   Section       10  qcontactintersectionfilter.o(t._ZN5QListIN10QtMobility14QContactFilterEE5clearEv.clean)
    t._ZN5QListIN10QtMobility14QContactFilterEE5eraseENS2_8iteratorE 0x0002a768   Section       36  qcontactmanagerengine.o(t._ZN5QListIN10QtMobility14QContactFilterEE5eraseENS2_8iteratorE)
    t._ZN5QListIN10QtMobility14QContactFilterEE5firstEv 0x0002a78c   Section       22  qcontactmanagerengine.o(t._ZN5QListIN10QtMobility14QContactFilterEE5firstEv)
    t._ZN5QListIN10QtMobility14QContactFilterEE6appendERKS1_ 0x0002a7a4   Section      120  qcontactmanagerengine.o(t._ZN5QListIN10QtMobility14QContactFilterEE6appendERKS1_)
    t._ZN5QListIN10QtMobility14QContactFilterEE6appendERKS1_.clean 0x0002a81c   Section       14  qcontactmanagerengine.o(t._ZN5QListIN10QtMobility14QContactFilterEE6appendERKS1_.clean)
    t._ZN5QListIN10QtMobility14QContactFilterEE6detachEv 0x0002a82a   Section       24  qcontactmanagerengine.o(t._ZN5QListIN10QtMobility14QContactFilterEE6detachEv)
    t._ZN5QListIN10QtMobility14QContactFilterEE7reserveEi 0x0002a842   Section       46  qcontactintersectionfilter.o(t._ZN5QListIN10QtMobility14QContactFilterEE7reserveEi)
    t._ZN5QListIN10QtMobility14QContactFilterEE9node_copyEPNS2_4NodeES4_S4_ 0x0002a870   Section       82  qcontactmanagerengine.o(t._ZN5QListIN10QtMobility14QContactFilterEE9node_copyEPNS2_4NodeES4_S4_)
    t._ZN5QListIN10QtMobility14QContactFilterEE9node_copyEPNS2_4NodeES4_S4_.clean 0x0002a8c2   Section       22  qcontactmanagerengine.o(t._ZN5QListIN10QtMobility14QContactFilterEE9node_copyEPNS2_4NodeES4_S4_.clean)
    t._ZN5QListIN10QtMobility14QContactFilterEE9removeAllERKS1_ 0x0002a8d8   Section      132  qcontactintersectionfilter.o(t._ZN5QListIN10QtMobility14QContactFilterEE9removeAllERKS1_)
    t._ZN5QListIN10QtMobility14QContactFilterEE9removeAllERKS1_.clean 0x0002a95c   Section       10  qcontactintersectionfilter.o(t._ZN5QListIN10QtMobility14QContactFilterEE9removeAllERKS1_.clean)
    t._ZN5QListIN10QtMobility14QContactFilterEEC1ERKS2_ 0x0002a966   Section       36  qcontactintersectionfilter.o(t._ZN5QListIN10QtMobility14QContactFilterEEC1ERKS2_)
    t._ZN5QListIN10QtMobility14QContactFilterEEC1Ev 0x0002a98c   Section       24  qcontactmanagerengine.o(t._ZN5QListIN10QtMobility14QContactFilterEEC1Ev)
    t._ZN5QListIN10QtMobility14QContactFilterEED1Ev 0x0002a9a4   Section       32  qcontactmanagerengine.o(t._ZN5QListIN10QtMobility14QContactFilterEED1Ev)
    t._ZN5QListIN10QtMobility14QContactFilterEEaSERKS2_ 0x0002a9c4   Section       64  qcontactintersectionfilter.o(t._ZN5QListIN10QtMobility14QContactFilterEEaSERKS2_)
    t._ZN5QListIN10QtMobility14QContactFilterEEpLERKS2_ 0x0002aa04   Section      204  qcontactmanagerengine.o(t._ZN5QListIN10QtMobility14QContactFilterEEpLERKS2_)
    t._ZN5QListIN10QtMobility14QContactFilterEEpLERKS2_.clean 0x0002aad0   Section        8  qcontactmanagerengine.o(t._ZN5QListIN10QtMobility14QContactFilterEEpLERKS2_.clean)
    t._ZN5QListIN10QtMobility15QContactManager5ErrorEE4freeEPN9QListData4DataE 0x0002aad8   Section       64  qcontactmemorybackend.o(t._ZN5QListIN10QtMobility15QContactManager5ErrorEE4freeEPN9QListData4DataE)
    t._ZN5QListIN10QtMobility15QContactManager5ErrorEED1Ev 0x0002ab18   Section       32  qcontactmemorybackend.o(t._ZN5QListIN10QtMobility15QContactManager5ErrorEED1Ev)
    t._ZN5QListIN10QtMobility17QContactSortOrderEE13detach_helperEi 0x0002ab38   Section       94  qcontactmanagerengine.o(t._ZN5QListIN10QtMobility17QContactSortOrderEE13detach_helperEi)
    t._ZN5QListIN10QtMobility17QContactSortOrderEE13detach_helperEi.clean 0x0002ab96   Section        8  qcontactmanagerengine.o(t._ZN5QListIN10QtMobility17QContactSortOrderEE13detach_helperEi.clean)
    t._ZN5QListIN10QtMobility17QContactSortOrderEE13detach_helperEv 0x0002ab9e   Section       16  qcontactmanagerengine.o(t._ZN5QListIN10QtMobility17QContactSortOrderEE13detach_helperEv)
    t._ZN5QListIN10QtMobility17QContactSortOrderEE13node_destructEPNS2_4NodeES4_ 0x0002abae   Section       26  qcontactmanagerengine.o(t._ZN5QListIN10QtMobility17QContactSortOrderEE13node_destructEPNS2_4NodeES4_)
    t._ZN5QListIN10QtMobility17QContactSortOrderEE14node_constructEPNS2_4NodeERKS1_ 0x0002abc8   Section       36  qcontactmanagerengine.o(t._ZN5QListIN10QtMobility17QContactSortOrderEE14node_constructEPNS2_4NodeERKS1_)
    t._ZN5QListIN10QtMobility17QContactSortOrderEE14node_constructEPNS2_4NodeERKS1_.clean 0x0002abec   Section       14  qcontactmanagerengine.o(t._ZN5QListIN10QtMobility17QContactSortOrderEE14node_constructEPNS2_4NodeERKS1_.clean)
    t._ZN5QListIN10QtMobility17QContactSortOrderEE18detach_helper_growEii 0x0002abfa   Section      208  qcontactmanagerengine.o(t._ZN5QListIN10QtMobility17QContactSortOrderEE18detach_helper_growEii)
    t._ZN5QListIN10QtMobility17QContactSortOrderEE18detach_helper_growEii.clean 0x0002acca   Section       16  qcontactmanagerengine.o(t._ZN5QListIN10QtMobility17QContactSortOrderEE18detach_helper_growEii.clean)
    t._ZN5QListIN10QtMobility17QContactSortOrderEE4freeEPN9QListData4DataE 0x0002acda   Section       52  qcontactmanagerengine.o(t._ZN5QListIN10QtMobility17QContactSortOrderEE4freeEPN9QListData4DataE)
    t._ZN5QListIN10QtMobility17QContactSortOrderEE6appendERKS1_ 0x0002ad10   Section      120  qcontactmanagerengine.o(t._ZN5QListIN10QtMobility17QContactSortOrderEE6appendERKS1_)
    t._ZN5QListIN10QtMobility17QContactSortOrderEE6appendERKS1_.clean 0x0002ad88   Section       14  qcontactmanagerengine.o(t._ZN5QListIN10QtMobility17QContactSortOrderEE6appendERKS1_.clean)
    t._ZN5QListIN10QtMobility17QContactSortOrderEE9node_copyEPNS2_4NodeES4_S4_ 0x0002ad96   Section       82  qcontactmanagerengine.o(t._ZN5QListIN10QtMobility17QContactSortOrderEE9node_copyEPNS2_4NodeES4_S4_)
    t._ZN5QListIN10QtMobility17QContactSortOrderEE9node_copyEPNS2_4NodeES4_S4_.clean 0x0002ade8   Section       22  qcontactmanagerengine.o(t._ZN5QListIN10QtMobility17QContactSortOrderEE9node_copyEPNS2_4NodeES4_S4_.clean)
    t._ZN5QListIN10QtMobility17QContactSortOrderEEC1ERKS2_ 0x0002adfe   Section       36  qcontactmanagerengine.o(t._ZN5QListIN10QtMobility17QContactSortOrderEEC1ERKS2_)
    t._ZN5QListIN10QtMobility17QContactSortOrderEED1Ev 0x0002ae22   Section       32  qcontactmanagerengine.o(t._ZN5QListIN10QtMobility17QContactSortOrderEED1Ev)
    t._ZN5QListIN10QtMobility20QContactActionTargetEE13node_destructEPNS2_4NodeES4_ 0x0002ae42   Section       26  qcontactactiondescriptor.o(t._ZN5QListIN10QtMobility20QContactActionTargetEE13node_destructEPNS2_4NodeES4_)
    t._ZN5QListIN10QtMobility20QContactActionTargetEE14node_constructEPNS2_4NodeERKS1_ 0x0002ae5c   Section       36  qcontactactiondescriptor.o(t._ZN5QListIN10QtMobility20QContactActionTargetEE14node_constructEPNS2_4NodeERKS1_)
    t._ZN5QListIN10QtMobility20QContactActionTargetEE14node_constructEPNS2_4NodeERKS1_.clean 0x0002ae80   Section       14  qcontactactiondescriptor.o(t._ZN5QListIN10QtMobility20QContactActionTargetEE14node_constructEPNS2_4NodeERKS1_.clean)
    t._ZN5QListIN10QtMobility20QContactActionTargetEE18detach_helper_growEii 0x0002ae8e   Section      220  qcontactactiondescriptor.o(t._ZN5QListIN10QtMobility20QContactActionTargetEE18detach_helper_growEii)
    t._ZN5QListIN10QtMobility20QContactActionTargetEE18detach_helper_growEii.clean 0x0002af6a   Section       16  qcontactactiondescriptor.o(t._ZN5QListIN10QtMobility20QContactActionTargetEE18detach_helper_growEii.clean)
    t._ZN5QListIN10QtMobility20QContactActionTargetEE4freeEPN9QListData4DataE 0x0002af7a   Section       58  qcontactactiondescriptor.o(t._ZN5QListIN10QtMobility20QContactActionTargetEE4freeEPN9QListData4DataE)
    t._ZN5QListIN10QtMobility20QContactActionTargetEE6appendERKS1_ 0x0002afb4   Section      120  qcontactactiondescriptor.o(t._ZN5QListIN10QtMobility20QContactActionTargetEE6appendERKS1_)
    t._ZN5QListIN10QtMobility20QContactActionTargetEE6appendERKS1_.clean 0x0002b02c   Section       14  qcontactactiondescriptor.o(t._ZN5QListIN10QtMobility20QContactActionTargetEE6appendERKS1_.clean)
    t._ZN5QListIN10QtMobility20QContactActionTargetEE9node_copyEPNS2_4NodeES4_S4_ 0x0002b03a   Section       82  qcontactactiondescriptor.o(t._ZN5QListIN10QtMobility20QContactActionTargetEE9node_copyEPNS2_4NodeES4_S4_)
    t._ZN5QListIN10QtMobility20QContactActionTargetEE9node_copyEPNS2_4NodeES4_S4_.clean 0x0002b08c   Section       22  qcontactactiondescriptor.o(t._ZN5QListIN10QtMobility20QContactActionTargetEE9node_copyEPNS2_4NodeES4_S4_.clean)
    t._ZN5QListIN10QtMobility20QContactActionTargetEEC1Ev 0x0002b0a4   Section       24  qcontactactiondescriptor.o(t._ZN5QListIN10QtMobility20QContactActionTargetEEC1Ev)
    t._ZN5QListIN10QtMobility20QContactActionTargetEED1Ev 0x0002b0bc   Section       32  qcontactactiondescriptor.o(t._ZN5QListIN10QtMobility20QContactActionTargetEED1Ev)
    t._ZN5QListIN10QtMobility20QContactActionTargetEElsERKS1_ 0x0002b0dc   Section       18  qcontactactiondescriptor.o(t._ZN5QListIN10QtMobility20QContactActionTargetEElsERKS1_)
    t._ZN5QListIN10QtMobility20QContactRelationshipEE13detach_helperEi 0x0002b0ee   Section       94  qcontact.o(t._ZN5QListIN10QtMobility20QContactRelationshipEE13detach_helperEi)
    t._ZN5QListIN10QtMobility20QContactRelationshipEE13detach_helperEi.clean 0x0002b14c   Section        8  qcontact.o(t._ZN5QListIN10QtMobility20QContactRelationshipEE13detach_helperEi.clean)
    t._ZN5QListIN10QtMobility20QContactRelationshipEE13detach_helperEv 0x0002b154   Section       16  qcontact.o(t._ZN5QListIN10QtMobility20QContactRelationshipEE13detach_helperEv)
    t._ZN5QListIN10QtMobility20QContactRelationshipEE13node_destructEPNS2_4NodeE 0x0002b164   Section       28  qcontactmemorybackend.o(t._ZN5QListIN10QtMobility20QContactRelationshipEE13node_destructEPNS2_4NodeE)
    t._ZN5QListIN10QtMobility20QContactRelationshipEE13node_destructEPNS2_4NodeES4_ 0x0002b180   Section       38  qcontact.o(t._ZN5QListIN10QtMobility20QContactRelationshipEE13node_destructEPNS2_4NodeES4_)
    t._ZN5QListIN10QtMobility20QContactRelationshipEE14node_constructEPNS2_4NodeERKS1_ 0x0002b1a6   Section       34  qcontact.o(t._ZN5QListIN10QtMobility20QContactRelationshipEE14node_constructEPNS2_4NodeERKS1_)
    t._ZN5QListIN10QtMobility20QContactRelationshipEE14node_constructEPNS2_4NodeERKS1_.clean 0x0002b1c8   Section       14  qcontact.o(t._ZN5QListIN10QtMobility20QContactRelationshipEE14node_constructEPNS2_4NodeERKS1_.clean)
    t._ZN5QListIN10QtMobility20QContactRelationshipEE18detach_helper_growEii 0x0002b1d6   Section      208  qcontact.o(t._ZN5QListIN10QtMobility20QContactRelationshipEE18detach_helper_growEii)
    t._ZN5QListIN10QtMobility20QContactRelationshipEE18detach_helper_growEii.clean 0x0002b2a6   Section       16  qcontact.o(t._ZN5QListIN10QtMobility20QContactRelationshipEE18detach_helper_growEii.clean)
    t._ZN5QListIN10QtMobility20QContactRelationshipEE4freeEPN9QListData4DataE 0x0002b2b6   Section       52  qcontact.o(t._ZN5QListIN10QtMobility20QContactRelationshipEE4freeEPN9QListData4DataE)
    t._ZN5QListIN10QtMobility20QContactRelationshipEE5clearEv 0x0002b2ea   Section       28  qcontactrelationshipremoverequest.o(t._ZN5QListIN10QtMobility20QContactRelationshipEE5clearEv)
    t._ZN5QListIN10QtMobility20QContactRelationshipEE5clearEv.clean 0x0002b306   Section       10  qcontactrelationshipremoverequest.o(t._ZN5QListIN10QtMobility20QContactRelationshipEE5clearEv.clean)
    t._ZN5QListIN10QtMobility20QContactRelationshipEE6appendERKS1_ 0x0002b310   Section      112  qcontact.o(t._ZN5QListIN10QtMobility20QContactRelationshipEE6appendERKS1_)
    t._ZN5QListIN10QtMobility20QContactRelationshipEE6appendERKS1_.clean 0x0002b380   Section       14  qcontact.o(t._ZN5QListIN10QtMobility20QContactRelationshipEE6appendERKS1_.clean)
    t._ZN5QListIN10QtMobility20QContactRelationshipEE6detachEv 0x0002b38e   Section       24  qcontactmemorybackend.o(t._ZN5QListIN10QtMobility20QContactRelationshipEE6detachEv)
    t._ZN5QListIN10QtMobility20QContactRelationshipEE9node_copyEPNS2_4NodeES4_S4_ 0x0002b3a6   Section       92  qcontact.o(t._ZN5QListIN10QtMobility20QContactRelationshipEE9node_copyEPNS2_4NodeES4_S4_)
    t._ZN5QListIN10QtMobility20QContactRelationshipEE9node_copyEPNS2_4NodeES4_S4_.clean 0x0002b402   Section       22  qcontact.o(t._ZN5QListIN10QtMobility20QContactRelationshipEE9node_copyEPNS2_4NodeES4_S4_.clean)
    t._ZN5QListIN10QtMobility20QContactRelationshipEE9removeOneERKS1_ 0x0002b418   Section      112  qcontactmemorybackend.o(t._ZN5QListIN10QtMobility20QContactRelationshipEE9removeOneERKS1_)
    t._ZN5QListIN10QtMobility20QContactRelationshipEEC1ERKS2_ 0x0002b488   Section       36  qcontact.o(t._ZN5QListIN10QtMobility20QContactRelationshipEEC1ERKS2_)
    t._ZN5QListIN10QtMobility20QContactRelationshipEEC1Ev 0x0002b4ac   Section       24  qcontact.o(t._ZN5QListIN10QtMobility20QContactRelationshipEEC1Ev)
    t._ZN5QListIN10QtMobility20QContactRelationshipEED1Ev 0x0002b4c4   Section       32  qcontact.o(t._ZN5QListIN10QtMobility20QContactRelationshipEED1Ev)
    t._ZN5QListIN10QtMobility20QContactRelationshipEEaSERKS2_ 0x0002b4e4   Section       64  qcontactmanagerengine.o(t._ZN5QListIN10QtMobility20QContactRelationshipEEaSERKS2_)
    t._ZN5QListIN10QtMobility24QContactActionDescriptorEE13detach_helperEi 0x0002b524   Section       94  qcontact.o(t._ZN5QListIN10QtMobility24QContactActionDescriptorEE13detach_helperEi)
    t._ZN5QListIN10QtMobility24QContactActionDescriptorEE13detach_helperEi.clean 0x0002b582   Section        8  qcontact.o(t._ZN5QListIN10QtMobility24QContactActionDescriptorEE13detach_helperEi.clean)
    t._ZN5QListIN10QtMobility24QContactActionDescriptorEE13detach_helperEv 0x0002b58a   Section       16  qcontact.o(t._ZN5QListIN10QtMobility24QContactActionDescriptorEE13detach_helperEv)
    t._ZN5QListIN10QtMobility24QContactActionDescriptorEE13node_destructEPNS2_4NodeES4_ 0x0002b59a   Section       26  qcontact.o(t._ZN5QListIN10QtMobility24QContactActionDescriptorEE13node_destructEPNS2_4NodeES4_)
    t._ZN5QListIN10QtMobility24QContactActionDescriptorEE14node_constructEPNS2_4NodeERKS1_ 0x0002b5b4   Section       36  qcontact.o(t._ZN5QListIN10QtMobility24QContactActionDescriptorEE14node_constructEPNS2_4NodeERKS1_)
    t._ZN5QListIN10QtMobility24QContactActionDescriptorEE14node_constructEPNS2_4NodeERKS1_.clean 0x0002b5d8   Section       14  qcontact.o(t._ZN5QListIN10QtMobility24QContactActionDescriptorEE14node_constructEPNS2_4NodeERKS1_.clean)
    t._ZN5QListIN10QtMobility24QContactActionDescriptorEE18detach_helper_growEii 0x0002b5e6   Section      208  qcontact.o(t._ZN5QListIN10QtMobility24QContactActionDescriptorEE18detach_helper_growEii)
    t._ZN5QListIN10QtMobility24QContactActionDescriptorEE18detach_helper_growEii.clean 0x0002b6b6   Section       16  qcontact.o(t._ZN5QListIN10QtMobility24QContactActionDescriptorEE18detach_helper_growEii.clean)
    t._ZN5QListIN10QtMobility24QContactActionDescriptorEE4freeEPN9QListData4DataE 0x0002b6c6   Section       52  qcontact.o(t._ZN5QListIN10QtMobility24QContactActionDescriptorEE4freeEPN9QListData4DataE)
    t._ZN5QListIN10QtMobility24QContactActionDescriptorEE6appendERKS1_ 0x0002b6fc   Section      120  qcontact.o(t._ZN5QListIN10QtMobility24QContactActionDescriptorEE6appendERKS1_)
    t._ZN5QListIN10QtMobility24QContactActionDescriptorEE6appendERKS1_.clean 0x0002b774   Section       14  qcontact.o(t._ZN5QListIN10QtMobility24QContactActionDescriptorEE6appendERKS1_.clean)
    t._ZN5QListIN10QtMobility24QContactActionDescriptorEE7reserveEi 0x0002b782   Section       46  qcontactactionmanager_p.o(t._ZN5QListIN10QtMobility24QContactActionDescriptorEE7reserveEi)
    t._ZN5QListIN10QtMobility24QContactActionDescriptorEE9node_copyEPNS2_4NodeES4_S4_ 0x0002b7b0   Section       82  qcontact.o(t._ZN5QListIN10QtMobility24QContactActionDescriptorEE9node_copyEPNS2_4NodeES4_S4_)
    t._ZN5QListIN10QtMobility24QContactActionDescriptorEE9node_copyEPNS2_4NodeES4_S4_.clean 0x0002b802   Section       22  qcontact.o(t._ZN5QListIN10QtMobility24QContactActionDescriptorEE9node_copyEPNS2_4NodeES4_S4_.clean)
    t._ZN5QListIN10QtMobility24QContactActionDescriptorEEC1Ev 0x0002b818   Section       36  qcontactactionmanager_p.o(t._ZN5QListIN10QtMobility24QContactActionDescriptorEEC1Ev)
    t._ZN5QListIN10QtMobility24QContactActionDescriptorEED1Ev 0x0002b83c   Section       32  qcontact.o(t._ZN5QListIN10QtMobility24QContactActionDescriptorEED1Ev)
    t._ZN5QListIN10QtMobility24QContactDetailDefinitionEE13detach_helperEi 0x0002b85c   Section       94  qcontactdetaildefinitionsaverequest.o(t._ZN5QListIN10QtMobility24QContactDetailDefinitionEE13detach_helperEi)
    t._ZN5QListIN10QtMobility24QContactDetailDefinitionEE13detach_helperEi.clean 0x0002b8ba   Section        8  qcontactdetaildefinitionsaverequest.o(t._ZN5QListIN10QtMobility24QContactDetailDefinitionEE13detach_helperEi.clean)
    t._ZN5QListIN10QtMobility24QContactDetailDefinitionEE13detach_helperEv 0x0002b8c2   Section       16  qcontactmanagerengine.o(t._ZN5QListIN10QtMobility24QContactDetailDefinitionEE13detach_helperEv)
    t._ZN5QListIN10QtMobility24QContactDetailDefinitionEE13node_destructEPNS2_4NodeES4_ 0x0002b8d2   Section       26  qcontactmemorybackend.o(t._ZN5QListIN10QtMobility24QContactDetailDefinitionEE13node_destructEPNS2_4NodeES4_)
    t._ZN5QListIN10QtMobility24QContactDetailDefinitionEE14node_constructEPNS2_4NodeERKS1_ 0x0002b8ec   Section       36  qcontactmemorybackend.o(t._ZN5QListIN10QtMobility24QContactDetailDefinitionEE14node_constructEPNS2_4NodeERKS1_)
    t._ZN5QListIN10QtMobility24QContactDetailDefinitionEE14node_constructEPNS2_4NodeERKS1_.clean 0x0002b910   Section       14  qcontactmemorybackend.o(t._ZN5QListIN10QtMobility24QContactDetailDefinitionEE14node_constructEPNS2_4NodeERKS1_.clean)
    t._ZN5QListIN10QtMobility24QContactDetailDefinitionEE18detach_helper_growEii 0x0002b91e   Section      208  qcontactmemorybackend.o(t._ZN5QListIN10QtMobility24QContactDetailDefinitionEE18detach_helper_growEii)
    t._ZN5QListIN10QtMobility24QContactDetailDefinitionEE18detach_helper_growEii.clean 0x0002b9ee   Section       16  qcontactmemorybackend.o(t._ZN5QListIN10QtMobility24QContactDetailDefinitionEE18detach_helper_growEii.clean)
    t._ZN5QListIN10QtMobility24QContactDetailDefinitionEE4freeEPN9QListData4DataE 0x0002b9fe   Section       52  qcontactmemorybackend.o(t._ZN5QListIN10QtMobility24QContactDetailDefinitionEE4freeEPN9QListData4DataE)
    t._ZN5QListIN10QtMobility24QContactDetailDefinitionEE5clearEv 0x0002ba32   Section       28  qcontactdetaildefinitionsaverequest.o(t._ZN5QListIN10QtMobility24QContactDetailDefinitionEE5clearEv)
    t._ZN5QListIN10QtMobility24QContactDetailDefinitionEE5clearEv.clean 0x0002ba4e   Section       10  qcontactdetaildefinitionsaverequest.o(t._ZN5QListIN10QtMobility24QContactDetailDefinitionEE5clearEv.clean)
    t._ZN5QListIN10QtMobility24QContactDetailDefinitionEE6appendERKS1_ 0x0002ba58   Section      120  qcontactmemorybackend.o(t._ZN5QListIN10QtMobility24QContactDetailDefinitionEE6appendERKS1_)
    t._ZN5QListIN10QtMobility24QContactDetailDefinitionEE6appendERKS1_.clean 0x0002bad0   Section       14  qcontactmemorybackend.o(t._ZN5QListIN10QtMobility24QContactDetailDefinitionEE6appendERKS1_.clean)
    t._ZN5QListIN10QtMobility24QContactDetailDefinitionEE9node_copyEPNS2_4NodeES4_S4_ 0x0002bade   Section       82  qcontactmemorybackend.o(t._ZN5QListIN10QtMobility24QContactDetailDefinitionEE9node_copyEPNS2_4NodeES4_S4_)
    t._ZN5QListIN10QtMobility24QContactDetailDefinitionEE9node_copyEPNS2_4NodeES4_S4_.clean 0x0002bb30   Section       22  qcontactmemorybackend.o(t._ZN5QListIN10QtMobility24QContactDetailDefinitionEE9node_copyEPNS2_4NodeES4_S4_.clean)
    t._ZN5QListIN10QtMobility24QContactDetailDefinitionEEC1Ev 0x0002bb48   Section       24  qcontactdetaildefinitionsaverequest.o(t._ZN5QListIN10QtMobility24QContactDetailDefinitionEEC1Ev)
    t._ZN5QListIN10QtMobility24QContactDetailDefinitionEED1Ev 0x0002bb60   Section       32  qcontactmanagerengine.o(t._ZN5QListIN10QtMobility24QContactDetailDefinitionEED1Ev)
    t._ZN5QListIN10QtMobility24QContactDetailDefinitionEEaSERKS2_ 0x0002bb80   Section       64  qcontactdetaildefinitionsaverequest.o(t._ZN5QListIN10QtMobility24QContactDetailDefinitionEEaSERKS2_)
    t._ZN5QListIN10QtMobility8QContactEE13detach_helperEi 0x0002bbc0   Section       94  qcontactmanagerengine.o(t._ZN5QListIN10QtMobility8QContactEE13detach_helperEi)
    t._ZN5QListIN10QtMobility8QContactEE13detach_helperEi.clean 0x0002bc1e   Section        8  qcontactmanagerengine.o(t._ZN5QListIN10QtMobility8QContactEE13detach_helperEi.clean)
    t._ZN5QListIN10QtMobility8QContactEE13detach_helperEv 0x0002bc26   Section       16  qcontactmanagerengine.o(t._ZN5QListIN10QtMobility8QContactEE13detach_helperEv)
    t._ZN5QListIN10QtMobility8QContactEE13node_destructEPNS2_4NodeES4_ 0x0002bc36   Section       26  qcontactmanagerengine.o(t._ZN5QListIN10QtMobility8QContactEE13node_destructEPNS2_4NodeES4_)
    t._ZN5QListIN10QtMobility8QContactEE14node_constructEPNS2_4NodeERKS1_ 0x0002bc50   Section       36  qcontactmanagerengine.o(t._ZN5QListIN10QtMobility8QContactEE14node_constructEPNS2_4NodeERKS1_)
    t._ZN5QListIN10QtMobility8QContactEE14node_constructEPNS2_4NodeERKS1_.clean 0x0002bc74   Section       14  qcontactmanagerengine.o(t._ZN5QListIN10QtMobility8QContactEE14node_constructEPNS2_4NodeERKS1_.clean)
    t._ZN5QListIN10QtMobility8QContactEE18detach_helper_growEii 0x0002bc82   Section      208  qcontactmanagerengine.o(t._ZN5QListIN10QtMobility8QContactEE18detach_helper_growEii)
    t._ZN5QListIN10QtMobility8QContactEE18detach_helper_growEii.clean 0x0002bd52   Section       16  qcontactmanagerengine.o(t._ZN5QListIN10QtMobility8QContactEE18detach_helper_growEii.clean)
    t._ZN5QListIN10QtMobility8QContactEE3endEv 0x0002bd62   Section       26  qcontactmanagerengine.o(t._ZN5QListIN10QtMobility8QContactEE3endEv)
    t._ZN5QListIN10QtMobility8QContactEE4freeEPN9QListData4DataE 0x0002bd7c   Section       52  qcontactmanagerengine.o(t._ZN5QListIN10QtMobility8QContactEE4freeEPN9QListData4DataE)
    t._ZN5QListIN10QtMobility8QContactEE5beginEv 0x0002bdb0   Section       26  qcontactmanagerengine.o(t._ZN5QListIN10QtMobility8QContactEE5beginEv)
    t._ZN5QListIN10QtMobility8QContactEE5clearEv 0x0002bdca   Section       28  qcontactsaverequest.o(t._ZN5QListIN10QtMobility8QContactEE5clearEv)
    t._ZN5QListIN10QtMobility8QContactEE5clearEv.clean 0x0002bde6   Section       10  qcontactsaverequest.o(t._ZN5QListIN10QtMobility8QContactEE5clearEv.clean)
    t._ZN5QListIN10QtMobility8QContactEE6appendERKS1_ 0x0002bdf0   Section      120  qcontactmanagerengine.o(t._ZN5QListIN10QtMobility8QContactEE6appendERKS1_)
    t._ZN5QListIN10QtMobility8QContactEE6appendERKS1_.clean 0x0002be68   Section       14  qcontactmanagerengine.o(t._ZN5QListIN10QtMobility8QContactEE6appendERKS1_.clean)
    t._ZN5QListIN10QtMobility8QContactEE6detachEv 0x0002be76   Section       24  qcontactmanagerengine.o(t._ZN5QListIN10QtMobility8QContactEE6detachEv)
    t._ZN5QListIN10QtMobility8QContactEE9node_copyEPNS2_4NodeES4_S4_ 0x0002be8e   Section       82  qcontactmanagerengine.o(t._ZN5QListIN10QtMobility8QContactEE9node_copyEPNS2_4NodeES4_S4_)
    t._ZN5QListIN10QtMobility8QContactEE9node_copyEPNS2_4NodeES4_S4_.clean 0x0002bee0   Section       22  qcontactmanagerengine.o(t._ZN5QListIN10QtMobility8QContactEE9node_copyEPNS2_4NodeES4_S4_.clean)
    t._ZN5QListIN10QtMobility8QContactEEC1ERKS2_ 0x0002bef6   Section       36  qcontactmanagerengine.o(t._ZN5QListIN10QtMobility8QContactEEC1ERKS2_)
    t._ZN5QListIN10QtMobility8QContactEEC1Ev 0x0002bf1c   Section       24  qcontactmanagerengine.o(t._ZN5QListIN10QtMobility8QContactEEC1Ev)
    t._ZN5QListIN10QtMobility8QContactEED1Ev 0x0002bf34   Section       32  qcontactmanager.o(t._ZN5QListIN10QtMobility8QContactEED1Ev)
    t._ZN5QListIN10QtMobility8QContactEEaSERKS2_ 0x0002bf54   Section       64  qcontactmanagerengine.o(t._ZN5QListIN10QtMobility8QContactEEaSERKS2_)
    t._ZN5QListIN10QtMobility8QContactEEixEi 0x0002bf94   Section       28  qcontactmanagerengine.o(t._ZN5QListIN10QtMobility8QContactEEixEi)
    t._ZN5QListIN8QVariant4TypeEE13node_destructEPNS2_4NodeES4_ 0x0002bfb0   Section       26  qcontactmemorybackend.o(t._ZN5QListIN8QVariant4TypeEE13node_destructEPNS2_4NodeES4_)
    t._ZN5QListIN8QVariant4TypeEE14node_constructEPNS2_4NodeERKS1_ 0x0002bfca   Section       30  qcontactmemorybackend.o(t._ZN5QListIN8QVariant4TypeEE14node_constructEPNS2_4NodeERKS1_)
    t._ZN5QListIN8QVariant4TypeEE18detach_helper_growEii 0x0002bfe8   Section      208  qcontactmemorybackend.o(t._ZN5QListIN8QVariant4TypeEE18detach_helper_growEii)
    t._ZN5QListIN8QVariant4TypeEE18detach_helper_growEii.clean 0x0002c0b8   Section       16  qcontactmemorybackend.o(t._ZN5QListIN8QVariant4TypeEE18detach_helper_growEii.clean)
    t._ZN5QListIN8QVariant4TypeEE4freeEPN9QListData4DataE 0x0002c0c8   Section       52  qcontactmemorybackend.o(t._ZN5QListIN8QVariant4TypeEE4freeEPN9QListData4DataE)
    t._ZN5QListIN8QVariant4TypeEE6appendERKS1_ 0x0002c0fc   Section      112  qcontactmemorybackend.o(t._ZN5QListIN8QVariant4TypeEE6appendERKS1_)
    t._ZN5QListIN8QVariant4TypeEE6appendERKS1_.clean 0x0002c16c   Section       14  qcontactmemorybackend.o(t._ZN5QListIN8QVariant4TypeEE6appendERKS1_.clean)
    t._ZN5QListIN8QVariant4TypeEE9node_copyEPNS2_4NodeES4_S4_ 0x0002c17a   Section       78  qcontactmemorybackend.o(t._ZN5QListIN8QVariant4TypeEE9node_copyEPNS2_4NodeES4_S4_)
    t._ZN5QListIN8QVariant4TypeEE9node_copyEPNS2_4NodeES4_S4_.clean 0x0002c1c8   Section        8  qcontactmemorybackend.o(t._ZN5QListIN8QVariant4TypeEE9node_copyEPNS2_4NodeES4_S4_.clean)
    t._ZN5QListIN8QVariant4TypeEED1Ev        0x0002c1d0   Section       32  qcontactmanagerengine.o(t._ZN5QListIN8QVariant4TypeEED1Ev)
    t._ZN5QListIP7QObjectE4freeEPN9QListData4DataE 0x0002c1f0   Section       52  qcontactmanager_p.o(t._ZN5QListIP7QObjectE4freeEPN9QListData4DataE)
    t._ZN5QListIP7QObjectED1Ev               0x0002c224   Section       32  qcontactmanager_p.o(t._ZN5QListIP7QObjectED1Ev)
    t._ZN5QListIPN10QtMobility21QContactManagerEngineEE13detach_helperEi 0x0002c244   Section       94  qcontactmemorybackend.o(t._ZN5QListIPN10QtMobility21QContactManagerEngineEE13detach_helperEi)
    t._ZN5QListIPN10QtMobility21QContactManagerEngineEE13detach_helperEi.clean 0x0002c2a2   Section        8  qcontactmemorybackend.o(t._ZN5QListIPN10QtMobility21QContactManagerEngineEE13detach_helperEi.clean)
    t._ZN5QListIPN10QtMobility21QContactManagerEngineEE13detach_helperEv 0x0002c2aa   Section       16  qcontactmemorybackend.o(t._ZN5QListIPN10QtMobility21QContactManagerEngineEE13detach_helperEv)
    t._ZN5QListIPN10QtMobility21QContactManagerEngineEE18detach_helper_growEii 0x0002c2ba   Section      204  qcontactmemorybackend.o(t._ZN5QListIPN10QtMobility21QContactManagerEngineEE18detach_helper_growEii)
    t._ZN5QListIPN10QtMobility21QContactManagerEngineEE18detach_helper_growEii.clean 0x0002c386   Section       16  qcontactmemorybackend.o(t._ZN5QListIPN10QtMobility21QContactManagerEngineEE18detach_helper_growEii.clean)
    t._ZN5QListIPN10QtMobility21QContactManagerEngineEE4freeEPN9QListData4DataE 0x0002c396   Section       52  qcontactmemorybackend.o(t._ZN5QListIPN10QtMobility21QContactManagerEngineEE4freeEPN9QListData4DataE)
    t._ZN5QListIPN10QtMobility21QContactManagerEngineEE6appendERKS2_ 0x0002c3cc   Section      100  qcontactmemorybackend.o(t._ZN5QListIPN10QtMobility21QContactManagerEngineEE6appendERKS2_)
    t._ZN5QListIPN10QtMobility21QContactManagerEngineEE6appendERKS2_.clean 0x0002c430   Section       10  qcontactmemorybackend.o(t._ZN5QListIPN10QtMobility21QContactManagerEngineEE6appendERKS2_.clean)
    t._ZN5QListIPN10QtMobility21QContactManagerEngineEE9node_copyEPNS3_4NodeES5_S5_ 0x0002c43a   Section       46  qcontactmemorybackend.o(t._ZN5QListIPN10QtMobility21QContactManagerEngineEE9node_copyEPNS3_4NodeES5_S5_)
    t._ZN5QListIPN10QtMobility21QContactManagerEngineEE9removeAllERKS2_ 0x0002c468   Section      108  qcontactmemorybackend.o(t._ZN5QListIPN10QtMobility21QContactManagerEngineEE9removeAllERKS2_)
    t._ZN5QListIPN10QtMobility21QContactManagerEngineEED1Ev 0x0002c4d4   Section       32  qcontactmemorybackend.o(t._ZN5QListIPN10QtMobility21QContactManagerEngineEED1Ev)
    t._ZN5QListIPN10QtMobility27QContactActionManagerPluginEE13detach_helperEi 0x0002c4f4   Section       94  qcontactmanager_p.o(t._ZN5QListIPN10QtMobility27QContactActionManagerPluginEE13detach_helperEi)
    t._ZN5QListIPN10QtMobility27QContactActionManagerPluginEE13detach_helperEi.clean 0x0002c552   Section        8  qcontactmanager_p.o(t._ZN5QListIPN10QtMobility27QContactActionManagerPluginEE13detach_helperEi.clean)
    t._ZN5QListIPN10QtMobility27QContactActionManagerPluginEE13detach_helperEv 0x0002c55a   Section       16  qcontactmanager_p.o(t._ZN5QListIPN10QtMobility27QContactActionManagerPluginEE13detach_helperEv)
    t._ZN5QListIPN10QtMobility27QContactActionManagerPluginEE18detach_helper_growEii 0x0002c56a   Section      204  qcontactmanager_p.o(t._ZN5QListIPN10QtMobility27QContactActionManagerPluginEE18detach_helper_growEii)
    t._ZN5QListIPN10QtMobility27QContactActionManagerPluginEE18detach_helper_growEii.clean 0x0002c636   Section       16  qcontactmanager_p.o(t._ZN5QListIPN10QtMobility27QContactActionManagerPluginEE18detach_helper_growEii.clean)
    t._ZN5QListIPN10QtMobility27QContactActionManagerPluginEE4freeEPN9QListData4DataE 0x0002c646   Section       52  qcontactmanager_p.o(t._ZN5QListIPN10QtMobility27QContactActionManagerPluginEE4freeEPN9QListData4DataE)
    t._ZN5QListIPN10QtMobility27QContactActionManagerPluginEE5clearEv 0x0002c67a   Section       76  qcontactmanager_p.o(t._ZN5QListIPN10QtMobility27QContactActionManagerPluginEE5clearEv)
    t._ZN5QListIPN10QtMobility27QContactActionManagerPluginEE5clearEv.clean 0x0002c6c6   Section       10  qcontactmanager_p.o(t._ZN5QListIPN10QtMobility27QContactActionManagerPluginEE5clearEv.clean)
    t._ZN5QListIPN10QtMobility27QContactActionManagerPluginEE6appendERKS2_ 0x0002c6d0   Section      100  qcontactmanager_p.o(t._ZN5QListIPN10QtMobility27QContactActionManagerPluginEE6appendERKS2_)
    t._ZN5QListIPN10QtMobility27QContactActionManagerPluginEE6appendERKS2_.clean 0x0002c734   Section       10  qcontactmanager_p.o(t._ZN5QListIPN10QtMobility27QContactActionManagerPluginEE6appendERKS2_.clean)
    t._ZN5QListIPN10QtMobility27QContactActionManagerPluginEE9node_copyEPNS3_4NodeES5_S5_ 0x0002c73e   Section       46  qcontactmanager_p.o(t._ZN5QListIPN10QtMobility27QContactActionManagerPluginEE9node_copyEPNS3_4NodeES5_S5_)
    t._ZN5QListIPN10QtMobility27QContactActionManagerPluginEEC1Ev 0x0002c76c   Section       24  qcontactmanager_p.o(t._ZN5QListIPN10QtMobility27QContactActionManagerPluginEEC1Ev)
    t._ZN5QListIPN10QtMobility27QContactActionManagerPluginEED1Ev 0x0002c784   Section       32  qcontactmanager_p.o(t._ZN5QListIPN10QtMobility27QContactActionManagerPluginEED1Ev)
    t._ZN5QListIPN10QtMobility28QContactManagerEngineFactoryEE13detach_helperEi 0x0002c7a4   Section       94  qcontactmanager_p.o(t._ZN5QListIPN10QtMobility28QContactManagerEngineFactoryEE13detach_helperEi)
    t._ZN5QListIPN10QtMobility28QContactManagerEngineFactoryEE13detach_helperEi.clean 0x0002c802   Section        8  qcontactmanager_p.o(t._ZN5QListIPN10QtMobility28QContactManagerEngineFactoryEE13detach_helperEi.clean)
    t._ZN5QListIPN10QtMobility28QContactManagerEngineFactoryEE13detach_helperEv 0x0002c80a   Section       16  qcontactmanager_p.o(t._ZN5QListIPN10QtMobility28QContactManagerEngineFactoryEE13detach_helperEv)
    t._ZN5QListIPN10QtMobility28QContactManagerEngineFactoryEE18detach_helper_growEii 0x0002c81a   Section      204  qcontactmanager_p.o(t._ZN5QListIPN10QtMobility28QContactManagerEngineFactoryEE18detach_helper_growEii)
    t._ZN5QListIPN10QtMobility28QContactManagerEngineFactoryEE18detach_helper_growEii.clean 0x0002c8e6   Section       16  qcontactmanager_p.o(t._ZN5QListIPN10QtMobility28QContactManagerEngineFactoryEE18detach_helper_growEii.clean)
    t._ZN5QListIPN10QtMobility28QContactManagerEngineFactoryEE4freeEPN9QListData4DataE 0x0002c8f6   Section       52  qcontactmanager_p.o(t._ZN5QListIPN10QtMobility28QContactManagerEngineFactoryEE4freeEPN9QListData4DataE)
    t._ZN5QListIPN10QtMobility28QContactManagerEngineFactoryEE6appendERKS2_ 0x0002c92c   Section      100  qcontactmanager_p.o(t._ZN5QListIPN10QtMobility28QContactManagerEngineFactoryEE6appendERKS2_)
    t._ZN5QListIPN10QtMobility28QContactManagerEngineFactoryEE6appendERKS2_.clean 0x0002c990   Section       10  qcontactmanager_p.o(t._ZN5QListIPN10QtMobility28QContactManagerEngineFactoryEE6appendERKS2_.clean)
    t._ZN5QListIPN10QtMobility28QContactManagerEngineFactoryEE7reserveEi 0x0002c99a   Section       46  qcontactmanager_p.o(t._ZN5QListIPN10QtMobility28QContactManagerEngineFactoryEE7reserveEi)
    t._ZN5QListIPN10QtMobility28QContactManagerEngineFactoryEE9node_copyEPNS3_4NodeES5_S5_ 0x0002c9c8   Section       46  qcontactmanager_p.o(t._ZN5QListIPN10QtMobility28QContactManagerEngineFactoryEE9node_copyEPNS3_4NodeES5_S5_)
    t._ZN5QListIPN10QtMobility28QContactManagerEngineFactoryEEC1Ev 0x0002c9f8   Section       24  qcontactmanager_p.o(t._ZN5QListIPN10QtMobility28QContactManagerEngineFactoryEEC1Ev)
    t._ZN5QListIPN10QtMobility28QContactManagerEngineFactoryEED1Ev 0x0002ca10   Section       32  qcontactmanager_p.o(t._ZN5QListIPN10QtMobility28QContactManagerEngineFactoryEED1Ev)
    t._ZN5QListIiE13detach_helperEi          0x0002ca30   Section       94  qcontact.o(t._ZN5QListIiE13detach_helperEi)
    t._ZN5QListIiE13detach_helperEi.clean    0x0002ca8e   Section        8  qcontact.o(t._ZN5QListIiE13detach_helperEi.clean)
    t._ZN5QListIiE13detach_helperEv          0x0002ca96   Section       16  qcontactmanager_p.o(t._ZN5QListIiE13detach_helperEv)
    t._ZN5QListIiE18detach_helper_growEii    0x0002caa6   Section      204  qcontact.o(t._ZN5QListIiE18detach_helper_growEii)
    t._ZN5QListIiE18detach_helper_growEii.clean 0x0002cb72   Section       16  qcontact.o(t._ZN5QListIiE18detach_helper_growEii.clean)
    t._ZN5QListIiE4freeEPN9QListData4DataE   0x0002cb82   Section       52  qcontact.o(t._ZN5QListIiE4freeEPN9QListData4DataE)
    t._ZN5QListIiE6appendERKi                0x0002cbb8   Section      100  qcontact.o(t._ZN5QListIiE6appendERKi)
    t._ZN5QListIiE6appendERKi.clean          0x0002cc1c   Section       10  qcontact.o(t._ZN5QListIiE6appendERKi.clean)
    t._ZN5QListIiE7reserveEi                 0x0002cc26   Section       46  qcontact.o(t._ZN5QListIiE7reserveEi)
    t._ZN5QListIiE9node_copyEPNS0_4NodeES2_S2_ 0x0002cc54   Section       46  qcontact.o(t._ZN5QListIiE9node_copyEPNS0_4NodeES2_S2_)
    t._ZN5QListIiED1Ev                       0x0002cc82   Section       32  moc_qcontactmanagerenginev2wrapper_p.o(t._ZN5QListIiED1Ev)
    t._ZN5QListIiEixEi                       0x0002cca2   Section       42  qcontactmanagerengine.o(t._ZN5QListIiEixEi)
    t._ZN5QListIjE13detach_helperEi          0x0002cccc   Section       94  qcontactchangeset.o(t._ZN5QListIjE13detach_helperEi)
    t._ZN5QListIjE13detach_helperEi.clean    0x0002cd2a   Section        8  qcontactchangeset.o(t._ZN5QListIjE13detach_helperEi.clean)
    t._ZN5QListIjE13detach_helperEv          0x0002cd32   Section       16  qcontactchangeset.o(t._ZN5QListIjE13detach_helperEv)
    t._ZN5QListIjE18detach_helper_growEii    0x0002cd42   Section      204  qcontactchangeset.o(t._ZN5QListIjE18detach_helper_growEii)
    t._ZN5QListIjE18detach_helper_growEii.clean 0x0002ce0e   Section       16  qcontactchangeset.o(t._ZN5QListIjE18detach_helper_growEii.clean)
    t._ZN5QListIjE4freeEPN9QListData4DataE   0x0002ce1e   Section       52  qcontactmanagerengine.o(t._ZN5QListIjE4freeEPN9QListData4DataE)
    t._ZN5QListIjE5clearEv                   0x0002ce52   Section       28  qcontactlocalidfilter.o(t._ZN5QListIjE5clearEv)
    t._ZN5QListIjE5clearEv.clean             0x0002ce6e   Section       10  qcontactlocalidfilter.o(t._ZN5QListIjE5clearEv.clean)
    t._ZN5QListIjE6appendERKj                0x0002ce78   Section      100  qcontactchangeset.o(t._ZN5QListIjE6appendERKj)
    t._ZN5QListIjE6appendERKj.clean          0x0002cedc   Section       10  qcontactchangeset.o(t._ZN5QListIjE6appendERKj.clean)
    t._ZN5QListIjE7reserveEi                 0x0002cee6   Section       46  qcontactchangeset.o(t._ZN5QListIjE7reserveEi)
    t._ZN5QListIjE9node_copyEPNS0_4NodeES2_S2_ 0x0002cf14   Section       46  qcontactchangeset.o(t._ZN5QListIjE9node_copyEPNS0_4NodeES2_S2_)
    t._ZN5QListIjE9removeAllERKj             0x0002cf44   Section      108  qcontactlocalidfilter.o(t._ZN5QListIjE9removeAllERKj)
    t._ZN5QListIjEC1ERKS0_                   0x0002cfb0   Section       36  qcontactmemorybackend.o(t._ZN5QListIjEC1ERKS0_)
    t._ZN5QListIjEC1Ev                       0x0002cfd4   Section       24  qcontactmanagerengine.o(t._ZN5QListIjEC1Ev)
    t._ZN5QListIjED1Ev                       0x0002cfec   Section       32  qcontactchangeset.o(t._ZN5QListIjED1Ev)
    t._ZN5QListIjEaSERKS0_                   0x0002d00c   Section       64  qcontactlocalidfilter.o(t._ZN5QListIjEaSERKS0_)
    t._ZN8QPointerIN10QtMobility15QContactManagerEED1Ev 0x0002d04c   Section       14  qcontactabstractrequest.o(t._ZN8QPointerIN10QtMobility15QContactManagerEED1Ev)
    t._ZN8QPointerIN10QtMobility21QContactManagerEngineEED1Ev 0x0002d05a   Section       14  qcontactabstractrequest.o(t._ZN8QPointerIN10QtMobility21QContactManagerEngineEED1Ev)
    t._ZN8QPointerIN10QtMobility23QContactAbstractRequestEED1Ev 0x0002d068   Section       14  moc_qcontactmanagerenginev2wrapper_p.o(t._ZN8QPointerIN10QtMobility23QContactAbstractRequestEED1Ev)
    t._ZN9QHashNodeI7QStringPN10QtMobility28QContactManagerEngineFactoryEEC1ERKS0_RKS3_ 0x0002d076   Section       30  qcontactmanager_p.o(t._ZN9QHashNodeI7QStringPN10QtMobility28QContactManagerEngineFactoryEEC1ERKS0_RKS3_)
    t._ZN9QHashNodeI7QStringPcEC1ERKS0_RKS1_ 0x0002d094   Section       30  qcontactdetail.o(t._ZN9QHashNodeI7QStringPcEC1ERKS0_RKS1_)
    t._ZN9QHashNodeIN10QtMobility20QContactStringHolderE8QVariantEC1ERKS1_RKS2_ 0x0002d0b2   Section       38  qcontactdetail.o(t._ZN9QHashNodeIN10QtMobility20QContactStringHolderE8QVariantEC1ERKS1_RKS2_)
    t._ZN9QHashNodeIN10QtMobility20QContactStringHolderE8QVariantEC1ERKS1_RKS2_.clean 0x0002d0d8   Section       12  qcontactdetail.o(t._ZN9QHashNodeIN10QtMobility20QContactStringHolderE8QVariantEC1ERKS1_RKS2_.clean)
    t._ZN9QHashNodeIPKc7QStringEC1ERKS1_RKS2_ 0x0002d0e4   Section       30  qcontactdetail.o(t._ZN9QHashNodeIPKc7QStringEC1ERKS1_RKS2_)
    t._ZNK10QtMobility14QContactDetail5valueI9QDateTimeEET_PKc 0x0002d104   Section      156  qcontactmanagerengine.o(t._ZNK10QtMobility14QContactDetail5valueI9QDateTimeEET_PKc)
    t._ZNK10QtMobility14QContactDetail5valueI9QDateTimeEET_PKc.clean 0x0002d1a0   Section       20  qcontactmanagerengine.o(t._ZNK10QtMobility14QContactDetail5valueI9QDateTimeEET_PKc.clean)
    t._ZNK10QtMobility15QLatin1ConstantILi10EEcv7QStringEv 0x0002d1b4   Section       18  qcontactmanagerengine.o(t._ZNK10QtMobility15QLatin1ConstantILi10EEcv7QStringEv)
    t._ZNK10QtMobility15QLatin1ConstantILi11EEcv7QStringEv 0x0002d1c6   Section       18  qcontactmanagerengine.o(t._ZNK10QtMobility15QLatin1ConstantILi11EEcv7QStringEv)
    t._ZNK10QtMobility15QLatin1ConstantILi12EEcv7QStringEv 0x0002d1d8   Section       18  qcontactmanagerengine.o(t._ZNK10QtMobility15QLatin1ConstantILi12EEcv7QStringEv)
    t._ZNK10QtMobility15QLatin1ConstantILi13EEcv7QStringEv 0x0002d1ea   Section       18  qcontactmanagerengine.o(t._ZNK10QtMobility15QLatin1ConstantILi13EEcv7QStringEv)
    t._ZNK10QtMobility15QLatin1ConstantILi14EEcv7QStringEv 0x0002d1fc   Section       18  qcontactmanagerengine.o(t._ZNK10QtMobility15QLatin1ConstantILi14EEcv7QStringEv)
    t._ZNK10QtMobility15QLatin1ConstantILi4EEcv7QStringEv 0x0002d20e   Section       18  qcontactmanagerengine.o(t._ZNK10QtMobility15QLatin1ConstantILi4EEcv7QStringEv)
    t._ZNK10QtMobility15QLatin1ConstantILi5EEcv7QStringEv 0x0002d220   Section       18  qcontactmanagerengine.o(t._ZNK10QtMobility15QLatin1ConstantILi5EEcv7QStringEv)
    t._ZNK10QtMobility15QLatin1ConstantILi6EEcv7QStringEv 0x0002d232   Section       18  qcontactmanagerengine.o(t._ZNK10QtMobility15QLatin1ConstantILi6EEcv7QStringEv)
    t._ZNK10QtMobility15QLatin1ConstantILi7EEcv7QStringEv 0x0002d244   Section       18  qcontactmanagerengine.o(t._ZNK10QtMobility15QLatin1ConstantILi7EEcv7QStringEv)
    t._ZNK10QtMobility15QLatin1ConstantILi8EEcv7QStringEv 0x0002d256   Section       18  qcontactmanagerengine.o(t._ZNK10QtMobility15QLatin1ConstantILi8EEcv7QStringEv)
    t._ZNK10QtMobility15QLatin1ConstantILi9EEcv7QStringEv 0x0002d268   Section       18  qcontactmanagerengine.o(t._ZNK10QtMobility15QLatin1ConstantILi9EEcv7QStringEv)
    t._ZNK12QMapIteratorI7QString8QVariantE7hasNextEv 0x0002d27a   Section       30  qcontactmanagerengine.o(t._ZNK12QMapIteratorI7QString8QVariantE7hasNextEv)
    t._ZNK12QMapIteratorI7QStringN10QtMobility29QContactDetailFieldDefinitionEE5valueEv 0x0002d298   Section       18  qcontactmanagerengine.o(t._ZNK12QMapIteratorI7QStringN10QtMobility29QContactDetailFieldDefinitionEE5valueEv)
    t._ZNK12QWeakPointerIN10QtMobility19QContactSaveRequestEE4dataEv 0x0002d2aa   Section       34  qcontactmanagerengine.o(t._ZNK12QWeakPointerIN10QtMobility19QContactSaveRequestEE4dataEv)
    t._ZNK12QWeakPointerIN10QtMobility20QContactFetchRequestEE4dataEv 0x0002d2cc   Section       34  qcontactmanagerengine.o(t._ZNK12QWeakPointerIN10QtMobility20QContactFetchRequestEE4dataEv)
    t._ZNK12QWeakPointerIN10QtMobility21QContactRemoveRequestEE4dataEv 0x0002d2ee   Section       34  qcontactmanagerengine.o(t._ZNK12QWeakPointerIN10QtMobility21QContactRemoveRequestEE4dataEv)
    t._ZNK12QWeakPointerIN10QtMobility24QContactFetchByIdRequestEE4dataEv 0x0002d310   Section       34  qcontactmanagerengine.o(t._ZNK12QWeakPointerIN10QtMobility24QContactFetchByIdRequestEE4dataEv)
    t._ZNK12QWeakPointerIN10QtMobility27QContactLocalIdFetchRequestEE4dataEv 0x0002d332   Section       34  qcontactmanagerengine.o(t._ZNK12QWeakPointerIN10QtMobility27QContactLocalIdFetchRequestEE4dataEv)
    t._ZNK12QWeakPointerIN10QtMobility31QContactRelationshipSaveRequestEE4dataEv 0x0002d354   Section       34  qcontactmanagerengine.o(t._ZNK12QWeakPointerIN10QtMobility31QContactRelationshipSaveRequestEE4dataEv)
    t._ZNK12QWeakPointerIN10QtMobility32QContactRelationshipFetchRequestEE4dataEv 0x0002d376   Section       34  qcontactmanagerengine.o(t._ZNK12QWeakPointerIN10QtMobility32QContactRelationshipFetchRequestEE4dataEv)
    t._ZNK12QWeakPointerIN10QtMobility33QContactRelationshipRemoveRequestEE4dataEv 0x0002d398   Section       34  qcontactmanagerengine.o(t._ZNK12QWeakPointerIN10QtMobility33QContactRelationshipRemoveRequestEE4dataEv)
    t._ZNK12QWeakPointerIN10QtMobility35QContactDetailDefinitionSaveRequestEE4dataEv 0x0002d3ba   Section       34  qcontactmanagerengine.o(t._ZNK12QWeakPointerIN10QtMobility35QContactDetailDefinitionSaveRequestEE4dataEv)
    t._ZNK12QWeakPointerIN10QtMobility36QContactDetailDefinitionFetchRequestEE4dataEv 0x0002d3dc   Section       34  qcontactmanagerengine.o(t._ZNK12QWeakPointerIN10QtMobility36QContactDetailDefinitionFetchRequestEE4dataEv)
    t._ZNK12QWeakPointerIN10QtMobility37QContactDetailDefinitionRemoveRequestEE4dataEv 0x0002d3fe   Section       34  qcontactmanagerengine.o(t._ZNK12QWeakPointerIN10QtMobility37QContactDetailDefinitionRemoveRequestEE4dataEv)
    t._ZNK17QForeachContainerI5QListIN10QtMobility14QContactDetailEEE9conditionEv 0x0002d420   Section       40  qcontact.o(t._ZNK17QForeachContainerI5QListIN10QtMobility14QContactDetailEEE9conditionEv)
    t._ZNK17QForeachContainerI5QListIN10QtMobility8QContactEEE9conditionEv 0x0002d448   Section       40  qcontactmemorybackend.o(t._ZNK17QForeachContainerI5QListIN10QtMobility8QContactEEE9conditionEv)
    t._ZNK17QForeachContainerI5QListIPN10QtMobility28QContactManagerEngineFactoryEEE9conditionEv 0x0002d470   Section       40  qcontactmanager_p.o(t._ZNK17QForeachContainerI5QListIPN10QtMobility28QContactManagerEngineFactoryEEE9conditionEv)
    t._ZNK17QForeachContainerI5QListIjEE9conditionEv 0x0002d498   Section       40  qcontactchangeset.o(t._ZNK17QForeachContainerI5QListIjEE9conditionEv)
    t._ZNK18QSharedDataPointerIN10QtMobility21QContactFilterPrivateEEntEv 0x0002d4c0   Section       16  qcontactfilter.o(t._ZNK18QSharedDataPointerIN10QtMobility21QContactFilterPrivateEEntEv)
    t._ZNK4QMapI7QString8QVariantE14const_iteratorneERKS3_ 0x0002d4d0   Section       18  qcontactdetail.o(t._ZNK4QMapI7QString8QVariantE14const_iteratorneERKS3_)
    t._ZNK4QMapI7QString8QVariantE15mutableFindNodeEPPN8QMapData4NodeERKS0_ 0x0002d4e2   Section      116  qcontactdetail.o(t._ZNK4QMapI7QString8QVariantE15mutableFindNodeEPPN8QMapData4NodeERKS0_)
    t._ZNK4QMapI7QString8QVariantE8containsERKS0_ 0x0002d556   Section      122  qcontactmanagerengine.o(t._ZNK4QMapI7QString8QVariantE8containsERKS0_)
    t._ZNK4QMapI7QStringN10QtMobility14QContactDetailEE15mutableFindNodeEPPN8QMapData4NodeERKS0_ 0x0002d5d0   Section      108  qcontact.o(t._ZNK4QMapI7QStringN10QtMobility14QContactDetailEE15mutableFindNodeEPPN8QMapData4NodeERKS0_)
    t._ZNK4QMapI7QStringN10QtMobility24QContactDetailDefinitionEE15mutableFindNodeEPPN8QMapData4NodeERKS0_ 0x0002d63c   Section      108  qcontactmanagerengine.o(t._ZNK4QMapI7QStringN10QtMobility24QContactDetailDefinitionEE15mutableFindNodeEPPN8QMapData4NodeERKS0_)
    t._ZNK4QMapI7QStringN10QtMobility24QContactDetailDefinitionEE4keysEv 0x0002d6a8   Section      104  qcontactmemorybackend.o(t._ZNK4QMapI7QStringN10QtMobility24QContactDetailDefinitionEE4keysEv)
    t._ZNK4QMapI7QStringN10QtMobility24QContactDetailDefinitionEE4keysEv.clean 0x0002d710   Section       10  qcontactmemorybackend.o(t._ZNK4QMapI7QStringN10QtMobility24QContactDetailDefinitionEE4keysEv.clean)
    t._ZNK4QMapI7QStringN10QtMobility24QContactDetailDefinitionEE5valueERKS0_ 0x0002d71a   Section       62  qcontactmanagerengine.o(t._ZNK4QMapI7QStringN10QtMobility24QContactDetailDefinitionEE5valueERKS0_)
    t._ZNK4QMapI7QStringN10QtMobility24QContactDetailDefinitionEE8findNodeERKS0_ 0x0002d758   Section      104  qcontactmanagerengine.o(t._ZNK4QMapI7QStringN10QtMobility24QContactDetailDefinitionEE8findNodeERKS0_)
    t._ZNK4QMapI7QStringN10QtMobility29QContactDetailFieldDefinitionEE14const_iteratorneERKS4_ 0x0002d7c0   Section       18  qcontactdetaildefinition.o(t._ZNK4QMapI7QStringN10QtMobility29QContactDetailFieldDefinitionEE14const_iteratorneERKS4_)
    t._ZNK4QMapI7QStringN10QtMobility29QContactDetailFieldDefinitionEE15mutableFindNodeEPPN8QMapData4NodeERKS0_ 0x0002d7d2   Section      108  qcontactdetaildefinition.o(t._ZNK4QMapI7QStringN10QtMobility29QContactDetailFieldDefinitionEE15mutableFindNodeEPPN8QMapData4NodeERKS0_)
    t._ZNK4QMapI7QStringN10QtMobility29QContactDetailFieldDefinitionEE5valueERKS0_ 0x0002d83e   Section       62  qcontactmanagerengine.o(t._ZNK4QMapI7QStringN10QtMobility29QContactDetailFieldDefinitionEE5valueERKS0_)
    t._ZNK4QMapI7QStringN10QtMobility29QContactDetailFieldDefinitionEE8containsERKS0_ 0x0002d87c   Section       28  qcontactmanagerengine.o(t._ZNK4QMapI7QStringN10QtMobility29QContactDetailFieldDefinitionEE8containsERKS0_)
    t._ZNK4QMapI7QStringN10QtMobility29QContactDetailFieldDefinitionEE8findNodeERKS0_ 0x0002d898   Section      104  qcontactmanagerengine.o(t._ZNK4QMapI7QStringN10QtMobility29QContactDetailFieldDefinitionEE8findNodeERKS0_)
    t._ZNK4QMapI7QStringN10QtMobility29QContactDetailFieldDefinitionEEeqERKS3_ 0x0002d900   Section      228  qcontactdetaildefinition.o(t._ZNK4QMapI7QStringN10QtMobility29QContactDetailFieldDefinitionEEeqERKS3_)
    t._ZNK4QMapI7QStringPN10QtMobility24QContactMemoryEngineDataEE15mutableFindNodeEPPN8QMapData4NodeERKS0_ 0x0002d9e4   Section      108  qcontactmemorybackend.o(t._ZNK4QMapI7QStringPN10QtMobility24QContactMemoryEngineDataEE15mutableFindNodeEPPN8QMapData4NodeERKS0_)
    t._ZNK4QMapI7QStringS0_E15mutableFindNodeEPPN8QMapData4NodeERKS0_ 0x0002da50   Section      108  qcontactmanager.o(t._ZNK4QMapI7QStringS0_E15mutableFindNodeEPPN8QMapData4NodeERKS0_)
    t._ZNK4QMapI7QStringS0_E4keysEv          0x0002dabc   Section      104  qcontactmanager.o(t._ZNK4QMapI7QStringS0_E4keysEv)
    t._ZNK4QMapI7QStringS0_E4keysEv.clean    0x0002db24   Section       10  qcontactmanager.o(t._ZNK4QMapI7QStringS0_E4keysEv.clean)
    t._ZNK4QMapI7QStringS0_E8findNodeERKS0_  0x0002db2e   Section      108  qcontactmanager_p.o(t._ZNK4QMapI7QStringS0_E8findNodeERKS0_)
    t._ZNK4QMapI7QStringS_IS0_N10QtMobility24QContactDetailDefinitionEEE15mutableFindNodeEPPN8QMapData4NodeERKS0_ 0x0002db9a   Section      108  qcontactmanagerengine.o(t._ZNK4QMapI7QStringS_IS0_N10QtMobility24QContactDetailDefinitionEEE15mutableFindNodeEPPN8QMapData4NodeERKS0_)
    t._ZNK4QMapI7QStringS_IS0_N10QtMobility24QContactDetailDefinitionEEE5valueERKS0_ 0x0002dc06   Section      160  qcontactmemorybackend.o(t._ZNK4QMapI7QStringS_IS0_N10QtMobility24QContactDetailDefinitionEEE5valueERKS0_)
    t._ZNK4QMapI7QStringiE14const_iteratorneERKS2_ 0x0002dca6   Section       18  qcontact.o(t._ZNK4QMapI7QStringiE14const_iteratorneERKS2_)
    t._ZNK4QMapI7QStringiE15mutableFindNodeEPPN8QMapData4NodeERKS0_ 0x0002dcb8   Section      108  qcontact.o(t._ZNK4QMapI7QStringiE15mutableFindNodeEPPN8QMapData4NodeERKS0_)
    t._ZNK4QMapI7QStringiE4keysEv            0x0002dd24   Section      108  qcontact.o(t._ZNK4QMapI7QStringiE4keysEv)
    t._ZNK4QMapI7QStringiE4keysEv.clean      0x0002dd90   Section       10  qcontact.o(t._ZNK4QMapI7QStringiE4keysEv.clean)
    t._ZNK4QMapI7QStringiE5valueERKS0_       0x0002dd9a   Section       46  qcontact.o(t._ZNK4QMapI7QStringiE5valueERKS0_)
    t._ZNK4QMapI7QStringiE6valuesEv          0x0002ddc8   Section      108  qcontact.o(t._ZNK4QMapI7QStringiE6valuesEv)
    t._ZNK4QMapI7QStringiE6valuesEv.clean    0x0002de34   Section       10  qcontact.o(t._ZNK4QMapI7QStringiE6valuesEv.clean)
    t._ZNK4QMapI7QStringiE8findNodeERKS0_    0x0002de3e   Section      104  qcontact.o(t._ZNK4QMapI7QStringiE8findNodeERKS0_)
    t._ZNK4QMapIiN10QtMobility15QContactManager5ErrorEE15mutableFindNodeEPPN8QMapData4NodeERKi 0x0002dea6   Section      108  qcontactmanagerengine.o(t._ZNK4QMapIiN10QtMobility15QContactManager5ErrorEE15mutableFindNodeEPPN8QMapData4NodeERKi)
    t._ZNK4QMapIiN10QtMobility15QContactManager5ErrorEE7isEmptyEv 0x0002df12   Section       18  qcontactmemorybackend.o(t._ZNK4QMapIiN10QtMobility15QContactManager5ErrorEE7isEmptyEv)
    t._ZNK4QMapIj5QListIN10QtMobility20QContactRelationshipEEE15mutableFindNodeEPPN8QMapData4NodeERKj 0x0002df24   Section      108  qcontactmemorybackend.o(t._ZNK4QMapIj5QListIN10QtMobility20QContactRelationshipEEE15mutableFindNodeEPPN8QMapData4NodeERKj)
    t._ZNK4QMapIj5QListIN10QtMobility20QContactRelationshipEEE5valueERKj 0x0002df90   Section      160  qcontactmemorybackend.o(t._ZNK4QMapIj5QListIN10QtMobility20QContactRelationshipEEE5valueERKj)
    t._ZNK4QSetI7QStringE6toListEv           0x0002e030   Section      208  qcontactaction.o(t._ZNK4QSetI7QStringE6toListEv)
    t._ZNK4QSetI7QStringE6toListEv.clean     0x0002e100   Section       10  qcontactaction.o(t._ZNK4QSetI7QStringE6toListEv.clean)
    t._ZNK4QSetI7QStringE8containsERKS0_     0x0002e10a   Section       34  qcontactmanager_p.o(t._ZNK4QSetI7QStringE8containsERKS0_)
    t._ZNK4QSetIjE6toListEv                  0x0002e12c   Section      208  qcontactchangeset.o(t._ZNK4QSetIjE6toListEv)
    t._ZNK4QSetIjE6toListEv.clean            0x0002e1fc   Section       10  qcontactchangeset.o(t._ZNK4QSetIjE6toListEv.clean)
    t._ZNK4QSetIjE7isEmptyEv                 0x0002e206   Section       20  qcontactchangeset.o(t._ZNK4QSetIjE7isEmptyEv)
    t._ZNK5QHashI7QString15QHashDummyValueE8findNodeERKS0_Pj 0x0002e21a   Section      116  qcontact.o(t._ZNK5QHashI7QString15QHashDummyValueE8findNodeERKS0_Pj)
    t._ZNK5QHashI7QStringN10QtMobility24QContactActionDescriptorEE6valuesERKS0_ 0x0002e28e   Section       72  qcontactactionmanager_p.o(t._ZNK5QHashI7QStringN10QtMobility24QContactActionDescriptorEE6valuesERKS0_)
    t._ZNK5QHashI7QStringN10QtMobility24QContactActionDescriptorEE6valuesERKS0_.clean 0x0002e2d6   Section       10  qcontactactionmanager_p.o(t._ZNK5QHashI7QStringN10QtMobility24QContactActionDescriptorEE6valuesERKS0_.clean)
    t._ZNK5QHashI7QStringN10QtMobility24QContactActionDescriptorEE6valuesEv 0x0002e2e0   Section      108  qcontactactionmanager_p.o(t._ZNK5QHashI7QStringN10QtMobility24QContactActionDescriptorEE6valuesEv)
    t._ZNK5QHashI7QStringN10QtMobility24QContactActionDescriptorEE6valuesEv.clean 0x0002e34c   Section       10  qcontactactionmanager_p.o(t._ZNK5QHashI7QStringN10QtMobility24QContactActionDescriptorEE6valuesEv.clean)
    t._ZNK5QHashI7QStringN10QtMobility24QContactActionDescriptorEE8findNodeERKS0_Pj 0x0002e356   Section      116  qcontactactionmanager_p.o(t._ZNK5QHashI7QStringN10QtMobility24QContactActionDescriptorEE8findNodeERKS0_Pj)
    t._ZNK5QHashI7QStringPN10QtMobility28QContactManagerEngineFactoryEE14const_iteratorneERKS5_ 0x0002e3ca   Section       18  qcontactmanager_p.o(t._ZNK5QHashI7QStringPN10QtMobility28QContactManagerEngineFactoryEE14const_iteratorneERKS5_)
    t._ZNK5QHashI7QStringPN10QtMobility28QContactManagerEngineFactoryEE4keysEv 0x0002e3dc   Section      102  qcontactmanager_p.o(t._ZNK5QHashI7QStringPN10QtMobility28QContactManagerEngineFactoryEE4keysEv)
    t._ZNK5QHashI7QStringPN10QtMobility28QContactManagerEngineFactoryEE4keysEv.clean 0x0002e442   Section       10  qcontactmanager_p.o(t._ZNK5QHashI7QStringPN10QtMobility28QContactManagerEngineFactoryEE4keysEv.clean)
    t._ZNK5QHashI7QStringPN10QtMobility28QContactManagerEngineFactoryEE6valuesERKS0_ 0x0002e44c   Section       72  qcontactmanager_p.o(t._ZNK5QHashI7QStringPN10QtMobility28QContactManagerEngineFactoryEE6valuesERKS0_)
    t._ZNK5QHashI7QStringPN10QtMobility28QContactManagerEngineFactoryEE6valuesERKS0_.clean 0x0002e494   Section       10  qcontactmanager_p.o(t._ZNK5QHashI7QStringPN10QtMobility28QContactManagerEngineFactoryEE6valuesERKS0_.clean)
    t._ZNK5QHashI7QStringPN10QtMobility28QContactManagerEngineFactoryEE6valuesEv 0x0002e49e   Section      102  qcontactmanager_p.o(t._ZNK5QHashI7QStringPN10QtMobility28QContactManagerEngineFactoryEE6valuesEv)
    t._ZNK5QHashI7QStringPN10QtMobility28QContactManagerEngineFactoryEE6valuesEv.clean 0x0002e504   Section       10  qcontactmanager_p.o(t._ZNK5QHashI7QStringPN10QtMobility28QContactManagerEngineFactoryEE6valuesEv.clean)
    t._ZNK5QHashI7QStringPN10QtMobility28QContactManagerEngineFactoryEE8findNodeERKS0_Pj 0x0002e50e   Section      116  qcontactmanager_p.o(t._ZNK5QHashI7QStringPN10QtMobility28QContactManagerEngineFactoryEE8findNodeERKS0_Pj)
    t._ZNK5QHashI7QStringPcE5valueERKS0_RKS1_ 0x0002e582   Section       42  qcontactdetail.o(t._ZNK5QHashI7QStringPcE5valueERKS0_RKS1_)
    t._ZNK5QHashI7QStringPcE8findNodeERKS0_Pj 0x0002e5ac   Section      116  qcontact.o(t._ZNK5QHashI7QStringPcE8findNodeERKS0_Pj)
    t._ZNK5QHashIN10QtMobility20QContactStringHolderE8QVariantE10constBeginEv 0x0002e620   Section       18  qcontactdetail.o(t._ZNK5QHashIN10QtMobility20QContactStringHolderE8QVariantE10constBeginEv)
    t._ZNK5QHashIN10QtMobility20QContactStringHolderE8QVariantE14const_iteratorneERKS4_ 0x0002e632   Section       18  qcontactdetail.o(t._ZNK5QHashIN10QtMobility20QContactStringHolderE8QVariantE14const_iteratorneERKS4_)
    t._ZNK5QHashIN10QtMobility20QContactStringHolderE8QVariantE5valueERKS1_ 0x0002e644   Section       58  qcontactdetail.o(t._ZNK5QHashIN10QtMobility20QContactStringHolderE8QVariantE5valueERKS1_)
    t._ZNK5QHashIN10QtMobility20QContactStringHolderE8QVariantE7isEmptyEv 0x0002e67e   Section       18  qcontactdetail.o(t._ZNK5QHashIN10QtMobility20QContactStringHolderE8QVariantE7isEmptyEv)
    t._ZNK5QHashIN10QtMobility20QContactStringHolderE8QVariantE8containsERKS1_ 0x0002e690   Section       32  qcontactdetail.o(t._ZNK5QHashIN10QtMobility20QContactStringHolderE8QVariantE8containsERKS1_)
    t._ZNK5QHashIN10QtMobility20QContactStringHolderE8QVariantE8findNodeERKS1_Pj 0x0002e6b0   Section      116  qcontactdetail.o(t._ZNK5QHashIN10QtMobility20QContactStringHolderE8QVariantE8findNodeERKS1_Pj)
    t._ZNK5QHashIN10QtMobility20QContactStringHolderE8QVariantEeqERKS3_ 0x0002e724   Section      256  qcontactdetail.o(t._ZNK5QHashIN10QtMobility20QContactStringHolderE8QVariantEeqERKS3_)
    t._ZNK5QHashIN10QtMobility24QContactActionDescriptorEPNS0_21QContactActionFactoryEE8findNodeERKS1_Pj 0x0002e824   Section      116  qcontactactionmanager_p.o(t._ZNK5QHashIN10QtMobility24QContactActionDescriptorEPNS0_21QContactActionFactoryEE8findNodeERKS1_Pj)
    t._ZNK5QHashIPKc7QStringE8findNodeERKS1_Pj 0x0002e898   Section      104  qcontactdetail.o(t._ZNK5QHashIPKc7QStringE8findNodeERKS1_Pj)
    t._ZNK5QHashIPN10QtMobility15QContactManagerE15QHashDummyValueE8findNodeERKS2_Pj 0x0002e900   Section      104  qcontactmanager.o(t._ZNK5QHashIPN10QtMobility15QContactManagerE15QHashDummyValueE8findNodeERKS2_Pj)
    t._ZNK5QHashIPN10QtMobility23QContactAbstractRequestEPNS0_17RequestControllerEE5valueERKS2_ 0x0002e968   Section       40  qcontactmanagerenginev2wrapper_p.o(t._ZNK5QHashIPN10QtMobility23QContactAbstractRequestEPNS0_17RequestControllerEE5valueERKS2_)
    t._ZNK5QHashIPN10QtMobility23QContactAbstractRequestEPNS0_17RequestControllerEE8containsERKS2_ 0x0002e990   Section       32  qcontactmanagerenginev2wrapper_p.o(t._ZNK5QHashIPN10QtMobility23QContactAbstractRequestEPNS0_17RequestControllerEE8containsERKS2_)
    t._ZNK5QHashIPN10QtMobility23QContactAbstractRequestEPNS0_17RequestControllerEE8findNodeERKS2_Pj 0x0002e9b0   Section      104  qcontactmanagerenginev2wrapper_p.o(t._ZNK5QHashIPN10QtMobility23QContactAbstractRequestEPNS0_17RequestControllerEE8findNodeERKS2_Pj)
    t._ZNK5QHashIiiE8findNodeERKiPj          0x0002ea18   Section       94  qcontactmanagerengine.o(t._ZNK5QHashIiiE8findNodeERKiPj)
    t._ZNK5QHashIj15QHashDummyValueE8findNodeERKjPj 0x0002ea76   Section       94  qcontactchangeset.o(t._ZNK5QHashIj15QHashDummyValueE8findNodeERKjPj)
    t._ZNK5QHashIjiE8findNodeERKjPj          0x0002ead4   Section       94  qcontactmanagerengine.o(t._ZNK5QHashIjiE8findNodeERKjPj)
    t._ZNK5QListI7QStringE14const_iteratorneERKS2_ 0x0002eb32   Section       18  qcontactmanagerengine.o(t._ZNK5QListI7QStringE14const_iteratorneERKS2_)
    t._ZNK5QListI7QStringE2atEi              0x0002eb44   Section       22  qcontactmanager_p.o(t._ZNK5QListI7QStringE2atEi)
    t._ZNK5QListI7QStringE5countEv           0x0002eb5a   Section       12  qcontactmanager_p.o(t._ZNK5QListI7QStringE5countEv)
    t._ZNK5QListI7QStringE5toSetEv           0x0002eb68   Section      172  qcontactmanagerengine.o(t._ZNK5QListI7QStringE5toSetEv)
    t._ZNK5QListI7QStringE5toSetEv.clean     0x0002ec14   Section       10  qcontactmanagerengine.o(t._ZNK5QListI7QStringE5toSetEv.clean)
    t._ZNK5QListI7QStringE5valueEi           0x0002ec1e   Section       58  qcontactmanager_p.o(t._ZNK5QListI7QStringE5valueEi)
    t._ZNK5QListI7QStringE8containsERKS0_    0x0002ec58   Section       74  qcontactmanager_p.o(t._ZNK5QListI7QStringE8containsERKS0_)
    t._ZNK5QListI7QStringEeqERKS1_           0x0002eca2   Section      108  qcontactmanager_p.o(t._ZNK5QListI7QStringEeqERKS1_)
    t._ZNK5QListI8QVariantE14const_iteratorneERKS2_ 0x0002ed0e   Section       18  qcontactmanagerengine.o(t._ZNK5QListI8QVariantE14const_iteratorneERKS2_)
    t._ZNK5QListI8QVariantE8containsERKS0_   0x0002ed20   Section       72  qcontactmanagerengine.o(t._ZNK5QListI8QVariantE8containsERKS0_)
    t._ZNK5QListI8QVariantEeqERKS1_          0x0002ed68   Section      118  qcontactdetailfielddefinition.o(t._ZNK5QListI8QVariantEeqERKS1_)
    t._ZNK5QListIN10QtMobility10QContactIdEE8containsERKS1_ 0x0002edde   Section       74  qcontact.o(t._ZNK5QListIN10QtMobility10QContactIdEE8containsERKS1_)
    t._ZNK5QListIN10QtMobility14QContactDetailEE2atEi 0x0002ee28   Section       22  qcontact.o(t._ZNK5QListIN10QtMobility14QContactDetailEE2atEi)
    t._ZNK5QListIN10QtMobility14QContactDetailEE4sizeEv 0x0002ee3e   Section       12  qcontact.o(t._ZNK5QListIN10QtMobility14QContactDetailEE4sizeEv)
    t._ZNK5QListIN10QtMobility14QContactDetailEE5countEv 0x0002ee4a   Section       12  qcontactmanagerengine.o(t._ZNK5QListIN10QtMobility14QContactDetailEE5countEv)
    t._ZNK5QListIN10QtMobility14QContactDetailEE5firstEv 0x0002ee56   Section       16  qcontact.o(t._ZNK5QListIN10QtMobility14QContactDetailEE5firstEv)
    t._ZNK5QListIN10QtMobility14QContactDetailEE8containsERKS1_ 0x0002ee66   Section       74  qcontact.o(t._ZNK5QListIN10QtMobility14QContactDetailEE8containsERKS1_)
    t._ZNK5QListIN10QtMobility14QContactDetailEEeqERKS2_ 0x0002eeb0   Section      108  qcontact.o(t._ZNK5QListIN10QtMobility14QContactDetailEEeqERKS2_)
    t._ZNK5QListIN10QtMobility14QContactFilterEE5countEv 0x0002ef1c   Section       12  qcontactmanagerengine.o(t._ZNK5QListIN10QtMobility14QContactFilterEE5countEv)
    t._ZNK5QListIN10QtMobility14QContactFilterEE8iteratorneERKS3_ 0x0002ef28   Section       18  qcontactmanagerengine.o(t._ZNK5QListIN10QtMobility14QContactFilterEE8iteratorneERKS3_)
    t._ZNK5QListIN10QtMobility14QContactFilterEEeqERKS2_ 0x0002ef3a   Section      108  qcontactintersectionfilter.o(t._ZNK5QListIN10QtMobility14QContactFilterEEeqERKS2_)
    t._ZNK5QListIN10QtMobility20QContactRelationshipEE2atEi 0x0002efa6   Section       22  qcontact.o(t._ZNK5QListIN10QtMobility20QContactRelationshipEE2atEi)
    t._ZNK5QListIN10QtMobility20QContactRelationshipEE4sizeEv 0x0002efbc   Section       12  qcontactmemorybackend.o(t._ZNK5QListIN10QtMobility20QContactRelationshipEE4sizeEv)
    t._ZNK5QListIN10QtMobility20QContactRelationshipEE5valueEi 0x0002efc8   Section       58  qcontactmanagerengine.o(t._ZNK5QListIN10QtMobility20QContactRelationshipEE5valueEi)
    t._ZNK5QListIN10QtMobility20QContactRelationshipEE7indexOfERKS1_i 0x0002f002   Section      118  qcontactmemorybackend.o(t._ZNK5QListIN10QtMobility20QContactRelationshipEE7indexOfERKS1_i)
    t._ZNK5QListIN10QtMobility8QContactEE5valueEi 0x0002f078   Section       58  qcontactmanagerengine.o(t._ZNK5QListIN10QtMobility8QContactEE5valueEi)
    t._ZNK5QListIN10QtMobility8QContactEE8iteratormiES3_ 0x0002f0b2   Section       12  qcontactmanagerengine.o(t._ZNK5QListIN10QtMobility8QContactEE8iteratormiES3_)
    t._ZNK5QListIN8QVariant4TypeEE8containsERKS1_ 0x0002f0be   Section       66  qcontactmanagerengine.o(t._ZNK5QListIN8QVariant4TypeEE8containsERKS1_)
    t._ZNK5QListIPN10QtMobility27QContactActionManagerPluginEE5valueEi 0x0002f100   Section       54  qcontactactionmanager_p.o(t._ZNK5QListIPN10QtMobility27QContactActionManagerPluginEE5valueEi)
    t._ZNK5QListIiE8containsERKi             0x0002f136   Section       66  qcontact.o(t._ZNK5QListIiE8containsERKi)
    t._ZNK5QListIjE7indexOfERKji             0x0002f178   Section      116  qcontactmemorybackend.o(t._ZNK5QListIjE7indexOfERKji)
    t._ZNK5QListIjE8containsERKj             0x0002f1ec   Section       66  qcontactmanagerengine.o(t._ZNK5QListIjE8containsERKj)
    t._ZNK5QListIjEeqERKS0_                  0x0002f22e   Section       98  qcontactlocalidfilter.o(t._ZNK5QListIjEeqERKS0_)
    t._ZNK6QFlagsIN10QtMobility14QContactFilter9MatchFlagEEanEi 0x0002f290   Section       16  qcontactmanagerengine.o(t._ZNK6QFlagsIN10QtMobility14QContactFilter9MatchFlagEEanEi)
    t._ZlsI7QString8QVariantER11QDataStreamS3_RK4QMapIT_T0_E 0x0002f2a0   Section      114  qcontactdetail.o(t._ZlsI7QString8QVariantER11QDataStreamS3_RK4QMapIT_T0_E)
    t._ZlsI7QStringER11QDataStreamS2_RK5QListIT_E 0x0002f312   Section      100  qcontactfetchhint.o(t._ZlsI7QStringER11QDataStreamS2_RK5QListIT_E)
    t._ZlsI7QStringN10QtMobility29QContactDetailFieldDefinitionEER11QDataStreamS4_RK4QMapIT_T0_E 0x0002f376   Section      114  qcontactdetaildefinition.o(t._ZlsI7QStringN10QtMobility29QContactDetailFieldDefinitionEER11QDataStreamS4_RK4QMapIT_T0_E)
    t._ZlsI7QStringiER11QDataStreamS2_RK4QMapIT_T0_E 0x0002f3e8   Section      114  qcontact.o(t._ZlsI7QStringiER11QDataStreamS2_RK4QMapIT_T0_E)
    t._ZlsI8QVariantER11QDataStreamS2_RK5QListIT_E 0x0002f45a   Section       98  qcontactdetailfielddefinition.o(t._ZlsI8QVariantER11QDataStreamS2_RK5QListIT_E)
    t._ZlsIN10QtMobility14QContactDetailEE6QDebugS2_RK5QListIT_E 0x0002f4bc   Section      148  qcontactactiontarget.o(t._ZlsIN10QtMobility14QContactDetailEE6QDebugS2_RK5QListIT_E)
    t._ZlsIN10QtMobility14QContactDetailEE6QDebugS2_RK5QListIT_E.clean 0x0002f550   Section       10  qcontactactiontarget.o(t._ZlsIN10QtMobility14QContactDetailEE6QDebugS2_RK5QListIT_E.clean)
    t._ZlsIN10QtMobility14QContactDetailEER11QDataStreamS3_RK5QListIT_E 0x0002f55a   Section       60  qcontact.o(t._ZlsIN10QtMobility14QContactDetailEER11QDataStreamS3_RK5QListIT_E)
    t._ZlsIN10QtMobility14QContactFilterEER11QDataStreamS3_RK5QListIT_E 0x0002f596   Section       74  qcontactintersectionfilter.o(t._ZlsIN10QtMobility14QContactFilterEER11QDataStreamS3_RK5QListIT_E)
    t._ZlsIjER11QDataStreamS1_RK5QListIT_E   0x0002f5e0   Section       76  qcontactlocalidfilter.o(t._ZlsIjER11QDataStreamS1_RK5QListIT_E)
    t._ZrsI7QString8QVariantER11QDataStreamS3_R4QMapIT_T0_E 0x0002f62c   Section      222  qcontactdetail.o(t._ZrsI7QString8QVariantER11QDataStreamS3_R4QMapIT_T0_E)
    t._ZrsI7QString8QVariantER11QDataStreamS3_R4QMapIT_T0_E.clean 0x0002f70a   Section       16  qcontactdetail.o(t._ZrsI7QString8QVariantER11QDataStreamS3_R4QMapIT_T0_E.clean)
    t._ZrsI7QStringER11QDataStreamS2_R5QListIT_E 0x0002f71c   Section      108  qcontactfetchhint.o(t._ZrsI7QStringER11QDataStreamS2_R5QListIT_E)
    t._ZrsI7QStringER11QDataStreamS2_R5QListIT_E.clean 0x0002f788   Section       10  qcontactfetchhint.o(t._ZrsI7QStringER11QDataStreamS2_R5QListIT_E.clean)
    t._ZrsI7QStringN10QtMobility29QContactDetailFieldDefinitionEER11QDataStreamS4_R4QMapIT_T0_E 0x0002f792   Section      222  qcontactdetaildefinition.o(t._ZrsI7QStringN10QtMobility29QContactDetailFieldDefinitionEER11QDataStreamS4_R4QMapIT_T0_E)
    t._ZrsI7QStringN10QtMobility29QContactDetailFieldDefinitionEER11QDataStreamS4_R4QMapIT_T0_E.clean 0x0002f870   Section       16  qcontactdetaildefinition.o(t._ZrsI7QStringN10QtMobility29QContactDetailFieldDefinitionEER11QDataStreamS4_R4QMapIT_T0_E.clean)
    t._ZrsI7QStringiER11QDataStreamS2_R4QMapIT_T0_E 0x0002f880   Section      210  qcontact.o(t._ZrsI7QStringiER11QDataStreamS2_R4QMapIT_T0_E)
    t._ZrsI7QStringiER11QDataStreamS2_R4QMapIT_T0_E.clean 0x0002f952   Section       10  qcontact.o(t._ZrsI7QStringiER11QDataStreamS2_R4QMapIT_T0_E.clean)
    t._ZrsI8QVariantER11QDataStreamS2_R5QListIT_E 0x0002f95c   Section      134  qcontactdetailfielddefinition.o(t._ZrsI8QVariantER11QDataStreamS2_R5QListIT_E)
    t._ZrsI8QVariantER11QDataStreamS2_R5QListIT_E.clean 0x0002f9e2   Section       10  qcontactdetailfielddefinition.o(t._ZrsI8QVariantER11QDataStreamS2_R5QListIT_E.clean)
    t._ZrsIN10QtMobility14QContactDetailEER11QDataStreamS3_R5QListIT_E 0x0002f9ec   Section       94  qcontact.o(t._ZrsIN10QtMobility14QContactDetailEER11QDataStreamS3_R5QListIT_E)
    t._ZrsIN10QtMobility14QContactDetailEER11QDataStreamS3_R5QListIT_E.clean 0x0002fa4a   Section       10  qcontact.o(t._ZrsIN10QtMobility14QContactDetailEER11QDataStreamS3_R5QListIT_E.clean)
    t._ZrsIN10QtMobility14QContactFilterEER11QDataStreamS3_R5QListIT_E 0x0002fa54   Section       94  qcontactintersectionfilter.o(t._ZrsIN10QtMobility14QContactFilterEER11QDataStreamS3_R5QListIT_E)
    t._ZrsIN10QtMobility14QContactFilterEER11QDataStreamS3_R5QListIT_E.clean 0x0002fab2   Section       10  qcontactintersectionfilter.o(t._ZrsIN10QtMobility14QContactFilterEER11QDataStreamS3_R5QListIT_E.clean)
    t._ZrsIjER11QDataStreamS1_R5QListIT_E    0x0002fabc   Section       76  qcontactlocalidfilter.o(t._ZrsIjER11QDataStreamS1_R5QListIT_E)
    .extab._ZN10QtMobility17RequestControllerD2Ev 0x0002fb08   Data           0  moc_qcontactmanagerenginev2wrapper_p.o(.ARM.extab)
    .extab._ZN10QtMobility28PartialSaveRequestControllerD1Ev 0x0002fb20   Data           0  moc_qcontactmanagerenginev2wrapper_p.o(.ARM.extab)
    .extab._ZN10QtMobility8QContact12clearDetailsEv 0x0002fb40   Data           0  qcontact.o(.ARM.extab)
    .extab._ZN10QtMobility8QContactC1Ev      0x0002fb90   Data           0  qcontact.o(.ARM.extab)
    .extab._ZNK10QtMobility8QContact4typeEv  0x0002fbb8   Data           0  qcontact.o(.ARM.extab)
    .extab._ZN10QtMobility8QContact7setTypeERK7QString 0x0002fbd0   Data           0  qcontact.o(.ARM.extab)
    .extab._ZNK10QtMobility8QContact7isEmptyEv 0x0002fbe0   Data           0  qcontact.o(.ARM.extab)
    .extab._ZNK10QtMobility8QContact7detailsERK7QString 0x0002fc00   Data           0  qcontact.o(.ARM.extab)
    .extab._ZNK10QtMobility8QContact7detailsERK7QStringS3_S3_ 0x0002fc10   Data           0  qcontact.o(.ARM.extab)
    .extab._ZNK10QtMobility8QContact7detailsEPKc 0x0002fc40   Data           0  qcontact.o(.ARM.extab)
    .extab._ZNK10QtMobility8QContact7detailsEPKcS2_RK7QString 0x0002fc50   Data           0  qcontact.o(.ARM.extab)
    .extab._ZN10QtMobility8QContact12removeDetailEPNS_14QContactDetailE 0x0002fc80   Data           0  qcontact.o(.ARM.extab)
    .extab._ZNK10QtMobility8QContact13relationshipsERK7QString 0x0002fca8   Data           0  qcontact.o(.ARM.extab)
    .extab._ZNK10QtMobility8QContact15relatedContactsERK7QStringNS_20QContactRelationship4RoleE 0x0002fcd8   Data           0  qcontact.o(.ARM.extab)
    .extab._ZNK10QtMobility8QContact16availableActionsERK7QString 0x0002fdb8   Data           0  qcontact.o(.ARM.extab)
    .extab._ZNK10QtMobility8QContact17isPreferredDetailERK7QStringRKNS_14QContactDetailE 0x0002fe00   Data           0  qcontact.o(.ARM.extab)
    .extab._ZNK10QtMobility8QContact15preferredDetailERK7QString 0x0002fe10   Data           0  qcontact.o(.ARM.extab)
    .extab._ZNK10QtMobility8QContact16preferredDetailsEv 0x0002fe30   Data           0  qcontact.o(.ARM.extab)
    .extab._ZN10QtMobility12QContactData10removeOnlyERK4QSetI7QStringE 0x0002fe40   Data           0  qcontact.o(.ARM.extab)
    .extab._ZN10QtMobility5qHashERKNS_8QContactE 0x0002fe50   Data           0  qcontact.o(.ARM.extab)
    .extab._ZN10QtMobilitylsE6QDebugRKNS_8QContactE 0x0002fe80   Data           0  qcontact.o(.ARM.extab)
    .extab._ZN10QtMobilitylsER11QDataStreamRKNS_8QContactE 0x0002fee0   Data           0  qcontact.o(.ARM.extab)
    .extab._ZN10QtMobilityrsER11QDataStreamRNS_8QContactE 0x0002ff10   Data           0  qcontact.o(.ARM.extab)
    .extab._ZN5QListIN10QtMobility14QContactDetailEE9node_copyEPNS2_4NodeES4_S4_ 0x0002ff48   Data           0  qcontact.o(.ARM.extab)
    .extab._ZN5QListIN10QtMobility14QContactDetailEE13detach_helperEi 0x0002ff6c   Data           0  qcontact.o(.ARM.extab)
    .extab._Z20qForeachContainerNewI5QListIN10QtMobility14QContactDetailEEE17QForeachContainerIT_ERKS5_ 0x0002ff88   Data           0  qcontact.o(.ARM.extab)
    .extab._ZN5QListIN10QtMobility14QContactDetailEE14node_constructEPNS2_4NodeERKS1_ 0x0002ff98   Data           0  qcontact.o(.ARM.extab)
    .extab._ZN5QListIN10QtMobility14QContactDetailEE18detach_helper_growEii 0x0002ffa8   Data           0  qcontact.o(.ARM.extab)
    .extab._ZN5QListIN10QtMobility14QContactDetailEE6appendERKS1_ 0x0002ffd8   Data           0  qcontact.o(.ARM.extab)
    .extab._ZN5QListIN10QtMobility14QContactDetailEE5clearEv 0x00030008   Data           0  qcontact.o(.ARM.extab)
    .extab._ZrsIN10QtMobility14QContactDetailEER11QDataStreamS3_R5QListIT_E 0x00030018   Data           0  qcontact.o(.ARM.extab)
    .extab._ZN4QMapI7QStringiE11node_createEP8QMapDataPPNS2_4NodeERKS0_RKi 0x00030028   Data           0  qcontact.o(.ARM.extab)
    .extab._ZN4QMapI7QStringiE13detach_helperEv 0x0003004c   Data           0  qcontact.o(.ARM.extab)
    .extab._ZN4QMapI7QStringiE5clearEv       0x00030068   Data           0  qcontact.o(.ARM.extab)
    .extab._ZrsI7QStringiER11QDataStreamS2_R4QMapIT_T0_E 0x00030078   Data           0  qcontact.o(.ARM.extab)
    .extab._ZN5QListIN10QtMobility24QContactActionDescriptorEE9node_copyEPNS2_4NodeES4_S4_ 0x00030088   Data           0  qcontact.o(.ARM.extab)
    .extab._ZN5QListIN10QtMobility24QContactActionDescriptorEE13detach_helperEi 0x000300ac   Data           0  qcontact.o(.ARM.extab)
    .extab._ZN6QDebuglsEPKc                  0x000300c8   Data           0  qcontact.o(.ARM.extab)
    .extab._ZN5QListI7QStringE9node_copyEPNS1_4NodeES3_S3_ 0x000300d8   Data           0  qcontact.o(.ARM.extab)
    .extab._ZN5QListI7QStringE13detach_helperEi 0x000300fc   Data           0  qcontact.o(.ARM.extab)
    .extab._ZN5QListI7QStringE14node_constructEPNS1_4NodeERKS0_ 0x00030118   Data           0  qcontact.o(.ARM.extab)
    .extab._ZN5QListI7QStringE18detach_helper_growEii 0x00030128   Data           0  qcontact.o(.ARM.extab)
    .extab._ZN5QListI7QStringE6appendERKS0_  0x00030158   Data           0  qcontact.o(.ARM.extab)
    .extab._ZN5QListIN10QtMobility14QContactDetailEE6insertEiRKS1_ 0x00030188   Data           0  qcontact.o(.ARM.extab)
    .extab._ZN5QListIN10QtMobility10QContactIdEE14node_constructEPNS2_4NodeERKS1_ 0x000301b8   Data           0  qcontact.o(.ARM.extab)
    .extab._ZN5QListIN10QtMobility10QContactIdEE9node_copyEPNS2_4NodeES4_S4_ 0x000301c8   Data           0  qcontact.o(.ARM.extab)
    .extab._ZN5QListIN10QtMobility10QContactIdEE18detach_helper_growEii 0x000301ec   Data           0  qcontact.o(.ARM.extab)
    .extab._ZN5QListIN10QtMobility10QContactIdEE6appendERKS1_ 0x0003021c   Data           0  qcontact.o(.ARM.extab)
    .extab._ZN5QListIN10QtMobility24QContactActionDescriptorEE14node_constructEPNS2_4NodeERKS1_ 0x0003024c   Data           0  qcontact.o(.ARM.extab)
    .extab._ZN5QListIN10QtMobility24QContactActionDescriptorEE18detach_helper_growEii 0x0003025c   Data           0  qcontact.o(.ARM.extab)
    .extab._ZN5QListIN10QtMobility24QContactActionDescriptorEE6appendERKS1_ 0x0003028c   Data           0  qcontact.o(.ARM.extab)
    .extab._ZN5QListIiE13detach_helperEi     0x000302bc   Data           0  qcontact.o(.ARM.extab)
    .extab._ZN5QListIiE18detach_helper_growEii 0x000302d8   Data           0  qcontact.o(.ARM.extab)
    .extab._ZN5QListIiE6appendERKi           0x00030308   Data           0  qcontact.o(.ARM.extab)
    .extab._ZN4QMapI7QStringN10QtMobility14QContactDetailEE11node_createEP8QMapDataPPNS4_4NodeERKS0_RKS2_ 0x00030324   Data           0  qcontact.o(.ARM.extab)
    .extab._ZN4QMapI7QStringN10QtMobility14QContactDetailEE13detach_helperEv 0x00030370   Data           0  qcontact.o(.ARM.extab)
    .extab._ZN18QSharedDataPointerIN10QtMobility21QContactDetailPrivateEE13detach_helperEv 0x0003038c   Data           0  qcontact.o(.ARM.extab)
    .extab._ZN10QtMobility12QContactType7setTypeERK7QString 0x0003039c   Data           0  qcontact.o(.ARM.extab)
    .extab._ZN10QtMobility12QContactDataD1Ev 0x000303ac   Data           0  qcontact.o(.ARM.extab)
    .extab._ZN5QListIN10QtMobility20QContactRelationshipEE9node_copyEPNS2_4NodeES4_S4_ 0x000303cc   Data           0  qcontact.o(.ARM.extab)
    .extab._ZN5QListIN10QtMobility20QContactRelationshipEE13detach_helperEi 0x000303f0   Data           0  qcontact.o(.ARM.extab)
    .extab._ZN18QSharedDataPointerIN10QtMobility12QContactDataEE13detach_helperEv 0x0003040c   Data           0  qcontact.o(.ARM.extab)
    .extab._ZNK4QMapI7QStringiE4keysEv       0x0003041c   Data           0  qcontact.o(.ARM.extab)
    .extab._ZN5QListIN10QtMobility20QContactRelationshipEE14node_constructEPNS2_4NodeERKS1_ 0x0003042c   Data           0  qcontact.o(.ARM.extab)
    .extab._ZN5QListIN10QtMobility20QContactRelationshipEE18detach_helper_growEii 0x0003043c   Data           0  qcontact.o(.ARM.extab)
    .extab._ZN5QListIN10QtMobility20QContactRelationshipEE6appendERKS1_ 0x0003046c   Data           0  qcontact.o(.ARM.extab)
    .extab._ZNK4QMapI7QStringiE6valuesEv     0x0003049c   Data           0  qcontact.o(.ARM.extab)
    .extab._ZN5QHashIN10QtMobility20QContactStringHolderE8QVariantE11deleteNode2EPN9QHashData4NodeE 0x000304ac   Data           0  qcontact.o(.ARM.extab)
    .extab._ZN18QSharedDataPointerIN10QtMobility21QContactDetailPrivateEE5cloneEv 0x000304bc   Data           0  qcontact.o(.ARM.extab)
    .extab._ZN10QtMobility12QContactDataC1ERKS0_ 0x000304d4   Data           0  qcontact.o(.ARM.extab)
    .extab._ZN10QtMobility23QContactAbstractRequest15waitForFinishedEi 0x000304f4   Data           0  qcontactabstractrequest.o(.ARM.extab)
    .extab._ZN10QtMobility23QContactAbstractRequest6cancelEv 0x00030504   Data           0  qcontactabstractrequest.o(.ARM.extab)
    .extab._ZN10QtMobility23QContactAbstractRequest5startEv 0x00030514   Data           0  qcontactabstractrequest.o(.ARM.extab)
    .extab._ZN10QtMobility23QContactAbstractRequestD1Ev 0x00030524   Data           0  qcontactabstractrequest.o(.ARM.extab)
    .extab._ZNK10QtMobility23QContactAbstractRequest4typeEv 0x00030534   Data           0  qcontactabstractrequest.o(.ARM.extab)
    .extab._ZN10QtMobility23QContactAbstractRequest10setManagerEPNS_15QContactManagerE 0x00030544   Data           0  qcontactabstractrequest.o(.ARM.extab)
    .extab._ZN10QtMobility30QContactAbstractRequestPrivateD1Ev 0x00030554   Data           0  qcontactabstractrequest.o(.ARM.extab)
    .extab._ZN10QtMobility14QContactAction16availableActionsERK7QString 0x0003056c   Data           0  qcontactaction.o(.ARM.extab)
    .extab._ZNK4QSetI7QStringE6toListEv      0x000305dc   Data           0  qcontactaction.o(.ARM.extab)
    .extab._ZN5QHashI7QString15QHashDummyValueE13duplicateNodeEPN9QHashData4NodeEPv 0x000305ec   Data           0  qcontactaction.o(.ARM.extab)
    .extab._ZN10QtMobility24QContactActionDescriptorC1Ev 0x000305fc   Data           0  qcontactactiondescriptor.o(.ARM.extab)
    .extab._ZNK10QtMobility24QContactActionDescriptor13contactFilterEv 0x0003061c   Data           0  qcontactactiondescriptor.o(.ARM.extab)
    .extab._ZNK10QtMobility24QContactActionDescriptor8metaDataERK7QStringRK4QMapIS1_8QVariantE 0x0003062c   Data           0  qcontactactiondescriptor.o(.ARM.extab)
    .extab._ZNK10QtMobility24QContactActionDescriptor8metaDataERK7QStringRKNS_20QContactActionTargetERK4QMapIS1_8QVariantE 0x0003063c   Data           0  qcontactactiondescriptor.o(.ARM.extab)
    .extab._ZNK10QtMobility24QContactActionDescriptor8metaDataERK7QStringRKNS_8QContactERKNS_14QContactDetailERK4QMapIS1_8QVariantE 0x0003064c   Data           0  qcontactactiondescriptor.o(.ARM.extab)
    .extab._ZN10QtMobility5qHashERKNS_24QContactActionDescriptorE 0x0003066c   Data           0  qcontactactiondescriptor.o(.ARM.extab)
    .extab._ZN10QtMobilitylsE6QDebugRKNS_24QContactActionDescriptorE 0x0003068c   Data           0  qcontactactiondescriptor.o(.ARM.extab)
    .extab._ZN5QListIN10QtMobility20QContactActionTargetEE14node_constructEPNS2_4NodeERKS1_ 0x000306cc   Data           0  qcontactactiondescriptor.o(.ARM.extab)
    .extab._ZN5QListIN10QtMobility20QContactActionTargetEE9node_copyEPNS2_4NodeES4_S4_ 0x000306dc   Data           0  qcontactactiondescriptor.o(.ARM.extab)
    .extab._ZN5QListIN10QtMobility20QContactActionTargetEE18detach_helper_growEii 0x00030700   Data           0  qcontactactiondescriptor.o(.ARM.extab)
    .extab._ZN5QListIN10QtMobility20QContactActionTargetEE6appendERKS1_ 0x00030730   Data           0  qcontactactiondescriptor.o(.ARM.extab)
    .extab._ZN10QtMobility31QContactActionDescriptorPrivateD1Ev 0x00030760   Data           0  qcontactactiondescriptor.o(.ARM.extab)
    .extab._ZNK10QtMobility21QContactActionFactory16createDescriptorERK7QStringS3_S3_i 0x00030778   Data           0  qcontactactionfactory.o(.ARM.extab)
    .extab._ZN18QSharedDataPointerIN10QtMobility31QContactActionDescriptorPrivateEE13detach_helperEv 0x00030788   Data           0  qcontactactionfactory.o(.ARM.extab)
    .extab._ZN10QtMobility21QContactActionManagerC1Ev 0x000307b8   Data           0  qcontactactionmanager_p.o(.ARM.extab)
    .extab._ZN10QtMobility28contactActionManagerInstanceEv 0x000307c8   Data           0  qcontactactionmanager_p.o(.ARM.extab)
    .extab._ZN10QtMobility21QContactActionManagerD1Ev 0x000307e0   Data           0  qcontactactionmanager_p.o(.ARM.extab)
    .extab._ZN10QtMobility21QContactActionManager16availableActionsERKNS_8QContactE 0x000307f0   Data           0  qcontactactionmanager_p.o(.ARM.extab)
    .extab._ZN10QtMobility21QContactActionManager17actionDescriptorsERK7QString 0x00030818   Data           0  qcontactactionmanager_p.o(.ARM.extab)
    .extab._ZN10QtMobility21QContactActionManager6actionERKNS_24QContactActionDescriptorE 0x00030858   Data           0  qcontactactionmanager_p.o(.ARM.extab)
    .extab._ZNK5QHashI7QStringN10QtMobility24QContactActionDescriptorEE6valuesEv 0x00030878   Data           0  qcontactactionmanager_p.o(.ARM.extab)
    .extab._ZNK5QHashI7QStringN10QtMobility24QContactActionDescriptorEE6valuesERKS0_ 0x00030888   Data           0  qcontactactionmanager_p.o(.ARM.extab)
    .extab._ZN5QHashI7QStringN10QtMobility24QContactActionDescriptorEE11deleteNode2EPN9QHashData4NodeE 0x00030898   Data           0  qcontactactionmanager_p.o(.ARM.extab)
    .extab._ZN10QtMobility20QContactActionTargetC1ERKNS_8QContactERK5QListINS_14QContactDetailEE 0x000308a8   Data           0  qcontactactiontarget.o(.ARM.extab)
    .extab._ZN10QtMobility20QContactActionTargetC1ERKNS_8QContactERKNS_14QContactDetailE 0x000308b8   Data           0  qcontactactiontarget.o(.ARM.extab)
    .extab._ZNK10QtMobility20QContactActionTarget7isValidEv 0x000308d8   Data           0  qcontactactiontarget.o(.ARM.extab)
    .extab._ZN10QtMobility5qHashERKNS_20QContactActionTargetE 0x000308e8   Data           0  qcontactactiontarget.o(.ARM.extab)
    .extab._ZN10QtMobilityrsER11QDataStreamRNS_20QContactActionTargetE 0x00030910   Data           0  qcontactactiontarget.o(.ARM.extab)
    .extab._ZN10QtMobilitylsE6QDebugRKNS_20QContactActionTargetE 0x00030938   Data           0  qcontactactiontarget.o(.ARM.extab)
    .extab._ZN10QtMobility27QContactActionTargetPrivateC1ERKNS_8QContactERK5QListINS_14QContactDetailEE 0x00030988   Data           0  qcontactactiontarget.o(.ARM.extab)
    .extab._ZN18QSharedDataPointerIN10QtMobility27QContactActionTargetPrivateEE13detach_helperEv 0x00030998   Data           0  qcontactactiontarget.o(.ARM.extab)
    .extab._ZlsIN10QtMobility14QContactDetailEE6QDebugS2_RK5QListIT_E 0x000309b0   Data           0  qcontactactiontarget.o(.ARM.extab)
    .extab._ZN10QtMobility27QContactActionTargetPrivateD1Ev 0x000309c0   Data           0  qcontactactiontarget.o(.ARM.extab)
    .extab._ZN10QtMobility17QContactChangeSetC1Ev 0x000309d0   Data           0  qcontactchangeset.o(.ARM.extab)
    .extab._ZN10QtMobility17QContactChangeSet19insertAddedContactsERK5QListIjE 0x000309e0   Data           0  qcontactchangeset.o(.ARM.extab)
    .extab._ZN10QtMobility17QContactChangeSet21insertChangedContactsERK5QListIjE 0x000309f0   Data           0  qcontactchangeset.o(.ARM.extab)
    .extab._ZN10QtMobility17QContactChangeSet21insertRemovedContactsERK5QListIjE 0x00030a00   Data           0  qcontactchangeset.o(.ARM.extab)
    .extab._ZN10QtMobility17QContactChangeSet32insertAddedRelationshipsContactsERK5QListIjE 0x00030a10   Data           0  qcontactchangeset.o(.ARM.extab)
    .extab._ZN10QtMobility17QContactChangeSet34insertRemovedRelationshipsContactsERK5QListIjE 0x00030a20   Data           0  qcontactchangeset.o(.ARM.extab)
    .extab._ZN10QtMobility17QContactChangeSet11emitSignalsEPNS_21QContactManagerEngineE 0x00030a30   Data           0  qcontactchangeset.o(.ARM.extab)
    .extab._ZN5QListIjE13detach_helperEi     0x00030a60   Data           0  qcontactchangeset.o(.ARM.extab)
    .extab._Z20qForeachContainerNewI5QListIjEE17QForeachContainerIT_ERKS3_ 0x00030a7c   Data           0  qcontactchangeset.o(.ARM.extab)
    .extab._ZN5QListIjE18detach_helper_growEii 0x00030a8c   Data           0  qcontactchangeset.o(.ARM.extab)
    .extab._ZN5QListIjE6appendERKj           0x00030abc   Data           0  qcontactchangeset.o(.ARM.extab)
    .extab._ZN10QtMobility21QContactChangeSetDataD1Ev 0x00030ad8   Data           0  qcontactchangeset.o(.ARM.extab)
    .extab._ZN18QSharedDataPointerIN10QtMobility21QContactChangeSetDataEE13detach_helperEv 0x00030b00   Data           0  qcontactchangeset.o(.ARM.extab)
    .extab._ZN4QSetIjE5clearEv               0x00030b10   Data           0  qcontactchangeset.o(.ARM.extab)
    .extab._ZNK4QSetIjE6toListEv             0x00030b20   Data           0  qcontactchangeset.o(.ARM.extab)
    .extab._ZN10QtMobility21QContactChangeSetDataC1Ev 0x00030b30   Data           0  qcontactchangeset.o(.ARM.extab)
    .extab._ZN10QtMobility21QContactChangeSetDataC1ERKS0_ 0x00030b58   Data           0  qcontactchangeset.o(.ARM.extab)
    .extab._ZN10QtMobility14QContactDetailC1Ev 0x00030b80   Data           0  qcontactdetail.o(.ARM.extab)
    .extab._ZN10QtMobility14QContactDetailC1EPKc 0x00030b90   Data           0  qcontactdetail.o(.ARM.extab)
    .extab._ZN10QtMobility14QContactDetailC1ERK7QString 0x00030ba0   Data           0  qcontactdetail.o(.ARM.extab)
    .extab._ZNK10QtMobility14QContactDetail5valueERK7QString 0x00030bb0   Data           0  qcontactdetail.o(.ARM.extab)
    .extab._ZN10QtMobility14QContactDetail11removeValueERK7QString 0x00030bd0   Data           0  qcontactdetail.o(.ARM.extab)
    .extab._ZN10QtMobility14QContactDetail8setValueERK7QStringRK8QVariant 0x00030be0   Data           0  qcontactdetail.o(.ARM.extab)
    .extab._ZNK10QtMobility14QContactDetail8hasValueERK7QString 0x00030bf0   Data           0  qcontactdetail.o(.ARM.extab)
    .extab._ZNK10QtMobility14QContactDetail13variantValuesEv 0x00030c00   Data           0  qcontactdetail.o(.ARM.extab)
    .extab._ZNK10QtMobility14QContactDetail12variantValueERK7QString 0x00030c20   Data           0  qcontactdetail.o(.ARM.extab)
    .extab._ZNK10QtMobility14QContactDetail5valueEPKc 0x00030c30   Data           0  qcontactdetail.o(.ARM.extab)
    .extab._ZN10QtMobility14QContactDetail11removeValueEPKc 0x00030c50   Data           0  qcontactdetail.o(.ARM.extab)
    .extab._ZN10QtMobility14QContactDetail8setValueEPKcRK8QVariant 0x00030c60   Data           0  qcontactdetail.o(.ARM.extab)
    .extab._ZNK10QtMobility14QContactDetail8hasValueEPKc 0x00030c70   Data           0  qcontactdetail.o(.ARM.extab)
    .extab._ZNK10QtMobility14QContactDetail12variantValueEPKc 0x00030c80   Data           0  qcontactdetail.o(.ARM.extab)
    .extab._ZN10QtMobility14QContactDetailC1ERKS0_RK7QString 0x00030c90   Data           0  qcontactdetail.o(.ARM.extab)
    .extab._ZN10QtMobility14QContactDetail6assignERKS0_RK7QString 0x00030cb0   Data           0  qcontactdetail.o(.ARM.extab)
    .extab._ZN10QtMobility14QContactDetailC1ERKS0_PKc 0x00030cc0   Data           0  qcontactdetail.o(.ARM.extab)
    .extab._ZN10QtMobility14QContactDetail6assignERKS0_PKc 0x00030ce0   Data           0  qcontactdetail.o(.ARM.extab)
    .extab._ZN10QtMobility25qClearAllocatedStringHashEv 0x00030cf0   Data           0  qcontactdetail.o(.ARM.extab)
    .extab._ZN10QtMobility5qHashERKNS_14QContactDetailE 0x00030d08   Data           0  qcontactdetail.o(.ARM.extab)
    .extab._ZN10QtMobilitylsE6QDebugRKNS_14QContactDetailE 0x00030d18   Data           0  qcontactdetail.o(.ARM.extab)
    .extab._ZN10QtMobilitylsER11QDataStreamRKNS_14QContactDetailE 0x00030d40   Data           0  qcontactdetail.o(.ARM.extab)
    .extab._ZN10QtMobilityrsER11QDataStreamRNS_14QContactDetailE 0x00030d60   Data           0  qcontactdetail.o(.ARM.extab)
    .extab.__sti___18_qcontactdetail_cpp     0x00030da8   Data           0  qcontactdetail.o(.ARM.extab)
    .extab._ZN4QMapI7QString8QVariantE11node_createEP8QMapDataPPNS3_4NodeERKS0_RKS1_ 0x00030dc8   Data           0  qcontactdetail.o(.ARM.extab)
    .extab._ZN4QMapI7QString8QVariantE13detach_helperEv 0x00030e14   Data           0  qcontactdetail.o(.ARM.extab)
    .extab._ZN4QMapI7QString8QVariantE5clearEv 0x00030e30   Data           0  qcontactdetail.o(.ARM.extab)
    .extab._ZrsI7QString8QVariantER11QDataStreamS3_R4QMapIT_T0_E 0x00030e40   Data           0  qcontactdetail.o(.ARM.extab)
    .extab._ZN6QDebugD1Ev                    0x00030e60   Data           0  qcontactdetail.o(.ARM.extab)
    .extab._ZN9QHashNodeIN10QtMobility20QContactStringHolderE8QVariantEC1ERKS1_RKS2_ 0x00030e84   Data           0  qcontactdetail.o(.ARM.extab)
    .extab._ZN10QtMobility21QContactDetailPrivateC1Ev 0x00030e94   Data           0  qcontactdetail.o(.ARM.extab)
    .extab._ZN10QtMobility20QContactStringHolderaSERK7QString 0x00030ea4   Data           0  qcontactdetail.o(.ARM.extab)
    .extab._ZNK10QtMobility20QContactStringHolder9toQStringEv 0x00030eb4   Data           0  qcontactdetail.o(.ARM.extab)
    .extab._ZN5QHashIN10QtMobility20QContactStringHolderE8QVariantE6insertERKS1_RKS2_ 0x00030ed4   Data           0  qcontactdetail.o(.ARM.extab)
    .extab._ZN5QHashIN10QtMobility20QContactStringHolderE8QVariantE6removeERKS1_ 0x00030eec   Data           0  qcontactdetail.o(.ARM.extab)
    .extab._ZN5QHashI7QStringPcE13duplicateNodeEPN9QHashData4NodeEPv 0x00030f00   Data           0  qcontactdetail.o(.ARM.extab)
    .extab._ZN5QHashI7QStringPcE6insertERKS0_RKS1_ 0x00030f10   Data           0  qcontactdetail.o(.ARM.extab)
    .extab._ZN5QHashIPKc7QStringE13duplicateNodeEPN9QHashData4NodeEPv 0x00030f28   Data           0  qcontactdetail.o(.ARM.extab)
    .extab._ZN5QHashIPKc7QStringE6insertERKS1_RKS2_ 0x00030f38   Data           0  qcontactdetail.o(.ARM.extab)
    .extab._ZN10QtMobility21QContactDetailPrivateD1Ev 0x00030f50   Data           0  qcontactdetail.o(.ARM.extab)
    .extab._ZN5QHashIN10QtMobility20QContactStringHolderE8QVariantE13duplicateNodeEPN9QHashData4NodeEPv 0x00030f60   Data           0  qcontactdetail.o(.ARM.extab)
    .extab._ZN10QtMobility24QContactDetailDefinitionC1Ev 0x00030f70   Data           0  qcontactdetaildefinition.o(.ARM.extab)
    .extab._ZN10QtMobilitylsER11QDataStreamRKNS_24QContactDetailDefinitionE 0x00030f88   Data           0  qcontactdetaildefinition.o(.ARM.extab)
    .extab._ZN10QtMobilityrsER11QDataStreamRNS_24QContactDetailDefinitionE 0x00030fa8   Data           0  qcontactdetaildefinition.o(.ARM.extab)
    .extab._ZN4QMapI7QStringN10QtMobility29QContactDetailFieldDefinitionEE11node_createEP8QMapDataPPNS4_4NodeERKS0_RKS2_ 0x00030fd0   Data           0  qcontactdetaildefinition.o(.ARM.extab)
    .extab._ZN4QMapI7QStringN10QtMobility29QContactDetailFieldDefinitionEE13detach_helperEv 0x0003101c   Data           0  qcontactdetaildefinition.o(.ARM.extab)
    .extab._ZN4QMapI7QStringN10QtMobility29QContactDetailFieldDefinitionEE5clearEv 0x00031038   Data           0  qcontactdetaildefinition.o(.ARM.extab)
    .extab._ZrsI7QStringN10QtMobility29QContactDetailFieldDefinitionEER11QDataStreamS4_R4QMapIT_T0_E 0x00031048   Data           0  qcontactdetaildefinition.o(.ARM.extab)
    .extab._ZN18QSharedDataPointerIN10QtMobility28QContactDetailDefinitionDataEE13detach_helperEv 0x00031068   Data           0  qcontactdetaildefinition.o(.ARM.extab)
    .extab._ZN10QtMobility28QContactDetailDefinitionDataD1Ev 0x00031080   Data           0  qcontactdetaildefinition.o(.ARM.extab)
    .extab._ZN10QtMobility29QContactDetailFieldDefinitionC1Ev 0x00031090   Data           0  qcontactdetailfielddefinition.o(.ARM.extab)
    .extab._ZN10QtMobilitylsER11QDataStreamRKNS_29QContactDetailFieldDefinitionE 0x000310a0   Data           0  qcontactdetailfielddefinition.o(.ARM.extab)
    .extab._ZN10QtMobilityrsER11QDataStreamRNS_29QContactDetailFieldDefinitionE 0x000310b0   Data           0  qcontactdetailfielddefinition.o(.ARM.extab)
    .extab._ZN5QListI8QVariantE14node_constructEPNS1_4NodeERKS0_ 0x000310d8   Data           0  qcontactdetailfielddefinition.o(.ARM.extab)
    .extab._ZN5QListI8QVariantE9node_copyEPNS1_4NodeES3_S3_ 0x000310e8   Data           0  qcontactdetailfielddefinition.o(.ARM.extab)
    .extab._ZN5QListI8QVariantE18detach_helper_growEii 0x0003110c   Data           0  qcontactdetailfielddefinition.o(.ARM.extab)
    .extab._ZN5QListI8QVariantE6appendERKS0_ 0x0003113c   Data           0  qcontactdetailfielddefinition.o(.ARM.extab)
    .extab._ZN5QListI8QVariantE13detach_helperEi 0x0003116c   Data           0  qcontactdetailfielddefinition.o(.ARM.extab)
    .extab._ZN5QListI8QVariantE5clearEv      0x00031188   Data           0  qcontactdetailfielddefinition.o(.ARM.extab)
    .extab._ZrsI8QVariantER11QDataStreamS2_R5QListIT_E 0x00031198   Data           0  qcontactdetailfielddefinition.o(.ARM.extab)
    .extab._ZN18QSharedDataPointerIN10QtMobility36QContactDetailFieldDefinitionPrivateEE13detach_helperEv 0x000311a8   Data           0  qcontactdetailfielddefinition.o(.ARM.extab)
    .extab._ZN10QtMobility17QContactFetchHintC1Ev 0x000311b8   Data           0  qcontactfetchhint.o(.ARM.extab)
    .extab._ZN10QtMobilitylsER11QDataStreamRKNS_17QContactFetchHintE 0x000311d0   Data           0  qcontactfetchhint.o(.ARM.extab)
    .extab._ZN10QtMobilityrsER11QDataStreamRNS_17QContactFetchHintE 0x000311f0   Data           0  qcontactfetchhint.o(.ARM.extab)
    .extab._ZN5QListI7QStringE5clearEv       0x00031218   Data           0  qcontactfetchhint.o(.ARM.extab)
    .extab._ZrsI7QStringER11QDataStreamS2_R5QListIT_E 0x00031228   Data           0  qcontactfetchhint.o(.ARM.extab)
    .extab._ZN18QSharedDataPointerIN10QtMobility24QContactFetchHintPrivateEE13detach_helperEv 0x00031238   Data           0  qcontactfetchhint.o(.ARM.extab)
    .extab._ZN10QtMobility24QContactFetchHintPrivateD1Ev 0x00031250   Data           0  qcontactfetchhint.o(.ARM.extab)
    .extab._ZN10QtMobilityrsER11QDataStreamRNS_14QContactFilterE 0x00031260   Data           0  qcontactfilter.o(.ARM.extab)
    .extab._ZN10QtMobilityanERKNS_14QContactFilterES2_ 0x000312c0   Data           0  qcontactfilter.o(.ARM.extab)
    .extab._ZN10QtMobilityorERKNS_14QContactFilterES2_ 0x000312d0   Data           0  qcontactfilter.o(.ARM.extab)
    .extab._ZN10QtMobility10QContactIdC1Ev   0x000312f0   Data           0  qcontactid.o(.ARM.extab)
    .extab._ZNK10QtMobility10QContactIdltERKS0_ 0x00031300   Data           0  qcontactid.o(.ARM.extab)
    .extab._ZN10QtMobility5qHashERKNS_10QContactIdE 0x00031320   Data           0  qcontactid.o(.ARM.extab)
    .extab._ZN10QtMobilitylsE6QDebugRKNS_10QContactIdE 0x00031330   Data           0  qcontactid.o(.ARM.extab)
    .extab._ZN10QtMobilitylsER11QDataStreamRKNS_10QContactIdE 0x00031340   Data           0  qcontactid.o(.ARM.extab)
    .extab._ZN10QtMobilityrsER11QDataStreamRNS_10QContactIdE 0x00031350   Data           0  qcontactid.o(.ARM.extab)
    .extab._ZN18QSharedDataPointerIN10QtMobility17QContactIdPrivateEE13detach_helperEv 0x00031368   Data           0  qcontactid.o(.ARM.extab)
    .extab._ZN10QtMobility17qSymbian_CheckDirERK4QDirR3RFs 0x00031378   Data           0  qcontactmanager_p.o(.ARM.extab)
    .extab._ZN10QtMobility21qContactsCleanEnginesEv 0x00031390   Data           0  qcontactmanager_p.o(.ARM.extab)
    .extab._ZN10QtMobility19QContactManagerData19loadStaticFactoriesEv 0x000313d0   Data           0  qcontactmanager_p.o(.ARM.extab)
    .extab._ZN10QtMobility19QContactManagerData13loadFactoriesEv 0x00031420   Data           0  qcontactmanager_p.o(.ARM.extab)
    .extab._ZN10QtMobility14parameterValueERK4QMapI7QStringS1_EPKci 0x00031588   Data           0  qcontactmanager_p.o(.ARM.extab)
    .extab._ZN10QtMobility19QContactManagerData12createEngineERK7QStringRK4QMapIS1_S1_E 0x000315b0   Data           0  qcontactmanager_p.o(.ARM.extab)
    .extab.__sti___21_qcontactmanager_p_cpp  0x00031638   Data           0  qcontactmanager_p.o(.ARM.extab)
    .extab._Z8qWarningv                      0x00031660   Data           0  qcontactmanager_p.o(.ARM.extab)
    .extab._ZN5QListIPN10QtMobility28QContactManagerEngineFactoryEE13detach_helperEi 0x00031678   Data           0  qcontactmanager_p.o(.ARM.extab)
    .extab._Z20qForeachContainerNewI5QListIPN10QtMobility28QContactManagerEngineFactoryEEE17QForeachContainerIT_ERKS6_ 0x00031694   Data           0  qcontactmanager_p.o(.ARM.extab)
    .extab._ZNK5QHashI7QStringPN10QtMobility28QContactManagerEngineFactoryEE4keysEv 0x000316a4   Data           0  qcontactmanager_p.o(.ARM.extab)
    .extab._ZN5QListIPN10QtMobility28QContactManagerEngineFactoryEE18detach_helper_growEii 0x000316b4   Data           0  qcontactmanager_p.o(.ARM.extab)
    .extab._ZN5QListIPN10QtMobility28QContactManagerEngineFactoryEE6appendERKS2_ 0x000316e4   Data           0  qcontactmanager_p.o(.ARM.extab)
    .extab._ZNK5QHashI7QStringPN10QtMobility28QContactManagerEngineFactoryEE6valuesEv 0x00031700   Data           0  qcontactmanager_p.o(.ARM.extab)
    .extab._ZNK5QHashI7QStringPN10QtMobility28QContactManagerEngineFactoryEE6valuesERKS0_ 0x00031710   Data           0  qcontactmanager_p.o(.ARM.extab)
    .extab._ZN5QHashI7QStringPN10QtMobility28QContactManagerEngineFactoryEE11insertMultiERKS0_RKS3_ 0x00031720   Data           0  qcontactmanager_p.o(.ARM.extab)
    .extab._ZN5QListIPN10QtMobility27QContactActionManagerPluginEE13detach_helperEi 0x00031738   Data           0  qcontactmanager_p.o(.ARM.extab)
    .extab._ZN5QListIPN10QtMobility27QContactActionManagerPluginEE5clearEv 0x00031754   Data           0  qcontactmanager_p.o(.ARM.extab)
    .extab._ZN5QListIPN10QtMobility27QContactActionManagerPluginEE18detach_helper_growEii 0x00031764   Data           0  qcontactmanager_p.o(.ARM.extab)
    .extab._ZN5QListIPN10QtMobility27QContactActionManagerPluginEE6appendERKS2_ 0x00031794   Data           0  qcontactmanager_p.o(.ARM.extab)
    .extab._ZN10QtMobility15mobilityPluginsERK7QString 0x000317b0   Data           0  qcontactmanager_p.o(.ARM.extab)
    .extab._ZN5QHashI7QStringPN10QtMobility28QContactManagerEngineFactoryEE13duplicateNodeEPN9QHashData4NodeEPv 0x000318c8   Data           0  qcontactmanager_p.o(.ARM.extab)
    .extab._ZN10QtMobility15QContactManagerC1ERK7QStringRK4QMapIS1_S1_EP7QObject 0x000318d8   Data           0  qcontactmanager.o(.ARM.extab)
    .extab._ZN10QtMobility15QContactManagerC1ERK7QStringiRK4QMapIS1_S1_EP7QObject 0x000318f8   Data           0  qcontactmanager.o(.ARM.extab)
    .extab._ZN10QtMobility15QContactManagerC1EP7QObject 0x00031950   Data           0  qcontactmanager.o(.ARM.extab)
    .extab._ZN10QtMobility15QContactManager8parseUriERK7QStringPS1_P4QMapIS1_S1_E 0x00031990   Data           0  qcontactmanager.o(.ARM.extab)
    .extab._ZN10QtMobility15QContactManager7fromUriERK7QStringP7QObject 0x00031b58   Data           0  qcontactmanager.o(.ARM.extab)
    .extab._ZN10QtMobility15QContactManagerD1Ev 0x00031be0   Data           0  qcontactmanager.o(.ARM.extab)
    .extab._ZNK10QtMobility15QContactManager17managerParametersEv 0x00031bf8   Data           0  qcontactmanager.o(.ARM.extab)
    .extab._ZN10QtMobility15QContactManager8buildUriERK7QStringRK4QMapIS1_S1_Ei 0x00031c28   Data           0  qcontactmanager.o(.ARM.extab)
    .extab._ZNK10QtMobility15QContactManager10contactIdsERK5QListINS_17QContactSortOrderEE 0x00031cf8   Data           0  qcontactmanager.o(.ARM.extab)
    .extab._ZNK10QtMobility15QContactManager8contactsERK5QListINS_17QContactSortOrderEERKNS_17QContactFetchHintE 0x00031d08   Data           0  qcontactmanager.o(.ARM.extab)
    .extab._ZNK10QtMobility15QContactManager8contactsERK5QListIjERKNS_17QContactFetchHintEP4QMapIiNS0_5ErrorEE 0x00031d18   Data           0  qcontactmanager.o(.ARM.extab)
    .extab._ZNK10QtMobility15QContactManager29synthesizeContactDisplayLabelEPNS_8QContactE 0x00031d28   Data           0  qcontactmanager.o(.ARM.extab)
    .extab._ZNK10QtMobility15QContactManager13relationshipsERKNS_10QContactIdENS_20QContactRelationship4RoleE 0x00031d38   Data           0  qcontactmanager.o(.ARM.extab)
    .extab._ZNK10QtMobility15QContactManager17detailDefinitionsERK7QString 0x00031d48   Data           0  qcontactmanager.o(.ARM.extab)
    .extab._ZNK10QtMobility15QContactManager16detailDefinitionERK7QStringS3_ 0x00031d58   Data           0  qcontactmanager.o(.ARM.extab)
    .extab._ZN10QtMobility15QContactManager20saveDetailDefinitionERKNS_24QContactDetailDefinitionERK7QString 0x00031d68   Data           0  qcontactmanager.o(.ARM.extab)
    .extab._ZN10QtMobility15QContactManager22removeDetailDefinitionERK7QStringS3_ 0x00031d78   Data           0  qcontactmanager.o(.ARM.extab)
    .extab._ZN10QtMobility15QContactManager17availableManagersEv 0x00031d88   Data           0  qcontactmanager.o(.ARM.extab)
    .extab._ZplRK7QStringS1_                 0x00031e20   Data           0  qcontactmanager.o(.ARM.extab)
    .extab._ZplRK7QString5QChar              0x00031e30   Data           0  qcontactmanager.o(.ARM.extab)
    .extab._ZN5QListI7QStringEpLERKS1_       0x00031e40   Data           0  qcontactmanager.o(.ARM.extab)
    .extab._ZN5QListI7QStringE9removeAllERKS0_ 0x00031e5c   Data           0  qcontactmanager.o(.ARM.extab)
    .extab._ZN4QMapI7QStringS0_E11node_createEP8QMapDataPPNS2_4NodeERKS0_S8_ 0x00031e6c   Data           0  qcontactmanager.o(.ARM.extab)
    .extab._ZN4QMapI7QStringS0_E13detach_helperEv 0x00031eb8   Data           0  qcontactmanager.o(.ARM.extab)
    .extab._ZNK4QMapI7QStringS0_E4keysEv     0x00031ed4   Data           0  qcontactmanager.o(.ARM.extab)
    .extab._ZN5QHashIPN10QtMobility15QContactManagerE15QHashDummyValueE6removeERKS2_ 0x00031ee4   Data           0  qcontactmanager.o(.ARM.extab)
    .extab._ZN4QMapIiN10QtMobility15QContactManager5ErrorEE5clearEv 0x00031ef8   Data           0  qcontactmanager.o(.ARM.extab)
    .extab._ZN10QtMobility14compareStringsERK7QStringS2_N2Qt15CaseSensitivityE 0x00031f08   Data           0  qcontactmanagerengine.o(.ARM.extab)
    .extab._ZN10QtMobility21QContactManagerEngine14compareVariantERK8QVariantS3_N2Qt15CaseSensitivityE 0x00031f28   Data           0  qcontactmanagerengine.o(.ARM.extab)
    .extab._ZN10QtMobility21QContactManagerEngine14compareContactERKNS_8QContactES3_RK5QListINS_17QContactSortOrderEE 0x00031f60   Data           0  qcontactmanagerengine.o(.ARM.extab)
    .extab._ZNK10QtMobility21QContactManagerEngine10managerUriEv 0x00032070   Data           0  qcontactmanagerengine.o(.ARM.extab)
    .extab._ZN10QtMobility21QContactManagerEngine11saveContactEPNS_8QContactEPNS_15QContactManager5ErrorE 0x00032090   Data           0  qcontactmanagerengine.o(.ARM.extab)
    .extab._ZN10QtMobility21QContactManagerEngine13removeContactERKjPNS_15QContactManager5ErrorE 0x000320c0   Data           0  qcontactmanagerengine.o(.ARM.extab)
    .extab._ZN10QtMobility21QContactManagerEngine16saveRelationshipEPNS_20QContactRelationshipEPNS_15QContactManager5ErrorE 0x000320e0   Data           0  qcontactmanagerengine.o(.ARM.extab)
    .extab._ZN10QtMobility21QContactManagerEngine18removeRelationshipERKNS_20QContactRelationshipEPNS_15QContactManager5ErrorE 0x00032110   Data           0  qcontactmanagerengine.o(.ARM.extab)
    .extab._ZNK10QtMobility21QContactManagerEngine17compatibleContactERKNS_8QContactEPNS_15QContactManager5ErrorE 0x00032130   Data           0  qcontactmanagerengine.o(.ARM.extab)
    .extab._ZNK10QtMobility21QContactManagerEngine23synthesizedDisplayLabelERKNS_8QContactEPNS_15QContactManager5ErrorE 0x00032310   Data           0  qcontactmanagerengine.o(.ARM.extab)
    .extab._ZNK10QtMobility21QContactManagerEngine15validateContactERKNS_8QContactEPNS_15QContactManager5ErrorE 0x000324a0   Data           0  qcontactmanagerengine.o(.ARM.extab)
    .extab._ZNK10QtMobility21QContactManagerEngine18validateDefinitionERKNS_24QContactDetailDefinitionEPNS_15QContactManager5ErrorE 0x000326c8   Data           0  qcontactmanagerengine.o(.ARM.extab)
    .extab._ZNK10QtMobility21QContactManagerEngine16detailDefinitionERK7QStringS3_PNS_15QContactManager5ErrorE 0x00032750   Data           0  qcontactmanagerengine.o(.ARM.extab)
    .extab._ZNK10QtMobility21QContactManagerEngine21supportedContactTypesEv 0x00032768   Data           0  qcontactmanagerengine.o(.ARM.extab)
    .extab._ZN10QtMobility21QContactManagerEngine17schemaDefinitionsEi 0x000327e8   Data           0  qcontactmanagerengine.o(.ARM.extab)
    .extab._ZN10QtMobility21QContactManagerEngine18updateRequestStateEPNS_23QContactAbstractRequestENS1_5StateE 0x00033b58   Data           0  qcontactmanagerengine.o(.ARM.extab)
    .extab._ZN10QtMobility21QContactManagerEngine32updateContactLocalIdFetchRequestEPNS_27QContactLocalIdFetchRequestERK5QListIjENS_15QContactManager5ErrorENS_23QContactAbstractRequest5StateE 0x00033b68   Data           0  qcontactmanagerengine.o(.ARM.extab)
    .extab._ZN10QtMobility21QContactManagerEngine25updateContactFetchRequestEPNS_20QContactFetchRequestERK5QListINS_8QContactEENS_15QContactManager5ErrorENS_23QContactAbstractRequest5StateE 0x00033b88   Data           0  qcontactmanagerengine.o(.ARM.extab)
    .extab._ZN10QtMobility21QContactManagerEngine26updateContactRemoveRequestEPNS_21QContactRemoveRequestENS_15QContactManager5ErrorERK4QMapIiS4_ENS_23QContactAbstractRequest5StateE 0x00033ba8   Data           0  qcontactmanagerengine.o(.ARM.extab)
    .extab._ZN10QtMobility21QContactManagerEngine24updateContactSaveRequestEPNS_19QContactSaveRequestERK5QListINS_8QContactEENS_15QContactManager5ErrorERK4QMapIiS9_ENS_23QContactAbstractRequest5StateE 0x00033bc8   Data           0  qcontactmanagerengine.o(.ARM.extab)
    .extab._ZN10QtMobility21QContactManagerEngine27updateDefinitionSaveRequestEPNS_35QContactDetailDefinitionSaveRequestERK5QListINS_24QContactDetailDefinitionEENS_15QContactManager5ErrorERK4QMapIiS9_ENS_23QContactAbstractRequest5StateE 0x00033be8   Data           0  qcontactmanagerengine.o(.ARM.extab)
    .extab._ZN10QtMobility21QContactManagerEngine29updateDefinitionRemoveRequestEPNS_37QContactDetailDefinitionRemoveRequestENS_15QContactManager5ErrorERK4QMapIiS4_ENS_23QContactAbstractRequest5StateE 0x00033c08   Data           0  qcontactmanagerengine.o(.ARM.extab)
    .extab._ZN10QtMobility21QContactManagerEngine28updateDefinitionFetchRequestEPNS_36QContactDetailDefinitionFetchRequestERK4QMapI7QStringNS_24QContactDetailDefinitionEENS_15QContactManager5ErrorERKS3_IiSA_ENS_23QContactAbstractRequest5StateE 0x00033c28   Data           0  qcontactmanagerengine.o(.ARM.extab)
    .extab._ZN10QtMobility21QContactManagerEngine29updateRelationshipSaveRequestEPNS_31QContactRelationshipSaveRequestERK5QListINS_20QContactRelationshipEENS_15QContactManager5ErrorERK4QMapIiS9_ENS_23QContactAbstractRequest5StateE 0x00033c48   Data           0  qcontactmanagerengine.o(.ARM.extab)
    .extab._ZN10QtMobility21QContactManagerEngine31updateRelationshipRemoveRequestEPNS_33QContactRelationshipRemoveRequestENS_15QContactManager5ErrorERK4QMapIiS4_ENS_23QContactAbstractRequest5StateE 0x00033c68   Data           0  qcontactmanagerengine.o(.ARM.extab)
    .extab._ZN10QtMobility21QContactManagerEngine30updateRelationshipFetchRequestEPNS_32QContactRelationshipFetchRequestERK5QListINS_20QContactRelationshipEENS_15QContactManager5ErrorENS_23QContactAbstractRequest5StateE 0x00033c88   Data           0  qcontactmanagerengine.o(.ARM.extab)
    .extab._ZN10QtMobility21QContactManagerEngine22setContactDisplayLabelEPNS_8QContactERK7QString 0x00033ca8   Data           0  qcontactmanagerengine.o(.ARM.extab)
    .extab._ZN10QtMobility21QContactManagerEngine9addSortedEP5QListINS_8QContactEERKS2_RKS1_INS_17QContactSortOrderEE 0x00033cc8   Data           0  qcontactmanagerengine.o(.ARM.extab)
    .extab._ZN10QtMobility20validateActionFilterERKNS_14QContactFilterE 0x00033ce4   Data           0  qcontactmanagerengine.o(.ARM.extab)
    .extab._ZN10QtMobility21QContactManagerEngine10testFilterERKNS_14QContactFilterERKNS_8QContactE 0x00033d5c   Data           0  qcontactmanagerengine.o(.ARM.extab)
    .extab._ZN10QtMobility21QContactManagerEngine12sortContactsERK5QListINS_8QContactEERKS1_INS_17QContactSortOrderEE 0x00034afc   Data           0  qcontactmanagerengine.o(.ARM.extab)
    .extab._ZN10QtMobility21QContactManagerEngine19canonicalizedFilterERKNS_14QContactFilterE 0x00034b34   Data           0  qcontactmanagerengine.o(.ARM.extab)
    .extab._ZN10QtMobility23QContactManagerEngineV212saveContactsEP5QListINS_8QContactEERK11QStringListP4QMapIiNS_15QContactManager5ErrorEEPSA_ 0x00034dfc   Data           0  qcontactmanagerengine.o(.ARM.extab)
    .extab._ZNK10QtMobility23QContactManagerEngineV28contactsERK5QListIjERKNS_17QContactFetchHintEP4QMapIiNS_15QContactManager5ErrorEEPSA_ 0x00034f6c   Data           0  qcontactmanagerengine.o(.ARM.extab)
    .extab._ZN10QtMobility23QContactManagerEngineV229updateContactFetchByIdRequestEPNS_24QContactFetchByIdRequestERK5QListINS_8QContactEENS_15QContactManager5ErrorERK4QMapIiS9_ENS_23QContactAbstractRequest5StateE 0x00034fdc   Data           0  qcontactmanagerengine.o(.ARM.extab)
    .extab._ZN5QListIN10QtMobility17QContactSortOrderEE9node_copyEPNS2_4NodeES4_S4_ 0x00034ffc   Data           0  qcontactmanagerengine.o(.ARM.extab)
    .extab._ZN5QListIN10QtMobility17QContactSortOrderEE13detach_helperEi 0x00035020   Data           0  qcontactmanagerengine.o(.ARM.extab)
    .extab._Z5qSwapIN10QtMobility8QContactEEvRT_S3_ 0x0003503c   Data           0  qcontactmanagerengine.o(.ARM.extab)
    .extab._ZN5QListIN10QtMobility8QContactEE9node_copyEPNS2_4NodeES4_S4_ 0x0003504c   Data           0  qcontactmanagerengine.o(.ARM.extab)
    .extab._ZN5QListIN10QtMobility8QContactEE13detach_helperEi 0x00035070   Data           0  qcontactmanagerengine.o(.ARM.extab)
    .extab._ZNK5QListI7QStringE5toSetEv      0x0003508c   Data           0  qcontactmanagerengine.o(.ARM.extab)
    .extab._ZN5QListIN10QtMobility17QContactSortOrderEE14node_constructEPNS2_4NodeERKS1_ 0x0003509c   Data           0  qcontactmanagerengine.o(.ARM.extab)
    .extab._ZN5QListIN10QtMobility17QContactSortOrderEE18detach_helper_growEii 0x000350ac   Data           0  qcontactmanagerengine.o(.ARM.extab)
    .extab._ZN5QListIN10QtMobility17QContactSortOrderEE6appendERKS1_ 0x000350dc   Data           0  qcontactmanagerengine.o(.ARM.extab)
    .extab._ZN5QListIN10QtMobility14QContactFilterEE9node_copyEPNS2_4NodeES4_S4_ 0x0003510c   Data           0  qcontactmanagerengine.o(.ARM.extab)
    .extab._ZN5QListIN10QtMobility14QContactFilterEE13detach_helperEi 0x00035130   Data           0  qcontactmanagerengine.o(.ARM.extab)
    .extab._ZN5QListIN10QtMobility14QContactFilterEE14node_constructEPNS2_4NodeERKS1_ 0x0003514c   Data           0  qcontactmanagerengine.o(.ARM.extab)
    .extab._ZN5QListIN10QtMobility14QContactFilterEE18detach_helper_growEii 0x0003515c   Data           0  qcontactmanagerengine.o(.ARM.extab)
    .extab._ZN5QListIN10QtMobility14QContactFilterEE6appendERKS1_ 0x0003518c   Data           0  qcontactmanagerengine.o(.ARM.extab)
    .extab._ZN5QListIN10QtMobility14QContactFilterEEpLERKS2_ 0x000351bc   Data           0  qcontactmanagerengine.o(.ARM.extab)
    .extab._ZN4QMapI7QStringN10QtMobility24QContactDetailDefinitionEE11node_createEP8QMapDataPPNS4_4NodeERKS0_RKS2_ 0x000351d8   Data           0  qcontactmanagerengine.o(.ARM.extab)
    .extab._ZN4QMapI7QStringN10QtMobility24QContactDetailDefinitionEE13detach_helperEv 0x00035224   Data           0  qcontactmanagerengine.o(.ARM.extab)
    .extab._ZN4QMapI7QStringS_IS0_N10QtMobility24QContactDetailDefinitionEEE13detach_helperEv 0x00035240   Data           0  qcontactmanagerengine.o(.ARM.extab)
    .extab._ZN5QHashIjiE10createNodeEjRKjRKiPP9QHashNodeIjiE 0x0003525c   Data           0  qcontactmanagerengine.o(.ARM.extab)
    .extab._ZNK10QtMobility14QContactDetail5valueI9QDateTimeEET_PKc 0x0003526c   Data           0  qcontactmanagerengine.o(.ARM.extab)
    .extab._ZN4QMapIiN10QtMobility15QContactManager5ErrorEE13detach_helperEv 0x00035284   Data           0  qcontactmanagerengine.o(.ARM.extab)
    .extab._ZN5QListIN10QtMobility8QContactEE14node_constructEPNS2_4NodeERKS1_ 0x000352a0   Data           0  qcontactmanagerengine.o(.ARM.extab)
    .extab._ZN5QListIN10QtMobility8QContactEE18detach_helper_growEii 0x000352b0   Data           0  qcontactmanagerengine.o(.ARM.extab)
    .extab._ZN5QListIN10QtMobility8QContactEE6appendERKS1_ 0x000352e0   Data           0  qcontactmanagerengine.o(.ARM.extab)
    .extab._ZN10QtMobility26QContactSaveRequestPrivateD1Ev 0x00035310   Data           0  qcontactmanagerengine.o(.ARM.extab)
    .extab._ZN10QtMobility27QContactFetchRequestPrivateD1Ev 0x00035330   Data           0  qcontactmanagerengine.o(.ARM.extab)
    .extab._ZN10QtMobility31QContactFetchByIdRequestPrivateD1Ev 0x00035358   Data           0  qcontactmanagerengine.o(.ARM.extab)
    .extab._ZN10QtMobility28QContactRemoveRequestPrivateD1Ev 0x00035380   Data           0  qcontactmanagerengine.o(.ARM.extab)
    .extab._ZN10QtMobility34QContactLocalIdFetchRequestPrivateD1Ev 0x00035398   Data           0  qcontactmanagerengine.o(.ARM.extab)
    .extab._ZN10QtMobility43QContactDetailDefinitionFetchRequestPrivateD1Ev 0x000353b8   Data           0  qcontactmanagerengine.o(.ARM.extab)
    .extab._ZN10QtMobility42QContactDetailDefinitionSaveRequestPrivateD1Ev 0x000353e0   Data           0  qcontactmanagerengine.o(.ARM.extab)
    .extab._ZN10QtMobility44QContactDetailDefinitionRemoveRequestPrivateD1Ev 0x00035400   Data           0  qcontactmanagerengine.o(.ARM.extab)
    .extab._ZN10QtMobility39QContactRelationshipFetchRequestPrivateD1Ev 0x00035420   Data           0  qcontactmanagerengine.o(.ARM.extab)
    .extab._ZN10QtMobility38QContactRelationshipSaveRequestPrivateD1Ev 0x00035448   Data           0  qcontactmanagerengine.o(.ARM.extab)
    .extab._ZN10QtMobility40QContactRelationshipRemoveRequestPrivateD1Ev 0x00035460   Data           0  qcontactmanagerengine.o(.ARM.extab)
    .extab._ZN5QHashI7QString15QHashDummyValueE6insertERKS0_RKS1_ 0x00035478   Data           0  qcontactmanagerengine.o(.ARM.extab)
    .extab._ZN5QHashIiiE6insertERKiS2_       0x00035488   Data           0  qcontactmanagerengine.o(.ARM.extab)
    .extab._ZN10QtMobility30QContactManagerEngineV2WrapperC1EPNS_21QContactManagerEngineE 0x00035498   Data           0  qcontactmanagerenginev2wrapper_p.o(.ARM.extab)
    .extab._ZN10QtMobility30QContactManagerEngineV2WrapperD1Ev 0x000354b0   Data           0  qcontactmanagerenginev2wrapper_p.o(.ARM.extab)
    .extab._ZN10QtMobility30QContactManagerEngineV2Wrapper12startRequestEPNS_23QContactAbstractRequestE 0x000354c8   Data           0  qcontactmanagerenginev2wrapper_p.o(.ARM.extab)
    .extab._ZN10QtMobility26FetchByIdRequestController5startEv 0x00035500   Data           0  qcontactmanagerenginev2wrapper_p.o(.ARM.extab)
    .extab._ZN10QtMobility26FetchByIdRequestController24handleFinishedSubRequestEPNS_23QContactAbstractRequestE 0x00035538   Data           0  qcontactmanagerenginev2wrapper_p.o(.ARM.extab)
    .extab._ZN10QtMobility28PartialSaveRequestController5startEv 0x000355a8   Data           0  qcontactmanagerenginev2wrapper_p.o(.ARM.extab)
    .extab._ZN10QtMobility28PartialSaveRequestController24handleFinishedSubRequestEPNS_23QContactAbstractRequestE 0x00035648   Data           0  qcontactmanagerenginev2wrapper_p.o(.ARM.extab)
    .extab._ZN5QHashIPN10QtMobility23QContactAbstractRequestEPNS0_17RequestControllerEE6insertERKS2_RKS4_ 0x000357d0   Data           0  qcontactmanagerenginev2wrapper_p.o(.ARM.extab)
    .extab._ZN10QtMobility17RequestControllerC2Ev 0x000357e0   Data           0  qcontactmanagerenginev2wrapper_p.o(.ARM.extab)
    .extab._ZN10QtMobility20QContactRelationshipC1Ev 0x000357f0   Data           0  qcontactrelationship.o(.ARM.extab)
    .extab._ZN10QtMobility5qHashERKNS_20QContactRelationshipE 0x00035810   Data           0  qcontactrelationship.o(.ARM.extab)
    .extab._ZN10QtMobilitylsE6QDebugRKNS_20QContactRelationshipE 0x00035840   Data           0  qcontactrelationship.o(.ARM.extab)
    .extab._ZN10QtMobilitylsER11QDataStreamRKNS_20QContactRelationshipE 0x000358b8   Data           0  qcontactrelationship.o(.ARM.extab)
    .extab._ZN10QtMobilityrsER11QDataStreamRNS_20QContactRelationshipE 0x000358e8   Data           0  qcontactrelationship.o(.ARM.extab)
    .extab._ZN10QtMobility27QContactRelationshipPrivateD1Ev 0x00035920   Data           0  qcontactrelationship.o(.ARM.extab)
    .extab._ZN18QSharedDataPointerIN10QtMobility27QContactRelationshipPrivateEE13detach_helperEv 0x00035938   Data           0  qcontactrelationship.o(.ARM.extab)
    .extab._ZN10QtMobility17QContactSortOrderC1Ev 0x00035958   Data           0  qcontactsortorder.o(.ARM.extab)
    .extab._ZN10QtMobilitylsER11QDataStreamRKNS_17QContactSortOrderE 0x00035970   Data           0  qcontactsortorder.o(.ARM.extab)
    .extab._ZN10QtMobilityrsER11QDataStreamRNS_17QContactSortOrderE 0x00035990   Data           0  qcontactsortorder.o(.ARM.extab)
    .extab._ZN7QString5clearEv               0x000359b8   Data           0  qcontactsortorder.o(.ARM.extab)
    .extab._ZN18QSharedDataPointerIN10QtMobility24QContactSortOrderPrivateEE13detach_helperEv 0x000359c8   Data           0  qcontactsortorder.o(.ARM.extab)
    .extab._ZN10QtMobility24QContactSortOrderPrivateD1Ev 0x000359e0   Data           0  qcontactsortorder.o(.ARM.extab)
    .extab._ZN10QtMobility20QContactDisplayLabel5matchERK7QString 0x000359f0   Data           0  qcontactdetails.o(.ARM.extab)
    .extab._ZN10QtMobility20QContactEmailAddress5matchERK7QString 0x00035a30   Data           0  qcontactdetails.o(.ARM.extab)
    .extab._ZN10QtMobility12QContactName5matchERK7QString 0x00035a70   Data           0  qcontactdetails.o(.ARM.extab)
    .extab._ZN10QtMobility12QContactName5matchERK7QStringS3_ 0x00035b38   Data           0  qcontactdetails.o(.ARM.extab)
    .extab._ZN10QtMobility19QContactPhoneNumber5matchERK7QString 0x00035c50   Data           0  qcontactdetails.o(.ARM.extab)
    .extab._ZN10QtMobility20QContactMemoryEngineC1EPNS_24QContactMemoryEngineDataE 0x00035c90   Data           0  qcontactmemorybackend.o(.ARM.extab)
    .extab._ZN10QtMobility20QContactMemoryEngine18createMemoryEngineERK4QMapI7QStringS2_E 0x00035ca0   Data           0  qcontactmemorybackend.o(.ARM.extab)
    .extab._ZN10QtMobility20QContactMemoryEngineD1Ev 0x00035ce0   Data           0  qcontactmemorybackend.o(.ARM.extab)
    .extab._ZNK10QtMobility20QContactMemoryEngine17managerParametersEv 0x00035cf0   Data           0  qcontactmemorybackend.o(.ARM.extab)
    .extab._ZNK10QtMobility20QContactMemoryEngine10contactIdsERKNS_14QContactFilterERK5QListINS_17QContactSortOrderEEPNS_15QContactManager5ErrorE 0x00035d10   Data           0  qcontactmemorybackend.o(.ARM.extab)
    .extab._ZNK10QtMobility20QContactMemoryEngine8contactsERKNS_14QContactFilterERK5QListINS_17QContactSortOrderEERKNS_17QContactFetchHintEPNS_15QContactManager5ErrorE 0x00035d48   Data           0  qcontactmemorybackend.o(.ARM.extab)
    .extab._ZN10QtMobility20QContactMemoryEngine12saveContactsEP5QListINS_8QContactEEP4QMapIiNS_15QContactManager5ErrorEEPS7_ 0x00035d78   Data           0  qcontactmemorybackend.o(.ARM.extab)
    .extab._ZN10QtMobility20QContactMemoryEngine14removeContactsERK5QListIjEP4QMapIiNS_15QContactManager5ErrorEEPS7_ 0x00035d98   Data           0  qcontactmemorybackend.o(.ARM.extab)
    .extab._ZN10QtMobility20QContactMemoryEngine16setSelfContactIdERKjPNS_15QContactManager5ErrorE 0x00035da8   Data           0  qcontactmemorybackend.o(.ARM.extab)
    .extab._ZNK10QtMobility20QContactMemoryEngine13relationshipsERK7QStringRKNS_10QContactIdENS_20QContactRelationship4RoleEPNS_15QContactManager5ErrorE 0x00035db8   Data           0  qcontactmemorybackend.o(.ARM.extab)
    .extab._ZN10QtMobility20QContactMemoryEngine17saveRelationshipsEP5QListINS_20QContactRelationshipEEP4QMapIiNS_15QContactManager5ErrorEEPS7_ 0x00035e50   Data           0  qcontactmemorybackend.o(.ARM.extab)
    .extab._ZN10QtMobility20QContactMemoryEngine19removeRelationshipsERK5QListINS_20QContactRelationshipEEP4QMapIiNS_15QContactManager5ErrorEEPS8_ 0x00035e70   Data           0  qcontactmemorybackend.o(.ARM.extab)
    .extab._ZNK10QtMobility20QContactMemoryEngine17detailDefinitionsERK7QStringPNS_15QContactManager5ErrorE 0x00035e80   Data           0  qcontactmemorybackend.o(.ARM.extab)
    .extab._ZN10QtMobility20QContactMemoryEngine20saveDetailDefinitionERKNS_24QContactDetailDefinitionERK7QStringPNS_15QContactManager5ErrorE 0x00035e90   Data           0  qcontactmemorybackend.o(.ARM.extab)
    .extab._ZN10QtMobility20QContactMemoryEngine22removeDetailDefinitionERK7QStringS3_PNS_15QContactManager5ErrorE 0x00035ea0   Data           0  qcontactmemorybackend.o(.ARM.extab)
    .extab._ZN10QtMobility20QContactMemoryEngine28performAsynchronousOperationEPNS_23QContactAbstractRequestE 0x00035eb0   Data           0  qcontactmemorybackend.o(.ARM.extab)
    .extab._ZN10QtMobility20QContactMemoryEngine12startRequestEPNS_23QContactAbstractRequestE 0x00036210   Data           0  qcontactmemorybackend.o(.ARM.extab)
    .extab._ZNK10QtMobility20QContactMemoryEngine10hasFeatureENS_15QContactManager14ManagerFeatureERK7QString 0x00036220   Data           0  qcontactmemorybackend.o(.ARM.extab)
    .extab._ZNK10QtMobility20QContactMemoryEngine18supportedDataTypesEv 0x00036230   Data           0  qcontactmemorybackend.o(.ARM.extab)
    .extab._ZN10QtMobility20QContactMemoryEngine11saveContactEPNS_8QContactERNS_17QContactChangeSetEPNS_15QContactManager5ErrorE 0x00036240   Data           0  qcontactmemorybackend.o(.ARM.extab)
    .extab._ZN10QtMobility20QContactMemoryEngine13removeContactERKjRNS_17QContactChangeSetEPNS_15QContactManager5ErrorE 0x000363c8   Data           0  qcontactmemorybackend.o(.ARM.extab)
    .extab._ZN10QtMobility20QContactMemoryEngine20saveDetailDefinitionERKNS_24QContactDetailDefinitionERK7QStringRNS_17QContactChangeSetEPNS_15QContactManager5ErrorE 0x00036408   Data           0  qcontactmemorybackend.o(.ARM.extab)
    .extab._ZN10QtMobility20QContactMemoryEngine22removeDetailDefinitionERK7QStringS3_RNS_17QContactChangeSetEPNS_15QContactManager5ErrorE 0x00036428   Data           0  qcontactmemorybackend.o(.ARM.extab)
    .extab._ZN10QtMobility20QContactMemoryEngine16saveRelationshipEPNS_20QContactRelationshipERNS_17QContactChangeSetEPNS_15QContactManager5ErrorE 0x00036438   Data           0  qcontactmemorybackend.o(.ARM.extab)
    .extab._ZN10QtMobility20QContactMemoryEngine18removeRelationshipERKNS_20QContactRelationshipERNS_17QContactChangeSetEPNS_15QContactManager5ErrorE 0x000365b8   Data           0  qcontactmemorybackend.o(.ARM.extab)
    .extab.__sti___25_qcontactmemorybackend_cpp 0x00036680   Data           0  qcontactmemorybackend.o(.ARM.extab)
    .extab._ZN5QListIPN10QtMobility21QContactManagerEngineEE13detach_helperEi 0x00036690   Data           0  qcontactmemorybackend.o(.ARM.extab)
    .extab._Z20qForeachContainerNewI5QListIN10QtMobility8QContactEEE17QForeachContainerIT_ERKS5_ 0x000366ac   Data           0  qcontactmemorybackend.o(.ARM.extab)
    .extab._ZN4QMapI7QStringPN10QtMobility24QContactMemoryEngineDataEE11node_createEP8QMapDataPPNS5_4NodeERKS0_RKS3_ 0x000366bc   Data           0  qcontactmemorybackend.o(.ARM.extab)
    .extab._ZN4QMapI7QStringPN10QtMobility24QContactMemoryEngineDataEE13detach_helperEv 0x000366e0   Data           0  qcontactmemorybackend.o(.ARM.extab)
    .extab._ZNK4QMapI7QStringN10QtMobility24QContactDetailDefinitionEE4keysEv 0x000366fc   Data           0  qcontactmemorybackend.o(.ARM.extab)
    .extab._ZN5QListIN10QtMobility24QContactDetailDefinitionEE14node_constructEPNS2_4NodeERKS1_ 0x0003670c   Data           0  qcontactmemorybackend.o(.ARM.extab)
    .extab._ZN5QListIN10QtMobility24QContactDetailDefinitionEE9node_copyEPNS2_4NodeES4_S4_ 0x0003671c   Data           0  qcontactmemorybackend.o(.ARM.extab)
    .extab._ZN5QListIN10QtMobility24QContactDetailDefinitionEE18detach_helper_growEii 0x00036740   Data           0  qcontactmemorybackend.o(.ARM.extab)
    .extab._ZN5QListIN10QtMobility24QContactDetailDefinitionEE6appendERKS1_ 0x00036770   Data           0  qcontactmemorybackend.o(.ARM.extab)
    .extab._ZN5QListIN8QVariant4TypeEE9node_copyEPNS2_4NodeES4_S4_ 0x000367a0   Data           0  qcontactmemorybackend.o(.ARM.extab)
    .extab._ZN5QListIN8QVariant4TypeEE18detach_helper_growEii 0x000367bc   Data           0  qcontactmemorybackend.o(.ARM.extab)
    .extab._ZN5QListIN8QVariant4TypeEE6appendERKS1_ 0x000367ec   Data           0  qcontactmemorybackend.o(.ARM.extab)
    .extab._ZN10QtMobility17QContactTimestamp15setLastModifiedERK9QDateTime 0x0003681c   Data           0  qcontactmemorybackend.o(.ARM.extab)
    .extab._ZN10QtMobility24QContactMemoryEngineData17emitSharedSignalsEPNS_17QContactChangeSetE 0x0003682c   Data           0  qcontactmemorybackend.o(.ARM.extab)
    .extab._ZN4QMapIj5QListIN10QtMobility20QContactRelationshipEEE11node_createEP8QMapDataPPNS5_4NodeERKjRKS3_ 0x00036844   Data           0  qcontactmemorybackend.o(.ARM.extab)
    .extab._ZN4QMapIj5QListIN10QtMobility20QContactRelationshipEEE13detach_helperEv 0x0003687c   Data           0  qcontactmemorybackend.o(.ARM.extab)
    .extab._ZN4QMapI7QStringS_IS0_N10QtMobility24QContactDetailDefinitionEEE11node_createEP8QMapDataPPNS5_4NodeERKS0_RKS3_ 0x00036898   Data           0  qcontactmemorybackend.o(.ARM.extab)
    .extab._ZN5QListIPN10QtMobility21QContactManagerEngineEE18detach_helper_growEii 0x000368e4   Data           0  qcontactmemorybackend.o(.ARM.extab)
    .extab._ZN5QListIPN10QtMobility21QContactManagerEngineEE6appendERKS2_ 0x00036914   Data           0  qcontactmemorybackend.o(.ARM.extab)
    .extab._ZN10QtMobility24QContactMemoryEngineDataC1Ev 0x00036930   Data           0  qcontactmemorybackend.o(.ARM.extab)
    .extab._ZN10QtMobility24QContactMemoryEngineDataD1Ev 0x00036970   Data           0  qcontactmemorybackend.o(.ARM.extab)
    .extab._ZN10QtMobility20QContactActionFilterC1Ev 0x000369b0   Data           0  qcontactactionfilter.o(.ARM.extab)
    .extab._ZN10QtMobility20QContactActionFilterC1ERKNS_14QContactFilterE 0x000369c0   Data           0  qcontactactionfilter.o(.ARM.extab)
    .extab._ZN10QtMobility27QContactActionFilterPrivateC1Ev 0x000369d0   Data           0  qcontactactionfilter.o(.ARM.extab)
    .extab._ZN10QtMobility27QContactActionFilterPrivate14copyIfPossibleER18QSharedDataPointerINS_21QContactFilterPrivateEERKNS_14QContactFilterE 0x000369e0   Data           0  qcontactactionfilter.o(.ARM.extab)
    .extab._ZNK10QtMobility27QContactActionFilterPrivate5cloneEv 0x000369f0   Data           0  qcontactactionfilter.o(.ARM.extab)
    .extab._ZN10QtMobility27QContactActionFilterPrivateD1Ev 0x00036a08   Data           0  qcontactactionfilter.o(.ARM.extab)
    .extab._ZN10QtMobility23QContactChangeLogFilterC1ENS0_9EventTypeE 0x00036a18   Data           0  qcontactchangelogfilter.o(.ARM.extab)
    .extab._ZN10QtMobility23QContactChangeLogFilterC1ERKNS_14QContactFilterE 0x00036a28   Data           0  qcontactchangelogfilter.o(.ARM.extab)
    .extab._ZN10QtMobility30QContactChangeLogFilterPrivateC1ENS_23QContactChangeLogFilter9EventTypeE 0x00036a38   Data           0  qcontactchangelogfilter.o(.ARM.extab)
    .extab._ZN10QtMobility30QContactChangeLogFilterPrivate14copyIfPossibleER18QSharedDataPointerINS_21QContactFilterPrivateEERKNS_14QContactFilterE 0x00036a48   Data           0  qcontactchangelogfilter.o(.ARM.extab)
    .extab._ZNK10QtMobility30QContactChangeLogFilterPrivate5cloneEv 0x00036a58   Data           0  qcontactchangelogfilter.o(.ARM.extab)
    .extab._ZN10QtMobility30QContactChangeLogFilterPrivateD1Ev 0x00036a70   Data           0  qcontactchangelogfilter.o(.ARM.extab)
    .extab._ZN10QtMobility20QContactDetailFilterC1Ev 0x00036a80   Data           0  qcontactdetailfilter.o(.ARM.extab)
    .extab._ZN10QtMobility20QContactDetailFilterC1ERKNS_14QContactFilterE 0x00036a90   Data           0  qcontactdetailfilter.o(.ARM.extab)
    .extab._ZN10QtMobility27QContactDetailFilterPrivateC1Ev 0x00036aa0   Data           0  qcontactdetailfilter.o(.ARM.extab)
    .extab._ZN10QtMobility27QContactDetailFilterPrivateD1Ev 0x00036ab8   Data           0  qcontactdetailfilter.o(.ARM.extab)
    .extab._ZN10QtMobility27QContactDetailFilterPrivate14copyIfPossibleER18QSharedDataPointerINS_21QContactFilterPrivateEERKNS_14QContactFilterE 0x00036ad8   Data           0  qcontactdetailfilter.o(.ARM.extab)
    .extab._ZNK10QtMobility27QContactDetailFilterPrivate5cloneEv 0x00036ae8   Data           0  qcontactdetailfilter.o(.ARM.extab)
    .extab._ZN10QtMobility25QContactDetailRangeFilterC1Ev 0x00036b10   Data           0  qcontactdetailrangefilter.o(.ARM.extab)
    .extab._ZN10QtMobility25QContactDetailRangeFilterC1ERKNS_14QContactFilterE 0x00036b20   Data           0  qcontactdetailrangefilter.o(.ARM.extab)
    .extab._ZN10QtMobility32QContactDetailRangeFilterPrivateC1Ev 0x00036b30   Data           0  qcontactdetailrangefilter.o(.ARM.extab)
    .extab._ZN10QtMobility32QContactDetailRangeFilterPrivateD1Ev 0x00036b58   Data           0  qcontactdetailrangefilter.o(.ARM.extab)
    .extab._ZN10QtMobility32QContactDetailRangeFilterPrivate14copyIfPossibleER18QSharedDataPointerINS_21QContactFilterPrivateEERKNS_14QContactFilterE 0x00036b80   Data           0  qcontactdetailrangefilter.o(.ARM.extab)
    .extab._ZNK10QtMobility32QContactDetailRangeFilterPrivate5cloneEv 0x00036b90   Data           0  qcontactdetailrangefilter.o(.ARM.extab)
    .extab._ZN10QtMobility32QContactDetailRangeFilterPrivateC1ERKS0_ 0x00036ba0   Data           0  qcontactdetailrangefilter.o(.ARM.extab)
    .extab._ZN10QtMobility21QContactLocalIdFilterC1Ev 0x00036bc8   Data           0  qcontactlocalidfilter.o(.ARM.extab)
    .extab._ZN10QtMobility21QContactLocalIdFilterC1ERKNS_14QContactFilterE 0x00036bd8   Data           0  qcontactlocalidfilter.o(.ARM.extab)
    .extab._ZN5QListIjE5clearEv              0x00036be8   Data           0  qcontactlocalidfilter.o(.ARM.extab)
    .extab._ZN10QtMobility28QContactLocalIdFilterPrivateC1Ev 0x00036bf8   Data           0  qcontactlocalidfilter.o(.ARM.extab)
    .extab._ZN10QtMobility28QContactLocalIdFilterPrivate14copyIfPossibleER18QSharedDataPointerINS_21QContactFilterPrivateEERKNS_14QContactFilterE 0x00036c08   Data           0  qcontactlocalidfilter.o(.ARM.extab)
    .extab._ZNK10QtMobility28QContactLocalIdFilterPrivate5cloneEv 0x00036c18   Data           0  qcontactlocalidfilter.o(.ARM.extab)
    .extab._ZN10QtMobility28QContactLocalIdFilterPrivateD1Ev 0x00036c30   Data           0  qcontactlocalidfilter.o(.ARM.extab)
    .extab._ZN10QtMobility26QContactIntersectionFilterC1Ev 0x00036c40   Data           0  qcontactintersectionfilter.o(.ARM.extab)
    .extab._ZN10QtMobility26QContactIntersectionFilterC1ERKNS_14QContactFilterE 0x00036c50   Data           0  qcontactintersectionfilter.o(.ARM.extab)
    .extab._ZN10QtMobility26QContactIntersectionFilter7prependERKNS_14QContactFilterE 0x00036c60   Data           0  qcontactintersectionfilter.o(.ARM.extab)
    .extab._ZN5QListIN10QtMobility14QContactFilterEE5clearEv 0x00036c90   Data           0  qcontactintersectionfilter.o(.ARM.extab)
    .extab._ZrsIN10QtMobility14QContactFilterEER11QDataStreamS3_R5QListIT_E 0x00036ca0   Data           0  qcontactintersectionfilter.o(.ARM.extab)
    .extab._ZN10QtMobility33QContactIntersectionFilterPrivateC1Ev 0x00036cb0   Data           0  qcontactintersectionfilter.o(.ARM.extab)
    .extab._ZN5QListIN10QtMobility14QContactFilterEE9removeAllERKS1_ 0x00036cc0   Data           0  qcontactintersectionfilter.o(.ARM.extab)
    .extab._ZN10QtMobility33QContactIntersectionFilterPrivate14copyIfPossibleER18QSharedDataPointerINS_21QContactFilterPrivateEERKNS_14QContactFilterE 0x00036cd0   Data           0  qcontactintersectionfilter.o(.ARM.extab)
    .extab._ZNK10QtMobility33QContactIntersectionFilterPrivate5cloneEv 0x00036ce0   Data           0  qcontactintersectionfilter.o(.ARM.extab)
    .extab._ZN10QtMobility33QContactIntersectionFilterPrivateD1Ev 0x00036cf8   Data           0  qcontactintersectionfilter.o(.ARM.extab)
    .extab._ZN10QtMobility21QContactInvalidFilterC1Ev 0x00036d08   Data           0  qcontactinvalidfilter.o(.ARM.extab)
    .extab._ZN10QtMobility21QContactInvalidFilterC1ERKNS_14QContactFilterE 0x00036d18   Data           0  qcontactinvalidfilter.o(.ARM.extab)
    .extab._ZNK10QtMobility28QContactInvalidFilterPrivate5cloneEv 0x00036d28   Data           0  qcontactinvalidfilter.o(.ARM.extab)
    .extab._ZN10QtMobility26QContactRelationshipFilterC1Ev 0x00036d38   Data           0  qcontactrelationshipfilter.o(.ARM.extab)
    .extab._ZN10QtMobility26QContactRelationshipFilterC1ERKNS_14QContactFilterE 0x00036d48   Data           0  qcontactrelationshipfilter.o(.ARM.extab)
    .extab._ZN10QtMobility33QContactRelationshipFilterPrivateC1Ev 0x00036d58   Data           0  qcontactrelationshipfilter.o(.ARM.extab)
    .extab._ZN10QtMobility33QContactRelationshipFilterPrivateD1Ev 0x00036d70   Data           0  qcontactrelationshipfilter.o(.ARM.extab)
    .extab._ZN10QtMobility33QContactRelationshipFilterPrivate14copyIfPossibleER18QSharedDataPointerINS_21QContactFilterPrivateEERKNS_14QContactFilterE 0x00036d88   Data           0  qcontactrelationshipfilter.o(.ARM.extab)
    .extab._ZNK10QtMobility33QContactRelationshipFilterPrivate5cloneEv 0x00036d98   Data           0  qcontactrelationshipfilter.o(.ARM.extab)
    .extab._ZN10QtMobility19QContactUnionFilterC1Ev 0x00036db8   Data           0  qcontactunionfilter.o(.ARM.extab)
    .extab._ZN10QtMobility19QContactUnionFilterC1ERKNS_14QContactFilterE 0x00036dc8   Data           0  qcontactunionfilter.o(.ARM.extab)
    .extab._ZN10QtMobility19QContactUnionFilter7prependERKNS_14QContactFilterE 0x00036dd8   Data           0  qcontactunionfilter.o(.ARM.extab)
    .extab._ZN10QtMobility26QContactUnionFilterPrivateC1Ev 0x00036e08   Data           0  qcontactunionfilter.o(.ARM.extab)
    .extab._ZN10QtMobility26QContactUnionFilterPrivate14copyIfPossibleER18QSharedDataPointerINS_21QContactFilterPrivateEERKNS_14QContactFilterE 0x00036e18   Data           0  qcontactunionfilter.o(.ARM.extab)
    .extab._ZNK10QtMobility26QContactUnionFilterPrivate5cloneEv 0x00036e28   Data           0  qcontactunionfilter.o(.ARM.extab)
    .extab._ZN10QtMobility26QContactUnionFilterPrivateD1Ev 0x00036e40   Data           0  qcontactunionfilter.o(.ARM.extab)
    .extab._ZN10QtMobility20QContactFetchRequestC1EP7QObject 0x00036e50   Data           0  qcontactfetchrequest.o(.ARM.extab)
    .extab._ZN10QtMobility20QContactFetchRequestD1Ev 0x00036e60   Data           0  qcontactfetchrequest.o(.ARM.extab)
    .extab._ZN10QtMobility20QContactFetchRequest9setFilterERKNS_14QContactFilterE 0x00036e78   Data           0  qcontactfetchrequest.o(.ARM.extab)
    .extab._ZN10QtMobility20QContactFetchRequest10setSortingERK5QListINS_17QContactSortOrderEE 0x00036e88   Data           0  qcontactfetchrequest.o(.ARM.extab)
    .extab._ZN10QtMobility20QContactFetchRequest12setFetchHintERKNS_17QContactFetchHintE 0x00036e98   Data           0  qcontactfetchrequest.o(.ARM.extab)
    .extab._ZNK10QtMobility20QContactFetchRequest6filterEv 0x00036ea8   Data           0  qcontactfetchrequest.o(.ARM.extab)
    .extab._ZNK10QtMobility20QContactFetchRequest7sortingEv 0x00036eb8   Data           0  qcontactfetchrequest.o(.ARM.extab)
    .extab._ZNK10QtMobility20QContactFetchRequest9fetchHintEv 0x00036ec8   Data           0  qcontactfetchrequest.o(.ARM.extab)
    .extab._ZNK10QtMobility20QContactFetchRequest8contactsEv 0x00036ed8   Data           0  qcontactfetchrequest.o(.ARM.extab)
    .extab._ZN10QtMobility27QContactFetchRequestPrivateC1Ev 0x00036ee8   Data           0  qcontactfetchrequest.o(.ARM.extab)
    .extab._ZN10QtMobility24QContactFetchByIdRequestC1EP7QObject 0x00036f18   Data           0  qcontactfetchbyidrequest.o(.ARM.extab)
    .extab._ZN10QtMobility24QContactFetchByIdRequestD1Ev 0x00036f28   Data           0  qcontactfetchbyidrequest.o(.ARM.extab)
    .extab._ZN10QtMobility24QContactFetchByIdRequest11setLocalIdsERK5QListIjE 0x00036f40   Data           0  qcontactfetchbyidrequest.o(.ARM.extab)
    .extab._ZN10QtMobility24QContactFetchByIdRequest12setFetchHintERKNS_17QContactFetchHintE 0x00036f50   Data           0  qcontactfetchbyidrequest.o(.ARM.extab)
    .extab._ZNK10QtMobility24QContactFetchByIdRequest8localIdsEv 0x00036f60   Data           0  qcontactfetchbyidrequest.o(.ARM.extab)
    .extab._ZNK10QtMobility24QContactFetchByIdRequest9fetchHintEv 0x00036f70   Data           0  qcontactfetchbyidrequest.o(.ARM.extab)
    .extab._ZNK10QtMobility24QContactFetchByIdRequest8contactsEv 0x00036f80   Data           0  qcontactfetchbyidrequest.o(.ARM.extab)
    .extab._ZNK10QtMobility24QContactFetchByIdRequest8errorMapEv 0x00036f90   Data           0  qcontactfetchbyidrequest.o(.ARM.extab)
    .extab._ZN10QtMobility31QContactFetchByIdRequestPrivateC1Ev 0x00036fa0   Data           0  qcontactfetchbyidrequest.o(.ARM.extab)
    .extab._ZN10QtMobility27QContactLocalIdFetchRequestC1EP7QObject 0x00036fd0   Data           0  qcontactlocalidfetchrequest.o(.ARM.extab)
    .extab._ZN10QtMobility27QContactLocalIdFetchRequestD1Ev 0x00036fe0   Data           0  qcontactlocalidfetchrequest.o(.ARM.extab)
    .extab._ZN10QtMobility27QContactLocalIdFetchRequest9setFilterERKNS_14QContactFilterE 0x00036ff8   Data           0  qcontactlocalidfetchrequest.o(.ARM.extab)
    .extab._ZN10QtMobility27QContactLocalIdFetchRequest10setSortingERK5QListINS_17QContactSortOrderEE 0x00037008   Data           0  qcontactlocalidfetchrequest.o(.ARM.extab)
    .extab._ZNK10QtMobility27QContactLocalIdFetchRequest6filterEv 0x00037018   Data           0  qcontactlocalidfetchrequest.o(.ARM.extab)
    .extab._ZNK10QtMobility27QContactLocalIdFetchRequest7sortingEv 0x00037028   Data           0  qcontactlocalidfetchrequest.o(.ARM.extab)
    .extab._ZNK10QtMobility27QContactLocalIdFetchRequest3idsEv 0x00037038   Data           0  qcontactlocalidfetchrequest.o(.ARM.extab)
    .extab._ZN10QtMobility34QContactLocalIdFetchRequestPrivateC1Ev 0x00037048   Data           0  qcontactlocalidfetchrequest.o(.ARM.extab)
    .extab._ZN10QtMobility19QContactSaveRequestC1EP7QObject 0x00037070   Data           0  qcontactsaverequest.o(.ARM.extab)
    .extab._ZN10QtMobility19QContactSaveRequestD1Ev 0x00037080   Data           0  qcontactsaverequest.o(.ARM.extab)
    .extab._ZN10QtMobility19QContactSaveRequest10setContactERKNS_8QContactE 0x00037098   Data           0  qcontactsaverequest.o(.ARM.extab)
    .extab._ZN10QtMobility19QContactSaveRequest11setContactsERK5QListINS_8QContactEE 0x000370a8   Data           0  qcontactsaverequest.o(.ARM.extab)
    .extab._ZN10QtMobility19QContactSaveRequest17setDefinitionMaskERK11QStringList 0x000370b8   Data           0  qcontactsaverequest.o(.ARM.extab)
    .extab._ZNK10QtMobility19QContactSaveRequest14definitionMaskEv 0x000370c8   Data           0  qcontactsaverequest.o(.ARM.extab)
    .extab._ZNK10QtMobility19QContactSaveRequest8contactsEv 0x000370d8   Data           0  qcontactsaverequest.o(.ARM.extab)
    .extab._ZNK10QtMobility19QContactSaveRequest8errorMapEv 0x000370e8   Data           0  qcontactsaverequest.o(.ARM.extab)
    .extab._ZN5QListIN10QtMobility8QContactEE5clearEv 0x000370f8   Data           0  qcontactsaverequest.o(.ARM.extab)
    .extab._ZN10QtMobility26QContactSaveRequestPrivateC1Ev 0x00037108   Data           0  qcontactsaverequest.o(.ARM.extab)
    .extab._ZN10QtMobility21QContactRemoveRequestC1EP7QObject 0x00037130   Data           0  qcontactremoverequest.o(.ARM.extab)
    .extab._ZN10QtMobility21QContactRemoveRequestD1Ev 0x00037140   Data           0  qcontactremoverequest.o(.ARM.extab)
    .extab._ZN10QtMobility21QContactRemoveRequest12setContactIdERKj 0x00037158   Data           0  qcontactremoverequest.o(.ARM.extab)
    .extab._ZN10QtMobility21QContactRemoveRequest13setContactIdsERK5QListIjE 0x00037168   Data           0  qcontactremoverequest.o(.ARM.extab)
    .extab._ZNK10QtMobility21QContactRemoveRequest10contactIdsEv 0x00037178   Data           0  qcontactremoverequest.o(.ARM.extab)
    .extab._ZNK10QtMobility21QContactRemoveRequest8errorMapEv 0x00037188   Data           0  qcontactremoverequest.o(.ARM.extab)
    .extab._ZN10QtMobility28QContactRemoveRequestPrivateC1Ev 0x00037198   Data           0  qcontactremoverequest.o(.ARM.extab)
    .extab._ZN10QtMobility36QContactDetailDefinitionFetchRequestC1EP7QObject 0x000371b8   Data           0  qcontactdetaildefinitionfetchrequest.o(.ARM.extab)
    .extab._ZN10QtMobility36QContactDetailDefinitionFetchRequestD1Ev 0x000371c8   Data           0  qcontactdetaildefinitionfetchrequest.o(.ARM.extab)
    .extab._ZN10QtMobility36QContactDetailDefinitionFetchRequest17setDefinitionNameERK7QString 0x000371e0   Data           0  qcontactdetaildefinitionfetchrequest.o(.ARM.extab)
    .extab._ZN10QtMobility36QContactDetailDefinitionFetchRequest18setDefinitionNamesERK11QStringList 0x000371f0   Data           0  qcontactdetaildefinitionfetchrequest.o(.ARM.extab)
    .extab._ZNK10QtMobility36QContactDetailDefinitionFetchRequest15definitionNamesEv 0x00037200   Data           0  qcontactdetaildefinitionfetchrequest.o(.ARM.extab)
    .extab._ZN10QtMobility36QContactDetailDefinitionFetchRequest14setContactTypeERK7QString 0x00037210   Data           0  qcontactdetaildefinitionfetchrequest.o(.ARM.extab)
    .extab._ZNK10QtMobility36QContactDetailDefinitionFetchRequest11contactTypeEv 0x00037220   Data           0  qcontactdetaildefinitionfetchrequest.o(.ARM.extab)
    .extab._ZNK10QtMobility36QContactDetailDefinitionFetchRequest11definitionsEv 0x00037230   Data           0  qcontactdetaildefinitionfetchrequest.o(.ARM.extab)
    .extab._ZNK10QtMobility36QContactDetailDefinitionFetchRequest8errorMapEv 0x00037240   Data           0  qcontactdetaildefinitionfetchrequest.o(.ARM.extab)
    .extab._ZN10QtMobility43QContactDetailDefinitionFetchRequestPrivateC1Ev 0x00037250   Data           0  qcontactdetaildefinitionfetchrequest.o(.ARM.extab)
    .extab._ZN10QtMobility35QContactDetailDefinitionSaveRequestC1EP7QObject 0x00037290   Data           0  qcontactdetaildefinitionsaverequest.o(.ARM.extab)
    .extab._ZN10QtMobility35QContactDetailDefinitionSaveRequestD1Ev 0x000372a0   Data           0  qcontactdetaildefinitionsaverequest.o(.ARM.extab)
    .extab._ZN10QtMobility35QContactDetailDefinitionSaveRequest13setDefinitionERKNS_24QContactDetailDefinitionE 0x000372b8   Data           0  qcontactdetaildefinitionsaverequest.o(.ARM.extab)
    .extab._ZN10QtMobility35QContactDetailDefinitionSaveRequest14setDefinitionsERK5QListINS_24QContactDetailDefinitionEE 0x000372c8   Data           0  qcontactdetaildefinitionsaverequest.o(.ARM.extab)
    .extab._ZN10QtMobility35QContactDetailDefinitionSaveRequest14setContactTypeERK7QString 0x000372d8   Data           0  qcontactdetaildefinitionsaverequest.o(.ARM.extab)
    .extab._ZNK10QtMobility35QContactDetailDefinitionSaveRequest11contactTypeEv 0x000372e8   Data           0  qcontactdetaildefinitionsaverequest.o(.ARM.extab)
    .extab._ZNK10QtMobility35QContactDetailDefinitionSaveRequest11definitionsEv 0x000372f8   Data           0  qcontactdetaildefinitionsaverequest.o(.ARM.extab)
    .extab._ZNK10QtMobility35QContactDetailDefinitionSaveRequest8errorMapEv 0x00037308   Data           0  qcontactdetaildefinitionsaverequest.o(.ARM.extab)
    .extab._ZN5QListIN10QtMobility24QContactDetailDefinitionEE13detach_helperEi 0x00037318   Data           0  qcontactdetaildefinitionsaverequest.o(.ARM.extab)
    .extab._ZN5QListIN10QtMobility24QContactDetailDefinitionEE5clearEv 0x00037334   Data           0  qcontactdetaildefinitionsaverequest.o(.ARM.extab)
    .extab._ZN10QtMobility42QContactDetailDefinitionSaveRequestPrivateC1Ev 0x00037344   Data           0  qcontactdetaildefinitionsaverequest.o(.ARM.extab)
    .extab._ZN10QtMobility37QContactDetailDefinitionRemoveRequestC1EP7QObject 0x0003737c   Data           0  qcontactdetaildefinitionremoverequest.o(.ARM.extab)
    .extab._ZN10QtMobility37QContactDetailDefinitionRemoveRequestD1Ev 0x0003738c   Data           0  qcontactdetaildefinitionremoverequest.o(.ARM.extab)
    .extab._ZN10QtMobility37QContactDetailDefinitionRemoveRequest17setDefinitionNameERK7QString 0x000373a4   Data           0  qcontactdetaildefinitionremoverequest.o(.ARM.extab)
    .extab._ZN10QtMobility37QContactDetailDefinitionRemoveRequest18setDefinitionNamesERK11QStringList 0x000373b4   Data           0  qcontactdetaildefinitionremoverequest.o(.ARM.extab)
    .extab._ZNK10QtMobility37QContactDetailDefinitionRemoveRequest15definitionNamesEv 0x000373c4   Data           0  qcontactdetaildefinitionremoverequest.o(.ARM.extab)
    .extab._ZN10QtMobility37QContactDetailDefinitionRemoveRequest14setContactTypeERK7QString 0x000373d4   Data           0  qcontactdetaildefinitionremoverequest.o(.ARM.extab)
    .extab._ZNK10QtMobility37QContactDetailDefinitionRemoveRequest11contactTypeEv 0x000373e4   Data           0  qcontactdetaildefinitionremoverequest.o(.ARM.extab)
    .extab._ZNK10QtMobility37QContactDetailDefinitionRemoveRequest8errorMapEv 0x000373f4   Data           0  qcontactdetaildefinitionremoverequest.o(.ARM.extab)
    .extab._ZN10QtMobility44QContactDetailDefinitionRemoveRequestPrivateC1Ev 0x00037404   Data           0  qcontactdetaildefinitionremoverequest.o(.ARM.extab)
    .extab._ZN10QtMobility32QContactRelationshipFetchRequestC1EP7QObject 0x0003743c   Data           0  qcontactrelationshipfetchrequest.o(.ARM.extab)
    .extab._ZN10QtMobility32QContactRelationshipFetchRequestD1Ev 0x0003744c   Data           0  qcontactrelationshipfetchrequest.o(.ARM.extab)
    .extab._ZN10QtMobility32QContactRelationshipFetchRequest8setFirstERKNS_10QContactIdE 0x00037464   Data           0  qcontactrelationshipfetchrequest.o(.ARM.extab)
    .extab._ZNK10QtMobility32QContactRelationshipFetchRequest5firstEv 0x00037474   Data           0  qcontactrelationshipfetchrequest.o(.ARM.extab)
    .extab._ZN10QtMobility32QContactRelationshipFetchRequest19setRelationshipTypeERK7QString 0x00037484   Data           0  qcontactrelationshipfetchrequest.o(.ARM.extab)
    .extab._ZNK10QtMobility32QContactRelationshipFetchRequest16relationshipTypeEv 0x00037494   Data           0  qcontactrelationshipfetchrequest.o(.ARM.extab)
    .extab._ZN10QtMobility32QContactRelationshipFetchRequest9setSecondERKNS_10QContactIdE 0x000374a4   Data           0  qcontactrelationshipfetchrequest.o(.ARM.extab)
    .extab._ZNK10QtMobility32QContactRelationshipFetchRequest6secondEv 0x000374b4   Data           0  qcontactrelationshipfetchrequest.o(.ARM.extab)
    .extab._ZNK10QtMobility32QContactRelationshipFetchRequest13relationshipsEv 0x000374c4   Data           0  qcontactrelationshipfetchrequest.o(.ARM.extab)
    .extab._ZN10QtMobility39QContactRelationshipFetchRequestPrivateC1Ev 0x000374d4   Data           0  qcontactrelationshipfetchrequest.o(.ARM.extab)
    .extab._ZN10QtMobility33QContactRelationshipRemoveRequestC1EP7QObject 0x00037504   Data           0  qcontactrelationshipremoverequest.o(.ARM.extab)
    .extab._ZN10QtMobility33QContactRelationshipRemoveRequestD1Ev 0x00037514   Data           0  qcontactrelationshipremoverequest.o(.ARM.extab)
    .extab._ZN10QtMobility33QContactRelationshipRemoveRequest15setRelationshipERKNS_20QContactRelationshipE 0x0003752c   Data           0  qcontactrelationshipremoverequest.o(.ARM.extab)
    .extab._ZN10QtMobility33QContactRelationshipRemoveRequest16setRelationshipsERK5QListINS_20QContactRelationshipEE 0x0003753c   Data           0  qcontactrelationshipremoverequest.o(.ARM.extab)
    .extab._ZNK10QtMobility33QContactRelationshipRemoveRequest13relationshipsEv 0x0003754c   Data           0  qcontactrelationshipremoverequest.o(.ARM.extab)
    .extab._ZNK10QtMobility33QContactRelationshipRemoveRequest8errorMapEv 0x0003755c   Data           0  qcontactrelationshipremoverequest.o(.ARM.extab)
    .extab._ZN5QListIN10QtMobility20QContactRelationshipEE5clearEv 0x0003756c   Data           0  qcontactrelationshipremoverequest.o(.ARM.extab)
    .extab._ZN10QtMobility40QContactRelationshipRemoveRequestPrivateC1Ev 0x0003757c   Data           0  qcontactrelationshipremoverequest.o(.ARM.extab)
    .extab._ZN10QtMobility31QContactRelationshipSaveRequestC1EP7QObject 0x0003759c   Data           0  qcontactrelationshipsaverequest.o(.ARM.extab)
    .extab._ZN10QtMobility31QContactRelationshipSaveRequestD1Ev 0x000375ac   Data           0  qcontactrelationshipsaverequest.o(.ARM.extab)
    .extab._ZN10QtMobility31QContactRelationshipSaveRequest15setRelationshipERKNS_20QContactRelationshipE 0x000375c4   Data           0  qcontactrelationshipsaverequest.o(.ARM.extab)
    .extab._ZN10QtMobility31QContactRelationshipSaveRequest16setRelationshipsERK5QListINS_20QContactRelationshipEE 0x000375d4   Data           0  qcontactrelationshipsaverequest.o(.ARM.extab)
    .extab._ZNK10QtMobility31QContactRelationshipSaveRequest13relationshipsEv 0x000375e4   Data           0  qcontactrelationshipsaverequest.o(.ARM.extab)
    .extab._ZNK10QtMobility31QContactRelationshipSaveRequest8errorMapEv 0x000375f4   Data           0  qcontactrelationshipsaverequest.o(.ARM.extab)
    .extab._ZN10QtMobility38QContactRelationshipSaveRequestPrivateC1Ev 0x00037604   Data           0  qcontactrelationshipsaverequest.o(.ARM.extab)
    .constdata$1                             0x00037624   Data           0  moc_qcontactmanagerenginev2wrapper_p.o(.constdata)
    qt_meta_data_QContactManagerEngineV2Wrapper 0x00037624   Data          80  moc_qcontactmanagerenginev2wrapper_p.o(.constdata)
    .constdata                               0x00037624   Section      644  moc_qcontactmanagerenginev2wrapper_p.o(.constdata)
    qt_meta_stringdata_QContactManagerEngineV2Wrapper 0x00037674   Data          91  moc_qcontactmanagerenginev2wrapper_p.o(.constdata)
    qt_meta_data_RequestController           0x000376d0   Data         100  moc_qcontactmanagerenginev2wrapper_p.o(.constdata)
    qt_meta_stringdata_RequestController     0x00037734   Data         127  moc_qcontactmanagerenginev2wrapper_p.o(.constdata)
    qt_meta_data_FetchByIdRequestController  0x000377b4   Data          60  moc_qcontactmanagerenginev2wrapper_p.o(.constdata)
    qt_meta_stringdata_FetchByIdRequestController 0x000377f0   Data          28  moc_qcontactmanagerenginev2wrapper_p.o(.constdata)
    qt_meta_data_PartialSaveRequestController 0x0003780c   Data          60  moc_qcontactmanagerenginev2wrapper_p.o(.constdata)
    qt_meta_stringdata_PartialSaveRequestController 0x00037848   Data          30  moc_qcontactmanagerenginev2wrapper_p.o(.constdata)
    .constdata$1                             0x000378a8   Data           0  qcontactabstractrequest.o(.constdata)
    .constdata                               0x000378a8   Section      362  qcontactabstractrequest.o(.constdata)
    QtMobility::qt_meta_data_QContactAbstractRequest 0x000378b8   Data         180  qcontactabstractrequest.o(.constdata)
    QtMobility::qt_meta_stringdata_QContactAbstractRequest 0x0003796c   Data         166  qcontactabstractrequest.o(.constdata)
    .constdata$1                             0x00037a14   Data           0  qcontactaction.o(.constdata)
    .constdata                               0x00037a14   Section      232  qcontactaction.o(.constdata)
    QtMobility::qt_meta_data_QContactAction  0x00037a50   Data         100  qcontactaction.o(.constdata)
    QtMobility::qt_meta_stringdata_QContactAction 0x00037ab4   Data          72  qcontactaction.o(.constdata)
    .constdata$1                             0x00037afc   Data           0  qcontactactiondescriptor.o(.constdata)
    .constdata                               0x00037afc   Section       68  qcontactactiondescriptor.o(.constdata)
    .constdata$1                             0x00037b40   Data           0  qcontactactionfactory.o(.constdata)
    .constdata                               0x00037b40   Section      139  qcontactactionfactory.o(.constdata)
    QtMobility::qt_meta_data_QContactActionFactory 0x00037b78   Data          60  qcontactactionfactory.o(.constdata)
    QtMobility::qt_meta_stringdata_QContactActionFactory 0x00037bb4   Data          23  qcontactactionfactory.o(.constdata)
    .constdata$1                             0x00037bcc   Data           0  qcontactactionmanager_p.o(.constdata)
    .constdata                               0x00037bcc   Section       99  qcontactactionmanager_p.o(.constdata)
    QtMobility::qt_meta_data_QContactActionManager 0x00037bdc   Data          60  qcontactactionmanager_p.o(.constdata)
    QtMobility::qt_meta_stringdata_QContactActionManager 0x00037c18   Data          23  qcontactactionmanager_p.o(.constdata)
    .constdata$1                             0x00037c2f   Data           0  qcontactdetail.o(.constdata)
    .constdata                               0x00037c2f   Section       51  qcontactdetail.o(.constdata)
    .constdata$1                             0x00037c64   Data           0  qcontactmanager.o(.constdata)
    .constdata                               0x00037c64   Section      622  qcontactmanager.o(.constdata)
    QtMobility::qt_meta_data_QContactManager 0x00037cbc   Data         200  qcontactmanager.o(.constdata)
    QtMobility::qt_meta_stringdata_QContactManager 0x00037d84   Data         334  qcontactmanager.o(.constdata)
    .constdata$1                             0x00037ed4   Data           0  qcontactmanagerengine.o(.constdata)
    .constdata                               0x00037ed4   Section      657  qcontactmanagerengine.o(.constdata)
    QtMobility::qt_meta_data_QContactManagerEngine 0x00037ef4   Data         200  qcontactmanagerengine.o(.constdata)
    QtMobility::qt_meta_stringdata_QContactManagerEngine 0x00037fbc   Data         340  qcontactmanagerengine.o(.constdata)
    QtMobility::qt_meta_data_QContactManagerEngineV2 0x00038110   Data          60  qcontactmanagerengine.o(.constdata)
    QtMobility::qt_meta_stringdata_QContactManagerEngineV2 0x0003814c   Data          25  qcontactmanagerengine.o(.constdata)
    .constdata$1                             0x00038165   Data           0  qcontactrelationship.o(.constdata)
    .constdata                               0x00038165   Section       64  qcontactrelationship.o(.constdata)
    .constdata$1                             0x000381a5   Data           0  qcontactdetails.o(.constdata)
    .constdata                               0x000381a5   Section     1319  qcontactdetails.o(.constdata)
    .constdata$1                             0x000386cc   Data           0  qcontactmemorybackend.o(.constdata)
    .constdata                               0x000386cc   Section       98  qcontactmemorybackend.o(.constdata)
    QtMobility::qt_meta_data_QContactMemoryEngine 0x000386dc   Data          60  qcontactmemorybackend.o(.constdata)
    QtMobility::qt_meta_stringdata_QContactMemoryEngine 0x00038718   Data          22  qcontactmemorybackend.o(.constdata)
    .constdata$1                             0x00038730   Data           0  qcontactfetchrequest.o(.constdata)
    .constdata                               0x00038730   Section       98  qcontactfetchrequest.o(.constdata)
    QtMobility::qt_meta_data_QContactFetchRequest 0x00038740   Data          60  qcontactfetchrequest.o(.constdata)
    QtMobility::qt_meta_stringdata_QContactFetchRequest 0x0003877c   Data          22  qcontactfetchrequest.o(.constdata)
    .constdata$1                             0x00038794   Data           0  qcontactfetchbyidrequest.o(.constdata)
    .constdata                               0x00038794   Section      102  qcontactfetchbyidrequest.o(.constdata)
    QtMobility::qt_meta_data_QContactFetchByIdRequest 0x000387a4   Data          60  qcontactfetchbyidrequest.o(.constdata)
    QtMobility::qt_meta_stringdata_QContactFetchByIdRequest 0x000387e0   Data          26  qcontactfetchbyidrequest.o(.constdata)
    .constdata$1                             0x000387fc   Data           0  qcontactlocalidfetchrequest.o(.constdata)
    .constdata                               0x000387fc   Section      105  qcontactlocalidfetchrequest.o(.constdata)
    QtMobility::qt_meta_data_QContactLocalIdFetchRequest 0x0003880c   Data          60  qcontactlocalidfetchrequest.o(.constdata)
    QtMobility::qt_meta_stringdata_QContactLocalIdFetchRequest 0x00038848   Data          29  qcontactlocalidfetchrequest.o(.constdata)
    .constdata$1                             0x00038868   Data           0  qcontactsaverequest.o(.constdata)
    .constdata                               0x00038868   Section       97  qcontactsaverequest.o(.constdata)
    QtMobility::qt_meta_data_QContactSaveRequest 0x00038878   Data          60  qcontactsaverequest.o(.constdata)
    QtMobility::qt_meta_stringdata_QContactSaveRequest 0x000388b4   Data          21  qcontactsaverequest.o(.constdata)
    .constdata$1                             0x000388cc   Data           0  qcontactremoverequest.o(.constdata)
    .constdata                               0x000388cc   Section       99  qcontactremoverequest.o(.constdata)
    QtMobility::qt_meta_data_QContactRemoveRequest 0x000388dc   Data          60  qcontactremoverequest.o(.constdata)
    QtMobility::qt_meta_stringdata_QContactRemoveRequest 0x00038918   Data          23  qcontactremoverequest.o(.constdata)
    .constdata$1                             0x00038930   Data           0  qcontactdetaildefinitionfetchrequest.o(.constdata)
    .constdata                               0x00038930   Section      114  qcontactdetaildefinitionfetchrequest.o(.constdata)
    QtMobility::qt_meta_data_QContactDetailDefinitionFetchRequest 0x00038940   Data          60  qcontactdetaildefinitionfetchrequest.o(.constdata)
    QtMobility::qt_meta_stringdata_QContactDetailDefinitionFetchRequest 0x0003897c   Data          38  qcontactdetaildefinitionfetchrequest.o(.constdata)
    .constdata$1                             0x000389a4   Data           0  qcontactdetaildefinitionsaverequest.o(.constdata)
    .constdata                               0x000389a4   Section      113  qcontactdetaildefinitionsaverequest.o(.constdata)
    QtMobility::qt_meta_data_QContactDetailDefinitionSaveRequest 0x000389b4   Data          60  qcontactdetaildefinitionsaverequest.o(.constdata)
    QtMobility::qt_meta_stringdata_QContactDetailDefinitionSaveRequest 0x000389f0   Data          37  qcontactdetaildefinitionsaverequest.o(.constdata)
    .constdata$1                             0x00038a18   Data           0  qcontactdetaildefinitionremoverequest.o(.constdata)
    .constdata                               0x00038a18   Section      115  qcontactdetaildefinitionremoverequest.o(.constdata)
    QtMobility::qt_meta_data_QContactDetailDefinitionRemoveRequest 0x00038a28   Data          60  qcontactdetaildefinitionremoverequest.o(.constdata)
    QtMobility::qt_meta_stringdata_QContactDetailDefinitionRemoveRequest 0x00038a64   Data          39  qcontactdetaildefinitionremoverequest.o(.constdata)
    .constdata$1                             0x00038a8c   Data           0  qcontactrelationshipfetchrequest.o(.constdata)
    .constdata                               0x00038a8c   Section      110  qcontactrelationshipfetchrequest.o(.constdata)
    QtMobility::qt_meta_data_QContactRelationshipFetchRequest 0x00038a9c   Data          60  qcontactrelationshipfetchrequest.o(.constdata)
    QtMobility::qt_meta_stringdata_QContactRelationshipFetchRequest 0x00038ad8   Data          34  qcontactrelationshipfetchrequest.o(.constdata)
    .constdata$1                             0x00038afc   Data           0  qcontactrelationshipremoverequest.o(.constdata)
    .constdata                               0x00038afc   Section      111  qcontactrelationshipremoverequest.o(.constdata)
    QtMobility::qt_meta_data_QContactRelationshipRemoveRequest 0x00038b0c   Data          60  qcontactrelationshipremoverequest.o(.constdata)
    QtMobility::qt_meta_stringdata_QContactRelationshipRemoveRequest 0x00038b48   Data          35  qcontactrelationshipremoverequest.o(.constdata)
    .constdata$1                             0x00038b6c   Data           0  qcontactrelationshipsaverequest.o(.constdata)
    .constdata                               0x00038b6c   Section      109  qcontactrelationshipsaverequest.o(.constdata)
    QtMobility::qt_meta_data_QContactRelationshipSaveRequest 0x00038b7c   Data          60  qcontactrelationshipsaverequest.o(.constdata)
    QtMobility::qt_meta_stringdata_QContactRelationshipSaveRequest 0x00038bb8   Data          33  qcontactrelationshipsaverequest.o(.constdata)
    .constdata__ZN9stlp_priv15_Integer_limitsIaLan128ELa127ELin1ELb1EE6digitsE 0x00038bdc   Section        4  moc_qcontactmanagerenginev2wrapper_p.o(.constdata__ZN9stlp_priv15_Integer_limitsIaLan128ELa127ELin1ELb1EE6digitsE)
    .constdata__ZN9stlp_priv15_Integer_limitsIbLb0ELb1ELi1ELb0EE6digitsE 0x00038be0   Section        4  moc_qcontactmanagerenginev2wrapper_p.o(.constdata__ZN9stlp_priv15_Integer_limitsIbLb0ELb1ELi1ELb0EE6digitsE)
    .constdata__ZN9stlp_priv15_Integer_limitsIcLc128ELc127ELin1ELb1EE6digitsE 0x00038be4   Section        4  moc_qcontactmanagerenginev2wrapper_p.o(.constdata__ZN9stlp_priv15_Integer_limitsIcLc128ELc127ELin1ELb1EE6digitsE)
    .constdata__ZN9stlp_priv15_Integer_limitsIhLh0ELh255ELin1ELb1EE6digitsE 0x00038be8   Section        4  moc_qcontactmanagerenginev2wrapper_p.o(.constdata__ZN9stlp_priv15_Integer_limitsIhLh0ELh255ELin1ELb1EE6digitsE)
    .constdata__ZN9stlp_priv15_Integer_limitsIiLin2147483648ELi2147483647ELin1ELb1EE6digitsE 0x00038bec   Section        4  moc_qcontactmanagerenginev2wrapper_p.o(.constdata__ZN9stlp_priv15_Integer_limitsIiLin2147483648ELi2147483647ELin1ELb1EE6digitsE)
    .constdata__ZN9stlp_priv15_Integer_limitsIiLin2147483648ELi2147483647ELin1ELb1EE9is_signedE 0x00038bf0   Section        1  moc_qcontactmanagerenginev2wrapper_p.o(.constdata__ZN9stlp_priv15_Integer_limitsIiLin2147483648ELi2147483647ELin1ELb1EE9is_signedE)
    .constdata__ZN9stlp_priv15_Integer_limitsIjLj0ELj4294967295ELin1ELb1EE6digitsE 0x00038bf4   Section        4  moc_qcontactmanagerenginev2wrapper_p.o(.constdata__ZN9stlp_priv15_Integer_limitsIjLj0ELj4294967295ELin1ELb1EE6digitsE)
    .constdata__ZN9stlp_priv15_Integer_limitsIlLln2147483648ELl2147483647ELin1ELb1EE6digitsE 0x00038bf8   Section        4  moc_qcontactmanagerenginev2wrapper_p.o(.constdata__ZN9stlp_priv15_Integer_limitsIlLln2147483648ELl2147483647ELin1ELb1EE6digitsE)
    .constdata__ZN9stlp_priv15_Integer_limitsImLm0ELm4294967295ELin1ELb1EE6digitsE 0x00038bfc   Section        4  moc_qcontactmanagerenginev2wrapper_p.o(.constdata__ZN9stlp_priv15_Integer_limitsImLm0ELm4294967295ELin1ELb1EE6digitsE)
    .constdata__ZN9stlp_priv15_Integer_limitsIsLsn32768ELs32767ELin1ELb1EE6digitsE 0x00038c00   Section        4  moc_qcontactmanagerenginev2wrapper_p.o(.constdata__ZN9stlp_priv15_Integer_limitsIsLsn32768ELs32767ELin1ELb1EE6digitsE)
    .constdata__ZN9stlp_priv15_Integer_limitsItLt0ELt65535ELin1ELb1EE6digitsE 0x00038c04   Section        4  moc_qcontactmanagerenginev2wrapper_p.o(.constdata__ZN9stlp_priv15_Integer_limitsItLt0ELt65535ELin1ELb1EE6digitsE)
    .constdata__ZN9stlp_priv15_Integer_limitsIwLw0ELw65535ELin1ELb1EE6digitsE 0x00038c08   Section        4  moc_qcontactmanagerenginev2wrapper_p.o(.constdata__ZN9stlp_priv15_Integer_limitsIwLw0ELw65535ELin1ELb1EE6digitsE)
    .constdata__ZN9stlp_priv15_Integer_limitsIxLxn9223372036854775808ELx9223372036854775807ELin1ELb1EE6digitsE 0x00038c0c   Section        4  moc_qcontactmanagerenginev2wrapper_p.o(.constdata__ZN9stlp_priv15_Integer_limitsIxLxn9223372036854775808ELx9223372036854775807ELin1ELb1EE6digitsE)
    .constdata__ZN9stlp_priv15_Integer_limitsIyLy0ELy18446744073709551615ELin1ELb1EE6digitsE 0x00038c10   Section        4  moc_qcontactmanagerenginev2wrapper_p.o(.constdata__ZN9stlp_priv15_Integer_limitsIyLy0ELy18446744073709551615ELin1ELb1EE6digitsE)
    .constdata__ZTI11QSharedData             0x00038c14   Section        8  qcontactactionfilter.o(.constdata__ZTI11QSharedData)
    .constdata__ZTIN10QtMobility14QContactActionE 0x00038c1c   Section       12  qcontactaction.o(.constdata__ZTIN10QtMobility14QContactActionE)
    .constdata__ZTIN10QtMobility15QContactManagerE 0x00038c28   Section       12  qcontactmanager.o(.constdata__ZTIN10QtMobility15QContactManagerE)
    .constdata__ZTIN10QtMobility17RequestControllerE 0x00038c34   Section       12  moc_qcontactmanagerenginev2wrapper_p.o(.constdata__ZTIN10QtMobility17RequestControllerE)
    .constdata__ZTIN10QtMobility19QContactSaveRequestE 0x00038c40   Section       12  qcontactsaverequest.o(.constdata__ZTIN10QtMobility19QContactSaveRequestE)
    .constdata__ZTIN10QtMobility20QContactFetchRequestE 0x00038c4c   Section       12  qcontactfetchrequest.o(.constdata__ZTIN10QtMobility20QContactFetchRequestE)
    .constdata__ZTIN10QtMobility20QContactMemoryEngineE 0x00038c58   Section       12  qcontactmemorybackend.o(.constdata__ZTIN10QtMobility20QContactMemoryEngineE)
    .constdata__ZTIN10QtMobility21QContactActionFactoryE 0x00038c64   Section       12  qcontactactionfactory.o(.constdata__ZTIN10QtMobility21QContactActionFactoryE)
    .constdata__ZTIN10QtMobility21QContactActionManagerE 0x00038c70   Section       12  qcontactactionmanager_p.o(.constdata__ZTIN10QtMobility21QContactActionManagerE)
    .constdata__ZTIN10QtMobility21QContactFilterPrivateE 0x00038c7c   Section       24  qcontactactionfilter.o(.constdata__ZTIN10QtMobility21QContactFilterPrivateE)
    .constdata__ZTIN10QtMobility21QContactInvalidEngineE 0x00038c94   Section       12  qcontactinvalidbackend.o(.constdata__ZTIN10QtMobility21QContactInvalidEngineE)
    .constdata__ZTIN10QtMobility21QContactManagerEngineE 0x00038ca0   Section       12  qcontactmanagerengine.o(.constdata__ZTIN10QtMobility21QContactManagerEngineE)
    .constdata__ZTIN10QtMobility21QContactRemoveRequestE 0x00038cac   Section       12  qcontactremoverequest.o(.constdata__ZTIN10QtMobility21QContactRemoveRequestE)
    .constdata__ZTIN10QtMobility23QContactAbstractRequestE 0x00038cb8   Section       12  qcontactabstractrequest.o(.constdata__ZTIN10QtMobility23QContactAbstractRequestE)
    .constdata__ZTIN10QtMobility23QContactManagerEngineV2E 0x00038cc4   Section       12  qcontactmanagerengine.o(.constdata__ZTIN10QtMobility23QContactManagerEngineV2E)
    .constdata__ZTIN10QtMobility24QContactFetchByIdRequestE 0x00038cd0   Section       12  qcontactfetchbyidrequest.o(.constdata__ZTIN10QtMobility24QContactFetchByIdRequestE)
    .constdata__ZTIN10QtMobility26FetchByIdRequestControllerE 0x00038cdc   Section       12  moc_qcontactmanagerenginev2wrapper_p.o(.constdata__ZTIN10QtMobility26FetchByIdRequestControllerE)
    .constdata__ZTIN10QtMobility26QContactSaveRequestPrivateE 0x00038ce8   Section       12  qcontactmanagerengine.o(.constdata__ZTIN10QtMobility26QContactSaveRequestPrivateE)
    .constdata__ZTIN10QtMobility26QContactUnionFilterPrivateE 0x00038cf4   Section       12  qcontactunionfilter.o(.constdata__ZTIN10QtMobility26QContactUnionFilterPrivateE)
    .constdata__ZTIN10QtMobility27QContactActionFilterPrivateE 0x00038d00   Section       12  qcontactactionfilter.o(.constdata__ZTIN10QtMobility27QContactActionFilterPrivateE)
    .constdata__ZTIN10QtMobility27QContactDetailFilterPrivateE 0x00038d0c   Section       12  qcontactdetailfilter.o(.constdata__ZTIN10QtMobility27QContactDetailFilterPrivateE)
    .constdata__ZTIN10QtMobility27QContactFetchRequestPrivateE 0x00038d18   Section       12  qcontactmanagerengine.o(.constdata__ZTIN10QtMobility27QContactFetchRequestPrivateE)
    .constdata__ZTIN10QtMobility27QContactLocalIdFetchRequestE 0x00038d24   Section       12  qcontactlocalidfetchrequest.o(.constdata__ZTIN10QtMobility27QContactLocalIdFetchRequestE)
    .constdata__ZTIN10QtMobility28PartialSaveRequestControllerE 0x00038d30   Section       12  moc_qcontactmanagerenginev2wrapper_p.o(.constdata__ZTIN10QtMobility28PartialSaveRequestControllerE)
    .constdata__ZTIN10QtMobility28QContactInvalidFilterPrivateE 0x00038d3c   Section       12  qcontactinvalidfilter.o(.constdata__ZTIN10QtMobility28QContactInvalidFilterPrivateE)
    .constdata__ZTIN10QtMobility28QContactLocalIdFilterPrivateE 0x00038d48   Section       12  qcontactlocalidfilter.o(.constdata__ZTIN10QtMobility28QContactLocalIdFilterPrivateE)
    .constdata__ZTIN10QtMobility28QContactManagerEngineFactoryE 0x00038d54   Section        8  qcontactmanagerenginefactory.o(.constdata__ZTIN10QtMobility28QContactManagerEngineFactoryE)
    .constdata__ZTIN10QtMobility28QContactRemoveRequestPrivateE 0x00038d5c   Section       12  qcontactmanagerengine.o(.constdata__ZTIN10QtMobility28QContactRemoveRequestPrivateE)
    .constdata__ZTIN10QtMobility30QContactAbstractRequestPrivateE 0x00038d68   Section        8  qcontactabstractrequest.o(.constdata__ZTIN10QtMobility30QContactAbstractRequestPrivateE)
    .constdata__ZTIN10QtMobility30QContactChangeLogFilterPrivateE 0x00038d70   Section       12  qcontactchangelogfilter.o(.constdata__ZTIN10QtMobility30QContactChangeLogFilterPrivateE)
    .constdata__ZTIN10QtMobility30QContactManagerEngineV2WrapperE 0x00038d7c   Section       12  moc_qcontactmanagerenginev2wrapper_p.o(.constdata__ZTIN10QtMobility30QContactManagerEngineV2WrapperE)
    .constdata__ZTIN10QtMobility31QContactFetchByIdRequestPrivateE 0x00038d88   Section       12  qcontactmanagerengine.o(.constdata__ZTIN10QtMobility31QContactFetchByIdRequestPrivateE)
    .constdata__ZTIN10QtMobility31QContactRelationshipSaveRequestE 0x00038d94   Section       12  qcontactrelationshipsaverequest.o(.constdata__ZTIN10QtMobility31QContactRelationshipSaveRequestE)
    .constdata__ZTIN10QtMobility32QContactDetailRangeFilterPrivateE 0x00038da0   Section       12  qcontactdetailrangefilter.o(.constdata__ZTIN10QtMobility32QContactDetailRangeFilterPrivateE)
    .constdata__ZTIN10QtMobility32QContactRelationshipFetchRequestE 0x00038dac   Section       12  qcontactrelationshipfetchrequest.o(.constdata__ZTIN10QtMobility32QContactRelationshipFetchRequestE)
    .constdata__ZTIN10QtMobility33QContactIntersectionFilterPrivateE 0x00038db8   Section       12  qcontactintersectionfilter.o(.constdata__ZTIN10QtMobility33QContactIntersectionFilterPrivateE)
    .constdata__ZTIN10QtMobility33QContactRelationshipFilterPrivateE 0x00038dc4   Section       12  qcontactrelationshipfilter.o(.constdata__ZTIN10QtMobility33QContactRelationshipFilterPrivateE)
    .constdata__ZTIN10QtMobility33QContactRelationshipRemoveRequestE 0x00038dd0   Section       12  qcontactrelationshipremoverequest.o(.constdata__ZTIN10QtMobility33QContactRelationshipRemoveRequestE)
    .constdata__ZTIN10QtMobility34QContactLocalIdFetchRequestPrivateE 0x00038ddc   Section       12  qcontactmanagerengine.o(.constdata__ZTIN10QtMobility34QContactLocalIdFetchRequestPrivateE)
    .constdata__ZTIN10QtMobility35QContactDetailDefinitionSaveRequestE 0x00038de8   Section       12  qcontactdetaildefinitionsaverequest.o(.constdata__ZTIN10QtMobility35QContactDetailDefinitionSaveRequestE)
    .constdata__ZTIN10QtMobility36QContactDetailDefinitionFetchRequestE 0x00038df4   Section       12  qcontactdetaildefinitionfetchrequest.o(.constdata__ZTIN10QtMobility36QContactDetailDefinitionFetchRequestE)
    .constdata__ZTIN10QtMobility37QContactDetailDefinitionRemoveRequestE 0x00038e00   Section       12  qcontactdetaildefinitionremoverequest.o(.constdata__ZTIN10QtMobility37QContactDetailDefinitionRemoveRequestE)
    .constdata__ZTIN10QtMobility38QContactRelationshipSaveRequestPrivateE 0x00038e0c   Section       12  qcontactmanagerengine.o(.constdata__ZTIN10QtMobility38QContactRelationshipSaveRequestPrivateE)
    .constdata__ZTIN10QtMobility39QContactRelationshipFetchRequestPrivateE 0x00038e18   Section       12  qcontactmanagerengine.o(.constdata__ZTIN10QtMobility39QContactRelationshipFetchRequestPrivateE)
    .constdata__ZTIN10QtMobility40QContactRelationshipRemoveRequestPrivateE 0x00038e24   Section       12  qcontactmanagerengine.o(.constdata__ZTIN10QtMobility40QContactRelationshipRemoveRequestPrivateE)
    .constdata__ZTIN10QtMobility42QContactDetailDefinitionSaveRequestPrivateE 0x00038e30   Section       12  qcontactmanagerengine.o(.constdata__ZTIN10QtMobility42QContactDetailDefinitionSaveRequestPrivateE)
    .constdata__ZTIN10QtMobility43QContactDetailDefinitionFetchRequestPrivateE 0x00038e3c   Section       12  qcontactmanagerengine.o(.constdata__ZTIN10QtMobility43QContactDetailDefinitionFetchRequestPrivateE)
    .constdata__ZTIN10QtMobility44QContactDetailDefinitionRemoveRequestPrivateE 0x00038e48   Section       12  qcontactmanagerengine.o(.constdata__ZTIN10QtMobility44QContactDetailDefinitionRemoveRequestPrivateE)
    .constdata__ZTS11QSharedData             0x00038e54   Section       14  qcontactactionfilter.o(.constdata__ZTS11QSharedData)
    .constdata__ZTSN10QtMobility14QContactActionE 0x00038e62   Section       31  qcontactaction.o(.constdata__ZTSN10QtMobility14QContactActionE)
    .constdata__ZTSN10QtMobility15QContactManagerE 0x00038e81   Section       32  qcontactmanager.o(.constdata__ZTSN10QtMobility15QContactManagerE)
    .constdata__ZTSN10QtMobility17RequestControllerE 0x00038ea1   Section       34  moc_qcontactmanagerenginev2wrapper_p.o(.constdata__ZTSN10QtMobility17RequestControllerE)
    .constdata__ZTSN10QtMobility19QContactSaveRequestE 0x00038ec3   Section       36  qcontactsaverequest.o(.constdata__ZTSN10QtMobility19QContactSaveRequestE)
    .constdata__ZTSN10QtMobility20QContactFetchRequestE 0x00038ee7   Section       37  qcontactfetchrequest.o(.constdata__ZTSN10QtMobility20QContactFetchRequestE)
    .constdata__ZTSN10QtMobility20QContactMemoryEngineE 0x00038f0c   Section       37  qcontactmemorybackend.o(.constdata__ZTSN10QtMobility20QContactMemoryEngineE)
    .constdata__ZTSN10QtMobility21QContactActionFactoryE 0x00038f31   Section       38  qcontactactionfactory.o(.constdata__ZTSN10QtMobility21QContactActionFactoryE)
    .constdata__ZTSN10QtMobility21QContactActionManagerE 0x00038f57   Section       38  qcontactactionmanager_p.o(.constdata__ZTSN10QtMobility21QContactActionManagerE)
    .constdata__ZTSN10QtMobility21QContactFilterPrivateE 0x00038f7d   Section       38  qcontactactionfilter.o(.constdata__ZTSN10QtMobility21QContactFilterPrivateE)
    .constdata__ZTSN10QtMobility21QContactInvalidEngineE 0x00038fa3   Section       38  qcontactinvalidbackend.o(.constdata__ZTSN10QtMobility21QContactInvalidEngineE)
    .constdata__ZTSN10QtMobility21QContactManagerEngineE 0x00038fc9   Section       38  qcontactmanagerengine.o(.constdata__ZTSN10QtMobility21QContactManagerEngineE)
    .constdata__ZTSN10QtMobility21QContactRemoveRequestE 0x00038fef   Section       38  qcontactremoverequest.o(.constdata__ZTSN10QtMobility21QContactRemoveRequestE)
    .constdata__ZTSN10QtMobility23QContactAbstractRequestE 0x00039015   Section       40  qcontactabstractrequest.o(.constdata__ZTSN10QtMobility23QContactAbstractRequestE)
    .constdata__ZTSN10QtMobility23QContactManagerEngineV2E 0x0003903d   Section       40  qcontactmanagerengine.o(.constdata__ZTSN10QtMobility23QContactManagerEngineV2E)
    .constdata__ZTSN10QtMobility24QContactFetchByIdRequestE 0x00039065   Section       41  qcontactfetchbyidrequest.o(.constdata__ZTSN10QtMobility24QContactFetchByIdRequestE)
    .constdata__ZTSN10QtMobility26FetchByIdRequestControllerE 0x0003908e   Section       43  moc_qcontactmanagerenginev2wrapper_p.o(.constdata__ZTSN10QtMobility26FetchByIdRequestControllerE)
    .constdata__ZTSN10QtMobility26QContactSaveRequestPrivateE 0x000390b9   Section       43  qcontactmanagerengine.o(.constdata__ZTSN10QtMobility26QContactSaveRequestPrivateE)
    .constdata__ZTSN10QtMobility26QContactUnionFilterPrivateE 0x000390e4   Section       43  qcontactunionfilter.o(.constdata__ZTSN10QtMobility26QContactUnionFilterPrivateE)
    .constdata__ZTSN10QtMobility27QContactActionFilterPrivateE 0x0003910f   Section       44  qcontactactionfilter.o(.constdata__ZTSN10QtMobility27QContactActionFilterPrivateE)
    .constdata__ZTSN10QtMobility27QContactDetailFilterPrivateE 0x0003913b   Section       44  qcontactdetailfilter.o(.constdata__ZTSN10QtMobility27QContactDetailFilterPrivateE)
    .constdata__ZTSN10QtMobility27QContactFetchRequestPrivateE 0x00039167   Section       44  qcontactmanagerengine.o(.constdata__ZTSN10QtMobility27QContactFetchRequestPrivateE)
    .constdata__ZTSN10QtMobility27QContactLocalIdFetchRequestE 0x00039193   Section       44  qcontactlocalidfetchrequest.o(.constdata__ZTSN10QtMobility27QContactLocalIdFetchRequestE)
    .constdata__ZTSN10QtMobility28PartialSaveRequestControllerE 0x000391bf   Section       45  moc_qcontactmanagerenginev2wrapper_p.o(.constdata__ZTSN10QtMobility28PartialSaveRequestControllerE)
    .constdata__ZTSN10QtMobility28QContactInvalidFilterPrivateE 0x000391ec   Section       45  qcontactinvalidfilter.o(.constdata__ZTSN10QtMobility28QContactInvalidFilterPrivateE)
    .constdata__ZTSN10QtMobility28QContactLocalIdFilterPrivateE 0x00039219   Section       45  qcontactlocalidfilter.o(.constdata__ZTSN10QtMobility28QContactLocalIdFilterPrivateE)
    .constdata__ZTSN10QtMobility28QContactManagerEngineFactoryE 0x00039246   Section       45  qcontactmanagerenginefactory.o(.constdata__ZTSN10QtMobility28QContactManagerEngineFactoryE)
    .constdata__ZTSN10QtMobility28QContactRemoveRequestPrivateE 0x00039273   Section       45  qcontactmanagerengine.o(.constdata__ZTSN10QtMobility28QContactRemoveRequestPrivateE)
    .constdata__ZTSN10QtMobility30QContactAbstractRequestPrivateE 0x000392a0   Section       47  qcontactabstractrequest.o(.constdata__ZTSN10QtMobility30QContactAbstractRequestPrivateE)
    .constdata__ZTSN10QtMobility30QContactChangeLogFilterPrivateE 0x000392cf   Section       47  qcontactchangelogfilter.o(.constdata__ZTSN10QtMobility30QContactChangeLogFilterPrivateE)
    .constdata__ZTSN10QtMobility30QContactManagerEngineV2WrapperE 0x000392fe   Section       47  moc_qcontactmanagerenginev2wrapper_p.o(.constdata__ZTSN10QtMobility30QContactManagerEngineV2WrapperE)
    .constdata__ZTSN10QtMobility31QContactFetchByIdRequestPrivateE 0x0003932d   Section       48  qcontactmanagerengine.o(.constdata__ZTSN10QtMobility31QContactFetchByIdRequestPrivateE)
    .constdata__ZTSN10QtMobility31QContactRelationshipSaveRequestE 0x0003935d   Section       48  qcontactrelationshipsaverequest.o(.constdata__ZTSN10QtMobility31QContactRelationshipSaveRequestE)
    .constdata__ZTSN10QtMobility32QContactDetailRangeFilterPrivateE 0x0003938d   Section       49  qcontactdetailrangefilter.o(.constdata__ZTSN10QtMobility32QContactDetailRangeFilterPrivateE)
    .constdata__ZTSN10QtMobility32QContactRelationshipFetchRequestE 0x000393be   Section       49  qcontactrelationshipfetchrequest.o(.constdata__ZTSN10QtMobility32QContactRelationshipFetchRequestE)
    .constdata__ZTSN10QtMobility33QContactIntersectionFilterPrivateE 0x000393ef   Section       50  qcontactintersectionfilter.o(.constdata__ZTSN10QtMobility33QContactIntersectionFilterPrivateE)
    .constdata__ZTSN10QtMobility33QContactRelationshipFilterPrivateE 0x00039421   Section       50  qcontactrelationshipfilter.o(.constdata__ZTSN10QtMobility33QContactRelationshipFilterPrivateE)
    .constdata__ZTSN10QtMobility33QContactRelationshipRemoveRequestE 0x00039453   Section       50  qcontactrelationshipremoverequest.o(.constdata__ZTSN10QtMobility33QContactRelationshipRemoveRequestE)
    .constdata__ZTSN10QtMobility34QContactLocalIdFetchRequestPrivateE 0x00039485   Section       51  qcontactmanagerengine.o(.constdata__ZTSN10QtMobility34QContactLocalIdFetchRequestPrivateE)
    .constdata__ZTSN10QtMobility35QContactDetailDefinitionSaveRequestE 0x000394b8   Section       52  qcontactdetaildefinitionsaverequest.o(.constdata__ZTSN10QtMobility35QContactDetailDefinitionSaveRequestE)
    .constdata__ZTSN10QtMobility36QContactDetailDefinitionFetchRequestE 0x000394ec   Section       53  qcontactdetaildefinitionfetchrequest.o(.constdata__ZTSN10QtMobility36QContactDetailDefinitionFetchRequestE)
    .constdata__ZTSN10QtMobility37QContactDetailDefinitionRemoveRequestE 0x00039521   Section       54  qcontactdetaildefinitionremoverequest.o(.constdata__ZTSN10QtMobility37QContactDetailDefinitionRemoveRequestE)
    .constdata__ZTSN10QtMobility38QContactRelationshipSaveRequestPrivateE 0x00039557   Section       55  qcontactmanagerengine.o(.constdata__ZTSN10QtMobility38QContactRelationshipSaveRequestPrivateE)
    .constdata__ZTSN10QtMobility39QContactRelationshipFetchRequestPrivateE 0x0003958e   Section       56  qcontactmanagerengine.o(.constdata__ZTSN10QtMobility39QContactRelationshipFetchRequestPrivateE)
    .constdata__ZTSN10QtMobility40QContactRelationshipRemoveRequestPrivateE 0x000395c6   Section       57  qcontactmanagerengine.o(.constdata__ZTSN10QtMobility40QContactRelationshipRemoveRequestPrivateE)
    .constdata__ZTSN10QtMobility42QContactDetailDefinitionSaveRequestPrivateE 0x000395ff   Section       59  qcontactmanagerengine.o(.constdata__ZTSN10QtMobility42QContactDetailDefinitionSaveRequestPrivateE)
    .constdata__ZTSN10QtMobility43QContactDetailDefinitionFetchRequestPrivateE 0x0003963a   Section       60  qcontactmanagerengine.o(.constdata__ZTSN10QtMobility43QContactDetailDefinitionFetchRequestPrivateE)
    .constdata__ZTSN10QtMobility44QContactDetailDefinitionRemoveRequestPrivateE 0x00039676   Section       61  qcontactmanagerengine.o(.constdata__ZTSN10QtMobility44QContactDetailDefinitionRemoveRequestPrivateE)
    .constdata__ZTVN10QtMobility14QContactActionE 0x000396b4   Section       68  qcontactaction.o(.constdata__ZTVN10QtMobility14QContactActionE)
    .constdata__ZTVN10QtMobility15QContactManagerE 0x000396f8   Section       56  qcontactmanager.o(.constdata__ZTVN10QtMobility15QContactManagerE)
    .constdata__ZTVN10QtMobility17RequestControllerE 0x00039730   Section       64  moc_qcontactmanagerenginev2wrapper_p.o(.constdata__ZTVN10QtMobility17RequestControllerE)
    .constdata__ZTVN10QtMobility19QContactSaveRequestE 0x00039770   Section       56  qcontactsaverequest.o(.constdata__ZTVN10QtMobility19QContactSaveRequestE)
    .constdata__ZTVN10QtMobility20QContactFetchRequestE 0x000397a8   Section       56  qcontactfetchrequest.o(.constdata__ZTVN10QtMobility20QContactFetchRequestE)
    .constdata__ZTVN10QtMobility20QContactMemoryEngineE 0x000397e0   Section      216  qcontactmemorybackend.o(.constdata__ZTVN10QtMobility20QContactMemoryEngineE)
    .constdata__ZTVN10QtMobility21QContactActionFactoryE 0x000398b8   Section       80  qcontactactionfactory.o(.constdata__ZTVN10QtMobility21QContactActionFactoryE)
    .constdata__ZTVN10QtMobility21QContactActionManagerE 0x00039908   Section       56  qcontactactionmanager_p.o(.constdata__ZTVN10QtMobility21QContactActionManagerE)
    .constdata__ZTVN10QtMobility21QContactFilterPrivateE 0x00039940   Section       36  qcontactactionfilter.o(.constdata__ZTVN10QtMobility21QContactFilterPrivateE)
    .constdata__ZTVN10QtMobility21QContactInvalidEngineE 0x00039964   Section      200  qcontactinvalidbackend.o(.constdata__ZTVN10QtMobility21QContactInvalidEngineE)
    .constdata__ZTVN10QtMobility21QContactManagerEngineE 0x00039a2c   Section      192  qcontactmanagerengine.o(.constdata__ZTVN10QtMobility21QContactManagerEngineE)
    .constdata__ZTVN10QtMobility21QContactRemoveRequestE 0x00039aec   Section       56  qcontactremoverequest.o(.constdata__ZTVN10QtMobility21QContactRemoveRequestE)
    .constdata__ZTVN10QtMobility23QContactAbstractRequestE 0x00039b24   Section       56  qcontactabstractrequest.o(.constdata__ZTVN10QtMobility23QContactAbstractRequestE)
    .constdata__ZTVN10QtMobility23QContactManagerEngineV2E 0x00039b5c   Section      200  qcontactmanagerengine.o(.constdata__ZTVN10QtMobility23QContactManagerEngineV2E)
    .constdata__ZTVN10QtMobility24QContactFetchByIdRequestE 0x00039c24   Section       56  qcontactfetchbyidrequest.o(.constdata__ZTVN10QtMobility24QContactFetchByIdRequestE)
    .constdata__ZTVN10QtMobility26FetchByIdRequestControllerE 0x00039c5c   Section       64  moc_qcontactmanagerenginev2wrapper_p.o(.constdata__ZTVN10QtMobility26FetchByIdRequestControllerE)
    .constdata__ZTVN10QtMobility26QContactSaveRequestPrivateE 0x00039c9c   Section       20  qcontactmanagerengine.o(.constdata__ZTVN10QtMobility26QContactSaveRequestPrivateE)
    .constdata__ZTVN10QtMobility26QContactUnionFilterPrivateE 0x00039cb0   Section       36  qcontactunionfilter.o(.constdata__ZTVN10QtMobility26QContactUnionFilterPrivateE)
    .constdata__ZTVN10QtMobility27QContactActionFilterPrivateE 0x00039cd4   Section       36  qcontactactionfilter.o(.constdata__ZTVN10QtMobility27QContactActionFilterPrivateE)
    .constdata__ZTVN10QtMobility27QContactDetailFilterPrivateE 0x00039cf8   Section       36  qcontactdetailfilter.o(.constdata__ZTVN10QtMobility27QContactDetailFilterPrivateE)
    .constdata__ZTVN10QtMobility27QContactFetchRequestPrivateE 0x00039d1c   Section       20  qcontactmanagerengine.o(.constdata__ZTVN10QtMobility27QContactFetchRequestPrivateE)
    .constdata__ZTVN10QtMobility27QContactLocalIdFetchRequestE 0x00039d30   Section       56  qcontactlocalidfetchrequest.o(.constdata__ZTVN10QtMobility27QContactLocalIdFetchRequestE)
    .constdata__ZTVN10QtMobility28PartialSaveRequestControllerE 0x00039d68   Section       64  moc_qcontactmanagerenginev2wrapper_p.o(.constdata__ZTVN10QtMobility28PartialSaveRequestControllerE)
    .constdata__ZTVN10QtMobility28QContactInvalidFilterPrivateE 0x00039da8   Section       36  qcontactinvalidfilter.o(.constdata__ZTVN10QtMobility28QContactInvalidFilterPrivateE)
    .constdata__ZTVN10QtMobility28QContactLocalIdFilterPrivateE 0x00039dcc   Section       36  qcontactlocalidfilter.o(.constdata__ZTVN10QtMobility28QContactLocalIdFilterPrivateE)
    .constdata__ZTVN10QtMobility28QContactManagerEngineFactoryE 0x00039df0   Section       28  qcontactmanagerenginefactory.o(.constdata__ZTVN10QtMobility28QContactManagerEngineFactoryE)
    .constdata__ZTVN10QtMobility28QContactRemoveRequestPrivateE 0x00039e0c   Section       20  qcontactmanagerengine.o(.constdata__ZTVN10QtMobility28QContactRemoveRequestPrivateE)
    .constdata__ZTVN10QtMobility30QContactAbstractRequestPrivateE 0x00039e20   Section       20  qcontactabstractrequest.o(.constdata__ZTVN10QtMobility30QContactAbstractRequestPrivateE)
    .constdata__ZTVN10QtMobility30QContactChangeLogFilterPrivateE 0x00039e34   Section       36  qcontactchangelogfilter.o(.constdata__ZTVN10QtMobility30QContactChangeLogFilterPrivateE)
    .constdata__ZTVN10QtMobility30QContactManagerEngineV2WrapperE 0x00039e58   Section      200  moc_qcontactmanagerenginev2wrapper_p.o(.constdata__ZTVN10QtMobility30QContactManagerEngineV2WrapperE)
    .constdata__ZTVN10QtMobility31QContactFetchByIdRequestPrivateE 0x00039f20   Section       20  qcontactmanagerengine.o(.constdata__ZTVN10QtMobility31QContactFetchByIdRequestPrivateE)
    .constdata__ZTVN10QtMobility31QContactRelationshipSaveRequestE 0x00039f34   Section       56  qcontactrelationshipsaverequest.o(.constdata__ZTVN10QtMobility31QContactRelationshipSaveRequestE)
    .constdata__ZTVN10QtMobility32QContactDetailRangeFilterPrivateE 0x00039f6c   Section       36  qcontactdetailrangefilter.o(.constdata__ZTVN10QtMobility32QContactDetailRangeFilterPrivateE)
    .constdata__ZTVN10QtMobility32QContactRelationshipFetchRequestE 0x00039f90   Section       56  qcontactrelationshipfetchrequest.o(.constdata__ZTVN10QtMobility32QContactRelationshipFetchRequestE)
    .constdata__ZTVN10QtMobility33QContactIntersectionFilterPrivateE 0x00039fc8   Section       36  qcontactintersectionfilter.o(.constdata__ZTVN10QtMobility33QContactIntersectionFilterPrivateE)
    .constdata__ZTVN10QtMobility33QContactRelationshipFilterPrivateE 0x00039fec   Section       36  qcontactrelationshipfilter.o(.constdata__ZTVN10QtMobility33QContactRelationshipFilterPrivateE)
    .constdata__ZTVN10QtMobility33QContactRelationshipRemoveRequestE 0x0003a010   Section       56  qcontactrelationshipremoverequest.o(.constdata__ZTVN10QtMobility33QContactRelationshipRemoveRequestE)
    .constdata__ZTVN10QtMobility34QContactLocalIdFetchRequestPrivateE 0x0003a048   Section       20  qcontactmanagerengine.o(.constdata__ZTVN10QtMobility34QContactLocalIdFetchRequestPrivateE)
    .constdata__ZTVN10QtMobility35QContactDetailDefinitionSaveRequestE 0x0003a05c   Section       56  qcontactdetaildefinitionsaverequest.o(.constdata__ZTVN10QtMobility35QContactDetailDefinitionSaveRequestE)
    .constdata__ZTVN10QtMobility36QContactDetailDefinitionFetchRequestE 0x0003a094   Section       56  qcontactdetaildefinitionfetchrequest.o(.constdata__ZTVN10QtMobility36QContactDetailDefinitionFetchRequestE)
    .constdata__ZTVN10QtMobility37QContactDetailDefinitionRemoveRequestE 0x0003a0cc   Section       56  qcontactdetaildefinitionremoverequest.o(.constdata__ZTVN10QtMobility37QContactDetailDefinitionRemoveRequestE)
    .constdata__ZTVN10QtMobility38QContactRelationshipSaveRequestPrivateE 0x0003a104   Section       20  qcontactmanagerengine.o(.constdata__ZTVN10QtMobility38QContactRelationshipSaveRequestPrivateE)
    .constdata__ZTVN10QtMobility39QContactRelationshipFetchRequestPrivateE 0x0003a118   Section       20  qcontactmanagerengine.o(.constdata__ZTVN10QtMobility39QContactRelationshipFetchRequestPrivateE)
    .constdata__ZTVN10QtMobility40QContactRelationshipRemoveRequestPrivateE 0x0003a12c   Section       20  qcontactmanagerengine.o(.constdata__ZTVN10QtMobility40QContactRelationshipRemoveRequestPrivateE)
    .constdata__ZTVN10QtMobility42QContactDetailDefinitionSaveRequestPrivateE 0x0003a140   Section       20  qcontactmanagerengine.o(.constdata__ZTVN10QtMobility42QContactDetailDefinitionSaveRequestPrivateE)
    .constdata__ZTVN10QtMobility43QContactDetailDefinitionFetchRequestPrivateE 0x0003a154   Section       20  qcontactmanagerengine.o(.constdata__ZTVN10QtMobility43QContactDetailDefinitionFetchRequestPrivateE)
    .constdata__ZTVN10QtMobility44QContactDetailDefinitionRemoveRequestPrivateE 0x0003a168   Section       20  qcontactmanagerengine.o(.constdata__ZTVN10QtMobility44QContactDetailDefinitionRemoveRequestPrivateE)
    .init_array                              0x0003a17c   Section        4  qcontactdetail.o(.init_array)
    .init_array                              0x0003a180   Section        4  qcontactmanager_p.o(.init_array)
    .init_array                              0x0003a184   Section        4  qcontactmemorybackend.o(.init_array)
    .ARM.exidx                               0x0003a188   Section        8  ucppinit.o(.ARM.exidx)
    .data$0                                  0x00400000   Data           0  qcontactactionmanager_p.o(.data)
    QtMobility::this_contactActionManagerInstance 0x00400000   Data           8  qcontactactionmanager_p.o(.data)
    .data                                    0x00400000   Section       16  qcontactactionmanager_p.o(.data)
    _ZGVcleanup@_ZN10QtMobility28contactActionManagerInstanceEv_0 0x00400008   Data           4  qcontactactionmanager_p.o(.data)
    cleanup@_ZN10QtMobility28contactActionManagerInstanceEv_1 0x0040000c   Data           4  qcontactactionmanager_p.o(.data)
    .data$0                                  0x00400010   Data           0  qcontactdetail.o(.data)
    .data                                    0x00400010   Section       13  qcontactdetail.o(.data)
    .data$0                                  0x00400020   Data           0  qcontactmanager_p.o(.data)
    .data                                    0x00400020   Section       20  qcontactmanager_p.o(.data)
    .data$0                                  0x00400034   Data           0  qcontactmemorybackend.o(.data)
    .data                                    0x00400034   Section        4  qcontactmemorybackend.o(.data)
    .data$0                                  0x00400038   Data           0  ucppfini.o(.data)
    .data                                    0x00400038   Section        4  ucppfini.o(.data)
    .data__ZNSt19_Atomic_swap_structILi1EE12_S_swap_lockE 0x0040003c   Section       12  moc_qcontactmanagerenginev2wrapper_p.o(.data__ZNSt19_Atomic_swap_structILi1EE12_S_swap_lockE)
    .bss$5                                   0x00400048   Data           0  ucppfini.o(.bss)
    .bss                                     0x00400048   Section     2048  ucppfini.o(.bss)

    Global Symbols

    Symbol Name                              Value     Ov Type        Size  Object(Section)

    BuildAttributes$$THUMB_ISAv2$ARM_ISAv5$M$VFPv2$PE$A:L22$X:L11$S22$IEEE1$IW$USESV6$~STKCKD$USESV7$~SHL$OSPACE$ROPI$IEEEJ$EBA8$UX$FPIC$INDIRECT$REQ8$PRES8$EABIv2 0x00000000   Number         0  anon$$obj.o ABSOLUTE
    QtContacts{00010103}[2002ac7a].dll       0x00000000   Data           0  anon$$obj.o ABSOLUTE
    QtCore{00040703}[2001b2dc].dll           0x00000000   Data           0  anon$$obj.o ABSOLUTE
    dfpaeabi{000a0000}.dll                   0x00000000   Data           0  anon$$obj.o ABSOLUTE
    drtaeabi{000a0000}.dll                   0x00000000   Data           0  anon$$obj.o ABSOLUTE
    efsrv{000a0000}[100039e4].dll            0x00000000   Data           0  anon$$obj.o ABSOLUTE
    euser{000a0000}[100039e5].dll            0x00000000   Data           0  anon$$obj.o ABSOLUTE
    libc{00010001}[10207369].dll             0x00000000   Data           0  anon$$obj.o ABSOLUTE
    stdnew{000a0000}[20022178].dll           0x00000000   Data           0  anon$$obj.o ABSOLUTE
    qAddPostRoutine(void(*)())                - Undefined Reference
    _Z15qAddPostRoutinePFvvE@QtCore{00040703}[2001b2dc].dll  - Undefined Reference
    qt_message_output(QtMsgType, const char*)  - Undefined Reference
    _Z17qt_message_output9QtMsgTypePKc@QtCore{00040703}[2001b2dc].dll  - Undefined Reference
    qt_symbian_throwIfError(int)              - Undefined Reference
    _Z23qt_symbian_throwIfErrori@QtCore{00040703}[2001b2dc].dll  - Undefined Reference
    QBasicAtomicInt_fetchAndAddOrdered(volatile int*, int)  - Undefined Reference
    _Z34QBasicAtomicInt_fetchAndAddOrderedPVii@QtCore{00040703}[2001b2dc].dll  - Undefined Reference
    QBasicAtomicPointer_testAndSetOrdered(void*volatile *, void*, void*)  - Undefined Reference
    _Z37QBasicAtomicPointer_testAndSetOrderedPVPvS_S_@QtCore{00040703}[2001b2dc].dll  - Undefined Reference
    qFree(void*)                              - Undefined Reference
    _Z5qFreePv@QtCore{00040703}[2001b2dc].dll  - Undefined Reference
    qHash(const QString&)                     - Undefined Reference
    _Z5qHashRK7QString@QtCore{00040703}[2001b2dc].dll  - Undefined Reference
    qstrcmp(const char*, const char*)         - Undefined Reference
    _Z7qstrcmpPKcS0_@QtCore{00040703}[2001b2dc].dll  - Undefined Reference
    qstrdup(const char*)                      - Undefined Reference
    _Z7qstrdupPKc@QtCore{00040703}[2001b2dc].dll  - Undefined Reference
    QByteArray::realloc(int)                  - Undefined Reference
    _ZN10QByteArray7reallocEi@QtCore{00040703}[2001b2dc].dll  - Undefined Reference
    QDataStream::resetStatus()                - Undefined Reference
    _ZN11QDataStream11resetStatusEv@QtCore{00040703}[2001b2dc].dll  - Undefined Reference
    QDataStream::setStatus(QDataStream::Status)  - Undefined Reference
    _ZN11QDataStream9setStatusENS_6StatusE@QtCore{00040703}[2001b2dc].dll  - Undefined Reference
    QDataStream::operator <<(signed char)     - Undefined Reference
    _ZN11QDataStreamlsEa@QtCore{00040703}[2001b2dc].dll  - Undefined Reference
    QDataStream::operator <<(bool)            - Undefined Reference
    _ZN11QDataStreamlsEb@QtCore{00040703}[2001b2dc].dll  - Undefined Reference
    QDataStream::operator <<(int)             - Undefined Reference
    _ZN11QDataStreamlsEi@QtCore{00040703}[2001b2dc].dll  - Undefined Reference
    QDataStream::operator >>(signed char&)    - Undefined Reference
    _ZN11QDataStreamrsERa@QtCore{00040703}[2001b2dc].dll  - Undefined Reference
    QDataStream::operator >>(bool&)           - Undefined Reference
    _ZN11QDataStreamrsERb@QtCore{00040703}[2001b2dc].dll  - Undefined Reference
    QDataStream::operator >>(int&)            - Undefined Reference
    _ZN11QDataStreamrsERi@QtCore{00040703}[2001b2dc].dll  - Undefined Reference
    QMetaObject::changeGuard(QObject**, QObject*)  - Undefined Reference
    _ZN11QMetaObject11changeGuardEPP7QObjectS1_@QtCore{00040703}[2001b2dc].dll  - Undefined Reference
    QMetaObject::removeGuard(QObject**)       - Undefined Reference
    _ZN11QMetaObject11removeGuardEPP7QObject@QtCore{00040703}[2001b2dc].dll  - Undefined Reference
    QMetaObject::activate(QObject*, const QMetaObject*, int, void**)  - Undefined Reference
    _ZN11QMetaObject8activateEP7QObjectPKS_iPPv@QtCore{00040703}[2001b2dc].dll  - Undefined Reference
    QMetaObject::addGuard(QObject**)          - Undefined Reference
    _ZN11QMetaObject8addGuardEPP7QObject@QtCore{00040703}[2001b2dc].dll  - Undefined Reference
    QTextStream::QTextStream(QString*, QFlags<QIODevice::OpenModeFlag>)  - Undefined Reference
    _ZN11QTextStreamC1EP7QString6QFlagsIN9QIODevice12OpenModeFlagEE@QtCore{00040703}[2001b2dc].dll  - Undefined Reference
    QTextStream::~QTextStream()               - Undefined Reference
    _ZN11QTextStreamD1Ev@QtCore{00040703}[2001b2dc].dll  - Undefined Reference
    QTextStream::operator <<(const QString&)  - Undefined Reference
    _ZN11QTextStreamlsERK7QString@QtCore{00040703}[2001b2dc].dll  - Undefined Reference
    QTextStream::operator <<(char)            - Undefined Reference
    _ZN11QTextStreamlsEc@QtCore{00040703}[2001b2dc].dll  - Undefined Reference
    QTextStream::operator <<(int)             - Undefined Reference
    _ZN11QTextStreamlsEi@QtCore{00040703}[2001b2dc].dll  - Undefined Reference
    QTextStream::operator <<(unsigned)        - Undefined Reference
    _ZN11QTextStreamlsEj@QtCore{00040703}[2001b2dc].dll  - Undefined Reference
    QPluginLoader::staticInstances()          - Undefined Reference
    _ZN13QPluginLoader15staticInstancesEv@QtCore{00040703}[2001b2dc].dll  - Undefined Reference
    QPluginLoader::instance()                 - Undefined Reference
    _ZN13QPluginLoader8instanceEv@QtCore{00040703}[2001b2dc].dll  - Undefined Reference
    QPluginLoader::QPluginLoader(const QString&, QObject*)  - Undefined Reference
    _ZN13QPluginLoaderC1ERK7QStringP7QObject@QtCore{00040703}[2001b2dc].dll  - Undefined Reference
    QPluginLoader::~QPluginLoader()           - Undefined Reference
    _ZN13QPluginLoaderD1Ev@QtCore{00040703}[2001b2dc].dll  - Undefined Reference
    QtSharedPointer::ExternalRefCountData::getAndRef(const QObject*)  - Undefined Reference
    _ZN15QtSharedPointer20ExternalRefCountData9getAndRefEPK7QObject@QtCore{00040703}[2001b2dc].dll  - Undefined Reference
    QCoreApplication::libraryPaths()          - Undefined Reference
    _ZN16QCoreApplication12libraryPathsEv@QtCore{00040703}[2001b2dc].dll  - Undefined Reference
    QCoreApplication::applicationDirPath()    - Undefined Reference
    _ZN16QCoreApplication18applicationDirPathEv@QtCore{00040703}[2001b2dc].dll  - Undefined Reference
    RFs::Close()                              - Undefined Reference
    _ZN3RFs5CloseEv@efsrv{000a0000}[100039e4].dll  - Undefined Reference
    RFs::Connect(int)                         - Undefined Reference
    _ZN3RFs7ConnectEi@efsrv{000a0000}[100039e4].dll  - Undefined Reference
    QDir::toNativeSeparators(const QString&)  - Undefined Reference
    _ZN4QDir18toNativeSeparatorsERK7QString@QtCore{00040703}[2001b2dc].dll  - Undefined Reference
    QDir::cd(const QString&)                  - Undefined Reference
    _ZN4QDir2cdERK7QString@QtCore{00040703}[2001b2dc].dll  - Undefined Reference
    QDir::QDir(const QString&)                - Undefined Reference
    _ZN4QDirC1ERK7QString@QtCore{00040703}[2001b2dc].dll  - Undefined Reference
    QDir::~QDir()                             - Undefined Reference
    _ZN4QDirD1Ev@QtCore{00040703}[2001b2dc].dll  - Undefined Reference
    User::LockedDec(int&)                     - Undefined Reference
    _ZN4User9LockedDecERi@euser{000a0000}[100039e5].dll  - Undefined Reference
    User::LockedInc(int&)                     - Undefined Reference
    _ZN4User9LockedIncERi@euser{000a0000}[100039e5].dll  - Undefined Reference
    QUuid::createUuid()                       - Undefined Reference
    _ZN5QUuid10createUuidEv@QtCore{00040703}[2001b2dc].dll  - Undefined Reference
    QMutex::lock()                            - Undefined Reference
    _ZN6QMutex4lockEv@QtCore{00040703}[2001b2dc].dll  - Undefined Reference
    QMutex::unlock()                          - Undefined Reference
    _ZN6QMutex6unlockEv@QtCore{00040703}[2001b2dc].dll  - Undefined Reference
    QMutex::QMutex(QMutex::RecursionMode)     - Undefined Reference
    _ZN6QMutexC1ENS_13RecursionModeE@QtCore{00040703}[2001b2dc].dll  - Undefined Reference
    QMutex::~QMutex()                         - Undefined Reference
    _ZN6QMutexD1Ev@QtCore{00040703}[2001b2dc].dll  - Undefined Reference
    QObject::childEvent(QChildEvent*)         - Undefined Reference
    _ZN7QObject10childEventEP11QChildEvent@QtCore{00040703}[2001b2dc].dll  - Undefined Reference
    QObject::timerEvent(QTimerEvent*)         - Undefined Reference
    _ZN7QObject10timerEventEP11QTimerEvent@QtCore{00040703}[2001b2dc].dll  - Undefined Reference
    QObject::customEvent(QEvent*)             - Undefined Reference
    _ZN7QObject11customEventEP6QEvent@QtCore{00040703}[2001b2dc].dll  - Undefined Reference
    QObject::eventFilter(QObject*, QEvent*)   - Undefined Reference
    _ZN7QObject11eventFilterEPS_P6QEvent@QtCore{00040703}[2001b2dc].dll  - Undefined Reference
    QObject::qt_metacall(QMetaObject::Call, int, void**)  - Undefined Reference
    _ZN7QObject11qt_metacallEN11QMetaObject4CallEiPPv@QtCore{00040703}[2001b2dc].dll  - Undefined Reference
    QObject::qt_metacast(const char*)         - Undefined Reference
    _ZN7QObject11qt_metacastEPKc@QtCore{00040703}[2001b2dc].dll  - Undefined Reference
    QObject::connectNotify(const char*)       - Undefined Reference
    _ZN7QObject13connectNotifyEPKc@QtCore{00040703}[2001b2dc].dll  - Undefined Reference
    QObject::disconnectNotify(const char*)    - Undefined Reference
    _ZN7QObject16disconnectNotifyEPKc@QtCore{00040703}[2001b2dc].dll  - Undefined Reference
    QObject::staticMetaObject                 - Undefined Reference
    _ZN7QObject16staticMetaObjectE@QtCore{00040703}[2001b2dc].dll  - Undefined Reference
    QObject::event(QEvent*)                   - Undefined Reference
    _ZN7QObject5eventEP6QEvent@QtCore{00040703}[2001b2dc].dll  - Undefined Reference
    QObject::connect(const QObject*, const char*, const QObject*, const char*, Qt::ConnectionType)  - Undefined Reference
    _ZN7QObject7connectEPKS_PKcS1_S3_N2Qt14ConnectionTypeE@QtCore{00040703}[2001b2dc].dll  - Undefined Reference
    QObject::QObject(QObject*)                - Undefined Reference
    _ZN7QObjectC1EPS_@QtCore{00040703}[2001b2dc].dll  - Undefined Reference
    QObject::~QObject()                       - Undefined Reference
    _ZN7QObjectD1Ev@QtCore{00040703}[2001b2dc].dll  - Undefined Reference
    QRegExp::QRegExp(const QString&, Qt::CaseSensitivity, QRegExp::PatternSyntax)  - Undefined Reference
    _ZN7QRegExpC1ERK7QStringN2Qt15CaseSensitivityENS_13PatternSyntaxE@QtCore{00040703}[2001b2dc].dll  - Undefined Reference
    QRegExp::~QRegExp()                       - Undefined Reference
    _ZN7QRegExpD1Ev@QtCore{00040703}[2001b2dc].dll  - Undefined Reference
    QString::fromLatin1(const char*, int)     - Undefined Reference
    _ZN7QString10fromLatin1EPKci@QtCore{00040703}[2001b2dc].dll  - Undefined Reference
    QString::shared_null                      - Undefined Reference
    _ZN7QString11shared_nullE@QtCore{00040703}[2001b2dc].dll  - Undefined Reference
    QString::fromLatin1_helper(const char*, int)  - Undefined Reference
    _ZN7QString17fromLatin1_helperEPKci@QtCore{00040703}[2001b2dc].dll  - Undefined Reference
    QString::free(QString::Data*)             - Undefined Reference
    _ZN7QString4freeEPNS_4DataE@QtCore{00040703}[2001b2dc].dll  - Undefined Reference
    QString::grow(int)                        - Undefined Reference
    _ZN7QString4growEi@QtCore{00040703}[2001b2dc].dll  - Undefined Reference
    QString::append(QChar)                    - Undefined Reference
    _ZN7QString6appendE5QChar@QtCore{00040703}[2001b2dc].dll  - Undefined Reference
    QString::append(const QLatin1String&)     - Undefined Reference
    _ZN7QString6appendERK13QLatin1String@QtCore{00040703}[2001b2dc].dll  - Undefined Reference
    QString::append(const QString&)           - Undefined Reference
    _ZN7QString6appendERKS_@QtCore{00040703}[2001b2dc].dll  - Undefined Reference
    QString::number(int, int)                 - Undefined Reference
    _ZN7QString6numberEii@QtCore{00040703}[2001b2dc].dll  - Undefined Reference
    QString::realloc(int)                     - Undefined Reference
    _ZN7QString7reallocEi@QtCore{00040703}[2001b2dc].dll  - Undefined Reference
    QString::replace(QChar, const QLatin1String&, Qt::CaseSensitivity)  - Undefined Reference
    _ZN7QString7replaceE5QCharRK13QLatin1StringN2Qt15CaseSensitivityE@QtCore{00040703}[2001b2dc].dll  - Undefined Reference
    QString::replace(const QLatin1String&, const QLatin1String&, Qt::CaseSensitivity)  - Undefined Reference
    _ZN7QString7replaceERK13QLatin1StringS2_N2Qt15CaseSensitivityE@QtCore{00040703}[2001b2dc].dll  - Undefined Reference
    QString::fromAscii(const char*, int)      - Undefined Reference
    _ZN7QString9fromAsciiEPKci@QtCore{00040703}[2001b2dc].dll  - Undefined Reference
    QString::operator =(const QString&)       - Undefined Reference
    _ZN7QStringaSERKS_@QtCore{00040703}[2001b2dc].dll  - Undefined Reference
    TPtrC16::TPtrC16(const unsigned short*, int)  - Undefined Reference
    _ZN7TPtrC16C1EPKti@euser{000a0000}[100039e5].dll  - Undefined Reference
    QMapData::createData(int)                 - Undefined Reference
    _ZN8QMapData10createDataEi@QtCore{00040703}[2001b2dc].dll  - Undefined Reference
    QMapData::node_create(QMapData::Node**, int, int)  - Undefined Reference
    _ZN8QMapData11node_createEPPNS_4NodeEii@QtCore{00040703}[2001b2dc].dll  - Undefined Reference
    QMapData::node_delete(QMapData::Node**, int, QMapData::Node*)  - Undefined Reference
    _ZN8QMapData11node_deleteEPPNS_4NodeEiS1_@QtCore{00040703}[2001b2dc].dll  - Undefined Reference
    QMapData::shared_null                     - Undefined Reference
    _ZN8QMapData11shared_nullE@QtCore{00040703}[2001b2dc].dll  - Undefined Reference
    QMapData::continueFreeData(int)           - Undefined Reference
    _ZN8QMapData16continueFreeDataEi@QtCore{00040703}[2001b2dc].dll  - Undefined Reference
    QVariant::handler                         - Undefined Reference
    _ZN8QVariant7handlerE@QtCore{00040703}[2001b2dc].dll  - Undefined Reference
    QVariant::QVariant(const QStringList&)    - Undefined Reference
    _ZN8QVariantC1ERK11QStringList@QtCore{00040703}[2001b2dc].dll  - Undefined Reference
    QVariant::QVariant(const QList<QVariant>&)  - Undefined Reference
    _ZN8QVariantC1ERK5QListIS_E@QtCore{00040703}[2001b2dc].dll  - Undefined Reference
    QVariant::QVariant(const QString&)        - Undefined Reference
    _ZN8QVariantC1ERK7QString@QtCore{00040703}[2001b2dc].dll  - Undefined Reference
    QVariant::QVariant(const QDateTime&)      - Undefined Reference
    _ZN8QVariantC1ERK9QDateTime@QtCore{00040703}[2001b2dc].dll  - Undefined Reference
    QVariant::QVariant(const QVariant&)       - Undefined Reference
    _ZN8QVariantC1ERKS_@QtCore{00040703}[2001b2dc].dll  - Undefined Reference
    QVariant::QVariant(int)                   - Undefined Reference
    _ZN8QVariantC1Ei@QtCore{00040703}[2001b2dc].dll  - Undefined Reference
    QVariant::~QVariant()                     - Undefined Reference
    _ZN8QVariantD1Ev@QtCore{00040703}[2001b2dc].dll  - Undefined Reference
    QVariant::operator =(const QVariant&)     - Undefined Reference
    _ZN8QVariantaSERKS_@QtCore{00040703}[2001b2dc].dll  - Undefined Reference
    QDateTime::currentDateTime()              - Undefined Reference
    _ZN9QDateTime15currentDateTimeEv@QtCore{00040703}[2001b2dc].dll  - Undefined Reference
    QDateTime::QDateTime(const QDateTime&)    - Undefined Reference
    _ZN9QDateTimeC1ERKS_@QtCore{00040703}[2001b2dc].dll  - Undefined Reference
    QDateTime::QDateTime()                    - Undefined Reference
    _ZN9QDateTimeC1Ev@QtCore{00040703}[2001b2dc].dll  - Undefined Reference
    QDateTime::~QDateTime()                   - Undefined Reference
    _ZN9QDateTimeD1Ev@QtCore{00040703}[2001b2dc].dll  - Undefined Reference
    QDateTime::operator =(const QDateTime&)   - Undefined Reference
    _ZN9QDateTimeaSERKS_@QtCore{00040703}[2001b2dc].dll  - Undefined Reference
    QHashData::free_helper(void(*)(QHashData::Node*))  - Undefined Reference
    _ZN9QHashData11free_helperEPFvPNS_4NodeEE@QtCore{00040703}[2001b2dc].dll  - Undefined Reference
    QHashData::shared_null                    - Undefined Reference
    _ZN9QHashData11shared_nullE@QtCore{00040703}[2001b2dc].dll  - Undefined Reference
    QHashData::allocateNode(int)              - Undefined Reference
    _ZN9QHashData12allocateNodeEi@QtCore{00040703}[2001b2dc].dll  - Undefined Reference
    QHashData::detach_helper2(void(*)(QHashData::Node*, void*), void(*)(QHashData::Node*), int, int)  - Undefined Reference
    _ZN9QHashData14detach_helper2EPFvPNS_4NodeEPvEPFvS1_Eii@QtCore{00040703}[2001b2dc].dll  - Undefined Reference
    QHashData::rehash(int)                    - Undefined Reference
    _ZN9QHashData6rehashEi@QtCore{00040703}[2001b2dc].dll  - Undefined Reference
    QHashData::freeNode(void*)                - Undefined Reference
    _ZN9QHashData8freeNodeEPv@QtCore{00040703}[2001b2dc].dll  - Undefined Reference
    QHashData::nextNode(QHashData::Node*)     - Undefined Reference
    _ZN9QHashData8nextNodeEPNS_4NodeE@QtCore{00040703}[2001b2dc].dll  - Undefined Reference
    QListData::detach_grow(int*, int)         - Undefined Reference
    _ZN9QListData11detach_growEPii@QtCore{00040703}[2001b2dc].dll  - Undefined Reference
    QListData::shared_null                    - Undefined Reference
    _ZN9QListData11shared_nullE@QtCore{00040703}[2001b2dc].dll  - Undefined Reference
    QListData::erase(void**)                  - Undefined Reference
    _ZN9QListData5eraseEPPv@QtCore{00040703}[2001b2dc].dll  - Undefined Reference
    QListData::append()                       - Undefined Reference
    _ZN9QListData6appendEv@QtCore{00040703}[2001b2dc].dll  - Undefined Reference
    QListData::detach(int)                    - Undefined Reference
    _ZN9QListData6detachEi@QtCore{00040703}[2001b2dc].dll  - Undefined Reference
    QListData::insert(int)                    - Undefined Reference
    _ZN9QListData6insertEi@QtCore{00040703}[2001b2dc].dll  - Undefined Reference
    QListData::remove(int)                    - Undefined Reference
    _ZN9QListData6removeEi@QtCore{00040703}[2001b2dc].dll  - Undefined Reference
    QListData::append2(const QListData&)      - Undefined Reference
    _ZN9QListData7append2ERKS_@QtCore{00040703}[2001b2dc].dll  - Undefined Reference
    QListData::prepend()                      - Undefined Reference
    _ZN9QListData7prependEv@QtCore{00040703}[2001b2dc].dll  - Undefined Reference
    QListData::realloc(int)                   - Undefined Reference
    _ZN9QListData7reallocEi@QtCore{00040703}[2001b2dc].dll  - Undefined Reference
    QtPrivate::QStringList_join(const QStringList*, const QString&)  - Undefined Reference
    _ZN9QtPrivate16QStringList_joinEPK11QStringListRK7QString@QtCore{00040703}[2001b2dc].dll  - Undefined Reference
    QtPrivate::QStringList_contains(const QStringList*, const QString&, Qt::CaseSensitivity)  - Undefined Reference
    _ZN9QtPrivate20QStringList_containsEPK11QStringListRK7QStringN2Qt15CaseSensitivityE@QtCore{00040703}[2001b2dc].dll  - Undefined Reference
    QDataStream::atEnd() const                - Undefined Reference
    _ZNK11QDataStream5atEndEv@QtCore{00040703}[2001b2dc].dll  - Undefined Reference
    QDataStream::status() const               - Undefined Reference
    _ZNK11QDataStream6statusEv@QtCore{00040703}[2001b2dc].dll  - Undefined Reference
    QMetaObject::cast(QObject*) const         - Undefined Reference
    _ZNK11QMetaObject4castEP7QObject@QtCore{00040703}[2001b2dc].dll  - Undefined Reference
    RFs::Att(const TDesC16&, unsigned&) const  - Undefined Reference
    _ZNK3RFs3AttERK7TDesC16Rj@efsrv{000a0000}[100039e4].dll  - Undefined Reference
    QDir::absolutePath() const                - Undefined Reference
    _ZNK4QDir12absolutePathEv@QtCore{00040703}[2001b2dc].dll  - Undefined Reference
    QDir::absoluteFilePath(const QString&) const  - Undefined Reference
    _ZNK4QDir16absoluteFilePathERK7QString@QtCore{00040703}[2001b2dc].dll  - Undefined Reference
    QDir::path() const                        - Undefined Reference
    _ZNK4QDir4pathEv@QtCore{00040703}[2001b2dc].dll  - Undefined Reference
    QDir::filePath(const QString&) const      - Undefined Reference
    _ZNK4QDir8filePathERK7QString@QtCore{00040703}[2001b2dc].dll  - Undefined Reference
    QDir::entryList(QFlags<QDir::Filter>, QFlags<QDir::SortFlag>) const  - Undefined Reference
    _ZNK4QDir9entryListE6QFlagsINS_6FilterEES0_INS_8SortFlagEE@QtCore{00040703}[2001b2dc].dll  - Undefined Reference
    QChar::isDigit() const                    - Undefined Reference
    _ZNK5QChar7isDigitEv@QtCore{00040703}[2001b2dc].dll  - Undefined Reference
    QChar::toLower() const                    - Undefined Reference
    _ZNK5QChar7toLowerEv@QtCore{00040703}[2001b2dc].dll  - Undefined Reference
    QUuid::toString() const                   - Undefined Reference
    _ZNK5QUuid8toStringEv@QtCore{00040703}[2001b2dc].dll  - Undefined Reference
    QObject::sender() const                   - Undefined Reference
    _ZNK7QObject6senderEv@QtCore{00040703}[2001b2dc].dll  - Undefined Reference
    QString::startsWith(const QString&, Qt::CaseSensitivity) const  - Undefined Reference
    _ZNK7QString10startsWithERKS_N2Qt15CaseSensitivityE@QtCore{00040703}[2001b2dc].dll  - Undefined Reference
    QString::toLocal8Bit() const              - Undefined Reference
    _ZNK7QString11toLocal8BitEv@QtCore{00040703}[2001b2dc].dll  - Undefined Reference
    QString::toCaseFolded() const             - Undefined Reference
    _ZNK7QString12toCaseFoldedEv@QtCore{00040703}[2001b2dc].dll  - Undefined Reference
    QString::localeAwareCompare(const QString&) const  - Undefined Reference
    _ZNK7QString18localeAwareCompareERKS_@QtCore{00040703}[2001b2dc].dll  - Undefined Reference
    QString::arg(const QString&, int, const QChar&) const  - Undefined Reference
    _ZNK7QString3argERKS_iRK5QChar@QtCore{00040703}[2001b2dc].dll  - Undefined Reference
    QString::arg(long long, int, int, const QChar&) const  - Undefined Reference
    _ZNK7QString3argExiiRK5QChar@QtCore{00040703}[2001b2dc].dll  - Undefined Reference
    QString::mid(int, int) const              - Undefined Reference
    _ZNK7QString3midEii@QtCore{00040703}[2001b2dc].dll  - Undefined Reference
    QString::right(int) const                 - Undefined Reference
    _ZNK7QString5rightEi@QtCore{00040703}[2001b2dc].dll  - Undefined Reference
    QString::split(const QChar&, QString::SplitBehavior, Qt::CaseSensitivity) const  - Undefined Reference
    _ZNK7QString5splitERK5QCharNS_13SplitBehaviorEN2Qt15CaseSensitivityE@QtCore{00040703}[2001b2dc].dll  - Undefined Reference
    QString::split(const QRegExp&, QString::SplitBehavior) const  - Undefined Reference
    _ZNK7QString5splitERK7QRegExpNS_13SplitBehaviorE@QtCore{00040703}[2001b2dc].dll  - Undefined Reference
    QString::split(const QString&, QString::SplitBehavior, Qt::CaseSensitivity) const  - Undefined Reference
    _ZNK7QString5splitERKS_NS_13SplitBehaviorEN2Qt15CaseSensitivityE@QtCore{00040703}[2001b2dc].dll  - Undefined Reference
    QString::toInt(bool*, int) const          - Undefined Reference
    _ZNK7QString5toIntEPbi@QtCore{00040703}[2001b2dc].dll  - Undefined Reference
    QString::utf16() const                    - Undefined Reference
    _ZNK7QString5utf16Ev@QtCore{00040703}[2001b2dc].dll  - Undefined Reference
    QString::compare(const QString&) const    - Undefined Reference
    _ZNK7QString7compareERKS_@QtCore{00040703}[2001b2dc].dll  - Undefined Reference
    QString::indexOf(const QString&, int, Qt::CaseSensitivity) const  - Undefined Reference
    _ZNK7QString7indexOfERKS_iN2Qt15CaseSensitivityE@QtCore{00040703}[2001b2dc].dll  - Undefined Reference
    QString::toLower() const                  - Undefined Reference
    _ZNK7QString7toLowerEv@QtCore{00040703}[2001b2dc].dll  - Undefined Reference
    QString::trimmed() const                  - Undefined Reference
    _ZNK7QString7trimmedEv@QtCore{00040703}[2001b2dc].dll  - Undefined Reference
    QString::endsWith(const QLatin1String&, Qt::CaseSensitivity) const  - Undefined Reference
    _ZNK7QString8endsWithERK13QLatin1StringN2Qt15CaseSensitivityE@QtCore{00040703}[2001b2dc].dll  - Undefined Reference
    QString::endsWith(const QString&, Qt::CaseSensitivity) const  - Undefined Reference
    _ZNK7QString8endsWithERKS_N2Qt15CaseSensitivityE@QtCore{00040703}[2001b2dc].dll  - Undefined Reference
    QString::multiArg(int, const QString**) const  - Undefined Reference
    _ZNK7QString8multiArgEiPPKS_@QtCore{00040703}[2001b2dc].dll  - Undefined Reference
    QString::toLatin1() const                 - Undefined Reference
    _ZNK7QString8toLatin1Ev@QtCore{00040703}[2001b2dc].dll  - Undefined Reference
    QString::operator ==(const QLatin1String&) const  - Undefined Reference
    _ZNK7QStringeqERK13QLatin1String@QtCore{00040703}[2001b2dc].dll  - Undefined Reference
    QString::operator ==(const QString&) const  - Undefined Reference
    _ZNK7QStringeqERKS_@QtCore{00040703}[2001b2dc].dll  - Undefined Reference
    QString::operator <(const QString&) const  - Undefined Reference
    _ZNK7QStringltERKS_@QtCore{00040703}[2001b2dc].dll  - Undefined Reference
    QVariant::toDateTime() const              - Undefined Reference
    _ZNK8QVariant10toDateTimeEv@QtCore{00040703}[2001b2dc].dll  - Undefined Reference
    QVariant::toLongLong(bool*) const         - Undefined Reference
    _ZNK8QVariant10toLongLongEPb@QtCore{00040703}[2001b2dc].dll  - Undefined Reference
    QVariant::toULongLong(bool*) const        - Undefined Reference
    _ZNK8QVariant11toULongLongEPb@QtCore{00040703}[2001b2dc].dll  - Undefined Reference
    QVariant::toStringList() const            - Undefined Reference
    _ZNK8QVariant12toStringListEv@QtCore{00040703}[2001b2dc].dll  - Undefined Reference
    QVariant::cmp(const QVariant&) const      - Undefined Reference
    _ZNK8QVariant3cmpERKS_@QtCore{00040703}[2001b2dc].dll  - Undefined Reference
    QVariant::type() const                    - Undefined Reference
    _ZNK8QVariant4typeEv@QtCore{00040703}[2001b2dc].dll  - Undefined Reference
    QVariant::toInt(bool*) const              - Undefined Reference
    _ZNK8QVariant5toIntEPb@QtCore{00040703}[2001b2dc].dll  - Undefined Reference
    QVariant::isNull() const                  - Undefined Reference
    _ZNK8QVariant6isNullEv@QtCore{00040703}[2001b2dc].dll  - Undefined Reference
    QVariant::toDate() const                  - Undefined Reference
    _ZNK8QVariant6toDateEv@QtCore{00040703}[2001b2dc].dll  - Undefined Reference
    QVariant::toList() const                  - Undefined Reference
    _ZNK8QVariant6toListEv@QtCore{00040703}[2001b2dc].dll  - Undefined Reference
    QVariant::toTime() const                  - Undefined Reference
    _ZNK8QVariant6toTimeEv@QtCore{00040703}[2001b2dc].dll  - Undefined Reference
    QVariant::toUInt(bool*) const             - Undefined Reference
    _ZNK8QVariant6toUIntEPb@QtCore{00040703}[2001b2dc].dll  - Undefined Reference
    QVariant::toDouble(bool*) const           - Undefined Reference
    _ZNK8QVariant8toDoubleEPb@QtCore{00040703}[2001b2dc].dll  - Undefined Reference
    QVariant::toString() const                - Undefined Reference
    _ZNK8QVariant8toStringEv@QtCore{00040703}[2001b2dc].dll  - Undefined Reference
    QVariant::userType() const                - Undefined Reference
    _ZNK8QVariant8userTypeEv@QtCore{00040703}[2001b2dc].dll  - Undefined Reference
    QVariant::constData() const               - Undefined Reference
    _ZNK8QVariant9constDataEv@QtCore{00040703}[2001b2dc].dll  - Undefined Reference
    QDateTime::operator ==(const QDateTime&) const  - Undefined Reference
    _ZNK9QDateTimeeqERKS_@QtCore{00040703}[2001b2dc].dll  - Undefined Reference
    QDateTime::operator <(const QDateTime&) const  - Undefined Reference
    _ZNK9QDateTimeltERKS_@QtCore{00040703}[2001b2dc].dll  - Undefined Reference
    typeinfo for QObject                      - Undefined Reference
    _ZTI7QObject@QtCore{00040703}[2001b2dc].dll  - Undefined Reference
    typeinfo for std::bad_alloc               - Undefined Reference
    _ZTISt9bad_alloc@stdnew{000a0000}[20022178].dll  - Undefined Reference
    vtable for __cxxabiv1::__class_type_info  - Undefined Reference
    _ZTVN10__cxxabiv117__class_type_infoE@drtaeabi{000a0000}.dll  - Undefined Reference
    vtable for __cxxabiv1::__si_class_type_info  - Undefined Reference
    _ZTVN10__cxxabiv120__si_class_type_infoE@drtaeabi{000a0000}.dll  - Undefined Reference
    vtable for __cxxabiv1::__vmi_class_type_info  - Undefined Reference
    _ZTVN10__cxxabiv121__vmi_class_type_infoE@drtaeabi{000a0000}.dll  - Undefined Reference
    operator delete[] (void*)                 - Undefined Reference
    _ZdaPv@stdnew{000a0000}[20022178].dll     - Undefined Reference
    operator delete (void*)                   - Undefined Reference
    _ZdlPv@stdnew{000a0000}[20022178].dll     - Undefined Reference
    operator <<(QDebug, const QObject*)       - Undefined Reference
    _Zls6QDebugPK7QObject@QtCore{00040703}[2001b2dc].dll  - Undefined Reference
    operator <<(QDebug, const QVariant&)      - Undefined Reference
    _Zls6QDebugRK8QVariant@QtCore{00040703}[2001b2dc].dll  - Undefined Reference
    operator <<(QDataStream&, const QSize&)   - Undefined Reference
    _ZlsR11QDataStreamRK5QSize@QtCore{00040703}[2001b2dc].dll  - Undefined Reference
    operator <<(QDataStream&, const QString&)  - Undefined Reference
    _ZlsR11QDataStreamRK7QString@QtCore{00040703}[2001b2dc].dll  - Undefined Reference
    operator <<(QDataStream&, const QVariant&)  - Undefined Reference
    _ZlsR11QDataStreamRK8QVariant@QtCore{00040703}[2001b2dc].dll  - Undefined Reference
    operator <<(QDataStream&, const QDateTime&)  - Undefined Reference
    _ZlsR11QDataStreamRK9QDateTime@QtCore{00040703}[2001b2dc].dll  - Undefined Reference
    operator new(unsigned)                    - Undefined Reference
    _Znwj@stdnew{000a0000}[20022178].dll      - Undefined Reference
    operator >>(QDataStream&, QSize&)         - Undefined Reference
    _ZrsR11QDataStreamR5QSize@QtCore{00040703}[2001b2dc].dll  - Undefined Reference
    operator >>(QDataStream&, QString&)       - Undefined Reference
    _ZrsR11QDataStreamR7QString@QtCore{00040703}[2001b2dc].dll  - Undefined Reference
    operator >>(QDataStream&, QVariant&)      - Undefined Reference
    _ZrsR11QDataStreamR8QVariant@QtCore{00040703}[2001b2dc].dll  - Undefined Reference
    operator >>(QDataStream&, QDateTime&)     - Undefined Reference
    _ZrsR11QDataStreamR9QDateTime@QtCore{00040703}[2001b2dc].dll  - Undefined Reference
    __aeabi_cdcmpeq                           - Undefined Reference
    __aeabi_cdcmpeq@dfpaeabi{000a0000}.dll    - Undefined Reference
    __aeabi_cdcmple                           - Undefined Reference
    __aeabi_cdcmple@dfpaeabi{000a0000}.dll    - Undefined Reference
    __aeabi_memcpy4                           - Undefined Reference
    __aeabi_memcpy4@drtaeabi{000a0000}.dll    - Undefined Reference
    __aeabi_uidivmod                          - Undefined Reference
    __aeabi_uidivmod@drtaeabi{000a0000}.dll   - Undefined Reference
    __aeabi_unwind_cpp_pr0                    - Undefined Reference
    __aeabi_unwind_cpp_pr0@drtaeabi{000a0000}.dll  - Undefined Reference
    __cxa_begin_catch                         - Undefined Reference
    __cxa_begin_catch@drtaeabi{000a0000}.dll  - Undefined Reference
    __cxa_end_catch                           - Undefined Reference
    __cxa_end_catch@drtaeabi{000a0000}.dll    - Undefined Reference
    __cxa_end_cleanup                         - Undefined Reference
    __cxa_end_cleanup@drtaeabi{000a0000}.dll  - Undefined Reference
    __cxa_guard_abort                         - Undefined Reference
    __cxa_guard_abort@drtaeabi{000a0000}.dll  - Undefined Reference
    __cxa_guard_acquire                       - Undefined Reference
    __cxa_guard_acquire@drtaeabi{000a0000}.dll  - Undefined Reference
    __cxa_guard_release                       - Undefined Reference
    __cxa_guard_release@drtaeabi{000a0000}.dll  - Undefined Reference
    __cxa_pure_virtual                        - Undefined Reference
    __cxa_pure_virtual@drtaeabi{000a0000}.dll  - Undefined Reference
    __cxa_rethrow                             - Undefined Reference
    __cxa_rethrow@drtaeabi{000a0000}.dll      - Undefined Reference
    strcmp                                    - Undefined Reference
    strcmp@libc{00010001}[10207369].dll       - Undefined Reference
    Image$$ER_RO$$Base                       0x00008000   Number         0  anon$$obj.o(linker$$defined$$symbols)
    _E32Dll                                  0x00008000   ARM Code      40  uc_dll_.o(.emb_text)
    Symbian$$CPP$$Exception$$Descriptor      0x00008014   Data           0  uc_dll_.o(.emb_text)
    __cpp_initialize__aeabi_                 0x00008028   ARM Code      52  ucppinit.o(.emb_text)
    std::nothrow                             0x0000805c   ARM Code       0  ucppinit.o(.emb_text)
    __PLT                                    0x0000805c   ARM Code       0  anon$$obj.o(.plt)
    QtMobility::QContactManagerEngineV2Wrapper::getStaticMetaObject() 0x00008615   Thumb Code     4  moc_qcontactmanagerenginev2wrapper_p.o(.text)
    QtMobility::QContactManagerEngineV2Wrapper::metaObject() const 0x00008619   Thumb Code    28  moc_qcontactmanagerenginev2wrapper_p.o(.text)
    QtMobility::QContactManagerEngineV2Wrapper::qt_metacast(const char*) 0x00008635   Thumb Code    40  moc_qcontactmanagerenginev2wrapper_p.o(.text)
    QtMobility::QContactManagerEngineV2Wrapper::qt_metacall(QMetaObject::Call, int, void**) 0x0000865d   Thumb Code    62  moc_qcontactmanagerenginev2wrapper_p.o(.text)
    QtMobility::RequestController::getStaticMetaObject() 0x0000869b   Thumb Code     4  moc_qcontactmanagerenginev2wrapper_p.o(.text)
    QtMobility::RequestController::metaObject() const 0x0000869f   Thumb Code    28  moc_qcontactmanagerenginev2wrapper_p.o(.text)
    QtMobility::RequestController::qt_metacast(const char*) 0x000086bb   Thumb Code    42  moc_qcontactmanagerenginev2wrapper_p.o(.text)
    QtMobility::RequestController::stateChanged(QtMobility::QContactAbstractRequest::State) 0x000086e5   Thumb Code    30  moc_qcontactmanagerenginev2wrapper_p.o(.text)
    QtMobility::RequestController::qt_metacall(QMetaObject::Call, int, void**) 0x00008703   Thumb Code    80  moc_qcontactmanagerenginev2wrapper_p.o(.text)
    QtMobility::FetchByIdRequestController::getStaticMetaObject() 0x00008753   Thumb Code     4  moc_qcontactmanagerenginev2wrapper_p.o(.text)
    QtMobility::FetchByIdRequestController::metaObject() const 0x00008757   Thumb Code    28  moc_qcontactmanagerenginev2wrapper_p.o(.text)
    QtMobility::FetchByIdRequestController::qt_metacast(const char*) 0x00008773   Thumb Code    40  moc_qcontactmanagerenginev2wrapper_p.o(.text)
    QtMobility::FetchByIdRequestController::qt_metacall(QMetaObject::Call, int, void**) 0x0000879b   Thumb Code    36  moc_qcontactmanagerenginev2wrapper_p.o(.text)
    QtMobility::PartialSaveRequestController::getStaticMetaObject() 0x000087bf   Thumb Code     4  moc_qcontactmanagerenginev2wrapper_p.o(.text)
    QtMobility::PartialSaveRequestController::metaObject() const 0x000087c3   Thumb Code    28  moc_qcontactmanagerenginev2wrapper_p.o(.text)
    QtMobility::PartialSaveRequestController::qt_metacast(const char*) 0x000087df   Thumb Code    42  moc_qcontactmanagerenginev2wrapper_p.o(.text)
    QtMobility::PartialSaveRequestController::qt_metacall(QMetaObject::Call, int, void**) 0x00008809   Thumb Code    36  moc_qcontactmanagerenginev2wrapper_p.o(.text)
    QtMobility::QContact::clearDetails()     0x00008845   Thumb Code   248  qcontact.o(.text)
    QtMobility::QContact::QContact()         0x0000893d   Thumb Code   104  qcontact.o(.text)
    QtMobility::QContact::QContact__sub_object() 0x0000893d   Thumb Code     0  qcontact.o(.text)
    QtMobility::QContact::~QContact()        0x000089a5   Thumb Code    14  qcontact.o(.text)
    QtMobility::QContact::~QContact__sub_object() 0x000089a5   Thumb Code     0  qcontact.o(.text)
    QtMobility::QContact::QContact(const QtMobility::QContact&) 0x000089b3   Thumb Code    28  qcontact.o(.text)
    QtMobility::QContact::QContact__sub_object(const QtMobility::QContact&) 0x000089b3   Thumb Code     0  qcontact.o(.text)
    QtMobility::QContact::operator =(const QtMobility::QContact&) 0x000089cf   Thumb Code    72  qcontact.o(.text)
    QtMobility::QContact::operator ==(const QtMobility::QContact&) const 0x00008a17   Thumb Code    60  qcontact.o(.text)
    QtMobility::QContact::id() const         0x00008a53   Thumb Code    24  qcontact.o(.text)
    QtMobility::QContact::setId(const QtMobility::QContactId&) 0x00008a6b   Thumb Code    24  qcontact.o(.text)
    QtMobility::QContact::localId() const    0x00008a83   Thumb Code    18  qcontact.o(.text)
    QtMobility::QContact::type() const       0x00008a95   Thumb Code   118  qcontact.o(.text)
    QtMobility::QContact::setType(const QString&) 0x00008b0b   Thumb Code    78  qcontact.o(.text)
    QtMobility::QContact::setType(const QtMobility::QContactType&) 0x00008b59   Thumb Code    80  qcontact.o(.text)
    QtMobility::QContact::displayLabel() const 0x00008ba9   Thumb Code    44  qcontact.o(.text)
    QtMobility::QContact::isEmpty() const    0x00008bd5   Thumb Code   140  qcontact.o(.text)
    QtMobility::QContact::detail(const QString&) const 0x00008c61   Thumb Code   136  qcontact.o(.text)
    QtMobility::QContact::details(const QString&) const 0x00008ce9   Thumb Code   122  qcontact.o(.text)
    QtMobility::QContact::details(const QString&, const QString&, const QString&) const 0x00008d63   Thumb Code   196  qcontact.o(.text)
    QtMobility::QContact::detail(const char*) const 0x00008e27   Thumb Code   130  qcontact.o(.text)
    QtMobility::QContact::details(const char*) const 0x00008ea9   Thumb Code   116  qcontact.o(.text)
    QtMobility::QContact::details(const char*, const char*, const QString&) const 0x00008f1d   Thumb Code   192  qcontact.o(.text)
    QtMobility::QContact::saveDetail(QtMobility::QContactDetail*) 0x00008fdd   Thumb Code   334  qcontact.o(.text)
    QtMobility::QContact::removeDetail(QtMobility::QContactDetail*) 0x0000912b   Thumb Code   390  qcontact.o(.text)
    QtMobility::QContact::relationships(const QString&) const 0x000092b1   Thumb Code   158  qcontact.o(.text)
    QtMobility::QContact::relatedContacts(const QString&, QtMobility::QContactRelationship::Role) const 0x0000934f   Thumb Code   582  qcontact.o(.text)
    QtMobility::QContact::availableActions(const QString&) const 0x00009595   Thumb Code   352  qcontact.o(.text)
    QtMobility::QContact::setPreferredDetail(const QString&, const QtMobility::QContactDetail&) 0x000096f5   Thumb Code   146  qcontact.o(.text)
    QtMobility::QContact::isPreferredDetail(const QString&, const QtMobility::QContactDetail&) const 0x00009787   Thumb Code   200  qcontact.o(.text)
    QtMobility::QContact::preferredDetail(const QString&) const 0x0000984f   Thumb Code   202  qcontact.o(.text)
    QtMobility::QContact::preferredDetails() const 0x00009919   Thumb Code   228  qcontact.o(.text)
    QtMobility::QContactData::removeOnly(const QSet<QString>&) 0x000099fd   Thumb Code   214  qcontact.o(.text)
    QtMobility::qHash(const QtMobility::QContact&) 0x00009ad3   Thumb Code   208  qcontact.o(.text)
    QtMobility::operator <<(QDebug, const QtMobility::QContact&) 0x00009ba3   Thumb Code   336  qcontact.o(.text)
    QtMobility::operator <<(QDataStream&, const QtMobility::QContact&) 0x00009cf3   Thumb Code   112  qcontact.o(.text)
    QtMobility::operator >>(QDataStream&, QtMobility::QContact&) 0x00009d63   Thumb Code   150  qcontact.o(.text)
    QtMobility::QContactAbstractRequest::getStaticMetaObject() 0x00009e09   Thumb Code     4  qcontactabstractrequest.o(.text)
    QtMobility::QContactAbstractRequest::metaObject() const 0x00009e0d   Thumb Code    28  qcontactabstractrequest.o(.text)
    QtMobility::QContactAbstractRequest::qt_metacast(const char*) 0x00009e29   Thumb Code    40  qcontactabstractrequest.o(.text)
    QtMobility::QContactAbstractRequest::waitForFinished(int) 0x00009e51   Thumb Code   134  qcontactabstractrequest.o(.text)
    QtMobility::QContactAbstractRequest::cancel() 0x00009ed7   Thumb Code    88  qcontactabstractrequest.o(.text)
    QtMobility::QContactAbstractRequest::start() 0x00009f2f   Thumb Code   104  qcontactabstractrequest.o(.text)
    QtMobility::QContactAbstractRequest::resultsAvailable() 0x00009f97   Thumb Code    18  qcontactabstractrequest.o(.text)
    QtMobility::QContactAbstractRequest::stateChanged(QtMobility::QContactAbstractRequest::State) 0x00009fa9   Thumb Code    30  qcontactabstractrequest.o(.text)
    QtMobility::QContactAbstractRequest::qt_metacall(QMetaObject::Call, int, void**) 0x00009fc7   Thumb Code   168  qcontactabstractrequest.o(.text)
    QtMobility::QContactAbstractRequest::~QContactAbstractRequest() 0x0000a06f   Thumb Code    34  qcontactabstractrequest.o(.text)
    QtMobility::QContactAbstractRequest::~QContactAbstractRequest__sub_object() 0x0000a06f   Thumb Code     0  qcontactabstractrequest.o(.text)
    QtMobility::QContactAbstractRequest::~QContactAbstractRequest__deallocating() 0x0000a091   Thumb Code    22  qcontactabstractrequest.o(.text)
    QtMobility::QContactAbstractRequest::state() const 0x0000a0a7   Thumb Code    32  qcontactabstractrequest.o(.text)
    QtMobility::QContactAbstractRequest::isInactive() const 0x0000a0c7   Thumb Code    44  qcontactabstractrequest.o(.text)
    QtMobility::QContactAbstractRequest::isActive() const 0x0000a0f3   Thumb Code    42  qcontactabstractrequest.o(.text)
    QtMobility::QContactAbstractRequest::isFinished() const 0x0000a11d   Thumb Code    44  qcontactabstractrequest.o(.text)
    QtMobility::QContactAbstractRequest::isCanceled() const 0x0000a149   Thumb Code    44  qcontactabstractrequest.o(.text)
    QtMobility::QContactAbstractRequest::error() const 0x0000a175   Thumb Code    32  qcontactabstractrequest.o(.text)
    QtMobility::QContactAbstractRequest::type() const 0x0000a195   Thumb Code    52  qcontactabstractrequest.o(.text)
    QtMobility::QContactAbstractRequest::manager() const 0x0000a1c9   Thumb Code    38  qcontactabstractrequest.o(.text)
    QtMobility::QContactAbstractRequest::setManager(QtMobility::QContactManager*) 0x0000a1ef   Thumb Code   122  qcontactabstractrequest.o(.text)
    QtMobility::QContactAbstractRequest::QContactAbstractRequest(QtMobility::QContactAbstractRequestPrivate*, QObject*) 0x0000a269   Thumb Code    28  qcontactabstractrequest.o(.text)
    QtMobility::QContactAbstractRequest::QContactAbstractRequest__sub_object(QtMobility::QContactAbstractRequestPrivate*, QObject*) 0x0000a269   Thumb Code     0  qcontactabstractrequest.o(.text)
    QtMobility::QContactAction::getStaticMetaObject() 0x0000a289   Thumb Code     4  qcontactaction.o(.text)
    QtMobility::QContactAction::metaObject() const 0x0000a28d   Thumb Code    28  qcontactaction.o(.text)
    QtMobility::QContactAction::qt_metacast(const char*) 0x0000a2a9   Thumb Code    40  qcontactaction.o(.text)
    QtMobility::QContactAction::resultsAvailable() 0x0000a2d1   Thumb Code    18  qcontactaction.o(.text)
    QtMobility::QContactAction::stateChanged(QtMobility::QContactAction::State) 0x0000a2e3   Thumb Code    30  qcontactaction.o(.text)
    QtMobility::QContactAction::qt_metacall(QMetaObject::Call, int, void**) 0x0000a301   Thumb Code    76  qcontactaction.o(.text)
    QtMobility::QContactAction::~QContactAction() 0x0000a34d   Thumb Code     0  qcontactaction.o(.text)
    QtMobility::QContactAction::~QContactAction__sub_object() 0x0000a34d   Thumb Code    14  qcontactaction.o(.text)
    QtMobility::QContactAction::~QContactAction__deallocating() 0x0000a35b   Thumb Code    22  qcontactaction.o(.text)
    QtMobility::QContactAction::availableActions(const QString&) 0x0000a371   Thumb Code   324  qcontactaction.o(.text)
    QtMobility::QContactAction::actionDescriptors(const QString&) 0x0000a4b5   Thumb Code    24  qcontactaction.o(.text)
    QtMobility::QContactAction::action(const QtMobility::QContactActionDescriptor&) 0x0000a4cd   Thumb Code    20  qcontactaction.o(.text)
    QtMobility::QContactActionDescriptor::QContactActionDescriptor() 0x0000a4f1   Thumb Code    92  qcontactactiondescriptor.o(.text)
    QtMobility::QContactActionDescriptor::QContactActionDescriptor__sub_object() 0x0000a4f1   Thumb Code     0  qcontactactiondescriptor.o(.text)
    QtMobility::QContactActionDescriptor::QContactActionDescriptor(const QtMobility::QContactActionDescriptor&) 0x0000a54d   Thumb Code    28  qcontactactiondescriptor.o(.text)
    QtMobility::QContactActionDescriptor::QContactActionDescriptor__sub_object(const QtMobility::QContactActionDescriptor&) 0x0000a54d   Thumb Code     0  qcontactactiondescriptor.o(.text)
    QtMobility::QContactActionDescriptor::operator =(const QtMobility::QContactActionDescriptor&) 0x0000a569   Thumb Code    72  qcontactactiondescriptor.o(.text)
    QtMobility::QContactActionDescriptor::~QContactActionDescriptor() 0x0000a5b1   Thumb Code    14  qcontactactiondescriptor.o(.text)
    QtMobility::QContactActionDescriptor::~QContactActionDescriptor__sub_object() 0x0000a5b1   Thumb Code     0  qcontactactiondescriptor.o(.text)
    QtMobility::QContactActionDescriptor::isValid() const 0x0000a5bf   Thumb Code    98  qcontactactiondescriptor.o(.text)
    QtMobility::QContactActionDescriptor::operator ==(const QtMobility::QContactActionDescriptor&) const 0x0000a621   Thumb Code    52  qcontactactiondescriptor.o(.text)
    QtMobility::QContactActionDescriptor::operator !=(const QtMobility::QContactActionDescriptor&) const 0x0000a655   Thumb Code    20  qcontactactiondescriptor.o(.text)
    QtMobility::QContactActionDescriptor::actionName() const 0x0000a669   Thumb Code    24  qcontactactiondescriptor.o(.text)
    QtMobility::QContactActionDescriptor::serviceName() const 0x0000a681   Thumb Code    26  qcontactactiondescriptor.o(.text)
    QtMobility::QContactActionDescriptor::actionIdentifier() const 0x0000a69b   Thumb Code    26  qcontactactiondescriptor.o(.text)
    QtMobility::QContactActionDescriptor::implementationVersion() const 0x0000a6b5   Thumb Code    10  qcontactactiondescriptor.o(.text)
    QtMobility::QContactActionDescriptor::supportedTargets(const QtMobility::QContact&) const 0x0000a6bf   Thumb Code    62  qcontactactiondescriptor.o(.text)
    QtMobility::QContactActionDescriptor::contactFilter() const 0x0000a6fd   Thumb Code    66  qcontactactiondescriptor.o(.text)
    QtMobility::QContactActionDescriptor::supportsContact(const QtMobility::QContact&) const 0x0000a73f   Thumb Code    40  qcontactactiondescriptor.o(.text)
    QtMobility::QContactActionDescriptor::metaData(const QString&, const QList<QtMobility::QContactActionTarget>&, const QMap<QString, QVariant>&) const 0x0000a767   Thumb Code    96  qcontactactiondescriptor.o(.text)
    QtMobility::QContactActionDescriptor::metaData(const QString&, const QMap<QString, QVariant>&) const 0x0000a7c7   Thumb Code    42  qcontactactiondescriptor.o(.text)
    QtMobility::QContactActionDescriptor::metaData(const QString&, const QtMobility::QContactActionTarget&, const QMap<QString, QVariant>&) const 0x0000a7f1   Thumb Code    52  qcontactactiondescriptor.o(.text)
    QtMobility::QContactActionDescriptor::metaData(const QString&, const QtMobility::QContact&, const QtMobility::QContactDetail&, const QMap<QString, QVariant>&) const 0x0000a825   Thumb Code    66  qcontactactiondescriptor.o(.text)
    QtMobility::qHash(const QtMobility::QContactActionDescriptor&) 0x0000a867   Thumb Code   100  qcontactactiondescriptor.o(.text)
    QtMobility::operator <<(QDebug, const QtMobility::QContactActionDescriptor&) 0x0000a8cb   Thumb Code   228  qcontactactiondescriptor.o(.text)
    QtMobility::QContactActionFactory::getStaticMetaObject() 0x0000a9d5   Thumb Code     4  qcontactactionfactory.o(.text)
    QtMobility::QContactActionFactory::metaObject() const 0x0000a9d9   Thumb Code    28  qcontactactionfactory.o(.text)
    QtMobility::QContactActionFactory::qt_metacast(const char*) 0x0000a9f5   Thumb Code    40  qcontactactionfactory.o(.text)
    QtMobility::QContactActionFactory::qt_metacall(QMetaObject::Call, int, void**) 0x0000aa1d   Thumb Code    36  qcontactactionfactory.o(.text)
    QtMobility::QContactActionFactory::~QContactActionFactory() 0x0000aa41   Thumb Code     0  qcontactactionfactory.o(.text)
    QtMobility::QContactActionFactory::~QContactActionFactory__sub_object() 0x0000aa41   Thumb Code    14  qcontactactionfactory.o(.text)
    QtMobility::QContactActionFactory::~QContactActionFactory__deallocating() 0x0000aa4f   Thumb Code    22  qcontactactionfactory.o(.text)
    QtMobility::QContactActionFactory::supportsContact(const QtMobility::QContact&, const QtMobility::QContactActionDescriptor&) const 0x0000aa65   Thumb Code    64  qcontactactionfactory.o(.text)
    QtMobility::QContactActionFactory::createDescriptor(const QString&, const QString&, const QString&, int) const 0x0000aaa5   Thumb Code    92  qcontactactionfactory.o(.text)
    QtMobility::QContactActionManager::getStaticMetaObject() 0x0000ab09   Thumb Code     4  qcontactactionmanager_p.o(.text)
    QtMobility::QContactActionManager::metaObject() const 0x0000ab0d   Thumb Code    28  qcontactactionmanager_p.o(.text)
    QtMobility::QContactActionManager::qt_metacast(const char*) 0x0000ab29   Thumb Code    40  qcontactactionmanager_p.o(.text)
    QtMobility::QContactActionManager::qt_metacall(QMetaObject::Call, int, void**) 0x0000ab51   Thumb Code    36  qcontactactionmanager_p.o(.text)
    QtMobility::QContactActionManager::QContactActionManager() 0x0000ab75   Thumb Code    40  qcontactactionmanager_p.o(.text)
    QtMobility::QContactActionManager::QContactActionManager__sub_object() 0x0000ab75   Thumb Code     0  qcontactactionmanager_p.o(.text)
    QtMobility::QContactActionManager::instance() 0x0000ac3f   Thumb Code     8  qcontactactionmanager_p.o(.text)
    QtMobility::QContactActionManager::~QContactActionManager() 0x0000ac47   Thumb Code    30  qcontactactionmanager_p.o(.text)
    QtMobility::QContactActionManager::~QContactActionManager__sub_object() 0x0000ac47   Thumb Code     0  qcontactactionmanager_p.o(.text)
    QtMobility::QContactActionManager::~QContactActionManager__deallocating() 0x0000ac65   Thumb Code    22  qcontactactionmanager_p.o(.text)
    QtMobility::QContactActionManager::init() 0x0000ac7b   Thumb Code    20  qcontactactionmanager_p.o(.text)
    QtMobility::QContactActionManager::availableActions(const QtMobility::QContact&) 0x0000ac8f   Thumb Code   194  qcontactactionmanager_p.o(.text)
    QtMobility::QContactActionManager::actionDescriptors(const QString&) 0x0000ad51   Thumb Code   144  qcontactactionmanager_p.o(.text)
    QtMobility::QContactActionManager::action(const QtMobility::QContactActionDescriptor&) 0x0000ade1   Thumb Code   124  qcontactactionmanager_p.o(.text)
    QtMobility::QContactActionTarget::QContactActionTarget(const QtMobility::QContact&, const QList<QtMobility::QContactDetail>&) 0x0000ae79   Thumb Code    44  qcontactactiontarget.o(.text)
    QtMobility::QContactActionTarget::QContactActionTarget__sub_object(const QtMobility::QContact&, const QList<QtMobility::QContactDetail>&) 0x0000ae79   Thumb Code     0  qcontactactiontarget.o(.text)
    QtMobility::QContactActionTarget::QContactActionTarget(const QtMobility::QContact&, const QtMobility::QContactDetail&) 0x0000aea5   Thumb Code    78  qcontactactiontarget.o(.text)
    QtMobility::QContactActionTarget::QContactActionTarget__sub_object(const QtMobility::QContact&, const QtMobility::QContactDetail&) 0x0000aea5   Thumb Code     0  qcontactactiontarget.o(.text)
    QtMobility::QContactActionTarget::QContactActionTarget(const QtMobility::QContactActionTarget&) 0x0000aef3   Thumb Code    28  qcontactactiontarget.o(.text)
    QtMobility::QContactActionTarget::QContactActionTarget__sub_object(const QtMobility::QContactActionTarget&) 0x0000aef3   Thumb Code     0  qcontactactiontarget.o(.text)
    QtMobility::QContactActionTarget::operator =(const QtMobility::QContactActionTarget&) 0x0000af0f   Thumb Code    72  qcontactactiontarget.o(.text)
    QtMobility::QContactActionTarget::~QContactActionTarget() 0x0000af57   Thumb Code    14  qcontactactiontarget.o(.text)
    QtMobility::QContactActionTarget::~QContactActionTarget__sub_object() 0x0000af57   Thumb Code     0  qcontactactiontarget.o(.text)
    QtMobility::QContactActionTarget::type() const 0x0000af65   Thumb Code    60  qcontactactiontarget.o(.text)
    QtMobility::QContactActionTarget::isValid() const 0x0000afa1   Thumb Code    44  qcontactactiontarget.o(.text)
    QtMobility::QContactActionTarget::operator ==(const QtMobility::QContactActionTarget&) const 0x0000afcd   Thumb Code    60  qcontactactiontarget.o(.text)
    QtMobility::QContactActionTarget::operator !=(const QtMobility::QContactActionTarget&) const 0x0000b009   Thumb Code    20  qcontactactiontarget.o(.text)
    QtMobility::QContactActionTarget::setContact(const QtMobility::QContact&) 0x0000b01d   Thumb Code    24  qcontactactiontarget.o(.text)
    QtMobility::QContactActionTarget::setDetails(const QList<QtMobility::QContactDetail>&) 0x0000b035   Thumb Code    26  qcontactactiontarget.o(.text)
    QtMobility::QContactActionTarget::contact() const 0x0000b04f   Thumb Code    24  qcontactactiontarget.o(.text)
    QtMobility::QContactActionTarget::details() const 0x0000b067   Thumb Code    26  qcontactactiontarget.o(.text)
    QtMobility::qHash(const QtMobility::QContactActionTarget&) 0x0000b081   Thumb Code   300  qcontactactiontarget.o(.text)
    QtMobility::operator <<(QDataStream&, const QtMobility::QContactActionTarget&) 0x0000b1ad   Thumb Code    52  qcontactactiontarget.o(.text)
    QtMobility::operator >>(QDataStream&, QtMobility::QContactActionTarget&) 0x0000b1e1   Thumb Code   130  qcontactactiontarget.o(.text)
    QtMobility::operator <<(QDebug, const QtMobility::QContactActionTarget&) 0x0000b263   Thumb Code   126  qcontactactiontarget.o(.text)
    QtMobility::QContactChangeSet::QContactChangeSet() 0x0000b2f9   Thumb Code    42  qcontactchangeset.o(.text)
    QtMobility::QContactChangeSet::QContactChangeSet__sub_object() 0x0000b2f9   Thumb Code     0  qcontactchangeset.o(.text)
    QtMobility::QContactChangeSet::QContactChangeSet(const QtMobility::QContactChangeSet&) 0x0000b323   Thumb Code    28  qcontactchangeset.o(.text)
    QtMobility::QContactChangeSet::QContactChangeSet__sub_object(const QtMobility::QContactChangeSet&) 0x0000b323   Thumb Code     0  qcontactchangeset.o(.text)
    QtMobility::QContactChangeSet::~QContactChangeSet() 0x0000b33f   Thumb Code    14  qcontactchangeset.o(.text)
    QtMobility::QContactChangeSet::~QContactChangeSet__sub_object() 0x0000b33f   Thumb Code     0  qcontactchangeset.o(.text)
    QtMobility::QContactChangeSet::operator =(const QtMobility::QContactChangeSet&) 0x0000b34d   Thumb Code    72  qcontactchangeset.o(.text)
    QtMobility::QContactChangeSet::setDataChanged(bool) 0x0000b395   Thumb Code    16  qcontactchangeset.o(.text)
    QtMobility::QContactChangeSet::dataChanged() 0x0000b3a5   Thumb Code    14  qcontactchangeset.o(.text)
    QtMobility::QContactChangeSet::addedContacts() const 0x0000b3b3   Thumb Code    26  qcontactchangeset.o(.text)
    QtMobility::QContactChangeSet::insertAddedContact(unsigned) 0x0000b3cd   Thumb Code    28  qcontactchangeset.o(.text)
    QtMobility::QContactChangeSet::insertAddedContacts(const QList<unsigned>&) 0x0000b3e9   Thumb Code   120  qcontactchangeset.o(.text)
    QtMobility::QContactChangeSet::clearAddedContacts() 0x0000b461   Thumb Code    22  qcontactchangeset.o(.text)
    QtMobility::QContactChangeSet::changedContacts() const 0x0000b477   Thumb Code    26  qcontactchangeset.o(.text)
    QtMobility::QContactChangeSet::insertChangedContact(unsigned) 0x0000b491   Thumb Code    28  qcontactchangeset.o(.text)
    QtMobility::QContactChangeSet::insertChangedContacts(const QList<unsigned>&) 0x0000b4ad   Thumb Code   120  qcontactchangeset.o(.text)
    QtMobility::QContactChangeSet::clearChangedContacts() 0x0000b525   Thumb Code    22  qcontactchangeset.o(.text)
    QtMobility::QContactChangeSet::removedContacts() const 0x0000b53b   Thumb Code    26  qcontactchangeset.o(.text)
    QtMobility::QContactChangeSet::insertRemovedContact(unsigned) 0x0000b555   Thumb Code    28  qcontactchangeset.o(.text)
    QtMobility::QContactChangeSet::insertRemovedContacts(const QList<unsigned>&) 0x0000b571   Thumb Code   120  qcontactchangeset.o(.text)
    QtMobility::QContactChangeSet::clearRemovedContacts() 0x0000b5e9   Thumb Code    22  qcontactchangeset.o(.text)
    QtMobility::QContactChangeSet::addedRelationshipsContacts() const 0x0000b5ff   Thumb Code    26  qcontactchangeset.o(.text)
    QtMobility::QContactChangeSet::insertAddedRelationshipsContact(unsigned) 0x0000b619   Thumb Code    28  qcontactchangeset.o(.text)
    QtMobility::QContactChangeSet::insertAddedRelationshipsContacts(const QList<unsigned>&) 0x0000b635   Thumb Code   120  qcontactchangeset.o(.text)
    QtMobility::QContactChangeSet::clearAddedRelationshipsContacts() 0x0000b6ad   Thumb Code    22  qcontactchangeset.o(.text)
    QtMobility::QContactChangeSet::removedRelationshipsContacts() const 0x0000b6c3   Thumb Code    26  qcontactchangeset.o(.text)
    QtMobility::QContactChangeSet::insertRemovedRelationshipsContact(unsigned) 0x0000b6dd   Thumb Code    28  qcontactchangeset.o(.text)
    QtMobility::QContactChangeSet::insertRemovedRelationshipsContacts(const QList<unsigned>&) 0x0000b6f9   Thumb Code   120  qcontactchangeset.o(.text)
    QtMobility::QContactChangeSet::clearRemovedRelationshipsContacts() 0x0000b771   Thumb Code    22  qcontactchangeset.o(.text)
    QtMobility::QContactChangeSet::setOldAndNewSelfContactId(const QPair<unsigned, unsigned>&) 0x0000b787   Thumb Code    28  qcontactchangeset.o(.text)
    QtMobility::QContactChangeSet::oldAndNewSelfContactId() const 0x0000b7a3   Thumb Code    14  qcontactchangeset.o(.text)
    QtMobility::QContactChangeSet::clearAll() 0x0000b7b1   Thumb Code   126  qcontactchangeset.o(.text)
    QtMobility::QContactChangeSet::emitSignals(QtMobility::QContactManagerEngine*) 0x0000b82f   Thumb Code   354  qcontactchangeset.o(.text)
    QtMobility::QContactDetail::QContactDetail() 0x0000b991   Thumb Code    36  qcontactdetail.o(.text)
    QtMobility::QContactDetail::QContactDetail__sub_object() 0x0000b991   Thumb Code     0  qcontactdetail.o(.text)
    QtMobility::QContactDetail::QContactDetail(const char*) 0x0000b9b5   Thumb Code    54  qcontactdetail.o(.text)
    QtMobility::QContactDetail::QContactDetail__sub_object(const char*) 0x0000b9b5   Thumb Code     0  qcontactdetail.o(.text)
    QtMobility::QContactDetail::QContactDetail(const QString&) 0x0000b9eb   Thumb Code    58  qcontactdetail.o(.text)
    QtMobility::QContactDetail::QContactDetail__sub_object(const QString&) 0x0000b9eb   Thumb Code     0  qcontactdetail.o(.text)
    QtMobility::QContactDetail::~QContactDetail() 0x0000ba25   Thumb Code    14  qcontactdetail.o(.text)
    QtMobility::QContactDetail::~QContactDetail__sub_object() 0x0000ba25   Thumb Code     0  qcontactdetail.o(.text)
    QtMobility::QContactDetail::QContactDetail(const QtMobility::QContactDetail&) 0x0000ba33   Thumb Code    28  qcontactdetail.o(.text)
    QtMobility::QContactDetail::QContactDetail__sub_object(const QtMobility::QContactDetail&) 0x0000ba33   Thumb Code     0  qcontactdetail.o(.text)
    QtMobility::QContactDetail::operator =(const QtMobility::QContactDetail&) 0x0000ba4f   Thumb Code    22  qcontactdetail.o(.text)
    QtMobility::QContactDetail::accessConstraints() const 0x0000ba65   Thumb Code    16  qcontactdetail.o(.text)
    QtMobility::qHash(const QtMobility::QContactStringHolder&) 0x0000ba75   Thumb Code    48  qcontactdetail.o(.text)
    QtMobility::QContactDetail::operator ==(const QtMobility::QContactDetail&) const 0x0000baa5   Thumb Code   100  qcontactdetail.o(.text)
    QtMobility::QContactDetail::definitionName() const 0x0000bb09   Thumb Code    24  qcontactdetail.o(.text)
    QtMobility::QContactDetail::isEmpty() const 0x0000bb21   Thumb Code    28  qcontactdetail.o(.text)
    QtMobility::QContactDetail::key() const  0x0000bb3d   Thumb Code    10  qcontactdetail.o(.text)
    QtMobility::QContactDetail::resetKey()   0x0000bb47   Thumb Code    26  qcontactdetail.o(.text)
    QtMobility::QContactDetail::value(const QString&) const 0x0000bb61   Thumb Code    56  qcontactdetail.o(.text)
    QtMobility::QContactDetail::removeValue(const QString&) 0x0000bb99   Thumb Code    48  qcontactdetail.o(.text)
    QtMobility::QContactDetail::setValue(const QString&, const QVariant&) 0x0000bbc9   Thumb Code    70  qcontactdetail.o(.text)
    QtMobility::QContactDetail::hasValue(const QString&) const 0x0000bc0f   Thumb Code    44  qcontactdetail.o(.text)
    QtMobility::QContactDetail::variantValues() const 0x0000bc3b   Thumb Code   176  qcontactdetail.o(.text)
    QtMobility::QContactDetail::variantValue(const QString&) const 0x0000bceb   Thumb Code    38  qcontactdetail.o(.text)
    QtMobility::QContactDetail::value(const char*) const 0x0000bd11   Thumb Code    52  qcontactdetail.o(.text)
    QtMobility::QContactDetail::removeValue(const char*) 0x0000bd45   Thumb Code    46  qcontactdetail.o(.text)
    QtMobility::QContactDetail::setValue(const char*, const QVariant&) 0x0000bd73   Thumb Code    70  qcontactdetail.o(.text)
    QtMobility::QContactDetail::hasValue(const char*) const 0x0000bdb9   Thumb Code    40  qcontactdetail.o(.text)
    QtMobility::QContactDetail::variantValue(const char*) const 0x0000bde1   Thumb Code    38  qcontactdetail.o(.text)
    QtMobility::QContactDetail::QContactDetail(const QtMobility::QContactDetail&, const QString&) 0x0000be07   Thumb Code   104  qcontactdetail.o(.text)
    QtMobility::QContactDetail::QContactDetail__sub_object(const QtMobility::QContactDetail&, const QString&) 0x0000be07   Thumb Code     0  qcontactdetail.o(.text)
    QtMobility::QContactDetail::assign(const QtMobility::QContactDetail&, const QString&) 0x0000be6f   Thumb Code    98  qcontactdetail.o(.text)
    QtMobility::QContactDetail::QContactDetail(const QtMobility::QContactDetail&, const char*) 0x0000bed1   Thumb Code   100  qcontactdetail.o(.text)
    QtMobility::QContactDetail::QContactDetail__sub_object(const QtMobility::QContactDetail&, const char*) 0x0000bed1   Thumb Code     0  qcontactdetail.o(.text)
    QtMobility::QContactDetail::assign(const QtMobility::QContactDetail&, const char*) 0x0000bf35   Thumb Code    92  qcontactdetail.o(.text)
    QtMobility::qHash(const QtMobility::QContactDetail&) 0x0000c097   Thumb Code   134  qcontactdetail.o(.text)
    QtMobility::operator <<(QDebug, const QtMobility::QContactDetail&) 0x0000c11d   Thumb Code   284  qcontactdetail.o(.text)
    QtMobility::operator <<(QDataStream&, const QtMobility::QContactDetail&) 0x0000c239   Thumb Code    96  qcontactdetail.o(.text)
    QtMobility::operator >>(QDataStream&, QtMobility::QContactDetail&) 0x0000c299   Thumb Code   388  qcontactdetail.o(.text)
    QtMobility::QContactDetailDefinition::QContactDetailDefinition() 0x0000c475   Thumb Code    76  qcontactdetaildefinition.o(.text)
    QtMobility::QContactDetailDefinition::QContactDetailDefinition__sub_object() 0x0000c475   Thumb Code     0  qcontactdetaildefinition.o(.text)
    QtMobility::QContactDetailDefinition::~QContactDetailDefinition() 0x0000c4c1   Thumb Code    14  qcontactdetaildefinition.o(.text)
    QtMobility::QContactDetailDefinition::~QContactDetailDefinition__sub_object() 0x0000c4c1   Thumb Code     0  qcontactdetaildefinition.o(.text)
    QtMobility::QContactDetailDefinition::QContactDetailDefinition(const QtMobility::QContactDetailDefinition&) 0x0000c4cf   Thumb Code    28  qcontactdetaildefinition.o(.text)
    QtMobility::QContactDetailDefinition::QContactDetailDefinition__sub_object(const QtMobility::QContactDetailDefinition&) 0x0000c4cf   Thumb Code     0  qcontactdetaildefinition.o(.text)
    QtMobility::QContactDetailDefinition::operator =(const QtMobility::QContactDetailDefinition&) 0x0000c4eb   Thumb Code    72  qcontactdetaildefinition.o(.text)
    QtMobility::QContactDetailDefinition::operator ==(const QtMobility::QContactDetailDefinition&) const 0x0000c533   Thumb Code    92  qcontactdetaildefinition.o(.text)
    QtMobility::QContactDetailDefinition::isEmpty() const 0x0000c58f   Thumb Code    64  qcontactdetaildefinition.o(.text)
    QtMobility::QContactDetailDefinition::setName(const QString&) 0x0000c5cf   Thumb Code    24  qcontactdetaildefinition.o(.text)
    QtMobility::QContactDetailDefinition::name() const 0x0000c5e7   Thumb Code    24  qcontactdetaildefinition.o(.text)
    QtMobility::QContactDetailDefinition::setUnique(bool) 0x0000c5ff   Thumb Code    16  qcontactdetaildefinition.o(.text)
    QtMobility::QContactDetailDefinition::isUnique() const 0x0000c60f   Thumb Code    10  qcontactdetaildefinition.o(.text)
    QtMobility::QContactDetailDefinition::setFields(const QMap<QString, QtMobility::QContactDetailFieldDefinition>&) 0x0000c619   Thumb Code    26  qcontactdetaildefinition.o(.text)
    QtMobility::QContactDetailDefinition::fields() const 0x0000c633   Thumb Code    26  qcontactdetaildefinition.o(.text)
    QtMobility::QContactDetailDefinition::insertField(const QString&, const QtMobility::QContactDetailFieldDefinition&) 0x0000c64d   Thumb Code   100  qcontactdetaildefinition.o(.text)
    QtMobility::QContactDetailDefinition::removeField(const QString&) 0x0000c6b1   Thumb Code    26  qcontactdetaildefinition.o(.text)
    QtMobility::operator <<(QDataStream&, const QtMobility::QContactDetailDefinition&) 0x0000c6cb   Thumb Code    90  qcontactdetaildefinition.o(.text)
    QtMobility::operator >>(QDataStream&, QtMobility::QContactDetailDefinition&) 0x0000c725   Thumb Code   140  qcontactdetaildefinition.o(.text)
    QtMobility::QContactDetailFieldDefinition::QContactDetailFieldDefinition() 0x0000c7b1   Thumb Code    64  qcontactdetailfielddefinition.o(.text)
    QtMobility::QContactDetailFieldDefinition::QContactDetailFieldDefinition__sub_object() 0x0000c7b1   Thumb Code     0  qcontactdetailfielddefinition.o(.text)
    QtMobility::QContactDetailFieldDefinition::~QContactDetailFieldDefinition() 0x0000c7f1   Thumb Code    14  qcontactdetailfielddefinition.o(.text)
    QtMobility::QContactDetailFieldDefinition::~QContactDetailFieldDefinition__sub_object() 0x0000c7f1   Thumb Code     0  qcontactdetailfielddefinition.o(.text)
    QtMobility::QContactDetailFieldDefinition::QContactDetailFieldDefinition(const QtMobility::QContactDetailFieldDefinition&) 0x0000c7ff   Thumb Code    28  qcontactdetailfielddefinition.o(.text)
    QtMobility::QContactDetailFieldDefinition::QContactDetailFieldDefinition__sub_object(const QtMobility::QContactDetailFieldDefinition&) 0x0000c7ff   Thumb Code     0  qcontactdetailfielddefinition.o(.text)
    QtMobility::QContactDetailFieldDefinition::operator =(const QtMobility::QContactDetailFieldDefinition&) 0x0000c81b   Thumb Code    72  qcontactdetailfielddefinition.o(.text)
    QtMobility::QContactDetailFieldDefinition::dataType() const 0x0000c863   Thumb Code    10  qcontactdetailfielddefinition.o(.text)
    QtMobility::QContactDetailFieldDefinition::setDataType(QVariant::Type) 0x0000c86d   Thumb Code    16  qcontactdetailfielddefinition.o(.text)
    QtMobility::QContactDetailFieldDefinition::allowableValues() const 0x0000c87d   Thumb Code    24  qcontactdetailfielddefinition.o(.text)
    QtMobility::QContactDetailFieldDefinition::setAllowableValues(QList<QVariant>) 0x0000c895   Thumb Code    24  qcontactdetailfielddefinition.o(.text)
    QtMobility::QContactDetailFieldDefinition::operator ==(const QtMobility::QContactDetailFieldDefinition&) const 0x0000c8ad   Thumb Code    58  qcontactdetailfielddefinition.o(.text)
    QtMobility::QContactDetailFieldDefinition::operator !=(const QtMobility::QContactDetailFieldDefinition&) const 0x0000c8e7   Thumb Code    20  qcontactdetailfielddefinition.o(.text)
    QtMobility::operator <<(QDataStream&, const QtMobility::QContactDetailFieldDefinition&) 0x0000c8fb   Thumb Code    66  qcontactdetailfielddefinition.o(.text)
    QtMobility::operator >>(QDataStream&, QtMobility::QContactDetailFieldDefinition&) 0x0000c93d   Thumb Code   128  qcontactdetailfielddefinition.o(.text)
    QtMobility::QContactFetchHint::QContactFetchHint() 0x0000c9bd   Thumb Code    98  qcontactfetchhint.o(.text)
    QtMobility::QContactFetchHint::QContactFetchHint__sub_object() 0x0000c9bd   Thumb Code     0  qcontactfetchhint.o(.text)
    QtMobility::QContactFetchHint::QContactFetchHint(const QtMobility::QContactFetchHint&) 0x0000ca1f   Thumb Code    28  qcontactfetchhint.o(.text)
    QtMobility::QContactFetchHint::QContactFetchHint__sub_object(const QtMobility::QContactFetchHint&) 0x0000ca1f   Thumb Code     0  qcontactfetchhint.o(.text)
    QtMobility::QContactFetchHint::~QContactFetchHint() 0x0000ca3b   Thumb Code    14  qcontactfetchhint.o(.text)
    QtMobility::QContactFetchHint::~QContactFetchHint__sub_object() 0x0000ca3b   Thumb Code     0  qcontactfetchhint.o(.text)
    QtMobility::QContactFetchHint::operator =(const QtMobility::QContactFetchHint&) 0x0000ca49   Thumb Code    72  qcontactfetchhint.o(.text)
    QtMobility::QContactFetchHint::detailDefinitionsHint() const 0x0000ca91   Thumb Code    24  qcontactfetchhint.o(.text)
    QtMobility::QContactFetchHint::setDetailDefinitionsHint(const QStringList&) 0x0000caa9   Thumb Code    24  qcontactfetchhint.o(.text)
    QtMobility::QContactFetchHint::relationshipTypesHint() const 0x0000cac1   Thumb Code    26  qcontactfetchhint.o(.text)
    QtMobility::QContactFetchHint::setRelationshipTypesHint(const QStringList&) 0x0000cadb   Thumb Code    26  qcontactfetchhint.o(.text)
    QtMobility::QContactFetchHint::preferredImageSize() const 0x0000caf5   Thumb Code    14  qcontactfetchhint.o(.text)
    QtMobility::QContactFetchHint::setPreferredImageSize(const QSize&) 0x0000cb03   Thumb Code    22  qcontactfetchhint.o(.text)
    QtMobility::QContactFetchHint::optimizationHints() const 0x0000cb19   Thumb Code    16  qcontactfetchhint.o(.text)
    QtMobility::QContactFetchHint::setOptimizationHints(QFlags<QtMobility::QContactFetchHint::OptimizationHint>) 0x0000cb29   Thumb Code    24  qcontactfetchhint.o(.text)
    QtMobility::operator <<(QDataStream&, const QtMobility::QContactFetchHint&) 0x0000cb41   Thumb Code   112  qcontactfetchhint.o(.text)
    QtMobility::operator >>(QDataStream&, QtMobility::QContactFetchHint&) 0x0000cbb1   Thumb Code   188  qcontactfetchhint.o(.text)
    QtMobility::QContactFilter::QContactFilter() 0x0000cc6d   Thumb Code    16  qcontactfilter.o(.text)
    QtMobility::QContactFilter::QContactFilter__sub_object() 0x0000cc6d   Thumb Code     0  qcontactfilter.o(.text)
    QtMobility::QContactFilter::~QContactFilter() 0x0000cc7d   Thumb Code    14  qcontactfilter.o(.text)
    QtMobility::QContactFilter::~QContactFilter__sub_object() 0x0000cc7d   Thumb Code     0  qcontactfilter.o(.text)
    QtMobility::QContactFilter::QContactFilter(const QtMobility::QContactFilter&) 0x0000cc8b   Thumb Code    30  qcontactfilter.o(.text)
    QtMobility::QContactFilter::QContactFilter__sub_object(const QtMobility::QContactFilter&) 0x0000cc8b   Thumb Code     0  qcontactfilter.o(.text)
    QtMobility::QContactFilter::operator =(const QtMobility::QContactFilter&) 0x0000cca9   Thumb Code    76  qcontactfilter.o(.text)
    QtMobility::QContactFilter::type() const 0x0000ccf5   Thumb Code    32  qcontactfilter.o(.text)
    QtMobility::QContactFilter::operator ==(const QtMobility::QContactFilter&) const 0x0000cd15   Thumb Code    68  qcontactfilter.o(.text)
    QtMobility::QContactFilter::QContactFilter(QtMobility::QContactFilterPrivate*) 0x0000cd59   Thumb Code    18  qcontactfilter.o(.text)
    QtMobility::QContactFilter::QContactFilter__sub_object(QtMobility::QContactFilterPrivate*) 0x0000cd59   Thumb Code     0  qcontactfilter.o(.text)
    QtMobility::operator <<(QDataStream&, const QtMobility::QContactFilter&) 0x0000cd6b   Thumb Code    66  qcontactfilter.o(.text)
    QtMobility::operator >>(QDataStream&, QtMobility::QContactFilter&) 0x0000cdad   Thumb Code   430  qcontactfilter.o(.text)
    QtMobility::operator &(const QtMobility::QContactFilter&, const QtMobility::QContactFilter&) 0x0000cf5b   Thumb Code    52  qcontactfilter.o(.text)
    QtMobility::operator |(const QtMobility::QContactFilter&, const QtMobility::QContactFilter&) 0x0000cf8f   Thumb Code   136  qcontactfilter.o(.text)
    QtMobility::QContactId::QContactId()     0x0000d019   Thumb Code    64  qcontactid.o(.text)
    QtMobility::QContactId::QContactId__sub_object() 0x0000d019   Thumb Code     0  qcontactid.o(.text)
    QtMobility::QContactId::~QContactId()    0x0000d059   Thumb Code    14  qcontactid.o(.text)
    QtMobility::QContactId::~QContactId__sub_object() 0x0000d059   Thumb Code     0  qcontactid.o(.text)
    QtMobility::QContactId::QContactId(const QtMobility::QContactId&) 0x0000d067   Thumb Code    28  qcontactid.o(.text)
    QtMobility::QContactId::QContactId__sub_object(const QtMobility::QContactId&) 0x0000d067   Thumb Code     0  qcontactid.o(.text)
    QtMobility::QContactId::operator =(const QtMobility::QContactId&) 0x0000d083   Thumb Code    72  qcontactid.o(.text)
    QtMobility::QContactId::operator ==(const QtMobility::QContactId&) const 0x0000d0cb   Thumb Code    58  qcontactid.o(.text)
    QtMobility::QContactId::operator !=(const QtMobility::QContactId&) const 0x0000d105   Thumb Code    20  qcontactid.o(.text)
    QtMobility::QContactId::localId() const  0x0000d119   Thumb Code    10  qcontactid.o(.text)
    QtMobility::QContactId::managerUri() const 0x0000d123   Thumb Code    24  qcontactid.o(.text)
    QtMobility::QContactId::operator <(const QtMobility::QContactId&) const 0x0000d13b   Thumb Code    86  qcontactid.o(.text)
    QtMobility::QContactId::setManagerUri(const QString&) 0x0000d191   Thumb Code    24  qcontactid.o(.text)
    QtMobility::QContactId::setLocalId(const unsigned&) 0x0000d1a9   Thumb Code    18  qcontactid.o(.text)
    QtMobility::qHash(const QtMobility::QContactId&) 0x0000d1bb   Thumb Code    44  qcontactid.o(.text)
    QtMobility::operator <<(QDebug, const QtMobility::QContactId&) 0x0000d1e7   Thumb Code   152  qcontactid.o(.text)
    QtMobility::operator <<(QDataStream&, const QtMobility::QContactId&) 0x0000d27f   Thumb Code    68  qcontactid.o(.text)
    QtMobility::operator >>(QDataStream&, QtMobility::QContactId&) 0x0000d2c3   Thumb Code   112  qcontactid.o(.text)
    QtMobility::QContactManagerData::loadStaticFactories() 0x0000d5ed   Thumb Code   308  qcontactmanager_p.o(.text)
    QtMobility::QContactManagerData::loadFactories() 0x0000d721   Thumb Code  1586  qcontactmanager_p.o(.text)
    QtMobility::QContactManagerData::createEngine(const QString&, const QMap<QString, QString>&) 0x0000de03   Thumb Code   660  qcontactmanager_p.o(.text)
    QtMobility::QContactManagerData::engine(const QtMobility::QContactManager*) 0x0000e097   Thumb Code    16  qcontactmanager_p.o(.text)
    QtMobility::QContactManager::getStaticMetaObject() 0x0000e17d   Thumb Code     4  qcontactmanager.o(.text)
    QtMobility::QContactManager::metaObject() const 0x0000e181   Thumb Code    28  qcontactmanager.o(.text)
    QtMobility::QContactManager::qt_metacast(const char*) 0x0000e19d   Thumb Code    40  qcontactmanager.o(.text)
    QtMobility::QContactManager::selfContactIdChanged(const unsigned&, const unsigned&) 0x0000e1c5   Thumb Code    36  qcontactmanager.o(.text)
    QtMobility::QContactManager::relationshipsRemoved(const QList<unsigned>&) 0x0000e1e9   Thumb Code    30  qcontactmanager.o(.text)
    QtMobility::QContactManager::relationshipsAdded(const QList<unsigned>&) 0x0000e207   Thumb Code    30  qcontactmanager.o(.text)
    QtMobility::QContactManager::contactsRemoved(const QList<unsigned>&) 0x0000e225   Thumb Code    30  qcontactmanager.o(.text)
    QtMobility::QContactManager::contactsChanged(const QList<unsigned>&) 0x0000e243   Thumb Code    30  qcontactmanager.o(.text)
    QtMobility::QContactManager::contactsAdded(const QList<unsigned>&) 0x0000e261   Thumb Code    30  qcontactmanager.o(.text)
    QtMobility::QContactManager::dataChanged() 0x0000e27f   Thumb Code    18  qcontactmanager.o(.text)
    QtMobility::QContactManager::qt_metacall(QMetaObject::Call, int, void**) 0x0000e291   Thumb Code   132  qcontactmanager.o(.text)
    QtMobility::QContactManager::createEngine(const QString&, const QMap<QString, QString>&) 0x0000e315   Thumb Code   500  qcontactmanager.o(.text)
    QtMobility::QContactManager::QContactManager(const QString&, const QMap<QString, QString>&, QObject*) 0x0000e509   Thumb Code    62  qcontactmanager.o(.text)
    QtMobility::QContactManager::QContactManager__sub_object(const QString&, const QMap<QString, QString>&, QObject*) 0x0000e509   Thumb Code     0  qcontactmanager.o(.text)
    QtMobility::QContactManager::QContactManager(const QString&, int, const QMap<QString, QString>&, QObject*) 0x0000e547   Thumb Code   232  qcontactmanager.o(.text)
    QtMobility::QContactManager::QContactManager__sub_object(const QString&, int, const QMap<QString, QString>&, QObject*) 0x0000e547   Thumb Code     0  qcontactmanager.o(.text)
    QtMobility::QContactManager::QContactManager(QObject*) 0x0000e62f   Thumb Code    92  qcontactmanager.o(.text)
    QtMobility::QContactManager::QContactManager__sub_object(QObject*) 0x0000e62f   Thumb Code     0  qcontactmanager.o(.text)
    QtMobility::QContactManager::parseUri(const QString&, QString*, QMap<QString, QString>*) 0x0000e68b   Thumb Code  1010  qcontactmanager.o(.text)
    QtMobility::QContactManager::fromUri(const QString&, QObject*) 0x0000ea7d   Thumb Code   284  qcontactmanager.o(.text)
    QtMobility::QContactManager::~QContactManager() 0x0000eb99   Thumb Code    80  qcontactmanager.o(.text)
    QtMobility::QContactManager::~QContactManager__sub_object() 0x0000eb99   Thumb Code     0  qcontactmanager.o(.text)
    QtMobility::QContactManager::~QContactManager__deallocating() 0x0000ebe9   Thumb Code    22  qcontactmanager.o(.text)
    QtMobility::QContactManager::managerName() const 0x0000ebff   Thumb Code    22  qcontactmanager.o(.text)
    QtMobility::QContactManager::managerParameters() const 0x0000ec15   Thumb Code    74  qcontactmanager.o(.text)
    QtMobility::QContactManager::managerUri() const 0x0000ec5f   Thumb Code    18  qcontactmanager.o(.text)
    QtMobility::QContactManager::managerVersion() const 0x0000ec71   Thumb Code    18  qcontactmanager.o(.text)
    QtMobility::QContactManager::buildUri(const QString&, const QMap<QString, QString>&, int) 0x0000ec83   Thumb Code   820  qcontactmanager.o(.text)
    QtMobility::QContactManager::error() const 0x0000efb7   Thumb Code     8  qcontactmanager.o(.text)
    QtMobility::QContactManager::errorMap() const 0x0000efbf   Thumb Code    66  qcontactmanager.o(.text)
    QtMobility::QContactManager::contactIds(const QList<QtMobility::QContactSortOrder>&) const 0x0000f001   Thumb Code    66  qcontactmanager.o(.text)
    QtMobility::QContactManager::contactIds(const QtMobility::QContactFilter&, const QList<QtMobility::QContactSortOrder>&) const 0x0000f043   Thumb Code    54  qcontactmanager.o(.text)
    QtMobility::QContactManager::contacts(const QList<QtMobility::QContactSortOrder>&, const QtMobility::QContactFetchHint&) const 0x0000f079   Thumb Code    76  qcontactmanager.o(.text)
    QtMobility::QContactManager::contacts(const QtMobility::QContactFilter&, const QList<QtMobility::QContactSortOrder>&, const QtMobility::QContactFetchHint&) const 0x0000f0c5   Thumb Code    66  qcontactmanager.o(.text)
    QtMobility::QContactManager::contacts(const QList<unsigned>&, const QtMobility::QContactFetchHint&, QMap<int, QtMobility::QContactManager::Error>*) const 0x0000f107   Thumb Code    90  qcontactmanager.o(.text)
    QtMobility::QContactManager::contact(const unsigned&, const QtMobility::QContactFetchHint&) const 0x0000f161   Thumb Code    54  qcontactmanager.o(.text)
    QtMobility::QContactManager::saveContact(QtMobility::QContact*) 0x0000f197   Thumb Code    54  qcontactmanager.o(.text)
    QtMobility::QContactManager::removeContact(const unsigned&) 0x0000f1cd   Thumb Code    40  qcontactmanager.o(.text)
    QtMobility::QContactManager::saveContacts(QList<QtMobility::QContact>*, QMap<int, QtMobility::QContactManager::Error>*) 0x0000f1f5   Thumb Code   100  qcontactmanager.o(.text)
    QtMobility::QContactManager::saveContacts(QList<QtMobility::QContact>*, const QStringList&, QMap<int, QtMobility::QContactManager::Error>*) 0x0000f259   Thumb Code   112  qcontactmanager.o(.text)
    QtMobility::QContactManager::removeContacts(const QList<unsigned>&, QMap<int, QtMobility::QContactManager::Error>*) 0x0000f2c9   Thumb Code   106  qcontactmanager.o(.text)
    QtMobility::QContactManager::compatibleContact(const QtMobility::QContact&) 0x0000f333   Thumb Code    44  qcontactmanager.o(.text)
    QtMobility::QContactManager::synthesizedContactDisplayLabel(const QtMobility::QContact&) const 0x0000f35f   Thumb Code    44  qcontactmanager.o(.text)
    QtMobility::QContactManager::synthesizeContactDisplayLabel(QtMobility::QContact*) const 0x0000f38b   Thumb Code    68  qcontactmanager.o(.text)
    QtMobility::QContactManager::setSelfContactId(const unsigned&) 0x0000f3cf   Thumb Code    40  qcontactmanager.o(.text)
    QtMobility::QContactManager::selfContactId() const 0x0000f3f7   Thumb Code    36  qcontactmanager.o(.text)
    QtMobility::QContactManager::relationships(const QtMobility::QContactId&, QtMobility::QContactRelationship::Role) const 0x0000f41b   Thumb Code    76  qcontactmanager.o(.text)
    QtMobility::QContactManager::relationships(const QString&, const QtMobility::QContactId&, QtMobility::QContactRelationship::Role) const 0x0000f467   Thumb Code    66  qcontactmanager.o(.text)
    QtMobility::QContactManager::saveRelationship(QtMobility::QContactRelationship*) 0x0000f4a9   Thumb Code    54  qcontactmanager.o(.text)
    QtMobility::QContactManager::saveRelationships(QList<QtMobility::QContactRelationship>*, QMap<int, QtMobility::QContactManager::Error>*) 0x0000f4df   Thumb Code   100  qcontactmanager.o(.text)
    QtMobility::QContactManager::removeRelationship(const QtMobility::QContactRelationship&) 0x0000f543   Thumb Code    40  qcontactmanager.o(.text)
    QtMobility::QContactManager::removeRelationships(const QList<QtMobility::QContactRelationship>&, QMap<int, QtMobility::QContactManager::Error>*) 0x0000f56b   Thumb Code    64  qcontactmanager.o(.text)
    QtMobility::QContactManager::supportedContactTypes() const 0x0000f5ab   Thumb Code    24  qcontactmanager.o(.text)
    QtMobility::QContactManager::detailDefinitions(const QString&) const 0x0000f5c3   Thumb Code   128  qcontactmanager.o(.text)
    QtMobility::QContactManager::detailDefinition(const QString&, const QString&) const 0x0000f643   Thumb Code   130  qcontactmanager.o(.text)
    QtMobility::QContactManager::saveDetailDefinition(const QtMobility::QContactDetailDefinition&, const QString&) 0x0000f6c5   Thumb Code   126  qcontactmanager.o(.text)
    QtMobility::QContactManager::removeDetailDefinition(const QString&, const QString&) 0x0000f743   Thumb Code   126  qcontactmanager.o(.text)
    QtMobility::QContactManager::hasFeature(QtMobility::QContactManager::ManagerFeature, const QString&) const 0x0000f7c1   Thumb Code    28  qcontactmanager.o(.text)
    QtMobility::QContactManager::isRelationshipTypeSupported(const QString&, const QString&) const 0x0000f7dd   Thumb Code    28  qcontactmanager.o(.text)
    QtMobility::QContactManager::supportedDataTypes() const 0x0000f7f9   Thumb Code    24  qcontactmanager.o(.text)
    QtMobility::QContactManager::isFilterSupported(const QtMobility::QContactFilter&) const 0x0000f811   Thumb Code    24  qcontactmanager.o(.text)
    QtMobility::QContactManager::availableManagers() 0x0000f829   Thumb Code   274  qcontactmanager.o(.text)
    QtMobility::QContactManagerEngine::compareVariant(const QVariant&, const QVariant&, Qt::CaseSensitivity) 0x0000f9a1   Thumb Code   478  qcontactmanagerengine.o(.text)
    QtMobility::QContactManagerEngine::compareContact(const QtMobility::QContact&, const QtMobility::QContact&, const QList<QtMobility::QContactSortOrder>&) 0x0000fb7f   Thumb Code   698  qcontactmanagerengine.o(.text)
    QtMobility::QContactManagerEngine::getStaticMetaObject() 0x0000fe39   Thumb Code     4  qcontactmanagerengine.o(.text)
    QtMobility::QContactManagerEngine::metaObject() const 0x0000fe3d   Thumb Code    28  qcontactmanagerengine.o(.text)
    QtMobility::QContactManagerEngine::qt_metacast(const char*) 0x0000fe59   Thumb Code    40  qcontactmanagerengine.o(.text)
    QtMobility::QContactManagerEngine::selfContactIdChanged(const unsigned&, const unsigned&) 0x0000fe81   Thumb Code    36  qcontactmanagerengine.o(.text)
    QtMobility::QContactManagerEngine::relationshipsRemoved(const QList<unsigned>&) 0x0000fea5   Thumb Code    30  qcontactmanagerengine.o(.text)
    QtMobility::QContactManagerEngine::relationshipsAdded(const QList<unsigned>&) 0x0000fec3   Thumb Code    30  qcontactmanagerengine.o(.text)
    QtMobility::QContactManagerEngine::contactsRemoved(const QList<unsigned>&) 0x0000fee1   Thumb Code    30  qcontactmanagerengine.o(.text)
    QtMobility::QContactManagerEngine::contactsChanged(const QList<unsigned>&) 0x0000feff   Thumb Code    30  qcontactmanagerengine.o(.text)
    QtMobility::QContactManagerEngine::contactsAdded(const QList<unsigned>&) 0x0000ff1d   Thumb Code    30  qcontactmanagerengine.o(.text)
    QtMobility::QContactManagerEngine::dataChanged() 0x0000ff3b   Thumb Code    18  qcontactmanagerengine.o(.text)
    QtMobility::QContactManagerEngine::qt_metacall(QMetaObject::Call, int, void**) 0x0000ff4d   Thumb Code   132  qcontactmanagerengine.o(.text)
    QtMobility::QContactManagerEngine::managerName() const 0x0000ffd1   Thumb Code    24  qcontactmanagerengine.o(.text)
    QtMobility::QContactManagerEngine::managerParameters() const 0x0000ffe9   Thumb Code    26  qcontactmanagerengine.o(.text)
    QtMobility::QContactManagerEngine::managerUri() const 0x00010003   Thumb Code    80  qcontactmanagerengine.o(.text)
    QtMobility::QContactManagerEngine::contactIds(const QtMobility::QContactFilter&, const QList<QtMobility::QContactSortOrder>&, QtMobility::QContactManager::Error*) const 0x00010053   Thumb Code    36  qcontactmanagerengine.o(.text)
    QtMobility::QContactManagerEngine::contacts(const QtMobility::QContactFilter&, const QList<QtMobility::QContactSortOrder>&, const QtMobility::QContactFetchHint&, QtMobility::QContactManager::Error*) const 0x00010077   Thumb Code    40  qcontactmanagerengine.o(.text)
    QtMobility::QContactManagerEngine::contact(const unsigned&, const QtMobility::QContactFetchHint&, QtMobility::QContactManager::Error*) const 0x0001009f   Thumb Code    36  qcontactmanagerengine.o(.text)
    QtMobility::QContactManagerEngine::saveContact(QtMobility::QContact*, QtMobility::QContactManager::Error*) 0x000100c3   Thumb Code   136  qcontactmanagerengine.o(.text)
    QtMobility::QContactManagerEngine::removeContact(const unsigned&, QtMobility::QContactManager::Error*) 0x0001014b   Thumb Code    98  qcontactmanagerengine.o(.text)
    QtMobility::QContactManagerEngine::saveRelationship(QtMobility::QContactRelationship*, QtMobility::QContactManager::Error*) 0x000101ad   Thumb Code   156  qcontactmanagerengine.o(.text)
    QtMobility::QContactManagerEngine::removeRelationship(const QtMobility::QContactRelationship&, QtMobility::QContactManager::Error*) 0x00010249   Thumb Code    98  qcontactmanagerengine.o(.text)
    QtMobility::QContactManagerEngine::saveContacts(QList<QtMobility::QContact>*, QMap<int, QtMobility::QContactManager::Error>*, QtMobility::QContactManager::Error*) 0x000102ab   Thumb Code    20  qcontactmanagerengine.o(.text)
    QtMobility::QContactManagerEngine::removeContacts(const QList<unsigned>&, QMap<int, QtMobility::QContactManager::Error>*, QtMobility::QContactManager::Error*) 0x000102bf   Thumb Code    20  qcontactmanagerengine.o(.text)
    QtMobility::QContactManagerEngine::compatibleContact(const QtMobility::QContact&, QtMobility::QContactManager::Error*) const 0x000102d3   Thumb Code  1572  qcontactmanagerengine.o(.text)
    QtMobility::QContactManagerEngine::synthesizedDisplayLabel(const QtMobility::QContact&, QtMobility::QContactManager::Error*) const 0x000108f7   Thumb Code   938  qcontactmanagerengine.o(.text)
    QtMobility::QContactManagerEngine::setSelfContactId(const unsigned&, QtMobility::QContactManager::Error*) 0x00010ca1   Thumb Code    48  qcontactmanagerengine.o(.text)
    QtMobility::QContactManagerEngine::selfContactId(QtMobility::QContactManager::Error*) const 0x00010cd1   Thumb Code    10  qcontactmanagerengine.o(.text)
    QtMobility::QContactManagerEngine::relationships(const QString&, const QtMobility::QContactId&, QtMobility::QContactRelationship::Role, QtMobility::QContactManager::Error*) const 0x00010cdb   Thumb Code    40  qcontactmanagerengine.o(.text)
    QtMobility::QContactManagerEngine::saveRelationships(QList<QtMobility::QContactRelationship>*, QMap<int, QtMobility::QContactManager::Error>*, QtMobility::QContactManager::Error*) 0x00010d03   Thumb Code    20  qcontactmanagerengine.o(.text)
    QtMobility::QContactManagerEngine::removeRelationships(const QList<QtMobility::QContactRelationship>&, QMap<int, QtMobility::QContactManager::Error>*, QtMobility::QContactManager::Error*) 0x00010d17   Thumb Code    20  qcontactmanagerengine.o(.text)
    QtMobility::QContactManagerEngine::validateContact(const QtMobility::QContact&, QtMobility::QContactManager::Error*) const 0x00010d2b   Thumb Code  1066  qcontactmanagerengine.o(.text)
    QtMobility::QContactManagerEngine::validateDefinition(const QtMobility::QContactDetailDefinition&, QtMobility::QContactManager::Error*) const 0x00011155   Thumb Code   522  qcontactmanagerengine.o(.text)
    QtMobility::QContactManagerEngine::detailDefinitions(const QString&, QtMobility::QContactManager::Error*) const 0x0001135f   Thumb Code    28  qcontactmanagerengine.o(.text)
    QtMobility::QContactManagerEngine::detailDefinition(const QString&, const QString&, QtMobility::QContactManager::Error*) const 0x0001137b   Thumb Code    98  qcontactmanagerengine.o(.text)
    QtMobility::QContactManagerEngine::saveDetailDefinition(const QtMobility::QContactDetailDefinition&, const QString&, QtMobility::QContactManager::Error*) 0x000113dd   Thumb Code    20  qcontactmanagerengine.o(.text)
    QtMobility::QContactManagerEngine::removeDetailDefinition(const QString&, const QString&, QtMobility::QContactManager::Error*) 0x000113f1   Thumb Code    20  qcontactmanagerengine.o(.text)
    QtMobility::QContactManagerEngine::requestDestroyed(QtMobility::QContactAbstractRequest*) 0x00011405   Thumb Code     6  qcontactmanagerengine.o(.text)
    QtMobility::QContactManagerEngine::startRequest(QtMobility::QContactAbstractRequest*) 0x0001140b   Thumb Code    10  qcontactmanagerengine.o(.text)
    QtMobility::QContactManagerEngine::cancelRequest(QtMobility::QContactAbstractRequest*) 0x00011415   Thumb Code    10  qcontactmanagerengine.o(.text)
    QtMobility::QContactManagerEngine::waitForRequestFinished(QtMobility::QContactAbstractRequest*, int) 0x0001141f   Thumb Code    14  qcontactmanagerengine.o(.text)
    QtMobility::QContactManagerEngine::hasFeature(QtMobility::QContactManager::ManagerFeature, const QString&) const 0x0001142d   Thumb Code    14  qcontactmanagerengine.o(.text)
    QtMobility::QContactManagerEngine::isRelationshipTypeSupported(const QString&, const QString&) const 0x0001143b   Thumb Code    14  qcontactmanagerengine.o(.text)
    QtMobility::QContactManagerEngine::isFilterSupported(const QtMobility::QContactFilter&) const 0x00011449   Thumb Code    10  qcontactmanagerengine.o(.text)
    QtMobility::QContactManagerEngine::supportedDataTypes() const 0x00011453   Thumb Code    22  qcontactmanagerengine.o(.text)
    QtMobility::QContactManagerEngine::supportedContactTypes() const 0x00011469   Thumb Code   200  qcontactmanagerengine.o(.text)
    QtMobility::QContactManagerEngine::schemaDefinitions(int) 0x00011531   Thumb Code  9640  qcontactmanagerengine.o(.text)
    QtMobility::QContactManagerEngine::schemaDefinitions() 0x00013ad9   Thumb Code    14  qcontactmanagerengine.o(.text)
    QtMobility::QContactManagerEngine::updateRequestState(QtMobility::QContactAbstractRequest*, QtMobility::QContactAbstractRequest::State) 0x00013ae7   Thumb Code    60  qcontactmanagerengine.o(.text)
    QtMobility::QContactManagerEngine::updateContactLocalIdFetchRequest(QtMobility::QContactLocalIdFetchRequest*, const QList<unsigned>&, QtMobility::QContactManager::Error, QtMobility::QContactAbstractRequest::State) 0x00013b23   Thumb Code   268  qcontactmanagerengine.o(.text)
    QtMobility::QContactManagerEngine::updateContactFetchRequest(QtMobility::QContactFetchRequest*, const QList<QtMobility::QContact>&, QtMobility::QContactManager::Error, QtMobility::QContactAbstractRequest::State) 0x00013c2f   Thumb Code   196  qcontactmanagerengine.o(.text)
    QtMobility::QContactManagerEngine::updateContactRemoveRequest(QtMobility::QContactRemoveRequest*, QtMobility::QContactManager::Error, const QMap<int, QtMobility::QContactManager::Error>&, QtMobility::QContactAbstractRequest::State) 0x00013cf3   Thumb Code   198  qcontactmanagerengine.o(.text)
    QtMobility::QContactManagerEngine::updateContactSaveRequest(QtMobility::QContactSaveRequest*, const QList<QtMobility::QContact>&, QtMobility::QContactManager::Error, const QMap<int, QtMobility::QContactManager::Error>&, QtMobility::QContactAbstractRequest::State) 0x00013db9   Thumb Code   208  qcontactmanagerengine.o(.text)
    QtMobility::QContactManagerEngine::updateDefinitionSaveRequest(QtMobility::QContactDetailDefinitionSaveRequest*, const QList<QtMobility::QContactDetailDefinition>&, QtMobility::QContactManager::Error, const QMap<int, QtMobility::QContactManager::Error>&, QtMobility::QContactAbstractRequest::State) 0x00013e89   Thumb Code   274  qcontactmanagerengine.o(.text)
    QtMobility::QContactManagerEngine::updateDefinitionRemoveRequest(QtMobility::QContactDetailDefinitionRemoveRequest*, QtMobility::QContactManager::Error, const QMap<int, QtMobility::QContactManager::Error>&, QtMobility::QContactAbstractRequest::State) 0x00013f9b   Thumb Code   194  qcontactmanagerengine.o(.text)
    QtMobility::QContactManagerEngine::updateDefinitionFetchRequest(QtMobility::QContactDetailDefinitionFetchRequest*, const QMap<QString, QtMobility::QContactDetailDefinition>&, QtMobility::QContactManager::Error, QMap<int, QtMobility::QContactManager::Error>&, QtMobility::QContactAbstractRequest::State) 0x0001405d   Thumb Code   204  qcontactmanagerengine.o(.text)
    QtMobility::QContactManagerEngine::updateRelationshipSaveRequest(QtMobility::QContactRelationshipSaveRequest*, const QList<QtMobility::QContactRelationship>&, QtMobility::QContactManager::Error, const QMap<int, QtMobility::QContactManager::Error>&, QtMobility::QContactAbstractRequest::State) 0x00014129   Thumb Code   204  qcontactmanagerengine.o(.text)
    QtMobility::QContactManagerEngine::updateRelationshipRemoveRequest(QtMobility::QContactRelationshipRemoveRequest*, QtMobility::QContactManager::Error, const QMap<int, QtMobility::QContactManager::Error>&, QtMobility::QContactAbstractRequest::State) 0x000141f5   Thumb Code   194  qcontactmanagerengine.o(.text)
    QtMobility::QContactManagerEngine::updateRelationshipFetchRequest(QtMobility::QContactRelationshipFetchRequest*, const QList<QtMobility::QContactRelationship>&, QtMobility::QContactManager::Error, QtMobility::QContactAbstractRequest::State) 0x000142b7   Thumb Code   192  qcontactmanagerengine.o(.text)
    QtMobility::QContactManagerEngine::setDetailAccessConstraints(QtMobility::QContactDetail*, QFlags<QtMobility::QContactDetail::AccessConstraint>) 0x00014377   Thumb Code    66  qcontactmanagerengine.o(.text)
    QtMobility::QContactManagerEngine::setContactDisplayLabel(QtMobility::QContact*, const QString&) 0x000143b9   Thumb Code   166  qcontactmanagerengine.o(.text)
    QtMobility::QContactManagerEngine::setContactRelationships(QtMobility::QContact*, const QList<QtMobility::QContactRelationship>&) 0x0001445f   Thumb Code    26  qcontactmanagerengine.o(.text)
    QtMobility::QContactManagerEngine::addSorted(QList<QtMobility::QContact>*, const QtMobility::QContact&, QList<QtMobility::QContactSortOrder>&) 0x00014479   Thumb Code   154  qcontactmanagerengine.o(.text)
    QtMobility::QContactManagerEngine::testFilter(const QtMobility::QContactFilter&, const QtMobility::QContact&) 0x000145f7   Thumb Code  8948  qcontactmanagerengine.o(.text)
    QtMobility::QContactManagerEngine::sortContacts(const QList<QtMobility::QContact>&, QList<QtMobility::QContactSortOrder>&) 0x000168eb   Thumb Code   390  qcontactmanagerengine.o(.text)
    QtMobility::QContactManagerEngine::canonicalizedFilter(const QtMobility::QContactFilter&) 0x00016a71   Thumb Code  1530  qcontactmanagerengine.o(.text)
    QtMobility::QContactManagerEngineV2::getStaticMetaObject() 0x0001706b   Thumb Code     4  qcontactmanagerengine.o(.text)
    QtMobility::QContactManagerEngineV2::metaObject() const 0x0001706f   Thumb Code    28  qcontactmanagerengine.o(.text)
    QtMobility::QContactManagerEngineV2::qt_metacast(const char*) 0x0001708b   Thumb Code    40  qcontactmanagerengine.o(.text)
    QtMobility::QContactManagerEngineV2::qt_metacall(QMetaObject::Call, int, void**) 0x000170b3   Thumb Code    36  qcontactmanagerengine.o(.text)
    QtMobility::QContactManagerEngineV2::saveContacts(QList<QtMobility::QContact>*, QMap<int, QtMobility::QContactManager::Error>*, QtMobility::QContactManager::Error*) 0x000170d7   Thumb Code    24  qcontactmanagerengine.o(.text)
    QtMobility::QContactManagerEngineV2::saveContacts(QList<QtMobility::QContact>*, const QStringList&, QMap<int, QtMobility::QContactManager::Error>*, QtMobility::QContactManager::Error*) 0x000170ef   Thumb Code  1506  qcontactmanagerengine.o(.text)
    QtMobility::QContactManagerEngineV2::contacts(const QtMobility::QContactFilter&, const QList<QtMobility::QContactSortOrder>&, const QtMobility::QContactFetchHint&, QtMobility::QContactManager::Error*) const 0x000176d1   Thumb Code    32  qcontactmanagerengine.o(.text)
    QtMobility::QContactManagerEngineV2::contacts(const QList<unsigned>&, const QtMobility::QContactFetchHint&, QMap<int, QtMobility::QContactManager::Error>*, QtMobility::QContactManager::Error*) const 0x000176f1   Thumb Code   526  qcontactmanagerengine.o(.text)
    QtMobility::QContactManagerEngineV2::updateContactFetchByIdRequest(QtMobility::QContactFetchByIdRequest*, const QList<QtMobility::QContact>&, QtMobility::QContactManager::Error, const QMap<int, QtMobility::QContactManager::Error>&, QtMobility::QContactAbstractRequest::State) 0x000178ff   Thumb Code   208  qcontactmanagerengine.o(.text)
    QtMobility::QContactManagerEngineFactory::supportedImplementationVersions() const 0x000179d9   Thumb Code    36  qcontactmanagerenginefactory.o(.text)
    QtMobility::QContactManagerEngineFactory::~QContactManagerEngineFactory() 0x000179fd   Thumb Code     0  qcontactmanagerenginefactory.o(.text)
    QtMobility::QContactManagerEngineFactory::~QContactManagerEngineFactory__sub_object() 0x000179fd   Thumb Code     2  qcontactmanagerenginefactory.o(.text)
    QtMobility::QContactManagerEngineFactory::~QContactManagerEngineFactory__deallocating() 0x000179ff   Thumb Code    22  qcontactmanagerenginefactory.o(.text)
    QtMobility::QContactManagerEngineV2Wrapper::QContactManagerEngineV2Wrapper(QtMobility::QContactManagerEngine*) 0x00017a19   Thumb Code   488  qcontactmanagerenginev2wrapper_p.o(.text)
    QtMobility::QContactManagerEngineV2Wrapper::QContactManagerEngineV2Wrapper__sub_object(QtMobility::QContactManagerEngine*) 0x00017a19   Thumb Code     0  qcontactmanagerenginev2wrapper_p.o(.text)
    QtMobility::QContactManagerEngineV2Wrapper::~QContactManagerEngineV2Wrapper() 0x00017c01   Thumb Code    46  qcontactmanagerenginev2wrapper_p.o(.text)
    QtMobility::QContactManagerEngineV2Wrapper::~QContactManagerEngineV2Wrapper__sub_object() 0x00017c01   Thumb Code     0  qcontactmanagerenginev2wrapper_p.o(.text)
    QtMobility::QContactManagerEngineV2Wrapper::~QContactManagerEngineV2Wrapper__deallocating() 0x00017c2f   Thumb Code    22  qcontactmanagerenginev2wrapper_p.o(.text)
    QtMobility::QContactManagerEngineV2Wrapper::setEngineOfRequest(QtMobility::QContactAbstractRequest*, QtMobility::QContactManagerEngine*) 0x00017c45   Thumb Code    30  qcontactmanagerenginev2wrapper_p.o(.text)
    QtMobility::QContactManagerEngineV2Wrapper::startRequest(QtMobility::QContactAbstractRequest*) 0x00017c63   Thumb Code   392  qcontactmanagerenginev2wrapper_p.o(.text)
    QtMobility::QContactManagerEngineV2Wrapper::requestDestroyed(QtMobility::QContactAbstractRequest*) 0x00017deb   Thumb Code    70  qcontactmanagerenginev2wrapper_p.o(.text)
    QtMobility::QContactManagerEngineV2Wrapper::cancelRequest(QtMobility::QContactAbstractRequest*) 0x00017e31   Thumb Code    88  qcontactmanagerenginev2wrapper_p.o(.text)
    QtMobility::RequestController::waitForFinished(int) 0x00017e89   Thumb Code    78  qcontactmanagerenginev2wrapper_p.o(.text)
    QtMobility::QContactManagerEngineV2Wrapper::waitForRequestFinished(QtMobility::QContactAbstractRequest*, int) 0x00017ed7   Thumb Code    86  qcontactmanagerenginev2wrapper_p.o(.text)
    QtMobility::QContactManagerEngineV2Wrapper::requestStateChanged(QtMobility::QContactAbstractRequest::State) 0x00017f2d   Thumb Code   100  qcontactmanagerenginev2wrapper_p.o(.text)
    QtMobility::RequestController::handleUpdatedSubRequest(QtMobility::QContactAbstractRequest::State) 0x00017f91   Thumb Code   192  qcontactmanagerenginev2wrapper_p.o(.text)
    QtMobility::FetchByIdRequestController::start() 0x00018051   Thumb Code   166  qcontactmanagerenginev2wrapper_p.o(.text)
    QtMobility::FetchByIdRequestController::handleFinishedSubRequest(QtMobility::QContactAbstractRequest*) 0x000180f7   Thumb Code   568  qcontactmanagerenginev2wrapper_p.o(.text)
    QtMobility::PartialSaveRequestController::start() 0x0001832f   Thumb Code   500  qcontactmanagerenginev2wrapper_p.o(.text)
    QtMobility::PartialSaveRequestController::handleFinishedSubRequest(QtMobility::QContactAbstractRequest*) 0x00018523   Thumb Code  1652  qcontactmanagerenginev2wrapper_p.o(.text)
    QtMobility::QContactRelationship::QContactRelationship() 0x00018ba5   Thumb Code    84  qcontactrelationship.o(.text)
    QtMobility::QContactRelationship::QContactRelationship__sub_object() 0x00018ba5   Thumb Code     0  qcontactrelationship.o(.text)
    QtMobility::QContactRelationship::~QContactRelationship() 0x00018bf9   Thumb Code    14  qcontactrelationship.o(.text)
    QtMobility::QContactRelationship::~QContactRelationship__sub_object() 0x00018bf9   Thumb Code     0  qcontactrelationship.o(.text)
    QtMobility::QContactRelationship::QContactRelationship(const QtMobility::QContactRelationship&) 0x00018c07   Thumb Code    28  qcontactrelationship.o(.text)
    QtMobility::QContactRelationship::QContactRelationship__sub_object(const QtMobility::QContactRelationship&) 0x00018c07   Thumb Code     0  qcontactrelationship.o(.text)
    QtMobility::QContactRelationship::operator =(const QtMobility::QContactRelationship&) 0x00018c23   Thumb Code    72  qcontactrelationship.o(.text)
    QtMobility::QContactRelationship::operator ==(const QtMobility::QContactRelationship&) const 0x00018c6b   Thumb Code   100  qcontactrelationship.o(.text)
    QtMobility::QContactRelationship::first() const 0x00018ccf   Thumb Code    24  qcontactrelationship.o(.text)
    QtMobility::QContactRelationship::second() const 0x00018ce7   Thumb Code    26  qcontactrelationship.o(.text)
    QtMobility::QContactRelationship::relationshipType() const 0x00018d01   Thumb Code    26  qcontactrelationship.o(.text)
    QtMobility::QContactRelationship::setFirst(const QtMobility::QContactId&) 0x00018d1b   Thumb Code    24  qcontactrelationship.o(.text)
    QtMobility::QContactRelationship::setSecond(const QtMobility::QContactId&) 0x00018d33   Thumb Code    26  qcontactrelationship.o(.text)
    QtMobility::QContactRelationship::setRelationshipType(const QString&) 0x00018d4d   Thumb Code    26  qcontactrelationship.o(.text)
    QtMobility::qHash(const QtMobility::QContactRelationship&) 0x00018d67   Thumb Code    76  qcontactrelationship.o(.text)
    QtMobility::operator <<(QDebug, const QtMobility::QContactRelationship&) 0x00018db3   Thumb Code   248  qcontactrelationship.o(.text)
    QtMobility::operator <<(QDataStream&, const QtMobility::QContactRelationship&) 0x00018eab   Thumb Code    98  qcontactrelationship.o(.text)
    QtMobility::operator >>(QDataStream&, QtMobility::QContactRelationship&) 0x00018f0d   Thumb Code   150  qcontactrelationship.o(.text)
    QtMobility::QContactSortOrder::QContactSortOrder() 0x00018fbd   Thumb Code    88  qcontactsortorder.o(.text)
    QtMobility::QContactSortOrder::QContactSortOrder__sub_object() 0x00018fbd   Thumb Code     0  qcontactsortorder.o(.text)
    QtMobility::QContactSortOrder::~QContactSortOrder() 0x00019015   Thumb Code    14  qcontactsortorder.o(.text)
    QtMobility::QContactSortOrder::~QContactSortOrder__sub_object() 0x00019015   Thumb Code     0  qcontactsortorder.o(.text)
    QtMobility::QContactSortOrder::QContactSortOrder(const QtMobility::QContactSortOrder&) 0x00019023   Thumb Code    28  qcontactsortorder.o(.text)
    QtMobility::QContactSortOrder::QContactSortOrder__sub_object(const QtMobility::QContactSortOrder&) 0x00019023   Thumb Code     0  qcontactsortorder.o(.text)
    QtMobility::QContactSortOrder::operator =(const QtMobility::QContactSortOrder&) 0x0001903f   Thumb Code    78  qcontactsortorder.o(.text)
    QtMobility::QContactSortOrder::setDetailDefinitionName(const QString&, const QString&) 0x0001908d   Thumb Code   100  qcontactsortorder.o(.text)
    QtMobility::QContactSortOrder::setBlankPolicy(QtMobility::QContactSortOrder::BlankPolicy) 0x000190f1   Thumb Code    16  qcontactsortorder.o(.text)
    QtMobility::QContactSortOrder::setDirection(Qt::SortOrder) 0x00019101   Thumb Code    16  qcontactsortorder.o(.text)
    QtMobility::QContactSortOrder::setCaseSensitivity(Qt::CaseSensitivity) 0x00019111   Thumb Code    16  qcontactsortorder.o(.text)
    QtMobility::QContactSortOrder::detailDefinitionName() const 0x00019121   Thumb Code    26  qcontactsortorder.o(.text)
    QtMobility::QContactSortOrder::detailFieldName() const 0x0001913b   Thumb Code    26  qcontactsortorder.o(.text)
    QtMobility::QContactSortOrder::blankPolicy() const 0x00019155   Thumb Code    10  qcontactsortorder.o(.text)
    QtMobility::QContactSortOrder::direction() const 0x0001915f   Thumb Code    10  qcontactsortorder.o(.text)
    QtMobility::QContactSortOrder::caseSensitivity() const 0x00019169   Thumb Code    10  qcontactsortorder.o(.text)
    QtMobility::QContactSortOrder::isValid() const 0x00019173   Thumb Code    30  qcontactsortorder.o(.text)
    QtMobility::QContactSortOrder::operator ==(const QtMobility::QContactSortOrder&) const 0x00019191   Thumb Code   104  qcontactsortorder.o(.text)
    QtMobility::operator <<(QDataStream&, const QtMobility::QContactSortOrder&) 0x000191f9   Thumb Code   126  qcontactsortorder.o(.text)
    QtMobility::operator >>(QDataStream&, QtMobility::QContactSortOrder&) 0x00019277   Thumb Code   170  qcontactsortorder.o(.text)
    QtMobility::QContactDisplayLabel::match(const QString&) 0x00019321   Thumb Code   126  qcontactdetails.o(.text)
    QtMobility::QContactEmailAddress::match(const QString&) 0x0001939f   Thumb Code   126  qcontactdetails.o(.text)
    QtMobility::QContactName::match(const QString&) 0x0001941d   Thumb Code   570  qcontactdetails.o(.text)
    QtMobility::QContactName::match(const QString&, const QString&) 0x00019657   Thumb Code   596  qcontactdetails.o(.text)
    QtMobility::QContactPhoneNumber::match(const QString&) 0x000198ab   Thumb Code   128  qcontactdetails.o(.text)
    QtMobility::QContactInvalidEngine::QContactInvalidEngine() 0x00019941   Thumb Code    40  qcontactinvalidbackend.o(.text)
    QtMobility::QContactInvalidEngine::QContactInvalidEngine__sub_object() 0x00019941   Thumb Code     0  qcontactinvalidbackend.o(.text)
    QtMobility::QContactInvalidEngine::managerName() const 0x00019969   Thumb Code    34  qcontactinvalidbackend.o(.text)
    QtMobility::QContactMemoryEngineData::data(QtMobility::QContactMemoryEngine*) 0x000199a1   Thumb Code    14  qcontactmemorybackend.o(.text)
    QtMobility::QContactMemoryEngine::getStaticMetaObject() 0x000199af   Thumb Code     4  qcontactmemorybackend.o(.text)
    QtMobility::QContactMemoryEngine::metaObject() const 0x000199b3   Thumb Code    28  qcontactmemorybackend.o(.text)
    QtMobility::QContactMemoryEngine::qt_metacast(const char*) 0x000199cf   Thumb Code    40  qcontactmemorybackend.o(.text)
    QtMobility::QContactMemoryEngine::qt_metacall(QMetaObject::Call, int, void**) 0x000199f7   Thumb Code    36  qcontactmemorybackend.o(.text)
    QtMobility::QContactMemoryEngine::QContactMemoryEngine(QtMobility::QContactMemoryEngineData*) 0x00019a1b   Thumb Code    48  qcontactmemorybackend.o(.text)
    QtMobility::QContactMemoryEngine::QContactMemoryEngine__sub_object(QtMobility::QContactMemoryEngineData*) 0x00019a1b   Thumb Code     0  qcontactmemorybackend.o(.text)
    QtMobility::QContactMemoryEngine::createMemoryEngine(const QMap<QString, QString>&) 0x00019a4b   Thumb Code   570  qcontactmemorybackend.o(.text)
    QtMobility::QContactMemoryEngine::~QContactMemoryEngine() 0x00019c85   Thumb Code    76  qcontactmemorybackend.o(.text)
    QtMobility::QContactMemoryEngine::~QContactMemoryEngine__sub_object() 0x00019c85   Thumb Code     0  qcontactmemorybackend.o(.text)
    QtMobility::QContactMemoryEngine::~QContactMemoryEngine__deallocating() 0x00019cd1   Thumb Code    22  qcontactmemorybackend.o(.text)
    QtMobility::QContactMemoryEngine::managerName() const 0x00019ce7   Thumb Code    24  qcontactmemorybackend.o(.text)
    QtMobility::QContactMemoryEngine::managerParameters() const 0x00019cff   Thumb Code   186  qcontactmemorybackend.o(.text)
    QtMobility::QContactMemoryEngine::contactIds(const QtMobility::QContactFilter&, const QList<QtMobility::QContactSortOrder>&, QtMobility::QContactManager::Error*) const 0x00019db9   Thumb Code   224  qcontactmemorybackend.o(.text)
    QtMobility::QContactMemoryEngine::contacts(const QtMobility::QContactFilter&, const QList<QtMobility::QContactSortOrder>&, const QtMobility::QContactFetchHint&, QtMobility::QContactManager::Error*) const 0x00019e99   Thumb Code   272  qcontactmemorybackend.o(.text)
    QtMobility::QContactMemoryEngine::contact(const unsigned&, const QtMobility::QContactFetchHint&, QtMobility::QContactManager::Error*) const 0x00019fa9   Thumb Code    92  qcontactmemorybackend.o(.text)
    QtMobility::QContactMemoryEngine::saveContacts(QList<QtMobility::QContact>*, QMap<int, QtMobility::QContactManager::Error>*, QtMobility::QContactManager::Error*) 0x0001a005   Thumb Code   198  qcontactmemorybackend.o(.text)
    QtMobility::QContactMemoryEngine::removeContacts(const QList<unsigned>&, QMap<int, QtMobility::QContactManager::Error>*, QtMobility::QContactManager::Error*) 0x0001a0cb   Thumb Code   168  qcontactmemorybackend.o(.text)
    QtMobility::QContactMemoryEngine::setSelfContactId(const unsigned&, QtMobility::QContactManager::Error*) 0x0001a173   Thumb Code   122  qcontactmemorybackend.o(.text)
    QtMobility::QContactMemoryEngine::selfContactId(QtMobility::QContactManager::Error*) const 0x0001a1ed   Thumb Code    24  qcontactmemorybackend.o(.text)
    QtMobility::QContactMemoryEngine::relationships(const QString&, const QtMobility::QContactId&, QtMobility::QContactRelationship::Role, QtMobility::QContactManager::Error*) const 0x0001a205   Thumb Code   438  qcontactmemorybackend.o(.text)
    QtMobility::QContactMemoryEngine::saveRelationships(QList<QtMobility::QContactRelationship>*, QMap<int, QtMobility::QContactManager::Error>*, QtMobility::QContactManager::Error*) 0x0001a3bb   Thumb Code   186  qcontactmemorybackend.o(.text)
    QtMobility::QContactMemoryEngine::removeRelationships(const QList<QtMobility::QContactRelationship>&, QMap<int, QtMobility::QContactManager::Error>*, QtMobility::QContactManager::Error*) 0x0001a475   Thumb Code   128  qcontactmemorybackend.o(.text)
    QtMobility::QContactMemoryEngine::detailDefinitions(const QString&, QtMobility::QContactManager::Error*) const 0x0001a4f5   Thumb Code   148  qcontactmemorybackend.o(.text)
    QtMobility::QContactMemoryEngine::saveDetailDefinition(const QtMobility::QContactDetailDefinition&, const QString&, QtMobility::QContactManager::Error*) 0x0001a589   Thumb Code    56  qcontactmemorybackend.o(.text)
    QtMobility::QContactMemoryEngine::removeDetailDefinition(const QString&, const QString&, QtMobility::QContactManager::Error*) 0x0001a5c1   Thumb Code    56  qcontactmemorybackend.o(.text)
    QtMobility::QContactMemoryEngine::requestDestroyed(QtMobility::QContactAbstractRequest*) 0x0001a5f9   Thumb Code     6  qcontactmemorybackend.o(.text)
    QtMobility::QContactMemoryEngine::performAsynchronousOperation(QtMobility::QContactAbstractRequest*) 0x0001a5ff   Thumb Code  2002  qcontactmemorybackend.o(.text)
    QtMobility::QContactMemoryEngine::startRequest(QtMobility::QContactAbstractRequest*) 0x0001add1   Thumb Code   102  qcontactmemorybackend.o(.text)
    QtMobility::QContactMemoryEngine::cancelRequest(QtMobility::QContactAbstractRequest*) 0x0001ae37   Thumb Code    10  qcontactmemorybackend.o(.text)
    QtMobility::QContactMemoryEngine::waitForRequestFinished(QtMobility::QContactAbstractRequest*, int) 0x0001ae41   Thumb Code    14  qcontactmemorybackend.o(.text)
    QtMobility::QContactMemoryEngine::hasFeature(QtMobility::QContactManager::ManagerFeature, const QString&) const 0x0001ae4f   Thumb Code   128  qcontactmemorybackend.o(.text)
    QtMobility::QContactMemoryEngine::isRelationshipTypeSupported(const QString&, const QString&) const 0x0001aecf   Thumb Code    52  qcontactmemorybackend.o(.text)
    QtMobility::QContactMemoryEngine::isFilterSupported(const QtMobility::QContactFilter&) const 0x0001af03   Thumb Code    10  qcontactmemorybackend.o(.text)
    QtMobility::QContactMemoryEngine::supportedDataTypes() const 0x0001af0d   Thumb Code   154  qcontactmemorybackend.o(.text)
    QtMobility::QContactMemoryEngine::saveContact(QtMobility::QContact*, QtMobility::QContactChangeSet&, QtMobility::QContactManager::Error*) 0x0001afa7   Thumb Code   978  qcontactmemorybackend.o(.text)
    QtMobility::QContactMemoryEngine::removeContact(const unsigned&, QtMobility::QContactChangeSet&, QtMobility::QContactManager::Error*) 0x0001b379   Thumb Code   366  qcontactmemorybackend.o(.text)
    QtMobility::QContactMemoryEngine::saveDetailDefinition(const QtMobility::QContactDetailDefinition&, const QString&, QtMobility::QContactChangeSet&, QtMobility::QContactManager::Error*) 0x0001b4e7   Thumb Code   136  qcontactmemorybackend.o(.text)
    QtMobility::QContactMemoryEngine::removeDetailDefinition(const QString&, const QString&, QtMobility::QContactChangeSet&, QtMobility::QContactManager::Error*) 0x0001b56f   Thumb Code   134  qcontactmemorybackend.o(.text)
    QtMobility::QContactMemoryEngine::saveRelationship(QtMobility::QContactRelationship*, QtMobility::QContactChangeSet&, QtMobility::QContactManager::Error*) 0x0001b5f5   Thumb Code   856  qcontactmemorybackend.o(.text)
    QtMobility::QContactMemoryEngine::removeRelationship(const QtMobility::QContactRelationship&, QtMobility::QContactChangeSet&, QtMobility::QContactManager::Error*) 0x0001b94d   Thumb Code   492  qcontactmemorybackend.o(.text)
    QtMobility::QContactActionFilter::QContactActionFilter() 0x0001bb69   Thumb Code    36  qcontactactionfilter.o(.text)
    QtMobility::QContactActionFilter::QContactActionFilter__sub_object() 0x0001bb69   Thumb Code     0  qcontactactionfilter.o(.text)
    QtMobility::QContactActionFilter::QContactActionFilter(const QtMobility::QContactFilter&) 0x0001bb8d   Thumb Code    26  qcontactactionfilter.o(.text)
    QtMobility::QContactActionFilter::QContactActionFilter__sub_object(const QtMobility::QContactFilter&) 0x0001bb8d   Thumb Code     0  qcontactactionfilter.o(.text)
    QtMobility::QContactActionFilter::setActionName(const QString&) 0x0001bba7   Thumb Code    62  qcontactactionfilter.o(.text)
    QtMobility::QContactActionFilter::actionName() const 0x0001bbe5   Thumb Code    30  qcontactactionfilter.o(.text)
    QtMobility::QContactChangeLogFilter::QContactChangeLogFilter(QtMobility::QContactChangeLogFilter::EventType) 0x0001bc03   Thumb Code    40  qcontactchangelogfilter.o(.text)
    QtMobility::QContactChangeLogFilter::QContactChangeLogFilter__sub_object(QtMobility::QContactChangeLogFilter::EventType) 0x0001bc03   Thumb Code     0  qcontactchangelogfilter.o(.text)
    QtMobility::QContactChangeLogFilter::QContactChangeLogFilter(const QtMobility::QContactFilter&) 0x0001bc2b   Thumb Code    26  qcontactchangelogfilter.o(.text)
    QtMobility::QContactChangeLogFilter::QContactChangeLogFilter__sub_object(const QtMobility::QContactFilter&) 0x0001bc2b   Thumb Code     0  qcontactchangelogfilter.o(.text)
    QtMobility::QContactChangeLogFilter::setEventType(QtMobility::QContactChangeLogFilter::EventType) 0x0001bc45   Thumb Code    18  qcontactchangelogfilter.o(.text)
    QtMobility::QContactChangeLogFilter::setSince(const QDateTime&) 0x0001bc57   Thumb Code    26  qcontactchangelogfilter.o(.text)
    QtMobility::QContactChangeLogFilter::since() const 0x0001bc71   Thumb Code    30  qcontactchangelogfilter.o(.text)
    QtMobility::QContactChangeLogFilter::eventType() const 0x0001bc8f   Thumb Code    16  qcontactchangelogfilter.o(.text)
    QtMobility::QContactDetailFilter::QContactDetailFilter() 0x0001bc9f   Thumb Code    36  qcontactdetailfilter.o(.text)
    QtMobility::QContactDetailFilter::QContactDetailFilter__sub_object() 0x0001bc9f   Thumb Code     0  qcontactdetailfilter.o(.text)
    QtMobility::QContactDetailFilter::QContactDetailFilter(const QtMobility::QContactFilter&) 0x0001bcc3   Thumb Code    26  qcontactdetailfilter.o(.text)
    QtMobility::QContactDetailFilter::QContactDetailFilter__sub_object(const QtMobility::QContactFilter&) 0x0001bcc3   Thumb Code     0  qcontactdetailfilter.o(.text)
    QtMobility::QContactDetailFilter::setDetailDefinitionName(const QString&, const QString&) 0x0001bcdd   Thumb Code    38  qcontactdetailfilter.o(.text)
    QtMobility::QContactDetailFilter::setMatchFlags(QFlags<QtMobility::QContactFilter::MatchFlag>) 0x0001bd03   Thumb Code    26  qcontactdetailfilter.o(.text)
    QtMobility::QContactDetailFilter::setValue(const QVariant&) 0x0001bd1d   Thumb Code    26  qcontactdetailfilter.o(.text)
    QtMobility::QContactDetailFilter::detailDefinitionName() const 0x0001bd37   Thumb Code    30  qcontactdetailfilter.o(.text)
    QtMobility::QContactDetailFilter::detailFieldName() const 0x0001bd55   Thumb Code    30  qcontactdetailfilter.o(.text)
    QtMobility::QContactDetailFilter::matchFlags() const 0x0001bd73   Thumb Code    24  qcontactdetailfilter.o(.text)
    QtMobility::QContactDetailFilter::value() const 0x0001bd8b   Thumb Code    30  qcontactdetailfilter.o(.text)
    QtMobility::QContactDetailRangeFilter::QContactDetailRangeFilter() 0x0001bda9   Thumb Code    36  qcontactdetailrangefilter.o(.text)
    QtMobility::QContactDetailRangeFilter::QContactDetailRangeFilter__sub_object() 0x0001bda9   Thumb Code     0  qcontactdetailrangefilter.o(.text)
    QtMobility::QContactDetailRangeFilter::QContactDetailRangeFilter(const QtMobility::QContactFilter&) 0x0001bdcd   Thumb Code    26  qcontactdetailrangefilter.o(.text)
    QtMobility::QContactDetailRangeFilter::QContactDetailRangeFilter__sub_object(const QtMobility::QContactFilter&) 0x0001bdcd   Thumb Code     0  qcontactdetailrangefilter.o(.text)
    QtMobility::QContactDetailRangeFilter::setDetailDefinitionName(const QString&, const QString&) 0x0001bde7   Thumb Code    38  qcontactdetailrangefilter.o(.text)
    QtMobility::QContactDetailRangeFilter::setMatchFlags(QFlags<QtMobility::QContactFilter::MatchFlag>) 0x0001be0d   Thumb Code    92  qcontactdetailrangefilter.o(.text)
    QtMobility::QContactDetailRangeFilter::setRange(const QVariant&, const QVariant&, QFlags<QtMobility::QContactDetailRangeFilter::RangeFlag>) 0x0001be69   Thumb Code    52  qcontactdetailrangefilter.o(.text)
    QtMobility::QContactDetailRangeFilter::detailDefinitionName() const 0x0001be9d   Thumb Code    30  qcontactdetailrangefilter.o(.text)
    QtMobility::QContactDetailRangeFilter::detailFieldName() const 0x0001bebb   Thumb Code    30  qcontactdetailrangefilter.o(.text)
    QtMobility::QContactDetailRangeFilter::matchFlags() const 0x0001bed9   Thumb Code    24  qcontactdetailrangefilter.o(.text)
    QtMobility::QContactDetailRangeFilter::minValue() const 0x0001bef1   Thumb Code    30  qcontactdetailrangefilter.o(.text)
    QtMobility::QContactDetailRangeFilter::maxValue() const 0x0001bf0f   Thumb Code    30  qcontactdetailrangefilter.o(.text)
    QtMobility::QContactDetailRangeFilter::rangeFlags() const 0x0001bf2d   Thumb Code    24  qcontactdetailrangefilter.o(.text)
    QtMobility::QContactLocalIdFilter::QContactLocalIdFilter() 0x0001bf45   Thumb Code    36  qcontactlocalidfilter.o(.text)
    QtMobility::QContactLocalIdFilter::QContactLocalIdFilter__sub_object() 0x0001bf45   Thumb Code     0  qcontactlocalidfilter.o(.text)
    QtMobility::QContactLocalIdFilter::QContactLocalIdFilter(const QtMobility::QContactFilter&) 0x0001bf69   Thumb Code    26  qcontactlocalidfilter.o(.text)
    QtMobility::QContactLocalIdFilter::QContactLocalIdFilter__sub_object(const QtMobility::QContactFilter&) 0x0001bf69   Thumb Code     0  qcontactlocalidfilter.o(.text)
    QtMobility::QContactLocalIdFilter::setIds(const QList<unsigned>&) 0x0001bf83   Thumb Code    26  qcontactlocalidfilter.o(.text)
    QtMobility::QContactLocalIdFilter::add(const unsigned&) 0x0001bf9d   Thumb Code    56  qcontactlocalidfilter.o(.text)
    QtMobility::QContactLocalIdFilter::remove(const unsigned&) 0x0001bfd5   Thumb Code    26  qcontactlocalidfilter.o(.text)
    QtMobility::QContactLocalIdFilter::clear() 0x0001bfef   Thumb Code    22  qcontactlocalidfilter.o(.text)
    QtMobility::QContactLocalIdFilter::ids() const 0x0001c005   Thumb Code    30  qcontactlocalidfilter.o(.text)
    QtMobility::QContactIntersectionFilter::QContactIntersectionFilter() 0x0001c023   Thumb Code    36  qcontactintersectionfilter.o(.text)
    QtMobility::QContactIntersectionFilter::QContactIntersectionFilter__sub_object() 0x0001c023   Thumb Code     0  qcontactintersectionfilter.o(.text)
    QtMobility::QContactIntersectionFilter::QContactIntersectionFilter(const QtMobility::QContactFilter&) 0x0001c047   Thumb Code    26  qcontactintersectionfilter.o(.text)
    QtMobility::QContactIntersectionFilter::QContactIntersectionFilter__sub_object(const QtMobility::QContactFilter&) 0x0001c047   Thumb Code     0  qcontactintersectionfilter.o(.text)
    QtMobility::QContactIntersectionFilter::setFilters(const QList<QtMobility::QContactFilter>&) 0x0001c061   Thumb Code    26  qcontactintersectionfilter.o(.text)
    QtMobility::QContactIntersectionFilter::prepend(const QtMobility::QContactFilter&) 0x0001c07b   Thumb Code   134  qcontactintersectionfilter.o(.text)
    QtMobility::QContactIntersectionFilter::append(const QtMobility::QContactFilter&) 0x0001c101   Thumb Code    26  qcontactintersectionfilter.o(.text)
    QtMobility::QContactIntersectionFilter::remove(const QtMobility::QContactFilter&) 0x0001c11b   Thumb Code    26  qcontactintersectionfilter.o(.text)
    QtMobility::QContactIntersectionFilter::clear() 0x0001c135   Thumb Code    22  qcontactintersectionfilter.o(.text)
    QtMobility::QContactIntersectionFilter::operator <<(const QtMobility::QContactFilter&) 0x0001c14b   Thumb Code    32  qcontactintersectionfilter.o(.text)
    QtMobility::QContactIntersectionFilter::filters() const 0x0001c16b   Thumb Code    30  qcontactintersectionfilter.o(.text)
    QtMobility::QContactInvalidFilter::QContactInvalidFilter() 0x0001c189   Thumb Code    36  qcontactinvalidfilter.o(.text)
    QtMobility::QContactInvalidFilter::QContactInvalidFilter__sub_object() 0x0001c189   Thumb Code     0  qcontactinvalidfilter.o(.text)
    QtMobility::QContactInvalidFilter::QContactInvalidFilter(const QtMobility::QContactFilter&) 0x0001c1ad   Thumb Code    44  qcontactinvalidfilter.o(.text)
    QtMobility::QContactInvalidFilter::QContactInvalidFilter__sub_object(const QtMobility::QContactFilter&) 0x0001c1ad   Thumb Code     0  qcontactinvalidfilter.o(.text)
    QtMobility::QContactRelationshipFilter::QContactRelationshipFilter() 0x0001c1d9   Thumb Code    36  qcontactrelationshipfilter.o(.text)
    QtMobility::QContactRelationshipFilter::QContactRelationshipFilter__sub_object() 0x0001c1d9   Thumb Code     0  qcontactrelationshipfilter.o(.text)
    QtMobility::QContactRelationshipFilter::QContactRelationshipFilter(const QtMobility::QContactFilter&) 0x0001c1fd   Thumb Code    26  qcontactrelationshipfilter.o(.text)
    QtMobility::QContactRelationshipFilter::QContactRelationshipFilter__sub_object(const QtMobility::QContactFilter&) 0x0001c1fd   Thumb Code     0  qcontactrelationshipfilter.o(.text)
    QtMobility::QContactRelationshipFilter::setRelationshipType(const QString&) 0x0001c217   Thumb Code    26  qcontactrelationshipfilter.o(.text)
    QtMobility::QContactRelationshipFilter::setRelatedContactId(const QtMobility::QContactId&) 0x0001c231   Thumb Code    26  qcontactrelationshipfilter.o(.text)
    QtMobility::QContactRelationshipFilter::setRelatedContactRole(QtMobility::QContactRelationship::Role) 0x0001c24b   Thumb Code    18  qcontactrelationshipfilter.o(.text)
    QtMobility::QContactRelationshipFilter::relationshipType() const 0x0001c25d   Thumb Code    30  qcontactrelationshipfilter.o(.text)
    QtMobility::QContactRelationshipFilter::relatedContactId() const 0x0001c27b   Thumb Code    30  qcontactrelationshipfilter.o(.text)
    QtMobility::QContactRelationshipFilter::relatedContactRole() const 0x0001c299   Thumb Code    16  qcontactrelationshipfilter.o(.text)
    QtMobility::QContactUnionFilter::QContactUnionFilter() 0x0001c2a9   Thumb Code    36  qcontactunionfilter.o(.text)
    QtMobility::QContactUnionFilter::QContactUnionFilter__sub_object() 0x0001c2a9   Thumb Code     0  qcontactunionfilter.o(.text)
    QtMobility::QContactUnionFilter::QContactUnionFilter(const QtMobility::QContactFilter&) 0x0001c2cd   Thumb Code    26  qcontactunionfilter.o(.text)
    QtMobility::QContactUnionFilter::QContactUnionFilter__sub_object(const QtMobility::QContactFilter&) 0x0001c2cd   Thumb Code     0  qcontactunionfilter.o(.text)
    QtMobility::QContactUnionFilter::setFilters(const QList<QtMobility::QContactFilter>&) 0x0001c2e7   Thumb Code    26  qcontactunionfilter.o(.text)
    QtMobility::QContactUnionFilter::prepend(const QtMobility::QContactFilter&) 0x0001c301   Thumb Code   134  qcontactunionfilter.o(.text)
    QtMobility::QContactUnionFilter::append(const QtMobility::QContactFilter&) 0x0001c387   Thumb Code    26  qcontactunionfilter.o(.text)
    QtMobility::QContactUnionFilter::remove(const QtMobility::QContactFilter&) 0x0001c3a1   Thumb Code    26  qcontactunionfilter.o(.text)
    QtMobility::QContactUnionFilter::clear() 0x0001c3bb   Thumb Code    22  qcontactunionfilter.o(.text)
    QtMobility::QContactUnionFilter::operator <<(const QtMobility::QContactFilter&) 0x0001c3d1   Thumb Code    32  qcontactunionfilter.o(.text)
    QtMobility::QContactUnionFilter::filters() const 0x0001c3f1   Thumb Code    30  qcontactunionfilter.o(.text)
    QtMobility::QContactFetchRequest::getStaticMetaObject() 0x0001c411   Thumb Code     4  qcontactfetchrequest.o(.text)
    QtMobility::QContactFetchRequest::metaObject() const 0x0001c415   Thumb Code    28  qcontactfetchrequest.o(.text)
    QtMobility::QContactFetchRequest::qt_metacast(const char*) 0x0001c431   Thumb Code    40  qcontactfetchrequest.o(.text)
    QtMobility::QContactFetchRequest::qt_metacall(QMetaObject::Call, int, void**) 0x0001c459   Thumb Code    36  qcontactfetchrequest.o(.text)
    QtMobility::QContactFetchRequest::QContactFetchRequest(QObject*) 0x0001c47d   Thumb Code    46  qcontactfetchrequest.o(.text)
    QtMobility::QContactFetchRequest::QContactFetchRequest__sub_object(QObject*) 0x0001c47d   Thumb Code     0  qcontactfetchrequest.o(.text)
    QtMobility::QContactFetchRequest::~QContactFetchRequest() 0x0001c4ab   Thumb Code    88  qcontactfetchrequest.o(.text)
    QtMobility::QContactFetchRequest::~QContactFetchRequest__sub_object() 0x0001c4ab   Thumb Code     0  qcontactfetchrequest.o(.text)
    QtMobility::QContactFetchRequest::~QContactFetchRequest__deallocating() 0x0001c503   Thumb Code    22  qcontactfetchrequest.o(.text)
    QtMobility::QContactFetchRequest::setFilter(const QtMobility::QContactFilter&) 0x0001c519   Thumb Code    40  qcontactfetchrequest.o(.text)
    QtMobility::QContactFetchRequest::setSorting(const QList<QtMobility::QContactSortOrder>&) 0x0001c541   Thumb Code   102  qcontactfetchrequest.o(.text)
    QtMobility::QContactFetchRequest::setFetchHint(const QtMobility::QContactFetchHint&) 0x0001c5a7   Thumb Code    40  qcontactfetchrequest.o(.text)
    QtMobility::QContactFetchRequest::filter() const 0x0001c5cf   Thumb Code    44  qcontactfetchrequest.o(.text)
    QtMobility::QContactFetchRequest::sorting() const 0x0001c5fb   Thumb Code    64  qcontactfetchrequest.o(.text)
    QtMobility::QContactFetchRequest::fetchHint() const 0x0001c63b   Thumb Code    44  qcontactfetchrequest.o(.text)
    QtMobility::QContactFetchRequest::contacts() const 0x0001c667   Thumb Code    64  qcontactfetchrequest.o(.text)
    QtMobility::QContactFetchByIdRequest::getStaticMetaObject() 0x0001c6b5   Thumb Code     4  qcontactfetchbyidrequest.o(.text)
    QtMobility::QContactFetchByIdRequest::metaObject() const 0x0001c6b9   Thumb Code    28  qcontactfetchbyidrequest.o(.text)
    QtMobility::QContactFetchByIdRequest::qt_metacast(const char*) 0x0001c6d5   Thumb Code    40  qcontactfetchbyidrequest.o(.text)
    QtMobility::QContactFetchByIdRequest::qt_metacall(QMetaObject::Call, int, void**) 0x0001c6fd   Thumb Code    36  qcontactfetchbyidrequest.o(.text)
    QtMobility::QContactFetchByIdRequest::QContactFetchByIdRequest(QObject*) 0x0001c721   Thumb Code    46  qcontactfetchbyidrequest.o(.text)
    QtMobility::QContactFetchByIdRequest::QContactFetchByIdRequest__sub_object(QObject*) 0x0001c721   Thumb Code     0  qcontactfetchbyidrequest.o(.text)
    QtMobility::QContactFetchByIdRequest::~QContactFetchByIdRequest() 0x0001c74f   Thumb Code    88  qcontactfetchbyidrequest.o(.text)
    QtMobility::QContactFetchByIdRequest::~QContactFetchByIdRequest__sub_object() 0x0001c74f   Thumb Code     0  qcontactfetchbyidrequest.o(.text)
    QtMobility::QContactFetchByIdRequest::~QContactFetchByIdRequest__deallocating() 0x0001c7a7   Thumb Code    22  qcontactfetchbyidrequest.o(.text)
    QtMobility::QContactFetchByIdRequest::setLocalIds(const QList<unsigned>&) 0x0001c7bd   Thumb Code   102  qcontactfetchbyidrequest.o(.text)
    QtMobility::QContactFetchByIdRequest::setFetchHint(const QtMobility::QContactFetchHint&) 0x0001c823   Thumb Code    40  qcontactfetchbyidrequest.o(.text)
    QtMobility::QContactFetchByIdRequest::localIds() const 0x0001c84b   Thumb Code    64  qcontactfetchbyidrequest.o(.text)
    QtMobility::QContactFetchByIdRequest::fetchHint() const 0x0001c88b   Thumb Code    44  qcontactfetchbyidrequest.o(.text)
    QtMobility::QContactFetchByIdRequest::contacts() const 0x0001c8b7   Thumb Code    64  qcontactfetchbyidrequest.o(.text)
    QtMobility::QContactFetchByIdRequest::errorMap() const 0x0001c8f7   Thumb Code    94  qcontactfetchbyidrequest.o(.text)
    QtMobility::QContactLocalIdFetchRequest::getStaticMetaObject() 0x0001c961   Thumb Code     4  qcontactlocalidfetchrequest.o(.text)
    QtMobility::QContactLocalIdFetchRequest::metaObject() const 0x0001c965   Thumb Code    28  qcontactlocalidfetchrequest.o(.text)
    QtMobility::QContactLocalIdFetchRequest::qt_metacast(const char*) 0x0001c981   Thumb Code    40  qcontactlocalidfetchrequest.o(.text)
    QtMobility::QContactLocalIdFetchRequest::qt_metacall(QMetaObject::Call, int, void**) 0x0001c9a9   Thumb Code    36  qcontactlocalidfetchrequest.o(.text)
    QtMobility::QContactLocalIdFetchRequest::QContactLocalIdFetchRequest(QObject*) 0x0001c9cd   Thumb Code    46  qcontactlocalidfetchrequest.o(.text)
    QtMobility::QContactLocalIdFetchRequest::QContactLocalIdFetchRequest__sub_object(QObject*) 0x0001c9cd   Thumb Code     0  qcontactlocalidfetchrequest.o(.text)
    QtMobility::QContactLocalIdFetchRequest::~QContactLocalIdFetchRequest() 0x0001c9fb   Thumb Code    88  qcontactlocalidfetchrequest.o(.text)
    QtMobility::QContactLocalIdFetchRequest::~QContactLocalIdFetchRequest__sub_object() 0x0001c9fb   Thumb Code     0  qcontactlocalidfetchrequest.o(.text)
    QtMobility::QContactLocalIdFetchRequest::~QContactLocalIdFetchRequest__deallocating() 0x0001ca53   Thumb Code    22  qcontactlocalidfetchrequest.o(.text)
    QtMobility::QContactLocalIdFetchRequest::setFilter(const QtMobility::QContactFilter&) 0x0001ca69   Thumb Code    40  qcontactlocalidfetchrequest.o(.text)
    QtMobility::QContactLocalIdFetchRequest::setSorting(const QList<QtMobility::QContactSortOrder>&) 0x0001ca91   Thumb Code   102  qcontactlocalidfetchrequest.o(.text)
    QtMobility::QContactLocalIdFetchRequest::filter() const 0x0001caf7   Thumb Code    44  qcontactlocalidfetchrequest.o(.text)
    QtMobility::QContactLocalIdFetchRequest::sorting() const 0x0001cb23   Thumb Code    64  qcontactlocalidfetchrequest.o(.text)
    QtMobility::QContactLocalIdFetchRequest::ids() const 0x0001cb63   Thumb Code    64  qcontactlocalidfetchrequest.o(.text)
    QtMobility::QContactSaveRequest::getStaticMetaObject() 0x0001cbb1   Thumb Code     4  qcontactsaverequest.o(.text)
    QtMobility::QContactSaveRequest::metaObject() const 0x0001cbb5   Thumb Code    28  qcontactsaverequest.o(.text)
    QtMobility::QContactSaveRequest::qt_metacast(const char*) 0x0001cbd1   Thumb Code    40  qcontactsaverequest.o(.text)
    QtMobility::QContactSaveRequest::qt_metacall(QMetaObject::Call, int, void**) 0x0001cbf9   Thumb Code    36  qcontactsaverequest.o(.text)
    QtMobility::QContactSaveRequest::QContactSaveRequest(QObject*) 0x0001cc1d   Thumb Code    46  qcontactsaverequest.o(.text)
