ARM Linker, RVCT2.2 [Build 686]

================================================================================

Image Symbol Table

    Local Symbols

    Symbol Name                              Value     Ov Type        Size  Object(Section)

    ../../unhosted.s                         0x00000000   Number         0  switch8.o ABSOLUTE
    M:\\epoc32\\build\\euser\\c_e18a23aea4fd210f\\edll_lib\\armv5\\udeb\\uc_dll_.cpp 0x00000000   Number         0  uc_dll_.o ABSOLUTE
    M:\\sf\\os\\kernelhwsrv\\kernel\\eka\\compsupp\\rvct\\ucppinit.cpp 0x00000000   Number         0  ucppinit.o ABSOLUTE
    M:\epoc32\build\euser\c_e18a23aea4fd210f\edll_lib\armv5\udeb\uc_dll_.cpp 0x00000000   Number         0  uc_dll_.o ABSOLUTE
    M:\sf\os\kernelhwsrv\kernel\eka\compsupp\rvct\dllexp.cpp 0x00000000   Number         0  dllexp.o ABSOLUTE
    M:\sf\os\kernelhwsrv\kernel\eka\compsupp\rvct\ucppfini.cpp 0x00000000   Number         0  ucppfini.o ABSOLUTE
    M:\sf\os\kernelhwsrv\kernel\eka\compsupp\rvct\ucppinit.cpp 0x00000000   Number         0  ucppinit.o ABSOLUTE
    M:\sf\os\kernelhwsrv\kernel\eka\euser\epoc\arm\uc_dll.cpp 0x00000000   Number         0  uc_dll.o ABSOLUTE
    S:\sf\mw\qtmobility\plugins\contacts\serviceactionmanager\qcontactactionservicemanager_p.cpp 0x00000000   Number         0  qcontactactionservicemanager_p.o ABSOLUTE
    .emb_text                                0x00008000   Section       40  uc_dll_.o(.emb_text)
    Symbian$$eit_base                        0x00008014   Data           4  uc_dll_.o(.emb_text)
    Symbian$$eit_limit                       0x00008018   Data           4  uc_dll_.o(.emb_text)
    Symbian$$code_seg_base                   0x0000801c   Data           4  uc_dll_.o(.emb_text)
    Symbian$$code_seg_limit                  0x00008020   Data           4  uc_dll_.o(.emb_text)
    Symbian$$reserved                        0x00008024   Data           4  uc_dll_.o(.emb_text)
    .emb_text                                0x00008028   Section       52  ucppinit.o(.emb_text)
    loop                                     0x0000803c   ARM Code       0  ucppinit.o(.emb_text)
    ret                                      0x00008044   ARM Code       0  ucppinit.o(.emb_text)
    base                                     0x00008054   Data           0  ucppinit.o(.emb_text)
    limit                                    0x00008058   Data           0  ucppinit.o(.emb_text)
    .text                                    0x0000823c   Section     2766  qcontactactionservicemanager_p.o(.text)
    QtMobility::contactActionServiceManagerInstance() 0x0000880b   Thumb Code   162  qcontactactionservicemanager_p.o(.text)
    .text                                    0x00008d0c   Section       24  switch8.o(.text)
    .text                                    0x00008d24   Section       80  uc_dll.o(.text)
    .text                                    0x00008d74   Section      180  ucppfini.o(.text)
    .text                                    0x00008e28   Section        4  dllexp.o(.text)
    .text.clean                              0x00008e2c   Section      376  qcontactactionservicemanager_p.o(.text.clean)
    i._ZN10QMultiHashI7QStringN10QtMobility24QContactActionDescriptorEED1Ev 0x00008fa4   Section       14  qcontactactionservicemanager_p.o(i._ZN10QMultiHashI7QStringN10QtMobility24QContactActionDescriptorEED1Ev)
    i._ZN12QMutexLockerC1EP6QMutex           0x00008fb2   Section       34  qcontactactionservicemanager_p.o(i._ZN12QMutexLockerC1EP6QMutex)
    i._ZN12QMutexLockerD1Ev                  0x00008fd4   Section       42  qcontactactionservicemanager_p.o(i._ZN12QMutexLockerD1Ev)
    i._ZN15QBasicAtomicInt3refEv             0x00008ffe   Section       24  qcontactactionservicemanager_p.o(i._ZN15QBasicAtomicInt3refEv)
    i._ZN15QBasicAtomicInt5derefEv           0x00009016   Section       24  qcontactactionservicemanager_p.o(i._ZN15QBasicAtomicInt5derefEv)
    i._ZN17QForeachContainerI5QListIN10QtMobility24QContactActionDescriptorEEED1Ev 0x0000902e   Section       14  qcontactactionservicemanager_p.o(i._ZN17QForeachContainerI5QListIN10QtMobility24QContactActionDescriptorEEED1Ev)
    i._ZN17QForeachContainerI5QListIN10QtMobility27QServiceInterfaceDescriptorEEED1Ev 0x0000903c   Section       14  qcontactactionservicemanager_p.o(i._ZN17QForeachContainerI5QListIN10QtMobility27QServiceInterfaceDescriptorEEED1Ev)
    i._ZN4QSetIPN10QtMobility21QContactActionFactoryEED1Ev 0x0000904a   Section       14  qcontactactionservicemanager_p.o(i._ZN4QSetIPN10QtMobility21QContactActionFactoryEED1Ev)
    i._ZN7QStringC1ERKS_                     0x00009058   Section       22  qcontactactionservicemanager_p.o(i._ZN7QStringC1ERKS_)
    i._ZN7QStringD1Ev                        0x0000906e   Section       24  qcontactactionservicemanager_p.o(i._ZN7QStringD1Ev)
    i._ZN9QHashData8willGrowEv               0x00009086   Section       32  qcontactactionservicemanager_p.o(i._ZN9QHashData8willGrowEv)
    i._ZNK15QBasicAtomicIntneEi              0x000090a6   Section       16  qcontactactionservicemanager_p.o(i._ZNK15QBasicAtomicIntneEi)
    i._ZNK9QListData3endEv                   0x000090b6   Section       16  qcontactactionservicemanager_p.o(i._ZNK9QListData3endEv)
    i._ZNK9QListData5beginEv                 0x000090c6   Section       16  qcontactactionservicemanager_p.o(i._ZNK9QListData5beginEv)
    i._ZdlPvS_                               0x000090d6   Section        2  qcontactactionservicemanager_p.o(i._ZdlPvS_)
    i._ZnwjPv                                0x000090d8   Section        6  qcontactactionservicemanager_p.o(i._ZnwjPv)
    t._Z12qobject_castIPN10QtMobility21QContactActionFactoryEET_P7QObject 0x000090e0   Section       32  qcontactactionservicemanager_p.o(t._Z12qobject_castIPN10QtMobility21QContactActionFactoryEET_P7QObject)
    t._Z20qForeachContainerNewI5QListIN10QtMobility24QContactActionDescriptorEEE17QForeachContainerIT_ERKS5_ 0x00009100   Section      126  qcontactactionservicemanager_p.o(t._Z20qForeachContainerNewI5QListIN10QtMobility24QContactActionDescriptorEEE17QForeachContainerIT_ERKS5_)
    t._Z20qForeachContainerNewI5QListIN10QtMobility24QContactActionDescriptorEEE17QForeachContainerIT_ERKS5_.clean 0x0000917e   Section       10  qcontactactionservicemanager_p.o(t._Z20qForeachContainerNewI5QListIN10QtMobility24QContactActionDescriptorEEE17QForeachContainerIT_ERKS5_.clean)
    t._Z20qForeachContainerNewI5QListIN10QtMobility27QServiceInterfaceDescriptorEEE17QForeachContainerIT_ERKS5_ 0x00009188   Section      126  qcontactactionservicemanager_p.o(t._Z20qForeachContainerNewI5QListIN10QtMobility27QServiceInterfaceDescriptorEEE17QForeachContainerIT_ERKS5_)
    t._Z20qForeachContainerNewI5QListIN10QtMobility27QServiceInterfaceDescriptorEEE17QForeachContainerIT_ERKS5_.clean 0x00009206   Section       10  qcontactactionservicemanager_p.o(t._Z20qForeachContainerNewI5QListIN10QtMobility27QServiceInterfaceDescriptorEEE17QForeachContainerIT_ERKS5_.clean)
    t._ZN10QMultiHashI7QStringN10QtMobility24QContactActionDescriptorEE6insertERKS0_RKS2_ 0x00009210   Section      142  qcontactactionservicemanager_p.o(t._ZN10QMultiHashI7QStringN10QtMobility24QContactActionDescriptorEE6insertERKS0_RKS2_)
    t._ZN10QMultiHashI7QStringN10QtMobility24QContactActionDescriptorEE6insertERKS0_RKS2_.clean 0x0000929e   Section       14  qcontactactionservicemanager_p.o(t._ZN10QMultiHashI7QStringN10QtMobility24QContactActionDescriptorEE6insertERKS0_RKS2_.clean)
    t._ZN10QtMobilityeqILi38EEEbRK7QStringRKNS_15QLatin1ConstantIXT_EEE 0x000092ac   Section       24  qcontactactionservicemanager_p.o(t._ZN10QtMobilityeqILi38EEEbRK7QStringRKNS_15QLatin1ConstantIXT_EEE)
    t._ZN20QGlobalStaticDeleterIN10QtMobility28QContactActionServiceManagerEED1Ev 0x000092c4   Section       38  qcontactactionservicemanager_p.o(t._ZN20QGlobalStaticDeleterIN10QtMobility28QContactActionServiceManagerEED1Ev)
    t._ZN5QHashI7QStringN10QtMobility24QContactActionDescriptorEE11deleteNode2EPN9QHashData4NodeE 0x000092ea   Section       36  qcontactactionservicemanager_p.o(t._ZN5QHashI7QStringN10QtMobility24QContactActionDescriptorEE11deleteNode2EPN9QHashData4NodeE)
    t._ZN5QHashI7QStringN10QtMobility24QContactActionDescriptorEE11deleteNode2EPN9QHashData4NodeE.clean 0x0000930e   Section       12  qcontactactionservicemanager_p.o(t._ZN5QHashI7QStringN10QtMobility24QContactActionDescriptorEE11deleteNode2EPN9QHashData4NodeE.clean)
    t._ZN5QHashI7QStringN10QtMobility24QContactActionDescriptorEE13detach_helperEv 0x0000931c   Section       60  qcontactactionservicemanager_p.o(t._ZN5QHashI7QStringN10QtMobility24QContactActionDescriptorEE13detach_helperEv)
    t._ZN5QHashI7QStringN10QtMobility24QContactActionDescriptorEE13duplicateNodeEPN9QHashData4NodeEPv 0x00009358   Section       46  qcontactactionservicemanager_p.o(t._ZN5QHashI7QStringN10QtMobility24QContactActionDescriptorEE13duplicateNodeEPN9QHashData4NodeEPv)
    t._ZN5QHashI7QStringN10QtMobility24QContactActionDescriptorEE13duplicateNodeEPN9QHashData4NodeEPv.clean 0x00009386   Section       14  qcontactactionservicemanager_p.o(t._ZN5QHashI7QStringN10QtMobility24QContactActionDescriptorEE13duplicateNodeEPN9QHashData4NodeEPv.clean)
    t._ZN5QHashI7QStringN10QtMobility24QContactActionDescriptorEE5eraseENS3_8iteratorE 0x00009394   Section      126  qcontactactionservicemanager_p.o(t._ZN5QHashI7QStringN10QtMobility24QContactActionDescriptorEE5eraseENS3_8iteratorE)
    t._ZN5QHashI7QStringN10QtMobility24QContactActionDescriptorEE6detachEv 0x00009412   Section       28  qcontactactionservicemanager_p.o(t._ZN5QHashI7QStringN10QtMobility24QContactActionDescriptorEE6detachEv)
    t._ZN5QHashI7QStringN10QtMobility24QContactActionDescriptorEE8freeDataEP9QHashData 0x00009430   Section       20  qcontactactionservicemanager_p.o(t._ZN5QHashI7QStringN10QtMobility24QContactActionDescriptorEE8freeDataEP9QHashData)
    t._ZN5QHashI7QStringN10QtMobility24QContactActionDescriptorEED1Ev 0x00009444   Section       30  qcontactactionservicemanager_p.o(t._ZN5QHashI7QStringN10QtMobility24QContactActionDescriptorEED1Ev)
    t._ZN5QHashIN10QtMobility24QContactActionDescriptorEPNS0_21QContactActionFactoryEE11deleteNode2EPN9QHashData4NodeE 0x00009462   Section       24  qcontactactionservicemanager_p.o(t._ZN5QHashIN10QtMobility24QContactActionDescriptorEPNS0_21QContactActionFactoryEE11deleteNode2EPN9QHashData4NodeE)
    t._ZN5QHashIN10QtMobility24QContactActionDescriptorEPNS0_21QContactActionFactoryEE13detach_helperEv 0x0000947c   Section       60  qcontactactionservicemanager_p.o(t._ZN5QHashIN10QtMobility24QContactActionDescriptorEPNS0_21QContactActionFactoryEE13detach_helperEv)
    t._ZN5QHashIN10QtMobility24QContactActionDescriptorEPNS0_21QContactActionFactoryEE13duplicateNodeEPN9QHashData4NodeEPv 0x000094b8   Section       46  qcontactactionservicemanager_p.o(t._ZN5QHashIN10QtMobility24QContactActionDescriptorEPNS0_21QContactActionFactoryEE13duplicateNodeEPN9QHashData4NodeEPv)
    t._ZN5QHashIN10QtMobility24QContactActionDescriptorEPNS0_21QContactActionFactoryEE13duplicateNodeEPN9QHashData4NodeEPv.clean 0x000094e6   Section       14  qcontactactionservicemanager_p.o(t._ZN5QHashIN10QtMobility24QContactActionDescriptorEPNS0_21QContactActionFactoryEE13duplicateNodeEPN9QHashData4NodeEPv.clean)
    t._ZN5QHashIN10QtMobility24QContactActionDescriptorEPNS0_21QContactActionFactoryEE6detachEv 0x000094f4   Section       28  qcontactactionservicemanager_p.o(t._ZN5QHashIN10QtMobility24QContactActionDescriptorEPNS0_21QContactActionFactoryEE6detachEv)
    t._ZN5QHashIN10QtMobility24QContactActionDescriptorEPNS0_21QContactActionFactoryEE6insertERKS1_RKS3_ 0x00009510   Section      176  qcontactactionservicemanager_p.o(t._ZN5QHashIN10QtMobility24QContactActionDescriptorEPNS0_21QContactActionFactoryEE6insertERKS1_RKS3_)
    t._ZN5QHashIN10QtMobility24QContactActionDescriptorEPNS0_21QContactActionFactoryEE6insertERKS1_RKS3_.clean 0x000095c0   Section       14  qcontactactionservicemanager_p.o(t._ZN5QHashIN10QtMobility24QContactActionDescriptorEPNS0_21QContactActionFactoryEE6insertERKS1_RKS3_.clean)
    t._ZN5QHashIN10QtMobility24QContactActionDescriptorEPNS0_21QContactActionFactoryEE6removeERKS1_ 0x000095ce   Section      260  qcontactactionservicemanager_p.o(t._ZN5QHashIN10QtMobility24QContactActionDescriptorEPNS0_21QContactActionFactoryEE6removeERKS1_)
    t._ZN5QHashIN10QtMobility24QContactActionDescriptorEPNS0_21QContactActionFactoryEE8freeDataEP9QHashData 0x000096d4   Section       20  qcontactactionservicemanager_p.o(t._ZN5QHashIN10QtMobility24QContactActionDescriptorEPNS0_21QContactActionFactoryEE8freeDataEP9QHashData)
    t._ZN5QHashIN10QtMobility24QContactActionDescriptorEPNS0_21QContactActionFactoryEED1Ev 0x000096e8   Section       30  qcontactactionservicemanager_p.o(t._ZN5QHashIN10QtMobility24QContactActionDescriptorEPNS0_21QContactActionFactoryEED1Ev)
    t._ZN5QHashIPN10QtMobility21QContactActionFactoryE15QHashDummyValueE11deleteNode2EPN9QHashData4NodeE 0x00009706   Section        6  qcontactactionservicemanager_p.o(t._ZN5QHashIPN10QtMobility21QContactActionFactoryE15QHashDummyValueE11deleteNode2EPN9QHashData4NodeE)
    t._ZN5QHashIPN10QtMobility21QContactActionFactoryE15QHashDummyValueE13detach_helperEv 0x0000970c   Section       60  qcontactactionservicemanager_p.o(t._ZN5QHashIPN10QtMobility21QContactActionFactoryE15QHashDummyValueE13detach_helperEv)
    t._ZN5QHashIPN10QtMobility21QContactActionFactoryE15QHashDummyValueE13duplicateNodeEPN9QHashData4NodeEPv 0x00009748   Section       40  qcontactactionservicemanager_p.o(t._ZN5QHashIPN10QtMobility21QContactActionFactoryE15QHashDummyValueE13duplicateNodeEPN9QHashData4NodeEPv)
    t._ZN5QHashIPN10QtMobility21QContactActionFactoryE15QHashDummyValueE6insertERKS2_RKS3_ 0x00009770   Section      188  qcontactactionservicemanager_p.o(t._ZN5QHashIPN10QtMobility21QContactActionFactoryE15QHashDummyValueE6insertERKS2_RKS3_)
    t._ZN5QHashIPN10QtMobility21QContactActionFactoryE15QHashDummyValueE6insertERKS2_RKS3_.clean 0x0000982c   Section        4  qcontactactionservicemanager_p.o(t._ZN5QHashIPN10QtMobility21QContactActionFactoryE15QHashDummyValueE6insertERKS2_RKS3_.clean)
    t._ZN5QHashIPN10QtMobility21QContactActionFactoryE15QHashDummyValueE8freeDataEP9QHashData 0x00009830   Section       20  qcontactactionservicemanager_p.o(t._ZN5QHashIPN10QtMobility21QContactActionFactoryE15QHashDummyValueE8freeDataEP9QHashData)
    t._ZN5QHashIPN10QtMobility21QContactActionFactoryE15QHashDummyValueED1Ev 0x00009844   Section       30  qcontactactionservicemanager_p.o(t._ZN5QHashIPN10QtMobility21QContactActionFactoryE15QHashDummyValueED1Ev)
    t._ZN5QListIN10QtMobility24QContactActionDescriptorEE13detach_helperEi 0x00009862   Section       94  qcontactactionservicemanager_p.o(t._ZN5QListIN10QtMobility24QContactActionDescriptorEE13detach_helperEi)
    t._ZN5QListIN10QtMobility24QContactActionDescriptorEE13detach_helperEi.clean 0x000098c0   Section        8  qcontactactionservicemanager_p.o(t._ZN5QListIN10QtMobility24QContactActionDescriptorEE13detach_helperEi.clean)
    t._ZN5QListIN10QtMobility24QContactActionDescriptorEE13detach_helperEv 0x000098c8   Section       16  qcontactactionservicemanager_p.o(t._ZN5QListIN10QtMobility24QContactActionDescriptorEE13detach_helperEv)
    t._ZN5QListIN10QtMobility24QContactActionDescriptorEE13node_destructEPNS2_4NodeES4_ 0x000098d8   Section       26  qcontactactionservicemanager_p.o(t._ZN5QListIN10QtMobility24QContactActionDescriptorEE13node_destructEPNS2_4NodeES4_)
    t._ZN5QListIN10QtMobility24QContactActionDescriptorEE14node_constructEPNS2_4NodeERKS1_ 0x000098f2   Section       36  qcontactactionservicemanager_p.o(t._ZN5QListIN10QtMobility24QContactActionDescriptorEE14node_constructEPNS2_4NodeERKS1_)
    t._ZN5QListIN10QtMobility24QContactActionDescriptorEE14node_constructEPNS2_4NodeERKS1_.clean 0x00009916   Section       14  qcontactactionservicemanager_p.o(t._ZN5QListIN10QtMobility24QContactActionDescriptorEE14node_constructEPNS2_4NodeERKS1_.clean)
    t._ZN5QListIN10QtMobility24QContactActionDescriptorEE18detach_helper_growEii 0x00009924   Section      208  qcontactactionservicemanager_p.o(t._ZN5QListIN10QtMobility24QContactActionDescriptorEE18detach_helper_growEii)
    t._ZN5QListIN10QtMobility24QContactActionDescriptorEE18detach_helper_growEii.clean 0x000099f4   Section       16  qcontactactionservicemanager_p.o(t._ZN5QListIN10QtMobility24QContactActionDescriptorEE18detach_helper_growEii.clean)
    t._ZN5QListIN10QtMobility24QContactActionDescriptorEE4freeEPN9QListData4DataE 0x00009a04   Section       58  qcontactactionservicemanager_p.o(t._ZN5QListIN10QtMobility24QContactActionDescriptorEE4freeEPN9QListData4DataE)
    t._ZN5QListIN10QtMobility24QContactActionDescriptorEE6appendERKS1_ 0x00009a40   Section      120  qcontactactionservicemanager_p.o(t._ZN5QListIN10QtMobility24QContactActionDescriptorEE6appendERKS1_)
    t._ZN5QListIN10QtMobility24QContactActionDescriptorEE6appendERKS1_.clean 0x00009ab8   Section       14  qcontactactionservicemanager_p.o(t._ZN5QListIN10QtMobility24QContactActionDescriptorEE6appendERKS1_.clean)
    t._ZN5QListIN10QtMobility24QContactActionDescriptorEE7reserveEi 0x00009ac6   Section       46  qcontactactionservicemanager_p.o(t._ZN5QListIN10QtMobility24QContactActionDescriptorEE7reserveEi)
    t._ZN5QListIN10QtMobility24QContactActionDescriptorEE9node_copyEPNS2_4NodeES4_S4_ 0x00009af4   Section       82  qcontactactionservicemanager_p.o(t._ZN5QListIN10QtMobility24QContactActionDescriptorEE9node_copyEPNS2_4NodeES4_S4_)
    t._ZN5QListIN10QtMobility24QContactActionDescriptorEE9node_copyEPNS2_4NodeES4_S4_.clean 0x00009b46   Section       22  qcontactactionservicemanager_p.o(t._ZN5QListIN10QtMobility24QContactActionDescriptorEE9node_copyEPNS2_4NodeES4_S4_.clean)
    t._ZN5QListIN10QtMobility24QContactActionDescriptorEED1Ev 0x00009b5c   Section       32  qcontactactionservicemanager_p.o(t._ZN5QListIN10QtMobility24QContactActionDescriptorEED1Ev)
    t._ZN5QListIN10QtMobility27QServiceInterfaceDescriptorEE13detach_helperEi 0x00009b7c   Section      200  qcontactactionservicemanager_p.o(t._ZN5QListIN10QtMobility27QServiceInterfaceDescriptorEE13detach_helperEi)
    t._ZN5QListIN10QtMobility27QServiceInterfaceDescriptorEE13detach_helperEi.clean 0x00009c44   Section       32  qcontactactionservicemanager_p.o(t._ZN5QListIN10QtMobility27QServiceInterfaceDescriptorEE13detach_helperEi.clean)
    t._ZN5QListIN10QtMobility27QServiceInterfaceDescriptorEE13detach_helperEv 0x00009c64   Section       16  qcontactactionservicemanager_p.o(t._ZN5QListIN10QtMobility27QServiceInterfaceDescriptorEE13detach_helperEv)
    t._ZN5QListIN10QtMobility27QServiceInterfaceDescriptorEE4freeEPN9QListData4DataE 0x00009c74   Section       82  qcontactactionservicemanager_p.o(t._ZN5QListIN10QtMobility27QServiceInterfaceDescriptorEE4freeEPN9QListData4DataE)
    t._ZN5QListIN10QtMobility27QServiceInterfaceDescriptorEED1Ev 0x00009cc6   Section       32  qcontactactionservicemanager_p.o(t._ZN5QListIN10QtMobility27QServiceInterfaceDescriptorEED1Ev)
    t._ZN8QPointerI7QObjectED1Ev             0x00009ce6   Section       14  qcontactactionservicemanager_p.o(t._ZN8QPointerI7QObjectED1Ev)
    t._ZN9QHashNodeI7QStringN10QtMobility24QContactActionDescriptorEEC1ERKS0_RKS2_ 0x00009cf4   Section       40  qcontactactionservicemanager_p.o(t._ZN9QHashNodeI7QStringN10QtMobility24QContactActionDescriptorEEC1ERKS0_RKS2_)
    t._ZN9QHashNodeI7QStringN10QtMobility24QContactActionDescriptorEEC1ERKS0_RKS2_.clean 0x00009d1c   Section       12  qcontactactionservicemanager_p.o(t._ZN9QHashNodeI7QStringN10QtMobility24QContactActionDescriptorEEC1ERKS0_RKS2_.clean)
    t._ZN9QHashNodeIN10QtMobility24QContactActionDescriptorEPNS0_21QContactActionFactoryEEC1ERKS1_RKS3_ 0x00009d28   Section       30  qcontactactionservicemanager_p.o(t._ZN9QHashNodeIN10QtMobility24QContactActionDescriptorEPNS0_21QContactActionFactoryEEC1ERKS1_RKS3_)
    t._ZNK17QForeachContainerI5QListIN10QtMobility24QContactActionDescriptorEEE9conditionEv 0x00009d46   Section       40  qcontactactionservicemanager_p.o(t._ZNK17QForeachContainerI5QListIN10QtMobility24QContactActionDescriptorEEE9conditionEv)
    t._ZNK17QForeachContainerI5QListIN10QtMobility27QServiceInterfaceDescriptorEEE9conditionEv 0x00009d6e   Section       40  qcontactactionservicemanager_p.o(t._ZNK17QForeachContainerI5QListIN10QtMobility27QServiceInterfaceDescriptorEEE9conditionEv)
    t._ZNK5QHashI7QStringN10QtMobility24QContactActionDescriptorEE8findNodeERKS0_Pj 0x00009d96   Section      116  qcontactactionservicemanager_p.o(t._ZNK5QHashI7QStringN10QtMobility24QContactActionDescriptorEE8findNodeERKS0_Pj)
    t._ZNK5QHashIN10QtMobility24QContactActionDescriptorEPNS0_21QContactActionFactoryEE4keysEv 0x00009e0c   Section      152  qcontactactionservicemanager_p.o(t._ZNK5QHashIN10QtMobility24QContactActionDescriptorEPNS0_21QContactActionFactoryEE4keysEv)
    t._ZNK5QHashIN10QtMobility24QContactActionDescriptorEPNS0_21QContactActionFactoryEE4keysEv.clean 0x00009ea4   Section       10  qcontactactionservicemanager_p.o(t._ZNK5QHashIN10QtMobility24QContactActionDescriptorEPNS0_21QContactActionFactoryEE4keysEv.clean)
    t._ZNK5QHashIN10QtMobility24QContactActionDescriptorEPNS0_21QContactActionFactoryEE5valueERKS1_ 0x00009eae   Section       40  qcontactactionservicemanager_p.o(t._ZNK5QHashIN10QtMobility24QContactActionDescriptorEPNS0_21QContactActionFactoryEE5valueERKS1_)
    t._ZNK5QHashIN10QtMobility24QContactActionDescriptorEPNS0_21QContactActionFactoryEE8findNodeERKS1_Pj 0x00009ed6   Section      116  qcontactactionservicemanager_p.o(t._ZNK5QHashIN10QtMobility24QContactActionDescriptorEPNS0_21QContactActionFactoryEE8findNodeERKS1_Pj)
    t._ZNK5QHashIPN10QtMobility21QContactActionFactoryE15QHashDummyValueE8findNodeERKS2_Pj 0x00009f4a   Section      104  qcontactactionservicemanager_p.o(t._ZNK5QHashIPN10QtMobility21QContactActionFactoryE15QHashDummyValueE8findNodeERKS2_Pj)
    .extab._ZN10QtMobility28QContactActionServiceManagerC1Ev 0x00009fb4   Data           0  qcontactactionservicemanager_p.o(.ARM.extab)
    .extab.qt_plugin_instance                0x00009fdc   Data           0  qcontactactionservicemanager_p.o(.ARM.extab)
    .extab._ZN10QtMobility28QContactActionServiceManager14serviceRemovedERK7QString 0x00009ff4   Data           0  qcontactactionservicemanager_p.o(.ARM.extab)
    .extab._ZN10QtMobility28QContactActionServiceManager12serviceAddedERK7QString 0x0000a084   Data           0  qcontactactionservicemanager_p.o(.ARM.extab)
    .extab._ZN10QtMobility35contactActionServiceManagerInstanceEv 0x0000a104   Data           0  qcontactactionservicemanager_p.o(.ARM.extab)
    .extab._ZN10QtMobility28QContactActionServiceManagerD1Ev 0x0000a11c   Data           0  qcontactactionservicemanager_p.o(.ARM.extab)
    .extab._ZN10QtMobility28QContactActionServiceManager4initEv 0x0000a17c   Data           0  qcontactactionservicemanager_p.o(.ARM.extab)
    .extab._ZN10QtMobility28QContactActionServiceManager17actionFactoryHashEv 0x0000a1f4   Data           0  qcontactactionservicemanager_p.o(.ARM.extab)
    .extab._ZN10QtMobility28QContactActionServiceManager14descriptorHashEv 0x0000a204   Data           0  qcontactactionservicemanager_p.o(.ARM.extab)
    .extab._ZN5QListIN10QtMobility24QContactActionDescriptorEE9node_copyEPNS2_4NodeES4_S4_ 0x0000a214   Data           0  qcontactactionservicemanager_p.o(.ARM.extab)
    .extab._ZN5QListIN10QtMobility24QContactActionDescriptorEE13detach_helperEi 0x0000a238   Data           0  qcontactactionservicemanager_p.o(.ARM.extab)
    .extab._Z20qForeachContainerNewI5QListIN10QtMobility24QContactActionDescriptorEEE17QForeachContainerIT_ERKS5_ 0x0000a254   Data           0  qcontactactionservicemanager_p.o(.ARM.extab)
    .extab._ZN5QListIN10QtMobility27QServiceInterfaceDescriptorEE13detach_helperEi 0x0000a264   Data           0  qcontactactionservicemanager_p.o(.ARM.extab)
    .extab._Z20qForeachContainerNewI5QListIN10QtMobility27QServiceInterfaceDescriptorEEE17QForeachContainerIT_ERKS5_ 0x0000a2a8   Data           0  qcontactactionservicemanager_p.o(.ARM.extab)
    .extab._ZN5QListIN10QtMobility24QContactActionDescriptorEE14node_constructEPNS2_4NodeERKS1_ 0x0000a2b8   Data           0  qcontactactionservicemanager_p.o(.ARM.extab)
    .extab._ZN5QListIN10QtMobility24QContactActionDescriptorEE18detach_helper_growEii 0x0000a2c8   Data           0  qcontactactionservicemanager_p.o(.ARM.extab)
    .extab._ZN5QListIN10QtMobility24QContactActionDescriptorEE6appendERKS1_ 0x0000a2f8   Data           0  qcontactactionservicemanager_p.o(.ARM.extab)
    .extab._ZN9QHashNodeI7QStringN10QtMobility24QContactActionDescriptorEEC1ERKS0_RKS2_ 0x0000a328   Data           0  qcontactactionservicemanager_p.o(.ARM.extab)
    .extab._ZN5QHashIN10QtMobility24QContactActionDescriptorEPNS0_21QContactActionFactoryEE6removeERKS1_ 0x0000a338   Data           0  qcontactactionservicemanager_p.o(.ARM.extab)
    .extab._ZNK5QHashIN10QtMobility24QContactActionDescriptorEPNS0_21QContactActionFactoryEE4keysEv 0x0000a34c   Data           0  qcontactactionservicemanager_p.o(.ARM.extab)
    .extab._ZN5QHashIN10QtMobility24QContactActionDescriptorEPNS0_21QContactActionFactoryEE6insertERKS1_RKS3_ 0x0000a35c   Data           0  qcontactactionservicemanager_p.o(.ARM.extab)
    .extab._ZN10QMultiHashI7QStringN10QtMobility24QContactActionDescriptorEE6insertERKS0_RKS2_ 0x0000a374   Data           0  qcontactactionservicemanager_p.o(.ARM.extab)
    .extab._ZN5QHashI7QStringN10QtMobility24QContactActionDescriptorEE11deleteNode2EPN9QHashData4NodeE 0x0000a38c   Data           0  qcontactactionservicemanager_p.o(.ARM.extab)
    .extab._ZN5QHashI7QStringN10QtMobility24QContactActionDescriptorEE13duplicateNodeEPN9QHashData4NodeEPv 0x0000a39c   Data           0  qcontactactionservicemanager_p.o(.ARM.extab)
    .extab._ZN5QHashIN10QtMobility24QContactActionDescriptorEPNS0_21QContactActionFactoryEE13duplicateNodeEPN9QHashData4NodeEPv 0x0000a3ac   Data           0  qcontactactionservicemanager_p.o(.ARM.extab)
    .constdata$1                             0x0000a3bc   Data           0  qcontactactionservicemanager_p.o(.constdata)
    .constdata                               0x0000a3bc   Section      297  qcontactactionservicemanager_p.o(.constdata)
    QtMobility::qt_plugin_verification_data  0x0000a3cc   Data          91  qcontactactionservicemanager_p.o(.constdata)
    QtMobility::qt_meta_data_QContactActionServiceManager 0x0000a428   Data         100  qcontactactionservicemanager_p.o(.constdata)
    QtMobility::qt_meta_stringdata_QContactActionServiceManager 0x0000a48c   Data          89  qcontactactionservicemanager_p.o(.constdata)
    .constdata__ZN9stlp_priv15_Integer_limitsIaLan128ELa127ELin1ELb1EE6digitsE 0x0000a4e8   Section        4  qcontactactionservicemanager_p.o(.constdata__ZN9stlp_priv15_Integer_limitsIaLan128ELa127ELin1ELb1EE6digitsE)
    .constdata__ZN9stlp_priv15_Integer_limitsIbLb0ELb1ELi1ELb0EE6digitsE 0x0000a4ec   Section        4  qcontactactionservicemanager_p.o(.constdata__ZN9stlp_priv15_Integer_limitsIbLb0ELb1ELi1ELb0EE6digitsE)
    .constdata__ZN9stlp_priv15_Integer_limitsIcLc128ELc127ELin1ELb1EE6digitsE 0x0000a4f0   Section        4  qcontactactionservicemanager_p.o(.constdata__ZN9stlp_priv15_Integer_limitsIcLc128ELc127ELin1ELb1EE6digitsE)
    .constdata__ZN9stlp_priv15_Integer_limitsIhLh0ELh255ELin1ELb1EE6digitsE 0x0000a4f4   Section        4  qcontactactionservicemanager_p.o(.constdata__ZN9stlp_priv15_Integer_limitsIhLh0ELh255ELin1ELb1EE6digitsE)
    .constdata__ZN9stlp_priv15_Integer_limitsIiLin2147483648ELi2147483647ELin1ELb1EE6digitsE 0x0000a4f8   Section        4  qcontactactionservicemanager_p.o(.constdata__ZN9stlp_priv15_Integer_limitsIiLin2147483648ELi2147483647ELin1ELb1EE6digitsE)
    .constdata__ZN9stlp_priv15_Integer_limitsIiLin2147483648ELi2147483647ELin1ELb1EE9is_signedE 0x0000a4fc   Section        1  qcontactactionservicemanager_p.o(.constdata__ZN9stlp_priv15_Integer_limitsIiLin2147483648ELi2147483647ELin1ELb1EE9is_signedE)
    .constdata__ZN9stlp_priv15_Integer_limitsIjLj0ELj4294967295ELin1ELb1EE6digitsE 0x0000a500   Section        4  qcontactactionservicemanager_p.o(.constdata__ZN9stlp_priv15_Integer_limitsIjLj0ELj4294967295ELin1ELb1EE6digitsE)
    .constdata__ZN9stlp_priv15_Integer_limitsIlLln2147483648ELl2147483647ELin1ELb1EE6digitsE 0x0000a504   Section        4  qcontactactionservicemanager_p.o(.constdata__ZN9stlp_priv15_Integer_limitsIlLln2147483648ELl2147483647ELin1ELb1EE6digitsE)
    .constdata__ZN9stlp_priv15_Integer_limitsImLm0ELm4294967295ELin1ELb1EE6digitsE 0x0000a508   Section        4  qcontactactionservicemanager_p.o(.constdata__ZN9stlp_priv15_Integer_limitsImLm0ELm4294967295ELin1ELb1EE6digitsE)
    .constdata__ZN9stlp_priv15_Integer_limitsIsLsn32768ELs32767ELin1ELb1EE6digitsE 0x0000a50c   Section        4  qcontactactionservicemanager_p.o(.constdata__ZN9stlp_priv15_Integer_limitsIsLsn32768ELs32767ELin1ELb1EE6digitsE)
    .constdata__ZN9stlp_priv15_Integer_limitsItLt0ELt65535ELin1ELb1EE6digitsE 0x0000a510   Section        4  qcontactactionservicemanager_p.o(.constdata__ZN9stlp_priv15_Integer_limitsItLt0ELt65535ELin1ELb1EE6digitsE)
    .constdata__ZN9stlp_priv15_Integer_limitsIwLw0ELw65535ELin1ELb1EE6digitsE 0x0000a514   Section        4  qcontactactionservicemanager_p.o(.constdata__ZN9stlp_priv15_Integer_limitsIwLw0ELw65535ELin1ELb1EE6digitsE)
    .constdata__ZN9stlp_priv15_Integer_limitsIxLxn9223372036854775808ELx9223372036854775807ELin1ELb1EE6digitsE 0x0000a518   Section        4  qcontactactionservicemanager_p.o(.constdata__ZN9stlp_priv15_Integer_limitsIxLxn9223372036854775808ELx9223372036854775807ELin1ELb1EE6digitsE)
    .constdata__ZN9stlp_priv15_Integer_limitsIyLy0ELy18446744073709551615ELin1ELb1EE6digitsE 0x0000a51c   Section        4  qcontactactionservicemanager_p.o(.constdata__ZN9stlp_priv15_Integer_limitsIyLy0ELy18446744073709551615ELin1ELb1EE6digitsE)
    .constdata__ZTIN10QtMobility27QContactActionManagerPluginE 0x0000a520   Section        8  qcontactactionservicemanager_p.o(.constdata__ZTIN10QtMobility27QContactActionManagerPluginE)
    .constdata__ZTIN10QtMobility28QContactActionServiceManagerE 0x0000a528   Section       32  qcontactactionservicemanager_p.o(.constdata__ZTIN10QtMobility28QContactActionServiceManagerE)
    .constdata__ZTSN10QtMobility27QContactActionManagerPluginE 0x0000a548   Section       44  qcontactactionservicemanager_p.o(.constdata__ZTSN10QtMobility27QContactActionManagerPluginE)
    .constdata__ZTSN10QtMobility28QContactActionServiceManagerE 0x0000a574   Section       45  qcontactactionservicemanager_p.o(.constdata__ZTSN10QtMobility28QContactActionServiceManagerE)
    .constdata__ZTVN10QtMobility27QContactActionManagerPluginE 0x0000a5a4   Section       16  qcontactactionservicemanager_p.o(.constdata__ZTVN10QtMobility27QContactActionManagerPluginE)
    .constdata__ZTVN10QtMobility28QContactActionServiceManagerE 0x0000a5b4   Section       80  qcontactactionservicemanager_p.o(.constdata__ZTVN10QtMobility28QContactActionServiceManagerE)
    .ARM.exidx                               0x0000a604   Section        8  ucppinit.o(.ARM.exidx)
    .data$0                                  0x00400000   Data           0  qcontactactionservicemanager_p.o(.data)
    QtMobility::this_contactActionServiceManagerInstance 0x00400000   Data           8  qcontactactionservicemanager_p.o(.data)
    .data                                    0x00400000   Section       24  qcontactactionservicemanager_p.o(.data)
    _ZGV_instance@qt_plugin_instance_0       0x00400008   Data           4  qcontactactionservicemanager_p.o(.data)
    _instance@qt_plugin_instance_1           0x0040000c   Data           4  qcontactactionservicemanager_p.o(.data)
    _ZGVcleanup@_ZN10QtMobility35contactActionServiceManagerInstanceEv_0 0x00400010   Data           4  qcontactactionservicemanager_p.o(.data)
    cleanup@_ZN10QtMobility35contactActionServiceManagerInstanceEv_1 0x00400014   Data           4  qcontactactionservicemanager_p.o(.data)
    .data$0                                  0x00400018   Data           0  ucppfini.o(.data)
    .data                                    0x00400018   Section        4  ucppfini.o(.data)
    .data__ZNSt19_Atomic_swap_structILi1EE12_S_swap_lockE 0x0040001c   Section       12  qcontactactionservicemanager_p.o(.data__ZNSt19_Atomic_swap_structILi1EE12_S_swap_lockE)
    .bss$5                                   0x00400028   Data           0  ucppfini.o(.bss)
    .bss                                     0x00400028   Section     2048  ucppfini.o(.bss)

    Global Symbols

    Symbol Name                              Value     Ov Type        Size  Object(Section)

    BuildAttributes$$THUMB_ISAv2$ARM_ISAv5$M$VFPv2$PE$A:L22$X:L11$S22$IEEE1$IW$USESV6$~STKCKD$USESV7$~SHL$OSPACE$ROPI$IEEEJ$EBA8$UX$FPIC$INDIRECT$REQ8$PRES8$EABIv2 0x00000000   Number         0  anon$$obj.o ABSOLUTE
    QtContacts{00010103}[2002ac7a].dll       0x00000000   Data           0  anon$$obj.o ABSOLUTE
    QtCore{00040703}[2001b2dc].dll           0x00000000   Data           0  anon$$obj.o ABSOLUTE
    QtServiceFramework{00010103}[2002ac84].dll 0x00000000   Data           0  anon$$obj.o ABSOLUTE
    drtaeabi{000a0000}.dll                   0x00000000   Data           0  anon$$obj.o ABSOLUTE
    euser{000a0000}[100039e5].dll            0x00000000   Data           0  anon$$obj.o ABSOLUTE
    libc{00010001}[10207369].dll             0x00000000   Data           0  anon$$obj.o ABSOLUTE
    qtcontacts_serviceactionmanager{000a0000}[200315fd].dll 0x00000000   Data           0  anon$$obj.o ABSOLUTE
    stdnew{000a0000}[20022178].dll           0x00000000   Data           0  anon$$obj.o ABSOLUTE
    SHT$$INIT_ARRAY$$Base                     - Undefined Weak Reference
    SHT$$INIT_ARRAY$$Limit                    - Undefined Weak Reference
    QBasicAtomicPointer_testAndSetOrdered(void*volatile *, void*, void*)  - Undefined Reference
    _Z37QBasicAtomicPointer_testAndSetOrderedPVPvS_S_@QtCore{00040703}[2001b2dc].dll  - Undefined Reference
    qFree(void*)                              - Undefined Reference
    _Z5qFreePv@QtCore{00040703}[2001b2dc].dll  - Undefined Reference
    qHash(const QString&)                     - Undefined Reference
    _Z5qHashRK7QString@QtCore{00040703}[2001b2dc].dll  - Undefined Reference
    QtMobility::QServiceFilter::QServiceFilter()  - Undefined Reference
    _ZN10QtMobility14QServiceFilterC1Ev@QtServiceFramework{00010103}[2002ac84].dll  - Undefined Reference
    QtMobility::QServiceFilter::~QServiceFilter()  - Undefined Reference
    _ZN10QtMobility14QServiceFilterD1Ev@QtServiceFramework{00010103}[2002ac84].dll  - Undefined Reference
    QtMobility::QServiceManager::loadInterface(const QtMobility::QServiceInterfaceDescriptor&, QtMobility::QServiceContext*, QtMobility::QAbstractSecuritySession*)  - Undefined Reference
    _ZN10QtMobility15QServiceManager13loadInterfaceERKNS_27QServiceInterfaceDescriptorEPNS_15QServiceContextEPNS_24QAbstractSecuritySessionE@QtServiceFramework{00010103}[2002ac84].dll  - Undefined Reference
    QtMobility::QServiceManager::QServiceManager(QObject*)  - Undefined Reference
    _ZN10QtMobility15QServiceManagerC1EP7QObject@QtServiceFramework{00010103}[2002ac84].dll  - Undefined Reference
    QtMobility::QServiceManager::~QServiceManager()  - Undefined Reference
    _ZN10QtMobility15QServiceManagerD1Ev@QtServiceFramework{00010103}[2002ac84].dll  - Undefined Reference
    QtMobility::QContactActionFactory::InterfaceName  - Undefined Reference
    _ZN10QtMobility21QContactActionFactory13InterfaceNameE@QtContacts{00010103}[2002ac7a].dll  - Undefined Reference
    QtMobility::QContactActionFactory::staticMetaObject  - Undefined Reference
    _ZN10QtMobility21QContactActionFactory16staticMetaObjectE@QtContacts{00010103}[2002ac7a].dll  - Undefined Reference
    QtMobility::QContactActionDescriptor::QContactActionDescriptor(const QtMobility::QContactActionDescriptor&)  - Undefined Reference
    _ZN10QtMobility24QContactActionDescriptorC1ERKS0_@QtContacts{00010103}[2002ac7a].dll  - Undefined Reference
    QtMobility::QContactActionDescriptor::~QContactActionDescriptor()  - Undefined Reference
    _ZN10QtMobility24QContactActionDescriptorD1Ev@QtContacts{00010103}[2002ac7a].dll  - Undefined Reference
    QtMobility::QServiceInterfaceDescriptor::QServiceInterfaceDescriptor(const QtMobility::QServiceInterfaceDescriptor&)  - Undefined Reference
    _ZN10QtMobility27QServiceInterfaceDescriptorC1ERKS0_@QtServiceFramework{00010103}[2002ac84].dll  - Undefined Reference
    QtMobility::QServiceInterfaceDescriptor::~QServiceInterfaceDescriptor()  - Undefined Reference
    _ZN10QtMobility27QServiceInterfaceDescriptorD1Ev@QtServiceFramework{00010103}[2002ac84].dll  - Undefined Reference
    QtMobility::qHash(const QtMobility::QContactActionDescriptor&)  - Undefined Reference
    _ZN10QtMobility5qHashERKNS_24QContactActionDescriptorE@QtContacts{00010103}[2002ac7a].dll  - Undefined Reference
    QMetaObject::changeGuard(QObject**, QObject*)  - Undefined Reference
    _ZN11QMetaObject11changeGuardEPP7QObjectS1_@QtCore{00040703}[2001b2dc].dll  - Undefined Reference
    QMetaObject::removeGuard(QObject**)       - Undefined Reference
    _ZN11QMetaObject11removeGuardEPP7QObject@QtCore{00040703}[2001b2dc].dll  - Undefined Reference
    User::LockedDec(int&)                     - Undefined Reference
    _ZN4User9LockedDecERi@euser{000a0000}[100039e5].dll  - Undefined Reference
    User::LockedInc(int&)                     - Undefined Reference
    _ZN4User9LockedIncERi@euser{000a0000}[100039e5].dll  - Undefined Reference
    QMutex::lock()                            - Undefined Reference
    _ZN6QMutex4lockEv@QtCore{00040703}[2001b2dc].dll  - Undefined Reference
    QMutex::unlock()                          - Undefined Reference
    _ZN6QMutex6unlockEv@QtCore{00040703}[2001b2dc].dll  - Undefined Reference
    QMutex::QMutex(QMutex::RecursionMode)     - Undefined Reference
    _ZN6QMutexC1ENS_13RecursionModeE@QtCore{00040703}[2001b2dc].dll  - Undefined Reference
    QMutex::~QMutex()                         - Undefined Reference
    _ZN6QMutexD1Ev@QtCore{00040703}[2001b2dc].dll  - Undefined Reference
    QObject::childEvent(QChildEvent*)         - Undefined Reference
    _ZN7QObject10childEventEP11QChildEvent@QtCore{00040703}[2001b2dc].dll  - Undefined Reference
    QObject::timerEvent(QTimerEvent*)         - Undefined Reference
    _ZN7QObject10timerEventEP11QTimerEvent@QtCore{00040703}[2001b2dc].dll  - Undefined Reference
    QObject::customEvent(QEvent*)             - Undefined Reference
    _ZN7QObject11customEventEP6QEvent@QtCore{00040703}[2001b2dc].dll  - Undefined Reference
    QObject::eventFilter(QObject*, QEvent*)   - Undefined Reference
    _ZN7QObject11eventFilterEPS_P6QEvent@QtCore{00040703}[2001b2dc].dll  - Undefined Reference
    QObject::qt_metacall(QMetaObject::Call, int, void**)  - Undefined Reference
    _ZN7QObject11qt_metacallEN11QMetaObject4CallEiPPv@QtCore{00040703}[2001b2dc].dll  - Undefined Reference
    QObject::qt_metacast(const char*)         - Undefined Reference
    _ZN7QObject11qt_metacastEPKc@QtCore{00040703}[2001b2dc].dll  - Undefined Reference
    QObject::connectNotify(const char*)       - Undefined Reference
    _ZN7QObject13connectNotifyEPKc@QtCore{00040703}[2001b2dc].dll  - Undefined Reference
    QObject::disconnectNotify(const char*)    - Undefined Reference
    _ZN7QObject16disconnectNotifyEPKc@QtCore{00040703}[2001b2dc].dll  - Undefined Reference
    QObject::staticMetaObject                 - Undefined Reference
    _ZN7QObject16staticMetaObjectE@QtCore{00040703}[2001b2dc].dll  - Undefined Reference
    QObject::event(QEvent*)                   - Undefined Reference
    _ZN7QObject5eventEP6QEvent@QtCore{00040703}[2001b2dc].dll  - Undefined Reference
    QObject::connect(const QObject*, const char*, const QObject*, const char*, Qt::ConnectionType)  - Undefined Reference
    _ZN7QObject7connectEPKS_PKcS1_S3_N2Qt14ConnectionTypeE@QtCore{00040703}[2001b2dc].dll  - Undefined Reference
    QObject::QObject(QObject*)                - Undefined Reference
    _ZN7QObjectC1EPS_@QtCore{00040703}[2001b2dc].dll  - Undefined Reference
    QObject::~QObject()                       - Undefined Reference
    _ZN7QObjectD1Ev@QtCore{00040703}[2001b2dc].dll  - Undefined Reference
    QString::free(QString::Data*)             - Undefined Reference
    _ZN7QString4freeEPNS_4DataE@QtCore{00040703}[2001b2dc].dll  - Undefined Reference
    QVariant::~QVariant()                     - Undefined Reference
    _ZN8QVariantD1Ev@QtCore{00040703}[2001b2dc].dll  - Undefined Reference
    QHashData::free_helper(void(*)(QHashData::Node*))  - Undefined Reference
    _ZN9QHashData11free_helperEPFvPNS_4NodeEE@QtCore{00040703}[2001b2dc].dll  - Undefined Reference
    QHashData::shared_null                    - Undefined Reference
    _ZN9QHashData11shared_nullE@QtCore{00040703}[2001b2dc].dll  - Undefined Reference
    QHashData::allocateNode(int)              - Undefined Reference
    _ZN9QHashData12allocateNodeEi@QtCore{00040703}[2001b2dc].dll  - Undefined Reference
    QHashData::detach_helper2(void(*)(QHashData::Node*, void*), void(*)(QHashData::Node*), int, int)  - Undefined Reference
    _ZN9QHashData14detach_helper2EPFvPNS_4NodeEPvEPFvS1_Eii@QtCore{00040703}[2001b2dc].dll  - Undefined Reference
    QHashData::rehash(int)                    - Undefined Reference
    _ZN9QHashData6rehashEi@QtCore{00040703}[2001b2dc].dll  - Undefined Reference
    QHashData::freeNode(void*)                - Undefined Reference
    _ZN9QHashData8freeNodeEPv@QtCore{00040703}[2001b2dc].dll  - Undefined Reference
    QHashData::nextNode(QHashData::Node*)     - Undefined Reference
    _ZN9QHashData8nextNodeEPNS_4NodeE@QtCore{00040703}[2001b2dc].dll  - Undefined Reference
    QListData::detach_grow(int*, int)         - Undefined Reference
    _ZN9QListData11detach_growEPii@QtCore{00040703}[2001b2dc].dll  - Undefined Reference
    QListData::shared_null                    - Undefined Reference
    _ZN9QListData11shared_nullE@QtCore{00040703}[2001b2dc].dll  - Undefined Reference
    QListData::append()                       - Undefined Reference
    _ZN9QListData6appendEv@QtCore{00040703}[2001b2dc].dll  - Undefined Reference
    QListData::detach(int)                    - Undefined Reference
    _ZN9QListData6detachEi@QtCore{00040703}[2001b2dc].dll  - Undefined Reference
    QListData::realloc(int)                   - Undefined Reference
    _ZN9QListData7reallocEi@QtCore{00040703}[2001b2dc].dll  - Undefined Reference
    QtMobility::QServiceManager::findInterfaces(const QString&) const  - Undefined Reference
    _ZNK10QtMobility15QServiceManager14findInterfacesERK7QString@QtServiceFramework{00010103}[2002ac84].dll  - Undefined Reference
    QtMobility::QServiceManager::findInterfaces(const QtMobility::QServiceFilter&) const  - Undefined Reference
    _ZNK10QtMobility15QServiceManager14findInterfacesERKNS_14QServiceFilterE@QtServiceFramework{00010103}[2002ac84].dll  - Undefined Reference
    QtMobility::QContactActionDescriptor::actionName() const  - Undefined Reference
    _ZNK10QtMobility24QContactActionDescriptor10actionNameEv@QtContacts{00010103}[2002ac7a].dll  - Undefined Reference
    QtMobility::QContactActionDescriptor::serviceName() const  - Undefined Reference
    _ZNK10QtMobility24QContactActionDescriptor11serviceNameEv@QtContacts{00010103}[2002ac7a].dll  - Undefined Reference
    QtMobility::QContactActionDescriptor::operator ==(const QtMobility::QContactActionDescriptor&) const  - Undefined Reference
    _ZNK10QtMobility24QContactActionDescriptoreqERKS0_@QtContacts{00010103}[2002ac7a].dll  - Undefined Reference
    QtMobility::QServiceInterfaceDescriptor::interfaceName() const  - Undefined Reference
    _ZNK10QtMobility27QServiceInterfaceDescriptor13interfaceNameEv@QtServiceFramework{00010103}[2002ac84].dll  - Undefined Reference
    QtMobility::QServiceInterfaceDescriptor::attribute(QtMobility::QServiceInterfaceDescriptor::Attribute) const  - Undefined Reference
    _ZNK10QtMobility27QServiceInterfaceDescriptor9attributeENS0_9AttributeE@QtServiceFramework{00010103}[2002ac84].dll  - Undefined Reference
    QMetaObject::cast(QObject*) const         - Undefined Reference
    _ZNK11QMetaObject4castEP7QObject@QtCore{00040703}[2001b2dc].dll  - Undefined Reference
    QString::operator ==(const QLatin1String&) const  - Undefined Reference
    _ZNK7QStringeqERK13QLatin1String@QtCore{00040703}[2001b2dc].dll  - Undefined Reference
    QString::operator ==(const QString&) const  - Undefined Reference
    _ZNK7QStringeqERKS_@QtCore{00040703}[2001b2dc].dll  - Undefined Reference
    QVariant::toInt(bool*) const              - Undefined Reference
    _ZNK8QVariant5toIntEPb@QtCore{00040703}[2001b2dc].dll  - Undefined Reference
    typeinfo for QObject                      - Undefined Reference
    _ZTI7QObject@QtCore{00040703}[2001b2dc].dll  - Undefined Reference
    typeinfo for std::bad_alloc               - Undefined Reference
    _ZTISt9bad_alloc@stdnew{000a0000}[20022178].dll  - Undefined Reference
    vtable for __cxxabiv1::__class_type_info  - Undefined Reference
    _ZTVN10__cxxabiv117__class_type_infoE@drtaeabi{000a0000}.dll  - Undefined Reference
    vtable for __cxxabiv1::__vmi_class_type_info  - Undefined Reference
    _ZTVN10__cxxabiv121__vmi_class_type_infoE@drtaeabi{000a0000}.dll  - Undefined Reference
    operator delete (void*)                   - Undefined Reference
    _ZdlPv@stdnew{000a0000}[20022178].dll     - Undefined Reference
    operator new(unsigned)                    - Undefined Reference
    _Znwj@stdnew{000a0000}[20022178].dll      - Undefined Reference
    __aeabi_uidivmod                          - Undefined Reference
    __aeabi_uidivmod@drtaeabi{000a0000}.dll   - Undefined Reference
    __aeabi_unwind_cpp_pr0                    - Undefined Reference
    __aeabi_unwind_cpp_pr0@drtaeabi{000a0000}.dll  - Undefined Reference
    __cxa_begin_catch                         - Undefined Reference
    __cxa_begin_catch@drtaeabi{000a0000}.dll  - Undefined Reference
    __cxa_end_catch                           - Undefined Reference
    __cxa_end_catch@drtaeabi{000a0000}.dll    - Undefined Reference
    __cxa_end_cleanup                         - Undefined Reference
    __cxa_end_cleanup@drtaeabi{000a0000}.dll  - Undefined Reference
    __cxa_guard_abort                         - Undefined Reference
    __cxa_guard_abort@drtaeabi{000a0000}.dll  - Undefined Reference
    __cxa_guard_acquire                       - Undefined Reference
    __cxa_guard_acquire@drtaeabi{000a0000}.dll  - Undefined Reference
    __cxa_guard_release                       - Undefined Reference
    __cxa_guard_release@drtaeabi{000a0000}.dll  - Undefined Reference
    __cxa_pure_virtual                        - Undefined Reference
    __cxa_pure_virtual@drtaeabi{000a0000}.dll  - Undefined Reference
    __cxa_rethrow                             - Undefined Reference
    __cxa_rethrow@drtaeabi{000a0000}.dll      - Undefined Reference
    strcmp                                    - Undefined Reference
    strcmp@libc{00010001}[10207369].dll       - Undefined Reference
    Image$$ER_RO$$Base                       0x00008000   Number         0  anon$$obj.o(linker$$defined$$symbols)
    _E32Dll                                  0x00008000   ARM Code      40  uc_dll_.o(.emb_text)
    Symbian$$CPP$$Exception$$Descriptor      0x00008014   Data           0  uc_dll_.o(.emb_text)
    __cpp_initialize__aeabi_                 0x00008028   ARM Code      52  ucppinit.o(.emb_text)
    std::nothrow                             0x0000805c   ARM Code       0  ucppinit.o(.emb_text)
    __PLT                                    0x0000805c   ARM Code       0  anon$$obj.o(.plt)
    qt_plugin_query_verification_data        0x0000823d   Thumb Code     4  qcontactactionservicemanager_p.o(.text)
    QtMobility::QContactActionServiceManager::QContactActionServiceManager() 0x00008241   Thumb Code   108  qcontactactionservicemanager_p.o(.text)
    QtMobility::QContactActionServiceManager::QContactActionServiceManager__sub_object() 0x00008241   Thumb Code     0  qcontactactionservicemanager_p.o(.text)
    qt_plugin_instance                       0x000082ad   Thumb Code   120  qcontactactionservicemanager_p.o(.text)
    QtMobility::QContactActionServiceManager::getStaticMetaObject() 0x00008325   Thumb Code     4  qcontactactionservicemanager_p.o(.text)
    QtMobility::QContactActionServiceManager::metaObject() const 0x00008329   Thumb Code    28  qcontactactionservicemanager_p.o(.text)
    QtMobility::QContactActionServiceManager::qt_metacast(const char*) 0x00008345   Thumb Code    78  qcontactactionservicemanager_p.o(.text)
    QtMobility::QContactActionServiceManager::serviceRemoved(const QString&) 0x00008393   Thumb Code   558  qcontactactionservicemanager_p.o(.text)
    QtMobility::QContactActionServiceManager::serviceAdded(const QString&) 0x000085c1   Thumb Code   510  qcontactactionservicemanager_p.o(.text)
    QtMobility::QContactActionServiceManager::qt_metacall(QMetaObject::Call, int, void**) 0x000087bf   Thumb Code    76  qcontactactionservicemanager_p.o(.text)
    QtMobility::QContactActionServiceManager::instance() 0x000088ad   Thumb Code     8  qcontactactionservicemanager_p.o(.text)
    QtMobility::QContactActionServiceManager::~QContactActionServiceManager() 0x000088b5   Thumb Code   318  qcontactactionservicemanager_p.o(.text)
    QtMobility::QContactActionServiceManager::~QContactActionServiceManager__sub_object() 0x000088b5   Thumb Code     0  qcontactactionservicemanager_p.o(.text)
    QtMobility::QContactActionServiceManager::~QContactActionServiceManager__deallocating() 0x000089f3   Thumb Code    22  qcontactactionservicemanager_p.o(.text)
    QtMobility::QContactActionServiceManager::init() 0x00008a09   Thumb Code   596  qcontactactionservicemanager_p.o(.text)
    QtMobility::QContactActionServiceManager::actionFactoryHash() 0x00008c5d   Thumb Code    66  qcontactactionservicemanager_p.o(.text)
    thunk{-8} to QtMobility::QContactActionServiceManager::actionFactoryHash() 0x00008c9f   Thumb Code    18  qcontactactionservicemanager_p.o(.text)
    QtMobility::QContactActionServiceManager::descriptorHash() 0x00008cb1   Thumb Code    72  qcontactactionservicemanager_p.o(.text)
    thunk{-8} to QtMobility::QContactActionServiceManager::descriptorHash() 0x00008cf9   Thumb Code    18  qcontactactionservicemanager_p.o(.text)
    __ARM_switch8                            0x00008d0c   ARM Code      24  switch8.o(.text)
    __rt_switch8                             0x00008d0c   ARM Code       0  switch8.o(.text)
    _E32Dll_Body                             0x00008d24   ARM Code      76  uc_dll.o(.text)
    __aeabi_atexit                           0x00008d74   ARM Code      40  ucppfini.o(.text)
    __cxa_atexit                             0x00008d9c   ARM Code      64  ucppfini.o(.text)
    __cxa_finalize                           0x00008ddc   ARM Code      48  ucppfini.o(.text)
    run_static_dtors                         0x00008e0c   ARM Code      16  ucppfini.o(.text)
    __DLL_Export_Table__                     0x00008e28   ARM Code       4  dllexp.o(.text)
    QMultiHash<QString, QtMobility::QContactActionDescriptor>::~QMultiHash() 0x00008fa5   Thumb Code    14  qcontactactionservicemanager_p.o(i._ZN10QMultiHashI7QStringN10QtMobility24QContactActionDescriptorEED1Ev)
    QMultiHash<QString, QtMobility::QContactActionDescriptor>::~QMultiHash__sub_object() 0x00008fa5   Thumb Code     0  qcontactactionservicemanager_p.o(i._ZN10QMultiHashI7QStringN10QtMobility24QContactActionDescriptorEED1Ev)
    QMutexLocker::QMutexLocker(QMutex*)      0x00008fb3   Thumb Code    34  qcontactactionservicemanager_p.o(i._ZN12QMutexLockerC1EP6QMutex)
    QMutexLocker::QMutexLocker__sub_object(QMutex*) 0x00008fb3   Thumb Code     0  qcontactactionservicemanager_p.o(i._ZN12QMutexLockerC1EP6QMutex)
    QMutexLocker::~QMutexLocker()            0x00008fd5   Thumb Code    42  qcontactactionservicemanager_p.o(i._ZN12QMutexLockerD1Ev)
    QMutexLocker::~QMutexLocker__sub_object() 0x00008fd5   Thumb Code     0  qcontactactionservicemanager_p.o(i._ZN12QMutexLockerD1Ev)
    QBasicAtomicInt::ref()                   0x00008fff   Thumb Code    24  qcontactactionservicemanager_p.o(i._ZN15QBasicAtomicInt3refEv)
    QBasicAtomicInt::deref()                 0x00009017   Thumb Code    24  qcontactactionservicemanager_p.o(i._ZN15QBasicAtomicInt5derefEv)
    QForeachContainer<QList<QtMobility::QContactActionDescriptor>>::~QForeachContainer() 0x0000902f   Thumb Code    14  qcontactactionservicemanager_p.o(i._ZN17QForeachContainerI5QListIN10QtMobility24QContactActionDescriptorEEED1Ev)
    QForeachContainer<QList<QtMobility::QContactActionDescriptor>>::~QForeachContainer__sub_object() 0x0000902f   Thumb Code     0  qcontactactionservicemanager_p.o(i._ZN17QForeachContainerI5QListIN10QtMobility24QContactActionDescriptorEEED1Ev)
    QForeachContainer<QList<QtMobility::QServiceInterfaceDescriptor>>::~QForeachContainer() 0x0000903d   Thumb Code    14  qcontactactionservicemanager_p.o(i._ZN17QForeachContainerI5QListIN10QtMobility27QServiceInterfaceDescriptorEEED1Ev)
    QForeachContainer<QList<QtMobility::QServiceInterfaceDescriptor>>::~QForeachContainer__sub_object() 0x0000903d   Thumb Code     0  qcontactactionservicemanager_p.o(i._ZN17QForeachContainerI5QListIN10QtMobility27QServiceInterfaceDescriptorEEED1Ev)
    QSet<QtMobility::QContactActionFactory*>::~QSet() 0x0000904b   Thumb Code    14  qcontactactionservicemanager_p.o(i._ZN4QSetIPN10QtMobility21QContactActionFactoryEED1Ev)
    QSet<QtMobility::QContactActionFactory*>::~QSet__sub_object() 0x0000904b   Thumb Code     0  qcontactactionservicemanager_p.o(i._ZN4QSetIPN10QtMobility21QContactActionFactoryEED1Ev)
    QString::QString(const QString&)         0x00009059   Thumb Code    22  qcontactactionservicemanager_p.o(i._ZN7QStringC1ERKS_)
    QString::QString__sub_object(const QString&) 0x00009059   Thumb Code     0  qcontactactionservicemanager_p.o(i._ZN7QStringC1ERKS_)
    QString::~QString()                      0x0000906f   Thumb Code    24  qcontactactionservicemanager_p.o(i._ZN7QStringD1Ev)
    QString::~QString__sub_object()          0x0000906f   Thumb Code     0  qcontactactionservicemanager_p.o(i._ZN7QStringD1Ev)
    QHashData::willGrow()                    0x00009087   Thumb Code    32  qcontactactionservicemanager_p.o(i._ZN9QHashData8willGrowEv)
    QBasicAtomicInt::operator !=(int) const  0x000090a7   Thumb Code    16  qcontactactionservicemanager_p.o(i._ZNK15QBasicAtomicIntneEi)
    QListData::end() const                   0x000090b7   Thumb Code    16  qcontactactionservicemanager_p.o(i._ZNK9QListData3endEv)
    QListData::begin() const                 0x000090c7   Thumb Code    16  qcontactactionservicemanager_p.o(i._ZNK9QListData5beginEv)
    operator delete (void*, void*)           0x000090d7   Thumb Code     2  qcontactactionservicemanager_p.o(i._ZdlPvS_)
    operator new(unsigned, void*)            0x000090d9   Thumb Code     6  qcontactactionservicemanager_p.o(i._ZnwjPv)
    qobject_cast<QtMobility::QContactActionFactory*>(QObject*) 0x000090e1   Thumb Code    26  qcontactactionservicemanager_p.o(t._Z12qobject_castIPN10QtMobility21QContactActionFactoryEET_P7QObject)
    qForeachContainerNew<QList<QtMobility::QContactActionDescriptor>>(const T1&) 0x00009101   Thumb Code   126  qcontactactionservicemanager_p.o(t._Z20qForeachContainerNewI5QListIN10QtMobility24QContactActionDescriptorEEE17QForeachContainerIT_ERKS5_)
    qForeachContainerNew<QList<QtMobility::QServiceInterfaceDescriptor>>(const T1&) 0x00009189   Thumb Code   126  qcontactactionservicemanager_p.o(t._Z20qForeachContainerNewI5QListIN10QtMobility27QServiceInterfaceDescriptorEEE17QForeachContainerIT_ERKS5_)
    QMultiHash<QString, QtMobility::QContactActionDescriptor>::insert(const QString&, const QtMobility::QContactActionDescriptor&) 0x00009211   Thumb Code   142  qcontactactionservicemanager_p.o(t._ZN10QMultiHashI7QStringN10QtMobility24QContactActionDescriptorEE6insertERKS0_RKS2_)
    QtMobility::operator ==<(int)38>(const QString&, const QtMobility::QLatin1Constant<T1>&) 0x000092ad   Thumb Code    24  qcontactactionservicemanager_p.o(t._ZN10QtMobilityeqILi38EEEbRK7QStringRKNS_15QLatin1ConstantIXT_EEE)
    QGlobalStaticDeleter<QtMobility::QContactActionServiceManager>::~QGlobalStaticDeleter() 0x000092c5   Thumb Code    38  qcontactactionservicemanager_p.o(t._ZN20QGlobalStaticDeleterIN10QtMobility28QContactActionServiceManagerEED1Ev)
    QGlobalStaticDeleter<QtMobility::QContactActionServiceManager>::~QGlobalStaticDeleter__sub_object() 0x000092c5   Thumb Code     0  qcontactactionservicemanager_p.o(t._ZN20QGlobalStaticDeleterIN10QtMobility28QContactActionServiceManagerEED1Ev)
    QHash<QString, QtMobility::QContactActionDescriptor>::deleteNode2(QHashData::Node*) 0x000092eb   Thumb Code    36  qcontactactionservicemanager_p.o(t._ZN5QHashI7QStringN10QtMobility24QContactActionDescriptorEE11deleteNode2EPN9QHashData4NodeE)
    QHash<QString, QtMobility::QContactActionDescriptor>::detach_helper() 0x0000931d   Thumb Code    52  qcontactactionservicemanager_p.o(t._ZN5QHashI7QStringN10QtMobility24QContactActionDescriptorEE13detach_helperEv)
    QHash<QString, QtMobility::QContactActionDescriptor>::duplicateNode(QHashData::Node*, void*) 0x00009359   Thumb Code    46  qcontactactionservicemanager_p.o(t._ZN5QHashI7QStringN10QtMobility24QContactActionDescriptorEE13duplicateNodeEPN9QHashData4NodeEPv)
    QHash<QString, QtMobility::QContactActionDescriptor>::erase(QHash<QString, QtMobility::QContactActionDescriptor>::iterator) 0x00009395   Thumb Code   126  qcontactactionservicemanager_p.o(t._ZN5QHashI7QStringN10QtMobility24QContactActionDescriptorEE5eraseENS3_8iteratorE)
    QHash<QString, QtMobility::QContactActionDescriptor>::detach() 0x00009413   Thumb Code    28  qcontactactionservicemanager_p.o(t._ZN5QHashI7QStringN10QtMobility24QContactActionDescriptorEE6detachEv)
    QHash<QString, QtMobility::QContactActionDescriptor>::freeData(QHashData*) 0x00009431   Thumb Code    16  qcontactactionservicemanager_p.o(t._ZN5QHashI7QStringN10QtMobility24QContactActionDescriptorEE8freeDataEP9QHashData)
    QHash<QString, QtMobility::QContactActionDescriptor>::~QHash() 0x00009445   Thumb Code    30  qcontactactionservicemanager_p.o(t._ZN5QHashI7QStringN10QtMobility24QContactActionDescriptorEED1Ev)
    QHash<QString, QtMobility::QContactActionDescriptor>::~QHash__sub_object() 0x00009445   Thumb Code     0  qcontactactionservicemanager_p.o(t._ZN5QHashI7QStringN10QtMobility24QContactActionDescriptorEED1Ev)
    QHash<QtMobility::QContactActionDescriptor, QtMobility::QContactActionFactory*>::deleteNode2(QHashData::Node*) 0x00009463   Thumb Code    24  qcontactactionservicemanager_p.o(t._ZN5QHashIN10QtMobility24QContactActionDescriptorEPNS0_21QContactActionFactoryEE11deleteNode2EPN9QHashData4NodeE)
    QHash<QtMobility::QContactActionDescriptor, QtMobility::QContactActionFactory*>::detach_helper() 0x0000947d   Thumb Code    52  qcontactactionservicemanager_p.o(t._ZN5QHashIN10QtMobility24QContactActionDescriptorEPNS0_21QContactActionFactoryEE13detach_helperEv)
    QHash<QtMobility::QContactActionDescriptor, QtMobility::QContactActionFactory*>::duplicateNode(QHashData::Node*, void*) 0x000094b9   Thumb Code    46  qcontactactionservicemanager_p.o(t._ZN5QHashIN10QtMobility24QContactActionDescriptorEPNS0_21QContactActionFactoryEE13duplicateNodeEPN9QHashData4NodeEPv)
    QHash<QtMobility::QContactActionDescriptor, QtMobility::QContactActionFactory*>::detach() 0x000094f5   Thumb Code    28  qcontactactionservicemanager_p.o(t._ZN5QHashIN10QtMobility24QContactActionDescriptorEPNS0_21QContactActionFactoryEE6detachEv)
    QHash<QtMobility::QContactActionDescriptor, QtMobility::QContactActionFactory*>::insert(const QtMobility::QContactActionDescriptor&, QtMobility::QContactActionFactory*const &) 0x00009511   Thumb Code   176  qcontactactionservicemanager_p.o(t._ZN5QHashIN10QtMobility24QContactActionDescriptorEPNS0_21QContactActionFactoryEE6insertERKS1_RKS3_)
    QHash<QtMobility::QContactActionDescriptor, QtMobility::QContactActionFactory*>::remove(const QtMobility::QContactActionDescriptor&) 0x000095cf   Thumb Code   260  qcontactactionservicemanager_p.o(t._ZN5QHashIN10QtMobility24QContactActionDescriptorEPNS0_21QContactActionFactoryEE6removeERKS1_)
    QHash<QtMobility::QContactActionDescriptor, QtMobility::QContactActionFactory*>::freeData(QHashData*) 0x000096d5   Thumb Code    16  qcontactactionservicemanager_p.o(t._ZN5QHashIN10QtMobility24QContactActionDescriptorEPNS0_21QContactActionFactoryEE8freeDataEP9QHashData)
    QHash<QtMobility::QContactActionDescriptor, QtMobility::QContactActionFactory*>::~QHash() 0x000096e9   Thumb Code    30  qcontactactionservicemanager_p.o(t._ZN5QHashIN10QtMobility24QContactActionDescriptorEPNS0_21QContactActionFactoryEED1Ev)
    QHash<QtMobility::QContactActionDescriptor, QtMobility::QContactActionFactory*>::~QHash__sub_object() 0x000096e9   Thumb Code     0  qcontactactionservicemanager_p.o(t._ZN5QHashIN10QtMobility24QContactActionDescriptorEPNS0_21QContactActionFactoryEED1Ev)
    QHash<QtMobility::QContactActionFactory*, QHashDummyValue>::deleteNode2(QHashData::Node*) 0x00009707   Thumb Code     6  qcontactactionservicemanager_p.o(t._ZN5QHashIPN10QtMobility21QContactActionFactoryE15QHashDummyValueE11deleteNode2EPN9QHashData4NodeE)
    QHash<QtMobility::QContactActionFactory*, QHashDummyValue>::detach_helper() 0x0000970d   Thumb Code    52  qcontactactionservicemanager_p.o(t._ZN5QHashIPN10QtMobility21QContactActionFactoryE15QHashDummyValueE13detach_helperEv)
    QHash<QtMobility::QContactActionFactory*, QHashDummyValue>::duplicateNode(QHashData::Node*, void*) 0x00009749   Thumb Code    40  qcontactactionservicemanager_p.o(t._ZN5QHashIPN10QtMobility21QContactActionFactoryE15QHashDummyValueE13duplicateNodeEPN9QHashData4NodeEPv)
    QHash<QtMobility::QContactActionFactory*, QHashDummyValue>::insert(QtMobility::QContactActionFactory*const &, const QHashDummyValue&) 0x00009771   Thumb Code   188  qcontactactionservicemanager_p.o(t._ZN5QHashIPN10QtMobility21QContactActionFactoryE15QHashDummyValueE6insertERKS2_RKS3_)
    QHash<QtMobility::QContactActionFactory*, QHashDummyValue>::freeData(QHashData*) 0x00009831   Thumb Code    16  qcontactactionservicemanager_p.o(t._ZN5QHashIPN10QtMobility21QContactActionFactoryE15QHashDummyValueE8freeDataEP9QHashData)
    QHash<QtMobility::QContactActionFactory*, QHashDummyValue>::~QHash() 0x00009845   Thumb Code    30  qcontactactionservicemanager_p.o(t._ZN5QHashIPN10QtMobility21QContactActionFactoryE15QHashDummyValueED1Ev)
    QHash<QtMobility::QContactActionFactory*, QHashDummyValue>::~QHash__sub_object() 0x00009845   Thumb Code     0  qcontactactionservicemanager_p.o(t._ZN5QHashIPN10QtMobility21QContactActionFactoryE15QHashDummyValueED1Ev)
    QList<QtMobility::QContactActionDescriptor>::detach_helper(int) 0x00009863   Thumb Code    94  qcontactactionservicemanager_p.o(t._ZN5QListIN10QtMobility24QContactActionDescriptorEE13detach_helperEi)
    QList<QtMobility::QContactActionDescriptor>::detach_helper() 0x000098c9   Thumb Code    16  qcontactactionservicemanager_p.o(t._ZN5QListIN10QtMobility24QContactActionDescriptorEE13detach_helperEv)
    QList<QtMobility::QContactActionDescriptor>::node_destruct(QList<QtMobility::QContactActionDescriptor>::Node*, QList<QtMobility::QContactActionDescriptor>::Node*) 0x000098d9   Thumb Code    26  qcontactactionservicemanager_p.o(t._ZN5QListIN10QtMobility24QContactActionDescriptorEE13node_destructEPNS2_4NodeES4_)
    QList<QtMobility::QContactActionDescriptor>::node_construct(QList<QtMobility::QContactActionDescriptor>::Node*, const QtMobility::QContactActionDescriptor&) 0x000098f3   Thumb Code    36  qcontactactionservicemanager_p.o(t._ZN5QListIN10QtMobility24QContactActionDescriptorEE14node_constructEPNS2_4NodeERKS1_)
    QList<QtMobility::QContactActionDescriptor>::detach_helper_grow(int, int) 0x00009925   Thumb Code   208  qcontactactionservicemanager_p.o(t._ZN5QListIN10QtMobility24QContactActionDescriptorEE18detach_helper_growEii)
    QList<QtMobility::QContactActionDescriptor>::free(QListData::Data*) 0x00009a05   Thumb Code    58  qcontactactionservicemanager_p.o(t._ZN5QListIN10QtMobility24QContactActionDescriptorEE4freeEPN9QListData4DataE)
    QList<QtMobility::QContactActionDescriptor>::append(const QtMobility::QContactActionDescriptor&) 0x00009a41   Thumb Code   114  qcontactactionservicemanager_p.o(t._ZN5QListIN10QtMobility24QContactActionDescriptorEE6appendERKS1_)
    QList<QtMobility::QContactActionDescriptor>::reserve(int) 0x00009ac7   Thumb Code    46  qcontactactionservicemanager_p.o(t._ZN5QListIN10QtMobility24QContactActionDescriptorEE7reserveEi)
    QList<QtMobility::QContactActionDescriptor>::node_copy(QList<QtMobility::QContactActionDescriptor>::Node*, QList<QtMobility::QContactActionDescriptor>::Node*, QList<QtMobility::QContactActionDescriptor>::Node*) 0x00009af5   Thumb Code    82  qcontactactionservicemanager_p.o(t._ZN5QListIN10QtMobility24QContactActionDescriptorEE9node_copyEPNS2_4NodeES4_S4_)
    QList<QtMobility::QContactActionDescriptor>::~QList() 0x00009b5d   Thumb Code    32  qcontactactionservicemanager_p.o(t._ZN5QListIN10QtMobility24QContactActionDescriptorEED1Ev)
    QList<QtMobility::QContactActionDescriptor>::~QList__sub_object() 0x00009b5d   Thumb Code     0  qcontactactionservicemanager_p.o(t._ZN5QListIN10QtMobility24QContactActionDescriptorEED1Ev)
    QList<QtMobility::QServiceInterfaceDescriptor>::detach_helper(int) 0x00009b7d   Thumb Code   200  qcontactactionservicemanager_p.o(t._ZN5QListIN10QtMobility27QServiceInterfaceDescriptorEE13detach_helperEi)
    QList<QtMobility::QServiceInterfaceDescriptor>::detach_helper() 0x00009c65   Thumb Code    16  qcontactactionservicemanager_p.o(t._ZN5QListIN10QtMobility27QServiceInterfaceDescriptorEE13detach_helperEv)
    QList<QtMobility::QServiceInterfaceDescriptor>::free(QListData::Data*) 0x00009c75   Thumb Code    82  qcontactactionservicemanager_p.o(t._ZN5QListIN10QtMobility27QServiceInterfaceDescriptorEE4freeEPN9QListData4DataE)
    QList<QtMobility::QServiceInterfaceDescriptor>::~QList() 0x00009cc7   Thumb Code    32  qcontactactionservicemanager_p.o(t._ZN5QListIN10QtMobility27QServiceInterfaceDescriptorEED1Ev)
    QList<QtMobility::QServiceInterfaceDescriptor>::~QList__sub_object() 0x00009cc7   Thumb Code     0  qcontactactionservicemanager_p.o(t._ZN5QListIN10QtMobility27QServiceInterfaceDescriptorEED1Ev)
    QPointer<QObject>::~QPointer()           0x00009ce7   Thumb Code    14  qcontactactionservicemanager_p.o(t._ZN8QPointerI7QObjectED1Ev)
    QPointer<QObject>::~QPointer__sub_object() 0x00009ce7   Thumb Code     0  qcontactactionservicemanager_p.o(t._ZN8QPointerI7QObjectED1Ev)
    QHashNode<QString, QtMobility::QContactActionDescriptor>::QHashNode(const QString&, const QtMobility::QContactActionDescriptor&) 0x00009cf5   Thumb Code    40  qcontactactionservicemanager_p.o(t._ZN9QHashNodeI7QStringN10QtMobility24QContactActionDescriptorEEC1ERKS0_RKS2_)
    QHashNode<QString, QtMobility::QContactActionDescriptor>::QHashNode__sub_object(const QString&, const QtMobility::QContactActionDescriptor&) 0x00009cf5   Thumb Code     0  qcontactactionservicemanager_p.o(t._ZN9QHashNodeI7QStringN10QtMobility24QContactActionDescriptorEEC1ERKS0_RKS2_)
    QHashNode<QtMobility::QContactActionDescriptor, QtMobility::QContactActionFactory*>::QHashNode(const QtMobility::QContactActionDescriptor&, QtMobility::QContactActionFactory*const &) 0x00009d29   Thumb Code    30  qcontactactionservicemanager_p.o(t._ZN9QHashNodeIN10QtMobility24QContactActionDescriptorEPNS0_21QContactActionFactoryEEC1ERKS1_RKS3_)
    QHashNode<QtMobility::QContactActionDescriptor, QtMobility::QContactActionFactory*>::QHashNode__sub_object(const QtMobility::QContactActionDescriptor&, QtMobility::QContactActionFactory*const &) 0x00009d29   Thumb Code     0  qcontactactionservicemanager_p.o(t._ZN9QHashNodeIN10QtMobility24QContactActionDescriptorEPNS0_21QContactActionFactoryEEC1ERKS1_RKS3_)
    QForeachContainer<QList<QtMobility::QContactActionDescriptor>>::condition() const 0x00009d47   Thumb Code    40  qcontactactionservicemanager_p.o(t._ZNK17QForeachContainerI5QListIN10QtMobility24QContactActionDescriptorEEE9conditionEv)
    QForeachContainer<QList<QtMobility::QServiceInterfaceDescriptor>>::condition() const 0x00009d6f   Thumb Code    40  qcontactactionservicemanager_p.o(t._ZNK17QForeachContainerI5QListIN10QtMobility27QServiceInterfaceDescriptorEEE9conditionEv)
    QHash<QString, QtMobility::QContactActionDescriptor>::findNode(const QString&, unsigned*) const 0x00009d97   Thumb Code   116  qcontactactionservicemanager_p.o(t._ZNK5QHashI7QStringN10QtMobility24QContactActionDescriptorEE8findNodeERKS0_Pj)
    QHash<QtMobility::QContactActionDescriptor, QtMobility::QContactActionFactory*>::keys() const 0x00009e0d   Thumb Code   148  qcontactactionservicemanager_p.o(t._ZNK5QHashIN10QtMobility24QContactActionDescriptorEPNS0_21QContactActionFactoryEE4keysEv)
    QHash<QtMobility::QContactActionDescriptor, QtMobility::QContactActionFactory*>::value(const QtMobility::QContactActionDescriptor&) const 0x00009eaf   Thumb Code    40  qcontactactionservicemanager_p.o(t._ZNK5QHashIN10QtMobility24QContactActionDescriptorEPNS0_21QContactActionFactoryEE5valueERKS1_)
    QHash<QtMobility::QContactActionDescriptor, QtMobility::QContactActionFactory*>::findNode(const QtMobility::QContactActionDescriptor&, unsigned*) const 0x00009ed7   Thumb Code   116  qcontactactionservicemanager_p.o(t._ZNK5QHashIN10QtMobility24QContactActionDescriptorEPNS0_21QContactActionFactoryEE8findNodeERKS1_Pj)
    QHash<QtMobility::QContactActionFactory*, QHashDummyValue>::findNode(QtMobility::QContactActionFactory*const &, unsigned*) const 0x00009f4b   Thumb Code   104  qcontactactionservicemanager_p.o(t._ZNK5QHashIPN10QtMobility21QContactActionFactoryE15QHashDummyValueE8findNodeERKS2_Pj)
    QtMobility::QContactActionServiceManager::staticMetaObject 0x0000a3bc   Data          16  qcontactactionservicemanager_p.o(.constdata)
    stlp_priv::_Integer_limits<signed char, (signed char)-128, (signed char)127, (int)-1, (bool)1>::digits 0x0000a4e8   Data           4  qcontactactionservicemanager_p.o(.constdata__ZN9stlp_priv15_Integer_limitsIaLan128ELa127ELin1ELb1EE6digitsE)
    stlp_priv::_Integer_limits<bool, (bool)0, (bool)1, (int)1, (bool)0>::digits 0x0000a4ec   Data           4  qcontactactionservicemanager_p.o(.constdata__ZN9stlp_priv15_Integer_limitsIbLb0ELb1ELi1ELb0EE6digitsE)
    stlp_priv::_Integer_limits<char, (char)128, (char)127, (int)-1, (bool)1>::digits 0x0000a4f0   Data           4  qcontactactionservicemanager_p.o(.constdata__ZN9stlp_priv15_Integer_limitsIcLc128ELc127ELin1ELb1EE6digitsE)
    stlp_priv::_Integer_limits<unsigned char, (unsigned char)0, (unsigned char)255, (int)-1, (bool)1>::digits 0x0000a4f4   Data           4  qcontactactionservicemanager_p.o(.constdata__ZN9stlp_priv15_Integer_limitsIhLh0ELh255ELin1ELb1EE6digitsE)
    stlp_priv::_Integer_limits<int, (int)-2147483648, (int)2147483647, (int)-1, (bool)1>::digits 0x0000a4f8   Data           4  qcontactactionservicemanager_p.o(.constdata__ZN9stlp_priv15_Integer_limitsIiLin2147483648ELi2147483647ELin1ELb1EE6digitsE)
    stlp_priv::_Integer_limits<int, (int)-2147483648, (int)2147483647, (int)-1, (bool)1>::is_signed 0x0000a4fc   Data           1  qcontactactionservicemanager_p.o(.constdata__ZN9stlp_priv15_Integer_limitsIiLin2147483648ELi2147483647ELin1ELb1EE9is_signedE)
    stlp_priv::_Integer_limits<unsigned, (unsigned)0, (unsigned)4294967295, (int)-1, (bool)1>::digits 0x0000a500   Data           4  qcontactactionservicemanager_p.o(.constdata__ZN9stlp_priv15_Integer_limitsIjLj0ELj4294967295ELin1ELb1EE6digitsE)
    stlp_priv::_Integer_limits<long, (long)-2147483648, (long)2147483647, (int)-1, (bool)1>::digits 0x0000a504   Data           4  qcontactactionservicemanager_p.o(.constdata__ZN9stlp_priv15_Integer_limitsIlLln2147483648ELl2147483647ELin1ELb1EE6digitsE)
    stlp_priv::_Integer_limits<unsigned long, (unsigned long)0, (unsigned long)4294967295, (int)-1, (bool)1>::digits 0x0000a508   Data           4  qcontactactionservicemanager_p.o(.constdata__ZN9stlp_priv15_Integer_limitsImLm0ELm4294967295ELin1ELb1EE6digitsE)
    stlp_priv::_Integer_limits<short, (short)-32768, (short)32767, (int)-1, (bool)1>::digits 0x0000a50c   Data           4  qcontactactionservicemanager_p.o(.constdata__ZN9stlp_priv15_Integer_limitsIsLsn32768ELs32767ELin1ELb1EE6digitsE)
    stlp_priv::_Integer_limits<unsigned short, (unsigned short)0, (unsigned short)65535, (int)-1, (bool)1>::digits 0x0000a510   Data           4  qcontactactionservicemanager_p.o(.constdata__ZN9stlp_priv15_Integer_limitsItLt0ELt65535ELin1ELb1EE6digitsE)
    stlp_priv::_Integer_limits<wchar_t, (wchar_t)0, (wchar_t)65535, (int)-1, (bool)1>::digits 0x0000a514   Data           4  qcontactactionservicemanager_p.o(.constdata__ZN9stlp_priv15_Integer_limitsIwLw0ELw65535ELin1ELb1EE6digitsE)
    stlp_priv::_Integer_limits<long long, (long long)-9223372036854775808, (long long)9223372036854775807, (int)-1, (bool)1>::digits 0x0000a518   Data           4  qcontactactionservicemanager_p.o(.constdata__ZN9stlp_priv15_Integer_limitsIxLxn9223372036854775808ELx9223372036854775807ELin1ELb1EE6digitsE)
    stlp_priv::_Integer_limits<unsigned long long, (unsigned long long)0, (unsigned long long)18446744073709551615, (int)-1, (bool)1>::digits 0x0000a51c   Data           4  qcontactactionservicemanager_p.o(.constdata__ZN9stlp_priv15_Integer_limitsIyLy0ELy18446744073709551615ELin1ELb1EE6digitsE)
    typeinfo for QtMobility::QContactActionManagerPlugin 0x0000a520   Data           8  qcontactactionservicemanager_p.o(.constdata__ZTIN10QtMobility27QContactActionManagerPluginE)
    typeinfo for QtMobility::QContactActionServiceManager 0x0000a528   Data          32  qcontactactionservicemanager_p.o(.constdata__ZTIN10QtMobility28QContactActionServiceManagerE)
    typeinfo name for QtMobility::QContactActionManagerPlugin 0x0000a548   Data          44  qcontactactionservicemanager_p.o(.constdata__ZTSN10QtMobility27QContactActionManagerPluginE)
    typeinfo name for QtMobility::QContactActionServiceManager 0x0000a574   Data          45  qcontactactionservicemanager_p.o(.constdata__ZTSN10QtMobility28QContactActionServiceManagerE)
    vtable for QtMobility::QContactActionManagerPlugin 0x0000a5a4   Data          16  qcontactactionservicemanager_p.o(.constdata__ZTVN10QtMobility27QContactActionManagerPluginE)
    vtable for QtMobility::QContactActionServiceManager 0x0000a5b4   Data          80  qcontactactionservicemanager_p.o(.constdata__ZTVN10QtMobility28QContactActionServiceManagerE)
    .ARM.exidx$$Base                         0x0000a604   Number         0  ucppinit.o(.ARM.exidx)
    .ARM.exidx$$Limit                        0x0000a8dc   Number         0  qcontactactionservicemanager_p.o(.ARM.exidx)
    Image$$ER_RO$$Limit                      0x0000a8dc   Number         0  anon$$obj.o(linker$$defined$$symbols)
    __dso_handle                             0x00400018   Data           4  ucppfini.o(.data)
    std::_Atomic_swap_struct<(int)1>::_S_swap_lock 0x0040001c   Data          12  qcontactactionservicemanager_p.o(.data__ZNSt19_Atomic_swap_structILi1EE12_S_swap_lockE)
    dtor_rec                                 0x00400028   Data        2048  ucppfini.o(.bss)

