ARM Linker, RVCT2.2 [Build 686]

================================================================================

Image Symbol Table

    Local Symbols

    Symbol Name                              Value     Ov Type        Size  Object(Section)

    ../../unhosted.s                         0x00000000   Number         0  switch8.o ABSOLUTE
    M:\\epoc32\\build\\euser\\c_e18a23aea4fd210f\\edll_lib\\armv5\\udeb\\uc_dll_.cpp 0x00000000   Number         0  uc_dll_.o ABSOLUTE
    M:\\sf\\os\\kernelhwsrv\\kernel\\eka\\compsupp\\rvct\\ucppinit.cpp 0x00000000   Number         0  ucppinit.o ABSOLUTE
    M:\epoc32\build\euser\c_e18a23aea4fd210f\edll_lib\armv5\udeb\uc_dll_.cpp 0x00000000   Number         0  uc_dll_.o ABSOLUTE
    M:\sf\os\kernelhwsrv\kernel\eka\compsupp\rvct\dllexp.cpp 0x00000000   Number         0  dllexp.o ABSOLUTE
    M:\sf\os\kernelhwsrv\kernel\eka\compsupp\rvct\ucppfini.cpp 0x00000000   Number         0  ucppfini.o ABSOLUTE
    M:\sf\os\kernelhwsrv\kernel\eka\compsupp\rvct\ucppinit.cpp 0x00000000   Number         0  ucppinit.o ABSOLUTE
    M:\sf\os\kernelhwsrv\kernel\eka\euser\epoc\arm\uc_dll.cpp 0x00000000   Number         0  uc_dll.o ABSOLUTE
    S:\sf\mw\qtmobility\src\feedback\qfeedbackactuator.cpp 0x00000000   Number         0  qfeedbackactuator.o ABSOLUTE
    S:\sf\mw\qtmobility\src\feedback\qfeedbackeffect.cpp 0x00000000   Number         0  qfeedbackeffect.o ABSOLUTE
    S:\sf\mw\qtmobility\src\feedback\qfeedbackplugin.cpp 0x00000000   Number         0  qfeedbackplugin.o ABSOLUTE
    .emb_text                                0x00008000   Section       40  uc_dll_.o(.emb_text)
    Symbian$$eit_base                        0x00008014   Data           4  uc_dll_.o(.emb_text)
    Symbian$$eit_limit                       0x00008018   Data           4  uc_dll_.o(.emb_text)
    Symbian$$code_seg_base                   0x0000801c   Data           4  uc_dll_.o(.emb_text)
    Symbian$$code_seg_limit                  0x00008020   Data           4  uc_dll_.o(.emb_text)
    Symbian$$reserved                        0x00008024   Data           4  uc_dll_.o(.emb_text)
    .emb_text                                0x00008028   Section       52  ucppinit.o(.emb_text)
    loop                                     0x0000803c   ARM Code       0  ucppinit.o(.emb_text)
    ret                                      0x00008044   ARM Code       0  ucppinit.o(.emb_text)
    base                                     0x00008054   Data           0  ucppinit.o(.emb_text)
    limit                                    0x00008058   Data           0  ucppinit.o(.emb_text)
    .text                                    0x000082ec   Section      888  qfeedbackactuator.o(.text)
    .text                                    0x00008664   Section     2638  qfeedbackeffect.o(.text)
    .text                                    0x000090b4   Section      420  qfeedbackplugin.o(.text)
    QtMobility::qSymbian_CheckDir(const QDir&, RFs&) 0x000090c9   Thumb Code    86  qfeedbackplugin.o(.text)
    QtMobility::backendManager()             0x0000911f   Thumb Code   166  qfeedbackplugin.o(.text)
    .text                                    0x00009258   Section       24  switch8.o(.text)
    .text                                    0x00009270   Section       80  uc_dll.o(.text)
    .text                                    0x000092c0   Section      180  ucppfini.o(.text)
    .text                                    0x00009374   Section        4  dllexp.o(.text)
    .text.clean                              0x00009378   Section       66  qfeedbackactuator.o(.text.clean)
    .text.clean                              0x000093ba   Section      124  qfeedbackeffect.o(.text.clean)
    .text.clean                              0x00009438   Section       60  qfeedbackplugin.o(.text.clean)
    i._Z8qWarningv                           0x00009474   Section      128  qfeedbackeffect.o(i._Z8qWarningv)
    i._Z8qWarningv.clean                     0x000094f4   Section       24  qfeedbackeffect.o(i._Z8qWarningv.clean)
    i._ZN10QByteArrayD1Ev                    0x0000950c   Section       24  qfeedbackeffect.o(i._ZN10QByteArrayD1Ev)
    i._ZN10QtMobility11FileBackend10getBackendEPKNS_19QFeedbackFileEffectE 0x00009524   Section       62  qfeedbackplugin.o(i._ZN10QtMobility11FileBackend10getBackendEPKNS_19QFeedbackFileEffectE)
    i._ZN10QtMobility11FileBackend11effectStateEPKNS_19QFeedbackFileEffectE 0x00009562   Section       36  qfeedbackplugin.o(i._ZN10QtMobility11FileBackend11effectStateEPKNS_19QFeedbackFileEffectE)
    i._ZN10QtMobility11FileBackend14effectDurationEPKNS_19QFeedbackFileEffectE 0x00009586   Section       36  qfeedbackplugin.o(i._ZN10QtMobility11FileBackend14effectDurationEPKNS_19QFeedbackFileEffectE)
    i._ZN10QtMobility11FileBackend14setEffectStateEPNS_19QFeedbackFileEffectENS_15QFeedbackEffect5StateE 0x000095aa   Section       46  qfeedbackplugin.o(i._ZN10QtMobility11FileBackend14setEffectStateEPNS_19QFeedbackFileEffectENS_15QFeedbackEffect5StateE)
    i._ZN10QtMobility11FileBackend14tryBackendLoadEPNS_19QFeedbackFileEffectE 0x000095d8   Section      364  qfeedbackplugin.o(i._ZN10QtMobility11FileBackend14tryBackendLoadEPNS_19QFeedbackFileEffectE)
    i._ZN10QtMobility11FileBackend18supportedMimeTypesEv 0x00009744   Section       66  qfeedbackplugin.o(i._ZN10QtMobility11FileBackend18supportedMimeTypesEv)
    i._ZN10QtMobility11FileBackend18supportedMimeTypesEv.clean 0x00009786   Section       16  qfeedbackplugin.o(i._ZN10QtMobility11FileBackend18supportedMimeTypesEv.clean)
    i._ZN10QtMobility11FileBackend9setLoadedEPNS_19QFeedbackFileEffectEb 0x00009796   Section       70  qfeedbackplugin.o(i._ZN10QtMobility11FileBackend9setLoadedEPNS_19QFeedbackFileEffectEb)
    i._ZN10QtMobility11FileBackendD0Ev       0x000097dc   Section       22  qfeedbackplugin.o(i._ZN10QtMobility11FileBackendD0Ev)
    i._ZN10QtMobility11FileBackendD1Ev       0x000097f4   Section       24  qfeedbackplugin.o(i._ZN10QtMobility11FileBackendD1Ev)
    i._ZN10QtMobility11FileBackendD1Ev.clean 0x0000980c   Section       10  qfeedbackplugin.o(i._ZN10QtMobility11FileBackendD1Ev.clean)
    i._ZN10QtMobility13QDummyBackend11effectStateEPKNS_22QFeedbackHapticsEffectE 0x00009816   Section        6  qfeedbackplugin.o(i._ZN10QtMobility13QDummyBackend11effectStateEPKNS_22QFeedbackHapticsEffectE)
    i._ZN10QtMobility13QDummyBackend14pluginPriorityEv 0x0000981c   Section        6  qfeedbackplugin.o(i._ZN10QtMobility13QDummyBackend14pluginPriorityEv)
    i._ZN10QtMobility13QDummyBackend14setEffectStateEPKNS_22QFeedbackHapticsEffectENS_15QFeedbackEffect5StateE 0x00009822   Section        2  qfeedbackplugin.o(i._ZN10QtMobility13QDummyBackend14setEffectStateEPKNS_22QFeedbackHapticsEffectENS_15QFeedbackEffect5StateE)
    i._ZN10QtMobility13QDummyBackend16actuatorPropertyERKNS_17QFeedbackActuatorENS_25QFeedbackHapticsInterface16ActuatorPropertyE 0x00009824   Section       54  qfeedbackplugin.o(i._ZN10QtMobility13QDummyBackend16actuatorPropertyERKNS_17QFeedbackActuatorENS_25QFeedbackHapticsInterface16ActuatorPropertyE)
    i._ZN10QtMobility13QDummyBackend19setActuatorPropertyERKNS_17QFeedbackActuatorENS_25QFeedbackHapticsInterface16ActuatorPropertyERK8QVariant 0x0000985a   Section        2  qfeedbackplugin.o(i._ZN10QtMobility13QDummyBackend19setActuatorPropertyERKNS_17QFeedbackActuatorENS_25QFeedbackHapticsInterface16ActuatorPropertyERK8QVariant)
    i._ZN10QtMobility13QDummyBackend20updateEffectPropertyEPKNS_22QFeedbackHapticsEffectENS_25QFeedbackHapticsInterface14EffectPropertyE 0x0000985c   Section        2  qfeedbackplugin.o(i._ZN10QtMobility13QDummyBackend20updateEffectPropertyEPKNS_22QFeedbackHapticsEffectENS_25QFeedbackHapticsInterface14EffectPropertyE)
    i._ZN10QtMobility13QDummyBackend29isActuatorCapabilitySupportedERKNS_17QFeedbackActuatorENS1_10CapabilityE 0x0000985e   Section        6  qfeedbackplugin.o(i._ZN10QtMobility13QDummyBackend29isActuatorCapabilitySupportedERKNS_17QFeedbackActuatorENS1_10CapabilityE)
    i._ZN10QtMobility13QDummyBackend9actuatorsEv 0x00009864   Section       28  qfeedbackplugin.o(i._ZN10QtMobility13QDummyBackend9actuatorsEv)
    i._ZN10QtMobility13QDummyBackendD0Ev     0x00009880   Section       22  qfeedbackplugin.o(i._ZN10QtMobility13QDummyBackendD0Ev)
    i._ZN10QtMobility13QDummyBackendD1Ev     0x00009896   Section       22  qfeedbackplugin.o(i._ZN10QtMobility13QDummyBackendD1Ev)
    i._ZN10QtMobility13QDummyBackendD1Ev.clean 0x000098ac   Section        4  qfeedbackplugin.o(i._ZN10QtMobility13QDummyBackendD1Ev.clean)
    i._ZN10QtMobility14BackendManagerC1Ev    0x000098b0   Section      640  qfeedbackplugin.o(i._ZN10QtMobility14BackendManagerC1Ev)
    i._ZN10QtMobility14BackendManagerC1Ev.clean 0x00009b30   Section       96  qfeedbackplugin.o(i._ZN10QtMobility14BackendManagerC1Ev.clean)
    i._ZN10QtMobility14BackendManagerD1Ev    0x00009b90   Section       38  qfeedbackplugin.o(i._ZN10QtMobility14BackendManagerD1Ev)
    i._ZN10QtMobility14BackendManagerD1Ev.clean 0x00009bb6   Section       22  qfeedbackplugin.o(i._ZN10QtMobility14BackendManagerD1Ev.clean)
    i._ZN10QtMobility15QFeedbackEffectD0Ev   0x00009bcc   Section       22  qfeedbackeffect.o(i._ZN10QtMobility15QFeedbackEffectD0Ev)
    i._ZN10QtMobility15QFeedbackEffectD2Ev   0x00009be2   Section       14  qfeedbackeffect.o(i._ZN10QtMobility15QFeedbackEffectD2Ev)
    i._ZN10QtMobility15mobilityPluginsERK7QString 0x00009bf0   Section      748  qfeedbackplugin.o(i._ZN10QtMobility15mobilityPluginsERK7QString)
    i._ZN10QtMobility15mobilityPluginsERK7QString.clean 0x00009edc   Section      124  qfeedbackplugin.o(i._ZN10QtMobility15mobilityPluginsERK7QString.clean)
    i._ZN10QtMobility17QFeedbackActuatorD0Ev 0x00009f58   Section       24  qfeedbackactuator.o(i._ZN10QtMobility17QFeedbackActuatorD0Ev)
    i._ZN10QtMobility17QFeedbackActuatorD1Ev 0x00009f70   Section       14  qfeedbackactuator.o(i._ZN10QtMobility17QFeedbackActuatorD1Ev)
    i._ZN10QtMobility22QFeedbackFileInterfaceD0Ev 0x00009f7e   Section       18  qfeedbackplugin.o(i._ZN10QtMobility22QFeedbackFileInterfaceD0Ev)
    i._ZN10QtMobility22QFeedbackFileInterfaceD2Ev 0x00009f90   Section        2  qfeedbackplugin.o(i._ZN10QtMobility22QFeedbackFileInterfaceD2Ev)
    i._ZN10QtMobility25QFeedbackHapticsInterfaceD0Ev 0x00009f92   Section       18  qfeedbackplugin.o(i._ZN10QtMobility25QFeedbackHapticsInterfaceD0Ev)
    i._ZN10QtMobility25QFeedbackHapticsInterfaceD2Ev 0x00009fa4   Section        2  qfeedbackplugin.o(i._ZN10QtMobility25QFeedbackHapticsInterfaceD2Ev)
    i._ZN11QStringListC1Ev                   0x00009fa8   Section       24  qfeedbackplugin.o(i._ZN11QStringListC1Ev)
    i._ZN11QStringListD1Ev                   0x00009fc0   Section       14  qfeedbackplugin.o(i._ZN11QStringListD1Ev)
    i._ZN15QBasicAtomicInt3refEv             0x00009fce   Section       24  qfeedbackplugin.o(i._ZN15QBasicAtomicInt3refEv)
    i._ZN15QBasicAtomicInt5derefEv           0x00009fe6   Section       24  qfeedbackactuator.o(i._ZN15QBasicAtomicInt5derefEv)
    i._ZN17QForeachContainerI11QStringListED1Ev 0x00009ffe   Section       14  qfeedbackplugin.o(i._ZN17QForeachContainerI11QStringListED1Ev)
    i._ZN4QSetI7QStringED1Ev                 0x0000a00c   Section       14  qfeedbackplugin.o(i._ZN4QSetI7QStringED1Ev)
    i._ZN6QDebugD1Ev                         0x0000a01a   Section      154  qfeedbackeffect.o(i._ZN6QDebugD1Ev)
    i._ZN6QDebugD1Ev.clean                   0x0000a0b4   Section       20  qfeedbackeffect.o(i._ZN6QDebugD1Ev.clean)
    i._ZN7QStringC1ERK13QLatin1String        0x0000a0c8   Section       26  qfeedbackplugin.o(i._ZN7QStringC1ERK13QLatin1String)
    i._ZN7QStringC1ERKS_                     0x0000a0e2   Section       22  qfeedbackplugin.o(i._ZN7QStringC1ERKS_)
    i._ZN7QStringD1Ev                        0x0000a0f8   Section       24  qfeedbackactuator.o(i._ZN7QStringD1Ev)
    i._ZNK15QBasicAtomicIntneEi              0x0000a110   Section       16  qfeedbackeffect.o(i._ZNK15QBasicAtomicIntneEi)
    i._ZNK9QListData2atEi                    0x0000a120   Section       20  qfeedbackplugin.o(i._ZNK9QListData2atEi)
    i._ZNK9QListData3endEv                   0x0000a134   Section       16  qfeedbackplugin.o(i._ZNK9QListData3endEv)
    i._ZNK9QListData5beginEv                 0x0000a144   Section       16  qfeedbackactuator.o(i._ZNK9QListData5beginEv)
    i._ZThn8_N10QtMobility13QDummyBackend11effectStateEPKNS_22QFeedbackHapticsEffectE 0x0000a154   Section        8  qfeedbackplugin.o(i._ZThn8_N10QtMobility13QDummyBackend11effectStateEPKNS_22QFeedbackHapticsEffectE)
    i._ZThn8_N10QtMobility13QDummyBackend14pluginPriorityEv 0x0000a15c   Section        8  qfeedbackplugin.o(i._ZThn8_N10QtMobility13QDummyBackend14pluginPriorityEv)
    i._ZThn8_N10QtMobility13QDummyBackend14setEffectStateEPKNS_22QFeedbackHapticsEffectENS_15QFeedbackEffect5StateE 0x0000a164   Section        4  qfeedbackplugin.o(i._ZThn8_N10QtMobility13QDummyBackend14setEffectStateEPKNS_22QFeedbackHapticsEffectENS_15QFeedbackEffect5StateE)
    i._ZThn8_N10QtMobility13QDummyBackend16actuatorPropertyERKNS_17QFeedbackActuatorENS_25QFeedbackHapticsInterface16ActuatorPropertyE 0x0000a168   Section       26  qfeedbackplugin.o(i._ZThn8_N10QtMobility13QDummyBackend16actuatorPropertyERKNS_17QFeedbackActuatorENS_25QFeedbackHapticsInterface16ActuatorPropertyE)
    i._ZThn8_N10QtMobility13QDummyBackend19setActuatorPropertyERKNS_17QFeedbackActuatorENS_25QFeedbackHapticsInterface16ActuatorPropertyERK8QVariant 0x0000a182   Section        6  qfeedbackplugin.o(i._ZThn8_N10QtMobility13QDummyBackend19setActuatorPropertyERKNS_17QFeedbackActuatorENS_25QFeedbackHapticsInterface16ActuatorPropertyERK8QVariant)
    i._ZThn8_N10QtMobility13QDummyBackend20updateEffectPropertyEPKNS_22QFeedbackHapticsEffectENS_25QFeedbackHapticsInterface14EffectPropertyE 0x0000a188   Section        4  qfeedbackplugin.o(i._ZThn8_N10QtMobility13QDummyBackend20updateEffectPropertyEPKNS_22QFeedbackHapticsEffectENS_25QFeedbackHapticsInterface14EffectPropertyE)
    i._ZThn8_N10QtMobility13QDummyBackend29isActuatorCapabilitySupportedERKNS_17QFeedbackActuatorENS1_10CapabilityE 0x0000a18c   Section        8  qfeedbackplugin.o(i._ZThn8_N10QtMobility13QDummyBackend29isActuatorCapabilitySupportedERKNS_17QFeedbackActuatorENS1_10CapabilityE)
    i._ZThn8_N10QtMobility13QDummyBackend9actuatorsEv 0x0000a194   Section       18  qfeedbackplugin.o(i._ZThn8_N10QtMobility13QDummyBackend9actuatorsEv)
    i._ZThn8_N10QtMobility13QDummyBackendD0Ev 0x0000a1a6   Section       14  qfeedbackplugin.o(i._ZThn8_N10QtMobility13QDummyBackendD0Ev)
    i._ZThn8_N10QtMobility13QDummyBackendD1Ev 0x0000a1b4   Section       14  qfeedbackplugin.o(i._ZThn8_N10QtMobility13QDummyBackendD1Ev)
    i._ZdlPvS_                               0x0000a1c2   Section        2  qfeedbackplugin.o(i._ZdlPvS_)
    i._ZnwjPv                                0x0000a1c4   Section        6  qfeedbackplugin.o(i._ZnwjPv)
    t._ZN10QtMobility13BackendLoaderINS_23QFeedbackThemeInterfaceEE7tryLoadER13QPluginLoader 0x0000a1cc   Section      152  qfeedbackplugin.o(t._ZN10QtMobility13BackendLoaderINS_23QFeedbackThemeInterfaceEE7tryLoadER13QPluginLoader)
    t._ZN10QtMobility13BackendLoaderINS_23QFeedbackThemeInterfaceEE7tryLoadER13QPluginLoader.clean 0x0000a264   Section       10  qfeedbackplugin.o(t._ZN10QtMobility13BackendLoaderINS_23QFeedbackThemeInterfaceEE7tryLoadER13QPluginLoader.clean)
    t._ZN10QtMobility13BackendLoaderINS_23QFeedbackThemeInterfaceEED1Ev 0x0000a26e   Section       20  qfeedbackplugin.o(t._ZN10QtMobility13BackendLoaderINS_23QFeedbackThemeInterfaceEED1Ev)
    t._ZN10QtMobility13BackendLoaderINS_23QFeedbackThemeInterfaceEED1Ev.clean 0x0000a282   Section       10  qfeedbackplugin.o(t._ZN10QtMobility13BackendLoaderINS_23QFeedbackThemeInterfaceEED1Ev.clean)
    t._ZN10QtMobility13BackendLoaderINS_25QFeedbackHapticsInterfaceEE7tryLoadER13QPluginLoader 0x0000a28c   Section      152  qfeedbackplugin.o(t._ZN10QtMobility13BackendLoaderINS_25QFeedbackHapticsInterfaceEE7tryLoadER13QPluginLoader)
    t._ZN10QtMobility13BackendLoaderINS_25QFeedbackHapticsInterfaceEE7tryLoadER13QPluginLoader.clean 0x0000a324   Section       10  qfeedbackplugin.o(t._ZN10QtMobility13BackendLoaderINS_25QFeedbackHapticsInterfaceEE7tryLoadER13QPluginLoader.clean)
    t._ZN10QtMobility13BackendLoaderINS_25QFeedbackHapticsInterfaceEED1Ev 0x0000a32e   Section       20  qfeedbackplugin.o(t._ZN10QtMobility13BackendLoaderINS_25QFeedbackHapticsInterfaceEED1Ev)
    t._ZN10QtMobility13BackendLoaderINS_25QFeedbackHapticsInterfaceEED1Ev.clean 0x0000a342   Section       10  qfeedbackplugin.o(t._ZN10QtMobility13BackendLoaderINS_25QFeedbackHapticsInterfaceEED1Ev.clean)
    t._ZN14QHashDummyNodeI7QString15QHashDummyValueEC1ERKS0_ 0x0000a34c   Section       24  qfeedbackplugin.o(t._ZN14QHashDummyNodeI7QString15QHashDummyValueEC1ERKS0_)
    t._ZN14QScopedPointerIN10QtMobility26QFeedbackFileEffectPrivateE21QScopedPointerDeleterIS1_EED1Ev 0x0000a364   Section       36  qfeedbackeffect.o(t._ZN14QScopedPointerIN10QtMobility26QFeedbackFileEffectPrivateE21QScopedPointerDeleterIS1_EED1Ev)
    t._ZN14QScopedPointerIN10QtMobility29QFeedbackHapticsEffectPrivateE21QScopedPointerDeleterIS1_EED1Ev 0x0000a388   Section       22  qfeedbackeffect.o(t._ZN14QScopedPointerIN10QtMobility29QFeedbackHapticsEffectPrivateE21QScopedPointerDeleterIS1_EED1Ev)
    t._ZN20QGlobalStaticDeleterIN10QtMobility14BackendManagerEED1Ev 0x0000a39e   Section       42  qfeedbackplugin.o(t._ZN20QGlobalStaticDeleterIN10QtMobility14BackendManagerEED1Ev)
    t._ZN4QSetI7QStringE6insertERKS0_        0x0000a3c8   Section       46  qfeedbackplugin.o(t._ZN4QSetI7QStringE6insertERKS0_)
    t._ZN5QHashI7QString15QHashDummyValueE11deleteNode2EPN9QHashData4NodeE 0x0000a3f6   Section       24  qfeedbackplugin.o(t._ZN5QHashI7QString15QHashDummyValueE11deleteNode2EPN9QHashData4NodeE)
    t._ZN5QHashI7QString15QHashDummyValueE13detach_helperEv 0x0000a410   Section       60  qfeedbackplugin.o(t._ZN5QHashI7QString15QHashDummyValueE13detach_helperEv)
    t._ZN5QHashI7QString15QHashDummyValueE13duplicateNodeEPN9QHashData4NodeEPv 0x0000a44c   Section       44  qfeedbackplugin.o(t._ZN5QHashI7QString15QHashDummyValueE13duplicateNodeEPN9QHashData4NodeEPv)
    t._ZN5QHashI7QString15QHashDummyValueE13duplicateNodeEPN9QHashData4NodeEPv.clean 0x0000a478   Section       12  qfeedbackplugin.o(t._ZN5QHashI7QString15QHashDummyValueE13duplicateNodeEPN9QHashData4NodeEPv.clean)
    t._ZN5QHashI7QString15QHashDummyValueE6insertERKS0_RKS1_ 0x0000a484   Section      208  qfeedbackplugin.o(t._ZN5QHashI7QString15QHashDummyValueE6insertERKS0_RKS1_)
    t._ZN5QHashI7QString15QHashDummyValueE6insertERKS0_RKS1_.clean 0x0000a554   Section       12  qfeedbackplugin.o(t._ZN5QHashI7QString15QHashDummyValueE6insertERKS0_RKS1_.clean)
    t._ZN5QHashI7QString15QHashDummyValueE8freeDataEP9QHashData 0x0000a560   Section       20  qfeedbackplugin.o(t._ZN5QHashI7QString15QHashDummyValueE8freeDataEP9QHashData)
    t._ZN5QHashI7QString15QHashDummyValueED1Ev 0x0000a574   Section       30  qfeedbackplugin.o(t._ZN5QHashI7QString15QHashDummyValueED1Ev)
    t._ZN5QListI7QStringE13detach_helperEi   0x0000a592   Section       94  qfeedbackplugin.o(t._ZN5QListI7QStringE13detach_helperEi)
    t._ZN5QListI7QStringE13detach_helperEi.clean 0x0000a5f0   Section        8  qfeedbackplugin.o(t._ZN5QListI7QStringE13detach_helperEi.clean)
    t._ZN5QListI7QStringE13detach_helperEv   0x0000a5f8   Section       16  qfeedbackplugin.o(t._ZN5QListI7QStringE13detach_helperEv)
    t._ZN5QListI7QStringE13node_destructEPNS1_4NodeES3_ 0x0000a608   Section       26  qfeedbackplugin.o(t._ZN5QListI7QStringE13node_destructEPNS1_4NodeES3_)
    t._ZN5QListI7QStringE14node_constructEPNS1_4NodeERKS0_ 0x0000a622   Section       36  qfeedbackplugin.o(t._ZN5QListI7QStringE14node_constructEPNS1_4NodeERKS0_)
    t._ZN5QListI7QStringE14node_constructEPNS1_4NodeERKS0_.clean 0x0000a646   Section       14  qfeedbackplugin.o(t._ZN5QListI7QStringE14node_constructEPNS1_4NodeERKS0_.clean)
    t._ZN5QListI7QStringE18detach_helper_growEii 0x0000a654   Section      208  qfeedbackplugin.o(t._ZN5QListI7QStringE18detach_helper_growEii)
    t._ZN5QListI7QStringE18detach_helper_growEii.clean 0x0000a724   Section       16  qfeedbackplugin.o(t._ZN5QListI7QStringE18detach_helper_growEii.clean)
    t._ZN5QListI7QStringE4freeEPN9QListData4DataE 0x0000a734   Section       58  qfeedbackplugin.o(t._ZN5QListI7QStringE4freeEPN9QListData4DataE)
    t._ZN5QListI7QStringE6appendERKS0_       0x0000a770   Section      120  qfeedbackplugin.o(t._ZN5QListI7QStringE6appendERKS0_)
    t._ZN5QListI7QStringE6appendERKS0_.clean 0x0000a7e8   Section       14  qfeedbackplugin.o(t._ZN5QListI7QStringE6appendERKS0_.clean)
    t._ZN5QListI7QStringE9node_copyEPNS1_4NodeES3_S3_ 0x0000a7f6   Section       82  qfeedbackplugin.o(t._ZN5QListI7QStringE9node_copyEPNS1_4NodeES3_S3_)
    t._ZN5QListI7QStringE9node_copyEPNS1_4NodeES3_S3_.clean 0x0000a848   Section       22  qfeedbackplugin.o(t._ZN5QListI7QStringE9node_copyEPNS1_4NodeES3_S3_.clean)
    t._ZN5QListI7QStringED1Ev                0x0000a85e   Section       32  qfeedbackplugin.o(t._ZN5QListI7QStringED1Ev)
    t._ZN5QListI7QStringEpLERKS1_            0x0000a880   Section      208  qfeedbackplugin.o(t._ZN5QListI7QStringEpLERKS1_)
    t._ZN5QListI7QStringEpLERKS1_.clean      0x0000a950   Section        8  qfeedbackplugin.o(t._ZN5QListI7QStringEpLERKS1_.clean)
    t._ZN5QListIPN10QtMobility17QFeedbackActuatorEE13detach_helperEi 0x0000a958   Section      134  qfeedbackactuator.o(t._ZN5QListIPN10QtMobility17QFeedbackActuatorEE13detach_helperEi)
    t._ZN5QListIPN10QtMobility17QFeedbackActuatorEE13detach_helperEi.clean 0x0000a9de   Section        8  qfeedbackactuator.o(t._ZN5QListIPN10QtMobility17QFeedbackActuatorEE13detach_helperEi.clean)
    t._ZN5QListIPN10QtMobility17QFeedbackActuatorEE13detach_helperEv 0x0000a9e6   Section       16  qfeedbackactuator.o(t._ZN5QListIPN10QtMobility17QFeedbackActuatorEE13detach_helperEv)
    t._ZN5QListIPN10QtMobility17QFeedbackActuatorEE4freeEPN9QListData4DataE 0x0000a9f6   Section       58  qfeedbackactuator.o(t._ZN5QListIPN10QtMobility17QFeedbackActuatorEE4freeEPN9QListData4DataE)
    t._ZN5QListIPN10QtMobility17QFeedbackActuatorEED1Ev 0x0000aa30   Section       32  qfeedbackactuator.o(t._ZN5QListIPN10QtMobility17QFeedbackActuatorEED1Ev)
    t._ZN5QListIPN10QtMobility22QFeedbackFileInterfaceEE18detach_helper_growEii 0x0000aa50   Section      204  qfeedbackplugin.o(t._ZN5QListIPN10QtMobility22QFeedbackFileInterfaceEE18detach_helper_growEii)
    t._ZN5QListIPN10QtMobility22QFeedbackFileInterfaceEE18detach_helper_growEii.clean 0x0000ab1c   Section       16  qfeedbackplugin.o(t._ZN5QListIPN10QtMobility22QFeedbackFileInterfaceEE18detach_helper_growEii.clean)
    t._ZN5QListIPN10QtMobility22QFeedbackFileInterfaceEE4freeEPN9QListData4DataE 0x0000ab2c   Section       58  qfeedbackplugin.o(t._ZN5QListIPN10QtMobility22QFeedbackFileInterfaceEE4freeEPN9QListData4DataE)
    t._ZN5QListIPN10QtMobility22QFeedbackFileInterfaceEE6appendERKS2_ 0x0000ab68   Section      100  qfeedbackplugin.o(t._ZN5QListIPN10QtMobility22QFeedbackFileInterfaceEE6appendERKS2_)
    t._ZN5QListIPN10QtMobility22QFeedbackFileInterfaceEE6appendERKS2_.clean 0x0000abcc   Section       10  qfeedbackplugin.o(t._ZN5QListIPN10QtMobility22QFeedbackFileInterfaceEE6appendERKS2_.clean)
    t._ZN5QListIPN10QtMobility22QFeedbackFileInterfaceEE9node_copyEPNS3_4NodeES5_S5_ 0x0000abd6   Section       46  qfeedbackplugin.o(t._ZN5QListIPN10QtMobility22QFeedbackFileInterfaceEE9node_copyEPNS3_4NodeES5_S5_)
    t._ZN5QListIPN10QtMobility22QFeedbackFileInterfaceEED1Ev 0x0000ac04   Section       32  qfeedbackplugin.o(t._ZN5QListIPN10QtMobility22QFeedbackFileInterfaceEED1Ev)
    t._ZNK4QSetI7QStringE8containsERKS0_     0x0000ac24   Section       34  qfeedbackplugin.o(t._ZNK4QSetI7QStringE8containsERKS0_)
    t._ZNK5QHashI7QString15QHashDummyValueE8findNodeERKS0_Pj 0x0000ac46   Section      116  qfeedbackplugin.o(t._ZNK5QHashI7QString15QHashDummyValueE8findNodeERKS0_Pj)
    t._ZNK5QListI7QStringE2atEi              0x0000acba   Section       22  qfeedbackplugin.o(t._ZNK5QListI7QStringE2atEi)
    t._ZNK5QListI7QStringE7isEmptyEv         0x0000acd0   Section       24  qfeedbackplugin.o(t._ZNK5QListI7QStringE7isEmptyEv)
    t._ZNK5QListIPN10QtMobility22QFeedbackFileInterfaceEE2atEi 0x0000ace8   Section       22  qfeedbackplugin.o(t._ZNK5QListIPN10QtMobility22QFeedbackFileInterfaceEE2atEi)
    t._ZNK5QListIPN10QtMobility22QFeedbackFileInterfaceEE5countEv 0x0000acfe   Section       16  qfeedbackplugin.o(t._ZNK5QListIPN10QtMobility22QFeedbackFileInterfaceEE5countEv)
    .extab._ZNK10QtMobility17QFeedbackActuator9isEnabledEv 0x0000ad10   Data           0  qfeedbackactuator.o(.ARM.extab)
    .extab._ZN10QtMobility17QFeedbackActuator10setEnabledEb 0x0000ad20   Data           0  qfeedbackactuator.o(.ARM.extab)
    .extab._ZNK10QtMobility17QFeedbackActuator5stateEv 0x0000ad30   Data           0  qfeedbackactuator.o(.ARM.extab)
    .extab._ZNK10QtMobility17QFeedbackActuator4nameEv 0x0000ad40   Data           0  qfeedbackactuator.o(.ARM.extab)
    .extab._ZN10QtMobility17QFeedbackActuator11qt_metacallEN11QMetaObject4CallEiPPv 0x0000ad50   Data           0  qfeedbackactuator.o(.ARM.extab)
    .extab._ZN10QtMobility17QFeedbackActuatorC1EP7QObject 0x0000ad60   Data           0  qfeedbackactuator.o(.ARM.extab)
    .extab._ZN5QListIPN10QtMobility17QFeedbackActuatorEE13detach_helperEi 0x0000ad80   Data           0  qfeedbackactuator.o(.ARM.extab)
    .extab._ZN10QtMobility22QFeedbackHapticsEffect11setActuatorEPNS_17QFeedbackActuatorE 0x0000ad9c   Data           0  qfeedbackeffect.o(.ARM.extab)
    .extab._ZN10QtMobility22QFeedbackHapticsEffectC1EP7QObject 0x0000adb4   Data           0  qfeedbackeffect.o(.ARM.extab)
    .extab._ZN10QtMobility22QFeedbackHapticsEffectD1Ev 0x0000adc4   Data           0  qfeedbackeffect.o(.ARM.extab)
    .extab._ZN10QtMobility19QFeedbackFileEffect9setLoadedEb 0x0000addc   Data           0  qfeedbackeffect.o(.ARM.extab)
    .extab._ZN10QtMobility19QFeedbackFileEffect11qt_metacallEN11QMetaObject4CallEiPPv 0x0000adf4   Data           0  qfeedbackeffect.o(.ARM.extab)
    .extab._ZN10QtMobility19QFeedbackFileEffectC1EP7QObject 0x0000ae04   Data           0  qfeedbackeffect.o(.ARM.extab)
    .extab._ZN10QtMobility19QFeedbackFileEffectD1Ev 0x0000ae1c   Data           0  qfeedbackeffect.o(.ARM.extab)
    .extab._Z8qWarningv                      0x0000ae34   Data           0  qfeedbackeffect.o(.ARM.extab)
    .extab._ZN6QDebugD1Ev                    0x0000ae4c   Data           0  qfeedbackeffect.o(.ARM.extab)
    .extab._ZN10QtMobility17qSymbian_CheckDirERK4QDirR3RFs 0x0000ae70   Data           0  qfeedbackplugin.o(.ARM.extab)
    .extab._ZN10QtMobility14backendManagerEv 0x0000ae88   Data           0  qfeedbackplugin.o(.ARM.extab)
    .extab._ZN10QtMobility25QFeedbackHapticsInterface22createFeedbackActuatorEP7QObjecti 0x0000aea0   Data           0  qfeedbackplugin.o(.ARM.extab)
    .extab._ZN5QListI7QStringE9node_copyEPNS1_4NodeES3_S3_ 0x0000aeb0   Data           0  qfeedbackplugin.o(.ARM.extab)
    .extab._ZN5QListI7QStringE13detach_helperEi 0x0000aed4   Data           0  qfeedbackplugin.o(.ARM.extab)
    .extab._ZN5QListI7QStringE14node_constructEPNS1_4NodeERKS0_ 0x0000aef0   Data           0  qfeedbackplugin.o(.ARM.extab)
    .extab._ZN5QListI7QStringE18detach_helper_growEii 0x0000af00   Data           0  qfeedbackplugin.o(.ARM.extab)
    .extab._ZN5QListI7QStringE6appendERKS0_  0x0000af30   Data           0  qfeedbackplugin.o(.ARM.extab)
    .extab._ZN5QListI7QStringEpLERKS1_       0x0000af60   Data           0  qfeedbackplugin.o(.ARM.extab)
    .extab._ZN10QtMobility14BackendManagerD1Ev 0x0000af7c   Data           0  qfeedbackplugin.o(.ARM.extab)
    .extab._ZN5QListIPN10QtMobility22QFeedbackFileInterfaceEE18detach_helper_growEii 0x0000af94   Data           0  qfeedbackplugin.o(.ARM.extab)
    .extab._ZN5QListIPN10QtMobility22QFeedbackFileInterfaceEE6appendERKS2_ 0x0000afc4   Data           0  qfeedbackplugin.o(.ARM.extab)
    .extab._ZN10QtMobility15mobilityPluginsERK7QString 0x0000afe0   Data           0  qfeedbackplugin.o(.ARM.extab)
    .extab._ZN10QtMobility14BackendManagerC1Ev 0x0000b0f8   Data           0  qfeedbackplugin.o(.ARM.extab)
    .extab._ZN5QHashI7QString15QHashDummyValueE13duplicateNodeEPN9QHashData4NodeEPv 0x0000b170   Data           0  qfeedbackplugin.o(.ARM.extab)
    .extab._ZN10QtMobility11FileBackendD1Ev  0x0000b180   Data           0  qfeedbackplugin.o(.ARM.extab)
    .extab._ZN10QtMobility13BackendLoaderINS_23QFeedbackThemeInterfaceEED1Ev 0x0000b190   Data           0  qfeedbackplugin.o(.ARM.extab)
    .extab._ZN10QtMobility13BackendLoaderINS_25QFeedbackHapticsInterfaceEED1Ev 0x0000b1a0   Data           0  qfeedbackplugin.o(.ARM.extab)
    .extab._ZN10QtMobility13BackendLoaderINS_23QFeedbackThemeInterfaceEE7tryLoadER13QPluginLoader 0x0000b1b0   Data           0  qfeedbackplugin.o(.ARM.extab)
    .extab._ZN10QtMobility13BackendLoaderINS_25QFeedbackHapticsInterfaceEE7tryLoadER13QPluginLoader 0x0000b1c0   Data           0  qfeedbackplugin.o(.ARM.extab)
    .extab._ZN5QHashI7QString15QHashDummyValueE6insertERKS0_RKS1_ 0x0000b1d0   Data           0  qfeedbackplugin.o(.ARM.extab)
    .extab._ZN10QtMobility11FileBackend18supportedMimeTypesEv 0x0000b1e0   Data           0  qfeedbackplugin.o(.ARM.extab)
    .constdata$1                             0x0000b200   Data           0  qfeedbackactuator.o(.constdata)
    .constdata                               0x0000b200   Section      461  qfeedbackactuator.o(.constdata)
    QtMobility::qt_meta_data_QFeedbackActuator 0x0000b210   Data         252  qfeedbackactuator.o(.constdata)
    QtMobility::qt_meta_stringdata_QFeedbackActuator 0x0000b30c   Data         193  qfeedbackactuator.o(.constdata)
    .constdata$1                             0x0000b3d0   Data           0  qfeedbackeffect.o(.constdata)
    .constdata                               0x0000b3d0   Section     2156  qfeedbackeffect.o(.constdata)
    QtMobility::qt_meta_data_QFeedbackEffect 0x0000b400   Data         592  qfeedbackeffect.o(.constdata)
    QtMobility::qt_meta_stringdata_QFeedbackEffect 0x0000b650   Data         818  qfeedbackeffect.o(.constdata)
    QtMobility::qt_meta_data_QFeedbackHapticsEffect 0x0000b984   Data         156  qfeedbackeffect.o(.constdata)
    QtMobility::qt_meta_stringdata_QFeedbackHapticsEffect 0x0000ba20   Data         138  qfeedbackeffect.o(.constdata)
    QtMobility::qt_meta_data_QFeedbackFileEffect 0x0000baac   Data          84  qfeedbackeffect.o(.constdata)
    QtMobility::qt_meta_stringdata_QFeedbackFileEffect 0x0000bb00   Data          45  qfeedbackeffect.o(.constdata)
    .constdata__ZN9stlp_priv15_Integer_limitsIaLan128ELa127ELin1ELb1EE6digitsE 0x0000bc3c   Section        4  qfeedbackactuator.o(.constdata__ZN9stlp_priv15_Integer_limitsIaLan128ELa127ELin1ELb1EE6digitsE)
    .constdata__ZN9stlp_priv15_Integer_limitsIbLb0ELb1ELi1ELb0EE6digitsE 0x0000bc40   Section        4  qfeedbackactuator.o(.constdata__ZN9stlp_priv15_Integer_limitsIbLb0ELb1ELi1ELb0EE6digitsE)
    .constdata__ZN9stlp_priv15_Integer_limitsIcLc128ELc127ELin1ELb1EE6digitsE 0x0000bc44   Section        4  qfeedbackactuator.o(.constdata__ZN9stlp_priv15_Integer_limitsIcLc128ELc127ELin1ELb1EE6digitsE)
    .constdata__ZN9stlp_priv15_Integer_limitsIhLh0ELh255ELin1ELb1EE6digitsE 0x0000bc48   Section        4  qfeedbackactuator.o(.constdata__ZN9stlp_priv15_Integer_limitsIhLh0ELh255ELin1ELb1EE6digitsE)
    .constdata__ZN9stlp_priv15_Integer_limitsIiLin2147483648ELi2147483647ELin1ELb1EE6digitsE 0x0000bc4c   Section        4  qfeedbackactuator.o(.constdata__ZN9stlp_priv15_Integer_limitsIiLin2147483648ELi2147483647ELin1ELb1EE6digitsE)
    .constdata__ZN9stlp_priv15_Integer_limitsIiLin2147483648ELi2147483647ELin1ELb1EE9is_signedE 0x0000bc50   Section        1  qfeedbackactuator.o(.constdata__ZN9stlp_priv15_Integer_limitsIiLin2147483648ELi2147483647ELin1ELb1EE9is_signedE)
    .constdata__ZN9stlp_priv15_Integer_limitsIjLj0ELj4294967295ELin1ELb1EE6digitsE 0x0000bc54   Section        4  qfeedbackactuator.o(.constdata__ZN9stlp_priv15_Integer_limitsIjLj0ELj4294967295ELin1ELb1EE6digitsE)
    .constdata__ZN9stlp_priv15_Integer_limitsIlLln2147483648ELl2147483647ELin1ELb1EE6digitsE 0x0000bc58   Section        4  qfeedbackactuator.o(.constdata__ZN9stlp_priv15_Integer_limitsIlLln2147483648ELl2147483647ELin1ELb1EE6digitsE)
    .constdata__ZN9stlp_priv15_Integer_limitsImLm0ELm4294967295ELin1ELb1EE6digitsE 0x0000bc5c   Section        4  qfeedbackactuator.o(.constdata__ZN9stlp_priv15_Integer_limitsImLm0ELm4294967295ELin1ELb1EE6digitsE)
    .constdata__ZN9stlp_priv15_Integer_limitsIsLsn32768ELs32767ELin1ELb1EE6digitsE 0x0000bc60   Section        4  qfeedbackactuator.o(.constdata__ZN9stlp_priv15_Integer_limitsIsLsn32768ELs32767ELin1ELb1EE6digitsE)
    .constdata__ZN9stlp_priv15_Integer_limitsItLt0ELt65535ELin1ELb1EE6digitsE 0x0000bc64   Section        4  qfeedbackactuator.o(.constdata__ZN9stlp_priv15_Integer_limitsItLt0ELt65535ELin1ELb1EE6digitsE)
    .constdata__ZN9stlp_priv15_Integer_limitsIwLw0ELw65535ELin1ELb1EE6digitsE 0x0000bc68   Section        4  qfeedbackactuator.o(.constdata__ZN9stlp_priv15_Integer_limitsIwLw0ELw65535ELin1ELb1EE6digitsE)
    .constdata__ZN9stlp_priv15_Integer_limitsIxLxn9223372036854775808ELx9223372036854775807ELin1ELb1EE6digitsE 0x0000bc6c   Section        4  qfeedbackactuator.o(.constdata__ZN9stlp_priv15_Integer_limitsIxLxn9223372036854775808ELx9223372036854775807ELin1ELb1EE6digitsE)
    .constdata__ZN9stlp_priv15_Integer_limitsIyLy0ELy18446744073709551615ELin1ELb1EE6digitsE 0x0000bc70   Section        4  qfeedbackactuator.o(.constdata__ZN9stlp_priv15_Integer_limitsIyLy0ELy18446744073709551615ELin1ELb1EE6digitsE)
    .constdata__ZTIN10QtMobility11FileBackendE 0x0000bc74   Section       12  qfeedbackplugin.o(.constdata__ZTIN10QtMobility11FileBackendE)
    .constdata__ZTIN10QtMobility13QDummyBackendE 0x0000bc80   Section       32  qfeedbackplugin.o(.constdata__ZTIN10QtMobility13QDummyBackendE)
    .constdata__ZTIN10QtMobility15QFeedbackEffectE 0x0000bca0   Section       12  qfeedbackeffect.o(.constdata__ZTIN10QtMobility15QFeedbackEffectE)
    .constdata__ZTIN10QtMobility17QFeedbackActuatorE 0x0000bcac   Section       12  qfeedbackactuator.o(.constdata__ZTIN10QtMobility17QFeedbackActuatorE)
    .constdata__ZTIN10QtMobility18QFeedbackInterfaceE 0x0000bcb8   Section        8  qfeedbackplugin.o(.constdata__ZTIN10QtMobility18QFeedbackInterfaceE)
    .constdata__ZTIN10QtMobility19QFeedbackFileEffectE 0x0000bcc0   Section       12  qfeedbackeffect.o(.constdata__ZTIN10QtMobility19QFeedbackFileEffectE)
    .constdata__ZTIN10QtMobility22QFeedbackFileInterfaceE 0x0000bccc   Section       12  qfeedbackplugin.o(.constdata__ZTIN10QtMobility22QFeedbackFileInterfaceE)
    .constdata__ZTIN10QtMobility22QFeedbackHapticsEffectE 0x0000bcd8   Section       12  qfeedbackeffect.o(.constdata__ZTIN10QtMobility22QFeedbackHapticsEffectE)
    .constdata__ZTIN10QtMobility25QFeedbackHapticsInterfaceE 0x0000bce4   Section       12  qfeedbackplugin.o(.constdata__ZTIN10QtMobility25QFeedbackHapticsInterfaceE)
    .constdata__ZTSN10QtMobility11FileBackendE 0x0000bcf0   Section       28  qfeedbackplugin.o(.constdata__ZTSN10QtMobility11FileBackendE)
    .constdata__ZTSN10QtMobility13QDummyBackendE 0x0000bd0c   Section       30  qfeedbackplugin.o(.constdata__ZTSN10QtMobility13QDummyBackendE)
    .constdata__ZTSN10QtMobility15QFeedbackEffectE 0x0000bd2a   Section       32  qfeedbackeffect.o(.constdata__ZTSN10QtMobility15QFeedbackEffectE)
    .constdata__ZTSN10QtMobility17QFeedbackActuatorE 0x0000bd4a   Section       34  qfeedbackactuator.o(.constdata__ZTSN10QtMobility17QFeedbackActuatorE)
    .constdata__ZTSN10QtMobility18QFeedbackInterfaceE 0x0000bd6c   Section       35  qfeedbackplugin.o(.constdata__ZTSN10QtMobility18QFeedbackInterfaceE)
    .constdata__ZTSN10QtMobility19QFeedbackFileEffectE 0x0000bd8f   Section       36  qfeedbackeffect.o(.constdata__ZTSN10QtMobility19QFeedbackFileEffectE)
    .constdata__ZTSN10QtMobility22QFeedbackFileInterfaceE 0x0000bdb3   Section       39  qfeedbackplugin.o(.constdata__ZTSN10QtMobility22QFeedbackFileInterfaceE)
    .constdata__ZTSN10QtMobility22QFeedbackHapticsEffectE 0x0000bdda   Section       39  qfeedbackeffect.o(.constdata__ZTSN10QtMobility22QFeedbackHapticsEffectE)
    .constdata__ZTSN10QtMobility25QFeedbackHapticsInterfaceE 0x0000be01   Section       42  qfeedbackplugin.o(.constdata__ZTSN10QtMobility25QFeedbackHapticsInterfaceE)
    .constdata__ZTVN10QtMobility11FileBackendE 0x0000be2c   Section       36  qfeedbackplugin.o(.constdata__ZTVN10QtMobility11FileBackendE)
    .constdata__ZTVN10QtMobility13QDummyBackendE 0x0000be50   Section      136  qfeedbackplugin.o(.constdata__ZTVN10QtMobility13QDummyBackendE)
    .constdata__ZTVN10QtMobility15QFeedbackEffectE 0x0000bed8   Section       68  qfeedbackeffect.o(.constdata__ZTVN10QtMobility15QFeedbackEffectE)
    .constdata__ZTVN10QtMobility17QFeedbackActuatorE 0x0000bf1c   Section       56  qfeedbackactuator.o(.constdata__ZTVN10QtMobility17QFeedbackActuatorE)
    .constdata__ZTVN10QtMobility19QFeedbackFileEffectE 0x0000bf54   Section       68  qfeedbackeffect.o(.constdata__ZTVN10QtMobility19QFeedbackFileEffectE)
    .constdata__ZTVN10QtMobility22QFeedbackFileInterfaceE 0x0000bf98   Section       36  qfeedbackplugin.o(.constdata__ZTVN10QtMobility22QFeedbackFileInterfaceE)
    .constdata__ZTVN10QtMobility22QFeedbackHapticsEffectE 0x0000bfbc   Section       68  qfeedbackeffect.o(.constdata__ZTVN10QtMobility22QFeedbackHapticsEffectE)
    .constdata__ZTVN10QtMobility25QFeedbackHapticsInterfaceE 0x0000c000   Section       48  qfeedbackplugin.o(.constdata__ZTVN10QtMobility25QFeedbackHapticsInterfaceE)
    .ARM.exidx                               0x0000c030   Section        8  ucppinit.o(.ARM.exidx)
    .data$0                                  0x00400000   Data           0  qfeedbackplugin.o(.data)
    QtMobility::this_backendManager          0x00400000   Data           8  qfeedbackplugin.o(.data)
    .data                                    0x00400000   Section       16  qfeedbackplugin.o(.data)
    _ZGVcleanup@_ZN10QtMobility14backendManagerEv_0 0x00400008   Data           4  qfeedbackplugin.o(.data)
    cleanup@_ZN10QtMobility14backendManagerEv_1 0x0040000c   Data           4  qfeedbackplugin.o(.data)
    .data$0                                  0x00400010   Data           0  ucppfini.o(.data)
    .data                                    0x00400010   Section        4  ucppfini.o(.data)
    .data__ZNSt19_Atomic_swap_structILi1EE12_S_swap_lockE 0x00400014   Section       12  qfeedbackactuator.o(.data__ZNSt19_Atomic_swap_structILi1EE12_S_swap_lockE)
    .bss$5                                   0x00400020   Data           0  ucppfini.o(.bss)
    .bss                                     0x00400020   Section     2048  ucppfini.o(.bss)

    Global Symbols

    Symbol Name                              Value     Ov Type        Size  Object(Section)

    BuildAttributes$$THUMB_ISAv2$ARM_ISAv5$M$VFPv2$PE$A:L22$X:L11$S22$IEEE1$IW$USESV6$~STKCKD$USESV7$~SHL$OSPACE$ROPI$IEEEJ$EBA8$UX$FPIC$INDIRECT$REQ8$PRES8$EABIv2 0x00000000   Number         0  anon$$obj.o ABSOLUTE
    QtCore{00040703}[2001b2dc].dll           0x00000000   Data           0  anon$$obj.o ABSOLUTE
    QtFeedback{00010103}[2002bfce].dll       0x00000000   Data           0  anon$$obj.o ABSOLUTE
    dfpaeabi{000a0000}.dll                   0x00000000   Data           0  anon$$obj.o ABSOLUTE
    drtaeabi{000a0000}.dll                   0x00000000   Data           0  anon$$obj.o ABSOLUTE
    efsrv{000a0000}[100039e4].dll            0x00000000   Data           0  anon$$obj.o ABSOLUTE
    euser{000a0000}[100039e5].dll            0x00000000   Data           0  anon$$obj.o ABSOLUTE
    libc{00010001}[10207369].dll             0x00000000   Data           0  anon$$obj.o ABSOLUTE
    stdnew{000a0000}[20022178].dll           0x00000000   Data           0  anon$$obj.o ABSOLUTE
    SHT$$INIT_ARRAY$$Base                     - Undefined Weak Reference
    SHT$$INIT_ARRAY$$Limit                    - Undefined Weak Reference
    qt_message_output(QtMsgType, const char*)  - Undefined Reference
    _Z17qt_message_output9QtMsgTypePKc@QtCore{00040703}[2001b2dc].dll  - Undefined Reference
    qt_symbian_throwIfError(int)              - Undefined Reference
    _Z23qt_symbian_throwIfErrori@QtCore{00040703}[2001b2dc].dll  - Undefined Reference
    QBasicAtomicPointer_testAndSetOrdered(void*volatile *, void*, void*)  - Undefined Reference
    _Z37QBasicAtomicPointer_testAndSetOrderedPVPvS_S_@QtCore{00040703}[2001b2dc].dll  - Undefined Reference
    qFree(void*)                              - Undefined Reference
    _Z5qFreePv@QtCore{00040703}[2001b2dc].dll  - Undefined Reference
    qHash(const QString&)                     - Undefined Reference
    _Z5qHashRK7QString@QtCore{00040703}[2001b2dc].dll  - Undefined Reference
    qWarning(const char*, ...)                - Undefined Reference
    _Z8qWarningPKcz@QtCore{00040703}[2001b2dc].dll  - Undefined Reference
    QByteArray::realloc(int)                  - Undefined Reference
    _ZN10QByteArray7reallocEi@QtCore{00040703}[2001b2dc].dll  - Undefined Reference
    QMetaObject::invokeMethod(QObject*, const char*, Qt::ConnectionType, QGenericReturnArgument, QGenericArgument, QGenericArgument, QGenericArgument, QGenericArgument, QGenericArgument, QGenericArgument, QGenericArgument, QGenericArgument, QGenericArgument, QGenericArgument)  - Undefined Reference
    _ZN11QMetaObject12invokeMethodEP7QObjectPKcN2Qt14ConnectionTypeE22QGenericReturnArgument16QGenericArgumentS7_S7_S7_S7_S7_S7_S7_S7_S7_@QtCore{00040703}[2001b2dc].dll  - Undefined Reference
    QMetaObject::activate(QObject*, const QMetaObject*, int, void**)  - Undefined Reference
    _ZN11QMetaObject8activateEP7QObjectPKS_iPPv@QtCore{00040703}[2001b2dc].dll  - Undefined Reference
    QTextStream::QTextStream(QString*, QFlags<QIODevice::OpenModeFlag>)  - Undefined Reference
    _ZN11QTextStreamC1EP7QString6QFlagsIN9QIODevice12OpenModeFlagEE@QtCore{00040703}[2001b2dc].dll  - Undefined Reference
    QTextStream::~QTextStream()               - Undefined Reference
    _ZN11QTextStreamD1Ev@QtCore{00040703}[2001b2dc].dll  - Undefined Reference
    QTextStream::operator <<(const QString&)  - Undefined Reference
    _ZN11QTextStreamlsERK7QString@QtCore{00040703}[2001b2dc].dll  - Undefined Reference
    QTextStream::operator <<(char)            - Undefined Reference
    _ZN11QTextStreamlsEc@QtCore{00040703}[2001b2dc].dll  - Undefined Reference
    QPluginLoader::setFileName(const QString&)  - Undefined Reference
    _ZN13QPluginLoader11setFileNameERK7QString@QtCore{00040703}[2001b2dc].dll  - Undefined Reference
    QPluginLoader::load()                     - Undefined Reference
    _ZN13QPluginLoader4loadEv@QtCore{00040703}[2001b2dc].dll  - Undefined Reference
    QPluginLoader::unload()                   - Undefined Reference
    _ZN13QPluginLoader6unloadEv@QtCore{00040703}[2001b2dc].dll  - Undefined Reference
    QPluginLoader::instance()                 - Undefined Reference
    _ZN13QPluginLoader8instanceEv@QtCore{00040703}[2001b2dc].dll  - Undefined Reference
    QPluginLoader::QPluginLoader(QObject*)    - Undefined Reference
    _ZN13QPluginLoaderC1EP7QObject@QtCore{00040703}[2001b2dc].dll  - Undefined Reference
    QPluginLoader::QPluginLoader(const QString&, QObject*)  - Undefined Reference
    _ZN13QPluginLoaderC1ERK7QStringP7QObject@QtCore{00040703}[2001b2dc].dll  - Undefined Reference
    QPluginLoader::~QPluginLoader()           - Undefined Reference
    _ZN13QPluginLoaderD1Ev@QtCore{00040703}[2001b2dc].dll  - Undefined Reference
    QCoreApplication::libraryPaths()          - Undefined Reference
    _ZN16QCoreApplication12libraryPathsEv@QtCore{00040703}[2001b2dc].dll  - Undefined Reference
    QCoreApplication::applicationDirPath()    - Undefined Reference
    _ZN16QCoreApplication18applicationDirPathEv@QtCore{00040703}[2001b2dc].dll  - Undefined Reference
    QCoreApplication::self                    - Undefined Reference
    _ZN16QCoreApplication4selfE@QtCore{00040703}[2001b2dc].dll  - Undefined Reference
    RFs::Close()                              - Undefined Reference
    _ZN3RFs5CloseEv@efsrv{000a0000}[100039e4].dll  - Undefined Reference
    RFs::Connect(int)                         - Undefined Reference
    _ZN3RFs7ConnectEi@efsrv{000a0000}[100039e4].dll  - Undefined Reference
    QDir::toNativeSeparators(const QString&)  - Undefined Reference
    _ZN4QDir18toNativeSeparatorsERK7QString@QtCore{00040703}[2001b2dc].dll  - Undefined Reference
    QDir::cd(const QString&)                  - Undefined Reference
    _ZN4QDir2cdERK7QString@QtCore{00040703}[2001b2dc].dll  - Undefined Reference
    QDir::QDir(const QString&)                - Undefined Reference
    _ZN4QDirC1ERK7QString@QtCore{00040703}[2001b2dc].dll  - Undefined Reference
    QDir::~QDir()                             - Undefined Reference
    _ZN4QDirD1Ev@QtCore{00040703}[2001b2dc].dll  - Undefined Reference
    QUrl::QUrl(const QUrl&)                   - Undefined Reference
    _ZN4QUrlC1ERKS_@QtCore{00040703}[2001b2dc].dll  - Undefined Reference
    QUrl::QUrl()                              - Undefined Reference
    _ZN4QUrlC1Ev@QtCore{00040703}[2001b2dc].dll  - Undefined Reference
    QUrl::~QUrl()                             - Undefined Reference
    _ZN4QUrlD1Ev@QtCore{00040703}[2001b2dc].dll  - Undefined Reference
    QUrl::operator =(const QUrl&)             - Undefined Reference
    _ZN4QUrlaSERKS_@QtCore{00040703}[2001b2dc].dll  - Undefined Reference
    User::LockedDec(int&)                     - Undefined Reference
    _ZN4User9LockedDecERi@euser{000a0000}[100039e5].dll  - Undefined Reference
    User::LockedInc(int&)                     - Undefined Reference
    _ZN4User9LockedIncERi@euser{000a0000}[100039e5].dll  - Undefined Reference
    QObject::childEvent(QChildEvent*)         - Undefined Reference
    _ZN7QObject10childEventEP11QChildEvent@QtCore{00040703}[2001b2dc].dll  - Undefined Reference
    QObject::timerEvent(QTimerEvent*)         - Undefined Reference
    _ZN7QObject10timerEventEP11QTimerEvent@QtCore{00040703}[2001b2dc].dll  - Undefined Reference
    QObject::customEvent(QEvent*)             - Undefined Reference
    _ZN7QObject11customEventEP6QEvent@QtCore{00040703}[2001b2dc].dll  - Undefined Reference
    QObject::eventFilter(QObject*, QEvent*)   - Undefined Reference
    _ZN7QObject11eventFilterEPS_P6QEvent@QtCore{00040703}[2001b2dc].dll  - Undefined Reference
    QObject::qt_metacall(QMetaObject::Call, int, void**)  - Undefined Reference
    _ZN7QObject11qt_metacallEN11QMetaObject4CallEiPPv@QtCore{00040703}[2001b2dc].dll  - Undefined Reference
    QObject::qt_metacast(const char*)         - Undefined Reference
    _ZN7QObject11qt_metacastEPKc@QtCore{00040703}[2001b2dc].dll  - Undefined Reference
    QObject::connectNotify(const char*)       - Undefined Reference
    _ZN7QObject13connectNotifyEPKc@QtCore{00040703}[2001b2dc].dll  - Undefined Reference
    QObject::disconnectNotify(const char*)    - Undefined Reference
    _ZN7QObject16disconnectNotifyEPKc@QtCore{00040703}[2001b2dc].dll  - Undefined Reference
    QObject::staticMetaObject                 - Undefined Reference
    _ZN7QObject16staticMetaObjectE@QtCore{00040703}[2001b2dc].dll  - Undefined Reference
    QObject::event(QEvent*)                   - Undefined Reference
    _ZN7QObject5eventEP6QEvent@QtCore{00040703}[2001b2dc].dll  - Undefined Reference
    QObject::QObject(QObject*)                - Undefined Reference
    _ZN7QObjectC1EPS_@QtCore{00040703}[2001b2dc].dll  - Undefined Reference
    QObject::~QObject()                       - Undefined Reference
    _ZN7QObjectD1Ev@QtCore{00040703}[2001b2dc].dll  - Undefined Reference
    QString::shared_null                      - Undefined Reference
    _ZN7QString11shared_nullE@QtCore{00040703}[2001b2dc].dll  - Undefined Reference
    QString::fromLatin1_helper(const char*, int)  - Undefined Reference
    _ZN7QString17fromLatin1_helperEPKci@QtCore{00040703}[2001b2dc].dll  - Undefined Reference
    QString::free(QString::Data*)             - Undefined Reference
    _ZN7QString4freeEPNS_4DataE@QtCore{00040703}[2001b2dc].dll  - Undefined Reference
    QString::append(const QString&)           - Undefined Reference
    _ZN7QString6appendERKS_@QtCore{00040703}[2001b2dc].dll  - Undefined Reference
    QString::fromAscii(const char*, int)      - Undefined Reference
    _ZN7QString9fromAsciiEPKci@QtCore{00040703}[2001b2dc].dll  - Undefined Reference
    QString::operator =(const QString&)       - Undefined Reference
    _ZN7QStringaSERKS_@QtCore{00040703}[2001b2dc].dll  - Undefined Reference
    TPtrC16::TPtrC16(const unsigned short*, int)  - Undefined Reference
    _ZN7TPtrC16C1EPKti@euser{000a0000}[100039e5].dll  - Undefined Reference
    QVariant::QVariant(bool)                  - Undefined Reference
    _ZN8QVariantC1Eb@QtCore{00040703}[2001b2dc].dll  - Undefined Reference
    QVariant::~QVariant()                     - Undefined Reference
    _ZN8QVariantD1Ev@QtCore{00040703}[2001b2dc].dll  - Undefined Reference
    QHashData::free_helper(void(*)(QHashData::Node*))  - Undefined Reference
    _ZN9QHashData11free_helperEPFvPNS_4NodeEE@QtCore{00040703}[2001b2dc].dll  - Undefined Reference
    QHashData::shared_null                    - Undefined Reference
    _ZN9QHashData11shared_nullE@QtCore{00040703}[2001b2dc].dll  - Undefined Reference
    QHashData::allocateNode(int)              - Undefined Reference
    _ZN9QHashData12allocateNodeEi@QtCore{00040703}[2001b2dc].dll  - Undefined Reference
    QHashData::detach_helper2(void(*)(QHashData::Node*, void*), void(*)(QHashData::Node*), int, int)  - Undefined Reference
    _ZN9QHashData14detach_helper2EPFvPNS_4NodeEPvEPFvS1_Eii@QtCore{00040703}[2001b2dc].dll  - Undefined Reference
    QHashData::rehash(int)                    - Undefined Reference
    _ZN9QHashData6rehashEi@QtCore{00040703}[2001b2dc].dll  - Undefined Reference
    QListData::detach_grow(int*, int)         - Undefined Reference
    _ZN9QListData11detach_growEPii@QtCore{00040703}[2001b2dc].dll  - Undefined Reference
    QListData::shared_null                    - Undefined Reference
    _ZN9QListData11shared_nullE@QtCore{00040703}[2001b2dc].dll  - Undefined Reference
    QListData::append()                       - Undefined Reference
    _ZN9QListData6appendEv@QtCore{00040703}[2001b2dc].dll  - Undefined Reference
    QListData::detach(int)                    - Undefined Reference
    _ZN9QListData6detachEi@QtCore{00040703}[2001b2dc].dll  - Undefined Reference
    QListData::append2(const QListData&)      - Undefined Reference
    _ZN9QListData7append2ERKS_@QtCore{00040703}[2001b2dc].dll  - Undefined Reference
    QPluginLoader::fileName() const           - Undefined Reference
    _ZNK13QPluginLoader8fileNameEv@QtCore{00040703}[2001b2dc].dll  - Undefined Reference
    RFs::Att(const TDesC16&, unsigned&) const  - Undefined Reference
    _ZNK3RFs3AttERK7TDesC16Rj@efsrv{000a0000}[100039e4].dll  - Undefined Reference
    QDir::absolutePath() const                - Undefined Reference
    _ZNK4QDir12absolutePathEv@QtCore{00040703}[2001b2dc].dll  - Undefined Reference
    QDir::absoluteFilePath(const QString&) const  - Undefined Reference
    _ZNK4QDir16absoluteFilePathERK7QString@QtCore{00040703}[2001b2dc].dll  - Undefined Reference
    QDir::path() const                        - Undefined Reference
    _ZNK4QDir4pathEv@QtCore{00040703}[2001b2dc].dll  - Undefined Reference
    QDir::filePath(const QString&) const      - Undefined Reference
    _ZNK4QDir8filePathERK7QString@QtCore{00040703}[2001b2dc].dll  - Undefined Reference
    QDir::entryList(QFlags<QDir::Filter>, QFlags<QDir::SortFlag>) const  - Undefined Reference
    _ZNK4QDir9entryListE6QFlagsINS_6FilterEES0_INS_8SortFlagEE@QtCore{00040703}[2001b2dc].dll  - Undefined Reference
    QUrl::operator !=(const QUrl&) const      - Undefined Reference
    _ZNK4QUrlneERKS_@QtCore{00040703}[2001b2dc].dll  - Undefined Reference
    QObject::metaObject() const               - Undefined Reference
    _ZNK7QObject10metaObjectEv@QtCore{00040703}[2001b2dc].dll  - Undefined Reference
    QString::toLocal8Bit() const              - Undefined Reference
    _ZNK7QString11toLocal8BitEv@QtCore{00040703}[2001b2dc].dll  - Undefined Reference
    QString::utf16() const                    - Undefined Reference
    _ZNK7QString5utf16Ev@QtCore{00040703}[2001b2dc].dll  - Undefined Reference
    QString::endsWith(const QLatin1String&, Qt::CaseSensitivity) const  - Undefined Reference
    _ZNK7QString8endsWithERK13QLatin1StringN2Qt15CaseSensitivityE@QtCore{00040703}[2001b2dc].dll  - Undefined Reference
    QString::operator ==(const QString&) const  - Undefined Reference
    _ZNK7QStringeqERKS_@QtCore{00040703}[2001b2dc].dll  - Undefined Reference
    QVariant::toInt(bool*) const              - Undefined Reference
    _ZNK8QVariant5toIntEPb@QtCore{00040703}[2001b2dc].dll  - Undefined Reference
    QVariant::toBool() const                  - Undefined Reference
    _ZNK8QVariant6toBoolEv@QtCore{00040703}[2001b2dc].dll  - Undefined Reference
    QVariant::toString() const                - Undefined Reference
    _ZNK8QVariant8toStringEv@QtCore{00040703}[2001b2dc].dll  - Undefined Reference
    typeinfo for QObject                      - Undefined Reference
    _ZTI7QObject@QtCore{00040703}[2001b2dc].dll  - Undefined Reference
    typeinfo for std::bad_alloc               - Undefined Reference
    _ZTISt9bad_alloc@stdnew{000a0000}[20022178].dll  - Undefined Reference
    vtable for __cxxabiv1::__class_type_info  - Undefined Reference
    _ZTVN10__cxxabiv117__class_type_infoE@drtaeabi{000a0000}.dll  - Undefined Reference
    vtable for __cxxabiv1::__si_class_type_info  - Undefined Reference
    _ZTVN10__cxxabiv120__si_class_type_infoE@drtaeabi{000a0000}.dll  - Undefined Reference
    vtable for __cxxabiv1::__vmi_class_type_info  - Undefined Reference
    _ZTVN10__cxxabiv121__vmi_class_type_infoE@drtaeabi{000a0000}.dll  - Undefined Reference
    operator delete (void*)                   - Undefined Reference
    _ZdlPv@stdnew{000a0000}[20022178].dll     - Undefined Reference
    operator new(unsigned)                    - Undefined Reference
    _Znwj@stdnew{000a0000}[20022178].dll      - Undefined Reference
    __aeabi_cfcmpeq                           - Undefined Reference
    __aeabi_cfcmpeq@dfpaeabi{000a0000}.dll    - Undefined Reference
    __aeabi_memcpy4                           - Undefined Reference
    __aeabi_memcpy4@drtaeabi{000a0000}.dll    - Undefined Reference
    __aeabi_uidivmod                          - Undefined Reference
    __aeabi_uidivmod@drtaeabi{000a0000}.dll   - Undefined Reference
    __aeabi_unwind_cpp_pr0                    - Undefined Reference
    __aeabi_unwind_cpp_pr0@drtaeabi{000a0000}.dll  - Undefined Reference
    __cxa_begin_catch                         - Undefined Reference
    __cxa_begin_catch@drtaeabi{000a0000}.dll  - Undefined Reference
    __cxa_end_catch                           - Undefined Reference
    __cxa_end_catch@drtaeabi{000a0000}.dll    - Undefined Reference
    __cxa_end_cleanup                         - Undefined Reference
    __cxa_end_cleanup@drtaeabi{000a0000}.dll  - Undefined Reference
    __cxa_guard_abort                         - Undefined Reference
    __cxa_guard_abort@drtaeabi{000a0000}.dll  - Undefined Reference
    __cxa_guard_acquire                       - Undefined Reference
    __cxa_guard_acquire@drtaeabi{000a0000}.dll  - Undefined Reference
    __cxa_guard_release                       - Undefined Reference
    __cxa_guard_release@drtaeabi{000a0000}.dll  - Undefined Reference
    __cxa_pure_virtual                        - Undefined Reference
    __cxa_pure_virtual@drtaeabi{000a0000}.dll  - Undefined Reference
    __cxa_rethrow                             - Undefined Reference
    __cxa_rethrow@drtaeabi{000a0000}.dll      - Undefined Reference
    strcmp                                    - Undefined Reference
    strcmp@libc{00010001}[10207369].dll       - Undefined Reference
    Image$$ER_RO$$Base                       0x00008000   Number         0  anon$$obj.o(linker$$defined$$symbols)
    _E32Dll                                  0x00008000   ARM Code      40  uc_dll_.o(.emb_text)
    Symbian$$CPP$$Exception$$Descriptor      0x00008014   Data           0  uc_dll_.o(.emb_text)
    __cpp_initialize__aeabi_                 0x00008028   ARM Code      52  ucppinit.o(.emb_text)
    std::nothrow                             0x0000805c   ARM Code       0  ucppinit.o(.emb_text)
    __PLT                                    0x0000805c   ARM Code       0  anon$$obj.o(.plt)
    QtMobility::QFeedbackActuator::getStaticMetaObject() 0x000082ed   Thumb Code     4  qfeedbackactuator.o(.text)
    QtMobility::QFeedbackActuator::metaObject() const 0x000082f1   Thumb Code    28  qfeedbackactuator.o(.text)
    QtMobility::QFeedbackActuator::qt_metacast(const char*) 0x0000830d   Thumb Code    40  qfeedbackactuator.o(.text)
    QtMobility::QFeedbackActuator::enabledChanged() 0x00008335   Thumb Code    18  qfeedbackactuator.o(.text)
    QtMobility::QFeedbackActuator::isEnabled() const 0x00008347   Thumb Code    46  qfeedbackactuator.o(.text)
    QtMobility::QFeedbackActuator::setEnabled(bool) 0x00008375   Thumb Code    64  qfeedbackactuator.o(.text)
    QtMobility::QFeedbackActuator::isValid() const 0x000083b5   Thumb Code    10  qfeedbackactuator.o(.text)
    QtMobility::QFeedbackActuator::state() const 0x000083bf   Thumb Code    48  qfeedbackactuator.o(.text)
    QtMobility::QFeedbackActuator::name() const 0x000083ef   Thumb Code    46  qfeedbackactuator.o(.text)
    QtMobility::QFeedbackActuator::id() const 0x0000841d   Thumb Code     6  qfeedbackactuator.o(.text)
    QtMobility::QFeedbackActuator::isCapabilitySupported(QtMobility::QFeedbackActuator::Capability) const 0x00008423   Thumb Code    26  qfeedbackactuator.o(.text)
    QtMobility::QFeedbackActuator::qt_metacall(QMetaObject::Call, int, void**) 0x0000843d   Thumb Code   334  qfeedbackactuator.o(.text)
    QtMobility::QFeedbackActuator::actuators() 0x0000858b   Thumb Code    22  qfeedbackactuator.o(.text)
    QtMobility::QFeedbackActuator::QFeedbackActuator(QObject*) 0x000085a1   Thumb Code   138  qfeedbackactuator.o(.text)
    QtMobility::QFeedbackActuator::QFeedbackActuator__sub_object(QObject*) 0x000085a1   Thumb Code     0  qfeedbackactuator.o(.text)
    QtMobility::QFeedbackActuator::operator ==(const QtMobility::QFeedbackActuator&) const 0x0000862b   Thumb Code    18  qfeedbackactuator.o(.text)
    QtMobility::QFeedbackActuator::QFeedbackActuator(QObject*, int) 0x0000863d   Thumb Code    28  qfeedbackactuator.o(.text)
    QtMobility::QFeedbackActuator::QFeedbackActuator__sub_object(QObject*, int) 0x0000863d   Thumb Code     0  qfeedbackactuator.o(.text)
    QtMobility::QFeedbackEffect::getStaticMetaObject() 0x00008665   Thumb Code     4  qfeedbackeffect.o(.text)
    QtMobility::QFeedbackEffect::metaObject() const 0x00008669   Thumb Code    28  qfeedbackeffect.o(.text)
    QtMobility::QFeedbackEffect::qt_metacast(const char*) 0x00008685   Thumb Code    40  qfeedbackeffect.o(.text)
    QtMobility::QFeedbackEffect::pause()     0x000086ad   Thumb Code    16  qfeedbackeffect.o(.text)
    QtMobility::QFeedbackEffect::stop()      0x000086bd   Thumb Code    16  qfeedbackeffect.o(.text)
    QtMobility::QFeedbackEffect::start()     0x000086cd   Thumb Code    16  qfeedbackeffect.o(.text)
    QtMobility::QFeedbackEffect::stateChanged() 0x000086dd   Thumb Code    18  qfeedbackeffect.o(.text)
    QtMobility::QFeedbackEffect::error(QtMobility::QFeedbackEffect::ErrorType) const 0x000086ef   Thumb Code    30  qfeedbackeffect.o(.text)
    QtMobility::QFeedbackEffect::qt_metacall(QMetaObject::Call, int, void**) 0x0000870d   Thumb Code   212  qfeedbackeffect.o(.text)
    QtMobility::QFeedbackEffect::QFeedbackEffect__sub_object(QObject*) 0x000087e1   Thumb Code    24  qfeedbackeffect.o(.text)
    QtMobility::QFeedbackEffect::supportsThemeEffect() 0x000087f9   Thumb Code    18  qfeedbackeffect.o(.text)
    QtMobility::QFeedbackEffect::playThemeEffect(QtMobility::QFeedbackEffect::ThemeEffect) 0x0000880b   Thumb Code    30  qfeedbackeffect.o(.text)
    QtMobility::QFeedbackHapticsEffect::getStaticMetaObject() 0x00008829   Thumb Code     4  qfeedbackeffect.o(.text)
    QtMobility::QFeedbackHapticsEffect::metaObject() const 0x0000882d   Thumb Code    28  qfeedbackeffect.o(.text)
    QtMobility::QFeedbackHapticsEffect::qt_metacast(const char*) 0x00008849   Thumb Code    40  qfeedbackeffect.o(.text)
    QtMobility::QFeedbackHapticsEffect::setActuator(QtMobility::QFeedbackActuator*) 0x00008871   Thumb Code   172  qfeedbackeffect.o(.text)
    QtMobility::QFeedbackHapticsEffect::setPeriod(int) 0x0000891d   Thumb Code    36  qfeedbackeffect.o(.text)
    QtMobility::QFeedbackHapticsEffect::setFadeIntensity(float) 0x00008941   Thumb Code    54  qfeedbackeffect.o(.text)
    QtMobility::QFeedbackHapticsEffect::setFadeTime(int) 0x00008977   Thumb Code    48  qfeedbackeffect.o(.text)
    QtMobility::QFeedbackHapticsEffect::setAttackIntensity(float) 0x000089a7   Thumb Code    54  qfeedbackeffect.o(.text)
    QtMobility::QFeedbackHapticsEffect::setAttackTime(int) 0x000089dd   Thumb Code   136  qfeedbackeffect.o(.text)
    QtMobility::QFeedbackHapticsEffect::setIntensity(float) 0x00008a65   Thumb Code    54  qfeedbackeffect.o(.text)
    QtMobility::QFeedbackHapticsEffect::setDuration(int) 0x00008a9b   Thumb Code    48  qfeedbackeffect.o(.text)
    QtMobility::QFeedbackHapticsEffect::actuator() const 0x00008acb   Thumb Code    12  qfeedbackeffect.o(.text)
    QtMobility::QFeedbackHapticsEffect::period() const 0x00008ad7   Thumb Code    12  qfeedbackeffect.o(.text)
    QtMobility::QFeedbackHapticsEffect::fadeIntensity() const 0x00008ae3   Thumb Code    12  qfeedbackeffect.o(.text)
    QtMobility::QFeedbackHapticsEffect::fadeTime() const 0x00008aef   Thumb Code    12  qfeedbackeffect.o(.text)
    QtMobility::QFeedbackHapticsEffect::attackIntensity() const 0x00008afb   Thumb Code    12  qfeedbackeffect.o(.text)
    QtMobility::QFeedbackHapticsEffect::attackTime() const 0x00008b07   Thumb Code    12  qfeedbackeffect.o(.text)
    QtMobility::QFeedbackHapticsEffect::intensity() const 0x00008b13   Thumb Code    12  qfeedbackeffect.o(.text)
    QtMobility::QFeedbackHapticsEffect::qt_metacall(QMetaObject::Call, int, void**) 0x00008b1f   Thumb Code   304  qfeedbackeffect.o(.text)
    QtMobility::QFeedbackHapticsEffect::QFeedbackHapticsEffect(QObject*) 0x00008c4f   Thumb Code    92  qfeedbackeffect.o(.text)
    QtMobility::QFeedbackHapticsEffect::QFeedbackHapticsEffect__sub_object(QObject*) 0x00008c4f   Thumb Code     0  qfeedbackeffect.o(.text)
    QtMobility::QFeedbackHapticsEffect::~QFeedbackHapticsEffect() 0x00008cab   Thumb Code    36  qfeedbackeffect.o(.text)
    QtMobility::QFeedbackHapticsEffect::~QFeedbackHapticsEffect__sub_object() 0x00008cab   Thumb Code     0  qfeedbackeffect.o(.text)
    QtMobility::QFeedbackHapticsEffect::~QFeedbackHapticsEffect__deallocating() 0x00008ccf   Thumb Code    22  qfeedbackeffect.o(.text)
    QtMobility::QFeedbackHapticsEffect::duration() const 0x00008ce5   Thumb Code    12  qfeedbackeffect.o(.text)
    QtMobility::QFeedbackHapticsEffect::state() const 0x00008cf1   Thumb Code    22  qfeedbackeffect.o(.text)
    QtMobility::QFeedbackHapticsEffect::setState(QtMobility::QFeedbackEffect::State) 0x00008d07   Thumb Code    48  qfeedbackeffect.o(.text)
    QtMobility::QFeedbackFileEffect::getStaticMetaObject() 0x00008d37   Thumb Code     4  qfeedbackeffect.o(.text)
    QtMobility::QFeedbackFileEffect::metaObject() const 0x00008d3b   Thumb Code    28  qfeedbackeffect.o(.text)
    QtMobility::QFeedbackFileEffect::qt_metacast(const char*) 0x00008d57   Thumb Code    40  qfeedbackeffect.o(.text)
    QtMobility::QFeedbackFileEffect::setLoaded(bool) 0x00008d7f   Thumb Code   120  qfeedbackeffect.o(.text)
    QtMobility::QFeedbackFileEffect::setSource(const QUrl&) 0x00008df7   Thumb Code    82  qfeedbackeffect.o(.text)
    QtMobility::QFeedbackFileEffect::source() const 0x00008e49   Thumb Code    28  qfeedbackeffect.o(.text)
    QtMobility::QFeedbackFileEffect::isLoaded() const 0x00008e65   Thumb Code    12  qfeedbackeffect.o(.text)
    QtMobility::QFeedbackFileEffect::qt_metacall(QMetaObject::Call, int, void**) 0x00008e71   Thumb Code   238  qfeedbackeffect.o(.text)
    QtMobility::QFeedbackFileEffect::QFeedbackFileEffect(QObject*) 0x00008f5f   Thumb Code    88  qfeedbackeffect.o(.text)
    QtMobility::QFeedbackFileEffect::QFeedbackFileEffect__sub_object(QObject*) 0x00008f5f   Thumb Code     0  qfeedbackeffect.o(.text)
    QtMobility::QFeedbackFileEffect::~QFeedbackFileEffect() 0x00008fb7   Thumb Code    38  qfeedbackeffect.o(.text)
    QtMobility::QFeedbackFileEffect::~QFeedbackFileEffect__sub_object() 0x00008fb7   Thumb Code     0  qfeedbackeffect.o(.text)
    QtMobility::QFeedbackFileEffect::~QFeedbackFileEffect__deallocating() 0x00008fdd   Thumb Code    22  qfeedbackeffect.o(.text)
    QtMobility::QFeedbackFileEffect::duration() const 0x00008ff3   Thumb Code    38  qfeedbackeffect.o(.text)
    QtMobility::QFeedbackFileEffect::load()  0x00009019   Thumb Code    14  qfeedbackeffect.o(.text)
    QtMobility::QFeedbackFileEffect::unload() 0x00009027   Thumb Code    14  qfeedbackeffect.o(.text)
    QtMobility::QFeedbackFileEffect::supportedMimeTypes() 0x00009035   Thumb Code    22  qfeedbackeffect.o(.text)
    QtMobility::QFeedbackFileEffect::state() const 0x0000904b   Thumb Code    22  qfeedbackeffect.o(.text)
    QtMobility::QFeedbackFileEffect::setState(QtMobility::QFeedbackEffect::State) 0x00009061   Thumb Code    70  qfeedbackeffect.o(.text)
    QtMobility::QFeedbackFileEffectPrivate::loadFinished(bool) 0x000090a7   Thumb Code    12  qfeedbackeffect.o(.text)
    QtMobility::QFeedbackInterface::reportError(const QtMobility::QFeedbackEffect*, QtMobility::QFeedbackEffect::ErrorType) 0x000090b5   Thumb Code    20  qfeedbackplugin.o(.text)
    QtMobility::QFeedbackHapticsInterface::instance() 0x000091c5   Thumb Code    16  qfeedbackplugin.o(.text)
    QtMobility::QFeedbackHapticsInterface::createFeedbackActuator(QObject*, int) 0x000091d5   Thumb Code    34  qfeedbackplugin.o(.text)
    QtMobility::QFeedbackThemeInterface::instance() 0x000091f7   Thumb Code    16  qfeedbackplugin.o(.text)
    QtMobility::QFeedbackFileInterface::instance() 0x00009207   Thumb Code    14  qfeedbackplugin.o(.text)
    QtMobility::QFeedbackFileInterface::reportLoadFinished(QtMobility::QFeedbackFileEffect*, bool) 0x00009215   Thumb Code    54  qfeedbackplugin.o(.text)
    __ARM_switch8                            0x00009258   ARM Code      24  switch8.o(.text)
    __rt_switch8                             0x00009258   ARM Code       0  switch8.o(.text)
    _E32Dll_Body                             0x00009270   ARM Code      76  uc_dll.o(.text)
    __aeabi_atexit                           0x000092c0   ARM Code      40  ucppfini.o(.text)
    __cxa_atexit                             0x000092e8   ARM Code      64  ucppfini.o(.text)
    __cxa_finalize                           0x00009328   ARM Code      48  ucppfini.o(.text)
    run_static_dtors                         0x00009358   ARM Code      16  ucppfini.o(.text)
    __DLL_Export_Table__                     0x00009374   ARM Code       4  dllexp.o(.text)
    qWarning()                               0x00009475   Thumb Code   124  qfeedbackeffect.o(i._Z8qWarningv)
    QByteArray::~QByteArray()                0x0000950d   Thumb Code    24  qfeedbackeffect.o(i._ZN10QByteArrayD1Ev)
    QByteArray::~QByteArray__sub_object()    0x0000950d   Thumb Code     0  qfeedbackeffect.o(i._ZN10QByteArrayD1Ev)
    QtMobility::FileBackend::getBackend(const QtMobility::QFeedbackFileEffect*) 0x00009525   Thumb Code    62  qfeedbackplugin.o(i._ZN10QtMobility11FileBackend10getBackendEPKNS_19QFeedbackFileEffectE)
    QtMobility::FileBackend::effectState(const QtMobility::QFeedbackFileEffect*) 0x00009563   Thumb Code    36  qfeedbackplugin.o(i._ZN10QtMobility11FileBackend11effectStateEPKNS_19QFeedbackFileEffectE)
    QtMobility::FileBackend::effectDuration(const QtMobility::QFeedbackFileEffect*) 0x00009587   Thumb Code    36  qfeedbackplugin.o(i._ZN10QtMobility11FileBackend14effectDurationEPKNS_19QFeedbackFileEffectE)
    QtMobility::FileBackend::setEffectState(QtMobility::QFeedbackFileEffect*, QtMobility::QFeedbackEffect::State) 0x000095ab   Thumb Code    46  qfeedbackplugin.o(i._ZN10QtMobility11FileBackend14setEffectStateEPNS_19QFeedbackFileEffectENS_15QFeedbackEffect5StateE)
    QtMobility::FileBackend::tryBackendLoad(QtMobility::QFeedbackFileEffect*) 0x000095d9   Thumb Code   348  qfeedbackplugin.o(i._ZN10QtMobility11FileBackend14tryBackendLoadEPNS_19QFeedbackFileEffectE)
    QtMobility::FileBackend::supportedMimeTypes() 0x00009745   Thumb Code    66  qfeedbackplugin.o(i._ZN10QtMobility11FileBackend18supportedMimeTypesEv)
    QtMobility::FileBackend::setLoaded(QtMobility::QFeedbackFileEffect*, bool) 0x00009797   Thumb Code    70  qfeedbackplugin.o(i._ZN10QtMobility11FileBackend9setLoadedEPNS_19QFeedbackFileEffectEb)
    QtMobility::FileBackend::~FileBackend__deallocating() 0x000097dd   Thumb Code    22  qfeedbackplugin.o(i._ZN10QtMobility11FileBackendD0Ev)
    QtMobility::FileBackend::~FileBackend()  0x000097f5   Thumb Code    20  qfeedbackplugin.o(i._ZN10QtMobility11FileBackendD1Ev)
    QtMobility::FileBackend::~FileBackend__sub_object() 0x000097f5   Thumb Code     0  qfeedbackplugin.o(i._ZN10QtMobility11FileBackendD1Ev)
    QtMobility::QDummyBackend::effectState(const QtMobility::QFeedbackHapticsEffect*) 0x00009817   Thumb Code     6  qfeedbackplugin.o(i._ZN10QtMobility13QDummyBackend11effectStateEPKNS_22QFeedbackHapticsEffectE)
    QtMobility::QDummyBackend::pluginPriority() 0x0000981d   Thumb Code     6  qfeedbackplugin.o(i._ZN10QtMobility13QDummyBackend14pluginPriorityEv)
    QtMobility::QDummyBackend::setEffectState(const QtMobility::QFeedbackHapticsEffect*, QtMobility::QFeedbackEffect::State) 0x00009823   Thumb Code     2  qfeedbackplugin.o(i._ZN10QtMobility13QDummyBackend14setEffectStateEPKNS_22QFeedbackHapticsEffectENS_15QFeedbackEffect5StateE)
    QtMobility::QDummyBackend::actuatorProperty(const QtMobility::QFeedbackActuator&, QtMobility::QFeedbackHapticsInterface::ActuatorProperty) 0x00009825   Thumb Code    54  qfeedbackplugin.o(i._ZN10QtMobility13QDummyBackend16actuatorPropertyERKNS_17QFeedbackActuatorENS_25QFeedbackHapticsInterface16ActuatorPropertyE)
    QtMobility::QDummyBackend::setActuatorProperty(const QtMobility::QFeedbackActuator&, QtMobility::QFeedbackHapticsInterface::ActuatorProperty, const QVariant&) 0x0000985b   Thumb Code     2  qfeedbackplugin.o(i._ZN10QtMobility13QDummyBackend19setActuatorPropertyERKNS_17QFeedbackActuatorENS_25QFeedbackHapticsInterface16ActuatorPropertyERK8QVariant)
    QtMobility::QDummyBackend::updateEffectProperty(const QtMobility::QFeedbackHapticsEffect*, QtMobility::QFeedbackHapticsInterface::EffectProperty) 0x0000985d   Thumb Code     2  qfeedbackplugin.o(i._ZN10QtMobility13QDummyBackend20updateEffectPropertyEPKNS_22QFeedbackHapticsEffectENS_25QFeedbackHapticsInterface14EffectPropertyE)
    QtMobility::QDummyBackend::isActuatorCapabilitySupported(const QtMobility::QFeedbackActuator&, QtMobility::QFeedbackActuator::Capability) 0x0000985f   Thumb Code     6  qfeedbackplugin.o(i._ZN10QtMobility13QDummyBackend29isActuatorCapabilitySupportedERKNS_17QFeedbackActuatorENS1_10CapabilityE)
    QtMobility::QDummyBackend::actuators()   0x00009865   Thumb Code    22  qfeedbackplugin.o(i._ZN10QtMobility13QDummyBackend9actuatorsEv)
    QtMobility::QDummyBackend::~QDummyBackend__deallocating() 0x00009881   Thumb Code    22  qfeedbackplugin.o(i._ZN10QtMobility13QDummyBackendD0Ev)
    QtMobility::QDummyBackend::~QDummyBackend() 0x00009897   Thumb Code    22  qfeedbackplugin.o(i._ZN10QtMobility13QDummyBackendD1Ev)
    QtMobility::QDummyBackend::~QDummyBackend__sub_object() 0x00009897   Thumb Code     0  qfeedbackplugin.o(i._ZN10QtMobility13QDummyBackendD1Ev)
    QtMobility::BackendManager::BackendManager() 0x000098b1   Thumb Code   564  qfeedbackplugin.o(i._ZN10QtMobility14BackendManagerC1Ev)
    QtMobility::BackendManager::BackendManager__sub_object() 0x000098b1   Thumb Code     0  qfeedbackplugin.o(i._ZN10QtMobility14BackendManagerC1Ev)
    QtMobility::BackendManager::~BackendManager() 0x00009b91   Thumb Code    38  qfeedbackplugin.o(i._ZN10QtMobility14BackendManagerD1Ev)
    QtMobility::BackendManager::~BackendManager__sub_object() 0x00009b91   Thumb Code     0  qfeedbackplugin.o(i._ZN10QtMobility14BackendManagerD1Ev)
    QtMobility::QFeedbackEffect::~QFeedbackEffect__deallocating() 0x00009bcd   Thumb Code    22  qfeedbackeffect.o(i._ZN10QtMobility15QFeedbackEffectD0Ev)
    QtMobility::QFeedbackEffect::~QFeedbackEffect() 0x00009be3   Thumb Code     0  qfeedbackeffect.o(i._ZN10QtMobility15QFeedbackEffectD2Ev)
    QtMobility::QFeedbackEffect::~QFeedbackEffect__sub_object() 0x00009be3   Thumb Code    14  qfeedbackeffect.o(i._ZN10QtMobility15QFeedbackEffectD2Ev)
    QtMobility::mobilityPlugins(const QString&) 0x00009bf1   Thumb Code   706  qfeedbackplugin.o(i._ZN10QtMobility15mobilityPluginsERK7QString)
    QtMobility::QFeedbackActuator::~QFeedbackActuator__deallocating() 0x00009f59   Thumb Code    24  qfeedbackactuator.o(i._ZN10QtMobility17QFeedbackActuatorD0Ev)
    QtMobility::QFeedbackActuator::~QFeedbackActuator() 0x00009f71   Thumb Code    14  qfeedbackactuator.o(i._ZN10QtMobility17QFeedbackActuatorD1Ev)
    QtMobility::QFeedbackActuator::~QFeedbackActuator__sub_object() 0x00009f71   Thumb Code     0  qfeedbackactuator.o(i._ZN10QtMobility17QFeedbackActuatorD1Ev)
    QtMobility::QFeedbackFileInterface::~QFeedbackFileInterface__deallocating() 0x00009f7f   Thumb Code    18  qfeedbackplugin.o(i._ZN10QtMobility22QFeedbackFileInterfaceD0Ev)
    QtMobility::QFeedbackFileInterface::~QFeedbackFileInterface() 0x00009f91   Thumb Code     0  qfeedbackplugin.o(i._ZN10QtMobility22QFeedbackFileInterfaceD2Ev)
    QtMobility::QFeedbackFileInterface::~QFeedbackFileInterface__sub_object() 0x00009f91   Thumb Code     2  qfeedbackplugin.o(i._ZN10QtMobility22QFeedbackFileInterfaceD2Ev)
    QtMobility::QFeedbackHapticsInterface::~QFeedbackHapticsInterface__deallocating() 0x00009f93   Thumb Code    18  qfeedbackplugin.o(i._ZN10QtMobility25QFeedbackHapticsInterfaceD0Ev)
    QtMobility::QFeedbackHapticsInterface::~QFeedbackHapticsInterface() 0x00009fa5   Thumb Code     0  qfeedbackplugin.o(i._ZN10QtMobility25QFeedbackHapticsInterfaceD2Ev)
    QtMobility::QFeedbackHapticsInterface::~QFeedbackHapticsInterface__sub_object() 0x00009fa5   Thumb Code     2  qfeedbackplugin.o(i._ZN10QtMobility25QFeedbackHapticsInterfaceD2Ev)
    QStringList::QStringList()               0x00009fa9   Thumb Code    20  qfeedbackplugin.o(i._ZN11QStringListC1Ev)
    QStringList::QStringList__sub_object()   0x00009fa9   Thumb Code     0  qfeedbackplugin.o(i._ZN11QStringListC1Ev)
    QStringList::~QStringList()              0x00009fc1   Thumb Code    14  qfeedbackplugin.o(i._ZN11QStringListD1Ev)
    QStringList::~QStringList__sub_object()  0x00009fc1   Thumb Code     0  qfeedbackplugin.o(i._ZN11QStringListD1Ev)
    QBasicAtomicInt::ref()                   0x00009fcf   Thumb Code    24  qfeedbackplugin.o(i._ZN15QBasicAtomicInt3refEv)
    QBasicAtomicInt::deref()                 0x00009fe7   Thumb Code    24  qfeedbackactuator.o(i._ZN15QBasicAtomicInt5derefEv)
    QForeachContainer<QStringList>::~QForeachContainer() 0x00009fff   Thumb Code    14  qfeedbackplugin.o(i._ZN17QForeachContainerI11QStringListED1Ev)
    QForeachContainer<QStringList>::~QForeachContainer__sub_object() 0x00009fff   Thumb Code     0  qfeedbackplugin.o(i._ZN17QForeachContainerI11QStringListED1Ev)
    QSet<QString>::~QSet()                   0x0000a00d   Thumb Code    14  qfeedbackplugin.o(i._ZN4QSetI7QStringED1Ev)
    QSet<QString>::~QSet__sub_object()       0x0000a00d   Thumb Code     0  qfeedbackplugin.o(i._ZN4QSetI7QStringED1Ev)
    QDebug::~QDebug()                        0x0000a01b   Thumb Code   154  qfeedbackeffect.o(i._ZN6QDebugD1Ev)
    QDebug::~QDebug__sub_object()            0x0000a01b   Thumb Code     0  qfeedbackeffect.o(i._ZN6QDebugD1Ev)
    QString::QString(const QLatin1String&)   0x0000a0c9   Thumb Code    26  qfeedbackplugin.o(i._ZN7QStringC1ERK13QLatin1String)
    QString::QString__sub_object(const QLatin1String&) 0x0000a0c9   Thumb Code     0  qfeedbackplugin.o(i._ZN7QStringC1ERK13QLatin1String)
    QString::QString(const QString&)         0x0000a0e3   Thumb Code    22  qfeedbackplugin.o(i._ZN7QStringC1ERKS_)
    QString::QString__sub_object(const QString&) 0x0000a0e3   Thumb Code     0  qfeedbackplugin.o(i._ZN7QStringC1ERKS_)
    QString::~QString()                      0x0000a0f9   Thumb Code    24  qfeedbackactuator.o(i._ZN7QStringD1Ev)
    QString::~QString__sub_object()          0x0000a0f9   Thumb Code     0  qfeedbackactuator.o(i._ZN7QStringD1Ev)
    QBasicAtomicInt::operator !=(int) const  0x0000a111   Thumb Code    16  qfeedbackeffect.o(i._ZNK15QBasicAtomicIntneEi)
    QListData::at(int) const                 0x0000a121   Thumb Code    20  qfeedbackplugin.o(i._ZNK9QListData2atEi)
    QListData::end() const                   0x0000a135   Thumb Code    16  qfeedbackplugin.o(i._ZNK9QListData3endEv)
    QListData::begin() const                 0x0000a145   Thumb Code    16  qfeedbackactuator.o(i._ZNK9QListData5beginEv)
    thunk{-8} to QtMobility::QDummyBackend::effectState(const QtMobility::QFeedbackHapticsEffect*) 0x0000a155   Thumb Code     8  qfeedbackplugin.o(i._ZThn8_N10QtMobility13QDummyBackend11effectStateEPKNS_22QFeedbackHapticsEffectE)
    thunk{-8} to QtMobility::QDummyBackend::pluginPriority() 0x0000a15d   Thumb Code     8  qfeedbackplugin.o(i._ZThn8_N10QtMobility13QDummyBackend14pluginPriorityEv)
    thunk{-8} to QtMobility::QDummyBackend::setEffectState(const QtMobility::QFeedbackHapticsEffect*, QtMobility::QFeedbackEffect::State) 0x0000a165   Thumb Code     4  qfeedbackplugin.o(i._ZThn8_N10QtMobility13QDummyBackend14setEffectStateEPKNS_22QFeedbackHapticsEffectENS_15QFeedbackEffect5StateE)
    thunk{-8} to QtMobility::QDummyBackend::actuatorProperty(const QtMobility::QFeedbackActuator&, QtMobility::QFeedbackHapticsInterface::ActuatorProperty) 0x0000a169   Thumb Code    26  qfeedbackplugin.o(i._ZThn8_N10QtMobility13QDummyBackend16actuatorPropertyERKNS_17QFeedbackActuatorENS_25QFeedbackHapticsInterface16ActuatorPropertyE)
    thunk{-8} to QtMobility::QDummyBackend::setActuatorProperty(const QtMobility::QFeedbackActuator&, QtMobility::QFeedbackHapticsInterface::ActuatorProperty, const QVariant&) 0x0000a183   Thumb Code     6  qfeedbackplugin.o(i._ZThn8_N10QtMobility13QDummyBackend19setActuatorPropertyERKNS_17QFeedbackActuatorENS_25QFeedbackHapticsInterface16ActuatorPropertyERK8QVariant)
    thunk{-8} to QtMobility::QDummyBackend::updateEffectProperty(const QtMobility::QFeedbackHapticsEffect*, QtMobility::QFeedbackHapticsInterface::EffectProperty) 0x0000a189   Thumb Code     4  qfeedbackplugin.o(i._ZThn8_N10QtMobility13QDummyBackend20updateEffectPropertyEPKNS_22QFeedbackHapticsEffectENS_25QFeedbackHapticsInterface14EffectPropertyE)
    thunk{-8} to QtMobility::QDummyBackend::isActuatorCapabilitySupported(const QtMobility::QFeedbackActuator&, QtMobility::QFeedbackActuator::Capability) 0x0000a18d   Thumb Code     8  qfeedbackplugin.o(i._ZThn8_N10QtMobility13QDummyBackend29isActuatorCapabilitySupportedERKNS_17QFeedbackActuatorENS1_10CapabilityE)
    thunk{-8} to QtMobility::QDummyBackend::actuators() 0x0000a195   Thumb Code    18  qfeedbackplugin.o(i._ZThn8_N10QtMobility13QDummyBackend9actuatorsEv)
    thunk{-8} to QtMobility::QDummyBackend::~QDummyBackend__deallocating() 0x0000a1a7   Thumb Code    14  qfeedbackplugin.o(i._ZThn8_N10QtMobility13QDummyBackendD0Ev)
    thunk{-8} to QtMobility::QDummyBackend::~QDummyBackend() 0x0000a1b5   Thumb Code    14  qfeedbackplugin.o(i._ZThn8_N10QtMobility13QDummyBackendD1Ev)
    operator delete (void*, void*)           0x0000a1c3   Thumb Code     2  qfeedbackplugin.o(i._ZdlPvS_)
    operator new(unsigned, void*)            0x0000a1c5   Thumb Code     6  qfeedbackplugin.o(i._ZnwjPv)
    QtMobility::BackendLoader<QtMobility::QFeedbackThemeInterface>::tryLoad(QPluginLoader&) 0x0000a1cd   Thumb Code   108  qfeedbackplugin.o(t._ZN10QtMobility13BackendLoaderINS_23QFeedbackThemeInterfaceEE7tryLoadER13QPluginLoader)
    QtMobility::BackendLoader<QtMobility::QFeedbackThemeInterface>::~BackendLoader() 0x0000a26f   Thumb Code    20  qfeedbackplugin.o(t._ZN10QtMobility13BackendLoaderINS_23QFeedbackThemeInterfaceEED1Ev)
    QtMobility::BackendLoader<QtMobility::QFeedbackThemeInterface>::~BackendLoader__sub_object() 0x0000a26f   Thumb Code     0  qfeedbackplugin.o(t._ZN10QtMobility13BackendLoaderINS_23QFeedbackThemeInterfaceEED1Ev)
    QtMobility::BackendLoader<QtMobility::QFeedbackHapticsInterface>::tryLoad(QPluginLoader&) 0x0000a28d   Thumb Code   108  qfeedbackplugin.o(t._ZN10QtMobility13BackendLoaderINS_25QFeedbackHapticsInterfaceEE7tryLoadER13QPluginLoader)
    QtMobility::BackendLoader<QtMobility::QFeedbackHapticsInterface>::~BackendLoader() 0x0000a32f   Thumb Code    20  qfeedbackplugin.o(t._ZN10QtMobility13BackendLoaderINS_25QFeedbackHapticsInterfaceEED1Ev)
    QtMobility::BackendLoader<QtMobility::QFeedbackHapticsInterface>::~BackendLoader__sub_object() 0x0000a32f   Thumb Code     0  qfeedbackplugin.o(t._ZN10QtMobility13BackendLoaderINS_25QFeedbackHapticsInterfaceEED1Ev)
    QHashDummyNode<QString, QHashDummyValue>::QHashDummyNode(const QString&) 0x0000a34d   Thumb Code    24  qfeedbackplugin.o(t._ZN14QHashDummyNodeI7QString15QHashDummyValueEC1ERKS0_)
    QHashDummyNode<QString, QHashDummyValue>::QHashDummyNode__sub_object(const QString&) 0x0000a34d   Thumb Code     0  qfeedbackplugin.o(t._ZN14QHashDummyNodeI7QString15QHashDummyValueEC1ERKS0_)
    QScopedPointer<QtMobility::QFeedbackFileEffectPrivate, QScopedPointerDeleter<QtMobility::QFeedbackFileEffectPrivate>>::~QScopedPointer() 0x0000a365   Thumb Code    36  qfeedbackeffect.o(t._ZN14QScopedPointerIN10QtMobility26QFeedbackFileEffectPrivateE21QScopedPointerDeleterIS1_EED1Ev)
    QScopedPointer<QtMobility::QFeedbackFileEffectPrivate, QScopedPointerDeleter<QtMobility::QFeedbackFileEffectPrivate>>::~QScopedPointer__sub_object() 0x0000a365   Thumb Code     0  qfeedbackeffect.o(t._ZN14QScopedPointerIN10QtMobility26QFeedbackFileEffectPrivateE21QScopedPointerDeleterIS1_EED1Ev)
    QScopedPointer<QtMobility::QFeedbackHapticsEffectPrivate, QScopedPointerDeleter<QtMobility::QFeedbackHapticsEffectPrivate>>::~QScopedPointer() 0x0000a389   Thumb Code    22  qfeedbackeffect.o(t._ZN14QScopedPointerIN10QtMobility29QFeedbackHapticsEffectPrivateE21QScopedPointerDeleterIS1_EED1Ev)
    QScopedPointer<QtMobility::QFeedbackHapticsEffectPrivate, QScopedPointerDeleter<QtMobility::QFeedbackHapticsEffectPrivate>>::~QScopedPointer__sub_object() 0x0000a389   Thumb Code     0  qfeedbackeffect.o(t._ZN14QScopedPointerIN10QtMobility29QFeedbackHapticsEffectPrivateE21QScopedPointerDeleterIS1_EED1Ev)
    QGlobalStaticDeleter<QtMobility::BackendManager>::~QGlobalStaticDeleter() 0x0000a39f   Thumb Code    42  qfeedbackplugin.o(t._ZN20QGlobalStaticDeleterIN10QtMobility14BackendManagerEED1Ev)
    QGlobalStaticDeleter<QtMobility::BackendManager>::~QGlobalStaticDeleter__sub_object() 0x0000a39f   Thumb Code     0  qfeedbackplugin.o(t._ZN20QGlobalStaticDeleterIN10QtMobility14BackendManagerEED1Ev)
    QSet<QString>::insert(const QString&)    0x0000a3c9   Thumb Code    46  qfeedbackplugin.o(t._ZN4QSetI7QStringE6insertERKS0_)
    QHash<QString, QHashDummyValue>::deleteNode2(QHashData::Node*) 0x0000a3f7   Thumb Code    24  qfeedbackplugin.o(t._ZN5QHashI7QString15QHashDummyValueE11deleteNode2EPN9QHashData4NodeE)
    QHash<QString, QHashDummyValue>::detach_helper() 0x0000a411   Thumb Code    52  qfeedbackplugin.o(t._ZN5QHashI7QString15QHashDummyValueE13detach_helperEv)
    QHash<QString, QHashDummyValue>::duplicateNode(QHashData::Node*, void*) 0x0000a44d   Thumb Code    44  qfeedbackplugin.o(t._ZN5QHashI7QString15QHashDummyValueE13duplicateNodeEPN9QHashData4NodeEPv)
    QHash<QString, QHashDummyValue>::insert(const QString&, const QHashDummyValue&) 0x0000a485   Thumb Code   208  qfeedbackplugin.o(t._ZN5QHashI7QString15QHashDummyValueE6insertERKS0_RKS1_)
    QHash<QString, QHashDummyValue>::freeData(QHashData*) 0x0000a561   Thumb Code    16  qfeedbackplugin.o(t._ZN5QHashI7QString15QHashDummyValueE8freeDataEP9QHashData)
    QHash<QString, QHashDummyValue>::~QHash() 0x0000a575   Thumb Code    30  qfeedbackplugin.o(t._ZN5QHashI7QString15QHashDummyValueED1Ev)
    QHash<QString, QHashDummyValue>::~QHash__sub_object() 0x0000a575   Thumb Code     0  qfeedbackplugin.o(t._ZN5QHashI7QString15QHashDummyValueED1Ev)
    QList<QString>::detach_helper(int)       0x0000a593   Thumb Code    94  qfeedbackplugin.o(t._ZN5QListI7QStringE13detach_helperEi)
    QList<QString>::detach_helper()          0x0000a5f9   Thumb Code    16  qfeedbackplugin.o(t._ZN5QListI7QStringE13detach_helperEv)
    QList<QString>::node_destruct(QList<QString>::Node*, QList<QString>::Node*) 0x0000a609   Thumb Code    26  qfeedbackplugin.o(t._ZN5QListI7QStringE13node_destructEPNS1_4NodeES3_)
    QList<QString>::node_construct(QList<QString>::Node*, const QString&) 0x0000a623   Thumb Code    36  qfeedbackplugin.o(t._ZN5QListI7QStringE14node_constructEPNS1_4NodeERKS0_)
    QList<QString>::detach_helper_grow(int, int) 0x0000a655   Thumb Code   208  qfeedbackplugin.o(t._ZN5QListI7QStringE18detach_helper_growEii)
    QList<QString>::free(QListData::Data*)   0x0000a735   Thumb Code    58  qfeedbackplugin.o(t._ZN5QListI7QStringE4freeEPN9QListData4DataE)
    QList<QString>::append(const QString&)   0x0000a771   Thumb Code   114  qfeedbackplugin.o(t._ZN5QListI7QStringE6appendERKS0_)
    QList<QString>::node_copy(QList<QString>::Node*, QList<QString>::Node*, QList<QString>::Node*) 0x0000a7f7   Thumb Code    82  qfeedbackplugin.o(t._ZN5QListI7QStringE9node_copyEPNS1_4NodeES3_S3_)
    QList<QString>::~QList()                 0x0000a85f   Thumb Code    32  qfeedbackplugin.o(t._ZN5QListI7QStringED1Ev)
    QList<QString>::~QList__sub_object()     0x0000a85f   Thumb Code     0  qfeedbackplugin.o(t._ZN5QListI7QStringED1Ev)
    QList<QString>::operator +=(const QList<QString>&) 0x0000a881   Thumb Code   204  qfeedbackplugin.o(t._ZN5QListI7QStringEpLERKS1_)
    QList<QtMobility::QFeedbackActuator*>::detach_helper(int) 0x0000a959   Thumb Code   134  qfeedbackactuator.o(t._ZN5QListIPN10QtMobility17QFeedbackActuatorEE13detach_helperEi)
    QList<QtMobility::QFeedbackActuator*>::detach_helper() 0x0000a9e7   Thumb Code    16  qfeedbackactuator.o(t._ZN5QListIPN10QtMobility17QFeedbackActuatorEE13detach_helperEv)
    QList<QtMobility::QFeedbackActuator*>::free(QListData::Data*) 0x0000a9f7   Thumb Code    58  qfeedbackactuator.o(t._ZN5QListIPN10QtMobility17QFeedbackActuatorEE4freeEPN9QListData4DataE)
    QList<QtMobility::QFeedbackActuator*>::~QList() 0x0000aa31   Thumb Code    32  qfeedbackactuator.o(t._ZN5QListIPN10QtMobility17QFeedbackActuatorEED1Ev)
    QList<QtMobility::QFeedbackActuator*>::~QList__sub_object() 0x0000aa31   Thumb Code     0  qfeedbackactuator.o(t._ZN5QListIPN10QtMobility17QFeedbackActuatorEED1Ev)
    QList<QtMobility::QFeedbackFileInterface*>::detach_helper_grow(int, int) 0x0000aa51   Thumb Code   204  qfeedbackplugin.o(t._ZN5QListIPN10QtMobility22QFeedbackFileInterfaceEE18detach_helper_growEii)
    QList<QtMobility::QFeedbackFileInterface*>::free(QListData::Data*) 0x0000ab2d   Thumb Code    58  qfeedbackplugin.o(t._ZN5QListIPN10QtMobility22QFeedbackFileInterfaceEE4freeEPN9QListData4DataE)
    QList<QtMobility::QFeedbackFileInterface*>::append(QtMobility::QFeedbackFileInterface*const &) 0x0000ab69   Thumb Code    94  qfeedbackplugin.o(t._ZN5QListIPN10QtMobility22QFeedbackFileInterfaceEE6appendERKS2_)
    QList<QtMobility::QFeedbackFileInterface*>::node_copy(QList<QtMobility::QFeedbackFileInterface*>::Node*, QList<QtMobility::QFeedbackFileInterface*>::Node*, QList<QtMobility::QFeedbackFileInterface*>::Node*) 0x0000abd7   Thumb Code    46  qfeedbackplugin.o(t._ZN5QListIPN10QtMobility22QFeedbackFileInterfaceEE9node_copyEPNS3_4NodeES5_S5_)
    QList<QtMobility::QFeedbackFileInterface*>::~QList() 0x0000ac05   Thumb Code    32  qfeedbackplugin.o(t._ZN5QListIPN10QtMobility22QFeedbackFileInterfaceEED1Ev)
    QList<QtMobility::QFeedbackFileInterface*>::~QList__sub_object() 0x0000ac05   Thumb Code     0  qfeedbackplugin.o(t._ZN5QListIPN10QtMobility22QFeedbackFileInterfaceEED1Ev)
    QSet<QString>::contains(const QString&) const 0x0000ac25   Thumb Code    34  qfeedbackplugin.o(t._ZNK4QSetI7QStringE8containsERKS0_)
    QHash<QString, QHashDummyValue>::findNode(const QString&, unsigned*) const 0x0000ac47   Thumb Code   116  qfeedbackplugin.o(t._ZNK5QHashI7QString15QHashDummyValueE8findNodeERKS0_Pj)
    QList<QString>::at(int) const            0x0000acbb   Thumb Code    22  qfeedbackplugin.o(t._ZNK5QListI7QStringE2atEi)
    QList<QString>::isEmpty() const          0x0000acd1   Thumb Code    24  qfeedbackplugin.o(t._ZNK5QListI7QStringE7isEmptyEv)
    QList<QtMobility::QFeedbackFileInterface*>::at(int) const 0x0000ace9   Thumb Code    22  qfeedbackplugin.o(t._ZNK5QListIPN10QtMobility22QFeedbackFileInterfaceEE2atEi)
    QList<QtMobility::QFeedbackFileInterface*>::count() const 0x0000acff   Thumb Code    16  qfeedbackplugin.o(t._ZNK5QListIPN10QtMobility22QFeedbackFileInterfaceEE5countEv)
    QtMobility::QFeedbackActuator::staticMetaObject 0x0000b200   Data          16  qfeedbackactuator.o(.constdata)
    QtMobility::QFeedbackEffect::staticMetaObject 0x0000b3d0   Data          16  qfeedbackeffect.o(.constdata)
    QtMobility::QFeedbackHapticsEffect::staticMetaObject 0x0000b3e0   Data          16  qfeedbackeffect.o(.constdata)
    QtMobility::QFeedbackFileEffect::staticMetaObject 0x0000b3f0   Data          16  qfeedbackeffect.o(.constdata)
    stlp_priv::_Integer_limits<signed char, (signed char)-128, (signed char)127, (int)-1, (bool)1>::digits 0x0000bc3c   Data           4  qfeedbackactuator.o(.constdata__ZN9stlp_priv15_Integer_limitsIaLan128ELa127ELin1ELb1EE6digitsE)
    stlp_priv::_Integer_limits<bool, (bool)0, (bool)1, (int)1, (bool)0>::digits 0x0000bc40   Data           4  qfeedbackactuator.o(.constdata__ZN9stlp_priv15_Integer_limitsIbLb0ELb1ELi1ELb0EE6digitsE)
    stlp_priv::_Integer_limits<char, (char)128, (char)127, (int)-1, (bool)1>::digits 0x0000bc44   Data           4  qfeedbackactuator.o(.constdata__ZN9stlp_priv15_Integer_limitsIcLc128ELc127ELin1ELb1EE6digitsE)
    stlp_priv::_Integer_limits<unsigned char, (unsigned char)0, (unsigned char)255, (int)-1, (bool)1>::digits 0x0000bc48   Data           4  qfeedbackactuator.o(.constdata__ZN9stlp_priv15_Integer_limitsIhLh0ELh255ELin1ELb1EE6digitsE)
    stlp_priv::_Integer_limits<int, (int)-2147483648, (int)2147483647, (int)-1, (bool)1>::digits 0x0000bc4c   Data           4  qfeedbackactuator.o(.constdata__ZN9stlp_priv15_Integer_limitsIiLin2147483648ELi2147483647ELin1ELb1EE6digitsE)
    stlp_priv::_Integer_limits<int, (int)-2147483648, (int)2147483647, (int)-1, (bool)1>::is_signed 0x0000bc50   Data           1  qfeedbackactuator.o(.constdata__ZN9stlp_priv15_Integer_limitsIiLin2147483648ELi2147483647ELin1ELb1EE9is_signedE)
    stlp_priv::_Integer_limits<unsigned, (unsigned)0, (unsigned)4294967295, (int)-1, (bool)1>::digits 0x0000bc54   Data           4  qfeedbackactuator.o(.constdata__ZN9stlp_priv15_Integer_limitsIjLj0ELj4294967295ELin1ELb1EE6digitsE)
    stlp_priv::_Integer_limits<long, (long)-2147483648, (long)2147483647, (int)-1, (bool)1>::digits 0x0000bc58   Data           4  qfeedbackactuator.o(.constdata__ZN9stlp_priv15_Integer_limitsIlLln2147483648ELl2147483647ELin1ELb1EE6digitsE)
    stlp_priv::_Integer_limits<unsigned long, (unsigned long)0, (unsigned long)4294967295, (int)-1, (bool)1>::digits 0x0000bc5c   Data           4  qfeedbackactuator.o(.constdata__ZN9stlp_priv15_Integer_limitsImLm0ELm4294967295ELin1ELb1EE6digitsE)
    stlp_priv::_Integer_limits<short, (short)-32768, (short)32767, (int)-1, (bool)1>::digits 0x0000bc60   Data           4  qfeedbackactuator.o(.constdata__ZN9stlp_priv15_Integer_limitsIsLsn32768ELs32767ELin1ELb1EE6digitsE)
    stlp_priv::_Integer_limits<unsigned short, (unsigned short)0, (unsigned short)65535, (int)-1, (bool)1>::digits 0x0000bc64   Data           4  qfeedbackactuator.o(.constdata__ZN9stlp_priv15_Integer_limitsItLt0ELt65535ELin1ELb1EE6digitsE)
    stlp_priv::_Integer_limits<wchar_t, (wchar_t)0, (wchar_t)65535, (int)-1, (bool)1>::digits 0x0000bc68   Data           4  qfeedbackactuator.o(.constdata__ZN9stlp_priv15_Integer_limitsIwLw0ELw65535ELin1ELb1EE6digitsE)
    stlp_priv::_Integer_limits<long long, (long long)-9223372036854775808, (long long)9223372036854775807, (int)-1, (bool)1>::digits 0x0000bc6c   Data           4  qfeedbackactuator.o(.constdata__ZN9stlp_priv15_Integer_limitsIxLxn9223372036854775808ELx9223372036854775807ELin1ELb1EE6digitsE)
    stlp_priv::_Integer_limits<unsigned long long, (unsigned long long)0, (unsigned long long)18446744073709551615, (int)-1, (bool)1>::digits 0x0000bc70   Data           4  qfeedbackactuator.o(.constdata__ZN9stlp_priv15_Integer_limitsIyLy0ELy18446744073709551615ELin1ELb1EE6digitsE)
    typeinfo for QtMobility::FileBackend     0x0000bc74   Data          12  qfeedbackplugin.o(.constdata__ZTIN10QtMobility11FileBackendE)
    typeinfo for QtMobility::QDummyBackend   0x0000bc80   Data          32  qfeedbackplugin.o(.constdata__ZTIN10QtMobility13QDummyBackendE)
    typeinfo for QtMobility::QFeedbackEffect 0x0000bca0   Data          12  qfeedbackeffect.o(.constdata__ZTIN10QtMobility15QFeedbackEffectE)
    typeinfo for QtMobility::QFeedbackActuator 0x0000bcac   Data          12  qfeedbackactuator.o(.constdata__ZTIN10QtMobility17QFeedbackActuatorE)
    typeinfo for QtMobility::QFeedbackInterface 0x0000bcb8   Data           8  qfeedbackplugin.o(.constdata__ZTIN10QtMobility18QFeedbackInterfaceE)
    typeinfo for QtMobility::QFeedbackFileEffect 0x0000bcc0   Data          12  qfeedbackeffect.o(.constdata__ZTIN10QtMobility19QFeedbackFileEffectE)
    typeinfo for QtMobility::QFeedbackFileInterface 0x0000bccc   Data          12  qfeedbackplugin.o(.constdata__ZTIN10QtMobility22QFeedbackFileInterfaceE)
    typeinfo for QtMobility::QFeedbackHapticsEffect 0x0000bcd8   Data          12  qfeedbackeffect.o(.constdata__ZTIN10QtMobility22QFeedbackHapticsEffectE)
    typeinfo for QtMobility::QFeedbackHapticsInterface 0x0000bce4   Data          12  qfeedbackplugin.o(.constdata__ZTIN10QtMobility25QFeedbackHapticsInterfaceE)
    typeinfo name for QtMobility::FileBackend 0x0000bcf0   Data          28  qfeedbackplugin.o(.constdata__ZTSN10QtMobility11FileBackendE)
    typeinfo name for QtMobility::QDummyBackend 0x0000bd0c   Data          30  qfeedbackplugin.o(.constdata__ZTSN10QtMobility13QDummyBackendE)
    typeinfo name for QtMobility::QFeedbackEffect 0x0000bd2a   Data          32  qfeedbackeffect.o(.constdata__ZTSN10QtMobility15QFeedbackEffectE)
    typeinfo name for QtMobility::QFeedbackActuator 0x0000bd4a   Data          34  qfeedbackactuator.o(.constdata__ZTSN10QtMobility17QFeedbackActuatorE)
    typeinfo name for QtMobility::QFeedbackInterface 0x0000bd6c   Data          35  qfeedbackplugin.o(.constdata__ZTSN10QtMobility18QFeedbackInterfaceE)
    typeinfo name for QtMobility::QFeedbackFileEffect 0x0000bd8f   Data          36  qfeedbackeffect.o(.constdata__ZTSN10QtMobility19QFeedbackFileEffectE)
    typeinfo name for QtMobility::QFeedbackFileInterface 0x0000bdb3   Data          39  qfeedbackplugin.o(.constdata__ZTSN10QtMobility22QFeedbackFileInterfaceE)
    typeinfo name for QtMobility::QFeedbackHapticsEffect 0x0000bdda   Data          39  qfeedbackeffect.o(.constdata__ZTSN10QtMobility22QFeedbackHapticsEffectE)
    typeinfo name for QtMobility::QFeedbackHapticsInterface 0x0000be01   Data          42  qfeedbackplugin.o(.constdata__ZTSN10QtMobility25QFeedbackHapticsInterfaceE)
    vtable for QtMobility::FileBackend       0x0000be2c   Data          36  qfeedbackplugin.o(.constdata__ZTVN10QtMobility11FileBackendE)
    vtable for QtMobility::QDummyBackend     0x0000be50   Data         136  qfeedbackplugin.o(.constdata__ZTVN10QtMobility13QDummyBackendE)
    vtable for QtMobility::QFeedbackEffect   0x0000bed8   Data          68  qfeedbackeffect.o(.constdata__ZTVN10QtMobility15QFeedbackEffectE)
    vtable for QtMobility::QFeedbackActuator 0x0000bf1c   Data          56  qfeedbackactuator.o(.constdata__ZTVN10QtMobility17QFeedbackActuatorE)
    vtable for QtMobility::QFeedbackFileEffect 0x0000bf54   Data          68  qfeedbackeffect.o(.constdata__ZTVN10QtMobility19QFeedbackFileEffectE)
    vtable for QtMobility::QFeedbackFileInterface 0x0000bf98   Data          36  qfeedbackplugin.o(.constdata__ZTVN10QtMobility22QFeedbackFileInterfaceE)
    vtable for QtMobility::QFeedbackHapticsEffect 0x0000bfbc   Data          68  qfeedbackeffect.o(.constdata__ZTVN10QtMobility22QFeedbackHapticsEffectE)
    vtable for QtMobility::QFeedbackHapticsInterface 0x0000c000   Data          48  qfeedbackplugin.o(.constdata__ZTVN10QtMobility25QFeedbackHapticsInterfaceE)
    .ARM.exidx$$Base                         0x0000c030   Number         0  ucppinit.o(.ARM.exidx)
    .ARM.exidx$$Limit                        0x0000c4b8   Number         0  qfeedbackplugin.o(.ARM.exidx)
    Image$$ER_RO$$Limit                      0x0000c4b8   Number         0  anon$$obj.o(linker$$defined$$symbols)
    __dso_handle                             0x00400010   Data           4  ucppfini.o(.data)
    std::_Atomic_swap_struct<(int)1>::_S_swap_lock 0x00400014   Data          12  qfeedbackactuator.o(.data__ZNSt19_Atomic_swap_structILi1EE12_S_swap_lockE)
    dtor_rec                                 0x00400020   Data        2048  ucppfini.o(.bss)

