ARM Linker, RVCT2.2 [Build 686]

================================================================================

Image Symbol Table

    Local Symbols

    Symbol Name                              Value     Ov Type        Size  Object(Section)

    ../../unhosted.s                         0x00000000   Number         0  switch8.o ABSOLUTE
    M:\\epoc32\\build\\euser\\c_e18a23aea4fd210f\\edll_lib\\armv5\\udeb\\uc_dll_.cpp 0x00000000   Number         0  uc_dll_.o ABSOLUTE
    M:\\sf\\os\\kernelhwsrv\\kernel\\eka\\compsupp\\rvct\\ucppinit.cpp 0x00000000   Number         0  ucppinit.o ABSOLUTE
    M:\epoc32\build\euser\c_e18a23aea4fd210f\edll_lib\armv5\udeb\uc_dll_.cpp 0x00000000   Number         0  uc_dll_.o ABSOLUTE
    M:\sf\os\kernelhwsrv\kernel\eka\compsupp\rvct\dllexp.cpp 0x00000000   Number         0  dllexp.o ABSOLUTE
    M:\sf\os\kernelhwsrv\kernel\eka\compsupp\rvct\ucppinit.cpp 0x00000000   Number         0  ucppinit.o ABSOLUTE
    M:\sf\os\kernelhwsrv\kernel\eka\euser\epoc\arm\uc_dll.cpp 0x00000000   Number         0  uc_dll.o ABSOLUTE
    S:\sf\mw\qtmobility\src\gallery\qabstractgallery.cpp 0x00000000   Number         0  qabstractgallery.o ABSOLUTE
    S:\sf\mw\qtmobility\src\gallery\qdocumentgallery.cpp 0x00000000   Number         0  qdocumentgallery.o ABSOLUTE
    S:\sf\mw\qtmobility\src\gallery\qgalleryabstractrequest.cpp 0x00000000   Number         0  qgalleryabstractrequest.o ABSOLUTE
    S:\sf\mw\qtmobility\src\gallery\qgalleryabstractresponse.cpp 0x00000000   Number         0  qgalleryabstractresponse.o ABSOLUTE
    S:\sf\mw\qtmobility\src\gallery\qgalleryfilter.cpp 0x00000000   Number         0  qgalleryfilter.o ABSOLUTE
    S:\sf\mw\qtmobility\src\gallery\qgalleryitemrequest.cpp 0x00000000   Number         0  qgalleryitemrequest.o ABSOLUTE
    S:\sf\mw\qtmobility\src\gallery\qgalleryquerymodel.cpp 0x00000000   Number         0  qgalleryquerymodel.o ABSOLUTE
    S:\sf\mw\qtmobility\src\gallery\qgalleryqueryrequest.cpp 0x00000000   Number         0  qgalleryqueryrequest.o ABSOLUTE
    S:\sf\mw\qtmobility\src\gallery\qgalleryresource.cpp 0x00000000   Number         0  qgalleryresource.o ABSOLUTE
    S:\sf\mw\qtmobility\src\gallery\qgalleryresultset.cpp 0x00000000   Number         0  qgalleryresultset.o ABSOLUTE
    S:\sf\mw\qtmobility\src\gallery\qgallerytyperequest.cpp 0x00000000   Number         0  qgallerytyperequest.o ABSOLUTE
    S:\sf\mw\qtmobility\src\gallery\symbian\qdocumentgallery_symbian.cpp 0x00000000   Number         0  qdocumentgallery_symbian.o ABSOLUTE
    S:\sf\mw\qtmobility\src\gallery\symbian\qgallerymdsutility.cpp 0x00000000   Number         0  qgallerymdsutility.o ABSOLUTE
    S:\sf\mw\qtmobility\src\gallery\symbian\qmdegallerycategoryresultset.cpp 0x00000000   Number         0  qmdegallerycategoryresultset.o ABSOLUTE
    S:\sf\mw\qtmobility\src\gallery\symbian\qmdegalleryitemresultset.cpp 0x00000000   Number         0  qmdegalleryitemresultset.o ABSOLUTE
    S:\sf\mw\qtmobility\src\gallery\symbian\qmdegalleryqueryresultset.cpp 0x00000000   Number         0  qmdegalleryqueryresultset.o ABSOLUTE
    S:\sf\mw\qtmobility\src\gallery\symbian\qmdegalleryresultset.cpp 0x00000000   Number         0  qmdegalleryresultset.o ABSOLUTE
    S:\sf\mw\qtmobility\src\gallery\symbian\qmdegallerytyperesultset.cpp 0x00000000   Number         0  qmdegallerytyperesultset.o ABSOLUTE
    S:\sf\mw\qtmobility\src\gallery\symbian\qmdesession.cpp 0x00000000   Number         0  qmdesession.o ABSOLUTE
    .emb_text                                0x00008000   Section       40  uc_dll_.o(.emb_text)
    Symbian$$eit_base                        0x00008014   Data           4  uc_dll_.o(.emb_text)
    Symbian$$eit_limit                       0x00008018   Data           4  uc_dll_.o(.emb_text)
    Symbian$$code_seg_base                   0x0000801c   Data           4  uc_dll_.o(.emb_text)
    Symbian$$code_seg_limit                  0x00008020   Data           4  uc_dll_.o(.emb_text)
    Symbian$$reserved                        0x00008024   Data           4  uc_dll_.o(.emb_text)
    .emb_text                                0x00008028   Section       52  ucppinit.o(.emb_text)
    loop                                     0x0000803c   ARM Code       0  ucppinit.o(.emb_text)
    ret                                      0x00008044   ARM Code       0  ucppinit.o(.emb_text)
    base                                     0x00008054   Data           0  ucppinit.o(.emb_text)
    limit                                    0x00008058   Data           0  ucppinit.o(.emb_text)
    .text                                    0x0000879c   Section      252  qabstractgallery.o(.text)
    .text                                    0x00008898   Section     3840  qgalleryabstractrequest.o(.text)
    .text                                    0x00009798   Section     1044  qgalleryabstractresponse.o(.text)
    .text                                    0x00009bac   Section     3416  qgalleryfilter.o(.text)
    .text                                    0x0000a904   Section     2538  qgalleryitemrequest.o(.text)
    .text                                    0x0000b2f0   Section     6656  qgalleryquerymodel.o(.text)
    .text                                    0x0000ccf0   Section     2892  qgalleryqueryrequest.o(.text)
    .text                                    0x0000d83c   Section      368  qgalleryresource.o(.text)
    .text                                    0x0000d9ac   Section      848  qgalleryresultset.o(.text)
    .text                                    0x0000dcfc   Section     2198  qgallerytyperequest.o(.text)
    .text                                    0x0000e594   Section     1544  qmdegalleryresultset.o(.text)
    .text                                    0x0000eb9c   Section    29716  qgallerymdsutility.o(.text)
    .text                                    0x00015fb0   Section     1390  qmdegallerytyperesultset.o(.text)
    .text                                    0x00016520   Section     1282  qmdegalleryitemresultset.o(.text)
    .text                                    0x00016a24   Section     2684  qmdegalleryqueryresultset.o(.text)
    .text                                    0x000174a0   Section     5388  qmdegallerycategoryresultset.o(.text)
    QtMobility::<unnamed>::qt_getRelationDef(CMdENamespaceDef&, const TDesC16&) 0x0001751f   Thumb Code    82  qmdegallerycategoryresultset.o(.text)
    QtMobility::<unnamed>::qt_appendScopeCondition(CMdELogicCondition*, unsigned, CMdENamespaceDef&) 0x00017571   Thumb Code   120  qmdegallerycategoryresultset.o(.text)
    QtMobility::<unnamed>::qt_getPropertyDef(CMdENamespaceDef&, const TDesC16&, const TDesC16&) 0x000175e9   Thumb Code    92  qmdegallerycategoryresultset.o(.text)
    QtMobility::<unnamed>::qt_appendScopeCondition(CMdELogicCondition*, const QtMobility::<unnamed>::QMdeGalleryCategoryType&, const QString&, CMdENamespaceDef&) 0x00017645   Thumb Code   128  qmdegallerycategoryresultset.o(.text)
    QtMobility::<unnamed>::qt_indexOf<QStringRef, (int)4>(const T1&, const QtMobility::<unnamed>::QMdeGalleryCategoryType(&)[T2]) 0x000176c5   Thumb Code    50  qmdegallerycategoryresultset.o(.text)
    QtMobility::<unnamed>::qt_addPropertyFilter(CMdEObjectQuery*, const CMdEPropertyDef&) 0x000177bd   Thumb Code    80  qmdegallerycategoryresultset.o(.text)
    QtMobility::<unnamed>::qt_getPropertyDef(CMdEObjectDef&, const TDesC16&) 0x0001780d   Thumb Code   116  qmdegallerycategoryresultset.o(.text)
    QtMobility::<unnamed>::qt_getObjectDef(CMdENamespaceDef&, const TDesC16&) 0x00017881   Thumb Code    82  qmdegallerycategoryresultset.o(.text)
    QtMobility::<unnamed>::qt_indexOf<QString, (int)4>(const T1&, const QtMobility::<unnamed>::QMdeGalleryCategoryType(&)[T2]) 0x000178d3   Thumb Code    50  qmdegallerycategoryresultset.o(.text)
    QtMobility::<unnamed>::qt_contains<QString>(const T1&, const QtMobility::<unnamed>::QMdeGalleryCategoryType&) 0x00017a53   Thumb Code    54  qmdegallerycategoryresultset.o(.text)
    QtMobility::<unnamed>::qt_contains<QStringRef>(const T1&, const QtMobility::<unnamed>::QMdeGalleryCategoryType&) 0x00017a89   Thumb Code    56  qmdegallerycategoryresultset.o(.text)
    QtMobility::<unnamed>::qt_setSortOrder(CMdEObjectQuery*, const QStringList&, const QtMobility::<unnamed>::QMdeGalleryCategoryType&, CMdENamespaceDef&) 0x00017ac1   Thumb Code   384  qmdegallerycategoryresultset.o(.text)
    QtMobility::<unnamed>::qt_appendCondition(CMdELogicCondition*, const QtMobility::QGalleryMetaDataFilter&, const QtMobility::<unnamed>::QMdeGalleryCategoryType&, const CMdEPropertyDef&) 0x00017c41   Thumb Code   454  qmdegallerycategoryresultset.o(.text)
    QtMobility::<unnamed>::qt_appendConditions(CMdELogicCondition*, const QList<QtMobility::QGalleryFilter>&, const QtMobility::<unnamed>::QMdeGalleryCategoryType&, const CMdEPropertyDef&) 0x00017e07   Thumb Code   462  qmdegallerycategoryresultset.o(.text)
    QtMobility::<unnamed>::qt_appendFilterCondition(CMdELogicCondition*, const QtMobility::QGalleryFilter&, const QtMobility::<unnamed>::QMdeGalleryCategoryType&, const CMdEPropertyDef&) 0x00017fd5   Thumb Code   250  qmdegallerycategoryresultset.o(.text)
    QtMobility::<unnamed>::qt_filterMdeCategoryPropertyNames(const QString&, const QStringList&) 0x000180cf   Thumb Code   158  qmdegallerycategoryresultset.o(.text)
    QtMobility::<unnamed>::qt_arrayLength<const char*, (int)2>(const T1(&)[T2]) 0x00018935   Thumb Code     6  qmdegallerycategoryresultset.o(.text)
    QtMobility::<unnamed>::qt_arrayLength<const char*, (int)3>(const T1(&)[T2]) 0x0001893b   Thumb Code     6  qmdegallerycategoryresultset.o(.text)
    __sti___32_qmdegallerycategoryresultset_cpp 0x00018941   Thumb Code   100  qmdegallerycategoryresultset.o(.text)
    .text                                    0x000189ac   Section     1552  qmdesession.o(.text)
    .text                                    0x00018fbc   Section     1474  qdocumentgallery_symbian.o(.text)
    .text                                    0x00019580   Section       24  switch8.o(.text)
    .text                                    0x00019598   Section       80  uc_dll.o(.text)
    .text                                    0x000195e8   Section        4  dllexp.o(.text)
    .text.clean                              0x000195ec   Section       18  qabstractgallery.o(.text.clean)
    .text.clean                              0x000195fe   Section      186  qgalleryabstractrequest.o(.text.clean)
    .text.clean                              0x000196b8   Section       64  qgalleryabstractresponse.o(.text.clean)
    .text.clean                              0x000196f8   Section      544  qgalleryfilter.o(.text.clean)
    .text.clean                              0x00019918   Section       70  qgalleryitemrequest.o(.text.clean)
    .text.clean                              0x0001995e   Section      320  qgalleryquerymodel.o(.text.clean)
    .text.clean                              0x00019a9e   Section      102  qgalleryqueryrequest.o(.text.clean)
    .text.clean                              0x00019b04   Section       50  qgalleryresource.o(.text.clean)
    .text.clean                              0x00019b36   Section       36  qgalleryresultset.o(.text.clean)
    .text.clean                              0x00019b5a   Section       46  qgallerytyperequest.o(.text.clean)
    .text.clean                              0x00019b88   Section      156  qmdegalleryresultset.o(.text.clean)
    .text.clean                              0x00019c24   Section     2638  qgallerymdsutility.o(.text.clean)
    .text.clean                              0x0001a672   Section      170  qmdegallerytyperesultset.o(.text.clean)
    .text.clean                              0x0001a71c   Section      110  qmdegalleryitemresultset.o(.text.clean)
    .text.clean                              0x0001a78a   Section      178  qmdegalleryqueryresultset.o(.text.clean)
    .text.clean                              0x0001a83c   Section      668  qmdegallerycategoryresultset.o(.text.clean)
    .text.clean                              0x0001aad8   Section      110  qmdesession.o(.text.clean)
    .text.clean                              0x0001ab46   Section      308  qdocumentgallery_symbian.o(.text.clean)
    i._ZN10QByteArrayD1Ev                    0x0001ac7a   Section       24  qgalleryfilter.o(i._ZN10QByteArrayD1Ev)
    i._ZN10QStringRefD1Ev                    0x0001ac92   Section        2  qmdegallerycategoryresultset.o(i._ZN10QStringRefD1Ev)
    i._ZN10QtMobility21QGalleryFilterPrivateC2ENS_14QGalleryFilter4TypeE 0x0001ac94   Section       24  qgalleryfilter.o(i._ZN10QtMobility21QGalleryFilterPrivateC2ENS_14QGalleryFilter4TypeE)
    i._ZN10QtMobility21QGalleryFilterPrivateC2ERKS0_ 0x0001acac   Section       40  qgalleryfilter.o(i._ZN10QtMobility21QGalleryFilterPrivateC2ERKS0_)
    i._ZN10QtMobility21QGalleryFilterPrivateD0Ev 0x0001acd4   Section       18  qgalleryfilter.o(i._ZN10QtMobility21QGalleryFilterPrivateD0Ev)
    i._ZN10QtMobility21QGalleryFilterPrivateD2Ev 0x0001ace6   Section        2  qgalleryfilter.o(i._ZN10QtMobility21QGalleryFilterPrivateD2Ev)
    i._ZN10QtMobility21QGalleryNullResultSet11setMetaDataEiRK8QVariant 0x0001ace8   Section        6  qgalleryitemrequest.o(i._ZN10QtMobility21QGalleryNullResultSet11setMetaDataEiRK8QVariant)
    i._ZN10QtMobility21QGalleryNullResultSet5fetchEi 0x0001acee   Section        6  qgalleryitemrequest.o(i._ZN10QtMobility21QGalleryNullResultSet5fetchEi)
    i._ZN10QtMobility21QGalleryNullResultSetD0Ev 0x0001acf4   Section       22  qgalleryitemrequest.o(i._ZN10QtMobility21QGalleryNullResultSetD0Ev)
    i._ZN10QtMobility21QGalleryNullResultSetD1Ev 0x0001ad0a   Section       14  qgalleryitemrequest.o(i._ZN10QtMobility21QGalleryNullResultSetD1Ev)
    i._ZN10QtMobility23QAbstractGalleryPrivateD0Ev 0x0001ad18   Section       18  qdocumentgallery_symbian.o(i._ZN10QtMobility23QAbstractGalleryPrivateD0Ev)
    i._ZN10QtMobility23QAbstractGalleryPrivateD1Ev 0x0001ad2a   Section        2  qdocumentgallery_symbian.o(i._ZN10QtMobility23QAbstractGalleryPrivateD1Ev)
    i._ZN10QtMobility23QDocumentGalleryPrivateD0Ev 0x0001ad2c   Section       18  qdocumentgallery_symbian.o(i._ZN10QtMobility23QDocumentGalleryPrivateD0Ev)
    i._ZN10QtMobility23QDocumentGalleryPrivateD1Ev 0x0001ad3e   Section        2  qdocumentgallery_symbian.o(i._ZN10QtMobility23QDocumentGalleryPrivateD1Ev)
    i._ZN10QtMobility23QGalleryAbstractRequest2trEPKcS2_ 0x0001ad40   Section       28  qgalleryabstractrequest.o(i._ZN10QtMobility23QGalleryAbstractRequest2trEPKcS2_)
    i._ZN10QtMobility24QGalleryResultSetPrivateD0Ev 0x0001ad5c   Section       28  qgalleryresultset.o(i._ZN10QtMobility24QGalleryResultSetPrivateD0Ev)
    i._ZN10QtMobility24QGalleryResultSetPrivateD1Ev 0x0001ad78   Section       14  qgalleryresultset.o(i._ZN10QtMobility24QGalleryResultSetPrivateD1Ev)
    i._ZN10QtMobility25QGalleryQueryModelPrivate9setObjectEPNS_18QGalleryQueryModelE 0x0001ad88   Section      656  qgalleryquerymodel.o(i._ZN10QtMobility25QGalleryQueryModelPrivate9setObjectEPNS_18QGalleryQueryModelE)
    i._ZN10QtMobility25QGalleryQueryModelPrivateC1EPNS_16QAbstractGalleryE 0x0001b018   Section      120  qgalleryquerymodel.o(i._ZN10QtMobility25QGalleryQueryModelPrivateC1EPNS_16QAbstractGalleryE)
    i._ZN10QtMobility25QGalleryQueryModelPrivateC1EPNS_16QAbstractGalleryE.clean 0x0001b090   Section       60  qgalleryquerymodel.o(i._ZN10QtMobility25QGalleryQueryModelPrivateC1EPNS_16QAbstractGalleryE.clean)
    i._ZN10QtMobility26QGalleryItemRequestPrivateC1EPNS_16QAbstractGalleryE 0x0001b0cc   Section      192  qgalleryitemrequest.o(i._ZN10QtMobility26QGalleryItemRequestPrivateC1EPNS_16QAbstractGalleryE)
    i._ZN10QtMobility26QGalleryItemRequestPrivateC1EPNS_16QAbstractGalleryE.clean 0x0001b18c   Section       70  qgalleryitemrequest.o(i._ZN10QtMobility26QGalleryItemRequestPrivateC1EPNS_16QAbstractGalleryE.clean)
    i._ZN10QtMobility26QGalleryItemRequestPrivateD0Ev 0x0001b1d2   Section       22  qgalleryitemrequest.o(i._ZN10QtMobility26QGalleryItemRequestPrivateD0Ev)
    i._ZN10QtMobility26QGalleryItemRequestPrivateD1Ev 0x0001b1e8   Section       72  qgalleryitemrequest.o(i._ZN10QtMobility26QGalleryItemRequestPrivateD1Ev)
    i._ZN10QtMobility26QGalleryItemRequestPrivateD1Ev.clean 0x0001b230   Section       46  qgalleryitemrequest.o(i._ZN10QtMobility26QGalleryItemRequestPrivateD1Ev.clean)
    i._ZN10QtMobility26QGalleryTypeRequestPrivateC1EPNS_16QAbstractGalleryE 0x0001b260   Section      192  qgallerytyperequest.o(i._ZN10QtMobility26QGalleryTypeRequestPrivateC1EPNS_16QAbstractGalleryE)
    i._ZN10QtMobility26QGalleryTypeRequestPrivateC1EPNS_16QAbstractGalleryE.clean 0x0001b320   Section       70  qgallerytyperequest.o(i._ZN10QtMobility26QGalleryTypeRequestPrivateC1EPNS_16QAbstractGalleryE.clean)
    i._ZN10QtMobility26QGalleryTypeRequestPrivateD0Ev 0x0001b366   Section       22  qgallerytyperequest.o(i._ZN10QtMobility26QGalleryTypeRequestPrivateD0Ev)
    i._ZN10QtMobility26QGalleryTypeRequestPrivateD1Ev 0x0001b37c   Section       72  qgallerytyperequest.o(i._ZN10QtMobility26QGalleryTypeRequestPrivateD1Ev)
    i._ZN10QtMobility26QGalleryTypeRequestPrivateD1Ev.clean 0x0001b3c4   Section       46  qgallerytyperequest.o(i._ZN10QtMobility26QGalleryTypeRequestPrivateD1Ev.clean)
    i._ZN10QtMobility26QGalleryUnionFilterPrivateC1ENS_14QGalleryFilter4TypeE 0x0001b3f4   Section       40  qgalleryfilter.o(i._ZN10QtMobility26QGalleryUnionFilterPrivateC1ENS_14QGalleryFilter4TypeE)
    i._ZN10QtMobility26QGalleryUnionFilterPrivateC1ENS_14QGalleryFilter4TypeE.clean 0x0001b41c   Section       10  qgalleryfilter.o(i._ZN10QtMobility26QGalleryUnionFilterPrivateC1ENS_14QGalleryFilter4TypeE.clean)
    i._ZN10QtMobility26QGalleryUnionFilterPrivateD0Ev 0x0001b426   Section       22  qgalleryfilter.o(i._ZN10QtMobility26QGalleryUnionFilterPrivateD0Ev)
    i._ZN10QtMobility26QGalleryUnionFilterPrivateD1Ev 0x0001b43c   Section       28  qgalleryfilter.o(i._ZN10QtMobility26QGalleryUnionFilterPrivateD1Ev)
    i._ZN10QtMobility26QGalleryUnionFilterPrivateD1Ev.clean 0x0001b458   Section       10  qgalleryfilter.o(i._ZN10QtMobility26QGalleryUnionFilterPrivateD1Ev.clean)
    i._ZN10QtMobility27QGalleryQueryRequestPrivateC1EPNS_16QAbstractGalleryE 0x0001b464   Section      208  qgalleryqueryrequest.o(i._ZN10QtMobility27QGalleryQueryRequestPrivateC1EPNS_16QAbstractGalleryE)
    i._ZN10QtMobility27QGalleryQueryRequestPrivateC1EPNS_16QAbstractGalleryE.clean 0x0001b534   Section       94  qgalleryqueryrequest.o(i._ZN10QtMobility27QGalleryQueryRequestPrivateC1EPNS_16QAbstractGalleryE.clean)
    i._ZN10QtMobility27QGalleryQueryRequestPrivateD0Ev 0x0001b592   Section       22  qgalleryqueryrequest.o(i._ZN10QtMobility27QGalleryQueryRequestPrivateD0Ev)
    i._ZN10QtMobility27QGalleryQueryRequestPrivateD1Ev 0x0001b5a8   Section       96  qgalleryqueryrequest.o(i._ZN10QtMobility27QGalleryQueryRequestPrivateD1Ev)
    i._ZN10QtMobility27QGalleryQueryRequestPrivateD1Ev.clean 0x0001b608   Section       70  qgalleryqueryrequest.o(i._ZN10QtMobility27QGalleryQueryRequestPrivateD1Ev.clean)
    i._ZN10QtMobility28QGalleryInvalidFilterPrivateD0Ev 0x0001b64e   Section       18  qgalleryfilter.o(i._ZN10QtMobility28QGalleryInvalidFilterPrivateD0Ev)
    i._ZN10QtMobility28QGalleryInvalidFilterPrivateD1Ev 0x0001b660   Section        2  qgalleryfilter.o(i._ZN10QtMobility28QGalleryInvalidFilterPrivateD1Ev)
    i._ZN10QtMobility29QGalleryMetaDataFilterPrivateC1ENS_14QGalleryFilter4TypeE 0x0001b664   Section      104  qgalleryfilter.o(i._ZN10QtMobility29QGalleryMetaDataFilterPrivateC1ENS_14QGalleryFilter4TypeE)
    i._ZN10QtMobility29QGalleryMetaDataFilterPrivateC1ENS_14QGalleryFilter4TypeE.clean 0x0001b6cc   Section       10  qgalleryfilter.o(i._ZN10QtMobility29QGalleryMetaDataFilterPrivateC1ENS_14QGalleryFilter4TypeE.clean)
    i._ZN10QtMobility29QGalleryMetaDataFilterPrivateD0Ev 0x0001b6d6   Section       22  qgalleryfilter.o(i._ZN10QtMobility29QGalleryMetaDataFilterPrivateD0Ev)
    i._ZN10QtMobility29QGalleryMetaDataFilterPrivateD1Ev 0x0001b6ec   Section       40  qgalleryfilter.o(i._ZN10QtMobility29QGalleryMetaDataFilterPrivateD1Ev)
    i._ZN10QtMobility29QGalleryMetaDataFilterPrivateD1Ev.clean 0x0001b714   Section       22  qgalleryfilter.o(i._ZN10QtMobility29QGalleryMetaDataFilterPrivateD1Ev.clean)
    i._ZN10QtMobility30QGalleryAbstractRequestPrivateC1EPNS_16QAbstractGalleryENS_23QGalleryAbstractRequest11RequestTypeE 0x0001b72c   Section       76  qgalleryabstractrequest.o(i._ZN10QtMobility30QGalleryAbstractRequestPrivateC1EPNS_16QAbstractGalleryENS_23QGalleryAbstractRequest11RequestTypeE)
    i._ZN10QtMobility30QGalleryAbstractRequestPrivateC1EPNS_16QAbstractGalleryENS_23QGalleryAbstractRequest11RequestTypeE.clean 0x0001b778   Section       24  qgalleryabstractrequest.o(i._ZN10QtMobility30QGalleryAbstractRequestPrivateC1EPNS_16QAbstractGalleryENS_23QGalleryAbstractRequest11RequestTypeE.clean)
    i._ZN10QtMobility30QGalleryAbstractRequestPrivateD0Ev 0x0001b790   Section       22  qgalleryabstractrequest.o(i._ZN10QtMobility30QGalleryAbstractRequestPrivateD0Ev)
    i._ZN10QtMobility30QGalleryAbstractRequestPrivateD1Ev 0x0001b7a8   Section       52  qgalleryabstractrequest.o(i._ZN10QtMobility30QGalleryAbstractRequestPrivateD1Ev)
    i._ZN10QtMobility30QGalleryAbstractRequestPrivateD1Ev.clean 0x0001b7dc   Section       24  qgalleryabstractrequest.o(i._ZN10QtMobility30QGalleryAbstractRequestPrivateD1Ev.clean)
    i._ZN10QtMobility31QGalleryAbstractResponsePrivateC1Ev 0x0001b7f4   Section       52  qgalleryabstractresponse.o(i._ZN10QtMobility31QGalleryAbstractResponsePrivateC1Ev)
    i._ZN10QtMobility31QGalleryAbstractResponsePrivateD0Ev 0x0001b828   Section       22  qgalleryabstractresponse.o(i._ZN10QtMobility31QGalleryAbstractResponsePrivateD0Ev)
    i._ZN10QtMobility31QGalleryAbstractResponsePrivateD1Ev 0x0001b840   Section       28  qgalleryabstractresponse.o(i._ZN10QtMobility31QGalleryAbstractResponsePrivateD1Ev)
    i._ZN10QtMobility33QGalleryIntersectionFilterPrivateC1ENS_14QGalleryFilter4TypeE 0x0001b85c   Section       40  qgalleryfilter.o(i._ZN10QtMobility33QGalleryIntersectionFilterPrivateC1ENS_14QGalleryFilter4TypeE)
    i._ZN10QtMobility33QGalleryIntersectionFilterPrivateC1ENS_14QGalleryFilter4TypeE.clean 0x0001b884   Section       10  qgalleryfilter.o(i._ZN10QtMobility33QGalleryIntersectionFilterPrivateC1ENS_14QGalleryFilter4TypeE.clean)
    i._ZN10QtMobility33QGalleryIntersectionFilterPrivateD0Ev 0x0001b88e   Section       22  qgalleryfilter.o(i._ZN10QtMobility33QGalleryIntersectionFilterPrivateD0Ev)
    i._ZN10QtMobility33QGalleryIntersectionFilterPrivateD1Ev 0x0001b8a4   Section       28  qgalleryfilter.o(i._ZN10QtMobility33QGalleryIntersectionFilterPrivateD1Ev)
    i._ZN10QtMobility33QGalleryIntersectionFilterPrivateD1Ev.clean 0x0001b8c0   Section       10  qgalleryfilter.o(i._ZN10QtMobility33QGalleryIntersectionFilterPrivateD1Ev.clean)
    i._ZN11QModelIndexC1Ev                   0x0001b8ca   Section       16  qgalleryquerymodel.o(i._ZN11QModelIndexC1Ev)
    i._ZN11QModelIndexD1Ev                   0x0001b8da   Section        8  qgalleryquerymodel.o(i._ZN11QModelIndexD1Ev)
    i._ZN11QStringListC1ERKS_                0x0001b8e2   Section       38  qgalleryqueryrequest.o(i._ZN11QStringListC1ERKS_)
    i._ZN11QStringListC1Ev                   0x0001b908   Section       24  qgalleryqueryrequest.o(i._ZN11QStringListC1Ev)
    i._ZN11QStringListD1Ev                   0x0001b920   Section       14  qgalleryitemrequest.o(i._ZN11QStringListD1Ev)
    i._ZN11QStringListaSERKS_                0x0001b92e   Section       66  qgalleryitemrequest.o(i._ZN11QStringListaSERKS_)
    i._ZN15QBasicAtomicInt3refEv             0x0001b970   Section       24  qgalleryabstractrequest.o(i._ZN15QBasicAtomicInt3refEv)
    i._ZN15QBasicAtomicInt5derefEv           0x0001b988   Section       24  qgalleryabstractrequest.o(i._ZN15QBasicAtomicInt5derefEv)
    i._ZN6QDebug10maybeSpaceEv               0x0001b9a0   Section       24  qgalleryfilter.o(i._ZN6QDebug10maybeSpaceEv)
    i._ZN6QDebugC1ERKS_                      0x0001b9b8   Section       16  qgalleryfilter.o(i._ZN6QDebugC1ERKS_)
    i._ZN6QDebugD1Ev                         0x0001b9c8   Section      154  qgalleryfilter.o(i._ZN6QDebugD1Ev)
    i._ZN6QDebugD1Ev.clean                   0x0001ba62   Section       20  qgalleryfilter.o(i._ZN6QDebugD1Ev.clean)
    i._ZN6QDebuglsEPKc                       0x0001ba76   Section       44  qgalleryfilter.o(i._ZN6QDebuglsEPKc)
    i._ZN6QDebuglsEPKc.clean                 0x0001baa2   Section       10  qgalleryfilter.o(i._ZN6QDebuglsEPKc.clean)
    i._ZN7QStringC1ERKS_                     0x0001baac   Section       22  qgalleryfilter.o(i._ZN7QStringC1ERKS_)
    i._ZN7QStringC1Ev                        0x0001bac4   Section       24  qgalleryabstractrequest.o(i._ZN7QStringC1Ev)
    i._ZN7QStringD1Ev                        0x0001badc   Section       24  qgalleryabstractrequest.o(i._ZN7QStringD1Ev)
    i._ZN7TPtrC163SetERKS_                   0x0001baf4   Section       30  qgallerymdsutility.o(i._ZN7TPtrC163SetERKS_)
    i._ZN8QVariantC1Ev                       0x0001bb12   Section       38  qgalleryitemrequest.o(i._ZN8QVariantC1Ev)
    i._ZN9QHashData8willGrowEv               0x0001bb38   Section       32  qgalleryquerymodel.o(i._ZN9QHashData8willGrowEv)
    i._ZNK10QtMobility12QGalleryType4nameEv  0x0001bb58   Section       18  qgallerymdsutility.o(i._ZNK10QtMobility12QGalleryType4nameEv)
    i._ZNK10QtMobility16QGalleryProperty4nameEv 0x0001bb6a   Section       18  qgallerymdsutility.o(i._ZNK10QtMobility16QGalleryProperty4nameEv)
    i._ZNK10QtMobility21QGalleryNullResultSet11propertyKeyERK7QString 0x0001bb7c   Section        8  qgalleryitemrequest.o(i._ZNK10QtMobility21QGalleryNullResultSet11propertyKeyERK7QString)
    i._ZNK10QtMobility21QGalleryNullResultSet12currentIndexEv 0x0001bb84   Section        8  qgalleryitemrequest.o(i._ZNK10QtMobility21QGalleryNullResultSet12currentIndexEv)
    i._ZNK10QtMobility21QGalleryNullResultSet12propertyTypeEi 0x0001bb8c   Section        6  qgalleryitemrequest.o(i._ZNK10QtMobility21QGalleryNullResultSet12propertyTypeEi)
    i._ZNK10QtMobility21QGalleryNullResultSet18propertyAttributesEi 0x0001bb92   Section       10  qgalleryitemrequest.o(i._ZNK10QtMobility21QGalleryNullResultSet18propertyAttributesEi)
    i._ZNK10QtMobility21QGalleryNullResultSet6itemIdEv 0x0001bb9c   Section       16  qgalleryitemrequest.o(i._ZNK10QtMobility21QGalleryNullResultSet6itemIdEv)
    i._ZNK10QtMobility21QGalleryNullResultSet7itemUrlEv 0x0001bbac   Section       16  qgalleryitemrequest.o(i._ZNK10QtMobility21QGalleryNullResultSet7itemUrlEv)
    i._ZNK10QtMobility21QGalleryNullResultSet8itemTypeEv 0x0001bbbc   Section       16  qgalleryitemrequest.o(i._ZNK10QtMobility21QGalleryNullResultSet8itemTypeEv)
    i._ZNK10QtMobility21QGalleryNullResultSet8metaDataEi 0x0001bbcc   Section       18  qgalleryitemrequest.o(i._ZNK10QtMobility21QGalleryNullResultSet8metaDataEi)
    i._ZNK10QtMobility21QGalleryNullResultSet9itemCountEv 0x0001bbde   Section        6  qgalleryitemrequest.o(i._ZNK10QtMobility21QGalleryNullResultSet9itemCountEv)
    i._ZNK10QtMobility21QGalleryNullResultSet9resourcesEv 0x0001bbe4   Section       28  qgalleryitemrequest.o(i._ZNK10QtMobility21QGalleryNullResultSet9resourcesEv)
    i._ZNK10QtMobility26QGalleryUnionFilterPrivate10printDebugER6QDebug 0x0001bc00   Section      236  qgalleryfilter.o(i._ZNK10QtMobility26QGalleryUnionFilterPrivate10printDebugER6QDebug)
    i._ZNK10QtMobility26QGalleryUnionFilterPrivate10printDebugER6QDebug.clean 0x0001bcec   Section       18  qgalleryfilter.o(i._ZNK10QtMobility26QGalleryUnionFilterPrivate10printDebugER6QDebug.clean)
    i._ZNK10QtMobility26QGalleryUnionFilterPrivate7isEqualERKNS_21QGalleryFilterPrivateE 0x0001bcfe   Section       38  qgalleryfilter.o(i._ZNK10QtMobility26QGalleryUnionFilterPrivate7isEqualERKNS_21QGalleryFilterPrivateE)
    i._ZNK10QtMobility28QGalleryInvalidFilterPrivate10printDebugER6QDebug 0x0001bd24   Section       36  qgalleryfilter.o(i._ZNK10QtMobility28QGalleryInvalidFilterPrivate10printDebugER6QDebug)
    i._ZNK10QtMobility28QGalleryInvalidFilterPrivate7isEqualERKNS_21QGalleryFilterPrivateE 0x0001bd48   Section       18  qgalleryfilter.o(i._ZNK10QtMobility28QGalleryInvalidFilterPrivate7isEqualERKNS_21QGalleryFilterPrivateE)
    i._ZNK10QtMobility29QGalleryMetaDataFilterPrivate10printDebugER6QDebug 0x0001bd5c   Section      284  qgalleryfilter.o(i._ZNK10QtMobility29QGalleryMetaDataFilterPrivate10printDebugER6QDebug)
    i._ZNK10QtMobility29QGalleryMetaDataFilterPrivate10printDebugER6QDebug.clean 0x0001be78   Section       10  qgalleryfilter.o(i._ZNK10QtMobility29QGalleryMetaDataFilterPrivate10printDebugER6QDebug.clean)
    i._ZNK10QtMobility29QGalleryMetaDataFilterPrivate7isEqualERKNS_21QGalleryFilterPrivateE 0x0001be82   Section       84  qgalleryfilter.o(i._ZNK10QtMobility29QGalleryMetaDataFilterPrivate7isEqualERKNS_21QGalleryFilterPrivateE)
    i._ZNK10QtMobility33QGalleryIntersectionFilterPrivate10printDebugER6QDebug 0x0001bed8   Section      240  qgalleryfilter.o(i._ZNK10QtMobility33QGalleryIntersectionFilterPrivate10printDebugER6QDebug)
    i._ZNK10QtMobility33QGalleryIntersectionFilterPrivate10printDebugER6QDebug.clean 0x0001bfc8   Section       18  qgalleryfilter.o(i._ZNK10QtMobility33QGalleryIntersectionFilterPrivate10printDebugER6QDebug.clean)
    i._ZNK10QtMobility33QGalleryIntersectionFilterPrivate7isEqualERKNS_21QGalleryFilterPrivateE 0x0001bfda   Section       38  qgalleryfilter.o(i._ZNK10QtMobility33QGalleryIntersectionFilterPrivate7isEqualERKNS_21QGalleryFilterPrivateE)
    i._ZNK11QModelIndex7isValidEv            0x0001c000   Section       28  qgalleryquerymodel.o(i._ZNK11QModelIndex7isValidEv)
    i._ZNK15QBasicAtomicInteqEi              0x0001c01c   Section       16  qgalleryabstractrequest.o(i._ZNK15QBasicAtomicInteqEi)
    i._ZNK15QBasicAtomicIntneEi              0x0001c02c   Section       16  qgalleryfilter.o(i._ZNK15QBasicAtomicIntneEi)
    i._ZNK18QAbstractItemModel11createIndexEiiPv 0x0001c03c   Section       18  qgalleryquerymodel.o(i._ZNK18QAbstractItemModel11createIndexEiiPv)
    i._ZNK7QString6isNullEv                  0x0001c050   Section       24  qdocumentgallery_symbian.o(i._ZNK7QString6isNullEv)
    i._ZNK7QString7isEmptyEv                 0x0001c068   Section       18  qdocumentgallery_symbian.o(i._ZNK7QString7isEmptyEv)
    i._ZNK7TDesC16eqERKS_                    0x0001c07a   Section       26  qgallerymdsutility.o(i._ZNK7TDesC16eqERKS_)
    i._ZNK7TDesC16neERKS_                    0x0001c094   Section       26  qgallerymdsutility.o(i._ZNK7TDesC16neERKS_)
    i._ZNK8QVariant10isDetachedEv            0x0001c0ae   Section       34  qgallerymdsutility.o(i._ZNK8QVariant10isDetachedEv)
    i._ZNK9QListData2atEi                    0x0001c0d0   Section       20  qgalleryfilter.o(i._ZNK9QListData2atEi)
    i._ZNK9QListData3endEv                   0x0001c0e4   Section       16  qgalleryfilter.o(i._ZNK9QListData3endEv)
    i._ZNK9QListData4sizeEv                  0x0001c0f4   Section       14  qgalleryfilter.o(i._ZNK9QListData4sizeEv)
    i._ZNK9QListData5beginEv                 0x0001c102   Section       16  qgalleryfilter.o(i._ZNK9QListData5beginEv)
    i._ZdlPvS_                               0x0001c112   Section        2  qgalleryitemrequest.o(i._ZdlPvS_)
    i._ZnwjPv                                0x0001c114   Section        6  qgalleryitemrequest.o(i._ZnwjPv)
    i._ZplRK7QString5QChar                   0x0001c11a   Section      128  qmdegallerycategoryresultset.o(i._ZplRK7QString5QChar)
    i._ZplRK7QString5QChar.clean             0x0001c19a   Section       10  qmdegallerycategoryresultset.o(i._ZplRK7QString5QChar.clean)
    t._Z15qMapLessThanKeyIiEbRKT_S2_         0x0001c1a4   Section       18  qgalleryresource.o(t._Z15qMapLessThanKeyIiEbRKT_S2_)
    t._Z16qVariantSetValueI4QUrlEvR8QVariantRKT_ 0x0001c1b6   Section      162  qgallerymdsutility.o(t._Z16qVariantSetValueI4QUrlEvR8QVariantRKT_)
    t._Z16qVariantSetValueI4QUrlEvR8QVariantRKT_.clean 0x0001c258   Section       20  qgallerymdsutility.o(t._Z16qVariantSetValueI4QUrlEvR8QVariantRKT_.clean)
    t._Z16qVariantSetValueI7QStringEvR8QVariantRKT_ 0x0001c26c   Section      162  qgallerymdsutility.o(t._Z16qVariantSetValueI7QStringEvR8QVariantRKT_)
    t._Z16qVariantSetValueI7QStringEvR8QVariantRKT_.clean 0x0001c30e   Section       20  qgallerymdsutility.o(t._Z16qVariantSetValueI7QStringEvR8QVariantRKT_.clean)
    t._Z16qVariantSetValueI9QDateTimeEvR8QVariantRKT_ 0x0001c322   Section      162  qgallerymdsutility.o(t._Z16qVariantSetValueI9QDateTimeEvR8QVariantRKT_)
    t._Z16qVariantSetValueI9QDateTimeEvR8QVariantRKT_.clean 0x0001c3c4   Section       20  qgallerymdsutility.o(t._Z16qVariantSetValueI9QDateTimeEvR8QVariantRKT_.clean)
    t._Z16qVariantSetValueIdEvR8QVariantRKT_ 0x0001c3d8   Section      160  qgallerymdsutility.o(t._Z16qVariantSetValueIdEvR8QVariantRKT_)
    t._Z16qVariantSetValueIdEvR8QVariantRKT_.clean 0x0001c478   Section       10  qgallerymdsutility.o(t._Z16qVariantSetValueIdEvR8QVariantRKT_.clean)
    t._Z16qVariantSetValueIjEvR8QVariantRKT_ 0x0001c482   Section      158  qgallerymdsutility.o(t._Z16qVariantSetValueIjEvR8QVariantRKT_)
    t._Z16qVariantSetValueIjEvR8QVariantRKT_.clean 0x0001c520   Section       10  qgallerymdsutility.o(t._Z16qVariantSetValueIjEvR8QVariantRKT_.clean)
    t._Z16qVariantSetValueImEvR8QVariantRKT_ 0x0001c52a   Section      158  qgallerymdsutility.o(t._Z16qVariantSetValueImEvR8QVariantRKT_)
    t._Z16qVariantSetValueImEvR8QVariantRKT_.clean 0x0001c5c8   Section       10  qgallerymdsutility.o(t._Z16qVariantSetValueImEvR8QVariantRKT_.clean)
    t._Z4qMinIiERKT_S2_S2_                   0x0001c5d2   Section       18  qgalleryquerymodel.o(t._Z4qMinIiERKT_S2_S2_)
    t._ZN12QWeakPointerIN10QtMobility16QAbstractGalleryEEC1IS1_EEPT_ 0x0001c5e4   Section       28  qgalleryabstractrequest.o(t._ZN12QWeakPointerIN10QtMobility16QAbstractGalleryEEC1IS1_EEPT_)
    t._ZN12QWeakPointerIN10QtMobility16QAbstractGalleryEED1Ev 0x0001c600   Section       42  qgalleryabstractrequest.o(t._ZN12QWeakPointerIN10QtMobility16QAbstractGalleryEED1Ev)
    t._ZN13RPointerArrayI10CMdEObjectE15ResetAndDestroyEv 0x0001c62a   Section       64  qmdegalleryitemresultset.o(t._ZN13RPointerArrayI10CMdEObjectE15ResetAndDestroyEv)
    t._ZN13RPointerArrayI10CMdEObjectEixEi   0x0001c66a   Section       16  qmdegalleryresultset.o(t._ZN13RPointerArrayI10CMdEObjectEixEi)
    t._ZN14QScopedPointerI15CMdEObjectQuery21QScopedPointerDeleterIS0_EE5resetEPS0_ 0x0001c67a   Section       34  qmdegallerycategoryresultset.o(t._ZN14QScopedPointerI15CMdEObjectQuery21QScopedPointerDeleterIS0_EE5resetEPS0_)
    t._ZN14QScopedPointerI15CMdEObjectQuery21QScopedPointerDeleterIS0_EED1Ev 0x0001c69c   Section       28  qmdegallerytyperesultset.o(t._ZN14QScopedPointerI15CMdEObjectQuery21QScopedPointerDeleterIS0_EED1Ev)
    t._ZN14QScopedPointerIN10QtMobility23QAbstractGalleryPrivateE21QScopedPointerDeleterIS1_EED1Ev 0x0001c6b8   Section       28  qabstractgallery.o(t._ZN14QScopedPointerIN10QtMobility23QAbstractGalleryPrivateE21QScopedPointerDeleterIS1_EED1Ev)
    t._ZN14QScopedPointerIN10QtMobility24QGalleryAbstractResponseE21QScopedPointerDeleterIS1_EE5resetEPS1_ 0x0001c6d4   Section       34  qgalleryabstractrequest.o(t._ZN14QScopedPointerIN10QtMobility24QGalleryAbstractResponseE21QScopedPointerDeleterIS1_EE5resetEPS1_)
    t._ZN14QScopedPointerIN10QtMobility24QGalleryAbstractResponseE21QScopedPointerDeleterIS1_EED1Ev 0x0001c6f6   Section       28  qgalleryabstractrequest.o(t._ZN14QScopedPointerIN10QtMobility24QGalleryAbstractResponseE21QScopedPointerDeleterIS1_EED1Ev)
    t._ZN14QScopedPointerIN10QtMobility25QGalleryQueryModelPrivateE21QScopedPointerDeleterIS1_EED1Ev 0x0001c712   Section      100  qgalleryquerymodel.o(t._ZN14QScopedPointerIN10QtMobility25QGalleryQueryModelPrivateE21QScopedPointerDeleterIS1_EED1Ev)
    t._ZN14QScopedPointerIN10QtMobility25QGalleryQueryModelPrivateE21QScopedPointerDeleterIS1_EED1Ev.clean 0x0001c776   Section       60  qgalleryquerymodel.o(t._ZN14QScopedPointerIN10QtMobility25QGalleryQueryModelPrivateE21QScopedPointerDeleterIS1_EED1Ev.clean)
    t._ZN14QScopedPointerIN10QtMobility30QGalleryAbstractRequestPrivateE21QScopedPointerDeleterIS1_EED1Ev 0x0001c7b2   Section       28  qgalleryabstractrequest.o(t._ZN14QScopedPointerIN10QtMobility30QGalleryAbstractRequestPrivateE21QScopedPointerDeleterIS1_EED1Ev)
    t._ZN14QScopedPointerIN10QtMobility31QGalleryAbstractResponsePrivateE21QScopedPointerDeleterIS1_EED1Ev 0x0001c7ce   Section       28  qgalleryabstractresponse.o(t._ZN14QScopedPointerIN10QtMobility31QGalleryAbstractResponsePrivateE21QScopedPointerDeleterIS1_EED1Ev)
    t._ZN18QSharedDataPointerIN10QtMobility21QGalleryFilterPrivateEEC1EPS1_ 0x0001c7ea   Section       26  qgalleryfilter.o(t._ZN18QSharedDataPointerIN10QtMobility21QGalleryFilterPrivateEEC1EPS1_)
    t._ZN18QSharedDataPointerIN10QtMobility21QGalleryFilterPrivateEED1Ev 0x0001c804   Section       42  qgalleryfilter.o(t._ZN18QSharedDataPointerIN10QtMobility21QGalleryFilterPrivateEED1Ev)
    t._ZN18QSharedDataPointerIN10QtMobility26QGalleryUnionFilterPrivateEE13detach_helperEv 0x0001c830   Section      124  qgalleryfilter.o(t._ZN18QSharedDataPointerIN10QtMobility26QGalleryUnionFilterPrivateEE13detach_helperEv)
    t._ZN18QSharedDataPointerIN10QtMobility26QGalleryUnionFilterPrivateEE13detach_helperEv.clean 0x0001c8ac   Section       26  qgalleryfilter.o(t._ZN18QSharedDataPointerIN10QtMobility26QGalleryUnionFilterPrivateEE13detach_helperEv.clean)
    t._ZN18QSharedDataPointerIN10QtMobility26QGalleryUnionFilterPrivateEEC1EPS1_ 0x0001c8c6   Section       26  qgalleryfilter.o(t._ZN18QSharedDataPointerIN10QtMobility26QGalleryUnionFilterPrivateEEC1EPS1_)
    t._ZN18QSharedDataPointerIN10QtMobility26QGalleryUnionFilterPrivateEED1Ev 0x0001c8e0   Section       42  qgalleryfilter.o(t._ZN18QSharedDataPointerIN10QtMobility26QGalleryUnionFilterPrivateEED1Ev)
    t._ZN18QSharedDataPointerIN10QtMobility26QGalleryUnionFilterPrivateEEptEv 0x0001c90a   Section       36  qgalleryfilter.o(t._ZN18QSharedDataPointerIN10QtMobility26QGalleryUnionFilterPrivateEEptEv)
    t._ZN18QSharedDataPointerIN10QtMobility29QGalleryMetaDataFilterPrivateEE13detach_helperEv 0x0001c930   Section      156  qgalleryfilter.o(t._ZN18QSharedDataPointerIN10QtMobility29QGalleryMetaDataFilterPrivateEE13detach_helperEv)
    t._ZN18QSharedDataPointerIN10QtMobility29QGalleryMetaDataFilterPrivateEE13detach_helperEv.clean 0x0001c9cc   Section       38  qgalleryfilter.o(t._ZN18QSharedDataPointerIN10QtMobility29QGalleryMetaDataFilterPrivateEE13detach_helperEv.clean)
    t._ZN18QSharedDataPointerIN10QtMobility29QGalleryMetaDataFilterPrivateEEC1EPS1_ 0x0001c9f2   Section       26  qgalleryfilter.o(t._ZN18QSharedDataPointerIN10QtMobility29QGalleryMetaDataFilterPrivateEEC1EPS1_)
    t._ZN18QSharedDataPointerIN10QtMobility29QGalleryMetaDataFilterPrivateEED1Ev 0x0001ca0c   Section       42  qgalleryfilter.o(t._ZN18QSharedDataPointerIN10QtMobility29QGalleryMetaDataFilterPrivateEED1Ev)
    t._ZN18QSharedDataPointerIN10QtMobility29QGalleryMetaDataFilterPrivateEEptEv 0x0001ca36   Section       36  qgalleryfilter.o(t._ZN18QSharedDataPointerIN10QtMobility29QGalleryMetaDataFilterPrivateEEptEv)
    t._ZN18QSharedDataPointerIN10QtMobility33QGalleryIntersectionFilterPrivateEE13detach_helperEv 0x0001ca5c   Section      124  qgalleryfilter.o(t._ZN18QSharedDataPointerIN10QtMobility33QGalleryIntersectionFilterPrivateEE13detach_helperEv)
    t._ZN18QSharedDataPointerIN10QtMobility33QGalleryIntersectionFilterPrivateEE13detach_helperEv.clean 0x0001cad8   Section       26  qgalleryfilter.o(t._ZN18QSharedDataPointerIN10QtMobility33QGalleryIntersectionFilterPrivateEE13detach_helperEv.clean)
    t._ZN18QSharedDataPointerIN10QtMobility33QGalleryIntersectionFilterPrivateEEC1EPS1_ 0x0001caf2   Section       26  qgalleryfilter.o(t._ZN18QSharedDataPointerIN10QtMobility33QGalleryIntersectionFilterPrivateEEC1EPS1_)
    t._ZN18QSharedDataPointerIN10QtMobility33QGalleryIntersectionFilterPrivateEED1Ev 0x0001cb0c   Section       42  qgalleryfilter.o(t._ZN18QSharedDataPointerIN10QtMobility33QGalleryIntersectionFilterPrivateEED1Ev)
    t._ZN18QSharedDataPointerIN10QtMobility33QGalleryIntersectionFilterPrivateEEptEv 0x0001cb36   Section       36  qgalleryfilter.o(t._ZN18QSharedDataPointerIN10QtMobility33QGalleryIntersectionFilterPrivateEEptEv)
    t._ZN4QMapIi8QVariantE11node_createEP8QMapDataPPNS2_4NodeERKiRKS0_ 0x0001cb5a   Section      132  qgalleryresource.o(t._ZN4QMapIi8QVariantE11node_createEP8QMapDataPPNS2_4NodeERKiRKS0_)
    t._ZN4QMapIi8QVariantE11node_createEP8QMapDataPPNS2_4NodeERKiRKS0_.clean 0x0001cbde   Section       28  qgalleryresource.o(t._ZN4QMapIi8QVariantE11node_createEP8QMapDataPPNS2_4NodeERKiRKS0_.clean)
    t._ZN4QMapIi8QVariantE13detach_helperEv  0x0001cbfa   Section      148  qgalleryresource.o(t._ZN4QMapIi8QVariantE13detach_helperEv)
    t._ZN4QMapIi8QVariantE13detach_helperEv.clean 0x0001cc8e   Section        8  qgalleryresource.o(t._ZN4QMapIi8QVariantE13detach_helperEv.clean)
    t._ZN4QMapIi8QVariantE6detachEv          0x0001cc96   Section       28  qmdegalleryresultset.o(t._ZN4QMapIi8QVariantE6detachEv)
    t._ZN4QMapIi8QVariantE8freeDataEP8QMapData 0x0001ccb2   Section       58  qgalleryresource.o(t._ZN4QMapIi8QVariantE8freeDataEP8QMapData)
    t._ZN4QMapIi8QVariantEC1ERKS1_           0x0001ccec   Section       66  qgalleryresource.o(t._ZN4QMapIi8QVariantEC1ERKS1_)
    t._ZN4QMapIi8QVariantEC1Ev               0x0001cd30   Section       28  qgalleryresource.o(t._ZN4QMapIi8QVariantEC1Ev)
    t._ZN4QMapIi8QVariantED1Ev               0x0001cd4c   Section       38  qgalleryresource.o(t._ZN4QMapIi8QVariantED1Ev)
    t._ZN4TBufILi256EEC1ERK7TDesC16          0x0001cd72   Section       22  qgallerymdsutility.o(t._ZN4TBufILi256EEC1ERK7TDesC16)
    t._ZN5QHashIi7QStringE11deleteNode2EPN9QHashData4NodeE 0x0001cd88   Section       24  qgalleryquerymodel.o(t._ZN5QHashIi7QStringE11deleteNode2EPN9QHashData4NodeE)
    t._ZN5QHashIi7QStringE13detach_helperEv  0x0001cda0   Section       60  qgalleryquerymodel.o(t._ZN5QHashIi7QStringE13detach_helperEv)
    t._ZN5QHashIi7QStringE13duplicateNodeEPN9QHashData4NodeEPv 0x0001cddc   Section       46  qgalleryquerymodel.o(t._ZN5QHashIi7QStringE13duplicateNodeEPN9QHashData4NodeEPv)
    t._ZN5QHashIi7QStringE13duplicateNodeEPN9QHashData4NodeEPv.clean 0x0001ce0a   Section       14  qgalleryquerymodel.o(t._ZN5QHashIi7QStringE13duplicateNodeEPN9QHashData4NodeEPv.clean)
    t._ZN5QHashIi7QStringE6detachEv          0x0001ce18   Section       28  qgalleryquerymodel.o(t._ZN5QHashIi7QStringE6detachEv)
    t._ZN5QHashIi7QStringE6insertERKiRKS0_   0x0001ce34   Section      182  qgalleryquerymodel.o(t._ZN5QHashIi7QStringE6insertERKiRKS0_)
    t._ZN5QHashIi7QStringE6insertERKiRKS0_.clean 0x0001ceea   Section       14  qgalleryquerymodel.o(t._ZN5QHashIi7QStringE6insertERKiRKS0_.clean)
    t._ZN5QHashIi7QStringE8freeDataEP9QHashData 0x0001cef8   Section       20  qgalleryquerymodel.o(t._ZN5QHashIi7QStringE8freeDataEP9QHashData)
    t._ZN5QHashIi7QStringEC1ERKS1_           0x0001cf0c   Section       40  qgalleryquerymodel.o(t._ZN5QHashIi7QStringEC1ERKS1_)
    t._ZN5QHashIi7QStringEC1Ev               0x0001cf34   Section       28  qgalleryquerymodel.o(t._ZN5QHashIi7QStringEC1Ev)
    t._ZN5QHashIi7QStringED1Ev               0x0001cf50   Section       30  qgalleryquerymodel.o(t._ZN5QHashIi7QStringED1Ev)
    t._ZN5QHashIi7QStringEaSERKS1_           0x0001cf6e   Section       70  qgalleryquerymodel.o(t._ZN5QHashIi7QStringEaSERKS1_)
    t._ZN5QHashIi8QVariantE11deleteNode2EPN9QHashData4NodeE 0x0001cfb4   Section       24  qgalleryquerymodel.o(t._ZN5QHashIi8QVariantE11deleteNode2EPN9QHashData4NodeE)
    t._ZN5QHashIi8QVariantE13detach_helperEv 0x0001cfcc   Section       60  qgalleryquerymodel.o(t._ZN5QHashIi8QVariantE13detach_helperEv)
    t._ZN5QHashIi8QVariantE13duplicateNodeEPN9QHashData4NodeEPv 0x0001d008   Section       46  qgalleryquerymodel.o(t._ZN5QHashIi8QVariantE13duplicateNodeEPN9QHashData4NodeEPv)
    t._ZN5QHashIi8QVariantE13duplicateNodeEPN9QHashData4NodeEPv.clean 0x0001d036   Section       14  qgalleryquerymodel.o(t._ZN5QHashIi8QVariantE13duplicateNodeEPN9QHashData4NodeEPv.clean)
    t._ZN5QHashIi8QVariantE6detachEv         0x0001d044   Section       28  qgalleryquerymodel.o(t._ZN5QHashIi8QVariantE6detachEv)
    t._ZN5QHashIi8QVariantE6insertERKiRKS0_  0x0001d060   Section      182  qgalleryquerymodel.o(t._ZN5QHashIi8QVariantE6insertERKiRKS0_)
    t._ZN5QHashIi8QVariantE6insertERKiRKS0_.clean 0x0001d116   Section       14  qgalleryquerymodel.o(t._ZN5QHashIi8QVariantE6insertERKiRKS0_.clean)
    t._ZN5QHashIi8QVariantE8freeDataEP9QHashData 0x0001d124   Section       20  qgalleryquerymodel.o(t._ZN5QHashIi8QVariantE8freeDataEP9QHashData)
    t._ZN5QHashIi8QVariantEC1ERKS1_          0x0001d138   Section       40  qgalleryquerymodel.o(t._ZN5QHashIi8QVariantEC1ERKS1_)
    t._ZN5QHashIi8QVariantEC1Ev              0x0001d160   Section       28  qgalleryquerymodel.o(t._ZN5QHashIi8QVariantEC1Ev)
    t._ZN5QHashIi8QVariantED1Ev              0x0001d17c   Section       30  qgalleryquerymodel.o(t._ZN5QHashIi8QVariantED1Ev)
    t._ZN5QHashIi8QVariantEaSERKS1_          0x0001d19a   Section       70  qgalleryquerymodel.o(t._ZN5QHashIi8QVariantEaSERKS1_)
    t._ZN5QListI7QStringE13detach_helperEi   0x0001d1e0   Section       94  qgalleryquerymodel.o(t._ZN5QListI7QStringE13detach_helperEi)
    t._ZN5QListI7QStringE13detach_helperEi.clean 0x0001d23e   Section        8  qgalleryquerymodel.o(t._ZN5QListI7QStringE13detach_helperEi.clean)
    t._ZN5QListI7QStringE13detach_helperEv   0x0001d246   Section       16  qgalleryitemrequest.o(t._ZN5QListI7QStringE13detach_helperEv)
    t._ZN5QListI7QStringE13node_destructEPNS1_4NodeES3_ 0x0001d256   Section       26  qgalleryquerymodel.o(t._ZN5QListI7QStringE13node_destructEPNS1_4NodeES3_)
    t._ZN5QListI7QStringE14node_constructEPNS1_4NodeERKS0_ 0x0001d270   Section       36  qgalleryquerymodel.o(t._ZN5QListI7QStringE14node_constructEPNS1_4NodeERKS0_)
    t._ZN5QListI7QStringE14node_constructEPNS1_4NodeERKS0_.clean 0x0001d294   Section       14  qgalleryquerymodel.o(t._ZN5QListI7QStringE14node_constructEPNS1_4NodeERKS0_.clean)
    t._ZN5QListI7QStringE18detach_helper_growEii 0x0001d2a2   Section      208  qgalleryquerymodel.o(t._ZN5QListI7QStringE18detach_helper_growEii)
    t._ZN5QListI7QStringE18detach_helper_growEii.clean 0x0001d372   Section       16  qgalleryquerymodel.o(t._ZN5QListI7QStringE18detach_helper_growEii.clean)
    t._ZN5QListI7QStringE4freeEPN9QListData4DataE 0x0001d382   Section       52  qgalleryquerymodel.o(t._ZN5QListI7QStringE4freeEPN9QListData4DataE)
    t._ZN5QListI7QStringE6appendERKS0_       0x0001d3b8   Section      120  qgalleryquerymodel.o(t._ZN5QListI7QStringE6appendERKS0_)
    t._ZN5QListI7QStringE6appendERKS0_.clean 0x0001d430   Section       14  qgalleryquerymodel.o(t._ZN5QListI7QStringE6appendERKS0_.clean)
    t._ZN5QListI7QStringE7reserveEi          0x0001d43e   Section       46  qgalleryquerymodel.o(t._ZN5QListI7QStringE7reserveEi)
    t._ZN5QListI7QStringE9node_copyEPNS1_4NodeES3_S3_ 0x0001d46c   Section       82  qgalleryquerymodel.o(t._ZN5QListI7QStringE9node_copyEPNS1_4NodeES3_S3_)
    t._ZN5QListI7QStringE9node_copyEPNS1_4NodeES3_S3_.clean 0x0001d4be   Section       22  qgalleryquerymodel.o(t._ZN5QListI7QStringE9node_copyEPNS1_4NodeES3_S3_.clean)
    t._ZN5QListI7QStringEC1Ev                0x0001d4d4   Section       24  qgalleryquerymodel.o(t._ZN5QListI7QStringEC1Ev)
    t._ZN5QListI7QStringED1Ev                0x0001d4ec   Section       32  qgalleryitemrequest.o(t._ZN5QListI7QStringED1Ev)
    t._ZN5QListI7QStringEaSERKS1_            0x0001d50c   Section       64  qgalleryquerymodel.o(t._ZN5QListI7QStringEaSERKS1_)
    t._ZN5QListI7QStringEpLERKS1_            0x0001d54c   Section      160  qgalleryquerymodel.o(t._ZN5QListI7QStringEpLERKS1_)
    t._ZN5QListI7QStringEpLERKS1_.clean      0x0001d5ec   Section        8  qgalleryquerymodel.o(t._ZN5QListI7QStringEpLERKS1_.clean)
    t._ZN5QListIN10QtMobility14QGalleryFilterEE13detach_helperEi 0x0001d5f4   Section       94  qgalleryfilter.o(t._ZN5QListIN10QtMobility14QGalleryFilterEE13detach_helperEi)
    t._ZN5QListIN10QtMobility14QGalleryFilterEE13detach_helperEi.clean 0x0001d652   Section        8  qgalleryfilter.o(t._ZN5QListIN10QtMobility14QGalleryFilterEE13detach_helperEi.clean)
    t._ZN5QListIN10QtMobility14QGalleryFilterEE13detach_helperEv 0x0001d65a   Section       16  qgalleryfilter.o(t._ZN5QListIN10QtMobility14QGalleryFilterEE13detach_helperEv)
    t._ZN5QListIN10QtMobility14QGalleryFilterEE13node_destructEPNS2_4NodeE 0x0001d66a   Section       28  qgalleryfilter.o(t._ZN5QListIN10QtMobility14QGalleryFilterEE13node_destructEPNS2_4NodeE)
    t._ZN5QListIN10QtMobility14QGalleryFilterEE13node_destructEPNS2_4NodeES4_ 0x0001d686   Section       38  qgalleryfilter.o(t._ZN5QListIN10QtMobility14QGalleryFilterEE13node_destructEPNS2_4NodeES4_)
    t._ZN5QListIN10QtMobility14QGalleryFilterEE14node_constructEPNS2_4NodeERKS1_ 0x0001d6ac   Section       34  qgalleryfilter.o(t._ZN5QListIN10QtMobility14QGalleryFilterEE14node_constructEPNS2_4NodeERKS1_)
    t._ZN5QListIN10QtMobility14QGalleryFilterEE14node_constructEPNS2_4NodeERKS1_.clean 0x0001d6ce   Section       14  qgalleryfilter.o(t._ZN5QListIN10QtMobility14QGalleryFilterEE14node_constructEPNS2_4NodeERKS1_.clean)
    t._ZN5QListIN10QtMobility14QGalleryFilterEE18detach_helper_growEii 0x0001d6dc   Section      208  qgalleryfilter.o(t._ZN5QListIN10QtMobility14QGalleryFilterEE18detach_helper_growEii)
    t._ZN5QListIN10QtMobility14QGalleryFilterEE18detach_helper_growEii.clean 0x0001d7ac   Section       16  qgalleryfilter.o(t._ZN5QListIN10QtMobility14QGalleryFilterEE18detach_helper_growEii.clean)
    t._ZN5QListIN10QtMobility14QGalleryFilterEE4freeEPN9QListData4DataE 0x0001d7bc   Section       58  qgalleryfilter.o(t._ZN5QListIN10QtMobility14QGalleryFilterEE4freeEPN9QListData4DataE)
    t._ZN5QListIN10QtMobility14QGalleryFilterEE5clearEv 0x0001d7f6   Section       28  qgalleryfilter.o(t._ZN5QListIN10QtMobility14QGalleryFilterEE5clearEv)
    t._ZN5QListIN10QtMobility14QGalleryFilterEE5clearEv.clean 0x0001d812   Section       10  qgalleryfilter.o(t._ZN5QListIN10QtMobility14QGalleryFilterEE5clearEv.clean)
    t._ZN5QListIN10QtMobility14QGalleryFilterEE6appendERKS1_ 0x0001d81c   Section      112  qgalleryfilter.o(t._ZN5QListIN10QtMobility14QGalleryFilterEE6appendERKS1_)
    t._ZN5QListIN10QtMobility14QGalleryFilterEE6appendERKS1_.clean 0x0001d88c   Section       14  qgalleryfilter.o(t._ZN5QListIN10QtMobility14QGalleryFilterEE6appendERKS1_.clean)
    t._ZN5QListIN10QtMobility14QGalleryFilterEE6detachEv 0x0001d89a   Section       24  qgalleryfilter.o(t._ZN5QListIN10QtMobility14QGalleryFilterEE6detachEv)
    t._ZN5QListIN10QtMobility14QGalleryFilterEE6insertEiRKS1_ 0x0001d8b2   Section      106  qgalleryfilter.o(t._ZN5QListIN10QtMobility14QGalleryFilterEE6insertEiRKS1_)
    t._ZN5QListIN10QtMobility14QGalleryFilterEE6insertEiRKS1_.clean 0x0001d91c   Section       14  qgalleryfilter.o(t._ZN5QListIN10QtMobility14QGalleryFilterEE6insertEiRKS1_.clean)
    t._ZN5QListIN10QtMobility14QGalleryFilterEE7prependERKS1_ 0x0001d92a   Section      106  qgalleryfilter.o(t._ZN5QListIN10QtMobility14QGalleryFilterEE7prependERKS1_)
    t._ZN5QListIN10QtMobility14QGalleryFilterEE7prependERKS1_.clean 0x0001d994   Section       14  qgalleryfilter.o(t._ZN5QListIN10QtMobility14QGalleryFilterEE7prependERKS1_.clean)
    t._ZN5QListIN10QtMobility14QGalleryFilterEE7replaceEiRKS1_ 0x0001d9a2   Section       40  qgalleryfilter.o(t._ZN5QListIN10QtMobility14QGalleryFilterEE7replaceEiRKS1_)
    t._ZN5QListIN10QtMobility14QGalleryFilterEE7reserveEi 0x0001d9ca   Section       46  qgalleryfilter.o(t._ZN5QListIN10QtMobility14QGalleryFilterEE7reserveEi)
    t._ZN5QListIN10QtMobility14QGalleryFilterEE8removeAtEi 0x0001d9f8   Section       54  qgalleryfilter.o(t._ZN5QListIN10QtMobility14QGalleryFilterEE8removeAtEi)
    t._ZN5QListIN10QtMobility14QGalleryFilterEE9node_copyEPNS2_4NodeES4_S4_ 0x0001da2e   Section       92  qgalleryfilter.o(t._ZN5QListIN10QtMobility14QGalleryFilterEE9node_copyEPNS2_4NodeES4_S4_)
    t._ZN5QListIN10QtMobility14QGalleryFilterEE9node_copyEPNS2_4NodeES4_S4_.clean 0x0001da8a   Section       22  qgalleryfilter.o(t._ZN5QListIN10QtMobility14QGalleryFilterEE9node_copyEPNS2_4NodeES4_S4_.clean)
    t._ZN5QListIN10QtMobility14QGalleryFilterEEC1ERKS2_ 0x0001daa0   Section       36  qgalleryfilter.o(t._ZN5QListIN10QtMobility14QGalleryFilterEEC1ERKS2_)
    t._ZN5QListIN10QtMobility14QGalleryFilterEEC1Ev 0x0001dac4   Section       24  qgalleryfilter.o(t._ZN5QListIN10QtMobility14QGalleryFilterEEC1Ev)
    t._ZN5QListIN10QtMobility14QGalleryFilterEED1Ev 0x0001dadc   Section       32  qgalleryfilter.o(t._ZN5QListIN10QtMobility14QGalleryFilterEED1Ev)
    t._ZN5QListIN10QtMobility14QGalleryFilterEEaSERKS2_ 0x0001dafc   Section       64  qgalleryfilter.o(t._ZN5QListIN10QtMobility14QGalleryFilterEEaSERKS2_)
    t._ZN5QListIN10QtMobility14QGalleryFilterEEixEi 0x0001db3c   Section       42  qgallerymdsutility.o(t._ZN5QListIN10QtMobility14QGalleryFilterEEixEi)
    t._ZN5QListIN10QtMobility14QGalleryFilterEEpLERKS2_ 0x0001db68   Section      148  qgalleryfilter.o(t._ZN5QListIN10QtMobility14QGalleryFilterEEpLERKS2_)
    t._ZN5QListIN10QtMobility14QGalleryFilterEEpLERKS2_.clean 0x0001dbfc   Section        8  qgalleryfilter.o(t._ZN5QListIN10QtMobility14QGalleryFilterEEpLERKS2_.clean)
    t._ZN5QListIN10QtMobility16QGalleryResourceEE13detach_helperEi 0x0001dc04   Section      200  qgalleryitemrequest.o(t._ZN5QListIN10QtMobility16QGalleryResourceEE13detach_helperEi)
    t._ZN5QListIN10QtMobility16QGalleryResourceEE13detach_helperEi.clean 0x0001dccc   Section       32  qgalleryitemrequest.o(t._ZN5QListIN10QtMobility16QGalleryResourceEE13detach_helperEi.clean)
    t._ZN5QListIN10QtMobility16QGalleryResourceEE13detach_helperEv 0x0001dcec   Section       16  qgalleryitemrequest.o(t._ZN5QListIN10QtMobility16QGalleryResourceEE13detach_helperEv)
    t._ZN5QListIN10QtMobility16QGalleryResourceEE13node_destructEPNS2_4NodeES4_ 0x0001dcfc   Section       38  qgalleryresultset.o(t._ZN5QListIN10QtMobility16QGalleryResourceEE13node_destructEPNS2_4NodeES4_)
    t._ZN5QListIN10QtMobility16QGalleryResourceEE14node_constructEPNS2_4NodeERKS1_ 0x0001dd22   Section       34  qgalleryresultset.o(t._ZN5QListIN10QtMobility16QGalleryResourceEE14node_constructEPNS2_4NodeERKS1_)
    t._ZN5QListIN10QtMobility16QGalleryResourceEE14node_constructEPNS2_4NodeERKS1_.clean 0x0001dd44   Section       14  qgalleryresultset.o(t._ZN5QListIN10QtMobility16QGalleryResourceEE14node_constructEPNS2_4NodeERKS1_.clean)
    t._ZN5QListIN10QtMobility16QGalleryResourceEE18detach_helper_growEii 0x0001dd52   Section      208  qmdegalleryresultset.o(t._ZN5QListIN10QtMobility16QGalleryResourceEE18detach_helper_growEii)
    t._ZN5QListIN10QtMobility16QGalleryResourceEE18detach_helper_growEii.clean 0x0001de22   Section       16  qmdegalleryresultset.o(t._ZN5QListIN10QtMobility16QGalleryResourceEE18detach_helper_growEii.clean)
    t._ZN5QListIN10QtMobility16QGalleryResourceEE4freeEPN9QListData4DataE 0x0001de32   Section       58  qgalleryresultset.o(t._ZN5QListIN10QtMobility16QGalleryResourceEE4freeEPN9QListData4DataE)
    t._ZN5QListIN10QtMobility16QGalleryResourceEE6appendERKS1_ 0x0001de6c   Section      112  qmdegalleryresultset.o(t._ZN5QListIN10QtMobility16QGalleryResourceEE6appendERKS1_)
    t._ZN5QListIN10QtMobility16QGalleryResourceEE6appendERKS1_.clean 0x0001dedc   Section       14  qmdegalleryresultset.o(t._ZN5QListIN10QtMobility16QGalleryResourceEE6appendERKS1_.clean)
    t._ZN5QListIN10QtMobility16QGalleryResourceEE9node_copyEPNS2_4NodeES4_S4_ 0x0001deea   Section       92  qgalleryresultset.o(t._ZN5QListIN10QtMobility16QGalleryResourceEE9node_copyEPNS2_4NodeES4_S4_)
    t._ZN5QListIN10QtMobility16QGalleryResourceEE9node_copyEPNS2_4NodeES4_S4_.clean 0x0001df46   Section       22  qgalleryresultset.o(t._ZN5QListIN10QtMobility16QGalleryResourceEE9node_copyEPNS2_4NodeES4_S4_.clean)
    t._ZN5QListIN10QtMobility16QGalleryResourceEED1Ev 0x0001df5c   Section       32  qgalleryitemrequest.o(t._ZN5QListIN10QtMobility16QGalleryResourceEED1Ev)
    t._ZN5QListIiE13detach_helperEi          0x0001df7c   Section       94  qgalleryitemrequest.o(t._ZN5QListIiE13detach_helperEi)
    t._ZN5QListIiE13detach_helperEi.clean    0x0001dfda   Section        8  qgalleryitemrequest.o(t._ZN5QListIiE13detach_helperEi.clean)
    t._ZN5QListIiE13detach_helperEv          0x0001dfe2   Section       16  qgalleryitemrequest.o(t._ZN5QListIiE13detach_helperEv)
    t._ZN5QListIiE18detach_helper_growEii    0x0001dff2   Section      204  qgalleryitemrequest.o(t._ZN5QListIiE18detach_helper_growEii)
    t._ZN5QListIiE18detach_helper_growEii.clean 0x0001e0be   Section       16  qgalleryitemrequest.o(t._ZN5QListIiE18detach_helper_growEii.clean)
    t._ZN5QListIiE4freeEPN9QListData4DataE   0x0001e0ce   Section       58  qgalleryitemrequest.o(t._ZN5QListIiE4freeEPN9QListData4DataE)
    t._ZN5QListIiE5clearEv                   0x0001e108   Section       76  qgalleryitemrequest.o(t._ZN5QListIiE5clearEv)
    t._ZN5QListIiE5clearEv.clean             0x0001e154   Section       10  qgalleryitemrequest.o(t._ZN5QListIiE5clearEv.clean)
    t._ZN5QListIiE6appendERKi                0x0001e160   Section      100  qmdegalleryitemresultset.o(t._ZN5QListIiE6appendERKi)
    t._ZN5QListIiE6appendERKi.clean          0x0001e1c4   Section       10  qmdegalleryitemresultset.o(t._ZN5QListIiE6appendERKi.clean)
    t._ZN5QListIiE9node_copyEPNS0_4NodeES2_S2_ 0x0001e1ce   Section       46  qgalleryitemrequest.o(t._ZN5QListIiE9node_copyEPNS0_4NodeES2_S2_)
    t._ZN5QListIiEC1Ev                       0x0001e1fc   Section       24  qgalleryitemrequest.o(t._ZN5QListIiEC1Ev)
    t._ZN5QListIiED1Ev                       0x0001e214   Section       32  qgalleryitemrequest.o(t._ZN5QListIiED1Ev)
    t._ZN6RArrayImEC1Ev                      0x0001e234   Section       16  qmdegalleryqueryresultset.o(t._ZN6RArrayImEC1Ev)
    t._ZN7QVectorI5QHashIi7QStringEE13detach_helperEv 0x0001e244   Section       18  qgalleryquerymodel.o(t._ZN7QVectorI5QHashIi7QStringEE13detach_helperEv)
    t._ZN7QVectorI5QHashIi7QStringEE4freeEP16QVectorTypedDataIS2_E 0x0001e256   Section       52  qgalleryquerymodel.o(t._ZN7QVectorI5QHashIi7QStringEE4freeEP16QVectorTypedDataIS2_E)
    t._ZN7QVectorI5QHashIi7QStringEE5eraseEPS2_S4_ 0x0001e28a   Section      192  qgalleryquerymodel.o(t._ZN7QVectorI5QHashIi7QStringEE5eraseEPS2_S4_)
    t._ZN7QVectorI5QHashIi7QStringEE6appendERKS2_ 0x0001e34a   Section      180  qgalleryquerymodel.o(t._ZN7QVectorI5QHashIi7QStringEE6appendERKS2_)
    t._ZN7QVectorI5QHashIi7QStringEE6appendERKS2_.clean 0x0001e3fe   Section       28  qgalleryquerymodel.o(t._ZN7QVectorI5QHashIi7QStringEE6appendERKS2_.clean)
    t._ZN7QVectorI5QHashIi7QStringEE6detachEv 0x0001e41a   Section       24  qgalleryquerymodel.o(t._ZN7QVectorI5QHashIi7QStringEE6detachEv)
    t._ZN7QVectorI5QHashIi7QStringEE6insertEPS2_iRKS2_ 0x0001e432   Section      328  qgalleryquerymodel.o(t._ZN7QVectorI5QHashIi7QStringEE6insertEPS2_iRKS2_)
    t._ZN7QVectorI5QHashIi7QStringEE6insertEPS2_iRKS2_.clean 0x0001e57a   Section       18  qgalleryquerymodel.o(t._ZN7QVectorI5QHashIi7QStringEE6insertEPS2_iRKS2_.clean)
    t._ZN7QVectorI5QHashIi7QStringEE6mallocEi 0x0001e58c   Section       52  qgalleryquerymodel.o(t._ZN7QVectorI5QHashIi7QStringEE6mallocEi)
    t._ZN7QVectorI5QHashIi7QStringEE7reallocEii 0x0001e5c0   Section      450  qgalleryquerymodel.o(t._ZN7QVectorI5QHashIi7QStringEE7reallocEii)
    t._ZN7QVectorI5QHashIi7QStringEE7reallocEii.clean 0x0001e782   Section       32  qgalleryquerymodel.o(t._ZN7QVectorI5QHashIi7QStringEE7reallocEii.clean)
    t._ZN7QVectorI5QHashIi7QStringEED1Ev     0x0001e7a2   Section       34  qgalleryquerymodel.o(t._ZN7QVectorI5QHashIi7QStringEED1Ev)
    t._ZN7QVectorI5QHashIi8QVariantEE13detach_helperEv 0x0001e7c4   Section       18  qgalleryquerymodel.o(t._ZN7QVectorI5QHashIi8QVariantEE13detach_helperEv)
    t._ZN7QVectorI5QHashIi8QVariantEE4freeEP16QVectorTypedDataIS2_E 0x0001e7d6   Section       52  qgalleryquerymodel.o(t._ZN7QVectorI5QHashIi8QVariantEE4freeEP16QVectorTypedDataIS2_E)
    t._ZN7QVectorI5QHashIi8QVariantEE5eraseEPS2_S4_ 0x0001e80a   Section      192  qgalleryquerymodel.o(t._ZN7QVectorI5QHashIi8QVariantEE5eraseEPS2_S4_)
    t._ZN7QVectorI5QHashIi8QVariantEE6appendERKS2_ 0x0001e8ca   Section      180  qgalleryquerymodel.o(t._ZN7QVectorI5QHashIi8QVariantEE6appendERKS2_)
    t._ZN7QVectorI5QHashIi8QVariantEE6appendERKS2_.clean 0x0001e97e   Section       28  qgalleryquerymodel.o(t._ZN7QVectorI5QHashIi8QVariantEE6appendERKS2_.clean)
    t._ZN7QVectorI5QHashIi8QVariantEE6detachEv 0x0001e99a   Section       24  qgalleryquerymodel.o(t._ZN7QVectorI5QHashIi8QVariantEE6detachEv)
    t._ZN7QVectorI5QHashIi8QVariantEE6insertEPS2_iRKS2_ 0x0001e9b2   Section      328  qgalleryquerymodel.o(t._ZN7QVectorI5QHashIi8QVariantEE6insertEPS2_iRKS2_)
    t._ZN7QVectorI5QHashIi8QVariantEE6insertEPS2_iRKS2_.clean 0x0001eafa   Section       18  qgalleryquerymodel.o(t._ZN7QVectorI5QHashIi8QVariantEE6insertEPS2_iRKS2_.clean)
    t._ZN7QVectorI5QHashIi8QVariantEE6mallocEi 0x0001eb0c   Section       52  qgalleryquerymodel.o(t._ZN7QVectorI5QHashIi8QVariantEE6mallocEi)
    t._ZN7QVectorI5QHashIi8QVariantEE7reallocEii 0x0001eb40   Section      450  qgalleryquerymodel.o(t._ZN7QVectorI5QHashIi8QVariantEE7reallocEii)
    t._ZN7QVectorI5QHashIi8QVariantEE7reallocEii.clean 0x0001ed02   Section       32  qgalleryquerymodel.o(t._ZN7QVectorI5QHashIi8QVariantEE7reallocEii.clean)
    t._ZN7QVectorI5QHashIi8QVariantEED1Ev    0x0001ed22   Section       34  qgalleryquerymodel.o(t._ZN7QVectorI5QHashIi8QVariantEED1Ev)
    t._ZN7QVectorI6QFlagsIN2Qt8ItemFlagEEE13detach_helperEv 0x0001ed44   Section       18  qgalleryquerymodel.o(t._ZN7QVectorI6QFlagsIN2Qt8ItemFlagEEE13detach_helperEv)
    t._ZN7QVectorI6QFlagsIN2Qt8ItemFlagEEE4freeEP16QVectorTypedDataIS3_E 0x0001ed56   Section       48  qgalleryquerymodel.o(t._ZN7QVectorI6QFlagsIN2Qt8ItemFlagEEE4freeEP16QVectorTypedDataIS3_E)
    t._ZN7QVectorI6QFlagsIN2Qt8ItemFlagEEE5eraseEPS3_S5_ 0x0001ed86   Section      192  qgalleryquerymodel.o(t._ZN7QVectorI6QFlagsIN2Qt8ItemFlagEEE5eraseEPS3_S5_)
    t._ZN7QVectorI6QFlagsIN2Qt8ItemFlagEEE6appendERKS3_ 0x0001ee46   Section      164  qgalleryquerymodel.o(t._ZN7QVectorI6QFlagsIN2Qt8ItemFlagEEE6appendERKS3_)
    t._ZN7QVectorI6QFlagsIN2Qt8ItemFlagEEE6appendERKS3_.clean 0x0001eeea   Section        4  qgalleryquerymodel.o(t._ZN7QVectorI6QFlagsIN2Qt8ItemFlagEEE6appendERKS3_.clean)
    t._ZN7QVectorI6QFlagsIN2Qt8ItemFlagEEE6detachEv 0x0001eeee   Section       24  qgalleryquerymodel.o(t._ZN7QVectorI6QFlagsIN2Qt8ItemFlagEEE6detachEv)
    t._ZN7QVectorI6QFlagsIN2Qt8ItemFlagEEE6insertEPS3_iRKS3_ 0x0001ef06   Section      320  qgalleryquerymodel.o(t._ZN7QVectorI6QFlagsIN2Qt8ItemFlagEEE6insertEPS3_iRKS3_)
    t._ZN7QVectorI6QFlagsIN2Qt8ItemFlagEEE6insertEPS3_iRKS3_.clean 0x0001f046   Section        4  qgalleryquerymodel.o(t._ZN7QVectorI6QFlagsIN2Qt8ItemFlagEEE6insertEPS3_iRKS3_.clean)
    t._ZN7QVectorI6QFlagsIN2Qt8ItemFlagEEE6mallocEi 0x0001f04a   Section       52  qgalleryquerymodel.o(t._ZN7QVectorI6QFlagsIN2Qt8ItemFlagEEE6mallocEi)
    t._ZN7QVectorI6QFlagsIN2Qt8ItemFlagEEE7reallocEii 0x0001f07e   Section      438  qgalleryquerymodel.o(t._ZN7QVectorI6QFlagsIN2Qt8ItemFlagEEE7reallocEii)
    t._ZN7QVectorI6QFlagsIN2Qt8ItemFlagEEE7reallocEii.clean 0x0001f234   Section       14  qgalleryquerymodel.o(t._ZN7QVectorI6QFlagsIN2Qt8ItemFlagEEE7reallocEii.clean)
    t._ZN7QVectorI6QFlagsIN2Qt8ItemFlagEEED1Ev 0x0001f242   Section       34  qgalleryquerymodel.o(t._ZN7QVectorI6QFlagsIN2Qt8ItemFlagEEED1Ev)
    t._ZN7QVectorI6QFlagsIN2Qt8ItemFlagEEEixEi 0x0001f264   Section       26  qgalleryquerymodel.o(t._ZN7QVectorI6QFlagsIN2Qt8ItemFlagEEEixEi)
    t._ZN7QVectorIiE13detach_helperEv        0x0001f27e   Section       18  qgalleryquerymodel.o(t._ZN7QVectorIiE13detach_helperEv)
    t._ZN7QVectorIiE4freeEP16QVectorTypedDataIiE 0x0001f290   Section       24  qgalleryquerymodel.o(t._ZN7QVectorIiE4freeEP16QVectorTypedDataIiE)
    t._ZN7QVectorIiE5beginEv                 0x0001f2a8   Section       16  qgalleryquerymodel.o(t._ZN7QVectorIiE5beginEv)
    t._ZN7QVectorIiE5eraseEPiS1_             0x0001f2b8   Section       94  qgalleryquerymodel.o(t._ZN7QVectorIiE5eraseEPiS1_)
    t._ZN7QVectorIiE6appendERKi              0x0001f316   Section      142  qgalleryquerymodel.o(t._ZN7QVectorIiE6appendERKi)
    t._ZN7QVectorIiE6detachEv                0x0001f3a4   Section       24  qgalleryquerymodel.o(t._ZN7QVectorIiE6detachEv)
    t._ZN7QVectorIiE6insertEPiiRKi           0x0001f3bc   Section      222  qgalleryquerymodel.o(t._ZN7QVectorIiE6insertEPiiRKi)
    t._ZN7QVectorIiE6insertEiRKi             0x0001f49a   Section       34  qgalleryquerymodel.o(t._ZN7QVectorIiE6insertEiRKi)
    t._ZN7QVectorIiE6mallocEi                0x0001f4bc   Section       52  qgalleryquerymodel.o(t._ZN7QVectorIiE6mallocEi)
    t._ZN7QVectorIiE7reallocEii              0x0001f4f0   Section      412  qgalleryquerymodel.o(t._ZN7QVectorIiE7reallocEii)
    t._ZN7QVectorIiE7reallocEii.clean        0x0001f68c   Section        8  qgalleryquerymodel.o(t._ZN7QVectorIiE7reallocEii.clean)
    t._ZN7QVectorIiEC1Ev                     0x0001f694   Section       24  qgalleryquerymodel.o(t._ZN7QVectorIiEC1Ev)
    t._ZN7QVectorIiED1Ev                     0x0001f6ac   Section       34  qgalleryquerymodel.o(t._ZN7QVectorIiED1Ev)
    t._ZN7QVectorIiEaSERKS0_                 0x0001f6ce   Section       54  qgalleryquerymodel.o(t._ZN7QVectorIiEaSERKS0_)
    t._ZN7QVectorIiEixEi                     0x0001f704   Section       26  qgalleryquerymodel.o(t._ZN7QVectorIiEixEi)
    t._ZN9QHashNodeIi7QStringEC1EiRKS0_      0x0001f71e   Section       26  qgalleryquerymodel.o(t._ZN9QHashNodeIi7QStringEC1EiRKS0_)
    t._ZN9QHashNodeIi8QVariantEC1EiRKS0_     0x0001f738   Section       26  qgalleryquerymodel.o(t._ZN9QHashNodeIi8QVariantEC1EiRKS0_)
    t._ZN9TMdERangeI5TTimeEC1ERKS0_S3_13TMdERangeType 0x0001f752   Section       22  qgallerymdsutility.o(t._ZN9TMdERangeI5TTimeEC1ERKS0_S3_13TMdERangeType)
    t._ZN9TMdERangeIdEC1ERKdS2_13TMdERangeType 0x0001f768   Section       22  qgallerymdsutility.o(t._ZN9TMdERangeIdEC1ERKdS2_13TMdERangeType)
    t._ZN9TMdERangeIxEC1ERKxS2_13TMdERangeType 0x0001f77e   Section       22  qgallerymdsutility.o(t._ZN9TMdERangeIxEC1ERKxS2_13TMdERangeType)
    t._ZNK12QWeakPointerIN10QtMobility16QAbstractGalleryEE4dataEv 0x0001f794   Section       34  qgalleryabstractrequest.o(t._ZNK12QWeakPointerIN10QtMobility16QAbstractGalleryEE4dataEv)
    t._ZNK12QWeakPointerIN10QtMobility16QAbstractGalleryEE6isNullEv 0x0001f7b6   Section       40  qgalleryabstractrequest.o(t._ZNK12QWeakPointerIN10QtMobility16QAbstractGalleryEE6isNullEv)
    t._ZNK13RPointerArrayI10CMdEObjectEixEi  0x0001f7de   Section       16  qmdegalleryresultset.o(t._ZNK13RPointerArrayI10CMdEObjectEixEi)
    t._ZNK14QScopedPointerI15CMdEObjectQuery21QScopedPointerDeleterIS0_EEcvMS3_PS0_Ev 0x0001f7ee   Section       30  qmdegallerytyperesultset.o(t._ZNK14QScopedPointerI15CMdEObjectQuery21QScopedPointerDeleterIS0_EEcvMS3_PS0_Ev)
    t._ZNK14QScopedPointerIN10QtMobility24QGalleryAbstractResponseE21QScopedPointerDeleterIS1_EEcvMS4_PS1_Ev 0x0001f80c   Section       30  qgalleryabstractrequest.o(t._ZNK14QScopedPointerIN10QtMobility24QGalleryAbstractResponseE21QScopedPointerDeleterIS1_EEcvMS4_PS1_Ev)
    t._ZNK4QMapIi8QVariantE15mutableFindNodeEPPN8QMapData4NodeERKi 0x0001f82a   Section      108  qmdegalleryresultset.o(t._ZNK4QMapIi8QVariantE15mutableFindNodeEPPN8QMapData4NodeERKi)
    t._ZNK4QMapIi8QVariantE5valueERKi        0x0001f896   Section      196  qgalleryresource.o(t._ZNK4QMapIi8QVariantE5valueERKi)
    t._ZNK4QMapIi8QVariantEeqERKS1_          0x0001f95a   Section      234  qgalleryresource.o(t._ZNK4QMapIi8QVariantEeqERKS1_)
    t._ZNK5QHashIi7QStringE14const_iteratorneERKS2_ 0x0001fa44   Section       18  qgalleryquerymodel.o(t._ZNK5QHashIi7QStringE14const_iteratorneERKS2_)
    t._ZNK5QHashIi7QStringE5beginEv          0x0001fa56   Section       44  qgalleryquerymodel.o(t._ZNK5QHashIi7QStringE5beginEv)
    t._ZNK5QHashIi7QStringE6valuesEv         0x0001fa82   Section       94  qgalleryquerymodel.o(t._ZNK5QHashIi7QStringE6valuesEv)
    t._ZNK5QHashIi7QStringE6valuesEv.clean   0x0001fae0   Section       10  qgalleryquerymodel.o(t._ZNK5QHashIi7QStringE6valuesEv.clean)
    t._ZNK5QHashIi7QStringE8containsERKi     0x0001faea   Section       32  qgalleryquerymodel.o(t._ZNK5QHashIi7QStringE8containsERKi)
    t._ZNK5QHashIi7QStringE8findNodeERKiPj   0x0001fb0a   Section       94  qgalleryquerymodel.o(t._ZNK5QHashIi7QStringE8findNodeERKiPj)
    t._ZNK5QHashIi8QVariantE8findNodeERKiPj  0x0001fb68   Section       94  qgalleryquerymodel.o(t._ZNK5QHashIi8QVariantE8findNodeERKiPj)
    t._ZNK5QListI7QStringE14const_iteratorneERKS2_ 0x0001fbc6   Section       18  qmdegallerycategoryresultset.o(t._ZNK5QListI7QStringE14const_iteratorneERKS2_)
    t._ZNK5QListI7QStringE5countEv           0x0001fbd8   Section       16  qmdegallerycategoryresultset.o(t._ZNK5QListI7QStringE5countEv)
    t._ZNK5QListI7QStringE7indexOfERKS0_i    0x0001fbe8   Section      148  qmdegallerycategoryresultset.o(t._ZNK5QListI7QStringE7indexOfERKS0_i)
    t._ZNK5QListI7QStringE7isEmptyEv         0x0001fc7c   Section       24  qgalleryquerymodel.o(t._ZNK5QListI7QStringE7isEmptyEv)
    t._ZNK5QListI7QStringEeqERKS1_           0x0001fc94   Section      122  qgalleryitemrequest.o(t._ZNK5QListI7QStringEeqERKS1_)
    t._ZNK5QListI7QStringEneERKS1_           0x0001fd0e   Section       20  qgalleryqueryrequest.o(t._ZNK5QListI7QStringEneERKS1_)
    t._ZNK5QListIN10QtMobility14QGalleryFilterEE14const_iteratorneERKS3_ 0x0001fd22   Section       18  qgalleryfilter.o(t._ZNK5QListIN10QtMobility14QGalleryFilterEE14const_iteratorneERKS3_)
    t._ZNK5QListIN10QtMobility14QGalleryFilterEE3endEv 0x0001fd34   Section       20  qgalleryfilter.o(t._ZNK5QListIN10QtMobility14QGalleryFilterEE3endEv)
    t._ZNK5QListIN10QtMobility14QGalleryFilterEE3midEii 0x0001fd48   Section      152  qgalleryfilter.o(t._ZNK5QListIN10QtMobility14QGalleryFilterEE3midEii)
    t._ZNK5QListIN10QtMobility14QGalleryFilterEE3midEii.clean 0x0001fde0   Section       16  qgalleryfilter.o(t._ZNK5QListIN10QtMobility14QGalleryFilterEE3midEii.clean)
    t._ZNK5QListIN10QtMobility14QGalleryFilterEE4sizeEv 0x0001fdf0   Section       12  qgalleryfilter.o(t._ZNK5QListIN10QtMobility14QGalleryFilterEE4sizeEv)
    t._ZNK5QListIN10QtMobility14QGalleryFilterEE7isEmptyEv 0x0001fdfc   Section       24  qgalleryfilter.o(t._ZNK5QListIN10QtMobility14QGalleryFilterEE7isEmptyEv)
    t._ZNK5QListIN10QtMobility14QGalleryFilterEEeqERKS2_ 0x0001fe14   Section      110  qgalleryfilter.o(t._ZNK5QListIN10QtMobility14QGalleryFilterEEeqERKS2_)
    t._ZNK5QListIN10QtMobility14QGalleryFilterEEplERKS2_ 0x0001fe82   Section       28  qgalleryfilter.o(t._ZNK5QListIN10QtMobility14QGalleryFilterEEplERKS2_)
    t._ZNK5QListIN10QtMobility14QGalleryFilterEEplERKS2_.clean 0x0001fe9e   Section       10  qgalleryfilter.o(t._ZNK5QListIN10QtMobility14QGalleryFilterEEplERKS2_.clean)
    t._ZNK5QListIiE8containsERKi             0x0001fea8   Section       66  qgalleryquerymodel.o(t._ZNK5QListIiE8containsERKi)
    t._ZNK6QFlagsIN10QtMobility16QGalleryProperty9AttributeEEorES2_ 0x0001feea   Section       16  qmdegalleryresultset.o(t._ZNK6QFlagsIN10QtMobility16QGalleryProperty9AttributeEEorES2_)
    t._ZNK6RArrayImE4FindERKm                0x0001fefa   Section       16  qmdegalleryqueryresultset.o(t._ZNK6RArrayImE4FindERKm)
    t._ZNK7QVectorI5QHashIi7QStringEE5valueEi 0x0001ff0a   Section       48  qgalleryquerymodel.o(t._ZNK7QVectorI5QHashIi7QStringEE5valueEi)
    t._ZNK7QVectorI5QHashIi8QVariantEE5valueEi 0x0001ff3a   Section       48  qgalleryquerymodel.o(t._ZNK7QVectorI5QHashIi8QVariantEE5valueEi)
    t._ZNK7QVectorI6QFlagsIN2Qt8ItemFlagEEE5valueEi 0x0001ff6a   Section       40  qgalleryquerymodel.o(t._ZNK7QVectorI6QFlagsIN2Qt8ItemFlagEEE5valueEi)
    t._ZNK7QVectorIiE2atEi                   0x0001ff92   Section       14  qgalleryquerymodel.o(t._ZNK7QVectorIiE2atEi)
    .extab._ZN10QtMobility16QAbstractGalleryD2Ev 0x0001ffa0   Data           0  qabstractgallery.o(.ARM.extab)
    .extab._ZN10QtMobility23QGalleryAbstractRequest10setGalleryEPNS_16QAbstractGalleryE 0x0001ffb0   Data           0  qgalleryabstractrequest.o(.ARM.extab)
    .extab._ZN10QtMobility30QGalleryAbstractRequestPrivate11_q_finishedEv 0x0001ffc0   Data           0  qgalleryabstractrequest.o(.ARM.extab)
    .extab._ZN10QtMobility23QGalleryAbstractRequest5clearEv 0x0001ffd0   Data           0  qgalleryabstractrequest.o(.ARM.extab)
    .extab._ZN10QtMobility23QGalleryAbstractRequest7executeEv 0x0001ffe8   Data           0  qgalleryabstractrequest.o(.ARM.extab)
    .extab._ZN10QtMobility23QGalleryAbstractRequest11qt_metacallEN11QMetaObject4CallEiPPv 0x00020090   Data           0  qgalleryabstractrequest.o(.ARM.extab)
    .extab._ZN10QtMobility23QGalleryAbstractRequestC2ENS0_11RequestTypeEP7QObject 0x000200a0   Data           0  qgalleryabstractrequest.o(.ARM.extab)
    .extab._ZN10QtMobility23QGalleryAbstractRequestC2EPNS_16QAbstractGalleryENS0_11RequestTypeEP7QObject 0x000200b8   Data           0  qgalleryabstractrequest.o(.ARM.extab)
    .extab._ZN10QtMobility23QGalleryAbstractRequestD2Ev 0x000200d0   Data           0  qgalleryabstractrequest.o(.ARM.extab)
    .extab._ZN10QtMobility30QGalleryAbstractRequestPrivateC1EPNS_16QAbstractGalleryENS_23QGalleryAbstractRequest11RequestTypeE 0x000200e0   Data           0  qgalleryabstractrequest.o(.ARM.extab)
    .extab._ZN10QtMobility30QGalleryAbstractRequestPrivateD1Ev 0x000200f0   Data           0  qgalleryabstractrequest.o(.ARM.extab)
    .extab._ZN10QtMobility24QGalleryAbstractResponseC1EiRK7QStringP7QObject 0x00020108   Data           0  qgalleryabstractresponse.o(.ARM.extab)
    .extab._ZN10QtMobility24QGalleryAbstractResponseD1Ev 0x00020128   Data           0  qgalleryabstractresponse.o(.ARM.extab)
    .extab._ZN10QtMobility24QGalleryAbstractResponse15waitForFinishedEi 0x00020138   Data           0  qgalleryabstractresponse.o(.ARM.extab)
    .extab._ZN10QtMobility24QGalleryAbstractResponseC1EP7QObject 0x00020148   Data           0  qgalleryabstractresponse.o(.ARM.extab)
    .extab._ZN10QtMobility14QGalleryFilterC1Ev 0x00020160   Data           0  qgalleryfilter.o(.ARM.extab)
    .extab._ZNK10QtMobility14QGalleryFilter20toIntersectionFilterEv 0x00020170   Data           0  qgalleryfilter.o(.ARM.extab)
    .extab._ZNK10QtMobility14QGalleryFilter13toUnionFilterEv 0x00020198   Data           0  qgalleryfilter.o(.ARM.extab)
    .extab._ZNK10QtMobility14QGalleryFilter16toMetaDataFilterEv 0x000201c0   Data           0  qgalleryfilter.o(.ARM.extab)
    .extab._ZN10QtMobility26QGalleryIntersectionFilterC1Ev 0x000201e8   Data           0  qgalleryfilter.o(.ARM.extab)
    .extab._ZN10QtMobility26QGalleryIntersectionFilterC1ERKNS_22QGalleryMetaDataFilterE 0x000201f8   Data           0  qgalleryfilter.o(.ARM.extab)
    .extab._ZN10QtMobility26QGalleryIntersectionFilterC1ERKNS_19QGalleryUnionFilterE 0x00020210   Data           0  qgalleryfilter.o(.ARM.extab)
    .extab._ZN10QtMobility26QGalleryIntersectionFilter6appendERKNS_22QGalleryMetaDataFilterE 0x00020228   Data           0  qgalleryfilter.o(.ARM.extab)
    .extab._ZN10QtMobility26QGalleryIntersectionFilter6appendERKNS_19QGalleryUnionFilterE 0x00020238   Data           0  qgalleryfilter.o(.ARM.extab)
    .extab._ZN10QtMobility26QGalleryIntersectionFilter7prependERKNS_22QGalleryMetaDataFilterE 0x00020248   Data           0  qgalleryfilter.o(.ARM.extab)
    .extab._ZN10QtMobility26QGalleryIntersectionFilter7prependERKNS_19QGalleryUnionFilterE 0x00020258   Data           0  qgalleryfilter.o(.ARM.extab)
    .extab._ZN10QtMobility26QGalleryIntersectionFilter7prependERKS0_ 0x00020268   Data           0  qgalleryfilter.o(.ARM.extab)
    .extab._ZN10QtMobility26QGalleryIntersectionFilter6insertEiRKNS_22QGalleryMetaDataFilterE 0x00020278   Data           0  qgalleryfilter.o(.ARM.extab)
    .extab._ZN10QtMobility26QGalleryIntersectionFilter6insertEiRKNS_19QGalleryUnionFilterE 0x00020288   Data           0  qgalleryfilter.o(.ARM.extab)
    .extab._ZN10QtMobility26QGalleryIntersectionFilter6insertEiRKS0_ 0x00020298   Data           0  qgalleryfilter.o(.ARM.extab)
    .extab._ZN10QtMobility26QGalleryIntersectionFilter7replaceEiRKNS_22QGalleryMetaDataFilterE 0x000202d8   Data           0  qgalleryfilter.o(.ARM.extab)
    .extab._ZN10QtMobility26QGalleryIntersectionFilter7replaceEiRKNS_19QGalleryUnionFilterE 0x000202e8   Data           0  qgalleryfilter.o(.ARM.extab)
    .extab._ZN10QtMobility19QGalleryUnionFilterC1Ev 0x000202f8   Data           0  qgalleryfilter.o(.ARM.extab)
    .extab._ZN10QtMobility19QGalleryUnionFilterC1ERKNS_22QGalleryMetaDataFilterE 0x00020308   Data           0  qgalleryfilter.o(.ARM.extab)
    .extab._ZN10QtMobility19QGalleryUnionFilterC1ERKNS_26QGalleryIntersectionFilterE 0x00020320   Data           0  qgalleryfilter.o(.ARM.extab)
    .extab._ZN10QtMobility19QGalleryUnionFilter6appendERKNS_22QGalleryMetaDataFilterE 0x00020338   Data           0  qgalleryfilter.o(.ARM.extab)
    .extab._ZN10QtMobility19QGalleryUnionFilter6appendERKNS_26QGalleryIntersectionFilterE 0x00020348   Data           0  qgalleryfilter.o(.ARM.extab)
    .extab._ZN10QtMobility19QGalleryUnionFilter7prependERKNS_22QGalleryMetaDataFilterE 0x00020358   Data           0  qgalleryfilter.o(.ARM.extab)
    .extab._ZN10QtMobility19QGalleryUnionFilter7prependERKNS_26QGalleryIntersectionFilterE 0x00020368   Data           0  qgalleryfilter.o(.ARM.extab)
    .extab._ZN10QtMobility19QGalleryUnionFilter7prependERKS0_ 0x00020378   Data           0  qgalleryfilter.o(.ARM.extab)
    .extab._ZN10QtMobility19QGalleryUnionFilter6insertEiRKNS_22QGalleryMetaDataFilterE 0x00020388   Data           0  qgalleryfilter.o(.ARM.extab)
    .extab._ZN10QtMobility19QGalleryUnionFilter6insertEiRKNS_26QGalleryIntersectionFilterE 0x00020398   Data           0  qgalleryfilter.o(.ARM.extab)
    .extab._ZN10QtMobility19QGalleryUnionFilter6insertEiRKS0_ 0x000203a8   Data           0  qgalleryfilter.o(.ARM.extab)
    .extab._ZN10QtMobility19QGalleryUnionFilter7replaceEiRKNS_22QGalleryMetaDataFilterE 0x000203e8   Data           0  qgalleryfilter.o(.ARM.extab)
    .extab._ZN10QtMobility19QGalleryUnionFilter7replaceEiRKNS_26QGalleryIntersectionFilterE 0x000203f8   Data           0  qgalleryfilter.o(.ARM.extab)
    .extab._ZN10QtMobility22QGalleryMetaDataFilterC1Ev 0x00020408   Data           0  qgalleryfilter.o(.ARM.extab)
    .extab._ZN10QtMobility22QGalleryMetaDataFilterC1ERK7QStringRK8QVariantNS_14QGalleryFilter10ComparatorE 0x00020418   Data           0  qgalleryfilter.o(.ARM.extab)
    .extab._ZNK10QtMobility22QGalleryMetaDataFilterntEv 0x00020428   Data           0  qgalleryfilter.o(.ARM.extab)
    .extab._ZN10QtMobilityaaERKNS_26QGalleryIntersectionFilterES2_ 0x00020438   Data           0  qgalleryfilter.o(.ARM.extab)
    .extab._ZN10QtMobilityooERKNS_19QGalleryUnionFilterES2_ 0x00020448   Data           0  qgalleryfilter.o(.ARM.extab)
    .extab._ZN6QDebugD1Ev                    0x00020458   Data           0  qgalleryfilter.o(.ARM.extab)
    .extab._ZN6QDebuglsEPKc                  0x0002047c   Data           0  qgalleryfilter.o(.ARM.extab)
    .extab._ZN10QtMobility33QGalleryIntersectionFilterPrivateC1ENS_14QGalleryFilter4TypeE 0x0002048c   Data           0  qgalleryfilter.o(.ARM.extab)
    .extab._ZN10QtMobility26QGalleryUnionFilterPrivateC1ENS_14QGalleryFilter4TypeE 0x0002049c   Data           0  qgalleryfilter.o(.ARM.extab)
    .extab._ZN10QtMobility29QGalleryMetaDataFilterPrivateC1ENS_14QGalleryFilter4TypeE 0x000204ac   Data           0  qgalleryfilter.o(.ARM.extab)
    .extab._ZN5QListIN10QtMobility14QGalleryFilterEE9node_copyEPNS2_4NodeES4_S4_ 0x000204bc   Data           0  qgalleryfilter.o(.ARM.extab)
    .extab._ZN5QListIN10QtMobility14QGalleryFilterEE13detach_helperEi 0x000204e0   Data           0  qgalleryfilter.o(.ARM.extab)
    .extab._ZN18QSharedDataPointerIN10QtMobility33QGalleryIntersectionFilterPrivateEE13detach_helperEv 0x000204fc   Data           0  qgalleryfilter.o(.ARM.extab)
    .extab._ZN5QListIN10QtMobility14QGalleryFilterEE14node_constructEPNS2_4NodeERKS1_ 0x00020514   Data           0  qgalleryfilter.o(.ARM.extab)
    .extab._ZN5QListIN10QtMobility14QGalleryFilterEE18detach_helper_growEii 0x00020524   Data           0  qgalleryfilter.o(.ARM.extab)
    .extab._ZN5QListIN10QtMobility14QGalleryFilterEE6appendERKS1_ 0x00020554   Data           0  qgalleryfilter.o(.ARM.extab)
    .extab._ZN5QListIN10QtMobility14QGalleryFilterEEpLERKS2_ 0x00020584   Data           0  qgalleryfilter.o(.ARM.extab)
    .extab._ZN5QListIN10QtMobility14QGalleryFilterEE7prependERKS1_ 0x000205a0   Data           0  qgalleryfilter.o(.ARM.extab)
    .extab._ZN5QListIN10QtMobility14QGalleryFilterEE6insertEiRKS1_ 0x000205d0   Data           0  qgalleryfilter.o(.ARM.extab)
    .extab._ZNK5QListIN10QtMobility14QGalleryFilterEE3midEii 0x00020600   Data           0  qgalleryfilter.o(.ARM.extab)
    .extab._ZN5QListIN10QtMobility14QGalleryFilterEE5clearEv 0x0002062c   Data           0  qgalleryfilter.o(.ARM.extab)
    .extab._ZN18QSharedDataPointerIN10QtMobility26QGalleryUnionFilterPrivateEE13detach_helperEv 0x0002063c   Data           0  qgalleryfilter.o(.ARM.extab)
    .extab._ZN18QSharedDataPointerIN10QtMobility29QGalleryMetaDataFilterPrivateEE13detach_helperEv 0x00020654   Data           0  qgalleryfilter.o(.ARM.extab)
    .extab._ZN10QtMobility29QGalleryMetaDataFilterPrivateD1Ev 0x00020674   Data           0  qgalleryfilter.o(.ARM.extab)
    .extab._ZNK5QListIN10QtMobility14QGalleryFilterEEplERKS2_ 0x0002068c   Data           0  qgalleryfilter.o(.ARM.extab)
    .extab._ZNK10QtMobility33QGalleryIntersectionFilterPrivate10printDebugER6QDebug 0x0002069c   Data           0  qgalleryfilter.o(.ARM.extab)
    .extab._ZN10QtMobility33QGalleryIntersectionFilterPrivateD1Ev 0x000206b4   Data           0  qgalleryfilter.o(.ARM.extab)
    .extab._ZNK10QtMobility26QGalleryUnionFilterPrivate10printDebugER6QDebug 0x000206c4   Data           0  qgalleryfilter.o(.ARM.extab)
    .extab._ZN10QtMobility26QGalleryUnionFilterPrivateD1Ev 0x000206dc   Data           0  qgalleryfilter.o(.ARM.extab)
    .extab._ZNK10QtMobility29QGalleryMetaDataFilterPrivate10printDebugER6QDebug 0x000206ec   Data           0  qgalleryfilter.o(.ARM.extab)
    .extab._ZN10QtMobility19QGalleryItemRequest11qt_metacallEN11QMetaObject4CallEiPPv 0x000206fc   Data           0  qgalleryitemrequest.o(.ARM.extab)
    .extab._ZN10QtMobility19QGalleryItemRequestC1EP7QObject 0x0002072c   Data           0  qgalleryitemrequest.o(.ARM.extab)
    .extab._ZN10QtMobility19QGalleryItemRequestC1EPNS_16QAbstractGalleryEP7QObject 0x0002073c   Data           0  qgalleryitemrequest.o(.ARM.extab)
    .extab._ZN5QListIN10QtMobility16QGalleryResourceEE13detach_helperEi 0x0002074c   Data           0  qgalleryitemrequest.o(.ARM.extab)
    .extab._ZN10QtMobility26QGalleryItemRequestPrivateC1EPNS_16QAbstractGalleryE 0x00020790   Data           0  qgalleryitemrequest.o(.ARM.extab)
    .extab._ZN5QListIiE18detach_helper_growEii 0x000207c0   Data           0  qgalleryitemrequest.o(.ARM.extab)
    .extab._ZN5QListIiE13detach_helperEi     0x000207f0   Data           0  qgalleryitemrequest.o(.ARM.extab)
    .extab._ZN5QListIiE5clearEv              0x0002080c   Data           0  qgalleryitemrequest.o(.ARM.extab)
    .extab._ZN10QtMobility26QGalleryItemRequestPrivateD1Ev 0x0002081c   Data           0  qgalleryitemrequest.o(.ARM.extab)
    .extab._ZN10QtMobility25QGalleryQueryModelPrivate18_q_metaDataChangedEiiRK5QListIiE 0x00020844   Data           0  qgalleryquerymodel.o(.ARM.extab)
    .extab._ZN10QtMobility25QGalleryQueryModelPrivate13_q_itemsMovedEiii 0x00020854   Data           0  qgalleryquerymodel.o(.ARM.extab)
    .extab._ZN10QtMobility25QGalleryQueryModelPrivate15_q_itemsRemovedEii 0x0002086c   Data           0  qgalleryquerymodel.o(.ARM.extab)
    .extab._ZN10QtMobility25QGalleryQueryModelPrivate16_q_itemsInsertedEii 0x0002087c   Data           0  qgalleryquerymodel.o(.ARM.extab)
    .extab._ZN10QtMobility25QGalleryQueryModelPrivate19_q_resultSetChangedEPNS_17QGalleryResultSetE 0x0002088c   Data           0  qgalleryquerymodel.o(.ARM.extab)
    .extab._ZN10QtMobility18QGalleryQueryModel11qt_metacallEN11QMetaObject4CallEiPPv 0x000208a4   Data           0  qgalleryquerymodel.o(.ARM.extab)
    .extab._ZN10QtMobility18QGalleryQueryModelC1EP7QObject 0x000208d4   Data           0  qgalleryquerymodel.o(.ARM.extab)
    .extab._ZN10QtMobility18QGalleryQueryModelC1EPNS_16QAbstractGalleryEP7QObject 0x000208f4   Data           0  qgalleryquerymodel.o(.ARM.extab)
    .extab._ZN10QtMobility18QGalleryQueryModelD1Ev 0x00020914   Data           0  qgalleryquerymodel.o(.ARM.extab)
    .extab._ZN10QtMobility18QGalleryQueryModel17setRolePropertiesEiRK5QHashIi7QStringE 0x00020924   Data           0  qgalleryquerymodel.o(.ARM.extab)
    .extab._ZN10QtMobility18QGalleryQueryModel9addColumnERK5QHashIi7QStringE 0x00020934   Data           0  qgalleryquerymodel.o(.ARM.extab)
    .extab._ZN10QtMobility18QGalleryQueryModel9addColumnERK7QStringi 0x0002094c   Data           0  qgalleryquerymodel.o(.ARM.extab)
    .extab._ZN10QtMobility18QGalleryQueryModel12insertColumnEiRK5QHashIi7QStringE 0x0002095c   Data           0  qgalleryquerymodel.o(.ARM.extab)
    .extab._ZN10QtMobility18QGalleryQueryModel12insertColumnEiRK7QStringi 0x00020974   Data           0  qgalleryquerymodel.o(.ARM.extab)
    .extab._ZN10QtMobility18QGalleryQueryModel12removeColumnEi 0x00020984   Data           0  qgalleryquerymodel.o(.ARM.extab)
    .extab._ZN10QtMobility25QGalleryQueryModelPrivate11updateRolesEv 0x00020994   Data           0  qgalleryquerymodel.o(.ARM.extab)
    .extab._ZN10QtMobility18QGalleryQueryModel7executeEv 0x000209a4   Data           0  qgalleryquerymodel.o(.ARM.extab)
    .extab._ZNK10QtMobility18QGalleryQueryModel5indexEiiRK11QModelIndex 0x000209c4   Data           0  qgalleryquerymodel.o(.ARM.extab)
    .extab._ZNK10QtMobility18QGalleryQueryModel10headerDataEiN2Qt11OrientationEi 0x000209d4   Data           0  qgalleryquerymodel.o(.ARM.extab)
    .extab._ZN5QListI7QStringE9node_copyEPNS1_4NodeES3_S3_ 0x00020a04   Data           0  qgalleryquerymodel.o(.ARM.extab)
    .extab._ZN5QListI7QStringE13detach_helperEi 0x00020a28   Data           0  qgalleryquerymodel.o(.ARM.extab)
    .extab._ZN5QListI7QStringE14node_constructEPNS1_4NodeERKS0_ 0x00020a44   Data           0  qgalleryquerymodel.o(.ARM.extab)
    .extab._ZN5QListI7QStringE18detach_helper_growEii 0x00020a54   Data           0  qgalleryquerymodel.o(.ARM.extab)
    .extab._ZN5QListI7QStringE6appendERKS0_  0x00020a84   Data           0  qgalleryquerymodel.o(.ARM.extab)
    .extab._ZN5QListI7QStringEpLERKS1_       0x00020ab4   Data           0  qgalleryquerymodel.o(.ARM.extab)
    .extab._ZNK5QHashIi7QStringE6valuesEv    0x00020ad0   Data           0  qgalleryquerymodel.o(.ARM.extab)
    .extab._ZN5QHashIi7QStringE6insertERKiRKS0_ 0x00020ae0   Data           0  qgalleryquerymodel.o(.ARM.extab)
    .extab._ZN14QScopedPointerIN10QtMobility25QGalleryQueryModelPrivateE21QScopedPointerDeleterIS1_EED1Ev 0x00020af8   Data           0  qgalleryquerymodel.o(.ARM.extab)
    .extab._ZN10QtMobility25QGalleryQueryModelPrivateC1EPNS_16QAbstractGalleryE 0x00020b28   Data           0  qgalleryquerymodel.o(.ARM.extab)
    .extab._ZN7QVectorIiE7reallocEii         0x00020b58   Data           0  qgalleryquerymodel.o(.ARM.extab)
    .extab._ZN7QVectorI6QFlagsIN2Qt8ItemFlagEEE7reallocEii 0x00020b74   Data           0  qgalleryquerymodel.o(.ARM.extab)
    .extab._ZN7QVectorI5QHashIi7QStringEE7reallocEii 0x00020b90   Data           0  qgalleryquerymodel.o(.ARM.extab)
    .extab._ZN7QVectorI5QHashIi8QVariantEE7reallocEii 0x00020bbc   Data           0  qgalleryquerymodel.o(.ARM.extab)
    .extab._ZN7QVectorI5QHashIi8QVariantEE6appendERKS2_ 0x00020be8   Data           0  qgalleryquerymodel.o(.ARM.extab)
    .extab._ZN7QVectorI5QHashIi7QStringEE6appendERKS2_ 0x00020c08   Data           0  qgalleryquerymodel.o(.ARM.extab)
    .extab._ZN7QVectorI5QHashIi8QVariantEE6insertEPS2_iRKS2_ 0x00020c28   Data           0  qgalleryquerymodel.o(.ARM.extab)
    .extab._ZN7QVectorI5QHashIi7QStringEE6insertEPS2_iRKS2_ 0x00020c48   Data           0  qgalleryquerymodel.o(.ARM.extab)
    .extab._ZN5QHashIi7QStringE13duplicateNodeEPN9QHashData4NodeEPv 0x00020c68   Data           0  qgalleryquerymodel.o(.ARM.extab)
    .extab._ZN5QHashIi8QVariantE13duplicateNodeEPN9QHashData4NodeEPv 0x00020c78   Data           0  qgalleryquerymodel.o(.ARM.extab)
    .extab._ZN5QHashIi8QVariantE6insertERKiRKS0_ 0x00020c88   Data           0  qgalleryquerymodel.o(.ARM.extab)
    .extab._ZN10QtMobility20QGalleryQueryRequest11qt_metacallEN11QMetaObject4CallEiPPv 0x00020ca0   Data           0  qgalleryqueryrequest.o(.ARM.extab)
    .extab._ZN10QtMobility20QGalleryQueryRequestC1EP7QObject 0x00020cf0   Data           0  qgalleryqueryrequest.o(.ARM.extab)
    .extab._ZN10QtMobility20QGalleryQueryRequestC1EPNS_16QAbstractGalleryEP7QObject 0x00020d00   Data           0  qgalleryqueryrequest.o(.ARM.extab)
    .extab._ZN10QtMobility27QGalleryQueryRequestPrivateC1EPNS_16QAbstractGalleryE 0x00020d10   Data           0  qgalleryqueryrequest.o(.ARM.extab)
    .extab._ZN10QtMobility27QGalleryQueryRequestPrivateD1Ev 0x00020d50   Data           0  qgalleryqueryrequest.o(.ARM.extab)
    .extab._ZN10QtMobility16QGalleryResourceC1Ev 0x00020d88   Data           0  qgalleryresource.o(.ARM.extab)
    .extab._ZN10QtMobility16QGalleryResourceC1ERK4QUrl 0x00020d98   Data           0  qgalleryresource.o(.ARM.extab)
    .extab._ZN10QtMobility16QGalleryResourceC1ERK4QUrl4QMapIi8QVariantE 0x00020da8   Data           0  qgalleryresource.o(.ARM.extab)
    .extab._ZN10QtMobility16QGalleryResourceC1ERKS0_ 0x00020db8   Data           0  qgalleryresource.o(.ARM.extab)
    .extab._ZN10QtMobility16QGalleryResourceD1Ev 0x00020dc8   Data           0  qgalleryresource.o(.ARM.extab)
    .extab._ZN4QMapIi8QVariantE13detach_helperEv 0x00020dd8   Data           0  qgalleryresource.o(.ARM.extab)
    .extab._ZN4QMapIi8QVariantE11node_createEP8QMapDataPPNS2_4NodeERKiRKS0_ 0x00020df4   Data           0  qgalleryresource.o(.ARM.extab)
    .extab._ZN10QtMobility17QGalleryResultSetC2EP7QObject 0x00020e2c   Data           0  qgalleryresultset.o(.ARM.extab)
    .extab._ZNK10QtMobility17QGalleryResultSet9resourcesEv 0x00020e3c   Data           0  qgalleryresultset.o(.ARM.extab)
    .extab._ZN5QListIN10QtMobility16QGalleryResourceEE14node_constructEPNS2_4NodeERKS1_ 0x00020e6c   Data           0  qgalleryresultset.o(.ARM.extab)
    .extab._ZN5QListIN10QtMobility16QGalleryResourceEE9node_copyEPNS2_4NodeES4_S4_ 0x00020e7c   Data           0  qgalleryresultset.o(.ARM.extab)
    .extab._ZN10QtMobility19QGalleryTypeRequest11qt_metacallEN11QMetaObject4CallEiPPv 0x00020ea0   Data           0  qgallerytyperequest.o(.ARM.extab)
    .extab._ZN10QtMobility19QGalleryTypeRequestC1EP7QObject 0x00020eb8   Data           0  qgallerytyperequest.o(.ARM.extab)
    .extab._ZN10QtMobility19QGalleryTypeRequestC1EPNS_16QAbstractGalleryEP7QObject 0x00020ec8   Data           0  qgallerytyperequest.o(.ARM.extab)
    .extab._ZN10QtMobility26QGalleryTypeRequestPrivateC1EPNS_16QAbstractGalleryE 0x00020ed8   Data           0  qgallerytyperequest.o(.ARM.extab)
    .extab._ZN10QtMobility26QGalleryTypeRequestPrivateD1Ev 0x00020f08   Data           0  qgallerytyperequest.o(.ARM.extab)
    .extab._ZN10QtMobility20QMDEGalleryResultSetC2EP7QObject 0x00020f30   Data           0  qmdegalleryresultset.o(.ARM.extab)
    .extab._ZN10QtMobility20QMDEGalleryResultSetD2Ev 0x00020f48   Data           0  qmdegalleryresultset.o(.ARM.extab)
    .extab._ZNK10QtMobility20QMDEGalleryResultSet7itemUrlEv 0x00020f58   Data           0  qmdegalleryresultset.o(.ARM.extab)
    .extab._ZNK10QtMobility20QMDEGalleryResultSet8itemTypeEv 0x00020f70   Data           0  qmdegalleryresultset.o(.ARM.extab)
    .extab._ZNK10QtMobility20QMDEGalleryResultSet9resourcesEv 0x00020f80   Data           0  qmdegalleryresultset.o(.ARM.extab)
    .extab._ZNK10QtMobility20QMDEGalleryResultSet8metaDataEi 0x00021010   Data           0  qmdegalleryresultset.o(.ARM.extab)
    .extab._ZN10QtMobility20QMDEGalleryResultSet11setMetaDataEiRK8QVariant 0x00021058   Data           0  qmdegalleryresultset.o(.ARM.extab)
    .extab._ZN5QListIN10QtMobility16QGalleryResourceEE18detach_helper_growEii 0x000210b0   Data           0  qmdegalleryresultset.o(.ARM.extab)
    .extab._ZN5QListIN10QtMobility16QGalleryResourceEE6appendERKS1_ 0x000210e0   Data           0  qmdegalleryresultset.o(.ARM.extab)
    .extab._ZN10QtMobility26QDocumentGalleryMDSUtility27ObjDefFromItemTypeForMDS25LER16CMdENamespaceDef7QString 0x00021110   Data           0  qgallerymdsutility.o(.ARM.extab)
    .extab._ZN10QtMobility26QDocumentGalleryMDSUtility19ObjDefFromItemTypeLER16CMdENamespaceDef7QString 0x00021140   Data           0  qgallerymdsutility.o(.ARM.extab)
    .extab._ZN10QtMobility26QDocumentGalleryMDSUtility24GetDataFieldsForItemTypeER11QStringList7QString 0x00021150   Data           0  qgallerymdsutility.o(.ARM.extab)
    .extab._ZN10QtMobility26QDocumentGalleryMDSUtility25GetMetaDataFieldForMDS25LEP10CMdEObjectR8QVarianti 0x00021450   Data           0  qgallerymdsutility.o(.ARM.extab)
    .extab._ZN10QtMobility26QDocumentGalleryMDSUtility19isItemTypeSupportedERK7QString 0x00021550   Data           0  qgallerymdsutility.o(.ARM.extab)
    .extab._ZN10QtMobility26QDocumentGalleryMDSUtility14GetPropertyKeyERK7QString 0x00021588   Data           0  qgallerymdsutility.o(.ARM.extab)
    .extab._ZN10QtMobility26QDocumentGalleryMDSUtility26GetMDSPropertyDefForMDS25LERK7QStringR16CMdENamespaceDef 0x000216e0   Data           0  qgallerymdsutility.o(.ARM.extab)
    .extab._ZN10QtMobility26QDocumentGalleryMDSUtility29InsertReal32PropertyConditionER18CMdELogicConditionP15CMdEPropertyDefR8QVariantRNS_22QGalleryMetaDataFilterE 0x00021810   Data           0  qgallerymdsutility.o(.ARM.extab)
    .extab._ZN10QtMobility26QDocumentGalleryMDSUtility27InsertUIntPropertyConditionER18CMdELogicConditionP15CMdEPropertyDefR8QVariantRNS_22QGalleryMetaDataFilterE 0x000218e0   Data           0  qgallerymdsutility.o(.ARM.extab)
    .extab._ZN10QtMobility26QDocumentGalleryMDSUtility29InsertStringPropertyConditionER18CMdELogicConditionP15CMdEPropertyDefR8QVariantRNS_22QGalleryMetaDataFilterE 0x000219b0   Data           0  qgallerymdsutility.o(.ARM.extab)
    .extab._ZN10QtMobility26QDocumentGalleryMDSUtility28InsertTTImePropertyConditionER18CMdELogicConditionP15CMdEPropertyDefR8QVariantRNS_22QGalleryMetaDataFilterE 0x00021a60   Data           0  qgallerymdsutility.o(.ARM.extab)
    .extab._ZN10QtMobility26QDocumentGalleryMDSUtility29InsertUInt32PropertyConditionER18CMdELogicConditionP15CMdEPropertyDefR8QVariantRNS_22QGalleryMetaDataFilterE 0x00021b38   Data           0  qgallerymdsutility.o(.ARM.extab)
    .extab._ZN10QtMobility26QDocumentGalleryMDSUtility26InsertUriPropertyConditionER18CMdELogicConditionR8QVariantRNS_22QGalleryMetaDataFilterE 0x00021c08   Data           0  qgallerymdsutility.o(.ARM.extab)
    .extab._ZN10QtMobility26QDocumentGalleryMDSUtility17AddMetadataFilterER18CMdELogicConditionRNS_14QGalleryFilterER16CMdENamespaceDef 0x00021c78   Data           0  qgallerymdsutility.o(.ARM.extab)
    .extab._ZN10QtMobility26QDocumentGalleryMDSUtility21AddIntersectionFilterER18CMdELogicConditionRNS_14QGalleryFilterER16CMdENamespaceDef 0x00021d20   Data           0  qgallerymdsutility.o(.ARM.extab)
    .extab._ZN10QtMobility26QDocumentGalleryMDSUtility9AddFilterER18CMdELogicConditionRNS_14QGalleryFilterER16CMdENamespaceDef 0x00021d48   Data           0  qgallerymdsutility.o(.ARM.extab)
    .extab._ZN10QtMobility26QDocumentGalleryMDSUtility14AddUnionFilterER18CMdELogicConditionRNS_14QGalleryFilterER16CMdENamespaceDef 0x00021da0   Data           0  qgallerymdsutility.o(.ARM.extab)
    .extab._ZN10QtMobility26QDocumentGalleryMDSUtility20SetupQueryConditionsEP15CMdEObjectQueryPNS_20QGalleryQueryRequestER16CMdENamespaceDef 0x00021dc8   Data           0  qgallerymdsutility.o(.ARM.extab)
    .extab._ZN10QtMobility26QDocumentGalleryMDSUtility25SetMetaDataFieldForMDS25LEP10CMdEObjectRK8QVarianti 0x00021f08   Data           0  qgallerymdsutility.o(.ARM.extab)
    .extab._Z16qVariantSetValueI4QUrlEvR8QVariantRKT_ 0x00022a88   Data           0  qgallerymdsutility.o(.ARM.extab)
    .extab._Z16qVariantSetValueI7QStringEvR8QVariantRKT_ 0x00022ab0   Data           0  qgallerymdsutility.o(.ARM.extab)
    .extab._Z16qVariantSetValueImEvR8QVariantRKT_ 0x00022ad8   Data           0  qgallerymdsutility.o(.ARM.extab)
    .extab._Z16qVariantSetValueI9QDateTimeEvR8QVariantRKT_ 0x00022af8   Data           0  qgallerymdsutility.o(.ARM.extab)
    .extab._Z16qVariantSetValueIjEvR8QVariantRKT_ 0x00022b20   Data           0  qgallerymdsutility.o(.ARM.extab)
    .extab._Z16qVariantSetValueIdEvR8QVariantRKT_ 0x00022b40   Data           0  qgallerymdsutility.o(.ARM.extab)
    .extab._ZN10QtMobility24QMDEGalleryTypeResultSetC1EPNS_11QMdeSessionEPNS_19QGalleryTypeRequestE 0x00022b60   Data           0  qmdegallerytyperesultset.o(.ARM.extab)
    .extab._ZN10QtMobility24QMDEGalleryTypeResultSetD1Ev 0x00022c78   Data           0  qmdegallerytyperesultset.o(.ARM.extab)
    .extab._ZNK10QtMobility24QMDEGalleryTypeResultSet8metaDataEi 0x00022c98   Data           0  qmdegallerytyperesultset.o(.ARM.extab)
    .extab._ZN10QtMobility24QMDEGalleryTypeResultSet20HandleQueryCompletedER9CMdEQueryi 0x00022cb8   Data           0  qmdegallerytyperesultset.o(.ARM.extab)
    .extab._ZN10QtMobility24QMDEGalleryItemResultSet11createQueryEv 0x00022cc8   Data           0  qmdegalleryitemresultset.o(.ARM.extab)
    .extab._ZN10QtMobility24QMDEGalleryItemResultSetC1EPNS_11QMdeSessionEP7QObject 0x00022d30   Data           0  qmdegalleryitemresultset.o(.ARM.extab)
    .extab._ZN10QtMobility24QMDEGalleryItemResultSetD1Ev 0x00022d40   Data           0  qmdegalleryitemresultset.o(.ARM.extab)
    .extab._ZN10QtMobility24QMDEGalleryItemResultSet27doHandleObjectNotificationLER11CMdESessionNS0_35QMdeSessionObserverNotificationTypeERK6RArrayImE 0x00022d50   Data           0  qmdegalleryitemresultset.o(.ARM.extab)
    .extab._ZN10QtMobility24QMDEGalleryItemResultSet24HandleObjectNotificationER11CMdESession25TObserverNotificationTypeRK6RArrayImE 0x00022db8   Data           0  qmdegalleryitemresultset.o(.ARM.extab)
    .extab._ZN5QListIiE6appendERKi           0x00022e18   Data           0  qmdegalleryitemresultset.o(.ARM.extab)
    .extab._ZN10QtMobility25QMDEGalleryQueryResultSet11createQueryEv 0x00022e34   Data           0  qmdegalleryqueryresultset.o(.ARM.extab)
    .extab._ZN10QtMobility25QMDEGalleryQueryResultSetC1EPNS_11QMdeSessionEP7QObject 0x00022eb4   Data           0  qmdegalleryqueryresultset.o(.ARM.extab)
    .extab._ZN10QtMobility25QMDEGalleryQueryResultSetD1Ev 0x00022ecc   Data           0  qmdegalleryqueryresultset.o(.ARM.extab)
    .extab._ZN10QtMobility25QMDEGalleryQueryResultSet20HandleQueryCompletedER9CMdEQueryi 0x00022ee4   Data           0  qmdegalleryqueryresultset.o(.ARM.extab)
    .extab._ZN10QtMobility25QMDEGalleryQueryResultSet27doHandleObjectNotificationLER11CMdESessionNS0_40QMdeSessionObserverQueryNotificationTypeERK6RArrayImE 0x00022f1c   Data           0  qmdegalleryqueryresultset.o(.ARM.extab)
    .extab._ZN10QtMobility25QMDEGalleryQueryResultSet24HandleObjectNotificationER11CMdESession25TObserverNotificationTypeRK6RArrayImE 0x00022f84   Data           0  qmdegalleryqueryresultset.o(.ARM.extab)
    .extab._ZN10QtMobility56_GLOBAL__N__32_qmdegallerycategoryresultset_cpp_b8a7949f17qt_getRelationDefER16CMdENamespaceDefRK7TDesC16 0x0002300c   Data           0  qmdegallerycategoryresultset.o(.ARM.extab)
    .extab._ZN10QtMobility56_GLOBAL__N__32_qmdegallerycategoryresultset_cpp_b8a7949f23qt_appendScopeConditionEP18CMdELogicConditionjR16CMdENamespaceDef 0x0002303c   Data           0  qmdegallerycategoryresultset.o(.ARM.extab)
    .extab._ZN10QtMobility56_GLOBAL__N__32_qmdegallerycategoryresultset_cpp_b8a7949f17qt_getPropertyDefER16CMdENamespaceDefRK7TDesC16S5_ 0x0002306c   Data           0  qmdegallerycategoryresultset.o(.ARM.extab)
    .extab._ZN10QtMobility56_GLOBAL__N__32_qmdegallerycategoryresultset_cpp_b8a7949f23qt_appendScopeConditionEP18CMdELogicConditionRKNS0_23QMdeGalleryCategoryTypeERK7QStringR16CMdENamespaceDef 0x0002309c   Data           0  qmdegallerycategoryresultset.o(.ARM.extab)
    .extab._ZN10QtMobility28QMDEGalleryCategoryResultSet20appendScopeConditionEP18CMdELogicConditionRK8QVariantR16CMdENamespaceDef 0x000230cc   Data           0  qmdegallerycategoryresultset.o(.ARM.extab)
    .extab._ZN10QtMobility56_GLOBAL__N__32_qmdegallerycategoryresultset_cpp_b8a7949f20qt_addPropertyFilterEP15CMdEObjectQueryRK15CMdEPropertyDef 0x000230f4   Data           0  qmdegallerycategoryresultset.o(.ARM.extab)
    .extab._ZN10QtMobility56_GLOBAL__N__32_qmdegallerycategoryresultset_cpp_b8a7949f17qt_getPropertyDefER13CMdEObjectDefRK7TDesC16 0x00023124   Data           0  qmdegallerycategoryresultset.o(.ARM.extab)
    .extab._ZN10QtMobility56_GLOBAL__N__32_qmdegallerycategoryresultset_cpp_b8a7949f15qt_getObjectDefER16CMdENamespaceDefRK7TDesC16 0x00023154   Data           0  qmdegallerycategoryresultset.o(.ARM.extab)
    .extab._ZN10QtMobility28QMDEGalleryCategoryResultSet15createTypeQueryEP14QScopedPointerI15CMdEObjectQuery21QScopedPointerDeleterIS2_EEPNS_11QMdeSessionERK7QStringP17MMdEQueryObserver 0x00023184   Data           0  qmdegallerycategoryresultset.o(.ARM.extab)
    .extab._ZN10QtMobility28QMDEGalleryCategoryResultSet10itemIdTypeERK7QString 0x000231b4   Data           0  qmdegallerycategoryresultset.o(.ARM.extab)
    .extab._ZN10QtMobility56_GLOBAL__N__32_qmdegallerycategoryresultset_cpp_b8a7949f15qt_setSortOrderEP15CMdEObjectQueryRK11QStringListRKNS0_23QMdeGalleryCategoryTypeER16CMdENamespaceDef 0x000231d4   Data           0  qmdegallerycategoryresultset.o(.ARM.extab)
    .extab._ZN10QtMobility56_GLOBAL__N__32_qmdegallerycategoryresultset_cpp_b8a7949f18qt_appendConditionEP18CMdELogicConditionRKNS_22QGalleryMetaDataFilterERKNS0_23QMdeGalleryCategoryTypeERK15CMdEPropertyDef 0x00023214   Data           0  qmdegallerycategoryresultset.o(.ARM.extab)
    .extab._ZN10QtMobility56_GLOBAL__N__32_qmdegallerycategoryresultset_cpp_b8a7949f19qt_appendConditionsEP18CMdELogicConditionRK5QListINS_14QGalleryFilterEERKNS0_23QMdeGalleryCategoryTypeERK15CMdEPropertyDef 0x0002331c   Data           0  qmdegallerycategoryresultset.o(.ARM.extab)
    .extab._ZN10QtMobility56_GLOBAL__N__32_qmdegallerycategoryresultset_cpp_b8a7949f24qt_appendFilterConditionEP18CMdELogicConditionRKNS_14QGalleryFilterERKNS0_23QMdeGalleryCategoryTypeERK15CMdEPropertyDef 0x000233ac   Data           0  qmdegallerycategoryresultset.o(.ARM.extab)
    .extab._ZN10QtMobility56_GLOBAL__N__32_qmdegallerycategoryresultset_cpp_b8a7949f33qt_filterMdeCategoryPropertyNamesERK7QStringRK11QStringList 0x00023414   Data           0  qmdegallerycategoryresultset.o(.ARM.extab)
    .extab._ZN10QtMobility28QMDEGalleryCategoryResultSetC1EPNS_11QMdeSessionERK7QStringRK11QStringListS8_RK8QVariantRKNS_14QGalleryFilterEiiP7QObject 0x00023424   Data           0  qmdegallerycategoryresultset.o(.ARM.extab)
    .extab._ZN10QtMobility28QMDEGalleryCategoryResultSetD1Ev 0x0002358c   Data           0  qmdegallerycategoryresultset.o(.ARM.extab)
    .extab._ZNK10QtMobility28QMDEGalleryCategoryResultSet6itemIdEv 0x000235cc   Data           0  qmdegallerycategoryresultset.o(.ARM.extab)
    .extab._ZNK10QtMobility28QMDEGalleryCategoryResultSet8itemTypeEv 0x00023604   Data           0  qmdegallerycategoryresultset.o(.ARM.extab)
    .extab._ZNK10QtMobility28QMDEGalleryCategoryResultSet8metaDataEi 0x00023614   Data           0  qmdegallerycategoryresultset.o(.ARM.extab)
    .extab._ZN10QtMobility28QMDEGalleryCategoryResultSet20HandleQueryCompletedER9CMdEQueryi 0x00023624   Data           0  qmdegallerycategoryresultset.o(.ARM.extab)
    .extab._ZplRK7QString5QChar              0x00023634   Data           0  qmdegallerycategoryresultset.o(.ARM.extab)
    .extab._ZN10QtMobility11QMdeSessionC1EP7QObject 0x00023644   Data           0  qmdesession.o(.ARM.extab)
    .extab._ZN10QtMobility11QMdeSessionD1Ev  0x00023694   Data           0  qmdesession.o(.ARM.extab)
    .extab._ZN10QtMobility11QMdeSession15NewObjectQueryLEP17MMdEQueryObserverPNS_20QGalleryQueryRequestERi 0x000236ac   Data           0  qmdesession.o(.ARM.extab)
    .extab._ZN10QtMobility11QMdeSession14NewObjectQueryER16CMdENamespaceDefR13CMdEObjectDefP17MMdEQueryObserver 0x000236fc   Data           0  qmdesession.o(.ARM.extab)
    .extab._ZN10QtMobility11QMdeSession12RemoveObjectEj 0x0002372c   Data           0  qmdesession.o(.ARM.extab)
    .extab._ZN10QtMobility11QMdeSession20RemoveObjectObserverER18MMdEObjectObserver 0x0002375c   Data           0  qmdesession.o(.ARM.extab)
    .extab._ZN10QtMobility16QDocumentGalleryC1EP7QObject 0x0002378c   Data           0  qdocumentgallery_symbian.o(.ARM.extab)
    .extab._ZNK10QtMobility16QDocumentGallery21itemTypePropertyNamesERK7QString 0x000237a4   Data           0  qdocumentgallery_symbian.o(.ARM.extab)
    .extab._ZNK10QtMobility16QDocumentGallery18propertyAttributesERK7QStringS3_ 0x000237c4   Data           0  qdocumentgallery_symbian.o(.ARM.extab)
    .extab._ZN10QtMobility23QDocumentGalleryPrivate19createQueryResponseEPNS_20QGalleryQueryRequestE 0x000237fc   Data           0  qdocumentgallery_symbian.o(.ARM.extab)
    .extab._ZN10QtMobility23QDocumentGalleryPrivate18createTypeResponseEPNS_19QGalleryTypeRequestE 0x0002386c   Data           0  qdocumentgallery_symbian.o(.ARM.extab)
    .extab._ZN10QtMobility23QDocumentGalleryPrivate18createItemResponseEPNS_19QGalleryItemRequestE 0x0002387c   Data           0  qdocumentgallery_symbian.o(.ARM.extab)
    .constdata$1                             0x000238fc   Data           0  qabstractgallery.o(.constdata)
    .constdata                               0x000238fc   Section       94  qabstractgallery.o(.constdata)
    QtMobility::qt_meta_data_QAbstractGallery 0x0002390c   Data          60  qabstractgallery.o(.constdata)
    QtMobility::qt_meta_stringdata_QAbstractGallery 0x00023948   Data          18  qabstractgallery.o(.constdata)
    .constdata$1                             0x0002395c   Data           0  qdocumentgallery.o(.constdata)
    .constdata                               0x0002395c   Section      568  qdocumentgallery.o(.constdata)
    .constdata$1                             0x00023b94   Data           0  qgalleryabstractrequest.o(.constdata)
    .constdata                               0x00023b94   Section     1139  qgalleryabstractrequest.o(.constdata)
    QtMobility::qt_meta_data_QGalleryAbstractRequest 0x00023ba4   Data         584  qgalleryabstractrequest.o(.constdata)
    QtMobility::qt_meta_stringdata_QGalleryAbstractRequest 0x00023dec   Data         539  qgalleryabstractrequest.o(.constdata)
    .constdata$1                             0x00024008   Data           0  qgalleryabstractresponse.o(.constdata)
    .constdata                               0x00024008   Section      256  qgalleryabstractresponse.o(.constdata)
    QtMobility::qt_meta_data_QGalleryAbstractResponse 0x00024018   Data         140  qgalleryabstractresponse.o(.constdata)
    QtMobility::qt_meta_stringdata_QGalleryAbstractResponse 0x000240a4   Data         100  qgalleryabstractresponse.o(.constdata)
    .constdata$1                             0x00024108   Data           0  qgalleryitemrequest.o(.constdata)
    .constdata                               0x00024108   Section      857  qgalleryitemrequest.o(.constdata)
    QtMobility::qt_meta_data_QGalleryItemRequest 0x00024118   Data         392  qgalleryitemrequest.o(.constdata)
    QtMobility::qt_meta_stringdata_QGalleryItemRequest 0x000242a0   Data         449  qgalleryitemrequest.o(.constdata)
    .constdata$1                             0x00024464   Data           0  qgalleryquerymodel.o(.constdata)
    .constdata                               0x00024464   Section     1368  qgalleryquerymodel.o(.constdata)
    QtMobility::qt_meta_data_QGalleryQueryModel 0x00024474   Data         632  qgalleryquerymodel.o(.constdata)
    QtMobility::qt_meta_stringdata_QGalleryQueryModel 0x000246ec   Data         699  qgalleryquerymodel.o(.constdata)
    QtMobility::qt_meta_extradata_QGalleryQueryModel 0x000249a8   Data          12  qgalleryquerymodel.o(.constdata)
    QtMobility::qt_meta_extradata2_QGalleryQueryModel 0x000249b4   Data           8  qgalleryquerymodel.o(.constdata)
    .constdata$1                             0x000249bc   Data           0  qgalleryqueryrequest.o(.constdata)
    .constdata                               0x000249bc   Section     1116  qgalleryqueryrequest.o(.constdata)
    QtMobility::qt_meta_data_QGalleryQueryRequest 0x000249cc   Data         552  qgalleryqueryrequest.o(.constdata)
    QtMobility::qt_meta_stringdata_QGalleryQueryRequest 0x00024bf4   Data         548  qgalleryqueryrequest.o(.constdata)
    .constdata$1                             0x00024e18   Data           0  qgalleryresultset.o(.constdata)
    .constdata                               0x00024e18   Section      416  qgalleryresultset.o(.constdata)
    QtMobility::qt_meta_data_QGalleryResultSet 0x00024e28   Data         180  qgalleryresultset.o(.constdata)
    QtMobility::qt_meta_stringdata_QGalleryResultSet 0x00024edc   Data         220  qgalleryresultset.o(.constdata)
    .constdata$1                             0x00024fb8   Data           0  qgallerytyperequest.o(.constdata)
    .constdata                               0x00024fb8   Section      748  qgallerytyperequest.o(.constdata)
    QtMobility::qt_meta_data_QGalleryTypeRequest 0x00024fc8   Data         344  qgallerytyperequest.o(.constdata)
    QtMobility::qt_meta_stringdata_QGalleryTypeRequest 0x00025120   Data         388  qgallerytyperequest.o(.constdata)
    .constdata$1                             0x000252a4   Data           0  qmdegalleryresultset.o(.constdata)
    .constdata                               0x000252a4   Section       98  qmdegalleryresultset.o(.constdata)
    QtMobility::qt_meta_data_QMDEGalleryResultSet 0x000252b4   Data          60  qmdegalleryresultset.o(.constdata)
    QtMobility::qt_meta_stringdata_QMDEGalleryResultSet 0x000252f0   Data          22  qmdegalleryresultset.o(.constdata)
    .constdata$1                             0x00025308   Data           0  qgallerymdsutility.o(.constdata)
    MdeConstants::Object::KBaseObject        0x00025308   Data          20  qgallerymdsutility.o(.constdata)
    .constdata                               0x00025308   Section     1028  qgallerymdsutility.o(.constdata)
    MdeConstants::Object::KSizeProperty      0x0002531c   Data          16  qgallerymdsutility.o(.constdata)
    MdeConstants::Object::KLastModifiedDateProperty 0x0002532c   Data          40  qgallerymdsutility.o(.constdata)
    MdeConstants::Object::KItemTypeProperty  0x00025354   Data          24  qgallerymdsutility.o(.constdata)
    MdeConstants::Object::KTitleProperty     0x0002536c   Data          16  qgallerymdsutility.o(.constdata)
    MdeConstants::Album::KAlbumObject        0x0002537c   Data          16  qgallerymdsutility.o(.constdata)
    MdeConstants::MediaObject::KMediaObject  0x0002538c   Data          28  qgallerymdsutility.o(.constdata)
    MdeConstants::MediaObject::KRatingProperty 0x000253a8   Data          20  qgallerymdsutility.o(.constdata)
    MdeConstants::MediaObject::KBitrateProperty 0x000253bc   Data          20  qgallerymdsutility.o(.constdata)
    MdeConstants::MediaObject::KWidthProperty 0x000253d0   Data          16  qgallerymdsutility.o(.constdata)
    MdeConstants::MediaObject::KHeightProperty 0x000253e0   Data          20  qgallerymdsutility.o(.constdata)
    MdeConstants::MediaObject::KAccessCountProperty 0x000253f4   Data          28  qgallerymdsutility.o(.constdata)
    MdeConstants::MediaObject::KDurationProperty 0x00025410   Data          24  qgallerymdsutility.o(.constdata)
    MdeConstants::MediaObject::KArtistProperty 0x00025428   Data          20  qgallerymdsutility.o(.constdata)
    MdeConstants::MediaObject::KAuthorProperty 0x0002543c   Data          20  qgallerymdsutility.o(.constdata)
    MdeConstants::MediaObject::KCopyrightProperty 0x00025450   Data          24  qgallerymdsutility.o(.constdata)
    MdeConstants::MediaObject::KDescriptionProperty 0x00025468   Data          28  qgallerymdsutility.o(.constdata)
    MdeConstants::MediaObject::KCommentProperty 0x00025484   Data          20  qgallerymdsutility.o(.constdata)
    MdeConstants::MediaObject::KGenreProperty 0x00025498   Data          16  qgallerymdsutility.o(.constdata)
    MdeConstants::MediaObject::KTrackProperty 0x000254a8   Data          16  qgallerymdsutility.o(.constdata)
    MdeConstants::MediaObject::KAudioFourCCProperty 0x000254b8   Data          28  qgallerymdsutility.o(.constdata)
    MdeConstants::Video::KVideoObject        0x000254d4   Data          16  qgallerymdsutility.o(.constdata)
    MdeConstants::Video::KLastPlayPositionProperty 0x000254e4   Data          40  qgallerymdsutility.o(.constdata)
    MdeConstants::Video::KFramerateProperty  0x0002550c   Data          24  qgallerymdsutility.o(.constdata)
    MdeConstants::Video::KAudioLanguageProperty 0x00025524   Data          32  qgallerymdsutility.o(.constdata)
    MdeConstants::Image::KImageObject        0x00025544   Data          16  qgallerymdsutility.o(.constdata)
    MdeConstants::Image::KExposureProgramProperty 0x00025554   Data          36  qgallerymdsutility.o(.constdata)
    MdeConstants::Image::KFocalLengthIn35mmFilmProperty 0x00025578   Data          48  qgallerymdsutility.o(.constdata)
    MdeConstants::Image::KMeteringModeProperty 0x000255a8   Data          32  qgallerymdsutility.o(.constdata)
    MdeConstants::Image::KWhiteBalanceProperty 0x000255c8   Data          32  qgallerymdsutility.o(.constdata)
    MdeConstants::Image::KFlashProperty      0x000255e8   Data          16  qgallerymdsutility.o(.constdata)
    MdeConstants::Image::KOrientationProperty 0x000255f8   Data          28  qgallerymdsutility.o(.constdata)
    MdeConstants::Image::KExposureTimeProperty 0x00025614   Data          32  qgallerymdsutility.o(.constdata)
    MdeConstants::Image::KFNumberProperty    0x00025634   Data          20  qgallerymdsutility.o(.constdata)
    MdeConstants::Image::KDateTimeOriginalProperty 0x00025648   Data          40  qgallerymdsutility.o(.constdata)
    MdeConstants::Image::KModelProperty      0x00025670   Data          16  qgallerymdsutility.o(.constdata)
    MdeConstants::Image::KMakeProperty       0x00025680   Data          16  qgallerymdsutility.o(.constdata)
    MdeConstants::Audio::KAudioObject        0x00025690   Data          16  qgallerymdsutility.o(.constdata)
    MdeConstants::Audio::KSamplingFrequencyProperty 0x000256a0   Data          40  qgallerymdsutility.o(.constdata)
    MdeConstants::Audio::KAlbumProperty      0x000256c8   Data          16  qgallerymdsutility.o(.constdata)
    MdeConstants::Audio::KComposerProperty   0x000256d8   Data          24  qgallerymdsutility.o(.constdata)
    MdeConstants::Audio::KAlbumArtistProperty 0x000256f0   Data          28  qgallerymdsutility.o(.constdata)
    .constdata$1                             0x0002570c   Data           0  qmdegallerytyperesultset.o(.constdata)
    .constdata                               0x0002570c   Section      102  qmdegallerytyperesultset.o(.constdata)
    QtMobility::qt_meta_data_QMDEGalleryTypeResultSet 0x0002571c   Data          60  qmdegallerytyperesultset.o(.constdata)
    QtMobility::qt_meta_stringdata_QMDEGalleryTypeResultSet 0x00025758   Data          26  qmdegallerytyperesultset.o(.constdata)
    .constdata$1                             0x00025774   Data           0  qmdegalleryitemresultset.o(.constdata)
    .constdata                               0x00025774   Section      102  qmdegalleryitemresultset.o(.constdata)
    QtMobility::qt_meta_data_QMDEGalleryItemResultSet 0x00025784   Data          60  qmdegalleryitemresultset.o(.constdata)
    QtMobility::qt_meta_stringdata_QMDEGalleryItemResultSet 0x000257c0   Data          26  qmdegalleryitemresultset.o(.constdata)
    .constdata$1                             0x000257dc   Data           0  qmdegalleryqueryresultset.o(.constdata)
    .constdata                               0x000257dc   Section      103  qmdegalleryqueryresultset.o(.constdata)
    QtMobility::qt_meta_data_QMDEGalleryQueryResultSet 0x000257ec   Data          60  qmdegalleryqueryresultset.o(.constdata)
    QtMobility::qt_meta_stringdata_QMDEGalleryQueryResultSet 0x00025828   Data          27  qmdegalleryqueryresultset.o(.constdata)
    .constdata$1                             0x00025844   Data           0  qmdegallerycategoryresultset.o(.constdata)
    .constdata                               0x00025844   Section      228  qmdegallerycategoryresultset.o(.constdata)
    QtMobility::qt_meta_data_QMDEGalleryCategoryResultSet 0x00025854   Data          60  qmdegallerycategoryresultset.o(.constdata)
    QtMobility::qt_meta_stringdata_QMDEGalleryCategoryResultSet 0x00025890   Data          30  qmdegallerycategoryresultset.o(.constdata)
    MdeConstants::MediaObject::KArtistProperty 0x000258b0   Data          20  qmdegallerycategoryresultset.o(.constdata)
    MdeConstants::MediaObject::KGenreProperty 0x000258c4   Data          16  qmdegallerycategoryresultset.o(.constdata)
    MdeConstants::Audio::KAudioObject        0x000258d4   Data          16  qmdegallerycategoryresultset.o(.constdata)
    MdeConstants::Audio::KAlbumProperty      0x000258e4   Data          16  qmdegallerycategoryresultset.o(.constdata)
    MdeConstants::Audio::KAlbumArtistProperty 0x000258f4   Data          28  qmdegallerycategoryresultset.o(.constdata)
    MdeConstants::Relations::KContains       0x00025910   Data          24  qmdegallerycategoryresultset.o(.constdata)
    .constdata$1                             0x00025928   Data           0  qmdesession.o(.constdata)
    .constdata                               0x00025928   Section      188  qmdesession.o(.constdata)
    QtMobility::qt_meta_data_QMdeSession     0x00025938   Data          60  qmdesession.o(.constdata)
    QtMobility::qt_meta_stringdata_QMdeSession 0x00025974   Data          13  qmdesession.o(.constdata)
    MdeConstants::Object::KBaseObject        0x00025984   Data          20  qmdesession.o(.constdata)
    MdeConstants::MediaObject::KMediaObject  0x00025998   Data          28  qmdesession.o(.constdata)
    MdeConstants::Video::KVideoObject        0x000259b4   Data          16  qmdesession.o(.constdata)
    MdeConstants::Image::KImageObject        0x000259c4   Data          16  qmdesession.o(.constdata)
    MdeConstants::Audio::KAudioObject        0x000259d4   Data          16  qmdesession.o(.constdata)
    .constdata$1                             0x000259e4   Data           0  qdocumentgallery_symbian.o(.constdata)
    .constdata                               0x000259e4   Section       94  qdocumentgallery_symbian.o(.constdata)
    QtMobility::qt_meta_data_QDocumentGallery 0x000259f4   Data          60  qdocumentgallery_symbian.o(.constdata)
    QtMobility::qt_meta_stringdata_QDocumentGallery 0x00025a30   Data          18  qdocumentgallery_symbian.o(.constdata)
    .constdata__ZN9stlp_priv15_Integer_limitsIaLan128ELa127ELin1ELb1EE6digitsE 0x00025a44   Section        4  qabstractgallery.o(.constdata__ZN9stlp_priv15_Integer_limitsIaLan128ELa127ELin1ELb1EE6digitsE)
    .constdata__ZN9stlp_priv15_Integer_limitsIbLb0ELb1ELi1ELb0EE6digitsE 0x00025a48   Section        4  qabstractgallery.o(.constdata__ZN9stlp_priv15_Integer_limitsIbLb0ELb1ELi1ELb0EE6digitsE)
    .constdata__ZN9stlp_priv15_Integer_limitsIcLc128ELc127ELin1ELb1EE6digitsE 0x00025a4c   Section        4  qabstractgallery.o(.constdata__ZN9stlp_priv15_Integer_limitsIcLc128ELc127ELin1ELb1EE6digitsE)
    .constdata__ZN9stlp_priv15_Integer_limitsIhLh0ELh255ELin1ELb1EE6digitsE 0x00025a50   Section        4  qabstractgallery.o(.constdata__ZN9stlp_priv15_Integer_limitsIhLh0ELh255ELin1ELb1EE6digitsE)
    .constdata__ZN9stlp_priv15_Integer_limitsIiLin2147483648ELi2147483647ELin1ELb1EE6digitsE 0x00025a54   Section        4  qabstractgallery.o(.constdata__ZN9stlp_priv15_Integer_limitsIiLin2147483648ELi2147483647ELin1ELb1EE6digitsE)
    .constdata__ZN9stlp_priv15_Integer_limitsIiLin2147483648ELi2147483647ELin1ELb1EE9is_signedE 0x00025a58   Section        1  qabstractgallery.o(.constdata__ZN9stlp_priv15_Integer_limitsIiLin2147483648ELi2147483647ELin1ELb1EE9is_signedE)
    .constdata__ZN9stlp_priv15_Integer_limitsIjLj0ELj4294967295ELin1ELb1EE6digitsE 0x00025a5c   Section        4  qabstractgallery.o(.constdata__ZN9stlp_priv15_Integer_limitsIjLj0ELj4294967295ELin1ELb1EE6digitsE)
    .constdata__ZN9stlp_priv15_Integer_limitsIlLln2147483648ELl2147483647ELin1ELb1EE6digitsE 0x00025a60   Section        4  qabstractgallery.o(.constdata__ZN9stlp_priv15_Integer_limitsIlLln2147483648ELl2147483647ELin1ELb1EE6digitsE)
    .constdata__ZN9stlp_priv15_Integer_limitsImLm0ELm4294967295ELin1ELb1EE6digitsE 0x00025a64   Section        4  qabstractgallery.o(.constdata__ZN9stlp_priv15_Integer_limitsImLm0ELm4294967295ELin1ELb1EE6digitsE)
    .constdata__ZN9stlp_priv15_Integer_limitsIsLsn32768ELs32767ELin1ELb1EE6digitsE 0x00025a68   Section        4  qabstractgallery.o(.constdata__ZN9stlp_priv15_Integer_limitsIsLsn32768ELs32767ELin1ELb1EE6digitsE)
    .constdata__ZN9stlp_priv15_Integer_limitsItLt0ELt65535ELin1ELb1EE6digitsE 0x00025a6c   Section        4  qabstractgallery.o(.constdata__ZN9stlp_priv15_Integer_limitsItLt0ELt65535ELin1ELb1EE6digitsE)
    .constdata__ZN9stlp_priv15_Integer_limitsIwLw0ELw65535ELin1ELb1EE6digitsE 0x00025a70   Section        4  qabstractgallery.o(.constdata__ZN9stlp_priv15_Integer_limitsIwLw0ELw65535ELin1ELb1EE6digitsE)
    .constdata__ZN9stlp_priv15_Integer_limitsIxLxn9223372036854775808ELx9223372036854775807ELin1ELb1EE6digitsE 0x00025a74   Section        4  qabstractgallery.o(.constdata__ZN9stlp_priv15_Integer_limitsIxLxn9223372036854775808ELx9223372036854775807ELin1ELb1EE6digitsE)
    .constdata__ZN9stlp_priv15_Integer_limitsIyLy0ELy18446744073709551615ELin1ELb1EE6digitsE 0x00025a78   Section        4  qabstractgallery.o(.constdata__ZN9stlp_priv15_Integer_limitsIyLy0ELy18446744073709551615ELin1ELb1EE6digitsE)
    .constdata__ZTI11QSharedData             0x00025a7c   Section        8  qgalleryfilter.o(.constdata__ZTI11QSharedData)
    .constdata__ZTI17MMdEQueryObserver       0x00025a84   Section        8  qmdegallerytyperesultset.o(.constdata__ZTI17MMdEQueryObserver)
    .constdata__ZTI18MMdEObjectObserver      0x00025a8c   Section        8  qmdegalleryitemresultset.o(.constdata__ZTI18MMdEObjectObserver)
    .constdata__ZTI19MMdESessionObserver     0x00025a94   Section        8  qmdesession.o(.constdata__ZTI19MMdESessionObserver)
    .constdata__ZTIN10QtMobility11QMdeSessionE 0x00025a9c   Section       32  qmdesession.o(.constdata__ZTIN10QtMobility11QMdeSessionE)
    .constdata__ZTIN10QtMobility16QAbstractGalleryE 0x00025abc   Section       12  qabstractgallery.o(.constdata__ZTIN10QtMobility16QAbstractGalleryE)
    .constdata__ZTIN10QtMobility16QDocumentGalleryE 0x00025ac8   Section       12  qdocumentgallery_symbian.o(.constdata__ZTIN10QtMobility16QDocumentGalleryE)
    .constdata__ZTIN10QtMobility17QGalleryResultSetE 0x00025ad4   Section       12  qgalleryresultset.o(.constdata__ZTIN10QtMobility17QGalleryResultSetE)
    .constdata__ZTIN10QtMobility18QGalleryQueryModelE 0x00025ae0   Section       12  qgalleryquerymodel.o(.constdata__ZTIN10QtMobility18QGalleryQueryModelE)
    .constdata__ZTIN10QtMobility19QGalleryItemRequestE 0x00025aec   Section       12  qgalleryitemrequest.o(.constdata__ZTIN10QtMobility19QGalleryItemRequestE)
    .constdata__ZTIN10QtMobility19QGalleryTypeRequestE 0x00025af8   Section       12  qgallerytyperequest.o(.constdata__ZTIN10QtMobility19QGalleryTypeRequestE)
    .constdata__ZTIN10QtMobility20QGalleryQueryRequestE 0x00025b04   Section       12  qgalleryqueryrequest.o(.constdata__ZTIN10QtMobility20QGalleryQueryRequestE)
    .constdata__ZTIN10QtMobility20QMDEGalleryResultSetE 0x00025b10   Section       12  qmdegalleryresultset.o(.constdata__ZTIN10QtMobility20QMDEGalleryResultSetE)
    .constdata__ZTIN10QtMobility21QGalleryFilterPrivateE 0x00025b1c   Section       24  qgalleryfilter.o(.constdata__ZTIN10QtMobility21QGalleryFilterPrivateE)
    .constdata__ZTIN10QtMobility21QGalleryNullResultSetE 0x00025b34   Section       12  qgalleryitemrequest.o(.constdata__ZTIN10QtMobility21QGalleryNullResultSetE)
    .constdata__ZTIN10QtMobility23QAbstractGalleryPrivateE 0x00025b40   Section        8  qdocumentgallery_symbian.o(.constdata__ZTIN10QtMobility23QAbstractGalleryPrivateE)
    .constdata__ZTIN10QtMobility23QDocumentGalleryPrivateE 0x00025b48   Section       12  qdocumentgallery_symbian.o(.constdata__ZTIN10QtMobility23QDocumentGalleryPrivateE)
    .constdata__ZTIN10QtMobility23QGalleryAbstractRequestE 0x00025b54   Section       12  qgalleryabstractrequest.o(.constdata__ZTIN10QtMobility23QGalleryAbstractRequestE)
    .constdata__ZTIN10QtMobility24QGalleryAbstractResponseE 0x00025b60   Section       12  qgalleryabstractresponse.o(.constdata__ZTIN10QtMobility24QGalleryAbstractResponseE)
    .constdata__ZTIN10QtMobility24QGalleryResultSetPrivateE 0x00025b6c   Section       12  qgalleryresultset.o(.constdata__ZTIN10QtMobility24QGalleryResultSetPrivateE)
    .constdata__ZTIN10QtMobility24QMDEGalleryItemResultSetE 0x00025b78   Section       32  qmdegalleryitemresultset.o(.constdata__ZTIN10QtMobility24QMDEGalleryItemResultSetE)
    .constdata__ZTIN10QtMobility24QMDEGalleryTypeResultSetE 0x00025b98   Section       32  qmdegallerytyperesultset.o(.constdata__ZTIN10QtMobility24QMDEGalleryTypeResultSetE)
    .constdata__ZTIN10QtMobility25QMDEGalleryQueryResultSetE 0x00025bb8   Section       40  qmdegalleryqueryresultset.o(.constdata__ZTIN10QtMobility25QMDEGalleryQueryResultSetE)
    .constdata__ZTIN10QtMobility26QGalleryItemRequestPrivateE 0x00025be0   Section       12  qgalleryitemrequest.o(.constdata__ZTIN10QtMobility26QGalleryItemRequestPrivateE)
    .constdata__ZTIN10QtMobility26QGalleryTypeRequestPrivateE 0x00025bec   Section       12  qgallerytyperequest.o(.constdata__ZTIN10QtMobility26QGalleryTypeRequestPrivateE)
    .constdata__ZTIN10QtMobility26QGalleryUnionFilterPrivateE 0x00025bf8   Section       12  qgalleryfilter.o(.constdata__ZTIN10QtMobility26QGalleryUnionFilterPrivateE)
    .constdata__ZTIN10QtMobility27QGalleryQueryRequestPrivateE 0x00025c04   Section       12  qgalleryqueryrequest.o(.constdata__ZTIN10QtMobility27QGalleryQueryRequestPrivateE)
    .constdata__ZTIN10QtMobility28QGalleryInvalidFilterPrivateE 0x00025c10   Section       12  qgalleryfilter.o(.constdata__ZTIN10QtMobility28QGalleryInvalidFilterPrivateE)
    .constdata__ZTIN10QtMobility28QMDEGalleryCategoryResultSetE 0x00025c1c   Section       32  qmdegallerycategoryresultset.o(.constdata__ZTIN10QtMobility28QMDEGalleryCategoryResultSetE)
    .constdata__ZTIN10QtMobility29QGalleryMetaDataFilterPrivateE 0x00025c3c   Section       12  qgalleryfilter.o(.constdata__ZTIN10QtMobility29QGalleryMetaDataFilterPrivateE)
    .constdata__ZTIN10QtMobility30QGalleryAbstractRequestPrivateE 0x00025c48   Section        8  qgalleryabstractrequest.o(.constdata__ZTIN10QtMobility30QGalleryAbstractRequestPrivateE)
    .constdata__ZTIN10QtMobility31QGalleryAbstractResponsePrivateE 0x00025c50   Section        8  qgalleryabstractresponse.o(.constdata__ZTIN10QtMobility31QGalleryAbstractResponsePrivateE)
    .constdata__ZTIN10QtMobility33QGalleryIntersectionFilterPrivateE 0x00025c58   Section       12  qgalleryfilter.o(.constdata__ZTIN10QtMobility33QGalleryIntersectionFilterPrivateE)
    .constdata__ZTS11QSharedData             0x00025c64   Section       14  qgalleryfilter.o(.constdata__ZTS11QSharedData)
    .constdata__ZTS17MMdEQueryObserver       0x00025c72   Section       20  qmdegallerytyperesultset.o(.constdata__ZTS17MMdEQueryObserver)
    .constdata__ZTS18MMdEObjectObserver      0x00025c86   Section       21  qmdegalleryitemresultset.o(.constdata__ZTS18MMdEObjectObserver)
    .constdata__ZTS19MMdESessionObserver     0x00025c9b   Section       22  qmdesession.o(.constdata__ZTS19MMdESessionObserver)
    .constdata__ZTSN10QtMobility11QMdeSessionE 0x00025cb1   Section       28  qmdesession.o(.constdata__ZTSN10QtMobility11QMdeSessionE)
    .constdata__ZTSN10QtMobility16QAbstractGalleryE 0x00025ccd   Section       33  qabstractgallery.o(.constdata__ZTSN10QtMobility16QAbstractGalleryE)
    .constdata__ZTSN10QtMobility16QDocumentGalleryE 0x00025cee   Section       33  qdocumentgallery_symbian.o(.constdata__ZTSN10QtMobility16QDocumentGalleryE)
    .constdata__ZTSN10QtMobility17QGalleryResultSetE 0x00025d0f   Section       34  qgalleryresultset.o(.constdata__ZTSN10QtMobility17QGalleryResultSetE)
    .constdata__ZTSN10QtMobility18QGalleryQueryModelE 0x00025d31   Section       35  qgalleryquerymodel.o(.constdata__ZTSN10QtMobility18QGalleryQueryModelE)
    .constdata__ZTSN10QtMobility19QGalleryItemRequestE 0x00025d54   Section       36  qgalleryitemrequest.o(.constdata__ZTSN10QtMobility19QGalleryItemRequestE)
    .constdata__ZTSN10QtMobility19QGalleryTypeRequestE 0x00025d78   Section       36  qgallerytyperequest.o(.constdata__ZTSN10QtMobility19QGalleryTypeRequestE)
    .constdata__ZTSN10QtMobility20QGalleryQueryRequestE 0x00025d9c   Section       37  qgalleryqueryrequest.o(.constdata__ZTSN10QtMobility20QGalleryQueryRequestE)
    .constdata__ZTSN10QtMobility20QMDEGalleryResultSetE 0x00025dc1   Section       37  qmdegalleryresultset.o(.constdata__ZTSN10QtMobility20QMDEGalleryResultSetE)
    .constdata__ZTSN10QtMobility21QGalleryFilterPrivateE 0x00025de6   Section       38  qgalleryfilter.o(.constdata__ZTSN10QtMobility21QGalleryFilterPrivateE)
    .constdata__ZTSN10QtMobility21QGalleryNullResultSetE 0x00025e0c   Section       38  qgalleryitemrequest.o(.constdata__ZTSN10QtMobility21QGalleryNullResultSetE)
    .constdata__ZTSN10QtMobility23QAbstractGalleryPrivateE 0x00025e32   Section       40  qdocumentgallery_symbian.o(.constdata__ZTSN10QtMobility23QAbstractGalleryPrivateE)
    .constdata__ZTSN10QtMobility23QDocumentGalleryPrivateE 0x00025e5a   Section       40  qdocumentgallery_symbian.o(.constdata__ZTSN10QtMobility23QDocumentGalleryPrivateE)
    .constdata__ZTSN10QtMobility23QGalleryAbstractRequestE 0x00025e82   Section       40  qgalleryabstractrequest.o(.constdata__ZTSN10QtMobility23QGalleryAbstractRequestE)
    .constdata__ZTSN10QtMobility24QGalleryAbstractResponseE 0x00025eaa   Section       41  qgalleryabstractresponse.o(.constdata__ZTSN10QtMobility24QGalleryAbstractResponseE)
    .constdata__ZTSN10QtMobility24QGalleryResultSetPrivateE 0x00025ed3   Section       41  qgalleryresultset.o(.constdata__ZTSN10QtMobility24QGalleryResultSetPrivateE)
    .constdata__ZTSN10QtMobility24QMDEGalleryItemResultSetE 0x00025efc   Section       41  qmdegalleryitemresultset.o(.constdata__ZTSN10QtMobility24QMDEGalleryItemResultSetE)
    .constdata__ZTSN10QtMobility24QMDEGalleryTypeResultSetE 0x00025f25   Section       41  qmdegallerytyperesultset.o(.constdata__ZTSN10QtMobility24QMDEGalleryTypeResultSetE)
    .constdata__ZTSN10QtMobility25QMDEGalleryQueryResultSetE 0x00025f4e   Section       42  qmdegalleryqueryresultset.o(.constdata__ZTSN10QtMobility25QMDEGalleryQueryResultSetE)
    .constdata__ZTSN10QtMobility26QGalleryItemRequestPrivateE 0x00025f78   Section       43  qgalleryitemrequest.o(.constdata__ZTSN10QtMobility26QGalleryItemRequestPrivateE)
    .constdata__ZTSN10QtMobility26QGalleryTypeRequestPrivateE 0x00025fa3   Section       43  qgallerytyperequest.o(.constdata__ZTSN10QtMobility26QGalleryTypeRequestPrivateE)
    .constdata__ZTSN10QtMobility26QGalleryUnionFilterPrivateE 0x00025fce   Section       43  qgalleryfilter.o(.constdata__ZTSN10QtMobility26QGalleryUnionFilterPrivateE)
    .constdata__ZTSN10QtMobility27QGalleryQueryRequestPrivateE 0x00025ff9   Section       44  qgalleryqueryrequest.o(.constdata__ZTSN10QtMobility27QGalleryQueryRequestPrivateE)
    .constdata__ZTSN10QtMobility28QGalleryInvalidFilterPrivateE 0x00026025   Section       45  qgalleryfilter.o(.constdata__ZTSN10QtMobility28QGalleryInvalidFilterPrivateE)
    .constdata__ZTSN10QtMobility28QMDEGalleryCategoryResultSetE 0x00026052   Section       45  qmdegallerycategoryresultset.o(.constdata__ZTSN10QtMobility28QMDEGalleryCategoryResultSetE)
    .constdata__ZTSN10QtMobility29QGalleryMetaDataFilterPrivateE 0x0002607f   Section       46  qgalleryfilter.o(.constdata__ZTSN10QtMobility29QGalleryMetaDataFilterPrivateE)
    .constdata__ZTSN10QtMobility30QGalleryAbstractRequestPrivateE 0x000260ad   Section       47  qgalleryabstractrequest.o(.constdata__ZTSN10QtMobility30QGalleryAbstractRequestPrivateE)
    .constdata__ZTSN10QtMobility31QGalleryAbstractResponsePrivateE 0x000260dc   Section       48  qgalleryabstractresponse.o(.constdata__ZTSN10QtMobility31QGalleryAbstractResponsePrivateE)
    .constdata__ZTSN10QtMobility33QGalleryIntersectionFilterPrivateE 0x0002610c   Section       50  qgalleryfilter.o(.constdata__ZTSN10QtMobility33QGalleryIntersectionFilterPrivateE)
    .constdata__ZTV17MMdEQueryObserver       0x00026140   Section       16  qmdegallerytyperesultset.o(.constdata__ZTV17MMdEQueryObserver)
    .constdata__ZTV18MMdEObjectObserver      0x00026150   Section       12  qmdegalleryitemresultset.o(.constdata__ZTV18MMdEObjectObserver)
    .constdata__ZTV19MMdESessionObserver     0x0002615c   Section       16  qmdesession.o(.constdata__ZTV19MMdESessionObserver)
    .constdata__ZTVN10QtMobility11QMdeSessionE 0x0002616c   Section       80  qmdesession.o(.constdata__ZTVN10QtMobility11QMdeSessionE)
    .constdata__ZTVN10QtMobility16QAbstractGalleryE 0x000261bc   Section       64  qabstractgallery.o(.constdata__ZTVN10QtMobility16QAbstractGalleryE)
    .constdata__ZTVN10QtMobility16QDocumentGalleryE 0x000261fc   Section       64  qdocumentgallery_symbian.o(.constdata__ZTVN10QtMobility16QDocumentGalleryE)
    .constdata__ZTVN10QtMobility17QGalleryResultSetE 0x0002623c   Section      132  qgalleryresultset.o(.constdata__ZTVN10QtMobility17QGalleryResultSetE)
    .constdata__ZTVN10QtMobility18QGalleryQueryModelE 0x000262c0   Section      168  qgalleryquerymodel.o(.constdata__ZTVN10QtMobility18QGalleryQueryModelE)
    .constdata__ZTVN10QtMobility19QGalleryItemRequestE 0x00026368   Section       60  qgalleryitemrequest.o(.constdata__ZTVN10QtMobility19QGalleryItemRequestE)
    .constdata__ZTVN10QtMobility19QGalleryTypeRequestE 0x000263a4   Section       60  qgallerytyperequest.o(.constdata__ZTVN10QtMobility19QGalleryTypeRequestE)
    .constdata__ZTVN10QtMobility20QGalleryQueryRequestE 0x000263e0   Section       60  qgalleryqueryrequest.o(.constdata__ZTVN10QtMobility20QGalleryQueryRequestE)
    .constdata__ZTVN10QtMobility20QMDEGalleryResultSetE 0x0002641c   Section      140  qmdegalleryresultset.o(.constdata__ZTVN10QtMobility20QMDEGalleryResultSetE)
    .constdata__ZTVN10QtMobility21QGalleryFilterPrivateE 0x000264a8   Section       24  qgalleryfilter.o(.constdata__ZTVN10QtMobility21QGalleryFilterPrivateE)
    .constdata__ZTVN10QtMobility21QGalleryNullResultSetE 0x000264c0   Section      132  qgalleryitemrequest.o(.constdata__ZTVN10QtMobility21QGalleryNullResultSetE)
    .constdata__ZTVN10QtMobility23QAbstractGalleryPrivateE 0x00026544   Section       16  qdocumentgallery_symbian.o(.constdata__ZTVN10QtMobility23QAbstractGalleryPrivateE)
    .constdata__ZTVN10QtMobility23QDocumentGalleryPrivateE 0x00026554   Section       16  qdocumentgallery_symbian.o(.constdata__ZTVN10QtMobility23QDocumentGalleryPrivateE)
    .constdata__ZTVN10QtMobility23QGalleryAbstractRequestE 0x00026564   Section       60  qgalleryabstractrequest.o(.constdata__ZTVN10QtMobility23QGalleryAbstractRequestE)
    .constdata__ZTVN10QtMobility24QGalleryAbstractResponseE 0x000265a0   Section       64  qgalleryabstractresponse.o(.constdata__ZTVN10QtMobility24QGalleryAbstractResponseE)
    .constdata__ZTVN10QtMobility24QGalleryResultSetPrivateE 0x000265e0   Section       16  qgalleryresultset.o(.constdata__ZTVN10QtMobility24QGalleryResultSetPrivateE)
    .constdata__ZTVN10QtMobility24QMDEGalleryItemResultSetE 0x000265f0   Section      156  qmdegalleryitemresultset.o(.constdata__ZTVN10QtMobility24QMDEGalleryItemResultSetE)
    .constdata__ZTVN10QtMobility24QMDEGalleryTypeResultSetE 0x0002668c   Section      156  qmdegallerytyperesultset.o(.constdata__ZTVN10QtMobility24QMDEGalleryTypeResultSetE)
    .constdata__ZTVN10QtMobility25QMDEGalleryQueryResultSetE 0x00026728   Section      180  qmdegalleryqueryresultset.o(.constdata__ZTVN10QtMobility25QMDEGalleryQueryResultSetE)
    .constdata__ZTVN10QtMobility26QGalleryItemRequestPrivateE 0x000267dc   Section       16  qgalleryitemrequest.o(.constdata__ZTVN10QtMobility26QGalleryItemRequestPrivateE)
    .constdata__ZTVN10QtMobility26QGalleryTypeRequestPrivateE 0x000267ec   Section       16  qgallerytyperequest.o(.constdata__ZTVN10QtMobility26QGalleryTypeRequestPrivateE)
    .constdata__ZTVN10QtMobility26QGalleryUnionFilterPrivateE 0x000267fc   Section       24  qgalleryfilter.o(.constdata__ZTVN10QtMobility26QGalleryUnionFilterPrivateE)
    .constdata__ZTVN10QtMobility27QGalleryQueryRequestPrivateE 0x00026814   Section       16  qgalleryqueryrequest.o(.constdata__ZTVN10QtMobility27QGalleryQueryRequestPrivateE)
    .constdata__ZTVN10QtMobility28QGalleryInvalidFilterPrivateE 0x00026824   Section       24  qgalleryfilter.o(.constdata__ZTVN10QtMobility28QGalleryInvalidFilterPrivateE)
    .constdata__ZTVN10QtMobility28QMDEGalleryCategoryResultSetE 0x0002683c   Section      156  qmdegallerycategoryresultset.o(.constdata__ZTVN10QtMobility28QMDEGalleryCategoryResultSetE)
    .constdata__ZTVN10QtMobility29QGalleryMetaDataFilterPrivateE 0x000268d8   Section       24  qgalleryfilter.o(.constdata__ZTVN10QtMobility29QGalleryMetaDataFilterPrivateE)
    .constdata__ZTVN10QtMobility30QGalleryAbstractRequestPrivateE 0x000268f0   Section       16  qgalleryabstractrequest.o(.constdata__ZTVN10QtMobility30QGalleryAbstractRequestPrivateE)
    .constdata__ZTVN10QtMobility31QGalleryAbstractResponsePrivateE 0x00026900   Section       16  qgalleryabstractresponse.o(.constdata__ZTVN10QtMobility31QGalleryAbstractResponsePrivateE)
    .constdata__ZTVN10QtMobility33QGalleryIntersectionFilterPrivateE 0x00026910   Section       24  qgalleryfilter.o(.constdata__ZTVN10QtMobility33QGalleryIntersectionFilterPrivateE)
    .conststring$3                           0x00026928   Data           0  qdocumentgallery.o(.conststring)
    .conststring                             0x00026928   Section      691  qdocumentgallery.o(.conststring)
    .init_array                              0x00026bd0   Section        4  qmdegallerycategoryresultset.o(.init_array)
    .ARM.exidx                               0x00026bd4   Section        8  ucppinit.o(.ARM.exidx)
    .data$0                                  0x00400000   Data           0  qmdegallerycategoryresultset.o(.data)
    QtMobility::<unnamed>::qt_mdeArtistProperties 0x00400000   Data           8  qmdegallerycategoryresultset.o(.data)
    .data                                    0x00400000   Section      116  qmdegallerycategoryresultset.o(.data)
    QtMobility::<unnamed>::qt_mdeAlbumArtistProperties 0x00400008   Data          12  qmdegallerycategoryresultset.o(.data)
    QtMobility::<unnamed>::qt_mdeAlbumProperties 0x00400014   Data           8  qmdegallerycategoryresultset.o(.data)
    QtMobility::<unnamed>::qt_mdeGenreProperties 0x0040001c   Data           8  qmdegallerycategoryresultset.o(.data)
    QtMobility::<unnamed>::qt_mdeGalleryCategoryTypes 0x00400024   Data          80  qmdegallerycategoryresultset.o(.data)
    .data__ZNSt19_Atomic_swap_structILi1EE12_S_swap_lockE 0x00400074   Section       12  qabstractgallery.o(.data__ZNSt19_Atomic_swap_structILi1EE12_S_swap_lockE)

    Global Symbols

    Symbol Name                              Value     Ov Type        Size  Object(Section)

    BuildAttributes$$THUMB_ISAv2$ARM_ISAv5$M$VFPv2$PE$A:L22$X:L11$S22$IEEE1$IW$USESV6$~STKCKD$USESV7$~SHL$OSPACE$ROPI$IEEEJ$EBA8$UX$FPIC$INDIRECT$REQ8$PRES8$EABIv2 0x00000000   Number         0  anon$$obj.o ABSOLUTE
    QtCore{00040703}[2001b2dc].dll           0x00000000   Data           0  anon$$obj.o ABSOLUTE
    QtGallery{00010103}[2002bfcb].dll        0x00000000   Data           0  anon$$obj.o ABSOLUTE
    dfpaeabi{000a0000}.dll                   0x00000000   Data           0  anon$$obj.o ABSOLUTE
    drtaeabi{000a0000}.dll                   0x00000000   Data           0  anon$$obj.o ABSOLUTE
    euser{000a0000}[100039e5].dll            0x00000000   Data           0  anon$$obj.o ABSOLUTE
    libc{00010001}[10207369].dll             0x00000000   Data           0  anon$$obj.o ABSOLUTE
    mdeclient{000a001a}[200009f1].dll        0x00000000   Data           0  anon$$obj.o ABSOLUTE
    stdnew{000a0000}[20022178].dll           0x00000000   Data           0  anon$$obj.o ABSOLUTE
    qt_message_output(QtMsgType, const char*)  - Undefined Reference
    _Z17qt_message_output9QtMsgTypePKc@QtCore{00040703}[2001b2dc].dll  - Undefined Reference
    qFree(void*)                              - Undefined Reference
    _Z5qFreePv@QtCore{00040703}[2001b2dc].dll  - Undefined Reference
    qMemSet(void*, int, unsigned)             - Undefined Reference
    _Z7qMemSetPvij@QtCore{00040703}[2001b2dc].dll  - Undefined Reference
    qBadAlloc()                               - Undefined Reference
    _Z9qBadAllocv@QtCore{00040703}[2001b2dc].dll  - Undefined Reference
    CMdEObject::AddTextPropertyL(CMdEPropertyDef&, const TDesC16&)  - Undefined Reference
    _ZN10CMdEObject16AddTextPropertyLER15CMdEPropertyDefRK7TDesC16@mdeclient{000a001a}[200009f1].dll  - Undefined Reference
    CMdEObject::AddTimePropertyL(CMdEPropertyDef&, TTime)  - Undefined Reference
    _ZN10CMdEObject16AddTimePropertyLER15CMdEPropertyDef5TTime@mdeclient{000a001a}[200009f1].dll  - Undefined Reference
    CMdEObject::AddUint8PropertyL(CMdEPropertyDef&, unsigned char)  - Undefined Reference
    _ZN10CMdEObject17AddUint8PropertyLER15CMdEPropertyDefh@mdeclient{000a001a}[200009f1].dll  - Undefined Reference
    CMdEObject::AddReal32PropertyL(CMdEPropertyDef&, float)  - Undefined Reference
    _ZN10CMdEObject18AddReal32PropertyLER15CMdEPropertyDeff@mdeclient{000a001a}[200009f1].dll  - Undefined Reference
    CMdEObject::AddUint16PropertyL(CMdEPropertyDef&, unsigned short)  - Undefined Reference
    _ZN10CMdEObject18AddUint16PropertyLER15CMdEPropertyDeft@mdeclient{000a001a}[200009f1].dll  - Undefined Reference
    CMdEObject::AddUint32PropertyL(CMdEPropertyDef&, unsigned long)  - Undefined Reference
    _ZN10CMdEObject18AddUint32PropertyLER15CMdEPropertyDefm@mdeclient{000a001a}[200009f1].dll  - Undefined Reference
    QByteArray::realloc(int)                  - Undefined Reference
    _ZN10QByteArray7reallocEi@QtCore{00040703}[2001b2dc].dll  - Undefined Reference
    QEventLoop::exec(QFlags<QEventLoop::ProcessEventsFlag>)  - Undefined Reference
    _ZN10QEventLoop4execE6QFlagsINS_17ProcessEventsFlagEE@QtCore{00040703}[2001b2dc].dll  - Undefined Reference
    QEventLoop::exit(int)                     - Undefined Reference
    _ZN10QEventLoop4exitEi@QtCore{00040703}[2001b2dc].dll  - Undefined Reference
    QEventLoop::quit()                        - Undefined Reference
    _ZN10QEventLoop4quitEv@QtCore{00040703}[2001b2dc].dll  - Undefined Reference
    QEventLoop::QEventLoop(QObject*)          - Undefined Reference
    _ZN10QEventLoopC1EP7QObject@QtCore{00040703}[2001b2dc].dll  - Undefined Reference
    QEventLoop::~QEventLoop()                 - Undefined Reference
    _ZN10QEventLoopD1Ev@QtCore{00040703}[2001b2dc].dll  - Undefined Reference
    RArrayBase::Append(const void*)           - Undefined Reference
    _ZN10RArrayBase6AppendEPKv@euser{000a0000}[100039e5].dll  - Undefined Reference
    RArrayBase::RArrayBase(int)               - Undefined Reference
    _ZN10RArrayBaseC1Ei@euser{000a0000}[100039e5].dll  - Undefined Reference
    TBufBase16::TBufBase16(const TDesC16&, int)  - Undefined Reference
    _ZN10TBufBase16C1ERK7TDesC16i@euser{000a0000}[100039e5].dll  - Undefined Reference
    CMdESession::NewL(MMdESessionObserver&)   - Undefined Reference
    _ZN11CMdESession4NewLER19MMdESessionObserver@mdeclient{000a001a}[200009f1].dll  - Undefined Reference
    QMetaObject::activate(QObject*, const QMetaObject*, int, void**)  - Undefined Reference
    _ZN11QMetaObject8activateEP7QObjectPKS_iPPv@QtCore{00040703}[2001b2dc].dll  - Undefined Reference
    QTextStream::~QTextStream()               - Undefined Reference
    _ZN11QTextStreamD1Ev@QtCore{00040703}[2001b2dc].dll  - Undefined Reference
    QTextStream::operator <<(const QString&)  - Undefined Reference
    _ZN11QTextStreamlsERK7QString@QtCore{00040703}[2001b2dc].dll  - Undefined Reference
    QTextStream::operator <<(char)            - Undefined Reference
    _ZN11QTextStreamlsEc@QtCore{00040703}[2001b2dc].dll  - Undefined Reference
    QTextStream::operator <<(int)             - Undefined Reference
    _ZN11QTextStreamlsEi@QtCore{00040703}[2001b2dc].dll  - Undefined Reference
    QVectorData::reallocate(QVectorData*, int, int, int)  - Undefined Reference
    _ZN11QVectorData10reallocateEPS_iii@QtCore{00040703}[2001b2dc].dll  - Undefined Reference
    QVectorData::shared_null                  - Undefined Reference
    _ZN11QVectorData11shared_nullE@QtCore{00040703}[2001b2dc].dll  - Undefined Reference
    QVectorData::free(QVectorData*, int)      - Undefined Reference
    _ZN11QVectorData4freeEPS_i@QtCore{00040703}[2001b2dc].dll  - Undefined Reference
    QVectorData::grow(int, int, int, bool)    - Undefined Reference
    _ZN11QVectorData4growEiiib@QtCore{00040703}[2001b2dc].dll  - Undefined Reference
    QVectorData::allocate(int, int)           - Undefined Reference
    _ZN11QVectorData8allocateEii@QtCore{00040703}[2001b2dc].dll  - Undefined Reference
    CMdEProperty::SetTextValueL(const TDesC16&)  - Undefined Reference
    _ZN12CMdEProperty13SetTextValueLERK7TDesC16@mdeclient{000a001a}[200009f1].dll  - Undefined Reference
    CMdEProperty::SetTimeValueL(const TTime&)  - Undefined Reference
    _ZN12CMdEProperty13SetTimeValueLERK5TTime@mdeclient{000a001a}[200009f1].dll  - Undefined Reference
    CMdEProperty::SetUint8ValueL(unsigned char)  - Undefined Reference
    _ZN12CMdEProperty14SetUint8ValueLEh@mdeclient{000a001a}[200009f1].dll  - Undefined Reference
    CMdEProperty::SetReal32ValueL(float)      - Undefined Reference
    _ZN12CMdEProperty15SetReal32ValueLEf@mdeclient{000a001a}[200009f1].dll  - Undefined Reference
    CMdEProperty::SetUint16ValueL(unsigned short)  - Undefined Reference
    _ZN12CMdEProperty15SetUint16ValueLEt@mdeclient{000a001a}[200009f1].dll  - Undefined Reference
    CMdEProperty::SetUint32ValueL(unsigned long)  - Undefined Reference
    _ZN12CMdEProperty15SetUint32ValueLEm@mdeclient{000a001a}[200009f1].dll  - Undefined Reference
    CleanupStack::Pop()                       - Undefined Reference
    _ZN12CleanupStack3PopEv@euser{000a0000}[100039e5].dll  - Undefined Reference
    CleanupStack::Check(void*)                - Undefined Reference
    _ZN12CleanupStack5CheckEPv@euser{000a0000}[100039e5].dll  - Undefined Reference
    CleanupStack::PushL(CBase*)               - Undefined Reference
    _ZN12CleanupStack5PushLEP5CBase@euser{000a0000}[100039e5].dll  - Undefined Reference
    CMdECondition::SetNegate(int)             - Undefined Reference
    _ZN13CMdECondition9SetNegateEi@mdeclient{000a001a}[200009f1].dll  - Undefined Reference
    CMdEObjectDef::GetPropertyDefL(const TDesC16&)  - Undefined Reference
    _ZN13CMdEObjectDef15GetPropertyDefLERK7TDesC16@mdeclient{000a001a}[200009f1].dll  - Undefined Reference
    TMdEOrderRule::TMdEOrderRule(const CMdEPropertyDef&, int)  - Undefined Reference
    _ZN13TMdEOrderRuleC1ERK15CMdEPropertyDefi@mdeclient{000a001a}[200009f1].dll  - Undefined Reference
    CMdEObjectQuery::AddPropertyFilterL(const CMdEPropertyDef*)  - Undefined Reference
    _ZN15CMdEObjectQuery18AddPropertyFilterLEPK15CMdEPropertyDef@mdeclient{000a001a}[200009f1].dll  - Undefined Reference
    QtSharedPointer::ExternalRefCountData::getAndRef(const QObject*)  - Undefined Reference
    _ZN15QtSharedPointer20ExternalRefCountData9getAndRefEPK7QObject@QtCore{00040703}[2001b2dc].dll  - Undefined Reference
    CMdENamespaceDef::GetObjectDefL(const TDesC16&)  - Undefined Reference
    _ZN16CMdENamespaceDef13GetObjectDefLERK7TDesC16@mdeclient{000a001a}[200009f1].dll  - Undefined Reference
    CMdENamespaceDef::GetRelationDefL(const TDesC16&)  - Undefined Reference
    _ZN16CMdENamespaceDef15GetRelationDefLERK7TDesC16@mdeclient{000a001a}[200009f1].dll  - Undefined Reference
    QCoreApplication::processEvents(QFlags<QEventLoop::ProcessEventsFlag>, int)  - Undefined Reference
    _ZN16QCoreApplication13processEventsE6QFlagsIN10QEventLoop17ProcessEventsFlagEEi@QtCore{00040703}[2001b2dc].dll  - Undefined Reference
    RPointerArrayBase::Close()                - Undefined Reference
    _ZN17RPointerArrayBase5CloseEv@euser{000a0000}[100039e5].dll  - Undefined Reference
    RPointerArrayBase::Reset()                - Undefined Reference
    _ZN17RPointerArrayBase5ResetEv@euser{000a0000}[100039e5].dll  - Undefined Reference
    RPointerArrayBase::Append(const void*)    - Undefined Reference
    _ZN17RPointerArrayBase6AppendEPKv@euser{000a0000}[100039e5].dll  - Undefined Reference
    RPointerArrayBase::Remove(int)            - Undefined Reference
    _ZN17RPointerArrayBase6RemoveEi@euser{000a0000}[100039e5].dll  - Undefined Reference
    RPointerArrayBase::RPointerArrayBase(int)  - Undefined Reference
    _ZN17RPointerArrayBaseC1Ei@euser{000a0000}[100039e5].dll  - Undefined Reference
    RPointerArrayBase::RPointerArrayBase()    - Undefined Reference
    _ZN17RPointerArrayBaseC1Ev@euser{000a0000}[100039e5].dll  - Undefined Reference
    CMdELogicCondition::SetOperator(TLogicConditionOperator)  - Undefined Reference
    _ZN18CMdELogicCondition11SetOperatorE23TLogicConditionOperator@mdeclient{000a001a}[200009f1].dll  - Undefined Reference
    CMdELogicCondition::AddLogicConditionL(TLogicConditionOperator)  - Undefined Reference
    _ZN18CMdELogicCondition18AddLogicConditionLE23TLogicConditionOperator@mdeclient{000a001a}[200009f1].dll  - Undefined Reference
    CMdELogicCondition::AddObjectConditionL(TObjectConditionCompareMethod, const TDesC16&)  - Undefined Reference
    _ZN18CMdELogicCondition19AddObjectConditionLE29TObjectConditionCompareMethodRK7TDesC16@mdeclient{000a001a}[200009f1].dll  - Undefined Reference
    CMdELogicCondition::AddObjectConditionL(const RArray<unsigned long>&)  - Undefined Reference
    _ZN18CMdELogicCondition19AddObjectConditionLERK6RArrayImE@mdeclient{000a001a}[200009f1].dll  - Undefined Reference
    CMdELogicCondition::AddObjectConditionL(unsigned long)  - Undefined Reference
    _ZN18CMdELogicCondition19AddObjectConditionLEm@mdeclient{000a001a}[200009f1].dll  - Undefined Reference
    CMdELogicCondition::AddPropertyConditionL(const CMdEPropertyDef&, TTextPropertyConditionCompareMethod, const TDesC16&)  - Undefined Reference
    _ZN18CMdELogicCondition21AddPropertyConditionLERK15CMdEPropertyDef35TTextPropertyConditionCompareMethodRK7TDesC16@mdeclient{000a001a}[200009f1].dll  - Undefined Reference
    CMdELogicCondition::AddPropertyConditionL(const CMdEPropertyDef&, const TMdERange<TTime>&)  - Undefined Reference
    _ZN18CMdELogicCondition21AddPropertyConditionLERK15CMdEPropertyDefRK9TMdERangeI5TTimeE@mdeclient{000a001a}[200009f1].dll  - Undefined Reference
    CMdELogicCondition::AddPropertyConditionL(const CMdEPropertyDef&, const TMdERange<double>&)  - Undefined Reference
    _ZN18CMdELogicCondition21AddPropertyConditionLERK15CMdEPropertyDefRK9TMdERangeIdE@mdeclient{000a001a}[200009f1].dll  - Undefined Reference
    CMdELogicCondition::AddPropertyConditionL(const CMdEPropertyDef&, const TMdERange<unsigned>&)  - Undefined Reference
    _ZN18CMdELogicCondition21AddPropertyConditionLERK15CMdEPropertyDefRK9TMdERangeIjE@mdeclient{000a001a}[200009f1].dll  - Undefined Reference
    CMdELogicCondition::AddPropertyConditionL(const CMdEPropertyDef&, const TMdERange<long long>&)  - Undefined Reference
    _ZN18CMdELogicCondition21AddPropertyConditionLERK15CMdEPropertyDefRK9TMdERangeIxE@mdeclient{000a001a}[200009f1].dll  - Undefined Reference
    CMdELogicCondition::AddRelationConditionL(const CMdERelationDef&, TRelationConditionSide)  - Undefined Reference
    _ZN18CMdELogicCondition21AddRelationConditionLERK15CMdERelationDef22TRelationConditionSide@mdeclient{000a001a}[200009f1].dll  - Undefined Reference
    CMdELogicCondition::NewL(TLogicConditionOperator)  - Undefined Reference
    _ZN18CMdELogicCondition4NewLE23TLogicConditionOperator@mdeclient{000a001a}[200009f1].dll  - Undefined Reference
    QAbstractItemModel::insertRows(int, int, const QModelIndex&)  - Undefined Reference
    _ZN18QAbstractItemModel10insertRowsEiiRK11QModelIndex@QtCore{00040703}[2001b2dc].dll  - Undefined Reference
    QAbstractItemModel::removeRows(int, int, const QModelIndex&)  - Undefined Reference
    _ZN18QAbstractItemModel10removeRowsEiiRK11QModelIndex@QtCore{00040703}[2001b2dc].dll  - Undefined Reference
    QAbstractItemModel::dataChanged(const QModelIndex&, const QModelIndex&)  - Undefined Reference
    _ZN18QAbstractItemModel11dataChangedERK11QModelIndexS2_@QtCore{00040703}[2001b2dc].dll  - Undefined Reference
    QAbstractItemModel::endMoveRows()         - Undefined Reference
    _ZN18QAbstractItemModel11endMoveRowsEv@QtCore{00040703}[2001b2dc].dll  - Undefined Reference
    QAbstractItemModel::qt_metacall(QMetaObject::Call, int, void**)  - Undefined Reference
    _ZN18QAbstractItemModel11qt_metacallEN11QMetaObject4CallEiPPv@QtCore{00040703}[2001b2dc].dll  - Undefined Reference
    QAbstractItemModel::qt_metacast(const char*)  - Undefined Reference
    _ZN18QAbstractItemModel11qt_metacastEPKc@QtCore{00040703}[2001b2dc].dll  - Undefined Reference
    QAbstractItemModel::setItemData(const QModelIndex&, const QMap<int, QVariant>&)  - Undefined Reference
    _ZN18QAbstractItemModel11setItemDataERK11QModelIndexRK4QMapIi8QVariantE@QtCore{00040703}[2001b2dc].dll  - Undefined Reference
    QAbstractItemModel::dropMimeData(const QMimeData*, Qt::DropAction, int, int, const QModelIndex&)  - Undefined Reference
    _ZN18QAbstractItemModel12dropMimeDataEPK9QMimeDataN2Qt10DropActionEiiRK11QModelIndex@QtCore{00040703}[2001b2dc].dll  - Undefined Reference
    QAbstractItemModel::beginMoveRows(const QModelIndex&, int, int, const QModelIndex&, int)  - Undefined Reference
    _ZN18QAbstractItemModel13beginMoveRowsERK11QModelIndexiiS2_i@QtCore{00040703}[2001b2dc].dll  - Undefined Reference
    QAbstractItemModel::endInsertRows()       - Undefined Reference
    _ZN18QAbstractItemModel13endInsertRowsEv@QtCore{00040703}[2001b2dc].dll  - Undefined Reference
    QAbstractItemModel::endRemoveRows()       - Undefined Reference
    _ZN18QAbstractItemModel13endRemoveRowsEv@QtCore{00040703}[2001b2dc].dll  - Undefined Reference
    QAbstractItemModel::insertColumns(int, int, const QModelIndex&)  - Undefined Reference
    _ZN18QAbstractItemModel13insertColumnsEiiRK11QModelIndex@QtCore{00040703}[2001b2dc].dll  - Undefined Reference
    QAbstractItemModel::removeColumns(int, int, const QModelIndex&)  - Undefined Reference
    _ZN18QAbstractItemModel13removeColumnsEiiRK11QModelIndex@QtCore{00040703}[2001b2dc].dll  - Undefined Reference
    QAbstractItemModel::beginInsertRows(const QModelIndex&, int, int)  - Undefined Reference
    _ZN18QAbstractItemModel15beginInsertRowsERK11QModelIndexii@QtCore{00040703}[2001b2dc].dll  - Undefined Reference
    QAbstractItemModel::beginRemoveRows(const QModelIndex&, int, int)  - Undefined Reference
    _ZN18QAbstractItemModel15beginRemoveRowsERK11QModelIndexii@QtCore{00040703}[2001b2dc].dll  - Undefined Reference
    QAbstractItemModel::endInsertColumns()    - Undefined Reference
    _ZN18QAbstractItemModel16endInsertColumnsEv@QtCore{00040703}[2001b2dc].dll  - Undefined Reference
    QAbstractItemModel::endRemoveColumns()    - Undefined Reference
    _ZN18QAbstractItemModel16endRemoveColumnsEv@QtCore{00040703}[2001b2dc].dll  - Undefined Reference
    QAbstractItemModel::staticMetaObject      - Undefined Reference
    _ZN18QAbstractItemModel16staticMetaObjectE@QtCore{00040703}[2001b2dc].dll  - Undefined Reference
    QAbstractItemModel::headerDataChanged(Qt::Orientation, int, int)  - Undefined Reference
    _ZN18QAbstractItemModel17headerDataChangedEN2Qt11OrientationEii@QtCore{00040703}[2001b2dc].dll  - Undefined Reference
    QAbstractItemModel::beginInsertColumns(const QModelIndex&, int, int)  - Undefined Reference
    _ZN18QAbstractItemModel18beginInsertColumnsERK11QModelIndexii@QtCore{00040703}[2001b2dc].dll  - Undefined Reference
    QAbstractItemModel::beginRemoveColumns(const QModelIndex&, int, int)  - Undefined Reference
    _ZN18QAbstractItemModel18beginRemoveColumnsERK11QModelIndexii@QtCore{00040703}[2001b2dc].dll  - Undefined Reference
    QAbstractItemModel::sort(int, Qt::SortOrder)  - Undefined Reference
    _ZN18QAbstractItemModel4sortEiN2Qt9SortOrderE@QtCore{00040703}[2001b2dc].dll  - Undefined Reference
    QAbstractItemModel::revert()              - Undefined Reference
    _ZN18QAbstractItemModel6revertEv@QtCore{00040703}[2001b2dc].dll  - Undefined Reference
    QAbstractItemModel::submit()              - Undefined Reference
    _ZN18QAbstractItemModel6submitEv@QtCore{00040703}[2001b2dc].dll  - Undefined Reference
    QAbstractItemModel::fetchMore(const QModelIndex&)  - Undefined Reference
    _ZN18QAbstractItemModel9fetchMoreERK11QModelIndex@QtCore{00040703}[2001b2dc].dll  - Undefined Reference
    QAbstractItemModel::QAbstractItemModel__sub_object(QObject*)  - Undefined Reference
    _ZN18QAbstractItemModelC2EP7QObject@QtCore{00040703}[2001b2dc].dll  - Undefined Reference
    QAbstractItemModel::~QAbstractItemModel__sub_object()  - Undefined Reference
    _ZN18QAbstractItemModelD2Ev@QtCore{00040703}[2001b2dc].dll  - Undefined Reference
    CMdERelationCondition::LeftL()            - Undefined Reference
    _ZN21CMdERelationCondition5LeftLEv@mdeclient{000a001a}[200009f1].dll  - Undefined Reference
    QDir::toNativeSeparators(const QString&)  - Undefined Reference
    _ZN4QDir18toNativeSeparatorsERK7QString@QtCore{00040703}[2001b2dc].dll  - Undefined Reference
    QUrl::fromLocalFile(const QString&)       - Undefined Reference
    _ZN4QUrl13fromLocalFileERK7QString@QtCore{00040703}[2001b2dc].dll  - Undefined Reference
    QUrl::QUrl(const QString&)                - Undefined Reference
    _ZN4QUrlC1ERK7QString@QtCore{00040703}[2001b2dc].dll  - Undefined Reference
    QUrl::QUrl(const QUrl&)                   - Undefined Reference
    _ZN4QUrlC1ERKS_@QtCore{00040703}[2001b2dc].dll  - Undefined Reference
    QUrl::QUrl()                              - Undefined Reference
    _ZN4QUrlC1Ev@QtCore{00040703}[2001b2dc].dll  - Undefined Reference
    QUrl::~QUrl()                             - Undefined Reference
    _ZN4QUrlD1Ev@QtCore{00040703}[2001b2dc].dll  - Undefined Reference
    QUrl::operator =(const QUrl&)             - Undefined Reference
    _ZN4QUrlaSERKS_@QtCore{00040703}[2001b2dc].dll  - Undefined Reference
    User::MarkCleanupStack()                  - Undefined Reference
    _ZN4User16MarkCleanupStackEv@euser{000a0000}[100039e5].dll  - Undefined Reference
    User::UnMarkCleanupStack(TTrapHandler*)   - Undefined Reference
    _ZN4User18UnMarkCleanupStackEP12TTrapHandler@euser{000a0000}[100039e5].dll  - Undefined Reference
    User::AllocL(int)                         - Undefined Reference
    _ZN4User6AllocLEi@euser{000a0000}[100039e5].dll  - Undefined Reference
    User::Invariant()                         - Undefined Reference
    _ZN4User9InvariantEv@euser{000a0000}[100039e5].dll  - Undefined Reference
    User::LockedDec(int&)                     - Undefined Reference
    _ZN4User9LockedDecERi@euser{000a0000}[100039e5].dll  - Undefined Reference
    User::LockedInc(int&)                     - Undefined Reference
    _ZN4User9LockedIncERi@euser{000a0000}[100039e5].dll  - Undefined Reference
    QDate::QDate(int, int, int)               - Undefined Reference
    _ZN5QDateC1Eiii@QtCore{00040703}[2001b2dc].dll  - Undefined Reference
    QTime::QTime(int, int, int, int)          - Undefined Reference
    _ZN5QTimeC1Eiiii@QtCore{00040703}[2001b2dc].dll  - Undefined Reference
    TTime::TTime(const TDateTime&)            - Undefined Reference
    _ZN5TTimeC1ERK9TDateTime@euser{000a0000}[100039e5].dll  - Undefined Reference
    QTimer::singleShot(int, QObject*, const char*)  - Undefined Reference
    _ZN6QTimer10singleShotEiP7QObjectPKc@QtCore{00040703}[2001b2dc].dll  - Undefined Reference
    HBufC16::Des()                            - Undefined Reference
    _ZN7HBufC163DesEv@euser{000a0000}[100039e5].dll  - Undefined Reference
    QObject::childEvent(QChildEvent*)         - Undefined Reference
    _ZN7QObject10childEventEP11QChildEvent@QtCore{00040703}[2001b2dc].dll  - Undefined Reference
    QObject::timerEvent(QTimerEvent*)         - Undefined Reference
    _ZN7QObject10timerEventEP11QTimerEvent@QtCore{00040703}[2001b2dc].dll  - Undefined Reference
    QObject::customEvent(QEvent*)             - Undefined Reference
    _ZN7QObject11customEventEP6QEvent@QtCore{00040703}[2001b2dc].dll  - Undefined Reference
    QObject::eventFilter(QObject*, QEvent*)   - Undefined Reference
    _ZN7QObject11eventFilterEPS_P6QEvent@QtCore{00040703}[2001b2dc].dll  - Undefined Reference
    QObject::qt_metacall(QMetaObject::Call, int, void**)  - Undefined Reference
    _ZN7QObject11qt_metacallEN11QMetaObject4CallEiPPv@QtCore{00040703}[2001b2dc].dll  - Undefined Reference
    QObject::qt_metacast(const char*)         - Undefined Reference
    _ZN7QObject11qt_metacastEPKc@QtCore{00040703}[2001b2dc].dll  - Undefined Reference
    QObject::connectNotify(const char*)       - Undefined Reference
    _ZN7QObject13connectNotifyEPKc@QtCore{00040703}[2001b2dc].dll  - Undefined Reference
    QObject::disconnectNotify(const char*)    - Undefined Reference
    _ZN7QObject16disconnectNotifyEPKc@QtCore{00040703}[2001b2dc].dll  - Undefined Reference
    QObject::staticMetaObject                 - Undefined Reference
    _ZN7QObject16staticMetaObjectE@QtCore{00040703}[2001b2dc].dll  - Undefined Reference
    QObject::event(QEvent*)                   - Undefined Reference
    _ZN7QObject5eventEP6QEvent@QtCore{00040703}[2001b2dc].dll  - Undefined Reference
    QObject::connect(const QObject*, const char*, const QObject*, const char*, Qt::ConnectionType)  - Undefined Reference
    _ZN7QObject7connectEPKS_PKcS1_S3_N2Qt14ConnectionTypeE@QtCore{00040703}[2001b2dc].dll  - Undefined Reference
    QObject::QObject(QObject*)                - Undefined Reference
    _ZN7QObjectC1EPS_@QtCore{00040703}[2001b2dc].dll  - Undefined Reference
    QObject::~QObject()                       - Undefined Reference
    _ZN7QObjectD1Ev@QtCore{00040703}[2001b2dc].dll  - Undefined Reference
    QString::fromLatin1(const char*, int)     - Undefined Reference
    _ZN7QString10fromLatin1EPKci@QtCore{00040703}[2001b2dc].dll  - Undefined Reference
    QString::shared_null                      - Undefined Reference
    _ZN7QString11shared_nullE@QtCore{00040703}[2001b2dc].dll  - Undefined Reference
    QString::fromAscii_helper(const char*, int)  - Undefined Reference
    _ZN7QString16fromAscii_helperEPKci@QtCore{00040703}[2001b2dc].dll  - Undefined Reference
    QString::free(QString::Data*)             - Undefined Reference
    _ZN7QString4freeEPNS_4DataE@QtCore{00040703}[2001b2dc].dll  - Undefined Reference
    QString::grow(int)                        - Undefined Reference
    _ZN7QString4growEi@QtCore{00040703}[2001b2dc].dll  - Undefined Reference
    QString::append(const QString&)           - Undefined Reference
    _ZN7QString6appendERKS_@QtCore{00040703}[2001b2dc].dll  - Undefined Reference
    QString::realloc(int)                     - Undefined Reference
    _ZN7QString7reallocEi@QtCore{00040703}[2001b2dc].dll  - Undefined Reference
    QString::fromAscii(const char*, int)      - Undefined Reference
    _ZN7QString9fromAsciiEPKci@QtCore{00040703}[2001b2dc].dll  - Undefined Reference
    QString::fromUtf16(const unsigned short*, int)  - Undefined Reference
    _ZN7QString9fromUtf16EPKti@QtCore{00040703}[2001b2dc].dll  - Undefined Reference
    QString::operator =(const QString&)       - Undefined Reference
    _ZN7QStringaSERKS_@QtCore{00040703}[2001b2dc].dll  - Undefined Reference
    TPtrC16::TPtrC16(const unsigned short*)   - Undefined Reference
    _ZN7TPtrC16C1EPKt@euser{000a0000}[100039e5].dll  - Undefined Reference
    TPtrC16::TPtrC16(const unsigned short*, int)  - Undefined Reference
    _ZN7TPtrC16C1EPKti@euser{000a0000}[100039e5].dll  - Undefined Reference
    TPtrC16::TPtrC16()                        - Undefined Reference
    _ZN7TPtrC16C1Ev@euser{000a0000}[100039e5].dll  - Undefined Reference
    QMapData::createData(int)                 - Undefined Reference
    _ZN8QMapData10createDataEi@QtCore{00040703}[2001b2dc].dll  - Undefined Reference
    QMapData::node_create(QMapData::Node**, int, int)  - Undefined Reference
    _ZN8QMapData11node_createEPPNS_4NodeEii@QtCore{00040703}[2001b2dc].dll  - Undefined Reference
    QMapData::node_delete(QMapData::Node**, int, QMapData::Node*)  - Undefined Reference
    _ZN8QMapData11node_deleteEPPNS_4NodeEiS1_@QtCore{00040703}[2001b2dc].dll  - Undefined Reference
    QMapData::shared_null                     - Undefined Reference
    _ZN8QMapData11shared_nullE@QtCore{00040703}[2001b2dc].dll  - Undefined Reference
    QMapData::continueFreeData(int)           - Undefined Reference
    _ZN8QMapData16continueFreeDataEi@QtCore{00040703}[2001b2dc].dll  - Undefined Reference
    QVariant::clear()                         - Undefined Reference
    _ZN8QVariant5clearEv@QtCore{00040703}[2001b2dc].dll  - Undefined Reference
    QVariant::QVariant(const QString&)        - Undefined Reference
    _ZN8QVariantC1ERK7QString@QtCore{00040703}[2001b2dc].dll  - Undefined Reference
    QVariant::QVariant(const QVariant&)       - Undefined Reference
    _ZN8QVariantC1ERKS_@QtCore{00040703}[2001b2dc].dll  - Undefined Reference
    QVariant::QVariant(int)                   - Undefined Reference
    _ZN8QVariantC1Ei@QtCore{00040703}[2001b2dc].dll  - Undefined Reference
    QVariant::QVariant(int, const void*, unsigned)  - Undefined Reference
    _ZN8QVariantC1EiPKvj@QtCore{00040703}[2001b2dc].dll  - Undefined Reference
    QVariant::QVariant(unsigned)              - Undefined Reference
    _ZN8QVariantC1Ej@QtCore{00040703}[2001b2dc].dll  - Undefined Reference
    QVariant::~QVariant()                     - Undefined Reference
    _ZN8QVariantD1Ev@QtCore{00040703}[2001b2dc].dll  - Undefined Reference
    QVariant::operator =(const QVariant&)     - Undefined Reference
    _ZN8QVariantaSERKS_@QtCore{00040703}[2001b2dc].dll  - Undefined Reference
    CMdEQuery::SetResultMode(TQueryResultMode)  - Undefined Reference
    _ZN9CMdEQuery13SetResultModeE16TQueryResultMode@mdeclient{000a001a}[200009f1].dll  - Undefined Reference
    CMdEQuery::RemoveObserver(MMdEQueryObserver&)  - Undefined Reference
    _ZN9CMdEQuery14RemoveObserverER17MMdEQueryObserver@mdeclient{000a001a}[200009f1].dll  - Undefined Reference
    CMdEQuery::AppendOrderRuleL(const TMdEOrderRule&)  - Undefined Reference
    _ZN9CMdEQuery16AppendOrderRuleLERK13TMdEOrderRule@mdeclient{000a001a}[200009f1].dll  - Undefined Reference
    CMdEQuery::TakeOwnershipOfResult(int)     - Undefined Reference
    _ZN9CMdEQuery21TakeOwnershipOfResultEi@mdeclient{000a001a}[200009f1].dll  - Undefined Reference
    CMdEQuery::FindL(unsigned, unsigned)      - Undefined Reference
    _ZN9CMdEQuery5FindLEjj@mdeclient{000a001a}[200009f1].dll  - Undefined Reference
    CMdEQuery::Cancel()                       - Undefined Reference
    _ZN9CMdEQuery6CancelEv@mdeclient{000a001a}[200009f1].dll  - Undefined Reference
    QDateTime::QDateTime(const QDate&, const QTime&, Qt::TimeSpec)  - Undefined Reference
    _ZN9QDateTimeC1ERK5QDateRK5QTimeN2Qt8TimeSpecE@QtCore{00040703}[2001b2dc].dll  - Undefined Reference
    QDateTime::QDateTime(const QDateTime&)    - Undefined Reference
    _ZN9QDateTimeC1ERKS_@QtCore{00040703}[2001b2dc].dll  - Undefined Reference
    QDateTime::~QDateTime()                   - Undefined Reference
    _ZN9QDateTimeD1Ev@QtCore{00040703}[2001b2dc].dll  - Undefined Reference
    QFileInfo::QFileInfo(const QString&)      - Undefined Reference
    _ZN9QFileInfoC1ERK7QString@QtCore{00040703}[2001b2dc].dll  - Undefined Reference
    QFileInfo::~QFileInfo()                   - Undefined Reference
    _ZN9QFileInfoD1Ev@QtCore{00040703}[2001b2dc].dll  - Undefined Reference
    QHashData::free_helper(void(*)(QHashData::Node*))  - Undefined Reference
    _ZN9QHashData11free_helperEPFvPNS_4NodeEE@QtCore{00040703}[2001b2dc].dll  - Undefined Reference
    QHashData::shared_null                    - Undefined Reference
    _ZN9QHashData11shared_nullE@QtCore{00040703}[2001b2dc].dll  - Undefined Reference
    QHashData::allocateNode(int)              - Undefined Reference
    _ZN9QHashData12allocateNodeEi@QtCore{00040703}[2001b2dc].dll  - Undefined Reference
    QHashData::detach_helper2(void(*)(QHashData::Node*, void*), void(*)(QHashData::Node*), int, int)  - Undefined Reference
    _ZN9QHashData14detach_helper2EPFvPNS_4NodeEPvEPFvS1_Eii@QtCore{00040703}[2001b2dc].dll  - Undefined Reference
    QHashData::rehash(int)                    - Undefined Reference
    _ZN9QHashData6rehashEi@QtCore{00040703}[2001b2dc].dll  - Undefined Reference
    QHashData::nextNode(QHashData::Node*)     - Undefined Reference
    _ZN9QHashData8nextNodeEPNS_4NodeE@QtCore{00040703}[2001b2dc].dll  - Undefined Reference
    QListData::detach_grow(int*, int)         - Undefined Reference
    _ZN9QListData11detach_growEPii@QtCore{00040703}[2001b2dc].dll  - Undefined Reference
    QListData::shared_null                    - Undefined Reference
    _ZN9QListData11shared_nullE@QtCore{00040703}[2001b2dc].dll  - Undefined Reference
    QListData::append()                       - Undefined Reference
    _ZN9QListData6appendEv@QtCore{00040703}[2001b2dc].dll  - Undefined Reference
    QListData::detach(int)                    - Undefined Reference
    _ZN9QListData6detachEi@QtCore{00040703}[2001b2dc].dll  - Undefined Reference
    QListData::insert(int)                    - Undefined Reference
    _ZN9QListData6insertEi@QtCore{00040703}[2001b2dc].dll  - Undefined Reference
    QListData::remove(int)                    - Undefined Reference
    _ZN9QListData6removeEi@QtCore{00040703}[2001b2dc].dll  - Undefined Reference
    QListData::append2(const QListData&)      - Undefined Reference
    _ZN9QListData7append2ERKS_@QtCore{00040703}[2001b2dc].dll  - Undefined Reference
    QListData::prepend()                      - Undefined Reference
    _ZN9QListData7prependEv@QtCore{00040703}[2001b2dc].dll  - Undefined Reference
    QListData::realloc(int)                   - Undefined Reference
    _ZN9QListData7reallocEi@QtCore{00040703}[2001b2dc].dll  - Undefined Reference
    QtPrivate::QStringList_removeDuplicates(QStringList*)  - Undefined Reference
    _ZN9QtPrivate28QStringList_removeDuplicatesEP11QStringList@QtCore{00040703}[2001b2dc].dll  - Undefined Reference
    TDateTime::Set(int, TMonth, int, int, int, int, int)  - Undefined Reference
    _ZN9TDateTime3SetEi6TMonthiiiii@euser{000a0000}[100039e5].dll  - Undefined Reference
    CMdEObject::Def() const                   - Undefined Reference
    _ZNK10CMdEObject3DefEv@mdeclient{000a001a}[200009f1].dll  - Undefined Reference
    CMdEObject::Uri() const                   - Undefined Reference
    _ZNK10CMdEObject3UriEv@mdeclient{000a001a}[200009f1].dll  - Undefined Reference
    CMdEObject::Property(const CMdEPropertyDef&, CMdEProperty*&, int) const  - Undefined Reference
    _ZNK10CMdEObject8PropertyERK15CMdEPropertyDefRP12CMdEPropertyi@mdeclient{000a001a}[200009f1].dll  - Undefined Reference
    RArrayBase::At(int) const                 - Undefined Reference
    _ZNK10RArrayBase2AtEi@euser{000a0000}[100039e5].dll  - Undefined Reference
    RArrayBase::Find(const void*) const       - Undefined Reference
    _ZNK10RArrayBase4FindEPKv@euser{000a0000}[100039e5].dll  - Undefined Reference
    RArrayBase::Count() const                 - Undefined Reference
    _ZNK10RArrayBase5CountEv@euser{000a0000}[100039e5].dll  - Undefined Reference
    QMetaObject::tr(const char*, const char*) const  - Undefined Reference
    _ZNK11QMetaObject2trEPKcS1_@QtCore{00040703}[2001b2dc].dll  - Undefined Reference
    QMetaObject::cast(QObject*) const         - Undefined Reference
    _ZNK11QMetaObject4castEP7QObject@QtCore{00040703}[2001b2dc].dll  - Undefined Reference
    CMdEProperty::TextValueL() const          - Undefined Reference
    _ZNK12CMdEProperty10TextValueLEv@mdeclient{000a001a}[200009f1].dll  - Undefined Reference
    CMdEProperty::TimeValueL() const          - Undefined Reference
    _ZNK12CMdEProperty10TimeValueLEv@mdeclient{000a001a}[200009f1].dll  - Undefined Reference
    CMdEProperty::Uint8ValueL() const         - Undefined Reference
    _ZNK12CMdEProperty11Uint8ValueLEv@mdeclient{000a001a}[200009f1].dll  - Undefined Reference
    CMdEProperty::Real32ValueL() const        - Undefined Reference
    _ZNK12CMdEProperty12Real32ValueLEv@mdeclient{000a001a}[200009f1].dll  - Undefined Reference
    CMdEProperty::Uint16ValueL() const        - Undefined Reference
    _ZNK12CMdEProperty12Uint16ValueLEv@mdeclient{000a001a}[200009f1].dll  - Undefined Reference
    CMdEProperty::Uint32ValueL() const        - Undefined Reference
    _ZNK12CMdEProperty12Uint32ValueLEv@mdeclient{000a001a}[200009f1].dll  - Undefined Reference
    CMdECondition::Locked() const             - Undefined Reference
    _ZNK13CMdECondition6LockedEv@mdeclient{000a001a}[200009f1].dll  - Undefined Reference
    CMdEObjectDef::Name() const               - Undefined Reference
    _ZNK13CMdEObjectDef4NameEv@mdeclient{000a001a}[200009f1].dll  - Undefined Reference
    CMdEPropertyDef::PropertyType() const     - Undefined Reference
    _ZNK15CMdEPropertyDef12PropertyTypeEv@mdeclient{000a001a}[200009f1].dll  - Undefined Reference
    XLeaveException::GetReason() const        - Undefined Reference
    _ZNK15XLeaveException9GetReasonEv@euser{000a0000}[100039e5].dll  - Undefined Reference
    RPointerArrayBase::At(int) const          - Undefined Reference
    _ZNK17RPointerArrayBase2AtEi@euser{000a0000}[100039e5].dll  - Undefined Reference
    RPointerArrayBase::Count() const          - Undefined Reference
    _ZNK17RPointerArrayBase5CountEv@euser{000a0000}[100039e5].dll  - Undefined Reference
    CMdELogicCondition::Operator() const      - Undefined Reference
    _ZNK18CMdELogicCondition8OperatorEv@mdeclient{000a001a}[200009f1].dll  - Undefined Reference
    QAbstractItemModel::hasChildren(const QModelIndex&) const  - Undefined Reference
    _ZNK18QAbstractItemModel11hasChildrenERK11QModelIndex@QtCore{00040703}[2001b2dc].dll  - Undefined Reference
    QAbstractItemModel::canFetchMore(const QModelIndex&) const  - Undefined Reference
    _ZNK18QAbstractItemModel12canFetchMoreERK11QModelIndex@QtCore{00040703}[2001b2dc].dll  - Undefined Reference
    QAbstractItemModel::supportedDropActions() const  - Undefined Reference
    _ZNK18QAbstractItemModel20supportedDropActionsEv@QtCore{00040703}[2001b2dc].dll  - Undefined Reference
    QAbstractItemModel::span(const QModelIndex&) const  - Undefined Reference
    _ZNK18QAbstractItemModel4spanERK11QModelIndex@QtCore{00040703}[2001b2dc].dll  - Undefined Reference
    QAbstractItemModel::buddy(const QModelIndex&) const  - Undefined Reference
    _ZNK18QAbstractItemModel5buddyERK11QModelIndex@QtCore{00040703}[2001b2dc].dll  - Undefined Reference
    QAbstractItemModel::match(const QModelIndex&, int, const QVariant&, int, QFlags<Qt::MatchFlag>) const  - Undefined Reference
    _ZNK18QAbstractItemModel5matchERK11QModelIndexiRK8QVarianti6QFlagsIN2Qt9MatchFlagEE@QtCore{00040703}[2001b2dc].dll  - Undefined Reference
    QAbstractItemModel::itemData(const QModelIndex&) const  - Undefined Reference
    _ZNK18QAbstractItemModel8itemDataERK11QModelIndex@QtCore{00040703}[2001b2dc].dll  - Undefined Reference
    QAbstractItemModel::mimeData(const QList<QModelIndex>&) const  - Undefined Reference
    _ZNK18QAbstractItemModel8mimeDataERK5QListI11QModelIndexE@QtCore{00040703}[2001b2dc].dll  - Undefined Reference
    QAbstractItemModel::mimeTypes() const     - Undefined Reference
    _ZNK18QAbstractItemModel9mimeTypesEv@QtCore{00040703}[2001b2dc].dll  - Undefined Reference
    QUrl::isEmpty() const                     - Undefined Reference
    _ZNK4QUrl7isEmptyEv@QtCore{00040703}[2001b2dc].dll  - Undefined Reference
    QUrl::operator ==(const QUrl&) const      - Undefined Reference
    _ZNK4QUrleqERKS_@QtCore{00040703}[2001b2dc].dll  - Undefined Reference
    QUrl::operator !=(const QUrl&) const      - Undefined Reference
    _ZNK4QUrlneERKS_@QtCore{00040703}[2001b2dc].dll  - Undefined Reference
    QDate::day() const                        - Undefined Reference
    _ZNK5QDate3dayEv@QtCore{00040703}[2001b2dc].dll  - Undefined Reference
    QDate::year() const                       - Undefined Reference
    _ZNK5QDate4yearEv@QtCore{00040703}[2001b2dc].dll  - Undefined Reference
    QDate::month() const                      - Undefined Reference
    _ZNK5QDate5monthEv@QtCore{00040703}[2001b2dc].dll  - Undefined Reference
    QTime::hour() const                       - Undefined Reference
    _ZNK5QTime4hourEv@QtCore{00040703}[2001b2dc].dll  - Undefined Reference
    QTime::msec() const                       - Undefined Reference
    _ZNK5QTime4msecEv@QtCore{00040703}[2001b2dc].dll  - Undefined Reference
    QTime::minute() const                     - Undefined Reference
    _ZNK5QTime6minuteEv@QtCore{00040703}[2001b2dc].dll  - Undefined Reference
    QTime::second() const                     - Undefined Reference
    _ZNK5QTime6secondEv@QtCore{00040703}[2001b2dc].dll  - Undefined Reference
    TTime::DateTime() const                   - Undefined Reference
    _ZNK5TTime8DateTimeEv@euser{000a0000}[100039e5].dll  - Undefined Reference
    QString::startsWith(const QChar&, Qt::CaseSensitivity) const  - Undefined Reference
    _ZNK7QString10startsWithERK5QCharN2Qt15CaseSensitivityE@QtCore{00040703}[2001b2dc].dll  - Undefined Reference
    QString::toLocal8Bit() const              - Undefined Reference
    _ZNK7QString11toLocal8BitEv@QtCore{00040703}[2001b2dc].dll  - Undefined Reference
    QString::arg(const QString&, int, const QChar&) const  - Undefined Reference
    _ZNK7QString3argERKS_iRK5QChar@QtCore{00040703}[2001b2dc].dll  - Undefined Reference
    QString::mid(int, int) const              - Undefined Reference
    _ZNK7QString3midEii@QtCore{00040703}[2001b2dc].dll  - Undefined Reference
    QString::utf16() const                    - Undefined Reference
    _ZNK7QString5utf16Ev@QtCore{00040703}[2001b2dc].dll  - Undefined Reference
    QString::indexOf(QChar, int, Qt::CaseSensitivity) const  - Undefined Reference
    _ZNK7QString7indexOfE5QChariN2Qt15CaseSensitivityE@QtCore{00040703}[2001b2dc].dll  - Undefined Reference
    QString::operator ==(const QLatin1String&) const  - Undefined Reference
    _ZNK7QStringeqERK13QLatin1String@QtCore{00040703}[2001b2dc].dll  - Undefined Reference
    QString::operator ==(const QString&) const  - Undefined Reference
    _ZNK7QStringeqERKS_@QtCore{00040703}[2001b2dc].dll  - Undefined Reference
    TDesC16::LocateReverseF(TChar) const      - Undefined Reference
    _ZNK7TDesC1614LocateReverseFE5TChar@euser{000a0000}[100039e5].dll  - Undefined Reference
    TDesC16::Mid(int) const                   - Undefined Reference
    _ZNK7TDesC163MidEi@euser{000a0000}[100039e5].dll  - Undefined Reference
    TDesC16::Ptr() const                      - Undefined Reference
    _ZNK7TDesC163PtrEv@euser{000a0000}[100039e5].dll  - Undefined Reference
    TDesC16::Left(int) const                  - Undefined Reference
    _ZNK7TDesC164LeftEi@euser{000a0000}[100039e5].dll  - Undefined Reference
    TDesC16::Alloc() const                    - Undefined Reference
    _ZNK7TDesC165AllocEv@euser{000a0000}[100039e5].dll  - Undefined Reference
    TDesC16::Compare(const TDesC16&) const    - Undefined Reference
    _ZNK7TDesC167CompareERKS_@euser{000a0000}[100039e5].dll  - Undefined Reference
    CMdEItem::Id() const                      - Undefined Reference
    _ZNK8CMdEItem2IdEv@mdeclient{000a001a}[200009f1].dll  - Undefined Reference
    QVariant::toDateTime() const              - Undefined Reference
    _ZNK8QVariant10toDateTimeEv@QtCore{00040703}[2001b2dc].dll  - Undefined Reference
    QVariant::toULongLong(bool*) const        - Undefined Reference
    _ZNK8QVariant11toULongLongEPb@QtCore{00040703}[2001b2dc].dll  - Undefined Reference
    QVariant::cmp(const QVariant&) const      - Undefined Reference
    _ZNK8QVariant3cmpERKS_@QtCore{00040703}[2001b2dc].dll  - Undefined Reference
    QVariant::type() const                    - Undefined Reference
    _ZNK8QVariant4typeEv@QtCore{00040703}[2001b2dc].dll  - Undefined Reference
    QVariant::isNull() const                  - Undefined Reference
    _ZNK8QVariant6isNullEv@QtCore{00040703}[2001b2dc].dll  - Undefined Reference
    QVariant::toUInt(bool*) const             - Undefined Reference
    _ZNK8QVariant6toUIntEPb@QtCore{00040703}[2001b2dc].dll  - Undefined Reference
    QVariant::toDouble(bool*) const           - Undefined Reference
    _ZNK8QVariant8toDoubleEPb@QtCore{00040703}[2001b2dc].dll  - Undefined Reference
    QVariant::toString() const                - Undefined Reference
    _ZNK8QVariant8toStringEv@QtCore{00040703}[2001b2dc].dll  - Undefined Reference
    CMdEQuery::Conditions() const             - Undefined Reference
    _ZNK9CMdEQuery10ConditionsEv@mdeclient{000a001a}[200009f1].dll  - Undefined Reference
    CMdEQuery::ResultMode() const             - Undefined Reference
    _ZNK9CMdEQuery10ResultModeEv@mdeclient{000a001a}[200009f1].dll  - Undefined Reference
    CMdEQuery::ResultDistinctValue(int) const  - Undefined Reference
    _ZNK9CMdEQuery19ResultDistinctValueEi@mdeclient{000a001a}[200009f1].dll  - Undefined Reference
    CMdEQuery::Count() const                  - Undefined Reference
    _ZNK9CMdEQuery5CountEv@mdeclient{000a001a}[200009f1].dll  - Undefined Reference
    QDateTime::date() const                   - Undefined Reference
    _ZNK9QDateTime4dateEv@QtCore{00040703}[2001b2dc].dll  - Undefined Reference
    QDateTime::time() const                   - Undefined Reference
    _ZNK9QDateTime4timeEv@QtCore{00040703}[2001b2dc].dll  - Undefined Reference
    QFileInfo::absoluteFilePath() const       - Undefined Reference
    _ZNK9QFileInfo16absoluteFilePathEv@QtCore{00040703}[2001b2dc].dll  - Undefined Reference
    QFileInfo::fileName() const               - Undefined Reference
    _ZNK9QFileInfo8fileNameEv@QtCore{00040703}[2001b2dc].dll  - Undefined Reference
    typeinfo for XLeaveException              - Undefined Reference
    _ZTI15XLeaveException@drtaeabi{000a0000}.dll  - Undefined Reference
    typeinfo for QAbstractItemModel           - Undefined Reference
    _ZTI18QAbstractItemModel@QtCore{00040703}[2001b2dc].dll  - Undefined Reference
    typeinfo for QObject                      - Undefined Reference
    _ZTI7QObject@QtCore{00040703}[2001b2dc].dll  - Undefined Reference
    typeinfo for std::bad_alloc               - Undefined Reference
    _ZTISt9bad_alloc@stdnew{000a0000}[20022178].dll  - Undefined Reference
    vtable for __cxxabiv1::__class_type_info  - Undefined Reference
    _ZTVN10__cxxabiv117__class_type_infoE@drtaeabi{000a0000}.dll  - Undefined Reference
    vtable for __cxxabiv1::__si_class_type_info  - Undefined Reference
    _ZTVN10__cxxabiv120__si_class_type_infoE@drtaeabi{000a0000}.dll  - Undefined Reference
    vtable for __cxxabiv1::__vmi_class_type_info  - Undefined Reference
    _ZTVN10__cxxabiv121__vmi_class_type_infoE@drtaeabi{000a0000}.dll  - Undefined Reference
    operator delete (void*)                   - Undefined Reference
    _ZdlPv@stdnew{000a0000}[20022178].dll     - Undefined Reference
    operator ==(const QLatin1String&, const QStringRef&)  - Undefined Reference
    _ZeqRK13QLatin1StringRK10QStringRef@QtCore{00040703}[2001b2dc].dll  - Undefined Reference
    operator <<(QDebug, const QVariant&)      - Undefined Reference
    _Zls6QDebugRK8QVariant@QtCore{00040703}[2001b2dc].dll  - Undefined Reference
    operator new(unsigned)                    - Undefined Reference
    _Znwj@stdnew{000a0000}[20022178].dll      - Undefined Reference
    __aeabi_d2f                               - Undefined Reference
    __aeabi_d2f@dfpaeabi{000a0000}.dll        - Undefined Reference
    __aeabi_f2d                               - Undefined Reference
    __aeabi_f2d@dfpaeabi{000a0000}.dll        - Undefined Reference
    __aeabi_idivmod                           - Undefined Reference
    __aeabi_idivmod@drtaeabi{000a0000}.dll    - Undefined Reference
    __aeabi_memcpy4                           - Undefined Reference
    __aeabi_memcpy4@drtaeabi{000a0000}.dll    - Undefined Reference
    __aeabi_memmove4                          - Undefined Reference
    __aeabi_memmove4@drtaeabi{000a0000}.dll   - Undefined Reference
    __aeabi_uidivmod                          - Undefined Reference
    __aeabi_uidivmod@drtaeabi{000a0000}.dll   - Undefined Reference
    __aeabi_unwind_cpp_pr0                    - Undefined Reference
    __aeabi_unwind_cpp_pr0@drtaeabi{000a0000}.dll  - Undefined Reference
    __cxa_begin_catch                         - Undefined Reference
    __cxa_begin_catch@drtaeabi{000a0000}.dll  - Undefined Reference
    __cxa_end_catch                           - Undefined Reference
    __cxa_end_catch@drtaeabi{000a0000}.dll    - Undefined Reference
    __cxa_end_cleanup                         - Undefined Reference
    __cxa_end_cleanup@drtaeabi{000a0000}.dll  - Undefined Reference
    __cxa_pure_virtual                        - Undefined Reference
    __cxa_pure_virtual@drtaeabi{000a0000}.dll  - Undefined Reference
    __cxa_rethrow                             - Undefined Reference
    __cxa_rethrow@drtaeabi{000a0000}.dll      - Undefined Reference
    run_static_dtors                          - Undefined Weak Reference
    strcmp                                    - Undefined Reference
    strcmp@libc{00010001}[10207369].dll       - Undefined Reference
    Image$$ER_RO$$Base                       0x00008000   Number         0  anon$$obj.o(linker$$defined$$symbols)
    _E32Dll                                  0x00008000   ARM Code      40  uc_dll_.o(.emb_text)
    Symbian$$CPP$$Exception$$Descriptor      0x00008014   Data           0  uc_dll_.o(.emb_text)
    __cpp_initialize__aeabi_                 0x00008028   ARM Code      52  ucppinit.o(.emb_text)
    std::nothrow                             0x0000805c   ARM Code       0  ucppinit.o(.emb_text)
    __PLT                                    0x0000805c   ARM Code       0  anon$$obj.o(.plt)
    QtMobility::QAbstractGallery::getStaticMetaObject() 0x0000879d   Thumb Code     4  qabstractgallery.o(.text)
    QtMobility::QAbstractGallery::metaObject() const 0x000087a1   Thumb Code    28  qabstractgallery.o(.text)
    QtMobility::QAbstractGallery::qt_metacast(const char*) 0x000087bd   Thumb Code    40  qabstractgallery.o(.text)
    QtMobility::QAbstractGallery::qt_metacall(QMetaObject::Call, int, void**) 0x000087e5   Thumb Code    36  qabstractgallery.o(.text)
    QtMobility::QAbstractGallery::QAbstractGallery__sub_object(QObject*) 0x00008809   Thumb Code    36  qabstractgallery.o(.text)
    QtMobility::QAbstractGallery::~QAbstractGallery() 0x0000882d   Thumb Code     0  qabstractgallery.o(.text)
    QtMobility::QAbstractGallery::~QAbstractGallery__sub_object() 0x0000882d   Thumb Code    30  qabstractgallery.o(.text)
    QtMobility::QAbstractGallery::~QAbstractGallery__deallocating() 0x0000884b   Thumb Code    22  qabstractgallery.o(.text)
    QtMobility::QAbstractGallery::QAbstractGallery__sub_object(QtMobility::QAbstractGalleryPrivate&, QObject*) 0x00008861   Thumb Code    44  qabstractgallery.o(.text)
    QtMobility::QGalleryAbstractRequest::getStaticMetaObject() 0x00008899   Thumb Code     4  qgalleryabstractrequest.o(.text)
    QtMobility::QGalleryAbstractRequest::metaObject() const 0x0000889d   Thumb Code    28  qgalleryabstractrequest.o(.text)
    QtMobility::QGalleryAbstractRequest::qt_metacast(const char*) 0x000088b9   Thumb Code    40  qgalleryabstractrequest.o(.text)
    QtMobility::QGalleryAbstractRequest::supportedChanged() 0x000088e1   Thumb Code    18  qgalleryabstractrequest.o(.text)
    QtMobility::QGalleryAbstractRequest::galleryChanged() 0x000088f3   Thumb Code    18  qgalleryabstractrequest.o(.text)
    QtMobility::QGalleryAbstractRequest::setGallery(QtMobility::QAbstractGallery*) 0x00008905   Thumb Code   168  qgalleryabstractrequest.o(.text)
    QtMobility::QGalleryAbstractRequest::maximumProgress() const 0x000089ad   Thumb Code    18  qgalleryabstractrequest.o(.text)
    QtMobility::QGalleryAbstractRequest::currentProgress() const 0x000089bf   Thumb Code    18  qgalleryabstractrequest.o(.text)
    QtMobility::QGalleryAbstractRequest::errorString() const 0x000089d1   Thumb Code    34  qgalleryabstractrequest.o(.text)
    QtMobility::QGalleryAbstractRequest::error() const 0x000089f3   Thumb Code    12  qgalleryabstractrequest.o(.text)
    QtMobility::QGalleryAbstractRequest::state() const 0x000089ff   Thumb Code    12  qgalleryabstractrequest.o(.text)
    QtMobility::QGalleryAbstractRequest::isSupported() const 0x00008a0b   Thumb Code    80  qgalleryabstractrequest.o(.text)
    QtMobility::QGalleryAbstractRequest::gallery() const 0x00008a5b   Thumb Code    22  qgalleryabstractrequest.o(.text)
    QtMobility::QGalleryAbstractRequest::progressChanged(int, int) 0x00008a71   Thumb Code    40  qgalleryabstractrequest.o(.text)
    QtMobility::QGalleryAbstractRequestPrivate::_q_progressChanged(int, int) 0x00008a99   Thumb Code    28  qgalleryabstractrequest.o(.text)
    QtMobility::QGalleryAbstractRequest::stateChanged(QtMobility::QGalleryAbstractRequest::State) 0x00008ab5   Thumb Code    32  qgalleryabstractrequest.o(.text)
    QtMobility::QGalleryAbstractRequestPrivate::_q_resumed() 0x00008ad5   Thumb Code    44  qgalleryabstractrequest.o(.text)
    QtMobility::QGalleryAbstractRequest::canceled() 0x00008b01   Thumb Code    18  qgalleryabstractrequest.o(.text)
    QtMobility::QGalleryAbstractRequestPrivate::_q_canceled() 0x00008b13   Thumb Code    52  qgalleryabstractrequest.o(.text)
    QtMobility::QGalleryAbstractRequest::finished() 0x00008b47   Thumb Code    18  qgalleryabstractrequest.o(.text)
    QtMobility::QGalleryAbstractRequest::errorChanged() 0x00008b59   Thumb Code    18  qgalleryabstractrequest.o(.text)
    QtMobility::QGalleryAbstractRequest::error(int, const QString&) 0x00008b6b   Thumb Code    40  qgalleryabstractrequest.o(.text)
    QtMobility::QGalleryAbstractRequestPrivate::_q_finished() 0x00008b93   Thumb Code   286  qgalleryabstractrequest.o(.text)
    QtMobility::QGalleryAbstractRequest::clear() 0x00008cb1   Thumb Code   246  qgalleryabstractrequest.o(.text)
    QtMobility::QGalleryAbstractRequest::cancel() 0x00008da7   Thumb Code    94  qgalleryabstractrequest.o(.text)
    QtMobility::QGalleryAbstractRequest::execute() 0x00008e05   Thumb Code  1598  qgalleryabstractrequest.o(.text)
    QtMobility::QGalleryAbstractRequest::qt_metacall(QMetaObject::Call, int, void**) 0x00009443   Thumb Code   512  qgalleryabstractrequest.o(.text)
    QtMobility::QGalleryAbstractRequest::QGalleryAbstractRequest__sub_object(QtMobility::QGalleryAbstractRequest::RequestType, QObject*) 0x00009643   Thumb Code    82  qgalleryabstractrequest.o(.text)
    QtMobility::QGalleryAbstractRequest::QGalleryAbstractRequest__sub_object(QtMobility::QAbstractGallery*, QtMobility::QGalleryAbstractRequest::RequestType, QObject*) 0x00009695   Thumb Code    82  qgalleryabstractrequest.o(.text)
    QtMobility::QGalleryAbstractRequest::~QGalleryAbstractRequest() 0x000096e7   Thumb Code     0  qgalleryabstractrequest.o(.text)
    QtMobility::QGalleryAbstractRequest::~QGalleryAbstractRequest__sub_object() 0x000096e7   Thumb Code    30  qgalleryabstractrequest.o(.text)
    QtMobility::QGalleryAbstractRequest::~QGalleryAbstractRequest__deallocating() 0x00009705   Thumb Code    22  qgalleryabstractrequest.o(.text)
    QtMobility::QGalleryAbstractRequest::type() const 0x0000971b   Thumb Code    12  qgalleryabstractrequest.o(.text)
    QtMobility::QGalleryAbstractRequest::waitForFinished(int) 0x00009727   Thumb Code    66  qgalleryabstractrequest.o(.text)
    QtMobility::QGalleryAbstractRequest::QGalleryAbstractRequest__sub_object(QtMobility::QGalleryAbstractRequestPrivate&, QObject*) 0x00009769   Thumb Code    44  qgalleryabstractrequest.o(.text)
    QtMobility::QGalleryAbstractResponse::getStaticMetaObject() 0x00009799   Thumb Code     4  qgalleryabstractresponse.o(.text)
    QtMobility::QGalleryAbstractResponse::metaObject() const 0x0000979d   Thumb Code    28  qgalleryabstractresponse.o(.text)
    QtMobility::QGalleryAbstractResponse::qt_metacast(const char*) 0x000097b9   Thumb Code    40  qgalleryabstractresponse.o(.text)
    QtMobility::QGalleryAbstractResponse::progressChanged(int, int) 0x000097e1   Thumb Code    40  qgalleryabstractresponse.o(.text)
    QtMobility::QGalleryAbstractResponse::canceled() 0x00009809   Thumb Code    18  qgalleryabstractresponse.o(.text)
    QtMobility::QGalleryAbstractResponse::resumed() 0x0000981b   Thumb Code    18  qgalleryabstractresponse.o(.text)
    QtMobility::QGalleryAbstractResponse::finished() 0x0000982d   Thumb Code    18  qgalleryabstractresponse.o(.text)
    QtMobility::QGalleryAbstractResponse::qt_metacall(QMetaObject::Call, int, void**) 0x0000983f   Thumb Code   104  qgalleryabstractresponse.o(.text)
    QtMobility::QGalleryAbstractResponse::error(int, const QString&) 0x000098a7   Thumb Code    72  qgalleryabstractresponse.o(.text)
    QtMobility::QGalleryAbstractResponse::QGalleryAbstractResponse(int, const QString&, QObject*) 0x000098ef   Thumb Code    88  qgalleryabstractresponse.o(.text)
    QtMobility::QGalleryAbstractResponse::QGalleryAbstractResponse__sub_object(int, const QString&, QObject*) 0x000098ef   Thumb Code     0  qgalleryabstractresponse.o(.text)
    QtMobility::QGalleryAbstractResponse::~QGalleryAbstractResponse() 0x00009947   Thumb Code    30  qgalleryabstractresponse.o(.text)
    QtMobility::QGalleryAbstractResponse::~QGalleryAbstractResponse__sub_object() 0x00009947   Thumb Code     0  qgalleryabstractresponse.o(.text)
    QtMobility::QGalleryAbstractResponse::~QGalleryAbstractResponse__deallocating() 0x00009965   Thumb Code    22  qgalleryabstractresponse.o(.text)
    QtMobility::QGalleryAbstractResponse::error() const 0x0000997b   Thumb Code    18  qgalleryabstractresponse.o(.text)
    QtMobility::QGalleryAbstractResponse::errorString() const 0x0000998d   Thumb Code    38  qgalleryabstractresponse.o(.text)
    QtMobility::QGalleryAbstractResponse::isActive() const 0x000099b3   Thumb Code    26  qgalleryabstractresponse.o(.text)
    QtMobility::QGalleryAbstractResponse::isIdle() const 0x000099cd   Thumb Code    28  qgalleryabstractresponse.o(.text)
    QtMobility::QGalleryAbstractResponse::cancel() 0x000099e9   Thumb Code    56  qgalleryabstractresponse.o(.text)
    QtMobility::QGalleryAbstractResponse::waitForFinished(int) 0x00009a21   Thumb Code   156  qgalleryabstractresponse.o(.text)
    QtMobility::QGalleryAbstractResponse::QGalleryAbstractResponse(QObject*) 0x00009abd   Thumb Code    68  qgalleryabstractresponse.o(.text)
    QtMobility::QGalleryAbstractResponse::QGalleryAbstractResponse__sub_object(QObject*) 0x00009abd   Thumb Code     0  qgalleryabstractresponse.o(.text)
    QtMobility::QGalleryAbstractResponse::QGalleryAbstractResponse(QtMobility::QGalleryAbstractResponsePrivate&, QObject*) 0x00009b01   Thumb Code    44  qgalleryabstractresponse.o(.text)
    QtMobility::QGalleryAbstractResponse::QGalleryAbstractResponse__sub_object(QtMobility::QGalleryAbstractResponsePrivate&, QObject*) 0x00009b01   Thumb Code     0  qgalleryabstractresponse.o(.text)
    QtMobility::QGalleryAbstractResponse::finish(bool) 0x00009b2d   Thumb Code    92  qgalleryabstractresponse.o(.text)
    QtMobility::QGalleryAbstractResponse::resume() 0x00009b89   Thumb Code    36  qgalleryabstractresponse.o(.text)
    QtMobility::QGalleryFilter::QGalleryFilter() 0x00009bad   Thumb Code    48  qgalleryfilter.o(.text)
    QtMobility::QGalleryFilter::QGalleryFilter__sub_object() 0x00009bad   Thumb Code     0  qgalleryfilter.o(.text)
    QtMobility::QGalleryFilter::QGalleryFilter(const QtMobility::QGalleryFilter&) 0x00009bdd   Thumb Code    30  qgalleryfilter.o(.text)
    QtMobility::QGalleryFilter::QGalleryFilter__sub_object(const QtMobility::QGalleryFilter&) 0x00009bdd   Thumb Code     0  qgalleryfilter.o(.text)
    QtMobility::QGalleryFilter::QGalleryFilter(const QtMobility::QGalleryIntersectionFilter&) 0x00009bfb   Thumb Code    24  qgalleryfilter.o(.text)
    QtMobility::QGalleryFilter::QGalleryFilter__sub_object(const QtMobility::QGalleryIntersectionFilter&) 0x00009bfb   Thumb Code     0  qgalleryfilter.o(.text)
    QtMobility::QGalleryFilter::QGalleryFilter(const QtMobility::QGalleryUnionFilter&) 0x00009c13   Thumb Code    24  qgalleryfilter.o(.text)
    QtMobility::QGalleryFilter::QGalleryFilter__sub_object(const QtMobility::QGalleryUnionFilter&) 0x00009c13   Thumb Code     0  qgalleryfilter.o(.text)
    QtMobility::QGalleryFilter::QGalleryFilter(const QtMobility::QGalleryMetaDataFilter&) 0x00009c2b   Thumb Code    24  qgalleryfilter.o(.text)
    QtMobility::QGalleryFilter::QGalleryFilter__sub_object(const QtMobility::QGalleryMetaDataFilter&) 0x00009c2b   Thumb Code     0  qgalleryfilter.o(.text)
    QtMobility::QGalleryFilter::~QGalleryFilter() 0x00009c43   Thumb Code    14  qgalleryfilter.o(.text)
    QtMobility::QGalleryFilter::~QGalleryFilter__sub_object() 0x00009c43   Thumb Code     0  qgalleryfilter.o(.text)
    QtMobility::QGalleryFilter::operator =(const QtMobility::QGalleryFilter&) 0x00009c51   Thumb Code    70  qgalleryfilter.o(.text)
    QtMobility::QGalleryFilter::type() const 0x00009c97   Thumb Code    10  qgalleryfilter.o(.text)
    QtMobility::QGalleryFilter::isValid() const 0x00009ca1   Thumb Code    20  qgalleryfilter.o(.text)
    QtMobility::QGalleryIntersectionFilter::~QGalleryIntersectionFilter() 0x00009cb5   Thumb Code    14  qgalleryfilter.o(.text)
    QtMobility::QGalleryIntersectionFilter::~QGalleryIntersectionFilter__sub_object() 0x00009cb5   Thumb Code     0  qgalleryfilter.o(.text)
    QtMobility::QGalleryIntersectionFilter::QGalleryIntersectionFilter(const QtMobility::QGalleryIntersectionFilter&) 0x00009cc3   Thumb Code    30  qgalleryfilter.o(.text)
    QtMobility::QGalleryIntersectionFilter::QGalleryIntersectionFilter__sub_object(const QtMobility::QGalleryIntersectionFilter&) 0x00009cc3   Thumb Code     0  qgalleryfilter.o(.text)
    QtMobility::QGalleryFilter::toIntersectionFilter() const 0x00009ce1   Thumb Code   128  qgalleryfilter.o(.text)
    QtMobility::QGalleryUnionFilter::~QGalleryUnionFilter() 0x00009d61   Thumb Code    14  qgalleryfilter.o(.text)
    QtMobility::QGalleryUnionFilter::~QGalleryUnionFilter__sub_object() 0x00009d61   Thumb Code     0  qgalleryfilter.o(.text)
    QtMobility::QGalleryUnionFilter::QGalleryUnionFilter(const QtMobility::QGalleryUnionFilter&) 0x00009d6f   Thumb Code    30  qgalleryfilter.o(.text)
    QtMobility::QGalleryUnionFilter::QGalleryUnionFilter__sub_object(const QtMobility::QGalleryUnionFilter&) 0x00009d6f   Thumb Code     0  qgalleryfilter.o(.text)
    QtMobility::QGalleryFilter::toUnionFilter() const 0x00009d8d   Thumb Code   128  qgalleryfilter.o(.text)
    QtMobility::QGalleryMetaDataFilter::~QGalleryMetaDataFilter() 0x00009e0d   Thumb Code    14  qgalleryfilter.o(.text)
    QtMobility::QGalleryMetaDataFilter::~QGalleryMetaDataFilter__sub_object() 0x00009e0d   Thumb Code     0  qgalleryfilter.o(.text)
    QtMobility::QGalleryMetaDataFilter::QGalleryMetaDataFilter(const QtMobility::QGalleryMetaDataFilter&) 0x00009e1b   Thumb Code    30  qgalleryfilter.o(.text)
    QtMobility::QGalleryMetaDataFilter::QGalleryMetaDataFilter__sub_object(const QtMobility::QGalleryMetaDataFilter&) 0x00009e1b   Thumb Code     0  qgalleryfilter.o(.text)
    QtMobility::QGalleryFilter::toMetaDataFilter() const 0x00009e39   Thumb Code   128  qgalleryfilter.o(.text)
    QtMobility::QGalleryIntersectionFilter::QGalleryIntersectionFilter() 0x00009eb9   Thumb Code    38  qgalleryfilter.o(.text)
    QtMobility::QGalleryIntersectionFilter::QGalleryIntersectionFilter__sub_object() 0x00009eb9   Thumb Code     0  qgalleryfilter.o(.text)
    QtMobility::QGalleryIntersectionFilter::QGalleryIntersectionFilter(const QtMobility::QGalleryMetaDataFilter&) 0x00009edf   Thumb Code    76  qgalleryfilter.o(.text)
    QtMobility::QGalleryIntersectionFilter::QGalleryIntersectionFilter__sub_object(const QtMobility::QGalleryMetaDataFilter&) 0x00009edf   Thumb Code     0  qgalleryfilter.o(.text)
    QtMobility::QGalleryIntersectionFilter::QGalleryIntersectionFilter(const QtMobility::QGalleryUnionFilter&) 0x00009f2b   Thumb Code    82  qgalleryfilter.o(.text)
    QtMobility::QGalleryIntersectionFilter::QGalleryIntersectionFilter__sub_object(const QtMobility::QGalleryUnionFilter&) 0x00009f2b   Thumb Code     0  qgalleryfilter.o(.text)
    QtMobility::QGalleryIntersectionFilter::operator =(const QtMobility::QGalleryIntersectionFilter&) 0x00009f7d   Thumb Code    70  qgalleryfilter.o(.text)
    QtMobility::QGalleryIntersectionFilter::isValid() const 0x00009fc3   Thumb Code    18  qgalleryfilter.o(.text)
    QtMobility::QGalleryIntersectionFilter::filterCount() const 0x00009fd5   Thumb Code    20  qgalleryfilter.o(.text)
    QtMobility::QGalleryIntersectionFilter::isEmpty() const 0x00009fe9   Thumb Code    20  qgalleryfilter.o(.text)
    QtMobility::QGalleryIntersectionFilter::filters() const 0x00009ffd   Thumb Code    26  qgalleryfilter.o(.text)
    QtMobility::QGalleryIntersectionFilter::append(const QtMobility::QGalleryMetaDataFilter&) 0x0000a017   Thumb Code    42  qgalleryfilter.o(.text)
    QtMobility::QGalleryIntersectionFilter::append(const QtMobility::QGalleryUnionFilter&) 0x0000a041   Thumb Code    42  qgalleryfilter.o(.text)
    QtMobility::QGalleryIntersectionFilter::append(const QtMobility::QGalleryIntersectionFilter&) 0x0000a06b   Thumb Code    34  qgalleryfilter.o(.text)
    QtMobility::QGalleryIntersectionFilter::prepend(const QtMobility::QGalleryMetaDataFilter&) 0x0000a08d   Thumb Code    42  qgalleryfilter.o(.text)
    QtMobility::QGalleryIntersectionFilter::prepend(const QtMobility::QGalleryUnionFilter&) 0x0000a0b7   Thumb Code    42  qgalleryfilter.o(.text)
    QtMobility::QGalleryIntersectionFilter::prepend(const QtMobility::QGalleryIntersectionFilter&) 0x0000a0e1   Thumb Code    58  qgalleryfilter.o(.text)
    QtMobility::QGalleryIntersectionFilter::insert(int, const QtMobility::QGalleryMetaDataFilter&) 0x0000a11b   Thumb Code    46  qgalleryfilter.o(.text)
    QtMobility::QGalleryIntersectionFilter::insert(int, const QtMobility::QGalleryUnionFilter&) 0x0000a149   Thumb Code    46  qgalleryfilter.o(.text)
    QtMobility::QGalleryIntersectionFilter::insert(int, const QtMobility::QGalleryIntersectionFilter&) 0x0000a177   Thumb Code   128  qgalleryfilter.o(.text)
    QtMobility::QGalleryIntersectionFilter::replace(int, const QtMobility::QGalleryMetaDataFilter&) 0x0000a1f7   Thumb Code    46  qgalleryfilter.o(.text)
    QtMobility::QGalleryIntersectionFilter::replace(int, const QtMobility::QGalleryUnionFilter&) 0x0000a225   Thumb Code    46  qgalleryfilter.o(.text)
    QtMobility::QGalleryIntersectionFilter::remove(int) 0x0000a253   Thumb Code    26  qgalleryfilter.o(.text)
    QtMobility::QGalleryIntersectionFilter::clear() 0x0000a26d   Thumb Code    22  qgalleryfilter.o(.text)
    QtMobility::QGalleryIntersectionFilter::operator <<(const QtMobility::QGalleryIntersectionFilter&) 0x0000a283   Thumb Code    34  qgalleryfilter.o(.text)
    QtMobility::QGalleryUnionFilter::QGalleryUnionFilter() 0x0000a2a5   Thumb Code    38  qgalleryfilter.o(.text)
    QtMobility::QGalleryUnionFilter::QGalleryUnionFilter__sub_object() 0x0000a2a5   Thumb Code     0  qgalleryfilter.o(.text)
    QtMobility::QGalleryUnionFilter::QGalleryUnionFilter(const QtMobility::QGalleryMetaDataFilter&) 0x0000a2cb   Thumb Code    76  qgalleryfilter.o(.text)
    QtMobility::QGalleryUnionFilter::QGalleryUnionFilter__sub_object(const QtMobility::QGalleryMetaDataFilter&) 0x0000a2cb   Thumb Code     0  qgalleryfilter.o(.text)
    QtMobility::QGalleryUnionFilter::QGalleryUnionFilter(const QtMobility::QGalleryIntersectionFilter&) 0x0000a317   Thumb Code    76  qgalleryfilter.o(.text)
    QtMobility::QGalleryUnionFilter::QGalleryUnionFilter__sub_object(const QtMobility::QGalleryIntersectionFilter&) 0x0000a317   Thumb Code     0  qgalleryfilter.o(.text)
    QtMobility::QGalleryUnionFilter::operator =(const QtMobility::QGalleryUnionFilter&) 0x0000a363   Thumb Code    70  qgalleryfilter.o(.text)
    QtMobility::QGalleryUnionFilter::isValid() const 0x0000a3a9   Thumb Code    20  qgalleryfilter.o(.text)
    QtMobility::QGalleryUnionFilter::filterCount() const 0x0000a3bd   Thumb Code    20  qgalleryfilter.o(.text)
    QtMobility::QGalleryUnionFilter::isEmpty() const 0x0000a3d1   Thumb Code    20  qgalleryfilter.o(.text)
    QtMobility::QGalleryUnionFilter::filters() const 0x0000a3e5   Thumb Code    26  qgalleryfilter.o(.text)
    QtMobility::QGalleryUnionFilter::append(const QtMobility::QGalleryMetaDataFilter&) 0x0000a3ff   Thumb Code    42  qgalleryfilter.o(.text)
    QtMobility::QGalleryUnionFilter::append(const QtMobility::QGalleryIntersectionFilter&) 0x0000a429   Thumb Code    42  qgalleryfilter.o(.text)
    QtMobility::QGalleryUnionFilter::append(const QtMobility::QGalleryUnionFilter&) 0x0000a453   Thumb Code    34  qgalleryfilter.o(.text)
    QtMobility::QGalleryUnionFilter::prepend(const QtMobility::QGalleryMetaDataFilter&) 0x0000a475   Thumb Code    42  qgalleryfilter.o(.text)
    QtMobility::QGalleryUnionFilter::prepend(const QtMobility::QGalleryIntersectionFilter&) 0x0000a49f   Thumb Code    42  qgalleryfilter.o(.text)
    QtMobility::QGalleryUnionFilter::prepend(const QtMobility::QGalleryUnionFilter&) 0x0000a4c9   Thumb Code    58  qgalleryfilter.o(.text)
    QtMobility::QGalleryUnionFilter::insert(int, const QtMobility::QGalleryMetaDataFilter&) 0x0000a503   Thumb Code    46  qgalleryfilter.o(.text)
    QtMobility::QGalleryUnionFilter::insert(int, const QtMobility::QGalleryIntersectionFilter&) 0x0000a531   Thumb Code    46  qgalleryfilter.o(.text)
    QtMobility::QGalleryUnionFilter::insert(int, const QtMobility::QGalleryUnionFilter&) 0x0000a55f   Thumb Code   128  qgalleryfilter.o(.text)
    QtMobility::QGalleryUnionFilter::replace(int, const QtMobility::QGalleryMetaDataFilter&) 0x0000a5df   Thumb Code    46  qgalleryfilter.o(.text)
    QtMobility::QGalleryUnionFilter::replace(int, const QtMobility::QGalleryIntersectionFilter&) 0x0000a60d   Thumb Code    46  qgalleryfilter.o(.text)
    QtMobility::QGalleryUnionFilter::remove(int) 0x0000a63b   Thumb Code    26  qgalleryfilter.o(.text)
    QtMobility::QGalleryUnionFilter::clear() 0x0000a655   Thumb Code    22  qgalleryfilter.o(.text)
    QtMobility::QGalleryUnionFilter::operator <<(const QtMobility::QGalleryUnionFilter&) 0x0000a66b   Thumb Code    34  qgalleryfilter.o(.text)
    QtMobility::QGalleryMetaDataFilter::QGalleryMetaDataFilter() 0x0000a68d   Thumb Code    38  qgalleryfilter.o(.text)
    QtMobility::QGalleryMetaDataFilter::QGalleryMetaDataFilter__sub_object() 0x0000a68d   Thumb Code     0  qgalleryfilter.o(.text)
    QtMobility::QGalleryMetaDataFilter::QGalleryMetaDataFilter(const QString&, const QVariant&, QtMobility::QGalleryFilter::Comparator) 0x0000a6b3   Thumb Code    90  qgalleryfilter.o(.text)
    QtMobility::QGalleryMetaDataFilter::QGalleryMetaDataFilter__sub_object(const QString&, const QVariant&, QtMobility::QGalleryFilter::Comparator) 0x0000a6b3   Thumb Code     0  qgalleryfilter.o(.text)
    QtMobility::QGalleryMetaDataFilter::operator =(const QtMobility::QGalleryMetaDataFilter&) 0x0000a70d   Thumb Code    70  qgalleryfilter.o(.text)
    QtMobility::QGalleryMetaDataFilter::isValid() const 0x0000a753   Thumb Code    20  qgalleryfilter.o(.text)
    QtMobility::QGalleryMetaDataFilter::propertyName() const 0x0000a767   Thumb Code    26  qgalleryfilter.o(.text)
    QtMobility::QGalleryMetaDataFilter::setPropertyName(const QString&) 0x0000a781   Thumb Code    26  qgalleryfilter.o(.text)
    QtMobility::QGalleryMetaDataFilter::value() const 0x0000a79b   Thumb Code    26  qgalleryfilter.o(.text)
    QtMobility::QGalleryMetaDataFilter::setValue(const QVariant&) 0x0000a7b5   Thumb Code    26  qgalleryfilter.o(.text)
    QtMobility::QGalleryMetaDataFilter::comparator() const 0x0000a7cf   Thumb Code    10  qgalleryfilter.o(.text)
    QtMobility::QGalleryMetaDataFilter::setComparator(QtMobility::QGalleryFilter::Comparator) 0x0000a7d9   Thumb Code    16  qgalleryfilter.o(.text)
    QtMobility::QGalleryMetaDataFilter::isNegated() const 0x0000a7e9   Thumb Code    10  qgalleryfilter.o(.text)
    QtMobility::QGalleryMetaDataFilter::setNegated(bool) 0x0000a7f3   Thumb Code    16  qgalleryfilter.o(.text)
    QtMobility::QGalleryMetaDataFilter::operator !() const 0x0000a803   Thumb Code    44  qgalleryfilter.o(.text)
    QtMobility::operator ==(const QtMobility::QGalleryFilter&, const QtMobility::QGalleryFilter&) 0x0000a82f   Thumb Code    56  qgalleryfilter.o(.text)
    QtMobility::operator <<(QDebug, const QtMobility::QGalleryFilter&) 0x0000a867   Thumb Code    44  qgalleryfilter.o(.text)
    QtMobility::operator &&(const QtMobility::QGalleryIntersectionFilter&, const QtMobility::QGalleryIntersectionFilter&) 0x0000a893   Thumb Code    28  qgalleryfilter.o(.text)
    QtMobility::operator ||(const QtMobility::QGalleryUnionFilter&, const QtMobility::QGalleryUnionFilter&) 0x0000a8af   Thumb Code    28  qgalleryfilter.o(.text)
    QtMobility::operator !=(const QtMobility::QGalleryFilter&, const QtMobility::QGalleryFilter&) 0x0000a8cb   Thumb Code    58  qgalleryfilter.o(.text)
    QtMobility::QGalleryItemRequest::getStaticMetaObject() 0x0000a905   Thumb Code     4  qgalleryitemrequest.o(.text)
    QtMobility::QGalleryItemRequest::metaObject() const 0x0000a909   Thumb Code    28  qgalleryitemrequest.o(.text)
    QtMobility::QGalleryItemRequest::qt_metacast(const char*) 0x0000a925   Thumb Code    40  qgalleryitemrequest.o(.text)
    QtMobility::QGalleryItemRequest::itemIdChanged() 0x0000a94d   Thumb Code    18  qgalleryitemrequest.o(.text)
    QtMobility::QGalleryItemRequest::setItemId(const QVariant&) 0x0000a95f   Thumb Code    70  qgalleryitemrequest.o(.text)
    QtMobility::QGalleryItemRequest::autoUpdateChanged() 0x0000a9a5   Thumb Code    18  qgalleryitemrequest.o(.text)
    QtMobility::QGalleryItemRequest::setAutoUpdate(bool) 0x0000a9b7   Thumb Code    50  qgalleryitemrequest.o(.text)
    QtMobility::QGalleryItemRequest::propertyNamesChanged() 0x0000a9e9   Thumb Code    18  qgalleryitemrequest.o(.text)
    QtMobility::QGalleryItemRequest::setPropertyNames(const QStringList&) 0x0000a9fb   Thumb Code    70  qgalleryitemrequest.o(.text)
    QtMobility::QGalleryItemRequest::resources() const 0x0000aa41   Thumb Code    32  qgalleryitemrequest.o(.text)
    QtMobility::QGalleryItemRequest::itemUrl() const 0x0000aa61   Thumb Code    32  qgalleryitemrequest.o(.text)
    QtMobility::QGalleryItemRequest::itemType() const 0x0000aa81   Thumb Code    32  qgalleryitemrequest.o(.text)
    QtMobility::QGalleryItemRequest::isValid() const 0x0000aaa1   Thumb Code    28  qgalleryitemrequest.o(.text)
    QtMobility::QGalleryItemRequest::itemId() const 0x0000aabd   Thumb Code    34  qgalleryitemrequest.o(.text)
    QtMobility::QGalleryItemRequest::autoUpdate() const 0x0000aadf   Thumb Code    20  qgalleryitemrequest.o(.text)
    QtMobility::QGalleryItemRequest::propertyNames() const 0x0000aaf3   Thumb Code    60  qgalleryitemrequest.o(.text)
    QtMobility::QGalleryItemRequest::metaDataChanged(const QList<int>&) 0x0000ab2f   Thumb Code    30  qgalleryitemrequest.o(.text)
    QtMobility::QGalleryItemRequest::itemChanged() 0x0000ab4d   Thumb Code    18  qgalleryitemrequest.o(.text)
    QtMobility::QGalleryItemRequest::resultSetChanged(QtMobility::QGalleryResultSet*) 0x0000ab5f   Thumb Code    32  qgalleryitemrequest.o(.text)
    QtMobility::QGalleryItemRequest::qt_metacall(QMetaObject::Call, int, void**) 0x0000ab7f   Thumb Code   818  qgalleryitemrequest.o(.text)
    QtMobility::QGalleryItemRequest::QGalleryItemRequest(QObject*) 0x0000aeb1   Thumb Code    48  qgalleryitemrequest.o(.text)
    QtMobility::QGalleryItemRequest::QGalleryItemRequest__sub_object(QObject*) 0x0000aeb1   Thumb Code     0  qgalleryitemrequest.o(.text)
    QtMobility::QGalleryItemRequest::QGalleryItemRequest(QtMobility::QAbstractGallery*, QObject*) 0x0000aee1   Thumb Code    50  qgalleryitemrequest.o(.text)
    QtMobility::QGalleryItemRequest::QGalleryItemRequest__sub_object(QtMobility::QAbstractGallery*, QObject*) 0x0000aee1   Thumb Code     0  qgalleryitemrequest.o(.text)
    QtMobility::QGalleryItemRequest::~QGalleryItemRequest() 0x0000af13   Thumb Code    14  qgalleryitemrequest.o(.text)
    QtMobility::QGalleryItemRequest::~QGalleryItemRequest__sub_object() 0x0000af13   Thumb Code     0  qgalleryitemrequest.o(.text)
    QtMobility::QGalleryItemRequest::~QGalleryItemRequest__deallocating() 0x0000af21   Thumb Code    22  qgalleryitemrequest.o(.text)
    QtMobility::QGalleryItemRequest::resultSet() const 0x0000af37   Thumb Code    18  qgalleryitemrequest.o(.text)
    QtMobility::QGalleryItemRequest::propertyKey(const QString&) const 0x0000af49   Thumb Code    32  qgalleryitemrequest.o(.text)
    QtMobility::QGalleryItemRequest::propertyAttributes(int) const 0x0000af69   Thumb Code    36  qgalleryitemrequest.o(.text)
    QtMobility::QGalleryItemRequest::propertyType(int) const 0x0000af8d   Thumb Code    32  qgalleryitemrequest.o(.text)
    QtMobility::QGalleryItemRequest::metaData(int) const 0x0000afad   Thumb Code    36  qgalleryitemrequest.o(.text)
    QtMobility::QGalleryItemRequest::setMetaData(int, const QVariant&) 0x0000afd1   Thumb Code    36  qgalleryitemrequest.o(.text)
    QtMobility::QGalleryItemRequest::metaData(const QString&) const 0x0000aff5   Thumb Code    62  qgalleryitemrequest.o(.text)
    QtMobility::QGalleryItemRequest::setMetaData(const QString&, const QVariant&) 0x0000b033   Thumb Code    66  qgalleryitemrequest.o(.text)
    QtMobility::QGalleryItemRequest::setResponse(QtMobility::QGalleryAbstractResponse*) 0x0000b075   Thumb Code   634  qgalleryitemrequest.o(.text)
    QtMobility::QGalleryQueryModel::getStaticMetaObject() 0x0000b2f1   Thumb Code     4  qgalleryquerymodel.o(.text)
    QtMobility::QGalleryQueryModel::metaObject() const 0x0000b2f5   Thumb Code    28  qgalleryquerymodel.o(.text)
    QtMobility::QGalleryQueryModel::qt_metacast(const char*) 0x0000b311   Thumb Code    40  qgalleryquerymodel.o(.text)
    QtMobility::QGalleryQueryModel::setFilter(const QtMobility::QGalleryFilter&) 0x0000b339   Thumb Code    26  qgalleryquerymodel.o(.text)
    QtMobility::QGalleryQueryModel::setScope(QtMobility::QGalleryQueryRequest::Scope) 0x0000b353   Thumb Code    26  qgalleryquerymodel.o(.text)
    QtMobility::QGalleryQueryModel::setRootItem(const QVariant&) 0x0000b36d   Thumb Code    26  qgalleryquerymodel.o(.text)
    QtMobility::QGalleryQueryModel::setRootType(const QString&) 0x0000b387   Thumb Code    26  qgalleryquerymodel.o(.text)
    QtMobility::QGalleryQueryModel::setLimit(int) 0x0000b3a1   Thumb Code    26  qgalleryquerymodel.o(.text)
    QtMobility::QGalleryQueryModel::setOffset(int) 0x0000b3bb   Thumb Code    26  qgalleryquerymodel.o(.text)
    QtMobility::QGalleryQueryModel::setAutoUpdate(bool) 0x0000b3d5   Thumb Code    26  qgalleryquerymodel.o(.text)
    QtMobility::QGalleryQueryModel::setSortPropertyNames(const QStringList&) 0x0000b3ef   Thumb Code    26  qgalleryquerymodel.o(.text)
    QtMobility::QGalleryQueryModel::setGallery(QtMobility::QAbstractGallery*) 0x0000b409   Thumb Code    26  qgalleryquerymodel.o(.text)
    QtMobility::QGalleryQueryModel::state() const 0x0000b423   Thumb Code    22  qgalleryquerymodel.o(.text)
    QtMobility::QGalleryQueryModel::errorString() const 0x0000b439   Thumb Code    28  qgalleryquerymodel.o(.text)
    QtMobility::QGalleryQueryModel::error() const 0x0000b455   Thumb Code    22  qgalleryquerymodel.o(.text)
    QtMobility::QGalleryQueryModel::filter() const 0x0000b46b   Thumb Code    28  qgalleryquerymodel.o(.text)
    QtMobility::QGalleryQueryModel::scope() const 0x0000b487   Thumb Code    22  qgalleryquerymodel.o(.text)
    QtMobility::QGalleryQueryModel::rootItem() const 0x0000b49d   Thumb Code    28  qgalleryquerymodel.o(.text)
    QtMobility::QGalleryQueryModel::rootType() const 0x0000b4b9   Thumb Code    28  qgalleryquerymodel.o(.text)
    QtMobility::QGalleryQueryModel::limit() const 0x0000b4d5   Thumb Code    22  qgalleryquerymodel.o(.text)
    QtMobility::QGalleryQueryModel::offset() const 0x0000b4eb   Thumb Code    22  qgalleryquerymodel.o(.text)
    QtMobility::QGalleryQueryModel::autoUpdate() const 0x0000b501   Thumb Code    22  qgalleryquerymodel.o(.text)
    QtMobility::QGalleryQueryModel::sortPropertyNames() const 0x0000b517   Thumb Code    28  qgalleryquerymodel.o(.text)
    QtMobility::QGalleryQueryModel::gallery() const 0x0000b533   Thumb Code    22  qgalleryquerymodel.o(.text)
    QtMobility::QGalleryQueryModelPrivate::_q_metaDataChanged(int, int, const QList<int>&) 0x0000b549   Thumb Code   290  qgalleryquerymodel.o(.text)
    QtMobility::QGalleryQueryModelPrivate::_q_itemsMoved(int, int, int) 0x0000b66b   Thumb Code    82  qgalleryquerymodel.o(.text)
    QtMobility::QGalleryQueryModelPrivate::_q_itemsRemoved(int, int) 0x0000b6bd   Thumb Code    62  qgalleryquerymodel.o(.text)
    QtMobility::QGalleryQueryModelPrivate::_q_itemsInserted(int, int) 0x0000b6fb   Thumb Code    62  qgalleryquerymodel.o(.text)
    QtMobility::QGalleryQueryModelPrivate::_q_resultSetChanged(QtMobility::QGalleryResultSet*) 0x0000b739   Thumb Code   186  qgalleryquerymodel.o(.text)
    QtMobility::QGalleryQueryModel::stateChanged(QtMobility::QGalleryAbstractRequest::State) 0x0000b7f3   Thumb Code    32  qgalleryquerymodel.o(.text)
    QtMobility::QGalleryQueryModel::errorChanged() 0x0000b813   Thumb Code    18  qgalleryquerymodel.o(.text)
    QtMobility::QGalleryQueryModel::error(int, const QString&) 0x0000b825   Thumb Code    40  qgalleryquerymodel.o(.text)
    QtMobility::QGalleryQueryModel::canceled() 0x0000b84d   Thumb Code    18  qgalleryquerymodel.o(.text)
    QtMobility::QGalleryQueryModel::finished() 0x0000b85f   Thumb Code    18  qgalleryquerymodel.o(.text)
    QtMobility::QGalleryQueryModel::filterChanged() 0x0000b871   Thumb Code    18  qgalleryquerymodel.o(.text)
    QtMobility::QGalleryQueryModel::scopeChanged() 0x0000b883   Thumb Code    18  qgalleryquerymodel.o(.text)
    QtMobility::QGalleryQueryModel::rootItemChanged() 0x0000b895   Thumb Code    18  qgalleryquerymodel.o(.text)
    QtMobility::QGalleryQueryModel::rootTypeChanged() 0x0000b8a7   Thumb Code    18  qgalleryquerymodel.o(.text)
    QtMobility::QGalleryQueryModel::limitChanged() 0x0000b8b9   Thumb Code    18  qgalleryquerymodel.o(.text)
    QtMobility::QGalleryQueryModel::offsetChanged() 0x0000b8cb   Thumb Code    18  qgalleryquerymodel.o(.text)
    QtMobility::QGalleryQueryModel::autoUpdateChanged() 0x0000b8dd   Thumb Code    18  qgalleryquerymodel.o(.text)
    QtMobility::QGalleryQueryModel::sortPropertyNamesChanged() 0x0000b8ef   Thumb Code    18  qgalleryquerymodel.o(.text)
    QtMobility::QGalleryQueryModel::galleryChanged() 0x0000b901   Thumb Code    18  qgalleryquerymodel.o(.text)
    QtMobility::QGalleryQueryModel::qt_metacall(QMetaObject::Call, int, void**) 0x0000b913   Thumb Code  1100  qgalleryquerymodel.o(.text)
    QtMobility::QGalleryQueryModel::QGalleryQueryModel(QObject*) 0x0000bd5f   Thumb Code    78  qgalleryquerymodel.o(.text)
    QtMobility::QGalleryQueryModel::QGalleryQueryModel__sub_object(QObject*) 0x0000bd5f   Thumb Code     0  qgalleryquerymodel.o(.text)
    QtMobility::QGalleryQueryModel::QGalleryQueryModel(QtMobility::QAbstractGallery*, QObject*) 0x0000bdad   Thumb Code    76  qgalleryquerymodel.o(.text)
    QtMobility::QGalleryQueryModel::QGalleryQueryModel__sub_object(QtMobility::QAbstractGallery*, QObject*) 0x0000bdad   Thumb Code     0  qgalleryquerymodel.o(.text)
    QtMobility::QGalleryQueryModel::~QGalleryQueryModel() 0x0000bdf9   Thumb Code    30  qgalleryquerymodel.o(.text)
    QtMobility::QGalleryQueryModel::~QGalleryQueryModel__sub_object() 0x0000bdf9   Thumb Code     0  qgalleryquerymodel.o(.text)
    QtMobility::QGalleryQueryModel::~QGalleryQueryModel__deallocating() 0x0000be17   Thumb Code    22  qgalleryquerymodel.o(.text)
    QtMobility::QGalleryQueryModel::roleProperties(int) const 0x0000be2d   Thumb Code    36  qgalleryquerymodel.o(.text)
    QtMobility::QGalleryQueryModelPrivate::updateRoles(int) 0x0000be51   Thumb Code   556  qgalleryquerymodel.o(.text)
    QtMobility::QGalleryQueryModel::setRoleProperties(int, const QHash<int, QString>&) 0x0000c07d   Thumb Code   160  qgalleryquerymodel.o(.text)
    QtMobility::QGalleryQueryModel::addColumn(const QHash<int, QString>&) 0x0000c11d   Thumb Code   198  qgalleryquerymodel.o(.text)
    QtMobility::QGalleryQueryModel::addColumn(const QString&, int) 0x0000c1e3   Thumb Code    44  qgalleryquerymodel.o(.text)
    QtMobility::QGalleryQueryModel::insertColumn(int, const QHash<int, QString>&) 0x0000c20f   Thumb Code   248  qgalleryquerymodel.o(.text)
    QtMobility::QGalleryQueryModel::insertColumn(int, const QString&, int) 0x0000c307   Thumb Code    48  qgalleryquerymodel.o(.text)
    QtMobility::QGalleryQueryModel::removeColumn(int) 0x0000c337   Thumb Code   394  qgalleryquerymodel.o(.text)
    QtMobility::QGalleryQueryModelPrivate::updateRoles() 0x0000c4c1   Thumb Code   502  qgalleryquerymodel.o(.text)
    QtMobility::QGalleryQueryModel::execute() 0x0000c6b7   Thumb Code   152  qgalleryquerymodel.o(.text)
    QtMobility::QGalleryQueryModel::cancel() 0x0000c74f   Thumb Code    22  qgalleryquerymodel.o(.text)
    QtMobility::QGalleryQueryModel::clear()  0x0000c765   Thumb Code    22  qgalleryquerymodel.o(.text)
    QtMobility::QGalleryQueryModel::index(int, int, const QModelIndex&) const 0x0000c77b   Thumb Code   168  qgalleryquerymodel.o(.text)
    QtMobility::QGalleryQueryModel::parent(const QModelIndex&) const 0x0000c823   Thumb Code    22  qgalleryquerymodel.o(.text)
    QtMobility::QGalleryQueryModel::rowCount(const QModelIndex&) const 0x0000c839   Thumb Code    30  qgalleryquerymodel.o(.text)
    QtMobility::QGalleryQueryModel::columnCount(const QModelIndex&) const 0x0000c857   Thumb Code    30  qgalleryquerymodel.o(.text)
    QtMobility::QGalleryQueryModel::data(const QModelIndex&, int) const 0x0000c875   Thumb Code   266  qgalleryquerymodel.o(.text)
    QtMobility::QGalleryQueryModel::setData(const QModelIndex&, const QVariant&, int) 0x0000c97f   Thumb Code   238  qgalleryquerymodel.o(.text)
    QtMobility::QGalleryQueryModel::itemId(const QModelIndex&) const 0x0000ca6d   Thumb Code   102  qgalleryquerymodel.o(.text)
    QtMobility::QGalleryQueryModel::itemUrl(const QModelIndex&) const 0x0000cad3   Thumb Code   102  qgalleryquerymodel.o(.text)
    QtMobility::QGalleryQueryModel::itemType(const QModelIndex&) const 0x0000cb39   Thumb Code   114  qgalleryquerymodel.o(.text)
    QtMobility::QGalleryQueryModel::headerData(int, Qt::Orientation, int) const 0x0000cbab   Thumb Code   178  qgalleryquerymodel.o(.text)
    QtMobility::QGalleryQueryModel::setHeaderData(int, Qt::Orientation, const QVariant&, int) 0x0000cc5d   Thumb Code   108  qgalleryquerymodel.o(.text)
    QtMobility::QGalleryQueryModel::flags(const QModelIndex&) const 0x0000ccc9   Thumb Code    36  qgalleryquerymodel.o(.text)
    QtMobility::QGalleryQueryRequest::getStaticMetaObject() 0x0000ccf1   Thumb Code     4  qgalleryqueryrequest.o(.text)
    QtMobility::QGalleryQueryRequest::metaObject() const 0x0000ccf5   Thumb Code    28  qgalleryqueryrequest.o(.text)
    QtMobility::QGalleryQueryRequest::qt_metacast(const char*) 0x0000cd11   Thumb Code    40  qgalleryqueryrequest.o(.text)
    QtMobility::QGalleryQueryRequest::seek(int, bool) 0x0000cd39   Thumb Code    70  qgalleryqueryrequest.o(.text)
    QtMobility::QGalleryQueryRequest::filterChanged() 0x0000cd7f   Thumb Code    18  qgalleryqueryrequest.o(.text)
    QtMobility::QGalleryQueryRequest::setFilter(const QtMobility::QGalleryFilter&) 0x0000cd91   Thumb Code    66  qgalleryqueryrequest.o(.text)
    QtMobility::QGalleryQueryRequest::scopeChanged() 0x0000cdd3   Thumb Code    18  qgalleryqueryrequest.o(.text)
    QtMobility::QGalleryQueryRequest::setScope(QtMobility::QGalleryQueryRequest::Scope) 0x0000cde5   Thumb Code    46  qgalleryqueryrequest.o(.text)
    QtMobility::QGalleryQueryRequest::rootItemChanged() 0x0000ce13   Thumb Code    18  qgalleryqueryrequest.o(.text)
    QtMobility::QGalleryQueryRequest::setRootItem(const QVariant&) 0x0000ce25   Thumb Code    70  qgalleryqueryrequest.o(.text)
    QtMobility::QGalleryQueryRequest::rootTypeChanged() 0x0000ce6b   Thumb Code    18  qgalleryqueryrequest.o(.text)
    QtMobility::QGalleryQueryRequest::setRootType(const QString&) 0x0000ce7d   Thumb Code    70  qgalleryqueryrequest.o(.text)
    QtMobility::QGalleryQueryRequest::limitChanged() 0x0000cec3   Thumb Code    18  qgalleryqueryrequest.o(.text)
    QtMobility::QGalleryQueryRequest::setLimit(int) 0x0000ced5   Thumb Code    66  qgalleryqueryrequest.o(.text)
    QtMobility::QGalleryQueryRequest::offsetChanged() 0x0000cf17   Thumb Code    18  qgalleryqueryrequest.o(.text)
    QtMobility::QGalleryQueryRequest::setOffset(int) 0x0000cf29   Thumb Code    66  qgalleryqueryrequest.o(.text)
    QtMobility::QGalleryQueryRequest::autoUpdateChanged() 0x0000cf6b   Thumb Code    18  qgalleryqueryrequest.o(.text)
    QtMobility::QGalleryQueryRequest::setAutoUpdate(bool) 0x0000cf7d   Thumb Code    50  qgalleryqueryrequest.o(.text)
    QtMobility::QGalleryQueryRequest::sortPropertyNamesChanged() 0x0000cfaf   Thumb Code    18  qgalleryqueryrequest.o(.text)
    QtMobility::QGalleryQueryRequest::setSortPropertyNames(const QStringList&) 0x0000cfc1   Thumb Code    66  qgalleryqueryrequest.o(.text)
    QtMobility::QGalleryQueryRequest::propertyNamesChanged() 0x0000d003   Thumb Code    18  qgalleryqueryrequest.o(.text)
    QtMobility::QGalleryQueryRequest::setPropertyNames(const QStringList&) 0x0000d015   Thumb Code    66  qgalleryqueryrequest.o(.text)
    QtMobility::QGalleryQueryRequest::currentIndex() const 0x0000d057   Thumb Code    28  qgalleryqueryrequest.o(.text)
    QtMobility::QGalleryQueryRequest::resources() const 0x0000d073   Thumb Code    42  qgalleryqueryrequest.o(.text)
    QtMobility::QGalleryQueryRequest::itemUrl() const 0x0000d09d   Thumb Code    32  qgalleryqueryrequest.o(.text)
    QtMobility::QGalleryQueryRequest::itemType() const 0x0000d0bd   Thumb Code    32  qgalleryqueryrequest.o(.text)
    QtMobility::QGalleryQueryRequest::itemId() const 0x0000d0dd   Thumb Code    32  qgalleryqueryrequest.o(.text)
    QtMobility::QGalleryQueryRequest::isValid() const 0x0000d0fd   Thumb Code    28  qgalleryqueryrequest.o(.text)
    QtMobility::QGalleryQueryRequest::filter() const 0x0000d119   Thumb Code    34  qgalleryqueryrequest.o(.text)
    QtMobility::QGalleryQueryRequest::scope() const 0x0000d13b   Thumb Code    18  qgalleryqueryrequest.o(.text)
    QtMobility::QGalleryQueryRequest::rootItem() const 0x0000d14d   Thumb Code    34  qgalleryqueryrequest.o(.text)
    QtMobility::QGalleryQueryRequest::rootType() const 0x0000d16f   Thumb Code    34  qgalleryqueryrequest.o(.text)
    QtMobility::QGalleryQueryRequest::limit() const 0x0000d191   Thumb Code    18  qgalleryqueryrequest.o(.text)
    QtMobility::QGalleryQueryRequest::offset() const 0x0000d1a3   Thumb Code    18  qgalleryqueryrequest.o(.text)
    QtMobility::QGalleryQueryRequest::autoUpdate() const 0x0000d1b5   Thumb Code    20  qgalleryqueryrequest.o(.text)
    QtMobility::QGalleryQueryRequest::sortPropertyNames() const 0x0000d1c9   Thumb Code    34  qgalleryqueryrequest.o(.text)
    QtMobility::QGalleryQueryRequest::propertyNames() const 0x0000d1eb   Thumb Code    34  qgalleryqueryrequest.o(.text)
    QtMobility::QGalleryQueryRequest::currentItemChanged() 0x0000d20d   Thumb Code    18  qgalleryqueryrequest.o(.text)
    QtMobility::QGalleryQueryRequest::resultSetChanged(QtMobility::QGalleryResultSet*) 0x0000d21f   Thumb Code    32  qgalleryqueryrequest.o(.text)
    QtMobility::QGalleryQueryRequest::qt_metacall(QMetaObject::Call, int, void**) 0x0000d23f   Thumb Code   814  qgalleryqueryrequest.o(.text)
    QtMobility::QGalleryQueryRequest::QGalleryQueryRequest(QObject*) 0x0000d56d   Thumb Code    48  qgalleryqueryrequest.o(.text)
    QtMobility::QGalleryQueryRequest::QGalleryQueryRequest__sub_object(QObject*) 0x0000d56d   Thumb Code     0  qgalleryqueryrequest.o(.text)
    QtMobility::QGalleryQueryRequest::QGalleryQueryRequest(QtMobility::QAbstractGallery*, QObject*) 0x0000d59d   Thumb Code    60  qgalleryqueryrequest.o(.text)
    QtMobility::QGalleryQueryRequest::QGalleryQueryRequest__sub_object(QtMobility::QAbstractGallery*, QObject*) 0x0000d59d   Thumb Code     0  qgalleryqueryrequest.o(.text)
    QtMobility::QGalleryQueryRequest::~QGalleryQueryRequest() 0x0000d5d9   Thumb Code    14  qgalleryqueryrequest.o(.text)
    QtMobility::QGalleryQueryRequest::~QGalleryQueryRequest__sub_object() 0x0000d5d9   Thumb Code     0  qgalleryqueryrequest.o(.text)
    QtMobility::QGalleryQueryRequest::~QGalleryQueryRequest__deallocating() 0x0000d5e7   Thumb Code    22  qgalleryqueryrequest.o(.text)
    QtMobility::QGalleryQueryRequest::resultSet() const 0x0000d5fd   Thumb Code    18  qgalleryqueryrequest.o(.text)
    QtMobility::QGalleryQueryRequest::propertyKey(const QString&) const 0x0000d60f   Thumb Code    32  qgalleryqueryrequest.o(.text)
    QtMobility::QGalleryQueryRequest::propertyAttributes(int) const 0x0000d62f   Thumb Code    36  qgalleryqueryrequest.o(.text)
    QtMobility::QGalleryQueryRequest::propertyType(int) const 0x0000d653   Thumb Code    32  qgalleryqueryrequest.o(.text)
    QtMobility::QGalleryQueryRequest::itemCount() const 0x0000d673   Thumb Code    28  qgalleryqueryrequest.o(.text)
    QtMobility::QGalleryQueryRequest::metaData(int) const 0x0000d68f   Thumb Code    36  qgalleryqueryrequest.o(.text)
    QtMobility::QGalleryQueryRequest::setMetaData(int, const QVariant&) 0x0000d6b3   Thumb Code    36  qgalleryqueryrequest.o(.text)
    QtMobility::QGalleryQueryRequest::metaData(const QString&) const 0x0000d6d7   Thumb Code    62  qgalleryqueryrequest.o(.text)
    QtMobility::QGalleryQueryRequest::setMetaData(const QString&, const QVariant&) 0x0000d715   Thumb Code    66  qgalleryqueryrequest.o(.text)
    QtMobility::QGalleryQueryRequest::next() 0x0000d757   Thumb Code    28  qgalleryqueryrequest.o(.text)
    QtMobility::QGalleryQueryRequest::previous() 0x0000d773   Thumb Code    28  qgalleryqueryrequest.o(.text)
    QtMobility::QGalleryQueryRequest::first() 0x0000d78f   Thumb Code    28  qgalleryqueryrequest.o(.text)
    QtMobility::QGalleryQueryRequest::last() 0x0000d7ab   Thumb Code    28  qgalleryqueryrequest.o(.text)
    QtMobility::QGalleryQueryRequest::setResponse(QtMobility::QGalleryAbstractResponse*) 0x0000d7c7   Thumb Code    88  qgalleryqueryrequest.o(.text)
    QtMobility::QGalleryResource::QGalleryResource() 0x0000d83d   Thumb Code    24  qgalleryresource.o(.text)
    QtMobility::QGalleryResource::QGalleryResource__sub_object() 0x0000d83d   Thumb Code     0  qgalleryresource.o(.text)
    QtMobility::QGalleryResource::QGalleryResource(const QUrl&) 0x0000d855   Thumb Code    28  qgalleryresource.o(.text)
    QtMobility::QGalleryResource::QGalleryResource__sub_object(const QUrl&) 0x0000d855   Thumb Code     0  qgalleryresource.o(.text)
    QtMobility::QGalleryResource::QGalleryResource(const QUrl&, QMap<int, QVariant>) 0x0000d871   Thumb Code    32  qgalleryresource.o(.text)
    QtMobility::QGalleryResource::QGalleryResource__sub_object(const QUrl&, QMap<int, QVariant>) 0x0000d871   Thumb Code     0  qgalleryresource.o(.text)
    QtMobility::QGalleryResource::QGalleryResource(const QtMobility::QGalleryResource&) 0x0000d891   Thumb Code    30  qgalleryresource.o(.text)
    QtMobility::QGalleryResource::QGalleryResource__sub_object(const QtMobility::QGalleryResource&) 0x0000d891   Thumb Code     0  qgalleryresource.o(.text)
    QtMobility::QGalleryResource::~QGalleryResource() 0x0000d8af   Thumb Code    22  qgalleryresource.o(.text)
    QtMobility::QGalleryResource::~QGalleryResource__sub_object() 0x0000d8af   Thumb Code     0  qgalleryresource.o(.text)
    QtMobility::QGalleryResource::operator =(const QtMobility::QGalleryResource&) 0x0000d8c5   Thumb Code    94  qgalleryresource.o(.text)
    QtMobility::QGalleryResource::operator ==(const QtMobility::QGalleryResource&) const 0x0000d923   Thumb Code    38  qgalleryresource.o(.text)
    QtMobility::QGalleryResource::operator !=(const QtMobility::QGalleryResource&) const 0x0000d949   Thumb Code    46  qgalleryresource.o(.text)
    QtMobility::QGalleryResource::url() const 0x0000d977   Thumb Code    18  qgalleryresource.o(.text)
    QtMobility::QGalleryResource::attributes() const 0x0000d989   Thumb Code    18  qgalleryresource.o(.text)
    QtMobility::QGalleryResource::attribute(int) const 0x0000d99b   Thumb Code    18  qgalleryresource.o(.text)
    QtMobility::QGalleryResultSet::getStaticMetaObject() 0x0000d9ad   Thumb Code     4  qgalleryresultset.o(.text)
    QtMobility::QGalleryResultSet::metaObject() const 0x0000d9b1   Thumb Code    28  qgalleryresultset.o(.text)
    QtMobility::QGalleryResultSet::qt_metacast(const char*) 0x0000d9cd   Thumb Code    40  qgalleryresultset.o(.text)
    QtMobility::QGalleryResultSet::metaDataChanged(int, int, const QList<int>&) 0x0000d9f5   Thumb Code    44  qgalleryresultset.o(.text)
    QtMobility::QGalleryResultSet::itemsMoved(int, int, int) 0x0000da21   Thumb Code    44  qgalleryresultset.o(.text)
    QtMobility::QGalleryResultSet::itemsRemoved(int, int) 0x0000da4d   Thumb Code    40  qgalleryresultset.o(.text)
    QtMobility::QGalleryResultSet::itemsInserted(int, int) 0x0000da75   Thumb Code    40  qgalleryresultset.o(.text)
    QtMobility::QGalleryResultSet::currentIndexChanged(int) 0x0000da9d   Thumb Code    32  qgalleryresultset.o(.text)
    QtMobility::QGalleryResultSet::currentItemChanged() 0x0000dabd   Thumb Code    18  qgalleryresultset.o(.text)
    QtMobility::QGalleryResultSet::qt_metacall(QMetaObject::Call, int, void**) 0x0000dacf   Thumb Code   150  qgalleryresultset.o(.text)
    QtMobility::QGalleryResultSet::QGalleryResultSet__sub_object(QObject*) 0x0000db65   Thumb Code   110  qgalleryresultset.o(.text)
    QtMobility::QGalleryResultSet::~QGalleryResultSet() 0x0000dbd3   Thumb Code     0  qgalleryresultset.o(.text)
    QtMobility::QGalleryResultSet::~QGalleryResultSet__sub_object() 0x0000dbd3   Thumb Code    14  qgalleryresultset.o(.text)
    QtMobility::QGalleryResultSet::~QGalleryResultSet__deallocating() 0x0000dbe1   Thumb Code    22  qgalleryresultset.o(.text)
    QtMobility::QGalleryResultSet::isValid() const 0x0000dbf7   Thumb Code    38  qgalleryresultset.o(.text)
    QtMobility::QGalleryResultSet::resources() const 0x0000dc1d   Thumb Code    74  qgalleryresultset.o(.text)
    QtMobility::QGalleryResultSet::fetchNext() 0x0000dc67   Thumb Code    26  qgalleryresultset.o(.text)
    QtMobility::QGalleryResultSet::fetchPrevious() 0x0000dc81   Thumb Code    26  qgalleryresultset.o(.text)
    QtMobility::QGalleryResultSet::fetchFirst() 0x0000dc9b   Thumb Code    16  qgalleryresultset.o(.text)
    QtMobility::QGalleryResultSet::fetchLast() 0x0000dcab   Thumb Code    26  qgalleryresultset.o(.text)
    QtMobility::QGalleryResultSet::QGalleryResultSet__sub_object(QtMobility::QGalleryResultSetPrivate&, QObject*) 0x0000dcc5   Thumb Code    28  qgalleryresultset.o(.text)
    QtMobility::QGalleryTypeRequest::getStaticMetaObject() 0x0000dcfd   Thumb Code     4  qgallerytyperequest.o(.text)
    QtMobility::QGalleryTypeRequest::metaObject() const 0x0000dd01   Thumb Code    28  qgallerytyperequest.o(.text)
    QtMobility::QGalleryTypeRequest::qt_metacast(const char*) 0x0000dd1d   Thumb Code    40  qgallerytyperequest.o(.text)
    QtMobility::QGalleryTypeRequest::itemTypeChanged() 0x0000dd45   Thumb Code    18  qgallerytyperequest.o(.text)
    QtMobility::QGalleryTypeRequest::setItemType(const QString&) 0x0000dd57   Thumb Code    70  qgallerytyperequest.o(.text)
    QtMobility::QGalleryTypeRequest::autoUpdateChanged() 0x0000dd9d   Thumb Code    18  qgallerytyperequest.o(.text)
    QtMobility::QGalleryTypeRequest::setAutoUpdate(bool) 0x0000ddaf   Thumb Code    50  qgallerytyperequest.o(.text)
    QtMobility::QGalleryTypeRequest::propertyNamesChanged() 0x0000dde1   Thumb Code    18  qgallerytyperequest.o(.text)
    QtMobility::QGalleryTypeRequest::setPropertyNames(const QStringList&) 0x0000ddf3   Thumb Code    70  qgallerytyperequest.o(.text)
    QtMobility::QGalleryTypeRequest::isValid() const 0x0000de39   Thumb Code    28  qgallerytyperequest.o(.text)
    QtMobility::QGalleryTypeRequest::itemType() const 0x0000de55   Thumb Code    34  qgallerytyperequest.o(.text)
    QtMobility::QGalleryTypeRequest::autoUpdate() const 0x0000de77   Thumb Code    20  qgallerytyperequest.o(.text)
    QtMobility::QGalleryTypeRequest::propertyNames() const 0x0000de8b   Thumb Code    60  qgallerytyperequest.o(.text)
    QtMobility::QGalleryTypeRequest::metaDataChanged(const QList<int>&) 0x0000dec7   Thumb Code    30  qgallerytyperequest.o(.text)
    QtMobility::QGalleryTypeRequest::typeChanged() 0x0000dee5   Thumb Code    18  qgallerytyperequest.o(.text)
    QtMobility::QGalleryTypeRequest::resultSetChanged(QtMobility::QGalleryResultSet*) 0x0000def7   Thumb Code    32  qgallerytyperequest.o(.text)
    QtMobility::QGalleryTypeRequest::qt_metacall(QMetaObject::Call, int, void**) 0x0000df17   Thumb Code   678  qgallerytyperequest.o(.text)
    QtMobility::QGalleryTypeRequest::QGalleryTypeRequest(QObject*) 0x0000e1bd   Thumb Code    48  qgallerytyperequest.o(.text)
    QtMobility::QGalleryTypeRequest::QGalleryTypeRequest__sub_object(QObject*) 0x0000e1bd   Thumb Code     0  qgallerytyperequest.o(.text)
    QtMobility::QGalleryTypeRequest::QGalleryTypeRequest(QtMobility::QAbstractGallery*, QObject*) 0x0000e1ed   Thumb Code    50  qgallerytyperequest.o(.text)
    QtMobility::QGalleryTypeRequest::QGalleryTypeRequest__sub_object(QtMobility::QAbstractGallery*, QObject*) 0x0000e1ed   Thumb Code     0  qgallerytyperequest.o(.text)
    QtMobility::QGalleryTypeRequest::~QGalleryTypeRequest() 0x0000e21f   Thumb Code    14  qgallerytyperequest.o(.text)
    QtMobility::QGalleryTypeRequest::~QGalleryTypeRequest__sub_object() 0x0000e21f   Thumb Code     0  qgallerytyperequest.o(.text)
    QtMobility::QGalleryTypeRequest::~QGalleryTypeRequest__deallocating() 0x0000e22d   Thumb Code    22  qgallerytyperequest.o(.text)
    QtMobility::QGalleryTypeRequest::resultSet() const 0x0000e243   Thumb Code    18  qgallerytyperequest.o(.text)
    QtMobility::QGalleryTypeRequest::propertyKey(const QString&) const 0x0000e255   Thumb Code    32  qgallerytyperequest.o(.text)
    QtMobility::QGalleryTypeRequest::propertyAttributes(int) const 0x0000e275   Thumb Code    36  qgallerytyperequest.o(.text)
    QtMobility::QGalleryTypeRequest::propertyType(int) const 0x0000e299   Thumb Code    32  qgallerytyperequest.o(.text)
    QtMobility::QGalleryTypeRequest::metaData(int) const 0x0000e2b9   Thumb Code    36  qgallerytyperequest.o(.text)
    QtMobility::QGalleryTypeRequest::metaData(const QString&) const 0x0000e2dd   Thumb Code    62  qgallerytyperequest.o(.text)
    QtMobility::QGalleryTypeRequest::setResponse(QtMobility::QGalleryAbstractResponse*) 0x0000e31b   Thumb Code   632  qgallerytyperequest.o(.text)
    QtMobility::QMDEGalleryResultSet::getStaticMetaObject() 0x0000e595   Thumb Code     4  qmdegalleryresultset.o(.text)
    QtMobility::QMDEGalleryResultSet::metaObject() const 0x0000e599   Thumb Code    28  qmdegalleryresultset.o(.text)
    QtMobility::QMDEGalleryResultSet::qt_metacast(const char*) 0x0000e5b5   Thumb Code    40  qmdegalleryresultset.o(.text)
    QtMobility::QMDEGalleryResultSet::qt_metacall(QMetaObject::Call, int, void**) 0x0000e5dd   Thumb Code    36  qmdegalleryresultset.o(.text)
    QtMobility::QMDEGalleryResultSet::QMDEGalleryResultSet__sub_object(QObject*) 0x0000e601   Thumb Code    78  qmdegalleryresultset.o(.text)
    QtMobility::QMDEGalleryResultSet::~QMDEGalleryResultSet() 0x0000e64f   Thumb Code     0  qmdegalleryresultset.o(.text)
    QtMobility::QMDEGalleryResultSet::~QMDEGalleryResultSet__sub_object() 0x0000e64f   Thumb Code    30  qmdegalleryresultset.o(.text)
    QtMobility::QMDEGalleryResultSet::~QMDEGalleryResultSet__deallocating() 0x0000e66d   Thumb Code    22  qmdegalleryresultset.o(.text)
    QtMobility::QMDEGalleryResultSet::propertyKey(const QString&) const 0x0000e683   Thumb Code    14  qmdegalleryresultset.o(.text)
    QtMobility::QMDEGalleryResultSet::propertyAttributes(int) const 0x0000e691   Thumb Code   150  qmdegalleryresultset.o(.text)
    QtMobility::QMDEGalleryResultSet::propertyType(int) const 0x0000e727   Thumb Code    14  qmdegalleryresultset.o(.text)
    QtMobility::QMDEGalleryResultSet::itemCount() const 0x0000e735   Thumb Code    16  qmdegalleryresultset.o(.text)
    QtMobility::QMDEGalleryResultSet::isValid() const 0x0000e745   Thumb Code    34  qmdegalleryresultset.o(.text)
    QtMobility::QMDEGalleryResultSet::itemId() const 0x0000e767   Thumb Code    52  qmdegalleryresultset.o(.text)
    QtMobility::QMDEGalleryResultSet::itemUrl() const 0x0000e79b   Thumb Code    88  qmdegalleryresultset.o(.text)
    QtMobility::QMDEGalleryResultSet::itemType() const 0x0000e7f3   Thumb Code    64  qmdegalleryresultset.o(.text)
    QtMobility::QMDEGalleryResultSet::resources() const 0x0000e833   Thumb Code   450  qmdegalleryresultset.o(.text)
    QtMobility::QMDEGalleryResultSet::metaData(int) const 0x0000e9f5   Thumb Code   156  qmdegalleryresultset.o(.text)
    QtMobility::QMDEGalleryResultSet::setMetaData(int, const QVariant&) 0x0000ea91   Thumb Code   188  qmdegalleryresultset.o(.text)
    QtMobility::QMDEGalleryResultSet::currentIndex() const 0x0000eb4d   Thumb Code     6  qmdegalleryresultset.o(.text)
    QtMobility::QMDEGalleryResultSet::fetch(int) 0x0000eb53   Thumb Code    74  qmdegalleryresultset.o(.text)
    QtMobility::QDocumentGalleryMDSUtility::QDocumentGalleryMDSUtility() 0x0000eb9d   Thumb Code     2  qgallerymdsutility.o(.text)
    QtMobility::QDocumentGalleryMDSUtility::QDocumentGalleryMDSUtility__sub_object() 0x0000eb9d   Thumb Code     0  qgallerymdsutility.o(.text)
    QtMobility::QDocumentGalleryMDSUtility::~QDocumentGalleryMDSUtility() 0x0000eb9f   Thumb Code     2  qgallerymdsutility.o(.text)
    QtMobility::QDocumentGalleryMDSUtility::~QDocumentGalleryMDSUtility__sub_object() 0x0000eb9f   Thumb Code     0  qgallerymdsutility.o(.text)
    QtMobility::QDocumentGalleryMDSUtility::ObjDefFromItemTypeForMDS25L(CMdENamespaceDef&, QString) 0x0000eba1   Thumb Code   312  qgallerymdsutility.o(.text)
    QtMobility::QDocumentGalleryMDSUtility::ObjDefFromItemTypeL(CMdENamespaceDef&, QString) 0x0000ecd9   Thumb Code    38  qgallerymdsutility.o(.text)
    QtMobility::QDocumentGalleryMDSUtility::GetDataFieldsForItemType(QStringList&, QString) 0x0000ecff   Thumb Code  2424  qgallerymdsutility.o(.text)
    QtMobility::QDocumentGalleryMDSUtility::s60DescToQString(const TDesC16&) 0x0000f677   Thumb Code    36  qgallerymdsutility.o(.text)
    QtMobility::QDocumentGalleryMDSUtility::symbianTTimetoQDateTime(const TTime&) 0x0000f69b   Thumb Code   100  qgallerymdsutility.o(.text)
    QtMobility::QDocumentGalleryMDSUtility::GetPath(const TDesC16&, TPtrC16&) 0x0000f6ff   Thumb Code    66  qgallerymdsutility.o(.text)
    QtMobility::QDocumentGalleryMDSUtility::GetName(const TDesC16&, TPtrC16&) 0x0000f741   Thumb Code   110  qgallerymdsutility.o(.text)
    QtMobility::QDocumentGalleryMDSUtility::GetMetaDataFieldForMDS25L(CMdEObject*, QVariant&, int) 0x0000f7af   Thumb Code  5520  qgallerymdsutility.o(.text)
    QtMobility::QDocumentGalleryMDSUtility::GetMetaDataFieldL(CMdEObject*, QVariant&, int) 0x00010d3f   Thumb Code    32  qgallerymdsutility.o(.text)
    QtMobility::QDocumentGalleryMDSUtility::GetItemTypeFromMDEObject(CMdEObject*) 0x00010d5f   Thumb Code   278  qgallerymdsutility.o(.text)
    QtMobility::QDocumentGalleryMDSUtility::isItemTypeSupported(const QString&) 0x00010e75   Thumb Code   240  qgallerymdsutility.o(.text)
    QtMobility::QDocumentGalleryMDSUtility::GetPropertyKey(const QString&) 0x00010f65   Thumb Code  1620  qgallerymdsutility.o(.text)
    QtMobility::QDocumentGalleryMDSUtility::GetPropertyType(int) 0x000115b9   Thumb Code   250  qgallerymdsutility.o(.text)
    QtMobility::QDocumentGalleryMDSUtility::qStringToS60Desc(const QString&) 0x000116b3   Thumb Code    28  qgallerymdsutility.o(.text)
    QtMobility::QDocumentGalleryMDSUtility::QDateTimetosymbianTTime(const QDateTime&) 0x000116cf   Thumb Code   150  qgallerymdsutility.o(.text)
    QtMobility::QDocumentGalleryMDSUtility::GetMDSPropertyDefForMDS25L(const QString&, CMdENamespaceDef&) 0x00011765   Thumb Code  3168  qgallerymdsutility.o(.text)
    QtMobility::QDocumentGalleryMDSUtility::GetMDSPropertyDefL(const QString&, CMdENamespaceDef&) 0x000123c5   Thumb Code    16  qgallerymdsutility.o(.text)
    QtMobility::QDocumentGalleryMDSUtility::InsertReal32PropertyCondition(CMdELogicCondition&, CMdEPropertyDef*, QVariant&, QtMobility::QGalleryMetaDataFilter&) 0x000123d5   Thumb Code   564  qgallerymdsutility.o(.text)
    QtMobility::QDocumentGalleryMDSUtility::InsertUIntPropertyCondition(CMdELogicCondition&, CMdEPropertyDef*, QVariant&, QtMobility::QGalleryMetaDataFilter&) 0x00012609   Thumb Code   584  qgallerymdsutility.o(.text)
    QtMobility::QDocumentGalleryMDSUtility::InsertStringPropertyCondition(CMdELogicCondition&, CMdEPropertyDef*, QVariant&, QtMobility::QGalleryMetaDataFilter&) 0x00012851   Thumb Code   406  qgallerymdsutility.o(.text)
    QtMobility::QDocumentGalleryMDSUtility::InsertTTImePropertyCondition(CMdELogicCondition&, CMdEPropertyDef*, QVariant&, QtMobility::QGalleryMetaDataFilter&) 0x000129e7   Thumb Code   582  qgallerymdsutility.o(.text)
    QtMobility::QDocumentGalleryMDSUtility::InsertUInt32PropertyCondition(CMdELogicCondition&, CMdEPropertyDef*, QVariant&, QtMobility::QGalleryMetaDataFilter&) 0x00012c2d   Thumb Code   572  qgallerymdsutility.o(.text)
    QtMobility::QDocumentGalleryMDSUtility::InsertUriPropertyCondition(CMdELogicCondition&, QVariant&, QtMobility::QGalleryMetaDataFilter&) 0x00012e69   Thumb Code   264  qgallerymdsutility.o(.text)
    QtMobility::QDocumentGalleryMDSUtility::AddMetadataFilter(CMdELogicCondition&, QtMobility::QGalleryFilter&, CMdENamespaceDef&) 0x00012f71   Thumb Code   390  qgallerymdsutility.o(.text)
    QtMobility::QDocumentGalleryMDSUtility::AddIntersectionFilter(CMdELogicCondition&, QtMobility::QGalleryFilter&, CMdENamespaceDef&) 0x000130f7   Thumb Code   112  qgallerymdsutility.o(.text)
    QtMobility::QDocumentGalleryMDSUtility::AddFilter(CMdELogicCondition&, QtMobility::QGalleryFilter&, CMdENamespaceDef&) 0x00013167   Thumb Code   246  qgallerymdsutility.o(.text)
    QtMobility::QDocumentGalleryMDSUtility::AddUnionFilter(CMdELogicCondition&, QtMobility::QGalleryFilter&, CMdENamespaceDef&) 0x0001325d   Thumb Code   112  qgallerymdsutility.o(.text)
    QtMobility::QDocumentGalleryMDSUtility::SetupQueryConditions(CMdEObjectQuery*, QtMobility::QGalleryQueryRequest*, CMdENamespaceDef&) 0x000132cd   Thumb Code   866  qgallerymdsutility.o(.text)
    QtMobility::QDocumentGalleryMDSUtility::SetMetaDataFieldForMDS25L(CMdEObject*, const QVariant&, int) 0x0001362f   Thumb Code 10592  qgallerymdsutility.o(.text)
    QtMobility::QDocumentGalleryMDSUtility::SetMetaDataFieldL(CMdEObject*, const QVariant&, int) 0x00015f8f   Thumb Code    28  qgallerymdsutility.o(.text)
    QtMobility::QMDEGalleryTypeResultSet::getStaticMetaObject() 0x00015fb1   Thumb Code     4  qmdegallerytyperesultset.o(.text)
    QtMobility::QMDEGalleryTypeResultSet::metaObject() const 0x00015fb5   Thumb Code    28  qmdegallerytyperesultset.o(.text)
    QtMobility::QMDEGalleryTypeResultSet::qt_metacast(const char*) 0x00015fd1   Thumb Code    58  qmdegallerytyperesultset.o(.text)
    QtMobility::QMDEGalleryTypeResultSet::qt_metacall(QMetaObject::Call, int, void**) 0x0001600b   Thumb Code    36  qmdegallerytyperesultset.o(.text)
    QtMobility::QMDEGalleryTypeResultSet::QMDEGalleryTypeResultSet(QtMobility::QMdeSession*, QtMobility::QGalleryTypeRequest*) 0x0001602f   Thumb Code   578  qmdegallerytyperesultset.o(.text)
    QtMobility::QMDEGalleryTypeResultSet::QMDEGalleryTypeResultSet__sub_object(QtMobility::QMdeSession*, QtMobility::QGalleryTypeRequest*) 0x0001602f   Thumb Code     0  qmdegallerytyperesultset.o(.text)
    QtMobility::QMDEGalleryTypeResultSet::~QMDEGalleryTypeResultSet() 0x00016271   Thumb Code    86  qmdegallerytyperesultset.o(.text)
    QtMobility::QMDEGalleryTypeResultSet::~QMDEGalleryTypeResultSet__sub_object() 0x00016271   Thumb Code     0  qmdegallerytyperesultset.o(.text)
    QtMobility::QMDEGalleryTypeResultSet::~QMDEGalleryTypeResultSet__deallocating() 0x000162c7   Thumb Code    22  qmdegallerytyperesultset.o(.text)
    QtMobility::QMDEGalleryTypeResultSet::propertyKey(const QString&) const 0x000162dd   Thumb Code    34  qmdegallerytyperesultset.o(.text)
    QtMobility::QMDEGalleryTypeResultSet::propertyAttributes(int) const 0x000162ff   Thumb Code    32  qmdegallerytyperesultset.o(.text)
    QtMobility::QMDEGalleryTypeResultSet::propertyType(int) const 0x0001631f   Thumb Code    14  qmdegallerytyperesultset.o(.text)
    QtMobility::QMDEGalleryTypeResultSet::itemCount() const 0x0001632d   Thumb Code     6  qmdegallerytyperesultset.o(.text)
    QtMobility::QMDEGalleryTypeResultSet::isValid() const 0x00016333   Thumb Code    20  qmdegallerytyperesultset.o(.text)
    QtMobility::QMDEGalleryTypeResultSet::itemId() const 0x00016347   Thumb Code    62  qmdegallerytyperesultset.o(.text)
    QtMobility::QMDEGalleryTypeResultSet::itemUrl() const 0x00016385   Thumb Code    16  qmdegallerytyperesultset.o(.text)
    QtMobility::QMDEGalleryTypeResultSet::itemType() const 0x00016395   Thumb Code    16  qmdegallerytyperesultset.o(.text)
    QtMobility::QMDEGalleryTypeResultSet::metaData(int) const 0x000163a5   Thumb Code    92  qmdegallerytyperesultset.o(.text)
    QtMobility::QMDEGalleryTypeResultSet::setMetaData(int, const QVariant&) 0x00016401   Thumb Code     6  qmdegallerytyperesultset.o(.text)
    QtMobility::QMDEGalleryTypeResultSet::currentIndex() const 0x00016407   Thumb Code     6  qmdegallerytyperesultset.o(.text)
    QtMobility::QMDEGalleryTypeResultSet::fetch(int) 0x0001640d   Thumb Code    76  qmdegallerytyperesultset.o(.text)
    QtMobility::QMDEGalleryTypeResultSet::cancel() 0x00016459   Thumb Code    30  qmdegallerytyperesultset.o(.text)
    QtMobility::QMDEGalleryTypeResultSet::HandleQueryNewResults(CMdEQuery&, int, int) 0x00016477   Thumb Code     2  qmdegallerytyperesultset.o(.text)
    thunk{-12} to QtMobility::QMDEGalleryTypeResultSet::HandleQueryNewResults(CMdEQuery&, int, int) 0x00016479   Thumb Code    26  qmdegallerytyperesultset.o(.text)
    QtMobility::QMDEGalleryTypeResultSet::HandleQueryCompleted(CMdEQuery&, int) 0x00016493   Thumb Code   118  qmdegallerytyperesultset.o(.text)
    thunk{-12} to QtMobility::QMDEGalleryTypeResultSet::HandleQueryCompleted(CMdEQuery&, int) 0x00016509   Thumb Code    22  qmdegallerytyperesultset.o(.text)
    QtMobility::QMDEGalleryItemResultSet::getStaticMetaObject() 0x00016521   Thumb Code     4  qmdegalleryitemresultset.o(.text)
    QtMobility::QMDEGalleryItemResultSet::metaObject() const 0x00016525   Thumb Code    28  qmdegalleryitemresultset.o(.text)
    QtMobility::QMDEGalleryItemResultSet::qt_metacast(const char*) 0x00016541   Thumb Code    58  qmdegalleryitemresultset.o(.text)
    QtMobility::QMDEGalleryItemResultSet::qt_metacall(QMetaObject::Call, int, void**) 0x0001657b   Thumb Code    36  qmdegalleryitemresultset.o(.text)
    QtMobility::QMDEGalleryItemResultSet::createQuery() 0x0001659f   Thumb Code   248  qmdegalleryitemresultset.o(.text)
    QtMobility::QMDEGalleryItemResultSet::QMDEGalleryItemResultSet(QtMobility::QMdeSession*, QObject*) 0x00016697   Thumb Code    92  qmdegalleryitemresultset.o(.text)
    QtMobility::QMDEGalleryItemResultSet::QMDEGalleryItemResultSet__sub_object(QtMobility::QMdeSession*, QObject*) 0x00016697   Thumb Code     0  qmdegalleryitemresultset.o(.text)
    QtMobility::QMDEGalleryItemResultSet::~QMDEGalleryItemResultSet() 0x000166f3   Thumb Code    62  qmdegalleryitemresultset.o(.text)
    QtMobility::QMDEGalleryItemResultSet::~QMDEGalleryItemResultSet__sub_object() 0x000166f3   Thumb Code     0  qmdegalleryitemresultset.o(.text)
    QtMobility::QMDEGalleryItemResultSet::~QMDEGalleryItemResultSet__deallocating() 0x00016731   Thumb Code    22  qmdegalleryitemresultset.o(.text)
    QtMobility::QMDEGalleryItemResultSet::doHandleObjectNotificationL(CMdESession&, QtMobility::QMDEGalleryItemResultSet::QMdeSessionObserverNotificationType, const RArray<unsigned long>&) 0x00016747   Thumb Code   482  qmdegalleryitemresultset.o(.text)
    QtMobility::QMDEGalleryItemResultSet::HandleObjectNotification(CMdESession&, TObserverNotificationType, const RArray<unsigned long>&) 0x00016929   Thumb Code   188  qmdegalleryitemresultset.o(.text)
    thunk{-64} to QtMobility::QMDEGalleryItemResultSet::HandleObjectNotification(CMdESession&, TObserverNotificationType, const RArray<unsigned long>&) 0x000169e5   Thumb Code    26  qmdegalleryitemresultset.o(.text)
    QtMobility::QMDEGalleryItemResultSet::cleanupResultSet() 0x000169ff   Thumb Code    36  qmdegalleryitemresultset.o(.text)
    QtMobility::QMDEGalleryQueryResultSet::getStaticMetaObject() 0x00016a25   Thumb Code     4  qmdegalleryqueryresultset.o(.text)
    QtMobility::QMDEGalleryQueryResultSet::metaObject() const 0x00016a29   Thumb Code    28  qmdegalleryqueryresultset.o(.text)
    QtMobility::QMDEGalleryQueryResultSet::qt_metacast(const char*) 0x00016a45   Thumb Code    76  qmdegalleryqueryresultset.o(.text)
    QtMobility::QMDEGalleryQueryResultSet::qt_metacall(QMetaObject::Call, int, void**) 0x00016a91   Thumb Code    36  qmdegalleryqueryresultset.o(.text)
    QtMobility::QMDEGalleryQueryResultSet::createQuery() 0x00016ab5   Thumb Code   476  qmdegalleryqueryresultset.o(.text)
    QtMobility::QMDEGalleryQueryResultSet::QMDEGalleryQueryResultSet(QtMobility::QMdeSession*, QObject*) 0x00016c91   Thumb Code   144  qmdegalleryqueryresultset.o(.text)
    QtMobility::QMDEGalleryQueryResultSet::QMDEGalleryQueryResultSet__sub_object(QtMobility::QMdeSession*, QObject*) 0x00016c91   Thumb Code     0  qmdegalleryqueryresultset.o(.text)
    QtMobility::QMDEGalleryQueryResultSet::~QMDEGalleryQueryResultSet() 0x00016d21   Thumb Code   120  qmdegalleryqueryresultset.o(.text)
    QtMobility::QMDEGalleryQueryResultSet::~QMDEGalleryQueryResultSet__sub_object() 0x00016d21   Thumb Code     0  qmdegalleryqueryresultset.o(.text)
    QtMobility::QMDEGalleryQueryResultSet::~QMDEGalleryQueryResultSet__deallocating() 0x00016d99   Thumb Code    22  qmdegalleryqueryresultset.o(.text)
    QtMobility::QMDEGalleryQueryResultSet::HandleQueryNewResults(CMdEQuery&, int, int) 0x00016daf   Thumb Code   264  qmdegalleryqueryresultset.o(.text)
    thunk{-64} to QtMobility::QMDEGalleryQueryResultSet::HandleQueryNewResults(CMdEQuery&, int, int) 0x00016eb7   Thumb Code    26  qmdegalleryqueryresultset.o(.text)
    QtMobility::QMDEGalleryQueryResultSet::handleUpdatedResults() 0x00016ed1   Thumb Code   166  qmdegalleryqueryresultset.o(.text)
    QtMobility::QMDEGalleryQueryResultSet::HandleQueryCompleted(CMdEQuery&, int) 0x00016f77   Thumb Code   218  qmdegalleryqueryresultset.o(.text)
    thunk{-64} to QtMobility::QMDEGalleryQueryResultSet::HandleQueryCompleted(CMdEQuery&, int) 0x00017051   Thumb Code    22  qmdegalleryqueryresultset.o(.text)
    QtMobility::QMDEGalleryQueryResultSet::doHandleObjectNotificationL(CMdESession&, QtMobility::QMDEGalleryQueryResultSet::QMdeSessionObserverQueryNotificationType, const RArray<unsigned long>&) 0x00017067   Thumb Code   738  qmdegalleryqueryresultset.o(.text)
    QtMobility::QMDEGalleryQueryResultSet::HandleObjectNotification(CMdESession&, TObserverNotificationType, const RArray<unsigned long>&) 0x00017349   Thumb Code   258  qmdegalleryqueryresultset.o(.text)
    thunk{-68} to QtMobility::QMDEGalleryQueryResultSet::HandleObjectNotification(CMdESession&, TObserverNotificationType, const RArray<unsigned long>&) 0x0001744b   Thumb Code    26  qmdegalleryqueryresultset.o(.text)
    QtMobility::QMDEGalleryQueryResultSet::cleanupResultSet() 0x00017465   Thumb Code    36  qmdegalleryqueryresultset.o(.text)
    QtMobility::QMDEGalleryQueryResultSet::cancel() 0x00017489   Thumb Code    18  qmdegalleryqueryresultset.o(.text)
    QtMobility::QMDEGalleryCategoryResultSet::getStaticMetaObject() 0x000174a1   Thumb Code     4  qmdegallerycategoryresultset.o(.text)
    QtMobility::QMDEGalleryCategoryResultSet::metaObject() const 0x000174a5   Thumb Code    28  qmdegallerycategoryresultset.o(.text)
    QtMobility::QMDEGalleryCategoryResultSet::qt_metacast(const char*) 0x000174c1   Thumb Code    58  qmdegallerycategoryresultset.o(.text)
    QtMobility::QMDEGalleryCategoryResultSet::qt_metacall(QMetaObject::Call, int, void**) 0x000174fb   Thumb Code    36  qmdegallerycategoryresultset.o(.text)
    QtMobility::QMDEGalleryCategoryResultSet::appendScopeCondition(CMdELogicCondition*, const QVariant&, CMdENamespaceDef&) 0x000176f7   Thumb Code   198  qmdegallerycategoryresultset.o(.text)
    QtMobility::QMDEGalleryCategoryResultSet::createTypeQuery(QScopedPointer<CMdEObjectQuery, QScopedPointerDeleter<CMdEObjectQuery>>*, QtMobility::QMdeSession*, const QString&, MMdEQueryObserver*) 0x00017905   Thumb Code   202  qmdegallerycategoryresultset.o(.text)
    QtMobility::QMDEGalleryCategoryResultSet::isCategoryType(const QString&) 0x000179cf   Thumb Code    24  qmdegallerycategoryresultset.o(.text)
    QtMobility::QMDEGalleryCategoryResultSet::itemIdType(const QString&) 0x000179e7   Thumb Code   108  qmdegallerycategoryresultset.o(.text)
    QtMobility::QMDEGalleryCategoryResultSet::QMDEGalleryCategoryResultSet(QtMobility::QMdeSession*, const QString&, const QStringList&, const QStringList&, const QVariant&, const QtMobility::QGalleryFilter&, int, int, QObject*) 0x0001816d   Thumb Code   890  qmdegallerycategoryresultset.o(.text)
    QtMobility::QMDEGalleryCategoryResultSet::QMDEGalleryCategoryResultSet__sub_object(QtMobility::QMdeSession*, const QString&, const QStringList&, const QStringList&, const QVariant&, const QtMobility::QGalleryFilter&, int, int, QObject*) 0x0001816d   Thumb Code     0  qmdegallerycategoryresultset.o(.text)
    QtMobility::QMDEGalleryCategoryResultSet::~QMDEGalleryCategoryResultSet() 0x000184e7   Thumb Code   134  qmdegallerycategoryresultset.o(.text)
    QtMobility::QMDEGalleryCategoryResultSet::~QMDEGalleryCategoryResultSet__sub_object() 0x000184e7   Thumb Code     0  qmdegallerycategoryresultset.o(.text)
    QtMobility::QMDEGalleryCategoryResultSet::~QMDEGalleryCategoryResultSet__deallocating() 0x0001856d   Thumb Code    22  qmdegallerycategoryresultset.o(.text)
    QtMobility::QMDEGalleryCategoryResultSet::propertyKey(const QString&) const 0x00018583   Thumb Code    20  qmdegallerycategoryresultset.o(.text)
    QtMobility::QMDEGalleryCategoryResultSet::propertyAttributes(int) const 0x00018597   Thumb Code   100  qmdegallerycategoryresultset.o(.text)
    QtMobility::QMDEGalleryCategoryResultSet::propertyType(int) const 0x000185fb   Thumb Code    34  qmdegallerycategoryresultset.o(.text)
    QtMobility::QMDEGalleryCategoryResultSet::itemCount() const 0x0001861d   Thumb Code     6  qmdegallerycategoryresultset.o(.text)
    QtMobility::QMDEGalleryCategoryResultSet::isValid() const 0x00018623   Thumb Code    26  qmdegallerycategoryresultset.o(.text)
    QtMobility::QMDEGalleryCategoryResultSet::itemId() const 0x0001863d   Thumb Code   180  qmdegallerycategoryresultset.o(.text)
    QtMobility::QMDEGalleryCategoryResultSet::itemUrl() const 0x000186f1   Thumb Code    16  qmdegallerycategoryresultset.o(.text)
    QtMobility::QMDEGalleryCategoryResultSet::itemType() const 0x00018701   Thumb Code    62  qmdegallerycategoryresultset.o(.text)
    QtMobility::QMDEGalleryCategoryResultSet::resources() const 0x0001873f   Thumb Code    22  qmdegallerycategoryresultset.o(.text)
    QtMobility::QMDEGalleryCategoryResultSet::metaData(int) const 0x00018755   Thumb Code   122  qmdegallerycategoryresultset.o(.text)
    QtMobility::QMDEGalleryCategoryResultSet::setMetaData(int, const QVariant&) 0x000187cf   Thumb Code     6  qmdegallerycategoryresultset.o(.text)
    QtMobility::QMDEGalleryCategoryResultSet::currentIndex() const 0x000187d5   Thumb Code     6  qmdegallerycategoryresultset.o(.text)
    QtMobility::QMDEGalleryCategoryResultSet::fetch(int) 0x000187db   Thumb Code    86  qmdegallerycategoryresultset.o(.text)
    QtMobility::QMDEGalleryCategoryResultSet::cancel() 0x00018831   Thumb Code    30  qmdegallerycategoryresultset.o(.text)
    QtMobility::QMDEGalleryCategoryResultSet::HandleQueryNewResults(CMdEQuery&, int, int) 0x0001884f   Thumb Code   114  qmdegallerycategoryresultset.o(.text)
    thunk{-12} to QtMobility::QMDEGalleryCategoryResultSet::HandleQueryNewResults(CMdEQuery&, int, int) 0x000188c1   Thumb Code    26  qmdegallerycategoryresultset.o(.text)
    QtMobility::QMDEGalleryCategoryResultSet::HandleQueryCompleted(CMdEQuery&, int) 0x000188db   Thumb Code    68  qmdegallerycategoryresultset.o(.text)
    thunk{-12} to QtMobility::QMDEGalleryCategoryResultSet::HandleQueryCompleted(CMdEQuery&, int) 0x0001891f   Thumb Code    22  qmdegallerycategoryresultset.o(.text)
    QtMobility::QMdeSession::getStaticMetaObject() 0x000189ad   Thumb Code     4  qmdesession.o(.text)
    QtMobility::QMdeSession::metaObject() const 0x000189b1   Thumb Code    28  qmdesession.o(.text)
    QtMobility::QMdeSession::qt_metacast(const char*) 0x000189cd   Thumb Code    58  qmdesession.o(.text)
    QtMobility::QMdeSession::qt_metacall(QMetaObject::Call, int, void**) 0x00018a07   Thumb Code    36  qmdesession.o(.text)
    QtMobility::QMdeSession::QMdeSession(QObject*) 0x00018a2b   Thumb Code   142  qmdesession.o(.text)
    QtMobility::QMdeSession::QMdeSession__sub_object(QObject*) 0x00018a2b   Thumb Code     0  qmdesession.o(.text)
    QtMobility::QMdeSession::~QMdeSession()  0x00018ab9   Thumb Code   136  qmdesession.o(.text)
    QtMobility::QMdeSession::~QMdeSession__sub_object() 0x00018ab9   Thumb Code     0  qmdesession.o(.text)
    QtMobility::QMdeSession::~QMdeSession__deallocating() 0x00018b41   Thumb Code    22  qmdesession.o(.text)
    QtMobility::QMdeSession::HandleSessionOpened(CMdESession&, int) 0x00018b57   Thumb Code    18  qmdesession.o(.text)
    thunk{-8} to QtMobility::QMdeSession::HandleSessionOpened(CMdESession&, int) 0x00018b69   Thumb Code    22  qmdesession.o(.text)
    QtMobility::QMdeSession::HandleSessionError(CMdESession&, int) 0x00018b7f   Thumb Code    18  qmdesession.o(.text)
    thunk{-8} to QtMobility::QMdeSession::HandleSessionError(CMdESession&, int) 0x00018b91   Thumb Code    22  qmdesession.o(.text)
    QtMobility::QMdeSession::GetDefaultNamespaceDefL() 0x00018ba7   Thumb Code    16  qmdesession.o(.text)
    QtMobility::QMdeSession::GetFullObjectL(unsigned) 0x00018bb7   Thumb Code    32  qmdesession.o(.text)
    QtMobility::QMdeSession::CommitObjectL(CMdEObject&) 0x00018bd7   Thumb Code    28  qmdesession.o(.text)
    QtMobility::QMdeSession::NewObjectQueryL(MMdEQueryObserver*, QtMobility::QGalleryQueryRequest*, int&) 0x00018bf3   Thumb Code   486  qmdesession.o(.text)
    QtMobility::QMdeSession::NewObjectQuery(CMdENamespaceDef&, CMdEObjectDef&, MMdEQueryObserver*) 0x00018dd9   Thumb Code    94  qmdesession.o(.text)
    QtMobility::QMdeSession::RemoveObject(unsigned) 0x00018e37   Thumb Code   108  qmdesession.o(.text)
    QtMobility::QMdeSession::AddItemAddedObserverL(MMdEObjectObserver&, CMdELogicCondition&) 0x00018ea3   Thumb Code    50  qmdesession.o(.text)
    QtMobility::QMdeSession::AddItemChangedObserverL(MMdEObjectObserver&, RArray<unsigned long>&) 0x00018ed5   Thumb Code    68  qmdesession.o(.text)
    QtMobility::QMdeSession::RemoveObjectObserver(MMdEObjectObserver&) 0x00018f19   Thumb Code    76  qmdesession.o(.text)
    QtMobility::QMdeSession::AddTrackedResultSet(QtMobility::QMDEGalleryResultSet*) 0x00018f65   Thumb Code    20  qmdesession.o(.text)
    QtMobility::QMdeSession::RemoveTrackedResultSet(QtMobility::QMDEGalleryResultSet*) 0x00018f79   Thumb Code    68  qmdesession.o(.text)
    QtMobility::QDocumentGallery::getStaticMetaObject() 0x00018fbd   Thumb Code     4  qdocumentgallery_symbian.o(.text)
    QtMobility::QDocumentGallery::metaObject() const 0x00018fc1   Thumb Code    28  qdocumentgallery_symbian.o(.text)
    QtMobility::QDocumentGallery::qt_metacast(const char*) 0x00018fdd   Thumb Code    40  qdocumentgallery_symbian.o(.text)
    QtMobility::QDocumentGallery::qt_metacall(QMetaObject::Call, int, void**) 0x00019005   Thumb Code    36  qdocumentgallery_symbian.o(.text)
    QtMobility::QDocumentGallery::QDocumentGallery(QObject*) 0x00019029   Thumb Code   102  qdocumentgallery_symbian.o(.text)
    QtMobility::QDocumentGallery::QDocumentGallery__sub_object(QObject*) 0x00019029   Thumb Code     0  qdocumentgallery_symbian.o(.text)
    QtMobility::QDocumentGallery::~QDocumentGallery() 0x0001908f   Thumb Code    14  qdocumentgallery_symbian.o(.text)
    QtMobility::QDocumentGallery::~QDocumentGallery__sub_object() 0x0001908f   Thumb Code     0  qdocumentgallery_symbian.o(.text)
    QtMobility::QDocumentGallery::~QDocumentGallery__deallocating() 0x0001909d   Thumb Code    22  qdocumentgallery_symbian.o(.text)
    QtMobility::QDocumentGallery::isRequestSupported(QtMobility::QGalleryAbstractRequest::RequestType) const 0x000190b3   Thumb Code    28  qdocumentgallery_symbian.o(.text)
    QtMobility::QDocumentGallery::itemTypePropertyNames(const QString&) const 0x000190cf   Thumb Code    50  qdocumentgallery_symbian.o(.text)
    QtMobility::QDocumentGallery::propertyAttributes(const QString&, const QString&) const 0x00019101   Thumb Code   398  qdocumentgallery_symbian.o(.text)
    QtMobility::QDocumentGalleryPrivate::createQueryResponse(QtMobility::QGalleryQueryRequest*) 0x0001928f   Thumb Code   330  qdocumentgallery_symbian.o(.text)
    QtMobility::QDocumentGalleryPrivate::createTypeResponse(QtMobility::QGalleryTypeRequest*) 0x000193d9   Thumb Code    50  qdocumentgallery_symbian.o(.text)
    QtMobility::QDocumentGalleryPrivate::createItemResponse(QtMobility::QGalleryItemRequest*) 0x0001940b   Thumb Code   298  qdocumentgallery_symbian.o(.text)
    QtMobility::QDocumentGallery::createResponse(QtMobility::QGalleryAbstractRequest*) 0x00019535   Thumb Code    74  qdocumentgallery_symbian.o(.text)
    __ARM_switch8                            0x00019580   ARM Code      24  switch8.o(.text)
    __rt_switch8                             0x00019580   ARM Code       0  switch8.o(.text)
    _E32Dll_Body                             0x00019598   ARM Code      76  uc_dll.o(.text)
    __DLL_Export_Table__                     0x000195e8   ARM Code       4  dllexp.o(.text)
    QByteArray::~QByteArray()                0x0001ac7b   Thumb Code    24  qgalleryfilter.o(i._ZN10QByteArrayD1Ev)
    QByteArray::~QByteArray__sub_object()    0x0001ac7b   Thumb Code     0  qgalleryfilter.o(i._ZN10QByteArrayD1Ev)
    QStringRef::~QStringRef()                0x0001ac93   Thumb Code     2  qmdegallerycategoryresultset.o(i._ZN10QStringRefD1Ev)
    QStringRef::~QStringRef__sub_object()    0x0001ac93   Thumb Code     0  qmdegallerycategoryresultset.o(i._ZN10QStringRefD1Ev)
    QtMobility::QGalleryFilterPrivate::QGalleryFilterPrivate__sub_object(QtMobility::QGalleryFilter::Type) 0x0001ac95   Thumb Code    20  qgalleryfilter.o(i._ZN10QtMobility21QGalleryFilterPrivateC2ENS_14QGalleryFilter4TypeE)
    QtMobility::QGalleryFilterPrivate::QGalleryFilterPrivate__sub_object(const QtMobility::QGalleryFilterPrivate&) 0x0001acad   Thumb Code    36  qgalleryfilter.o(i._ZN10QtMobility21QGalleryFilterPrivateC2ERKS0_)
    QtMobility::QGalleryFilterPrivate::~QGalleryFilterPrivate__deallocating() 0x0001acd5   Thumb Code    18  qgalleryfilter.o(i._ZN10QtMobility21QGalleryFilterPrivateD0Ev)
    QtMobility::QGalleryFilterPrivate::~QGalleryFilterPrivate() 0x0001ace7   Thumb Code     0  qgalleryfilter.o(i._ZN10QtMobility21QGalleryFilterPrivateD2Ev)
    QtMobility::QGalleryFilterPrivate::~QGalleryFilterPrivate__sub_object() 0x0001ace7   Thumb Code     2  qgalleryfilter.o(i._ZN10QtMobility21QGalleryFilterPrivateD2Ev)
    QtMobility::QGalleryNullResultSet::setMetaData(int, const QVariant&) 0x0001ace9   Thumb Code     6  qgalleryitemrequest.o(i._ZN10QtMobility21QGalleryNullResultSet11setMetaDataEiRK8QVariant)
    QtMobility::QGalleryNullResultSet::fetch(int) 0x0001acef   Thumb Code     6  qgalleryitemrequest.o(i._ZN10QtMobility21QGalleryNullResultSet5fetchEi)
    QtMobility::QGalleryNullResultSet::~QGalleryNullResultSet__deallocating() 0x0001acf5   Thumb Code    22  qgalleryitemrequest.o(i._ZN10QtMobility21QGalleryNullResultSetD0Ev)
    QtMobility::QGalleryNullResultSet::~QGalleryNullResultSet() 0x0001ad0b   Thumb Code    14  qgalleryitemrequest.o(i._ZN10QtMobility21QGalleryNullResultSetD1Ev)
    QtMobility::QGalleryNullResultSet::~QGalleryNullResultSet__sub_object() 0x0001ad0b   Thumb Code     0  qgalleryitemrequest.o(i._ZN10QtMobility21QGalleryNullResultSetD1Ev)
    QtMobility::QAbstractGalleryPrivate::~QAbstractGalleryPrivate__deallocating() 0x0001ad19   Thumb Code    18  qdocumentgallery_symbian.o(i._ZN10QtMobility23QAbstractGalleryPrivateD0Ev)
    QtMobility::QAbstractGalleryPrivate::~QAbstractGalleryPrivate() 0x0001ad2b   Thumb Code     2  qdocumentgallery_symbian.o(i._ZN10QtMobility23QAbstractGalleryPrivateD1Ev)
    QtMobility::QAbstractGalleryPrivate::~QAbstractGalleryPrivate__sub_object() 0x0001ad2b   Thumb Code     0  qdocumentgallery_symbian.o(i._ZN10QtMobility23QAbstractGalleryPrivateD1Ev)
    QtMobility::QDocumentGalleryPrivate::~QDocumentGalleryPrivate__deallocating() 0x0001ad2d   Thumb Code    18  qdocumentgallery_symbian.o(i._ZN10QtMobility23QDocumentGalleryPrivateD0Ev)
    QtMobility::QDocumentGalleryPrivate::~QDocumentGalleryPrivate() 0x0001ad3f   Thumb Code     2  qdocumentgallery_symbian.o(i._ZN10QtMobility23QDocumentGalleryPrivateD1Ev)
    QtMobility::QDocumentGalleryPrivate::~QDocumentGalleryPrivate__sub_object() 0x0001ad3f   Thumb Code     0  qdocumentgallery_symbian.o(i._ZN10QtMobility23QDocumentGalleryPrivateD1Ev)
    QtMobility::QGalleryAbstractRequest::tr(const char*, const char*) 0x0001ad41   Thumb Code    22  qgalleryabstractrequest.o(i._ZN10QtMobility23QGalleryAbstractRequest2trEPKcS2_)
    QtMobility::QGalleryResultSetPrivate::~QGalleryResultSetPrivate__deallocating() 0x0001ad5d   Thumb Code    28  qgalleryresultset.o(i._ZN10QtMobility24QGalleryResultSetPrivateD0Ev)
    QtMobility::QGalleryResultSetPrivate::~QGalleryResultSetPrivate() 0x0001ad79   Thumb Code    14  qgalleryresultset.o(i._ZN10QtMobility24QGalleryResultSetPrivateD1Ev)
    QtMobility::QGalleryResultSetPrivate::~QGalleryResultSetPrivate__sub_object() 0x0001ad79   Thumb Code     0  qgalleryresultset.o(i._ZN10QtMobility24QGalleryResultSetPrivateD1Ev)
    QtMobility::QGalleryQueryModelPrivate::setObject(QtMobility::QGalleryQueryModel*) 0x0001ad89   Thumb Code   656  qgalleryquerymodel.o(i._ZN10QtMobility25QGalleryQueryModelPrivate9setObjectEPNS_18QGalleryQueryModelE)
    QtMobility::QGalleryQueryModelPrivate::QGalleryQueryModelPrivate(QtMobility::QAbstractGallery*) 0x0001b019   Thumb Code   114  qgalleryquerymodel.o(i._ZN10QtMobility25QGalleryQueryModelPrivateC1EPNS_16QAbstractGalleryE)
    QtMobility::QGalleryQueryModelPrivate::QGalleryQueryModelPrivate__sub_object(QtMobility::QAbstractGallery*) 0x0001b019   Thumb Code     0  qgalleryquerymodel.o(i._ZN10QtMobility25QGalleryQueryModelPrivateC1EPNS_16QAbstractGalleryE)
    QtMobility::QGalleryItemRequestPrivate::QGalleryItemRequestPrivate(QtMobility::QAbstractGallery*) 0x0001b0cd   Thumb Code   176  qgalleryitemrequest.o(i._ZN10QtMobility26QGalleryItemRequestPrivateC1EPNS_16QAbstractGalleryE)
    QtMobility::QGalleryItemRequestPrivate::QGalleryItemRequestPrivate__sub_object(QtMobility::QAbstractGallery*) 0x0001b0cd   Thumb Code     0  qgalleryitemrequest.o(i._ZN10QtMobility26QGalleryItemRequestPrivateC1EPNS_16QAbstractGalleryE)
    QtMobility::QGalleryItemRequestPrivate::~QGalleryItemRequestPrivate__deallocating() 0x0001b1d3   Thumb Code    22  qgalleryitemrequest.o(i._ZN10QtMobility26QGalleryItemRequestPrivateD0Ev)
    QtMobility::QGalleryItemRequestPrivate::~QGalleryItemRequestPrivate() 0x0001b1e9   Thumb Code    66  qgalleryitemrequest.o(i._ZN10QtMobility26QGalleryItemRequestPrivateD1Ev)
    QtMobility::QGalleryItemRequestPrivate::~QGalleryItemRequestPrivate__sub_object() 0x0001b1e9   Thumb Code     0  qgalleryitemrequest.o(i._ZN10QtMobility26QGalleryItemRequestPrivateD1Ev)
    QtMobility::QGalleryTypeRequestPrivate::QGalleryTypeRequestPrivate(QtMobility::QAbstractGallery*) 0x0001b261   Thumb Code   176  qgallerytyperequest.o(i._ZN10QtMobility26QGalleryTypeRequestPrivateC1EPNS_16QAbstractGalleryE)
    QtMobility::QGalleryTypeRequestPrivate::QGalleryTypeRequestPrivate__sub_object(QtMobility::QAbstractGallery*) 0x0001b261   Thumb Code     0  qgallerytyperequest.o(i._ZN10QtMobility26QGalleryTypeRequestPrivateC1EPNS_16QAbstractGalleryE)
    QtMobility::QGalleryTypeRequestPrivate::~QGalleryTypeRequestPrivate__deallocating() 0x0001b367   Thumb Code    22  qgallerytyperequest.o(i._ZN10QtMobility26QGalleryTypeRequestPrivateD0Ev)
    QtMobility::QGalleryTypeRequestPrivate::~QGalleryTypeRequestPrivate() 0x0001b37d   Thumb Code    66  qgallerytyperequest.o(i._ZN10QtMobility26QGalleryTypeRequestPrivateD1Ev)
    QtMobility::QGalleryTypeRequestPrivate::~QGalleryTypeRequestPrivate__sub_object() 0x0001b37d   Thumb Code     0  qgallerytyperequest.o(i._ZN10QtMobility26QGalleryTypeRequestPrivateD1Ev)
    QtMobility::QGalleryUnionFilterPrivate::QGalleryUnionFilterPrivate(QtMobility::QGalleryFilter::Type) 0x0001b3f5   Thumb Code    36  qgalleryfilter.o(i._ZN10QtMobility26QGalleryUnionFilterPrivateC1ENS_14QGalleryFilter4TypeE)
    QtMobility::QGalleryUnionFilterPrivate::QGalleryUnionFilterPrivate__sub_object(QtMobility::QGalleryFilter::Type) 0x0001b3f5   Thumb Code     0  qgalleryfilter.o(i._ZN10QtMobility26QGalleryUnionFilterPrivateC1ENS_14QGalleryFilter4TypeE)
    QtMobility::QGalleryUnionFilterPrivate::~QGalleryUnionFilterPrivate__deallocating() 0x0001b427   Thumb Code    22  qgalleryfilter.o(i._ZN10QtMobility26QGalleryUnionFilterPrivateD0Ev)
    QtMobility::QGalleryUnionFilterPrivate::~QGalleryUnionFilterPrivate() 0x0001b43d   Thumb Code    24  qgalleryfilter.o(i._ZN10QtMobility26QGalleryUnionFilterPrivateD1Ev)
    QtMobility::QGalleryUnionFilterPrivate::~QGalleryUnionFilterPrivate__sub_object() 0x0001b43d   Thumb Code     0  qgalleryfilter.o(i._ZN10QtMobility26QGalleryUnionFilterPrivateD1Ev)
    QtMobility::QGalleryQueryRequestPrivate::QGalleryQueryRequestPrivate(QtMobility::QAbstractGallery*) 0x0001b465   Thumb Code   196  qgalleryqueryrequest.o(i._ZN10QtMobility27QGalleryQueryRequestPrivateC1EPNS_16QAbstractGalleryE)
    QtMobility::QGalleryQueryRequestPrivate::QGalleryQueryRequestPrivate__sub_object(QtMobility::QAbstractGallery*) 0x0001b465   Thumb Code     0  qgalleryqueryrequest.o(i._ZN10QtMobility27QGalleryQueryRequestPrivateC1EPNS_16QAbstractGalleryE)
    QtMobility::QGalleryQueryRequestPrivate::~QGalleryQueryRequestPrivate__deallocating() 0x0001b593   Thumb Code    22  qgalleryqueryrequest.o(i._ZN10QtMobility27QGalleryQueryRequestPrivateD0Ev)
    QtMobility::QGalleryQueryRequestPrivate::~QGalleryQueryRequestPrivate() 0x0001b5a9   Thumb Code    90  qgalleryqueryrequest.o(i._ZN10QtMobility27QGalleryQueryRequestPrivateD1Ev)
    QtMobility::QGalleryQueryRequestPrivate::~QGalleryQueryRequestPrivate__sub_object() 0x0001b5a9   Thumb Code     0  qgalleryqueryrequest.o(i._ZN10QtMobility27QGalleryQueryRequestPrivateD1Ev)
    QtMobility::QGalleryInvalidFilterPrivate::~QGalleryInvalidFilterPrivate__deallocating() 0x0001b64f   Thumb Code    18  qgalleryfilter.o(i._ZN10QtMobility28QGalleryInvalidFilterPrivateD0Ev)
    QtMobility::QGalleryInvalidFilterPrivate::~QGalleryInvalidFilterPrivate() 0x0001b661   Thumb Code     2  qgalleryfilter.o(i._ZN10QtMobility28QGalleryInvalidFilterPrivateD1Ev)
    QtMobility::QGalleryInvalidFilterPrivate::~QGalleryInvalidFilterPrivate__sub_object() 0x0001b661   Thumb Code     0  qgalleryfilter.o(i._ZN10QtMobility28QGalleryInvalidFilterPrivateD1Ev)
    QtMobility::QGalleryMetaDataFilterPrivate::QGalleryMetaDataFilterPrivate(QtMobility::QGalleryFilter::Type) 0x0001b665   Thumb Code    94  qgalleryfilter.o(i._ZN10QtMobility29QGalleryMetaDataFilterPrivateC1ENS_14QGalleryFilter4TypeE)
    QtMobility::QGalleryMetaDataFilterPrivate::QGalleryMetaDataFilterPrivate__sub_object(QtMobility::QGalleryFilter::Type) 0x0001b665   Thumb Code     0  qgalleryfilter.o(i._ZN10QtMobility29QGalleryMetaDataFilterPrivateC1ENS_14QGalleryFilter4TypeE)
    QtMobility::QGalleryMetaDataFilterPrivate::~QGalleryMetaDataFilterPrivate__deallocating() 0x0001b6d7   Thumb Code    22  qgalleryfilter.o(i._ZN10QtMobility29QGalleryMetaDataFilterPrivateD0Ev)
    QtMobility::QGalleryMetaDataFilterPrivate::~QGalleryMetaDataFilterPrivate() 0x0001b6ed   Thumb Code    36  qgalleryfilter.o(i._ZN10QtMobility29QGalleryMetaDataFilterPrivateD1Ev)
    QtMobility::QGalleryMetaDataFilterPrivate::~QGalleryMetaDataFilterPrivate__sub_object() 0x0001b6ed   Thumb Code     0  qgalleryfilter.o(i._ZN10QtMobility29QGalleryMetaDataFilterPrivateD1Ev)
    QtMobility::QGalleryAbstractRequestPrivate::QGalleryAbstractRequestPrivate(QtMobility::QAbstractGallery*, QtMobility::QGalleryAbstractRequest::RequestType) 0x0001b72d   Thumb Code    70  qgalleryabstractrequest.o(i._ZN10QtMobility30QGalleryAbstractRequestPrivateC1EPNS_16QAbstractGalleryENS_23QGalleryAbstractRequest11RequestTypeE)
    QtMobility::QGalleryAbstractRequestPrivate::QGalleryAbstractRequestPrivate__sub_object(QtMobility::QAbstractGallery*, QtMobility::QGalleryAbstractRequest::RequestType) 0x0001b72d   Thumb Code     0  qgalleryabstractrequest.o(i._ZN10QtMobility30QGalleryAbstractRequestPrivateC1EPNS_16QAbstractGalleryENS_23QGalleryAbstractRequest11RequestTypeE)
    QtMobility::QGalleryAbstractRequestPrivate::~QGalleryAbstractRequestPrivate__deallocating() 0x0001b791   Thumb Code    22  qgalleryabstractrequest.o(i._ZN10QtMobility30QGalleryAbstractRequestPrivateD0Ev)
    QtMobility::QGalleryAbstractRequestPrivate::~QGalleryAbstractRequestPrivate() 0x0001b7a9   Thumb Code    48  qgalleryabstractrequest.o(i._ZN10QtMobility30QGalleryAbstractRequestPrivateD1Ev)
    QtMobility::QGalleryAbstractRequestPrivate::~QGalleryAbstractRequestPrivate__sub_object() 0x0001b7a9   Thumb Code     0  qgalleryabstractrequest.o(i._ZN10QtMobility30QGalleryAbstractRequestPrivateD1Ev)
    QtMobility::QGalleryAbstractResponsePrivate::QGalleryAbstractResponsePrivate() 0x0001b7f5   Thumb Code    42  qgalleryabstractresponse.o(i._ZN10QtMobility31QGalleryAbstractResponsePrivateC1Ev)
    QtMobility::QGalleryAbstractResponsePrivate::QGalleryAbstractResponsePrivate__sub_object() 0x0001b7f5   Thumb Code     0  qgalleryabstractresponse.o(i._ZN10QtMobility31QGalleryAbstractResponsePrivateC1Ev)
    QtMobility::QGalleryAbstractResponsePrivate::~QGalleryAbstractResponsePrivate__deallocating() 0x0001b829   Thumb Code    22  qgalleryabstractresponse.o(i._ZN10QtMobility31QGalleryAbstractResponsePrivateD0Ev)
    QtMobility::QGalleryAbstractResponsePrivate::~QGalleryAbstractResponsePrivate() 0x0001b841   Thumb Code    24  qgalleryabstractresponse.o(i._ZN10QtMobility31QGalleryAbstractResponsePrivateD1Ev)
    QtMobility::QGalleryAbstractResponsePrivate::~QGalleryAbstractResponsePrivate__sub_object() 0x0001b841   Thumb Code     0  qgalleryabstractresponse.o(i._ZN10QtMobility31QGalleryAbstractResponsePrivateD1Ev)
    QtMobility::QGalleryIntersectionFilterPrivate::QGalleryIntersectionFilterPrivate(QtMobility::QGalleryFilter::Type) 0x0001b85d   Thumb Code    36  qgalleryfilter.o(i._ZN10QtMobility33QGalleryIntersectionFilterPrivateC1ENS_14QGalleryFilter4TypeE)
    QtMobility::QGalleryIntersectionFilterPrivate::QGalleryIntersectionFilterPrivate__sub_object(QtMobility::QGalleryFilter::Type) 0x0001b85d   Thumb Code     0  qgalleryfilter.o(i._ZN10QtMobility33QGalleryIntersectionFilterPrivateC1ENS_14QGalleryFilter4TypeE)
    QtMobility::QGalleryIntersectionFilterPrivate::~QGalleryIntersectionFilterPrivate__deallocating() 0x0001b88f   Thumb Code    22  qgalleryfilter.o(i._ZN10QtMobility33QGalleryIntersectionFilterPrivateD0Ev)
    QtMobility::QGalleryIntersectionFilterPrivate::~QGalleryIntersectionFilterPrivate() 0x0001b8a5   Thumb Code    24  qgalleryfilter.o(i._ZN10QtMobility33QGalleryIntersectionFilterPrivateD1Ev)
    QtMobility::QGalleryIntersectionFilterPrivate::~QGalleryIntersectionFilterPrivate__sub_object() 0x0001b8a5   Thumb Code     0  qgalleryfilter.o(i._ZN10QtMobility33QGalleryIntersectionFilterPrivateD1Ev)
    QModelIndex::QModelIndex()               0x0001b8cb   Thumb Code    16  qgalleryquerymodel.o(i._ZN11QModelIndexC1Ev)
    QModelIndex::QModelIndex__sub_object()   0x0001b8cb   Thumb Code     0  qgalleryquerymodel.o(i._ZN11QModelIndexC1Ev)
    QModelIndex::~QModelIndex()              0x0001b8db   Thumb Code     8  qgalleryquerymodel.o(i._ZN11QModelIndexD1Ev)
    QModelIndex::~QModelIndex__sub_object()  0x0001b8db   Thumb Code     0  qgalleryquerymodel.o(i._ZN11QModelIndexD1Ev)
    QStringList::QStringList(const QStringList&) 0x0001b8e3   Thumb Code    38  qgalleryqueryrequest.o(i._ZN11QStringListC1ERKS_)
    QStringList::QStringList__sub_object(const QStringList&) 0x0001b8e3   Thumb Code     0  qgalleryqueryrequest.o(i._ZN11QStringListC1ERKS_)
    QStringList::QStringList()               0x0001b909   Thumb Code    20  qgalleryqueryrequest.o(i._ZN11QStringListC1Ev)
    QStringList::QStringList__sub_object()   0x0001b909   Thumb Code     0  qgalleryqueryrequest.o(i._ZN11QStringListC1Ev)
    QStringList::~QStringList()              0x0001b921   Thumb Code    14  qgalleryitemrequest.o(i._ZN11QStringListD1Ev)
    QStringList::~QStringList__sub_object()  0x0001b921   Thumb Code     0  qgalleryitemrequest.o(i._ZN11QStringListD1Ev)
    QStringList::operator =(const QStringList&) 0x0001b92f   Thumb Code    66  qgalleryitemrequest.o(i._ZN11QStringListaSERKS_)
    QBasicAtomicInt::ref()                   0x0001b971   Thumb Code    24  qgalleryabstractrequest.o(i._ZN15QBasicAtomicInt3refEv)
    QBasicAtomicInt::deref()                 0x0001b989   Thumb Code    24  qgalleryabstractrequest.o(i._ZN15QBasicAtomicInt5derefEv)
    QDebug::maybeSpace()                     0x0001b9a1   Thumb Code    24  qgalleryfilter.o(i._ZN6QDebug10maybeSpaceEv)
    QDebug::QDebug(const QDebug&)            0x0001b9b9   Thumb Code    16  qgalleryfilter.o(i._ZN6QDebugC1ERKS_)
    QDebug::QDebug__sub_object(const QDebug&) 0x0001b9b9   Thumb Code     0  qgalleryfilter.o(i._ZN6QDebugC1ERKS_)
    QDebug::~QDebug()                        0x0001b9c9   Thumb Code   154  qgalleryfilter.o(i._ZN6QDebugD1Ev)
    QDebug::~QDebug__sub_object()            0x0001b9c9   Thumb Code     0  qgalleryfilter.o(i._ZN6QDebugD1Ev)
    QDebug::operator <<(const char*)         0x0001ba77   Thumb Code    44  qgalleryfilter.o(i._ZN6QDebuglsEPKc)
    QString::QString(const QString&)         0x0001baad   Thumb Code    22  qgalleryfilter.o(i._ZN7QStringC1ERKS_)
    QString::QString__sub_object(const QString&) 0x0001baad   Thumb Code     0  qgalleryfilter.o(i._ZN7QStringC1ERKS_)
    QString::QString()                       0x0001bac5   Thumb Code    18  qgalleryabstractrequest.o(i._ZN7QStringC1Ev)
    QString::QString__sub_object()           0x0001bac5   Thumb Code     0  qgalleryabstractrequest.o(i._ZN7QStringC1Ev)
    QString::~QString()                      0x0001badd   Thumb Code    24  qgalleryabstractrequest.o(i._ZN7QStringD1Ev)
    QString::~QString__sub_object()          0x0001badd   Thumb Code     0  qgalleryabstractrequest.o(i._ZN7QStringD1Ev)
    TPtrC16::Set(const TPtrC16&)             0x0001baf5   Thumb Code    30  qgallerymdsutility.o(i._ZN7TPtrC163SetERKS_)
    QVariant::QVariant()                     0x0001bb13   Thumb Code    38  qgalleryitemrequest.o(i._ZN8QVariantC1Ev)
    QVariant::QVariant__sub_object()         0x0001bb13   Thumb Code     0  qgalleryitemrequest.o(i._ZN8QVariantC1Ev)
    QHashData::willGrow()                    0x0001bb39   Thumb Code    32  qgalleryquerymodel.o(i._ZN9QHashData8willGrowEv)
    QtMobility::QGalleryType::name() const   0x0001bb59   Thumb Code    18  qgallerymdsutility.o(i._ZNK10QtMobility12QGalleryType4nameEv)
    QtMobility::QGalleryProperty::name() const 0x0001bb6b   Thumb Code    18  qgallerymdsutility.o(i._ZNK10QtMobility16QGalleryProperty4nameEv)
    QtMobility::QGalleryNullResultSet::propertyKey(const QString&) const 0x0001bb7d   Thumb Code     8  qgalleryitemrequest.o(i._ZNK10QtMobility21QGalleryNullResultSet11propertyKeyERK7QString)
    QtMobility::QGalleryNullResultSet::currentIndex() const 0x0001bb85   Thumb Code     8  qgalleryitemrequest.o(i._ZNK10QtMobility21QGalleryNullResultSet12currentIndexEv)
    QtMobility::QGalleryNullResultSet::propertyType(int) const 0x0001bb8d   Thumb Code     6  qgalleryitemrequest.o(i._ZNK10QtMobility21QGalleryNullResultSet12propertyTypeEi)
    QtMobility::QGalleryNullResultSet::propertyAttributes(int) const 0x0001bb93   Thumb Code    10  qgalleryitemrequest.o(i._ZNK10QtMobility21QGalleryNullResultSet18propertyAttributesEi)
    QtMobility::QGalleryNullResultSet::itemId() const 0x0001bb9d   Thumb Code    16  qgalleryitemrequest.o(i._ZNK10QtMobility21QGalleryNullResultSet6itemIdEv)
    QtMobility::QGalleryNullResultSet::itemUrl() const 0x0001bbad   Thumb Code    16  qgalleryitemrequest.o(i._ZNK10QtMobility21QGalleryNullResultSet7itemUrlEv)
    QtMobility::QGalleryNullResultSet::itemType() const 0x0001bbbd   Thumb Code    16  qgalleryitemrequest.o(i._ZNK10QtMobility21QGalleryNullResultSet8itemTypeEv)
    QtMobility::QGalleryNullResultSet::metaData(int) const 0x0001bbcd   Thumb Code    18  qgalleryitemrequest.o(i._ZNK10QtMobility21QGalleryNullResultSet8metaDataEi)
    QtMobility::QGalleryNullResultSet::itemCount() const 0x0001bbdf   Thumb Code     6  qgalleryitemrequest.o(i._ZNK10QtMobility21QGalleryNullResultSet9itemCountEv)
    QtMobility::QGalleryNullResultSet::resources() const 0x0001bbe5   Thumb Code    22  qgalleryitemrequest.o(i._ZNK10QtMobility21QGalleryNullResultSet9resourcesEv)
    QtMobility::QGalleryUnionFilterPrivate::printDebug(QDebug&) const 0x0001bc01   Thumb Code   202  qgalleryfilter.o(i._ZNK10QtMobility26QGalleryUnionFilterPrivate10printDebugER6QDebug)
    QtMobility::QGalleryUnionFilterPrivate::isEqual(const QtMobility::QGalleryFilterPrivate&) const 0x0001bcff   Thumb Code    38  qgalleryfilter.o(i._ZNK10QtMobility26QGalleryUnionFilterPrivate7isEqualERKNS_21QGalleryFilterPrivateE)
    QtMobility::QGalleryInvalidFilterPrivate::printDebug(QDebug&) const 0x0001bd25   Thumb Code    16  qgalleryfilter.o(i._ZNK10QtMobility28QGalleryInvalidFilterPrivate10printDebugER6QDebug)
    QtMobility::QGalleryInvalidFilterPrivate::isEqual(const QtMobility::QGalleryFilterPrivate&) const 0x0001bd49   Thumb Code    18  qgalleryfilter.o(i._ZNK10QtMobility28QGalleryInvalidFilterPrivate7isEqualERKNS_21QGalleryFilterPrivateE)
    QtMobility::QGalleryMetaDataFilterPrivate::printDebug(QDebug&) const 0x0001bd5d   Thumb Code   198  qgalleryfilter.o(i._ZNK10QtMobility29QGalleryMetaDataFilterPrivate10printDebugER6QDebug)
    QtMobility::QGalleryMetaDataFilterPrivate::isEqual(const QtMobility::QGalleryFilterPrivate&) const 0x0001be83   Thumb Code    84  qgalleryfilter.o(i._ZNK10QtMobility29QGalleryMetaDataFilterPrivate7isEqualERKNS_21QGalleryFilterPrivateE)
    QtMobility::QGalleryIntersectionFilterPrivate::printDebug(QDebug&) const 0x0001bed9   Thumb Code   202  qgalleryfilter.o(i._ZNK10QtMobility33QGalleryIntersectionFilterPrivate10printDebugER6QDebug)
    QtMobility::QGalleryIntersectionFilterPrivate::isEqual(const QtMobility::QGalleryFilterPrivate&) const 0x0001bfdb   Thumb Code    38  qgalleryfilter.o(i._ZNK10QtMobility33QGalleryIntersectionFilterPrivate7isEqualERKNS_21QGalleryFilterPrivateE)
    QModelIndex::isValid() const             0x0001c001   Thumb Code    28  qgalleryquerymodel.o(i._ZNK11QModelIndex7isValidEv)
    QBasicAtomicInt::operator ==(int) const  0x0001c01d   Thumb Code    16  qgalleryabstractrequest.o(i._ZNK15QBasicAtomicInteqEi)
    QBasicAtomicInt::operator !=(int) const  0x0001c02d   Thumb Code    16  qgalleryfilter.o(i._ZNK15QBasicAtomicIntneEi)
    QAbstractItemModel::createIndex(int, int, void*) const 0x0001c03d   Thumb Code    18  qgalleryquerymodel.o(i._ZNK18QAbstractItemModel11createIndexEiiPv)
    QString::isNull() const                  0x0001c051   Thumb Code    18  qdocumentgallery_symbian.o(i._ZNK7QString6isNullEv)
    QString::isEmpty() const                 0x0001c069   Thumb Code    18  qdocumentgallery_symbian.o(i._ZNK7QString7isEmptyEv)
    TDesC16::operator ==(const TDesC16&) const 0x0001c07b   Thumb Code    26  qgallerymdsutility.o(i._ZNK7TDesC16eqERKS_)
    TDesC16::operator !=(const TDesC16&) const 0x0001c095   Thumb Code    26  qgallerymdsutility.o(i._ZNK7TDesC16neERKS_)
    QVariant::isDetached() const             0x0001c0af   Thumb Code    34  qgallerymdsutility.o(i._ZNK8QVariant10isDetachedEv)
    QListData::at(int) const                 0x0001c0d1   Thumb Code    20  qgalleryfilter.o(i._ZNK9QListData2atEi)
    QListData::end() const                   0x0001c0e5   Thumb Code    16  qgalleryfilter.o(i._ZNK9QListData3endEv)
    QListData::size() const                  0x0001c0f5   Thumb Code    14  qgalleryfilter.o(i._ZNK9QListData4sizeEv)
    QListData::begin() const                 0x0001c103   Thumb Code    16  qgalleryfilter.o(i._ZNK9QListData5beginEv)
    operator delete (void*, void*)           0x0001c113   Thumb Code     2  qgalleryitemrequest.o(i._ZdlPvS_)
    operator new(unsigned, void*)            0x0001c115   Thumb Code     6  qgalleryitemrequest.o(i._ZnwjPv)
    operator +(const QString&, QChar)        0x0001c11b   Thumb Code   128  qmdegallerycategoryresultset.o(i._ZplRK7QString5QChar)
    qMapLessThanKey<int>(const T1&, const T1&) 0x0001c1a5   Thumb Code    18  qgalleryresource.o(t._Z15qMapLessThanKeyIiEbRKT_S2_)
    qVariantSetValue<QUrl>(QVariant&, const T1&) 0x0001c1b7   Thumb Code   162  qgallerymdsutility.o(t._Z16qVariantSetValueI4QUrlEvR8QVariantRKT_)
    qVariantSetValue<QString>(QVariant&, const T1&) 0x0001c26d   Thumb Code   162  qgallerymdsutility.o(t._Z16qVariantSetValueI7QStringEvR8QVariantRKT_)
    qVariantSetValue<QDateTime>(QVariant&, const T1&) 0x0001c323   Thumb Code   162  qgallerymdsutility.o(t._Z16qVariantSetValueI9QDateTimeEvR8QVariantRKT_)
    qVariantSetValue<double>(QVariant&, const T1&) 0x0001c3d9   Thumb Code   160  qgallerymdsutility.o(t._Z16qVariantSetValueIdEvR8QVariantRKT_)
    qVariantSetValue<unsigned>(QVariant&, const T1&) 0x0001c483   Thumb Code   158  qgallerymdsutility.o(t._Z16qVariantSetValueIjEvR8QVariantRKT_)
    qVariantSetValue<unsigned long>(QVariant&, const T1&) 0x0001c52b   Thumb Code   158  qgallerymdsutility.o(t._Z16qVariantSetValueImEvR8QVariantRKT_)
    qMin<int>(const T1&, const T1&)          0x0001c5d3   Thumb Code    18  qgalleryquerymodel.o(t._Z4qMinIiERKT_S2_S2_)
    QWeakPointer<QtMobility::QAbstractGallery>::QWeakPointer<QtMobility::QAbstractGallery>(T1*) 0x0001c5e5   Thumb Code    28  qgalleryabstractrequest.o(t._ZN12QWeakPointerIN10QtMobility16QAbstractGalleryEEC1IS1_EEPT_)
    QWeakPointer<QtMobility::QAbstractGallery>::QWeakPointer__sub_object<QtMobility::QAbstractGallery>(T1*) 0x0001c5e5   Thumb Code     0  qgalleryabstractrequest.o(t._ZN12QWeakPointerIN10QtMobility16QAbstractGalleryEEC1IS1_EEPT_)
    QWeakPointer<QtMobility::QAbstractGallery>::~QWeakPointer() 0x0001c601   Thumb Code    42  qgalleryabstractrequest.o(t._ZN12QWeakPointerIN10QtMobility16QAbstractGalleryEED1Ev)
    QWeakPointer<QtMobility::QAbstractGallery>::~QWeakPointer__sub_object() 0x0001c601   Thumb Code     0  qgalleryabstractrequest.o(t._ZN12QWeakPointerIN10QtMobility16QAbstractGalleryEED1Ev)
    RPointerArray<CMdEObject>::ResetAndDestroy() 0x0001c62b   Thumb Code    64  qmdegalleryitemresultset.o(t._ZN13RPointerArrayI10CMdEObjectE15ResetAndDestroyEv)
    RPointerArray<CMdEObject>::operator [](int) 0x0001c66b   Thumb Code    16  qmdegalleryresultset.o(t._ZN13RPointerArrayI10CMdEObjectEixEi)
    QScopedPointer<CMdEObjectQuery, QScopedPointerDeleter<CMdEObjectQuery>>::reset(CMdEObjectQuery*) 0x0001c67b   Thumb Code    34  qmdegallerycategoryresultset.o(t._ZN14QScopedPointerI15CMdEObjectQuery21QScopedPointerDeleterIS0_EE5resetEPS0_)
    QScopedPointer<CMdEObjectQuery, QScopedPointerDeleter<CMdEObjectQuery>>::~QScopedPointer() 0x0001c69d   Thumb Code    28  qmdegallerytyperesultset.o(t._ZN14QScopedPointerI15CMdEObjectQuery21QScopedPointerDeleterIS0_EED1Ev)
    QScopedPointer<CMdEObjectQuery, QScopedPointerDeleter<CMdEObjectQuery>>::~QScopedPointer__sub_object() 0x0001c69d   Thumb Code     0  qmdegallerytyperesultset.o(t._ZN14QScopedPointerI15CMdEObjectQuery21QScopedPointerDeleterIS0_EED1Ev)
    QScopedPointer<QtMobility::QAbstractGalleryPrivate, QScopedPointerDeleter<QtMobility::QAbstractGalleryPrivate>>::~QScopedPointer() 0x0001c6b9   Thumb Code    28  qabstractgallery.o(t._ZN14QScopedPointerIN10QtMobility23QAbstractGalleryPrivateE21QScopedPointerDeleterIS1_EED1Ev)
    QScopedPointer<QtMobility::QAbstractGalleryPrivate, QScopedPointerDeleter<QtMobility::QAbstractGalleryPrivate>>::~QScopedPointer__sub_object() 0x0001c6b9   Thumb Code     0  qabstractgallery.o(t._ZN14QScopedPointerIN10QtMobility23QAbstractGalleryPrivateE21QScopedPointerDeleterIS1_EED1Ev)
    QScopedPointer<QtMobility::QGalleryAbstractResponse, QScopedPointerDeleter<QtMobility::QGalleryAbstractResponse>>::reset(QtMobility::QGalleryAbstractResponse*) 0x0001c6d5   Thumb Code    34  qgalleryabstractrequest.o(t._ZN14QScopedPointerIN10QtMobility24QGalleryAbstractResponseE21QScopedPointerDeleterIS1_EE5resetEPS1_)
    QScopedPointer<QtMobility::QGalleryAbstractResponse, QScopedPointerDeleter<QtMobility::QGalleryAbstractResponse>>::~QScopedPointer() 0x0001c6f7   Thumb Code    28  qgalleryabstractrequest.o(t._ZN14QScopedPointerIN10QtMobility24QGalleryAbstractResponseE21QScopedPointerDeleterIS1_EED1Ev)
    QScopedPointer<QtMobility::QGalleryAbstractResponse, QScopedPointerDeleter<QtMobility::QGalleryAbstractResponse>>::~QScopedPointer__sub_object() 0x0001c6f7   Thumb Code     0  qgalleryabstractrequest.o(t._ZN14QScopedPointerIN10QtMobility24QGalleryAbstractResponseE21QScopedPointerDeleterIS1_EED1Ev)
    QScopedPointer<QtMobility::QGalleryQueryModelPrivate, QScopedPointerDeleter<QtMobility::QGalleryQueryModelPrivate>>::~QScopedPointer() 0x0001c713   Thumb Code   100  qgalleryquerymodel.o(t._ZN14QScopedPointerIN10QtMobility25QGalleryQueryModelPrivateE21QScopedPointerDeleterIS1_EED1Ev)
    QScopedPointer<QtMobility::QGalleryQueryModelPrivate, QScopedPointerDeleter<QtMobility::QGalleryQueryModelPrivate>>::~QScopedPointer__sub_object() 0x0001c713   Thumb Code     0  qgalleryquerymodel.o(t._ZN14QScopedPointerIN10QtMobility25QGalleryQueryModelPrivateE21QScopedPointerDeleterIS1_EED1Ev)
    QScopedPointer<QtMobility::QGalleryAbstractRequestPrivate, QScopedPointerDeleter<QtMobility::QGalleryAbstractRequestPrivate>>::~QScopedPointer() 0x0001c7b3   Thumb Code    28  qgalleryabstractrequest.o(t._ZN14QScopedPointerIN10QtMobility30QGalleryAbstractRequestPrivateE21QScopedPointerDeleterIS1_EED1Ev)
    QScopedPointer<QtMobility::QGalleryAbstractRequestPrivate, QScopedPointerDeleter<QtMobility::QGalleryAbstractRequestPrivate>>::~QScopedPointer__sub_object() 0x0001c7b3   Thumb Code     0  qgalleryabstractrequest.o(t._ZN14QScopedPointerIN10QtMobility30QGalleryAbstractRequestPrivateE21QScopedPointerDeleterIS1_EED1Ev)
    QScopedPointer<QtMobility::QGalleryAbstractResponsePrivate, QScopedPointerDeleter<QtMobility::QGalleryAbstractResponsePrivate>>::~QScopedPointer() 0x0001c7cf   Thumb Code    28  qgalleryabstractresponse.o(t._ZN14QScopedPointerIN10QtMobility31QGalleryAbstractResponsePrivateE21QScopedPointerDeleterIS1_EED1Ev)
    QScopedPointer<QtMobility::QGalleryAbstractResponsePrivate, QScopedPointerDeleter<QtMobility::QGalleryAbstractResponsePrivate>>::~QScopedPointer__sub_object() 0x0001c7cf   Thumb Code     0  qgalleryabstractresponse.o(t._ZN14QScopedPointerIN10QtMobility31QGalleryAbstractResponsePrivateE21QScopedPointerDeleterIS1_EED1Ev)
    QSharedDataPointer<QtMobility::QGalleryFilterPrivate>::QSharedDataPointer(QtMobility::QGalleryFilterPrivate*) 0x0001c7eb   Thumb Code    26  qgalleryfilter.o(t._ZN18QSharedDataPointerIN10QtMobility21QGalleryFilterPrivateEEC1EPS1_)
    QSharedDataPointer<QtMobility::QGalleryFilterPrivate>::QSharedDataPointer__sub_object(QtMobility::QGalleryFilterPrivate*) 0x0001c7eb   Thumb Code     0  qgalleryfilter.o(t._ZN18QSharedDataPointerIN10QtMobility21QGalleryFilterPrivateEEC1EPS1_)
    QSharedDataPointer<QtMobility::QGalleryFilterPrivate>::~QSharedDataPointer() 0x0001c805   Thumb Code    42  qgalleryfilter.o(t._ZN18QSharedDataPointerIN10QtMobility21QGalleryFilterPrivateEED1Ev)
    QSharedDataPointer<QtMobility::QGalleryFilterPrivate>::~QSharedDataPointer__sub_object() 0x0001c805   Thumb Code     0  qgalleryfilter.o(t._ZN18QSharedDataPointerIN10QtMobility21QGalleryFilterPrivateEED1Ev)
    QSharedDataPointer<QtMobility::QGalleryUnionFilterPrivate>::detach_helper() 0x0001c831   Thumb Code   118  qgalleryfilter.o(t._ZN18QSharedDataPointerIN10QtMobility26QGalleryUnionFilterPrivateEE13detach_helperEv)
    QSharedDataPointer<QtMobility::QGalleryUnionFilterPrivate>::QSharedDataPointer(QtMobility::QGalleryUnionFilterPrivate*) 0x0001c8c7   Thumb Code    26  qgalleryfilter.o(t._ZN18QSharedDataPointerIN10QtMobility26QGalleryUnionFilterPrivateEEC1EPS1_)
    QSharedDataPointer<QtMobility::QGalleryUnionFilterPrivate>::QSharedDataPointer__sub_object(QtMobility::QGalleryUnionFilterPrivate*) 0x0001c8c7   Thumb Code     0  qgalleryfilter.o(t._ZN18QSharedDataPointerIN10QtMobility26QGalleryUnionFilterPrivateEEC1EPS1_)
    QSharedDataPointer<QtMobility::QGalleryUnionFilterPrivate>::~QSharedDataPointer() 0x0001c8e1   Thumb Code    42  qgalleryfilter.o(t._ZN18QSharedDataPointerIN10QtMobility26QGalleryUnionFilterPrivateEED1Ev)
    QSharedDataPointer<QtMobility::QGalleryUnionFilterPrivate>::~QSharedDataPointer__sub_object() 0x0001c8e1   Thumb Code     0  qgalleryfilter.o(t._ZN18QSharedDataPointerIN10QtMobility26QGalleryUnionFilterPrivateEED1Ev)
    QSharedDataPointer<QtMobility::QGalleryUnionFilterPrivate>::operator ->() 0x0001c90b   Thumb Code    36  qgalleryfilter.o(t._ZN18QSharedDataPointerIN10QtMobility26QGalleryUnionFilterPrivateEEptEv)
    QSharedDataPointer<QtMobility::QGalleryMetaDataFilterPrivate>::detach_helper() 0x0001c931   Thumb Code   150  qgalleryfilter.o(t._ZN18QSharedDataPointerIN10QtMobility29QGalleryMetaDataFilterPrivateEE13detach_helperEv)
    QSharedDataPointer<QtMobility::QGalleryMetaDataFilterPrivate>::QSharedDataPointer(QtMobility::QGalleryMetaDataFilterPrivate*) 0x0001c9f3   Thumb Code    26  qgalleryfilter.o(t._ZN18QSharedDataPointerIN10QtMobility29QGalleryMetaDataFilterPrivateEEC1EPS1_)
    QSharedDataPointer<QtMobility::QGalleryMetaDataFilterPrivate>::QSharedDataPointer__sub_object(QtMobility::QGalleryMetaDataFilterPrivate*) 0x0001c9f3   Thumb Code     0  qgalleryfilter.o(t._ZN18QSharedDataPointerIN10QtMobility29QGalleryMetaDataFilterPrivateEEC1EPS1_)
    QSharedDataPointer<QtMobility::QGalleryMetaDataFilterPrivate>::~QSharedDataPointer() 0x0001ca0d   Thumb Code    42  qgalleryfilter.o(t._ZN18QSharedDataPointerIN10QtMobility29QGalleryMetaDataFilterPrivateEED1Ev)
    QSharedDataPointer<QtMobility::QGalleryMetaDataFilterPrivate>::~QSharedDataPointer__sub_object() 0x0001ca0d   Thumb Code     0  qgalleryfilter.o(t._ZN18QSharedDataPointerIN10QtMobility29QGalleryMetaDataFilterPrivateEED1Ev)
    QSharedDataPointer<QtMobility::QGalleryMetaDataFilterPrivate>::operator ->() 0x0001ca37   Thumb Code    36  qgalleryfilter.o(t._ZN18QSharedDataPointerIN10QtMobility29QGalleryMetaDataFilterPrivateEEptEv)
    QSharedDataPointer<QtMobility::QGalleryIntersectionFilterPrivate>::detach_helper() 0x0001ca5d   Thumb Code   118  qgalleryfilter.o(t._ZN18QSharedDataPointerIN10QtMobility33QGalleryIntersectionFilterPrivateEE13detach_helperEv)
    QSharedDataPointer<QtMobility::QGalleryIntersectionFilterPrivate>::QSharedDataPointer(QtMobility::QGalleryIntersectionFilterPrivate*) 0x0001caf3   Thumb Code    26  qgalleryfilter.o(t._ZN18QSharedDataPointerIN10QtMobility33QGalleryIntersectionFilterPrivateEEC1EPS1_)
    QSharedDataPointer<QtMobility::QGalleryIntersectionFilterPrivate>::QSharedDataPointer__sub_object(QtMobility::QGalleryIntersectionFilterPrivate*) 0x0001caf3   Thumb Code     0  qgalleryfilter.o(t._ZN18QSharedDataPointerIN10QtMobility33QGalleryIntersectionFilterPrivateEEC1EPS1_)
    QSharedDataPointer<QtMobility::QGalleryIntersectionFilterPrivate>::~QSharedDataPointer() 0x0001cb0d   Thumb Code    42  qgalleryfilter.o(t._ZN18QSharedDataPointerIN10QtMobility33QGalleryIntersectionFilterPrivateEED1Ev)
    QSharedDataPointer<QtMobility::QGalleryIntersectionFilterPrivate>::~QSharedDataPointer__sub_object() 0x0001cb0d   Thumb Code     0  qgalleryfilter.o(t._ZN18QSharedDataPointerIN10QtMobility33QGalleryIntersectionFilterPrivateEED1Ev)
    QSharedDataPointer<QtMobility::QGalleryIntersectionFilterPrivate>::operator ->() 0x0001cb37   Thumb Code    36  qgalleryfilter.o(t._ZN18QSharedDataPointerIN10QtMobility33QGalleryIntersectionFilterPrivateEEptEv)
    QMap<int, QVariant>::node_create(QMapData*, QMapData::Node**, const int&, const QVariant&) 0x0001cb5b   Thumb Code   132  qgalleryresource.o(t._ZN4QMapIi8QVariantE11node_createEP8QMapDataPPNS2_4NodeERKiRKS0_)
    QMap<int, QVariant>::detach_helper()     0x0001cbfb   Thumb Code   148  qgalleryresource.o(t._ZN4QMapIi8QVariantE13detach_helperEv)
    QMap<int, QVariant>::detach()            0x0001cc97   Thumb Code    28  qmdegalleryresultset.o(t._ZN4QMapIi8QVariantE6detachEv)
    QMap<int, QVariant>::freeData(QMapData*) 0x0001ccb3   Thumb Code    58  qgalleryresource.o(t._ZN4QMapIi8QVariantE8freeDataEP8QMapData)
    QMap<int, QVariant>::QMap(const QMap<int, QVariant>&) 0x0001cced   Thumb Code    66  qgalleryresource.o(t._ZN4QMapIi8QVariantEC1ERKS1_)
    QMap<int, QVariant>::QMap__sub_object(const QMap<int, QVariant>&) 0x0001cced   Thumb Code     0  qgalleryresource.o(t._ZN4QMapIi8QVariantEC1ERKS1_)
    QMap<int, QVariant>::QMap()              0x0001cd31   Thumb Code    22  qgalleryresource.o(t._ZN4QMapIi8QVariantEC1Ev)
    QMap<int, QVariant>::QMap__sub_object()  0x0001cd31   Thumb Code     0  qgalleryresource.o(t._ZN4QMapIi8QVariantEC1Ev)
    QMap<int, QVariant>::~QMap()             0x0001cd4d   Thumb Code    38  qgalleryresource.o(t._ZN4QMapIi8QVariantED1Ev)
    QMap<int, QVariant>::~QMap__sub_object() 0x0001cd4d   Thumb Code     0  qgalleryresource.o(t._ZN4QMapIi8QVariantED1Ev)
    TBuf<(int)256>::TBuf(const TDesC16&)     0x0001cd73   Thumb Code    22  qgallerymdsutility.o(t._ZN4TBufILi256EEC1ERK7TDesC16)
    TBuf<(int)256>::TBuf__sub_object(const TDesC16&) 0x0001cd73   Thumb Code     0  qgallerymdsutility.o(t._ZN4TBufILi256EEC1ERK7TDesC16)
    QHash<int, QString>::deleteNode2(QHashData::Node*) 0x0001cd89   Thumb Code    24  qgalleryquerymodel.o(t._ZN5QHashIi7QStringE11deleteNode2EPN9QHashData4NodeE)
    QHash<int, QString>::detach_helper()     0x0001cda1   Thumb Code    52  qgalleryquerymodel.o(t._ZN5QHashIi7QStringE13detach_helperEv)
    QHash<int, QString>::duplicateNode(QHashData::Node*, void*) 0x0001cddd   Thumb Code    46  qgalleryquerymodel.o(t._ZN5QHashIi7QStringE13duplicateNodeEPN9QHashData4NodeEPv)
    QHash<int, QString>::detach()            0x0001ce19   Thumb Code    28  qgalleryquerymodel.o(t._ZN5QHashIi7QStringE6detachEv)
    QHash<int, QString>::insert(const int&, const QString&) 0x0001ce35   Thumb Code   182  qgalleryquerymodel.o(t._ZN5QHashIi7QStringE6insertERKiRKS0_)
    QHash<int, QString>::freeData(QHashData*) 0x0001cef9   Thumb Code    16  qgalleryquerymodel.o(t._ZN5QHashIi7QStringE8freeDataEP9QHashData)
    QHash<int, QString>::QHash(const QHash<int, QString>&) 0x0001cf0d   Thumb Code    40  qgalleryquerymodel.o(t._ZN5QHashIi7QStringEC1ERKS1_)
    QHash<int, QString>::QHash__sub_object(const QHash<int, QString>&) 0x0001cf0d   Thumb Code     0  qgalleryquerymodel.o(t._ZN5QHashIi7QStringEC1ERKS1_)
    QHash<int, QString>::QHash()             0x0001cf35   Thumb Code    22  qgalleryquerymodel.o(t._ZN5QHashIi7QStringEC1Ev)
    QHash<int, QString>::QHash__sub_object() 0x0001cf35   Thumb Code     0  qgalleryquerymodel.o(t._ZN5QHashIi7QStringEC1Ev)
    QHash<int, QString>::~QHash()            0x0001cf51   Thumb Code    30  qgalleryquerymodel.o(t._ZN5QHashIi7QStringED1Ev)
    QHash<int, QString>::~QHash__sub_object() 0x0001cf51   Thumb Code     0  qgalleryquerymodel.o(t._ZN5QHashIi7QStringED1Ev)
    QHash<int, QString>::operator =(const QHash<int, QString>&) 0x0001cf6f   Thumb Code    70  qgalleryquerymodel.o(t._ZN5QHashIi7QStringEaSERKS1_)
    QHash<int, QVariant>::deleteNode2(QHashData::Node*) 0x0001cfb5   Thumb Code    24  qgalleryquerymodel.o(t._ZN5QHashIi8QVariantE11deleteNode2EPN9QHashData4NodeE)
    QHash<int, QVariant>::detach_helper()    0x0001cfcd   Thumb Code    52  qgalleryquerymodel.o(t._ZN5QHashIi8QVariantE13detach_helperEv)
    QHash<int, QVariant>::duplicateNode(QHashData::Node*, void*) 0x0001d009   Thumb Code    46  qgalleryquerymodel.o(t._ZN5QHashIi8QVariantE13duplicateNodeEPN9QHashData4NodeEPv)
    QHash<int, QVariant>::detach()           0x0001d045   Thumb Code    28  qgalleryquerymodel.o(t._ZN5QHashIi8QVariantE6detachEv)
    QHash<int, QVariant>::insert(const int&, const QVariant&) 0x0001d061   Thumb Code   182  qgalleryquerymodel.o(t._ZN5QHashIi8QVariantE6insertERKiRKS0_)
    QHash<int, QVariant>::freeData(QHashData*) 0x0001d125   Thumb Code    16  qgalleryquerymodel.o(t._ZN5QHashIi8QVariantE8freeDataEP9QHashData)
    QHash<int, QVariant>::QHash(const QHash<int, QVariant>&) 0x0001d139   Thumb Code    40  qgalleryquerymodel.o(t._ZN5QHashIi8QVariantEC1ERKS1_)
    QHash<int, QVariant>::QHash__sub_object(const QHash<int, QVariant>&) 0x0001d139   Thumb Code     0  qgalleryquerymodel.o(t._ZN5QHashIi8QVariantEC1ERKS1_)
    QHash<int, QVariant>::QHash()            0x0001d161   Thumb Code    22  qgalleryquerymodel.o(t._ZN5QHashIi8QVariantEC1Ev)
    QHash<int, QVariant>::QHash__sub_object() 0x0001d161   Thumb Code     0  qgalleryquerymodel.o(t._ZN5QHashIi8QVariantEC1Ev)
    QHash<int, QVariant>::~QHash()           0x0001d17d   Thumb Code    30  qgalleryquerymodel.o(t._ZN5QHashIi8QVariantED1Ev)
    QHash<int, QVariant>::~QHash__sub_object() 0x0001d17d   Thumb Code     0  qgalleryquerymodel.o(t._ZN5QHashIi8QVariantED1Ev)
    QHash<int, QVariant>::operator =(const QHash<int, QVariant>&) 0x0001d19b   Thumb Code    70  qgalleryquerymodel.o(t._ZN5QHashIi8QVariantEaSERKS1_)
    QList<QString>::detach_helper(int)       0x0001d1e1   Thumb Code    94  qgalleryquerymodel.o(t._ZN5QListI7QStringE13detach_helperEi)
    QList<QString>::detach_helper()          0x0001d247   Thumb Code    16  qgalleryitemrequest.o(t._ZN5QListI7QStringE13detach_helperEv)
    QList<QString>::node_destruct(QList<QString>::Node*, QList<QString>::Node*) 0x0001d257   Thumb Code    26  qgalleryquerymodel.o(t._ZN5QListI7QStringE13node_destructEPNS1_4NodeES3_)
    QList<QString>::node_construct(QList<QString>::Node*, const QString&) 0x0001d271   Thumb Code    36  qgalleryquerymodel.o(t._ZN5QListI7QStringE14node_constructEPNS1_4NodeERKS0_)
    QList<QString>::detach_helper_grow(int, int) 0x0001d2a3   Thumb Code   208  qgalleryquerymodel.o(t._ZN5QListI7QStringE18detach_helper_growEii)
    QList<QString>::free(QListData::Data*)   0x0001d383   Thumb Code    52  qgalleryquerymodel.o(t._ZN5QListI7QStringE4freeEPN9QListData4DataE)
    QList<QString>::append(const QString&)   0x0001d3b9   Thumb Code   114  qgalleryquerymodel.o(t._ZN5QListI7QStringE6appendERKS0_)
    QList<QString>::reserve(int)             0x0001d43f   Thumb Code    46  qgalleryquerymodel.o(t._ZN5QListI7QStringE7reserveEi)
    QList<QString>::node_copy(QList<QString>::Node*, QList<QString>::Node*, QList<QString>::Node*) 0x0001d46d   Thumb Code    82  qgalleryquerymodel.o(t._ZN5QListI7QStringE9node_copyEPNS1_4NodeES3_S3_)
    QList<QString>::QList()                  0x0001d4d5   Thumb Code    18  qgalleryquerymodel.o(t._ZN5QListI7QStringEC1Ev)
    QList<QString>::QList__sub_object()      0x0001d4d5   Thumb Code     0  qgalleryquerymodel.o(t._ZN5QListI7QStringEC1Ev)
    QList<QString>::~QList()                 0x0001d4ed   Thumb Code    32  qgalleryitemrequest.o(t._ZN5QListI7QStringED1Ev)
    QList<QString>::~QList__sub_object()     0x0001d4ed   Thumb Code     0  qgalleryitemrequest.o(t._ZN5QListI7QStringED1Ev)
    QList<QString>::operator =(const QList<QString>&) 0x0001d50d   Thumb Code    64  qgalleryquerymodel.o(t._ZN5QListI7QStringEaSERKS1_)
    QList<QString>::operator +=(const QList<QString>&) 0x0001d54d   Thumb Code   154  qgalleryquerymodel.o(t._ZN5QListI7QStringEpLERKS1_)
    QList<QtMobility::QGalleryFilter>::detach_helper(int) 0x0001d5f5   Thumb Code    94  qgalleryfilter.o(t._ZN5QListIN10QtMobility14QGalleryFilterEE13detach_helperEi)
    QList<QtMobility::QGalleryFilter>::detach_helper() 0x0001d65b   Thumb Code    16  qgalleryfilter.o(t._ZN5QListIN10QtMobility14QGalleryFilterEE13detach_helperEv)
    QList<QtMobility::QGalleryFilter>::node_destruct(QList<QtMobility::QGalleryFilter>::Node*) 0x0001d66b   Thumb Code    28  qgalleryfilter.o(t._ZN5QListIN10QtMobility14QGalleryFilterEE13node_destructEPNS2_4NodeE)
    QList<QtMobility::QGalleryFilter>::node_destruct(QList<QtMobility::QGalleryFilter>::Node*, QList<QtMobility::QGalleryFilter>::Node*) 0x0001d687   Thumb Code    38  qgalleryfilter.o(t._ZN5QListIN10QtMobility14QGalleryFilterEE13node_destructEPNS2_4NodeES4_)
    QList<QtMobility::QGalleryFilter>::node_construct(QList<QtMobility::QGalleryFilter>::Node*, const QtMobility::QGalleryFilter&) 0x0001d6ad   Thumb Code    34  qgalleryfilter.o(t._ZN5QListIN10QtMobility14QGalleryFilterEE14node_constructEPNS2_4NodeERKS1_)
    QList<QtMobility::QGalleryFilter>::detach_helper_grow(int, int) 0x0001d6dd   Thumb Code   208  qgalleryfilter.o(t._ZN5QListIN10QtMobility14QGalleryFilterEE18detach_helper_growEii)
    QList<QtMobility::QGalleryFilter>::free(QListData::Data*) 0x0001d7bd   Thumb Code    58  qgalleryfilter.o(t._ZN5QListIN10QtMobility14QGalleryFilterEE4freeEPN9QListData4DataE)
    QList<QtMobility::QGalleryFilter>::clear() 0x0001d7f7   Thumb Code    28  qgalleryfilter.o(t._ZN5QListIN10QtMobility14QGalleryFilterEE5clearEv)
    QList<QtMobility::QGalleryFilter>::append(const QtMobility::QGalleryFilter&) 0x0001d81d   Thumb Code   106  qgalleryfilter.o(t._ZN5QListIN10QtMobility14QGalleryFilterEE6appendERKS1_)
    QList<QtMobility::QGalleryFilter>::detach() 0x0001d89b   Thumb Code    24  qgalleryfilter.o(t._ZN5QListIN10QtMobility14QGalleryFilterEE6detachEv)
    QList<QtMobility::QGalleryFilter>::insert(int, const QtMobility::QGalleryFilter&) 0x0001d8b3   Thumb Code   106  qgalleryfilter.o(t._ZN5QListIN10QtMobility14QGalleryFilterEE6insertEiRKS1_)
    QList<QtMobility::QGalleryFilter>::prepend(const QtMobility::QGalleryFilter&) 0x0001d92b   Thumb Code   106  qgalleryfilter.o(t._ZN5QListIN10QtMobility14QGalleryFilterEE7prependERKS1_)
    QList<QtMobility::QGalleryFilter>::replace(int, const QtMobility::QGalleryFilter&) 0x0001d9a3   Thumb Code    40  qgalleryfilter.o(t._ZN5QListIN10QtMobility14QGalleryFilterEE7replaceEiRKS1_)
    QList<QtMobility::QGalleryFilter>::reserve(int) 0x0001d9cb   Thumb Code    46  qgalleryfilter.o(t._ZN5QListIN10QtMobility14QGalleryFilterEE7reserveEi)
    QList<QtMobility::QGalleryFilter>::removeAt(int) 0x0001d9f9   Thumb Code    54  qgalleryfilter.o(t._ZN5QListIN10QtMobility14QGalleryFilterEE8removeAtEi)
    QList<QtMobility::QGalleryFilter>::node_copy(QList<QtMobility::QGalleryFilter>::Node*, QList<QtMobility::QGalleryFilter>::Node*, QList<QtMobility::QGalleryFilter>::Node*) 0x0001da2f   Thumb Code    92  qgalleryfilter.o(t._ZN5QListIN10QtMobility14QGalleryFilterEE9node_copyEPNS2_4NodeES4_S4_)
    QList<QtMobility::QGalleryFilter>::QList(const QList<QtMobility::QGalleryFilter>&) 0x0001daa1   Thumb Code    36  qgalleryfilter.o(t._ZN5QListIN10QtMobility14QGalleryFilterEEC1ERKS2_)
    QList<QtMobility::QGalleryFilter>::QList__sub_object(const QList<QtMobility::QGalleryFilter>&) 0x0001daa1   Thumb Code     0  qgalleryfilter.o(t._ZN5QListIN10QtMobility14QGalleryFilterEEC1ERKS2_)
    QList<QtMobility::QGalleryFilter>::QList() 0x0001dac5   Thumb Code    18  qgalleryfilter.o(t._ZN5QListIN10QtMobility14QGalleryFilterEEC1Ev)
    QList<QtMobility::QGalleryFilter>::QList__sub_object() 0x0001dac5   Thumb Code     0  qgalleryfilter.o(t._ZN5QListIN10QtMobility14QGalleryFilterEEC1Ev)
    QList<QtMobility::QGalleryFilter>::~QList() 0x0001dadd   Thumb Code    32  qgalleryfilter.o(t._ZN5QListIN10QtMobility14QGalleryFilterEED1Ev)
    QList<QtMobility::QGalleryFilter>::~QList__sub_object() 0x0001dadd   Thumb Code     0  qgalleryfilter.o(t._ZN5QListIN10QtMobility14QGalleryFilterEED1Ev)
    QList<QtMobility::QGalleryFilter>::operator =(const QList<QtMobility::QGalleryFilter>&) 0x0001dafd   Thumb Code    64  qgalleryfilter.o(t._ZN5QListIN10QtMobility14QGalleryFilterEEaSERKS2_)
    QList<QtMobility::QGalleryFilter>::operator [](int) 0x0001db3d   Thumb Code    42  qgallerymdsutility.o(t._ZN5QListIN10QtMobility14QGalleryFilterEEixEi)
    QList<QtMobility::QGalleryFilter>::operator +=(const QList<QtMobility::QGalleryFilter>&) 0x0001db69   Thumb Code   144  qgalleryfilter.o(t._ZN5QListIN10QtMobility14QGalleryFilterEEpLERKS2_)
    QList<QtMobility::QGalleryResource>::detach_helper(int) 0x0001dc05   Thumb Code   200  qgalleryitemrequest.o(t._ZN5QListIN10QtMobility16QGalleryResourceEE13detach_helperEi)
    QList<QtMobility::QGalleryResource>::detach_helper() 0x0001dced   Thumb Code    16  qgalleryitemrequest.o(t._ZN5QListIN10QtMobility16QGalleryResourceEE13detach_helperEv)
    QList<QtMobility::QGalleryResource>::node_destruct(QList<QtMobility::QGalleryResource>::Node*, QList<QtMobility::QGalleryResource>::Node*) 0x0001dcfd   Thumb Code    38  qgalleryresultset.o(t._ZN5QListIN10QtMobility16QGalleryResourceEE13node_destructEPNS2_4NodeES4_)
    QList<QtMobility::QGalleryResource>::node_construct(QList<QtMobility::QGalleryResource>::Node*, const QtMobility::QGalleryResource&) 0x0001dd23   Thumb Code    34  qgalleryresultset.o(t._ZN5QListIN10QtMobility16QGalleryResourceEE14node_constructEPNS2_4NodeERKS1_)
    QList<QtMobility::QGalleryResource>::detach_helper_grow(int, int) 0x0001dd53   Thumb Code   208  qmdegalleryresultset.o(t._ZN5QListIN10QtMobility16QGalleryResourceEE18detach_helper_growEii)
    QList<QtMobility::QGalleryResource>::free(QListData::Data*) 0x0001de33   Thumb Code    58  qgalleryresultset.o(t._ZN5QListIN10QtMobility16QGalleryResourceEE4freeEPN9QListData4DataE)
    QList<QtMobility::QGalleryResource>::append(const QtMobility::QGalleryResource&) 0x0001de6d   Thumb Code   106  qmdegalleryresultset.o(t._ZN5QListIN10QtMobility16QGalleryResourceEE6appendERKS1_)
    QList<QtMobility::QGalleryResource>::node_copy(QList<QtMobility::QGalleryResource>::Node*, QList<QtMobility::QGalleryResource>::Node*, QList<QtMobility::QGalleryResource>::Node*) 0x0001deeb   Thumb Code    92  qgalleryresultset.o(t._ZN5QListIN10QtMobility16QGalleryResourceEE9node_copyEPNS2_4NodeES4_S4_)
    QList<QtMobility::QGalleryResource>::~QList() 0x0001df5d   Thumb Code    32  qgalleryitemrequest.o(t._ZN5QListIN10QtMobility16QGalleryResourceEED1Ev)
    QList<QtMobility::QGalleryResource>::~QList__sub_object() 0x0001df5d   Thumb Code     0  qgalleryitemrequest.o(t._ZN5QListIN10QtMobility16QGalleryResourceEED1Ev)
    QList<int>::detach_helper(int)           0x0001df7d   Thumb Code    94  qgalleryitemrequest.o(t._ZN5QListIiE13detach_helperEi)
    QList<int>::detach_helper()              0x0001dfe3   Thumb Code    16  qgalleryitemrequest.o(t._ZN5QListIiE13detach_helperEv)
    QList<int>::detach_helper_grow(int, int) 0x0001dff3   Thumb Code   204  qgalleryitemrequest.o(t._ZN5QListIiE18detach_helper_growEii)
    QList<int>::free(QListData::Data*)       0x0001e0cf   Thumb Code    58  qgalleryitemrequest.o(t._ZN5QListIiE4freeEPN9QListData4DataE)
    QList<int>::clear()                      0x0001e109   Thumb Code    76  qgalleryitemrequest.o(t._ZN5QListIiE5clearEv)
    QList<int>::append(const int&)           0x0001e161   Thumb Code    94  qmdegalleryitemresultset.o(t._ZN5QListIiE6appendERKi)
    QList<int>::node_copy(QList<int>::Node*, QList<int>::Node*, QList<int>::Node*) 0x0001e1cf   Thumb Code    46  qgalleryitemrequest.o(t._ZN5QListIiE9node_copyEPNS0_4NodeES2_S2_)
    QList<int>::QList()                      0x0001e1fd   Thumb Code    18  qgalleryitemrequest.o(t._ZN5QListIiEC1Ev)
    QList<int>::QList__sub_object()          0x0001e1fd   Thumb Code     0  qgalleryitemrequest.o(t._ZN5QListIiEC1Ev)
    QList<int>::~QList()                     0x0001e215   Thumb Code    32  qgalleryitemrequest.o(t._ZN5QListIiED1Ev)
    QList<int>::~QList__sub_object()         0x0001e215   Thumb Code     0  qgalleryitemrequest.o(t._ZN5QListIiED1Ev)
    RArray<unsigned long>::RArray()          0x0001e235   Thumb Code    16  qmdegalleryqueryresultset.o(t._ZN6RArrayImEC1Ev)
    RArray<unsigned long>::RArray__sub_object() 0x0001e235   Thumb Code     0  qmdegalleryqueryresultset.o(t._ZN6RArrayImEC1Ev)
    QVector<QHash<int, QString>>::detach_helper() 0x0001e245   Thumb Code    18  qgalleryquerymodel.o(t._ZN7QVectorI5QHashIi7QStringEE13detach_helperEv)
    QVector<QHash<int, QString>>::free(QVectorTypedData<QHash<int, QString>>*) 0x0001e257   Thumb Code    52  qgalleryquerymodel.o(t._ZN7QVectorI5QHashIi7QStringEE4freeEP16QVectorTypedDataIS2_E)
    QVector<QHash<int, QString>>::erase(QHash<int, QString>*, QHash<int, QString>*) 0x0001e28b   Thumb Code   192  qgalleryquerymodel.o(t._ZN7QVectorI5QHashIi7QStringEE5eraseEPS2_S4_)
    QVector<QHash<int, QString>>::append(const QHash<int, QString>&) 0x0001e34b   Thumb Code   180  qgalleryquerymodel.o(t._ZN7QVectorI5QHashIi7QStringEE6appendERKS2_)
    QVector<QHash<int, QString>>::detach()   0x0001e41b   Thumb Code    24  qgalleryquerymodel.o(t._ZN7QVectorI5QHashIi7QStringEE6detachEv)
    QVector<QHash<int, QString>>::insert(QHash<int, QString>*, int, const QHash<int, QString>&) 0x0001e433   Thumb Code   328  qgalleryquerymodel.o(t._ZN7QVectorI5QHashIi7QStringEE6insertEPS2_iRKS2_)
    QVector<QHash<int, QString>>::malloc(int) 0x0001e58d   Thumb Code    52  qgalleryquerymodel.o(t._ZN7QVectorI5QHashIi7QStringEE6mallocEi)
    QVector<QHash<int, QString>>::realloc(int, int) 0x0001e5c1   Thumb Code   450  qgalleryquerymodel.o(t._ZN7QVectorI5QHashIi7QStringEE7reallocEii)
    QVector<QHash<int, QString>>::~QVector() 0x0001e7a3   Thumb Code    34  qgalleryquerymodel.o(t._ZN7QVectorI5QHashIi7QStringEED1Ev)
    QVector<QHash<int, QString>>::~QVector__sub_object() 0x0001e7a3   Thumb Code     0  qgalleryquerymodel.o(t._ZN7QVectorI5QHashIi7QStringEED1Ev)
    QVector<QHash<int, QVariant>>::detach_helper() 0x0001e7c5   Thumb Code    18  qgalleryquerymodel.o(t._ZN7QVectorI5QHashIi8QVariantEE13detach_helperEv)
    QVector<QHash<int, QVariant>>::free(QVectorTypedData<QHash<int, QVariant>>*) 0x0001e7d7   Thumb Code    52  qgalleryquerymodel.o(t._ZN7QVectorI5QHashIi8QVariantEE4freeEP16QVectorTypedDataIS2_E)
    QVector<QHash<int, QVariant>>::erase(QHash<int, QVariant>*, QHash<int, QVariant>*) 0x0001e80b   Thumb Code   192  qgalleryquerymodel.o(t._ZN7QVectorI5QHashIi8QVariantEE5eraseEPS2_S4_)
    QVector<QHash<int, QVariant>>::append(const QHash<int, QVariant>&) 0x0001e8cb   Thumb Code   180  qgalleryquerymodel.o(t._ZN7QVectorI5QHashIi8QVariantEE6appendERKS2_)
    QVector<QHash<int, QVariant>>::detach()  0x0001e99b   Thumb Code    24  qgalleryquerymodel.o(t._ZN7QVectorI5QHashIi8QVariantEE6detachEv)
    QVector<QHash<int, QVariant>>::insert(QHash<int, QVariant>*, int, const QHash<int, QVariant>&) 0x0001e9b3   Thumb Code   328  qgalleryquerymodel.o(t._ZN7QVectorI5QHashIi8QVariantEE6insertEPS2_iRKS2_)
    QVector<QHash<int, QVariant>>::malloc(int) 0x0001eb0d   Thumb Code    52  qgalleryquerymodel.o(t._ZN7QVectorI5QHashIi8QVariantEE6mallocEi)
    QVector<QHash<int, QVariant>>::realloc(int, int) 0x0001eb41   Thumb Code   450  qgalleryquerymodel.o(t._ZN7QVectorI5QHashIi8QVariantEE7reallocEii)
    QVector<QHash<int, QVariant>>::~QVector() 0x0001ed23   Thumb Code    34  qgalleryquerymodel.o(t._ZN7QVectorI5QHashIi8QVariantEED1Ev)
    QVector<QHash<int, QVariant>>::~QVector__sub_object() 0x0001ed23   Thumb Code     0  qgalleryquerymodel.o(t._ZN7QVectorI5QHashIi8QVariantEED1Ev)
    QVector<QFlags<Qt::ItemFlag>>::detach_helper() 0x0001ed45   Thumb Code    18  qgalleryquerymodel.o(t._ZN7QVectorI6QFlagsIN2Qt8ItemFlagEEE13detach_helperEv)
    QVector<QFlags<Qt::ItemFlag>>::free(QVectorTypedData<QFlags<Qt::ItemFlag>>*) 0x0001ed57   Thumb Code    48  qgalleryquerymodel.o(t._ZN7QVectorI6QFlagsIN2Qt8ItemFlagEEE4freeEP16QVectorTypedDataIS3_E)
    QVector<QFlags<Qt::ItemFlag>>::erase(QFlags<Qt::ItemFlag>*, QFlags<Qt::ItemFlag>*) 0x0001ed87   Thumb Code   192  qgalleryquerymodel.o(t._ZN7QVectorI6QFlagsIN2Qt8ItemFlagEEE5eraseEPS3_S5_)
    QVector<QFlags<Qt::ItemFlag>>::append(const QFlags<Qt::ItemFlag>&) 0x0001ee47   Thumb Code   164  qgalleryquerymodel.o(t._ZN7QVectorI6QFlagsIN2Qt8ItemFlagEEE6appendERKS3_)
    QVector<QFlags<Qt::ItemFlag>>::detach()  0x0001eeef   Thumb Code    24  qgalleryquerymodel.o(t._ZN7QVectorI6QFlagsIN2Qt8ItemFlagEEE6detachEv)
    QVector<QFlags<Qt::ItemFlag>>::insert(QFlags<Qt::ItemFlag>*, int, const QFlags<Qt::ItemFlag>&) 0x0001ef07   Thumb Code   320  qgalleryquerymodel.o(t._ZN7QVectorI6QFlagsIN2Qt8ItemFlagEEE6insertEPS3_iRKS3_)
    QVector<QFlags<Qt::ItemFlag>>::malloc(int) 0x0001f04b   Thumb Code    52  qgalleryquerymodel.o(t._ZN7QVectorI6QFlagsIN2Qt8ItemFlagEEE6mallocEi)
    QVector<QFlags<Qt::ItemFlag>>::realloc(int, int) 0x0001f07f   Thumb Code   438  qgalleryquerymodel.o(t._ZN7QVectorI6QFlagsIN2Qt8ItemFlagEEE7reallocEii)
    QVector<QFlags<Qt::ItemFlag>>::~QVector() 0x0001f243   Thumb Code    34  qgalleryquerymodel.o(t._ZN7QVectorI6QFlagsIN2Qt8ItemFlagEEED1Ev)
    QVector<QFlags<Qt::ItemFlag>>::~QVector__sub_object() 0x0001f243   Thumb Code     0  qgalleryquerymodel.o(t._ZN7QVectorI6QFlagsIN2Qt8ItemFlagEEED1Ev)
    QVector<QFlags<Qt::ItemFlag>>::operator [](int) 0x0001f265   Thumb Code    26  qgalleryquerymodel.o(t._ZN7QVectorI6QFlagsIN2Qt8ItemFlagEEEixEi)
    QVector<int>::detach_helper()            0x0001f27f   Thumb Code    18  qgalleryquerymodel.o(t._ZN7QVectorIiE13detach_helperEv)
    QVector<int>::free(QVectorTypedData<int>*) 0x0001f291   Thumb Code    24  qgalleryquerymodel.o(t._ZN7QVectorIiE4freeEP16QVectorTypedDataIiE)
    QVector<int>::begin()                    0x0001f2a9   Thumb Code    16  qgalleryquerymodel.o(t._ZN7QVectorIiE5beginEv)
    QVector<int>::erase(int*, int*)          0x0001f2b9   Thumb Code    94  qgalleryquerymodel.o(t._ZN7QVectorIiE5eraseEPiS1_)
    QVector<int>::append(const int&)         0x0001f317   Thumb Code   142  qgalleryquerymodel.o(t._ZN7QVectorIiE6appendERKi)
    QVector<int>::detach()                   0x0001f3a5   Thumb Code    24  qgalleryquerymodel.o(t._ZN7QVectorIiE6detachEv)
    QVector<int>::insert(int*, int, const int&) 0x0001f3bd   Thumb Code   222  qgalleryquerymodel.o(t._ZN7QVectorIiE6insertEPiiRKi)
    QVector<int>::insert(int, const int&)    0x0001f49b   Thumb Code    34  qgalleryquerymodel.o(t._ZN7QVectorIiE6insertEiRKi)
    QVector<int>::malloc(int)                0x0001f4bd   Thumb Code    52  qgalleryquerymodel.o(t._ZN7QVectorIiE6mallocEi)
    QVector<int>::realloc(int, int)          0x0001f4f1   Thumb Code   412  qgalleryquerymodel.o(t._ZN7QVectorIiE7reallocEii)
    QVector<int>::QVector()                  0x0001f695   Thumb Code    18  qgalleryquerymodel.o(t._ZN7QVectorIiEC1Ev)
    QVector<int>::QVector__sub_object()      0x0001f695   Thumb Code     0  qgalleryquerymodel.o(t._ZN7QVectorIiEC1Ev)
    QVector<int>::~QVector()                 0x0001f6ad   Thumb Code    34  qgalleryquerymodel.o(t._ZN7QVectorIiED1Ev)
    QVector<int>::~QVector__sub_object()     0x0001f6ad   Thumb Code     0  qgalleryquerymodel.o(t._ZN7QVectorIiED1Ev)
    QVector<int>::operator =(const QVector<int>&) 0x0001f6cf   Thumb Code    54  qgalleryquerymodel.o(t._ZN7QVectorIiEaSERKS0_)
    QVector<int>::operator [](int)           0x0001f705   Thumb Code    26  qgalleryquerymodel.o(t._ZN7QVectorIiEixEi)
    QHashNode<int, QString>::QHashNode(int, const QString&) 0x0001f71f   Thumb Code    26  qgalleryquerymodel.o(t._ZN9QHashNodeIi7QStringEC1EiRKS0_)
    QHashNode<int, QString>::QHashNode__sub_object(int, const QString&) 0x0001f71f   Thumb Code     0  qgalleryquerymodel.o(t._ZN9QHashNodeIi7QStringEC1EiRKS0_)
    QHashNode<int, QVariant>::QHashNode(int, const QVariant&) 0x0001f739   Thumb Code    26  qgalleryquerymodel.o(t._ZN9QHashNodeIi8QVariantEC1EiRKS0_)
    QHashNode<int, QVariant>::QHashNode__sub_object(int, const QVariant&) 0x0001f739   Thumb Code     0  qgalleryquerymodel.o(t._ZN9QHashNodeIi8QVariantEC1EiRKS0_)
    TMdERange<TTime>::TMdERange(const TTime&, const TTime&, TMdERangeType) 0x0001f753   Thumb Code    22  qgallerymdsutility.o(t._ZN9TMdERangeI5TTimeEC1ERKS0_S3_13TMdERangeType)
    TMdERange<TTime>::TMdERange__sub_object(const TTime&, const TTime&, TMdERangeType) 0x0001f753   Thumb Code     0  qgallerymdsutility.o(t._ZN9TMdERangeI5TTimeEC1ERKS0_S3_13TMdERangeType)
    TMdERange<double>::TMdERange(const double&, const double&, TMdERangeType) 0x0001f769   Thumb Code    22  qgallerymdsutility.o(t._ZN9TMdERangeIdEC1ERKdS2_13TMdERangeType)
    TMdERange<double>::TMdERange__sub_object(const double&, const double&, TMdERangeType) 0x0001f769   Thumb Code     0  qgallerymdsutility.o(t._ZN9TMdERangeIdEC1ERKdS2_13TMdERangeType)
    TMdERange<long long>::TMdERange(const long long&, const long long&, TMdERangeType) 0x0001f77f   Thumb Code    22  qgallerymdsutility.o(t._ZN9TMdERangeIxEC1ERKxS2_13TMdERangeType)
    TMdERange<long long>::TMdERange__sub_object(const long long&, const long long&, TMdERangeType) 0x0001f77f   Thumb Code     0  qgallerymdsutility.o(t._ZN9TMdERangeIxEC1ERKxS2_13TMdERangeType)
    QWeakPointer<QtMobility::QAbstractGallery>::data() const 0x0001f795   Thumb Code    34  qgalleryabstractrequest.o(t._ZNK12QWeakPointerIN10QtMobility16QAbstractGalleryEE4dataEv)
    QWeakPointer<QtMobility::QAbstractGallery>::isNull() const 0x0001f7b7   Thumb Code    40  qgalleryabstractrequest.o(t._ZNK12QWeakPointerIN10QtMobility16QAbstractGalleryEE6isNullEv)
    RPointerArray<CMdEObject>::operator [](int) const 0x0001f7df   Thumb Code    16  qmdegalleryresultset.o(t._ZNK13RPointerArrayI10CMdEObjectEixEi)
    QScopedPointer<CMdEObjectQuery, QScopedPointerDeleter<CMdEObjectQuery>>::operator CMdEObjectQuery*QScopedPointer<CMdEObjectQuery, QScopedPointerDeleter<CMdEObjectQuery>>::*() const 0x0001f7ef   Thumb Code    30  qmdegallerytyperesultset.o(t._ZNK14QScopedPointerI15CMdEObjectQuery21QScopedPointerDeleterIS0_EEcvMS3_PS0_Ev)
    QScopedPointer<QtMobility::QGalleryAbstractResponse, QScopedPointerDeleter<QtMobility::QGalleryAbstractResponse>>::operator QtMobility::QGalleryAbstractResponse*QScopedPointer<QtMobility::QGalleryAbstractResponse, QScopedPointerDeleter<QtMobility::QGalleryAbstractResponse>>::*() const 0x0001f80d   Thumb Code    30  qgalleryabstractrequest.o(t._ZNK14QScopedPointerIN10QtMobility24QGalleryAbstractResponseE21QScopedPointerDeleterIS1_EEcvMS4_PS1_Ev)
    QMap<int, QVariant>::mutableFindNode(QMapData::Node**, const int&) const 0x0001f82b   Thumb Code   108  qmdegalleryresultset.o(t._ZNK4QMapIi8QVariantE15mutableFindNodeEPPN8QMapData4NodeERKi)
    QMap<int, QVariant>::value(const int&) const 0x0001f897   Thumb Code   196  qgalleryresource.o(t._ZNK4QMapIi8QVariantE5valueERKi)
    QMap<int, QVariant>::operator ==(const QMap<int, QVariant>&) const 0x0001f95b   Thumb Code   234  qgalleryresource.o(t._ZNK4QMapIi8QVariantEeqERKS1_)
    QHash<int, QString>::const_iterator::operator !=(const QHash<int, QString>::const_iterator&) const 0x0001fa45   Thumb Code    18  qgalleryquerymodel.o(t._ZNK5QHashIi7QStringE14const_iteratorneERKS2_)
    QHash<int, QString>::begin() const       0x0001fa57   Thumb Code    44  qgalleryquerymodel.o(t._ZNK5QHashIi7QStringE5beginEv)
    QHash<int, QString>::values() const      0x0001fa83   Thumb Code    94  qgalleryquerymodel.o(t._ZNK5QHashIi7QStringE6valuesEv)
    QHash<int, QString>::contains(const int&) const 0x0001faeb   Thumb Code    32  qgalleryquerymodel.o(t._ZNK5QHashIi7QStringE8containsERKi)
    QHash<int, QString>::findNode(const int&, unsigned*) const 0x0001fb0b   Thumb Code    94  qgalleryquerymodel.o(t._ZNK5QHashIi7QStringE8findNodeERKiPj)
    QHash<int, QVariant>::findNode(const int&, unsigned*) const 0x0001fb69   Thumb Code    94  qgalleryquerymodel.o(t._ZNK5QHashIi8QVariantE8findNodeERKiPj)
    QList<QString>::const_iterator::operator !=(const QList<QString>::const_iterator&) const 0x0001fbc7   Thumb Code    18  qmdegallerycategoryresultset.o(t._ZNK5QListI7QStringE14const_iteratorneERKS2_)
    QList<QString>::count() const            0x0001fbd9   Thumb Code    16  qmdegallerycategoryresultset.o(t._ZNK5QListI7QStringE5countEv)
    QList<QString>::indexOf(const QString&, int) const 0x0001fbe9   Thumb Code   148  qmdegallerycategoryresultset.o(t._ZNK5QListI7QStringE7indexOfERKS0_i)
    QList<QString>::isEmpty() const          0x0001fc7d   Thumb Code    24  qgalleryquerymodel.o(t._ZNK5QListI7QStringE7isEmptyEv)
    QList<QString>::operator ==(const QList<QString>&) const 0x0001fc95   Thumb Code   122  qgalleryitemrequest.o(t._ZNK5QListI7QStringEeqERKS1_)
    QList<QString>::operator !=(const QList<QString>&) const 0x0001fd0f   Thumb Code    20  qgalleryqueryrequest.o(t._ZNK5QListI7QStringEneERKS1_)
    QList<QtMobility::QGalleryFilter>::const_iterator::operator !=(const QList<QtMobility::QGalleryFilter>::const_iterator&) const 0x0001fd23   Thumb Code    18  qgalleryfilter.o(t._ZNK5QListIN10QtMobility14QGalleryFilterEE14const_iteratorneERKS3_)
    QList<QtMobility::QGalleryFilter>::end() const 0x0001fd35   Thumb Code    20  qgalleryfilter.o(t._ZNK5QListIN10QtMobility14QGalleryFilterEE3endEv)
    QList<QtMobility::QGalleryFilter>::mid(int, int) const 0x0001fd49   Thumb Code   152  qgalleryfilter.o(t._ZNK5QListIN10QtMobility14QGalleryFilterEE3midEii)
    QList<QtMobility::QGalleryFilter>::size() const 0x0001fdf1   Thumb Code    12  qgalleryfilter.o(t._ZNK5QListIN10QtMobility14QGalleryFilterEE4sizeEv)
    QList<QtMobility::QGalleryFilter>::isEmpty() const 0x0001fdfd   Thumb Code    24  qgalleryfilter.o(t._ZNK5QListIN10QtMobility14QGalleryFilterEE7isEmptyEv)
    QList<QtMobility::QGalleryFilter>::operator ==(const QList<QtMobility::QGalleryFilter>&) const 0x0001fe15   Thumb Code   110  qgalleryfilter.o(t._ZNK5QListIN10QtMobility14QGalleryFilterEEeqERKS2_)
    QList<QtMobility::QGalleryFilter>::operator +(const QList<QtMobility::QGalleryFilter>&) const 0x0001fe83   Thumb Code    28  qgalleryfilter.o(t._ZNK5QListIN10QtMobility14QGalleryFilterEEplERKS2_)
    QList<int>::contains(const int&) const   0x0001fea9   Thumb Code    66  qgalleryquerymodel.o(t._ZNK5QListIiE8containsERKi)
    QFlags<QtMobility::QGalleryProperty::Attribute>::operator |(QtMobility::QGalleryProperty::Attribute) const 0x0001feeb   Thumb Code    16  qmdegalleryresultset.o(t._ZNK6QFlagsIN10QtMobility16QGalleryProperty9AttributeEEorES2_)
    RArray<unsigned long>::Find(const unsigned long&) const 0x0001fefb   Thumb Code    16  qmdegalleryqueryresultset.o(t._ZNK6RArrayImE4FindERKm)
    QVector<QHash<int, QString>>::value(int) const 0x0001ff0b   Thumb Code    48  qgalleryquerymodel.o(t._ZNK7QVectorI5QHashIi7QStringEE5valueEi)
    QVector<QHash<int, QVariant>>::value(int) const 0x0001ff3b   Thumb Code    48  qgalleryquerymodel.o(t._ZNK7QVectorI5QHashIi8QVariantEE5valueEi)
    QVector<QFlags<Qt::ItemFlag>>::value(int) const 0x0001ff6b   Thumb Code    40  qgalleryquerymodel.o(t._ZNK7QVectorI6QFlagsIN2Qt8ItemFlagEEE5valueEi)
    QVector<int>::at(int) const              0x0001ff93   Thumb Code    14  qgalleryquerymodel.o(t._ZNK7QVectorIiE2atEi)
    QtMobility::QAbstractGallery::staticMetaObject 0x000238fc   Data          16  qabstractgallery.o(.constdata)
    QtMobility::QDocumentGallery::File       0x0002395c   Data           8  qdocumentgallery.o(.constdata)
    QtMobility::QDocumentGallery::Folder     0x00023964   Data           8  qdocumentgallery.o(.constdata)
    QtMobility::QDocumentGallery::Document   0x0002396c   Data           8  qdocumentgallery.o(.constdata)
    QtMobility::QDocumentGallery::Text       0x00023974   Data           8  qdocumentgallery.o(.constdata)
    QtMobility::QDocumentGallery::Audio      0x0002397c   Data           8  qdocumentgallery.o(.constdata)
    QtMobility::QDocumentGallery::Image      0x00023984   Data           8  qdocumentgallery.o(.constdata)
    QtMobility::QDocumentGallery::Video      0x0002398c   Data           8  qdocumentgallery.o(.constdata)
    QtMobility::QDocumentGallery::Playlist   0x00023994   Data           8  qdocumentgallery.o(.constdata)
    QtMobility::QDocumentGallery::Artist     0x0002399c   Data           8  qdocumentgallery.o(.constdata)
    QtMobility::QDocumentGallery::AlbumArtist 0x000239a4   Data           8  qdocumentgallery.o(.constdata)
    QtMobility::QDocumentGallery::Album      0x000239ac   Data           8  qdocumentgallery.o(.constdata)
    QtMobility::QDocumentGallery::AudioGenre 0x000239b4   Data           8  qdocumentgallery.o(.constdata)
    QtMobility::QDocumentGallery::PhotoAlbum 0x000239bc   Data           8  qdocumentgallery.o(.constdata)
    QtMobility::QDocumentGallery::url        0x000239c4   Data           8  qdocumentgallery.o(.constdata)
    QtMobility::QDocumentGallery::author     0x000239cc   Data           8  qdocumentgallery.o(.constdata)
    QtMobility::QDocumentGallery::copyright  0x000239d4   Data           8  qdocumentgallery.o(.constdata)
    QtMobility::QDocumentGallery::description 0x000239dc   Data           8  qdocumentgallery.o(.constdata)
    QtMobility::QDocumentGallery::comments   0x000239e4   Data           8  qdocumentgallery.o(.constdata)
    QtMobility::QDocumentGallery::rating     0x000239ec   Data           8  qdocumentgallery.o(.constdata)
    QtMobility::QDocumentGallery::title      0x000239f4   Data           8  qdocumentgallery.o(.constdata)
    QtMobility::QDocumentGallery::subject    0x000239fc   Data           8  qdocumentgallery.o(.constdata)
    QtMobility::QDocumentGallery::keywords   0x00023a04   Data           8  qdocumentgallery.o(.constdata)
    QtMobility::QDocumentGallery::language   0x00023a0c   Data           8  qdocumentgallery.o(.constdata)
    QtMobility::QDocumentGallery::path       0x00023a14   Data           8  qdocumentgallery.o(.constdata)
    QtMobility::QDocumentGallery::filePath   0x00023a1c   Data           8  qdocumentgallery.o(.constdata)
    QtMobility::QDocumentGallery::fileName   0x00023a24   Data           8  qdocumentgallery.o(.constdata)
    QtMobility::QDocumentGallery::fileExtension 0x00023a2c   Data           8  qdocumentgallery.o(.constdata)
    QtMobility::QDocumentGallery::fileSize   0x00023a34   Data           8  qdocumentgallery.o(.constdata)
    QtMobility::QDocumentGallery::mimeType   0x00023a3c   Data           8  qdocumentgallery.o(.constdata)
    QtMobility::QDocumentGallery::lastModified 0x00023a44   Data           8  qdocumentgallery.o(.constdata)
    QtMobility::QDocumentGallery::lastAccessed 0x00023a4c   Data           8  qdocumentgallery.o(.constdata)
    QtMobility::QDocumentGallery::pageCount  0x00023a54   Data           8  qdocumentgallery.o(.constdata)
    QtMobility::QDocumentGallery::wordCount  0x00023a5c   Data           8  qdocumentgallery.o(.constdata)
    QtMobility::QDocumentGallery::created    0x00023a64   Data           8  qdocumentgallery.o(.constdata)
    QtMobility::QDocumentGallery::duration   0x00023a6c   Data           8  qdocumentgallery.o(.constdata)
    QtMobility::QDocumentGallery::producer   0x00023a74   Data           8  qdocumentgallery.o(.constdata)
    QtMobility::QDocumentGallery::lastPlayed 0x00023a7c   Data           8  qdocumentgallery.o(.constdata)
    QtMobility::QDocumentGallery::playCount  0x00023a84   Data           8  qdocumentgallery.o(.constdata)
    QtMobility::QDocumentGallery::performer  0x00023a8c   Data           8  qdocumentgallery.o(.constdata)
    QtMobility::QDocumentGallery::audioCodec 0x00023a94   Data           8  qdocumentgallery.o(.constdata)
    QtMobility::QDocumentGallery::audioBitRate 0x00023a9c   Data           8  qdocumentgallery.o(.constdata)
    QtMobility::QDocumentGallery::sampleRate 0x00023aa4   Data           8  qdocumentgallery.o(.constdata)
    QtMobility::QDocumentGallery::channelCount 0x00023aac   Data           8  qdocumentgallery.o(.constdata)
    QtMobility::QDocumentGallery::artist     0x00023ab4   Data           8  qdocumentgallery.o(.constdata)
    QtMobility::QDocumentGallery::albumArtist 0x00023abc   Data           8  qdocumentgallery.o(.constdata)
    QtMobility::QDocumentGallery::albumTitle 0x00023ac4   Data           8  qdocumentgallery.o(.constdata)
    QtMobility::QDocumentGallery::composer   0x00023acc   Data           8  qdocumentgallery.o(.constdata)
    QtMobility::QDocumentGallery::genre      0x00023ad4   Data           8  qdocumentgallery.o(.constdata)
    QtMobility::QDocumentGallery::lyrics     0x00023adc   Data           8  qdocumentgallery.o(.constdata)
    QtMobility::QDocumentGallery::trackCount 0x00023ae4   Data           8  qdocumentgallery.o(.constdata)
    QtMobility::QDocumentGallery::trackNumber 0x00023aec   Data           8  qdocumentgallery.o(.constdata)
    QtMobility::QDocumentGallery::discNumber 0x00023af4   Data           8  qdocumentgallery.o(.constdata)
    QtMobility::QDocumentGallery::width      0x00023afc   Data           8  qdocumentgallery.o(.constdata)
    QtMobility::QDocumentGallery::height     0x00023b04   Data           8  qdocumentgallery.o(.constdata)
    QtMobility::QDocumentGallery::orientation 0x00023b0c   Data           8  qdocumentgallery.o(.constdata)
    QtMobility::QDocumentGallery::dateTaken  0x00023b14   Data           8  qdocumentgallery.o(.constdata)
    QtMobility::QDocumentGallery::cameraManufacturer 0x00023b1c   Data           8  qdocumentgallery.o(.constdata)
    QtMobility::QDocumentGallery::cameraModel 0x00023b24   Data           8  qdocumentgallery.o(.constdata)
    QtMobility::QDocumentGallery::exposureProgram 0x00023b2c   Data           8  qdocumentgallery.o(.constdata)
    QtMobility::QDocumentGallery::exposureTime 0x00023b34   Data           8  qdocumentgallery.o(.constdata)
    QtMobility::QDocumentGallery::fNumber    0x00023b3c   Data           8  qdocumentgallery.o(.constdata)
    QtMobility::QDocumentGallery::flashEnabled 0x00023b44   Data           8  qdocumentgallery.o(.constdata)
    QtMobility::QDocumentGallery::focalLength 0x00023b4c   Data           8  qdocumentgallery.o(.constdata)
    QtMobility::QDocumentGallery::meteringMode 0x00023b54   Data           8  qdocumentgallery.o(.constdata)
    QtMobility::QDocumentGallery::whiteBalance 0x00023b5c   Data           8  qdocumentgallery.o(.constdata)
    QtMobility::QDocumentGallery::frameRate  0x00023b64   Data           8  qdocumentgallery.o(.constdata)
    QtMobility::QDocumentGallery::videoCodec 0x00023b6c   Data           8  qdocumentgallery.o(.constdata)
    QtMobility::QDocumentGallery::videoBitRate 0x00023b74   Data           8  qdocumentgallery.o(.constdata)
    QtMobility::QDocumentGallery::resumePosition 0x00023b7c   Data           8  qdocumentgallery.o(.constdata)
    QtMobility::QDocumentGallery::director   0x00023b84   Data           8  qdocumentgallery.o(.constdata)
    QtMobility::QDocumentGallery::count      0x00023b8c   Data           8  qdocumentgallery.o(.constdata)
    QtMobility::QGalleryAbstractRequest::staticMetaObject 0x00023b94   Data          16  qgalleryabstractrequest.o(.constdata)
    QtMobility::QGalleryAbstractResponse::staticMetaObject 0x00024008   Data          16  qgalleryabstractresponse.o(.constdata)
    QtMobility::QGalleryItemRequest::staticMetaObject 0x00024108   Data          16  qgalleryitemrequest.o(.constdata)
    QtMobility::QGalleryQueryModel::staticMetaObject 0x00024464   Data          16  qgalleryquerymodel.o(.constdata)
    QtMobility::QGalleryQueryRequest::staticMetaObject 0x000249bc   Data          16  qgalleryqueryrequest.o(.constdata)
    QtMobility::QGalleryResultSet::staticMetaObject 0x00024e18   Data          16  qgalleryresultset.o(.constdata)
    QtMobility::QGalleryTypeRequest::staticMetaObject 0x00024fb8   Data          16  qgallerytyperequest.o(.constdata)
    QtMobility::QMDEGalleryResultSet::staticMetaObject 0x000252a4   Data          16  qmdegalleryresultset.o(.constdata)
    QtMobility::QMDEGalleryTypeResultSet::staticMetaObject 0x0002570c   Data          16  qmdegallerytyperesultset.o(.constdata)
    QtMobility::QMDEGalleryItemResultSet::staticMetaObject 0x00025774   Data          16  qmdegalleryitemresultset.o(.constdata)
    QtMobility::QMDEGalleryQueryResultSet::staticMetaObject 0x000257dc   Data          16  qmdegalleryqueryresultset.o(.constdata)
    QtMobility::QMDEGalleryCategoryResultSet::staticMetaObject 0x00025844   Data          16  qmdegallerycategoryresultset.o(.constdata)
    QtMobility::QMdeSession::staticMetaObject 0x00025928   Data          16  qmdesession.o(.constdata)
    QtMobility::QDocumentGallery::staticMetaObject 0x000259e4   Data          16  qdocumentgallery_symbian.o(.constdata)
    stlp_priv::_Integer_limits<signed char, (signed char)-128, (signed char)127, (int)-1, (bool)1>::digits 0x00025a44   Data           4  qabstractgallery.o(.constdata__ZN9stlp_priv15_Integer_limitsIaLan128ELa127ELin1ELb1EE6digitsE)
    stlp_priv::_Integer_limits<bool, (bool)0, (bool)1, (int)1, (bool)0>::digits 0x00025a48   Data           4  qabstractgallery.o(.constdata__ZN9stlp_priv15_Integer_limitsIbLb0ELb1ELi1ELb0EE6digitsE)
    stlp_priv::_Integer_limits<char, (char)128, (char)127, (int)-1, (bool)1>::digits 0x00025a4c   Data           4  qabstractgallery.o(.constdata__ZN9stlp_priv15_Integer_limitsIcLc128ELc127ELin1ELb1EE6digitsE)
    stlp_priv::_Integer_limits<unsigned char, (unsigned char)0, (unsigned char)255, (int)-1, (bool)1>::digits 0x00025a50   Data           4  qabstractgallery.o(.constdata__ZN9stlp_priv15_Integer_limitsIhLh0ELh255ELin1ELb1EE6digitsE)
    stlp_priv::_Integer_limits<int, (int)-2147483648, (int)2147483647, (int)-1, (bool)1>::digits 0x00025a54   Data           4  qabstractgallery.o(.constdata__ZN9stlp_priv15_Integer_limitsIiLin2147483648ELi2147483647ELin1ELb1EE6digitsE)
    stlp_priv::_Integer_limits<int, (int)-2147483648, (int)2147483647, (int)-1, (bool)1>::is_signed 0x00025a58   Data           1  qabstractgallery.o(.constdata__ZN9stlp_priv15_Integer_limitsIiLin2147483648ELi2147483647ELin1ELb1EE9is_signedE)
    stlp_priv::_Integer_limits<unsigned, (unsigned)0, (unsigned)4294967295, (int)-1, (bool)1>::digits 0x00025a5c   Data           4  qabstractgallery.o(.constdata__ZN9stlp_priv15_Integer_limitsIjLj0ELj4294967295ELin1ELb1EE6digitsE)
    stlp_priv::_Integer_limits<long, (long)-2147483648, (long)2147483647, (int)-1, (bool)1>::digits 0x00025a60   Data           4  qabstractgallery.o(.constdata__ZN9stlp_priv15_Integer_limitsIlLln2147483648ELl2147483647ELin1ELb1EE6digitsE)
    stlp_priv::_Integer_limits<unsigned long, (unsigned long)0, (unsigned long)4294967295, (int)-1, (bool)1>::digits 0x00025a64   Data           4  qabstractgallery.o(.constdata__ZN9stlp_priv15_Integer_limitsImLm0ELm4294967295ELin1ELb1EE6digitsE)
    stlp_priv::_Integer_limits<short, (short)-32768, (short)32767, (int)-1, (bool)1>::digits 0x00025a68   Data           4  qabstractgallery.o(.constdata__ZN9stlp_priv15_Integer_limitsIsLsn32768ELs32767ELin1ELb1EE6digitsE)
    stlp_priv::_Integer_limits<unsigned short, (unsigned short)0, (unsigned short)65535, (int)-1, (bool)1>::digits 0x00025a6c   Data           4  qabstractgallery.o(.constdata__ZN9stlp_priv15_Integer_limitsItLt0ELt65535ELin1ELb1EE6digitsE)
    stlp_priv::_Integer_limits<wchar_t, (wchar_t)0, (wchar_t)65535, (int)-1, (bool)1>::digits 0x00025a70   Data           4  qabstractgallery.o(.constdata__ZN9stlp_priv15_Integer_limitsIwLw0ELw65535ELin1ELb1EE6digitsE)
    stlp_priv::_Integer_limits<long long, (long long)-9223372036854775808, (long long)9223372036854775807, (int)-1, (bool)1>::digits 0x00025a74   Data           4  qabstractgallery.o(.constdata__ZN9stlp_priv15_Integer_limitsIxLxn9223372036854775808ELx9223372036854775807ELin1ELb1EE6digitsE)
    stlp_priv::_Integer_limits<unsigned long long, (unsigned long long)0, (unsigned long long)18446744073709551615, (int)-1, (bool)1>::digits 0x00025a78   Data           4  qabstractgallery.o(.constdata__ZN9stlp_priv15_Integer_limitsIyLy0ELy18446744073709551615ELin1ELb1EE6digitsE)
    typeinfo for QSharedData                 0x00025a7c   Data           8  qgalleryfilter.o(.constdata__ZTI11QSharedData)
    typeinfo for MMdEQueryObserver           0x00025a84   Data           8  qmdegallerytyperesultset.o(.constdata__ZTI17MMdEQueryObserver)
    typeinfo for MMdEObjectObserver          0x00025a8c   Data           8  qmdegalleryitemresultset.o(.constdata__ZTI18MMdEObjectObserver)
    typeinfo for MMdESessionObserver         0x00025a94   Data           8  qmdesession.o(.constdata__ZTI19MMdESessionObserver)
    typeinfo for QtMobility::QMdeSession     0x00025a9c   Data          32  qmdesession.o(.constdata__ZTIN10QtMobility11QMdeSessionE)
    typeinfo for QtMobility::QAbstractGallery 0x00025abc   Data          12  qabstractgallery.o(.constdata__ZTIN10QtMobility16QAbstractGalleryE)
    typeinfo for QtMobility::QDocumentGallery 0x00025ac8   Data          12  qdocumentgallery_symbian.o(.constdata__ZTIN10QtMobility16QDocumentGalleryE)
    typeinfo for QtMobility::QGalleryResultSet 0x00025ad4   Data          12  qgalleryresultset.o(.constdata__ZTIN10QtMobility17QGalleryResultSetE)
    typeinfo for QtMobility::QGalleryQueryModel 0x00025ae0   Data          12  qgalleryquerymodel.o(.constdata__ZTIN10QtMobility18QGalleryQueryModelE)
    typeinfo for QtMobility::QGalleryItemRequest 0x00025aec   Data          12  qgalleryitemrequest.o(.constdata__ZTIN10QtMobility19QGalleryItemRequestE)
    typeinfo for QtMobility::QGalleryTypeRequest 0x00025af8   Data          12  qgallerytyperequest.o(.constdata__ZTIN10QtMobility19QGalleryTypeRequestE)
    typeinfo for QtMobility::QGalleryQueryRequest 0x00025b04   Data          12  qgalleryqueryrequest.o(.constdata__ZTIN10QtMobility20QGalleryQueryRequestE)
    typeinfo for QtMobility::QMDEGalleryResultSet 0x00025b10   Data          12  qmdegalleryresultset.o(.constdata__ZTIN10QtMobility20QMDEGalleryResultSetE)
    typeinfo for QtMobility::QGalleryFilterPrivate 0x00025b1c   Data          24  qgalleryfilter.o(.constdata__ZTIN10QtMobility21QGalleryFilterPrivateE)
    typeinfo for QtMobility::QGalleryNullResultSet 0x00025b34   Data          12  qgalleryitemrequest.o(.constdata__ZTIN10QtMobility21QGalleryNullResultSetE)
    typeinfo for QtMobility::QAbstractGalleryPrivate 0x00025b40   Data           8  qdocumentgallery_symbian.o(.constdata__ZTIN10QtMobility23QAbstractGalleryPrivateE)
    typeinfo for QtMobility::QDocumentGalleryPrivate 0x00025b48   Data          12  qdocumentgallery_symbian.o(.constdata__ZTIN10QtMobility23QDocumentGalleryPrivateE)
    typeinfo for QtMobility::QGalleryAbstractRequest 0x00025b54   Data          12  qgalleryabstractrequest.o(.constdata__ZTIN10QtMobility23QGalleryAbstractRequestE)
    typeinfo for QtMobility::QGalleryAbstractResponse 0x00025b60   Data          12  qgalleryabstractresponse.o(.constdata__ZTIN10QtMobility24QGalleryAbstractResponseE)
    typeinfo for QtMobility::QGalleryResultSetPrivate 0x00025b6c   Data          12  qgalleryresultset.o(.constdata__ZTIN10QtMobility24QGalleryResultSetPrivateE)
    typeinfo for QtMobility::QMDEGalleryItemResultSet 0x00025b78   Data          32  qmdegalleryitemresultset.o(.constdata__ZTIN10QtMobility24QMDEGalleryItemResultSetE)
    typeinfo for QtMobility::QMDEGalleryTypeResultSet 0x00025b98   Data          32  qmdegallerytyperesultset.o(.constdata__ZTIN10QtMobility24QMDEGalleryTypeResultSetE)
    typeinfo for QtMobility::QMDEGalleryQueryResultSet 0x00025bb8   Data          40  qmdegalleryqueryresultset.o(.constdata__ZTIN10QtMobility25QMDEGalleryQueryResultSetE)
    typeinfo for QtMobility::QGalleryItemRequestPrivate 0x00025be0   Data          12  qgalleryitemrequest.o(.constdata__ZTIN10QtMobility26QGalleryItemRequestPrivateE)
    typeinfo for QtMobility::QGalleryTypeRequestPrivate 0x00025bec   Data          12  qgallerytyperequest.o(.constdata__ZTIN10QtMobility26QGalleryTypeRequestPrivateE)
    typeinfo for QtMobility::QGalleryUnionFilterPrivate 0x00025bf8   Data          12  qgalleryfilter.o(.constdata__ZTIN10QtMobility26QGalleryUnionFilterPrivateE)
    typeinfo for QtMobility::QGalleryQueryRequestPrivate 0x00025c04   Data          12  qgalleryqueryrequest.o(.constdata__ZTIN10QtMobility27QGalleryQueryRequestPrivateE)
    typeinfo for QtMobility::QGalleryInvalidFilterPrivate 0x00025c10   Data          12  qgalleryfilter.o(.constdata__ZTIN10QtMobility28QGalleryInvalidFilterPrivateE)
    typeinfo for QtMobility::QMDEGalleryCategoryResultSet 0x00025c1c   Data          32  qmdegallerycategoryresultset.o(.constdata__ZTIN10QtMobility28QMDEGalleryCategoryResultSetE)
    typeinfo for QtMobility::QGalleryMetaDataFilterPrivate 0x00025c3c   Data          12  qgalleryfilter.o(.constdata__ZTIN10QtMobility29QGalleryMetaDataFilterPrivateE)
    typeinfo for QtMobility::QGalleryAbstractRequestPrivate 0x00025c48   Data           8  qgalleryabstractrequest.o(.constdata__ZTIN10QtMobility30QGalleryAbstractRequestPrivateE)
    typeinfo for QtMobility::QGalleryAbstractResponsePrivate 0x00025c50   Data           8  qgalleryabstractresponse.o(.constdata__ZTIN10QtMobility31QGalleryAbstractResponsePrivateE)
    typeinfo for QtMobility::QGalleryIntersectionFilterPrivate 0x00025c58   Data          12  qgalleryfilter.o(.constdata__ZTIN10QtMobility33QGalleryIntersectionFilterPrivateE)
    typeinfo name for QSharedData            0x00025c64   Data          14  qgalleryfilter.o(.constdata__ZTS11QSharedData)
    typeinfo name for MMdEQueryObserver      0x00025c72   Data          20  qmdegallerytyperesultset.o(.constdata__ZTS17MMdEQueryObserver)
    typeinfo name for MMdEObjectObserver     0x00025c86   Data          21  qmdegalleryitemresultset.o(.constdata__ZTS18MMdEObjectObserver)
    typeinfo name for MMdESessionObserver    0x00025c9b   Data          22  qmdesession.o(.constdata__ZTS19MMdESessionObserver)
    typeinfo name for QtMobility::QMdeSession 0x00025cb1   Data          28  qmdesession.o(.constdata__ZTSN10QtMobility11QMdeSessionE)
    typeinfo name for QtMobility::QAbstractGallery 0x00025ccd   Data          33  qabstractgallery.o(.constdata__ZTSN10QtMobility16QAbstractGalleryE)
    typeinfo name for QtMobility::QDocumentGallery 0x00025cee   Data          33  qdocumentgallery_symbian.o(.constdata__ZTSN10QtMobility16QDocumentGalleryE)
    typeinfo name for QtMobility::QGalleryResultSet 0x00025d0f   Data          34  qgalleryresultset.o(.constdata__ZTSN10QtMobility17QGalleryResultSetE)
    typeinfo name for QtMobility::QGalleryQueryModel 0x00025d31   Data          35  qgalleryquerymodel.o(.constdata__ZTSN10QtMobility18QGalleryQueryModelE)
    typeinfo name for QtMobility::QGalleryItemRequest 0x00025d54   Data          36  qgalleryitemrequest.o(.constdata__ZTSN10QtMobility19QGalleryItemRequestE)
    typeinfo name for QtMobility::QGalleryTypeRequest 0x00025d78   Data          36  qgallerytyperequest.o(.constdata__ZTSN10QtMobility19QGalleryTypeRequestE)
    typeinfo name for QtMobility::QGalleryQueryRequest 0x00025d9c   Data          37  qgalleryqueryrequest.o(.constdata__ZTSN10QtMobility20QGalleryQueryRequestE)
    typeinfo name for QtMobility::QMDEGalleryResultSet 0x00025dc1   Data          37  qmdegalleryresultset.o(.constdata__ZTSN10QtMobility20QMDEGalleryResultSetE)
    typeinfo name for QtMobility::QGalleryFilterPrivate 0x00025de6   Data          38  qgalleryfilter.o(.constdata__ZTSN10QtMobility21QGalleryFilterPrivateE)
    typeinfo name for QtMobility::QGalleryNullResultSet 0x00025e0c   Data          38  qgalleryitemrequest.o(.constdata__ZTSN10QtMobility21QGalleryNullResultSetE)
    typeinfo name for QtMobility::QAbstractGalleryPrivate 0x00025e32   Data          40  qdocumentgallery_symbian.o(.constdata__ZTSN10QtMobility23QAbstractGalleryPrivateE)
    typeinfo name for QtMobility::QDocumentGalleryPrivate 0x00025e5a   Data          40  qdocumentgallery_symbian.o(.constdata__ZTSN10QtMobility23QDocumentGalleryPrivateE)
    typeinfo name for QtMobility::QGalleryAbstractRequest 0x00025e82   Data          40  qgalleryabstractrequest.o(.constdata__ZTSN10QtMobility23QGalleryAbstractRequestE)
    typeinfo name for QtMobility::QGalleryAbstractResponse 0x00025eaa   Data          41  qgalleryabstractresponse.o(.constdata__ZTSN10QtMobility24QGalleryAbstractResponseE)
    typeinfo name for QtMobility::QGalleryResultSetPrivate 0x00025ed3   Data          41  qgalleryresultset.o(.constdata__ZTSN10QtMobility24QGalleryResultSetPrivateE)
    typeinfo name for QtMobility::QMDEGalleryItemResultSet 0x00025efc   Data          41  qmdegalleryitemresultset.o(.constdata__ZTSN10QtMobility24QMDEGalleryItemResultSetE)
    typeinfo name for QtMobility::QMDEGalleryTypeResultSet 0x00025f25   Data          41  qmdegallerytyperesultset.o(.constdata__ZTSN10QtMobility24QMDEGalleryTypeResultSetE)
    typeinfo name for QtMobility::QMDEGalleryQueryResultSet 0x00025f4e   Data          42  qmdegalleryqueryresultset.o(.constdata__ZTSN10QtMobility25QMDEGalleryQueryResultSetE)
    typeinfo name for QtMobility::QGalleryItemRequestPrivate 0x00025f78   Data          43  qgalleryitemrequest.o(.constdata__ZTSN10QtMobility26QGalleryItemRequestPrivateE)
    typeinfo name for QtMobility::QGalleryTypeRequestPrivate 0x00025fa3   Data          43  qgallerytyperequest.o(.constdata__ZTSN10QtMobility26QGalleryTypeRequestPrivateE)
    typeinfo name for QtMobility::QGalleryUnionFilterPrivate 0x00025fce   Data          43  qgalleryfilter.o(.constdata__ZTSN10QtMobility26QGalleryUnionFilterPrivateE)
    typeinfo name for QtMobility::QGalleryQueryRequestPrivate 0x00025ff9   Data          44  qgalleryqueryrequest.o(.constdata__ZTSN10QtMobility27QGalleryQueryRequestPrivateE)
    typeinfo name for QtMobility::QGalleryInvalidFilterPrivate 0x00026025   Data          45  qgalleryfilter.o(.constdata__ZTSN10QtMobility28QGalleryInvalidFilterPrivateE)
    typeinfo name for QtMobility::QMDEGalleryCategoryResultSet 0x00026052   Data          45  qmdegallerycategoryresultset.o(.constdata__ZTSN10QtMobility28QMDEGalleryCategoryResultSetE)
    typeinfo name for QtMobility::QGalleryMetaDataFilterPrivate 0x0002607f   Data          46  qgalleryfilter.o(.constdata__ZTSN10QtMobility29QGalleryMetaDataFilterPrivateE)
    typeinfo name for QtMobility::QGalleryAbstractRequestPrivate 0x000260ad   Data          47  qgalleryabstractrequest.o(.constdata__ZTSN10QtMobility30QGalleryAbstractRequestPrivateE)
    typeinfo name for QtMobility::QGalleryAbstractResponsePrivate 0x000260dc   Data          48  qgalleryabstractresponse.o(.constdata__ZTSN10QtMobility31QGalleryAbstractResponsePrivateE)
    typeinfo name for QtMobility::QGalleryIntersectionFilterPrivate 0x0002610c   Data          50  qgalleryfilter.o(.constdata__ZTSN10QtMobility33QGalleryIntersectionFilterPrivateE)
    vtable for MMdEQueryObserver             0x00026140   Data          16  qmdegallerytyperesultset.o(.constdata__ZTV17MMdEQueryObserver)
    vtable for MMdEObjectObserver            0x00026150   Data          12  qmdegalleryitemresultset.o(.constdata__ZTV18MMdEObjectObserver)
    vtable for MMdESessionObserver           0x0002615c   Data          16  qmdesession.o(.constdata__ZTV19MMdESessionObserver)
    vtable for QtMobility::QMdeSession       0x0002616c   Data          80  qmdesession.o(.constdata__ZTVN10QtMobility11QMdeSessionE)
    vtable for QtMobility::QAbstractGallery  0x000261bc   Data          64  qabstractgallery.o(.constdata__ZTVN10QtMobility16QAbstractGalleryE)
    vtable for QtMobility::QDocumentGallery  0x000261fc   Data          64  qdocumentgallery_symbian.o(.constdata__ZTVN10QtMobility16QDocumentGalleryE)
    vtable for QtMobility::QGalleryResultSet 0x0002623c   Data         132  qgalleryresultset.o(.constdata__ZTVN10QtMobility17QGalleryResultSetE)
    vtable for QtMobility::QGalleryQueryModel 0x000262c0   Data         168  qgalleryquerymodel.o(.constdata__ZTVN10QtMobility18QGalleryQueryModelE)
    vtable for QtMobility::QGalleryItemRequest 0x00026368   Data          60  qgalleryitemrequest.o(.constdata__ZTVN10QtMobility19QGalleryItemRequestE)
    vtable for QtMobility::QGalleryTypeRequest 0x000263a4   Data          60  qgallerytyperequest.o(.constdata__ZTVN10QtMobility19QGalleryTypeRequestE)
    vtable for QtMobility::QGalleryQueryRequest 0x000263e0   Data          60  qgalleryqueryrequest.o(.constdata__ZTVN10QtMobility20QGalleryQueryRequestE)
    vtable for QtMobility::QMDEGalleryResultSet 0x0002641c   Data         140  qmdegalleryresultset.o(.constdata__ZTVN10QtMobility20QMDEGalleryResultSetE)
    vtable for QtMobility::QGalleryFilterPrivate 0x000264a8   Data          24  qgalleryfilter.o(.constdata__ZTVN10QtMobility21QGalleryFilterPrivateE)
    vtable for QtMobility::QGalleryNullResultSet 0x000264c0   Data         132  qgalleryitemrequest.o(.constdata__ZTVN10QtMobility21QGalleryNullResultSetE)
    vtable for QtMobility::QAbstractGalleryPrivate 0x00026544   Data          16  qdocumentgallery_symbian.o(.constdata__ZTVN10QtMobility23QAbstractGalleryPrivateE)
    vtable for QtMobility::QDocumentGalleryPrivate 0x00026554   Data          16  qdocumentgallery_symbian.o(.constdata__ZTVN10QtMobility23QDocumentGalleryPrivateE)
    vtable for QtMobility::QGalleryAbstractRequest 0x00026564   Data          60  qgalleryabstractrequest.o(.constdata__ZTVN10QtMobility23QGalleryAbstractRequestE)
    vtable for QtMobility::QGalleryAbstractResponse 0x000265a0   Data          64  qgalleryabstractresponse.o(.constdata__ZTVN10QtMobility24QGalleryAbstractResponseE)
    vtable for QtMobility::QGalleryResultSetPrivate 0x000265e0   Data          16  qgalleryresultset.o(.constdata__ZTVN10QtMobility24QGalleryResultSetPrivateE)
    vtable for QtMobility::QMDEGalleryItemResultSet 0x000265f0   Data         156  qmdegalleryitemresultset.o(.constdata__ZTVN10QtMobility24QMDEGalleryItemResultSetE)
    vtable for QtMobility::QMDEGalleryTypeResultSet 0x0002668c   Data         156  qmdegallerytyperesultset.o(.constdata__ZTVN10QtMobility24QMDEGalleryTypeResultSetE)
    vtable for QtMobility::QMDEGalleryQueryResultSet 0x00026728   Data         180  qmdegalleryqueryresultset.o(.constdata__ZTVN10QtMobility25QMDEGalleryQueryResultSetE)
    vtable for QtMobility::QGalleryItemRequestPrivate 0x000267dc   Data          16  qgalleryitemrequest.o(.constdata__ZTVN10QtMobility26QGalleryItemRequestPrivateE)
    vtable for QtMobility::QGalleryTypeRequestPrivate 0x000267ec   Data          16  qgallerytyperequest.o(.constdata__ZTVN10QtMobility26QGalleryTypeRequestPrivateE)
    vtable for QtMobility::QGalleryUnionFilterPrivate 0x000267fc   Data          24  qgalleryfilter.o(.constdata__ZTVN10QtMobility26QGalleryUnionFilterPrivateE)
    vtable for QtMobility::QGalleryQueryRequestPrivate 0x00026814   Data          16  qgalleryqueryrequest.o(.constdata__ZTVN10QtMobility27QGalleryQueryRequestPrivateE)
    vtable for QtMobility::QGalleryInvalidFilterPrivate 0x00026824   Data          24  qgalleryfilter.o(.constdata__ZTVN10QtMobility28QGalleryInvalidFilterPrivateE)
    vtable for QtMobility::QMDEGalleryCategoryResultSet 0x0002683c   Data         156  qmdegallerycategoryresultset.o(.constdata__ZTVN10QtMobility28QMDEGalleryCategoryResultSetE)
    vtable for QtMobility::QGalleryMetaDataFilterPrivate 0x000268d8   Data          24  qgalleryfilter.o(.constdata__ZTVN10QtMobility29QGalleryMetaDataFilterPrivateE)
    vtable for QtMobility::QGalleryAbstractRequestPrivate 0x000268f0   Data          16  qgalleryabstractrequest.o(.constdata__ZTVN10QtMobility30QGalleryAbstractRequestPrivateE)
    vtable for QtMobility::QGalleryAbstractResponsePrivate 0x00026900   Data          16  qgalleryabstractresponse.o(.constdata__ZTVN10QtMobility31QGalleryAbstractResponsePrivateE)
    vtable for QtMobility::QGalleryIntersectionFilterPrivate 0x00026910   Data          24  qgalleryfilter.o(.constdata__ZTVN10QtMobility33QGalleryIntersectionFilterPrivateE)
    SHT$$INIT_ARRAY$$Base                    0x00026bd0   Number         0  qmdegallerycategoryresultset.o(.init_array)
    .ARM.exidx$$Base                         0x00026bd4   Number         0  ucppinit.o(.ARM.exidx)
    SHT$$INIT_ARRAY$$Limit                   0x00026bd4   Data           0  qmdegallerycategoryresultset.o(.init_array)
    .ARM.exidx$$Limit                        0x0002801c   Number         0  qgalleryquerymodel.o(.ARM.exidx)
    Image$$ER_RO$$Limit                      0x0002801c   Number         0  anon$$obj.o(linker$$defined$$symbols)
    std::_Atomic_swap_struct<(int)1>::_S_swap_lock 0x00400074   Data          12  qabstractgallery.o(.data__ZNSt19_Atomic_swap_structILi1EE12_S_swap_lockE)

