ARM Linker, RVCT2.2 [Build 686]

================================================================================

Image Symbol Table

    Local Symbols

    Symbol Name                              Value     Ov Type        Size  Object(Section)

    ../../unhosted.s                         0x00000000   Number         0  switch8.o ABSOLUTE
    M:\\epoc32\\build\\euser\\c_e18a23aea4fd210f\\edll_lib\\armv5\\udeb\\uc_dll_.cpp 0x00000000   Number         0  uc_dll_.o ABSOLUTE
    M:\\sf\\os\\kernelhwsrv\\kernel\\eka\\compsupp\\rvct\\ucppinit.cpp 0x00000000   Number         0  ucppinit.o ABSOLUTE
    M:\epoc32\build\euser\c_e18a23aea4fd210f\edll_lib\armv5\udeb\uc_dll_.cpp 0x00000000   Number         0  uc_dll_.o ABSOLUTE
    M:\sf\os\kernelhwsrv\kernel\eka\compsupp\rvct\dllexp.cpp 0x00000000   Number         0  dllexp.o ABSOLUTE
    M:\sf\os\kernelhwsrv\kernel\eka\compsupp\rvct\ucppfini.cpp 0x00000000   Number         0  ucppfini.o ABSOLUTE
    M:\sf\os\kernelhwsrv\kernel\eka\compsupp\rvct\ucppinit.cpp 0x00000000   Number         0  ucppinit.o ABSOLUTE
    M:\sf\os\kernelhwsrv\kernel\eka\euser\epoc\arm\uc_dll.cpp 0x00000000   Number         0  uc_dll.o ABSOLUTE
    S:\sf\mw\qtmobility\build\Release\qtgeoservices_nokia\moc\moc_qgeomappingmanagerengine_nokia.cpp 0x00000000   Number         0  moc_qgeomappingmanagerengine_nokia.o ABSOLUTE
    S:\sf\mw\qtmobility\build\Release\qtgeoservices_nokia\moc\moc_qgeomapreply_nokia.cpp 0x00000000   Number         0  moc_qgeomapreply_nokia.o ABSOLUTE
    S:\sf\mw\qtmobility\build\Release\qtgeoservices_nokia\moc\moc_qgeoroutereply_nokia.cpp 0x00000000   Number         0  moc_qgeoroutereply_nokia.o ABSOLUTE
    S:\sf\mw\qtmobility\build\Release\qtgeoservices_nokia\moc\moc_qgeoroutingmanagerengine_nokia.cpp 0x00000000   Number         0  moc_qgeoroutingmanagerengine_nokia.o ABSOLUTE
    S:\sf\mw\qtmobility\build\Release\qtgeoservices_nokia\moc\moc_qgeosearchmanagerengine_nokia.cpp 0x00000000   Number         0  moc_qgeosearchmanagerengine_nokia.o ABSOLUTE
    S:\sf\mw\qtmobility\build\Release\qtgeoservices_nokia\moc\moc_qgeosearchreply_nokia.cpp 0x00000000   Number         0  moc_qgeosearchreply_nokia.o ABSOLUTE
    S:\sf\mw\qtmobility\build\Release\qtgeoservices_nokia\moc\moc_qgeoserviceproviderplugin_nokia.cpp 0x00000000   Number         0  moc_qgeoserviceproviderplugin_nokia.o ABSOLUTE
    S:\sf\mw\qtmobility\build\Release\qtgeoservices_nokia\moc\moc_qgeotiledmapdata_nokia.cpp 0x00000000   Number         0  moc_qgeotiledmapdata_nokia.o ABSOLUTE
    S:\sf\mw\qtmobility\build\Release\qtgeoservices_nokia\rcc\qrc_resource.cpp 0x00000000   Number         0  qrc_resource.o ABSOLUTE
    S:\sf\mw\qtmobility\plugins\geoservices\nokia\qgeocodexmlparser.cpp 0x00000000   Number         0  qgeocodexmlparser.o ABSOLUTE
    S:\sf\mw\qtmobility\plugins\geoservices\nokia\qgeomappingmanagerengine_nokia.cpp 0x00000000   Number         0  qgeomappingmanagerengine_nokia.o ABSOLUTE
    S:\sf\mw\qtmobility\plugins\geoservices\nokia\qgeomapreply_nokia.cpp 0x00000000   Number         0  qgeomapreply_nokia.o ABSOLUTE
    S:\sf\mw\qtmobility\plugins\geoservices\nokia\qgeoroutereply_nokia.cpp 0x00000000   Number         0  qgeoroutereply_nokia.o ABSOLUTE
    S:\sf\mw\qtmobility\plugins\geoservices\nokia\qgeoroutexmlparser.cpp 0x00000000   Number         0  qgeoroutexmlparser.o ABSOLUTE
    S:\sf\mw\qtmobility\plugins\geoservices\nokia\qgeoroutingmanagerengine_nokia.cpp 0x00000000   Number         0  qgeoroutingmanagerengine_nokia.o ABSOLUTE
    S:\sf\mw\qtmobility\plugins\geoservices\nokia\qgeosearchmanagerengine_nokia.cpp 0x00000000   Number         0  qgeosearchmanagerengine_nokia.o ABSOLUTE
    S:\sf\mw\qtmobility\plugins\geoservices\nokia\qgeosearchreply_nokia.cpp 0x00000000   Number         0  qgeosearchreply_nokia.o ABSOLUTE
    S:\sf\mw\qtmobility\plugins\geoservices\nokia\qgeoserviceproviderplugin_nokia.cpp 0x00000000   Number         0  qgeoserviceproviderplugin_nokia.o ABSOLUTE
    S:\sf\mw\qtmobility\plugins\geoservices\nokia\qgeotiledmapdata_nokia.cpp 0x00000000   Number         0  qgeotiledmapdata_nokia.o ABSOLUTE
    .emb_text                                0x00008000   Section       40  uc_dll_.o(.emb_text)
    Symbian$$eit_base                        0x00008014   Data           4  uc_dll_.o(.emb_text)
    Symbian$$eit_limit                       0x00008018   Data           4  uc_dll_.o(.emb_text)
    Symbian$$code_seg_base                   0x0000801c   Data           4  uc_dll_.o(.emb_text)
    Symbian$$code_seg_limit                  0x00008020   Data           4  uc_dll_.o(.emb_text)
    Symbian$$reserved                        0x00008024   Data           4  uc_dll_.o(.emb_text)
    .emb_text                                0x00008028   Section       52  ucppinit.o(.emb_text)
    loop                                     0x0000803c   ARM Code       0  ucppinit.o(.emb_text)
    ret                                      0x00008044   ARM Code       0  ucppinit.o(.emb_text)
    base                                     0x00008054   Data           0  ucppinit.o(.emb_text)
    limit                                    0x00008058   Data           0  ucppinit.o(.emb_text)
    .text                                    0x00008aa4   Section      116  moc_qgeomappingmanagerengine_nokia.o(.text)
    .text                                    0x00008b18   Section      168  moc_qgeomapreply_nokia.o(.text)
    .text                                    0x00008bc0   Section      156  moc_qgeoroutereply_nokia.o(.text)
    .text                                    0x00008c5c   Section      160  moc_qgeoroutingmanagerengine_nokia.o(.text)
    .text                                    0x00008cfc   Section      160  moc_qgeosearchmanagerengine_nokia.o(.text)
    .text                                    0x00008d9c   Section      156  moc_qgeosearchreply_nokia.o(.text)
    .text                                    0x00008e38   Section      240  moc_qgeoserviceproviderplugin_nokia.o(.text)
    .text                                    0x00008f28   Section      144  moc_qgeotiledmapdata_nokia.o(.text)
    .text                                    0x00008fb8   Section       88  qrc_resource.o(.text)
    __sti___16_qrc_resource_cpp              0x00008fe1   Thumb Code    24  qrc_resource.o(.text)
    .text                                    0x00009010   Section     5712  qgeocodexmlparser.o(.text)
    .text                                    0x0000a660   Section     2208  qgeomappingmanagerengine_nokia.o(.text)
    .text                                    0x0000af00   Section      520  qgeomapreply_nokia.o(.text)
    .text                                    0x0000b108   Section      516  qgeoroutereply_nokia.o(.text)
    .text                                    0x0000b30c   Section     6248  qgeoroutexmlparser.o(.text)
    |L1.2044|                                0x0000bb08   Data           0  qgeoroutexmlparser.o(.text)
    |L1.2064|                                0x0000bb1c   Data           0  qgeoroutexmlparser.o(.text)
    |L1.3092|                                0x0000bf20   Data           0  qgeoroutexmlparser.o(.text)
    |L1.3104|                                0x0000bf2c   Data           0  qgeoroutexmlparser.o(.text)
    |L1.4332|                                0x0000c3f8   Data           0  qgeoroutexmlparser.o(.text)
    |L1.4356|                                0x0000c410   Data           0  qgeoroutexmlparser.o(.text)
    |L1.5480|                                0x0000c874   Data           0  qgeoroutexmlparser.o(.text)
    .text                                    0x0000cb74   Section     5716  qgeoroutingmanagerengine_nokia.o(.text)
    |L1.4928|                                0x0000deb4   Data           0  qgeoroutingmanagerengine_nokia.o(.text)
    |L1.4948|                                0x0000dec8   Data           0  qgeoroutingmanagerengine_nokia.o(.text)
    |L1.4960|                                0x0000ded4   Data           0  qgeoroutingmanagerengine_nokia.o(.text)
    |L1.5004|                                0x0000df00   Data           0  qgeoroutingmanagerengine_nokia.o(.text)
    .text                                    0x0000e1c8   Section     3476  qgeosearchmanagerengine_nokia.o(.text)
    |L1.2264|                                0x0000eaa0   Data           0  qgeosearchmanagerengine_nokia.o(.text)
    |L1.2272|                                0x0000eaa8   Data           0  qgeosearchmanagerengine_nokia.o(.text)
    |L1.2300|                                0x0000eac4   Data           0  qgeosearchmanagerengine_nokia.o(.text)
    |L1.2308|                                0x0000eacc   Data           0  qgeosearchmanagerengine_nokia.o(.text)
    .text                                    0x0000ef5c   Section      640  qgeosearchreply_nokia.o(.text)
    .text                                    0x0000f1dc   Section      608  qgeoserviceproviderplugin_nokia.o(.text)
    __sti___35_qgeoserviceproviderplugin_nokia_cpp 0x0000f3b5   Thumb Code    40  qgeoserviceproviderplugin_nokia.o(.text)
    variantListToBoundingBox(const QList<QVariant>&) 0x0000f43d   Thumb Code   234  qgeotiledmapdata_nokia.o(.text)
    .text                                    0x0000f43c   Section     3648  qgeotiledmapdata_nokia.o(.text)
    .text                                    0x0001027c   Section       24  switch8.o(.text)
    .text                                    0x00010294   Section       80  uc_dll.o(.text)
    .text                                    0x000102e4   Section      180  ucppfini.o(.text)
    .text                                    0x00010398   Section        4  dllexp.o(.text)
    .text.clean                              0x0001039c   Section        4  qrc_resource.o(.text.clean)
    .text.clean                              0x000103a0   Section     1096  qgeocodexmlparser.o(.text.clean)
    .text.clean                              0x000107e8   Section      452  qgeomappingmanagerengine_nokia.o(.text.clean)
    .text.clean                              0x000109ac   Section       44  qgeomapreply_nokia.o(.text.clean)
    .text.clean                              0x000109d8   Section       52  qgeoroutereply_nokia.o(.text.clean)
    .text.clean                              0x00010a0c   Section     1114  qgeoroutexmlparser.o(.text.clean)
    .text.clean                              0x00010e66   Section      972  qgeoroutingmanagerengine_nokia.o(.text.clean)
    .text.clean                              0x00011232   Section      650  qgeosearchmanagerengine_nokia.o(.text.clean)
    .text.clean                              0x000114bc   Section       50  qgeosearchreply_nokia.o(.text.clean)
    .text.clean                              0x000114f0   Section       84  qgeoserviceproviderplugin_nokia.o(.text.clean)
    .text.clean                              0x00011544   Section      458  qgeotiledmapdata_nokia.o(.text.clean)
    i._Z23qStringComparisonHelperRK10QStringRefPKc 0x00011710   Section       76  qgeocodexmlparser.o(i._Z23qStringComparisonHelperRK10QStringRefPKc)
    i._Z23qStringComparisonHelperRK10QStringRefPKc.clean 0x0001175c   Section       10  qgeocodexmlparser.o(i._Z23qStringComparisonHelperRK10QStringRefPKc.clean)
    i._ZN10JSONParser11parseNumberEv         0x00011768   Section      120  qgeotiledmapdata_nokia.o(i._ZN10JSONParser11parseNumberEv)
    i._ZN10JSONParser11parseNumberEv.clean   0x000117e0   Section       24  qgeotiledmapdata_nokia.o(i._ZN10JSONParser11parseNumberEv.clean)
    i._ZN10JSONParser11parseStringEv         0x000117f8   Section       90  qgeotiledmapdata_nokia.o(i._ZN10JSONParser11parseStringEv)
    i._ZN10JSONParser11parseStringEv.clean   0x00011852   Section       10  qgeotiledmapdata_nokia.o(i._ZN10JSONParser11parseStringEv.clean)
    i._ZN10JSONParser12parseUnknownEv        0x0001185c   Section      220  qgeotiledmapdata_nokia.o(i._ZN10JSONParser12parseUnknownEv)
    i._ZN10JSONParser12parseUnknownEv.clean  0x00011938   Section       68  qgeotiledmapdata_nokia.o(i._ZN10JSONParser12parseUnknownEv.clean)
    i._ZN10JSONParser14skipWhitespaceEv      0x0001197c   Section      108  qgeotiledmapdata_nokia.o(i._ZN10JSONParser14skipWhitespaceEv)
    i._ZN10JSONParser4nextEv                 0x000119e8   Section       30  qgeotiledmapdata_nokia.o(i._ZN10JSONParser4nextEv)
    i._ZN10JSONParser5parseEv                0x00011a08   Section      456  qgeotiledmapdata_nokia.o(i._ZN10JSONParser5parseEv)
    i._ZN10JSONParser5parseEv.clean          0x00011bd0   Section       94  qgeotiledmapdata_nokia.o(i._ZN10JSONParser5parseEv.clean)
    i._ZN10JSONParser9parseHashEv            0x00011c30   Section      152  qgeotiledmapdata_nokia.o(i._ZN10JSONParser9parseHashEv)
    i._ZN10JSONParser9parseHashEv.clean      0x00011cc8   Section       22  qgeotiledmapdata_nokia.o(i._ZN10JSONParser9parseHashEv.clean)
    i._ZN10JSONParser9parseListEv            0x00011ce0   Section      112  qgeotiledmapdata_nokia.o(i._ZN10JSONParser9parseListEv)
    i._ZN10JSONParser9parseListEv.clean      0x00011d50   Section       16  qgeotiledmapdata_nokia.o(i._ZN10JSONParser9parseListEv.clean)
    i._ZN10JSONParserD1Ev                    0x00011d60   Section       14  qgeotiledmapdata_nokia.o(i._ZN10JSONParserD1Ev)
    i._ZN10QByteArrayD1Ev                    0x00011d6e   Section       24  qgeomapreply_nokia.o(i._ZN10QByteArrayD1Ev)
    i._ZN10QStringRefD1Ev                    0x00011d86   Section        2  qgeocodexmlparser.o(i._ZN10QStringRefD1Ev)
    i._ZN11QStringListC1Ev                   0x00011d88   Section       24  qgeoroutingmanagerengine_nokia.o(i._ZN11QStringListC1Ev)
    i._ZN11QStringListD1Ev                   0x00011da0   Section       14  qgeoroutexmlparser.o(i._ZN11QStringListD1Ev)
    i._ZN15QBasicAtomicInt3refEv             0x00011dae   Section       24  qgeocodexmlparser.o(i._ZN15QBasicAtomicInt3refEv)
    i._ZN15QBasicAtomicInt5derefEv           0x00011dc6   Section       24  qgeocodexmlparser.o(i._ZN15QBasicAtomicInt5derefEv)
    i._ZN17QForeachContainerI5QListI19CopyrightDescriptorEED1Ev 0x00011dde   Section       14  qgeotiledmapdata_nokia.o(i._ZN17QForeachContainerI5QListI19CopyrightDescriptorEED1Ev)
    i._ZN17QForeachContainerI5QListI7QStringEED1Ev 0x00011dec   Section       14  qgeotiledmapdata_nokia.o(i._ZN17QForeachContainerI5QListI7QStringEED1Ev)
    i._ZN17QForeachContainerI5QListI8QVariantEED1Ev 0x00011dfa   Section       14  qgeotiledmapdata_nokia.o(i._ZN17QForeachContainerI5QListI8QVariantEED1Ev)
    i._ZN17QForeachContainerI5QListIN10QtMobility15QGeoBoundingBoxEEED1Ev 0x00011e08   Section       14  qgeotiledmapdata_nokia.o(i._ZN17QForeachContainerI5QListIN10QtMobility15QGeoBoundingBoxEEED1Ev)
    i._ZN19CopyrightDescriptorC1ERKS_        0x00011e16   Section       60  qgeotiledmapdata_nokia.o(i._ZN19CopyrightDescriptorC1ERKS_)
    i._ZN19CopyrightDescriptorC1ERKS_.clean  0x00011e52   Section       22  qgeotiledmapdata_nokia.o(i._ZN19CopyrightDescriptorC1ERKS_.clean)
    i._ZN19CopyrightDescriptorC1Ev           0x00011e68   Section       52  qgeotiledmapdata_nokia.o(i._ZN19CopyrightDescriptorC1Ev)
    i._ZN19CopyrightDescriptorC1Ev.clean     0x00011e9c   Section       22  qgeotiledmapdata_nokia.o(i._ZN19CopyrightDescriptorC1Ev.clean)
    i._ZN19CopyrightDescriptorD1Ev           0x00011eb2   Section       40  qgeotiledmapdata_nokia.o(i._ZN19CopyrightDescriptorD1Ev)
    i._ZN19CopyrightDescriptorD1Ev.clean     0x00011eda   Section       22  qgeotiledmapdata_nokia.o(i._ZN19CopyrightDescriptorD1Ev.clean)
    i._ZN20QXmlStreamAttributesD1Ev          0x00011ef0   Section       14  qgeocodexmlparser.o(i._ZN20QXmlStreamAttributesD1Ev)
    i._ZN21QGeoManeuverContainerC1ERKS_      0x00011efe   Section       46  qgeoroutexmlparser.o(i._ZN21QGeoManeuverContainerC1ERKS_)
    i._ZN21QGeoManeuverContainerC1ERKS_.clean 0x00011f2c   Section       18  qgeoroutexmlparser.o(i._ZN21QGeoManeuverContainerC1ERKS_.clean)
    i._ZN21QGeoManeuverContainerD1Ev         0x00011f3e   Section       34  qgeoroutexmlparser.o(i._ZN21QGeoManeuverContainerD1Ev)
    i._ZN21QGeoManeuverContainerD1Ev.clean   0x00011f60   Section       18  qgeoroutexmlparser.o(i._ZN21QGeoManeuverContainerD1Ev.clean)
    i._ZN25QGeoRouteSegmentContainerC1ERKS_  0x00011f72   Section       46  qgeoroutexmlparser.o(i._ZN25QGeoRouteSegmentContainerC1ERKS_)
    i._ZN25QGeoRouteSegmentContainerC1ERKS_.clean 0x00011fa0   Section       18  qgeoroutexmlparser.o(i._ZN25QGeoRouteSegmentContainerC1ERKS_.clean)
    i._ZN25QGeoRouteSegmentContainerD1Ev     0x00011fb2   Section       34  qgeoroutexmlparser.o(i._ZN25QGeoRouteSegmentContainerD1Ev)
    i._ZN25QGeoRouteSegmentContainerD1Ev.clean 0x00011fd4   Section       18  qgeoroutexmlparser.o(i._ZN25QGeoRouteSegmentContainerD1Ev.clean)
    i._ZN40qCleanupResources_resource__dest_class__D1Ev 0x00011fe6   Section       12  qrc_resource.o(i._ZN40qCleanupResources_resource__dest_class__D1Ev)
    i._ZN5QRectC1ERK6QPointRK5QSize          0x00011ff2   Section       40  qgeotiledmapdata_nokia.o(i._ZN5QRectC1ERK6QPointRK5QSize)
    i._ZN5QRectC1ERK6QPointS2_               0x0001201a   Section       26  qgeotiledmapdata_nokia.o(i._ZN5QRectC1ERK6QPointS2_)
    i._ZN5QRectC1Ev                          0x00012034   Section       14  qgeotiledmapdata_nokia.o(i._ZN5QRectC1Ev)
    i._ZN7QStringC1EPKc                      0x00012042   Section       22  qgeocodexmlparser.o(i._ZN7QStringC1EPKc)
    i._ZN7QStringC1ERK13QLatin1String        0x00012058   Section       26  qgeosearchmanagerengine_nokia.o(i._ZN7QStringC1ERK13QLatin1String)
    i._ZN7QStringC1ERKS_                     0x00012072   Section       22  qgeocodexmlparser.o(i._ZN7QStringC1ERKS_)
    i._ZN7QStringC1Ev                        0x00012088   Section       24  qgeomappingmanagerengine_nokia.o(i._ZN7QStringC1Ev)
    i._ZN7QStringD1Ev                        0x000120a0   Section       24  qgeocodexmlparser.o(i._ZN7QStringD1Ev)
    i._ZN7QStringaSEPKc                      0x000120b8   Section       40  qgeocodexmlparser.o(i._ZN7QStringaSEPKc)
    i._ZN7QStringaSEPKc.clean                0x000120e0   Section       10  qgeocodexmlparser.o(i._ZN7QStringaSEPKc.clean)
    i._ZN7QStringpLE5QChar                   0x000120ea   Section       94  qgeomappingmanagerengine_nokia.o(i._ZN7QStringpLE5QChar)
    i._ZN7QStringpLEPKc                      0x00012148   Section       40  qgeomappingmanagerengine_nokia.o(i._ZN7QStringpLEPKc)
    i._ZN7QStringpLEPKc.clean                0x00012170   Section       10  qgeomappingmanagerengine_nokia.o(i._ZN7QStringpLEPKc.clean)
    i._ZN7QStringpLERKS_                     0x0001217a   Section       16  qgeomappingmanagerengine_nokia.o(i._ZN7QStringpLERKS_)
    i._ZN8QCharRefaSEt                       0x0001218a   Section       94  qgeosearchmanagerengine_nokia.o(i._ZN8QCharRefaSEt)
    i._ZN8QPainter10drawPixmapERK5QRectRK7QPixmap 0x000121e8   Section      104  qgeotiledmapdata_nokia.o(i._ZN8QPainter10drawPixmapERK5QRectRK7QPixmap)
    i._ZN8QVariantC1Ev                       0x00012250   Section       38  qgeotiledmapdata_nokia.o(i._ZN8QVariantC1Ev)
    i._ZN9QHashData8willGrowEv               0x00012276   Section       32  qgeotiledmapdata_nokia.o(i._ZN9QHashData8willGrowEv)
    i._ZNK10JSONParser4peekEv                0x00012296   Section       44  qgeotiledmapdata_nokia.o(i._ZNK10JSONParser4peekEv)
    i._ZNK10JSONParser5peekQEv               0x000122c2   Section       26  qgeotiledmapdata_nokia.o(i._ZNK10JSONParser5peekQEv)
    i._ZNK15QBasicAtomicInteqEi              0x000122dc   Section       16  qgeoroutexmlparser.o(i._ZNK15QBasicAtomicInteqEi)
    i._ZNK15QBasicAtomicIntneEi              0x000122ec   Section       16  qgeomappingmanagerengine_nokia.o(i._ZNK15QBasicAtomicIntneEi)
    i._ZNK20QXmlStreamAttributes12hasAttributeERK7QString 0x000122fc   Section       68  qgeocodexmlparser.o(i._ZNK20QXmlStreamAttributes12hasAttributeERK7QString)
    i._ZNK20QXmlStreamAttributes12hasAttributeERK7QString.clean 0x00012340   Section        4  qgeocodexmlparser.o(i._ZNK20QXmlStreamAttributes12hasAttributeERK7QString.clean)
    i._ZNK5QRect4sizeEv                      0x00012344   Section       38  qgeotiledmapdata_nokia.o(i._ZNK5QRect4sizeEv)
    i._ZNK7QString3argEiiiRK5QChar           0x0001236a   Section       36  qgeocodexmlparser.o(i._ZNK7QString3argEiiiRK5QChar)
    i._ZNK7QString6isNullEv                  0x00012390   Section       24  qgeosearchmanagerengine_nokia.o(i._ZNK7QString6isNullEv)
    i._ZNK7QString7isEmptyEv                 0x000123a8   Section       18  qgeomappingmanagerengine_nokia.o(i._ZNK7QString7isEmptyEv)
    i._ZNK7QStringeqEPKc                     0x000123bc   Section       76  qgeocodexmlparser.o(i._ZNK7QStringeqEPKc)
    i._ZNK7QStringeqEPKc.clean               0x00012408   Section       10  qgeocodexmlparser.o(i._ZNK7QStringeqEPKc.clean)
    i._ZNK9QListData2atEi                    0x00012412   Section       20  qgeoroutexmlparser.o(i._ZNK9QListData2atEi)
    i._ZNK9QListData3endEv                   0x00012426   Section       16  qgeocodexmlparser.o(i._ZNK9QListData3endEv)
    i._ZNK9QListData4sizeEv                  0x00012436   Section       14  qgeoroutexmlparser.o(i._ZNK9QListData4sizeEv)
    i._ZNK9QListData5beginEv                 0x00012444   Section       16  qgeocodexmlparser.o(i._ZNK9QListData5beginEv)
    i._ZNK9QListData7isEmptyEv               0x00012454   Section       22  qgeotiledmapdata_nokia.o(i._ZNK9QListData7isEmptyEv)
    i._ZdlPvS_                               0x0001246a   Section        2  qgeoroutexmlparser.o(i._ZdlPvS_)
    i._ZeqRK10QStringRefPKc                  0x0001246c   Section       16  qgeocodexmlparser.o(i._ZeqRK10QStringRefPKc)
    i._ZneRK10QStringRefPKc                  0x0001247c   Section       20  qgeoroutexmlparser.o(i._ZneRK10QStringRefPKc)
    i._ZnwjPv                                0x00012490   Section        6  qgeoroutexmlparser.o(i._ZnwjPv)
    i._ZplPKcRK7QString                      0x00012496   Section       48  qgeoroutingmanagerengine_nokia.o(i._ZplPKcRK7QString)
    i._ZplPKcRK7QString.clean                0x000124c6   Section       10  qgeoroutingmanagerengine_nokia.o(i._ZplPKcRK7QString.clean)
    i._ZplRK7QStringPKc                      0x000124d0   Section       60  qgeoroutingmanagerengine_nokia.o(i._ZplRK7QStringPKc)
    i._ZplRK7QStringPKc.clean                0x0001250c   Section       16  qgeoroutingmanagerengine_nokia.o(i._ZplRK7QStringPKc.clean)
    t._Z12qobject_castIPN10QtMobility14QGeoRouteReplyEET_P7QObject 0x0001251c   Section       32  qgeoroutingmanagerengine_nokia.o(t._Z12qobject_castIPN10QtMobility14QGeoRouteReplyEET_P7QObject)
    t._Z12qobject_castIPN10QtMobility15QGeoSearchReplyEET_P7QObject 0x0001253c   Section       32  qgeosearchmanagerengine_nokia.o(t._Z12qobject_castIPN10QtMobility15QGeoSearchReplyEET_P7QObject)
    t._Z20qForeachContainerNewI5QListI8QVariantEE17QForeachContainerIT_ERKS4_ 0x0001255c   Section      126  qgeotiledmapdata_nokia.o(t._Z20qForeachContainerNewI5QListI8QVariantEE17QForeachContainerIT_ERKS4_)
    t._Z20qForeachContainerNewI5QListI8QVariantEE17QForeachContainerIT_ERKS4_.clean 0x000125da   Section       10  qgeotiledmapdata_nokia.o(t._Z20qForeachContainerNewI5QListI8QVariantEE17QForeachContainerIT_ERKS4_.clean)
    t._ZN5QHashI7QString5QListI19CopyrightDescriptorEE11deleteNode2EPN9QHashData4NodeE 0x000125e4   Section       36  qgeotiledmapdata_nokia.o(t._ZN5QHashI7QString5QListI19CopyrightDescriptorEE11deleteNode2EPN9QHashData4NodeE)
    t._ZN5QHashI7QString5QListI19CopyrightDescriptorEE11deleteNode2EPN9QHashData4NodeE.clean 0x00012608   Section       12  qgeotiledmapdata_nokia.o(t._ZN5QHashI7QString5QListI19CopyrightDescriptorEE11deleteNode2EPN9QHashData4NodeE.clean)
    t._ZN5QHashI7QString5QListI19CopyrightDescriptorEE13detach_helperEv 0x00012614   Section       60  qgeotiledmapdata_nokia.o(t._ZN5QHashI7QString5QListI19CopyrightDescriptorEE13detach_helperEv)
    t._ZN5QHashI7QString5QListI19CopyrightDescriptorEE13duplicateNodeEPN9QHashData4NodeEPv 0x00012650   Section       46  qgeotiledmapdata_nokia.o(t._ZN5QHashI7QString5QListI19CopyrightDescriptorEE13duplicateNodeEPN9QHashData4NodeEPv)
    t._ZN5QHashI7QString5QListI19CopyrightDescriptorEE13duplicateNodeEPN9QHashData4NodeEPv.clean 0x0001267e   Section       14  qgeotiledmapdata_nokia.o(t._ZN5QHashI7QString5QListI19CopyrightDescriptorEE13duplicateNodeEPN9QHashData4NodeEPv.clean)
    t._ZN5QHashI7QString5QListI19CopyrightDescriptorEE8freeDataEP9QHashData 0x0001268c   Section       20  qgeotiledmapdata_nokia.o(t._ZN5QHashI7QString5QListI19CopyrightDescriptorEE8freeDataEP9QHashData)
    t._ZN5QHashI7QString5QListI19CopyrightDescriptorEEC1Ev 0x000126a0   Section       28  qgeotiledmapdata_nokia.o(t._ZN5QHashI7QString5QListI19CopyrightDescriptorEEC1Ev)
    t._ZN5QHashI7QString5QListI19CopyrightDescriptorEED1Ev 0x000126bc   Section       30  qgeotiledmapdata_nokia.o(t._ZN5QHashI7QString5QListI19CopyrightDescriptorEED1Ev)
    t._ZN5QHashI7QString5QListI19CopyrightDescriptorEEixERKS0_ 0x000126da   Section      208  qgeotiledmapdata_nokia.o(t._ZN5QHashI7QString5QListI19CopyrightDescriptorEEixERKS0_)
    t._ZN5QHashI7QString5QListI19CopyrightDescriptorEEixERKS0_.clean 0x000127aa   Section       24  qgeotiledmapdata_nokia.o(t._ZN5QHashI7QString5QListI19CopyrightDescriptorEEixERKS0_.clean)
    t._ZN5QHashI7QString8QVariantE11deleteNode2EPN9QHashData4NodeE 0x000127c2   Section       36  qgeotiledmapdata_nokia.o(t._ZN5QHashI7QString8QVariantE11deleteNode2EPN9QHashData4NodeE)
    t._ZN5QHashI7QString8QVariantE11deleteNode2EPN9QHashData4NodeE.clean 0x000127e6   Section       12  qgeotiledmapdata_nokia.o(t._ZN5QHashI7QString8QVariantE11deleteNode2EPN9QHashData4NodeE.clean)
    t._ZN5QHashI7QString8QVariantE13detach_helperEv 0x000127f4   Section       60  qgeotiledmapdata_nokia.o(t._ZN5QHashI7QString8QVariantE13detach_helperEv)
    t._ZN5QHashI7QString8QVariantE13duplicateNodeEPN9QHashData4NodeEPv 0x00012830   Section       48  qgeotiledmapdata_nokia.o(t._ZN5QHashI7QString8QVariantE13duplicateNodeEPN9QHashData4NodeEPv)
    t._ZN5QHashI7QString8QVariantE13duplicateNodeEPN9QHashData4NodeEPv.clean 0x00012860   Section       14  qgeotiledmapdata_nokia.o(t._ZN5QHashI7QString8QVariantE13duplicateNodeEPN9QHashData4NodeEPv.clean)
    t._ZN5QHashI7QString8QVariantE8freeDataEP9QHashData 0x00012870   Section       20  qgeotiledmapdata_nokia.o(t._ZN5QHashI7QString8QVariantE8freeDataEP9QHashData)
    t._ZN5QHashI7QString8QVariantED1Ev       0x00012884   Section       30  qgeotiledmapdata_nokia.o(t._ZN5QHashI7QString8QVariantED1Ev)
    t._ZN5QHashI7QString8QVariantEixERKS0_   0x000128a2   Section      208  qgeotiledmapdata_nokia.o(t._ZN5QHashI7QString8QVariantEixERKS0_)
    t._ZN5QHashI7QString8QVariantEixERKS0_.clean 0x00012972   Section       24  qgeotiledmapdata_nokia.o(t._ZN5QHashI7QString8QVariantEixERKS0_.clean)
    t._ZN5QListI19CopyrightDescriptorE13detach_helperEi 0x0001298a   Section       94  qgeotiledmapdata_nokia.o(t._ZN5QListI19CopyrightDescriptorE13detach_helperEi)
    t._ZN5QListI19CopyrightDescriptorE13detach_helperEi.clean 0x000129e8   Section        8  qgeotiledmapdata_nokia.o(t._ZN5QListI19CopyrightDescriptorE13detach_helperEi.clean)
    t._ZN5QListI19CopyrightDescriptorE13detach_helperEv 0x000129f0   Section       16  qgeotiledmapdata_nokia.o(t._ZN5QListI19CopyrightDescriptorE13detach_helperEv)
    t._ZN5QListI19CopyrightDescriptorE13node_destructEPNS1_4NodeES3_ 0x00012a00   Section       38  qgeotiledmapdata_nokia.o(t._ZN5QListI19CopyrightDescriptorE13node_destructEPNS1_4NodeES3_)
    t._ZN5QListI19CopyrightDescriptorE14node_constructEPNS1_4NodeERKS0_ 0x00012a26   Section       34  qgeotiledmapdata_nokia.o(t._ZN5QListI19CopyrightDescriptorE14node_constructEPNS1_4NodeERKS0_)
    t._ZN5QListI19CopyrightDescriptorE14node_constructEPNS1_4NodeERKS0_.clean 0x00012a48   Section       14  qgeotiledmapdata_nokia.o(t._ZN5QListI19CopyrightDescriptorE14node_constructEPNS1_4NodeERKS0_.clean)
    t._ZN5QListI19CopyrightDescriptorE18detach_helper_growEii 0x00012a56   Section      208  qgeotiledmapdata_nokia.o(t._ZN5QListI19CopyrightDescriptorE18detach_helper_growEii)
    t._ZN5QListI19CopyrightDescriptorE18detach_helper_growEii.clean 0x00012b26   Section       16  qgeotiledmapdata_nokia.o(t._ZN5QListI19CopyrightDescriptorE18detach_helper_growEii.clean)
    t._ZN5QListI19CopyrightDescriptorE4freeEPN9QListData4DataE 0x00012b36   Section       52  qgeotiledmapdata_nokia.o(t._ZN5QListI19CopyrightDescriptorE4freeEPN9QListData4DataE)
    t._ZN5QListI19CopyrightDescriptorE6appendERKS0_ 0x00012b6c   Section      112  qgeotiledmapdata_nokia.o(t._ZN5QListI19CopyrightDescriptorE6appendERKS0_)
    t._ZN5QListI19CopyrightDescriptorE6appendERKS0_.clean 0x00012bdc   Section       14  qgeotiledmapdata_nokia.o(t._ZN5QListI19CopyrightDescriptorE6appendERKS0_.clean)
    t._ZN5QListI19CopyrightDescriptorE9node_copyEPNS1_4NodeES3_S3_ 0x00012bea   Section       92  qgeotiledmapdata_nokia.o(t._ZN5QListI19CopyrightDescriptorE9node_copyEPNS1_4NodeES3_S3_)
    t._ZN5QListI19CopyrightDescriptorE9node_copyEPNS1_4NodeES3_S3_.clean 0x00012c46   Section       22  qgeotiledmapdata_nokia.o(t._ZN5QListI19CopyrightDescriptorE9node_copyEPNS1_4NodeES3_S3_.clean)
    t._ZN5QListI19CopyrightDescriptorEC1ERKS1_ 0x00012c5c   Section       36  qgeotiledmapdata_nokia.o(t._ZN5QListI19CopyrightDescriptorEC1ERKS1_)
    t._ZN5QListI19CopyrightDescriptorEC1Ev   0x00012c80   Section       24  qgeotiledmapdata_nokia.o(t._ZN5QListI19CopyrightDescriptorEC1Ev)
    t._ZN5QListI19CopyrightDescriptorED1Ev   0x00012c98   Section       32  qgeotiledmapdata_nokia.o(t._ZN5QListI19CopyrightDescriptorED1Ev)
    t._ZN5QListI21QGeoManeuverContainerE13detach_helperEi 0x00012cb8   Section       94  qgeoroutexmlparser.o(t._ZN5QListI21QGeoManeuverContainerE13detach_helperEi)
    t._ZN5QListI21QGeoManeuverContainerE13detach_helperEi.clean 0x00012d16   Section        8  qgeoroutexmlparser.o(t._ZN5QListI21QGeoManeuverContainerE13detach_helperEi.clean)
    t._ZN5QListI21QGeoManeuverContainerE13detach_helperEv 0x00012d1e   Section       16  qgeoroutexmlparser.o(t._ZN5QListI21QGeoManeuverContainerE13detach_helperEv)
    t._ZN5QListI21QGeoManeuverContainerE13node_destructEPNS1_4NodeES3_ 0x00012d2e   Section       38  qgeoroutexmlparser.o(t._ZN5QListI21QGeoManeuverContainerE13node_destructEPNS1_4NodeES3_)
    t._ZN5QListI21QGeoManeuverContainerE14node_constructEPNS1_4NodeERKS0_ 0x00012d54   Section       34  qgeoroutexmlparser.o(t._ZN5QListI21QGeoManeuverContainerE14node_constructEPNS1_4NodeERKS0_)
    t._ZN5QListI21QGeoManeuverContainerE14node_constructEPNS1_4NodeERKS0_.clean 0x00012d76   Section       14  qgeoroutexmlparser.o(t._ZN5QListI21QGeoManeuverContainerE14node_constructEPNS1_4NodeERKS0_.clean)
    t._ZN5QListI21QGeoManeuverContainerE18detach_helper_growEii 0x00012d84   Section      208  qgeoroutexmlparser.o(t._ZN5QListI21QGeoManeuverContainerE18detach_helper_growEii)
    t._ZN5QListI21QGeoManeuverContainerE18detach_helper_growEii.clean 0x00012e54   Section       16  qgeoroutexmlparser.o(t._ZN5QListI21QGeoManeuverContainerE18detach_helper_growEii.clean)
    t._ZN5QListI21QGeoManeuverContainerE4freeEPN9QListData4DataE 0x00012e64   Section       52  qgeoroutexmlparser.o(t._ZN5QListI21QGeoManeuverContainerE4freeEPN9QListData4DataE)
    t._ZN5QListI21QGeoManeuverContainerE5clearEv 0x00012e98   Section       76  qgeoroutexmlparser.o(t._ZN5QListI21QGeoManeuverContainerE5clearEv)
    t._ZN5QListI21QGeoManeuverContainerE5clearEv.clean 0x00012ee4   Section       10  qgeoroutexmlparser.o(t._ZN5QListI21QGeoManeuverContainerE5clearEv.clean)
    t._ZN5QListI21QGeoManeuverContainerE6appendERKS0_ 0x00012ef0   Section      112  qgeoroutexmlparser.o(t._ZN5QListI21QGeoManeuverContainerE6appendERKS0_)
    t._ZN5QListI21QGeoManeuverContainerE6appendERKS0_.clean 0x00012f60   Section       14  qgeoroutexmlparser.o(t._ZN5QListI21QGeoManeuverContainerE6appendERKS0_.clean)
    t._ZN5QListI21QGeoManeuverContainerE9node_copyEPNS1_4NodeES3_S3_ 0x00012f6e   Section       92  qgeoroutexmlparser.o(t._ZN5QListI21QGeoManeuverContainerE9node_copyEPNS1_4NodeES3_S3_)
    t._ZN5QListI21QGeoManeuverContainerE9node_copyEPNS1_4NodeES3_S3_.clean 0x00012fca   Section       22  qgeoroutexmlparser.o(t._ZN5QListI21QGeoManeuverContainerE9node_copyEPNS1_4NodeES3_S3_.clean)
    t._ZN5QListI21QGeoManeuverContainerEC1Ev 0x00012fe0   Section       24  qgeoroutexmlparser.o(t._ZN5QListI21QGeoManeuverContainerEC1Ev)
    t._ZN5QListI21QGeoManeuverContainerED1Ev 0x00012ff8   Section       32  qgeoroutexmlparser.o(t._ZN5QListI21QGeoManeuverContainerED1Ev)
    t._ZN5QListI25QGeoRouteSegmentContainerE13detach_helperEi 0x00013018   Section       94  qgeoroutexmlparser.o(t._ZN5QListI25QGeoRouteSegmentContainerE13detach_helperEi)
    t._ZN5QListI25QGeoRouteSegmentContainerE13detach_helperEi.clean 0x00013076   Section        8  qgeoroutexmlparser.o(t._ZN5QListI25QGeoRouteSegmentContainerE13detach_helperEi.clean)
    t._ZN5QListI25QGeoRouteSegmentContainerE13detach_helperEv 0x0001307e   Section       16  qgeoroutexmlparser.o(t._ZN5QListI25QGeoRouteSegmentContainerE13detach_helperEv)
    t._ZN5QListI25QGeoRouteSegmentContainerE13node_destructEPNS1_4NodeES3_ 0x0001308e   Section       38  qgeoroutexmlparser.o(t._ZN5QListI25QGeoRouteSegmentContainerE13node_destructEPNS1_4NodeES3_)
    t._ZN5QListI25QGeoRouteSegmentContainerE14node_constructEPNS1_4NodeERKS0_ 0x000130b4   Section       34  qgeoroutexmlparser.o(t._ZN5QListI25QGeoRouteSegmentContainerE14node_constructEPNS1_4NodeERKS0_)
    t._ZN5QListI25QGeoRouteSegmentContainerE14node_constructEPNS1_4NodeERKS0_.clean 0x000130d6   Section       14  qgeoroutexmlparser.o(t._ZN5QListI25QGeoRouteSegmentContainerE14node_constructEPNS1_4NodeERKS0_.clean)
    t._ZN5QListI25QGeoRouteSegmentContainerE18detach_helper_growEii 0x000130e4   Section      208  qgeoroutexmlparser.o(t._ZN5QListI25QGeoRouteSegmentContainerE18detach_helper_growEii)
    t._ZN5QListI25QGeoRouteSegmentContainerE18detach_helper_growEii.clean 0x000131b4   Section       16  qgeoroutexmlparser.o(t._ZN5QListI25QGeoRouteSegmentContainerE18detach_helper_growEii.clean)
    t._ZN5QListI25QGeoRouteSegmentContainerE4freeEPN9QListData4DataE 0x000131c4   Section       52  qgeoroutexmlparser.o(t._ZN5QListI25QGeoRouteSegmentContainerE4freeEPN9QListData4DataE)
    t._ZN5QListI25QGeoRouteSegmentContainerE5clearEv 0x000131f8   Section       76  qgeoroutexmlparser.o(t._ZN5QListI25QGeoRouteSegmentContainerE5clearEv)
    t._ZN5QListI25QGeoRouteSegmentContainerE5clearEv.clean 0x00013244   Section       10  qgeoroutexmlparser.o(t._ZN5QListI25QGeoRouteSegmentContainerE5clearEv.clean)
    t._ZN5QListI25QGeoRouteSegmentContainerE6appendERKS0_ 0x00013250   Section      112  qgeoroutexmlparser.o(t._ZN5QListI25QGeoRouteSegmentContainerE6appendERKS0_)
    t._ZN5QListI25QGeoRouteSegmentContainerE6appendERKS0_.clean 0x000132c0   Section       14  qgeoroutexmlparser.o(t._ZN5QListI25QGeoRouteSegmentContainerE6appendERKS0_.clean)
    t._ZN5QListI25QGeoRouteSegmentContainerE9node_copyEPNS1_4NodeES3_S3_ 0x000132ce   Section       92  qgeoroutexmlparser.o(t._ZN5QListI25QGeoRouteSegmentContainerE9node_copyEPNS1_4NodeES3_S3_)
    t._ZN5QListI25QGeoRouteSegmentContainerE9node_copyEPNS1_4NodeES3_S3_.clean 0x0001332a   Section       22  qgeoroutexmlparser.o(t._ZN5QListI25QGeoRouteSegmentContainerE9node_copyEPNS1_4NodeES3_S3_.clean)
    t._ZN5QListI25QGeoRouteSegmentContainerEC1Ev 0x00013340   Section       24  qgeoroutexmlparser.o(t._ZN5QListI25QGeoRouteSegmentContainerEC1Ev)
    t._ZN5QListI25QGeoRouteSegmentContainerED1Ev 0x00013358   Section       32  qgeoroutexmlparser.o(t._ZN5QListI25QGeoRouteSegmentContainerED1Ev)
    t._ZN5QListI7QStringE13detach_helperEi   0x00013378   Section       94  qgeoroutingmanagerengine_nokia.o(t._ZN5QListI7QStringE13detach_helperEi)
    t._ZN5QListI7QStringE13detach_helperEi.clean 0x000133d6   Section        8  qgeoroutingmanagerengine_nokia.o(t._ZN5QListI7QStringE13detach_helperEi.clean)
    t._ZN5QListI7QStringE13detach_helperEv   0x000133de   Section       16  qgeoroutexmlparser.o(t._ZN5QListI7QStringE13detach_helperEv)
    t._ZN5QListI7QStringE13node_destructEPNS1_4NodeES3_ 0x000133ee   Section       26  qgeoroutingmanagerengine_nokia.o(t._ZN5QListI7QStringE13node_destructEPNS1_4NodeES3_)
    t._ZN5QListI7QStringE14node_constructEPNS1_4NodeERKS0_ 0x00013408   Section       36  qgeoroutingmanagerengine_nokia.o(t._ZN5QListI7QStringE14node_constructEPNS1_4NodeERKS0_)
    t._ZN5QListI7QStringE14node_constructEPNS1_4NodeERKS0_.clean 0x0001342c   Section       14  qgeoroutingmanagerengine_nokia.o(t._ZN5QListI7QStringE14node_constructEPNS1_4NodeERKS0_.clean)
    t._ZN5QListI7QStringE18detach_helper_growEii 0x0001343a   Section      208  qgeoroutingmanagerengine_nokia.o(t._ZN5QListI7QStringE18detach_helper_growEii)
    t._ZN5QListI7QStringE18detach_helper_growEii.clean 0x0001350a   Section       16  qgeoroutingmanagerengine_nokia.o(t._ZN5QListI7QStringE18detach_helper_growEii.clean)
    t._ZN5QListI7QStringE4freeEPN9QListData4DataE 0x0001351a   Section       52  qgeoroutingmanagerengine_nokia.o(t._ZN5QListI7QStringE4freeEPN9QListData4DataE)
    t._ZN5QListI7QStringE6appendERKS0_       0x00013550   Section      120  qgeoroutingmanagerengine_nokia.o(t._ZN5QListI7QStringE6appendERKS0_)
    t._ZN5QListI7QStringE6appendERKS0_.clean 0x000135c8   Section       14  qgeoroutingmanagerengine_nokia.o(t._ZN5QListI7QStringE6appendERKS0_.clean)
    t._ZN5QListI7QStringE7reserveEi          0x000135d6   Section       46  qgeotiledmapdata_nokia.o(t._ZN5QListI7QStringE7reserveEi)
    t._ZN5QListI7QStringE9node_copyEPNS1_4NodeES3_S3_ 0x00013604   Section       82  qgeoroutingmanagerengine_nokia.o(t._ZN5QListI7QStringE9node_copyEPNS1_4NodeES3_S3_)
    t._ZN5QListI7QStringE9node_copyEPNS1_4NodeES3_S3_.clean 0x00013656   Section       22  qgeoroutingmanagerengine_nokia.o(t._ZN5QListI7QStringE9node_copyEPNS1_4NodeES3_S3_.clean)
    t._ZN5QListI7QStringEC1Ev                0x0001366c   Section       24  qgeotiledmapdata_nokia.o(t._ZN5QListI7QStringEC1Ev)
    t._ZN5QListI7QStringED1Ev                0x00013684   Section       32  qgeoroutexmlparser.o(t._ZN5QListI7QStringED1Ev)
    t._ZN5QListI7QStringEixEi                0x000136a4   Section       42  qgeoroutexmlparser.o(t._ZN5QListI7QStringEixEi)
    t._ZN5QListI8QVariantE13detach_helperEi  0x000136ce   Section       94  qgeotiledmapdata_nokia.o(t._ZN5QListI8QVariantE13detach_helperEi)
    t._ZN5QListI8QVariantE13detach_helperEi.clean 0x0001372c   Section        8  qgeotiledmapdata_nokia.o(t._ZN5QListI8QVariantE13detach_helperEi.clean)
    t._ZN5QListI8QVariantE13detach_helperEv  0x00013734   Section       16  qgeotiledmapdata_nokia.o(t._ZN5QListI8QVariantE13detach_helperEv)
    t._ZN5QListI8QVariantE13node_destructEPNS1_4NodeES3_ 0x00013744   Section       38  qgeotiledmapdata_nokia.o(t._ZN5QListI8QVariantE13node_destructEPNS1_4NodeES3_)
    t._ZN5QListI8QVariantE14node_constructEPNS1_4NodeERKS0_ 0x0001376a   Section       34  qgeotiledmapdata_nokia.o(t._ZN5QListI8QVariantE14node_constructEPNS1_4NodeERKS0_)
    t._ZN5QListI8QVariantE14node_constructEPNS1_4NodeERKS0_.clean 0x0001378c   Section       14  qgeotiledmapdata_nokia.o(t._ZN5QListI8QVariantE14node_constructEPNS1_4NodeERKS0_.clean)
    t._ZN5QListI8QVariantE18detach_helper_growEii 0x0001379a   Section      208  qgeotiledmapdata_nokia.o(t._ZN5QListI8QVariantE18detach_helper_growEii)
    t._ZN5QListI8QVariantE18detach_helper_growEii.clean 0x0001386a   Section       16  qgeotiledmapdata_nokia.o(t._ZN5QListI8QVariantE18detach_helper_growEii.clean)
    t._ZN5QListI8QVariantE4freeEPN9QListData4DataE 0x0001387a   Section       52  qgeotiledmapdata_nokia.o(t._ZN5QListI8QVariantE4freeEPN9QListData4DataE)
    t._ZN5QListI8QVariantE6appendERKS0_      0x000138b0   Section      112  qgeotiledmapdata_nokia.o(t._ZN5QListI8QVariantE6appendERKS0_)
    t._ZN5QListI8QVariantE6appendERKS0_.clean 0x00013920   Section       14  qgeotiledmapdata_nokia.o(t._ZN5QListI8QVariantE6appendERKS0_.clean)
    t._ZN5QListI8QVariantE9node_copyEPNS1_4NodeES3_S3_ 0x0001392e   Section       92  qgeotiledmapdata_nokia.o(t._ZN5QListI8QVariantE9node_copyEPNS1_4NodeES3_S3_)
    t._ZN5QListI8QVariantE9node_copyEPNS1_4NodeES3_S3_.clean 0x0001398a   Section       22  qgeotiledmapdata_nokia.o(t._ZN5QListI8QVariantE9node_copyEPNS1_4NodeES3_S3_.clean)
    t._ZN5QListI8QVariantED1Ev               0x000139a0   Section       32  qgeotiledmapdata_nokia.o(t._ZN5QListI8QVariantED1Ev)
    t._ZN5QListIN10QtMobility14QGeoCoordinateEE13detach_helperEi 0x000139c0   Section       94  qgeoroutexmlparser.o(t._ZN5QListIN10QtMobility14QGeoCoordinateEE13detach_helperEi)
    t._ZN5QListIN10QtMobility14QGeoCoordinateEE13detach_helperEi.clean 0x00013a1e   Section        8  qgeoroutexmlparser.o(t._ZN5QListIN10QtMobility14QGeoCoordinateEE13detach_helperEi.clean)
    t._ZN5QListIN10QtMobility14QGeoCoordinateEE13detach_helperEv 0x00013a26   Section       16  qgeoroutexmlparser.o(t._ZN5QListIN10QtMobility14QGeoCoordinateEE13detach_helperEv)
    t._ZN5QListIN10QtMobility14QGeoCoordinateEE13node_destructEPNS2_4NodeES4_ 0x00013a36   Section       38  qgeoroutexmlparser.o(t._ZN5QListIN10QtMobility14QGeoCoordinateEE13node_destructEPNS2_4NodeES4_)
    t._ZN5QListIN10QtMobility14QGeoCoordinateEE14node_constructEPNS2_4NodeERKS1_ 0x00013a5c   Section       34  qgeoroutexmlparser.o(t._ZN5QListIN10QtMobility14QGeoCoordinateEE14node_constructEPNS2_4NodeERKS1_)
    t._ZN5QListIN10QtMobility14QGeoCoordinateEE14node_constructEPNS2_4NodeERKS1_.clean 0x00013a7e   Section       14  qgeoroutexmlparser.o(t._ZN5QListIN10QtMobility14QGeoCoordinateEE14node_constructEPNS2_4NodeERKS1_.clean)
    t._ZN5QListIN10QtMobility14QGeoCoordinateEE18detach_helper_growEii 0x00013a8c   Section      208  qgeoroutexmlparser.o(t._ZN5QListIN10QtMobility14QGeoCoordinateEE18detach_helper_growEii)
    t._ZN5QListIN10QtMobility14QGeoCoordinateEE18detach_helper_growEii.clean 0x00013b5c   Section       16  qgeoroutexmlparser.o(t._ZN5QListIN10QtMobility14QGeoCoordinateEE18detach_helper_growEii.clean)
    t._ZN5QListIN10QtMobility14QGeoCoordinateEE4freeEPN9QListData4DataE 0x00013b6c   Section       52  qgeoroutexmlparser.o(t._ZN5QListIN10QtMobility14QGeoCoordinateEE4freeEPN9QListData4DataE)
    t._ZN5QListIN10QtMobility14QGeoCoordinateEE6appendERKS1_ 0x00013ba0   Section      112  qgeoroutexmlparser.o(t._ZN5QListIN10QtMobility14QGeoCoordinateEE6appendERKS1_)
    t._ZN5QListIN10QtMobility14QGeoCoordinateEE6appendERKS1_.clean 0x00013c10   Section       14  qgeoroutexmlparser.o(t._ZN5QListIN10QtMobility14QGeoCoordinateEE6appendERKS1_.clean)
    t._ZN5QListIN10QtMobility14QGeoCoordinateEE9node_copyEPNS2_4NodeES4_S4_ 0x00013c1e   Section       92  qgeoroutexmlparser.o(t._ZN5QListIN10QtMobility14QGeoCoordinateEE9node_copyEPNS2_4NodeES4_S4_)
    t._ZN5QListIN10QtMobility14QGeoCoordinateEE9node_copyEPNS2_4NodeES4_S4_.clean 0x00013c7a   Section       22  qgeoroutexmlparser.o(t._ZN5QListIN10QtMobility14QGeoCoordinateEE9node_copyEPNS2_4NodeES4_S4_.clean)
    t._ZN5QListIN10QtMobility14QGeoCoordinateEEC1Ev 0x00013c90   Section       24  qgeoroutexmlparser.o(t._ZN5QListIN10QtMobility14QGeoCoordinateEEC1Ev)
    t._ZN5QListIN10QtMobility14QGeoCoordinateEED1Ev 0x00013ca8   Section       32  qgeoroutexmlparser.o(t._ZN5QListIN10QtMobility14QGeoCoordinateEED1Ev)
    t._ZN5QListIN10QtMobility14QGeoCoordinateEEpLERKS2_ 0x00013cc8   Section      200  qgeoroutexmlparser.o(t._ZN5QListIN10QtMobility14QGeoCoordinateEEpLERKS2_)
    t._ZN5QListIN10QtMobility14QGeoCoordinateEEpLERKS2_.clean 0x00013d90   Section        8  qgeoroutexmlparser.o(t._ZN5QListIN10QtMobility14QGeoCoordinateEEpLERKS2_.clean)
    t._ZN5QListIN10QtMobility15QGeoBoundingBoxEE13detach_helperEi 0x00013d98   Section       94  qgeotiledmapdata_nokia.o(t._ZN5QListIN10QtMobility15QGeoBoundingBoxEE13detach_helperEi)
    t._ZN5QListIN10QtMobility15QGeoBoundingBoxEE13detach_helperEi.clean 0x00013df6   Section        8  qgeotiledmapdata_nokia.o(t._ZN5QListIN10QtMobility15QGeoBoundingBoxEE13detach_helperEi.clean)
    t._ZN5QListIN10QtMobility15QGeoBoundingBoxEE13detach_helperEv 0x00013dfe   Section       16  qgeotiledmapdata_nokia.o(t._ZN5QListIN10QtMobility15QGeoBoundingBoxEE13detach_helperEv)
    t._ZN5QListIN10QtMobility15QGeoBoundingBoxEE13node_destructEPNS2_4NodeES4_ 0x00013e0e   Section       36  qgeotiledmapdata_nokia.o(t._ZN5QListIN10QtMobility15QGeoBoundingBoxEE13node_destructEPNS2_4NodeES4_)
    t._ZN5QListIN10QtMobility15QGeoBoundingBoxEE14node_constructEPNS2_4NodeERKS1_ 0x00013e32   Section       34  qgeotiledmapdata_nokia.o(t._ZN5QListIN10QtMobility15QGeoBoundingBoxEE14node_constructEPNS2_4NodeERKS1_)
    t._ZN5QListIN10QtMobility15QGeoBoundingBoxEE14node_constructEPNS2_4NodeERKS1_.clean 0x00013e54   Section       14  qgeotiledmapdata_nokia.o(t._ZN5QListIN10QtMobility15QGeoBoundingBoxEE14node_constructEPNS2_4NodeERKS1_.clean)
    t._ZN5QListIN10QtMobility15QGeoBoundingBoxEE18detach_helper_growEii 0x00013e62   Section      208  qgeotiledmapdata_nokia.o(t._ZN5QListIN10QtMobility15QGeoBoundingBoxEE18detach_helper_growEii)
    t._ZN5QListIN10QtMobility15QGeoBoundingBoxEE18detach_helper_growEii.clean 0x00013f32   Section       16  qgeotiledmapdata_nokia.o(t._ZN5QListIN10QtMobility15QGeoBoundingBoxEE18detach_helper_growEii.clean)
    t._ZN5QListIN10QtMobility15QGeoBoundingBoxEE4freeEPN9QListData4DataE 0x00013f42   Section       52  qgeotiledmapdata_nokia.o(t._ZN5QListIN10QtMobility15QGeoBoundingBoxEE4freeEPN9QListData4DataE)
    t._ZN5QListIN10QtMobility15QGeoBoundingBoxEE6appendERKS1_ 0x00013f78   Section      112  qgeotiledmapdata_nokia.o(t._ZN5QListIN10QtMobility15QGeoBoundingBoxEE6appendERKS1_)
    t._ZN5QListIN10QtMobility15QGeoBoundingBoxEE6appendERKS1_.clean 0x00013fe8   Section       14  qgeotiledmapdata_nokia.o(t._ZN5QListIN10QtMobility15QGeoBoundingBoxEE6appendERKS1_.clean)
    t._ZN5QListIN10QtMobility15QGeoBoundingBoxEE9node_copyEPNS2_4NodeES4_S4_ 0x00013ff6   Section       90  qgeotiledmapdata_nokia.o(t._ZN5QListIN10QtMobility15QGeoBoundingBoxEE9node_copyEPNS2_4NodeES4_S4_)
    t._ZN5QListIN10QtMobility15QGeoBoundingBoxEE9node_copyEPNS2_4NodeES4_S4_.clean 0x00014050   Section       22  qgeotiledmapdata_nokia.o(t._ZN5QListIN10QtMobility15QGeoBoundingBoxEE9node_copyEPNS2_4NodeES4_S4_.clean)
    t._ZN5QListIN10QtMobility15QGeoBoundingBoxEEC1ERKS2_ 0x00014066   Section       36  qgeotiledmapdata_nokia.o(t._ZN5QListIN10QtMobility15QGeoBoundingBoxEEC1ERKS2_)
    t._ZN5QListIN10QtMobility15QGeoBoundingBoxEED1Ev 0x0001408a   Section       32  qgeoroutingmanagerengine_nokia.o(t._ZN5QListIN10QtMobility15QGeoBoundingBoxEED1Ev)
    t._ZN5QListIN10QtMobility15QGraphicsGeoMap16ConnectivityModeEE13node_destructEPNS3_4NodeES5_ 0x000140aa   Section       26  qgeomappingmanagerengine_nokia.o(t._ZN5QListIN10QtMobility15QGraphicsGeoMap16ConnectivityModeEE13node_destructEPNS3_4NodeES5_)
    t._ZN5QListIN10QtMobility15QGraphicsGeoMap16ConnectivityModeEE14node_constructEPNS3_4NodeERKS2_ 0x000140c4   Section       30  qgeomappingmanagerengine_nokia.o(t._ZN5QListIN10QtMobility15QGraphicsGeoMap16ConnectivityModeEE14node_constructEPNS3_4NodeERKS2_)
    t._ZN5QListIN10QtMobility15QGraphicsGeoMap16ConnectivityModeEE18detach_helper_growEii 0x000140e2   Section      208  qgeomappingmanagerengine_nokia.o(t._ZN5QListIN10QtMobility15QGraphicsGeoMap16ConnectivityModeEE18detach_helper_growEii)
    t._ZN5QListIN10QtMobility15QGraphicsGeoMap16ConnectivityModeEE18detach_helper_growEii.clean 0x000141b2   Section       16  qgeomappingmanagerengine_nokia.o(t._ZN5QListIN10QtMobility15QGraphicsGeoMap16ConnectivityModeEE18detach_helper_growEii.clean)
    t._ZN5QListIN10QtMobility15QGraphicsGeoMap16ConnectivityModeEE4freeEPN9QListData4DataE 0x000141c2   Section       58  qgeomappingmanagerengine_nokia.o(t._ZN5QListIN10QtMobility15QGraphicsGeoMap16ConnectivityModeEE4freeEPN9QListData4DataE)
    t._ZN5QListIN10QtMobility15QGraphicsGeoMap16ConnectivityModeEE6appendERKS2_ 0x000141fc   Section      112  qgeomappingmanagerengine_nokia.o(t._ZN5QListIN10QtMobility15QGraphicsGeoMap16ConnectivityModeEE6appendERKS2_)
    t._ZN5QListIN10QtMobility15QGraphicsGeoMap16ConnectivityModeEE6appendERKS2_.clean 0x0001426c   Section       14  qgeomappingmanagerengine_nokia.o(t._ZN5QListIN10QtMobility15QGraphicsGeoMap16ConnectivityModeEE6appendERKS2_.clean)
    t._ZN5QListIN10QtMobility15QGraphicsGeoMap16ConnectivityModeEE9node_copyEPNS3_4NodeES5_S5_ 0x0001427a   Section       78  qgeomappingmanagerengine_nokia.o(t._ZN5QListIN10QtMobility15QGraphicsGeoMap16ConnectivityModeEE9node_copyEPNS3_4NodeES5_S5_)
    t._ZN5QListIN10QtMobility15QGraphicsGeoMap16ConnectivityModeEE9node_copyEPNS3_4NodeES5_S5_.clean 0x000142c8   Section        8  qgeomappingmanagerengine_nokia.o(t._ZN5QListIN10QtMobility15QGraphicsGeoMap16ConnectivityModeEE9node_copyEPNS3_4NodeES5_S5_.clean)
    t._ZN5QListIN10QtMobility15QGraphicsGeoMap16ConnectivityModeEED1Ev 0x000142d0   Section       32  qgeomappingmanagerengine_nokia.o(t._ZN5QListIN10QtMobility15QGraphicsGeoMap16ConnectivityModeEED1Ev)
    t._ZN5QListIN10QtMobility15QGraphicsGeoMap7MapTypeEE13node_destructEPNS3_4NodeES5_ 0x000142f0   Section       26  qgeomappingmanagerengine_nokia.o(t._ZN5QListIN10QtMobility15QGraphicsGeoMap7MapTypeEE13node_destructEPNS3_4NodeES5_)
    t._ZN5QListIN10QtMobility15QGraphicsGeoMap7MapTypeEE14node_constructEPNS3_4NodeERKS2_ 0x0001430a   Section       30  qgeomappingmanagerengine_nokia.o(t._ZN5QListIN10QtMobility15QGraphicsGeoMap7MapTypeEE14node_constructEPNS3_4NodeERKS2_)
    t._ZN5QListIN10QtMobility15QGraphicsGeoMap7MapTypeEE18detach_helper_growEii 0x00014328   Section      208  qgeomappingmanagerengine_nokia.o(t._ZN5QListIN10QtMobility15QGraphicsGeoMap7MapTypeEE18detach_helper_growEii)
    t._ZN5QListIN10QtMobility15QGraphicsGeoMap7MapTypeEE18detach_helper_growEii.clean 0x000143f8   Section       16  qgeomappingmanagerengine_nokia.o(t._ZN5QListIN10QtMobility15QGraphicsGeoMap7MapTypeEE18detach_helper_growEii.clean)
    t._ZN5QListIN10QtMobility15QGraphicsGeoMap7MapTypeEE4freeEPN9QListData4DataE 0x00014408   Section       58  qgeomappingmanagerengine_nokia.o(t._ZN5QListIN10QtMobility15QGraphicsGeoMap7MapTypeEE4freeEPN9QListData4DataE)
    t._ZN5QListIN10QtMobility15QGraphicsGeoMap7MapTypeEE6appendERKS2_ 0x00014444   Section      112  qgeomappingmanagerengine_nokia.o(t._ZN5QListIN10QtMobility15QGraphicsGeoMap7MapTypeEE6appendERKS2_)
    t._ZN5QListIN10QtMobility15QGraphicsGeoMap7MapTypeEE6appendERKS2_.clean 0x000144b4   Section       14  qgeomappingmanagerengine_nokia.o(t._ZN5QListIN10QtMobility15QGraphicsGeoMap7MapTypeEE6appendERKS2_.clean)
    t._ZN5QListIN10QtMobility15QGraphicsGeoMap7MapTypeEE9node_copyEPNS3_4NodeES5_S5_ 0x000144c2   Section       78  qgeomappingmanagerengine_nokia.o(t._ZN5QListIN10QtMobility15QGraphicsGeoMap7MapTypeEE9node_copyEPNS3_4NodeES5_S5_)
    t._ZN5QListIN10QtMobility15QGraphicsGeoMap7MapTypeEE9node_copyEPNS3_4NodeES5_S5_.clean 0x00014510   Section        8  qgeomappingmanagerengine_nokia.o(t._ZN5QListIN10QtMobility15QGraphicsGeoMap7MapTypeEE9node_copyEPNS3_4NodeES5_S5_.clean)
    t._ZN5QListIN10QtMobility15QGraphicsGeoMap7MapTypeEED1Ev 0x00014518   Section       32  qgeomappingmanagerengine_nokia.o(t._ZN5QListIN10QtMobility15QGraphicsGeoMap7MapTypeEED1Ev)
    t._ZN5QListIN10QtMobility16QGeoRouteRequest11FeatureTypeEE4freeEPN9QListData4DataE 0x00014538   Section       64  qgeoroutingmanagerengine_nokia.o(t._ZN5QListIN10QtMobility16QGeoRouteRequest11FeatureTypeEE4freeEPN9QListData4DataE)
    t._ZN5QListIN10QtMobility16QGeoRouteRequest11FeatureTypeEED1Ev 0x00014578   Section       32  qgeoroutingmanagerengine_nokia.o(t._ZN5QListIN10QtMobility16QGeoRouteRequest11FeatureTypeEED1Ev)
    t._ZN5QListIN10QtMobility16QGeoRouteSegmentEE11removeFirstEv 0x00014598   Section       26  qgeoroutexmlparser.o(t._ZN5QListIN10QtMobility16QGeoRouteSegmentEE11removeFirstEv)
    t._ZN5QListIN10QtMobility16QGeoRouteSegmentEE13detach_helperEi 0x000145b2   Section       94  qgeoroutexmlparser.o(t._ZN5QListIN10QtMobility16QGeoRouteSegmentEE13detach_helperEi)
    t._ZN5QListIN10QtMobility16QGeoRouteSegmentEE13detach_helperEi.clean 0x00014610   Section        8  qgeoroutexmlparser.o(t._ZN5QListIN10QtMobility16QGeoRouteSegmentEE13detach_helperEi.clean)
    t._ZN5QListIN10QtMobility16QGeoRouteSegmentEE13detach_helperEv 0x00014618   Section       16  qgeoroutexmlparser.o(t._ZN5QListIN10QtMobility16QGeoRouteSegmentEE13detach_helperEv)
    t._ZN5QListIN10QtMobility16QGeoRouteSegmentEE13node_destructEPNS2_4NodeE 0x00014628   Section       28  qgeoroutexmlparser.o(t._ZN5QListIN10QtMobility16QGeoRouteSegmentEE13node_destructEPNS2_4NodeE)
    t._ZN5QListIN10QtMobility16QGeoRouteSegmentEE13node_destructEPNS2_4NodeES4_ 0x00014644   Section       38  qgeoroutexmlparser.o(t._ZN5QListIN10QtMobility16QGeoRouteSegmentEE13node_destructEPNS2_4NodeES4_)
    t._ZN5QListIN10QtMobility16QGeoRouteSegmentEE14node_constructEPNS2_4NodeERKS1_ 0x0001466a   Section       34  qgeoroutexmlparser.o(t._ZN5QListIN10QtMobility16QGeoRouteSegmentEE14node_constructEPNS2_4NodeERKS1_)
    t._ZN5QListIN10QtMobility16QGeoRouteSegmentEE14node_constructEPNS2_4NodeERKS1_.clean 0x0001468c   Section       14  qgeoroutexmlparser.o(t._ZN5QListIN10QtMobility16QGeoRouteSegmentEE14node_constructEPNS2_4NodeERKS1_.clean)
    t._ZN5QListIN10QtMobility16QGeoRouteSegmentEE18detach_helper_growEii 0x0001469a   Section      208  qgeoroutexmlparser.o(t._ZN5QListIN10QtMobility16QGeoRouteSegmentEE18detach_helper_growEii)
    t._ZN5QListIN10QtMobility16QGeoRouteSegmentEE18detach_helper_growEii.clean 0x0001476a   Section       16  qgeoroutexmlparser.o(t._ZN5QListIN10QtMobility16QGeoRouteSegmentEE18detach_helper_growEii.clean)
    t._ZN5QListIN10QtMobility16QGeoRouteSegmentEE3endEv 0x0001477a   Section       26  qgeoroutexmlparser.o(t._ZN5QListIN10QtMobility16QGeoRouteSegmentEE3endEv)
    t._ZN5QListIN10QtMobility16QGeoRouteSegmentEE4freeEPN9QListData4DataE 0x00014794   Section       52  qgeoroutexmlparser.o(t._ZN5QListIN10QtMobility16QGeoRouteSegmentEE4freeEPN9QListData4DataE)
    t._ZN5QListIN10QtMobility16QGeoRouteSegmentEE5beginEv 0x000147c8   Section       26  qgeoroutexmlparser.o(t._ZN5QListIN10QtMobility16QGeoRouteSegmentEE5beginEv)
    t._ZN5QListIN10QtMobility16QGeoRouteSegmentEE5eraseENS2_8iteratorE 0x000147e2   Section       32  qgeoroutexmlparser.o(t._ZN5QListIN10QtMobility16QGeoRouteSegmentEE5eraseENS2_8iteratorE)
    t._ZN5QListIN10QtMobility16QGeoRouteSegmentEE5firstEv 0x00014802   Section       22  qgeoroutexmlparser.o(t._ZN5QListIN10QtMobility16QGeoRouteSegmentEE5firstEv)
    t._ZN5QListIN10QtMobility16QGeoRouteSegmentEE6appendERKS1_ 0x00014818   Section      112  qgeoroutexmlparser.o(t._ZN5QListIN10QtMobility16QGeoRouteSegmentEE6appendERKS1_)
    t._ZN5QListIN10QtMobility16QGeoRouteSegmentEE6appendERKS1_.clean 0x00014888   Section       14  qgeoroutexmlparser.o(t._ZN5QListIN10QtMobility16QGeoRouteSegmentEE6appendERKS1_.clean)
    t._ZN5QListIN10QtMobility16QGeoRouteSegmentEE6detachEv 0x00014896   Section       24  qgeoroutexmlparser.o(t._ZN5QListIN10QtMobility16QGeoRouteSegmentEE6detachEv)
    t._ZN5QListIN10QtMobility16QGeoRouteSegmentEE9node_copyEPNS2_4NodeES4_S4_ 0x000148ae   Section       92  qgeoroutexmlparser.o(t._ZN5QListIN10QtMobility16QGeoRouteSegmentEE9node_copyEPNS2_4NodeES4_S4_)
    t._ZN5QListIN10QtMobility16QGeoRouteSegmentEE9node_copyEPNS2_4NodeES4_S4_.clean 0x0001490a   Section       22  qgeoroutexmlparser.o(t._ZN5QListIN10QtMobility16QGeoRouteSegmentEE9node_copyEPNS2_4NodeES4_S4_.clean)
    t._ZN5QListIN10QtMobility16QGeoRouteSegmentEEC1Ev 0x00014920   Section       24  qgeoroutexmlparser.o(t._ZN5QListIN10QtMobility16QGeoRouteSegmentEEC1Ev)
    t._ZN5QListIN10QtMobility16QGeoRouteSegmentEED1Ev 0x00014938   Section       32  qgeoroutexmlparser.o(t._ZN5QListIN10QtMobility16QGeoRouteSegmentEED1Ev)
    t._ZN5QListIN10QtMobility9QGeoPlaceEE13detach_helperEi 0x00014958   Section       94  qgeocodexmlparser.o(t._ZN5QListIN10QtMobility9QGeoPlaceEE13detach_helperEi)
    t._ZN5QListIN10QtMobility9QGeoPlaceEE13detach_helperEi.clean 0x000149b6   Section        8  qgeocodexmlparser.o(t._ZN5QListIN10QtMobility9QGeoPlaceEE13detach_helperEi.clean)
    t._ZN5QListIN10QtMobility9QGeoPlaceEE13detach_helperEv 0x000149be   Section       16  qgeocodexmlparser.o(t._ZN5QListIN10QtMobility9QGeoPlaceEE13detach_helperEv)
    t._ZN5QListIN10QtMobility9QGeoPlaceEE13node_destructEPNS2_4NodeES4_ 0x000149ce   Section       36  qgeocodexmlparser.o(t._ZN5QListIN10QtMobility9QGeoPlaceEE13node_destructEPNS2_4NodeES4_)
    t._ZN5QListIN10QtMobility9QGeoPlaceEE14node_constructEPNS2_4NodeERKS1_ 0x000149f2   Section       34  qgeocodexmlparser.o(t._ZN5QListIN10QtMobility9QGeoPlaceEE14node_constructEPNS2_4NodeERKS1_)
    t._ZN5QListIN10QtMobility9QGeoPlaceEE14node_constructEPNS2_4NodeERKS1_.clean 0x00014a14   Section       14  qgeocodexmlparser.o(t._ZN5QListIN10QtMobility9QGeoPlaceEE14node_constructEPNS2_4NodeERKS1_.clean)
    t._ZN5QListIN10QtMobility9QGeoPlaceEE18detach_helper_growEii 0x00014a22   Section      208  qgeocodexmlparser.o(t._ZN5QListIN10QtMobility9QGeoPlaceEE18detach_helper_growEii)
    t._ZN5QListIN10QtMobility9QGeoPlaceEE18detach_helper_growEii.clean 0x00014af2   Section       16  qgeocodexmlparser.o(t._ZN5QListIN10QtMobility9QGeoPlaceEE18detach_helper_growEii.clean)
    t._ZN5QListIN10QtMobility9QGeoPlaceEE4freeEPN9QListData4DataE 0x00014b02   Section       58  qgeocodexmlparser.o(t._ZN5QListIN10QtMobility9QGeoPlaceEE4freeEPN9QListData4DataE)
    t._ZN5QListIN10QtMobility9QGeoPlaceEE6appendERKS1_ 0x00014b3c   Section      116  qgeocodexmlparser.o(t._ZN5QListIN10QtMobility9QGeoPlaceEE6appendERKS1_)
    t._ZN5QListIN10QtMobility9QGeoPlaceEE6appendERKS1_.clean 0x00014bb0   Section       14  qgeocodexmlparser.o(t._ZN5QListIN10QtMobility9QGeoPlaceEE6appendERKS1_.clean)
    t._ZN5QListIN10QtMobility9QGeoPlaceEE6detachEv 0x00014bbe   Section       30  qgeosearchreply_nokia.o(t._ZN5QListIN10QtMobility9QGeoPlaceEE6detachEv)
    t._ZN5QListIN10QtMobility9QGeoPlaceEE9node_copyEPNS2_4NodeES4_S4_ 0x00014bdc   Section       90  qgeocodexmlparser.o(t._ZN5QListIN10QtMobility9QGeoPlaceEE9node_copyEPNS2_4NodeES4_S4_)
    t._ZN5QListIN10QtMobility9QGeoPlaceEE9node_copyEPNS2_4NodeES4_S4_.clean 0x00014c36   Section       22  qgeocodexmlparser.o(t._ZN5QListIN10QtMobility9QGeoPlaceEE9node_copyEPNS2_4NodeES4_S4_.clean)
    t._ZN5QListIN10QtMobility9QGeoPlaceEED1Ev 0x00014c4c   Section       32  qgeocodexmlparser.o(t._ZN5QListIN10QtMobility9QGeoPlaceEED1Ev)
    t._ZN5QListIN10QtMobility9QGeoRouteEE13detach_helperEi 0x00014c6c   Section       94  qgeoroutexmlparser.o(t._ZN5QListIN10QtMobility9QGeoRouteEE13detach_helperEi)
    t._ZN5QListIN10QtMobility9QGeoRouteEE13detach_helperEi.clean 0x00014cca   Section        8  qgeoroutexmlparser.o(t._ZN5QListIN10QtMobility9QGeoRouteEE13detach_helperEi.clean)
    t._ZN5QListIN10QtMobility9QGeoRouteEE13detach_helperEv 0x00014cd2   Section       16  qgeoroutexmlparser.o(t._ZN5QListIN10QtMobility9QGeoRouteEE13detach_helperEv)
    t._ZN5QListIN10QtMobility9QGeoRouteEE13node_destructEPNS2_4NodeES4_ 0x00014ce2   Section       38  qgeoroutexmlparser.o(t._ZN5QListIN10QtMobility9QGeoRouteEE13node_destructEPNS2_4NodeES4_)
    t._ZN5QListIN10QtMobility9QGeoRouteEE14node_constructEPNS2_4NodeERKS1_ 0x00014d08   Section       34  qgeoroutexmlparser.o(t._ZN5QListIN10QtMobility9QGeoRouteEE14node_constructEPNS2_4NodeERKS1_)
    t._ZN5QListIN10QtMobility9QGeoRouteEE14node_constructEPNS2_4NodeERKS1_.clean 0x00014d2a   Section       14  qgeoroutexmlparser.o(t._ZN5QListIN10QtMobility9QGeoRouteEE14node_constructEPNS2_4NodeERKS1_.clean)
    t._ZN5QListIN10QtMobility9QGeoRouteEE18detach_helper_growEii 0x00014d38   Section      208  qgeoroutexmlparser.o(t._ZN5QListIN10QtMobility9QGeoRouteEE18detach_helper_growEii)
    t._ZN5QListIN10QtMobility9QGeoRouteEE18detach_helper_growEii.clean 0x00014e08   Section       16  qgeoroutexmlparser.o(t._ZN5QListIN10QtMobility9QGeoRouteEE18detach_helper_growEii.clean)
    t._ZN5QListIN10QtMobility9QGeoRouteEE4freeEPN9QListData4DataE 0x00014e18   Section       52  qgeoroutexmlparser.o(t._ZN5QListIN10QtMobility9QGeoRouteEE4freeEPN9QListData4DataE)
    t._ZN5QListIN10QtMobility9QGeoRouteEE6appendERKS1_ 0x00014e4c   Section      112  qgeoroutexmlparser.o(t._ZN5QListIN10QtMobility9QGeoRouteEE6appendERKS1_)
    t._ZN5QListIN10QtMobility9QGeoRouteEE6appendERKS1_.clean 0x00014ebc   Section       14  qgeoroutexmlparser.o(t._ZN5QListIN10QtMobility9QGeoRouteEE6appendERKS1_.clean)
    t._ZN5QListIN10QtMobility9QGeoRouteEE9node_copyEPNS2_4NodeES4_S4_ 0x00014eca   Section       92  qgeoroutexmlparser.o(t._ZN5QListIN10QtMobility9QGeoRouteEE9node_copyEPNS2_4NodeES4_S4_)
    t._ZN5QListIN10QtMobility9QGeoRouteEE9node_copyEPNS2_4NodeES4_S4_.clean 0x00014f26   Section       22  qgeoroutexmlparser.o(t._ZN5QListIN10QtMobility9QGeoRouteEE9node_copyEPNS2_4NodeES4_S4_.clean)
    t._ZN5QListIN10QtMobility9QGeoRouteEED1Ev 0x00014f3c   Section       32  qgeoroutereply_nokia.o(t._ZN5QListIN10QtMobility9QGeoRouteEED1Ev)
    t._ZN7QVectorI19QXmlStreamAttributeE4freeEP16QVectorTypedDataIS0_E 0x00014f5c   Section       54  qgeocodexmlparser.o(t._ZN7QVectorI19QXmlStreamAttributeE4freeEP16QVectorTypedDataIS0_E)
    t._ZN7QVectorI19QXmlStreamAttributeED1Ev 0x00014f92   Section       34  qgeocodexmlparser.o(t._ZN7QVectorI19QXmlStreamAttributeED1Ev)
    t._ZN8QPointerI7QObjectED1Ev             0x00014fb4   Section       14  qgeoserviceproviderplugin_nokia.o(t._ZN8QPointerI7QObjectED1Ev)
    t._ZN9QHashNodeI7QString5QListI19CopyrightDescriptorEEC1ERKS0_RKS3_ 0x00014fc2   Section       40  qgeotiledmapdata_nokia.o(t._ZN9QHashNodeI7QString5QListI19CopyrightDescriptorEEC1ERKS0_RKS3_)
    t._ZN9QHashNodeI7QString5QListI19CopyrightDescriptorEEC1ERKS0_RKS3_.clean 0x00014fea   Section       12  qgeotiledmapdata_nokia.o(t._ZN9QHashNodeI7QString5QListI19CopyrightDescriptorEEC1ERKS0_RKS3_.clean)
    t._ZN9QHashNodeI7QString8QVariantEC1ERKS0_RKS1_ 0x00014ff6   Section       40  qgeotiledmapdata_nokia.o(t._ZN9QHashNodeI7QString8QVariantEC1ERKS0_RKS1_)
    t._ZN9QHashNodeI7QString8QVariantEC1ERKS0_RKS1_.clean 0x0001501e   Section       12  qgeotiledmapdata_nokia.o(t._ZN9QHashNodeI7QString8QVariantEC1ERKS0_RKS1_.clean)
    t._ZNK17QForeachContainerI5QListI8QVariantEE9conditionEv 0x0001502a   Section       40  qgeotiledmapdata_nokia.o(t._ZNK17QForeachContainerI5QListI8QVariantEE9conditionEv)
    t._ZNK4QMapI7QString8QVariantE5valueERKS0_ 0x00015052   Section       98  qgeomappingmanagerengine_nokia.o(t._ZNK4QMapI7QString8QVariantE5valueERKS0_)
    t._ZNK4QMapI7QString8QVariantE8containsERKS0_ 0x000150b4   Section       28  qgeomappingmanagerengine_nokia.o(t._ZNK4QMapI7QString8QVariantE8containsERKS0_)
    t._ZNK4QMapI7QString8QVariantE8findNodeERKS0_ 0x000150d0   Section      108  qgeomappingmanagerengine_nokia.o(t._ZNK4QMapI7QString8QVariantE8findNodeERKS0_)
    t._ZNK5QHashI7QString5QListI19CopyrightDescriptorEE8findNodeERKS0_Pj 0x0001513c   Section      116  qgeotiledmapdata_nokia.o(t._ZNK5QHashI7QString5QListI19CopyrightDescriptorEE8findNodeERKS0_Pj)
    t._ZNK5QHashI7QString8QVariantE4keysEv   0x000151b0   Section      142  qgeotiledmapdata_nokia.o(t._ZNK5QHashI7QString8QVariantE4keysEv)
    t._ZNK5QHashI7QString8QVariantE4keysEv.clean 0x0001523e   Section       10  qgeotiledmapdata_nokia.o(t._ZNK5QHashI7QString8QVariantE4keysEv.clean)
    t._ZNK5QHashI7QString8QVariantE8findNodeERKS0_Pj 0x00015248   Section      116  qgeotiledmapdata_nokia.o(t._ZNK5QHashI7QString8QVariantE8findNodeERKS0_Pj)
    t._ZNK5QListI21QGeoManeuverContainerE2atEi 0x000152bc   Section       22  qgeoroutexmlparser.o(t._ZNK5QListI21QGeoManeuverContainerE2atEi)
    t._ZNK5QListI25QGeoRouteSegmentContainerE2atEi 0x000152d2   Section       22  qgeoroutexmlparser.o(t._ZNK5QListI25QGeoRouteSegmentContainerE2atEi)
    t._ZNK5QListI8QVariantEixEi              0x000152e8   Section       30  qgeotiledmapdata_nokia.o(t._ZNK5QListI8QVariantEixEi)
    t._ZNK5QListIN10QtMobility14QGeoCoordinateEE7isEmptyEv 0x00015306   Section       24  qgeoroutexmlparser.o(t._ZNK5QListIN10QtMobility14QGeoCoordinateEE7isEmptyEv)
    t._ZNK5QListIN10QtMobility16QGeoRouteRequest11FeatureTypeEE2atEi 0x0001531e   Section       22  qgeoroutingmanagerengine_nokia.o(t._ZNK5QListIN10QtMobility16QGeoRouteRequest11FeatureTypeEE2atEi)
    t._ZNK5QListIN10QtMobility16QGeoRouteSegmentEE2atEi 0x00015334   Section       22  qgeoroutexmlparser.o(t._ZNK5QListIN10QtMobility16QGeoRouteSegmentEE2atEi)
    t._ZNK6QFlagsIN10QtMobility16QGeoRouteRequest10TravelModeEE8testFlagES2_ 0x0001534a   Section       28  qgeoroutingmanagerengine_nokia.o(t._ZNK6QFlagsIN10QtMobility16QGeoRouteRequest10TravelModeEE8testFlagES2_)
    t._ZNK6QFlagsIN10QtMobility16QGeoRouteRequest17RouteOptimizationEE8testFlagES2_ 0x00015366   Section       28  qgeoroutingmanagerengine_nokia.o(t._ZNK6QFlagsIN10QtMobility16QGeoRouteRequest17RouteOptimizationEE8testFlagES2_)
    .extab.__sti___16_qrc_resource_cpp       0x00015384   Data           0  qrc_resource.o(.ARM.extab)
    .extab._ZN17QGeoCodeXmlParserC1Ev        0x00015394   Data           0  qgeocodexmlparser.o(.ARM.extab)
    .extab._ZN17QGeoCodeXmlParserD1Ev        0x000153a4   Data           0  qgeocodexmlparser.o(.ARM.extab)
    .extab._ZN17QGeoCodeXmlParser12parseAddressEPN10QtMobility11QGeoAddressE 0x000153bc   Data           0  qgeocodexmlparser.o(.ARM.extab)
    .extab._ZN17QGeoCodeXmlParser15parseCoordinateEPN10QtMobility14QGeoCoordinateERK7QString 0x00015544   Data           0  qgeocodexmlparser.o(.ARM.extab)
    .extab._ZN17QGeoCodeXmlParser16parseBoundingBoxEPN10QtMobility15QGeoBoundingBoxE 0x000156e4   Data           0  qgeocodexmlparser.o(.ARM.extab)
    .extab._ZN17QGeoCodeXmlParser13parseLocationEPN10QtMobility9QGeoPlaceE 0x00015834   Data           0  qgeocodexmlparser.o(.ARM.extab)
    .extab._ZN17QGeoCodeXmlParser10parsePlaceEPN10QtMobility9QGeoPlaceE 0x0001590c   Data           0  qgeocodexmlparser.o(.ARM.extab)
    .extab._ZN17QGeoCodeXmlParser16parseRootElementEv 0x00015a54   Data           0  qgeocodexmlparser.o(.ARM.extab)
    .extab._ZN17QGeoCodeXmlParser5parseEP9QIODevice 0x00015bcc   Data           0  qgeocodexmlparser.o(.ARM.extab)
    .extab._Z23qStringComparisonHelperRK10QStringRefPKc 0x00015be4   Data           0  qgeocodexmlparser.o(.ARM.extab)
    .extab._ZN7QStringaSEPKc                 0x00015bf4   Data           0  qgeocodexmlparser.o(.ARM.extab)
    .extab._ZNK7QStringeqEPKc                0x00015c04   Data           0  qgeocodexmlparser.o(.ARM.extab)
    .extab._ZN5QListIN10QtMobility9QGeoPlaceEE14node_constructEPNS2_4NodeERKS1_ 0x00015c14   Data           0  qgeocodexmlparser.o(.ARM.extab)
    .extab._ZN5QListIN10QtMobility9QGeoPlaceEE9node_copyEPNS2_4NodeES4_S4_ 0x00015c24   Data           0  qgeocodexmlparser.o(.ARM.extab)
    .extab._ZN5QListIN10QtMobility9QGeoPlaceEE18detach_helper_growEii 0x00015c48   Data           0  qgeocodexmlparser.o(.ARM.extab)
    .extab._ZN5QListIN10QtMobility9QGeoPlaceEE6appendERKS1_ 0x00015c78   Data           0  qgeocodexmlparser.o(.ARM.extab)
    .extab._ZN5QListIN10QtMobility9QGeoPlaceEE13detach_helperEi 0x00015ca8   Data           0  qgeocodexmlparser.o(.ARM.extab)
    .extab._ZN29QGeoMappingManagerEngineNokiaC1ERK4QMapI7QString8QVariantEPN10QtMobility19QGeoServiceProvider5ErrorEPS1_ 0x00015cc4   Data           0  qgeomappingmanagerengine_nokia.o(.ARM.extab)
    .extab._ZN29QGeoMappingManagerEngineNokiaD1Ev 0x00015e8c   Data           0  qgeomappingmanagerengine_nokia.o(.ARM.extab)
    .extab._ZN29QGeoMappingManagerEngineNokia13createMapDataEv 0x00015eac   Data           0  qgeomappingmanagerengine_nokia.o(.ARM.extab)
    .extab._ZN29QGeoMappingManagerEngineNokia9sizeToStrERK5QSize 0x00015ebc   Data           0  qgeomappingmanagerengine_nokia.o(.ARM.extab)
    .extab._ZNK29QGeoMappingManagerEngineNokia16getRequestStringERKN10QtMobility19QGeoTiledMapRequestE 0x00015ee4   Data           0  qgeomappingmanagerengine_nokia.o(.ARM.extab)
    .extab._ZN29QGeoMappingManagerEngineNokia12getTileImageERKN10QtMobility19QGeoTiledMapRequestE 0x00015f8c   Data           0  qgeomappingmanagerengine_nokia.o(.ARM.extab)
    .extab._ZN7QStringpLEPKc                 0x00015fd4   Data           0  qgeomappingmanagerengine_nokia.o(.ARM.extab)
    .extab._ZN5QListIN10QtMobility15QGraphicsGeoMap16ConnectivityModeEE9node_copyEPNS3_4NodeES5_S5_ 0x00015fe4   Data           0  qgeomappingmanagerengine_nokia.o(.ARM.extab)
    .extab._ZN5QListIN10QtMobility15QGraphicsGeoMap16ConnectivityModeEE18detach_helper_growEii 0x00016000   Data           0  qgeomappingmanagerengine_nokia.o(.ARM.extab)
    .extab._ZN5QListIN10QtMobility15QGraphicsGeoMap16ConnectivityModeEE6appendERKS2_ 0x00016030   Data           0  qgeomappingmanagerengine_nokia.o(.ARM.extab)
    .extab._ZN5QListIN10QtMobility15QGraphicsGeoMap7MapTypeEE9node_copyEPNS3_4NodeES5_S5_ 0x00016060   Data           0  qgeomappingmanagerengine_nokia.o(.ARM.extab)
    .extab._ZN5QListIN10QtMobility15QGraphicsGeoMap7MapTypeEE18detach_helper_growEii 0x0001607c   Data           0  qgeomappingmanagerengine_nokia.o(.ARM.extab)
    .extab._ZN5QListIN10QtMobility15QGraphicsGeoMap7MapTypeEE6appendERKS2_ 0x000160ac   Data           0  qgeomappingmanagerengine_nokia.o(.ARM.extab)
    .extab._ZN17QGeoMapReplyNokiaC1EP13QNetworkReplyRKN10QtMobility19QGeoTiledMapRequestEP7QObject 0x000160dc   Data           0  qgeomapreply_nokia.o(.ARM.extab)
    .extab._ZN17QGeoMapReplyNokia15networkFinishedEv 0x000160fc   Data           0  qgeomapreply_nokia.o(.ARM.extab)
    .extab._ZN17QGeoMapReplyNokia12networkErrorEN13QNetworkReply12NetworkErrorE 0x00016114   Data           0  qgeomapreply_nokia.o(.ARM.extab)
    .extab._ZN19QGeoRouteReplyNokiaC1ERKN10QtMobility16QGeoRouteRequestEP13QNetworkReplyP7QObject 0x00016124   Data           0  qgeoroutereply_nokia.o(.ARM.extab)
    .extab._ZN19QGeoRouteReplyNokia15networkFinishedEv 0x00016134   Data           0  qgeoroutereply_nokia.o(.ARM.extab)
    .extab._ZN19QGeoRouteReplyNokia12networkErrorEN13QNetworkReply12NetworkErrorE 0x0001616c   Data           0  qgeoroutereply_nokia.o(.ARM.extab)
    .extab._ZN18QGeoRouteXmlParserC1ERKN10QtMobility16QGeoRouteRequestE 0x0001617c   Data           0  qgeoroutexmlparser.o(.ARM.extab)
    .extab._ZN18QGeoRouteXmlParserD1Ev       0x000161a4   Data           0  qgeoroutexmlparser.o(.ARM.extab)
    .extab._ZN18QGeoRouteXmlParser16postProcessRouteEPN10QtMobility9QGeoRouteE 0x000161d4   Data           0  qgeoroutexmlparser.o(.ARM.extab)
    .extab._ZN18QGeoRouteXmlParser12parseSummaryEPN10QtMobility9QGeoRouteE 0x00016294   Data           0  qgeoroutexmlparser.o(.ARM.extab)
    .extab._ZN18QGeoRouteXmlParser14parseGeoPointsERK7QStringP5QListIN10QtMobility14QGeoCoordinateEES2_ 0x000162c4   Data           0  qgeoroutexmlparser.o(.ARM.extab)
    .extab._ZN18QGeoRouteXmlParser9parseLinkEv 0x000163ec   Data           0  qgeoroutexmlparser.o(.ARM.extab)
    .extab._ZN18QGeoRouteXmlParser16parseCoordinatesERN10QtMobility14QGeoCoordinateE 0x000164c4   Data           0  qgeoroutexmlparser.o(.ARM.extab)
    .extab._ZN18QGeoRouteXmlParser13parseManeuverEv 0x0001650c   Data           0  qgeoroutexmlparser.o(.ARM.extab)
    .extab._ZN18QGeoRouteXmlParser8parseLegEv 0x00016654   Data           0  qgeoroutexmlparser.o(.ARM.extab)
    .extab._ZN18QGeoRouteXmlParser16parseBoundingBoxERN10QtMobility15QGeoBoundingBoxE 0x00016674   Data           0  qgeoroutexmlparser.o(.ARM.extab)
    .extab._ZN18QGeoRouteXmlParser9parseModeEPN10QtMobility9QGeoRouteE 0x000166fc   Data           0  qgeoroutexmlparser.o(.ARM.extab)
    .extab._ZN18QGeoRouteXmlParser10parseRouteEPN10QtMobility9QGeoRouteE 0x0001671c   Data           0  qgeoroutexmlparser.o(.ARM.extab)
    .extab._ZN18QGeoRouteXmlParser16parseRootElementEv 0x0001679c   Data           0  qgeoroutexmlparser.o(.ARM.extab)
    .extab._ZN18QGeoRouteXmlParser5parseEP9QIODevice 0x0001689c   Data           0  qgeoroutexmlparser.o(.ARM.extab)
    .extab._ZN5QListIN10QtMobility14QGeoCoordinateEE9node_copyEPNS2_4NodeES4_S4_ 0x000168bc   Data           0  qgeoroutexmlparser.o(.ARM.extab)
    .extab._ZN5QListIN10QtMobility14QGeoCoordinateEE13detach_helperEi 0x000168e0   Data           0  qgeoroutexmlparser.o(.ARM.extab)
    .extab._ZN5QListIN10QtMobility14QGeoCoordinateEE14node_constructEPNS2_4NodeERKS1_ 0x000168fc   Data           0  qgeoroutexmlparser.o(.ARM.extab)
    .extab._ZN5QListIN10QtMobility14QGeoCoordinateEE18detach_helper_growEii 0x0001690c   Data           0  qgeoroutexmlparser.o(.ARM.extab)
    .extab._ZN5QListIN10QtMobility14QGeoCoordinateEE6appendERKS1_ 0x0001693c   Data           0  qgeoroutexmlparser.o(.ARM.extab)
    .extab._ZN5QListIN10QtMobility14QGeoCoordinateEEpLERKS2_ 0x0001696c   Data           0  qgeoroutexmlparser.o(.ARM.extab)
    .extab._ZN21QGeoManeuverContainerC1ERKS_ 0x00016988   Data           0  qgeoroutexmlparser.o(.ARM.extab)
    .extab._ZN21QGeoManeuverContainerD1Ev    0x000169a0   Data           0  qgeoroutexmlparser.o(.ARM.extab)
    .extab._ZN25QGeoRouteSegmentContainerC1ERKS_ 0x000169b8   Data           0  qgeoroutexmlparser.o(.ARM.extab)
    .extab._ZN25QGeoRouteSegmentContainerD1Ev 0x000169d0   Data           0  qgeoroutexmlparser.o(.ARM.extab)
    .extab._ZN5QListIN10QtMobility9QGeoRouteEE14node_constructEPNS2_4NodeERKS1_ 0x000169e8   Data           0  qgeoroutexmlparser.o(.ARM.extab)
    .extab._ZN5QListIN10QtMobility9QGeoRouteEE9node_copyEPNS2_4NodeES4_S4_ 0x000169f8   Data           0  qgeoroutexmlparser.o(.ARM.extab)
    .extab._ZN5QListIN10QtMobility9QGeoRouteEE18detach_helper_growEii 0x00016a1c   Data           0  qgeoroutexmlparser.o(.ARM.extab)
    .extab._ZN5QListIN10QtMobility9QGeoRouteEE6appendERKS1_ 0x00016a4c   Data           0  qgeoroutexmlparser.o(.ARM.extab)
    .extab._ZN5QListI25QGeoRouteSegmentContainerE9node_copyEPNS1_4NodeES3_S3_ 0x00016a7c   Data           0  qgeoroutexmlparser.o(.ARM.extab)
    .extab._ZN5QListI25QGeoRouteSegmentContainerE13detach_helperEi 0x00016aa0   Data           0  qgeoroutexmlparser.o(.ARM.extab)
    .extab._ZN5QListI25QGeoRouteSegmentContainerE5clearEv 0x00016abc   Data           0  qgeoroutexmlparser.o(.ARM.extab)
    .extab._ZN5QListI21QGeoManeuverContainerE9node_copyEPNS1_4NodeES3_S3_ 0x00016acc   Data           0  qgeoroutexmlparser.o(.ARM.extab)
    .extab._ZN5QListI21QGeoManeuverContainerE13detach_helperEi 0x00016af0   Data           0  qgeoroutexmlparser.o(.ARM.extab)
    .extab._ZN5QListI21QGeoManeuverContainerE5clearEv 0x00016b0c   Data           0  qgeoroutexmlparser.o(.ARM.extab)
    .extab._ZN5QListIN10QtMobility16QGeoRouteSegmentEE9node_copyEPNS2_4NodeES4_S4_ 0x00016b1c   Data           0  qgeoroutexmlparser.o(.ARM.extab)
    .extab._ZN5QListIN10QtMobility16QGeoRouteSegmentEE13detach_helperEi 0x00016b40   Data           0  qgeoroutexmlparser.o(.ARM.extab)
    .extab._ZN5QListIN10QtMobility16QGeoRouteSegmentEE14node_constructEPNS2_4NodeERKS1_ 0x00016b5c   Data           0  qgeoroutexmlparser.o(.ARM.extab)
    .extab._ZN5QListIN10QtMobility16QGeoRouteSegmentEE18detach_helper_growEii 0x00016b6c   Data           0  qgeoroutexmlparser.o(.ARM.extab)
    .extab._ZN5QListIN10QtMobility16QGeoRouteSegmentEE6appendERKS1_ 0x00016b9c   Data           0  qgeoroutexmlparser.o(.ARM.extab)
    .extab._ZN5QListI25QGeoRouteSegmentContainerE14node_constructEPNS1_4NodeERKS0_ 0x00016bcc   Data           0  qgeoroutexmlparser.o(.ARM.extab)
    .extab._ZN5QListI25QGeoRouteSegmentContainerE18detach_helper_growEii 0x00016bdc   Data           0  qgeoroutexmlparser.o(.ARM.extab)
    .extab._ZN5QListI25QGeoRouteSegmentContainerE6appendERKS0_ 0x00016c0c   Data           0  qgeoroutexmlparser.o(.ARM.extab)
    .extab._ZN5QListI21QGeoManeuverContainerE14node_constructEPNS1_4NodeERKS0_ 0x00016c3c   Data           0  qgeoroutexmlparser.o(.ARM.extab)
    .extab._ZN5QListI21QGeoManeuverContainerE18detach_helper_growEii 0x00016c4c   Data           0  qgeoroutexmlparser.o(.ARM.extab)
    .extab._ZN5QListI21QGeoManeuverContainerE6appendERKS0_ 0x00016c7c   Data           0  qgeoroutexmlparser.o(.ARM.extab)
    .extab._ZN5QListIN10QtMobility9QGeoRouteEE13detach_helperEi 0x00016cac   Data           0  qgeoroutexmlparser.o(.ARM.extab)
    .extab._ZN29QGeoRoutingManagerEngineNokiaC1ERK4QMapI7QString8QVariantEPN10QtMobility19QGeoServiceProvider5ErrorEPS1_ 0x00016cc8   Data           0  qgeoroutingmanagerengine_nokia.o(.ARM.extab)
    .extab._ZN29QGeoRoutingManagerEngineNokiaD1Ev 0x00016e70   Data           0  qgeoroutingmanagerengine_nokia.o(.ARM.extab)
    .extab._ZN29QGeoRoutingManagerEngineNokia10trimDoubleEfi 0x00016e90   Data           0  qgeoroutingmanagerengine_nokia.o(.ARM.extab)
    .extab._ZNK29QGeoRoutingManagerEngineNokia18routeRequestStringERKN10QtMobility16QGeoRouteRequestE 0x00016ea8   Data           0  qgeoroutingmanagerengine_nokia.o(.ARM.extab)
    .extab._ZNK29QGeoRoutingManagerEngineNokia18modesRequestStringERKN10QtMobility16QGeoRouteRequestE6QFlagsINS1_10TravelModeEE 0x00017008   Data           0  qgeoroutingmanagerengine_nokia.o(.ARM.extab)
    .extab._ZNK29QGeoRoutingManagerEngineNokia18checkEngineSupportERKN10QtMobility16QGeoRouteRequestE6QFlagsINS1_10TravelModeEE 0x000171f0   Data           0  qgeoroutingmanagerengine_nokia.o(.ARM.extab)
    .extab._ZN29QGeoRoutingManagerEngineNokia27calculateRouteRequestStringERKN10QtMobility16QGeoRouteRequestE 0x00017228   Data           0  qgeoroutingmanagerengine_nokia.o(.ARM.extab)
    .extab._ZN29QGeoRoutingManagerEngineNokia14calculateRouteERKN10QtMobility16QGeoRouteRequestE 0x000172f0   Data           0  qgeoroutingmanagerengine_nokia.o(.ARM.extab)
    .extab._ZN29QGeoRoutingManagerEngineNokia24updateRouteRequestStringERKN10QtMobility9QGeoRouteERKNS0_14QGeoCoordinateE 0x00017368   Data           0  qgeoroutingmanagerengine_nokia.o(.ARM.extab)
    .extab._ZN29QGeoRoutingManagerEngineNokia11updateRouteERKN10QtMobility9QGeoRouteERKNS0_14QGeoCoordinateE 0x000173f0   Data           0  qgeoroutingmanagerengine_nokia.o(.ARM.extab)
    .extab._ZN29QGeoRoutingManagerEngineNokia10routeErrorEN10QtMobility14QGeoRouteReply5ErrorERK7QString 0x00017488   Data           0  qgeoroutingmanagerengine_nokia.o(.ARM.extab)
    .extab._ZplRK7QStringPKc                 0x00017498   Data           0  qgeoroutingmanagerengine_nokia.o(.ARM.extab)
    .extab._ZplPKcRK7QString                 0x000174b8   Data           0  qgeoroutingmanagerengine_nokia.o(.ARM.extab)
    .extab._ZN5QListI7QStringE14node_constructEPNS1_4NodeERKS0_ 0x000174c8   Data           0  qgeoroutingmanagerengine_nokia.o(.ARM.extab)
    .extab._ZN5QListI7QStringE9node_copyEPNS1_4NodeES3_S3_ 0x000174d8   Data           0  qgeoroutingmanagerengine_nokia.o(.ARM.extab)
    .extab._ZN5QListI7QStringE18detach_helper_growEii 0x000174fc   Data           0  qgeoroutingmanagerengine_nokia.o(.ARM.extab)
    .extab._ZN5QListI7QStringE6appendERKS0_  0x0001752c   Data           0  qgeoroutingmanagerengine_nokia.o(.ARM.extab)
    .extab._ZN5QListI7QStringE13detach_helperEi 0x0001755c   Data           0  qgeoroutingmanagerengine_nokia.o(.ARM.extab)
    .extab._ZN28QGeoSearchManagerEngineNokiaC1ERK4QMapI7QString8QVariantEPN10QtMobility19QGeoServiceProvider5ErrorEPS1_ 0x00017578   Data           0  qgeosearchmanagerengine_nokia.o(.ARM.extab)
    .extab._ZN28QGeoSearchManagerEngineNokiaD1Ev 0x00017728   Data           0  qgeosearchmanagerengine_nokia.o(.ARM.extab)
    .extab._ZN28QGeoSearchManagerEngineNokia6searchE7QStringPN10QtMobility16QGeoBoundingAreaEii 0x00017748   Data           0  qgeosearchmanagerengine_nokia.o(.ARM.extab)
    .extab._ZN28QGeoSearchManagerEngineNokia14languageToMarcEN7QLocale8LanguageE 0x00017770   Data           0  qgeosearchmanagerengine_nokia.o(.ARM.extab)
    .extab._ZN28QGeoSearchManagerEngineNokia7geocodeERKN10QtMobility11QGeoAddressEPNS0_16QGeoBoundingAreaE 0x00017780   Data           0  qgeosearchmanagerengine_nokia.o(.ARM.extab)
    .extab._ZN28QGeoSearchManagerEngineNokia10trimDoubleEfi 0x00017880   Data           0  qgeosearchmanagerengine_nokia.o(.ARM.extab)
    .extab._ZN28QGeoSearchManagerEngineNokia14reverseGeocodeERKN10QtMobility14QGeoCoordinateEPNS0_16QGeoBoundingAreaE 0x00017898   Data           0  qgeosearchmanagerengine_nokia.o(.ARM.extab)
    .extab._ZN28QGeoSearchManagerEngineNokia6searchERK7QString6QFlagsIN10QtMobility17QGeoSearchManager10SearchTypeEEiiPNS4_16QGeoBoundingAreaE 0x00017928   Data           0  qgeosearchmanagerengine_nokia.o(.ARM.extab)
    .extab._ZN28QGeoSearchManagerEngineNokia11placesErrorEN10QtMobility15QGeoSearchReply5ErrorERK7QString 0x000179b8   Data           0  qgeosearchmanagerengine_nokia.o(.ARM.extab)
    .extab._ZN20QGeoSearchReplyNokiaC1EP13QNetworkReplyiiPN10QtMobility16QGeoBoundingAreaEP7QObject 0x000179c8   Data           0  qgeosearchreply_nokia.o(.ARM.extab)
    .extab._ZN20QGeoSearchReplyNokia15networkFinishedEv 0x000179d8   Data           0  qgeosearchreply_nokia.o(.ARM.extab)
    .extab._ZN20QGeoSearchReplyNokia12networkErrorEN13QNetworkReply12NetworkErrorE 0x00017a18   Data           0  qgeosearchreply_nokia.o(.ARM.extab)
    .extab.qt_plugin_instance                0x00017a28   Data           0  qgeoserviceproviderplugin_nokia.o(.ARM.extab)
    .extab._ZNK31QGeoServiceProviderFactoryNokia25createSearchManagerEngineERK4QMapI7QString8QVariantEPN10QtMobility19QGeoServiceProvider5ErrorEPS1_ 0x00017a40   Data           0  qgeoserviceproviderplugin_nokia.o(.ARM.extab)
    .extab._ZNK31QGeoServiceProviderFactoryNokia26createMappingManagerEngineERK4QMapI7QString8QVariantEPN10QtMobility19QGeoServiceProvider5ErrorEPS1_ 0x00017a50   Data           0  qgeoserviceproviderplugin_nokia.o(.ARM.extab)
    .extab._ZNK31QGeoServiceProviderFactoryNokia26createRoutingManagerEngineERK4QMapI7QString8QVariantEPN10QtMobility19QGeoServiceProvider5ErrorEPS1_ 0x00017a60   Data           0  qgeoserviceproviderplugin_nokia.o(.ARM.extab)
    .extab.__sti___35_qgeoserviceproviderplugin_nokia_cpp 0x00017a70   Data           0  qgeoserviceproviderplugin_nokia.o(.ARM.extab)
    .extab._Z24variantListToBoundingBoxRK5QListI8QVariantE 0x00017a88   Data           0  qgeotiledmapdata_nokia.o(.ARM.extab)
    .extab._ZN21QGeoTiledMapDataNokiaC1EP29QGeoMappingManagerEngineNokia 0x00017aa8   Data           0  qgeotiledmapdata_nokia.o(.ARM.extab)
    .extab._ZN21QGeoTiledMapDataNokiaD1Ev    0x00017b28   Data           0  qgeotiledmapdata_nokia.o(.ARM.extab)
    .extab._ZN21QGeoTiledMapDataNokia16getViewCopyrightEv 0x00017b50   Data           0  qgeotiledmapdata_nokia.o(.ARM.extab)
    .extab._ZN21QGeoTiledMapDataNokia5paintEP8QPainterPK24QStyleOptionGraphicsItem 0x00017bf0   Data           0  qgeotiledmapdata_nokia.o(.ARM.extab)
    .extab._ZN21QGeoTiledMapDataNokia22copyrightReplyFinishedEP13QNetworkReply 0x00017c20   Data           0  qgeotiledmapdata_nokia.o(.ARM.extab)
    .extab._ZN5QListI8QVariantE9node_copyEPNS1_4NodeES3_S3_ 0x00017dc8   Data           0  qgeotiledmapdata_nokia.o(.ARM.extab)
    .extab._ZN5QListI8QVariantE13detach_helperEi 0x00017dec   Data           0  qgeotiledmapdata_nokia.o(.ARM.extab)
    .extab._Z20qForeachContainerNewI5QListI8QVariantEE17QForeachContainerIT_ERKS4_ 0x00017e08   Data           0  qgeotiledmapdata_nokia.o(.ARM.extab)
    .extab._ZN19CopyrightDescriptorD1Ev      0x00017e18   Data           0  qgeotiledmapdata_nokia.o(.ARM.extab)
    .extab._ZN5QListIN10QtMobility15QGeoBoundingBoxEE9node_copyEPNS2_4NodeES4_S4_ 0x00017e30   Data           0  qgeotiledmapdata_nokia.o(.ARM.extab)
    .extab._ZN5QListIN10QtMobility15QGeoBoundingBoxEE13detach_helperEi 0x00017e54   Data           0  qgeotiledmapdata_nokia.o(.ARM.extab)
    .extab._ZN19CopyrightDescriptorC1ERKS_   0x00017e70   Data           0  qgeotiledmapdata_nokia.o(.ARM.extab)
    .extab._ZN5QListI19CopyrightDescriptorE9node_copyEPNS1_4NodeES3_S3_ 0x00017e88   Data           0  qgeotiledmapdata_nokia.o(.ARM.extab)
    .extab._ZN5QListI19CopyrightDescriptorE13detach_helperEi 0x00017eac   Data           0  qgeotiledmapdata_nokia.o(.ARM.extab)
    .extab._ZN9QHashNodeI7QString8QVariantEC1ERKS0_RKS1_ 0x00017ec8   Data           0  qgeotiledmapdata_nokia.o(.ARM.extab)
    .extab._ZN5QHashI7QString8QVariantEixERKS0_ 0x00017ed8   Data           0  qgeotiledmapdata_nokia.o(.ARM.extab)
    .extab._ZNK5QHashI7QString8QVariantE4keysEv 0x00017ef8   Data           0  qgeotiledmapdata_nokia.o(.ARM.extab)
    .extab._ZN5QListI8QVariantE14node_constructEPNS1_4NodeERKS0_ 0x00017f08   Data           0  qgeotiledmapdata_nokia.o(.ARM.extab)
    .extab._ZN5QListI8QVariantE18detach_helper_growEii 0x00017f18   Data           0  qgeotiledmapdata_nokia.o(.ARM.extab)
    .extab._ZN5QListI8QVariantE6appendERKS0_ 0x00017f48   Data           0  qgeotiledmapdata_nokia.o(.ARM.extab)
    .extab._ZN19CopyrightDescriptorC1Ev      0x00017f78   Data           0  qgeotiledmapdata_nokia.o(.ARM.extab)
    .extab._ZN5QListIN10QtMobility15QGeoBoundingBoxEE14node_constructEPNS2_4NodeERKS1_ 0x00017f90   Data           0  qgeotiledmapdata_nokia.o(.ARM.extab)
    .extab._ZN5QListIN10QtMobility15QGeoBoundingBoxEE18detach_helper_growEii 0x00017fa0   Data           0  qgeotiledmapdata_nokia.o(.ARM.extab)
    .extab._ZN5QListIN10QtMobility15QGeoBoundingBoxEE6appendERKS1_ 0x00017fd0   Data           0  qgeotiledmapdata_nokia.o(.ARM.extab)
    .extab._ZN9QHashNodeI7QString5QListI19CopyrightDescriptorEEC1ERKS0_RKS3_ 0x00018000   Data           0  qgeotiledmapdata_nokia.o(.ARM.extab)
    .extab._ZN5QHashI7QString5QListI19CopyrightDescriptorEEixERKS0_ 0x00018010   Data           0  qgeotiledmapdata_nokia.o(.ARM.extab)
    .extab._ZN5QListI19CopyrightDescriptorE14node_constructEPNS1_4NodeERKS0_ 0x00018030   Data           0  qgeotiledmapdata_nokia.o(.ARM.extab)
    .extab._ZN5QListI19CopyrightDescriptorE18detach_helper_growEii 0x00018040   Data           0  qgeotiledmapdata_nokia.o(.ARM.extab)
    .extab._ZN5QListI19CopyrightDescriptorE6appendERKS0_ 0x00018070   Data           0  qgeotiledmapdata_nokia.o(.ARM.extab)
    .extab._ZN10JSONParser12parseUnknownEv   0x000180a0   Data           0  qgeotiledmapdata_nokia.o(.ARM.extab)
    .extab._ZN10JSONParser11parseStringEv    0x00018118   Data           0  qgeotiledmapdata_nokia.o(.ARM.extab)
    .extab._ZN10JSONParser5parseEv           0x00018128   Data           0  qgeotiledmapdata_nokia.o(.ARM.extab)
    .extab._ZN5QHashI7QString8QVariantE11deleteNode2EPN9QHashData4NodeE 0x000181d8   Data           0  qgeotiledmapdata_nokia.o(.ARM.extab)
    .extab._ZN5QHashI7QString8QVariantE13duplicateNodeEPN9QHashData4NodeEPv 0x000181e8   Data           0  qgeotiledmapdata_nokia.o(.ARM.extab)
    .extab._ZN5QHashI7QString5QListI19CopyrightDescriptorEE11deleteNode2EPN9QHashData4NodeE 0x000181f8   Data           0  qgeotiledmapdata_nokia.o(.ARM.extab)
    .extab._ZN5QHashI7QString5QListI19CopyrightDescriptorEE13duplicateNodeEPN9QHashData4NodeEPv 0x00018208   Data           0  qgeotiledmapdata_nokia.o(.ARM.extab)
    .extab._ZN10JSONParser11parseNumberEv    0x00018218   Data           0  qgeotiledmapdata_nokia.o(.ARM.extab)
    .extab._ZN10JSONParser9parseListEv       0x00018240   Data           0  qgeotiledmapdata_nokia.o(.ARM.extab)
    .extab._ZN10JSONParser9parseHashEv       0x00018260   Data           0  qgeotiledmapdata_nokia.o(.ARM.extab)
    .constdata$1                             0x00018290   Data           0  moc_qgeomappingmanagerengine_nokia.o(.constdata)
    qt_meta_data_QGeoMappingManagerEngineNokia 0x00018290   Data          60  moc_qgeomappingmanagerengine_nokia.o(.constdata)
    .constdata                               0x00018290   Section      108  moc_qgeomappingmanagerengine_nokia.o(.constdata)
    qt_meta_stringdata_QGeoMappingManagerEngineNokia 0x000182cc   Data          31  moc_qgeomappingmanagerengine_nokia.o(.constdata)
    .constdata$1                             0x000182fc   Data           0  moc_qgeomapreply_nokia.o(.constdata)
    qt_meta_data_QGeoMapReplyNokia           0x000182fc   Data         120  moc_qgeomapreply_nokia.o(.constdata)
    .constdata                               0x000182fc   Section      240  moc_qgeomapreply_nokia.o(.constdata)
    qt_meta_stringdata_QGeoMapReplyNokia     0x00018374   Data         103  moc_qgeomapreply_nokia.o(.constdata)
    .constdata$1                             0x000183ec   Data           0  moc_qgeoroutereply_nokia.o(.constdata)
    qt_meta_data_QGeoRouteReplyNokia         0x000183ec   Data         100  moc_qgeoroutereply_nokia.o(.constdata)
    .constdata                               0x000183ec   Section      204  moc_qgeoroutereply_nokia.o(.constdata)
    qt_meta_stringdata_QGeoRouteReplyNokia   0x00018450   Data          88  moc_qgeoroutereply_nokia.o(.constdata)
    .constdata$1                             0x000184b8   Data           0  moc_qgeoroutingmanagerengine_nokia.o(.constdata)
    qt_meta_data_QGeoRoutingManagerEngineNokia 0x000184b8   Data         100  moc_qgeoroutingmanagerengine_nokia.o(.constdata)
    .constdata                               0x000184b8   Section      224  moc_qgeoroutingmanagerengine_nokia.o(.constdata)
    qt_meta_stringdata_QGeoRoutingManagerEngineNokia 0x0001851c   Data         108  moc_qgeoroutingmanagerengine_nokia.o(.constdata)
    .constdata$1                             0x00018598   Data           0  moc_qgeosearchmanagerengine_nokia.o(.constdata)
    qt_meta_data_QGeoSearchManagerEngineNokia 0x00018598   Data         100  moc_qgeosearchmanagerengine_nokia.o(.constdata)
    .constdata                               0x00018598   Section      228  moc_qgeosearchmanagerengine_nokia.o(.constdata)
    qt_meta_stringdata_QGeoSearchManagerEngineNokia 0x000185fc   Data         110  moc_qgeosearchmanagerengine_nokia.o(.constdata)
    .constdata$1                             0x0001867c   Data           0  moc_qgeosearchreply_nokia.o(.constdata)
    qt_meta_data_QGeoSearchReplyNokia        0x0001867c   Data         100  moc_qgeosearchreply_nokia.o(.constdata)
    .constdata                               0x0001867c   Section      208  moc_qgeosearchreply_nokia.o(.constdata)
    qt_meta_stringdata_QGeoSearchReplyNokia  0x000186e0   Data          89  moc_qgeosearchreply_nokia.o(.constdata)
    .constdata$1                             0x0001874c   Data           0  moc_qgeoserviceproviderplugin_nokia.o(.constdata)
    qt_meta_data_QGeoServiceProviderFactoryNokia 0x0001874c   Data          60  moc_qgeoserviceproviderplugin_nokia.o(.constdata)
    .constdata                               0x0001874c   Section      112  moc_qgeoserviceproviderplugin_nokia.o(.constdata)
    qt_meta_stringdata_QGeoServiceProviderFactoryNokia 0x00018788   Data          33  moc_qgeoserviceproviderplugin_nokia.o(.constdata)
    .constdata$1                             0x000187bc   Data           0  moc_qgeotiledmapdata_nokia.o(.constdata)
    qt_meta_data_QGeoTiledMapDataNokia       0x000187bc   Data          80  moc_qgeotiledmapdata_nokia.o(.constdata)
    .constdata                               0x000187bc   Section      160  moc_qgeotiledmapdata_nokia.o(.constdata)
    qt_meta_stringdata_QGeoTiledMapDataNokia 0x0001880c   Data          63  moc_qgeotiledmapdata_nokia.o(.constdata)
    .constdata$1                             0x0001885c   Data           0  qrc_resource.o(.constdata)
    qt_resource_data                         0x0001885c   Data        1546  qrc_resource.o(.constdata)
    .constdata                               0x0001885c   Section     1638  qrc_resource.o(.constdata)
    qt_resource_name                         0x00018e66   Data          50  qrc_resource.o(.constdata)
    qt_resource_struct                       0x00018e98   Data          42  qrc_resource.o(.constdata)
    .constdata$1                             0x00018ec4   Data           0  qgeocodexmlparser.o(.constdata)
    .constdata                               0x00018ec4   Section     2760  qgeocodexmlparser.o(.constdata)
    .constdata$1                             0x0001998c   Data           0  qgeoroutexmlparser.o(.constdata)
    .constdata                               0x0001998c   Section      568  qgeoroutexmlparser.o(.constdata)
    .constdata$1                             0x00019bc4   Data           0  qgeoroutingmanagerengine_nokia.o(.constdata)
    .constdata                               0x00019bc4   Section       76  qgeoroutingmanagerengine_nokia.o(.constdata)
    .constdata$1                             0x00019c10   Data           0  qgeosearchmanagerengine_nokia.o(.constdata)
    marc_language_code_list                  0x00019c10   Data         646  qgeosearchmanagerengine_nokia.o(.constdata)
    .constdata                               0x00019c10   Section      716  qgeosearchmanagerengine_nokia.o(.constdata)
    .constdata$1                             0x00019edc   Data           0  qgeoserviceproviderplugin_nokia.o(.constdata)
    qt_plugin_verification_data              0x00019edc   Data          91  qgeoserviceproviderplugin_nokia.o(.constdata)
    .constdata                               0x00019edc   Section       91  qgeoserviceproviderplugin_nokia.o(.constdata)
    .constdata__ZN9stlp_priv15_Integer_limitsIaLan128ELa127ELin1ELb1EE6digitsE 0x00019f38   Section        4  moc_qgeomappingmanagerengine_nokia.o(.constdata__ZN9stlp_priv15_Integer_limitsIaLan128ELa127ELin1ELb1EE6digitsE)
    .constdata__ZN9stlp_priv15_Integer_limitsIbLb0ELb1ELi1ELb0EE6digitsE 0x00019f3c   Section        4  moc_qgeomappingmanagerengine_nokia.o(.constdata__ZN9stlp_priv15_Integer_limitsIbLb0ELb1ELi1ELb0EE6digitsE)
    .constdata__ZN9stlp_priv15_Integer_limitsIcLc128ELc127ELin1ELb1EE6digitsE 0x00019f40   Section        4  moc_qgeomappingmanagerengine_nokia.o(.constdata__ZN9stlp_priv15_Integer_limitsIcLc128ELc127ELin1ELb1EE6digitsE)
    .constdata__ZN9stlp_priv15_Integer_limitsIhLh0ELh255ELin1ELb1EE6digitsE 0x00019f44   Section        4  moc_qgeomappingmanagerengine_nokia.o(.constdata__ZN9stlp_priv15_Integer_limitsIhLh0ELh255ELin1ELb1EE6digitsE)
    .constdata__ZN9stlp_priv15_Integer_limitsIiLin2147483648ELi2147483647ELin1ELb1EE6digitsE 0x00019f48   Section        4  moc_qgeomappingmanagerengine_nokia.o(.constdata__ZN9stlp_priv15_Integer_limitsIiLin2147483648ELi2147483647ELin1ELb1EE6digitsE)
    .constdata__ZN9stlp_priv15_Integer_limitsIiLin2147483648ELi2147483647ELin1ELb1EE9is_signedE 0x00019f4c   Section        1  moc_qgeomappingmanagerengine_nokia.o(.constdata__ZN9stlp_priv15_Integer_limitsIiLin2147483648ELi2147483647ELin1ELb1EE9is_signedE)
    .constdata__ZN9stlp_priv15_Integer_limitsIjLj0ELj4294967295ELin1ELb1EE6digitsE 0x00019f50   Section        4  moc_qgeomappingmanagerengine_nokia.o(.constdata__ZN9stlp_priv15_Integer_limitsIjLj0ELj4294967295ELin1ELb1EE6digitsE)
    .constdata__ZN9stlp_priv15_Integer_limitsIlLln2147483648ELl2147483647ELin1ELb1EE6digitsE 0x00019f54   Section        4  moc_qgeomappingmanagerengine_nokia.o(.constdata__ZN9stlp_priv15_Integer_limitsIlLln2147483648ELl2147483647ELin1ELb1EE6digitsE)
    .constdata__ZN9stlp_priv15_Integer_limitsImLm0ELm4294967295ELin1ELb1EE6digitsE 0x00019f58   Section        4  moc_qgeomappingmanagerengine_nokia.o(.constdata__ZN9stlp_priv15_Integer_limitsImLm0ELm4294967295ELin1ELb1EE6digitsE)
    .constdata__ZN9stlp_priv15_Integer_limitsIsLsn32768ELs32767ELin1ELb1EE6digitsE 0x00019f5c   Section        4  moc_qgeomappingmanagerengine_nokia.o(.constdata__ZN9stlp_priv15_Integer_limitsIsLsn32768ELs32767ELin1ELb1EE6digitsE)
    .constdata__ZN9stlp_priv15_Integer_limitsItLt0ELt65535ELin1ELb1EE6digitsE 0x00019f60   Section        4  moc_qgeomappingmanagerengine_nokia.o(.constdata__ZN9stlp_priv15_Integer_limitsItLt0ELt65535ELin1ELb1EE6digitsE)
    .constdata__ZN9stlp_priv15_Integer_limitsIwLw0ELw65535ELin1ELb1EE6digitsE 0x00019f64   Section        4  moc_qgeomappingmanagerengine_nokia.o(.constdata__ZN9stlp_priv15_Integer_limitsIwLw0ELw65535ELin1ELb1EE6digitsE)
    .constdata__ZN9stlp_priv15_Integer_limitsIxLxn9223372036854775808ELx9223372036854775807ELin1ELb1EE6digitsE 0x00019f68   Section        4  moc_qgeomappingmanagerengine_nokia.o(.constdata__ZN9stlp_priv15_Integer_limitsIxLxn9223372036854775808ELx9223372036854775807ELin1ELb1EE6digitsE)
    .constdata__ZN9stlp_priv15_Integer_limitsIyLy0ELy18446744073709551615ELin1ELb1EE6digitsE 0x00019f6c   Section        4  moc_qgeomappingmanagerengine_nokia.o(.constdata__ZN9stlp_priv15_Integer_limitsIyLy0ELy18446744073709551615ELin1ELb1EE6digitsE)
    .constdata__ZTI17QGeoMapReplyNokia       0x00019f70   Section       12  moc_qgeomapreply_nokia.o(.constdata__ZTI17QGeoMapReplyNokia)
    .constdata__ZTI19QGeoRouteReplyNokia     0x00019f7c   Section       12  moc_qgeoroutereply_nokia.o(.constdata__ZTI19QGeoRouteReplyNokia)
    .constdata__ZTI20QGeoSearchReplyNokia    0x00019f88   Section       12  moc_qgeosearchreply_nokia.o(.constdata__ZTI20QGeoSearchReplyNokia)
    .constdata__ZTI21QGeoTiledMapDataNokia   0x00019f94   Section       12  moc_qgeotiledmapdata_nokia.o(.constdata__ZTI21QGeoTiledMapDataNokia)
    .constdata__ZTI28QGeoSearchManagerEngineNokia 0x00019fa0   Section       12  moc_qgeosearchmanagerengine_nokia.o(.constdata__ZTI28QGeoSearchManagerEngineNokia)
    .constdata__ZTI29QGeoMappingManagerEngineNokia 0x00019fac   Section       12  moc_qgeomappingmanagerengine_nokia.o(.constdata__ZTI29QGeoMappingManagerEngineNokia)
    .constdata__ZTI29QGeoRoutingManagerEngineNokia 0x00019fb8   Section       12  moc_qgeoroutingmanagerengine_nokia.o(.constdata__ZTI29QGeoRoutingManagerEngineNokia)
    .constdata__ZTI31QGeoServiceProviderFactoryNokia 0x00019fc4   Section       32  moc_qgeoserviceproviderplugin_nokia.o(.constdata__ZTI31QGeoServiceProviderFactoryNokia)
    .constdata__ZTS17QGeoMapReplyNokia       0x00019fe4   Section       20  moc_qgeomapreply_nokia.o(.constdata__ZTS17QGeoMapReplyNokia)
    .constdata__ZTS19QGeoRouteReplyNokia     0x00019ff8   Section       22  moc_qgeoroutereply_nokia.o(.constdata__ZTS19QGeoRouteReplyNokia)
    .constdata__ZTS20QGeoSearchReplyNokia    0x0001a00e   Section       23  moc_qgeosearchreply_nokia.o(.constdata__ZTS20QGeoSearchReplyNokia)
    .constdata__ZTS21QGeoTiledMapDataNokia   0x0001a025   Section       24  moc_qgeotiledmapdata_nokia.o(.constdata__ZTS21QGeoTiledMapDataNokia)
    .constdata__ZTS28QGeoSearchManagerEngineNokia 0x0001a03d   Section       31  moc_qgeosearchmanagerengine_nokia.o(.constdata__ZTS28QGeoSearchManagerEngineNokia)
    .constdata__ZTS29QGeoMappingManagerEngineNokia 0x0001a05c   Section       32  moc_qgeomappingmanagerengine_nokia.o(.constdata__ZTS29QGeoMappingManagerEngineNokia)
    .constdata__ZTS29QGeoRoutingManagerEngineNokia 0x0001a07c   Section       32  moc_qgeoroutingmanagerengine_nokia.o(.constdata__ZTS29QGeoRoutingManagerEngineNokia)
    .constdata__ZTS31QGeoServiceProviderFactoryNokia 0x0001a09c   Section       34  moc_qgeoserviceproviderplugin_nokia.o(.constdata__ZTS31QGeoServiceProviderFactoryNokia)
    .constdata__ZTV17QGeoMapReplyNokia       0x0001a0c0   Section       60  moc_qgeomapreply_nokia.o(.constdata__ZTV17QGeoMapReplyNokia)
    .constdata__ZTV19QGeoRouteReplyNokia     0x0001a0fc   Section       60  moc_qgeoroutereply_nokia.o(.constdata__ZTV19QGeoRouteReplyNokia)
    .constdata__ZTV20QGeoSearchReplyNokia    0x0001a138   Section       60  moc_qgeosearchreply_nokia.o(.constdata__ZTV20QGeoSearchReplyNokia)
    .constdata__ZTV21QGeoTiledMapDataNokia   0x0001a174   Section      160  moc_qgeotiledmapdata_nokia.o(.constdata__ZTV21QGeoTiledMapDataNokia)
    .constdata__ZTV28QGeoSearchManagerEngineNokia 0x0001a214   Section       68  moc_qgeosearchmanagerengine_nokia.o(.constdata__ZTV28QGeoSearchManagerEngineNokia)
    .constdata__ZTV29QGeoMappingManagerEngineNokia 0x0001a258   Section       64  moc_qgeomappingmanagerengine_nokia.o(.constdata__ZTV29QGeoMappingManagerEngineNokia)
    .constdata__ZTV29QGeoRoutingManagerEngineNokia 0x0001a298   Section       64  moc_qgeoroutingmanagerengine_nokia.o(.constdata__ZTV29QGeoRoutingManagerEngineNokia)
    .constdata__ZTV31QGeoServiceProviderFactoryNokia 0x0001a2d8   Section      112  moc_qgeoserviceproviderplugin_nokia.o(.constdata__ZTV31QGeoServiceProviderFactoryNokia)
    .init_array                              0x0001a348   Section        4  qrc_resource.o(.init_array)
    .init_array                              0x0001a34c   Section        4  qgeoserviceproviderplugin_nokia.o(.init_array)
    .ARM.exidx                               0x0001a350   Section        8  ucppinit.o(.ARM.exidx)
    .data$0                                  0x00400000   Data           0  qrc_resource.o(.data)
    qInitResources_resource__init_variable__ 0x00400000   Data           4  qrc_resource.o(.data)
    .data                                    0x00400000   Section        5  qrc_resource.o(.data)
    .data$0                                  0x00400008   Data           0  qgeomappingmanagerengine_nokia.o(.data)
    _ZGVslashpng@_ZNK29QGeoMappingManagerEngineNokia16getRequestStringERKN10QtMobility19QGeoTiledMapRequestE_0 0x00400008   Data           4  qgeomappingmanagerengine_nokia.o(.data)
    .data                                    0x00400008   Section       52  qgeomappingmanagerengine_nokia.o(.data)
    _ZGVslash@_ZNK29QGeoMappingManagerEngineNokia16getRequestStringERKN10QtMobility19QGeoTiledMapRequestE_1 0x0040000c   Data           4  qgeomappingmanagerengine_nokia.o(.data)
    _ZGVdot@_ZNK29QGeoMappingManagerEngineNokia16getRequestStringERKN10QtMobility19QGeoTiledMapRequestE_2 0x00400010   Data           4  qgeomappingmanagerengine_nokia.o(.data)
    _ZGVpath@_ZNK29QGeoMappingManagerEngineNokia16getRequestStringERKN10QtMobility19QGeoTiledMapRequestE_3 0x00400014   Data           4  qgeomappingmanagerengine_nokia.o(.data)
    _ZGVhttp@_ZNK29QGeoMappingManagerEngineNokia16getRequestStringERKN10QtMobility19QGeoTiledMapRequestE_4 0x00400018   Data           4  qgeomappingmanagerengine_nokia.o(.data)
    http@_ZNK29QGeoMappingManagerEngineNokia16getRequestStringERKN10QtMobility19QGeoTiledMapRequestE_5 0x0040001c   Data           4  qgeomappingmanagerengine_nokia.o(.data)
    path@_ZNK29QGeoMappingManagerEngineNokia16getRequestStringERKN10QtMobility19QGeoTiledMapRequestE_6 0x00400020   Data           4  qgeomappingmanagerengine_nokia.o(.data)
    dot@_ZNK29QGeoMappingManagerEngineNokia16getRequestStringERKN10QtMobility19QGeoTiledMapRequestE_7 0x00400024   Data           2  qgeomappingmanagerengine_nokia.o(.data)
    slash@_ZNK29QGeoMappingManagerEngineNokia16getRequestStringERKN10QtMobility19QGeoTiledMapRequestE_8 0x00400026   Data           2  qgeomappingmanagerengine_nokia.o(.data)
    slashpng@_ZNK29QGeoMappingManagerEngineNokia16getRequestStringERKN10QtMobility19QGeoTiledMapRequestE_9 0x00400028   Data           4  qgeomappingmanagerengine_nokia.o(.data)
    _ZGVs128@_ZN29QGeoMappingManagerEngineNokia9sizeToStrERK5QSize_0 0x0040002c   Data           4  qgeomappingmanagerengine_nokia.o(.data)
    _ZGVs256@_ZN29QGeoMappingManagerEngineNokia9sizeToStrERK5QSize_1 0x00400030   Data           4  qgeomappingmanagerengine_nokia.o(.data)
    s256@_ZN29QGeoMappingManagerEngineNokia9sizeToStrERK5QSize_2 0x00400034   Data           4  qgeomappingmanagerengine_nokia.o(.data)
    s128@_ZN29QGeoMappingManagerEngineNokia9sizeToStrERK5QSize_3 0x00400038   Data           4  qgeomappingmanagerengine_nokia.o(.data)
    .data$0                                  0x0040003c   Data           0  qgeoserviceproviderplugin_nokia.o(.data)
    _ZGV_instance@qt_plugin_instance_0       0x0040003c   Data           4  qgeoserviceproviderplugin_nokia.o(.data)
    .data                                    0x0040003c   Section       16  qgeoserviceproviderplugin_nokia.o(.data)
    _instance@qt_plugin_instance_1           0x00400040   Data           4  qgeoserviceproviderplugin_nokia.o(.data)
    .data$0                                  0x0040004c   Data           0  ucppfini.o(.data)
    .data                                    0x0040004c   Section        4  ucppfini.o(.data)
    .data__ZNSt19_Atomic_swap_structILi1EE12_S_swap_lockE 0x00400050   Section       12  moc_qgeomappingmanagerengine_nokia.o(.data__ZNSt19_Atomic_swap_structILi1EE12_S_swap_lockE)
    .bss$5                                   0x0040005c   Data           0  ucppfini.o(.bss)
    .bss                                     0x0040005c   Section     2048  ucppfini.o(.bss)

    Global Symbols

    Symbol Name                              Value     Ov Type        Size  Object(Section)

    BuildAttributes$$THUMB_ISAv2$ARM_ISAv5$M$VFPv2$PE$A:L22$X:L11$S22$IEEE1$IW$USESV6$~STKCKD$USESV7$~SHL$OSPACE$ROPI$IEEEJ$EBA8$UX$FPIC$INDIRECT$REQ8$PRES8$EABIv2 0x00000000   Number         0  anon$$obj.o ABSOLUTE
    QtCore{00040703}[2001b2dc].dll           0x00000000   Data           0  anon$$obj.o ABSOLUTE
    QtGui{00040703}[2001b2dd].dll            0x00000000   Data           0  anon$$obj.o ABSOLUTE
    QtLocation{00010103}[2002ac83].dll       0x00000000   Data           0  anon$$obj.o ABSOLUTE
    QtNetwork{00040703}[2001b2de].dll        0x00000000   Data           0  anon$$obj.o ABSOLUTE
    dfpaeabi{000a0000}.dll                   0x00000000   Data           0  anon$$obj.o ABSOLUTE
    drtaeabi{000a0000}.dll                   0x00000000   Data           0  anon$$obj.o ABSOLUTE
    euser{000a0000}[100039e5].dll            0x00000000   Data           0  anon$$obj.o ABSOLUTE
    libc{00010001}[10207369].dll             0x00000000   Data           0  anon$$obj.o ABSOLUTE
    qtgeoservices_nokia{000a0000}[2002bfca].dll 0x00000000   Data           0  anon$$obj.o ABSOLUTE
    stdnew{000a0000}[20022178].dll           0x00000000   Data           0  anon$$obj.o ABSOLUTE
    qRegisterResourceData(int, const unsigned char*, const unsigned char*, const unsigned char*)  - Undefined Reference
    _Z21qRegisterResourceDataiPKhS0_S0_@QtCore{00040703}[2001b2dc].dll  - Undefined Reference
    qUnregisterResourceData(int, const unsigned char*, const unsigned char*, const unsigned char*)  - Undefined Reference
    _Z23qUnregisterResourceDataiPKhS0_S0_@QtCore{00040703}[2001b2dc].dll  - Undefined Reference
    qFree(void*)                              - Undefined Reference
    _Z5qFreePv@QtCore{00040703}[2001b2dc].dll  - Undefined Reference
    qHash(const QString&)                     - Undefined Reference
    _Z5qHashRK7QString@QtCore{00040703}[2001b2dc].dll  - Undefined Reference
    QtMobility::QGeoAddress::setCountry(const QString&)  - Undefined Reference
    _ZN10QtMobility11QGeoAddress10setCountryERK7QString@QtLocation{00010103}[2002ac83].dll  - Undefined Reference
    QtMobility::QGeoAddress::setDistrict(const QString&)  - Undefined Reference
    _ZN10QtMobility11QGeoAddress11setDistrictERK7QString@QtLocation{00010103}[2002ac83].dll  - Undefined Reference
    QtMobility::QGeoAddress::setPostcode(const QString&)  - Undefined Reference
    _ZN10QtMobility11QGeoAddress11setPostcodeERK7QString@QtLocation{00010103}[2002ac83].dll  - Undefined Reference
    QtMobility::QGeoAddress::setCountryCode(const QString&)  - Undefined Reference
    _ZN10QtMobility11QGeoAddress14setCountryCodeERK7QString@QtLocation{00010103}[2002ac83].dll  - Undefined Reference
    QtMobility::QGeoAddress::setCity(const QString&)  - Undefined Reference
    _ZN10QtMobility11QGeoAddress7setCityERK7QString@QtLocation{00010103}[2002ac83].dll  - Undefined Reference
    QtMobility::QGeoAddress::setState(const QString&)  - Undefined Reference
    _ZN10QtMobility11QGeoAddress8setStateERK7QString@QtLocation{00010103}[2002ac83].dll  - Undefined Reference
    QtMobility::QGeoAddress::setCounty(const QString&)  - Undefined Reference
    _ZN10QtMobility11QGeoAddress9setCountyERK7QString@QtLocation{00010103}[2002ac83].dll  - Undefined Reference
    QtMobility::QGeoAddress::setStreet(const QString&)  - Undefined Reference
    _ZN10QtMobility11QGeoAddress9setStreetERK7QString@QtLocation{00010103}[2002ac83].dll  - Undefined Reference
    QtMobility::QGeoAddress::QGeoAddress()    - Undefined Reference
    _ZN10QtMobility11QGeoAddressC1Ev@QtLocation{00010103}[2002ac83].dll  - Undefined Reference
    QtMobility::QGeoAddress::~QGeoAddress()   - Undefined Reference
    _ZN10QtMobility11QGeoAddressD1Ev@QtLocation{00010103}[2002ac83].dll  - Undefined Reference
    QtMobility::QGeoMapData::setConnectivityMode(QtMobility::QGraphicsGeoMap::ConnectivityMode)  - Undefined Reference
    _ZN10QtMobility11QGeoMapData19setConnectivityModeENS_15QGraphicsGeoMap16ConnectivityModeE@QtLocation{00010103}[2002ac83].dll  - Undefined Reference
    QtMobility::QGeoMapData::paintProviderNotices(QPainter*, const QStyleOptionGraphicsItem*)  - Undefined Reference
    _ZN10QtMobility11QGeoMapData20paintProviderNoticesEP8QPainterPK24QStyleOptionGraphicsItem@QtLocation{00010103}[2002ac83].dll  - Undefined Reference
    QtMobility::QGeoMapData::init()           - Undefined Reference
    _ZN10QtMobility11QGeoMapData4initEv@QtLocation{00010103}[2002ac83].dll  - Undefined Reference
    QtMobility::QGeoMapData::paint(QPainter*, const QStyleOptionGraphicsItem*)  - Undefined Reference
    _ZN10QtMobility11QGeoMapData5paintEP8QPainterPK24QStyleOptionGraphicsItem@QtLocation{00010103}[2002ac83].dll  - Undefined Reference
    QtMobility::QGeoManeuver::setPosition(const QtMobility::QGeoCoordinate&)  - Undefined Reference
    _ZN10QtMobility12QGeoManeuver11setPositionERKNS_14QGeoCoordinateE@QtLocation{00010103}[2002ac83].dll  - Undefined Reference
    QtMobility::QGeoManeuver::setDirection(QtMobility::QGeoManeuver::InstructionDirection)  - Undefined Reference
    _ZN10QtMobility12QGeoManeuver12setDirectionENS0_20InstructionDirectionE@QtLocation{00010103}[2002ac83].dll  - Undefined Reference
    QtMobility::QGeoManeuver::setInstructionText(const QString&)  - Undefined Reference
    _ZN10QtMobility12QGeoManeuver18setInstructionTextERK7QString@QtLocation{00010103}[2002ac83].dll  - Undefined Reference
    QtMobility::QGeoManeuver::setTimeToNextInstruction(int)  - Undefined Reference
    _ZN10QtMobility12QGeoManeuver24setTimeToNextInstructionEi@QtLocation{00010103}[2002ac83].dll  - Undefined Reference
    QtMobility::QGeoManeuver::setDistanceToNextInstruction(float)  - Undefined Reference
    _ZN10QtMobility12QGeoManeuver28setDistanceToNextInstructionEf@QtLocation{00010103}[2002ac83].dll  - Undefined Reference
    QtMobility::QGeoManeuver::QGeoManeuver(const QtMobility::QGeoManeuver&)  - Undefined Reference
    _ZN10QtMobility12QGeoManeuverC1ERKS0_@QtLocation{00010103}[2002ac83].dll  - Undefined Reference
    QtMobility::QGeoManeuver::QGeoManeuver()  - Undefined Reference
    _ZN10QtMobility12QGeoManeuverC1Ev@QtLocation{00010103}[2002ac83].dll  - Undefined Reference
    QtMobility::QGeoManeuver::~QGeoManeuver()  - Undefined Reference
    _ZN10QtMobility12QGeoManeuverD1Ev@QtLocation{00010103}[2002ac83].dll  - Undefined Reference
    QtMobility::QGeoCoordinate::setLatitude(double)  - Undefined Reference
    _ZN10QtMobility14QGeoCoordinate11setLatitudeEd@QtLocation{00010103}[2002ac83].dll  - Undefined Reference
    QtMobility::QGeoCoordinate::setLongitude(double)  - Undefined Reference
    _ZN10QtMobility14QGeoCoordinate12setLongitudeEd@QtLocation{00010103}[2002ac83].dll  - Undefined Reference
    QtMobility::QGeoCoordinate::QGeoCoordinate(const QtMobility::QGeoCoordinate&)  - Undefined Reference
    _ZN10QtMobility14QGeoCoordinateC1ERKS0_@QtLocation{00010103}[2002ac83].dll  - Undefined Reference
    QtMobility::QGeoCoordinate::QGeoCoordinate(double, double)  - Undefined Reference
    _ZN10QtMobility14QGeoCoordinateC1Edd@QtLocation{00010103}[2002ac83].dll  - Undefined Reference
    QtMobility::QGeoCoordinate::QGeoCoordinate()  - Undefined Reference
    _ZN10QtMobility14QGeoCoordinateC1Ev@QtLocation{00010103}[2002ac83].dll  - Undefined Reference
    QtMobility::QGeoCoordinate::~QGeoCoordinate()  - Undefined Reference
    _ZN10QtMobility14QGeoCoordinateD1Ev@QtLocation{00010103}[2002ac83].dll  - Undefined Reference
    QtMobility::QGeoCoordinate::operator =(const QtMobility::QGeoCoordinate&)  - Undefined Reference
    _ZN10QtMobility14QGeoCoordinateaSERKS0_@QtLocation{00010103}[2002ac83].dll  - Undefined Reference
    QtMobility::QGeoRouteReply::qt_metacall(QMetaObject::Call, int, void**)  - Undefined Reference
    _ZN10QtMobility14QGeoRouteReply11qt_metacallEN11QMetaObject4CallEiPPv@QtLocation{00010103}[2002ac83].dll  - Undefined Reference
    QtMobility::QGeoRouteReply::qt_metacast(const char*)  - Undefined Reference
    _ZN10QtMobility14QGeoRouteReply11qt_metacastEPKc@QtLocation{00010103}[2002ac83].dll  - Undefined Reference
    QtMobility::QGeoRouteReply::setFinished(bool)  - Undefined Reference
    _ZN10QtMobility14QGeoRouteReply11setFinishedEb@QtLocation{00010103}[2002ac83].dll  - Undefined Reference
    QtMobility::QGeoRouteReply::staticMetaObject  - Undefined Reference
    _ZN10QtMobility14QGeoRouteReply16staticMetaObjectE@QtLocation{00010103}[2002ac83].dll  - Undefined Reference
    QtMobility::QGeoRouteReply::setError(QtMobility::QGeoRouteReply::Error, const QString&)  - Undefined Reference
    _ZN10QtMobility14QGeoRouteReply8setErrorENS0_5ErrorERK7QString@QtLocation{00010103}[2002ac83].dll  - Undefined Reference
    QtMobility::QGeoRouteReply::setRoutes(const QList<QtMobility::QGeoRoute>&)  - Undefined Reference
    _ZN10QtMobility14QGeoRouteReply9setRoutesERK5QListINS_9QGeoRouteEE@QtLocation{00010103}[2002ac83].dll  - Undefined Reference
    QtMobility::QGeoRouteReply::QGeoRouteReply(QtMobility::QGeoRouteReply::Error, const QString&, QObject*)  - Undefined Reference
    _ZN10QtMobility14QGeoRouteReplyC1ENS0_5ErrorERK7QStringP7QObject@QtLocation{00010103}[2002ac83].dll  - Undefined Reference
    QtMobility::QGeoRouteReply::QGeoRouteReply(const QtMobility::QGeoRouteRequest&, QObject*)  - Undefined Reference
    _ZN10QtMobility14QGeoRouteReplyC1ERKNS_16QGeoRouteRequestEP7QObject@QtLocation{00010103}[2002ac83].dll  - Undefined Reference
    QtMobility::QGeoRouteReply::~QGeoRouteReply()  - Undefined Reference
    _ZN10QtMobility14QGeoRouteReplyD1Ev@QtLocation{00010103}[2002ac83].dll  - Undefined Reference
    QtMobility::QGeoBoundingBox::QGeoBoundingBox(const QtMobility::QGeoCoordinate&, const QtMobility::QGeoCoordinate&)  - Undefined Reference
    _ZN10QtMobility15QGeoBoundingBoxC1ERKNS_14QGeoCoordinateES3_@QtLocation{00010103}[2002ac83].dll  - Undefined Reference
    QtMobility::QGeoBoundingBox::QGeoBoundingBox(const QtMobility::QGeoBoundingBox&)  - Undefined Reference
    _ZN10QtMobility15QGeoBoundingBoxC1ERKS0_@QtLocation{00010103}[2002ac83].dll  - Undefined Reference
    QtMobility::QGeoBoundingBox::QGeoBoundingBox()  - Undefined Reference
    _ZN10QtMobility15QGeoBoundingBoxC1Ev@QtLocation{00010103}[2002ac83].dll  - Undefined Reference
    QtMobility::QGeoBoundingBox::~QGeoBoundingBox()  - Undefined Reference
    _ZN10QtMobility15QGeoBoundingBoxD1Ev@QtLocation{00010103}[2002ac83].dll  - Undefined Reference
    QtMobility::QGeoBoundingBox::operator =(const QtMobility::QGeoBoundingBox&)  - Undefined Reference
    _ZN10QtMobility15QGeoBoundingBoxaSERKS0_@QtLocation{00010103}[2002ac83].dll  - Undefined Reference
    QtMobility::QGeoSearchReply::qt_metacall(QMetaObject::Call, int, void**)  - Undefined Reference
    _ZN10QtMobility15QGeoSearchReply11qt_metacallEN11QMetaObject4CallEiPPv@QtLocation{00010103}[2002ac83].dll  - Undefined Reference
    QtMobility::QGeoSearchReply::qt_metacast(const char*)  - Undefined Reference
    _ZN10QtMobility15QGeoSearchReply11qt_metacastEPKc@QtLocation{00010103}[2002ac83].dll  - Undefined Reference
    QtMobility::QGeoSearchReply::setFinished(bool)  - Undefined Reference
    _ZN10QtMobility15QGeoSearchReply11setFinishedEb@QtLocation{00010103}[2002ac83].dll  - Undefined Reference
    QtMobility::QGeoSearchReply::setViewport(QtMobility::QGeoBoundingArea*)  - Undefined Reference
    _ZN10QtMobility15QGeoSearchReply11setViewportEPNS_16QGeoBoundingAreaE@QtLocation{00010103}[2002ac83].dll  - Undefined Reference
    QtMobility::QGeoSearchReply::staticMetaObject  - Undefined Reference
    _ZN10QtMobility15QGeoSearchReply16staticMetaObjectE@QtLocation{00010103}[2002ac83].dll  - Undefined Reference
    QtMobility::QGeoSearchReply::setError(QtMobility::QGeoSearchReply::Error, const QString&)  - Undefined Reference
    _ZN10QtMobility15QGeoSearchReply8setErrorENS0_5ErrorERK7QString@QtLocation{00010103}[2002ac83].dll  - Undefined Reference
    QtMobility::QGeoSearchReply::setLimit(int)  - Undefined Reference
    _ZN10QtMobility15QGeoSearchReply8setLimitEi@QtLocation{00010103}[2002ac83].dll  - Undefined Reference
    QtMobility::QGeoSearchReply::setOffset(int)  - Undefined Reference
    _ZN10QtMobility15QGeoSearchReply9setOffsetEi@QtLocation{00010103}[2002ac83].dll  - Undefined Reference
    QtMobility::QGeoSearchReply::setPlaces(const QList<QtMobility::QGeoPlace>&)  - Undefined Reference
    _ZN10QtMobility15QGeoSearchReply9setPlacesERK5QListINS_9QGeoPlaceEE@QtLocation{00010103}[2002ac83].dll  - Undefined Reference
    QtMobility::QGeoSearchReply::QGeoSearchReply(QtMobility::QGeoSearchReply::Error, const QString&, QObject*)  - Undefined Reference
    _ZN10QtMobility15QGeoSearchReplyC1ENS0_5ErrorERK7QStringP7QObject@QtLocation{00010103}[2002ac83].dll  - Undefined Reference
    QtMobility::QGeoSearchReply::QGeoSearchReply(QObject*)  - Undefined Reference
    _ZN10QtMobility15QGeoSearchReplyC1EP7QObject@QtLocation{00010103}[2002ac83].dll  - Undefined Reference
    QtMobility::QGeoSearchReply::~QGeoSearchReply()  - Undefined Reference
    _ZN10QtMobility15QGeoSearchReplyD1Ev@QtLocation{00010103}[2002ac83].dll  - Undefined Reference
    QtMobility::QGeoRouteRequest::setTravelModes(QFlags<QtMobility::QGeoRouteRequest::TravelMode>)  - Undefined Reference
    _ZN10QtMobility16QGeoRouteRequest14setTravelModesE6QFlagsINS0_10TravelModeEE@QtLocation{00010103}[2002ac83].dll  - Undefined Reference
    QtMobility::QGeoRouteRequest::QGeoRouteRequest(const QtMobility::QGeoRouteRequest&)  - Undefined Reference
    _ZN10QtMobility16QGeoRouteRequestC1ERKS0_@QtLocation{00010103}[2002ac83].dll  - Undefined Reference
    QtMobility::QGeoRouteRequest::~QGeoRouteRequest()  - Undefined Reference
    _ZN10QtMobility16QGeoRouteRequestD1Ev@QtLocation{00010103}[2002ac83].dll  - Undefined Reference
    QtMobility::QGeoRouteSegment::setDistance(float)  - Undefined Reference
    _ZN10QtMobility16QGeoRouteSegment11setDistanceEf@QtLocation{00010103}[2002ac83].dll  - Undefined Reference
    QtMobility::QGeoRouteSegment::setManeuver(const QtMobility::QGeoManeuver&)  - Undefined Reference
    _ZN10QtMobility16QGeoRouteSegment11setManeuverERKNS_12QGeoManeuverE@QtLocation{00010103}[2002ac83].dll  - Undefined Reference
    QtMobility::QGeoRouteSegment::setTravelTime(int)  - Undefined Reference
    _ZN10QtMobility16QGeoRouteSegment13setTravelTimeEi@QtLocation{00010103}[2002ac83].dll  - Undefined Reference
    QtMobility::QGeoRouteSegment::setNextRouteSegment(const QtMobility::QGeoRouteSegment&)  - Undefined Reference
    _ZN10QtMobility16QGeoRouteSegment19setNextRouteSegmentERKS0_@QtLocation{00010103}[2002ac83].dll  - Undefined Reference
    QtMobility::QGeoRouteSegment::setPath(const QList<QtMobility::QGeoCoordinate>&)  - Undefined Reference
    _ZN10QtMobility16QGeoRouteSegment7setPathERK5QListINS_14QGeoCoordinateEE@QtLocation{00010103}[2002ac83].dll  - Undefined Reference
    QtMobility::QGeoRouteSegment::QGeoRouteSegment(const QtMobility::QGeoRouteSegment&)  - Undefined Reference
    _ZN10QtMobility16QGeoRouteSegmentC1ERKS0_@QtLocation{00010103}[2002ac83].dll  - Undefined Reference
    QtMobility::QGeoRouteSegment::QGeoRouteSegment()  - Undefined Reference
    _ZN10QtMobility16QGeoRouteSegmentC1Ev@QtLocation{00010103}[2002ac83].dll  - Undefined Reference
    QtMobility::QGeoRouteSegment::~QGeoRouteSegment()  - Undefined Reference
    _ZN10QtMobility16QGeoRouteSegmentD1Ev@QtLocation{00010103}[2002ac83].dll  - Undefined Reference
    QtMobility::QGeoTiledMapData::setMapType(QtMobility::QGraphicsGeoMap::MapType)  - Undefined Reference
    _ZN10QtMobility16QGeoTiledMapData10setMapTypeENS_15QGraphicsGeoMap7MapTypeE@QtLocation{00010103}[2002ac83].dll  - Undefined Reference
    QtMobility::QGeoTiledMapData::qt_metacall(QMetaObject::Call, int, void**)  - Undefined Reference
    _ZN10QtMobility16QGeoTiledMapData11qt_metacallEN11QMetaObject4CallEiPPv@QtLocation{00010103}[2002ac83].dll  - Undefined Reference
    QtMobility::QGeoTiledMapData::qt_metacast(const char*)  - Undefined Reference
    _ZN10QtMobility16QGeoTiledMapData11qt_metacastEPKc@QtLocation{00010103}[2002ac83].dll  - Undefined Reference
    QtMobility::QGeoTiledMapData::paintObjects(QPainter*, const QStyleOptionGraphicsItem*)  - Undefined Reference
    _ZN10QtMobility16QGeoTiledMapData12paintObjectsEP8QPainterPK24QStyleOptionGraphicsItem@QtLocation{00010103}[2002ac83].dll  - Undefined Reference
    QtMobility::QGeoTiledMapData::setZoomLevel(float)  - Undefined Reference
    _ZN10QtMobility16QGeoTiledMapData12setZoomLevelEf@QtLocation{00010103}[2002ac83].dll  - Undefined Reference
    QtMobility::QGeoTiledMapData::fitInViewport(const QtMobility::QGeoBoundingBox&, bool)  - Undefined Reference
    _ZN10QtMobility16QGeoTiledMapData13fitInViewportERKNS_15QGeoBoundingBoxEb@QtLocation{00010103}[2002ac83].dll  - Undefined Reference
    QtMobility::QGeoTiledMapData::setWindowSize(const QSizeF&)  - Undefined Reference
    _ZN10QtMobility16QGeoTiledMapData13setWindowSizeERK6QSizeF@QtLocation{00010103}[2002ac83].dll  - Undefined Reference
    QtMobility::QGeoTiledMapData::staticMetaObject  - Undefined Reference
    _ZN10QtMobility16QGeoTiledMapData16staticMetaObjectE@QtLocation{00010103}[2002ac83].dll  - Undefined Reference
    QtMobility::QGeoTiledMapData::createMapObjectInfo(QtMobility::QGeoMapObject*)  - Undefined Reference
    _ZN10QtMobility16QGeoTiledMapData19createMapObjectInfoEPNS_13QGeoMapObjectE@QtLocation{00010103}[2002ac83].dll  - Undefined Reference
    QtMobility::QGeoTiledMapData::pan(int, int)  - Undefined Reference
    _ZN10QtMobility16QGeoTiledMapData3panEii@QtLocation{00010103}[2002ac83].dll  - Undefined Reference
    QtMobility::QGeoTiledMapData::paintMap(QPainter*, const QStyleOptionGraphicsItem*)  - Undefined Reference
    _ZN10QtMobility16QGeoTiledMapData8paintMapEP8QPainterPK24QStyleOptionGraphicsItem@QtLocation{00010103}[2002ac83].dll  - Undefined Reference
    QtMobility::QGeoTiledMapData::setCenter(const QtMobility::QGeoCoordinate&)  - Undefined Reference
    _ZN10QtMobility16QGeoTiledMapData9setCenterERKNS_14QGeoCoordinateE@QtLocation{00010103}[2002ac83].dll  - Undefined Reference
    QtMobility::QGeoTiledMapData::QGeoTiledMapData(QtMobility::QGeoMappingManagerEngine*)  - Undefined Reference
    _ZN10QtMobility16QGeoTiledMapDataC1EPNS_24QGeoMappingManagerEngineE@QtLocation{00010103}[2002ac83].dll  - Undefined Reference
    QtMobility::QGeoTiledMapData::~QGeoTiledMapData()  - Undefined Reference
    _ZN10QtMobility16QGeoTiledMapDataD1Ev@QtLocation{00010103}[2002ac83].dll  - Undefined Reference
    QtMobility::QGeoTiledMapReply::qt_metacall(QMetaObject::Call, int, void**)  - Undefined Reference
    _ZN10QtMobility17QGeoTiledMapReply11qt_metacallEN11QMetaObject4CallEiPPv@QtLocation{00010103}[2002ac83].dll  - Undefined Reference
    QtMobility::QGeoTiledMapReply::qt_metacast(const char*)  - Undefined Reference
    _ZN10QtMobility17QGeoTiledMapReply11qt_metacastEPKc@QtLocation{00010103}[2002ac83].dll  - Undefined Reference
    QtMobility::QGeoTiledMapReply::setFinished(bool)  - Undefined Reference
    _ZN10QtMobility17QGeoTiledMapReply11setFinishedEb@QtLocation{00010103}[2002ac83].dll  - Undefined Reference
    QtMobility::QGeoTiledMapReply::setMapImageData(const QByteArray&)  - Undefined Reference
    _ZN10QtMobility17QGeoTiledMapReply15setMapImageDataERK10QByteArray@QtLocation{00010103}[2002ac83].dll  - Undefined Reference
    QtMobility::QGeoTiledMapReply::staticMetaObject  - Undefined Reference
    _ZN10QtMobility17QGeoTiledMapReply16staticMetaObjectE@QtLocation{00010103}[2002ac83].dll  - Undefined Reference
    QtMobility::QGeoTiledMapReply::setMapImageFormat(const QString&)  - Undefined Reference
    _ZN10QtMobility17QGeoTiledMapReply17setMapImageFormatERK7QString@QtLocation{00010103}[2002ac83].dll  - Undefined Reference
    QtMobility::QGeoTiledMapReply::setError(QtMobility::QGeoTiledMapReply::Error, const QString&)  - Undefined Reference
    _ZN10QtMobility17QGeoTiledMapReply8setErrorENS0_5ErrorERK7QString@QtLocation{00010103}[2002ac83].dll  - Undefined Reference
    QtMobility::QGeoTiledMapReply::setCached(bool)  - Undefined Reference
    _ZN10QtMobility17QGeoTiledMapReply9setCachedEb@QtLocation{00010103}[2002ac83].dll  - Undefined Reference
    QtMobility::QGeoTiledMapReply::QGeoTiledMapReply(const QtMobility::QGeoTiledMapRequest&, QObject*)  - Undefined Reference
    _ZN10QtMobility17QGeoTiledMapReplyC1ERKNS_19QGeoTiledMapRequestEP7QObject@QtLocation{00010103}[2002ac83].dll  - Undefined Reference
    QtMobility::QGeoTiledMapReply::~QGeoTiledMapReply()  - Undefined Reference
    _ZN10QtMobility17QGeoTiledMapReplyD1Ev@QtLocation{00010103}[2002ac83].dll  - Undefined Reference
    QtMobility::QGeoSearchManagerEngine::qt_metacall(QMetaObject::Call, int, void**)  - Undefined Reference
    _ZN10QtMobility23QGeoSearchManagerEngine11qt_metacallEN11QMetaObject4CallEiPPv@QtLocation{00010103}[2002ac83].dll  - Undefined Reference
    QtMobility::QGeoSearchManagerEngine::qt_metacast(const char*)  - Undefined Reference
    _ZN10QtMobility23QGeoSearchManagerEngine11qt_metacastEPKc@QtLocation{00010103}[2002ac83].dll  - Undefined Reference
    QtMobility::QGeoSearchManagerEngine::staticMetaObject  - Undefined Reference
    _ZN10QtMobility23QGeoSearchManagerEngine16staticMetaObjectE@QtLocation{00010103}[2002ac83].dll  - Undefined Reference
    QtMobility::QGeoSearchManagerEngine::setSupportsGeocoding(bool)  - Undefined Reference
    _ZN10QtMobility23QGeoSearchManagerEngine20setSupportsGeocodingEb@QtLocation{00010103}[2002ac83].dll  - Undefined Reference
    QtMobility::QGeoSearchManagerEngine::setSupportedSearchTypes(QFlags<QtMobility::QGeoSearchManager::SearchType>)  - Undefined Reference
    _ZN10QtMobility23QGeoSearchManagerEngine23setSupportedSearchTypesE6QFlagsINS_17QGeoSearchManager10SearchTypeEE@QtLocation{00010103}[2002ac83].dll  - Undefined Reference
    QtMobility::QGeoSearchManagerEngine::setSupportsReverseGeocoding(bool)  - Undefined Reference
    _ZN10QtMobility23QGeoSearchManagerEngine27setSupportsReverseGeocodingEb@QtLocation{00010103}[2002ac83].dll  - Undefined Reference
    QtMobility::QGeoSearchManagerEngine::error(QtMobility::QGeoSearchReply*, QtMobility::QGeoSearchReply::Error, QString)  - Undefined Reference
    _ZN10QtMobility23QGeoSearchManagerEngine5errorEPNS_15QGeoSearchReplyENS1_5ErrorE7QString@QtLocation{00010103}[2002ac83].dll  - Undefined Reference
    QtMobility::QGeoSearchManagerEngine::finished(QtMobility::QGeoSearchReply*)  - Undefined Reference
    _ZN10QtMobility23QGeoSearchManagerEngine8finishedEPNS_15QGeoSearchReplyE@QtLocation{00010103}[2002ac83].dll  - Undefined Reference
    QtMobility::QGeoSearchManagerEngine::QGeoSearchManagerEngine(const QMap<QString, QVariant>&, QObject*)  - Undefined Reference
    _ZN10QtMobility23QGeoSearchManagerEngineC1ERK4QMapI7QString8QVariantEP7QObject@QtLocation{00010103}[2002ac83].dll  - Undefined Reference
    QtMobility::QGeoSearchManagerEngine::~QGeoSearchManagerEngine()  - Undefined Reference
    _ZN10QtMobility23QGeoSearchManagerEngineD1Ev@QtLocation{00010103}[2002ac83].dll  - Undefined Reference
    QtMobility::QGeoMappingManagerEngine::setMaximumZoomLevel(float)  - Undefined Reference
    _ZN10QtMobility24QGeoMappingManagerEngine19setMaximumZoomLevelEf@QtLocation{00010103}[2002ac83].dll  - Undefined Reference
    QtMobility::QGeoMappingManagerEngine::setMinimumZoomLevel(float)  - Undefined Reference
    _ZN10QtMobility24QGeoMappingManagerEngine19setMinimumZoomLevelEf@QtLocation{00010103}[2002ac83].dll  - Undefined Reference
    QtMobility::QGeoMappingManagerEngine::setSupportedMapTypes(const QList<QtMobility::QGraphicsGeoMap::MapType>&)  - Undefined Reference
    _ZN10QtMobility24QGeoMappingManagerEngine20setSupportedMapTypesERK5QListINS_15QGraphicsGeoMap7MapTypeEE@QtLocation{00010103}[2002ac83].dll  - Undefined Reference
    QtMobility::QGeoMappingManagerEngine::setSupportedConnectivityModes(const QList<QtMobility::QGraphicsGeoMap::ConnectivityMode>&)  - Undefined Reference
    _ZN10QtMobility24QGeoMappingManagerEngine29setSupportedConnectivityModesERK5QListINS_15QGraphicsGeoMap16ConnectivityModeEE@QtLocation{00010103}[2002ac83].dll  - Undefined Reference
    QtMobility::QGeoRoutingManagerEngine::qt_metacall(QMetaObject::Call, int, void**)  - Undefined Reference
    _ZN10QtMobility24QGeoRoutingManagerEngine11qt_metacallEN11QMetaObject4CallEiPPv@QtLocation{00010103}[2002ac83].dll  - Undefined Reference
    QtMobility::QGeoRoutingManagerEngine::qt_metacast(const char*)  - Undefined Reference
    _ZN10QtMobility24QGeoRoutingManagerEngine11qt_metacastEPKc@QtLocation{00010103}[2002ac83].dll  - Undefined Reference
    QtMobility::QGeoRoutingManagerEngine::staticMetaObject  - Undefined Reference
    _ZN10QtMobility24QGeoRoutingManagerEngine16staticMetaObjectE@QtLocation{00010103}[2002ac83].dll  - Undefined Reference
    QtMobility::QGeoRoutingManagerEngine::setSupportedTravelModes(QFlags<QtMobility::QGeoRouteRequest::TravelMode>)  - Undefined Reference
    _ZN10QtMobility24QGeoRoutingManagerEngine23setSupportedTravelModesE6QFlagsINS_16QGeoRouteRequest10TravelModeEE@QtLocation{00010103}[2002ac83].dll  - Undefined Reference
    QtMobility::QGeoRoutingManagerEngine::setSupportsExcludeAreas(bool)  - Undefined Reference
    _ZN10QtMobility24QGeoRoutingManagerEngine23setSupportsExcludeAreasEb@QtLocation{00010103}[2002ac83].dll  - Undefined Reference
    QtMobility::QGeoRoutingManagerEngine::setSupportsRouteUpdates(bool)  - Undefined Reference
    _ZN10QtMobility24QGeoRoutingManagerEngine23setSupportsRouteUpdatesEb@QtLocation{00010103}[2002ac83].dll  - Undefined Reference
    QtMobility::QGeoRoutingManagerEngine::setSupportedFeatureTypes(QFlags<QtMobility::QGeoRouteRequest::FeatureType>)  - Undefined Reference
    _ZN10QtMobility24QGeoRoutingManagerEngine24setSupportedFeatureTypesE6QFlagsINS_16QGeoRouteRequest11FeatureTypeEE@QtLocation{00010103}[2002ac83].dll  - Undefined Reference
    QtMobility::QGeoRoutingManagerEngine::setSupportedFeatureWeights(QFlags<QtMobility::QGeoRouteRequest::FeatureWeight>)  - Undefined Reference
    _ZN10QtMobility24QGeoRoutingManagerEngine26setSupportedFeatureWeightsE6QFlagsINS_16QGeoRouteRequest13FeatureWeightEE@QtLocation{00010103}[2002ac83].dll  - Undefined Reference
    QtMobility::QGeoRoutingManagerEngine::setSupportedSegmentDetails(QFlags<QtMobility::QGeoRouteRequest::SegmentDetail>)  - Undefined Reference
    _ZN10QtMobility24QGeoRoutingManagerEngine26setSupportedSegmentDetailsE6QFlagsINS_16QGeoRouteRequest13SegmentDetailEE@QtLocation{00010103}[2002ac83].dll  - Undefined Reference
    QtMobility::QGeoRoutingManagerEngine::setSupportedManeuverDetails(QFlags<QtMobility::QGeoRouteRequest::ManeuverDetail>)  - Undefined Reference
    _ZN10QtMobility24QGeoRoutingManagerEngine27setSupportedManeuverDetailsE6QFlagsINS_16QGeoRouteRequest14ManeuverDetailEE@QtLocation{00010103}[2002ac83].dll  - Undefined Reference
    QtMobility::QGeoRoutingManagerEngine::setSupportsAlternativeRoutes(bool)  - Undefined Reference
    _ZN10QtMobility24QGeoRoutingManagerEngine28setSupportsAlternativeRoutesEb@QtLocation{00010103}[2002ac83].dll  - Undefined Reference
    QtMobility::QGeoRoutingManagerEngine::setSupportedRouteOptimizations(QFlags<QtMobility::QGeoRouteRequest::RouteOptimization>)  - Undefined Reference
    _ZN10QtMobility24QGeoRoutingManagerEngine30setSupportedRouteOptimizationsE6QFlagsINS_16QGeoRouteRequest17RouteOptimizationEE@QtLocation{00010103}[2002ac83].dll  - Undefined Reference
    QtMobility::QGeoRoutingManagerEngine::error(QtMobility::QGeoRouteReply*, QtMobility::QGeoRouteReply::Error, QString)  - Undefined Reference
    _ZN10QtMobility24QGeoRoutingManagerEngine5errorEPNS_14QGeoRouteReplyENS1_5ErrorE7QString@QtLocation{00010103}[2002ac83].dll  - Undefined Reference
    QtMobility::QGeoRoutingManagerEngine::finished(QtMobility::QGeoRouteReply*)  - Undefined Reference
    _ZN10QtMobility24QGeoRoutingManagerEngine8finishedEPNS_14QGeoRouteReplyE@QtLocation{00010103}[2002ac83].dll  - Undefined Reference
    QtMobility::QGeoRoutingManagerEngine::QGeoRoutingManagerEngine__sub_object(const QMap<QString, QVariant>&, QObject*)  - Undefined Reference
    _ZN10QtMobility24QGeoRoutingManagerEngineC2ERK4QMapI7QString8QVariantEP7QObject@QtLocation{00010103}[2002ac83].dll  - Undefined Reference
    QtMobility::QGeoRoutingManagerEngine::~QGeoRoutingManagerEngine__sub_object()  - Undefined Reference
    _ZN10QtMobility24QGeoRoutingManagerEngineD2Ev@QtLocation{00010103}[2002ac83].dll  - Undefined Reference
    QtMobility::QGeoTiledMappingManagerEngine::qt_metacall(QMetaObject::Call, int, void**)  - Undefined Reference
    _ZN10QtMobility29QGeoTiledMappingManagerEngine11qt_metacallEN11QMetaObject4CallEiPPv@QtLocation{00010103}[2002ac83].dll  - Undefined Reference
    QtMobility::QGeoTiledMappingManagerEngine::qt_metacast(const char*)  - Undefined Reference
    _ZN10QtMobility29QGeoTiledMappingManagerEngine11qt_metacastEPKc@QtLocation{00010103}[2002ac83].dll  - Undefined Reference
    QtMobility::QGeoTiledMappingManagerEngine::setTileSize(const QSize&)  - Undefined Reference
    _ZN10QtMobility29QGeoTiledMappingManagerEngine11setTileSizeERK5QSize@QtLocation{00010103}[2002ac83].dll  - Undefined Reference
    QtMobility::QGeoTiledMappingManagerEngine::staticMetaObject  - Undefined Reference
    _ZN10QtMobility29QGeoTiledMappingManagerEngine16staticMetaObjectE@QtLocation{00010103}[2002ac83].dll  - Undefined Reference
    QtMobility::QGeoTiledMappingManagerEngine::QGeoTiledMappingManagerEngine__sub_object(const QMap<QString, QVariant>&, QObject*)  - Undefined Reference
    _ZN10QtMobility29QGeoTiledMappingManagerEngineC2ERK4QMapI7QString8QVariantEP7QObject@QtLocation{00010103}[2002ac83].dll  - Undefined Reference
    QtMobility::QGeoTiledMappingManagerEngine::~QGeoTiledMappingManagerEngine__sub_object()  - Undefined Reference
    _ZN10QtMobility29QGeoTiledMappingManagerEngineD2Ev@QtLocation{00010103}[2002ac83].dll  - Undefined Reference
    QtMobility::QGeoPlace::setAddress(const QtMobility::QGeoAddress&)  - Undefined Reference
    _ZN10QtMobility9QGeoPlace10setAddressERKNS_11QGeoAddressE@QtLocation{00010103}[2002ac83].dll  - Undefined Reference
    QtMobility::QGeoPlace::setViewport(const QtMobility::QGeoBoundingBox&)  - Undefined Reference
    _ZN10QtMobility9QGeoPlace11setViewportERKNS_15QGeoBoundingBoxE@QtLocation{00010103}[2002ac83].dll  - Undefined Reference
    QtMobility::QGeoPlace::setCoordinate(const QtMobility::QGeoCoordinate&)  - Undefined Reference
    _ZN10QtMobility9QGeoPlace13setCoordinateERKNS_14QGeoCoordinateE@QtLocation{00010103}[2002ac83].dll  - Undefined Reference
    QtMobility::QGeoPlace::QGeoPlace(const QtMobility::QGeoPlace&)  - Undefined Reference
    _ZN10QtMobility9QGeoPlaceC1ERKS0_@QtLocation{00010103}[2002ac83].dll  - Undefined Reference
    QtMobility::QGeoPlace::QGeoPlace()        - Undefined Reference
    _ZN10QtMobility9QGeoPlaceC1Ev@QtLocation{00010103}[2002ac83].dll  - Undefined Reference
    QtMobility::QGeoPlace::~QGeoPlace()       - Undefined Reference
    _ZN10QtMobility9QGeoPlaceD1Ev@QtLocation{00010103}[2002ac83].dll  - Undefined Reference
    QtMobility::QGeoRoute::setRequest(const QtMobility::QGeoRouteRequest&)  - Undefined Reference
    _ZN10QtMobility9QGeoRoute10setRequestERKNS_16QGeoRouteRequestE@QtLocation{00010103}[2002ac83].dll  - Undefined Reference
    QtMobility::QGeoRoute::setRouteId(const QString&)  - Undefined Reference
    _ZN10QtMobility9QGeoRoute10setRouteIdERK7QString@QtLocation{00010103}[2002ac83].dll  - Undefined Reference
    QtMobility::QGeoRoute::setDistance(float)  - Undefined Reference
    _ZN10QtMobility9QGeoRoute11setDistanceEf@QtLocation{00010103}[2002ac83].dll  - Undefined Reference
    QtMobility::QGeoRoute::setTravelMode(QtMobility::QGeoRouteRequest::TravelMode)  - Undefined Reference
    _ZN10QtMobility9QGeoRoute13setTravelModeENS_16QGeoRouteRequest10TravelModeE@QtLocation{00010103}[2002ac83].dll  - Undefined Reference
    QtMobility::QGeoRoute::setTravelTime(int)  - Undefined Reference
    _ZN10QtMobility9QGeoRoute13setTravelTimeEi@QtLocation{00010103}[2002ac83].dll  - Undefined Reference
    QtMobility::QGeoRoute::setFirstRouteSegment(const QtMobility::QGeoRouteSegment&)  - Undefined Reference
    _ZN10QtMobility9QGeoRoute20setFirstRouteSegmentERKNS_16QGeoRouteSegmentE@QtLocation{00010103}[2002ac83].dll  - Undefined Reference
    QtMobility::QGeoRoute::setPath(const QList<QtMobility::QGeoCoordinate>&)  - Undefined Reference
    _ZN10QtMobility9QGeoRoute7setPathERK5QListINS_14QGeoCoordinateEE@QtLocation{00010103}[2002ac83].dll  - Undefined Reference
    QtMobility::QGeoRoute::setBounds(const QtMobility::QGeoBoundingBox&)  - Undefined Reference
    _ZN10QtMobility9QGeoRoute9setBoundsERKNS_15QGeoBoundingBoxE@QtLocation{00010103}[2002ac83].dll  - Undefined Reference
    QtMobility::QGeoRoute::QGeoRoute(const QtMobility::QGeoRoute&)  - Undefined Reference
    _ZN10QtMobility9QGeoRouteC1ERKS0_@QtLocation{00010103}[2002ac83].dll  - Undefined Reference
    QtMobility::QGeoRoute::QGeoRoute()        - Undefined Reference
    _ZN10QtMobility9QGeoRouteC1Ev@QtLocation{00010103}[2002ac83].dll  - Undefined Reference
    QtMobility::QGeoRoute::~QGeoRoute()       - Undefined Reference
    _ZN10QtMobility9QGeoRouteD1Ev@QtLocation{00010103}[2002ac83].dll  - Undefined Reference
    QMetaObject::changeGuard(QObject**, QObject*)  - Undefined Reference
    _ZN11QMetaObject11changeGuardEPP7QObjectS1_@QtCore{00040703}[2001b2dc].dll  - Undefined Reference
    QMetaObject::removeGuard(QObject**)       - Undefined Reference
    _ZN11QMetaObject11removeGuardEPP7QObject@QtCore{00040703}[2001b2dc].dll  - Undefined Reference
    QVectorData::free(QVectorData*, int)      - Undefined Reference
    _ZN11QVectorData4freeEPS_i@QtCore{00040703}[2001b2dc].dll  - Undefined Reference
    QNetworkProxy::QNetworkProxy(QNetworkProxy::ProxyType, const QString&, unsigned short, const QString&, const QString&)  - Undefined Reference
    _ZN13QNetworkProxyC1ENS_9ProxyTypeERK7QStringtS3_S3_@QtNetwork{00040703}[2001b2de].dll  - Undefined Reference
    QNetworkProxy::~QNetworkProxy()           - Undefined Reference
    _ZN13QNetworkProxyD1Ev@QtNetwork{00040703}[2001b2de].dll  - Undefined Reference
    QNetworkRequest::setAttribute(QNetworkRequest::Attribute, const QVariant&)  - Undefined Reference
    _ZN15QNetworkRequest12setAttributeENS_9AttributeERK8QVariant@QtNetwork{00040703}[2001b2de].dll  - Undefined Reference
    QNetworkRequest::QNetworkRequest(const QUrl&)  - Undefined Reference
    _ZN15QNetworkRequestC1ERK4QUrl@QtNetwork{00040703}[2001b2de].dll  - Undefined Reference
    QNetworkRequest::~QNetworkRequest()       - Undefined Reference
    _ZN15QNetworkRequestD1Ev@QtNetwork{00040703}[2001b2de].dll  - Undefined Reference
    QXmlStreamReader::raiseError(const QString&)  - Undefined Reference
    _ZN16QXmlStreamReader10raiseErrorERK7QString@QtCore{00040703}[2001b2dc].dll  - Undefined Reference
    QXmlStreamReader::readElementText()       - Undefined Reference
    _ZN16QXmlStreamReader15readElementTextEv@QtCore{00040703}[2001b2dc].dll  - Undefined Reference
    QXmlStreamReader::skipCurrentElement()    - Undefined Reference
    _ZN16QXmlStreamReader18skipCurrentElementEv@QtCore{00040703}[2001b2dc].dll  - Undefined Reference
    QXmlStreamReader::readNextStartElement()  - Undefined Reference
    _ZN16QXmlStreamReader20readNextStartElementEv@QtCore{00040703}[2001b2dc].dll  - Undefined Reference
    QXmlStreamReader::readNext()              - Undefined Reference
    _ZN16QXmlStreamReader8readNextEv@QtCore{00040703}[2001b2dc].dll  - Undefined Reference
    QXmlStreamReader::QXmlStreamReader(QIODevice*)  - Undefined Reference
    _ZN16QXmlStreamReaderC1EP9QIODevice@QtCore{00040703}[2001b2dc].dll  - Undefined Reference
    QXmlStreamReader::~QXmlStreamReader()     - Undefined Reference
    _ZN16QXmlStreamReaderD1Ev@QtCore{00040703}[2001b2dc].dll  - Undefined Reference
    QXmlStreamAttribute::~QXmlStreamAttribute()  - Undefined Reference
    _ZN19QXmlStreamAttributeD1Ev@QtCore{00040703}[2001b2dc].dll  - Undefined Reference
    QNetworkAccessManager::get(const QNetworkRequest&)  - Undefined Reference
    _ZN21QNetworkAccessManager3getERK15QNetworkRequest@QtNetwork{00040703}[2001b2de].dll  - Undefined Reference
    QNetworkAccessManager::setProxy(const QNetworkProxy&)  - Undefined Reference
    _ZN21QNetworkAccessManager8setProxyERK13QNetworkProxy@QtNetwork{00040703}[2001b2de].dll  - Undefined Reference
    QNetworkAccessManager::QNetworkAccessManager(QObject*)  - Undefined Reference
    _ZN21QNetworkAccessManagerC1EP7QObject@QtNetwork{00040703}[2001b2de].dll  - Undefined Reference
    QUrl::QUrl(const QString&)                - Undefined Reference
    _ZN4QUrlC1ERK7QString@QtCore{00040703}[2001b2dc].dll  - Undefined Reference
    QUrl::~QUrl()                             - Undefined Reference
    _ZN4QUrlD1Ev@QtCore{00040703}[2001b2dc].dll  - Undefined Reference
    User::LockedDec(int&)                     - Undefined Reference
    _ZN4User9LockedDecERi@euser{000a0000}[100039e5].dll  - Undefined Reference
    User::LockedInc(int&)                     - Undefined Reference
    _ZN4User9LockedIncERi@euser{000a0000}[100039e5].dll  - Undefined Reference
    QChar::fromAscii(char)                    - Undefined Reference
    _ZN5QChar9fromAsciiEc@QtCore{00040703}[2001b2dc].dll  - Undefined Reference
    QChar::QChar(char)                        - Undefined Reference
    _ZN5QCharC1Ec@QtCore{00040703}[2001b2dc].dll  - Undefined Reference
    QColor::QColor(Qt::GlobalColor)           - Undefined Reference
    _ZN6QColorC1EN2Qt11GlobalColorE@QtGui{00040703}[2001b2dd].dll  - Undefined Reference
    QObject::childEvent(QChildEvent*)         - Undefined Reference
    _ZN7QObject10childEventEP11QChildEvent@QtCore{00040703}[2001b2dc].dll  - Undefined Reference
    QObject::timerEvent(QTimerEvent*)         - Undefined Reference
    _ZN7QObject10timerEventEP11QTimerEvent@QtCore{00040703}[2001b2dc].dll  - Undefined Reference
    QObject::customEvent(QEvent*)             - Undefined Reference
    _ZN7QObject11customEventEP6QEvent@QtCore{00040703}[2001b2dc].dll  - Undefined Reference
    QObject::deleteLater()                    - Undefined Reference
    _ZN7QObject11deleteLaterEv@QtCore{00040703}[2001b2dc].dll  - Undefined Reference
    QObject::eventFilter(QObject*, QEvent*)   - Undefined Reference
    _ZN7QObject11eventFilterEPS_P6QEvent@QtCore{00040703}[2001b2dc].dll  - Undefined Reference
    QObject::qt_metacall(QMetaObject::Call, int, void**)  - Undefined Reference
    _ZN7QObject11qt_metacallEN11QMetaObject4CallEiPPv@QtCore{00040703}[2001b2dc].dll  - Undefined Reference
    QObject::qt_metacast(const char*)         - Undefined Reference
    _ZN7QObject11qt_metacastEPKc@QtCore{00040703}[2001b2dc].dll  - Undefined Reference
    QObject::connectNotify(const char*)       - Undefined Reference
    _ZN7QObject13connectNotifyEPKc@QtCore{00040703}[2001b2dc].dll  - Undefined Reference
    QObject::disconnectNotify(const char*)    - Undefined Reference
    _ZN7QObject16disconnectNotifyEPKc@QtCore{00040703}[2001b2dc].dll  - Undefined Reference
    QObject::staticMetaObject                 - Undefined Reference
    _ZN7QObject16staticMetaObjectE@QtCore{00040703}[2001b2dc].dll  - Undefined Reference
    QObject::event(QEvent*)                   - Undefined Reference
    _ZN7QObject5eventEP6QEvent@QtCore{00040703}[2001b2dc].dll  - Undefined Reference
    QObject::connect(const QObject*, const char*, const QObject*, const char*, Qt::ConnectionType)  - Undefined Reference
    _ZN7QObject7connectEPKS_PKcS1_S3_N2Qt14ConnectionTypeE@QtCore{00040703}[2001b2dc].dll  - Undefined Reference
    QObject::setParent(QObject*)              - Undefined Reference
    _ZN7QObject9setParentEPS_@QtCore{00040703}[2001b2dc].dll  - Undefined Reference
    QObject::QObject(QObject*)                - Undefined Reference
    _ZN7QObjectC1EPS_@QtCore{00040703}[2001b2dc].dll  - Undefined Reference
    QObject::~QObject()                       - Undefined Reference
    _ZN7QObjectD1Ev@QtCore{00040703}[2001b2dc].dll  - Undefined Reference
    QPixmap::fill(const QColor&)              - Undefined Reference
    _ZN7QPixmap4fillERK6QColor@QtGui{00040703}[2001b2dd].dll  - Undefined Reference
    QPixmap::QPixmap(const QSize&)            - Undefined Reference
    _ZN7QPixmapC1ERK5QSize@QtGui{00040703}[2001b2dd].dll  - Undefined Reference
    QPixmap::QPixmap(const QString&, const char*, QFlags<Qt::ImageConversionFlag>)  - Undefined Reference
    _ZN7QPixmapC1ERK7QStringPKc6QFlagsIN2Qt19ImageConversionFlagEE@QtGui{00040703}[2001b2dd].dll  - Undefined Reference
    QPixmap::QPixmap()                        - Undefined Reference
    _ZN7QPixmapC1Ev@QtGui{00040703}[2001b2dd].dll  - Undefined Reference
    QPixmap::~QPixmap()                       - Undefined Reference
    _ZN7QPixmapD1Ev@QtGui{00040703}[2001b2dd].dll  - Undefined Reference
    QPixmap::operator =(const QPixmap&)       - Undefined Reference
    _ZN7QPixmapaSERKS_@QtGui{00040703}[2001b2dd].dll  - Undefined Reference
    QRegExp::QRegExp(const QString&, Qt::CaseSensitivity, QRegExp::PatternSyntax)  - Undefined Reference
    _ZN7QRegExpC1ERK7QStringN2Qt15CaseSensitivityENS_13PatternSyntaxE@QtCore{00040703}[2001b2dc].dll  - Undefined Reference
    QRegExp::~QRegExp()                       - Undefined Reference
    _ZN7QRegExpD1Ev@QtCore{00040703}[2001b2dc].dll  - Undefined Reference
    QString::shared_null                      - Undefined Reference
    _ZN7QString11shared_nullE@QtCore{00040703}[2001b2dc].dll  - Undefined Reference
    QString::codecForCStrings                 - Undefined Reference
    _ZN7QString16codecForCStringsE@QtCore{00040703}[2001b2dc].dll  - Undefined Reference
    QString::fromAscii_helper(const char*, int)  - Undefined Reference
    _ZN7QString16fromAscii_helperEPKci@QtCore{00040703}[2001b2dc].dll  - Undefined Reference
    QString::fromLatin1_helper(const char*, int)  - Undefined Reference
    _ZN7QString17fromLatin1_helperEPKci@QtCore{00040703}[2001b2dc].dll  - Undefined Reference
    QString::free(QString::Data*)             - Undefined Reference
    _ZN7QString4freeEPNS_4DataE@QtCore{00040703}[2001b2dc].dll  - Undefined Reference
    QString::grow(int)                        - Undefined Reference
    _ZN7QString4growEi@QtCore{00040703}[2001b2dc].dll  - Undefined Reference
    QString::append(QChar)                    - Undefined Reference
    _ZN7QString6appendE5QChar@QtCore{00040703}[2001b2dc].dll  - Undefined Reference
    QString::append(const QString&)           - Undefined Reference
    _ZN7QString6appendERKS_@QtCore{00040703}[2001b2dc].dll  - Undefined Reference
    QString::expand(int)                      - Undefined Reference
    _ZN7QString6expandEi@QtCore{00040703}[2001b2dc].dll  - Undefined Reference
    QString::number(double, char, int)        - Undefined Reference
    _ZN7QString6numberEdci@QtCore{00040703}[2001b2dc].dll  - Undefined Reference
    QString::number(int, int)                 - Undefined Reference
    _ZN7QString6numberEii@QtCore{00040703}[2001b2dc].dll  - Undefined Reference
    QString::realloc(int)                     - Undefined Reference
    _ZN7QString7reallocEi@QtCore{00040703}[2001b2dc].dll  - Undefined Reference
    QString::realloc()                        - Undefined Reference
    _ZN7QString7reallocEv@QtCore{00040703}[2001b2dc].dll  - Undefined Reference
    QString::fromAscii(const char*, int)      - Undefined Reference
    _ZN7QString9fromAsciiEPKci@QtCore{00040703}[2001b2dc].dll  - Undefined Reference
    QString::QString(int, Qt::Initialization)  - Undefined Reference
    _ZN7QStringC1EiN2Qt14InitializationE@QtCore{00040703}[2001b2dc].dll  - Undefined Reference
    QString::operator =(const QString&)       - Undefined Reference
    _ZN7QStringaSERKS_@QtCore{00040703}[2001b2dc].dll  - Undefined Reference
    QPainter::drawPixmap(const QRectF&, const QPixmap&, const QRectF&)  - Undefined Reference
    _ZN8QPainter10drawPixmapERK6QRectFRK7QPixmapS2_@QtGui{00040703}[2001b2dd].dll  - Undefined Reference
    QPainter::drawPixmap(const QPointF&, const QPixmap&)  - Undefined Reference
    _ZN8QPainter10drawPixmapERK7QPointFRK7QPixmap@QtGui{00040703}[2001b2dd].dll  - Undefined Reference
    QPainter::boundingRect(const QRect&, int, const QString&)  - Undefined Reference
    _ZN8QPainter12boundingRectERK5QRectiRK7QString@QtGui{00040703}[2001b2dd].dll  - Undefined Reference
    QPainter::setPen(const QColor&)           - Undefined Reference
    _ZN8QPainter6setPenERK6QColor@QtGui{00040703}[2001b2dd].dll  - Undefined Reference
    QPainter::drawText(const QRect&, int, const QString&, QRect*)  - Undefined Reference
    _ZN8QPainter8drawTextERK5QRectiRK7QStringPS0_@QtGui{00040703}[2001b2dd].dll  - Undefined Reference
    QPainter::QPainter(QPaintDevice*)         - Undefined Reference
    _ZN8QPainterC1EP12QPaintDevice@QtGui{00040703}[2001b2dd].dll  - Undefined Reference
    QPainter::~QPainter()                     - Undefined Reference
    _ZN8QPainterD1Ev@QtGui{00040703}[2001b2dd].dll  - Undefined Reference
    QVariant::QVariant(const QHash<QString, QVariant>&)  - Undefined Reference
    _ZN8QVariantC1ERK5QHashI7QStringS_E@QtCore{00040703}[2001b2dc].dll  - Undefined Reference
    QVariant::QVariant(const QList<QVariant>&)  - Undefined Reference
    _ZN8QVariantC1ERK5QListIS_E@QtCore{00040703}[2001b2dc].dll  - Undefined Reference
    QVariant::QVariant(const QString&)        - Undefined Reference
    _ZN8QVariantC1ERK7QString@QtCore{00040703}[2001b2dc].dll  - Undefined Reference
    QVariant::QVariant(const QVariant&)       - Undefined Reference
    _ZN8QVariantC1ERKS_@QtCore{00040703}[2001b2dc].dll  - Undefined Reference
    QVariant::QVariant(bool)                  - Undefined Reference
    _ZN8QVariantC1Eb@QtCore{00040703}[2001b2dc].dll  - Undefined Reference
    QVariant::QVariant(double)                - Undefined Reference
    _ZN8QVariantC1Ed@QtCore{00040703}[2001b2dc].dll  - Undefined Reference
    QVariant::~QVariant()                     - Undefined Reference
    _ZN8QVariantD1Ev@QtCore{00040703}[2001b2dc].dll  - Undefined Reference
    QVariant::operator =(const QVariant&)     - Undefined Reference
    _ZN8QVariantaSERKS_@QtCore{00040703}[2001b2dc].dll  - Undefined Reference
    QDateTime::currentDateTime()              - Undefined Reference
    _ZN9QDateTime15currentDateTimeEv@QtCore{00040703}[2001b2dc].dll  - Undefined Reference
    QDateTime::~QDateTime()                   - Undefined Reference
    _ZN9QDateTimeD1Ev@QtCore{00040703}[2001b2dc].dll  - Undefined Reference
    QHashData::free_helper(void(*)(QHashData::Node*))  - Undefined Reference
    _ZN9QHashData11free_helperEPFvPNS_4NodeEE@QtCore{00040703}[2001b2dc].dll  - Undefined Reference
    QHashData::shared_null                    - Undefined Reference
    _ZN9QHashData11shared_nullE@QtCore{00040703}[2001b2dc].dll  - Undefined Reference
    QHashData::allocateNode(int)              - Undefined Reference
    _ZN9QHashData12allocateNodeEi@QtCore{00040703}[2001b2dc].dll  - Undefined Reference
    QHashData::detach_helper2(void(*)(QHashData::Node*, void*), void(*)(QHashData::Node*), int, int)  - Undefined Reference
    _ZN9QHashData14detach_helper2EPFvPNS_4NodeEPvEPFvS1_Eii@QtCore{00040703}[2001b2dc].dll  - Undefined Reference
    QHashData::rehash(int)                    - Undefined Reference
    _ZN9QHashData6rehashEi@QtCore{00040703}[2001b2dc].dll  - Undefined Reference
    QHashData::nextNode(QHashData::Node*)     - Undefined Reference
    _ZN9QHashData8nextNodeEPNS_4NodeE@QtCore{00040703}[2001b2dc].dll  - Undefined Reference
    QIODevice::readAll()                      - Undefined Reference
    _ZN9QIODevice7readAllEv@QtCore{00040703}[2001b2dc].dll  - Undefined Reference
    QListData::detach_grow(int*, int)         - Undefined Reference
    _ZN9QListData11detach_growEPii@QtCore{00040703}[2001b2dc].dll  - Undefined Reference
    QListData::shared_null                    - Undefined Reference
    _ZN9QListData11shared_nullE@QtCore{00040703}[2001b2dc].dll  - Undefined Reference
    QListData::erase(void**)                  - Undefined Reference
    _ZN9QListData5eraseEPPv@QtCore{00040703}[2001b2dc].dll  - Undefined Reference
    QListData::append()                       - Undefined Reference
    _ZN9QListData6appendEv@QtCore{00040703}[2001b2dc].dll  - Undefined Reference
    QListData::detach(int)                    - Undefined Reference
    _ZN9QListData6detachEi@QtCore{00040703}[2001b2dc].dll  - Undefined Reference
    QListData::remove(int)                    - Undefined Reference
    _ZN9QListData6removeEi@QtCore{00040703}[2001b2dc].dll  - Undefined Reference
    QListData::append2(const QListData&)      - Undefined Reference
    _ZN9QListData7append2ERKS_@QtCore{00040703}[2001b2dc].dll  - Undefined Reference
    QListData::realloc(int)                   - Undefined Reference
    _ZN9QListData7reallocEi@QtCore{00040703}[2001b2dc].dll  - Undefined Reference
    QtPrivate::QStringList_join(const QStringList*, const QString&)  - Undefined Reference
    _ZN9QtPrivate16QStringList_joinEPK11QStringListRK7QString@QtCore{00040703}[2001b2dc].dll  - Undefined Reference
    QtPrivate::QStringList_removeDuplicates(QStringList*)  - Undefined Reference
    _ZN9QtPrivate28QStringList_removeDuplicatesEP11QStringList@QtCore{00040703}[2001b2dc].dll  - Undefined Reference
    QStringRef::toString() const              - Undefined Reference
    _ZNK10QStringRef8toStringEv@QtCore{00040703}[2001b2dc].dll  - Undefined Reference
    QtMobility::QGeoAddress::countryCode() const  - Undefined Reference
    _ZNK10QtMobility11QGeoAddress11countryCodeEv@QtLocation{00010103}[2002ac83].dll  - Undefined Reference
    QtMobility::QGeoAddress::city() const     - Undefined Reference
    _ZNK10QtMobility11QGeoAddress4cityEv@QtLocation{00010103}[2002ac83].dll  - Undefined Reference
    QtMobility::QGeoAddress::state() const    - Undefined Reference
    _ZNK10QtMobility11QGeoAddress5stateEv@QtLocation{00010103}[2002ac83].dll  - Undefined Reference
    QtMobility::QGeoAddress::street() const   - Undefined Reference
    _ZNK10QtMobility11QGeoAddress6streetEv@QtLocation{00010103}[2002ac83].dll  - Undefined Reference
    QtMobility::QGeoAddress::country() const  - Undefined Reference
    _ZNK10QtMobility11QGeoAddress7countryEv@QtLocation{00010103}[2002ac83].dll  - Undefined Reference
    QtMobility::QGeoAddress::postcode() const  - Undefined Reference
    _ZNK10QtMobility11QGeoAddress8postcodeEv@QtLocation{00010103}[2002ac83].dll  - Undefined Reference
    QtMobility::QGeoMapData::windowSize() const  - Undefined Reference
    _ZNK10QtMobility11QGeoMapData10windowSizeEv@QtLocation{00010103}[2002ac83].dll  - Undefined Reference
    QtMobility::QGeoMapData::connectivityMode() const  - Undefined Reference
    _ZNK10QtMobility11QGeoMapData16connectivityModeEv@QtLocation{00010103}[2002ac83].dll  - Undefined Reference
    QtMobility::QGeoMapData::mapObjectsInViewport() const  - Undefined Reference
    _ZNK10QtMobility11QGeoMapData20mapObjectsInViewportEv@QtLocation{00010103}[2002ac83].dll  - Undefined Reference
    QtMobility::QGeoMapData::mapType() const  - Undefined Reference
    _ZNK10QtMobility11QGeoMapData7mapTypeEv@QtLocation{00010103}[2002ac83].dll  - Undefined Reference
    QtMobility::QGeoMapData::zoomLevel() const  - Undefined Reference
    _ZNK10QtMobility11QGeoMapData9zoomLevelEv@QtLocation{00010103}[2002ac83].dll  - Undefined Reference
    QtMobility::QGeoManeuver::isValid() const  - Undefined Reference
    _ZNK10QtMobility12QGeoManeuver7isValidEv@QtLocation{00010103}[2002ac83].dll  - Undefined Reference
    QtMobility::QGeoManeuver::position() const  - Undefined Reference
    _ZNK10QtMobility12QGeoManeuver8positionEv@QtLocation{00010103}[2002ac83].dll  - Undefined Reference
    QtMobility::QGeoCoordinate::isValid() const  - Undefined Reference
    _ZNK10QtMobility14QGeoCoordinate7isValidEv@QtLocation{00010103}[2002ac83].dll  - Undefined Reference
    QtMobility::QGeoCoordinate::latitude() const  - Undefined Reference
    _ZNK10QtMobility14QGeoCoordinate8latitudeEv@QtLocation{00010103}[2002ac83].dll  - Undefined Reference
    QtMobility::QGeoCoordinate::longitude() const  - Undefined Reference
    _ZNK10QtMobility14QGeoCoordinate9longitudeEv@QtLocation{00010103}[2002ac83].dll  - Undefined Reference
    QtMobility::QGeoRouteReply::errorString() const  - Undefined Reference
    _ZNK10QtMobility14QGeoRouteReply11errorStringEv@QtLocation{00010103}[2002ac83].dll  - Undefined Reference
    QtMobility::QGeoRouteReply::error() const  - Undefined Reference
    _ZNK10QtMobility14QGeoRouteReply5errorEv@QtLocation{00010103}[2002ac83].dll  - Undefined Reference
    QtMobility::QGeoRouteReply::request() const  - Undefined Reference
    _ZNK10QtMobility14QGeoRouteReply7requestEv@QtLocation{00010103}[2002ac83].dll  - Undefined Reference
    QtMobility::QGeoBoundingBox::intersects(const QtMobility::QGeoBoundingBox&) const  - Undefined Reference
    _ZNK10QtMobility15QGeoBoundingBox10intersectsERKS0_@QtLocation{00010103}[2002ac83].dll  - Undefined Reference
    QtMobility::QGeoBoundingBox::bottomRight() const  - Undefined Reference
    _ZNK10QtMobility15QGeoBoundingBox11bottomRightEv@QtLocation{00010103}[2002ac83].dll  - Undefined Reference
    QtMobility::QGeoBoundingBox::topLeft() const  - Undefined Reference
    _ZNK10QtMobility15QGeoBoundingBox7topLeftEv@QtLocation{00010103}[2002ac83].dll  - Undefined Reference
    QtMobility::QGeoBoundingBox::contains(const QtMobility::QGeoBoundingBox&) const  - Undefined Reference
    _ZNK10QtMobility15QGeoBoundingBox8containsERKS0_@QtLocation{00010103}[2002ac83].dll  - Undefined Reference
    QtMobility::QGeoSearchReply::errorString() const  - Undefined Reference
    _ZNK10QtMobility15QGeoSearchReply11errorStringEv@QtLocation{00010103}[2002ac83].dll  - Undefined Reference
    QtMobility::QGeoSearchReply::error() const  - Undefined Reference
    _ZNK10QtMobility15QGeoSearchReply5errorEv@QtLocation{00010103}[2002ac83].dll  - Undefined Reference
    QtMobility::QGeoSearchReply::viewport() const  - Undefined Reference
    _ZNK10QtMobility15QGeoSearchReply8viewportEv@QtLocation{00010103}[2002ac83].dll  - Undefined Reference
    QtMobility::QGeoRouteRequest::travelModes() const  - Undefined Reference
    _ZNK10QtMobility16QGeoRouteRequest11travelModesEv@QtLocation{00010103}[2002ac83].dll  - Undefined Reference
    QtMobility::QGeoRouteRequest::excludeAreas() const  - Undefined Reference
    _ZNK10QtMobility16QGeoRouteRequest12excludeAreasEv@QtLocation{00010103}[2002ac83].dll  - Undefined Reference
    QtMobility::QGeoRouteRequest::featureTypes() const  - Undefined Reference
    _ZNK10QtMobility16QGeoRouteRequest12featureTypesEv@QtLocation{00010103}[2002ac83].dll  - Undefined Reference
    QtMobility::QGeoRouteRequest::featureWeight(QtMobility::QGeoRouteRequest::FeatureType) const  - Undefined Reference
    _ZNK10QtMobility16QGeoRouteRequest13featureWeightENS0_11FeatureTypeE@QtLocation{00010103}[2002ac83].dll  - Undefined Reference
    QtMobility::QGeoRouteRequest::segmentDetail() const  - Undefined Reference
    _ZNK10QtMobility16QGeoRouteRequest13segmentDetailEv@QtLocation{00010103}[2002ac83].dll  - Undefined Reference
    QtMobility::QGeoRouteRequest::maneuverDetail() const  - Undefined Reference
    _ZNK10QtMobility16QGeoRouteRequest14maneuverDetailEv@QtLocation{00010103}[2002ac83].dll  - Undefined Reference
    QtMobility::QGeoRouteRequest::routeOptimization() const  - Undefined Reference
    _ZNK10QtMobility16QGeoRouteRequest17routeOptimizationEv@QtLocation{00010103}[2002ac83].dll  - Undefined Reference
    QtMobility::QGeoRouteRequest::numberAlternativeRoutes() const  - Undefined Reference
    _ZNK10QtMobility16QGeoRouteRequest23numberAlternativeRoutesEv@QtLocation{00010103}[2002ac83].dll  - Undefined Reference
    QtMobility::QGeoRouteRequest::waypoints() const  - Undefined Reference
    _ZNK10QtMobility16QGeoRouteRequest9waypointsEv@QtLocation{00010103}[2002ac83].dll  - Undefined Reference
    QtMobility::QGeoRouteSegment::travelTime() const  - Undefined Reference
    _ZNK10QtMobility16QGeoRouteSegment10travelTimeEv@QtLocation{00010103}[2002ac83].dll  - Undefined Reference
    QtMobility::QGeoRouteSegment::path() const  - Undefined Reference
    _ZNK10QtMobility16QGeoRouteSegment4pathEv@QtLocation{00010103}[2002ac83].dll  - Undefined Reference
    QtMobility::QGeoRouteSegment::distance() const  - Undefined Reference
    _ZNK10QtMobility16QGeoRouteSegment8distanceEv@QtLocation{00010103}[2002ac83].dll  - Undefined Reference
    QtMobility::QGeoRouteSegment::maneuver() const  - Undefined Reference
    _ZNK10QtMobility16QGeoRouteSegment8maneuverEv@QtLocation{00010103}[2002ac83].dll  - Undefined Reference
    QtMobility::QGeoTiledMapData::mapObjectsInScreenRect(const QRectF&) const  - Undefined Reference
    _ZNK10QtMobility16QGeoTiledMapData22mapObjectsInScreenRectERK6QRectF@QtLocation{00010103}[2002ac83].dll  - Undefined Reference
    QtMobility::QGeoTiledMapData::coordinateToScreenPosition(const QtMobility::QGeoCoordinate&) const  - Undefined Reference
    _ZNK10QtMobility16QGeoTiledMapData26coordinateToScreenPositionERKNS_14QGeoCoordinateE@QtLocation{00010103}[2002ac83].dll  - Undefined Reference
    QtMobility::QGeoTiledMapData::mapObjectsAtScreenPosition(const QPointF&) const  - Undefined Reference
    _ZNK10QtMobility16QGeoTiledMapData26mapObjectsAtScreenPositionERK7QPointF@QtLocation{00010103}[2002ac83].dll  - Undefined Reference
    QtMobility::QGeoTiledMapData::screenPositionToCoordinate(const QPointF&) const  - Undefined Reference
    _ZNK10QtMobility16QGeoTiledMapData26screenPositionToCoordinateERK7QPointF@QtLocation{00010103}[2002ac83].dll  - Undefined Reference
    QtMobility::QGeoTiledMapData::coordinateToWorldReferencePosition(const QtMobility::QGeoCoordinate&) const  - Undefined Reference
    _ZNK10QtMobility16QGeoTiledMapData34coordinateToWorldReferencePositionERKNS_14QGeoCoordinateE@QtLocation{00010103}[2002ac83].dll  - Undefined Reference
    QtMobility::QGeoTiledMapData::worldReferencePositionToCoordinate(const QPoint&) const  - Undefined Reference
    _ZNK10QtMobility16QGeoTiledMapData34worldReferencePositionToCoordinateERK6QPoint@QtLocation{00010103}[2002ac83].dll  - Undefined Reference
    QtMobility::QGeoTiledMapData::center() const  - Undefined Reference
    _ZNK10QtMobility16QGeoTiledMapData6centerEv@QtLocation{00010103}[2002ac83].dll  - Undefined Reference
    QtMobility::QGeoTiledMapData::viewport() const  - Undefined Reference
    _ZNK10QtMobility16QGeoTiledMapData8viewportEv@QtLocation{00010103}[2002ac83].dll  - Undefined Reference
    QtMobility::QGeoTiledMapRequest::row() const  - Undefined Reference
    _ZNK10QtMobility19QGeoTiledMapRequest3rowEv@QtLocation{00010103}[2002ac83].dll  - Undefined Reference
    QtMobility::QGeoTiledMapRequest::column() const  - Undefined Reference
    _ZNK10QtMobility19QGeoTiledMapRequest6columnEv@QtLocation{00010103}[2002ac83].dll  - Undefined Reference
    QtMobility::QGeoTiledMapRequest::mapType() const  - Undefined Reference
    _ZNK10QtMobility19QGeoTiledMapRequest7mapTypeEv@QtLocation{00010103}[2002ac83].dll  - Undefined Reference
    QtMobility::QGeoTiledMapRequest::zoomLevel() const  - Undefined Reference
    _ZNK10QtMobility19QGeoTiledMapRequest9zoomLevelEv@QtLocation{00010103}[2002ac83].dll  - Undefined Reference
    QtMobility::QGeoSearchManagerEngine::supportsGeocoding() const  - Undefined Reference
    _ZNK10QtMobility23QGeoSearchManagerEngine17supportsGeocodingEv@QtLocation{00010103}[2002ac83].dll  - Undefined Reference
    QtMobility::QGeoSearchManagerEngine::supportedSearchTypes() const  - Undefined Reference
    _ZNK10QtMobility23QGeoSearchManagerEngine20supportedSearchTypesEv@QtLocation{00010103}[2002ac83].dll  - Undefined Reference
    QtMobility::QGeoSearchManagerEngine::supportsReverseGeocoding() const  - Undefined Reference
    _ZNK10QtMobility23QGeoSearchManagerEngine24supportsReverseGeocodingEv@QtLocation{00010103}[2002ac83].dll  - Undefined Reference
    QtMobility::QGeoSearchManagerEngine::locale() const  - Undefined Reference
    _ZNK10QtMobility23QGeoSearchManagerEngine6localeEv@QtLocation{00010103}[2002ac83].dll  - Undefined Reference
    QtMobility::QGeoRoutingManagerEngine::supportedTravelModes() const  - Undefined Reference
    _ZNK10QtMobility24QGeoRoutingManagerEngine20supportedTravelModesEv@QtLocation{00010103}[2002ac83].dll  - Undefined Reference
    QtMobility::QGeoRoutingManagerEngine::supportedFeatureTypes() const  - Undefined Reference
    _ZNK10QtMobility24QGeoRoutingManagerEngine21supportedFeatureTypesEv@QtLocation{00010103}[2002ac83].dll  - Undefined Reference
    QtMobility::QGeoRoutingManagerEngine::supportedFeatureWeights() const  - Undefined Reference
    _ZNK10QtMobility24QGeoRoutingManagerEngine23supportedFeatureWeightsEv@QtLocation{00010103}[2002ac83].dll  - Undefined Reference
    QtMobility::QGeoRoutingManagerEngine::supportedSegmentDetails() const  - Undefined Reference
    _ZNK10QtMobility24QGeoRoutingManagerEngine23supportedSegmentDetailsEv@QtLocation{00010103}[2002ac83].dll  - Undefined Reference
    QtMobility::QGeoRoutingManagerEngine::supportedManeuverDetails() const  - Undefined Reference
    _ZNK10QtMobility24QGeoRoutingManagerEngine24supportedManeuverDetailsEv@QtLocation{00010103}[2002ac83].dll  - Undefined Reference
    QtMobility::QGeoRoutingManagerEngine::supportsAlternativeRoutes() const  - Undefined Reference
    _ZNK10QtMobility24QGeoRoutingManagerEngine25supportsAlternativeRoutesEv@QtLocation{00010103}[2002ac83].dll  - Undefined Reference
    QtMobility::QGeoRoutingManagerEngine::supportedRouteOptimizations() const  - Undefined Reference
    _ZNK10QtMobility24QGeoRoutingManagerEngine27supportedRouteOptimizationsEv@QtLocation{00010103}[2002ac83].dll  - Undefined Reference
    QtMobility::QGeoRoutingManagerEngine::locale() const  - Undefined Reference
    _ZNK10QtMobility24QGeoRoutingManagerEngine6localeEv@QtLocation{00010103}[2002ac83].dll  - Undefined Reference
    QtMobility::QGeoTiledMappingManagerEngine::tileSize() const  - Undefined Reference
    _ZNK10QtMobility29QGeoTiledMappingManagerEngine8tileSizeEv@QtLocation{00010103}[2002ac83].dll  - Undefined Reference
    QtMobility::QGeoPlace::coordinate() const  - Undefined Reference
    _ZNK10QtMobility9QGeoPlace10coordinateEv@QtLocation{00010103}[2002ac83].dll  - Undefined Reference
    QtMobility::QGeoRoute::travelMode() const  - Undefined Reference
    _ZNK10QtMobility9QGeoRoute10travelModeEv@QtLocation{00010103}[2002ac83].dll  - Undefined Reference
    QtMobility::QGeoRoute::request() const    - Undefined Reference
    _ZNK10QtMobility9QGeoRoute7requestEv@QtLocation{00010103}[2002ac83].dll  - Undefined Reference
    QtMobility::QGeoRoute::routeId() const    - Undefined Reference
    _ZNK10QtMobility9QGeoRoute7routeIdEv@QtLocation{00010103}[2002ac83].dll  - Undefined Reference
    QMetaObject::cast(QObject*) const         - Undefined Reference
    _ZNK11QMetaObject4castEP7QObject@QtCore{00040703}[2001b2dc].dll  - Undefined Reference
    QNetworkReply::error() const              - Undefined Reference
    _ZNK13QNetworkReply5errorEv@QtNetwork{00040703}[2001b2de].dll  - Undefined Reference
    QNetworkReply::attribute(QNetworkRequest::Attribute) const  - Undefined Reference
    _ZNK13QNetworkReply9attributeEN15QNetworkRequest9AttributeE@QtNetwork{00040703}[2001b2de].dll  - Undefined Reference
    QXmlStreamReader::attributes() const      - Undefined Reference
    _ZNK16QXmlStreamReader10attributesEv@QtCore{00040703}[2001b2dc].dll  - Undefined Reference
    QXmlStreamReader::errorString() const     - Undefined Reference
    _ZNK16QXmlStreamReader11errorStringEv@QtCore{00040703}[2001b2dc].dll  - Undefined Reference
    QXmlStreamReader::name() const            - Undefined Reference
    _ZNK16QXmlStreamReader4nameEv@QtCore{00040703}[2001b2dc].dll  - Undefined Reference
    QXmlStreamReader::tokenType() const       - Undefined Reference
    _ZNK16QXmlStreamReader9tokenTypeEv@QtCore{00040703}[2001b2dc].dll  - Undefined Reference
    QXmlStreamAttributes::value(const QString&) const  - Undefined Reference
    _ZNK20QXmlStreamAttributes5valueERK7QString@QtCore{00040703}[2001b2dc].dll  - Undefined Reference
    QChar::isSpace() const                    - Undefined Reference
    _ZNK5QChar7isSpaceEv@QtCore{00040703}[2001b2dc].dll  - Undefined Reference
    QLocale::name() const                     - Undefined Reference
    _ZNK7QLocale4nameEv@QtCore{00040703}[2001b2dc].dll  - Undefined Reference
    QLocale::language() const                 - Undefined Reference
    _ZNK7QLocale8languageEv@QtCore{00040703}[2001b2dc].dll  - Undefined Reference
    QObject::sender() const                   - Undefined Reference
    _ZNK7QObject6senderEv@QtCore{00040703}[2001b2dc].dll  - Undefined Reference
    QObject::receivers(const char*) const     - Undefined Reference
    _ZNK7QObject9receiversEPKc@QtCore{00040703}[2001b2dc].dll  - Undefined Reference
    QPixmap::width() const                    - Undefined Reference
    _ZNK7QPixmap5widthEv@QtGui{00040703}[2001b2dd].dll  - Undefined Reference
    QPixmap::height() const                   - Undefined Reference
    _ZNK7QPixmap6heightEv@QtGui{00040703}[2001b2dd].dll  - Undefined Reference
    QRegExp::indexIn(const QString&, int, QRegExp::CaretMode) const  - Undefined Reference
    _ZNK7QRegExp7indexInERK7QStringiNS_9CaretModeE@QtCore{00040703}[2001b2dc].dll  - Undefined Reference
    QString::arg(const QString&, int, const QChar&) const  - Undefined Reference
    _ZNK7QString3argERKS_iRK5QChar@QtCore{00040703}[2001b2dc].dll  - Undefined Reference
    QString::arg(double, int, char, int, const QChar&) const  - Undefined Reference
    _ZNK7QString3argEdiciRK5QChar@QtCore{00040703}[2001b2dc].dll  - Undefined Reference
    QString::arg(long long, int, int, const QChar&) const  - Undefined Reference
    _ZNK7QString3argExiiRK5QChar@QtCore{00040703}[2001b2dc].dll  - Undefined Reference
    QString::mid(int, int) const              - Undefined Reference
    _ZNK7QString3midEii@QtCore{00040703}[2001b2dc].dll  - Undefined Reference
    QString::split(const QChar&, QString::SplitBehavior, Qt::CaseSensitivity) const  - Undefined Reference
    _ZNK7QString5splitERK5QCharNS_13SplitBehaviorEN2Qt15CaseSensitivityE@QtCore{00040703}[2001b2dc].dll  - Undefined Reference
    QString::toInt(bool*, int) const          - Undefined Reference
    _ZNK7QString5toIntEPbi@QtCore{00040703}[2001b2dc].dll  - Undefined Reference
    QString::indexOf(QChar, int, Qt::CaseSensitivity) const  - Undefined Reference
    _ZNK7QString7indexOfE5QChariN2Qt15CaseSensitivityE@QtCore{00040703}[2001b2dc].dll  - Undefined Reference
    QString::toDouble(bool*) const            - Undefined Reference
    _ZNK7QString8toDoubleEPb@QtCore{00040703}[2001b2dc].dll  - Undefined Reference
    QString::operator ==(const QLatin1String&) const  - Undefined Reference
    _ZNK7QStringeqERK13QLatin1String@QtCore{00040703}[2001b2dc].dll  - Undefined Reference
    QString::operator ==(const QString&) const  - Undefined Reference
    _ZNK7QStringeqERKS_@QtCore{00040703}[2001b2dc].dll  - Undefined Reference
    QString::operator <(const QString&) const  - Undefined Reference
    _ZNK7QStringltERKS_@QtCore{00040703}[2001b2dc].dll  - Undefined Reference
    QPainter::viewport() const                - Undefined Reference
    _ZNK8QPainter8viewportEv@QtGui{00040703}[2001b2dd].dll  - Undefined Reference
    QVariant::toBool() const                  - Undefined Reference
    _ZNK8QVariant6toBoolEv@QtCore{00040703}[2001b2dc].dll  - Undefined Reference
    QVariant::toHash() const                  - Undefined Reference
    _ZNK8QVariant6toHashEv@QtCore{00040703}[2001b2dc].dll  - Undefined Reference
    QVariant::toList() const                  - Undefined Reference
    _ZNK8QVariant6toListEv@QtCore{00040703}[2001b2dc].dll  - Undefined Reference
    QVariant::toReal(bool*) const             - Undefined Reference
    _ZNK8QVariant6toRealEPb@QtCore{00040703}[2001b2dc].dll  - Undefined Reference
    QVariant::toString() const                - Undefined Reference
    _ZNK8QVariant8toStringEv@QtCore{00040703}[2001b2dc].dll  - Undefined Reference
    QDateTime::toTimeSpec(Qt::TimeSpec) const  - Undefined Reference
    _ZNK9QDateTime10toTimeSpecEN2Qt8TimeSpecE@QtCore{00040703}[2001b2dc].dll  - Undefined Reference
    QDateTime::toString(const QString&) const  - Undefined Reference
    _ZNK9QDateTime8toStringERK7QString@QtCore{00040703}[2001b2dc].dll  - Undefined Reference
    QIODevice::errorString() const            - Undefined Reference
    _ZNK9QIODevice11errorStringEv@QtCore{00040703}[2001b2dc].dll  - Undefined Reference
    typeinfo for QObject                      - Undefined Reference
    _ZTI7QObject@QtCore{00040703}[2001b2dc].dll  - Undefined Reference
    typeinfo for QtMobility::QGeoRouteReply   - Undefined Reference
    _ZTIN10QtMobility14QGeoRouteReplyE@QtLocation{00010103}[2002ac83].dll  - Undefined Reference
    typeinfo for QtMobility::QGeoSearchReply  - Undefined Reference
    _ZTIN10QtMobility15QGeoSearchReplyE@QtLocation{00010103}[2002ac83].dll  - Undefined Reference
    typeinfo for QtMobility::QGeoTiledMapData  - Undefined Reference
    _ZTIN10QtMobility16QGeoTiledMapDataE@QtLocation{00010103}[2002ac83].dll  - Undefined Reference
    typeinfo for QtMobility::QGeoTiledMapReply  - Undefined Reference
    _ZTIN10QtMobility17QGeoTiledMapReplyE@QtLocation{00010103}[2002ac83].dll  - Undefined Reference
    typeinfo for QtMobility::QGeoSearchManagerEngine  - Undefined Reference
    _ZTIN10QtMobility23QGeoSearchManagerEngineE@QtLocation{00010103}[2002ac83].dll  - Undefined Reference
    typeinfo for QtMobility::QGeoRoutingManagerEngine  - Undefined Reference
    _ZTIN10QtMobility24QGeoRoutingManagerEngineE@QtLocation{00010103}[2002ac83].dll  - Undefined Reference
    typeinfo for QtMobility::QGeoServiceProviderFactory  - Undefined Reference
    _ZTIN10QtMobility26QGeoServiceProviderFactoryE@QtLocation{00010103}[2002ac83].dll  - Undefined Reference
    typeinfo for QtMobility::QGeoTiledMappingManagerEngine  - Undefined Reference
    _ZTIN10QtMobility29QGeoTiledMappingManagerEngineE@QtLocation{00010103}[2002ac83].dll  - Undefined Reference
    vtable for QtMobility::QGeoServiceProviderFactory  - Undefined Reference
    _ZTVN10QtMobility26QGeoServiceProviderFactoryE@QtLocation{00010103}[2002ac83].dll  - Undefined Reference
    vtable for __cxxabiv1::__si_class_type_info  - Undefined Reference
    _ZTVN10__cxxabiv120__si_class_type_infoE@drtaeabi{000a0000}.dll  - Undefined Reference
    vtable for __cxxabiv1::__vmi_class_type_info  - Undefined Reference
    _ZTVN10__cxxabiv121__vmi_class_type_infoE@drtaeabi{000a0000}.dll  - Undefined Reference
    operator delete (void*)                   - Undefined Reference
    _ZdlPv@stdnew{000a0000}[20022178].dll     - Undefined Reference
    operator ==(const QLatin1String&, const QStringRef&)  - Undefined Reference
    _ZeqRK13QLatin1StringRK10QStringRef@QtCore{00040703}[2001b2dc].dll  - Undefined Reference
    operator ==(const QString&, const QStringRef&)  - Undefined Reference
    _ZeqRK7QStringRK10QStringRef@QtCore{00040703}[2001b2dc].dll  - Undefined Reference
    operator new(unsigned)                    - Undefined Reference
    _Znwj@stdnew{000a0000}[20022178].dll      - Undefined Reference
    __aeabi_cdcmple                           - Undefined Reference
    __aeabi_cdcmple@dfpaeabi{000a0000}.dll    - Undefined Reference
    __aeabi_cfcmple                           - Undefined Reference
    __aeabi_cfcmple@dfpaeabi{000a0000}.dll    - Undefined Reference
    __aeabi_cfrcmple                          - Undefined Reference
    __aeabi_cfrcmple@dfpaeabi{000a0000}.dll   - Undefined Reference
    __aeabi_d2f                               - Undefined Reference
    __aeabi_d2f@dfpaeabi{000a0000}.dll        - Undefined Reference
    __aeabi_d2iz                              - Undefined Reference
    __aeabi_d2iz@dfpaeabi{000a0000}.dll       - Undefined Reference
    __aeabi_f2d                               - Undefined Reference
    __aeabi_f2d@dfpaeabi{000a0000}.dll        - Undefined Reference
    __aeabi_fadd                              - Undefined Reference
    __aeabi_fadd@dfpaeabi{000a0000}.dll       - Undefined Reference
    __aeabi_i2f                               - Undefined Reference
    __aeabi_i2f@dfpaeabi{000a0000}.dll        - Undefined Reference
    __aeabi_idivmod                           - Undefined Reference
    __aeabi_idivmod@drtaeabi{000a0000}.dll    - Undefined Reference
    __aeabi_uidivmod                          - Undefined Reference
    __aeabi_uidivmod@drtaeabi{000a0000}.dll   - Undefined Reference
    __aeabi_unwind_cpp_pr0                    - Undefined Reference
    __aeabi_unwind_cpp_pr0@drtaeabi{000a0000}.dll  - Undefined Reference
    __cxa_begin_catch                         - Undefined Reference
    __cxa_begin_catch@drtaeabi{000a0000}.dll  - Undefined Reference
    __cxa_end_catch                           - Undefined Reference
    __cxa_end_catch@drtaeabi{000a0000}.dll    - Undefined Reference
    __cxa_end_cleanup                         - Undefined Reference
    __cxa_end_cleanup@drtaeabi{000a0000}.dll  - Undefined Reference
    __cxa_guard_abort                         - Undefined Reference
    __cxa_guard_abort@drtaeabi{000a0000}.dll  - Undefined Reference
    __cxa_guard_acquire                       - Undefined Reference
    __cxa_guard_acquire@drtaeabi{000a0000}.dll  - Undefined Reference
    __cxa_guard_release                       - Undefined Reference
    __cxa_guard_release@drtaeabi{000a0000}.dll  - Undefined Reference
    __cxa_rethrow                             - Undefined Reference
    __cxa_rethrow@drtaeabi{000a0000}.dll      - Undefined Reference
    strcmp                                    - Undefined Reference
    strcmp@libc{00010001}[10207369].dll       - Undefined Reference
    Image$$ER_RO$$Base                       0x00008000   Number         0  anon$$obj.o(linker$$defined$$symbols)
    _E32Dll                                  0x00008000   ARM Code      40  uc_dll_.o(.emb_text)
    Symbian$$CPP$$Exception$$Descriptor      0x00008014   Data           0  uc_dll_.o(.emb_text)
    __cpp_initialize__aeabi_                 0x00008028   ARM Code      52  ucppinit.o(.emb_text)
    std::nothrow                             0x0000805c   ARM Code       0  ucppinit.o(.emb_text)
    __PLT                                    0x0000805c   ARM Code       0  anon$$obj.o(.plt)
    QGeoMappingManagerEngineNokia::getStaticMetaObject() 0x00008aa5   Thumb Code     4  moc_qgeomappingmanagerengine_nokia.o(.text)
    QGeoMappingManagerEngineNokia::metaObject() const 0x00008aa9   Thumb Code    28  moc_qgeomappingmanagerengine_nokia.o(.text)
    QGeoMappingManagerEngineNokia::qt_metacast(const char*) 0x00008ac5   Thumb Code    40  moc_qgeomappingmanagerengine_nokia.o(.text)
    QGeoMappingManagerEngineNokia::qt_metacall(QMetaObject::Call, int, void**) 0x00008aed   Thumb Code    36  moc_qgeomappingmanagerengine_nokia.o(.text)
    QGeoMapReplyNokia::getStaticMetaObject() 0x00008b19   Thumb Code     4  moc_qgeomapreply_nokia.o(.text)
    QGeoMapReplyNokia::metaObject() const    0x00008b1d   Thumb Code    28  moc_qgeomapreply_nokia.o(.text)
    QGeoMapReplyNokia::qt_metacast(const char*) 0x00008b39   Thumb Code    40  moc_qgeomapreply_nokia.o(.text)
    QGeoMapReplyNokia::qt_metacall(QMetaObject::Call, int, void**) 0x00008b61   Thumb Code    88  moc_qgeomapreply_nokia.o(.text)
    QGeoRouteReplyNokia::getStaticMetaObject() 0x00008bc1   Thumb Code     4  moc_qgeoroutereply_nokia.o(.text)
    QGeoRouteReplyNokia::metaObject() const  0x00008bc5   Thumb Code    28  moc_qgeoroutereply_nokia.o(.text)
    QGeoRouteReplyNokia::qt_metacast(const char*) 0x00008be1   Thumb Code    40  moc_qgeoroutereply_nokia.o(.text)
    QGeoRouteReplyNokia::qt_metacall(QMetaObject::Call, int, void**) 0x00008c09   Thumb Code    76  moc_qgeoroutereply_nokia.o(.text)
    QGeoRoutingManagerEngineNokia::getStaticMetaObject() 0x00008c5d   Thumb Code     4  moc_qgeoroutingmanagerengine_nokia.o(.text)
    QGeoRoutingManagerEngineNokia::metaObject() const 0x00008c61   Thumb Code    28  moc_qgeoroutingmanagerengine_nokia.o(.text)
    QGeoRoutingManagerEngineNokia::qt_metacast(const char*) 0x00008c7d   Thumb Code    40  moc_qgeoroutingmanagerengine_nokia.o(.text)
    QGeoRoutingManagerEngineNokia::qt_metacall(QMetaObject::Call, int, void**) 0x00008ca5   Thumb Code    78  moc_qgeoroutingmanagerengine_nokia.o(.text)
    QGeoSearchManagerEngineNokia::getStaticMetaObject() 0x00008cfd   Thumb Code     4  moc_qgeosearchmanagerengine_nokia.o(.text)
    QGeoSearchManagerEngineNokia::metaObject() const 0x00008d01   Thumb Code    28  moc_qgeosearchmanagerengine_nokia.o(.text)
    QGeoSearchManagerEngineNokia::qt_metacast(const char*) 0x00008d1d   Thumb Code    40  moc_qgeosearchmanagerengine_nokia.o(.text)
    QGeoSearchManagerEngineNokia::qt_metacall(QMetaObject::Call, int, void**) 0x00008d45   Thumb Code    78  moc_qgeosearchmanagerengine_nokia.o(.text)
    QGeoSearchReplyNokia::getStaticMetaObject() 0x00008d9d   Thumb Code     4  moc_qgeosearchreply_nokia.o(.text)
    QGeoSearchReplyNokia::metaObject() const 0x00008da1   Thumb Code    28  moc_qgeosearchreply_nokia.o(.text)
    QGeoSearchReplyNokia::qt_metacast(const char*) 0x00008dbd   Thumb Code    40  moc_qgeosearchreply_nokia.o(.text)
    QGeoSearchReplyNokia::qt_metacall(QMetaObject::Call, int, void**) 0x00008de5   Thumb Code    76  moc_qgeosearchreply_nokia.o(.text)
    QGeoServiceProviderFactoryNokia::getStaticMetaObject() 0x00008e39   Thumb Code     4  moc_qgeoserviceproviderplugin_nokia.o(.text)
    QGeoServiceProviderFactoryNokia::metaObject() const 0x00008e3d   Thumb Code    28  moc_qgeoserviceproviderplugin_nokia.o(.text)
    QGeoServiceProviderFactoryNokia::qt_metacast(const char*) 0x00008e59   Thumb Code    76  moc_qgeoserviceproviderplugin_nokia.o(.text)
    QGeoServiceProviderFactoryNokia::qt_metacall(QMetaObject::Call, int, void**) 0x00008ea5   Thumb Code    36  moc_qgeoserviceproviderplugin_nokia.o(.text)
    QGeoTiledMapDataNokia::getStaticMetaObject() 0x00008f29   Thumb Code     4  moc_qgeotiledmapdata_nokia.o(.text)
    QGeoTiledMapDataNokia::metaObject() const 0x00008f2d   Thumb Code    28  moc_qgeotiledmapdata_nokia.o(.text)
    QGeoTiledMapDataNokia::qt_metacast(const char*) 0x00008f49   Thumb Code    40  moc_qgeotiledmapdata_nokia.o(.text)
    QGeoTiledMapDataNokia::qt_metacall(QMetaObject::Call, int, void**) 0x00008f71   Thumb Code    62  moc_qgeotiledmapdata_nokia.o(.text)
    qInitResources_resource()                0x00008fb9   Thumb Code    20  qrc_resource.o(.text)
    qCleanupResources_resource()             0x00008fcd   Thumb Code    20  qrc_resource.o(.text)
    QGeoCodeXmlParser::QGeoCodeXmlParser()   0x00009011   Thumb Code    44  qgeocodexmlparser.o(.text)
    QGeoCodeXmlParser::QGeoCodeXmlParser__sub_object() 0x00009011   Thumb Code     0  qgeocodexmlparser.o(.text)
    QGeoCodeXmlParser::~QGeoCodeXmlParser()  0x0000903d   Thumb Code    52  qgeocodexmlparser.o(.text)
    QGeoCodeXmlParser::~QGeoCodeXmlParser__sub_object() 0x0000903d   Thumb Code     0  qgeocodexmlparser.o(.text)
    QGeoCodeXmlParser::parseAddress(QtMobility::QGeoAddress*) 0x00009071   Thumb Code  1300  qgeocodexmlparser.o(.text)
    QGeoCodeXmlParser::parseCoordinate(QtMobility::QGeoCoordinate*, const QString&) 0x00009585   Thumb Code  1178  qgeocodexmlparser.o(.text)
    QGeoCodeXmlParser::parseBoundingBox(QtMobility::QGeoBoundingBox*) 0x00009a1f   Thumb Code   578  qgeocodexmlparser.o(.text)
    QGeoCodeXmlParser::parseLocation(QtMobility::QGeoPlace*) 0x00009c61   Thumb Code   490  qgeocodexmlparser.o(.text)
    QGeoCodeXmlParser::parsePlace(QtMobility::QGeoPlace*) 0x00009e4b   Thumb Code   908  qgeocodexmlparser.o(.text)
    QGeoCodeXmlParser::parseRootElement()    0x0000a1d7   Thumb Code   796  qgeocodexmlparser.o(.text)
    QGeoCodeXmlParser::parse(QIODevice*)     0x0000a4f3   Thumb Code   106  qgeocodexmlparser.o(.text)
    QGeoCodeXmlParser::results() const       0x0000a55d   Thumb Code    38  qgeocodexmlparser.o(.text)
    QGeoCodeXmlParser::errorString() const   0x0000a583   Thumb Code   222  qgeocodexmlparser.o(.text)
    QGeoMappingManagerEngineNokia::QGeoMappingManagerEngineNokia(const QMap<QString, QVariant>&, QtMobility::QGeoServiceProvider::Error*, QString*) 0x0000a661   Thumb Code   792  qgeomappingmanagerengine_nokia.o(.text)
    QGeoMappingManagerEngineNokia::QGeoMappingManagerEngineNokia__sub_object(const QMap<QString, QVariant>&, QtMobility::QGeoServiceProvider::Error*, QString*) 0x0000a661   Thumb Code     0  qgeomappingmanagerengine_nokia.o(.text)
    QGeoMappingManagerEngineNokia::~QGeoMappingManagerEngineNokia() 0x0000a979   Thumb Code    54  qgeomappingmanagerengine_nokia.o(.text)
    QGeoMappingManagerEngineNokia::~QGeoMappingManagerEngineNokia__sub_object() 0x0000a979   Thumb Code     0  qgeomappingmanagerengine_nokia.o(.text)
    QGeoMappingManagerEngineNokia::~QGeoMappingManagerEngineNokia__deallocating() 0x0000a9af   Thumb Code    22  qgeomappingmanagerengine_nokia.o(.text)
    QGeoMappingManagerEngineNokia::createMapData() 0x0000a9c5   Thumb Code    60  qgeomappingmanagerengine_nokia.o(.text)
    QGeoMappingManagerEngineNokia::sizeToStr(const QSize&) 0x0000aa01   Thumb Code   284  qgeomappingmanagerengine_nokia.o(.text)
    QGeoMappingManagerEngineNokia::mapTypeToStr(QtMobility::QGraphicsGeoMap::MapType) 0x0000ab1d   Thumb Code    70  qgeomappingmanagerengine_nokia.o(.text)
    QGeoMappingManagerEngineNokia::getRequestString(const QtMobility::QGeoTiledMapRequest&) const 0x0000ab63   Thumb Code   662  qgeomappingmanagerengine_nokia.o(.text)
    QGeoMappingManagerEngineNokia::getTileImage(const QtMobility::QGeoTiledMapRequest&) 0x0000adf9   Thumb Code   136  qgeomappingmanagerengine_nokia.o(.text)
    QGeoMapReplyNokia::QGeoMapReplyNokia(QNetworkReply*, const QtMobility::QGeoTiledMapRequest&, QObject*) 0x0000af01   Thumb Code   124  qgeomapreply_nokia.o(.text)
    QGeoMapReplyNokia::QGeoMapReplyNokia__sub_object(QNetworkReply*, const QtMobility::QGeoTiledMapRequest&, QObject*) 0x0000af01   Thumb Code     0  qgeomapreply_nokia.o(.text)
    QGeoMapReplyNokia::~QGeoMapReplyNokia()  0x0000af7d   Thumb Code    14  qgeomapreply_nokia.o(.text)
    QGeoMapReplyNokia::~QGeoMapReplyNokia__sub_object() 0x0000af7d   Thumb Code     0  qgeomapreply_nokia.o(.text)
    QGeoMapReplyNokia::~QGeoMapReplyNokia__deallocating() 0x0000af8b   Thumb Code    22  qgeomapreply_nokia.o(.text)
    QGeoMapReplyNokia::abort()               0x0000afa1   Thumb Code    24  qgeomapreply_nokia.o(.text)
    QGeoMapReplyNokia::networkReply() const  0x0000afb9   Thumb Code     6  qgeomapreply_nokia.o(.text)
    QGeoMapReplyNokia::replyDestroyed()      0x0000afbf   Thumb Code     6  qgeomapreply_nokia.o(.text)
    QGeoMapReplyNokia::networkFinished()     0x0000afc5   Thumb Code   110  qgeomapreply_nokia.o(.text)
    QGeoMapReplyNokia::networkError(QNetworkReply::NetworkError) 0x0000b033   Thumb Code    56  qgeomapreply_nokia.o(.text)
    QGeoRouteReplyNokia::QGeoRouteReplyNokia(const QtMobility::QGeoRouteRequest&, QNetworkReply*, QObject*) 0x0000b109   Thumb Code    64  qgeoroutereply_nokia.o(.text)
    QGeoRouteReplyNokia::QGeoRouteReplyNokia__sub_object(const QtMobility::QGeoRouteRequest&, QNetworkReply*, QObject*) 0x0000b109   Thumb Code     0  qgeoroutereply_nokia.o(.text)
    QGeoRouteReplyNokia::~QGeoRouteReplyNokia() 0x0000b149   Thumb Code    14  qgeoroutereply_nokia.o(.text)
    QGeoRouteReplyNokia::~QGeoRouteReplyNokia__sub_object() 0x0000b149   Thumb Code     0  qgeoroutereply_nokia.o(.text)
    QGeoRouteReplyNokia::~QGeoRouteReplyNokia__deallocating() 0x0000b157   Thumb Code    22  qgeoroutereply_nokia.o(.text)
    QGeoRouteReplyNokia::abort()             0x0000b16d   Thumb Code    34  qgeoroutereply_nokia.o(.text)
    QGeoRouteReplyNokia::networkFinished()   0x0000b18f   Thumb Code   148  qgeoroutereply_nokia.o(.text)
    QGeoRouteReplyNokia::networkError(QNetworkReply::NetworkError) 0x0000b223   Thumb Code    54  qgeoroutereply_nokia.o(.text)
    QGeoRouteXmlParser::QGeoRouteXmlParser(const QtMobility::QGeoRouteRequest&) 0x0000b30d   Thumb Code    78  qgeoroutexmlparser.o(.text)
    QGeoRouteXmlParser::QGeoRouteXmlParser__sub_object(const QtMobility::QGeoRouteRequest&) 0x0000b30d   Thumb Code     0  qgeoroutexmlparser.o(.text)
    QGeoRouteXmlParser::~QGeoRouteXmlParser() 0x0000b35b   Thumb Code    86  qgeoroutexmlparser.o(.text)
    QGeoRouteXmlParser::~QGeoRouteXmlParser__sub_object() 0x0000b35b   Thumb Code     0  qgeoroutexmlparser.o(.text)
    QGeoRouteXmlParser::postProcessRoute(QtMobility::QGeoRoute*) 0x0000b3b1   Thumb Code   756  qgeoroutexmlparser.o(.text)
    QGeoRouteXmlParser::parseSummary(QtMobility::QGeoRoute*) 0x0000b6a5   Thumb Code   262  qgeoroutexmlparser.o(.text)
    QGeoRouteXmlParser::parseGeoPoints(const QString&, QList<QtMobility::QGeoCoordinate>*, const QString&) 0x0000b7ab   Thumb Code   642  qgeoroutexmlparser.o(.text)
    QGeoRouteXmlParser::parseLink()          0x0000ba2d   Thumb Code   482  qgeoroutexmlparser.o(.text)
    QGeoRouteXmlParser::parseCoordinates(QtMobility::QGeoCoordinate&) 0x0000bc0f   Thumb Code   224  qgeoroutexmlparser.o(.text)
    QGeoRouteXmlParser::parseManeuver()      0x0000bcef   Thumb Code  1070  qgeoroutexmlparser.o(.text)
    QGeoRouteXmlParser::parseLeg()           0x0000c11d   Thumb Code   194  qgeoroutexmlparser.o(.text)
    QGeoRouteXmlParser::parseBoundingBox(QtMobility::QGeoBoundingBox&) 0x0000c1df   Thumb Code   312  qgeoroutexmlparser.o(.text)
    QGeoRouteXmlParser::parseMode(QtMobility::QGeoRoute*) 0x0000c317   Thumb Code   476  qgeoroutexmlparser.o(.text)
    QGeoRouteXmlParser::parseRoute(QtMobility::QGeoRoute*) 0x0000c4f3   Thumb Code   508  qgeoroutexmlparser.o(.text)
    QGeoRouteXmlParser::parseRootElement()   0x0000c6ef   Thumb Code   820  qgeoroutexmlparser.o(.text)
    QGeoRouteXmlParser::parse(QIODevice*)    0x0000ca23   Thumb Code   142  qgeoroutexmlparser.o(.text)
    QGeoRouteXmlParser::results() const      0x0000cab1   Thumb Code    40  qgeoroutexmlparser.o(.text)
    QGeoRouteXmlParser::errorString() const  0x0000cad9   Thumb Code    20  qgeoroutexmlparser.o(.text)
    QGeoRoutingManagerEngineNokia::QGeoRoutingManagerEngineNokia(const QMap<QString, QVariant>&, QtMobility::QGeoServiceProvider::Error*, QString*) 0x0000cb75   Thumb Code  1092  qgeoroutingmanagerengine_nokia.o(.text)
    QGeoRoutingManagerEngineNokia::QGeoRoutingManagerEngineNokia__sub_object(const QMap<QString, QVariant>&, QtMobility::QGeoServiceProvider::Error*, QString*) 0x0000cb75   Thumb Code     0  qgeoroutingmanagerengine_nokia.o(.text)
    QGeoRoutingManagerEngineNokia::~QGeoRoutingManagerEngineNokia() 0x0000cfb9   Thumb Code    54  qgeoroutingmanagerengine_nokia.o(.text)
    QGeoRoutingManagerEngineNokia::~QGeoRoutingManagerEngineNokia__sub_object() 0x0000cfb9   Thumb Code     0  qgeoroutingmanagerengine_nokia.o(.text)
    QGeoRoutingManagerEngineNokia::~QGeoRoutingManagerEngineNokia__deallocating() 0x0000cfef   Thumb Code    22  qgeoroutingmanagerengine_nokia.o(.text)
    QGeoRoutingManagerEngineNokia::trimDouble(float, int) 0x0000d005   Thumb Code   118  qgeoroutingmanagerengine_nokia.o(.text)
    QGeoRoutingManagerEngineNokia::routeRequestString(const QtMobility::QGeoRouteRequest&) const 0x0000d07b   Thumb Code   692  qgeoroutingmanagerengine_nokia.o(.text)
    QGeoRoutingManagerEngineNokia::modesRequestString(const QtMobility::QGeoRouteRequest&, QFlags<QtMobility::QGeoRouteRequest::TravelMode>) const 0x0000d32f   Thumb Code  1228  qgeoroutingmanagerengine_nokia.o(.text)
    QGeoRoutingManagerEngineNokia::checkEngineSupport(const QtMobility::QGeoRouteRequest&, QFlags<QtMobility::QGeoRouteRequest::TravelMode>) const 0x0000d7fb   Thumb Code   550  qgeoroutingmanagerengine_nokia.o(.text)
    QGeoRoutingManagerEngineNokia::calculateRouteRequestString(const QtMobility::QGeoRouteRequest&) 0x0000da21   Thumb Code   524  qgeoroutingmanagerengine_nokia.o(.text)
    QGeoRoutingManagerEngineNokia::calculateRoute(const QtMobility::QGeoRouteRequest&) 0x0000dc2d   Thumb Code   268  qgeoroutingmanagerengine_nokia.o(.text)
    QGeoRoutingManagerEngineNokia::updateRouteRequestString(const QtMobility::QGeoRoute&, const QtMobility::QGeoCoordinate&) 0x0000dd39   Thumb Code   612  qgeoroutingmanagerengine_nokia.o(.text)
    QGeoRoutingManagerEngineNokia::updateRoute(const QtMobility::QGeoRoute&, const QtMobility::QGeoCoordinate&) 0x0000df9d   Thumb Code   316  qgeoroutingmanagerengine_nokia.o(.text)
    QGeoRoutingManagerEngineNokia::routeFinished() 0x0000e0d9   Thumb Code    54  qgeoroutingmanagerengine_nokia.o(.text)
    QGeoRoutingManagerEngineNokia::routeError(QtMobility::QGeoRouteReply::Error, const QString&) 0x0000e10f   Thumb Code    80  qgeoroutingmanagerengine_nokia.o(.text)
    QGeoSearchManagerEngineNokia::QGeoSearchManagerEngineNokia(const QMap<QString, QVariant>&, QtMobility::QGeoServiceProvider::Error*, QString*) 0x0000e1c9   Thumb Code   736  qgeosearchmanagerengine_nokia.o(.text)
    QGeoSearchManagerEngineNokia::QGeoSearchManagerEngineNokia__sub_object(const QMap<QString, QVariant>&, QtMobility::QGeoServiceProvider::Error*, QString*) 0x0000e1c9   Thumb Code     0  qgeosearchmanagerengine_nokia.o(.text)
    QGeoSearchManagerEngineNokia::~QGeoSearchManagerEngineNokia() 0x0000e4a9   Thumb Code    54  qgeosearchmanagerengine_nokia.o(.text)
    QGeoSearchManagerEngineNokia::~QGeoSearchManagerEngineNokia__sub_object() 0x0000e4a9   Thumb Code     0  qgeosearchmanagerengine_nokia.o(.text)
    QGeoSearchManagerEngineNokia::~QGeoSearchManagerEngineNokia__deallocating() 0x0000e4df   Thumb Code    22  qgeosearchmanagerengine_nokia.o(.text)
    QGeoSearchManagerEngineNokia::search(QString, QtMobility::QGeoBoundingArea*, int, int) 0x0000e4f5   Thumb Code   372  qgeosearchmanagerengine_nokia.o(.text)
    QGeoSearchManagerEngineNokia::languageToMarc(QLocale::Language) 0x0000e669   Thumb Code   188  qgeosearchmanagerengine_nokia.o(.text)
    QGeoSearchManagerEngineNokia::geocode(const QtMobility::QGeoAddress&, QtMobility::QGeoBoundingArea*) 0x0000e725   Thumb Code   584  qgeosearchmanagerengine_nokia.o(.text)
    QGeoSearchManagerEngineNokia::trimDouble(float, int) 0x0000e96d   Thumb Code   118  qgeosearchmanagerengine_nokia.o(.text)
    QGeoSearchManagerEngineNokia::reverseGeocode(const QtMobility::QGeoCoordinate&, QtMobility::QGeoBoundingArea*) 0x0000e9e3   Thumb Code   630  qgeosearchmanagerengine_nokia.o(.text)
    QGeoSearchManagerEngineNokia::search(const QString&, QFlags<QtMobility::QGeoSearchManager::SearchType>, int, int, QtMobility::QGeoBoundingArea*) 0x0000ec59   Thumb Code   452  qgeosearchmanagerengine_nokia.o(.text)
    QGeoSearchManagerEngineNokia::placesFinished() 0x0000ee1d   Thumb Code    54  qgeosearchmanagerengine_nokia.o(.text)
    QGeoSearchManagerEngineNokia::placesError(QtMobility::QGeoSearchReply::Error, const QString&) 0x0000ee53   Thumb Code    80  qgeosearchmanagerengine_nokia.o(.text)
    QGeoSearchReplyNokia::QGeoSearchReplyNokia(QNetworkReply*, int, int, QtMobility::QGeoBoundingArea*, QObject*) 0x0000ef5d   Thumb Code   100  qgeosearchreply_nokia.o(.text)
    QGeoSearchReplyNokia::QGeoSearchReplyNokia__sub_object(QNetworkReply*, int, int, QtMobility::QGeoBoundingArea*, QObject*) 0x0000ef5d   Thumb Code     0  qgeosearchreply_nokia.o(.text)
    QGeoSearchReplyNokia::~QGeoSearchReplyNokia() 0x0000efc1   Thumb Code    14  qgeosearchreply_nokia.o(.text)
    QGeoSearchReplyNokia::~QGeoSearchReplyNokia__sub_object() 0x0000efc1   Thumb Code     0  qgeosearchreply_nokia.o(.text)
    QGeoSearchReplyNokia::~QGeoSearchReplyNokia__deallocating() 0x0000efcf   Thumb Code    22  qgeosearchreply_nokia.o(.text)
    QGeoSearchReplyNokia::abort()            0x0000efe5   Thumb Code    34  qgeosearchreply_nokia.o(.text)
    QGeoSearchReplyNokia::networkFinished()  0x0000f007   Thumb Code   300  qgeosearchreply_nokia.o(.text)
    QGeoSearchReplyNokia::networkError(QNetworkReply::NetworkError) 0x0000f133   Thumb Code    54  qgeosearchreply_nokia.o(.text)
    qt_plugin_query_verification_data        0x0000f1dd   Thumb Code     4  qgeoserviceproviderplugin_nokia.o(.text)
    QGeoServiceProviderFactoryNokia::QGeoServiceProviderFactoryNokia() 0x0000f1e1   Thumb Code    28  qgeoserviceproviderplugin_nokia.o(.text)
    QGeoServiceProviderFactoryNokia::QGeoServiceProviderFactoryNokia__sub_object() 0x0000f1e1   Thumb Code     0  qgeoserviceproviderplugin_nokia.o(.text)
    qt_plugin_instance                       0x0000f1fd   Thumb Code   120  qgeoserviceproviderplugin_nokia.o(.text)
    QGeoServiceProviderFactoryNokia::~QGeoServiceProviderFactoryNokia() 0x0000f275   Thumb Code    22  qgeoserviceproviderplugin_nokia.o(.text)
    QGeoServiceProviderFactoryNokia::~QGeoServiceProviderFactoryNokia__sub_object() 0x0000f275   Thumb Code     0  qgeoserviceproviderplugin_nokia.o(.text)
    QGeoServiceProviderFactoryNokia::~QGeoServiceProviderFactoryNokia__deallocating() 0x0000f28b   Thumb Code    22  qgeoserviceproviderplugin_nokia.o(.text)
    thunk{-8} to QGeoServiceProviderFactoryNokia::~QGeoServiceProviderFactoryNokia__deallocating() 0x0000f2a1   Thumb Code    14  qgeoserviceproviderplugin_nokia.o(.text)
    thunk{-8} to QGeoServiceProviderFactoryNokia::~QGeoServiceProviderFactoryNokia() 0x0000f2af   Thumb Code    14  qgeoserviceproviderplugin_nokia.o(.text)
    QGeoServiceProviderFactoryNokia::providerName() const 0x0000f2bd   Thumb Code    18  qgeoserviceproviderplugin_nokia.o(.text)
    thunk{-8} to QGeoServiceProviderFactoryNokia::providerName() const 0x0000f2cf   Thumb Code    18  qgeoserviceproviderplugin_nokia.o(.text)
    QGeoServiceProviderFactoryNokia::providerVersion() const 0x0000f2e1   Thumb Code     6  qgeoserviceproviderplugin_nokia.o(.text)
    thunk{-8} to QGeoServiceProviderFactoryNokia::providerVersion() const 0x0000f2e7   Thumb Code    14  qgeoserviceproviderplugin_nokia.o(.text)
    QGeoServiceProviderFactoryNokia::createSearchManagerEngine(const QMap<QString, QVariant>&, QtMobility::QGeoServiceProvider::Error*, QString*) const 0x0000f2f5   Thumb Code    38  qgeoserviceproviderplugin_nokia.o(.text)
    thunk{-8} to QGeoServiceProviderFactoryNokia::createSearchManagerEngine(const QMap<QString, QVariant>&, QtMobility::QGeoServiceProvider::Error*, QString*) const 0x0000f31b   Thumb Code    26  qgeoserviceproviderplugin_nokia.o(.text)
    QGeoServiceProviderFactoryNokia::createMappingManagerEngine(const QMap<QString, QVariant>&, QtMobility::QGeoServiceProvider::Error*, QString*) const 0x0000f335   Thumb Code    38  qgeoserviceproviderplugin_nokia.o(.text)
    thunk{-8} to QGeoServiceProviderFactoryNokia::createMappingManagerEngine(const QMap<QString, QVariant>&, QtMobility::QGeoServiceProvider::Error*, QString*) const 0x0000f35b   Thumb Code    26  qgeoserviceproviderplugin_nokia.o(.text)
    QGeoServiceProviderFactoryNokia::createRoutingManagerEngine(const QMap<QString, QVariant>&, QtMobility::QGeoServiceProvider::Error*, QString*) const 0x0000f375   Thumb Code    38  qgeoserviceproviderplugin_nokia.o(.text)
    thunk{-8} to QGeoServiceProviderFactoryNokia::createRoutingManagerEngine(const QMap<QString, QVariant>&, QtMobility::QGeoServiceProvider::Error*, QString*) const 0x0000f39b   Thumb Code    26  qgeoserviceproviderplugin_nokia.o(.text)
    QGeoTiledMapDataNokia::QGeoTiledMapDataNokia(QGeoMappingManagerEngineNokia*) 0x0000f527   Thumb Code   240  qgeotiledmapdata_nokia.o(.text)
    QGeoTiledMapDataNokia::QGeoTiledMapDataNokia__sub_object(QGeoMappingManagerEngineNokia*) 0x0000f527   Thumb Code     0  qgeotiledmapdata_nokia.o(.text)
    QGeoTiledMapDataNokia::~QGeoTiledMapDataNokia() 0x0000f617   Thumb Code    66  qgeotiledmapdata_nokia.o(.text)
    QGeoTiledMapDataNokia::~QGeoTiledMapDataNokia__sub_object() 0x0000f617   Thumb Code     0  qgeotiledmapdata_nokia.o(.text)
    QGeoTiledMapDataNokia::~QGeoTiledMapDataNokia__deallocating() 0x0000f659   Thumb Code    22  qgeotiledmapdata_nokia.o(.text)
    QGeoTiledMapDataNokia::getViewCopyright() 0x0000f66f   Thumb Code  1114  qgeotiledmapdata_nokia.o(.text)
    QGeoTiledMapDataNokia::paint(QPainter*, const QStyleOptionGraphicsItem*) 0x0000fac9   Thumb Code   712  qgeotiledmapdata_nokia.o(.text)
    QGeoTiledMapDataNokia::copyrightReplyFinished(QNetworkReply*) 0x0000fd91   Thumb Code  1216  qgeotiledmapdata_nokia.o(.text)
    __ARM_switch8                            0x0001027c   ARM Code      24  switch8.o(.text)
    __rt_switch8                             0x0001027c   ARM Code       0  switch8.o(.text)
    _E32Dll_Body                             0x00010294   ARM Code      76  uc_dll.o(.text)
    __aeabi_atexit                           0x000102e4   ARM Code      40  ucppfini.o(.text)
    __cxa_atexit                             0x0001030c   ARM Code      64  ucppfini.o(.text)
    __cxa_finalize                           0x0001034c   ARM Code      48  ucppfini.o(.text)
    run_static_dtors                         0x0001037c   ARM Code      16  ucppfini.o(.text)
    __DLL_Export_Table__                     0x00010398   ARM Code       4  dllexp.o(.text)
    qStringComparisonHelper(const QStringRef&, const char*) 0x00011711   Thumb Code    72  qgeocodexmlparser.o(i._Z23qStringComparisonHelperRK10QStringRefPKc)
    JSONParser::parseNumber()                0x00011769   Thumb Code   106  qgeotiledmapdata_nokia.o(i._ZN10JSONParser11parseNumberEv)
    JSONParser::parseString()                0x000117f9   Thumb Code    90  qgeotiledmapdata_nokia.o(i._ZN10JSONParser11parseStringEv)
    JSONParser::parseUnknown()               0x0001185d   Thumb Code   198  qgeotiledmapdata_nokia.o(i._ZN10JSONParser12parseUnknownEv)
    JSONParser::skipWhitespace()             0x0001197d   Thumb Code   108  qgeotiledmapdata_nokia.o(i._ZN10JSONParser14skipWhitespaceEv)
    JSONParser::next()                       0x000119e9   Thumb Code    30  qgeotiledmapdata_nokia.o(i._ZN10JSONParser4nextEv)
    JSONParser::parse()                      0x00011a09   Thumb Code   448  qgeotiledmapdata_nokia.o(i._ZN10JSONParser5parseEv)
    JSONParser::parseHash()                  0x00011c31   Thumb Code   148  qgeotiledmapdata_nokia.o(i._ZN10JSONParser9parseHashEv)
    JSONParser::parseList()                  0x00011ce1   Thumb Code   108  qgeotiledmapdata_nokia.o(i._ZN10JSONParser9parseListEv)
    JSONParser::~JSONParser()                0x00011d61   Thumb Code    14  qgeotiledmapdata_nokia.o(i._ZN10JSONParserD1Ev)
    JSONParser::~JSONParser__sub_object()    0x00011d61   Thumb Code     0  qgeotiledmapdata_nokia.o(i._ZN10JSONParserD1Ev)
    QByteArray::~QByteArray()                0x00011d6f   Thumb Code    24  qgeomapreply_nokia.o(i._ZN10QByteArrayD1Ev)
    QByteArray::~QByteArray__sub_object()    0x00011d6f   Thumb Code     0  qgeomapreply_nokia.o(i._ZN10QByteArrayD1Ev)
    QStringRef::~QStringRef()                0x00011d87   Thumb Code     2  qgeocodexmlparser.o(i._ZN10QStringRefD1Ev)
    QStringRef::~QStringRef__sub_object()    0x00011d87   Thumb Code     0  qgeocodexmlparser.o(i._ZN10QStringRefD1Ev)
    QStringList::QStringList()               0x00011d89   Thumb Code    20  qgeoroutingmanagerengine_nokia.o(i._ZN11QStringListC1Ev)
    QStringList::QStringList__sub_object()   0x00011d89   Thumb Code     0  qgeoroutingmanagerengine_nokia.o(i._ZN11QStringListC1Ev)
    QStringList::~QStringList()              0x00011da1   Thumb Code    14  qgeoroutexmlparser.o(i._ZN11QStringListD1Ev)
    QStringList::~QStringList__sub_object()  0x00011da1   Thumb Code     0  qgeoroutexmlparser.o(i._ZN11QStringListD1Ev)
    QBasicAtomicInt::ref()                   0x00011daf   Thumb Code    24  qgeocodexmlparser.o(i._ZN15QBasicAtomicInt3refEv)
    QBasicAtomicInt::deref()                 0x00011dc7   Thumb Code    24  qgeocodexmlparser.o(i._ZN15QBasicAtomicInt5derefEv)
    QForeachContainer<QList<CopyrightDescriptor>>::~QForeachContainer() 0x00011ddf   Thumb Code    14  qgeotiledmapdata_nokia.o(i._ZN17QForeachContainerI5QListI19CopyrightDescriptorEED1Ev)
    QForeachContainer<QList<CopyrightDescriptor>>::~QForeachContainer__sub_object() 0x00011ddf   Thumb Code     0  qgeotiledmapdata_nokia.o(i._ZN17QForeachContainerI5QListI19CopyrightDescriptorEED1Ev)
    QForeachContainer<QList<QString>>::~QForeachContainer() 0x00011ded   Thumb Code    14  qgeotiledmapdata_nokia.o(i._ZN17QForeachContainerI5QListI7QStringEED1Ev)
    QForeachContainer<QList<QString>>::~QForeachContainer__sub_object() 0x00011ded   Thumb Code     0  qgeotiledmapdata_nokia.o(i._ZN17QForeachContainerI5QListI7QStringEED1Ev)
    QForeachContainer<QList<QVariant>>::~QForeachContainer() 0x00011dfb   Thumb Code    14  qgeotiledmapdata_nokia.o(i._ZN17QForeachContainerI5QListI8QVariantEED1Ev)
    QForeachContainer<QList<QVariant>>::~QForeachContainer__sub_object() 0x00011dfb   Thumb Code     0  qgeotiledmapdata_nokia.o(i._ZN17QForeachContainerI5QListI8QVariantEED1Ev)
    QForeachContainer<QList<QtMobility::QGeoBoundingBox>>::~QForeachContainer() 0x00011e09   Thumb Code    14  qgeotiledmapdata_nokia.o(i._ZN17QForeachContainerI5QListIN10QtMobility15QGeoBoundingBoxEEED1Ev)
    QForeachContainer<QList<QtMobility::QGeoBoundingBox>>::~QForeachContainer__sub_object() 0x00011e09   Thumb Code     0  qgeotiledmapdata_nokia.o(i._ZN17QForeachContainerI5QListIN10QtMobility15QGeoBoundingBoxEEED1Ev)
    CopyrightDescriptor::CopyrightDescriptor(const CopyrightDescriptor&) 0x00011e17   Thumb Code    60  qgeotiledmapdata_nokia.o(i._ZN19CopyrightDescriptorC1ERKS_)
    CopyrightDescriptor::CopyrightDescriptor__sub_object(const CopyrightDescriptor&) 0x00011e17   Thumb Code     0  qgeotiledmapdata_nokia.o(i._ZN19CopyrightDescriptorC1ERKS_)
    CopyrightDescriptor::CopyrightDescriptor() 0x00011e69   Thumb Code    46  qgeotiledmapdata_nokia.o(i._ZN19CopyrightDescriptorC1Ev)
    CopyrightDescriptor::CopyrightDescriptor__sub_object() 0x00011e69   Thumb Code     0  qgeotiledmapdata_nokia.o(i._ZN19CopyrightDescriptorC1Ev)
    CopyrightDescriptor::~CopyrightDescriptor() 0x00011eb3   Thumb Code    40  qgeotiledmapdata_nokia.o(i._ZN19CopyrightDescriptorD1Ev)
    CopyrightDescriptor::~CopyrightDescriptor__sub_object() 0x00011eb3   Thumb Code     0  qgeotiledmapdata_nokia.o(i._ZN19CopyrightDescriptorD1Ev)
    QXmlStreamAttributes::~QXmlStreamAttributes() 0x00011ef1   Thumb Code    14  qgeocodexmlparser.o(i._ZN20QXmlStreamAttributesD1Ev)
    QXmlStreamAttributes::~QXmlStreamAttributes__sub_object() 0x00011ef1   Thumb Code     0  qgeocodexmlparser.o(i._ZN20QXmlStreamAttributesD1Ev)
    QGeoManeuverContainer::QGeoManeuverContainer(const QGeoManeuverContainer&) 0x00011eff   Thumb Code    46  qgeoroutexmlparser.o(i._ZN21QGeoManeuverContainerC1ERKS_)
    QGeoManeuverContainer::QGeoManeuverContainer__sub_object(const QGeoManeuverContainer&) 0x00011eff   Thumb Code     0  qgeoroutexmlparser.o(i._ZN21QGeoManeuverContainerC1ERKS_)
    QGeoManeuverContainer::~QGeoManeuverContainer() 0x00011f3f   Thumb Code    34  qgeoroutexmlparser.o(i._ZN21QGeoManeuverContainerD1Ev)
    QGeoManeuverContainer::~QGeoManeuverContainer__sub_object() 0x00011f3f   Thumb Code     0  qgeoroutexmlparser.o(i._ZN21QGeoManeuverContainerD1Ev)
    QGeoRouteSegmentContainer::QGeoRouteSegmentContainer(const QGeoRouteSegmentContainer&) 0x00011f73   Thumb Code    46  qgeoroutexmlparser.o(i._ZN25QGeoRouteSegmentContainerC1ERKS_)
    QGeoRouteSegmentContainer::QGeoRouteSegmentContainer__sub_object(const QGeoRouteSegmentContainer&) 0x00011f73   Thumb Code     0  qgeoroutexmlparser.o(i._ZN25QGeoRouteSegmentContainerC1ERKS_)
    QGeoRouteSegmentContainer::~QGeoRouteSegmentContainer() 0x00011fb3   Thumb Code    34  qgeoroutexmlparser.o(i._ZN25QGeoRouteSegmentContainerD1Ev)
    QGeoRouteSegmentContainer::~QGeoRouteSegmentContainer__sub_object() 0x00011fb3   Thumb Code     0  qgeoroutexmlparser.o(i._ZN25QGeoRouteSegmentContainerD1Ev)
    qCleanupResources_resource__dest_class__::~qCleanupResources_resource__dest_class__() 0x00011fe7   Thumb Code    12  qrc_resource.o(i._ZN40qCleanupResources_resource__dest_class__D1Ev)
    qCleanupResources_resource__dest_class__::~qCleanupResources_resource__dest_class____sub_object() 0x00011fe7   Thumb Code     0  qrc_resource.o(i._ZN40qCleanupResources_resource__dest_class__D1Ev)
    QRect::QRect(const QPoint&, const QSize&) 0x00011ff3   Thumb Code    40  qgeotiledmapdata_nokia.o(i._ZN5QRectC1ERK6QPointRK5QSize)
    QRect::QRect__sub_object(const QPoint&, const QSize&) 0x00011ff3   Thumb Code     0  qgeotiledmapdata_nokia.o(i._ZN5QRectC1ERK6QPointRK5QSize)
    QRect::QRect(const QPoint&, const QPoint&) 0x0001201b   Thumb Code    26  qgeotiledmapdata_nokia.o(i._ZN5QRectC1ERK6QPointS2_)
    QRect::QRect__sub_object(const QPoint&, const QPoint&) 0x0001201b   Thumb Code     0  qgeotiledmapdata_nokia.o(i._ZN5QRectC1ERK6QPointS2_)
    QRect::QRect()                           0x00012035   Thumb Code    14  qgeotiledmapdata_nokia.o(i._ZN5QRectC1Ev)
    QRect::QRect__sub_object()               0x00012035   Thumb Code     0  qgeotiledmapdata_nokia.o(i._ZN5QRectC1Ev)
    QString::QString(const char*)            0x00012043   Thumb Code    22  qgeocodexmlparser.o(i._ZN7QStringC1EPKc)
    QString::QString__sub_object(const char*) 0x00012043   Thumb Code     0  qgeocodexmlparser.o(i._ZN7QStringC1EPKc)
    QString::QString(const QLatin1String&)   0x00012059   Thumb Code    26  qgeosearchmanagerengine_nokia.o(i._ZN7QStringC1ERK13QLatin1String)
    QString::QString__sub_object(const QLatin1String&) 0x00012059   Thumb Code     0  qgeosearchmanagerengine_nokia.o(i._ZN7QStringC1ERK13QLatin1String)
    QString::QString(const QString&)         0x00012073   Thumb Code    22  qgeocodexmlparser.o(i._ZN7QStringC1ERKS_)
    QString::QString__sub_object(const QString&) 0x00012073   Thumb Code     0  qgeocodexmlparser.o(i._ZN7QStringC1ERKS_)
    QString::QString()                       0x00012089   Thumb Code    18  qgeomappingmanagerengine_nokia.o(i._ZN7QStringC1Ev)
    QString::QString__sub_object()           0x00012089   Thumb Code     0  qgeomappingmanagerengine_nokia.o(i._ZN7QStringC1Ev)
    QString::~QString()                      0x000120a1   Thumb Code    24  qgeocodexmlparser.o(i._ZN7QStringD1Ev)
    QString::~QString__sub_object()          0x000120a1   Thumb Code     0  qgeocodexmlparser.o(i._ZN7QStringD1Ev)
    QString::operator =(const char*)         0x000120b9   Thumb Code    40  qgeocodexmlparser.o(i._ZN7QStringaSEPKc)
    QString::operator +=(QChar)              0x000120eb   Thumb Code    94  qgeomappingmanagerengine_nokia.o(i._ZN7QStringpLE5QChar)
    QString::operator +=(const char*)        0x00012149   Thumb Code    40  qgeomappingmanagerengine_nokia.o(i._ZN7QStringpLEPKc)
    QString::operator +=(const QString&)     0x0001217b   Thumb Code    16  qgeomappingmanagerengine_nokia.o(i._ZN7QStringpLERKS_)
    QCharRef::operator =(unsigned short)     0x0001218b   Thumb Code    94  qgeosearchmanagerengine_nokia.o(i._ZN8QCharRefaSEt)
    QPainter::drawPixmap(const QRect&, const QPixmap&) 0x000121e9   Thumb Code   104  qgeotiledmapdata_nokia.o(i._ZN8QPainter10drawPixmapERK5QRectRK7QPixmap)
    QVariant::QVariant()                     0x00012251   Thumb Code    38  qgeotiledmapdata_nokia.o(i._ZN8QVariantC1Ev)
    QVariant::QVariant__sub_object()         0x00012251   Thumb Code     0  qgeotiledmapdata_nokia.o(i._ZN8QVariantC1Ev)
    QHashData::willGrow()                    0x00012277   Thumb Code    32  qgeotiledmapdata_nokia.o(i._ZN9QHashData8willGrowEv)
    JSONParser::peek() const                 0x00012297   Thumb Code    44  qgeotiledmapdata_nokia.o(i._ZNK10JSONParser4peekEv)
    JSONParser::peekQ() const                0x000122c3   Thumb Code    26  qgeotiledmapdata_nokia.o(i._ZNK10JSONParser5peekQEv)
    QBasicAtomicInt::operator ==(int) const  0x000122dd   Thumb Code    16  qgeoroutexmlparser.o(i._ZNK15QBasicAtomicInteqEi)
    QBasicAtomicInt::operator !=(int) const  0x000122ed   Thumb Code    16  qgeomappingmanagerengine_nokia.o(i._ZNK15QBasicAtomicIntneEi)
    QXmlStreamAttributes::hasAttribute(const QString&) const 0x000122fd   Thumb Code    62  qgeocodexmlparser.o(i._ZNK20QXmlStreamAttributes12hasAttributeERK7QString)
    QRect::size() const                      0x00012345   Thumb Code    38  qgeotiledmapdata_nokia.o(i._ZNK5QRect4sizeEv)
    QString::arg(int, int, int, const QChar&) const 0x0001236b   Thumb Code    36  qgeocodexmlparser.o(i._ZNK7QString3argEiiiRK5QChar)
    QString::isNull() const                  0x00012391   Thumb Code    18  qgeosearchmanagerengine_nokia.o(i._ZNK7QString6isNullEv)
    QString::isEmpty() const                 0x000123a9   Thumb Code    18  qgeomappingmanagerengine_nokia.o(i._ZNK7QString7isEmptyEv)
    QString::operator ==(const char*) const  0x000123bd   Thumb Code    72  qgeocodexmlparser.o(i._ZNK7QStringeqEPKc)
    QListData::at(int) const                 0x00012413   Thumb Code    20  qgeoroutexmlparser.o(i._ZNK9QListData2atEi)
    QListData::end() const                   0x00012427   Thumb Code    16  qgeocodexmlparser.o(i._ZNK9QListData3endEv)
    QListData::size() const                  0x00012437   Thumb Code    14  qgeoroutexmlparser.o(i._ZNK9QListData4sizeEv)
    QListData::begin() const                 0x00012445   Thumb Code    16  qgeocodexmlparser.o(i._ZNK9QListData5beginEv)
    QListData::isEmpty() const               0x00012455   Thumb Code    22  qgeotiledmapdata_nokia.o(i._ZNK9QListData7isEmptyEv)
    operator delete (void*, void*)           0x0001246b   Thumb Code     2  qgeoroutexmlparser.o(i._ZdlPvS_)
    operator ==(const QStringRef&, const char*) 0x0001246d   Thumb Code    16  qgeocodexmlparser.o(i._ZeqRK10QStringRefPKc)
    operator !=(const QStringRef&, const char*) 0x0001247d   Thumb Code    20  qgeoroutexmlparser.o(i._ZneRK10QStringRefPKc)
    operator new(unsigned, void*)            0x00012491   Thumb Code     6  qgeoroutexmlparser.o(i._ZnwjPv)
    operator +(const char*, const QString&)  0x00012497   Thumb Code    48  qgeoroutingmanagerengine_nokia.o(i._ZplPKcRK7QString)
    operator +(const QString&, const char*)  0x000124d1   Thumb Code    60  qgeoroutingmanagerengine_nokia.o(i._ZplRK7QStringPKc)
    qobject_cast<QtMobility::QGeoRouteReply*>(QObject*) 0x0001251d   Thumb Code    26  qgeoroutingmanagerengine_nokia.o(t._Z12qobject_castIPN10QtMobility14QGeoRouteReplyEET_P7QObject)
    qobject_cast<QtMobility::QGeoSearchReply*>(QObject*) 0x0001253d   Thumb Code    26  qgeosearchmanagerengine_nokia.o(t._Z12qobject_castIPN10QtMobility15QGeoSearchReplyEET_P7QObject)
    qForeachContainerNew<QList<QVariant>>(const T1&) 0x0001255d   Thumb Code   126  qgeotiledmapdata_nokia.o(t._Z20qForeachContainerNewI5QListI8QVariantEE17QForeachContainerIT_ERKS4_)
    QHash<QString, QList<CopyrightDescriptor>>::deleteNode2(QHashData::Node*) 0x000125e5   Thumb Code    36  qgeotiledmapdata_nokia.o(t._ZN5QHashI7QString5QListI19CopyrightDescriptorEE11deleteNode2EPN9QHashData4NodeE)
    QHash<QString, QList<CopyrightDescriptor>>::detach_helper() 0x00012615   Thumb Code    52  qgeotiledmapdata_nokia.o(t._ZN5QHashI7QString5QListI19CopyrightDescriptorEE13detach_helperEv)
    QHash<QString, QList<CopyrightDescriptor>>::duplicateNode(QHashData::Node*, void*) 0x00012651   Thumb Code    46  qgeotiledmapdata_nokia.o(t._ZN5QHashI7QString5QListI19CopyrightDescriptorEE13duplicateNodeEPN9QHashData4NodeEPv)
    QHash<QString, QList<CopyrightDescriptor>>::freeData(QHashData*) 0x0001268d   Thumb Code    16  qgeotiledmapdata_nokia.o(t._ZN5QHashI7QString5QListI19CopyrightDescriptorEE8freeDataEP9QHashData)
    QHash<QString, QList<CopyrightDescriptor>>::QHash() 0x000126a1   Thumb Code    22  qgeotiledmapdata_nokia.o(t._ZN5QHashI7QString5QListI19CopyrightDescriptorEEC1Ev)
    QHash<QString, QList<CopyrightDescriptor>>::QHash__sub_object() 0x000126a1   Thumb Code     0  qgeotiledmapdata_nokia.o(t._ZN5QHashI7QString5QListI19CopyrightDescriptorEEC1Ev)
    QHash<QString, QList<CopyrightDescriptor>>::~QHash() 0x000126bd   Thumb Code    30  qgeotiledmapdata_nokia.o(t._ZN5QHashI7QString5QListI19CopyrightDescriptorEED1Ev)
    QHash<QString, QList<CopyrightDescriptor>>::~QHash__sub_object() 0x000126bd   Thumb Code     0  qgeotiledmapdata_nokia.o(t._ZN5QHashI7QString5QListI19CopyrightDescriptorEED1Ev)
    QHash<QString, QList<CopyrightDescriptor>>::operator [](const QString&) 0x000126db   Thumb Code   208  qgeotiledmapdata_nokia.o(t._ZN5QHashI7QString5QListI19CopyrightDescriptorEEixERKS0_)
    QHash<QString, QVariant>::deleteNode2(QHashData::Node*) 0x000127c3   Thumb Code    36  qgeotiledmapdata_nokia.o(t._ZN5QHashI7QString8QVariantE11deleteNode2EPN9QHashData4NodeE)
    QHash<QString, QVariant>::detach_helper() 0x000127f5   Thumb Code    52  qgeotiledmapdata_nokia.o(t._ZN5QHashI7QString8QVariantE13detach_helperEv)
    QHash<QString, QVariant>::duplicateNode(QHashData::Node*, void*) 0x00012831   Thumb Code    48  qgeotiledmapdata_nokia.o(t._ZN5QHashI7QString8QVariantE13duplicateNodeEPN9QHashData4NodeEPv)
    QHash<QString, QVariant>::freeData(QHashData*) 0x00012871   Thumb Code    16  qgeotiledmapdata_nokia.o(t._ZN5QHashI7QString8QVariantE8freeDataEP9QHashData)
    QHash<QString, QVariant>::~QHash()       0x00012885   Thumb Code    30  qgeotiledmapdata_nokia.o(t._ZN5QHashI7QString8QVariantED1Ev)
    QHash<QString, QVariant>::~QHash__sub_object() 0x00012885   Thumb Code     0  qgeotiledmapdata_nokia.o(t._ZN5QHashI7QString8QVariantED1Ev)
    QHash<QString, QVariant>::operator [](const QString&) 0x000128a3   Thumb Code   208  qgeotiledmapdata_nokia.o(t._ZN5QHashI7QString8QVariantEixERKS0_)
    QList<CopyrightDescriptor>::detach_helper(int) 0x0001298b   Thumb Code    94  qgeotiledmapdata_nokia.o(t._ZN5QListI19CopyrightDescriptorE13detach_helperEi)
    QList<CopyrightDescriptor>::detach_helper() 0x000129f1   Thumb Code    16  qgeotiledmapdata_nokia.o(t._ZN5QListI19CopyrightDescriptorE13detach_helperEv)
    QList<CopyrightDescriptor>::node_destruct(QList<CopyrightDescriptor>::Node*, QList<CopyrightDescriptor>::Node*) 0x00012a01   Thumb Code    38  qgeotiledmapdata_nokia.o(t._ZN5QListI19CopyrightDescriptorE13node_destructEPNS1_4NodeES3_)
    QList<CopyrightDescriptor>::node_construct(QList<CopyrightDescriptor>::Node*, const CopyrightDescriptor&) 0x00012a27   Thumb Code    34  qgeotiledmapdata_nokia.o(t._ZN5QListI19CopyrightDescriptorE14node_constructEPNS1_4NodeERKS0_)
    QList<CopyrightDescriptor>::detach_helper_grow(int, int) 0x00012a57   Thumb Code   208  qgeotiledmapdata_nokia.o(t._ZN5QListI19CopyrightDescriptorE18detach_helper_growEii)
    QList<CopyrightDescriptor>::free(QListData::Data*) 0x00012b37   Thumb Code    52  qgeotiledmapdata_nokia.o(t._ZN5QListI19CopyrightDescriptorE4freeEPN9QListData4DataE)
    QList<CopyrightDescriptor>::append(const CopyrightDescriptor&) 0x00012b6d   Thumb Code   106  qgeotiledmapdata_nokia.o(t._ZN5QListI19CopyrightDescriptorE6appendERKS0_)
    QList<CopyrightDescriptor>::node_copy(QList<CopyrightDescriptor>::Node*, QList<CopyrightDescriptor>::Node*, QList<CopyrightDescriptor>::Node*) 0x00012beb   Thumb Code    92  qgeotiledmapdata_nokia.o(t._ZN5QListI19CopyrightDescriptorE9node_copyEPNS1_4NodeES3_S3_)
    QList<CopyrightDescriptor>::QList(const QList<CopyrightDescriptor>&) 0x00012c5d   Thumb Code    36  qgeotiledmapdata_nokia.o(t._ZN5QListI19CopyrightDescriptorEC1ERKS1_)
    QList<CopyrightDescriptor>::QList__sub_object(const QList<CopyrightDescriptor>&) 0x00012c5d   Thumb Code     0  qgeotiledmapdata_nokia.o(t._ZN5QListI19CopyrightDescriptorEC1ERKS1_)
    QList<CopyrightDescriptor>::QList()      0x00012c81   Thumb Code    18  qgeotiledmapdata_nokia.o(t._ZN5QListI19CopyrightDescriptorEC1Ev)
    QList<CopyrightDescriptor>::QList__sub_object() 0x00012c81   Thumb Code     0  qgeotiledmapdata_nokia.o(t._ZN5QListI19CopyrightDescriptorEC1Ev)
    QList<CopyrightDescriptor>::~QList()     0x00012c99   Thumb Code    32  qgeotiledmapdata_nokia.o(t._ZN5QListI19CopyrightDescriptorED1Ev)
    QList<CopyrightDescriptor>::~QList__sub_object() 0x00012c99   Thumb Code     0  qgeotiledmapdata_nokia.o(t._ZN5QListI19CopyrightDescriptorED1Ev)
    QList<QGeoManeuverContainer>::detach_helper(int) 0x00012cb9   Thumb Code    94  qgeoroutexmlparser.o(t._ZN5QListI21QGeoManeuverContainerE13detach_helperEi)
    QList<QGeoManeuverContainer>::detach_helper() 0x00012d1f   Thumb Code    16  qgeoroutexmlparser.o(t._ZN5QListI21QGeoManeuverContainerE13detach_helperEv)
    QList<QGeoManeuverContainer>::node_destruct(QList<QGeoManeuverContainer>::Node*, QList<QGeoManeuverContainer>::Node*) 0x00012d2f   Thumb Code    38  qgeoroutexmlparser.o(t._ZN5QListI21QGeoManeuverContainerE13node_destructEPNS1_4NodeES3_)
    QList<QGeoManeuverContainer>::node_construct(QList<QGeoManeuverContainer>::Node*, const QGeoManeuverContainer&) 0x00012d55   Thumb Code    34  qgeoroutexmlparser.o(t._ZN5QListI21QGeoManeuverContainerE14node_constructEPNS1_4NodeERKS0_)
    QList<QGeoManeuverContainer>::detach_helper_grow(int, int) 0x00012d85   Thumb Code   208  qgeoroutexmlparser.o(t._ZN5QListI21QGeoManeuverContainerE18detach_helper_growEii)
    QList<QGeoManeuverContainer>::free(QListData::Data*) 0x00012e65   Thumb Code    52  qgeoroutexmlparser.o(t._ZN5QListI21QGeoManeuverContainerE4freeEPN9QListData4DataE)
    QList<QGeoManeuverContainer>::clear()    0x00012e99   Thumb Code    76  qgeoroutexmlparser.o(t._ZN5QListI21QGeoManeuverContainerE5clearEv)
    QList<QGeoManeuverContainer>::append(const QGeoManeuverContainer&) 0x00012ef1   Thumb Code   106  qgeoroutexmlparser.o(t._ZN5QListI21QGeoManeuverContainerE6appendERKS0_)
    QList<QGeoManeuverContainer>::node_copy(QList<QGeoManeuverContainer>::Node*, QList<QGeoManeuverContainer>::Node*, QList<QGeoManeuverContainer>::Node*) 0x00012f6f   Thumb Code    92  qgeoroutexmlparser.o(t._ZN5QListI21QGeoManeuverContainerE9node_copyEPNS1_4NodeES3_S3_)
    QList<QGeoManeuverContainer>::QList()    0x00012fe1   Thumb Code    18  qgeoroutexmlparser.o(t._ZN5QListI21QGeoManeuverContainerEC1Ev)
    QList<QGeoManeuverContainer>::QList__sub_object() 0x00012fe1   Thumb Code     0  qgeoroutexmlparser.o(t._ZN5QListI21QGeoManeuverContainerEC1Ev)
    QList<QGeoManeuverContainer>::~QList()   0x00012ff9   Thumb Code    32  qgeoroutexmlparser.o(t._ZN5QListI21QGeoManeuverContainerED1Ev)
    QList<QGeoManeuverContainer>::~QList__sub_object() 0x00012ff9   Thumb Code     0  qgeoroutexmlparser.o(t._ZN5QListI21QGeoManeuverContainerED1Ev)
    QList<QGeoRouteSegmentContainer>::detach_helper(int) 0x00013019   Thumb Code    94  qgeoroutexmlparser.o(t._ZN5QListI25QGeoRouteSegmentContainerE13detach_helperEi)
    QList<QGeoRouteSegmentContainer>::detach_helper() 0x0001307f   Thumb Code    16  qgeoroutexmlparser.o(t._ZN5QListI25QGeoRouteSegmentContainerE13detach_helperEv)
    QList<QGeoRouteSegmentContainer>::node_destruct(QList<QGeoRouteSegmentContainer>::Node*, QList<QGeoRouteSegmentContainer>::Node*) 0x0001308f   Thumb Code    38  qgeoroutexmlparser.o(t._ZN5QListI25QGeoRouteSegmentContainerE13node_destructEPNS1_4NodeES3_)
    QList<QGeoRouteSegmentContainer>::node_construct(QList<QGeoRouteSegmentContainer>::Node*, const QGeoRouteSegmentContainer&) 0x000130b5   Thumb Code    34  qgeoroutexmlparser.o(t._ZN5QListI25QGeoRouteSegmentContainerE14node_constructEPNS1_4NodeERKS0_)
    QList<QGeoRouteSegmentContainer>::detach_helper_grow(int, int) 0x000130e5   Thumb Code   208  qgeoroutexmlparser.o(t._ZN5QListI25QGeoRouteSegmentContainerE18detach_helper_growEii)
    QList<QGeoRouteSegmentContainer>::free(QListData::Data*) 0x000131c5   Thumb Code    52  qgeoroutexmlparser.o(t._ZN5QListI25QGeoRouteSegmentContainerE4freeEPN9QListData4DataE)
    QList<QGeoRouteSegmentContainer>::clear() 0x000131f9   Thumb Code    76  qgeoroutexmlparser.o(t._ZN5QListI25QGeoRouteSegmentContainerE5clearEv)
    QList<QGeoRouteSegmentContainer>::append(const QGeoRouteSegmentContainer&) 0x00013251   Thumb Code   106  qgeoroutexmlparser.o(t._ZN5QListI25QGeoRouteSegmentContainerE6appendERKS0_)
    QList<QGeoRouteSegmentContainer>::node_copy(QList<QGeoRouteSegmentContainer>::Node*, QList<QGeoRouteSegmentContainer>::Node*, QList<QGeoRouteSegmentContainer>::Node*) 0x000132cf   Thumb Code    92  qgeoroutexmlparser.o(t._ZN5QListI25QGeoRouteSegmentContainerE9node_copyEPNS1_4NodeES3_S3_)
    QList<QGeoRouteSegmentContainer>::QList() 0x00013341   Thumb Code    18  qgeoroutexmlparser.o(t._ZN5QListI25QGeoRouteSegmentContainerEC1Ev)
    QList<QGeoRouteSegmentContainer>::QList__sub_object() 0x00013341   Thumb Code     0  qgeoroutexmlparser.o(t._ZN5QListI25QGeoRouteSegmentContainerEC1Ev)
    QList<QGeoRouteSegmentContainer>::~QList() 0x00013359   Thumb Code    32  qgeoroutexmlparser.o(t._ZN5QListI25QGeoRouteSegmentContainerED1Ev)
    QList<QGeoRouteSegmentContainer>::~QList__sub_object() 0x00013359   Thumb Code     0  qgeoroutexmlparser.o(t._ZN5QListI25QGeoRouteSegmentContainerED1Ev)
    QList<QString>::detach_helper(int)       0x00013379   Thumb Code    94  qgeoroutingmanagerengine_nokia.o(t._ZN5QListI7QStringE13detach_helperEi)
    QList<QString>::detach_helper()          0x000133df   Thumb Code    16  qgeoroutexmlparser.o(t._ZN5QListI7QStringE13detach_helperEv)
    QList<QString>::node_destruct(QList<QString>::Node*, QList<QString>::Node*) 0x000133ef   Thumb Code    26  qgeoroutingmanagerengine_nokia.o(t._ZN5QListI7QStringE13node_destructEPNS1_4NodeES3_)
    QList<QString>::node_construct(QList<QString>::Node*, const QString&) 0x00013409   Thumb Code    36  qgeoroutingmanagerengine_nokia.o(t._ZN5QListI7QStringE14node_constructEPNS1_4NodeERKS0_)
    QList<QString>::detach_helper_grow(int, int) 0x0001343b   Thumb Code   208  qgeoroutingmanagerengine_nokia.o(t._ZN5QListI7QStringE18detach_helper_growEii)
    QList<QString>::free(QListData::Data*)   0x0001351b   Thumb Code    52  qgeoroutingmanagerengine_nokia.o(t._ZN5QListI7QStringE4freeEPN9QListData4DataE)
    QList<QString>::append(const QString&)   0x00013551   Thumb Code   114  qgeoroutingmanagerengine_nokia.o(t._ZN5QListI7QStringE6appendERKS0_)
    QList<QString>::reserve(int)             0x000135d7   Thumb Code    46  qgeotiledmapdata_nokia.o(t._ZN5QListI7QStringE7reserveEi)
    QList<QString>::node_copy(QList<QString>::Node*, QList<QString>::Node*, QList<QString>::Node*) 0x00013605   Thumb Code    82  qgeoroutingmanagerengine_nokia.o(t._ZN5QListI7QStringE9node_copyEPNS1_4NodeES3_S3_)
    QList<QString>::QList()                  0x0001366d   Thumb Code    18  qgeotiledmapdata_nokia.o(t._ZN5QListI7QStringEC1Ev)
    QList<QString>::QList__sub_object()      0x0001366d   Thumb Code     0  qgeotiledmapdata_nokia.o(t._ZN5QListI7QStringEC1Ev)
    QList<QString>::~QList()                 0x00013685   Thumb Code    32  qgeoroutexmlparser.o(t._ZN5QListI7QStringED1Ev)
    QList<QString>::~QList__sub_object()     0x00013685   Thumb Code     0  qgeoroutexmlparser.o(t._ZN5QListI7QStringED1Ev)
    QList<QString>::operator [](int)         0x000136a5   Thumb Code    42  qgeoroutexmlparser.o(t._ZN5QListI7QStringEixEi)
    QList<QVariant>::detach_helper(int)      0x000136cf   Thumb Code    94  qgeotiledmapdata_nokia.o(t._ZN5QListI8QVariantE13detach_helperEi)
    QList<QVariant>::detach_helper()         0x00013735   Thumb Code    16  qgeotiledmapdata_nokia.o(t._ZN5QListI8QVariantE13detach_helperEv)
    QList<QVariant>::node_destruct(QList<QVariant>::Node*, QList<QVariant>::Node*) 0x00013745   Thumb Code    38  qgeotiledmapdata_nokia.o(t._ZN5QListI8QVariantE13node_destructEPNS1_4NodeES3_)
    QList<QVariant>::node_construct(QList<QVariant>::Node*, const QVariant&) 0x0001376b   Thumb Code    34  qgeotiledmapdata_nokia.o(t._ZN5QListI8QVariantE14node_constructEPNS1_4NodeERKS0_)
    QList<QVariant>::detach_helper_grow(int, int) 0x0001379b   Thumb Code   208  qgeotiledmapdata_nokia.o(t._ZN5QListI8QVariantE18detach_helper_growEii)
    QList<QVariant>::free(QListData::Data*)  0x0001387b   Thumb Code    52  qgeotiledmapdata_nokia.o(t._ZN5QListI8QVariantE4freeEPN9QListData4DataE)
    QList<QVariant>::append(const QVariant&) 0x000138b1   Thumb Code   106  qgeotiledmapdata_nokia.o(t._ZN5QListI8QVariantE6appendERKS0_)
    QList<QVariant>::node_copy(QList<QVariant>::Node*, QList<QVariant>::Node*, QList<QVariant>::Node*) 0x0001392f   Thumb Code    92  qgeotiledmapdata_nokia.o(t._ZN5QListI8QVariantE9node_copyEPNS1_4NodeES3_S3_)
    QList<QVariant>::~QList()                0x000139a1   Thumb Code    32  qgeotiledmapdata_nokia.o(t._ZN5QListI8QVariantED1Ev)
    QList<QVariant>::~QList__sub_object()    0x000139a1   Thumb Code     0  qgeotiledmapdata_nokia.o(t._ZN5QListI8QVariantED1Ev)
    QList<QtMobility::QGeoCoordinate>::detach_helper(int) 0x000139c1   Thumb Code    94  qgeoroutexmlparser.o(t._ZN5QListIN10QtMobility14QGeoCoordinateEE13detach_helperEi)
    QList<QtMobility::QGeoCoordinate>::detach_helper() 0x00013a27   Thumb Code    16  qgeoroutexmlparser.o(t._ZN5QListIN10QtMobility14QGeoCoordinateEE13detach_helperEv)
    QList<QtMobility::QGeoCoordinate>::node_destruct(QList<QtMobility::QGeoCoordinate>::Node*, QList<QtMobility::QGeoCoordinate>::Node*) 0x00013a37   Thumb Code    38  qgeoroutexmlparser.o(t._ZN5QListIN10QtMobility14QGeoCoordinateEE13node_destructEPNS2_4NodeES4_)
    QList<QtMobility::QGeoCoordinate>::node_construct(QList<QtMobility::QGeoCoordinate>::Node*, const QtMobility::QGeoCoordinate&) 0x00013a5d   Thumb Code    34  qgeoroutexmlparser.o(t._ZN5QListIN10QtMobility14QGeoCoordinateEE14node_constructEPNS2_4NodeERKS1_)
    QList<QtMobility::QGeoCoordinate>::detach_helper_grow(int, int) 0x00013a8d   Thumb Code   208  qgeoroutexmlparser.o(t._ZN5QListIN10QtMobility14QGeoCoordinateEE18detach_helper_growEii)
    QList<QtMobility::QGeoCoordinate>::free(QListData::Data*) 0x00013b6d   Thumb Code    52  qgeoroutexmlparser.o(t._ZN5QListIN10QtMobility14QGeoCoordinateEE4freeEPN9QListData4DataE)
    QList<QtMobility::QGeoCoordinate>::append(const QtMobility::QGeoCoordinate&) 0x00013ba1   Thumb Code   106  qgeoroutexmlparser.o(t._ZN5QListIN10QtMobility14QGeoCoordinateEE6appendERKS1_)
    QList<QtMobility::QGeoCoordinate>::node_copy(QList<QtMobility::QGeoCoordinate>::Node*, QList<QtMobility::QGeoCoordinate>::Node*, QList<QtMobility::QGeoCoordinate>::Node*) 0x00013c1f   Thumb Code    92  qgeoroutexmlparser.o(t._ZN5QListIN10QtMobility14QGeoCoordinateEE9node_copyEPNS2_4NodeES4_S4_)
    QList<QtMobility::QGeoCoordinate>::QList() 0x00013c91   Thumb Code    18  qgeoroutexmlparser.o(t._ZN5QListIN10QtMobility14QGeoCoordinateEEC1Ev)
    QList<QtMobility::QGeoCoordinate>::QList__sub_object() 0x00013c91   Thumb Code     0  qgeoroutexmlparser.o(t._ZN5QListIN10QtMobility14QGeoCoordinateEEC1Ev)
    QList<QtMobility::QGeoCoordinate>::~QList() 0x00013ca9   Thumb Code    32  qgeoroutexmlparser.o(t._ZN5QListIN10QtMobility14QGeoCoordinateEED1Ev)
    QList<QtMobility::QGeoCoordinate>::~QList__sub_object() 0x00013ca9   Thumb Code     0  qgeoroutexmlparser.o(t._ZN5QListIN10QtMobility14QGeoCoordinateEED1Ev)
    QList<QtMobility::QGeoCoordinate>::operator +=(const QList<QtMobility::QGeoCoordinate>&) 0x00013cc9   Thumb Code   196  qgeoroutexmlparser.o(t._ZN5QListIN10QtMobility14QGeoCoordinateEEpLERKS2_)
    QList<QtMobility::QGeoBoundingBox>::detach_helper(int) 0x00013d99   Thumb Code    94  qgeotiledmapdata_nokia.o(t._ZN5QListIN10QtMobility15QGeoBoundingBoxEE13detach_helperEi)
    QList<QtMobility::QGeoBoundingBox>::detach_helper() 0x00013dff   Thumb Code    16  qgeotiledmapdata_nokia.o(t._ZN5QListIN10QtMobility15QGeoBoundingBoxEE13detach_helperEv)
    QList<QtMobility::QGeoBoundingBox>::node_destruct(QList<QtMobility::QGeoBoundingBox>::Node*, QList<QtMobility::QGeoBoundingBox>::Node*) 0x00013e0f   Thumb Code    36  qgeotiledmapdata_nokia.o(t._ZN5QListIN10QtMobility15QGeoBoundingBoxEE13node_destructEPNS2_4NodeES4_)
    QList<QtMobility::QGeoBoundingBox>::node_construct(QList<QtMobility::QGeoBoundingBox>::Node*, const QtMobility::QGeoBoundingBox&) 0x00013e33   Thumb Code    34  qgeotiledmapdata_nokia.o(t._ZN5QListIN10QtMobility15QGeoBoundingBoxEE14node_constructEPNS2_4NodeERKS1_)
    QList<QtMobility::QGeoBoundingBox>::detach_helper_grow(int, int) 0x00013e63   Thumb Code   208  qgeotiledmapdata_nokia.o(t._ZN5QListIN10QtMobility15QGeoBoundingBoxEE18detach_helper_growEii)
    QList<QtMobility::QGeoBoundingBox>::free(QListData::Data*) 0x00013f43   Thumb Code    52  qgeotiledmapdata_nokia.o(t._ZN5QListIN10QtMobility15QGeoBoundingBoxEE4freeEPN9QListData4DataE)
    QList<QtMobility::QGeoBoundingBox>::append(const QtMobility::QGeoBoundingBox&) 0x00013f79   Thumb Code   106  qgeotiledmapdata_nokia.o(t._ZN5QListIN10QtMobility15QGeoBoundingBoxEE6appendERKS1_)
    QList<QtMobility::QGeoBoundingBox>::node_copy(QList<QtMobility::QGeoBoundingBox>::Node*, QList<QtMobility::QGeoBoundingBox>::Node*, QList<QtMobility::QGeoBoundingBox>::Node*) 0x00013ff7   Thumb Code    90  qgeotiledmapdata_nokia.o(t._ZN5QListIN10QtMobility15QGeoBoundingBoxEE9node_copyEPNS2_4NodeES4_S4_)
    QList<QtMobility::QGeoBoundingBox>::QList(const QList<QtMobility::QGeoBoundingBox>&) 0x00014067   Thumb Code    36  qgeotiledmapdata_nokia.o(t._ZN5QListIN10QtMobility15QGeoBoundingBoxEEC1ERKS2_)
    QList<QtMobility::QGeoBoundingBox>::QList__sub_object(const QList<QtMobility::QGeoBoundingBox>&) 0x00014067   Thumb Code     0  qgeotiledmapdata_nokia.o(t._ZN5QListIN10QtMobility15QGeoBoundingBoxEEC1ERKS2_)
    QList<QtMobility::QGeoBoundingBox>::~QList() 0x0001408b   Thumb Code    32  qgeoroutingmanagerengine_nokia.o(t._ZN5QListIN10QtMobility15QGeoBoundingBoxEED1Ev)
    QList<QtMobility::QGeoBoundingBox>::~QList__sub_object() 0x0001408b   Thumb Code     0  qgeoroutingmanagerengine_nokia.o(t._ZN5QListIN10QtMobility15QGeoBoundingBoxEED1Ev)
    QList<QtMobility::QGraphicsGeoMap::ConnectivityMode>::node_destruct(QList<QtMobility::QGraphicsGeoMap::ConnectivityMode>::Node*, QList<QtMobility::QGraphicsGeoMap::ConnectivityMode>::Node*) 0x000140ab   Thumb Code    26  qgeomappingmanagerengine_nokia.o(t._ZN5QListIN10QtMobility15QGraphicsGeoMap16ConnectivityModeEE13node_destructEPNS3_4NodeES5_)
    QList<QtMobility::QGraphicsGeoMap::ConnectivityMode>::node_construct(QList<QtMobility::QGraphicsGeoMap::ConnectivityMode>::Node*, const QtMobility::QGraphicsGeoMap::ConnectivityMode&) 0x000140c5   Thumb Code    30  qgeomappingmanagerengine_nokia.o(t._ZN5QListIN10QtMobility15QGraphicsGeoMap16ConnectivityModeEE14node_constructEPNS3_4NodeERKS2_)
    QList<QtMobility::QGraphicsGeoMap::ConnectivityMode>::detach_helper_grow(int, int) 0x000140e3   Thumb Code   208  qgeomappingmanagerengine_nokia.o(t._ZN5QListIN10QtMobility15QGraphicsGeoMap16ConnectivityModeEE18detach_helper_growEii)
    QList<QtMobility::QGraphicsGeoMap::ConnectivityMode>::free(QListData::Data*) 0x000141c3   Thumb Code    58  qgeomappingmanagerengine_nokia.o(t._ZN5QListIN10QtMobility15QGraphicsGeoMap16ConnectivityModeEE4freeEPN9QListData4DataE)
    QList<QtMobility::QGraphicsGeoMap::ConnectivityMode>::append(const QtMobility::QGraphicsGeoMap::ConnectivityMode&) 0x000141fd   Thumb Code   106  qgeomappingmanagerengine_nokia.o(t._ZN5QListIN10QtMobility15QGraphicsGeoMap16ConnectivityModeEE6appendERKS2_)
    QList<QtMobility::QGraphicsGeoMap::ConnectivityMode>::node_copy(QList<QtMobility::QGraphicsGeoMap::ConnectivityMode>::Node*, QList<QtMobility::QGraphicsGeoMap::ConnectivityMode>::Node*, QList<QtMobility::QGraphicsGeoMap::ConnectivityMode>::Node*) 0x0001427b   Thumb Code    78  qgeomappingmanagerengine_nokia.o(t._ZN5QListIN10QtMobility15QGraphicsGeoMap16ConnectivityModeEE9node_copyEPNS3_4NodeES5_S5_)
    QList<QtMobility::QGraphicsGeoMap::ConnectivityMode>::~QList() 0x000142d1   Thumb Code    32  qgeomappingmanagerengine_nokia.o(t._ZN5QListIN10QtMobility15QGraphicsGeoMap16ConnectivityModeEED1Ev)
    QList<QtMobility::QGraphicsGeoMap::ConnectivityMode>::~QList__sub_object() 0x000142d1   Thumb Code     0  qgeomappingmanagerengine_nokia.o(t._ZN5QListIN10QtMobility15QGraphicsGeoMap16ConnectivityModeEED1Ev)
    QList<QtMobility::QGraphicsGeoMap::MapType>::node_destruct(QList<QtMobility::QGraphicsGeoMap::MapType>::Node*, QList<QtMobility::QGraphicsGeoMap::MapType>::Node*) 0x000142f1   Thumb Code    26  qgeomappingmanagerengine_nokia.o(t._ZN5QListIN10QtMobility15QGraphicsGeoMap7MapTypeEE13node_destructEPNS3_4NodeES5_)
    QList<QtMobility::QGraphicsGeoMap::MapType>::node_construct(QList<QtMobility::QGraphicsGeoMap::MapType>::Node*, const QtMobility::QGraphicsGeoMap::MapType&) 0x0001430b   Thumb Code    30  qgeomappingmanagerengine_nokia.o(t._ZN5QListIN10QtMobility15QGraphicsGeoMap7MapTypeEE14node_constructEPNS3_4NodeERKS2_)
    QList<QtMobility::QGraphicsGeoMap::MapType>::detach_helper_grow(int, int) 0x00014329   Thumb Code   208  qgeomappingmanagerengine_nokia.o(t._ZN5QListIN10QtMobility15QGraphicsGeoMap7MapTypeEE18detach_helper_growEii)
    QList<QtMobility::QGraphicsGeoMap::MapType>::free(QListData::Data*) 0x00014409   Thumb Code    58  qgeomappingmanagerengine_nokia.o(t._ZN5QListIN10QtMobility15QGraphicsGeoMap7MapTypeEE4freeEPN9QListData4DataE)
    QList<QtMobility::QGraphicsGeoMap::MapType>::append(const QtMobility::QGraphicsGeoMap::MapType&) 0x00014445   Thumb Code   106  qgeomappingmanagerengine_nokia.o(t._ZN5QListIN10QtMobility15QGraphicsGeoMap7MapTypeEE6appendERKS2_)
    QList<QtMobility::QGraphicsGeoMap::MapType>::node_copy(QList<QtMobility::QGraphicsGeoMap::MapType>::Node*, QList<QtMobility::QGraphicsGeoMap::MapType>::Node*, QList<QtMobility::QGraphicsGeoMap::MapType>::Node*) 0x000144c3   Thumb Code    78  qgeomappingmanagerengine_nokia.o(t._ZN5QListIN10QtMobility15QGraphicsGeoMap7MapTypeEE9node_copyEPNS3_4NodeES5_S5_)
    QList<QtMobility::QGraphicsGeoMap::MapType>::~QList() 0x00014519   Thumb Code    32  qgeomappingmanagerengine_nokia.o(t._ZN5QListIN10QtMobility15QGraphicsGeoMap7MapTypeEED1Ev)
    QList<QtMobility::QGraphicsGeoMap::MapType>::~QList__sub_object() 0x00014519   Thumb Code     0  qgeomappingmanagerengine_nokia.o(t._ZN5QListIN10QtMobility15QGraphicsGeoMap7MapTypeEED1Ev)
    QList<QtMobility::QGeoRouteRequest::FeatureType>::free(QListData::Data*) 0x00014539   Thumb Code    64  qgeoroutingmanagerengine_nokia.o(t._ZN5QListIN10QtMobility16QGeoRouteRequest11FeatureTypeEE4freeEPN9QListData4DataE)
    QList<QtMobility::QGeoRouteRequest::FeatureType>::~QList() 0x00014579   Thumb Code    32  qgeoroutingmanagerengine_nokia.o(t._ZN5QListIN10QtMobility16QGeoRouteRequest11FeatureTypeEED1Ev)
    QList<QtMobility::QGeoRouteRequest::FeatureType>::~QList__sub_object() 0x00014579   Thumb Code     0  qgeoroutingmanagerengine_nokia.o(t._ZN5QListIN10QtMobility16QGeoRouteRequest11FeatureTypeEED1Ev)
    QList<QtMobility::QGeoRouteSegment>::removeFirst() 0x00014599   Thumb Code    26  qgeoroutexmlparser.o(t._ZN5QListIN10QtMobility16QGeoRouteSegmentEE11removeFirstEv)
    QList<QtMobility::QGeoRouteSegment>::detach_helper(int) 0x000145b3   Thumb Code    94  qgeoroutexmlparser.o(t._ZN5QListIN10QtMobility16QGeoRouteSegmentEE13detach_helperEi)
    QList<QtMobility::QGeoRouteSegment>::detach_helper() 0x00014619   Thumb Code    16  qgeoroutexmlparser.o(t._ZN5QListIN10QtMobility16QGeoRouteSegmentEE13detach_helperEv)
    QList<QtMobility::QGeoRouteSegment>::node_destruct(QList<QtMobility::QGeoRouteSegment>::Node*) 0x00014629   Thumb Code    28  qgeoroutexmlparser.o(t._ZN5QListIN10QtMobility16QGeoRouteSegmentEE13node_destructEPNS2_4NodeE)
    QList<QtMobility::QGeoRouteSegment>::node_destruct(QList<QtMobility::QGeoRouteSegment>::Node*, QList<QtMobility::QGeoRouteSegment>::Node*) 0x00014645   Thumb Code    38  qgeoroutexmlparser.o(t._ZN5QListIN10QtMobility16QGeoRouteSegmentEE13node_destructEPNS2_4NodeES4_)
    QList<QtMobility::QGeoRouteSegment>::node_construct(QList<QtMobility::QGeoRouteSegment>::Node*, const QtMobility::QGeoRouteSegment&) 0x0001466b   Thumb Code    34  qgeoroutexmlparser.o(t._ZN5QListIN10QtMobility16QGeoRouteSegmentEE14node_constructEPNS2_4NodeERKS1_)
    QList<QtMobility::QGeoRouteSegment>::detach_helper_grow(int, int) 0x0001469b   Thumb Code   208  qgeoroutexmlparser.o(t._ZN5QListIN10QtMobility16QGeoRouteSegmentEE18detach_helper_growEii)
    QList<QtMobility::QGeoRouteSegment>::end() 0x0001477b   Thumb Code    26  qgeoroutexmlparser.o(t._ZN5QListIN10QtMobility16QGeoRouteSegmentEE3endEv)
    QList<QtMobility::QGeoRouteSegment>::free(QListData::Data*) 0x00014795   Thumb Code    52  qgeoroutexmlparser.o(t._ZN5QListIN10QtMobility16QGeoRouteSegmentEE4freeEPN9QListData4DataE)
    QList<QtMobility::QGeoRouteSegment>::begin() 0x000147c9   Thumb Code    26  qgeoroutexmlparser.o(t._ZN5QListIN10QtMobility16QGeoRouteSegmentEE5beginEv)
    QList<QtMobility::QGeoRouteSegment>::erase(QList<QtMobility::QGeoRouteSegment>::iterator) 0x000147e3   Thumb Code    32  qgeoroutexmlparser.o(t._ZN5QListIN10QtMobility16QGeoRouteSegmentEE5eraseENS2_8iteratorE)
    QList<QtMobility::QGeoRouteSegment>::first() 0x00014803   Thumb Code    22  qgeoroutexmlparser.o(t._ZN5QListIN10QtMobility16QGeoRouteSegmentEE5firstEv)
    QList<QtMobility::QGeoRouteSegment>::append(const QtMobility::QGeoRouteSegment&) 0x00014819   Thumb Code   106  qgeoroutexmlparser.o(t._ZN5QListIN10QtMobility16QGeoRouteSegmentEE6appendERKS1_)
    QList<QtMobility::QGeoRouteSegment>::detach() 0x00014897   Thumb Code    24  qgeoroutexmlparser.o(t._ZN5QListIN10QtMobility16QGeoRouteSegmentEE6detachEv)
    QList<QtMobility::QGeoRouteSegment>::node_copy(QList<QtMobility::QGeoRouteSegment>::Node*, QList<QtMobility::QGeoRouteSegment>::Node*, QList<QtMobility::QGeoRouteSegment>::Node*) 0x000148af   Thumb Code    92  qgeoroutexmlparser.o(t._ZN5QListIN10QtMobility16QGeoRouteSegmentEE9node_copyEPNS2_4NodeES4_S4_)
    QList<QtMobility::QGeoRouteSegment>::QList() 0x00014921   Thumb Code    18  qgeoroutexmlparser.o(t._ZN5QListIN10QtMobility16QGeoRouteSegmentEEC1Ev)
    QList<QtMobility::QGeoRouteSegment>::QList__sub_object() 0x00014921   Thumb Code     0  qgeoroutexmlparser.o(t._ZN5QListIN10QtMobility16QGeoRouteSegmentEEC1Ev)
    QList<QtMobility::QGeoRouteSegment>::~QList() 0x00014939   Thumb Code    32  qgeoroutexmlparser.o(t._ZN5QListIN10QtMobility16QGeoRouteSegmentEED1Ev)
    QList<QtMobility::QGeoRouteSegment>::~QList__sub_object() 0x00014939   Thumb Code     0  qgeoroutexmlparser.o(t._ZN5QListIN10QtMobility16QGeoRouteSegmentEED1Ev)
    QList<QtMobility::QGeoPlace>::detach_helper(int) 0x00014959   Thumb Code    94  qgeocodexmlparser.o(t._ZN5QListIN10QtMobility9QGeoPlaceEE13detach_helperEi)
    QList<QtMobility::QGeoPlace>::detach_helper() 0x000149bf   Thumb Code    16  qgeocodexmlparser.o(t._ZN5QListIN10QtMobility9QGeoPlaceEE13detach_helperEv)
    QList<QtMobility::QGeoPlace>::node_destruct(QList<QtMobility::QGeoPlace>::Node*, QList<QtMobility::QGeoPlace>::Node*) 0x000149cf   Thumb Code    36  qgeocodexmlparser.o(t._ZN5QListIN10QtMobility9QGeoPlaceEE13node_destructEPNS2_4NodeES4_)
    QList<QtMobility::QGeoPlace>::node_construct(QList<QtMobility::QGeoPlace>::Node*, const QtMobility::QGeoPlace&) 0x000149f3   Thumb Code    34  qgeocodexmlparser.o(t._ZN5QListIN10QtMobility9QGeoPlaceEE14node_constructEPNS2_4NodeERKS1_)
    QList<QtMobility::QGeoPlace>::detach_helper_grow(int, int) 0x00014a23   Thumb Code   208  qgeocodexmlparser.o(t._ZN5QListIN10QtMobility9QGeoPlaceEE18detach_helper_growEii)
    QList<QtMobility::QGeoPlace>::free(QListData::Data*) 0x00014b03   Thumb Code    58  qgeocodexmlparser.o(t._ZN5QListIN10QtMobility9QGeoPlaceEE4freeEPN9QListData4DataE)
    QList<QtMobility::QGeoPlace>::append(const QtMobility::QGeoPlace&) 0x00014b3d   Thumb Code   112  qgeocodexmlparser.o(t._ZN5QListIN10QtMobility9QGeoPlaceEE6appendERKS1_)
    QList<QtMobility::QGeoPlace>::detach()   0x00014bbf   Thumb Code    30  qgeosearchreply_nokia.o(t._ZN5QListIN10QtMobility9QGeoPlaceEE6detachEv)
    QList<QtMobility::QGeoPlace>::node_copy(QList<QtMobility::QGeoPlace>::Node*, QList<QtMobility::QGeoPlace>::Node*, QList<QtMobility::QGeoPlace>::Node*) 0x00014bdd   Thumb Code    90  qgeocodexmlparser.o(t._ZN5QListIN10QtMobility9QGeoPlaceEE9node_copyEPNS2_4NodeES4_S4_)
    QList<QtMobility::QGeoPlace>::~QList()   0x00014c4d   Thumb Code    32  qgeocodexmlparser.o(t._ZN5QListIN10QtMobility9QGeoPlaceEED1Ev)
    QList<QtMobility::QGeoPlace>::~QList__sub_object() 0x00014c4d   Thumb Code     0  qgeocodexmlparser.o(t._ZN5QListIN10QtMobility9QGeoPlaceEED1Ev)
    QList<QtMobility::QGeoRoute>::detach_helper(int) 0x00014c6d   Thumb Code    94  qgeoroutexmlparser.o(t._ZN5QListIN10QtMobility9QGeoRouteEE13detach_helperEi)
    QList<QtMobility::QGeoRoute>::detach_helper() 0x00014cd3   Thumb Code    16  qgeoroutexmlparser.o(t._ZN5QListIN10QtMobility9QGeoRouteEE13detach_helperEv)
    QList<QtMobility::QGeoRoute>::node_destruct(QList<QtMobility::QGeoRoute>::Node*, QList<QtMobility::QGeoRoute>::Node*) 0x00014ce3   Thumb Code    38  qgeoroutexmlparser.o(t._ZN5QListIN10QtMobility9QGeoRouteEE13node_destructEPNS2_4NodeES4_)
    QList<QtMobility::QGeoRoute>::node_construct(QList<QtMobility::QGeoRoute>::Node*, const QtMobility::QGeoRoute&) 0x00014d09   Thumb Code    34  qgeoroutexmlparser.o(t._ZN5QListIN10QtMobility9QGeoRouteEE14node_constructEPNS2_4NodeERKS1_)
    QList<QtMobility::QGeoRoute>::detach_helper_grow(int, int) 0x00014d39   Thumb Code   208  qgeoroutexmlparser.o(t._ZN5QListIN10QtMobility9QGeoRouteEE18detach_helper_growEii)
    QList<QtMobility::QGeoRoute>::free(QListData::Data*) 0x00014e19   Thumb Code    52  qgeoroutexmlparser.o(t._ZN5QListIN10QtMobility9QGeoRouteEE4freeEPN9QListData4DataE)
    QList<QtMobility::QGeoRoute>::append(const QtMobility::QGeoRoute&) 0x00014e4d   Thumb Code   106  qgeoroutexmlparser.o(t._ZN5QListIN10QtMobility9QGeoRouteEE6appendERKS1_)
    QList<QtMobility::QGeoRoute>::node_copy(QList<QtMobility::QGeoRoute>::Node*, QList<QtMobility::QGeoRoute>::Node*, QList<QtMobility::QGeoRoute>::Node*) 0x00014ecb   Thumb Code    92  qgeoroutexmlparser.o(t._ZN5QListIN10QtMobility9QGeoRouteEE9node_copyEPNS2_4NodeES4_S4_)
    QList<QtMobility::QGeoRoute>::~QList()   0x00014f3d   Thumb Code    32  qgeoroutereply_nokia.o(t._ZN5QListIN10QtMobility9QGeoRouteEED1Ev)
    QList<QtMobility::QGeoRoute>::~QList__sub_object() 0x00014f3d   Thumb Code     0  qgeoroutereply_nokia.o(t._ZN5QListIN10QtMobility9QGeoRouteEED1Ev)
    QVector<QXmlStreamAttribute>::free(QVectorTypedData<QXmlStreamAttribute>*) 0x00014f5d   Thumb Code    54  qgeocodexmlparser.o(t._ZN7QVectorI19QXmlStreamAttributeE4freeEP16QVectorTypedDataIS0_E)
    QVector<QXmlStreamAttribute>::~QVector() 0x00014f93   Thumb Code    34  qgeocodexmlparser.o(t._ZN7QVectorI19QXmlStreamAttributeED1Ev)
    QVector<QXmlStreamAttribute>::~QVector__sub_object() 0x00014f93   Thumb Code     0  qgeocodexmlparser.o(t._ZN7QVectorI19QXmlStreamAttributeED1Ev)
    QPointer<QObject>::~QPointer()           0x00014fb5   Thumb Code    14  qgeoserviceproviderplugin_nokia.o(t._ZN8QPointerI7QObjectED1Ev)
    QPointer<QObject>::~QPointer__sub_object() 0x00014fb5   Thumb Code     0  qgeoserviceproviderplugin_nokia.o(t._ZN8QPointerI7QObjectED1Ev)
    QHashNode<QString, QList<CopyrightDescriptor>>::QHashNode(const QString&, const QList<CopyrightDescriptor>&) 0x00014fc3   Thumb Code    40  qgeotiledmapdata_nokia.o(t._ZN9QHashNodeI7QString5QListI19CopyrightDescriptorEEC1ERKS0_RKS3_)
    QHashNode<QString, QList<CopyrightDescriptor>>::QHashNode__sub_object(const QString&, const QList<CopyrightDescriptor>&) 0x00014fc3   Thumb Code     0  qgeotiledmapdata_nokia.o(t._ZN9QHashNodeI7QString5QListI19CopyrightDescriptorEEC1ERKS0_RKS3_)
    QHashNode<QString, QVariant>::QHashNode(const QString&, const QVariant&) 0x00014ff7   Thumb Code    40  qgeotiledmapdata_nokia.o(t._ZN9QHashNodeI7QString8QVariantEC1ERKS0_RKS1_)
    QHashNode<QString, QVariant>::QHashNode__sub_object(const QString&, const QVariant&) 0x00014ff7   Thumb Code     0  qgeotiledmapdata_nokia.o(t._ZN9QHashNodeI7QString8QVariantEC1ERKS0_RKS1_)
    QForeachContainer<QList<QVariant>>::condition() const 0x0001502b   Thumb Code    40  qgeotiledmapdata_nokia.o(t._ZNK17QForeachContainerI5QListI8QVariantEE9conditionEv)
    QMap<QString, QVariant>::value(const QString&) const 0x00015053   Thumb Code    98  qgeomappingmanagerengine_nokia.o(t._ZNK4QMapI7QString8QVariantE5valueERKS0_)
    QMap<QString, QVariant>::contains(const QString&) const 0x000150b5   Thumb Code    28  qgeomappingmanagerengine_nokia.o(t._ZNK4QMapI7QString8QVariantE8containsERKS0_)
    QMap<QString, QVariant>::findNode(const QString&) const 0x000150d1   Thumb Code   108  qgeomappingmanagerengine_nokia.o(t._ZNK4QMapI7QString8QVariantE8findNodeERKS0_)
    QHash<QString, QList<CopyrightDescriptor>>::findNode(const QString&, unsigned*) const 0x0001513d   Thumb Code   116  qgeotiledmapdata_nokia.o(t._ZNK5QHashI7QString5QListI19CopyrightDescriptorEE8findNodeERKS0_Pj)
    QHash<QString, QVariant>::keys() const   0x000151b1   Thumb Code   142  qgeotiledmapdata_nokia.o(t._ZNK5QHashI7QString8QVariantE4keysEv)
    QHash<QString, QVariant>::findNode(const QString&, unsigned*) const 0x00015249   Thumb Code   116  qgeotiledmapdata_nokia.o(t._ZNK5QHashI7QString8QVariantE8findNodeERKS0_Pj)
    QList<QGeoManeuverContainer>::at(int) const 0x000152bd   Thumb Code    22  qgeoroutexmlparser.o(t._ZNK5QListI21QGeoManeuverContainerE2atEi)
    QList<QGeoRouteSegmentContainer>::at(int) const 0x000152d3   Thumb Code    22  qgeoroutexmlparser.o(t._ZNK5QListI25QGeoRouteSegmentContainerE2atEi)
    QList<QVariant>::operator [](int) const  0x000152e9   Thumb Code    30  qgeotiledmapdata_nokia.o(t._ZNK5QListI8QVariantEixEi)
    QList<QtMobility::QGeoCoordinate>::isEmpty() const 0x00015307   Thumb Code    24  qgeoroutexmlparser.o(t._ZNK5QListIN10QtMobility14QGeoCoordinateEE7isEmptyEv)
    QList<QtMobility::QGeoRouteRequest::FeatureType>::at(int) const 0x0001531f   Thumb Code    22  qgeoroutingmanagerengine_nokia.o(t._ZNK5QListIN10QtMobility16QGeoRouteRequest11FeatureTypeEE2atEi)
    QList<QtMobility::QGeoRouteSegment>::at(int) const 0x00015335   Thumb Code    22  qgeoroutexmlparser.o(t._ZNK5QListIN10QtMobility16QGeoRouteSegmentEE2atEi)
    QFlags<QtMobility::QGeoRouteRequest::TravelMode>::testFlag(QtMobility::QGeoRouteRequest::TravelMode) const 0x0001534b   Thumb Code    28  qgeoroutingmanagerengine_nokia.o(t._ZNK6QFlagsIN10QtMobility16QGeoRouteRequest10TravelModeEE8testFlagES2_)
    QFlags<QtMobility::QGeoRouteRequest::RouteOptimization>::testFlag(QtMobility::QGeoRouteRequest::RouteOptimization) const 0x00015367   Thumb Code    28  qgeoroutingmanagerengine_nokia.o(t._ZNK6QFlagsIN10QtMobility16QGeoRouteRequest17RouteOptimizationEE8testFlagES2_)
    QGeoMappingManagerEngineNokia::staticMetaObject 0x000182ec   Data          16  moc_qgeomappingmanagerengine_nokia.o(.constdata)
    QGeoMapReplyNokia::staticMetaObject      0x000183dc   Data          16  moc_qgeomapreply_nokia.o(.constdata)
    QGeoRouteReplyNokia::staticMetaObject    0x000184a8   Data          16  moc_qgeoroutereply_nokia.o(.constdata)
    QGeoRoutingManagerEngineNokia::staticMetaObject 0x00018588   Data          16  moc_qgeoroutingmanagerengine_nokia.o(.constdata)
    QGeoSearchManagerEngineNokia::staticMetaObject 0x0001866c   Data          16  moc_qgeosearchmanagerengine_nokia.o(.constdata)
    QGeoSearchReplyNokia::staticMetaObject   0x0001873c   Data          16  moc_qgeosearchreply_nokia.o(.constdata)
    QGeoServiceProviderFactoryNokia::staticMetaObject 0x000187ac   Data          16  moc_qgeoserviceproviderplugin_nokia.o(.constdata)
    QGeoTiledMapDataNokia::staticMetaObject  0x0001884c   Data          16  moc_qgeotiledmapdata_nokia.o(.constdata)
    stlp_priv::_Integer_limits<signed char, (signed char)-128, (signed char)127, (int)-1, (bool)1>::digits 0x00019f38   Data           4  moc_qgeomappingmanagerengine_nokia.o(.constdata__ZN9stlp_priv15_Integer_limitsIaLan128ELa127ELin1ELb1EE6digitsE)
    stlp_priv::_Integer_limits<bool, (bool)0, (bool)1, (int)1, (bool)0>::digits 0x00019f3c   Data           4  moc_qgeomappingmanagerengine_nokia.o(.constdata__ZN9stlp_priv15_Integer_limitsIbLb0ELb1ELi1ELb0EE6digitsE)
    stlp_priv::_Integer_limits<char, (char)128, (char)127, (int)-1, (bool)1>::digits 0x00019f40   Data           4  moc_qgeomappingmanagerengine_nokia.o(.constdata__ZN9stlp_priv15_Integer_limitsIcLc128ELc127ELin1ELb1EE6digitsE)
    stlp_priv::_Integer_limits<unsigned char, (unsigned char)0, (unsigned char)255, (int)-1, (bool)1>::digits 0x00019f44   Data           4  moc_qgeomappingmanagerengine_nokia.o(.constdata__ZN9stlp_priv15_Integer_limitsIhLh0ELh255ELin1ELb1EE6digitsE)
    stlp_priv::_Integer_limits<int, (int)-2147483648, (int)2147483647, (int)-1, (bool)1>::digits 0x00019f48   Data           4  moc_qgeomappingmanagerengine_nokia.o(.constdata__ZN9stlp_priv15_Integer_limitsIiLin2147483648ELi2147483647ELin1ELb1EE6digitsE)
    stlp_priv::_Integer_limits<int, (int)-2147483648, (int)2147483647, (int)-1, (bool)1>::is_signed 0x00019f4c   Data           1  moc_qgeomappingmanagerengine_nokia.o(.constdata__ZN9stlp_priv15_Integer_limitsIiLin2147483648ELi2147483647ELin1ELb1EE9is_signedE)
    stlp_priv::_Integer_limits<unsigned, (unsigned)0, (unsigned)4294967295, (int)-1, (bool)1>::digits 0x00019f50   Data           4  moc_qgeomappingmanagerengine_nokia.o(.constdata__ZN9stlp_priv15_Integer_limitsIjLj0ELj4294967295ELin1ELb1EE6digitsE)
    stlp_priv::_Integer_limits<long, (long)-2147483648, (long)2147483647, (int)-1, (bool)1>::digits 0x00019f54   Data           4  moc_qgeomappingmanagerengine_nokia.o(.constdata__ZN9stlp_priv15_Integer_limitsIlLln2147483648ELl2147483647ELin1ELb1EE6digitsE)
    stlp_priv::_Integer_limits<unsigned long, (unsigned long)0, (unsigned long)4294967295, (int)-1, (bool)1>::digits 0x00019f58   Data           4  moc_qgeomappingmanagerengine_nokia.o(.constdata__ZN9stlp_priv15_Integer_limitsImLm0ELm4294967295ELin1ELb1EE6digitsE)
    stlp_priv::_Integer_limits<short, (short)-32768, (short)32767, (int)-1, (bool)1>::digits 0x00019f5c   Data           4  moc_qgeomappingmanagerengine_nokia.o(.constdata__ZN9stlp_priv15_Integer_limitsIsLsn32768ELs32767ELin1ELb1EE6digitsE)
    stlp_priv::_Integer_limits<unsigned short, (unsigned short)0, (unsigned short)65535, (int)-1, (bool)1>::digits 0x00019f60   Data           4  moc_qgeomappingmanagerengine_nokia.o(.constdata__ZN9stlp_priv15_Integer_limitsItLt0ELt65535ELin1ELb1EE6digitsE)
    stlp_priv::_Integer_limits<wchar_t, (wchar_t)0, (wchar_t)65535, (int)-1, (bool)1>::digits 0x00019f64   Data           4  moc_qgeomappingmanagerengine_nokia.o(.constdata__ZN9stlp_priv15_Integer_limitsIwLw0ELw65535ELin1ELb1EE6digitsE)
    stlp_priv::_Integer_limits<long long, (long long)-9223372036854775808, (long long)9223372036854775807, (int)-1, (bool)1>::digits 0x00019f68   Data           4  moc_qgeomappingmanagerengine_nokia.o(.constdata__ZN9stlp_priv15_Integer_limitsIxLxn9223372036854775808ELx9223372036854775807ELin1ELb1EE6digitsE)
    stlp_priv::_Integer_limits<unsigned long long, (unsigned long long)0, (unsigned long long)18446744073709551615, (int)-1, (bool)1>::digits 0x00019f6c   Data           4  moc_qgeomappingmanagerengine_nokia.o(.constdata__ZN9stlp_priv15_Integer_limitsIyLy0ELy18446744073709551615ELin1ELb1EE6digitsE)
    typeinfo for QGeoMapReplyNokia           0x00019f70   Data          12  moc_qgeomapreply_nokia.o(.constdata__ZTI17QGeoMapReplyNokia)
    typeinfo for QGeoRouteReplyNokia         0x00019f7c   Data          12  moc_qgeoroutereply_nokia.o(.constdata__ZTI19QGeoRouteReplyNokia)
    typeinfo for QGeoSearchReplyNokia        0x00019f88   Data          12  moc_qgeosearchreply_nokia.o(.constdata__ZTI20QGeoSearchReplyNokia)
    typeinfo for QGeoTiledMapDataNokia       0x00019f94   Data          12  moc_qgeotiledmapdata_nokia.o(.constdata__ZTI21QGeoTiledMapDataNokia)
    typeinfo for QGeoSearchManagerEngineNokia 0x00019fa0   Data          12  moc_qgeosearchmanagerengine_nokia.o(.constdata__ZTI28QGeoSearchManagerEngineNokia)
    typeinfo for QGeoMappingManagerEngineNokia 0x00019fac   Data          12  moc_qgeomappingmanagerengine_nokia.o(.constdata__ZTI29QGeoMappingManagerEngineNokia)
    typeinfo for QGeoRoutingManagerEngineNokia 0x00019fb8   Data          12  moc_qgeoroutingmanagerengine_nokia.o(.constdata__ZTI29QGeoRoutingManagerEngineNokia)
    typeinfo for QGeoServiceProviderFactoryNokia 0x00019fc4   Data          32  moc_qgeoserviceproviderplugin_nokia.o(.constdata__ZTI31QGeoServiceProviderFactoryNokia)
    typeinfo name for QGeoMapReplyNokia      0x00019fe4   Data          20  moc_qgeomapreply_nokia.o(.constdata__ZTS17QGeoMapReplyNokia)
    typeinfo name for QGeoRouteReplyNokia    0x00019ff8   Data          22  moc_qgeoroutereply_nokia.o(.constdata__ZTS19QGeoRouteReplyNokia)
    typeinfo name for QGeoSearchReplyNokia   0x0001a00e   Data          23  moc_qgeosearchreply_nokia.o(.constdata__ZTS20QGeoSearchReplyNokia)
    typeinfo name for QGeoTiledMapDataNokia  0x0001a025   Data          24  moc_qgeotiledmapdata_nokia.o(.constdata__ZTS21QGeoTiledMapDataNokia)
    typeinfo name for QGeoSearchManagerEngineNokia 0x0001a03d   Data          31  moc_qgeosearchmanagerengine_nokia.o(.constdata__ZTS28QGeoSearchManagerEngineNokia)
    typeinfo name for QGeoMappingManagerEngineNokia 0x0001a05c   Data          32  moc_qgeomappingmanagerengine_nokia.o(.constdata__ZTS29QGeoMappingManagerEngineNokia)
    typeinfo name for QGeoRoutingManagerEngineNokia 0x0001a07c   Data          32  moc_qgeoroutingmanagerengine_nokia.o(.constdata__ZTS29QGeoRoutingManagerEngineNokia)
    typeinfo name for QGeoServiceProviderFactoryNokia 0x0001a09c   Data          34  moc_qgeoserviceproviderplugin_nokia.o(.constdata__ZTS31QGeoServiceProviderFactoryNokia)
    vtable for QGeoMapReplyNokia             0x0001a0c0   Data          60  moc_qgeomapreply_nokia.o(.constdata__ZTV17QGeoMapReplyNokia)
    vtable for QGeoRouteReplyNokia           0x0001a0fc   Data          60  moc_qgeoroutereply_nokia.o(.constdata__ZTV19QGeoRouteReplyNokia)
    vtable for QGeoSearchReplyNokia          0x0001a138   Data          60  moc_qgeosearchreply_nokia.o(.constdata__ZTV20QGeoSearchReplyNokia)
    vtable for QGeoTiledMapDataNokia         0x0001a174   Data         160  moc_qgeotiledmapdata_nokia.o(.constdata__ZTV21QGeoTiledMapDataNokia)
    vtable for QGeoSearchManagerEngineNokia  0x0001a214   Data          68  moc_qgeosearchmanagerengine_nokia.o(.constdata__ZTV28QGeoSearchManagerEngineNokia)
    vtable for QGeoMappingManagerEngineNokia 0x0001a258   Data          64  moc_qgeomappingmanagerengine_nokia.o(.constdata__ZTV29QGeoMappingManagerEngineNokia)
    vtable for QGeoRoutingManagerEngineNokia 0x0001a298   Data          64  moc_qgeoroutingmanagerengine_nokia.o(.constdata__ZTV29QGeoRoutingManagerEngineNokia)
    vtable for QGeoServiceProviderFactoryNokia 0x0001a2d8   Data         112  moc_qgeoserviceproviderplugin_nokia.o(.constdata__ZTV31QGeoServiceProviderFactoryNokia)
    SHT$$INIT_ARRAY$$Base                    0x0001a348   Number         0  qrc_resource.o(.init_array)
    .ARM.exidx$$Base                         0x0001a350   Number         0  ucppinit.o(.ARM.exidx)
    SHT$$INIT_ARRAY$$Limit                   0x0001a350   Data           0  qgeoserviceproviderplugin_nokia.o(.init_array)
    .ARM.exidx$$Limit                        0x0001afc0   Number         0  qgeoroutingmanagerengine_nokia.o(.ARM.exidx)
    Image$$ER_RO$$Limit                      0x0001afc0   Number         0  anon$$obj.o(linker$$defined$$symbols)
    qCleanupResources_resource__dest_instance__ 0x00400004   Data           1  qrc_resource.o(.data)
    QGeoServiceProviderFactoryNokia::defaultToken 0x00400044   Data           4  qgeoserviceproviderplugin_nokia.o(.data)
    QGeoServiceProviderFactoryNokia::defaultReferer 0x00400048   Data           4  qgeoserviceproviderplugin_nokia.o(.data)
    __dso_handle                             0x0040004c   Data           4  ucppfini.o(.data)
    std::_Atomic_swap_struct<(int)1>::_S_swap_lock 0x00400050   Data          12  moc_qgeomappingmanagerengine_nokia.o(.data__ZNSt19_Atomic_swap_structILi1EE12_S_swap_lockE)
    dtor_rec                                 0x0040005c   Data        2048  ucppfini.o(.bss)

