ARM Linker, RVCT2.2 [Build 686]

================================================================================

Image Symbol Table

    Local Symbols

    Symbol Name                              Value     Ov Type        Size  Object(Section)

    ../../unhosted.s                         0x00000000   Number         0  switch8.o ABSOLUTE
    M:\\epoc32\\build\\euser\\c_e18a23aea4fd210f\\edll_lib\\armv5\\udeb\\uc_dll_.cpp 0x00000000   Number         0  uc_dll_.o ABSOLUTE
    M:\\sf\\os\\kernelhwsrv\\kernel\\eka\\compsupp\\rvct\\ucppinit.cpp 0x00000000   Number         0  ucppinit.o ABSOLUTE
    M:\epoc32\build\euser\c_e18a23aea4fd210f\edll_lib\armv5\udeb\uc_dll_.cpp 0x00000000   Number         0  uc_dll_.o ABSOLUTE
    M:\sf\os\kernelhwsrv\kernel\eka\compsupp\rvct\dllexp.cpp 0x00000000   Number         0  dllexp.o ABSOLUTE
    M:\sf\os\kernelhwsrv\kernel\eka\compsupp\rvct\ucppfini.cpp 0x00000000   Number         0  ucppfini.o ABSOLUTE
    M:\sf\os\kernelhwsrv\kernel\eka\compsupp\rvct\ucppinit.cpp 0x00000000   Number         0  ucppinit.o ABSOLUTE
    M:\sf\os\kernelhwsrv\kernel\eka\euser\epoc\arm\uc_dll.cpp 0x00000000   Number         0  uc_dll.o ABSOLUTE
    S:\sf\mw\qtmobility\build\Release\qtlandmarks_symbian\moc\moc_qlandmarkmanagerengine_symbian.cpp 0x00000000   Number         0  moc_qlandmarkmanagerengine_symbian.o ABSOLUTE
    S:\sf\mw\qtmobility\build\Release\qtlandmarks_symbian\moc\moc_qlandmarkmanagerenginefactory_symbian.cpp 0x00000000   Number         0  moc_qlandmarkmanagerenginefactory_symbian.o ABSOLUTE
    S:\sf\mw\qtmobility\plugins\landmarks\symbian_landmarks\src\qlandmarkdbeventhandler.cpp 0x00000000   Number         0  qlandmarkdbeventhandler.o ABSOLUTE
    S:\sf\mw\qtmobility\plugins\landmarks\symbian_landmarks\src\qlandmarkmanagerengine_symbian.cpp 0x00000000   Number         0  qlandmarkmanagerengine_symbian.o ABSOLUTE
    S:\sf\mw\qtmobility\plugins\landmarks\symbian_landmarks\src\qlandmarkmanagerengine_symbian_p.cpp 0x00000000   Number         0  qlandmarkmanagerengine_symbian_p.o ABSOLUTE
    S:\sf\mw\qtmobility\plugins\landmarks\symbian_landmarks\src\qlandmarkmanagerenginefactory_symbian.cpp 0x00000000   Number         0  qlandmarkmanagerenginefactory_symbian.o ABSOLUTE
    S:\sf\mw\qtmobility\plugins\landmarks\symbian_landmarks\src\qlandmarkrequesthandler.cpp 0x00000000   Number         0  qlandmarkrequesthandler.o ABSOLUTE
    S:\sf\mw\qtmobility\plugins\landmarks\symbian_landmarks\src\qlandmarkutility.cpp 0x00000000   Number         0  qlandmarkutility.o ABSOLUTE
    .emb_text                                0x00008000   Section       40  uc_dll_.o(.emb_text)
    Symbian$$eit_base                        0x00008014   Data           4  uc_dll_.o(.emb_text)
    Symbian$$eit_limit                       0x00008018   Data           4  uc_dll_.o(.emb_text)
    Symbian$$code_seg_base                   0x0000801c   Data           4  uc_dll_.o(.emb_text)
    Symbian$$code_seg_limit                  0x00008020   Data           4  uc_dll_.o(.emb_text)
    Symbian$$reserved                        0x00008024   Data           4  uc_dll_.o(.emb_text)
    .emb_text                                0x00008028   Section       52  ucppinit.o(.emb_text)
    loop                                     0x0000803c   ARM Code       0  ucppinit.o(.emb_text)
    ret                                      0x00008044   ARM Code       0  ucppinit.o(.emb_text)
    base                                     0x00008054   Data           0  ucppinit.o(.emb_text)
    limit                                    0x00008058   Data           0  ucppinit.o(.emb_text)
    .text                                    0x00008e54   Section      236  moc_qlandmarkmanagerenginefactory_symbian.o(.text)
    .text                                    0x00008f40   Section      160  moc_qlandmarkmanagerengine_symbian.o(.text)
    .text                                    0x00008fe0   Section     1102  qlandmarkmanagerenginefactory_symbian.o(.text)
    .text                                    0x00009430   Section     1544  qlandmarkmanagerengine_symbian.o(.text)
    qFuzzyCompare(double, double)            0x00009a39   Thumb Code   102  qlandmarkmanagerengine_symbian_p.o(.text)
    .text                                    0x00009a38   Section    38560  qlandmarkmanagerengine_symbian_p.o(.text)
    qFuzzyCompare(float, float)              0x00009a9f   Thumb Code    84  qlandmarkmanagerengine_symbian_p.o(.text)
    |L1.1076|                                0x00009e6c   Data           0  qlandmarkmanagerengine_symbian_p.o(.text)
    |L1.1092|                                0x00009e7c   Data           0  qlandmarkmanagerengine_symbian_p.o(.text)
    |L1.1100|                                0x00009e84   Data           0  qlandmarkmanagerengine_symbian_p.o(.text)
    |L1.1108|                                0x00009e8c   Data           0  qlandmarkmanagerengine_symbian_p.o(.text)
    |L1.1116|                                0x00009e94   Data           0  qlandmarkmanagerengine_symbian_p.o(.text)
    |L1.2220|                                0x0000a2e4   Data           0  qlandmarkmanagerengine_symbian_p.o(.text)
    |L1.3764|                                0x0000a8ec   Data           0  qlandmarkmanagerengine_symbian_p.o(.text)
    |L1.3804|                                0x0000a914   Data           0  qlandmarkmanagerengine_symbian_p.o(.text)
    |L1.6092|                                0x0000b204   Data           0  qlandmarkmanagerengine_symbian_p.o(.text)
    |L1.15804|                               0x0000d7f4   Data           0  qlandmarkmanagerengine_symbian_p.o(.text)
    |L1.21940|                               0x0000efec   Data           0  qlandmarkmanagerengine_symbian_p.o(.text)
    __sti___36_qlandmarkmanagerengine_symbian_p_cpp 0x0001309f   Thumb Code    36  qlandmarkmanagerengine_symbian_p.o(.text)
    .text                                    0x000130d8   Section    10284  qlandmarkutility.o(.text)
    |L1.2124|                                0x00013924   Data           0  qlandmarkutility.o(.text)
    |L1.2152|                                0x00013940   Data           0  qlandmarkutility.o(.text)
    |L1.4352|                                0x000141d8   Data           0  qlandmarkutility.o(.text)
    |L1.9200|                                0x000154c8   Data           0  qlandmarkutility.o(.text)
    |L1.9252|                                0x000154fc   Data           0  qlandmarkutility.o(.text)
    |L1.9260|                                0x00015504   Data           0  qlandmarkutility.o(.text)
    |L1.9272|                                0x00015510   Data           0  qlandmarkutility.o(.text)
    |L1.9280|                                0x00015518   Data           0  qlandmarkutility.o(.text)
    |L1.9288|                                0x00015520   Data           0  qlandmarkutility.o(.text)
    |L1.9296|                                0x00015528   Data           0  qlandmarkutility.o(.text)
    |L1.9308|                                0x00015534   Data           0  qlandmarkutility.o(.text)
    |L1.9316|                                0x0001553c   Data           0  qlandmarkutility.o(.text)
    .text                                    0x00015904   Section      668  qlandmarkdbeventhandler.o(.text)
    .text                                    0x00015ba0   Section     4234  qlandmarkrequesthandler.o(.text)
    .text                                    0x00016c2c   Section       24  switch8.o(.text)
    .text                                    0x00016c44   Section       80  uc_dll.o(.text)
    .text                                    0x00016c94   Section      180  ucppfini.o(.text)
    .text                                    0x00016d48   Section        4  dllexp.o(.text)
    .text.clean                              0x00016d4c   Section      152  qlandmarkmanagerenginefactory_symbian.o(.text.clean)
    .text.clean                              0x00016de4   Section       30  qlandmarkmanagerengine_symbian.o(.text.clean)
    .text.clean                              0x00016e02   Section     4632  qlandmarkmanagerengine_symbian_p.o(.text.clean)
    .text.clean                              0x0001801c   Section     1408  qlandmarkutility.o(.text.clean)
    .text.clean                              0x0001859c   Section       40  qlandmarkdbeventhandler.o(.text.clean)
    .text.clean                              0x000185c4   Section      504  qlandmarkrequesthandler.o(.text.clean)
    i._Z18ExecuteAndDeleteLDP15CPosLmOperation 0x000187bc   Section       26  qlandmarkmanagerengine_symbian_p.o(i._Z18ExecuteAndDeleteLDP15CPosLmOperation)
    i._Z23qStringComparisonHelperRK7QStringPKc 0x000187d8   Section       76  qlandmarkutility.o(i._Z23qStringComparisonHelperRK7QStringPKc)
    i._Z23qStringComparisonHelperRK7QStringPKc.clean 0x00018824   Section       10  qlandmarkutility.o(i._Z23qStringComparisonHelperRK7QStringPKc.clean)
    i._Z6qDebugv                             0x0001882e   Section       92  qlandmarkutility.o(i._Z6qDebugv)
    i._Z6qDebugv.clean                       0x0001888a   Section       24  qlandmarkutility.o(i._Z6qDebugv.clean)
    i._ZN10QByteArrayD1Ev                    0x000188a2   Section       24  qlandmarkutility.o(i._ZN10QByteArrayD1Ev)
    i._ZN10QtMobility24QLandmarkProximityFilteraSERKS0_ 0x000188ba   Section       18  qlandmarkmanagerengine_symbian_p.o(i._ZN10QtMobility24QLandmarkProximityFilteraSERKS0_)
    i._ZN11QStringListC1Ev                   0x000188cc   Section       14  qlandmarkmanagerengine_symbian_p.o(i._ZN11QStringListC1Ev)
    i._ZN11QStringListD1Ev                   0x000188da   Section       14  qlandmarkmanagerengine_symbian_p.o(i._ZN11QStringListD1Ev)
    i._ZN11QStringListlsERK7QString          0x000188e8   Section       18  qlandmarkmanagerengine_symbian_p.o(i._ZN11QStringListlsERK7QString)
    i._ZN12CleanupStack13PopAndDestroyEPv    0x000188fa   Section       16  qlandmarkmanagerengine_symbian_p.o(i._ZN12CleanupStack13PopAndDestroyEPv)
    i._ZN12CleanupStack3PopEPv               0x0001890a   Section       16  qlandmarkmanagerengine_symbian_p.o(i._ZN12CleanupStack3PopEPv)
    i._ZN14TRequestStatusaSEi                0x0001891c   Section       36  qlandmarkmanagerengine_symbian_p.o(i._ZN14TRequestStatusaSEi)
    i._ZN15LandmarkUtility10isValidLatEd     0x00018940   Section       56  qlandmarkmanagerengine_symbian_p.o(i._ZN15LandmarkUtility10isValidLatEd)
    i._ZN15LandmarkUtility11isValidLongEd    0x00018978   Section       56  qlandmarkmanagerengine_symbian_p.o(i._ZN15LandmarkUtility11isValidLongEd)
    i._ZN15QBasicAtomicInt3refEv             0x000189b0   Section       24  qlandmarkmanagerenginefactory_symbian.o(i._ZN15QBasicAtomicInt3refEv)
    i._ZN15QBasicAtomicInt5derefEv           0x000189c8   Section       24  qlandmarkmanagerenginefactory_symbian.o(i._ZN15QBasicAtomicInt5derefEv)
    i._ZN17QForeachContainerI5QListIN10QtMobility11QLandmarkIdEEED1Ev 0x000189e0   Section       14  qlandmarkmanagerengine_symbian_p.o(i._ZN17QForeachContainerI5QListIN10QtMobility11QLandmarkIdEEED1Ev)
    i._ZN17QForeachContainerI5QListIN10QtMobility19QLandmarkCategoryIdEEED1Ev 0x000189ee   Section       14  qlandmarkmanagerengine_symbian_p.o(i._ZN17QForeachContainerI5QListIN10QtMobility19QLandmarkCategoryIdEEED1Ev)
    i._ZN4QSetI7QStringED1Ev                 0x000189fc   Section       14  qlandmarkmanagerengine_symbian_p.o(i._ZN4QSetI7QStringED1Ev)
    i._ZN4QSetIN10QtMobility11QLandmarkIdEED1Ev 0x00018a0a   Section       14  qlandmarkmanagerengine_symbian_p.o(i._ZN4QSetIN10QtMobility11QLandmarkIdEED1Ev)
    i._ZN6QDebug10maybeSpaceEv               0x00018a18   Section       24  qlandmarkutility.o(i._ZN6QDebug10maybeSpaceEv)
    i._ZN6QDebugD1Ev                         0x00018a30   Section      154  qlandmarkutility.o(i._ZN6QDebugD1Ev)
    i._ZN6QDebugD1Ev.clean                   0x00018aca   Section       20  qlandmarkutility.o(i._ZN6QDebugD1Ev.clean)
    i._ZN6QDebuglsEPKc                       0x00018ade   Section       44  qlandmarkutility.o(i._ZN6QDebuglsEPKc)
    i._ZN6QDebuglsEPKc.clean                 0x00018b0a   Section       10  qlandmarkutility.o(i._ZN6QDebuglsEPKc.clean)
    i._ZN6QDebuglsEi                         0x00018b14   Section       22  qlandmarkutility.o(i._ZN6QDebuglsEi)
    i._ZN6RArrayIjE13InsertInOrderEj         0x00018b2a   Section       18  qlandmarkmanagerengine_symbian_p.o(i._ZN6RArrayIjE13InsertInOrderEj)
    i._ZN7QString5clearEv                    0x00018b3c   Section       40  qlandmarkmanagerengine_symbian_p.o(i._ZN7QString5clearEv)
    i._ZN7QString5clearEv.clean              0x00018b64   Section       10  qlandmarkmanagerengine_symbian_p.o(i._ZN7QString5clearEv.clean)
    i._ZN7QString6insertEiRKS_               0x00018b6e   Section       34  qlandmarkutility.o(i._ZN7QString6insertEiRKS_)
    i._ZN7QString6setNumEmi                  0x00018b90   Section       30  qlandmarkutility.o(i._ZN7QString6setNumEmi)
    i._ZN7QStringC1EPKc                      0x00018bae   Section       22  qlandmarkmanagerenginefactory_symbian.o(i._ZN7QStringC1EPKc)
    i._ZN7QStringC1ERKS_                     0x00018bc4   Section       22  qlandmarkmanagerenginefactory_symbian.o(i._ZN7QStringC1ERKS_)
    i._ZN7QStringC1Ev                        0x00018bdc   Section       24  qlandmarkmanagerenginefactory_symbian.o(i._ZN7QStringC1Ev)
    i._ZN7QStringD1Ev                        0x00018bf4   Section       24  qlandmarkmanagerenginefactory_symbian.o(i._ZN7QStringD1Ev)
    i._ZN7QStringaSEPKc                      0x00018c0c   Section       40  qlandmarkmanagerengine_symbian_p.o(i._ZN7QStringaSEPKc)
    i._ZN7QStringaSEPKc.clean                0x00018c34   Section       10  qlandmarkmanagerengine_symbian_p.o(i._ZN7QStringaSEPKc.clean)
    i._ZN9QHashData8willGrowEv               0x00018c3e   Section       32  qlandmarkmanagerengine_symbian_p.o(i._ZN9QHashData8willGrowEv)
    i._ZN9QHashData9firstNodeEv              0x00018c5e   Section       36  qlandmarkmanagerengine_symbian_p.o(i._ZN9QHashData9firstNodeEv)
    i._ZN9QHashData9hasShrunkEv              0x00018c82   Section       82  qlandmarkmanagerengine_symbian_p.o(i._ZN9QHashData9hasShrunkEv)
    i._ZNK11QStringList8containsERK7QStringN2Qt15CaseSensitivityE 0x00018cd4   Section       22  qlandmarkmanagerengine_symbian_p.o(i._ZNK11QStringList8containsERK7QStringN2Qt15CaseSensitivityE)
    i._ZNK14TRequestStatuseqEi               0x00018cea   Section       16  qlandmarkrequesthandler.o(i._ZNK14TRequestStatuseqEi)
    i._ZNK15QBasicAtomicInteqEi              0x00018cfa   Section       16  qlandmarkmanagerengine_symbian_p.o(i._ZNK15QBasicAtomicInteqEi)
    i._ZNK15QBasicAtomicIntneEi              0x00018d0a   Section       16  qlandmarkmanagerenginefactory_symbian.o(i._ZNK15QBasicAtomicIntneEi)
    i._ZNK5QBoolcvPKvEv                      0x00018d1a   Section       16  qlandmarkmanagerengine_symbian_p.o(i._ZNK5QBoolcvPKvEv)
    i._ZNK7QString3argEiiiRK5QChar           0x00018d2a   Section       36  qlandmarkmanagerengine_symbian_p.o(i._ZNK7QString3argEiiiRK5QChar)
    i._ZNK7QString6isNullEv                  0x00018d50   Section       24  qlandmarkmanagerengine_symbian_p.o(i._ZNK7QString6isNullEv)
    i._ZNK7QString7isEmptyEv                 0x00018d68   Section       18  qlandmarkmanagerengine_symbian_p.o(i._ZNK7QString7isEmptyEv)
    i._ZNK7QStringeqEPKc                     0x00018d7a   Section       16  qlandmarkutility.o(i._ZNK7QStringeqEPKc)
    i._ZNK7QStringneERKS_                    0x00018d8a   Section       20  qlandmarkmanagerengine_symbian_p.o(i._ZNK7QStringneERKS_)
    i._ZNK9QListData2atEi                    0x00018d9e   Section       20  qlandmarkmanagerengine_symbian_p.o(i._ZNK9QListData2atEi)
    i._ZNK9QListData3endEv                   0x00018db2   Section       16  qlandmarkmanagerenginefactory_symbian.o(i._ZNK9QListData3endEv)
    i._ZNK9QListData4sizeEv                  0x00018dc2   Section       14  qlandmarkmanagerengine_symbian_p.o(i._ZNK9QListData4sizeEv)
    i._ZNK9QListData5beginEv                 0x00018dd0   Section       16  qlandmarkmanagerenginefactory_symbian.o(i._ZNK9QListData5beginEv)
    i._ZNK9QListData7isEmptyEv               0x00018de0   Section       22  qlandmarkmanagerengine_symbian_p.o(i._ZNK9QListData7isEmptyEv)
    i._ZdlPvS_                               0x00018df6   Section        2  qlandmarkmanagerenginefactory_symbian.o(i._ZdlPvS_)
    i._ZnwjPv                                0x00018df8   Section        6  qlandmarkmanagerenginefactory_symbian.o(i._ZnwjPv)
    t._Z15qMapLessThanKeyIiEbRKT_S2_         0x00018dfe   Section       18  qlandmarkmanagerengine_symbian_p.o(t._Z15qMapLessThanKeyIiEbRKT_S2_)
    t._Z17CleanupClosePushLI13RApaLsSessionEvRT_ 0x00018e10   Section       28  qlandmarkmanagerengine_symbian_p.o(t._Z17CleanupClosePushLI13RApaLsSessionEvRT_)
    t._Z17CleanupClosePushLI3RFsEvRT_        0x00018e2c   Section       28  qlandmarkmanagerengine_symbian_p.o(t._Z17CleanupClosePushLI3RFsEvRT_)
    t._Z20qForeachContainerNewI5QListIN10QtMobility11QLandmarkIdEEE17QForeachContainerIT_ERKS5_ 0x00018e48   Section      102  qlandmarkmanagerengine_symbian_p.o(t._Z20qForeachContainerNewI5QListIN10QtMobility11QLandmarkIdEEE17QForeachContainerIT_ERKS5_)
    t._Z20qForeachContainerNewI5QListIN10QtMobility11QLandmarkIdEEE17QForeachContainerIT_ERKS5_.clean 0x00018eae   Section       10  qlandmarkmanagerengine_symbian_p.o(t._Z20qForeachContainerNewI5QListIN10QtMobility11QLandmarkIdEEE17QForeachContainerIT_ERKS5_.clean)
    t._Z4qAbsIdET_RKS0_                      0x00018eb8   Section       56  qlandmarkmanagerengine_symbian_p.o(t._Z4qAbsIdET_RKS0_)
    t._Z4qAbsIfET_RKS0_                      0x00018ef0   Section       28  qlandmarkmanagerengine_symbian_p.o(t._Z4qAbsIfET_RKS0_)
    t._ZN12CleanupCloseI13RApaLsSessionE5CloseEPv 0x00018f0c   Section       12  qlandmarkmanagerengine_symbian_p.o(t._ZN12CleanupCloseI13RApaLsSessionE5CloseEPv)
    t._ZN12CleanupCloseI3RFsE5CloseEPv       0x00018f18   Section       12  qlandmarkmanagerengine_symbian_p.o(t._ZN12CleanupCloseI3RFsE5CloseEPv)
    t._ZN13RPointerArrayI20CLandmarkRequestDataEixEi 0x00018f24   Section       16  qlandmarkrequesthandler.o(t._ZN13RPointerArrayI20CLandmarkRequestDataEixEi)
    t._ZN14QHashDummyNodeI7QString15QHashDummyValueEC1ERKS0_ 0x00018f34   Section       24  qlandmarkmanagerengine_symbian_p.o(t._ZN14QHashDummyNodeI7QString15QHashDummyValueEC1ERKS0_)
    t._ZN14QHashDummyNodeIN10QtMobility11QLandmarkIdE15QHashDummyValueEC1ERKS1_ 0x00018f4c   Section       24  qlandmarkmanagerengine_symbian_p.o(t._ZN14QHashDummyNodeIN10QtMobility11QLandmarkIdE15QHashDummyValueEC1ERKS1_)
    t._ZN4QMapI7QStringS0_E11node_createEP8QMapDataPPNS2_4NodeERKS0_S8_ 0x00018f64   Section      140  qlandmarkmanagerengine_symbian_p.o(t._ZN4QMapI7QStringS0_E11node_createEP8QMapDataPPNS2_4NodeERKS0_S8_)
    t._ZN4QMapI7QStringS0_E11node_createEP8QMapDataPPNS2_4NodeERKS0_S8_.clean 0x00018ff0   Section       38  qlandmarkmanagerengine_symbian_p.o(t._ZN4QMapI7QStringS0_E11node_createEP8QMapDataPPNS2_4NodeERKS0_S8_.clean)
    t._ZN4QMapI7QStringS0_E13detach_helperEv 0x00019016   Section      146  qlandmarkmanagerengine_symbian_p.o(t._ZN4QMapI7QStringS0_E13detach_helperEv)
    t._ZN4QMapI7QStringS0_E13detach_helperEv.clean 0x000190a8   Section        8  qlandmarkmanagerengine_symbian_p.o(t._ZN4QMapI7QStringS0_E13detach_helperEv.clean)
    t._ZN4QMapI7QStringS0_E8freeDataEP8QMapData 0x000190b0   Section       62  qlandmarkmanagerengine_symbian_p.o(t._ZN4QMapI7QStringS0_E8freeDataEP8QMapData)
    t._ZN4QMapI7QStringS0_ED1Ev              0x000190ee   Section       38  qlandmarkmanagerengine_symbian_p.o(t._ZN4QMapI7QStringS0_ED1Ev)
    t._ZN4QMapIiN10QtMobility16QLandmarkManager5ErrorEE11node_createEP8QMapDataPPNS4_4NodeERKiRKS2_ 0x00019114   Section       82  qlandmarkmanagerengine_symbian_p.o(t._ZN4QMapIiN10QtMobility16QLandmarkManager5ErrorEE11node_createEP8QMapDataPPNS4_4NodeERKiRKS2_)
    t._ZN4QMapIiN10QtMobility16QLandmarkManager5ErrorEE11node_createEP8QMapDataPPNS4_4NodeERKiRKS2_.clean 0x00019166   Section        4  qlandmarkmanagerengine_symbian_p.o(t._ZN4QMapIiN10QtMobility16QLandmarkManager5ErrorEE11node_createEP8QMapDataPPNS4_4NodeERKiRKS2_.clean)
    t._ZN4QMapIiN10QtMobility16QLandmarkManager5ErrorEE13detach_helperEv 0x0001916a   Section      146  qlandmarkmanagerengine_symbian_p.o(t._ZN4QMapIiN10QtMobility16QLandmarkManager5ErrorEE13detach_helperEv)
    t._ZN4QMapIiN10QtMobility16QLandmarkManager5ErrorEE13detach_helperEv.clean 0x000191fc   Section        8  qlandmarkmanagerengine_symbian_p.o(t._ZN4QMapIiN10QtMobility16QLandmarkManager5ErrorEE13detach_helperEv.clean)
    t._ZN4QMapIiN10QtMobility16QLandmarkManager5ErrorEE5clearEv 0x00019204   Section       82  qlandmarkmanagerengine_symbian_p.o(t._ZN4QMapIiN10QtMobility16QLandmarkManager5ErrorEE5clearEv)
    t._ZN4QMapIiN10QtMobility16QLandmarkManager5ErrorEE5clearEv.clean 0x00019256   Section       10  qlandmarkmanagerengine_symbian_p.o(t._ZN4QMapIiN10QtMobility16QLandmarkManager5ErrorEE5clearEv.clean)
    t._ZN4QMapIiN10QtMobility16QLandmarkManager5ErrorEE6insertERKiRKS2_ 0x00019260   Section       92  qlandmarkmanagerengine_symbian_p.o(t._ZN4QMapIiN10QtMobility16QLandmarkManager5ErrorEE6insertERKiRKS2_)
    t._ZN4QMapIiN10QtMobility16QLandmarkManager5ErrorEE8freeDataEP8QMapData 0x000192bc   Section       48  qlandmarkmanagerengine_symbian_p.o(t._ZN4QMapIiN10QtMobility16QLandmarkManager5ErrorEE8freeDataEP8QMapData)
    t._ZN4QMapIiN10QtMobility16QLandmarkManager5ErrorEEC1Ev 0x000192ec   Section       28  qlandmarkmanagerengine_symbian_p.o(t._ZN4QMapIiN10QtMobility16QLandmarkManager5ErrorEEC1Ev)
    t._ZN4QMapIiN10QtMobility16QLandmarkManager5ErrorEED1Ev 0x00019308   Section       38  qlandmarkmanagerengine_symbian_p.o(t._ZN4QMapIiN10QtMobility16QLandmarkManager5ErrorEED1Ev)
    t._ZN4QSetI7QStringE6insertERKS0_        0x0001932e   Section       46  qlandmarkmanagerengine_symbian_p.o(t._ZN4QSetI7QStringE6insertERKS0_)
    t._ZN4QSetI7QStringE9intersectERKS1_     0x0001935c   Section      180  qlandmarkmanagerengine_symbian_p.o(t._ZN4QSetI7QStringE9intersectERKS1_)
    t._ZN4QSetI7QStringE9intersectERKS1_.clean 0x00019410   Section       16  qlandmarkmanagerengine_symbian_p.o(t._ZN4QSetI7QStringE9intersectERKS1_.clean)
    t._ZN4QSetI7QStringEC1ERKS1_             0x00019420   Section       42  qlandmarkmanagerengine_symbian_p.o(t._ZN4QSetI7QStringEC1ERKS1_)
    t._ZN4QSetI7QStringEC1Ev                 0x0001944c   Section       28  qlandmarkmanagerengine_symbian_p.o(t._ZN4QSetI7QStringEC1Ev)
    t._ZN4QSetIN10QtMobility11QLandmarkIdEE9intersectERKS2_ 0x00019468   Section      180  qlandmarkmanagerengine_symbian_p.o(t._ZN4QSetIN10QtMobility11QLandmarkIdEE9intersectERKS2_)
    t._ZN4QSetIN10QtMobility11QLandmarkIdEE9intersectERKS2_.clean 0x0001951c   Section       16  qlandmarkmanagerengine_symbian_p.o(t._ZN4QSetIN10QtMobility11QLandmarkIdEE9intersectERKS2_.clean)
    t._ZN4QSetIN10QtMobility11QLandmarkIdEEC1ERKS2_ 0x0001952c   Section       42  qlandmarkmanagerengine_symbian_p.o(t._ZN4QSetIN10QtMobility11QLandmarkIdEEC1ERKS2_)
    t._ZN4QSetIN10QtMobility11QLandmarkIdEEC1Ev 0x00019558   Section       28  qlandmarkmanagerengine_symbian_p.o(t._ZN4QSetIN10QtMobility11QLandmarkIdEEC1Ev)
    t._ZN5QHashI7QString15QHashDummyValueE11deleteNode2EPN9QHashData4NodeE 0x00019574   Section       24  qlandmarkmanagerengine_symbian_p.o(t._ZN5QHashI7QString15QHashDummyValueE11deleteNode2EPN9QHashData4NodeE)
    t._ZN5QHashI7QString15QHashDummyValueE13detach_helperEv 0x0001958c   Section       60  qlandmarkmanagerengine_symbian_p.o(t._ZN5QHashI7QString15QHashDummyValueE13detach_helperEv)
    t._ZN5QHashI7QString15QHashDummyValueE13duplicateNodeEPN9QHashData4NodeEPv 0x000195c8   Section       44  qlandmarkmanagerengine_symbian_p.o(t._ZN5QHashI7QString15QHashDummyValueE13duplicateNodeEPN9QHashData4NodeEPv)
    t._ZN5QHashI7QString15QHashDummyValueE13duplicateNodeEPN9QHashData4NodeEPv.clean 0x000195f4   Section       12  qlandmarkmanagerengine_symbian_p.o(t._ZN5QHashI7QString15QHashDummyValueE13duplicateNodeEPN9QHashData4NodeEPv.clean)
    t._ZN5QHashI7QString15QHashDummyValueE6detachEv 0x00019600   Section       28  qlandmarkmanagerengine_symbian_p.o(t._ZN5QHashI7QString15QHashDummyValueE6detachEv)
    t._ZN5QHashI7QString15QHashDummyValueE6insertERKS0_RKS1_ 0x0001961c   Section      168  qlandmarkmanagerengine_symbian_p.o(t._ZN5QHashI7QString15QHashDummyValueE6insertERKS0_RKS1_)
    t._ZN5QHashI7QString15QHashDummyValueE6insertERKS0_RKS1_.clean 0x000196c4   Section       12  qlandmarkmanagerengine_symbian_p.o(t._ZN5QHashI7QString15QHashDummyValueE6insertERKS0_RKS1_.clean)
    t._ZN5QHashI7QString15QHashDummyValueE6removeERKS0_ 0x000196d0   Section      178  qlandmarkmanagerengine_symbian_p.o(t._ZN5QHashI7QString15QHashDummyValueE6removeERKS0_)
    t._ZN5QHashI7QString15QHashDummyValueE8freeDataEP9QHashData 0x00019784   Section       20  qlandmarkmanagerengine_symbian_p.o(t._ZN5QHashI7QString15QHashDummyValueE8freeDataEP9QHashData)
    t._ZN5QHashI7QString15QHashDummyValueED1Ev 0x00019798   Section       30  qlandmarkmanagerengine_symbian_p.o(t._ZN5QHashI7QString15QHashDummyValueED1Ev)
    t._ZN5QHashIN10QtMobility11QLandmarkIdE15QHashDummyValueE11deleteNode2EPN9QHashData4NodeE 0x000197b6   Section       24  qlandmarkmanagerengine_symbian_p.o(t._ZN5QHashIN10QtMobility11QLandmarkIdE15QHashDummyValueE11deleteNode2EPN9QHashData4NodeE)
    t._ZN5QHashIN10QtMobility11QLandmarkIdE15QHashDummyValueE13detach_helperEv 0x000197d0   Section       60  qlandmarkmanagerengine_symbian_p.o(t._ZN5QHashIN10QtMobility11QLandmarkIdE15QHashDummyValueE13detach_helperEv)
    t._ZN5QHashIN10QtMobility11QLandmarkIdE15QHashDummyValueE13duplicateNodeEPN9QHashData4NodeEPv 0x0001980c   Section       44  qlandmarkmanagerengine_symbian_p.o(t._ZN5QHashIN10QtMobility11QLandmarkIdE15QHashDummyValueE13duplicateNodeEPN9QHashData4NodeEPv)
    t._ZN5QHashIN10QtMobility11QLandmarkIdE15QHashDummyValueE13duplicateNodeEPN9QHashData4NodeEPv.clean 0x00019838   Section       12  qlandmarkmanagerengine_symbian_p.o(t._ZN5QHashIN10QtMobility11QLandmarkIdE15QHashDummyValueE13duplicateNodeEPN9QHashData4NodeEPv.clean)
    t._ZN5QHashIN10QtMobility11QLandmarkIdE15QHashDummyValueE6detachEv 0x00019844   Section       28  qlandmarkmanagerengine_symbian_p.o(t._ZN5QHashIN10QtMobility11QLandmarkIdE15QHashDummyValueE6detachEv)
    t._ZN5QHashIN10QtMobility11QLandmarkIdE15QHashDummyValueE6insertERKS1_RKS2_ 0x00019860   Section      168  qlandmarkmanagerengine_symbian_p.o(t._ZN5QHashIN10QtMobility11QLandmarkIdE15QHashDummyValueE6insertERKS1_RKS2_)
    t._ZN5QHashIN10QtMobility11QLandmarkIdE15QHashDummyValueE6insertERKS1_RKS2_.clean 0x00019908   Section       12  qlandmarkmanagerengine_symbian_p.o(t._ZN5QHashIN10QtMobility11QLandmarkIdE15QHashDummyValueE6insertERKS1_RKS2_.clean)
    t._ZN5QHashIN10QtMobility11QLandmarkIdE15QHashDummyValueE6removeERKS1_ 0x00019914   Section      178  qlandmarkmanagerengine_symbian_p.o(t._ZN5QHashIN10QtMobility11QLandmarkIdE15QHashDummyValueE6removeERKS1_)
    t._ZN5QHashIN10QtMobility11QLandmarkIdE15QHashDummyValueE8freeDataEP9QHashData 0x000199c8   Section       20  qlandmarkmanagerengine_symbian_p.o(t._ZN5QHashIN10QtMobility11QLandmarkIdE15QHashDummyValueE8freeDataEP9QHashData)
    t._ZN5QHashIN10QtMobility11QLandmarkIdE15QHashDummyValueED1Ev 0x000199dc   Section       30  qlandmarkmanagerengine_symbian_p.o(t._ZN5QHashIN10QtMobility11QLandmarkIdE15QHashDummyValueED1Ev)
    t._ZN5QListI7QStringE13detach_helperEi   0x000199fa   Section       94  qlandmarkmanagerenginefactory_symbian.o(t._ZN5QListI7QStringE13detach_helperEi)
    t._ZN5QListI7QStringE13detach_helperEi.clean 0x00019a58   Section        8  qlandmarkmanagerenginefactory_symbian.o(t._ZN5QListI7QStringE13detach_helperEi.clean)
    t._ZN5QListI7QStringE13detach_helperEv   0x00019a60   Section       16  qlandmarkmanagerengine_symbian_p.o(t._ZN5QListI7QStringE13detach_helperEv)
    t._ZN5QListI7QStringE13node_destructEPNS1_4NodeES3_ 0x00019a70   Section       26  qlandmarkmanagerenginefactory_symbian.o(t._ZN5QListI7QStringE13node_destructEPNS1_4NodeES3_)
    t._ZN5QListI7QStringE14node_constructEPNS1_4NodeERKS0_ 0x00019a8a   Section       36  qlandmarkmanagerenginefactory_symbian.o(t._ZN5QListI7QStringE14node_constructEPNS1_4NodeERKS0_)
    t._ZN5QListI7QStringE14node_constructEPNS1_4NodeERKS0_.clean 0x00019aae   Section       14  qlandmarkmanagerenginefactory_symbian.o(t._ZN5QListI7QStringE14node_constructEPNS1_4NodeERKS0_.clean)
    t._ZN5QListI7QStringE18detach_helper_growEii 0x00019abc   Section      208  qlandmarkmanagerenginefactory_symbian.o(t._ZN5QListI7QStringE18detach_helper_growEii)
    t._ZN5QListI7QStringE18detach_helper_growEii.clean 0x00019b8c   Section       16  qlandmarkmanagerenginefactory_symbian.o(t._ZN5QListI7QStringE18detach_helper_growEii.clean)
    t._ZN5QListI7QStringE4freeEPN9QListData4DataE 0x00019b9c   Section       52  qlandmarkmanagerengine_symbian_p.o(t._ZN5QListI7QStringE4freeEPN9QListData4DataE)
    t._ZN5QListI7QStringE6appendERKS0_       0x00019bd0   Section      120  qlandmarkmanagerenginefactory_symbian.o(t._ZN5QListI7QStringE6appendERKS0_)
    t._ZN5QListI7QStringE6appendERKS0_.clean 0x00019c48   Section       14  qlandmarkmanagerenginefactory_symbian.o(t._ZN5QListI7QStringE6appendERKS0_.clean)
    t._ZN5QListI7QStringE7reserveEi          0x00019c56   Section       46  qlandmarkmanagerenginefactory_symbian.o(t._ZN5QListI7QStringE7reserveEi)
    t._ZN5QListI7QStringE8removeAtEi         0x00019c84   Section       70  qlandmarkmanagerengine_symbian_p.o(t._ZN5QListI7QStringE8removeAtEi)
    t._ZN5QListI7QStringE9node_copyEPNS1_4NodeES3_S3_ 0x00019cca   Section       82  qlandmarkmanagerenginefactory_symbian.o(t._ZN5QListI7QStringE9node_copyEPNS1_4NodeES3_S3_)
    t._ZN5QListI7QStringE9node_copyEPNS1_4NodeES3_S3_.clean 0x00019d1c   Section       22  qlandmarkmanagerenginefactory_symbian.o(t._ZN5QListI7QStringE9node_copyEPNS1_4NodeES3_S3_.clean)
    t._ZN5QListI7QStringEC1Ev                0x00019d34   Section       24  qlandmarkmanagerengine_symbian_p.o(t._ZN5QListI7QStringEC1Ev)
    t._ZN5QListI7QStringED1Ev                0x00019d4c   Section       32  qlandmarkmanagerenginefactory_symbian.o(t._ZN5QListI7QStringED1Ev)
    t._ZN5QListIN10QtMobility11QLandmarkIdEE13detach_helperEi 0x00019d6c   Section       94  qlandmarkmanagerengine_symbian_p.o(t._ZN5QListIN10QtMobility11QLandmarkIdEE13detach_helperEi)
    t._ZN5QListIN10QtMobility11QLandmarkIdEE13detach_helperEi.clean 0x00019dca   Section        8  qlandmarkmanagerengine_symbian_p.o(t._ZN5QListIN10QtMobility11QLandmarkIdEE13detach_helperEi.clean)
    t._ZN5QListIN10QtMobility11QLandmarkIdEE13detach_helperEv 0x00019dd2   Section       16  qlandmarkmanagerengine_symbian_p.o(t._ZN5QListIN10QtMobility11QLandmarkIdEE13detach_helperEv)
    t._ZN5QListIN10QtMobility11QLandmarkIdEE13node_destructEPNS2_4NodeES4_ 0x00019de2   Section       26  qlandmarkmanagerengine_symbian_p.o(t._ZN5QListIN10QtMobility11QLandmarkIdEE13node_destructEPNS2_4NodeES4_)
    t._ZN5QListIN10QtMobility11QLandmarkIdEE14node_constructEPNS2_4NodeERKS1_ 0x00019dfc   Section       36  qlandmarkmanagerengine_symbian_p.o(t._ZN5QListIN10QtMobility11QLandmarkIdEE14node_constructEPNS2_4NodeERKS1_)
    t._ZN5QListIN10QtMobility11QLandmarkIdEE14node_constructEPNS2_4NodeERKS1_.clean 0x00019e20   Section       14  qlandmarkmanagerengine_symbian_p.o(t._ZN5QListIN10QtMobility11QLandmarkIdEE14node_constructEPNS2_4NodeERKS1_.clean)
    t._ZN5QListIN10QtMobility11QLandmarkIdEE18detach_helper_growEii 0x00019e2e   Section      208  qlandmarkmanagerengine_symbian_p.o(t._ZN5QListIN10QtMobility11QLandmarkIdEE18detach_helper_growEii)
    t._ZN5QListIN10QtMobility11QLandmarkIdEE18detach_helper_growEii.clean 0x00019efe   Section       16  qlandmarkmanagerengine_symbian_p.o(t._ZN5QListIN10QtMobility11QLandmarkIdEE18detach_helper_growEii.clean)
    t._ZN5QListIN10QtMobility11QLandmarkIdEE4freeEPN9QListData4DataE 0x00019f0e   Section       52  qlandmarkmanagerengine_symbian_p.o(t._ZN5QListIN10QtMobility11QLandmarkIdEE4freeEPN9QListData4DataE)
    t._ZN5QListIN10QtMobility11QLandmarkIdEE5clearEv 0x00019f42   Section       28  qlandmarkmanagerengine_symbian_p.o(t._ZN5QListIN10QtMobility11QLandmarkIdEE5clearEv)
    t._ZN5QListIN10QtMobility11QLandmarkIdEE5clearEv.clean 0x00019f5e   Section       10  qlandmarkmanagerengine_symbian_p.o(t._ZN5QListIN10QtMobility11QLandmarkIdEE5clearEv.clean)
    t._ZN5QListIN10QtMobility11QLandmarkIdEE6appendERKS1_ 0x00019f68   Section      120  qlandmarkmanagerengine_symbian_p.o(t._ZN5QListIN10QtMobility11QLandmarkIdEE6appendERKS1_)
    t._ZN5QListIN10QtMobility11QLandmarkIdEE6appendERKS1_.clean 0x00019fe0   Section       14  qlandmarkmanagerengine_symbian_p.o(t._ZN5QListIN10QtMobility11QLandmarkIdEE6appendERKS1_.clean)
    t._ZN5QListIN10QtMobility11QLandmarkIdEE7reserveEi 0x00019fee   Section       46  qlandmarkmanagerengine_symbian_p.o(t._ZN5QListIN10QtMobility11QLandmarkIdEE7reserveEi)
    t._ZN5QListIN10QtMobility11QLandmarkIdEE9node_copyEPNS2_4NodeES4_S4_ 0x0001a01c   Section       82  qlandmarkmanagerengine_symbian_p.o(t._ZN5QListIN10QtMobility11QLandmarkIdEE9node_copyEPNS2_4NodeES4_S4_)
    t._ZN5QListIN10QtMobility11QLandmarkIdEE9node_copyEPNS2_4NodeES4_S4_.clean 0x0001a06e   Section       22  qlandmarkmanagerengine_symbian_p.o(t._ZN5QListIN10QtMobility11QLandmarkIdEE9node_copyEPNS2_4NodeES4_S4_.clean)
    t._ZN5QListIN10QtMobility11QLandmarkIdEEC1ERKS2_ 0x0001a084   Section       36  qlandmarkmanagerengine_symbian_p.o(t._ZN5QListIN10QtMobility11QLandmarkIdEEC1ERKS2_)
    t._ZN5QListIN10QtMobility11QLandmarkIdEEC1Ev 0x0001a0a8   Section       24  qlandmarkmanagerengine_symbian_p.o(t._ZN5QListIN10QtMobility11QLandmarkIdEEC1Ev)
    t._ZN5QListIN10QtMobility11QLandmarkIdEED1Ev 0x0001a0c0   Section       32  qlandmarkmanagerengine_symbian_p.o(t._ZN5QListIN10QtMobility11QLandmarkIdEED1Ev)
    t._ZN5QListIN10QtMobility11QLandmarkIdEEaSERKS2_ 0x0001a0e0   Section       64  qlandmarkmanagerengine_symbian_p.o(t._ZN5QListIN10QtMobility11QLandmarkIdEEaSERKS2_)
    t._ZN5QListIN10QtMobility11QLandmarkIdEElsERKS1_ 0x0001a120   Section       18  qlandmarkmanagerengine_symbian_p.o(t._ZN5QListIN10QtMobility11QLandmarkIdEElsERKS1_)
    t._ZN5QListIN10QtMobility11QLandmarkIdEEpLERKS2_ 0x0001a134   Section      148  qlandmarkmanagerengine_symbian_p.o(t._ZN5QListIN10QtMobility11QLandmarkIdEEpLERKS2_)
    t._ZN5QListIN10QtMobility11QLandmarkIdEEpLERKS2_.clean 0x0001a1c8   Section        8  qlandmarkmanagerengine_symbian_p.o(t._ZN5QListIN10QtMobility11QLandmarkIdEEpLERKS2_.clean)
    t._ZN5QListIN10QtMobility15QLandmarkFilterEE13detach_helperEi 0x0001a1d0   Section      198  qlandmarkmanagerengine_symbian_p.o(t._ZN5QListIN10QtMobility15QLandmarkFilterEE13detach_helperEi)
    t._ZN5QListIN10QtMobility15QLandmarkFilterEE13detach_helperEi.clean 0x0001a296   Section       32  qlandmarkmanagerengine_symbian_p.o(t._ZN5QListIN10QtMobility15QLandmarkFilterEE13detach_helperEi.clean)
    t._ZN5QListIN10QtMobility15QLandmarkFilterEE13detach_helperEv 0x0001a2b6   Section       16  qlandmarkmanagerengine_symbian_p.o(t._ZN5QListIN10QtMobility15QLandmarkFilterEE13detach_helperEv)
    t._ZN5QListIN10QtMobility15QLandmarkFilterEE4freeEPN9QListData4DataE 0x0001a2c6   Section       74  qlandmarkmanagerengine_symbian_p.o(t._ZN5QListIN10QtMobility15QLandmarkFilterEE4freeEPN9QListData4DataE)
    t._ZN5QListIN10QtMobility15QLandmarkFilterEE6takeAtEi 0x0001a310   Section       86  qlandmarkmanagerengine_symbian_p.o(t._ZN5QListIN10QtMobility15QLandmarkFilterEE6takeAtEi)
    t._ZN5QListIN10QtMobility15QLandmarkFilterEE6takeAtEi.clean 0x0001a366   Section       10  qlandmarkmanagerengine_symbian_p.o(t._ZN5QListIN10QtMobility15QLandmarkFilterEE6takeAtEi.clean)
    t._ZN5QListIN10QtMobility15QLandmarkFilterEED1Ev 0x0001a370   Section       32  qlandmarkmanagerengine_symbian_p.o(t._ZN5QListIN10QtMobility15QLandmarkFilterEED1Ev)
    t._ZN5QListIN10QtMobility15QLandmarkFilterEEaSERKS2_ 0x0001a390   Section       64  qlandmarkmanagerengine_symbian_p.o(t._ZN5QListIN10QtMobility15QLandmarkFilterEEaSERKS2_)
    t._ZN5QListIN10QtMobility17QLandmarkCategoryEE13detach_helperEi 0x0001a3d0   Section       94  qlandmarkmanagerengine_symbian_p.o(t._ZN5QListIN10QtMobility17QLandmarkCategoryEE13detach_helperEi)
    t._ZN5QListIN10QtMobility17QLandmarkCategoryEE13detach_helperEi.clean 0x0001a42e   Section        8  qlandmarkmanagerengine_symbian_p.o(t._ZN5QListIN10QtMobility17QLandmarkCategoryEE13detach_helperEi.clean)
    t._ZN5QListIN10QtMobility17QLandmarkCategoryEE13detach_helperEv 0x0001a436   Section       16  qlandmarkmanagerengine_symbian_p.o(t._ZN5QListIN10QtMobility17QLandmarkCategoryEE13detach_helperEv)
    t._ZN5QListIN10QtMobility17QLandmarkCategoryEE13node_destructEPNS2_4NodeES4_ 0x0001a446   Section       26  qlandmarkmanagerengine_symbian_p.o(t._ZN5QListIN10QtMobility17QLandmarkCategoryEE13node_destructEPNS2_4NodeES4_)
    t._ZN5QListIN10QtMobility17QLandmarkCategoryEE14node_constructEPNS2_4NodeERKS1_ 0x0001a460   Section       36  qlandmarkmanagerengine_symbian_p.o(t._ZN5QListIN10QtMobility17QLandmarkCategoryEE14node_constructEPNS2_4NodeERKS1_)
    t._ZN5QListIN10QtMobility17QLandmarkCategoryEE14node_constructEPNS2_4NodeERKS1_.clean 0x0001a484   Section       14  qlandmarkmanagerengine_symbian_p.o(t._ZN5QListIN10QtMobility17QLandmarkCategoryEE14node_constructEPNS2_4NodeERKS1_.clean)
    t._ZN5QListIN10QtMobility17QLandmarkCategoryEE18detach_helper_growEii 0x0001a492   Section      208  qlandmarkmanagerengine_symbian_p.o(t._ZN5QListIN10QtMobility17QLandmarkCategoryEE18detach_helper_growEii)
    t._ZN5QListIN10QtMobility17QLandmarkCategoryEE18detach_helper_growEii.clean 0x0001a562   Section       16  qlandmarkmanagerengine_symbian_p.o(t._ZN5QListIN10QtMobility17QLandmarkCategoryEE18detach_helper_growEii.clean)
    t._ZN5QListIN10QtMobility17QLandmarkCategoryEE4freeEPN9QListData4DataE 0x0001a572   Section       52  qlandmarkmanagerengine_symbian_p.o(t._ZN5QListIN10QtMobility17QLandmarkCategoryEE4freeEPN9QListData4DataE)
    t._ZN5QListIN10QtMobility17QLandmarkCategoryEE5clearEv 0x0001a5a6   Section       28  qlandmarkmanagerengine_symbian_p.o(t._ZN5QListIN10QtMobility17QLandmarkCategoryEE5clearEv)
    t._ZN5QListIN10QtMobility17QLandmarkCategoryEE5clearEv.clean 0x0001a5c2   Section       10  qlandmarkmanagerengine_symbian_p.o(t._ZN5QListIN10QtMobility17QLandmarkCategoryEE5clearEv.clean)
    t._ZN5QListIN10QtMobility17QLandmarkCategoryEE6appendERKS1_ 0x0001a5cc   Section      120  qlandmarkmanagerengine_symbian_p.o(t._ZN5QListIN10QtMobility17QLandmarkCategoryEE6appendERKS1_)
    t._ZN5QListIN10QtMobility17QLandmarkCategoryEE6appendERKS1_.clean 0x0001a644   Section       14  qlandmarkmanagerengine_symbian_p.o(t._ZN5QListIN10QtMobility17QLandmarkCategoryEE6appendERKS1_.clean)
    t._ZN5QListIN10QtMobility17QLandmarkCategoryEE7reserveEi 0x0001a652   Section       46  qlandmarkmanagerengine_symbian_p.o(t._ZN5QListIN10QtMobility17QLandmarkCategoryEE7reserveEi)
    t._ZN5QListIN10QtMobility17QLandmarkCategoryEE9node_copyEPNS2_4NodeES4_S4_ 0x0001a680   Section       82  qlandmarkmanagerengine_symbian_p.o(t._ZN5QListIN10QtMobility17QLandmarkCategoryEE9node_copyEPNS2_4NodeES4_S4_)
    t._ZN5QListIN10QtMobility17QLandmarkCategoryEE9node_copyEPNS2_4NodeES4_S4_.clean 0x0001a6d2   Section       22  qlandmarkmanagerengine_symbian_p.o(t._ZN5QListIN10QtMobility17QLandmarkCategoryEE9node_copyEPNS2_4NodeES4_S4_.clean)
    t._ZN5QListIN10QtMobility17QLandmarkCategoryEEC1ERKS2_ 0x0001a6e8   Section       36  qlandmarkmanagerengine_symbian_p.o(t._ZN5QListIN10QtMobility17QLandmarkCategoryEEC1ERKS2_)
    t._ZN5QListIN10QtMobility17QLandmarkCategoryEEC1Ev 0x0001a70c   Section       24  qlandmarkmanagerengine_symbian_p.o(t._ZN5QListIN10QtMobility17QLandmarkCategoryEEC1Ev)
    t._ZN5QListIN10QtMobility17QLandmarkCategoryEED1Ev 0x0001a724   Section       32  qlandmarkmanagerengine_symbian_p.o(t._ZN5QListIN10QtMobility17QLandmarkCategoryEED1Ev)
    t._ZN5QListIN10QtMobility17QLandmarkCategoryEEaSERKS2_ 0x0001a744   Section       64  qlandmarkmanagerengine_symbian_p.o(t._ZN5QListIN10QtMobility17QLandmarkCategoryEEaSERKS2_)
    t._ZN5QListIN10QtMobility18QLandmarkSortOrderEE13detach_helperEi 0x0001a784   Section       94  qlandmarkmanagerengine_symbian_p.o(t._ZN5QListIN10QtMobility18QLandmarkSortOrderEE13detach_helperEi)
    t._ZN5QListIN10QtMobility18QLandmarkSortOrderEE13detach_helperEi.clean 0x0001a7e2   Section        8  qlandmarkmanagerengine_symbian_p.o(t._ZN5QListIN10QtMobility18QLandmarkSortOrderEE13detach_helperEi.clean)
    t._ZN5QListIN10QtMobility18QLandmarkSortOrderEE13detach_helperEv 0x0001a7ea   Section       16  qlandmarkmanagerengine_symbian_p.o(t._ZN5QListIN10QtMobility18QLandmarkSortOrderEE13detach_helperEv)
    t._ZN5QListIN10QtMobility18QLandmarkSortOrderEE13node_destructEPNS2_4NodeES4_ 0x0001a7fa   Section       36  qlandmarkmanagerengine_symbian_p.o(t._ZN5QListIN10QtMobility18QLandmarkSortOrderEE13node_destructEPNS2_4NodeES4_)
    t._ZN5QListIN10QtMobility18QLandmarkSortOrderEE14node_constructEPNS2_4NodeERKS1_ 0x0001a81e   Section       34  qlandmarkmanagerengine_symbian_p.o(t._ZN5QListIN10QtMobility18QLandmarkSortOrderEE14node_constructEPNS2_4NodeERKS1_)
    t._ZN5QListIN10QtMobility18QLandmarkSortOrderEE14node_constructEPNS2_4NodeERKS1_.clean 0x0001a840   Section       14  qlandmarkmanagerengine_symbian_p.o(t._ZN5QListIN10QtMobility18QLandmarkSortOrderEE14node_constructEPNS2_4NodeERKS1_.clean)
    t._ZN5QListIN10QtMobility18QLandmarkSortOrderEE18detach_helper_growEii 0x0001a84e   Section      208  qlandmarkmanagerengine_symbian_p.o(t._ZN5QListIN10QtMobility18QLandmarkSortOrderEE18detach_helper_growEii)
    t._ZN5QListIN10QtMobility18QLandmarkSortOrderEE18detach_helper_growEii.clean 0x0001a91e   Section       16  qlandmarkmanagerengine_symbian_p.o(t._ZN5QListIN10QtMobility18QLandmarkSortOrderEE18detach_helper_growEii.clean)
    t._ZN5QListIN10QtMobility18QLandmarkSortOrderEE4freeEPN9QListData4DataE 0x0001a92e   Section       52  qlandmarkmanagerengine_symbian_p.o(t._ZN5QListIN10QtMobility18QLandmarkSortOrderEE4freeEPN9QListData4DataE)
    t._ZN5QListIN10QtMobility18QLandmarkSortOrderEE6appendERKS1_ 0x0001a964   Section      112  qlandmarkmanagerengine_symbian_p.o(t._ZN5QListIN10QtMobility18QLandmarkSortOrderEE6appendERKS1_)
    t._ZN5QListIN10QtMobility18QLandmarkSortOrderEE6appendERKS1_.clean 0x0001a9d4   Section       14  qlandmarkmanagerengine_symbian_p.o(t._ZN5QListIN10QtMobility18QLandmarkSortOrderEE6appendERKS1_.clean)
    t._ZN5QListIN10QtMobility18QLandmarkSortOrderEE9node_copyEPNS2_4NodeES4_S4_ 0x0001a9e2   Section       90  qlandmarkmanagerengine_symbian_p.o(t._ZN5QListIN10QtMobility18QLandmarkSortOrderEE9node_copyEPNS2_4NodeES4_S4_)
    t._ZN5QListIN10QtMobility18QLandmarkSortOrderEE9node_copyEPNS2_4NodeES4_S4_.clean 0x0001aa3c   Section       22  qlandmarkmanagerengine_symbian_p.o(t._ZN5QListIN10QtMobility18QLandmarkSortOrderEE9node_copyEPNS2_4NodeES4_S4_.clean)
    t._ZN5QListIN10QtMobility18QLandmarkSortOrderEEC1ERKS2_ 0x0001aa52   Section       36  qlandmarkmanagerengine_symbian_p.o(t._ZN5QListIN10QtMobility18QLandmarkSortOrderEEC1ERKS2_)
    t._ZN5QListIN10QtMobility18QLandmarkSortOrderEEC1Ev 0x0001aa78   Section       24  qlandmarkmanagerengine_symbian_p.o(t._ZN5QListIN10QtMobility18QLandmarkSortOrderEEC1Ev)
    t._ZN5QListIN10QtMobility18QLandmarkSortOrderEED1Ev 0x0001aa90   Section       32  qlandmarkmanagerengine_symbian_p.o(t._ZN5QListIN10QtMobility18QLandmarkSortOrderEED1Ev)
    t._ZN5QListIN10QtMobility18QLandmarkSortOrderEEaSERKS2_ 0x0001aab0   Section       64  qlandmarkmanagerengine_symbian_p.o(t._ZN5QListIN10QtMobility18QLandmarkSortOrderEEaSERKS2_)
    t._ZN5QListIN10QtMobility19QLandmarkCategoryIdEE13detach_helperEi 0x0001aaf0   Section       94  qlandmarkmanagerengine_symbian_p.o(t._ZN5QListIN10QtMobility19QLandmarkCategoryIdEE13detach_helperEi)
    t._ZN5QListIN10QtMobility19QLandmarkCategoryIdEE13detach_helperEi.clean 0x0001ab4e   Section        8  qlandmarkmanagerengine_symbian_p.o(t._ZN5QListIN10QtMobility19QLandmarkCategoryIdEE13detach_helperEi.clean)
    t._ZN5QListIN10QtMobility19QLandmarkCategoryIdEE13detach_helperEv 0x0001ab56   Section       16  qlandmarkmanagerengine_symbian_p.o(t._ZN5QListIN10QtMobility19QLandmarkCategoryIdEE13detach_helperEv)
    t._ZN5QListIN10QtMobility19QLandmarkCategoryIdEE13node_destructEPNS2_4NodeES4_ 0x0001ab66   Section       26  qlandmarkmanagerengine_symbian_p.o(t._ZN5QListIN10QtMobility19QLandmarkCategoryIdEE13node_destructEPNS2_4NodeES4_)
    t._ZN5QListIN10QtMobility19QLandmarkCategoryIdEE14node_constructEPNS2_4NodeERKS1_ 0x0001ab80   Section       36  qlandmarkmanagerengine_symbian_p.o(t._ZN5QListIN10QtMobility19QLandmarkCategoryIdEE14node_constructEPNS2_4NodeERKS1_)
    t._ZN5QListIN10QtMobility19QLandmarkCategoryIdEE14node_constructEPNS2_4NodeERKS1_.clean 0x0001aba4   Section       14  qlandmarkmanagerengine_symbian_p.o(t._ZN5QListIN10QtMobility19QLandmarkCategoryIdEE14node_constructEPNS2_4NodeERKS1_.clean)
    t._ZN5QListIN10QtMobility19QLandmarkCategoryIdEE18detach_helper_growEii 0x0001abb2   Section      208  qlandmarkmanagerengine_symbian_p.o(t._ZN5QListIN10QtMobility19QLandmarkCategoryIdEE18detach_helper_growEii)
    t._ZN5QListIN10QtMobility19QLandmarkCategoryIdEE18detach_helper_growEii.clean 0x0001ac82   Section       16  qlandmarkmanagerengine_symbian_p.o(t._ZN5QListIN10QtMobility19QLandmarkCategoryIdEE18detach_helper_growEii.clean)
    t._ZN5QListIN10QtMobility19QLandmarkCategoryIdEE4freeEPN9QListData4DataE 0x0001ac92   Section       52  qlandmarkmanagerengine_symbian_p.o(t._ZN5QListIN10QtMobility19QLandmarkCategoryIdEE4freeEPN9QListData4DataE)
    t._ZN5QListIN10QtMobility19QLandmarkCategoryIdEE5clearEv 0x0001acc6   Section       28  qlandmarkmanagerengine_symbian_p.o(t._ZN5QListIN10QtMobility19QLandmarkCategoryIdEE5clearEv)
    t._ZN5QListIN10QtMobility19QLandmarkCategoryIdEE5clearEv.clean 0x0001ace2   Section       10  qlandmarkmanagerengine_symbian_p.o(t._ZN5QListIN10QtMobility19QLandmarkCategoryIdEE5clearEv.clean)
    t._ZN5QListIN10QtMobility19QLandmarkCategoryIdEE6appendERKS1_ 0x0001acec   Section      120  qlandmarkmanagerengine_symbian_p.o(t._ZN5QListIN10QtMobility19QLandmarkCategoryIdEE6appendERKS1_)
    t._ZN5QListIN10QtMobility19QLandmarkCategoryIdEE6appendERKS1_.clean 0x0001ad64   Section       14  qlandmarkmanagerengine_symbian_p.o(t._ZN5QListIN10QtMobility19QLandmarkCategoryIdEE6appendERKS1_.clean)
    t._ZN5QListIN10QtMobility19QLandmarkCategoryIdEE7reserveEi 0x0001ad72   Section       46  qlandmarkmanagerengine_symbian_p.o(t._ZN5QListIN10QtMobility19QLandmarkCategoryIdEE7reserveEi)
    t._ZN5QListIN10QtMobility19QLandmarkCategoryIdEE9node_copyEPNS2_4NodeES4_S4_ 0x0001ada0   Section       82  qlandmarkmanagerengine_symbian_p.o(t._ZN5QListIN10QtMobility19QLandmarkCategoryIdEE9node_copyEPNS2_4NodeES4_S4_)
    t._ZN5QListIN10QtMobility19QLandmarkCategoryIdEE9node_copyEPNS2_4NodeES4_S4_.clean 0x0001adf2   Section       22  qlandmarkmanagerengine_symbian_p.o(t._ZN5QListIN10QtMobility19QLandmarkCategoryIdEE9node_copyEPNS2_4NodeES4_S4_.clean)
    t._ZN5QListIN10QtMobility19QLandmarkCategoryIdEEC1ERKS2_ 0x0001ae08   Section       36  qlandmarkmanagerengine_symbian_p.o(t._ZN5QListIN10QtMobility19QLandmarkCategoryIdEEC1ERKS2_)
    t._ZN5QListIN10QtMobility19QLandmarkCategoryIdEEC1Ev 0x0001ae2c   Section       24  qlandmarkmanagerengine_symbian_p.o(t._ZN5QListIN10QtMobility19QLandmarkCategoryIdEEC1Ev)
    t._ZN5QListIN10QtMobility19QLandmarkCategoryIdEED1Ev 0x0001ae44   Section       32  qlandmarkmanagerengine_symbian_p.o(t._ZN5QListIN10QtMobility19QLandmarkCategoryIdEED1Ev)
    t._ZN5QListIN10QtMobility19QLandmarkCategoryIdEEaSERKS2_ 0x0001ae64   Section       64  qlandmarkmanagerengine_symbian_p.o(t._ZN5QListIN10QtMobility19QLandmarkCategoryIdEEaSERKS2_)
    t._ZN5QListIN10QtMobility19QLandmarkCategoryIdEEixEi 0x0001aea4   Section       42  qlandmarkutility.o(t._ZN5QListIN10QtMobility19QLandmarkCategoryIdEEixEi)
    t._ZN5QListIN10QtMobility19QLandmarkCategoryIdEElsERKS1_ 0x0001aece   Section       18  qlandmarkmanagerengine_symbian_p.o(t._ZN5QListIN10QtMobility19QLandmarkCategoryIdEElsERKS1_)
    t._ZN5QListIN10QtMobility9QLandmarkEE13detach_helperEi 0x0001aee0   Section       94  qlandmarkmanagerengine_symbian_p.o(t._ZN5QListIN10QtMobility9QLandmarkEE13detach_helperEi)
    t._ZN5QListIN10QtMobility9QLandmarkEE13detach_helperEi.clean 0x0001af3e   Section        8  qlandmarkmanagerengine_symbian_p.o(t._ZN5QListIN10QtMobility9QLandmarkEE13detach_helperEi.clean)
    t._ZN5QListIN10QtMobility9QLandmarkEE13detach_helperEv 0x0001af46   Section       16  qlandmarkmanagerengine_symbian_p.o(t._ZN5QListIN10QtMobility9QLandmarkEE13detach_helperEv)
    t._ZN5QListIN10QtMobility9QLandmarkEE13node_destructEPNS2_4NodeES4_ 0x0001af56   Section       36  qlandmarkmanagerengine_symbian_p.o(t._ZN5QListIN10QtMobility9QLandmarkEE13node_destructEPNS2_4NodeES4_)
    t._ZN5QListIN10QtMobility9QLandmarkEE14node_constructEPNS2_4NodeERKS1_ 0x0001af7a   Section       34  qlandmarkmanagerengine_symbian_p.o(t._ZN5QListIN10QtMobility9QLandmarkEE14node_constructEPNS2_4NodeERKS1_)
    t._ZN5QListIN10QtMobility9QLandmarkEE14node_constructEPNS2_4NodeERKS1_.clean 0x0001af9c   Section       14  qlandmarkmanagerengine_symbian_p.o(t._ZN5QListIN10QtMobility9QLandmarkEE14node_constructEPNS2_4NodeERKS1_.clean)
    t._ZN5QListIN10QtMobility9QLandmarkEE18detach_helper_growEii 0x0001afaa   Section      208  qlandmarkmanagerengine_symbian_p.o(t._ZN5QListIN10QtMobility9QLandmarkEE18detach_helper_growEii)
    t._ZN5QListIN10QtMobility9QLandmarkEE18detach_helper_growEii.clean 0x0001b07a   Section       16  qlandmarkmanagerengine_symbian_p.o(t._ZN5QListIN10QtMobility9QLandmarkEE18detach_helper_growEii.clean)
    t._ZN5QListIN10QtMobility9QLandmarkEE4freeEPN9QListData4DataE 0x0001b08a   Section       52  qlandmarkmanagerengine_symbian_p.o(t._ZN5QListIN10QtMobility9QLandmarkEE4freeEPN9QListData4DataE)
    t._ZN5QListIN10QtMobility9QLandmarkEE5clearEv 0x0001b0be   Section       76  qlandmarkmanagerengine_symbian_p.o(t._ZN5QListIN10QtMobility9QLandmarkEE5clearEv)
    t._ZN5QListIN10QtMobility9QLandmarkEE5clearEv.clean 0x0001b10a   Section       10  qlandmarkmanagerengine_symbian_p.o(t._ZN5QListIN10QtMobility9QLandmarkEE5clearEv.clean)
    t._ZN5QListIN10QtMobility9QLandmarkEE6appendERKS1_ 0x0001b114   Section      112  qlandmarkmanagerengine_symbian_p.o(t._ZN5QListIN10QtMobility9QLandmarkEE6appendERKS1_)
    t._ZN5QListIN10QtMobility9QLandmarkEE6appendERKS1_.clean 0x0001b184   Section       14  qlandmarkmanagerengine_symbian_p.o(t._ZN5QListIN10QtMobility9QLandmarkEE6appendERKS1_.clean)
    t._ZN5QListIN10QtMobility9QLandmarkEE9node_copyEPNS2_4NodeES4_S4_ 0x0001b192   Section       90  qlandmarkmanagerengine_symbian_p.o(t._ZN5QListIN10QtMobility9QLandmarkEE9node_copyEPNS2_4NodeES4_S4_)
    t._ZN5QListIN10QtMobility9QLandmarkEE9node_copyEPNS2_4NodeES4_S4_.clean 0x0001b1ec   Section       22  qlandmarkmanagerengine_symbian_p.o(t._ZN5QListIN10QtMobility9QLandmarkEE9node_copyEPNS2_4NodeES4_S4_.clean)
    t._ZN5QListIN10QtMobility9QLandmarkEEC1Ev 0x0001b204   Section       24  qlandmarkmanagerengine_symbian_p.o(t._ZN5QListIN10QtMobility9QLandmarkEEC1Ev)
    t._ZN5QListIN10QtMobility9QLandmarkEED1Ev 0x0001b21c   Section       32  qlandmarkmanagerengine_symbian_p.o(t._ZN5QListIN10QtMobility9QLandmarkEED1Ev)
    t._ZN5QListIiE18detach_helper_growEii    0x0001b23c   Section      204  qlandmarkmanagerenginefactory_symbian.o(t._ZN5QListIiE18detach_helper_growEii)
    t._ZN5QListIiE18detach_helper_growEii.clean 0x0001b308   Section       16  qlandmarkmanagerenginefactory_symbian.o(t._ZN5QListIiE18detach_helper_growEii.clean)
    t._ZN5QListIiE4freeEPN9QListData4DataE   0x0001b318   Section       58  qlandmarkmanagerenginefactory_symbian.o(t._ZN5QListIiE4freeEPN9QListData4DataE)
    t._ZN5QListIiE6appendERKi                0x0001b354   Section      100  qlandmarkmanagerenginefactory_symbian.o(t._ZN5QListIiE6appendERKi)
    t._ZN5QListIiE6appendERKi.clean          0x0001b3b8   Section       10  qlandmarkmanagerenginefactory_symbian.o(t._ZN5QListIiE6appendERKi.clean)
    t._ZN5QListIiE9node_copyEPNS0_4NodeES2_S2_ 0x0001b3c2   Section       46  qlandmarkmanagerenginefactory_symbian.o(t._ZN5QListIiE9node_copyEPNS0_4NodeES2_S2_)
    t._ZN5QListIiED1Ev                       0x0001b3f0   Section       32  qlandmarkmanagerenginefactory_symbian.o(t._ZN5QListIiED1Ev)
    t._ZN6RArrayImE6AppendERKm               0x0001b410   Section       16  qlandmarkmanagerengine_symbian_p.o(t._ZN6RArrayImE6AppendERKm)
    t._ZN6RArrayImE7AppendLERKm              0x0001b420   Section       22  qlandmarkmanagerengine_symbian_p.o(t._ZN6RArrayImE7AppendLERKm)
    t._ZN6RArrayImEC1Ev                      0x0001b436   Section       16  qlandmarkmanagerengine_symbian_p.o(t._ZN6RArrayImEC1Ev)
    t._ZN6RArrayImEixEi                      0x0001b446   Section       16  qlandmarkutility.o(t._ZN6RArrayImEixEi)
    t._ZN8QPointerI7QObjectED1Ev             0x0001b456   Section       14  qlandmarkmanagerenginefactory_symbian.o(t._ZN8QPointerI7QObjectED1Ev)
    t._ZNK10QtMobility15QLatin1ConstantILi4EEcv7QStringEv 0x0001b464   Section       18  qlandmarkmanagerengine_symbian_p.o(t._ZNK10QtMobility15QLatin1ConstantILi4EEcv7QStringEv)
    t._ZNK13RPointerArrayI20CLandmarkRequestDataE5CountEv 0x0001b476   Section       12  qlandmarkrequesthandler.o(t._ZNK13RPointerArrayI20CLandmarkRequestDataE5CountEv)
    t._ZNK17QForeachContainerI5QListIN10QtMobility11QLandmarkIdEEE9conditionEv 0x0001b482   Section       40  qlandmarkmanagerengine_symbian_p.o(t._ZNK17QForeachContainerI5QListIN10QtMobility11QLandmarkIdEEE9conditionEv)
    t._ZNK4QMapI7QStringS0_E15mutableFindNodeEPPN8QMapData4NodeERKS0_ 0x0001b4aa   Section      116  qlandmarkmanagerengine_symbian_p.o(t._ZNK4QMapI7QStringS0_E15mutableFindNodeEPPN8QMapData4NodeERKS0_)
    t._ZNK4QMapI7QStringS0_E4keysEv          0x0001b520   Section      116  qlandmarkmanagerenginefactory_symbian.o(t._ZNK4QMapI7QStringS0_E4keysEv)
    t._ZNK4QMapI7QStringS0_E4keysEv.clean    0x0001b594   Section       10  qlandmarkmanagerenginefactory_symbian.o(t._ZNK4QMapI7QStringS0_E4keysEv.clean)
    t._ZNK4QMapIiN10QtMobility16QLandmarkManager5ErrorEE15mutableFindNodeEPPN8QMapData4NodeERKi 0x0001b59e   Section      108  qlandmarkmanagerengine_symbian_p.o(t._ZNK4QMapIiN10QtMobility16QLandmarkManager5ErrorEE15mutableFindNodeEPPN8QMapData4NodeERKi)
    t._ZNK4QSetI7QStringE10constBeginEv      0x0001b60a   Section       30  qlandmarkmanagerengine_symbian_p.o(t._ZNK4QSetI7QStringE10constBeginEv)
    t._ZNK4QSetI7QStringE14const_iteratorneERKS2_ 0x0001b628   Section       20  qlandmarkmanagerengine_symbian_p.o(t._ZNK4QSetI7QStringE14const_iteratorneERKS2_)
    t._ZNK4QSetI7QStringE6toListEv           0x0001b63c   Section      120  qlandmarkmanagerengine_symbian_p.o(t._ZNK4QSetI7QStringE6toListEv)
    t._ZNK4QSetI7QStringE6toListEv.clean     0x0001b6b4   Section       10  qlandmarkmanagerengine_symbian_p.o(t._ZNK4QSetI7QStringE6toListEv.clean)
    t._ZNK4QSetIN10QtMobility11QLandmarkIdEE10constBeginEv 0x0001b6be   Section       30  qlandmarkmanagerengine_symbian_p.o(t._ZNK4QSetIN10QtMobility11QLandmarkIdEE10constBeginEv)
    t._ZNK4QSetIN10QtMobility11QLandmarkIdEE14const_iteratorneERKS3_ 0x0001b6dc   Section       20  qlandmarkmanagerengine_symbian_p.o(t._ZNK4QSetIN10QtMobility11QLandmarkIdEE14const_iteratorneERKS3_)
    t._ZNK4QSetIN10QtMobility11QLandmarkIdEE6toListEv 0x0001b6f0   Section      120  qlandmarkmanagerengine_symbian_p.o(t._ZNK4QSetIN10QtMobility11QLandmarkIdEE6toListEv)
    t._ZNK4QSetIN10QtMobility11QLandmarkIdEE6toListEv.clean 0x0001b768   Section       10  qlandmarkmanagerengine_symbian_p.o(t._ZNK4QSetIN10QtMobility11QLandmarkIdEE6toListEv.clean)
    t._ZNK5QHashI7QString15QHashDummyValueE8findNodeERKS0_Pj 0x0001b772   Section      116  qlandmarkmanagerengine_symbian_p.o(t._ZNK5QHashI7QString15QHashDummyValueE8findNodeERKS0_Pj)
    t._ZNK5QHashIN10QtMobility11QLandmarkIdE15QHashDummyValueE8findNodeERKS1_Pj 0x0001b7e6   Section      116  qlandmarkmanagerengine_symbian_p.o(t._ZNK5QHashIN10QtMobility11QLandmarkIdE15QHashDummyValueE8findNodeERKS1_Pj)
    t._ZNK5QListI7QStringE2atEi              0x0001b85a   Section       22  qlandmarkmanagerengine_symbian_p.o(t._ZNK5QListI7QStringE2atEi)
    t._ZNK5QListI7QStringE4sizeEv            0x0001b870   Section       12  qlandmarkmanagerengine_symbian_p.o(t._ZNK5QListI7QStringE4sizeEv)
    t._ZNK5QListIN10QtMobility11QLandmarkIdEE2atEi 0x0001b87c   Section       22  qlandmarkmanagerengine_symbian_p.o(t._ZNK5QListIN10QtMobility11QLandmarkIdEE2atEi)
    t._ZNK5QListIN10QtMobility11QLandmarkIdEE3midEii 0x0001b892   Section      152  qlandmarkmanagerengine_symbian_p.o(t._ZNK5QListIN10QtMobility11QLandmarkIdEE3midEii)
    t._ZNK5QListIN10QtMobility11QLandmarkIdEE3midEii.clean 0x0001b92a   Section       16  qlandmarkmanagerengine_symbian_p.o(t._ZNK5QListIN10QtMobility11QLandmarkIdEE3midEii.clean)
    t._ZNK5QListIN10QtMobility11QLandmarkIdEE4sizeEv 0x0001b93a   Section       12  qlandmarkmanagerengine_symbian_p.o(t._ZNK5QListIN10QtMobility11QLandmarkIdEE4sizeEv)
    t._ZNK5QListIN10QtMobility11QLandmarkIdEE5countEv 0x0001b946   Section       12  qlandmarkmanagerengine_symbian_p.o(t._ZNK5QListIN10QtMobility11QLandmarkIdEE5countEv)
    t._ZNK5QListIN10QtMobility11QLandmarkIdEE5toSetEv 0x0001b952   Section      138  qlandmarkmanagerengine_symbian_p.o(t._ZNK5QListIN10QtMobility11QLandmarkIdEE5toSetEv)
    t._ZNK5QListIN10QtMobility11QLandmarkIdEE5toSetEv.clean 0x0001b9dc   Section       10  qlandmarkmanagerengine_symbian_p.o(t._ZNK5QListIN10QtMobility11QLandmarkIdEE5toSetEv.clean)
    t._ZNK5QListIN10QtMobility11QLandmarkIdEE7isEmptyEv 0x0001b9e6   Section       12  qlandmarkmanagerengine_symbian_p.o(t._ZNK5QListIN10QtMobility11QLandmarkIdEE7isEmptyEv)
    t._ZNK5QListIN10QtMobility15QLandmarkFilterEE2atEi 0x0001b9f2   Section       22  qlandmarkmanagerengine_symbian_p.o(t._ZNK5QListIN10QtMobility15QLandmarkFilterEE2atEi)
    t._ZNK5QListIN10QtMobility15QLandmarkFilterEE4sizeEv 0x0001ba08   Section       12  qlandmarkmanagerengine_symbian_p.o(t._ZNK5QListIN10QtMobility15QLandmarkFilterEE4sizeEv)
    t._ZNK5QListIN10QtMobility17QLandmarkCategoryEE3midEii 0x0001ba14   Section      152  qlandmarkmanagerengine_symbian_p.o(t._ZNK5QListIN10QtMobility17QLandmarkCategoryEE3midEii)
    t._ZNK5QListIN10QtMobility17QLandmarkCategoryEE3midEii.clean 0x0001baac   Section       16  qlandmarkmanagerengine_symbian_p.o(t._ZNK5QListIN10QtMobility17QLandmarkCategoryEE3midEii.clean)
    t._ZNK5QListIN10QtMobility17QLandmarkCategoryEE4sizeEv 0x0001babc   Section       12  qlandmarkmanagerengine_symbian_p.o(t._ZNK5QListIN10QtMobility17QLandmarkCategoryEE4sizeEv)
    t._ZNK5QListIN10QtMobility18QLandmarkSortOrderEE2atEi 0x0001bac8   Section       22  qlandmarkmanagerengine_symbian_p.o(t._ZNK5QListIN10QtMobility18QLandmarkSortOrderEE2atEi)
    t._ZNK5QListIN10QtMobility18QLandmarkSortOrderEE7isEmptyEv 0x0001bade   Section       12  qlandmarkmanagerengine_symbian_p.o(t._ZNK5QListIN10QtMobility18QLandmarkSortOrderEE7isEmptyEv)
    t._ZNK5QListIN10QtMobility19QLandmarkCategoryIdEE2atEi 0x0001baea   Section       22  qlandmarkutility.o(t._ZNK5QListIN10QtMobility19QLandmarkCategoryIdEE2atEi)
    t._ZNK5QListIN10QtMobility19QLandmarkCategoryIdEE3midEii 0x0001bb00   Section      152  qlandmarkmanagerengine_symbian_p.o(t._ZNK5QListIN10QtMobility19QLandmarkCategoryIdEE3midEii)
    t._ZNK5QListIN10QtMobility19QLandmarkCategoryIdEE3midEii.clean 0x0001bb98   Section       16  qlandmarkmanagerengine_symbian_p.o(t._ZNK5QListIN10QtMobility19QLandmarkCategoryIdEE3midEii.clean)
    t._ZNK5QListIN10QtMobility19QLandmarkCategoryIdEE4sizeEv 0x0001bba8   Section       12  qlandmarkmanagerengine_symbian_p.o(t._ZNK5QListIN10QtMobility19QLandmarkCategoryIdEE4sizeEv)
    t._ZNK5QListIN10QtMobility9QLandmarkEE2atEi 0x0001bbb4   Section       22  qlandmarkmanagerengine_symbian_p.o(t._ZNK5QListIN10QtMobility9QLandmarkEE2atEi)
    t._ZNK5QListIN10QtMobility9QLandmarkEE4sizeEv 0x0001bbca   Section       12  qlandmarkmanagerengine_symbian_p.o(t._ZNK5QListIN10QtMobility9QLandmarkEE4sizeEv)
    t._ZNK5QListIN10QtMobility9QLandmarkEE5countEv 0x0001bbd6   Section       12  qlandmarkmanagerengine_symbian_p.o(t._ZNK5QListIN10QtMobility9QLandmarkEE5countEv)
    t._ZNK6RArrayImE5CountEv                 0x0001bbe2   Section       12  qlandmarkutility.o(t._ZNK6RArrayImE5CountEv)
    .extab.qt_plugin_instance                0x0001bbf0   Data           0  qlandmarkmanagerenginefactory_symbian.o(.ARM.extab)
    .extab._ZN36QLandmarkManagerEngineFactorySymbianD1Ev 0x0001bc08   Data           0  qlandmarkmanagerenginefactory_symbian.o(.ARM.extab)
    .extab._ZNK36QLandmarkManagerEngineFactorySymbian31supportedImplementationVersionsEv 0x0001bc18   Data           0  qlandmarkmanagerenginefactory_symbian.o(.ARM.extab)
    .extab._ZN36QLandmarkManagerEngineFactorySymbian6engineERK4QMapI7QStringS1_EPN10QtMobility16QLandmarkManager5ErrorEPS1_ 0x0001bc28   Data           0  qlandmarkmanagerenginefactory_symbian.o(.ARM.extab)
    .extab._ZN5QListI7QStringE9node_copyEPNS1_4NodeES3_S3_ 0x0001bcf0   Data           0  qlandmarkmanagerenginefactory_symbian.o(.ARM.extab)
    .extab._ZN5QListI7QStringE13detach_helperEi 0x0001bd14   Data           0  qlandmarkmanagerenginefactory_symbian.o(.ARM.extab)
    .extab._ZN5QListI7QStringE14node_constructEPNS1_4NodeERKS0_ 0x0001bd30   Data           0  qlandmarkmanagerenginefactory_symbian.o(.ARM.extab)
    .extab._ZN5QListI7QStringE18detach_helper_growEii 0x0001bd40   Data           0  qlandmarkmanagerenginefactory_symbian.o(.ARM.extab)
    .extab._ZN5QListI7QStringE6appendERKS0_  0x0001bd70   Data           0  qlandmarkmanagerenginefactory_symbian.o(.ARM.extab)
    .extab._ZNK4QMapI7QStringS0_E4keysEv     0x0001bda0   Data           0  qlandmarkmanagerenginefactory_symbian.o(.ARM.extab)
    .extab._ZN5QListIiE18detach_helper_growEii 0x0001bdb0   Data           0  qlandmarkmanagerenginefactory_symbian.o(.ARM.extab)
    .extab._ZN5QListIiE6appendERKi           0x0001bde0   Data           0  qlandmarkmanagerenginefactory_symbian.o(.ARM.extab)
    .extab._ZN29QLandmarkManagerEngineSymbianC1ERK7QString 0x0001bdfc   Data           0  qlandmarkmanagerengine_symbian.o(.ARM.extab)
    .extab._ZN29QLandmarkManagerEngineSymbianD1Ev 0x0001be14   Data           0  qlandmarkmanagerengine_symbian.o(.ARM.extab)
    .extab._Z14addSortedPointP5QListIN10QtMobility9QLandmarkEERKS1_RKNS0_14QGeoCoordinateE 0x0001be24   Data           0  qlandmarkmanagerengine_symbian_p.o(.ARM.extab)
    .extab._ZN10QtMobility5qHashERKNS_11QLandmarkIdE 0x0001be6c   Data           0  qlandmarkmanagerengine_symbian_p.o(.ARM.extab)
    .extab._ZN35LandmarkManagerEngineSymbianPrivateC1ER21LandmarkEventObserverRK7QString 0x0001be7c   Data           0  qlandmarkmanagerengine_symbian_p.o(.ARM.extab)
    .extab._ZN35LandmarkManagerEngineSymbianPrivateD1Ev 0x0001befc   Data           0  qlandmarkmanagerengine_symbian_p.o(.ARM.extab)
    .extab._ZNK35LandmarkManagerEngineSymbianPrivate17managerParametersEv 0x0001bf44   Data           0  qlandmarkmanagerengine_symbian_p.o(.ARM.extab)
    .extab._ZNK35LandmarkManagerEngineSymbianPrivate10managerUriEv 0x0001bf6c   Data           0  qlandmarkmanagerengine_symbian_p.o(.ARM.extab)
    .extab._ZNK35LandmarkManagerEngineSymbianPrivate18handleSymbianErrorEiPN10QtMobility16QLandmarkManager5ErrorEP7QString 0x0001bf8c   Data           0  qlandmarkmanagerengine_symbian_p.o(.ARM.extab)
    .extab._ZNK35LandmarkManagerEngineSymbianPrivate14fetchLandmarkLERKN10QtMobility11QLandmarkIdEPNS0_16QLandmarkManager5ErrorEP7QString 0x0001bfac   Data           0  qlandmarkmanagerengine_symbian_p.o(.ARM.extab)
    .extab._ZNK35LandmarkManagerEngineSymbianPrivate8landmarkERKN10QtMobility11QLandmarkIdEPNS0_16QLandmarkManager5ErrorEP7QString 0x0001bff4   Data           0  qlandmarkmanagerengine_symbian_p.o(.ARM.extab)
    .extab._ZNK35LandmarkManagerEngineSymbianPrivate16sortFetchedLmIdsEii5QListIN10QtMobility18QLandmarkSortOrderEERS0_INS1_11QLandmarkIdEENS1_15QLandmarkFilter10FilterTypeEPNS1_16QLandmarkManager5ErrorEP7QString 0x0001c044   Data           0  qlandmarkmanagerengine_symbian_p.o(.ARM.extab)
    .extab._ZNK35LandmarkManagerEngineSymbianPrivate9landmarksERK5QListIN10QtMobility11QLandmarkIdEEP4QMapIiNS1_16QLandmarkManager5ErrorEEPS8_P7QString 0x0001c0bc   Data           0  qlandmarkmanagerengine_symbian_p.o(.ARM.extab)
    .extab._ZNK35LandmarkManagerEngineSymbianPrivate18getSearchCriteriaLEN10QtMobility15QLandmarkFilterE 0x0001c10c   Data           0  qlandmarkmanagerengine_symbian_p.o(.ARM.extab)
    .extab._ZNK35LandmarkManagerEngineSymbianPrivate17searchWithFilterLEN10QtMobility15QLandmarkFilterENS0_18QLandmarkSortOrderEi 0x0001c4c4   Data           0  qlandmarkmanagerengine_symbian_p.o(.ARM.extab)
    .extab._ZNK35LandmarkManagerEngineSymbianPrivate11landmarkIdsERKN10QtMobility15QLandmarkFilterEiiRK5QListINS0_18QLandmarkSortOrderEEPNS0_16QLandmarkManager5ErrorEP7QString 0x0001c514   Data           0  qlandmarkmanagerengine_symbian_p.o(.ARM.extab)
    .extab._ZNK35LandmarkManagerEngineSymbianPrivate17fetchCategoryIdsLERKN10QtMobility17QLandmarkNameSortEPNS0_16QLandmarkManager5ErrorEP7QString 0x0001ca14   Data           0  qlandmarkmanagerengine_symbian_p.o(.ARM.extab)
    .extab._ZNK35LandmarkManagerEngineSymbianPrivate11categoryIdsEiiRKN10QtMobility17QLandmarkNameSortEPNS0_16QLandmarkManager5ErrorEP7QString 0x0001ca44   Data           0  qlandmarkmanagerengine_symbian_p.o(.ARM.extab)
    .extab._ZNK35LandmarkManagerEngineSymbianPrivate9landmarksERKN10QtMobility15QLandmarkFilterEiiRK5QListINS0_18QLandmarkSortOrderEEPNS0_16QLandmarkManager5ErrorEP7QString 0x0001ca9c   Data           0  qlandmarkmanagerengine_symbian_p.o(.ARM.extab)
    .extab._ZNK35LandmarkManagerEngineSymbianPrivate14fetchCategoryLERKN10QtMobility19QLandmarkCategoryIdEPNS0_16QLandmarkManager5ErrorEP7QString 0x0001cb1c   Data           0  qlandmarkmanagerengine_symbian_p.o(.ARM.extab)
    .extab._ZNK35LandmarkManagerEngineSymbianPrivate8categoryERKN10QtMobility19QLandmarkCategoryIdEPNS0_16QLandmarkManager5ErrorEP7QString 0x0001cb64   Data           0  qlandmarkmanagerengine_symbian_p.o(.ARM.extab)
    .extab._ZNK35LandmarkManagerEngineSymbianPrivate10categoriesERK5QListIN10QtMobility19QLandmarkCategoryIdEEP4QMapIiNS1_16QLandmarkManager5ErrorEEPS8_P7QString 0x0001cbb4   Data           0  qlandmarkmanagerengine_symbian_p.o(.ARM.extab)
    .extab._ZNK35LandmarkManagerEngineSymbianPrivate10categoriesEiiRKN10QtMobility17QLandmarkNameSortEPNS0_16QLandmarkManager5ErrorEP7QString 0x0001cbf4   Data           0  qlandmarkmanagerengine_symbian_p.o(.ARM.extab)
    .extab._ZN35LandmarkManagerEngineSymbianPrivate21saveLandmarkInternalLEPN10QtMobility9QLandmarkEPNS0_16QLandmarkManager5ErrorEP7QStringPbS8_ 0x0001ccac   Data           0  qlandmarkmanagerengine_symbian_p.o(.ARM.extab)
    .extab._ZN35LandmarkManagerEngineSymbianPrivate12saveLandmarkEPN10QtMobility9QLandmarkEPNS0_16QLandmarkManager5ErrorEP7QString 0x0001cdec   Data           0  qlandmarkmanagerengine_symbian_p.o(.ARM.extab)
    .extab._ZN35LandmarkManagerEngineSymbianPrivate13saveLandmarksEP5QListIN10QtMobility9QLandmarkEEP4QMapIiNS1_16QLandmarkManager5ErrorEEPS7_P7QString 0x0001ce84   Data           0  qlandmarkmanagerengine_symbian_p.o(.ARM.extab)
    .extab._ZN35LandmarkManagerEngineSymbianPrivate23removeLandmarkInternalLERKN10QtMobility11QLandmarkIdEPNS0_16QLandmarkManager5ErrorEP7QStringPb 0x0001cf5c   Data           0  qlandmarkmanagerengine_symbian_p.o(.ARM.extab)
    .extab._ZN35LandmarkManagerEngineSymbianPrivate14removeLandmarkERKN10QtMobility11QLandmarkIdEPNS0_16QLandmarkManager5ErrorEP7QString 0x0001cfbc   Data           0  qlandmarkmanagerengine_symbian_p.o(.ARM.extab)
    .extab._ZN35LandmarkManagerEngineSymbianPrivate15removeLandmarksERK5QListIN10QtMobility11QLandmarkIdEEP4QMapIiNS1_16QLandmarkManager5ErrorEEPS8_P7QString 0x0001d014   Data           0  qlandmarkmanagerengine_symbian_p.o(.ARM.extab)
    .extab._ZN35LandmarkManagerEngineSymbianPrivate21saveCategoryInternalLEPN10QtMobility17QLandmarkCategoryEPNS0_16QLandmarkManager5ErrorEP7QStringPbS8_ 0x0001d09c   Data           0  qlandmarkmanagerengine_symbian_p.o(.ARM.extab)
    .extab._ZN35LandmarkManagerEngineSymbianPrivate12saveCategoryEPN10QtMobility17QLandmarkCategoryEPNS0_16QLandmarkManager5ErrorEP7QString 0x0001d1f4   Data           0  qlandmarkmanagerengine_symbian_p.o(.ARM.extab)
    .extab._ZN35LandmarkManagerEngineSymbianPrivate23removeCategoryInternalLERKN10QtMobility19QLandmarkCategoryIdEPNS0_16QLandmarkManager5ErrorEP7QStringPb 0x0001d28c   Data           0  qlandmarkmanagerengine_symbian_p.o(.ARM.extab)
    .extab._ZN35LandmarkManagerEngineSymbianPrivate14removeCategoryERKN10QtMobility19QLandmarkCategoryIdEPNS0_16QLandmarkManager5ErrorEP7QString 0x0001d2f4   Data           0  qlandmarkmanagerengine_symbian_p.o(.ARM.extab)
    .extab._ZNK35LandmarkManagerEngineSymbianPrivate16importLandmarksLEP9QIODeviceRK7QStringN10QtMobility16QLandmarkManager14TransferOptionERKNS5_19QLandmarkCategoryIdE 0x0001d34c   Data           0  qlandmarkmanagerengine_symbian_p.o(.ARM.extab)
    .extab._ZN35LandmarkManagerEngineSymbianPrivate15importLandmarksEP9QIODeviceRK7QStringN10QtMobility16QLandmarkManager14TransferOptionERKNS5_19QLandmarkCategoryIdEPNS6_5ErrorEPS2_ 0x0001d3fc   Data           0  qlandmarkmanagerengine_symbian_p.o(.ARM.extab)
    .extab._ZNK35LandmarkManagerEngineSymbianPrivate16supportedFormatsEN10QtMobility16QLandmarkManager17TransferOperationEPNS1_5ErrorEP7QString 0x0001d444   Data           0  qlandmarkmanagerengine_symbian_p.o(.ARM.extab)
    .extab._ZNK35LandmarkManagerEngineSymbianPrivate16exportLandmarksLEP9QIODeviceRK7QStringRK5QListIN10QtMobility11QLandmarkIdEENS6_16QLandmarkManager14TransferOptionE 0x0001d4d4   Data           0  qlandmarkmanagerengine_symbian_p.o(.ARM.extab)
    .extab._ZNK35LandmarkManagerEngineSymbianPrivate15exportLandmarksEP9QIODeviceRK7QStringRK5QListIN10QtMobility11QLandmarkIdEENS6_16QLandmarkManager14TransferOptionEPNSB_5ErrorEPS2_ 0x0001d554   Data           0  qlandmarkmanagerengine_symbian_p.o(.ARM.extab)
    .extab._ZNK35LandmarkManagerEngineSymbianPrivate18filterSupportLevelERKN10QtMobility15QLandmarkFilterEPNS0_16QLandmarkManager5ErrorEP7QString 0x0001d63c   Data           0  qlandmarkmanagerengine_symbian_p.o(.ARM.extab)
    .extab._ZNK35LandmarkManagerEngineSymbianPrivate21sortOrderSupportLevelERKN10QtMobility18QLandmarkSortOrderEPNS0_16QLandmarkManager5ErrorEP7QString 0x0001d6bc   Data           0  qlandmarkmanagerengine_symbian_p.o(.ARM.extab)
    .extab._ZNK35LandmarkManagerEngineSymbianPrivate10isReadOnlyERKN10QtMobility19QLandmarkCategoryIdEPNS0_16QLandmarkManager5ErrorEP7QString 0x0001d6cc   Data           0  qlandmarkmanagerengine_symbian_p.o(.ARM.extab)
    .extab._ZN35LandmarkManagerEngineSymbianPrivate13startRequestLEPN10QtMobility24QLandmarkAbstractRequestE 0x0001d6e4   Data           0  qlandmarkmanagerengine_symbian_p.o(.ARM.extab)
    .extab._ZN35LandmarkManagerEngineSymbianPrivate12startRequestEPN10QtMobility24QLandmarkAbstractRequestE 0x0001da44   Data           0  qlandmarkmanagerengine_symbian_p.o(.ARM.extab)
    .extab._ZN35LandmarkManagerEngineSymbianPrivate16HandleExecutionLEP20CLandmarkRequestDataR14TRequestStatus 0x0001db9c   Data           0  qlandmarkmanagerengine_symbian_p.o(.ARM.extab)
    .extab._ZN35LandmarkManagerEngineSymbianPrivate17HandleCompletionLEP20CLandmarkRequestData 0x0001e134   Data           0  qlandmarkmanagerengine_symbian_p.o(.ARM.extab)
    .extab._ZN35LandmarkManagerEngineSymbianPrivate19handleDatabaseEventERK11TPosLmEvent 0x0001e5d4   Data           0  qlandmarkmanagerengine_symbian_p.o(.ARM.extab)
    .extab.__sti___36_qlandmarkmanagerengine_symbian_p_cpp 0x0001e824   Data           0  qlandmarkmanagerengine_symbian_p.o(.ARM.extab)
    .extab._ZN5QListIN10QtMobility9QLandmarkEE14node_constructEPNS2_4NodeERKS1_ 0x0001e83c   Data           0  qlandmarkmanagerengine_symbian_p.o(.ARM.extab)
    .extab._ZN5QListIN10QtMobility9QLandmarkEE9node_copyEPNS2_4NodeES4_S4_ 0x0001e84c   Data           0  qlandmarkmanagerengine_symbian_p.o(.ARM.extab)
    .extab._ZN5QListIN10QtMobility9QLandmarkEE18detach_helper_growEii 0x0001e870   Data           0  qlandmarkmanagerengine_symbian_p.o(.ARM.extab)
    .extab._ZN5QListIN10QtMobility9QLandmarkEE6appendERKS1_ 0x0001e8a0   Data           0  qlandmarkmanagerengine_symbian_p.o(.ARM.extab)
    .extab._ZN5QListIN10QtMobility11QLandmarkIdEE9node_copyEPNS2_4NodeES4_S4_ 0x0001e8d0   Data           0  qlandmarkmanagerengine_symbian_p.o(.ARM.extab)
    .extab._ZN5QListIN10QtMobility11QLandmarkIdEE13detach_helperEi 0x0001e8f4   Data           0  qlandmarkmanagerengine_symbian_p.o(.ARM.extab)
    .extab._Z20qForeachContainerNewI5QListIN10QtMobility11QLandmarkIdEEE17QForeachContainerIT_ERKS5_ 0x0001e910   Data           0  qlandmarkmanagerengine_symbian_p.o(.ARM.extab)
    .extab._ZN5QListIN10QtMobility19QLandmarkCategoryIdEE9node_copyEPNS2_4NodeES4_S4_ 0x0001e920   Data           0  qlandmarkmanagerengine_symbian_p.o(.ARM.extab)
    .extab._ZN5QListIN10QtMobility19QLandmarkCategoryIdEE13detach_helperEi 0x0001e944   Data           0  qlandmarkmanagerengine_symbian_p.o(.ARM.extab)
    .extab._ZN7QString5clearEv               0x0001e960   Data           0  qlandmarkmanagerengine_symbian_p.o(.ARM.extab)
    .extab._ZN7QStringaSEPKc                 0x0001e970   Data           0  qlandmarkmanagerengine_symbian_p.o(.ARM.extab)
    .extab._ZN9QHashData9hasShrunkEv         0x0001e980   Data           0  qlandmarkmanagerengine_symbian_p.o(.ARM.extab)
    .extab._ZN4QMapI7QStringS0_E11node_createEP8QMapDataPPNS2_4NodeERKS0_S8_ 0x0001e994   Data           0  qlandmarkmanagerengine_symbian_p.o(.ARM.extab)
    .extab._ZN4QMapI7QStringS0_E13detach_helperEv 0x0001e9e0   Data           0  qlandmarkmanagerengine_symbian_p.o(.ARM.extab)
    .extab._ZN5QListIN10QtMobility11QLandmarkIdEE5clearEv 0x0001e9fc   Data           0  qlandmarkmanagerengine_symbian_p.o(.ARM.extab)
    .extab._ZN5QListIN10QtMobility11QLandmarkIdEE14node_constructEPNS2_4NodeERKS1_ 0x0001ea0c   Data           0  qlandmarkmanagerengine_symbian_p.o(.ARM.extab)
    .extab._ZN5QListIN10QtMobility11QLandmarkIdEE18detach_helper_growEii 0x0001ea1c   Data           0  qlandmarkmanagerengine_symbian_p.o(.ARM.extab)
    .extab._ZN5QListIN10QtMobility11QLandmarkIdEE6appendERKS1_ 0x0001ea4c   Data           0  qlandmarkmanagerengine_symbian_p.o(.ARM.extab)
    .extab._ZNK5QListIN10QtMobility11QLandmarkIdEE3midEii 0x0001ea7c   Data           0  qlandmarkmanagerengine_symbian_p.o(.ARM.extab)
    .extab._ZN5QListIN10QtMobility11QLandmarkIdEEpLERKS2_ 0x0001eaa8   Data           0  qlandmarkmanagerengine_symbian_p.o(.ARM.extab)
    .extab._ZNK5QListIN10QtMobility11QLandmarkIdEE5toSetEv 0x0001eac4   Data           0  qlandmarkmanagerengine_symbian_p.o(.ARM.extab)
    .extab._ZN5QListIN10QtMobility19QLandmarkCategoryIdEE5clearEv 0x0001ead4   Data           0  qlandmarkmanagerengine_symbian_p.o(.ARM.extab)
    .extab._ZN5QListIN10QtMobility19QLandmarkCategoryIdEE14node_constructEPNS2_4NodeERKS1_ 0x0001eae4   Data           0  qlandmarkmanagerengine_symbian_p.o(.ARM.extab)
    .extab._ZN5QListIN10QtMobility19QLandmarkCategoryIdEE18detach_helper_growEii 0x0001eaf4   Data           0  qlandmarkmanagerengine_symbian_p.o(.ARM.extab)
    .extab._ZN5QListIN10QtMobility19QLandmarkCategoryIdEE6appendERKS1_ 0x0001eb24   Data           0  qlandmarkmanagerengine_symbian_p.o(.ARM.extab)
    .extab._ZNK5QListIN10QtMobility19QLandmarkCategoryIdEE3midEii 0x0001eb54   Data           0  qlandmarkmanagerengine_symbian_p.o(.ARM.extab)
    .extab._ZN5QListIN10QtMobility9QLandmarkEE13detach_helperEi 0x0001eb80   Data           0  qlandmarkmanagerengine_symbian_p.o(.ARM.extab)
    .extab._ZN5QListIN10QtMobility9QLandmarkEE5clearEv 0x0001eb9c   Data           0  qlandmarkmanagerengine_symbian_p.o(.ARM.extab)
    .extab._ZN5QListIN10QtMobility17QLandmarkCategoryEE9node_copyEPNS2_4NodeES4_S4_ 0x0001ebac   Data           0  qlandmarkmanagerengine_symbian_p.o(.ARM.extab)
    .extab._ZN5QListIN10QtMobility17QLandmarkCategoryEE13detach_helperEi 0x0001ebd0   Data           0  qlandmarkmanagerengine_symbian_p.o(.ARM.extab)
    .extab._ZN5QListIN10QtMobility17QLandmarkCategoryEE5clearEv 0x0001ebec   Data           0  qlandmarkmanagerengine_symbian_p.o(.ARM.extab)
    .extab._ZN5QListIN10QtMobility17QLandmarkCategoryEE14node_constructEPNS2_4NodeERKS1_ 0x0001ebfc   Data           0  qlandmarkmanagerengine_symbian_p.o(.ARM.extab)
    .extab._ZN5QListIN10QtMobility17QLandmarkCategoryEE18detach_helper_growEii 0x0001ec0c   Data           0  qlandmarkmanagerengine_symbian_p.o(.ARM.extab)
    .extab._ZN5QListIN10QtMobility17QLandmarkCategoryEE6appendERKS1_ 0x0001ec3c   Data           0  qlandmarkmanagerengine_symbian_p.o(.ARM.extab)
    .extab._ZNK5QListIN10QtMobility17QLandmarkCategoryEE3midEii 0x0001ec6c   Data           0  qlandmarkmanagerengine_symbian_p.o(.ARM.extab)
    .extab._ZNK4QSetI7QStringE6toListEv      0x0001ec98   Data           0  qlandmarkmanagerengine_symbian_p.o(.ARM.extab)
    .extab._ZN4QMapIiN10QtMobility16QLandmarkManager5ErrorEE13detach_helperEv 0x0001eca8   Data           0  qlandmarkmanagerengine_symbian_p.o(.ARM.extab)
    .extab._ZN4QMapIiN10QtMobility16QLandmarkManager5ErrorEE5clearEv 0x0001ecc4   Data           0  qlandmarkmanagerengine_symbian_p.o(.ARM.extab)
    .extab._ZN5QListIN10QtMobility18QLandmarkSortOrderEE9node_copyEPNS2_4NodeES4_S4_ 0x0001ecd4   Data           0  qlandmarkmanagerengine_symbian_p.o(.ARM.extab)
    .extab._ZN5QListIN10QtMobility18QLandmarkSortOrderEE13detach_helperEi 0x0001ecf8   Data           0  qlandmarkmanagerengine_symbian_p.o(.ARM.extab)
    .extab._ZNK4QSetIN10QtMobility11QLandmarkIdEE6toListEv 0x0001ed14   Data           0  qlandmarkmanagerengine_symbian_p.o(.ARM.extab)
    .extab._ZN5QListIN10QtMobility15QLandmarkFilterEE13detach_helperEi 0x0001ed24   Data           0  qlandmarkmanagerengine_symbian_p.o(.ARM.extab)
    .extab._ZN5QListIN10QtMobility15QLandmarkFilterEE6takeAtEi 0x0001ed68   Data           0  qlandmarkmanagerengine_symbian_p.o(.ARM.extab)
    .extab._ZN5QListIN10QtMobility18QLandmarkSortOrderEE14node_constructEPNS2_4NodeERKS1_ 0x0001ed78   Data           0  qlandmarkmanagerengine_symbian_p.o(.ARM.extab)
    .extab._ZN5QListIN10QtMobility18QLandmarkSortOrderEE18detach_helper_growEii 0x0001ed88   Data           0  qlandmarkmanagerengine_symbian_p.o(.ARM.extab)
    .extab._ZN5QListIN10QtMobility18QLandmarkSortOrderEE6appendERKS1_ 0x0001edb8   Data           0  qlandmarkmanagerengine_symbian_p.o(.ARM.extab)
    .extab._ZN5QHashIN10QtMobility11QLandmarkIdE15QHashDummyValueE13duplicateNodeEPN9QHashData4NodeEPv 0x0001ede8   Data           0  qlandmarkmanagerengine_symbian_p.o(.ARM.extab)
    .extab._ZN5QHashIN10QtMobility11QLandmarkIdE15QHashDummyValueE6insertERKS1_RKS2_ 0x0001edf8   Data           0  qlandmarkmanagerengine_symbian_p.o(.ARM.extab)
    .extab._ZN5QHashI7QString15QHashDummyValueE13duplicateNodeEPN9QHashData4NodeEPv 0x0001ee08   Data           0  qlandmarkmanagerengine_symbian_p.o(.ARM.extab)
    .extab._ZN4QSetI7QStringE9intersectERKS1_ 0x0001ee18   Data           0  qlandmarkmanagerengine_symbian_p.o(.ARM.extab)
    .extab._ZN4QSetIN10QtMobility11QLandmarkIdEE9intersectERKS2_ 0x0001ee38   Data           0  qlandmarkmanagerengine_symbian_p.o(.ARM.extab)
    .extab._ZN5QHashI7QString15QHashDummyValueE6insertERKS0_RKS1_ 0x0001ee58   Data           0  qlandmarkmanagerengine_symbian_p.o(.ARM.extab)
    .extab._ZN15LandmarkUtility14getCategoryIdsE7QStringP12CPosLandmark 0x0001ee68   Data           0  qlandmarkutility.o(.ARM.extab)
    .extab._ZN15LandmarkUtility21convertToQtLandmarkIdE7QStringm 0x0001eed0   Data           0  qlandmarkutility.o(.ARM.extab)
    .extab._ZN15LandmarkUtility19convertToQtLandmarkE7QStringP12CPosLandmarkPN10QtMobility9QLandmarkE 0x0001eef0   Data           0  qlandmarkutility.o(.ARM.extab)
    .extab._ZN15LandmarkUtility34convertToSymbianLandmarkCategoryIdEN10QtMobility19QLandmarkCategoryIdE 0x0001f02c   Data           0  qlandmarkutility.o(.ARM.extab)
    .extab._ZN15LandmarkUtility25convertToSymbianLandmarkLEPN10QtMobility9QLandmarkEP12CPosLandmark 0x0001f04c   Data           0  qlandmarkutility.o(.ARM.extab)
    .extab._ZN15LandmarkUtility19setSymbianLandmarkLER12CPosLandmarkPN10QtMobility9QLandmarkE 0x0001f1ec   Data           0  qlandmarkutility.o(.ARM.extab)
    .extab._ZN15LandmarkUtility22convertToQtLandmarkIdsE7QStringR6RArrayImE 0x0001f38c   Data           0  qlandmarkutility.o(.ARM.extab)
    .extab._ZN15LandmarkUtility26convertToSymbianLandmarkIdEN10QtMobility11QLandmarkIdE 0x0001f3bc   Data           0  qlandmarkutility.o(.ARM.extab)
    .extab._ZN15LandmarkUtility21getSymbianLandmarkIdsER5QListIN10QtMobility11QLandmarkIdEE 0x0001f3dc   Data           0  qlandmarkutility.o(.ARM.extab)
    .extab._ZN15LandmarkUtility29convertToQtLandmarkCategoryIdE7QStringm 0x0001f3ec   Data           0  qlandmarkutility.o(.ARM.extab)
    .extab._ZN15LandmarkUtility27convertToQtLandmarkCategoryE7QStringP20CPosLandmarkCategoryPN10QtMobility17QLandmarkCategoryE 0x0001f40c   Data           0  qlandmarkutility.o(.ARM.extab)
    .extab._ZN15LandmarkUtility33convertToSymbianLandmarkCategoryLEPN10QtMobility17QLandmarkCategoryEP20CPosLandmarkCategory 0x0001f44c   Data           0  qlandmarkutility.o(.ARM.extab)
    .extab._ZN15LandmarkUtility27setSymbianLandmarkCategoryLER20CPosLandmarkCategoryPN10QtMobility17QLandmarkCategoryE 0x0001f47c   Data           0  qlandmarkutility.o(.ARM.extab)
    .extab._ZN15LandmarkUtility30convertToQtLandmarkCategoryIdsE7QStringR6RArrayImE 0x0001f4ac   Data           0  qlandmarkutility.o(.ARM.extab)
    .extab._ZN15LandmarkUtility20getSymbianLandmarkIdEPN10QtMobility9QLandmarkE 0x0001f4dc   Data           0  qlandmarkutility.o(.ARM.extab)
    .extab._ZN15LandmarkUtility20validCategoriesExistEP21CPosLmCategoryManagerPN10QtMobility9QLandmarkE7QString 0x0001f4fc   Data           0  qlandmarkutility.o(.ARM.extab)
    .extab._ZN15LandmarkUtility14getCategoriesLEP21CPosLmCategoryManager5QListIN10QtMobility19QLandmarkCategoryIdEE 0x0001f564   Data           0  qlandmarkutility.o(.ARM.extab)
    .extab._ZN15LandmarkUtility18isGlobalCategoryIdEP21CPosLmCategoryManagerN10QtMobility19QLandmarkCategoryIdE 0x0001f5ec   Data           0  qlandmarkutility.o(.ARM.extab)
    .extab._ZN15LandmarkUtility21landmarkAttributeKeysEv 0x0001f734   Data           0  qlandmarkutility.o(.ARM.extab)
    .extab._ZN15LandmarkUtility21categoryAttributeKeysEv 0x0001f854   Data           0  qlandmarkutility.o(.ARM.extab)
    .extab._ZN15LandmarkUtility31searchableLandmarkAttributeKeysEv 0x0001f884   Data           0  qlandmarkutility.o(.ARM.extab)
    .extab._ZN15LandmarkUtility11preparePathE7QString 0x0001f954   Data           0  qlandmarkutility.o(.ARM.extab)
    .extab._Z23qStringComparisonHelperRK7QStringPKc 0x0001f9a4   Data           0  qlandmarkutility.o(.ARM.extab)
    .extab._Z6qDebugv                        0x0001f9b4   Data           0  qlandmarkutility.o(.ARM.extab)
    .extab._ZN6QDebugD1Ev                    0x0001f9cc   Data           0  qlandmarkutility.o(.ARM.extab)
    .extab._ZN6QDebuglsEPKc                  0x0001f9f0   Data           0  qlandmarkutility.o(.ARM.extab)
    .extab._ZN23CLandmarkDbEventHandlerC1Ev  0x0001fa00   Data           0  qlandmarkdbeventhandler.o(.ARM.extab)
    .extab._ZN23CLandmarkDbEventHandlerD1Ev  0x0001fa10   Data           0  qlandmarkdbeventhandler.o(.ARM.extab)
    .extab._ZN23CLandmarkDbEventHandler10AddObseverEP24MLandmarkDbEventObserver 0x0001fa20   Data           0  qlandmarkdbeventhandler.o(.ARM.extab)
    .extab._ZN23CLandmarkDbEventHandler13RemoveObseverEP24MLandmarkDbEventObserver 0x0001fa50   Data           0  qlandmarkdbeventhandler.o(.ARM.extab)
    .extab._ZN20CLandmarkRequestDataC1EPN10QtMobility24QLandmarkAbstractRequestEP18CLandmarkRequestAO 0x0001fa80   Data           0  qlandmarkrequesthandler.o(.ARM.extab)
    .extab._ZN20CLandmarkRequestData5ResetEv 0x0001fb08   Data           0  qlandmarkrequesthandler.o(.ARM.extab)
    .extab._ZN20CLandmarkRequestDataD1Ev     0x0001fb18   Data           0  qlandmarkrequesthandler.o(.ARM.extab)
    .extab._ZN18CLandmarkRequestAO13WakeupThreadsEi 0x0001fba0   Data           0  qlandmarkrequesthandler.o(.ARM.extab)
    .extab._ZN18CLandmarkRequestAO12StartRequestEP18CPosLandmarkSearch 0x0001fbd0   Data           0  qlandmarkrequesthandler.o(.ARM.extab)
    .extab._ZN18CLandmarkRequestAO23IsMultiOperationRequestEv 0x0001fc00   Data           0  qlandmarkrequesthandler.o(.ARM.extab)
    .extab._ZN18CLandmarkRequestAO15WaitForRequestLEiR14TRequestStatus 0x0001fc20   Data           0  qlandmarkrequesthandler.o(.ARM.extab)
    .extab._ZN18CLandmarkRequestAO15WaitForFinishedEi 0x0001fc50   Data           0  qlandmarkrequesthandler.o(.ARM.extab)
    .extab._ZN18CLandmarkRequestAOC1EP15CPosLmOperationP24MLandmarkRequestObserver 0x0001fc80   Data           0  qlandmarkrequesthandler.o(.ARM.extab)
    .extab._ZN18CLandmarkRequestAOD1Ev       0x0001fc90   Data           0  qlandmarkrequesthandler.o(.ARM.extab)
    .extab._ZN18CLandmarkRequestAO4RunLEv    0x0001fca0   Data           0  qlandmarkrequesthandler.o(.ARM.extab)
    .extab._ZN18CLandmarkRequestAO8RunErrorEi 0x0001fcf8   Data           0  qlandmarkrequesthandler.o(.ARM.extab)
    .extab._ZN18CLandmarkRequestAO8DoCancelEv 0x0001fd28   Data           0  qlandmarkrequesthandler.o(.ARM.extab)
    .extab._ZN22LandmarkRequestHandler15AddAsyncRequestEPN10QtMobility24QLandmarkAbstractRequestEP18CLandmarkRequestAO 0x0001fd58   Data           0  qlandmarkrequesthandler.o(.ARM.extab)
    .constdata$1                             0x0001fd88   Data           0  moc_qlandmarkmanagerenginefactory_symbian.o(.constdata)
    qt_meta_data_QLandmarkManagerEngineFactorySymbian 0x0001fd88   Data          60  moc_qlandmarkmanagerenginefactory_symbian.o(.constdata)
    .constdata                               0x0001fd88   Section      116  moc_qlandmarkmanagerenginefactory_symbian.o(.constdata)
    qt_meta_stringdata_QLandmarkManagerEngineFactorySymbian 0x0001fdc4   Data          38  moc_qlandmarkmanagerenginefactory_symbian.o(.constdata)
    .constdata$1                             0x0001fdfc   Data           0  moc_qlandmarkmanagerengine_symbian.o(.constdata)
    qt_meta_data_QLandmarkManagerEngineSymbian 0x0001fdfc   Data          60  moc_qlandmarkmanagerengine_symbian.o(.constdata)
    .constdata                               0x0001fdfc   Section      108  moc_qlandmarkmanagerengine_symbian.o(.constdata)
    qt_meta_stringdata_QLandmarkManagerEngineSymbian 0x0001fe38   Data          31  moc_qlandmarkmanagerengine_symbian.o(.constdata)
    .constdata$1                             0x0001fe68   Data           0  qlandmarkmanagerenginefactory_symbian.o(.constdata)
    qt_plugin_verification_data              0x0001fe68   Data          91  qlandmarkmanagerenginefactory_symbian.o(.constdata)
    .constdata                               0x0001fe68   Section       91  qlandmarkmanagerenginefactory_symbian.o(.constdata)
    .constdata$1                             0x0001fec4   Data           0  qlandmarkmanagerengine_symbian_p.o(.constdata)
    KDefaultTextCriteria                     0x0001fec4   Data           8  qlandmarkmanagerengine_symbian_p.o(.constdata)
    .constdata                               0x0001fec4   Section     1612  qlandmarkmanagerengine_symbian_p.o(.constdata)
    KDefaultSpaceTextSearch                  0x0001fecc   Data          12  qlandmarkmanagerengine_symbian_p.o(.constdata)
    KPosMimeTypeLandmarkCollectionXml        0x0001fed8   Data          52  qlandmarkmanagerengine_symbian_p.o(.constdata)
    .constdata$1                             0x00020510   Data           0  qlandmarkutility.o(.constdata)
    KNullDesC                                0x00020510   Data           8  qlandmarkutility.o(.constdata)
    .constdata                               0x00020510   Section      188  qlandmarkutility.o(.constdata)
    Klmx                                     0x00020518   Data          52  qlandmarkutility.o(.constdata)
    Kgpx                                     0x0002054c   Data          24  qlandmarkutility.o(.constdata)
    Kkml                                     0x00020564   Data          44  qlandmarkutility.o(.constdata)
    Kkmz                                     0x00020590   Data          40  qlandmarkutility.o(.constdata)
    KDoubleSlash                             0x000205b8   Data          12  qlandmarkutility.o(.constdata)
    KProtocol                                0x000205c4   Data           8  qlandmarkutility.o(.constdata)
    .constdata__ZN9stlp_priv15_Integer_limitsIaLan128ELa127ELin1ELb1EE6digitsE 0x000205cc   Section        4  moc_qlandmarkmanagerenginefactory_symbian.o(.constdata__ZN9stlp_priv15_Integer_limitsIaLan128ELa127ELin1ELb1EE6digitsE)
    .constdata__ZN9stlp_priv15_Integer_limitsIbLb0ELb1ELi1ELb0EE6digitsE 0x000205d0   Section        4  moc_qlandmarkmanagerenginefactory_symbian.o(.constdata__ZN9stlp_priv15_Integer_limitsIbLb0ELb1ELi1ELb0EE6digitsE)
    .constdata__ZN9stlp_priv15_Integer_limitsIcLc128ELc127ELin1ELb1EE6digitsE 0x000205d4   Section        4  moc_qlandmarkmanagerenginefactory_symbian.o(.constdata__ZN9stlp_priv15_Integer_limitsIcLc128ELc127ELin1ELb1EE6digitsE)
    .constdata__ZN9stlp_priv15_Integer_limitsIhLh0ELh255ELin1ELb1EE6digitsE 0x000205d8   Section        4  moc_qlandmarkmanagerenginefactory_symbian.o(.constdata__ZN9stlp_priv15_Integer_limitsIhLh0ELh255ELin1ELb1EE6digitsE)
    .constdata__ZN9stlp_priv15_Integer_limitsIiLin2147483648ELi2147483647ELin1ELb1EE6digitsE 0x000205dc   Section        4  moc_qlandmarkmanagerenginefactory_symbian.o(.constdata__ZN9stlp_priv15_Integer_limitsIiLin2147483648ELi2147483647ELin1ELb1EE6digitsE)
    .constdata__ZN9stlp_priv15_Integer_limitsIiLin2147483648ELi2147483647ELin1ELb1EE9is_signedE 0x000205e0   Section        1  moc_qlandmarkmanagerenginefactory_symbian.o(.constdata__ZN9stlp_priv15_Integer_limitsIiLin2147483648ELi2147483647ELin1ELb1EE9is_signedE)
    .constdata__ZN9stlp_priv15_Integer_limitsIjLj0ELj4294967295ELin1ELb1EE6digitsE 0x000205e4   Section        4  moc_qlandmarkmanagerenginefactory_symbian.o(.constdata__ZN9stlp_priv15_Integer_limitsIjLj0ELj4294967295ELin1ELb1EE6digitsE)
    .constdata__ZN9stlp_priv15_Integer_limitsIlLln2147483648ELl2147483647ELin1ELb1EE6digitsE 0x000205e8   Section        4  moc_qlandmarkmanagerenginefactory_symbian.o(.constdata__ZN9stlp_priv15_Integer_limitsIlLln2147483648ELl2147483647ELin1ELb1EE6digitsE)
    .constdata__ZN9stlp_priv15_Integer_limitsImLm0ELm4294967295ELin1ELb1EE6digitsE 0x000205ec   Section        4  moc_qlandmarkmanagerenginefactory_symbian.o(.constdata__ZN9stlp_priv15_Integer_limitsImLm0ELm4294967295ELin1ELb1EE6digitsE)
    .constdata__ZN9stlp_priv15_Integer_limitsIsLsn32768ELs32767ELin1ELb1EE6digitsE 0x000205f0   Section        4  moc_qlandmarkmanagerenginefactory_symbian.o(.constdata__ZN9stlp_priv15_Integer_limitsIsLsn32768ELs32767ELin1ELb1EE6digitsE)
    .constdata__ZN9stlp_priv15_Integer_limitsItLt0ELt65535ELin1ELb1EE6digitsE 0x000205f4   Section        4  moc_qlandmarkmanagerenginefactory_symbian.o(.constdata__ZN9stlp_priv15_Integer_limitsItLt0ELt65535ELin1ELb1EE6digitsE)
    .constdata__ZN9stlp_priv15_Integer_limitsIwLw0ELw65535ELin1ELb1EE6digitsE 0x000205f8   Section        4  moc_qlandmarkmanagerenginefactory_symbian.o(.constdata__ZN9stlp_priv15_Integer_limitsIwLw0ELw65535ELin1ELb1EE6digitsE)
    .constdata__ZN9stlp_priv15_Integer_limitsIxLxn9223372036854775808ELx9223372036854775807ELin1ELb1EE6digitsE 0x000205fc   Section        4  moc_qlandmarkmanagerenginefactory_symbian.o(.constdata__ZN9stlp_priv15_Integer_limitsIxLxn9223372036854775808ELx9223372036854775807ELin1ELb1EE6digitsE)
    .constdata__ZN9stlp_priv15_Integer_limitsIyLy0ELy18446744073709551615ELin1ELb1EE6digitsE 0x00020600   Section        4  moc_qlandmarkmanagerenginefactory_symbian.o(.constdata__ZN9stlp_priv15_Integer_limitsIyLy0ELy18446744073709551615ELin1ELb1EE6digitsE)
    .constdata__ZTI18CLandmarkRequestAO      0x00020604   Section       12  qlandmarkrequesthandler.o(.constdata__ZTI18CLandmarkRequestAO)
    .constdata__ZTI20CLandmarkRequestData    0x00020610   Section       12  qlandmarkrequesthandler.o(.constdata__ZTI20CLandmarkRequestData)
    .constdata__ZTI21LandmarkEventObserver   0x0002061c   Section        8  moc_qlandmarkmanagerengine_symbian.o(.constdata__ZTI21LandmarkEventObserver)
    .constdata__ZTI23CLandmarkDbEventHandler 0x00020624   Section       12  qlandmarkdbeventhandler.o(.constdata__ZTI23CLandmarkDbEventHandler)
    .constdata__ZTI24MLandmarkDbEventObserver 0x00020630   Section        8  qlandmarkmanagerengine_symbian_p.o(.constdata__ZTI24MLandmarkDbEventObserver)
    .constdata__ZTI24MLandmarkRequestObserver 0x00020638   Section        8  qlandmarkmanagerengine_symbian_p.o(.constdata__ZTI24MLandmarkRequestObserver)
    .constdata__ZTI29QLandmarkManagerEngineSymbian 0x00020640   Section       32  moc_qlandmarkmanagerengine_symbian.o(.constdata__ZTI29QLandmarkManagerEngineSymbian)
    .constdata__ZTI35LandmarkManagerEngineSymbianPrivate 0x00020660   Section       32  qlandmarkmanagerengine_symbian_p.o(.constdata__ZTI35LandmarkManagerEngineSymbianPrivate)
    .constdata__ZTI36QLandmarkManagerEngineFactorySymbian 0x00020680   Section       32  moc_qlandmarkmanagerenginefactory_symbian.o(.constdata__ZTI36QLandmarkManagerEngineFactorySymbian)
    .constdata__ZTS18CLandmarkRequestAO      0x000206a0   Section       21  qlandmarkrequesthandler.o(.constdata__ZTS18CLandmarkRequestAO)
    .constdata__ZTS20CLandmarkRequestData    0x000206b5   Section       23  qlandmarkrequesthandler.o(.constdata__ZTS20CLandmarkRequestData)
    .constdata__ZTS21LandmarkEventObserver   0x000206cc   Section       24  moc_qlandmarkmanagerengine_symbian.o(.constdata__ZTS21LandmarkEventObserver)
    .constdata__ZTS23CLandmarkDbEventHandler 0x000206e4   Section       26  qlandmarkdbeventhandler.o(.constdata__ZTS23CLandmarkDbEventHandler)
    .constdata__ZTS24MLandmarkDbEventObserver 0x000206fe   Section       27  qlandmarkmanagerengine_symbian_p.o(.constdata__ZTS24MLandmarkDbEventObserver)
    .constdata__ZTS24MLandmarkRequestObserver 0x00020719   Section       27  qlandmarkmanagerengine_symbian_p.o(.constdata__ZTS24MLandmarkRequestObserver)
    .constdata__ZTS29QLandmarkManagerEngineSymbian 0x00020734   Section       32  moc_qlandmarkmanagerengine_symbian.o(.constdata__ZTS29QLandmarkManagerEngineSymbian)
    .constdata__ZTS35LandmarkManagerEngineSymbianPrivate 0x00020754   Section       38  qlandmarkmanagerengine_symbian_p.o(.constdata__ZTS35LandmarkManagerEngineSymbianPrivate)
    .constdata__ZTS36QLandmarkManagerEngineFactorySymbian 0x0002077a   Section       39  moc_qlandmarkmanagerenginefactory_symbian.o(.constdata__ZTS36QLandmarkManagerEngineFactorySymbian)
    .constdata__ZTV18CLandmarkRequestAO      0x000207a4   Section       32  qlandmarkrequesthandler.o(.constdata__ZTV18CLandmarkRequestAO)
    .constdata__ZTV20CLandmarkRequestData    0x000207c4   Section       20  qlandmarkrequesthandler.o(.constdata__ZTV20CLandmarkRequestData)
    .constdata__ZTV21LandmarkEventObserver   0x000207d8   Section       12  qlandmarkmanagerengine_symbian.o(.constdata__ZTV21LandmarkEventObserver)
    .constdata__ZTV23CLandmarkDbEventHandler 0x000207e4   Section       32  qlandmarkdbeventhandler.o(.constdata__ZTV23CLandmarkDbEventHandler)
    .constdata__ZTV24MLandmarkDbEventObserver 0x00020804   Section       12  qlandmarkmanagerengine_symbian_p.o(.constdata__ZTV24MLandmarkDbEventObserver)
    .constdata__ZTV24MLandmarkRequestObserver 0x00020810   Section       16  qlandmarkmanagerengine_symbian_p.o(.constdata__ZTV24MLandmarkRequestObserver)
    .constdata__ZTV29QLandmarkManagerEngineSymbian 0x00020820   Section      196  moc_qlandmarkmanagerengine_symbian.o(.constdata__ZTV29QLandmarkManagerEngineSymbian)
    .constdata__ZTV35LandmarkManagerEngineSymbianPrivate 0x000208e4   Section       32  qlandmarkmanagerengine_symbian_p.o(.constdata__ZTV35LandmarkManagerEngineSymbianPrivate)
    .constdata__ZTV36QLandmarkManagerEngineFactorySymbian 0x00020904   Section       96  moc_qlandmarkmanagerenginefactory_symbian.o(.constdata__ZTV36QLandmarkManagerEngineFactorySymbian)
    .init_array                              0x00020964   Section        4  qlandmarkmanagerengine_symbian_p.o(.init_array)
    .ARM.exidx                               0x00020968   Section        8  ucppinit.o(.ARM.exidx)
    .data$0                                  0x00400000   Data           0  qlandmarkmanagerenginefactory_symbian.o(.data)
    _ZGV_instance@qt_plugin_instance_0       0x00400000   Data           4  qlandmarkmanagerenginefactory_symbian.o(.data)
    .data                                    0x00400000   Section        8  qlandmarkmanagerenginefactory_symbian.o(.data)
    _instance@qt_plugin_instance_1           0x00400004   Data           4  qlandmarkmanagerenginefactory_symbian.o(.data)
    .data$0                                  0x00400008   Data           0  ucppfini.o(.data)
    .data                                    0x00400008   Section        4  ucppfini.o(.data)
    .data__ZNSt19_Atomic_swap_structILi1EE12_S_swap_lockE 0x0040000c   Section       12  moc_qlandmarkmanagerenginefactory_symbian.o(.data__ZNSt19_Atomic_swap_structILi1EE12_S_swap_lockE)
    .bss$5                                   0x00400018   Data           0  qlandmarkmanagerengine_symbian_p.o(.bss)
    .bss                                     0x00400018   Section      116  qlandmarkmanagerengine_symbian_p.o(.bss)
    .bss$5                                   0x0040008c   Data           0  ucppfini.o(.bss)
    .bss                                     0x0040008c   Section     2048  ucppfini.o(.bss)

    Global Symbols

    Symbol Name                              Value     Ov Type        Size  Object(Section)

    BuildAttributes$$THUMB_ISAv2$ARM_ISAv5$M$VFPv2$PE$A:L22$X:L11$S22$IEEE1$IW$USESV6$~STKCKD$USESV7$~SHL$OSPACE$ROPI$IEEEJ$EBA8$UX$FPIC$INDIRECT$REQ8$PRES8$EABIv2 0x00000000   Number         0  anon$$obj.o ABSOLUTE
    QtCore{00040703}[2001b2dc].dll           0x00000000   Data           0  anon$$obj.o ABSOLUTE
    QtLocation{00010103}[2002ac83].dll       0x00000000   Data           0  anon$$obj.o ABSOLUTE
    apgrfx{000a0000}[10003a3c].dll           0x00000000   Data           0  anon$$obj.o ABSOLUTE
    apmime{000a0000}[10003a1a].dll           0x00000000   Data           0  anon$$obj.o ABSOLUTE
    dfpaeabi{000a0000}.dll                   0x00000000   Data           0  anon$$obj.o ABSOLUTE
    drtaeabi{000a0000}.dll                   0x00000000   Data           0  anon$$obj.o ABSOLUTE
    efsrv{000a0000}[100039e4].dll            0x00000000   Data           0  anon$$obj.o ABSOLUTE
    eposlandmarks{000a0000}[101fdf8a].dll    0x00000000   Data           0  anon$$obj.o ABSOLUTE
    eposlmsearchlib{000a0000}[101fdf87].dll  0x00000000   Data           0  anon$$obj.o ABSOLUTE
    euser{000a0000}[100039e5].dll            0x00000000   Data           0  anon$$obj.o ABSOLUTE
    lbs{000a0000}[101f97b1].dll              0x00000000   Data           0  anon$$obj.o ABSOLUTE
    libc{00010001}[10207369].dll             0x00000000   Data           0  anon$$obj.o ABSOLUTE
    libm{00010001}[102750d2].dll             0x00000000   Data           0  anon$$obj.o ABSOLUTE
    qtlandmarks_symbian{000a0000}[20031e8f].dll 0x00000000   Data           0  anon$$obj.o ABSOLUTE
    stdnew{000a0000}[20022178].dll           0x00000000   Data           0  anon$$obj.o ABSOLUTE
    qt_message_output(QtMsgType, const char*)  - Undefined Reference
    _Z17qt_message_output9QtMsgTypePKc@QtCore{00040703}[2001b2dc].dll  - Undefined Reference
    qt_symbian_throwIfError(int)              - Undefined Reference
    _Z23qt_symbian_throwIfErrori@QtCore{00040703}[2001b2dc].dll  - Undefined Reference
    ReleaseLandmarkResources(void*)           - Undefined Reference
    _Z24ReleaseLandmarkResourcesPv@eposlandmarks{000a0000}[101fdf8a].dll  - Undefined Reference
    qFree(void*)                              - Undefined Reference
    _Z5qFreePv@QtCore{00040703}[2001b2dc].dll  - Undefined Reference
    qHash(const QString&)                     - Undefined Reference
    _Z5qHashRK7QString@QtCore{00040703}[2001b2dc].dll  - Undefined Reference
    QByteArray::realloc(int)                  - Undefined Reference
    _ZN10QByteArray7reallocEi@QtCore{00040703}[2001b2dc].dll  - Undefined Reference
    QtMobility::QGeoAddress::setCountry(const QString&)  - Undefined Reference
    _ZN10QtMobility11QGeoAddress10setCountryERK7QString@QtLocation{00010103}[2002ac83].dll  - Undefined Reference
    QtMobility::QGeoAddress::setDistrict(const QString&)  - Undefined Reference
    _ZN10QtMobility11QGeoAddress11setDistrictERK7QString@QtLocation{00010103}[2002ac83].dll  - Undefined Reference
    QtMobility::QGeoAddress::setPostcode(const QString&)  - Undefined Reference
    _ZN10QtMobility11QGeoAddress11setPostcodeERK7QString@QtLocation{00010103}[2002ac83].dll  - Undefined Reference
    QtMobility::QGeoAddress::setCountryCode(const QString&)  - Undefined Reference
    _ZN10QtMobility11QGeoAddress14setCountryCodeERK7QString@QtLocation{00010103}[2002ac83].dll  - Undefined Reference
    QtMobility::QGeoAddress::setCity(const QString&)  - Undefined Reference
    _ZN10QtMobility11QGeoAddress7setCityERK7QString@QtLocation{00010103}[2002ac83].dll  - Undefined Reference
    QtMobility::QGeoAddress::setState(const QString&)  - Undefined Reference
    _ZN10QtMobility11QGeoAddress8setStateERK7QString@QtLocation{00010103}[2002ac83].dll  - Undefined Reference
    QtMobility::QGeoAddress::setCounty(const QString&)  - Undefined Reference
    _ZN10QtMobility11QGeoAddress9setCountyERK7QString@QtLocation{00010103}[2002ac83].dll  - Undefined Reference
    QtMobility::QGeoAddress::setStreet(const QString&)  - Undefined Reference
    _ZN10QtMobility11QGeoAddress9setStreetERK7QString@QtLocation{00010103}[2002ac83].dll  - Undefined Reference
    QtMobility::QGeoAddress::QGeoAddress()    - Undefined Reference
    _ZN10QtMobility11QGeoAddressC1Ev@QtLocation{00010103}[2002ac83].dll  - Undefined Reference
    QtMobility::QGeoAddress::~QGeoAddress()   - Undefined Reference
    _ZN10QtMobility11QGeoAddressD1Ev@QtLocation{00010103}[2002ac83].dll  - Undefined Reference
    QtMobility::QLandmarkId::setLocalId(const QString&)  - Undefined Reference
    _ZN10QtMobility11QLandmarkId10setLocalIdERK7QString@QtLocation{00010103}[2002ac83].dll  - Undefined Reference
    QtMobility::QLandmarkId::setManagerUri(const QString&)  - Undefined Reference
    _ZN10QtMobility11QLandmarkId13setManagerUriERK7QString@QtLocation{00010103}[2002ac83].dll  - Undefined Reference
    QtMobility::QLandmarkId::QLandmarkId(const QtMobility::QLandmarkId&)  - Undefined Reference
    _ZN10QtMobility11QLandmarkIdC1ERKS0_@QtLocation{00010103}[2002ac83].dll  - Undefined Reference
    QtMobility::QLandmarkId::QLandmarkId()    - Undefined Reference
    _ZN10QtMobility11QLandmarkIdC1Ev@QtLocation{00010103}[2002ac83].dll  - Undefined Reference
    QtMobility::QLandmarkId::~QLandmarkId()   - Undefined Reference
    _ZN10QtMobility11QLandmarkIdD1Ev@QtLocation{00010103}[2002ac83].dll  - Undefined Reference
    QtMobility::QGeoCoordinate::setLatitude(double)  - Undefined Reference
    _ZN10QtMobility14QGeoCoordinate11setLatitudeEd@QtLocation{00010103}[2002ac83].dll  - Undefined Reference
    QtMobility::QGeoCoordinate::setLongitude(double)  - Undefined Reference
    _ZN10QtMobility14QGeoCoordinate12setLongitudeEd@QtLocation{00010103}[2002ac83].dll  - Undefined Reference
    QtMobility::QGeoCoordinate::QGeoCoordinate(const QtMobility::QGeoCoordinate&)  - Undefined Reference
    _ZN10QtMobility14QGeoCoordinateC1ERKS0_@QtLocation{00010103}[2002ac83].dll  - Undefined Reference
    QtMobility::QGeoCoordinate::QGeoCoordinate(double, double)  - Undefined Reference
    _ZN10QtMobility14QGeoCoordinateC1Edd@QtLocation{00010103}[2002ac83].dll  - Undefined Reference
    QtMobility::QGeoCoordinate::QGeoCoordinate(double, double, double)  - Undefined Reference
    _ZN10QtMobility14QGeoCoordinateC1Eddd@QtLocation{00010103}[2002ac83].dll  - Undefined Reference
    QtMobility::QGeoCoordinate::QGeoCoordinate()  - Undefined Reference
    _ZN10QtMobility14QGeoCoordinateC1Ev@QtLocation{00010103}[2002ac83].dll  - Undefined Reference
    QtMobility::QGeoCoordinate::~QGeoCoordinate()  - Undefined Reference
    _ZN10QtMobility14QGeoCoordinateD1Ev@QtLocation{00010103}[2002ac83].dll  - Undefined Reference
    QtMobility::QGeoCoordinate::operator =(const QtMobility::QGeoCoordinate&)  - Undefined Reference
    _ZN10QtMobility14QGeoCoordinateaSERKS0_@QtLocation{00010103}[2002ac83].dll  - Undefined Reference
    QtMobility::QGeoBoundingBox::setTopLeft(const QtMobility::QGeoCoordinate&)  - Undefined Reference
    _ZN10QtMobility15QGeoBoundingBox10setTopLeftERKNS_14QGeoCoordinateE@QtLocation{00010103}[2002ac83].dll  - Undefined Reference
    QtMobility::QGeoBoundingBox::setBottomRight(const QtMobility::QGeoCoordinate&)  - Undefined Reference
    _ZN10QtMobility15QGeoBoundingBox14setBottomRightERKNS_14QGeoCoordinateE@QtLocation{00010103}[2002ac83].dll  - Undefined Reference
    QtMobility::QGeoBoundingBox::QGeoBoundingBox()  - Undefined Reference
    _ZN10QtMobility15QGeoBoundingBoxC1Ev@QtLocation{00010103}[2002ac83].dll  - Undefined Reference
    QtMobility::QGeoBoundingBox::~QGeoBoundingBox()  - Undefined Reference
    _ZN10QtMobility15QGeoBoundingBoxD1Ev@QtLocation{00010103}[2002ac83].dll  - Undefined Reference
    QtMobility::QLandmarkFilter::QLandmarkFilter(const QtMobility::QLandmarkFilter&)  - Undefined Reference
    _ZN10QtMobility15QLandmarkFilterC1ERKS0_@QtLocation{00010103}[2002ac83].dll  - Undefined Reference
    QtMobility::QLandmarkFilter::QLandmarkFilter()  - Undefined Reference
    _ZN10QtMobility15QLandmarkFilterC1Ev@QtLocation{00010103}[2002ac83].dll  - Undefined Reference
    QtMobility::QLandmarkFilter::~QLandmarkFilter()  - Undefined Reference
    _ZN10QtMobility15QLandmarkFilterD1Ev@QtLocation{00010103}[2002ac83].dll  - Undefined Reference
    QtMobility::QLandmarkFilter::operator =(const QtMobility::QLandmarkFilter&)  - Undefined Reference
    _ZN10QtMobility15QLandmarkFilteraSERKS0_@QtLocation{00010103}[2002ac83].dll  - Undefined Reference
    QtMobility::QLandmarkManager::Gpx         - Undefined Reference
    _ZN10QtMobility16QLandmarkManager3GpxE@QtLocation{00010103}[2002ac83].dll  - Undefined Reference
    QtMobility::QLandmarkManager::Kml         - Undefined Reference
    _ZN10QtMobility16QLandmarkManager3KmlE@QtLocation{00010103}[2002ac83].dll  - Undefined Reference
    QtMobility::QLandmarkManager::Kmz         - Undefined Reference
    _ZN10QtMobility16QLandmarkManager3KmzE@QtLocation{00010103}[2002ac83].dll  - Undefined Reference
    QtMobility::QLandmarkManager::Lmx         - Undefined Reference
    _ZN10QtMobility16QLandmarkManager3LmxE@QtLocation{00010103}[2002ac83].dll  - Undefined Reference
    QtMobility::QLandmarkManager::buildUri(const QString&, const QMap<QString, QString>&, int)  - Undefined Reference
    _ZN10QtMobility16QLandmarkManager8buildUriERK7QStringRK4QMapIS1_S1_Ei@QtLocation{00010103}[2002ac83].dll  - Undefined Reference
    QtMobility::QLandmarkCategory::setIconUrl(const QUrl&)  - Undefined Reference
    _ZN10QtMobility17QLandmarkCategory10setIconUrlERK4QUrl@QtLocation{00010103}[2002ac83].dll  - Undefined Reference
    QtMobility::QLandmarkCategory::setCategoryId(const QtMobility::QLandmarkCategoryId&)  - Undefined Reference
    _ZN10QtMobility17QLandmarkCategory13setCategoryIdERKNS_19QLandmarkCategoryIdE@QtLocation{00010103}[2002ac83].dll  - Undefined Reference
    QtMobility::QLandmarkCategory::setName(const QString&)  - Undefined Reference
    _ZN10QtMobility17QLandmarkCategory7setNameERK7QString@QtLocation{00010103}[2002ac83].dll  - Undefined Reference
    QtMobility::QLandmarkCategory::QLandmarkCategory(const QtMobility::QLandmarkCategory&)  - Undefined Reference
    _ZN10QtMobility17QLandmarkCategoryC1ERKS0_@QtLocation{00010103}[2002ac83].dll  - Undefined Reference
    QtMobility::QLandmarkCategory::QLandmarkCategory()  - Undefined Reference
    _ZN10QtMobility17QLandmarkCategoryC1Ev@QtLocation{00010103}[2002ac83].dll  - Undefined Reference
    QtMobility::QLandmarkCategory::~QLandmarkCategory()  - Undefined Reference
    _ZN10QtMobility17QLandmarkCategoryD1Ev@QtLocation{00010103}[2002ac83].dll  - Undefined Reference
    QtMobility::QLandmarkCategory::operator =(const QtMobility::QLandmarkCategory&)  - Undefined Reference
    _ZN10QtMobility17QLandmarkCategoryaSERKS0_@QtLocation{00010103}[2002ac83].dll  - Undefined Reference
    QtMobility::QLandmarkIdFilter::setLandmarkIds(const QList<QtMobility::QLandmarkId>&)  - Undefined Reference
    _ZN10QtMobility17QLandmarkIdFilter14setLandmarkIdsERK5QListINS_11QLandmarkIdEE@QtLocation{00010103}[2002ac83].dll  - Undefined Reference
    QtMobility::QLandmarkIdFilter::QLandmarkIdFilter(const QList<QtMobility::QLandmarkId>&)  - Undefined Reference
    _ZN10QtMobility17QLandmarkIdFilterC1ERK5QListINS_11QLandmarkIdEE@QtLocation{00010103}[2002ac83].dll  - Undefined Reference
    QtMobility::QLandmarkIdFilter::QLandmarkIdFilter(const QtMobility::QLandmarkFilter&)  - Undefined Reference
    _ZN10QtMobility17QLandmarkIdFilterC1ERKNS_15QLandmarkFilterE@QtLocation{00010103}[2002ac83].dll  - Undefined Reference
    QtMobility::QLandmarkIdFilter::~QLandmarkIdFilter()  - Undefined Reference
    _ZN10QtMobility17QLandmarkIdFilterD1Ev@QtLocation{00010103}[2002ac83].dll  - Undefined Reference
    QtMobility::QLandmarkNameSort::QLandmarkNameSort(Qt::SortOrder, Qt::CaseSensitivity)  - Undefined Reference
    _ZN10QtMobility17QLandmarkNameSortC1EN2Qt9SortOrderENS1_15CaseSensitivityE@QtLocation{00010103}[2002ac83].dll  - Undefined Reference
    QtMobility::QLandmarkNameSort::QLandmarkNameSort(const QtMobility::QLandmarkSortOrder&)  - Undefined Reference
    _ZN10QtMobility17QLandmarkNameSortC1ERKNS_18QLandmarkSortOrderE@QtLocation{00010103}[2002ac83].dll  - Undefined Reference
    QtMobility::QLandmarkNameSort::~QLandmarkNameSort()  - Undefined Reference
    _ZN10QtMobility17QLandmarkNameSortD1Ev@QtLocation{00010103}[2002ac83].dll  - Undefined Reference
    QtMobility::QGeoBoundingCircle::~QGeoBoundingCircle()  - Undefined Reference
    _ZN10QtMobility18QGeoBoundingCircleD1Ev@QtLocation{00010103}[2002ac83].dll  - Undefined Reference
    QtMobility::QLandmarkBoxFilter::setBoundingBox(const QtMobility::QGeoBoundingBox&)  - Undefined Reference
    _ZN10QtMobility18QLandmarkBoxFilter14setBoundingBoxERKNS_15QGeoBoundingBoxE@QtLocation{00010103}[2002ac83].dll  - Undefined Reference
    QtMobility::QLandmarkBoxFilter::QLandmarkBoxFilter(const QtMobility::QGeoBoundingBox&)  - Undefined Reference
    _ZN10QtMobility18QLandmarkBoxFilterC1ERKNS_15QGeoBoundingBoxE@QtLocation{00010103}[2002ac83].dll  - Undefined Reference
    QtMobility::QLandmarkBoxFilter::QLandmarkBoxFilter(const QtMobility::QLandmarkFilter&)  - Undefined Reference
    _ZN10QtMobility18QLandmarkBoxFilterC1ERKNS_15QLandmarkFilterE@QtLocation{00010103}[2002ac83].dll  - Undefined Reference
    QtMobility::QLandmarkBoxFilter::~QLandmarkBoxFilter()  - Undefined Reference
    _ZN10QtMobility18QLandmarkBoxFilterD1Ev@QtLocation{00010103}[2002ac83].dll  - Undefined Reference
    QtMobility::QLandmarkSortOrder::QLandmarkSortOrder(const QtMobility::QLandmarkSortOrder&)  - Undefined Reference
    _ZN10QtMobility18QLandmarkSortOrderC1ERKS0_@QtLocation{00010103}[2002ac83].dll  - Undefined Reference
    QtMobility::QLandmarkSortOrder::QLandmarkSortOrder()  - Undefined Reference
    _ZN10QtMobility18QLandmarkSortOrderC1Ev@QtLocation{00010103}[2002ac83].dll  - Undefined Reference
    QtMobility::QLandmarkSortOrder::~QLandmarkSortOrder()  - Undefined Reference
    _ZN10QtMobility18QLandmarkSortOrderD1Ev@QtLocation{00010103}[2002ac83].dll  - Undefined Reference
    QtMobility::QLandmarkCategoryId::setLocalId(const QString&)  - Undefined Reference
    _ZN10QtMobility19QLandmarkCategoryId10setLocalIdERK7QString@QtLocation{00010103}[2002ac83].dll  - Undefined Reference
    QtMobility::QLandmarkCategoryId::setManagerUri(const QString&)  - Undefined Reference
    _ZN10QtMobility19QLandmarkCategoryId13setManagerUriERK7QString@QtLocation{00010103}[2002ac83].dll  - Undefined Reference
    QtMobility::QLandmarkCategoryId::QLandmarkCategoryId(const QtMobility::QLandmarkCategoryId&)  - Undefined Reference
    _ZN10QtMobility19QLandmarkCategoryIdC1ERKS0_@QtLocation{00010103}[2002ac83].dll  - Undefined Reference
    QtMobility::QLandmarkCategoryId::QLandmarkCategoryId()  - Undefined Reference
    _ZN10QtMobility19QLandmarkCategoryIdC1Ev@QtLocation{00010103}[2002ac83].dll  - Undefined Reference
    QtMobility::QLandmarkCategoryId::~QLandmarkCategoryId()  - Undefined Reference
    _ZN10QtMobility19QLandmarkCategoryIdD1Ev@QtLocation{00010103}[2002ac83].dll  - Undefined Reference
    QtMobility::QLandmarkNameFilter::QLandmarkNameFilter(const QtMobility::QLandmarkFilter&)  - Undefined Reference
    _ZN10QtMobility19QLandmarkNameFilterC1ERKNS_15QLandmarkFilterE@QtLocation{00010103}[2002ac83].dll  - Undefined Reference
    QtMobility::QLandmarkNameFilter::~QLandmarkNameFilter()  - Undefined Reference
    _ZN10QtMobility19QLandmarkNameFilterD1Ev@QtLocation{00010103}[2002ac83].dll  - Undefined Reference
    QtMobility::QLandmarkUnionFilter::QLandmarkUnionFilter(const QtMobility::QLandmarkFilter&)  - Undefined Reference
    _ZN10QtMobility20QLandmarkUnionFilterC1ERKNS_15QLandmarkFilterE@QtLocation{00010103}[2002ac83].dll  - Undefined Reference
    QtMobility::QLandmarkUnionFilter::~QLandmarkUnionFilter()  - Undefined Reference
    _ZN10QtMobility20QLandmarkUnionFilterD1Ev@QtLocation{00010103}[2002ac83].dll  - Undefined Reference
    QtMobility::QLandmarkExportRequest::setLandmarkIds(const QList<QtMobility::QLandmarkId>&)  - Undefined Reference
    _ZN10QtMobility22QLandmarkExportRequest14setLandmarkIdsERK5QListINS_11QLandmarkIdEE@QtLocation{00010103}[2002ac83].dll  - Undefined Reference
    QtMobility::QLandmarkManagerEngine::dataChanged()  - Undefined Reference
    _ZN10QtMobility22QLandmarkManagerEngine11dataChangedEv@QtLocation{00010103}[2002ac83].dll  - Undefined Reference
    QtMobility::QLandmarkManagerEngine::qt_metacall(QMetaObject::Call, int, void**)  - Undefined Reference
    _ZN10QtMobility22QLandmarkManagerEngine11qt_metacallEN11QMetaObject4CallEiPPv@QtLocation{00010103}[2002ac83].dll  - Undefined Reference
    QtMobility::QLandmarkManagerEngine::qt_metacast(const char*)  - Undefined Reference
    _ZN10QtMobility22QLandmarkManagerEngine11qt_metacastEPKc@QtLocation{00010103}[2002ac83].dll  - Undefined Reference
    QtMobility::QLandmarkManagerEngine::sortLandmarks(const QList<QtMobility::QLandmark>&, QList<QtMobility::QLandmarkSortOrder>&)  - Undefined Reference
    _ZN10QtMobility22QLandmarkManagerEngine13sortLandmarksERK5QListINS_9QLandmarkEERKS1_INS_18QLandmarkSortOrderEE@QtLocation{00010103}[2002ac83].dll  - Undefined Reference
    QtMobility::QLandmarkManagerEngine::landmarksAdded(const QList<QtMobility::QLandmarkId>&)  - Undefined Reference
    _ZN10QtMobility22QLandmarkManagerEngine14landmarksAddedERK5QListINS_11QLandmarkIdEE@QtLocation{00010103}[2002ac83].dll  - Undefined Reference
    QtMobility::QLandmarkManagerEngine::categoriesAdded(const QList<QtMobility::QLandmarkCategoryId>&)  - Undefined Reference
    _ZN10QtMobility22QLandmarkManagerEngine15categoriesAddedERK5QListINS_19QLandmarkCategoryIdEE@QtLocation{00010103}[2002ac83].dll  - Undefined Reference
    QtMobility::QLandmarkManagerEngine::landmarksChanged(const QList<QtMobility::QLandmarkId>&)  - Undefined Reference
    _ZN10QtMobility22QLandmarkManagerEngine16landmarksChangedERK5QListINS_11QLandmarkIdEE@QtLocation{00010103}[2002ac83].dll  - Undefined Reference
    QtMobility::QLandmarkManagerEngine::landmarksRemoved(const QList<QtMobility::QLandmarkId>&)  - Undefined Reference
    _ZN10QtMobility22QLandmarkManagerEngine16landmarksRemovedERK5QListINS_11QLandmarkIdEE@QtLocation{00010103}[2002ac83].dll  - Undefined Reference
    QtMobility::QLandmarkManagerEngine::staticMetaObject  - Undefined Reference
    _ZN10QtMobility22QLandmarkManagerEngine16staticMetaObjectE@QtLocation{00010103}[2002ac83].dll  - Undefined Reference
    QtMobility::QLandmarkManagerEngine::categoriesChanged(const QList<QtMobility::QLandmarkCategoryId>&)  - Undefined Reference
    _ZN10QtMobility22QLandmarkManagerEngine17categoriesChangedERK5QListINS_19QLandmarkCategoryIdEE@QtLocation{00010103}[2002ac83].dll  - Undefined Reference
    QtMobility::QLandmarkManagerEngine::categoriesRemoved(const QList<QtMobility::QLandmarkCategoryId>&)  - Undefined Reference
    _ZN10QtMobility22QLandmarkManagerEngine17categoriesRemovedERK5QListINS_19QLandmarkCategoryIdEE@QtLocation{00010103}[2002ac83].dll  - Undefined Reference
    QtMobility::QLandmarkManagerEngine::updateRequestState(QtMobility::QLandmarkAbstractRequest*, QtMobility::QLandmarkAbstractRequest::State)  - Undefined Reference
    _ZN10QtMobility22QLandmarkManagerEngine18updateRequestStateEPNS_24QLandmarkAbstractRequestENS1_5StateE@QtLocation{00010103}[2002ac83].dll  - Undefined Reference
    QtMobility::QLandmarkManagerEngine::updateLandmarkSaveRequest(QtMobility::QLandmarkSaveRequest*, const QList<QtMobility::QLandmark>&, QtMobility::QLandmarkManager::Error, const QString&, const QMap<int, QtMobility::QLandmarkManager::Error>&, QtMobility::QLandmarkAbstractRequest::State)  - Undefined Reference
    _ZN10QtMobility22QLandmarkManagerEngine25updateLandmarkSaveRequestEPNS_20QLandmarkSaveRequestERK5QListINS_9QLandmarkEENS_16QLandmarkManager5ErrorERK7QStringRK4QMapIiS9_ENS_24QLandmarkAbstractRequest5StateE@QtLocation{00010103}[2002ac83].dll  - Undefined Reference
    QtMobility::QLandmarkManagerEngine::updateLandmarkFetchRequest(QtMobility::QLandmarkFetchRequest*, const QList<QtMobility::QLandmark>&, QtMobility::QLandmarkManager::Error, const QString&, QtMobility::QLandmarkAbstractRequest::State)  - Undefined Reference
    _ZN10QtMobility22QLandmarkManagerEngine26updateLandmarkFetchRequestEPNS_21QLandmarkFetchRequestERK5QListINS_9QLandmarkEENS_16QLandmarkManager5ErrorERK7QStringNS_24QLandmarkAbstractRequest5StateE@QtLocation{00010103}[2002ac83].dll  - Undefined Reference
    QtMobility::QLandmarkManagerEngine::updateLandmarkExportRequest(QtMobility::QLandmarkExportRequest*, QtMobility::QLandmarkManager::Error, const QString&, QtMobility::QLandmarkAbstractRequest::State)  - Undefined Reference
    _ZN10QtMobility22QLandmarkManagerEngine27updateLandmarkExportRequestEPNS_22QLandmarkExportRequestENS_16QLandmarkManager5ErrorERK7QStringNS_24QLandmarkAbstractRequest5StateE@QtLocation{00010103}[2002ac83].dll  - Undefined Reference
    QtMobility::QLandmarkManagerEngine::updateLandmarkImportRequest(QtMobility::QLandmarkImportRequest*, const QList<QtMobility::QLandmarkId>&, QtMobility::QLandmarkManager::Error, const QString&, QtMobility::QLandmarkAbstractRequest::State)  - Undefined Reference
    _ZN10QtMobility22QLandmarkManagerEngine27updateLandmarkImportRequestEPNS_22QLandmarkImportRequestERK5QListINS_11QLandmarkIdEENS_16QLandmarkManager5ErrorERK7QStringNS_24QLandmarkAbstractRequest5StateE@QtLocation{00010103}[2002ac83].dll  - Undefined Reference
    QtMobility::QLandmarkManagerEngine::updateLandmarkRemoveRequest(QtMobility::QLandmarkRemoveRequest*, QtMobility::QLandmarkManager::Error, const QString&, const QMap<int, QtMobility::QLandmarkManager::Error>&, QtMobility::QLandmarkAbstractRequest::State)  - Undefined Reference
    _ZN10QtMobility22QLandmarkManagerEngine27updateLandmarkRemoveRequestEPNS_22QLandmarkRemoveRequestENS_16QLandmarkManager5ErrorERK7QStringRK4QMapIiS4_ENS_24QLandmarkAbstractRequest5StateE@QtLocation{00010103}[2002ac83].dll  - Undefined Reference
    QtMobility::QLandmarkManagerEngine::updateLandmarkIdFetchRequest(QtMobility::QLandmarkIdFetchRequest*, const QList<QtMobility::QLandmarkId>&, QtMobility::QLandmarkManager::Error, const QString&, QtMobility::QLandmarkAbstractRequest::State)  - Undefined Reference
    _ZN10QtMobility22QLandmarkManagerEngine28updateLandmarkIdFetchRequestEPNS_23QLandmarkIdFetchRequestERK5QListINS_11QLandmarkIdEENS_16QLandmarkManager5ErrorERK7QStringNS_24QLandmarkAbstractRequest5StateE@QtLocation{00010103}[2002ac83].dll  - Undefined Reference
    QtMobility::QLandmarkManagerEngine::updateLandmarkFetchByIdRequest(QtMobility::QLandmarkFetchByIdRequest*, const QList<QtMobility::QLandmark>&, QtMobility::QLandmarkManager::Error, const QString&, const QMap<int, QtMobility::QLandmarkManager::Error>&, QtMobility::QLandmarkAbstractRequest::State)  - Undefined Reference
    _ZN10QtMobility22QLandmarkManagerEngine30updateLandmarkFetchByIdRequestEPNS_25QLandmarkFetchByIdRequestERK5QListINS_9QLandmarkEENS_16QLandmarkManager5ErrorERK7QStringRK4QMapIiS9_ENS_24QLandmarkAbstractRequest5StateE@QtLocation{00010103}[2002ac83].dll  - Undefined Reference
    QtMobility::QLandmarkManagerEngine::updateLandmarkCategorySaveRequest(QtMobility::QLandmarkCategorySaveRequest*, const QList<QtMobility::QLandmarkCategory>&, QtMobility::QLandmarkManager::Error, const QString&, const QMap<int, QtMobility::QLandmarkManager::Error>&, QtMobility::QLandmarkAbstractRequest::State)  - Undefined Reference
    _ZN10QtMobility22QLandmarkManagerEngine33updateLandmarkCategorySaveRequestEPNS_28QLandmarkCategorySaveRequestERK5QListINS_17QLandmarkCategoryEENS_16QLandmarkManager5ErrorERK7QStringRK4QMapIiS9_ENS_24QLandmarkAbstractRequest5StateE@QtLocation{00010103}[2002ac83].dll  - Undefined Reference
    QtMobility::QLandmarkManagerEngine::updateLandmarkCategoryFetchRequest(QtMobility::QLandmarkCategoryFetchRequest*, const QList<QtMobility::QLandmarkCategory>&, QtMobility::QLandmarkManager::Error, const QString&, QtMobility::QLandmarkAbstractRequest::State)  - Undefined Reference
    _ZN10QtMobility22QLandmarkManagerEngine34updateLandmarkCategoryFetchRequestEPNS_29QLandmarkCategoryFetchRequestERK5QListINS_17QLandmarkCategoryEENS_16QLandmarkManager5ErrorERK7QStringNS_24QLandmarkAbstractRequest5StateE@QtLocation{00010103}[2002ac83].dll  - Undefined Reference
    QtMobility::QLandmarkManagerEngine::updateLandmarkCategoryRemoveRequest(QtMobility::QLandmarkCategoryRemoveRequest*, QtMobility::QLandmarkManager::Error, const QString&, const QMap<int, QtMobility::QLandmarkManager::Error>&, QtMobility::QLandmarkAbstractRequest::State)  - Undefined Reference
    _ZN10QtMobility22QLandmarkManagerEngine35updateLandmarkCategoryRemoveRequestEPNS_30QLandmarkCategoryRemoveRequestENS_16QLandmarkManager5ErrorERK7QStringRK4QMapIiS4_ENS_24QLandmarkAbstractRequest5StateE@QtLocation{00010103}[2002ac83].dll  - Undefined Reference
    QtMobility::QLandmarkManagerEngine::updateLandmarkCategoryIdFetchRequest(QtMobility::QLandmarkCategoryIdFetchRequest*, const QList<QtMobility::QLandmarkCategoryId>&, QtMobility::QLandmarkManager::Error, const QString&, QtMobility::QLandmarkAbstractRequest::State)  - Undefined Reference
    _ZN10QtMobility22QLandmarkManagerEngine36updateLandmarkCategoryIdFetchRequestEPNS_31QLandmarkCategoryIdFetchRequestERK5QListINS_19QLandmarkCategoryIdEENS_16QLandmarkManager5ErrorERK7QStringNS_24QLandmarkAbstractRequest5StateE@QtLocation{00010103}[2002ac83].dll  - Undefined Reference
    QtMobility::QLandmarkManagerEngine::updateLandmarkCategoryFetchByIdRequest(QtMobility::QLandmarkCategoryFetchByIdRequest*, const QList<QtMobility::QLandmarkCategory>&, QtMobility::QLandmarkManager::Error, const QString&, const QMap<int, QtMobility::QLandmarkManager::Error>&, QtMobility::QLandmarkAbstractRequest::State)  - Undefined Reference
    _ZN10QtMobility22QLandmarkManagerEngine38updateLandmarkCategoryFetchByIdRequestEPNS_33QLandmarkCategoryFetchByIdRequestERK5QListINS_17QLandmarkCategoryEENS_16QLandmarkManager5ErrorERK7QStringRK4QMapIiS9_ENS_24QLandmarkAbstractRequest5StateE@QtLocation{00010103}[2002ac83].dll  - Undefined Reference
    QtMobility::QLandmarkManagerEngine::QLandmarkManagerEngine__sub_object()  - Undefined Reference
    _ZN10QtMobility22QLandmarkManagerEngineC2Ev@QtLocation{00010103}[2002ac83].dll  - Undefined Reference
    QtMobility::QLandmarkManagerEngine::~QLandmarkManagerEngine__sub_object()  - Undefined Reference
    _ZN10QtMobility22QLandmarkManagerEngineD2Ev@QtLocation{00010103}[2002ac83].dll  - Undefined Reference
    QtMobility::QLandmarkRemoveRequest::setLandmarkIds(const QList<QtMobility::QLandmarkId>&)  - Undefined Reference
    _ZN10QtMobility22QLandmarkRemoveRequest14setLandmarkIdsERK5QListINS_11QLandmarkIdEE@QtLocation{00010103}[2002ac83].dll  - Undefined Reference
    QtMobility::QLandmarkCategoryFilter::QLandmarkCategoryFilter(const QtMobility::QLandmarkFilter&)  - Undefined Reference
    _ZN10QtMobility23QLandmarkCategoryFilterC1ERKNS_15QLandmarkFilterE@QtLocation{00010103}[2002ac83].dll  - Undefined Reference
    QtMobility::QLandmarkCategoryFilter::~QLandmarkCategoryFilter()  - Undefined Reference
    _ZN10QtMobility23QLandmarkCategoryFilterD1Ev@QtLocation{00010103}[2002ac83].dll  - Undefined Reference
    QtMobility::QLandmarkAttributeFilter::QLandmarkAttributeFilter(const QtMobility::QLandmarkFilter&)  - Undefined Reference
    _ZN10QtMobility24QLandmarkAttributeFilterC1ERKNS_15QLandmarkFilterE@QtLocation{00010103}[2002ac83].dll  - Undefined Reference
    QtMobility::QLandmarkAttributeFilter::~QLandmarkAttributeFilter()  - Undefined Reference
    _ZN10QtMobility24QLandmarkAttributeFilterD1Ev@QtLocation{00010103}[2002ac83].dll  - Undefined Reference
    QtMobility::QLandmarkProximityFilter::boundingCircle()  - Undefined Reference
    _ZN10QtMobility24QLandmarkProximityFilter14boundingCircleEv@QtLocation{00010103}[2002ac83].dll  - Undefined Reference
    QtMobility::QLandmarkProximityFilter::QLandmarkProximityFilter(const QtMobility::QGeoCoordinate&, float)  - Undefined Reference
    _ZN10QtMobility24QLandmarkProximityFilterC1ERKNS_14QGeoCoordinateEf@QtLocation{00010103}[2002ac83].dll  - Undefined Reference
    QtMobility::QLandmarkProximityFilter::QLandmarkProximityFilter(const QtMobility::QLandmarkFilter&)  - Undefined Reference
    _ZN10QtMobility24QLandmarkProximityFilterC1ERKNS_15QLandmarkFilterE@QtLocation{00010103}[2002ac83].dll  - Undefined Reference
    QtMobility::QLandmarkProximityFilter::~QLandmarkProximityFilter()  - Undefined Reference
    _ZN10QtMobility24QLandmarkProximityFilterD1Ev@QtLocation{00010103}[2002ac83].dll  - Undefined Reference
    QtMobility::QLandmarkIntersectionFilter::QLandmarkIntersectionFilter(const QtMobility::QLandmarkFilter&)  - Undefined Reference
    _ZN10QtMobility27QLandmarkIntersectionFilterC1ERKNS_15QLandmarkFilterE@QtLocation{00010103}[2002ac83].dll  - Undefined Reference
    QtMobility::QLandmarkIntersectionFilter::QLandmarkIntersectionFilter()  - Undefined Reference
    _ZN10QtMobility27QLandmarkIntersectionFilterC1Ev@QtLocation{00010103}[2002ac83].dll  - Undefined Reference
    QtMobility::QLandmarkIntersectionFilter::~QLandmarkIntersectionFilter()  - Undefined Reference
    _ZN10QtMobility27QLandmarkIntersectionFilterD1Ev@QtLocation{00010103}[2002ac83].dll  - Undefined Reference
    QtMobility::QLandmarkManagerEngineFactory::~QLandmarkManagerEngineFactory__sub_object()  - Undefined Reference
    _ZN10QtMobility29QLandmarkManagerEngineFactoryD2Ev@QtLocation{00010103}[2002ac83].dll  - Undefined Reference
    QtMobility::QLandmarkCategoryRemoveRequest::setCategoryIds(const QList<QtMobility::QLandmarkCategoryId>&)  - Undefined Reference
    _ZN10QtMobility30QLandmarkCategoryRemoveRequest14setCategoryIdsERK5QListINS_19QLandmarkCategoryIdEE@QtLocation{00010103}[2002ac83].dll  - Undefined Reference
    QtMobility::QGeoPlace::setAddress(const QtMobility::QGeoAddress&)  - Undefined Reference
    _ZN10QtMobility9QGeoPlace10setAddressERKNS_11QGeoAddressE@QtLocation{00010103}[2002ac83].dll  - Undefined Reference
    QtMobility::QGeoPlace::setCoordinate(const QtMobility::QGeoCoordinate&)  - Undefined Reference
    _ZN10QtMobility9QGeoPlace13setCoordinateERKNS_14QGeoCoordinateE@QtLocation{00010103}[2002ac83].dll  - Undefined Reference
    QtMobility::QLandmark::setIconUrl(const QUrl&)  - Undefined Reference
    _ZN10QtMobility9QLandmark10setIconUrlERK4QUrl@QtLocation{00010103}[2002ac83].dll  - Undefined Reference
    QtMobility::QLandmark::setLandmarkId(const QtMobility::QLandmarkId&)  - Undefined Reference
    _ZN10QtMobility9QLandmark13setLandmarkIdERKNS_11QLandmarkIdE@QtLocation{00010103}[2002ac83].dll  - Undefined Reference
    QtMobility::QLandmark::setCategoryIds(const QList<QtMobility::QLandmarkCategoryId>&)  - Undefined Reference
    _ZN10QtMobility9QLandmark14setCategoryIdsERK5QListINS_19QLandmarkCategoryIdEE@QtLocation{00010103}[2002ac83].dll  - Undefined Reference
    QtMobility::QLandmark::setDescription(const QString&)  - Undefined Reference
    _ZN10QtMobility9QLandmark14setDescriptionERK7QString@QtLocation{00010103}[2002ac83].dll  - Undefined Reference
    QtMobility::QLandmark::setPhoneNumber(const QString&)  - Undefined Reference
    _ZN10QtMobility9QLandmark14setPhoneNumberERK7QString@QtLocation{00010103}[2002ac83].dll  - Undefined Reference
    QtMobility::QLandmark::setUrl(const QUrl&)  - Undefined Reference
    _ZN10QtMobility9QLandmark6setUrlERK4QUrl@QtLocation{00010103}[2002ac83].dll  - Undefined Reference
    QtMobility::QLandmark::setName(const QString&)  - Undefined Reference
    _ZN10QtMobility9QLandmark7setNameERK7QString@QtLocation{00010103}[2002ac83].dll  - Undefined Reference
    QtMobility::QLandmark::setRadius(float)   - Undefined Reference
    _ZN10QtMobility9QLandmark9setRadiusEf@QtLocation{00010103}[2002ac83].dll  - Undefined Reference
    QtMobility::QLandmark::QLandmark(const QtMobility::QLandmark&)  - Undefined Reference
    _ZN10QtMobility9QLandmarkC1ERKS0_@QtLocation{00010103}[2002ac83].dll  - Undefined Reference
    QtMobility::QLandmark::QLandmark()        - Undefined Reference
    _ZN10QtMobility9QLandmarkC1Ev@QtLocation{00010103}[2002ac83].dll  - Undefined Reference
    QtMobility::QLandmark::~QLandmark()       - Undefined Reference
    _ZN10QtMobility9QLandmarkD1Ev@QtLocation{00010103}[2002ac83].dll  - Undefined Reference
    QtMobility::QLandmark::operator =(const QtMobility::QLandmark&)  - Undefined Reference
    _ZN10QtMobility9QLandmarkaSERKS0_@QtLocation{00010103}[2002ac83].dll  - Undefined Reference
    RArrayBase::Close()                       - Undefined Reference
    _ZN10RArrayBase5CloseEv@euser{000a0000}[100039e5].dll  - Undefined Reference
    RArrayBase::Append(const void*)           - Undefined Reference
    _ZN10RArrayBase6AppendEPKv@euser{000a0000}[100039e5].dll  - Undefined Reference
    RArrayBase::RArrayBase(int)               - Undefined Reference
    _ZN10RArrayBaseC1Ei@euser{000a0000}[100039e5].dll  - Undefined Reference
    TBufBase16::TBufBase16(int)               - Undefined Reference
    _ZN10TBufBase16C1Ei@euser{000a0000}[100039e5].dll  - Undefined Reference
    QMetaObject::changeGuard(QObject**, QObject*)  - Undefined Reference
    _ZN11QMetaObject11changeGuardEPP7QObjectS1_@QtCore{00040703}[2001b2dc].dll  - Undefined Reference
    QMetaObject::removeGuard(QObject**)       - Undefined Reference
    _ZN11QMetaObject11removeGuardEPP7QObject@QtCore{00040703}[2001b2dc].dll  - Undefined Reference
    QTextStream::QTextStream(QString*, QFlags<QIODevice::OpenModeFlag>)  - Undefined Reference
    _ZN11QTextStreamC1EP7QString6QFlagsIN9QIODevice12OpenModeFlagEE@QtCore{00040703}[2001b2dc].dll  - Undefined Reference
    QTextStream::~QTextStream()               - Undefined Reference
    _ZN11QTextStreamD1Ev@QtCore{00040703}[2001b2dc].dll  - Undefined Reference
    QTextStream::operator <<(const QString&)  - Undefined Reference
    _ZN11QTextStreamlsERK7QString@QtCore{00040703}[2001b2dc].dll  - Undefined Reference
    QTextStream::operator <<(char)            - Undefined Reference
    _ZN11QTextStreamlsEc@QtCore{00040703}[2001b2dc].dll  - Undefined Reference
    QTextStream::operator <<(int)             - Undefined Reference
    _ZN11QTextStreamlsEi@QtCore{00040703}[2001b2dc].dll  - Undefined Reference
    RHandleBase::Close()                      - Undefined Reference
    _ZN11RHandleBase5CloseEv@euser{000a0000}[100039e5].dll  - Undefined Reference
    TCoordinate::SetCoordinate(const double&, const double&)  - Undefined Reference
    _ZN11TCoordinate13SetCoordinateERKdS1_@lbs{000a0000}[101f97b1].dll  - Undefined Reference
    TCoordinate::SetCoordinate(const double&, const double&, float)  - Undefined Reference
    _ZN11TCoordinate13SetCoordinateERKdS1_f@lbs{000a0000}[101f97b1].dll  - Undefined Reference
    TCoordinate::TCoordinate()                - Undefined Reference
    _ZN11TCoordinateC1Ev@lbs{000a0000}[101f97b1].dll  - Undefined Reference
    TSglQueBase::DoAddFirst(void*)            - Undefined Reference
    _ZN11TSglQueBase10DoAddFirstEPv@euser{000a0000}[100039e5].dll  - Undefined Reference
    TSglQueBase::DoRemove(void*)              - Undefined Reference
    _ZN11TSglQueBase8DoRemoveEPv@euser{000a0000}[100039e5].dll  - Undefined Reference
    TSglQueBase::SetOffset(int)               - Undefined Reference
    _ZN11TSglQueBase9SetOffsetEi@euser{000a0000}[100039e5].dll  - Undefined Reference
    TSglQueBase::TSglQueBase()                - Undefined Reference
    _ZN11TSglQueBaseC1Ev@euser{000a0000}[100039e5].dll  - Undefined Reference
    CPosLandmark::AddCategoryL(unsigned long)  - Undefined Reference
    _ZN12CPosLandmark12AddCategoryLEm@eposlandmarks{000a0000}[101fdf8a].dll  - Undefined Reference
    CPosLandmark::SetPositionL(const TLocality&)  - Undefined Reference
    _ZN12CPosLandmark12SetPositionLERK9TLocality@eposlandmarks{000a0000}[101fdf8a].dll  - Undefined Reference
    CPosLandmark::RemoveCategory(unsigned long)  - Undefined Reference
    _ZN12CPosLandmark14RemoveCategoryEm@eposlandmarks{000a0000}[101fdf8a].dll  - Undefined Reference
    CPosLandmark::SetLandmarkNameL(const TDesC16&)  - Undefined Reference
    _ZN12CPosLandmark16SetLandmarkNameLERK7TDesC16@eposlandmarks{000a0000}[101fdf8a].dll  - Undefined Reference
    CPosLandmark::SetCoverageRadius(float)    - Undefined Reference
    _ZN12CPosLandmark17SetCoverageRadiusEf@eposlandmarks{000a0000}[101fdf8a].dll  - Undefined Reference
    CPosLandmark::SetPositionFieldL(unsigned short, const TDesC16&)  - Undefined Reference
    _ZN12CPosLandmark17SetPositionFieldLEtRK7TDesC16@eposlandmarks{000a0000}[101fdf8a].dll  - Undefined Reference
    CPosLandmark::SetLandmarkDescriptionL(const TDesC16&)  - Undefined Reference
    _ZN12CPosLandmark23SetLandmarkDescriptionLERK7TDesC16@eposlandmarks{000a0000}[101fdf8a].dll  - Undefined Reference
    CPosLandmark::RemoveLandmarkAttributes(unsigned long)  - Undefined Reference
    _ZN12CPosLandmark24RemoveLandmarkAttributesEm@eposlandmarks{000a0000}[101fdf8a].dll  - Undefined Reference
    CPosLandmark::NewL()                      - Undefined Reference
    _ZN12CPosLandmark4NewLEv@eposlandmarks{000a0000}[101fdf8a].dll  - Undefined Reference
    CPosLandmark::SetIconL(const TDesC16&, int, int)  - Undefined Reference
    _ZN12CPosLandmark8SetIconLERK7TDesC16ii@eposlandmarks{000a0000}[101fdf8a].dll  - Undefined Reference
    CleanupStack::PopAndDestroy()             - Undefined Reference
    _ZN12CleanupStack13PopAndDestroyEv@euser{000a0000}[100039e5].dll  - Undefined Reference
    CleanupStack::Pop()                       - Undefined Reference
    _ZN12CleanupStack3PopEv@euser{000a0000}[100039e5].dll  - Undefined Reference
    CleanupStack::Check(void*)                - Undefined Reference
    _ZN12CleanupStack5CheckEPv@euser{000a0000}[100039e5].dll  - Undefined Reference
    CleanupStack::PushL(TCleanupItem)         - Undefined Reference
    _ZN12CleanupStack5PushLE12TCleanupItem@euser{000a0000}[100039e5].dll  - Undefined Reference
    CleanupStack::PushL(CBase*)               - Undefined Reference
    _ZN12CleanupStack5PushLEP5CBase@euser{000a0000}[100039e5].dll  - Undefined Reference
    CleanupStack::PushL(void*)                - Undefined Reference
    _ZN12CleanupStack5PushLEPv@euser{000a0000}[100039e5].dll  - Undefined Reference
    RSessionBase::DoShare(int)                - Undefined Reference
    _ZN12RSessionBase7DoShareEi@euser{000a0000}[100039e5].dll  - Undefined Reference
    RApaLsSession::Close()                    - Undefined Reference
    _ZN13RApaLsSession5CloseEv@apgrfx{000a0000}[10003a3c].dll  - Undefined Reference
    RApaLsSession::Connect()                  - Undefined Reference
    _ZN13RApaLsSession7ConnectEv@apgrfx{000a0000}[10003a3c].dll  - Undefined Reference
    RApaLsSession::RApaLsSession()            - Undefined Reference
    _ZN13RApaLsSessionC1Ev@apgrfx{000a0000}[10003a3c].dll  - Undefined Reference
    TPosLmSortPref::TPosLmSortPref(unsigned long, TPosLmSortPref::TSortOrder)  - Undefined Reference
    _ZN14TPosLmSortPrefC1EmNS_10TSortOrderE@eposlandmarks{000a0000}[101fdf8a].dll  - Undefined Reference
    TSglQueIterBase::SetToFirst()             - Undefined Reference
    _ZN15TSglQueIterBase10SetToFirstEv@euser{000a0000}[100039e5].dll  - Undefined Reference
    TSglQueIterBase::DoPostInc()              - Undefined Reference
    _ZN15TSglQueIterBase9DoPostIncEv@euser{000a0000}[100039e5].dll  - Undefined Reference
    TSglQueIterBase::TSglQueIterBase(TSglQueBase&)  - Undefined Reference
    _ZN15TSglQueIterBaseC1ER11TSglQueBase@euser{000a0000}[100039e5].dll  - Undefined Reference
    CActiveScheduler::Add(CActive*)           - Undefined Reference
    _ZN16CActiveScheduler3AddEP7CActive@euser{000a0000}[100039e5].dll  - Undefined Reference
    RPointerArrayBase::InsertIsqUnsigned(unsigned, int)  - Undefined Reference
    _ZN17RPointerArrayBase17InsertIsqUnsignedEji@euser{000a0000}[100039e5].dll  - Undefined Reference
    RPointerArrayBase::Close()                - Undefined Reference
    _ZN17RPointerArrayBase5CloseEv@euser{000a0000}[100039e5].dll  - Undefined Reference
    RPointerArrayBase::Reset()                - Undefined Reference
    _ZN17RPointerArrayBase5ResetEv@euser{000a0000}[100039e5].dll  - Undefined Reference
    RPointerArrayBase::Append(const void*)    - Undefined Reference
    _ZN17RPointerArrayBase6AppendEPKv@euser{000a0000}[100039e5].dll  - Undefined Reference
    RPointerArrayBase::Remove(int)            - Undefined Reference
    _ZN17RPointerArrayBase6RemoveEi@euser{000a0000}[100039e5].dll  - Undefined Reference
    RPointerArrayBase::Compress()             - Undefined Reference
    _ZN17RPointerArrayBase8CompressEv@euser{000a0000}[100039e5].dll  - Undefined Reference
    RPointerArrayBase::RPointerArrayBase()    - Undefined Reference
    _ZN17RPointerArrayBaseC1Ev@euser{000a0000}[100039e5].dll  - Undefined Reference
    CPosLandmarkParser::NewL(const TDesC8&)   - Undefined Reference
    _ZN18CPosLandmarkParser4NewLERK6TDesC8@eposlandmarks{000a0000}[101fdf8a].dll  - Undefined Reference
    CPosLandmarkSearch::SetMaxNumOfMatches(int)  - Undefined Reference
    _ZN18CPosLandmarkSearch18SetMaxNumOfMatchesEi@eposlmsearchlib{000a0000}[101fdf87].dll  - Undefined Reference
    CPosLandmarkSearch::NewL(CPosLandmarkDatabase&)  - Undefined Reference
    _ZN18CPosLandmarkSearch4NewLER20CPosLandmarkDatabase@eposlmsearchlib{000a0000}[101fdf87].dll  - Undefined Reference
    CPosLmAreaCriteria::NewLC(const double&, const double&, const double&, const double&)  - Undefined Reference
    _ZN18CPosLmAreaCriteria5NewLCERKdS1_S1_S1_@eposlmsearchlib{000a0000}[101fdf87].dll  - Undefined Reference
    CPosLmTextCriteria::SetAttributesToSearch(unsigned long)  - Undefined Reference
    _ZN18CPosLmTextCriteria21SetAttributesToSearchEm@eposlmsearchlib{000a0000}[101fdf87].dll  - Undefined Reference
    CPosLmTextCriteria::SetPositionFieldsToSearchL(const RArray<unsigned>&)  - Undefined Reference
    _ZN18CPosLmTextCriteria26SetPositionFieldsToSearchLERK6RArrayIjE@eposlmsearchlib{000a0000}[101fdf87].dll  - Undefined Reference
    CPosLmTextCriteria::NewLC()               - Undefined Reference
    _ZN18CPosLmTextCriteria5NewLCEv@eposlmsearchlib{000a0000}[101fdf87].dll  - Undefined Reference
    CPosLmTextCriteria::SetTextL(const TDesC16&)  - Undefined Reference
    _ZN18CPosLmTextCriteria8SetTextLERK7TDesC16@eposlmsearchlib{000a0000}[101fdf87].dll  - Undefined Reference
    CPosLandmarkEncoder::NewL(const TDesC8&)  - Undefined Reference
    _ZN19CPosLandmarkEncoder4NewLERK6TDesC8@eposlandmarks{000a0000}[101fdf8a].dll  - Undefined Reference
    CPosLandmarkCategory::SetCategoryNameL(const TDesC16&)  - Undefined Reference
    _ZN20CPosLandmarkCategory16SetCategoryNameLERK7TDesC16@eposlandmarks{000a0000}[101fdf8a].dll  - Undefined Reference
    CPosLandmarkCategory::NewL()              - Undefined Reference
    _ZN20CPosLandmarkCategory4NewLEv@eposlandmarks{000a0000}[101fdf8a].dll  - Undefined Reference
    CPosLandmarkCategory::SetIconL(const TDesC16&, int, int)  - Undefined Reference
    _ZN20CPosLandmarkCategory8SetIconLERK7TDesC16ii@eposlandmarks{000a0000}[101fdf8a].dll  - Undefined Reference
    CPosLandmarkDatabase::OpenL()             - Undefined Reference
    _ZN20CPosLandmarkDatabase5OpenLEv@eposlandmarks{000a0000}[101fdf8a].dll  - Undefined Reference
    CPosLmIdListCriteria::SetLandmarkIdsL(const RArray<unsigned long>&)  - Undefined Reference
    _ZN20CPosLmIdListCriteria15SetLandmarkIdsLERK6RArrayImE@eposlmsearchlib{000a0000}[101fdf87].dll  - Undefined Reference
    CPosLmIdListCriteria::NewLC()             - Undefined Reference
    _ZN20CPosLmIdListCriteria5NewLCEv@eposlmsearchlib{000a0000}[101fdf87].dll  - Undefined Reference
    CPosLmCatNameCriteria::SetSearchPatternL(const TDesC16&)  - Undefined Reference
    _ZN21CPosLmCatNameCriteria17SetSearchPatternLERK7TDesC16@eposlmsearchlib{000a0000}[101fdf87].dll  - Undefined Reference
    CPosLmCatNameCriteria::NewLC()            - Undefined Reference
    _ZN21CPosLmCatNameCriteria5NewLCEv@eposlmsearchlib{000a0000}[101fdf87].dll  - Undefined Reference
    CPosLmCategoryManager::NewL(CPosLandmarkDatabase&)  - Undefined Reference
    _ZN21CPosLmCategoryManager4NewLER20CPosLandmarkDatabase@eposlandmarks{000a0000}[101fdf8a].dll  - Undefined Reference
    CPosLmNearestCriteria::NewLC(const TCoordinate&, int)  - Undefined Reference
    _ZN21CPosLmNearestCriteria5NewLCERK11TCoordinatei@eposlmsearchlib{000a0000}[101fdf87].dll  - Undefined Reference
    CPosLmCategoryCriteria::SetCategoryItemId(unsigned long)  - Undefined Reference
    _ZN22CPosLmCategoryCriteria17SetCategoryItemIdEm@eposlmsearchlib{000a0000}[101fdf87].dll  - Undefined Reference
    CPosLmCategoryCriteria::NewLC()           - Undefined Reference
    _ZN22CPosLmCategoryCriteria5NewLCEv@eposlmsearchlib{000a0000}[101fdf87].dll  - Undefined Reference
    CPosLmCompositeCriteria::AddArgument(CPosLmSearchCriteria*)  - Undefined Reference
    _ZN23CPosLmCompositeCriteria11AddArgumentEP20CPosLmSearchCriteria@eposlmsearchlib{000a0000}[101fdf87].dll  - Undefined Reference
    CPosLmCompositeCriteria::NewLC(CPosLmCompositeCriteria::TCompositionType)  - Undefined Reference
    _ZN23CPosLmCompositeCriteria5NewLCENS_16TCompositionTypeE@eposlmsearchlib{000a0000}[101fdf87].dll  - Undefined Reference
    CPosLmPartialReadParameters::SetRequestedAttributes(unsigned long)  - Undefined Reference
    _ZN27CPosLmPartialReadParameters22SetRequestedAttributesEm@eposlandmarks{000a0000}[101fdf8a].dll  - Undefined Reference
    CPosLmPartialReadParameters::NewLC()      - Undefined Reference
    _ZN27CPosLmPartialReadParameters5NewLCEv@eposlandmarks{000a0000}[101fdf8a].dll  - Undefined Reference
    RFs::Close()                              - Undefined Reference
    _ZN3RFs5CloseEv@efsrv{000a0000}[100039e4].dll  - Undefined Reference
    RFs::Delete(const TDesC16&)               - Undefined Reference
    _ZN3RFs6DeleteERK7TDesC16@efsrv{000a0000}[100039e4].dll  - Undefined Reference
    RFs::Connect(int)                         - Undefined Reference
    _ZN3RFs7ConnectEi@efsrv{000a0000}[100039e4].dll  - Undefined Reference
    RFs::MkDirAll(const TDesC16&)             - Undefined Reference
    _ZN3RFs8MkDirAllERK7TDesC16@efsrv{000a0000}[100039e4].dll  - Undefined Reference
    Math::IsNaN(const double&)                - Undefined Reference
    _ZN4Math5IsNaNERKd@euser{000a0000}[100039e5].dll  - Undefined Reference
    QUrl::QUrl(const QString&)                - Undefined Reference
    _ZN4QUrlC1ERK7QString@QtCore{00040703}[2001b2dc].dll  - Undefined Reference
    QUrl::~QUrl()                             - Undefined Reference
    _ZN4QUrlD1Ev@QtCore{00040703}[2001b2dc].dll  - Undefined Reference
    User::LeaveIfError(int)                   - Undefined Reference
    _ZN4User12LeaveIfErrorEi@euser{000a0000}[100039e5].dll  - Undefined Reference
    User::WaitForRequest(TRequestStatus&)     - Undefined Reference
    _ZN4User14WaitForRequestER14TRequestStatus@euser{000a0000}[100039e5].dll  - Undefined Reference
    User::WaitForRequest(TRequestStatus&, TRequestStatus&)  - Undefined Reference
    _ZN4User14WaitForRequestER14TRequestStatusS1_@euser{000a0000}[100039e5].dll  - Undefined Reference
    User::RequestComplete(TRequestStatus*&, int)  - Undefined Reference
    _ZN4User15RequestCompleteERP14TRequestStatusi@euser{000a0000}[100039e5].dll  - Undefined Reference
    User::MarkCleanupStack()                  - Undefined Reference
    _ZN4User16MarkCleanupStackEv@euser{000a0000}[100039e5].dll  - Undefined Reference
    User::UnMarkCleanupStack(TTrapHandler*)   - Undefined Reference
    _ZN4User18UnMarkCleanupStackEP12TTrapHandler@euser{000a0000}[100039e5].dll  - Undefined Reference
    User::After(TTimeIntervalMicroSeconds32)  - Undefined Reference
    _ZN4User5AfterE27TTimeIntervalMicroSeconds32@euser{000a0000}[100039e5].dll  - Undefined Reference
    User::Leave(int)                          - Undefined Reference
    _ZN4User5LeaveEi@euser{000a0000}[100039e5].dll  - Undefined Reference
    User::AllocL(int)                         - Undefined Reference
    _ZN4User6AllocLEi@euser{000a0000}[100039e5].dll  - Undefined Reference
    User::AllocZL(int)                        - Undefined Reference
    _ZN4User7AllocZLEi@euser{000a0000}[100039e5].dll  - Undefined Reference
    User::Invariant()                         - Undefined Reference
    _ZN4User9InvariantEv@euser{000a0000}[100039e5].dll  - Undefined Reference
    User::LockedDec(int&)                     - Undefined Reference
    _ZN4User9LockedDecERi@euser{000a0000}[100039e5].dll  - Undefined Reference
    User::LockedInc(int&)                     - Undefined Reference
    _ZN4User9LockedIncERi@euser{000a0000}[100039e5].dll  - Undefined Reference
    CBase::Extension_(unsigned, void*&, void*)  - Undefined Reference
    _ZN5CBase10Extension_EjRPvS0_@euser{000a0000}[100039e5].dll  - Undefined Reference
    CBase::~CBase()                           - Undefined Reference
    _ZN5CBaseD1Ev@euser{000a0000}[100039e5].dll  - Undefined Reference
    RFile::Open(RFs&, const TDesC16&, unsigned)  - Undefined Reference
    _ZN5RFile4OpenER3RFsRK7TDesC16j@efsrv{000a0000}[100039e4].dll  - Undefined Reference
    RFile::Close()                            - Undefined Reference
    _ZN5RFile5CloseEv@efsrv{000a0000}[100039e4].dll  - Undefined Reference
    TDes8::Copy(const unsigned char*)         - Undefined Reference
    _ZN5TDes84CopyEPKh@euser{000a0000}[100039e5].dll  - Undefined Reference
    HBufC8::Des()                             - Undefined Reference
    _ZN6HBufC83DesEv@euser{000a0000}[100039e5].dll  - Undefined Reference
    HBufC8::New(int)                          - Undefined Reference
    _ZN6HBufC83NewEi@euser{000a0000}[100039e5].dll  - Undefined Reference
    HBufC8::NewLC(int)                        - Undefined Reference
    _ZN6HBufC85NewLCEi@euser{000a0000}[100039e5].dll  - Undefined Reference
    RTimer::CreateLocal()                     - Undefined Reference
    _ZN6RTimer11CreateLocalEv@euser{000a0000}[100039e5].dll  - Undefined Reference
    RTimer::After(TRequestStatus&, TTimeIntervalMicroSeconds32)  - Undefined Reference
    _ZN6RTimer5AfterER14TRequestStatus27TTimeIntervalMicroSeconds32@euser{000a0000}[100039e5].dll  - Undefined Reference
    RTimer::Cancel()                          - Undefined Reference
    _ZN6RTimer6CancelEv@euser{000a0000}[100039e5].dll  - Undefined Reference
    TDes16::Copy(const unsigned short*)       - Undefined Reference
    _ZN6TDes164CopyEPKt@euser{000a0000}[100039e5].dll  - Undefined Reference
    TDes16::Copy(const TDesC16&)              - Undefined Reference
    _ZN6TDes164CopyERK7TDesC16@euser{000a0000}[100039e5].dll  - Undefined Reference
    TDes16::Append(const unsigned short*, int)  - Undefined Reference
    _ZN6TDes166AppendEPKti@euser{000a0000}[100039e5].dll  - Undefined Reference
    TDes16::Append(const TDesC16&)            - Undefined Reference
    _ZN6TDes166AppendERK7TDesC16@euser{000a0000}[100039e5].dll  - Undefined Reference
    TDes16::Delete(int, int)                  - Undefined Reference
    _ZN6TDes166DeleteEii@euser{000a0000}[100039e5].dll  - Undefined Reference
    CActive::Extension_(unsigned, void*&, void*)  - Undefined Reference
    _ZN7CActive10Extension_EjRPvS0_@euser{000a0000}[100039e5].dll  - Undefined Reference
    CActive::Cancel()                         - Undefined Reference
    _ZN7CActive6CancelEv@euser{000a0000}[100039e5].dll  - Undefined Reference
    CActive::RunError(int)                    - Undefined Reference
    _ZN7CActive8RunErrorEi@euser{000a0000}[100039e5].dll  - Undefined Reference
    CActive::SetActive()                      - Undefined Reference
    _ZN7CActive9SetActiveEv@euser{000a0000}[100039e5].dll  - Undefined Reference
    CActive::CActive__sub_object(int)         - Undefined Reference
    _ZN7CActiveC2Ei@euser{000a0000}[100039e5].dll  - Undefined Reference
    CActive::~CActive__sub_object()           - Undefined Reference
    _ZN7CActiveD2Ev@euser{000a0000}[100039e5].dll  - Undefined Reference
    HBufC16::Des()                            - Undefined Reference
    _ZN7HBufC163DesEv@euser{000a0000}[100039e5].dll  - Undefined Reference
    HBufC16::NewL(int)                        - Undefined Reference
    _ZN7HBufC164NewLEi@euser{000a0000}[100039e5].dll  - Undefined Reference
    QObject::childEvent(QChildEvent*)         - Undefined Reference
    _ZN7QObject10childEventEP11QChildEvent@QtCore{00040703}[2001b2dc].dll  - Undefined Reference
    QObject::timerEvent(QTimerEvent*)         - Undefined Reference
    _ZN7QObject10timerEventEP11QTimerEvent@QtCore{00040703}[2001b2dc].dll  - Undefined Reference
    QObject::customEvent(QEvent*)             - Undefined Reference
    _ZN7QObject11customEventEP6QEvent@QtCore{00040703}[2001b2dc].dll  - Undefined Reference
    QObject::eventFilter(QObject*, QEvent*)   - Undefined Reference
    _ZN7QObject11eventFilterEPS_P6QEvent@QtCore{00040703}[2001b2dc].dll  - Undefined Reference
    QObject::qt_metacall(QMetaObject::Call, int, void**)  - Undefined Reference
    _ZN7QObject11qt_metacallEN11QMetaObject4CallEiPPv@QtCore{00040703}[2001b2dc].dll  - Undefined Reference
    QObject::qt_metacast(const char*)         - Undefined Reference
    _ZN7QObject11qt_metacastEPKc@QtCore{00040703}[2001b2dc].dll  - Undefined Reference
    QObject::connectNotify(const char*)       - Undefined Reference
    _ZN7QObject13connectNotifyEPKc@QtCore{00040703}[2001b2dc].dll  - Undefined Reference
    QObject::disconnectNotify(const char*)    - Undefined Reference
    _ZN7QObject16disconnectNotifyEPKc@QtCore{00040703}[2001b2dc].dll  - Undefined Reference
    QObject::staticMetaObject                 - Undefined Reference
    _ZN7QObject16staticMetaObjectE@QtCore{00040703}[2001b2dc].dll  - Undefined Reference
    QObject::event(QEvent*)                   - Undefined Reference
    _ZN7QObject5eventEP6QEvent@QtCore{00040703}[2001b2dc].dll  - Undefined Reference
    QObject::QObject(QObject*)                - Undefined Reference
    _ZN7QObjectC1EPS_@QtCore{00040703}[2001b2dc].dll  - Undefined Reference
    QObject::~QObject()                       - Undefined Reference
    _ZN7QObjectD1Ev@QtCore{00040703}[2001b2dc].dll  - Undefined Reference
    QString::fromLatin1(const char*, int)     - Undefined Reference
    _ZN7QString10fromLatin1EPKci@QtCore{00040703}[2001b2dc].dll  - Undefined Reference
    QString::shared_null                      - Undefined Reference
    _ZN7QString11shared_nullE@QtCore{00040703}[2001b2dc].dll  - Undefined Reference
    QString::codecForCStrings                 - Undefined Reference
    _ZN7QString16codecForCStringsE@QtCore{00040703}[2001b2dc].dll  - Undefined Reference
    QString::fromAscii_helper(const char*, int)  - Undefined Reference
    _ZN7QString16fromAscii_helperEPKci@QtCore{00040703}[2001b2dc].dll  - Undefined Reference
    QString::free(QString::Data*)             - Undefined Reference
    _ZN7QString4freeEPNS_4DataE@QtCore{00040703}[2001b2dc].dll  - Undefined Reference
    QString::append(const QString&)           - Undefined Reference
    _ZN7QString6appendERKS_@QtCore{00040703}[2001b2dc].dll  - Undefined Reference
    QString::insert(int, const QChar*, int)   - Undefined Reference
    _ZN7QString6insertEiPK5QChari@QtCore{00040703}[2001b2dc].dll  - Undefined Reference
    QString::remove(const QString&, Qt::CaseSensitivity)  - Undefined Reference
    _ZN7QString6removeERKS_N2Qt15CaseSensitivityE@QtCore{00040703}[2001b2dc].dll  - Undefined Reference
    QString::remove(int, int)                 - Undefined Reference
    _ZN7QString6removeEii@QtCore{00040703}[2001b2dc].dll  - Undefined Reference
    QString::setNum(unsigned long long, int)  - Undefined Reference
    _ZN7QString6setNumEyi@QtCore{00040703}[2001b2dc].dll  - Undefined Reference
    QString::fromAscii(const char*, int)      - Undefined Reference
    _ZN7QString9fromAsciiEPKci@QtCore{00040703}[2001b2dc].dll  - Undefined Reference
    QString::QString(const QChar*, int)       - Undefined Reference
    _ZN7QStringC1EPK5QChari@QtCore{00040703}[2001b2dc].dll  - Undefined Reference
    QString::operator =(const QString&)       - Undefined Reference
    _ZN7QStringaSERKS_@QtCore{00040703}[2001b2dc].dll  - Undefined Reference
    RThread::Open(TThreadId, TOwnerType)      - Undefined Reference
    _ZN7RThread4OpenE9TThreadId10TOwnerType@euser{000a0000}[100039e5].dll  - Undefined Reference
    TPtrC16::TPtrC16(const unsigned short*)   - Undefined Reference
    _ZN7TPtrC16C1EPKt@euser{000a0000}[100039e5].dll  - Undefined Reference
    TPtrC16::TPtrC16(const unsigned short*, int)  - Undefined Reference
    _ZN7TPtrC16C1EPKti@euser{000a0000}[100039e5].dll  - Undefined Reference
    TPtrC16::TPtrC16()                        - Undefined Reference
    _ZN7TPtrC16C1Ev@euser{000a0000}[100039e5].dll  - Undefined Reference
    QMapData::createData(int)                 - Undefined Reference
    _ZN8QMapData10createDataEi@QtCore{00040703}[2001b2dc].dll  - Undefined Reference
    QMapData::node_create(QMapData::Node**, int, int)  - Undefined Reference
    _ZN8QMapData11node_createEPPNS_4NodeEii@QtCore{00040703}[2001b2dc].dll  - Undefined Reference
    QMapData::node_delete(QMapData::Node**, int, QMapData::Node*)  - Undefined Reference
    _ZN8QMapData11node_deleteEPPNS_4NodeEiS1_@QtCore{00040703}[2001b2dc].dll  - Undefined Reference
    QMapData::shared_null                     - Undefined Reference
    _ZN8QMapData11shared_nullE@QtCore{00040703}[2001b2dc].dll  - Undefined Reference
    QMapData::continueFreeData(int)           - Undefined Reference
    _ZN8QMapData16continueFreeDataEi@QtCore{00040703}[2001b2dc].dll  - Undefined Reference
    QSysInfo::s60Version()                    - Undefined Reference
    _ZN8QSysInfo10s60VersionEv@QtCore{00040703}[2001b2dc].dll  - Undefined Reference
    QVariant::~QVariant()                     - Undefined Reference
    _ZN8QVariantD1Ev@QtCore{00040703}[2001b2dc].dll  - Undefined Reference
    QHashData::free_helper(void(*)(QHashData::Node*))  - Undefined Reference
    _ZN9QHashData11free_helperEPFvPNS_4NodeEE@QtCore{00040703}[2001b2dc].dll  - Undefined Reference
    QHashData::shared_null                    - Undefined Reference
    _ZN9QHashData11shared_nullE@QtCore{00040703}[2001b2dc].dll  - Undefined Reference
    QHashData::allocateNode(int)              - Undefined Reference
    _ZN9QHashData12allocateNodeEi@QtCore{00040703}[2001b2dc].dll  - Undefined Reference
    QHashData::previousNode(QHashData::Node*)  - Undefined Reference
    _ZN9QHashData12previousNodeEPNS_4NodeE@QtCore{00040703}[2001b2dc].dll  - Undefined Reference
    QHashData::detach_helper2(void(*)(QHashData::Node*, void*), void(*)(QHashData::Node*), int, int)  - Undefined Reference
    _ZN9QHashData14detach_helper2EPFvPNS_4NodeEPvEPFvS1_Eii@QtCore{00040703}[2001b2dc].dll  - Undefined Reference
    QHashData::rehash(int)                    - Undefined Reference
    _ZN9QHashData6rehashEi@QtCore{00040703}[2001b2dc].dll  - Undefined Reference
    QHashData::freeNode(void*)                - Undefined Reference
    _ZN9QHashData8freeNodeEPv@QtCore{00040703}[2001b2dc].dll  - Undefined Reference
    QHashData::nextNode(QHashData::Node*)     - Undefined Reference
    _ZN9QHashData8nextNodeEPNS_4NodeE@QtCore{00040703}[2001b2dc].dll  - Undefined Reference
    QIODevice::write(const char*)             - Undefined Reference
    _ZN9QIODevice5writeEPKc@QtCore{00040703}[2001b2dc].dll  - Undefined Reference
    QListData::detach_grow(int*, int)         - Undefined Reference
    _ZN9QListData11detach_growEPii@QtCore{00040703}[2001b2dc].dll  - Undefined Reference
    QListData::shared_null                    - Undefined Reference
    _ZN9QListData11shared_nullE@QtCore{00040703}[2001b2dc].dll  - Undefined Reference
    QListData::append()                       - Undefined Reference
    _ZN9QListData6appendEv@QtCore{00040703}[2001b2dc].dll  - Undefined Reference
    QListData::detach(int)                    - Undefined Reference
    _ZN9QListData6detachEi@QtCore{00040703}[2001b2dc].dll  - Undefined Reference
    QListData::insert(int)                    - Undefined Reference
    _ZN9QListData6insertEi@QtCore{00040703}[2001b2dc].dll  - Undefined Reference
    QListData::remove(int)                    - Undefined Reference
    _ZN9QListData6removeEi@QtCore{00040703}[2001b2dc].dll  - Undefined Reference
    QListData::append2(const QListData&)      - Undefined Reference
    _ZN9QListData7append2ERKS_@QtCore{00040703}[2001b2dc].dll  - Undefined Reference
    QListData::realloc(int)                   - Undefined Reference
    _ZN9QListData7reallocEi@QtCore{00040703}[2001b2dc].dll  - Undefined Reference
    QtPrivate::QStringList_contains(const QStringList*, const QString&, Qt::CaseSensitivity)  - Undefined Reference
    _ZN9QtPrivate20QStringList_containsEPK11QStringListRK7QStringN2Qt15CaseSensitivityE@QtCore{00040703}[2001b2dc].dll  - Undefined Reference
    RFastLock::CreateLocal(TOwnerType)        - Undefined Reference
    _ZN9RFastLock11CreateLocalE10TOwnerType@euser{000a0000}[100039e5].dll  - Undefined Reference
    RFastLock::Wait()                         - Undefined Reference
    _ZN9RFastLock4WaitEv@euser{000a0000}[100039e5].dll  - Undefined Reference
    RFastLock::Signal()                       - Undefined Reference
    _ZN9RFastLock6SignalEv@euser{000a0000}[100039e5].dll  - Undefined Reference
    TDataType::TDataType()                    - Undefined Reference
    _ZN9TDataTypeC1Ev@apmime{000a0000}[10003a1a].dll  - Undefined Reference
    TLocality::TLocality()                    - Undefined Reference
    _ZN9TLocalityC1Ev@lbs{000a0000}[101f97b1].dll  - Undefined Reference
    QtMobility::QGeoAddress::countryCode() const  - Undefined Reference
    _ZNK10QtMobility11QGeoAddress11countryCodeEv@QtLocation{00010103}[2002ac83].dll  - Undefined Reference
    QtMobility::QGeoAddress::city() const     - Undefined Reference
    _ZNK10QtMobility11QGeoAddress4cityEv@QtLocation{00010103}[2002ac83].dll  - Undefined Reference
    QtMobility::QGeoAddress::state() const    - Undefined Reference
    _ZNK10QtMobility11QGeoAddress5stateEv@QtLocation{00010103}[2002ac83].dll  - Undefined Reference
    QtMobility::QGeoAddress::county() const   - Undefined Reference
    _ZNK10QtMobility11QGeoAddress6countyEv@QtLocation{00010103}[2002ac83].dll  - Undefined Reference
    QtMobility::QGeoAddress::street() const   - Undefined Reference
    _ZNK10QtMobility11QGeoAddress6streetEv@QtLocation{00010103}[2002ac83].dll  - Undefined Reference
    QtMobility::QGeoAddress::country() const  - Undefined Reference
    _ZNK10QtMobility11QGeoAddress7countryEv@QtLocation{00010103}[2002ac83].dll  - Undefined Reference
    QtMobility::QGeoAddress::district() const  - Undefined Reference
    _ZNK10QtMobility11QGeoAddress8districtEv@QtLocation{00010103}[2002ac83].dll  - Undefined Reference
    QtMobility::QGeoAddress::postcode() const  - Undefined Reference
    _ZNK10QtMobility11QGeoAddress8postcodeEv@QtLocation{00010103}[2002ac83].dll  - Undefined Reference
    QtMobility::QLandmarkId::managerUri() const  - Undefined Reference
    _ZNK10QtMobility11QLandmarkId10managerUriEv@QtLocation{00010103}[2002ac83].dll  - Undefined Reference
    QtMobility::QLandmarkId::isValid() const  - Undefined Reference
    _ZNK10QtMobility11QLandmarkId7isValidEv@QtLocation{00010103}[2002ac83].dll  - Undefined Reference
    QtMobility::QLandmarkId::localId() const  - Undefined Reference
    _ZNK10QtMobility11QLandmarkId7localIdEv@QtLocation{00010103}[2002ac83].dll  - Undefined Reference
    QtMobility::QLandmarkId::operator ==(const QtMobility::QLandmarkId&) const  - Undefined Reference
    _ZNK10QtMobility11QLandmarkIdeqERKS0_@QtLocation{00010103}[2002ac83].dll  - Undefined Reference
    QtMobility::QGeoCoordinate::distanceTo(const QtMobility::QGeoCoordinate&) const  - Undefined Reference
    _ZNK10QtMobility14QGeoCoordinate10distanceToERKS0_@QtLocation{00010103}[2002ac83].dll  - Undefined Reference
    QtMobility::QGeoCoordinate::isValid() const  - Undefined Reference
    _ZNK10QtMobility14QGeoCoordinate7isValidEv@QtLocation{00010103}[2002ac83].dll  - Undefined Reference
    QtMobility::QGeoCoordinate::altitude() const  - Undefined Reference
    _ZNK10QtMobility14QGeoCoordinate8altitudeEv@QtLocation{00010103}[2002ac83].dll  - Undefined Reference
    QtMobility::QGeoCoordinate::latitude() const  - Undefined Reference
    _ZNK10QtMobility14QGeoCoordinate8latitudeEv@QtLocation{00010103}[2002ac83].dll  - Undefined Reference
    QtMobility::QGeoCoordinate::longitude() const  - Undefined Reference
    _ZNK10QtMobility14QGeoCoordinate9longitudeEv@QtLocation{00010103}[2002ac83].dll  - Undefined Reference
    QtMobility::QGeoBoundingBox::bottomRight() const  - Undefined Reference
    _ZNK10QtMobility15QGeoBoundingBox11bottomRightEv@QtLocation{00010103}[2002ac83].dll  - Undefined Reference
    QtMobility::QGeoBoundingBox::topLeft() const  - Undefined Reference
    _ZNK10QtMobility15QGeoBoundingBox7topLeftEv@QtLocation{00010103}[2002ac83].dll  - Undefined Reference
    QtMobility::QLandmarkFilter::type() const  - Undefined Reference
    _ZNK10QtMobility15QLandmarkFilter4typeEv@QtLocation{00010103}[2002ac83].dll  - Undefined Reference
    QtMobility::QLandmarkCategory::categoryId() const  - Undefined Reference
    _ZNK10QtMobility17QLandmarkCategory10categoryIdEv@QtLocation{00010103}[2002ac83].dll  - Undefined Reference
    QtMobility::QLandmarkCategory::name() const  - Undefined Reference
    _ZNK10QtMobility17QLandmarkCategory4nameEv@QtLocation{00010103}[2002ac83].dll  - Undefined Reference
    QtMobility::QLandmarkCategory::iconUrl() const  - Undefined Reference
    _ZNK10QtMobility17QLandmarkCategory7iconUrlEv@QtLocation{00010103}[2002ac83].dll  - Undefined Reference
    QtMobility::QLandmarkIdFilter::landmarkIds() const  - Undefined Reference
    _ZNK10QtMobility17QLandmarkIdFilter11landmarkIdsEv@QtLocation{00010103}[2002ac83].dll  - Undefined Reference
    QtMobility::QLandmarkNameSort::caseSensitivity() const  - Undefined Reference
    _ZNK10QtMobility17QLandmarkNameSort15caseSensitivityEv@QtLocation{00010103}[2002ac83].dll  - Undefined Reference
    QtMobility::QGeoBoundingCircle::contains(const QtMobility::QGeoCoordinate&) const  - Undefined Reference
    _ZNK10QtMobility18QGeoBoundingCircle8containsERKNS_14QGeoCoordinateE@QtLocation{00010103}[2002ac83].dll  - Undefined Reference
    QtMobility::QLandmarkBoxFilter::boundingBox() const  - Undefined Reference
    _ZNK10QtMobility18QLandmarkBoxFilter11boundingBoxEv@QtLocation{00010103}[2002ac83].dll  - Undefined Reference
    QtMobility::QLandmarkSortOrder::type() const  - Undefined Reference
    _ZNK10QtMobility18QLandmarkSortOrder4typeEv@QtLocation{00010103}[2002ac83].dll  - Undefined Reference
    QtMobility::QLandmarkSortOrder::direction() const  - Undefined Reference
    _ZNK10QtMobility18QLandmarkSortOrder9directionEv@QtLocation{00010103}[2002ac83].dll  - Undefined Reference
    QtMobility::QLandmarkCategoryId::managerUri() const  - Undefined Reference
    _ZNK10QtMobility19QLandmarkCategoryId10managerUriEv@QtLocation{00010103}[2002ac83].dll  - Undefined Reference
    QtMobility::QLandmarkCategoryId::localId() const  - Undefined Reference
    _ZNK10QtMobility19QLandmarkCategoryId7localIdEv@QtLocation{00010103}[2002ac83].dll  - Undefined Reference
    QtMobility::QLandmarkNameFilter::matchFlags() const  - Undefined Reference
    _ZNK10QtMobility19QLandmarkNameFilter10matchFlagsEv@QtLocation{00010103}[2002ac83].dll  - Undefined Reference
    QtMobility::QLandmarkNameFilter::name() const  - Undefined Reference
    _ZNK10QtMobility19QLandmarkNameFilter4nameEv@QtLocation{00010103}[2002ac83].dll  - Undefined Reference
    QtMobility::QLandmarkSaveRequest::landmarks() const  - Undefined Reference
    _ZNK10QtMobility20QLandmarkSaveRequest9landmarksEv@QtLocation{00010103}[2002ac83].dll  - Undefined Reference
    QtMobility::QLandmarkUnionFilter::filters() const  - Undefined Reference
    _ZNK10QtMobility20QLandmarkUnionFilter7filtersEv@QtLocation{00010103}[2002ac83].dll  - Undefined Reference
    QtMobility::QLandmarkFetchRequest::limit() const  - Undefined Reference
    _ZNK10QtMobility21QLandmarkFetchRequest5limitEv@QtLocation{00010103}[2002ac83].dll  - Undefined Reference
    QtMobility::QLandmarkFetchRequest::filter() const  - Undefined Reference
    _ZNK10QtMobility21QLandmarkFetchRequest6filterEv@QtLocation{00010103}[2002ac83].dll  - Undefined Reference
    QtMobility::QLandmarkFetchRequest::offset() const  - Undefined Reference
    _ZNK10QtMobility21QLandmarkFetchRequest6offsetEv@QtLocation{00010103}[2002ac83].dll  - Undefined Reference
    QtMobility::QLandmarkFetchRequest::sorting() const  - Undefined Reference
    _ZNK10QtMobility21QLandmarkFetchRequest7sortingEv@QtLocation{00010103}[2002ac83].dll  - Undefined Reference
    QtMobility::QLandmarkExportRequest::landmarkIds() const  - Undefined Reference
    _ZNK10QtMobility22QLandmarkExportRequest11landmarkIdsEv@QtLocation{00010103}[2002ac83].dll  - Undefined Reference
    QtMobility::QLandmarkExportRequest::transferOption() const  - Undefined Reference
    _ZNK10QtMobility22QLandmarkExportRequest14transferOptionEv@QtLocation{00010103}[2002ac83].dll  - Undefined Reference
    QtMobility::QLandmarkExportRequest::device() const  - Undefined Reference
    _ZNK10QtMobility22QLandmarkExportRequest6deviceEv@QtLocation{00010103}[2002ac83].dll  - Undefined Reference
    QtMobility::QLandmarkExportRequest::format() const  - Undefined Reference
    _ZNK10QtMobility22QLandmarkExportRequest6formatEv@QtLocation{00010103}[2002ac83].dll  - Undefined Reference
    QtMobility::QLandmarkImportRequest::categoryId() const  - Undefined Reference
    _ZNK10QtMobility22QLandmarkImportRequest10categoryIdEv@QtLocation{00010103}[2002ac83].dll  - Undefined Reference
    QtMobility::QLandmarkImportRequest::transferOption() const  - Undefined Reference
    _ZNK10QtMobility22QLandmarkImportRequest14transferOptionEv@QtLocation{00010103}[2002ac83].dll  - Undefined Reference
    QtMobility::QLandmarkImportRequest::device() const  - Undefined Reference
    _ZNK10QtMobility22QLandmarkImportRequest6deviceEv@QtLocation{00010103}[2002ac83].dll  - Undefined Reference
    QtMobility::QLandmarkImportRequest::format() const  - Undefined Reference
    _ZNK10QtMobility22QLandmarkImportRequest6formatEv@QtLocation{00010103}[2002ac83].dll  - Undefined Reference
    QtMobility::QLandmarkRemoveRequest::landmarkIds() const  - Undefined Reference
    _ZNK10QtMobility22QLandmarkRemoveRequest11landmarkIdsEv@QtLocation{00010103}[2002ac83].dll  - Undefined Reference
    QtMobility::QLandmarkCategoryFilter::categoryId() const  - Undefined Reference
    _ZNK10QtMobility23QLandmarkCategoryFilter10categoryIdEv@QtLocation{00010103}[2002ac83].dll  - Undefined Reference
    QtMobility::QLandmarkIdFetchRequest::limit() const  - Undefined Reference
    _ZNK10QtMobility23QLandmarkIdFetchRequest5limitEv@QtLocation{00010103}[2002ac83].dll  - Undefined Reference
    QtMobility::QLandmarkIdFetchRequest::filter() const  - Undefined Reference
    _ZNK10QtMobility23QLandmarkIdFetchRequest6filterEv@QtLocation{00010103}[2002ac83].dll  - Undefined Reference
    QtMobility::QLandmarkIdFetchRequest::offset() const  - Undefined Reference
    _ZNK10QtMobility23QLandmarkIdFetchRequest6offsetEv@QtLocation{00010103}[2002ac83].dll  - Undefined Reference
    QtMobility::QLandmarkIdFetchRequest::sorting() const  - Undefined Reference
    _ZNK10QtMobility23QLandmarkIdFetchRequest7sortingEv@QtLocation{00010103}[2002ac83].dll  - Undefined Reference
    QtMobility::QLandmarkAbstractRequest::type() const  - Undefined Reference
    _ZNK10QtMobility24QLandmarkAbstractRequest4typeEv@QtLocation{00010103}[2002ac83].dll  - Undefined Reference
    QtMobility::QLandmarkAttributeFilter::matchFlags(const QString&) const  - Undefined Reference
    _ZNK10QtMobility24QLandmarkAttributeFilter10matchFlagsERK7QString@QtLocation{00010103}[2002ac83].dll  - Undefined Reference
    QtMobility::QLandmarkAttributeFilter::attributeKeys() const  - Undefined Reference
    _ZNK10QtMobility24QLandmarkAttributeFilter13attributeKeysEv@QtLocation{00010103}[2002ac83].dll  - Undefined Reference
    QtMobility::QLandmarkAttributeFilter::operationType() const  - Undefined Reference
    _ZNK10QtMobility24QLandmarkAttributeFilter13operationTypeEv@QtLocation{00010103}[2002ac83].dll  - Undefined Reference
    QtMobility::QLandmarkAttributeFilter::attribute(const QString&) const  - Undefined Reference
    _ZNK10QtMobility24QLandmarkAttributeFilter9attributeERK7QString@QtLocation{00010103}[2002ac83].dll  - Undefined Reference
    QtMobility::QLandmarkProximityFilter::center() const  - Undefined Reference
    _ZNK10QtMobility24QLandmarkProximityFilter6centerEv@QtLocation{00010103}[2002ac83].dll  - Undefined Reference
    QtMobility::QLandmarkProximityFilter::radius() const  - Undefined Reference
    _ZNK10QtMobility24QLandmarkProximityFilter6radiusEv@QtLocation{00010103}[2002ac83].dll  - Undefined Reference
    QtMobility::QLandmarkFetchByIdRequest::landmarkIds() const  - Undefined Reference
    _ZNK10QtMobility25QLandmarkFetchByIdRequest11landmarkIdsEv@QtLocation{00010103}[2002ac83].dll  - Undefined Reference
    QtMobility::QLandmarkIntersectionFilter::filters() const  - Undefined Reference
    _ZNK10QtMobility27QLandmarkIntersectionFilter7filtersEv@QtLocation{00010103}[2002ac83].dll  - Undefined Reference
    QtMobility::QLandmarkCategorySaveRequest::categories() const  - Undefined Reference
    _ZNK10QtMobility28QLandmarkCategorySaveRequest10categoriesEv@QtLocation{00010103}[2002ac83].dll  - Undefined Reference
    QtMobility::QLandmarkCategoryFetchRequest::limit() const  - Undefined Reference
    _ZNK10QtMobility29QLandmarkCategoryFetchRequest5limitEv@QtLocation{00010103}[2002ac83].dll  - Undefined Reference
    QtMobility::QLandmarkCategoryFetchRequest::offset() const  - Undefined Reference
    _ZNK10QtMobility29QLandmarkCategoryFetchRequest6offsetEv@QtLocation{00010103}[2002ac83].dll  - Undefined Reference
    QtMobility::QLandmarkCategoryFetchRequest::sorting() const  - Undefined Reference
    _ZNK10QtMobility29QLandmarkCategoryFetchRequest7sortingEv@QtLocation{00010103}[2002ac83].dll  - Undefined Reference
    QtMobility::QLandmarkCategoryRemoveRequest::categoryIds() const  - Undefined Reference
    _ZNK10QtMobility30QLandmarkCategoryRemoveRequest11categoryIdsEv@QtLocation{00010103}[2002ac83].dll  - Undefined Reference
    QtMobility::QLandmarkCategoryIdFetchRequest::limit() const  - Undefined Reference
    _ZNK10QtMobility31QLandmarkCategoryIdFetchRequest5limitEv@QtLocation{00010103}[2002ac83].dll  - Undefined Reference
    QtMobility::QLandmarkCategoryIdFetchRequest::offset() const  - Undefined Reference
    _ZNK10QtMobility31QLandmarkCategoryIdFetchRequest6offsetEv@QtLocation{00010103}[2002ac83].dll  - Undefined Reference
    QtMobility::QLandmarkCategoryIdFetchRequest::sorting() const  - Undefined Reference
    _ZNK10QtMobility31QLandmarkCategoryIdFetchRequest7sortingEv@QtLocation{00010103}[2002ac83].dll  - Undefined Reference
    QtMobility::QLandmarkCategoryFetchByIdRequest::categoryIds() const  - Undefined Reference
    _ZNK10QtMobility33QLandmarkCategoryFetchByIdRequest11categoryIdsEv@QtLocation{00010103}[2002ac83].dll  - Undefined Reference
    QtMobility::QGeoPlace::coordinate() const  - Undefined Reference
    _ZNK10QtMobility9QGeoPlace10coordinateEv@QtLocation{00010103}[2002ac83].dll  - Undefined Reference
    QtMobility::QGeoPlace::address() const    - Undefined Reference
    _ZNK10QtMobility9QGeoPlace7addressEv@QtLocation{00010103}[2002ac83].dll  - Undefined Reference
    QtMobility::QLandmark::landmarkId() const  - Undefined Reference
    _ZNK10QtMobility9QLandmark10landmarkIdEv@QtLocation{00010103}[2002ac83].dll  - Undefined Reference
    QtMobility::QLandmark::categoryIds() const  - Undefined Reference
    _ZNK10QtMobility9QLandmark11categoryIdsEv@QtLocation{00010103}[2002ac83].dll  - Undefined Reference
    QtMobility::QLandmark::description() const  - Undefined Reference
    _ZNK10QtMobility9QLandmark11descriptionEv@QtLocation{00010103}[2002ac83].dll  - Undefined Reference
    QtMobility::QLandmark::phoneNumber() const  - Undefined Reference
    _ZNK10QtMobility9QLandmark11phoneNumberEv@QtLocation{00010103}[2002ac83].dll  - Undefined Reference
    QtMobility::QLandmark::url() const        - Undefined Reference
    _ZNK10QtMobility9QLandmark3urlEv@QtLocation{00010103}[2002ac83].dll  - Undefined Reference
    QtMobility::QLandmark::name() const       - Undefined Reference
    _ZNK10QtMobility9QLandmark4nameEv@QtLocation{00010103}[2002ac83].dll  - Undefined Reference
    QtMobility::QLandmark::radius() const     - Undefined Reference
    _ZNK10QtMobility9QLandmark6radiusEv@QtLocation{00010103}[2002ac83].dll  - Undefined Reference
    QtMobility::QLandmark::iconUrl() const    - Undefined Reference
    _ZNK10QtMobility9QLandmark7iconUrlEv@QtLocation{00010103}[2002ac83].dll  - Undefined Reference
    RArrayBase::At(int) const                 - Undefined Reference
    _ZNK10RArrayBase2AtEi@euser{000a0000}[100039e5].dll  - Undefined Reference
    RArrayBase::Count() const                 - Undefined Reference
    _ZNK10RArrayBase5CountEv@euser{000a0000}[100039e5].dll  - Undefined Reference
    TCoordinate::Altitude() const             - Undefined Reference
    _ZNK11TCoordinate8AltitudeEv@lbs{000a0000}[101f97b1].dll  - Undefined Reference
    TCoordinate::Latitude() const             - Undefined Reference
    _ZNK11TCoordinate8LatitudeEv@lbs{000a0000}[101f97b1].dll  - Undefined Reference
    TCoordinate::Longitude() const            - Undefined Reference
    _ZNK11TCoordinate9LongitudeEv@lbs{000a0000}[101f97b1].dll  - Undefined Reference
    CPosLandmark::LandmarkId() const          - Undefined Reference
    _ZNK12CPosLandmark10LandmarkIdEv@eposlandmarks{000a0000}[101fdf8a].dll  - Undefined Reference
    CPosLandmark::GetPosition(TLocality&) const  - Undefined Reference
    _ZNK12CPosLandmark11GetPositionER9TLocality@eposlandmarks{000a0000}[101fdf8a].dll  - Undefined Reference
    CPosLandmark::GetCategoriesL(RArray<unsigned long>&) const  - Undefined Reference
    _ZNK12CPosLandmark14GetCategoriesLER6RArrayImE@eposlandmarks{000a0000}[101fdf8a].dll  - Undefined Reference
    CPosLandmark::GetLandmarkName(TPtrC16&) const  - Undefined Reference
    _ZNK12CPosLandmark15GetLandmarkNameER7TPtrC16@eposlandmarks{000a0000}[101fdf8a].dll  - Undefined Reference
    CPosLandmark::GetPositionField(unsigned short, TPtrC16&) const  - Undefined Reference
    _ZNK12CPosLandmark16GetPositionFieldEtR7TPtrC16@eposlandmarks{000a0000}[101fdf8a].dll  - Undefined Reference
    CPosLandmark::GetCoverageRadius(float&) const  - Undefined Reference
    _ZNK12CPosLandmark17GetCoverageRadiusERf@eposlandmarks{000a0000}[101fdf8a].dll  - Undefined Reference
    CPosLandmark::GetLandmarkDescription(TPtrC16&) const  - Undefined Reference
    _ZNK12CPosLandmark22GetLandmarkDescriptionER7TPtrC16@eposlandmarks{000a0000}[101fdf8a].dll  - Undefined Reference
    CPosLandmark::IsPositionFieldAvailable(unsigned short) const  - Undefined Reference
    _ZNK12CPosLandmark24IsPositionFieldAvailableEt@eposlandmarks{000a0000}[101fdf8a].dll  - Undefined Reference
    CPosLandmark::NumOfAvailablePositionFields() const  - Undefined Reference
    _ZNK12CPosLandmark28NumOfAvailablePositionFieldsEv@eposlandmarks{000a0000}[101fdf8a].dll  - Undefined Reference
    CPosLandmark::GetIcon(TPtrC16&, int&, int&) const  - Undefined Reference
    _ZNK12CPosLandmark7GetIconER7TPtrC16RiS2_@eposlandmarks{000a0000}[101fdf8a].dll  - Undefined Reference
    RApaLsSession::RecognizeData(const RFile&, TDataRecognitionResult&) const  - Undefined Reference
    _ZNK13RApaLsSession13RecognizeDataERK5RFileR22TDataRecognitionResult@apgrfx{000a0000}[10003a3c].dll  - Undefined Reference
    XLeaveException::GetReason() const        - Undefined Reference
    _ZNK15XLeaveException9GetReasonEv@euser{000a0000}[100039e5].dll  - Undefined Reference
    RPointerArrayBase::FindIsqUnsigned(unsigned) const  - Undefined Reference
    _ZNK17RPointerArrayBase15FindIsqUnsignedEj@euser{000a0000}[100039e5].dll  - Undefined Reference
    RPointerArrayBase::At(int) const          - Undefined Reference
    _ZNK17RPointerArrayBase2AtEi@euser{000a0000}[100039e5].dll  - Undefined Reference
    RPointerArrayBase::Count() const          - Undefined Reference
    _ZNK17RPointerArrayBase5CountEv@euser{000a0000}[100039e5].dll  - Undefined Reference
    CPosLandmarkCategory::CategoryId() const  - Undefined Reference
    _ZNK20CPosLandmarkCategory10CategoryIdEv@eposlandmarks{000a0000}[101fdf8a].dll  - Undefined Reference
    CPosLandmarkCategory::GetCategoryName(TPtrC16&) const  - Undefined Reference
    _ZNK20CPosLandmarkCategory15GetCategoryNameER7TPtrC16@eposlandmarks{000a0000}[101fdf8a].dll  - Undefined Reference
    CPosLandmarkCategory::GetIcon(TPtrC16&, int&, int&) const  - Undefined Reference
    _ZNK20CPosLandmarkCategory7GetIconER7TPtrC16RiS2_@eposlandmarks{000a0000}[101fdf8a].dll  - Undefined Reference
    RFs::IsValidName(const TDesC16&) const    - Undefined Reference
    _ZNK3RFs11IsValidNameERK7TDesC16@efsrv{000a0000}[100039e4].dll  - Undefined Reference
    RFs::SessionPath(TDes16&) const           - Undefined Reference
    _ZNK3RFs11SessionPathER6TDes16@efsrv{000a0000}[100039e4].dll  - Undefined Reference
    QUrl::toString(QFlags<QUrl::FormattingOption>) const  - Undefined Reference
    _ZNK4QUrl8toStringE6QFlagsINS_16FormattingOptionEE@QtCore{00040703}[2001b2dc].dll  - Undefined Reference
    QChar::isNumber() const                   - Undefined Reference
    _ZNK5QChar8isNumberEv@QtCore{00040703}[2001b2dc].dll  - Undefined Reference
    QFile::fileName() const                   - Undefined Reference
    _ZNK5QFile8fileNameEv@QtCore{00040703}[2001b2dc].dll  - Undefined Reference
    TDesC8::Ptr() const                       - Undefined Reference
    _ZNK6TDesC83PtrEv@euser{000a0000}[100039e5].dll  - Undefined Reference
    TDesC8::AllocL() const                    - Undefined Reference
    _ZNK6TDesC86AllocLEv@euser{000a0000}[100039e5].dll  - Undefined Reference
    QBuffer::data() const                     - Undefined Reference
    _ZNK7QBuffer4dataEv@QtCore{00040703}[2001b2dc].dll  - Undefined Reference
    QString::toLocal8Bit() const              - Undefined Reference
    _ZNK7QString11toLocal8BitEv@QtCore{00040703}[2001b2dc].dll  - Undefined Reference
    QString::arg(const QString&, int, const QChar&) const  - Undefined Reference
    _ZNK7QString3argERKS_iRK5QChar@QtCore{00040703}[2001b2dc].dll  - Undefined Reference
    QString::arg(long long, int, int, const QChar&) const  - Undefined Reference
    _ZNK7QString3argExiiRK5QChar@QtCore{00040703}[2001b2dc].dll  - Undefined Reference
    QString::utf16() const                    - Undefined Reference
    _ZNK7QString5utf16Ev@QtCore{00040703}[2001b2dc].dll  - Undefined Reference
    QString::toUInt(bool*, int) const         - Undefined Reference
    _ZNK7QString6toUIntEPbi@QtCore{00040703}[2001b2dc].dll  - Undefined Reference
    QString::indexOf(const QString&, int, Qt::CaseSensitivity) const  - Undefined Reference
    _ZNK7QString7indexOfERKS_iN2Qt15CaseSensitivityE@QtCore{00040703}[2001b2dc].dll  - Undefined Reference
    QString::toULong(bool*, int) const        - Undefined Reference
    _ZNK7QString7toULongEPbi@QtCore{00040703}[2001b2dc].dll  - Undefined Reference
    QString::toUShort(bool*, int) const       - Undefined Reference
    _ZNK7QString8toUShortEPbi@QtCore{00040703}[2001b2dc].dll  - Undefined Reference
    QString::operator ==(const QLatin1String&) const  - Undefined Reference
    _ZNK7QStringeqERK13QLatin1String@QtCore{00040703}[2001b2dc].dll  - Undefined Reference
    QString::operator ==(const QString&) const  - Undefined Reference
    _ZNK7QStringeqERKS_@QtCore{00040703}[2001b2dc].dll  - Undefined Reference
    QString::operator <(const QString&) const  - Undefined Reference
    _ZNK7QStringltERKS_@QtCore{00040703}[2001b2dc].dll  - Undefined Reference
    RThread::RequestComplete(TRequestStatus*&, int) const  - Undefined Reference
    _ZNK7RThread15RequestCompleteERP14TRequestStatusi@euser{000a0000}[100039e5].dll  - Undefined Reference
    RThread::Id() const                       - Undefined Reference
    _ZNK7RThread2IdEv@euser{000a0000}[100039e5].dll  - Undefined Reference
    TDesC16::Ptr() const                      - Undefined Reference
    _ZNK7TDesC163PtrEv@euser{000a0000}[100039e5].dll  - Undefined Reference
    TDesC16::Find(const TDesC16&) const       - Undefined Reference
    _ZNK7TDesC164FindERKS_@euser{000a0000}[100039e5].dll  - Undefined Reference
    CBufBase::Read(int, TDes8&, int) const    - Undefined Reference
    _ZNK8CBufBase4ReadEiR5TDes8i@euser{000a0000}[100039e5].dll  - Undefined Reference
    QVariant::toString() const                - Undefined Reference
    _ZNK8QVariant8toStringEv@QtCore{00040703}[2001b2dc].dll  - Undefined Reference
    QIODevice::isWritable() const             - Undefined Reference
    _ZNK9QIODevice10isWritableEv@QtCore{00040703}[2001b2dc].dll  - Undefined Reference
    TDataType::Des8() const                   - Undefined Reference
    _ZNK9TDataType4Des8Ev@apmime{000a0000}[10003a1a].dll  - Undefined Reference
    typeinfo for XLeaveException              - Undefined Reference
    _ZTI15XLeaveException@drtaeabi{000a0000}.dll  - Undefined Reference
    typeinfo for CBase                        - Undefined Reference
    _ZTI5CBase@euser{000a0000}[100039e5].dll  - Undefined Reference
    typeinfo for QFile                        - Undefined Reference
    _ZTI5QFile@QtCore{00040703}[2001b2dc].dll  - Undefined Reference
    typeinfo for CActive                      - Undefined Reference
    _ZTI7CActive@euser{000a0000}[100039e5].dll  - Undefined Reference
    typeinfo for QBuffer                      - Undefined Reference
    _ZTI7QBuffer@QtCore{00040703}[2001b2dc].dll  - Undefined Reference
    typeinfo for QObject                      - Undefined Reference
    _ZTI7QObject@QtCore{00040703}[2001b2dc].dll  - Undefined Reference
    typeinfo for QIODevice                    - Undefined Reference
    _ZTI9QIODevice@QtCore{00040703}[2001b2dc].dll  - Undefined Reference
    typeinfo for QtMobility::QLandmarkManagerEngine  - Undefined Reference
    _ZTIN10QtMobility22QLandmarkManagerEngineE@QtLocation{00010103}[2002ac83].dll  - Undefined Reference
    typeinfo for QtMobility::QLandmarkManagerEngineFactory  - Undefined Reference
    _ZTIN10QtMobility29QLandmarkManagerEngineFactoryE@QtLocation{00010103}[2002ac83].dll  - Undefined Reference
    typeinfo for std::bad_alloc               - Undefined Reference
    _ZTISt9bad_alloc@stdnew{000a0000}[20022178].dll  - Undefined Reference
    vtable for CBase                          - Undefined Reference
    _ZTV5CBase@euser{000a0000}[100039e5].dll  - Undefined Reference
    vtable for QtMobility::QLandmarkNameSort  - Undefined Reference
    _ZTVN10QtMobility17QLandmarkNameSortE@QtLocation{00010103}[2002ac83].dll  - Undefined Reference
    vtable for QtMobility::QLandmarkManagerEngineFactory  - Undefined Reference
    _ZTVN10QtMobility29QLandmarkManagerEngineFactoryE@QtLocation{00010103}[2002ac83].dll  - Undefined Reference
    vtable for __cxxabiv1::__class_type_info  - Undefined Reference
    _ZTVN10__cxxabiv117__class_type_infoE@drtaeabi{000a0000}.dll  - Undefined Reference
    vtable for __cxxabiv1::__si_class_type_info  - Undefined Reference
    _ZTVN10__cxxabiv120__si_class_type_infoE@drtaeabi{000a0000}.dll  - Undefined Reference
    vtable for __cxxabiv1::__vmi_class_type_info  - Undefined Reference
    _ZTVN10__cxxabiv121__vmi_class_type_infoE@drtaeabi{000a0000}.dll  - Undefined Reference
    operator delete (void*)                   - Undefined Reference
    _ZdlPv@stdnew{000a0000}[20022178].dll     - Undefined Reference
    operator new(unsigned)                    - Undefined Reference
    _Znwj@stdnew{000a0000}[20022178].dll      - Undefined Reference
    __aeabi_cdcmple                           - Undefined Reference
    __aeabi_cdcmple@dfpaeabi{000a0000}.dll    - Undefined Reference
    __aeabi_cdrcmple                          - Undefined Reference
    __aeabi_cdrcmple@dfpaeabi{000a0000}.dll   - Undefined Reference
    __aeabi_cfcmple                           - Undefined Reference
    __aeabi_cfcmple@dfpaeabi{000a0000}.dll    - Undefined Reference
    __aeabi_cfrcmple                          - Undefined Reference
    __aeabi_cfrcmple@dfpaeabi{000a0000}.dll   - Undefined Reference
    __aeabi_d2f                               - Undefined Reference
    __aeabi_d2f@dfpaeabi{000a0000}.dll        - Undefined Reference
    __aeabi_dadd                              - Undefined Reference
    __aeabi_dadd@dfpaeabi{000a0000}.dll       - Undefined Reference
    __aeabi_ddiv                              - Undefined Reference
    __aeabi_ddiv@dfpaeabi{000a0000}.dll       - Undefined Reference
    __aeabi_dmul                              - Undefined Reference
    __aeabi_dmul@dfpaeabi{000a0000}.dll       - Undefined Reference
    __aeabi_dsub                              - Undefined Reference
    __aeabi_dsub@dfpaeabi{000a0000}.dll       - Undefined Reference
    __aeabi_f2d                               - Undefined Reference
    __aeabi_f2d@dfpaeabi{000a0000}.dll        - Undefined Reference
    __aeabi_fmul                              - Undefined Reference
    __aeabi_fmul@dfpaeabi{000a0000}.dll       - Undefined Reference
    __aeabi_fsub                              - Undefined Reference
    __aeabi_fsub@dfpaeabi{000a0000}.dll       - Undefined Reference
    __aeabi_memcpy4                           - Undefined Reference
    __aeabi_memcpy4@drtaeabi{000a0000}.dll    - Undefined Reference
    __aeabi_uidivmod                          - Undefined Reference
    __aeabi_uidivmod@drtaeabi{000a0000}.dll   - Undefined Reference
    __aeabi_unwind_cpp_pr0                    - Undefined Reference
    __aeabi_unwind_cpp_pr0@drtaeabi{000a0000}.dll  - Undefined Reference
    __aeabi_unwind_cpp_pr1                    - Undefined Reference
    __aeabi_unwind_cpp_pr1@drtaeabi{000a0000}.dll  - Undefined Reference
    __cxa_begin_catch                         - Undefined Reference
    __cxa_begin_catch@drtaeabi{000a0000}.dll  - Undefined Reference
    __cxa_end_catch                           - Undefined Reference
    __cxa_end_catch@drtaeabi{000a0000}.dll    - Undefined Reference
    __cxa_end_cleanup                         - Undefined Reference
    __cxa_end_cleanup@drtaeabi{000a0000}.dll  - Undefined Reference
    __cxa_guard_abort                         - Undefined Reference
    __cxa_guard_abort@drtaeabi{000a0000}.dll  - Undefined Reference
    __cxa_guard_acquire                       - Undefined Reference
    __cxa_guard_acquire@drtaeabi{000a0000}.dll  - Undefined Reference
    __cxa_guard_release                       - Undefined Reference
    __cxa_guard_release@drtaeabi{000a0000}.dll  - Undefined Reference
    __cxa_pure_virtual                        - Undefined Reference
    __cxa_pure_virtual@drtaeabi{000a0000}.dll  - Undefined Reference
    __cxa_rethrow                             - Undefined Reference
    __cxa_rethrow@drtaeabi{000a0000}.dll      - Undefined Reference
    __dynamic_cast                            - Undefined Reference
    __dynamic_cast@drtaeabi{000a0000}.dll     - Undefined Reference
    asin                                      - Undefined Reference
    asin@libm{00010001}[102750d2].dll         - Undefined Reference
    atan2                                     - Undefined Reference
    atan2@libm{00010001}[102750d2].dll        - Undefined Reference
    cos                                       - Undefined Reference
    cos@libm{00010001}[102750d2].dll          - Undefined Reference
    memmove                                   - Undefined Reference
    memmove@euser{000a0000}[100039e5].dll     - Undefined Reference
    sin                                       - Undefined Reference
    sin@libm{00010001}[102750d2].dll          - Undefined Reference
    strcmp                                    - Undefined Reference
    strcmp@libc{00010001}[10207369].dll       - Undefined Reference
    Image$$ER_RO$$Base                       0x00008000   Number         0  anon$$obj.o(linker$$defined$$symbols)
    _E32Dll                                  0x00008000   ARM Code      40  uc_dll_.o(.emb_text)
    Symbian$$CPP$$Exception$$Descriptor      0x00008014   Data           0  uc_dll_.o(.emb_text)
    __cpp_initialize__aeabi_                 0x00008028   ARM Code      52  ucppinit.o(.emb_text)
    std::nothrow                             0x0000805c   ARM Code       0  ucppinit.o(.emb_text)
    __PLT                                    0x0000805c   ARM Code       0  anon$$obj.o(.plt)
    QLandmarkManagerEngineFactorySymbian::getStaticMetaObject() 0x00008e55   Thumb Code     4  moc_qlandmarkmanagerenginefactory_symbian.o(.text)
    QLandmarkManagerEngineFactorySymbian::metaObject() const 0x00008e59   Thumb Code    28  moc_qlandmarkmanagerenginefactory_symbian.o(.text)
    QLandmarkManagerEngineFactorySymbian::qt_metacast(const char*) 0x00008e75   Thumb Code    76  moc_qlandmarkmanagerenginefactory_symbian.o(.text)
    QLandmarkManagerEngineFactorySymbian::qt_metacall(QMetaObject::Call, int, void**) 0x00008ec1   Thumb Code    36  moc_qlandmarkmanagerenginefactory_symbian.o(.text)
    QLandmarkManagerEngineSymbian::getStaticMetaObject() 0x00008f41   Thumb Code     4  moc_qlandmarkmanagerengine_symbian.o(.text)
    QLandmarkManagerEngineSymbian::metaObject() const 0x00008f45   Thumb Code    28  moc_qlandmarkmanagerengine_symbian.o(.text)
    QLandmarkManagerEngineSymbian::qt_metacast(const char*) 0x00008f61   Thumb Code    58  moc_qlandmarkmanagerengine_symbian.o(.text)
    QLandmarkManagerEngineSymbian::qt_metacall(QMetaObject::Call, int, void**) 0x00008f9b   Thumb Code    36  moc_qlandmarkmanagerengine_symbian.o(.text)
    qt_plugin_query_verification_data        0x00008fe1   Thumb Code     4  qlandmarkmanagerenginefactory_symbian.o(.text)
    QLandmarkManagerEngineFactorySymbian::QLandmarkManagerEngineFactorySymbian() 0x00008fe5   Thumb Code    28  qlandmarkmanagerenginefactory_symbian.o(.text)
    QLandmarkManagerEngineFactorySymbian::QLandmarkManagerEngineFactorySymbian__sub_object() 0x00008fe5   Thumb Code     0  qlandmarkmanagerenginefactory_symbian.o(.text)
    qt_plugin_instance                       0x00009001   Thumb Code   120  qlandmarkmanagerenginefactory_symbian.o(.text)
    QLandmarkManagerEngineFactorySymbian::~QLandmarkManagerEngineFactorySymbian() 0x00009079   Thumb Code    26  qlandmarkmanagerenginefactory_symbian.o(.text)
    QLandmarkManagerEngineFactorySymbian::~QLandmarkManagerEngineFactorySymbian__sub_object() 0x00009079   Thumb Code     0  qlandmarkmanagerenginefactory_symbian.o(.text)
    QLandmarkManagerEngineFactorySymbian::~QLandmarkManagerEngineFactorySymbian__deallocating() 0x00009093   Thumb Code    22  qlandmarkmanagerenginefactory_symbian.o(.text)
    thunk{-8} to QLandmarkManagerEngineFactorySymbian::~QLandmarkManagerEngineFactorySymbian__deallocating() 0x000090a9   Thumb Code    14  qlandmarkmanagerenginefactory_symbian.o(.text)
    thunk{-8} to QLandmarkManagerEngineFactorySymbian::~QLandmarkManagerEngineFactorySymbian() 0x000090b7   Thumb Code    14  qlandmarkmanagerenginefactory_symbian.o(.text)
    QLandmarkManagerEngineFactorySymbian::supportedImplementationVersions() const 0x000090c5   Thumb Code    36  qlandmarkmanagerenginefactory_symbian.o(.text)
    thunk{-8} to QLandmarkManagerEngineFactorySymbian::supportedImplementationVersions() const 0x000090e9   Thumb Code    18  qlandmarkmanagerenginefactory_symbian.o(.text)
    QLandmarkManagerEngineFactorySymbian::engine(const QMap<QString, QString>&, QtMobility::QLandmarkManager::Error*, QString*) 0x000090fb   Thumb Code   614  qlandmarkmanagerenginefactory_symbian.o(.text)
    thunk{-8} to QLandmarkManagerEngineFactorySymbian::engine(const QMap<QString, QString>&, QtMobility::QLandmarkManager::Error*, QString*) 0x00009361   Thumb Code    26  qlandmarkmanagerenginefactory_symbian.o(.text)
    QLandmarkManagerEngineFactorySymbian::managerName() const 0x0000937b   Thumb Code   162  qlandmarkmanagerenginefactory_symbian.o(.text)
    thunk{-8} to QLandmarkManagerEngineFactorySymbian::managerName() const 0x0000941d   Thumb Code    18  qlandmarkmanagerenginefactory_symbian.o(.text)
    QLandmarkManagerEngineSymbian::QLandmarkManagerEngineSymbian(const QString&) 0x00009431   Thumb Code    56  qlandmarkmanagerengine_symbian.o(.text)
    QLandmarkManagerEngineSymbian::QLandmarkManagerEngineSymbian__sub_object(const QString&) 0x00009431   Thumb Code     0  qlandmarkmanagerengine_symbian.o(.text)
    QLandmarkManagerEngineSymbian::~QLandmarkManagerEngineSymbian() 0x00009469   Thumb Code    44  qlandmarkmanagerengine_symbian.o(.text)
    QLandmarkManagerEngineSymbian::~QLandmarkManagerEngineSymbian__sub_object() 0x00009469   Thumb Code     0  qlandmarkmanagerengine_symbian.o(.text)
    QLandmarkManagerEngineSymbian::~QLandmarkManagerEngineSymbian__deallocating() 0x00009495   Thumb Code    22  qlandmarkmanagerengine_symbian.o(.text)
    QLandmarkManagerEngineSymbian::managerName() const 0x000094ab   Thumb Code    16  qlandmarkmanagerengine_symbian.o(.text)
    QLandmarkManagerEngineSymbian::managerParameters() const 0x000094bb   Thumb Code    16  qlandmarkmanagerengine_symbian.o(.text)
    QLandmarkManagerEngineSymbian::managerVersion() const 0x000094cb   Thumb Code    12  qlandmarkmanagerengine_symbian.o(.text)
    QLandmarkManagerEngineSymbian::managerUri() const 0x000094d7   Thumb Code    16  qlandmarkmanagerengine_symbian.o(.text)
    QLandmarkManagerEngineSymbian::landmarkIds(const QtMobility::QLandmarkFilter&, int, int, const QList<QtMobility::QLandmarkSortOrder>&, QtMobility::QLandmarkManager::Error*, QString*) const 0x000094e7   Thumb Code    34  qlandmarkmanagerengine_symbian.o(.text)
    QLandmarkManagerEngineSymbian::categoryIds(int, int, const QtMobility::QLandmarkNameSort&, QtMobility::QLandmarkManager::Error*, QString*) const 0x00009509   Thumb Code    32  qlandmarkmanagerengine_symbian.o(.text)
    QLandmarkManagerEngineSymbian::landmark(const QtMobility::QLandmarkId&, QtMobility::QLandmarkManager::Error*, QString*) const 0x00009529   Thumb Code    30  qlandmarkmanagerengine_symbian.o(.text)
    QLandmarkManagerEngineSymbian::landmarks(const QList<QtMobility::QLandmarkId>&, QMap<int, QtMobility::QLandmarkManager::Error>*, QtMobility::QLandmarkManager::Error*, QString*) const 0x00009547   Thumb Code    34  qlandmarkmanagerengine_symbian.o(.text)
    QLandmarkManagerEngineSymbian::landmarks(const QtMobility::QLandmarkFilter&, int, int, const QList<QtMobility::QLandmarkSortOrder>&, QtMobility::QLandmarkManager::Error*, QString*) const 0x00009569   Thumb Code    34  qlandmarkmanagerengine_symbian.o(.text)
    QLandmarkManagerEngineSymbian::category(const QtMobility::QLandmarkCategoryId&, QtMobility::QLandmarkManager::Error*, QString*) const 0x0000958b   Thumb Code    30  qlandmarkmanagerengine_symbian.o(.text)
    QLandmarkManagerEngineSymbian::categories(const QList<QtMobility::QLandmarkCategoryId>&, QMap<int, QtMobility::QLandmarkManager::Error>*, QtMobility::QLandmarkManager::Error*, QString*) const 0x000095a9   Thumb Code    34  qlandmarkmanagerengine_symbian.o(.text)
    QLandmarkManagerEngineSymbian::categories(int, int, const QtMobility::QLandmarkNameSort&, QtMobility::QLandmarkManager::Error*, QString*) const 0x000095cb   Thumb Code    32  qlandmarkmanagerengine_symbian.o(.text)
    QLandmarkManagerEngineSymbian::saveLandmark(QtMobility::QLandmark*, QtMobility::QLandmarkManager::Error*, QString*) 0x000095eb   Thumb Code    24  qlandmarkmanagerengine_symbian.o(.text)
    QLandmarkManagerEngineSymbian::saveLandmarks(QList<QtMobility::QLandmark>*, QMap<int, QtMobility::QLandmarkManager::Error>*, QtMobility::QLandmarkManager::Error*, QString*) 0x00009603   Thumb Code    32  qlandmarkmanagerengine_symbian.o(.text)
    QLandmarkManagerEngineSymbian::removeLandmark(const QtMobility::QLandmarkId&, QtMobility::QLandmarkManager::Error*, QString*) 0x00009623   Thumb Code    24  qlandmarkmanagerengine_symbian.o(.text)
    QLandmarkManagerEngineSymbian::removeLandmarks(const QList<QtMobility::QLandmarkId>&, QMap<int, QtMobility::QLandmarkManager::Error>*, QtMobility::QLandmarkManager::Error*, QString*) 0x0000963b   Thumb Code    32  qlandmarkmanagerengine_symbian.o(.text)
    QLandmarkManagerEngineSymbian::saveCategory(QtMobility::QLandmarkCategory*, QtMobility::QLandmarkManager::Error*, QString*) 0x0000965b   Thumb Code    24  qlandmarkmanagerengine_symbian.o(.text)
    QLandmarkManagerEngineSymbian::removeCategory(const QtMobility::QLandmarkCategoryId&, QtMobility::QLandmarkManager::Error*, QString*) 0x00009673   Thumb Code    24  qlandmarkmanagerengine_symbian.o(.text)
    QLandmarkManagerEngineSymbian::importLandmarks(QIODevice*, const QString&, QtMobility::QLandmarkManager::TransferOption, const QtMobility::QLandmarkCategoryId&, QtMobility::QLandmarkManager::Error*, QString*) 0x0000968b   Thumb Code    32  qlandmarkmanagerengine_symbian.o(.text)
    QLandmarkManagerEngineSymbian::exportLandmarks(QIODevice*, const QString&, const QList<QtMobility::QLandmarkId>&, QtMobility::QLandmarkManager::TransferOption, QtMobility::QLandmarkManager::Error*, QString*) const 0x000096ab   Thumb Code    32  qlandmarkmanagerengine_symbian.o(.text)
    QLandmarkManagerEngineSymbian::supportedFormats(QtMobility::QLandmarkManager::TransferOperation, QtMobility::QLandmarkManager::Error*, QString*) const 0x000096cb   Thumb Code    30  qlandmarkmanagerengine_symbian.o(.text)
    QLandmarkManagerEngineSymbian::filterSupportLevel(const QtMobility::QLandmarkFilter&, QtMobility::QLandmarkManager::Error*, QString*) const 0x000096e9   Thumb Code    24  qlandmarkmanagerengine_symbian.o(.text)
    QLandmarkManagerEngineSymbian::sortOrderSupportLevel(const QtMobility::QLandmarkSortOrder&, QtMobility::QLandmarkManager::Error*, QString*) const 0x00009701   Thumb Code    24  qlandmarkmanagerengine_symbian.o(.text)
    QLandmarkManagerEngineSymbian::isFeatureSupported(QtMobility::QLandmarkManager::ManagerFeature, QtMobility::QLandmarkManager::Error*, QString*) const 0x00009719   Thumb Code    24  qlandmarkmanagerengine_symbian.o(.text)
    QLandmarkManagerEngineSymbian::isReadOnly(QtMobility::QLandmarkManager::Error*, QString*) const 0x00009731   Thumb Code    20  qlandmarkmanagerengine_symbian.o(.text)
    QLandmarkManagerEngineSymbian::isReadOnly(const QtMobility::QLandmarkId&, QtMobility::QLandmarkManager::Error*, QString*) const 0x00009745   Thumb Code    24  qlandmarkmanagerengine_symbian.o(.text)
    QLandmarkManagerEngineSymbian::isReadOnly(const QtMobility::QLandmarkCategoryId&, QtMobility::QLandmarkManager::Error*, QString*) const 0x0000975d   Thumb Code    24  qlandmarkmanagerengine_symbian.o(.text)
    QLandmarkManagerEngineSymbian::requestDestroyed(QtMobility::QLandmarkAbstractRequest*) 0x00009775   Thumb Code    16  qlandmarkmanagerengine_symbian.o(.text)
    QLandmarkManagerEngineSymbian::startRequest(QtMobility::QLandmarkAbstractRequest*) 0x00009785   Thumb Code    16  qlandmarkmanagerengine_symbian.o(.text)
    QLandmarkManagerEngineSymbian::cancelRequest(QtMobility::QLandmarkAbstractRequest*) 0x00009795   Thumb Code    16  qlandmarkmanagerengine_symbian.o(.text)
    QLandmarkManagerEngineSymbian::waitForRequestFinished(QtMobility::QLandmarkAbstractRequest*, int) 0x000097a5   Thumb Code    20  qlandmarkmanagerengine_symbian.o(.text)
    QLandmarkManagerEngineSymbian::landmarkAttributeKeys(QtMobility::QLandmarkManager::Error*, QString*) const 0x000097b9   Thumb Code    48  qlandmarkmanagerengine_symbian.o(.text)
    QLandmarkManagerEngineSymbian::categoryAttributeKeys(QtMobility::QLandmarkManager::Error*, QString*) const 0x000097e9   Thumb Code    34  qlandmarkmanagerengine_symbian.o(.text)
    QLandmarkManagerEngineSymbian::searchableLandmarkAttributeKeys(QtMobility::QLandmarkManager::Error*, QString*) const 0x0000980b   Thumb Code    34  qlandmarkmanagerengine_symbian.o(.text)
    QLandmarkManagerEngineSymbian::updateLandmarkIdFetchRequest(QtMobility::QLandmarkIdFetchRequest*, const QList<QtMobility::QLandmarkId>&, QtMobility::QLandmarkManager::Error, const QString&, QtMobility::QLandmarkAbstractRequest::State) 0x0000982d   Thumb Code    30  qlandmarkmanagerengine_symbian.o(.text)
    QLandmarkManagerEngineSymbian::updateLandmarkFetchRequest(QtMobility::QLandmarkFetchRequest*, const QList<QtMobility::QLandmark>&, QtMobility::QLandmarkManager::Error, const QString&, QtMobility::QLandmarkAbstractRequest::State) 0x0000984b   Thumb Code    30  qlandmarkmanagerengine_symbian.o(.text)
    QLandmarkManagerEngineSymbian::updateLandmarkSaveRequest(QtMobility::QLandmarkSaveRequest*, const QList<QtMobility::QLandmark>&, QtMobility::QLandmarkManager::Error, const QString&, const QMap<int, QtMobility::QLandmarkManager::Error>&, QtMobility::QLandmarkAbstractRequest::State) 0x00009869   Thumb Code    32  qlandmarkmanagerengine_symbian.o(.text)
    QLandmarkManagerEngineSymbian::updateLandmarkRemoveRequest(QtMobility::QLandmarkRemoveRequest*, QtMobility::QLandmarkManager::Error, const QString&, const QMap<int, QtMobility::QLandmarkManager::Error>&, QtMobility::QLandmarkAbstractRequest::State) 0x00009889   Thumb Code    30  qlandmarkmanagerengine_symbian.o(.text)
    QLandmarkManagerEngineSymbian::updateLandmarkCategoryIdFetchRequest(QtMobility::QLandmarkCategoryIdFetchRequest*, const QList<QtMobility::QLandmarkCategoryId>&, QtMobility::QLandmarkManager::Error, const QString&, QtMobility::QLandmarkAbstractRequest::State) 0x000098a7   Thumb Code    30  qlandmarkmanagerengine_symbian.o(.text)
    QLandmarkManagerEngineSymbian::updateLandmarkCategoryFetchRequest(QtMobility::QLandmarkCategoryFetchRequest*, const QList<QtMobility::QLandmarkCategory>&, QtMobility::QLandmarkManager::Error, const QString&, QtMobility::QLandmarkAbstractRequest::State) 0x000098c5   Thumb Code    30  qlandmarkmanagerengine_symbian.o(.text)
    QLandmarkManagerEngineSymbian::updateLandmarkCategorySaveRequest(QtMobility::QLandmarkCategorySaveRequest*, const QList<QtMobility::QLandmarkCategory>&, QtMobility::QLandmarkManager::Error, const QString&, const QMap<int, QtMobility::QLandmarkManager::Error>&, QtMobility::QLandmarkAbstractRequest::State) 0x000098e3   Thumb Code    32  qlandmarkmanagerengine_symbian.o(.text)
    QLandmarkManagerEngineSymbian::updateLandmarkCategoryRemoveRequest(QtMobility::QLandmarkCategoryRemoveRequest*, QtMobility::QLandmarkManager::Error, const QString&, const QMap<int, QtMobility::QLandmarkManager::Error>&, QtMobility::QLandmarkAbstractRequest::State) 0x00009903   Thumb Code    30  qlandmarkmanagerengine_symbian.o(.text)
    QLandmarkManagerEngineSymbian::updateLandmarkFetchByIdRequest(QtMobility::QLandmarkFetchByIdRequest*, const QList<QtMobility::QLandmark>&, QtMobility::QLandmarkManager::Error, const QString&, const QMap<int, QtMobility::QLandmarkManager::Error>&, QtMobility::QLandmarkAbstractRequest::State) 0x00009921   Thumb Code    32  qlandmarkmanagerengine_symbian.o(.text)
    QLandmarkManagerEngineSymbian::updateLandmarkCategoryFetchByIdRequest(QtMobility::QLandmarkCategoryFetchByIdRequest*, const QList<QtMobility::QLandmarkCategory>&, QtMobility::QLandmarkManager::Error, const QString&, const QMap<int, QtMobility::QLandmarkManager::Error>&, QtMobility::QLandmarkAbstractRequest::State) 0x00009941   Thumb Code    32  qlandmarkmanagerengine_symbian.o(.text)
    QLandmarkManagerEngineSymbian::updateLandmarkImportRequest(QtMobility::QLandmarkImportRequest*, const QList<QtMobility::QLandmarkId>&, QtMobility::QLandmarkManager::Error, const QString&, QtMobility::QLandmarkAbstractRequest::State) 0x00009961   Thumb Code    30  qlandmarkmanagerengine_symbian.o(.text)
    QLandmarkManagerEngineSymbian::updateLandmarkExportRequest(QtMobility::QLandmarkExportRequest*, QtMobility::QLandmarkManager::Error, const QString&, QtMobility::QLandmarkAbstractRequest::State) 0x0000997f   Thumb Code    24  qlandmarkmanagerengine_symbian.o(.text)
    QLandmarkManagerEngineSymbian::updateRequestState(QtMobility::QLandmarkAbstractRequest*, QtMobility::QLandmarkAbstractRequest::State) 0x00009997   Thumb Code    16  qlandmarkmanagerengine_symbian.o(.text)
    QLandmarkManagerEngineSymbian::sortLandmarks(const QList<QtMobility::QLandmark>&, QList<QtMobility::QLandmarkSortOrder>&) 0x000099a7   Thumb Code    20  qlandmarkmanagerengine_symbian.o(.text)
    QLandmarkManagerEngineSymbian::handleLandmarkEvent(LandmarkEventObserver::lmEvent, QList<QtMobility::QLandmarkId>, QList<QtMobility::QLandmarkCategoryId>) 0x000099bb   Thumb Code    96  qlandmarkmanagerengine_symbian.o(.text)
    thunk{-8} to QLandmarkManagerEngineSymbian::handleLandmarkEvent(LandmarkEventObserver::lmEvent, QList<QtMobility::QLandmarkId>, QList<QtMobility::QLandmarkCategoryId>) 0x00009a1b   Thumb Code    26  qlandmarkmanagerengine_symbian.o(.text)
    compareDistance(const QtMobility::QGeoCoordinate&, const QtMobility::QGeoCoordinate&, const QtMobility::QGeoCoordinate&) 0x00009af3   Thumb Code   120  qlandmarkmanagerengine_symbian_p.o(.text)
    addSortedPoint(QList<QtMobility::QLandmark>*, const QtMobility::QLandmark&, const QtMobility::QGeoCoordinate&) 0x00009b6b   Thumb Code   192  qlandmarkmanagerengine_symbian_p.o(.text)
    normalizeLongitude(double)               0x00009c2b   Thumb Code    84  qlandmarkmanagerengine_symbian_p.o(.text)
    normalizeLatitude(double)                0x00009c7f   Thumb Code    68  qlandmarkmanagerengine_symbian_p.o(.text)
    shiftCoordinate(QtMobility::QGeoCoordinate*, double, double) 0x00009cc3   Thumb Code   604  qlandmarkmanagerengine_symbian_p.o(.text)
    QtMobility::qHash(const QtMobility::QLandmarkId&) 0x00009f1f   Thumb Code    32  qlandmarkmanagerengine_symbian_p.o(.text)
    LandmarkManagerEngineSymbianPrivate::LandmarkManagerEngineSymbianPrivate(LandmarkEventObserver&, const QString&) 0x00009f3f   Thumb Code   314  qlandmarkmanagerengine_symbian_p.o(.text)
    LandmarkManagerEngineSymbianPrivate::LandmarkManagerEngineSymbianPrivate__sub_object(LandmarkEventObserver&, const QString&) 0x00009f3f   Thumb Code     0  qlandmarkmanagerengine_symbian_p.o(.text)
    LandmarkManagerEngineSymbianPrivate::~LandmarkManagerEngineSymbianPrivate() 0x0000a079   Thumb Code   158  qlandmarkmanagerengine_symbian_p.o(.text)
    LandmarkManagerEngineSymbianPrivate::~LandmarkManagerEngineSymbianPrivate__sub_object() 0x0000a079   Thumb Code     0  qlandmarkmanagerengine_symbian_p.o(.text)
    LandmarkManagerEngineSymbianPrivate::managerName() const 0x0000a117   Thumb Code    18  qlandmarkmanagerengine_symbian_p.o(.text)
    LandmarkManagerEngineSymbianPrivate::managerParameters() const 0x0000a129   Thumb Code   146  qlandmarkmanagerengine_symbian_p.o(.text)
    LandmarkManagerEngineSymbianPrivate::managerVersion() const 0x0000a1bb   Thumb Code     6  qlandmarkmanagerengine_symbian_p.o(.text)
    LandmarkManagerEngineSymbianPrivate::managerUri() const 0x0000a1c1   Thumb Code    56  qlandmarkmanagerengine_symbian_p.o(.text)
    LandmarkManagerEngineSymbianPrivate::handleSymbianError(int, QtMobility::QLandmarkManager::Error*, QString*) const 0x0000a1f9   Thumb Code   900  qlandmarkmanagerengine_symbian_p.o(.text)
    LandmarkManagerEngineSymbianPrivate::fetchLandmarkL(const QtMobility::QLandmarkId&, QtMobility::QLandmarkManager::Error*, QString*) const 0x0000a57d   Thumb Code   246  qlandmarkmanagerengine_symbian_p.o(.text)
    LandmarkManagerEngineSymbianPrivate::landmark(const QtMobility::QLandmarkId&, QtMobility::QLandmarkManager::Error*, QString*) const 0x0000a673   Thumb Code   234  qlandmarkmanagerengine_symbian_p.o(.text)
    LandmarkManagerEngineSymbianPrivate::sortFetchedLmIds(int, int, QList<QtMobility::QLandmarkSortOrder>, QList<QtMobility::QLandmarkId>&, QtMobility::QLandmarkFilter::FilterType, QtMobility::QLandmarkManager::Error*, QString*) const 0x0000a75d   Thumb Code   624  qlandmarkmanagerengine_symbian_p.o(.text)
    LandmarkManagerEngineSymbianPrivate::landmarks(const QList<QtMobility::QLandmarkId>&, QMap<int, QtMobility::QLandmarkManager::Error>*, QtMobility::QLandmarkManager::Error*, QString*) const 0x0000a9cd   Thumb Code   260  qlandmarkmanagerengine_symbian_p.o(.text)
    LandmarkManagerEngineSymbianPrivate::getOperationL(CPosLandmarkSearch*, CPosLmSearchCriteria*, QtMobility::QLandmarkSortOrder, int) const 0x0000aad1   Thumb Code   174  qlandmarkmanagerengine_symbian_p.o(.text)
    LandmarkManagerEngineSymbianPrivate::getSearchCriteriaL(QtMobility::QLandmarkFilter) const 0x0000ab7f   Thumb Code  5544  qlandmarkmanagerengine_symbian_p.o(.text)
    LandmarkManagerEngineSymbianPrivate::searchWithFilterL(QtMobility::QLandmarkFilter, QtMobility::QLandmarkSortOrder, int) const 0x0000c127   Thumb Code   170  qlandmarkmanagerengine_symbian_p.o(.text)
    LandmarkManagerEngineSymbianPrivate::landmarkIds(const QtMobility::QLandmarkFilter&, int, int, const QList<QtMobility::QLandmarkSortOrder>&, QtMobility::QLandmarkManager::Error*, QString*) const 0x0000c1d1   Thumb Code  2578  qlandmarkmanagerengine_symbian_p.o(.text)
    LandmarkManagerEngineSymbianPrivate::fetchCategoryIdsL(const QtMobility::QLandmarkNameSort&, QtMobility::QLandmarkManager::Error*, QString*) const 0x0000cbe3   Thumb Code   222  qlandmarkmanagerengine_symbian_p.o(.text)
    LandmarkManagerEngineSymbianPrivate::categoryIds(int, int, const QtMobility::QLandmarkNameSort&, QtMobility::QLandmarkManager::Error*, QString*) const 0x0000ccc1   Thumb Code   208  qlandmarkmanagerengine_symbian_p.o(.text)
    LandmarkManagerEngineSymbianPrivate::landmarks(const QtMobility::QLandmarkFilter&, int, int, const QList<QtMobility::QLandmarkSortOrder>&, QtMobility::QLandmarkManager::Error*, QString*) const 0x0000cd91   Thumb Code   340  qlandmarkmanagerengine_symbian_p.o(.text)
    LandmarkManagerEngineSymbianPrivate::fetchCategoryL(const QtMobility::QLandmarkCategoryId&, QtMobility::QLandmarkManager::Error*, QString*) const 0x0000cee5   Thumb Code   274  qlandmarkmanagerengine_symbian_p.o(.text)
    LandmarkManagerEngineSymbianPrivate::category(const QtMobility::QLandmarkCategoryId&, QtMobility::QLandmarkManager::Error*, QString*) const 0x0000cff7   Thumb Code   234  qlandmarkmanagerengine_symbian_p.o(.text)
    LandmarkManagerEngineSymbianPrivate::categories(const QList<QtMobility::QLandmarkCategoryId>&, QMap<int, QtMobility::QLandmarkManager::Error>*, QtMobility::QLandmarkManager::Error*, QString*) const 0x0000d0e1   Thumb Code   254  qlandmarkmanagerengine_symbian_p.o(.text)
    LandmarkManagerEngineSymbianPrivate::categories(int, int, const QtMobility::QLandmarkNameSort&, QtMobility::QLandmarkManager::Error*, QString*) const 0x0000d1df   Thumb Code   498  qlandmarkmanagerengine_symbian_p.o(.text)
    LandmarkManagerEngineSymbianPrivate::saveLandmarkInternalL(QtMobility::QLandmark*, QtMobility::QLandmarkManager::Error*, QString*, bool*, bool*) 0x0000d3d1   Thumb Code   986  qlandmarkmanagerengine_symbian_p.o(.text)
    LandmarkManagerEngineSymbianPrivate::saveLandmark(QtMobility::QLandmark*, QtMobility::QLandmarkManager::Error*, QString*) 0x0000d7ab   Thumb Code   432  qlandmarkmanagerengine_symbian_p.o(.text)
    LandmarkManagerEngineSymbianPrivate::saveLandmarks(QList<QtMobility::QLandmark>*, QMap<int, QtMobility::QLandmarkManager::Error>*, QtMobility::QLandmarkManager::Error*, QString*) 0x0000d95b   Thumb Code   572  qlandmarkmanagerengine_symbian_p.o(.text)
    LandmarkManagerEngineSymbianPrivate::removeLandmarkInternalL(const QtMobility::QLandmarkId&, QtMobility::QLandmarkManager::Error*, QString*, bool*) 0x0000db97   Thumb Code   378  qlandmarkmanagerengine_symbian_p.o(.text)
    LandmarkManagerEngineSymbianPrivate::removeLandmark(const QtMobility::QLandmarkId&, QtMobility::QLandmarkManager::Error*, QString*) 0x0000dd11   Thumb Code   246  qlandmarkmanagerengine_symbian_p.o(.text)
    LandmarkManagerEngineSymbianPrivate::removeLandmarks(const QList<QtMobility::QLandmarkId>&, QMap<int, QtMobility::QLandmarkManager::Error>*, QtMobility::QLandmarkManager::Error*, QString*) 0x0000de07   Thumb Code   432  qlandmarkmanagerengine_symbian_p.o(.text)
    LandmarkManagerEngineSymbianPrivate::saveCategoryInternalL(QtMobility::QLandmarkCategory*, QtMobility::QLandmarkManager::Error*, QString*, bool*, bool*) 0x0000dfb7   Thumb Code  1000  qlandmarkmanagerengine_symbian_p.o(.text)
    LandmarkManagerEngineSymbianPrivate::saveCategory(QtMobility::QLandmarkCategory*, QtMobility::QLandmarkManager::Error*, QString*) 0x0000e39f   Thumb Code   314  qlandmarkmanagerengine_symbian_p.o(.text)
    LandmarkManagerEngineSymbianPrivate::removeCategoryInternalL(const QtMobility::QLandmarkCategoryId&, QtMobility::QLandmarkManager::Error*, QString*, bool*) 0x0000e4d9   Thumb Code   528  qlandmarkmanagerengine_symbian_p.o(.text)
    LandmarkManagerEngineSymbianPrivate::removeCategory(const QtMobility::QLandmarkCategoryId&, QtMobility::QLandmarkManager::Error*, QString*) 0x0000e6e9   Thumb Code   246  qlandmarkmanagerengine_symbian_p.o(.text)
    LandmarkManagerEngineSymbianPrivate::importLandmarksL(QIODevice*, const QString&, QtMobility::QLandmarkManager::TransferOption, const QtMobility::QLandmarkCategoryId&) const 0x0000e7df   Thumb Code  1398  qlandmarkmanagerengine_symbian_p.o(.text)
    LandmarkManagerEngineSymbianPrivate::importLandmarks(QIODevice*, const QString&, QtMobility::QLandmarkManager::TransferOption, const QtMobility::QLandmarkCategoryId&, QtMobility::QLandmarkManager::Error*, QString*) 0x0000ed55   Thumb Code   210  qlandmarkmanagerengine_symbian_p.o(.text)
    LandmarkManagerEngineSymbianPrivate::supportedFormats(QtMobility::QLandmarkManager::TransferOperation, QtMobility::QLandmarkManager::Error*, QString*) const 0x0000ee27   Thumb Code   272  qlandmarkmanagerengine_symbian_p.o(.text)
    LandmarkManagerEngineSymbianPrivate::exportLandmarksL(QIODevice*, const QString&, const QList<QtMobility::QLandmarkId>&, QtMobility::QLandmarkManager::TransferOption) const 0x0000ef37   Thumb Code  1110  qlandmarkmanagerengine_symbian_p.o(.text)
    LandmarkManagerEngineSymbianPrivate::exportLandmarks(QIODevice*, const QString&, const QList<QtMobility::QLandmarkId>&, QtMobility::QLandmarkManager::TransferOption, QtMobility::QLandmarkManager::Error*, QString*) const 0x0000f38d   Thumb Code   474  qlandmarkmanagerengine_symbian_p.o(.text)
    LandmarkManagerEngineSymbianPrivate::filterSupportLevel(const QtMobility::QLandmarkFilter&, QtMobility::QLandmarkManager::Error*, QString*) const 0x0000f567   Thumb Code   550  qlandmarkmanagerengine_symbian_p.o(.text)
    LandmarkManagerEngineSymbianPrivate::sortOrderSupportLevel(const QtMobility::QLandmarkSortOrder&, QtMobility::QLandmarkManager::Error*, QString*) const 0x0000f78d   Thumb Code    86  qlandmarkmanagerengine_symbian_p.o(.text)
    LandmarkManagerEngineSymbianPrivate::isFeatureSupported(QtMobility::QLandmarkManager::ManagerFeature, QtMobility::QLandmarkManager::Error*, QString*) const 0x0000f7e3   Thumb Code    58  qlandmarkmanagerengine_symbian_p.o(.text)
    LandmarkManagerEngineSymbianPrivate::isReadOnly(QtMobility::QLandmarkManager::Error*, QString*) const 0x0000f81d   Thumb Code    28  qlandmarkmanagerengine_symbian_p.o(.text)
    LandmarkManagerEngineSymbianPrivate::isReadOnly(const QtMobility::QLandmarkId&, QtMobility::QLandmarkManager::Error*, QString*) const 0x0000f839   Thumb Code    30  qlandmarkmanagerengine_symbian_p.o(.text)
    LandmarkManagerEngineSymbianPrivate::isReadOnly(const QtMobility::QLandmarkCategoryId&, QtMobility::QLandmarkManager::Error*, QString*) const 0x0000f857   Thumb Code   162  qlandmarkmanagerengine_symbian_p.o(.text)
    LandmarkManagerEngineSymbianPrivate::requestDestroyed(QtMobility::QLandmarkAbstractRequest*) 0x0000f8f9   Thumb Code    16  qlandmarkmanagerengine_symbian_p.o(.text)
    LandmarkManagerEngineSymbianPrivate::startRequestL(QtMobility::QLandmarkAbstractRequest*) 0x0000f909   Thumb Code  3996  qlandmarkmanagerengine_symbian_p.o(.text)
    LandmarkManagerEngineSymbianPrivate::startRequest(QtMobility::QLandmarkAbstractRequest*) 0x000108a5   Thumb Code   766  qlandmarkmanagerengine_symbian_p.o(.text)
    LandmarkManagerEngineSymbianPrivate::cancelRequest(QtMobility::QLandmarkAbstractRequest*) 0x00010ba3   Thumb Code    46  qlandmarkmanagerengine_symbian_p.o(.text)
    LandmarkManagerEngineSymbianPrivate::waitForRequestFinished(QtMobility::QLandmarkAbstractRequest*, int) 0x00010bd1   Thumb Code    70  qlandmarkmanagerengine_symbian_p.o(.text)
    LandmarkManagerEngineSymbianPrivate::HandleExecutionL(CLandmarkRequestData*, TRequestStatus&) 0x00010c17   Thumb Code  3870  qlandmarkmanagerengine_symbian_p.o(.text)
    LandmarkManagerEngineSymbianPrivate::HandleCompletionL(CLandmarkRequestData*) 0x00011b35   Thumb Code  4028  qlandmarkmanagerengine_symbian_p.o(.text)
    LandmarkManagerEngineSymbianPrivate::handleDatabaseEvent(const TPosLmEvent&) 0x00012af1   Thumb Code  1436  qlandmarkmanagerengine_symbian_p.o(.text)
    thunk{-4} to LandmarkManagerEngineSymbianPrivate::handleDatabaseEvent(const TPosLmEvent&) 0x0001308d   Thumb Code    18  qlandmarkmanagerengine_symbian_p.o(.text)
    LandmarkUtility::RemoveDefaultProtocolL(TPtr16&) 0x000130d9   Thumb Code   100  qlandmarkutility.o(.text)
    LandmarkUtility::getCategoryIds(QString, CPosLandmark*) 0x0001313d   Thumb Code   192  qlandmarkutility.o(.text)
    LandmarkUtility::convertToQtLandmarkId(QString, unsigned long) 0x000131fd   Thumb Code    56  qlandmarkutility.o(.text)
    LandmarkUtility::convertToQtLandmark(QString, CPosLandmark*, QtMobility::QLandmark*) 0x00013235   Thumb Code  2486  qlandmarkutility.o(.text)
    LandmarkUtility::validLocalId(QString)   0x00013beb   Thumb Code   124  qlandmarkutility.o(.text)
    LandmarkUtility::convertToSymbianLandmarkCategoryId(QtMobility::QLandmarkCategoryId) 0x00013c67   Thumb Code    64  qlandmarkutility.o(.text)
    LandmarkUtility::convertToSymbianLandmarkL(QtMobility::QLandmark*, CPosLandmark*) 0x00013ca7   Thumb Code  1392  qlandmarkutility.o(.text)
    LandmarkUtility::setSymbianLandmarkL(CPosLandmark&, QtMobility::QLandmark*) 0x00014217   Thumb Code  1702  qlandmarkutility.o(.text)
    LandmarkUtility::convertToQtLandmarkIds(QString, RArray<unsigned long>&) 0x000148bd   Thumb Code    98  qlandmarkutility.o(.text)
    LandmarkUtility::convertToSymbianLandmarkId(QtMobility::QLandmarkId) 0x0001491f   Thumb Code    64  qlandmarkutility.o(.text)
    LandmarkUtility::getSymbianLandmarkIds(QList<QtMobility::QLandmarkId>&) 0x0001495f   Thumb Code   120  qlandmarkutility.o(.text)
    LandmarkUtility::convertToQtLandmarkCategoryId(QString, unsigned long) 0x000149d7   Thumb Code    66  qlandmarkutility.o(.text)
    LandmarkUtility::convertToQtLandmarkCategory(QString, CPosLandmarkCategory*, QtMobility::QLandmarkCategory*) 0x00014a19   Thumb Code   272  qlandmarkutility.o(.text)
    LandmarkUtility::convertToSymbianLandmarkCategoryL(QtMobility::QLandmarkCategory*, CPosLandmarkCategory*) 0x00014b29   Thumb Code   184  qlandmarkutility.o(.text)
    LandmarkUtility::setSymbianLandmarkCategoryL(CPosLandmarkCategory&, QtMobility::QLandmarkCategory*) 0x00014be1   Thumb Code   206  qlandmarkutility.o(.text)
    LandmarkUtility::convertToQtLandmarkCategoryIds(QString, RArray<unsigned long>&) 0x00014caf   Thumb Code    86  qlandmarkutility.o(.text)
    LandmarkUtility::getSymbianLandmarkId(QtMobility::QLandmark*) 0x00014d05   Thumb Code    58  qlandmarkutility.o(.text)
    LandmarkUtility::validCategoriesExist(CPosLmCategoryManager*, QtMobility::QLandmark*, QString) 0x00014d3f   Thumb Code   308  qlandmarkutility.o(.text)
    LandmarkUtility::getCategoriesL(CPosLmCategoryManager*, QList<QtMobility::QLandmarkCategoryId>) 0x00014e73   Thumb Code   256  qlandmarkutility.o(.text)
    LandmarkUtility::isGlobalCategoryId(CPosLmCategoryManager*, QtMobility::QLandmarkCategoryId) 0x00014f73   Thumb Code   670  qlandmarkutility.o(.text)
    LandmarkUtility::landmarkAttributeKeys() 0x00015211   Thumb Code   422  qlandmarkutility.o(.text)
    LandmarkUtility::categoryAttributeKeys() 0x000153b7   Thumb Code    62  qlandmarkutility.o(.text)
    LandmarkUtility::searchableLandmarkAttributeKeys() 0x000153f5   Thumb Code   534  qlandmarkutility.o(.text)
    LandmarkUtility::positionFieldId(QString) 0x0001560b   Thumb Code   170  qlandmarkutility.o(.text)
    LandmarkUtility::landmarkPackageFormatsStrL(const QString&) 0x000156b5   Thumb Code   144  qlandmarkutility.o(.text)
    LandmarkUtility::preparePath(QString)    0x00015745   Thumb Code   320  qlandmarkutility.o(.text)
    CLandmarkDbEventHandler::CLandmarkDbEventHandler() 0x00015905   Thumb Code    60  qlandmarkdbeventhandler.o(.text)
    CLandmarkDbEventHandler::CLandmarkDbEventHandler__sub_object() 0x00015905   Thumb Code     0  qlandmarkdbeventhandler.o(.text)
    CLandmarkDbEventHandler::~CLandmarkDbEventHandler() 0x00015941   Thumb Code    58  qlandmarkdbeventhandler.o(.text)
    CLandmarkDbEventHandler::~CLandmarkDbEventHandler__sub_object() 0x00015941   Thumb Code     0  qlandmarkdbeventhandler.o(.text)
    CLandmarkDbEventHandler::~CLandmarkDbEventHandler__deallocating() 0x0001597b   Thumb Code    22  qlandmarkdbeventhandler.o(.text)
    CLandmarkDbEventHandler::StartListening() 0x00015991   Thumb Code    54  qlandmarkdbeventhandler.o(.text)
    CLandmarkDbEventHandler::InitializeL()   0x000159c7   Thumb Code    64  qlandmarkdbeventhandler.o(.text)
    CLandmarkDbEventHandler::AddObsever(MLandmarkDbEventObserver*) 0x00015a07   Thumb Code   124  qlandmarkdbeventhandler.o(.text)
    CLandmarkDbEventHandler::RemoveObsever(MLandmarkDbEventObserver*) 0x00015a83   Thumb Code   184  qlandmarkdbeventhandler.o(.text)
    CLandmarkDbEventHandler::RunL()          0x00015b3b   Thumb Code    82  qlandmarkdbeventhandler.o(.text)
    CLandmarkDbEventHandler::DoCancel()      0x00015b8d   Thumb Code    16  qlandmarkdbeventhandler.o(.text)
    TWaitThrdData::TWaitThrdData()           0x00015ba1   Thumb Code    24  qlandmarkrequesthandler.o(.text)
    TWaitThrdData::TWaitThrdData__sub_object() 0x00015ba1   Thumb Code     0  qlandmarkrequesthandler.o(.text)
    CLandmarkRequestData::ConstructL()       0x00015bb9   Thumb Code    34  qlandmarkrequesthandler.o(.text)
    CLandmarkRequestData::CLandmarkRequestData(QtMobility::QLandmarkAbstractRequest*, CLandmarkRequestAO*) 0x00015bdb   Thumb Code   326  qlandmarkrequesthandler.o(.text)
    CLandmarkRequestData::CLandmarkRequestData__sub_object(QtMobility::QLandmarkAbstractRequest*, CLandmarkRequestAO*) 0x00015bdb   Thumb Code     0  qlandmarkrequesthandler.o(.text)
    CLandmarkRequestData::NewL(QtMobility::QLandmarkAbstractRequest*, CLandmarkRequestAO*) 0x00015d21   Thumb Code    56  qlandmarkrequesthandler.o(.text)
    CLandmarkRequestData::Reset()            0x00015d59   Thumb Code   224  qlandmarkrequesthandler.o(.text)
    CLandmarkRequestData::~CLandmarkRequestData() 0x00015e39   Thumb Code   352  qlandmarkrequesthandler.o(.text)
    CLandmarkRequestData::~CLandmarkRequestData__sub_object() 0x00015e39   Thumb Code     0  qlandmarkrequesthandler.o(.text)
    CLandmarkRequestData::~CLandmarkRequestData__deallocating() 0x00015f99   Thumb Code    22  qlandmarkrequesthandler.o(.text)
    CLandmarkRequestAO::WakeupThreads(int)   0x00015faf   Thumb Code   298  qlandmarkrequesthandler.o(.text)
    CLandmarkRequestAO::StartRequest(CPosLandmarkSearch*) 0x000160d9   Thumb Code   310  qlandmarkrequesthandler.o(.text)
    CLandmarkRequestAO::CancelRequest()      0x0001620f   Thumb Code    44  qlandmarkrequesthandler.o(.text)
    CLandmarkRequestAO::IsMultiOperationRequest() 0x0001623b   Thumb Code   114  qlandmarkrequesthandler.o(.text)
    CLandmarkRequestAO::WaitForRequestL(int, TRequestStatus&) 0x000162ad   Thumb Code   576  qlandmarkrequesthandler.o(.text)
    CLandmarkRequestAO::WaitForFinished(int) 0x000164ed   Thumb Code   336  qlandmarkrequesthandler.o(.text)
    CLandmarkRequestAO::SetOperation(CPosLmOperation*) 0x0001663d   Thumb Code     4  qlandmarkrequesthandler.o(.text)
    CLandmarkRequestAO::SetExportData(CPosLandmarkEncoder*, RFs&, HBufC16*, CBufBase*, QList<QtMobility::QLandmarkId>) 0x00016641   Thumb Code   104  qlandmarkrequesthandler.o(.text)
    CLandmarkRequestAO::GetOperation()       0x000166a9   Thumb Code     6  qlandmarkrequesthandler.o(.text)
    CLandmarkRequestAO::CLandmarkRequestAO(CPosLmOperation*, MLandmarkRequestObserver*) 0x000166af   Thumb Code    42  qlandmarkrequesthandler.o(.text)
    CLandmarkRequestAO::CLandmarkRequestAO__sub_object(CPosLmOperation*, MLandmarkRequestObserver*) 0x000166af   Thumb Code     0  qlandmarkrequesthandler.o(.text)
    CLandmarkRequestAO::NewL(MLandmarkRequestObserver*, CPosLmOperation*) 0x000166d9   Thumb Code    32  qlandmarkrequesthandler.o(.text)
    CLandmarkRequestAO::~CLandmarkRequestAO() 0x000166f9   Thumb Code    28  qlandmarkrequesthandler.o(.text)
    CLandmarkRequestAO::~CLandmarkRequestAO__sub_object() 0x000166f9   Thumb Code     0  qlandmarkrequesthandler.o(.text)
    CLandmarkRequestAO::~CLandmarkRequestAO__deallocating() 0x00016715   Thumb Code    22  qlandmarkrequesthandler.o(.text)
    CLandmarkRequestAO::RunL()               0x0001672b   Thumb Code   552  qlandmarkrequesthandler.o(.text)
    CLandmarkRequestAO::RunError(int)        0x00016953   Thumb Code    88  qlandmarkrequesthandler.o(.text)
    CLandmarkRequestAO::DoCancel()           0x000169ab   Thumb Code   144  qlandmarkrequesthandler.o(.text)
    LandmarkRequestHandler::LandmarkRequestHandler() 0x00016a3b   Thumb Code    50  qlandmarkrequesthandler.o(.text)
    LandmarkRequestHandler::LandmarkRequestHandler__sub_object() 0x00016a3b   Thumb Code     0  qlandmarkrequesthandler.o(.text)
    LandmarkRequestHandler::~LandmarkRequestHandler() 0x00016a6d   Thumb Code    84  qlandmarkrequesthandler.o(.text)
    LandmarkRequestHandler::~LandmarkRequestHandler__sub_object() 0x00016a6d   Thumb Code     0  qlandmarkrequesthandler.o(.text)
    LandmarkRequestHandler::AddAsyncRequest(QtMobility::QLandmarkAbstractRequest*, CLandmarkRequestAO*) 0x00016ac1   Thumb Code   188  qlandmarkrequesthandler.o(.text)
    LandmarkRequestHandler::RemoveAsyncRequest(QtMobility::QLandmarkAbstractRequest*) 0x00016b7d   Thumb Code   102  qlandmarkrequesthandler.o(.text)
    LandmarkRequestHandler::FetchAsyncRequest(QtMobility::QLandmarkAbstractRequest*) 0x00016be3   Thumb Code    72  qlandmarkrequesthandler.o(.text)
    __ARM_switch8                            0x00016c2c   ARM Code      24  switch8.o(.text)
    __rt_switch8                             0x00016c2c   ARM Code       0  switch8.o(.text)
    _E32Dll_Body                             0x00016c44   ARM Code      76  uc_dll.o(.text)
    __aeabi_atexit                           0x00016c94   ARM Code      40  ucppfini.o(.text)
    __cxa_atexit                             0x00016cbc   ARM Code      64  ucppfini.o(.text)
    __cxa_finalize                           0x00016cfc   ARM Code      48  ucppfini.o(.text)
    run_static_dtors                         0x00016d2c   ARM Code      16  ucppfini.o(.text)
    __DLL_Export_Table__                     0x00016d48   ARM Code       4  dllexp.o(.text)
    ExecuteAndDeleteLD(CPosLmOperation*)     0x000187bd   Thumb Code    26  qlandmarkmanagerengine_symbian_p.o(i._Z18ExecuteAndDeleteLDP15CPosLmOperation)
    qStringComparisonHelper(const QString&, const char*) 0x000187d9   Thumb Code    72  qlandmarkutility.o(i._Z23qStringComparisonHelperRK7QStringPKc)
    qDebug()                                 0x0001882f   Thumb Code    92  qlandmarkutility.o(i._Z6qDebugv)
    QByteArray::~QByteArray()                0x000188a3   Thumb Code    24  qlandmarkutility.o(i._ZN10QByteArrayD1Ev)
    QByteArray::~QByteArray__sub_object()    0x000188a3   Thumb Code     0  qlandmarkutility.o(i._ZN10QByteArrayD1Ev)
    QtMobility::QLandmarkProximityFilter::operator =(const QtMobility::QLandmarkProximityFilter&) 0x000188bb   Thumb Code    18  qlandmarkmanagerengine_symbian_p.o(i._ZN10QtMobility24QLandmarkProximityFilteraSERKS0_)
    QStringList::QStringList()               0x000188cd   Thumb Code    14  qlandmarkmanagerengine_symbian_p.o(i._ZN11QStringListC1Ev)
    QStringList::QStringList__sub_object()   0x000188cd   Thumb Code     0  qlandmarkmanagerengine_symbian_p.o(i._ZN11QStringListC1Ev)
    QStringList::~QStringList()              0x000188db   Thumb Code    14  qlandmarkmanagerengine_symbian_p.o(i._ZN11QStringListD1Ev)
    QStringList::~QStringList__sub_object()  0x000188db   Thumb Code     0  qlandmarkmanagerengine_symbian_p.o(i._ZN11QStringListD1Ev)
    QStringList::operator <<(const QString&) 0x000188e9   Thumb Code    18  qlandmarkmanagerengine_symbian_p.o(i._ZN11QStringListlsERK7QString)
    CleanupStack::PopAndDestroy(void*)       0x000188fb   Thumb Code    16  qlandmarkmanagerengine_symbian_p.o(i._ZN12CleanupStack13PopAndDestroyEPv)
    CleanupStack::Pop(void*)                 0x0001890b   Thumb Code    16  qlandmarkmanagerengine_symbian_p.o(i._ZN12CleanupStack3PopEPv)
    TRequestStatus::operator =(int)          0x0001891d   Thumb Code    32  qlandmarkmanagerengine_symbian_p.o(i._ZN14TRequestStatusaSEi)
    LandmarkUtility::isValidLat(double)      0x00018941   Thumb Code    38  qlandmarkmanagerengine_symbian_p.o(i._ZN15LandmarkUtility10isValidLatEd)
    LandmarkUtility::isValidLong(double)     0x00018979   Thumb Code    38  qlandmarkmanagerengine_symbian_p.o(i._ZN15LandmarkUtility11isValidLongEd)
    QBasicAtomicInt::ref()                   0x000189b1   Thumb Code    24  qlandmarkmanagerenginefactory_symbian.o(i._ZN15QBasicAtomicInt3refEv)
    QBasicAtomicInt::deref()                 0x000189c9   Thumb Code    24  qlandmarkmanagerenginefactory_symbian.o(i._ZN15QBasicAtomicInt5derefEv)
    QForeachContainer<QList<QtMobility::QLandmarkId>>::~QForeachContainer() 0x000189e1   Thumb Code    14  qlandmarkmanagerengine_symbian_p.o(i._ZN17QForeachContainerI5QListIN10QtMobility11QLandmarkIdEEED1Ev)
    QForeachContainer<QList<QtMobility::QLandmarkId>>::~QForeachContainer__sub_object() 0x000189e1   Thumb Code     0  qlandmarkmanagerengine_symbian_p.o(i._ZN17QForeachContainerI5QListIN10QtMobility11QLandmarkIdEEED1Ev)
    QForeachContainer<QList<QtMobility::QLandmarkCategoryId>>::~QForeachContainer() 0x000189ef   Thumb Code    14  qlandmarkmanagerengine_symbian_p.o(i._ZN17QForeachContainerI5QListIN10QtMobility19QLandmarkCategoryIdEEED1Ev)
    QForeachContainer<QList<QtMobility::QLandmarkCategoryId>>::~QForeachContainer__sub_object() 0x000189ef   Thumb Code     0  qlandmarkmanagerengine_symbian_p.o(i._ZN17QForeachContainerI5QListIN10QtMobility19QLandmarkCategoryIdEEED1Ev)
    QSet<QString>::~QSet()                   0x000189fd   Thumb Code    14  qlandmarkmanagerengine_symbian_p.o(i._ZN4QSetI7QStringED1Ev)
    QSet<QString>::~QSet__sub_object()       0x000189fd   Thumb Code     0  qlandmarkmanagerengine_symbian_p.o(i._ZN4QSetI7QStringED1Ev)
    QSet<QtMobility::QLandmarkId>::~QSet()   0x00018a0b   Thumb Code    14  qlandmarkmanagerengine_symbian_p.o(i._ZN4QSetIN10QtMobility11QLandmarkIdEED1Ev)
    QSet<QtMobility::QLandmarkId>::~QSet__sub_object() 0x00018a0b   Thumb Code     0  qlandmarkmanagerengine_symbian_p.o(i._ZN4QSetIN10QtMobility11QLandmarkIdEED1Ev)
    QDebug::maybeSpace()                     0x00018a19   Thumb Code    24  qlandmarkutility.o(i._ZN6QDebug10maybeSpaceEv)
    QDebug::~QDebug()                        0x00018a31   Thumb Code   154  qlandmarkutility.o(i._ZN6QDebugD1Ev)
    QDebug::~QDebug__sub_object()            0x00018a31   Thumb Code     0  qlandmarkutility.o(i._ZN6QDebugD1Ev)
    QDebug::operator <<(const char*)         0x00018adf   Thumb Code    44  qlandmarkutility.o(i._ZN6QDebuglsEPKc)
    QDebug::operator <<(int)                 0x00018b15   Thumb Code    22  qlandmarkutility.o(i._ZN6QDebuglsEi)
    RArray<unsigned>::InsertInOrder(unsigned) 0x00018b2b   Thumb Code    18  qlandmarkmanagerengine_symbian_p.o(i._ZN6RArrayIjE13InsertInOrderEj)
    QString::clear()                         0x00018b3d   Thumb Code    40  qlandmarkmanagerengine_symbian_p.o(i._ZN7QString5clearEv)
    QString::insert(int, const QString&)     0x00018b6f   Thumb Code    34  qlandmarkutility.o(i._ZN7QString6insertEiRKS_)
    QString::setNum(unsigned long, int)      0x00018b91   Thumb Code    30  qlandmarkutility.o(i._ZN7QString6setNumEmi)
    QString::QString(const char*)            0x00018baf   Thumb Code    22  qlandmarkmanagerenginefactory_symbian.o(i._ZN7QStringC1EPKc)
    QString::QString__sub_object(const char*) 0x00018baf   Thumb Code     0  qlandmarkmanagerenginefactory_symbian.o(i._ZN7QStringC1EPKc)
    QString::QString(const QString&)         0x00018bc5   Thumb Code    22  qlandmarkmanagerenginefactory_symbian.o(i._ZN7QStringC1ERKS_)
    QString::QString__sub_object(const QString&) 0x00018bc5   Thumb Code     0  qlandmarkmanagerenginefactory_symbian.o(i._ZN7QStringC1ERKS_)
    QString::QString()                       0x00018bdd   Thumb Code    18  qlandmarkmanagerenginefactory_symbian.o(i._ZN7QStringC1Ev)
    QString::QString__sub_object()           0x00018bdd   Thumb Code     0  qlandmarkmanagerenginefactory_symbian.o(i._ZN7QStringC1Ev)
    QString::~QString()                      0x00018bf5   Thumb Code    24  qlandmarkmanagerenginefactory_symbian.o(i._ZN7QStringD1Ev)
    QString::~QString__sub_object()          0x00018bf5   Thumb Code     0  qlandmarkmanagerenginefactory_symbian.o(i._ZN7QStringD1Ev)
    QString::operator =(const char*)         0x00018c0d   Thumb Code    40  qlandmarkmanagerengine_symbian_p.o(i._ZN7QStringaSEPKc)
    QHashData::willGrow()                    0x00018c3f   Thumb Code    32  qlandmarkmanagerengine_symbian_p.o(i._ZN9QHashData8willGrowEv)
    QHashData::firstNode()                   0x00018c5f   Thumb Code    36  qlandmarkmanagerengine_symbian_p.o(i._ZN9QHashData9firstNodeEv)
    QHashData::hasShrunk()                   0x00018c83   Thumb Code    82  qlandmarkmanagerengine_symbian_p.o(i._ZN9QHashData9hasShrunkEv)
    QStringList::contains(const QString&, Qt::CaseSensitivity) const 0x00018cd5   Thumb Code    22  qlandmarkmanagerengine_symbian_p.o(i._ZNK11QStringList8containsERK7QStringN2Qt15CaseSensitivityE)
    TRequestStatus::operator ==(int) const   0x00018ceb   Thumb Code    16  qlandmarkrequesthandler.o(i._ZNK14TRequestStatuseqEi)
    QBasicAtomicInt::operator ==(int) const  0x00018cfb   Thumb Code    16  qlandmarkmanagerengine_symbian_p.o(i._ZNK15QBasicAtomicInteqEi)
    QBasicAtomicInt::operator !=(int) const  0x00018d0b   Thumb Code    16  qlandmarkmanagerenginefactory_symbian.o(i._ZNK15QBasicAtomicIntneEi)
    QBool::operator const void*() const      0x00018d1b   Thumb Code    16  qlandmarkmanagerengine_symbian_p.o(i._ZNK5QBoolcvPKvEv)
    QString::arg(int, int, int, const QChar&) const 0x00018d2b   Thumb Code    36  qlandmarkmanagerengine_symbian_p.o(i._ZNK7QString3argEiiiRK5QChar)
    QString::isNull() const                  0x00018d51   Thumb Code    18  qlandmarkmanagerengine_symbian_p.o(i._ZNK7QString6isNullEv)
    QString::isEmpty() const                 0x00018d69   Thumb Code    18  qlandmarkmanagerengine_symbian_p.o(i._ZNK7QString7isEmptyEv)
    QString::operator ==(const char*) const  0x00018d7b   Thumb Code    16  qlandmarkutility.o(i._ZNK7QStringeqEPKc)
    QString::operator !=(const QString&) const 0x00018d8b   Thumb Code    20  qlandmarkmanagerengine_symbian_p.o(i._ZNK7QStringneERKS_)
    QListData::at(int) const                 0x00018d9f   Thumb Code    20  qlandmarkmanagerengine_symbian_p.o(i._ZNK9QListData2atEi)
    QListData::end() const                   0x00018db3   Thumb Code    16  qlandmarkmanagerenginefactory_symbian.o(i._ZNK9QListData3endEv)
    QListData::size() const                  0x00018dc3   Thumb Code    14  qlandmarkmanagerengine_symbian_p.o(i._ZNK9QListData4sizeEv)
    QListData::begin() const                 0x00018dd1   Thumb Code    16  qlandmarkmanagerenginefactory_symbian.o(i._ZNK9QListData5beginEv)
    QListData::isEmpty() const               0x00018de1   Thumb Code    22  qlandmarkmanagerengine_symbian_p.o(i._ZNK9QListData7isEmptyEv)
    operator delete (void*, void*)           0x00018df7   Thumb Code     2  qlandmarkmanagerenginefactory_symbian.o(i._ZdlPvS_)
    operator new(unsigned, void*)            0x00018df9   Thumb Code     6  qlandmarkmanagerenginefactory_symbian.o(i._ZnwjPv)
    qMapLessThanKey<int>(const T1&, const T1&) 0x00018dff   Thumb Code    18  qlandmarkmanagerengine_symbian_p.o(t._Z15qMapLessThanKeyIiEbRKT_S2_)
    CleanupClosePushL<RApaLsSession>(T1&)    0x00018e11   Thumb Code    24  qlandmarkmanagerengine_symbian_p.o(t._Z17CleanupClosePushLI13RApaLsSessionEvRT_)
    CleanupClosePushL<RFs>(T1&)              0x00018e2d   Thumb Code    24  qlandmarkmanagerengine_symbian_p.o(t._Z17CleanupClosePushLI3RFsEvRT_)
    qForeachContainerNew<QList<QtMobility::QLandmarkId>>(const T1&) 0x00018e49   Thumb Code   102  qlandmarkmanagerengine_symbian_p.o(t._Z20qForeachContainerNewI5QListIN10QtMobility11QLandmarkIdEEE17QForeachContainerIT_ERKS5_)
    qAbs<double>(const T1&)                  0x00018eb9   Thumb Code    48  qlandmarkmanagerengine_symbian_p.o(t._Z4qAbsIdET_RKS0_)
    qAbs<float>(const T1&)                   0x00018ef1   Thumb Code    28  qlandmarkmanagerengine_symbian_p.o(t._Z4qAbsIfET_RKS0_)
    CleanupClose<RApaLsSession>::Close(void*) 0x00018f0d   Thumb Code    12  qlandmarkmanagerengine_symbian_p.o(t._ZN12CleanupCloseI13RApaLsSessionE5CloseEPv)
    CleanupClose<RFs>::Close(void*)          0x00018f19   Thumb Code    12  qlandmarkmanagerengine_symbian_p.o(t._ZN12CleanupCloseI3RFsE5CloseEPv)
    RPointerArray<CLandmarkRequestData>::operator [](int) 0x00018f25   Thumb Code    16  qlandmarkrequesthandler.o(t._ZN13RPointerArrayI20CLandmarkRequestDataEixEi)
    QHashDummyNode<QString, QHashDummyValue>::QHashDummyNode(const QString&) 0x00018f35   Thumb Code    24  qlandmarkmanagerengine_symbian_p.o(t._ZN14QHashDummyNodeI7QString15QHashDummyValueEC1ERKS0_)
    QHashDummyNode<QString, QHashDummyValue>::QHashDummyNode__sub_object(const QString&) 0x00018f35   Thumb Code     0  qlandmarkmanagerengine_symbian_p.o(t._ZN14QHashDummyNodeI7QString15QHashDummyValueEC1ERKS0_)
    QHashDummyNode<QtMobility::QLandmarkId, QHashDummyValue>::QHashDummyNode(const QtMobility::QLandmarkId&) 0x00018f4d   Thumb Code    24  qlandmarkmanagerengine_symbian_p.o(t._ZN14QHashDummyNodeIN10QtMobility11QLandmarkIdE15QHashDummyValueEC1ERKS1_)
    QHashDummyNode<QtMobility::QLandmarkId, QHashDummyValue>::QHashDummyNode__sub_object(const QtMobility::QLandmarkId&) 0x00018f4d   Thumb Code     0  qlandmarkmanagerengine_symbian_p.o(t._ZN14QHashDummyNodeIN10QtMobility11QLandmarkIdE15QHashDummyValueEC1ERKS1_)
    QMap<QString, QString>::node_create(QMapData*, QMapData::Node**, const QString&, const QString&) 0x00018f65   Thumb Code   140  qlandmarkmanagerengine_symbian_p.o(t._ZN4QMapI7QStringS0_E11node_createEP8QMapDataPPNS2_4NodeERKS0_S8_)
    QMap<QString, QString>::detach_helper()  0x00019017   Thumb Code   146  qlandmarkmanagerengine_symbian_p.o(t._ZN4QMapI7QStringS0_E13detach_helperEv)
    QMap<QString, QString>::freeData(QMapData*) 0x000190b1   Thumb Code    62  qlandmarkmanagerengine_symbian_p.o(t._ZN4QMapI7QStringS0_E8freeDataEP8QMapData)
    QMap<QString, QString>::~QMap()          0x000190ef   Thumb Code    38  qlandmarkmanagerengine_symbian_p.o(t._ZN4QMapI7QStringS0_ED1Ev)
    QMap<QString, QString>::~QMap__sub_object() 0x000190ef   Thumb Code     0  qlandmarkmanagerengine_symbian_p.o(t._ZN4QMapI7QStringS0_ED1Ev)
    QMap<int, QtMobility::QLandmarkManager::Error>::node_create(QMapData*, QMapData::Node**, const int&, const QtMobility::QLandmarkManager::Error&) 0x00019115   Thumb Code    82  qlandmarkmanagerengine_symbian_p.o(t._ZN4QMapIiN10QtMobility16QLandmarkManager5ErrorEE11node_createEP8QMapDataPPNS4_4NodeERKiRKS2_)
    QMap<int, QtMobility::QLandmarkManager::Error>::detach_helper() 0x0001916b   Thumb Code   146  qlandmarkmanagerengine_symbian_p.o(t._ZN4QMapIiN10QtMobility16QLandmarkManager5ErrorEE13detach_helperEv)
    QMap<int, QtMobility::QLandmarkManager::Error>::clear() 0x00019205   Thumb Code    82  qlandmarkmanagerengine_symbian_p.o(t._ZN4QMapIiN10QtMobility16QLandmarkManager5ErrorEE5clearEv)
    QMap<int, QtMobility::QLandmarkManager::Error>::insert(const int&, const QtMobility::QLandmarkManager::Error&) 0x00019261   Thumb Code    92  qlandmarkmanagerengine_symbian_p.o(t._ZN4QMapIiN10QtMobility16QLandmarkManager5ErrorEE6insertERKiRKS2_)
    QMap<int, QtMobility::QLandmarkManager::Error>::freeData(QMapData*) 0x000192bd   Thumb Code    48  qlandmarkmanagerengine_symbian_p.o(t._ZN4QMapIiN10QtMobility16QLandmarkManager5ErrorEE8freeDataEP8QMapData)
    QMap<int, QtMobility::QLandmarkManager::Error>::QMap() 0x000192ed   Thumb Code    22  qlandmarkmanagerengine_symbian_p.o(t._ZN4QMapIiN10QtMobility16QLandmarkManager5ErrorEEC1Ev)
    QMap<int, QtMobility::QLandmarkManager::Error>::QMap__sub_object() 0x000192ed   Thumb Code     0  qlandmarkmanagerengine_symbian_p.o(t._ZN4QMapIiN10QtMobility16QLandmarkManager5ErrorEEC1Ev)
    QMap<int, QtMobility::QLandmarkManager::Error>::~QMap() 0x00019309   Thumb Code    38  qlandmarkmanagerengine_symbian_p.o(t._ZN4QMapIiN10QtMobility16QLandmarkManager5ErrorEED1Ev)
    QMap<int, QtMobility::QLandmarkManager::Error>::~QMap__sub_object() 0x00019309   Thumb Code     0  qlandmarkmanagerengine_symbian_p.o(t._ZN4QMapIiN10QtMobility16QLandmarkManager5ErrorEED1Ev)
    QSet<QString>::insert(const QString&)    0x0001932f   Thumb Code    46  qlandmarkmanagerengine_symbian_p.o(t._ZN4QSetI7QStringE6insertERKS0_)
    QSet<QString>::intersect(const QSet<QString>&) 0x0001935d   Thumb Code   180  qlandmarkmanagerengine_symbian_p.o(t._ZN4QSetI7QStringE9intersectERKS1_)
    QSet<QString>::QSet(const QSet<QString>&) 0x00019421   Thumb Code    42  qlandmarkmanagerengine_symbian_p.o(t._ZN4QSetI7QStringEC1ERKS1_)
    QSet<QString>::QSet__sub_object(const QSet<QString>&) 0x00019421   Thumb Code     0  qlandmarkmanagerengine_symbian_p.o(t._ZN4QSetI7QStringEC1ERKS1_)
    QSet<QString>::QSet()                    0x0001944d   Thumb Code    24  qlandmarkmanagerengine_symbian_p.o(t._ZN4QSetI7QStringEC1Ev)
    QSet<QString>::QSet__sub_object()        0x0001944d   Thumb Code     0  qlandmarkmanagerengine_symbian_p.o(t._ZN4QSetI7QStringEC1Ev)
    QSet<QtMobility::QLandmarkId>::intersect(const QSet<QtMobility::QLandmarkId>&) 0x00019469   Thumb Code   180  qlandmarkmanagerengine_symbian_p.o(t._ZN4QSetIN10QtMobility11QLandmarkIdEE9intersectERKS2_)
    QSet<QtMobility::QLandmarkId>::QSet(const QSet<QtMobility::QLandmarkId>&) 0x0001952d   Thumb Code    42  qlandmarkmanagerengine_symbian_p.o(t._ZN4QSetIN10QtMobility11QLandmarkIdEEC1ERKS2_)
    QSet<QtMobility::QLandmarkId>::QSet__sub_object(const QSet<QtMobility::QLandmarkId>&) 0x0001952d   Thumb Code     0  qlandmarkmanagerengine_symbian_p.o(t._ZN4QSetIN10QtMobility11QLandmarkIdEEC1ERKS2_)
    QSet<QtMobility::QLandmarkId>::QSet()    0x00019559   Thumb Code    24  qlandmarkmanagerengine_symbian_p.o(t._ZN4QSetIN10QtMobility11QLandmarkIdEEC1Ev)
    QSet<QtMobility::QLandmarkId>::QSet__sub_object() 0x00019559   Thumb Code     0  qlandmarkmanagerengine_symbian_p.o(t._ZN4QSetIN10QtMobility11QLandmarkIdEEC1Ev)
    QHash<QString, QHashDummyValue>::deleteNode2(QHashData::Node*) 0x00019575   Thumb Code    24  qlandmarkmanagerengine_symbian_p.o(t._ZN5QHashI7QString15QHashDummyValueE11deleteNode2EPN9QHashData4NodeE)
    QHash<QString, QHashDummyValue>::detach_helper() 0x0001958d   Thumb Code    52  qlandmarkmanagerengine_symbian_p.o(t._ZN5QHashI7QString15QHashDummyValueE13detach_helperEv)
    QHash<QString, QHashDummyValue>::duplicateNode(QHashData::Node*, void*) 0x000195c9   Thumb Code    44  qlandmarkmanagerengine_symbian_p.o(t._ZN5QHashI7QString15QHashDummyValueE13duplicateNodeEPN9QHashData4NodeEPv)
    QHash<QString, QHashDummyValue>::detach() 0x00019601   Thumb Code    28  qlandmarkmanagerengine_symbian_p.o(t._ZN5QHashI7QString15QHashDummyValueE6detachEv)
    QHash<QString, QHashDummyValue>::insert(const QString&, const QHashDummyValue&) 0x0001961d   Thumb Code   168  qlandmarkmanagerengine_symbian_p.o(t._ZN5QHashI7QString15QHashDummyValueE6insertERKS0_RKS1_)
    QHash<QString, QHashDummyValue>::remove(const QString&) 0x000196d1   Thumb Code   178  qlandmarkmanagerengine_symbian_p.o(t._ZN5QHashI7QString15QHashDummyValueE6removeERKS0_)
    QHash<QString, QHashDummyValue>::freeData(QHashData*) 0x00019785   Thumb Code    16  qlandmarkmanagerengine_symbian_p.o(t._ZN5QHashI7QString15QHashDummyValueE8freeDataEP9QHashData)
    QHash<QString, QHashDummyValue>::~QHash() 0x00019799   Thumb Code    30  qlandmarkmanagerengine_symbian_p.o(t._ZN5QHashI7QString15QHashDummyValueED1Ev)
    QHash<QString, QHashDummyValue>::~QHash__sub_object() 0x00019799   Thumb Code     0  qlandmarkmanagerengine_symbian_p.o(t._ZN5QHashI7QString15QHashDummyValueED1Ev)
    QHash<QtMobility::QLandmarkId, QHashDummyValue>::deleteNode2(QHashData::Node*) 0x000197b7   Thumb Code    24  qlandmarkmanagerengine_symbian_p.o(t._ZN5QHashIN10QtMobility11QLandmarkIdE15QHashDummyValueE11deleteNode2EPN9QHashData4NodeE)
    QHash<QtMobility::QLandmarkId, QHashDummyValue>::detach_helper() 0x000197d1   Thumb Code    52  qlandmarkmanagerengine_symbian_p.o(t._ZN5QHashIN10QtMobility11QLandmarkIdE15QHashDummyValueE13detach_helperEv)
    QHash<QtMobility::QLandmarkId, QHashDummyValue>::duplicateNode(QHashData::Node*, void*) 0x0001980d   Thumb Code    44  qlandmarkmanagerengine_symbian_p.o(t._ZN5QHashIN10QtMobility11QLandmarkIdE15QHashDummyValueE13duplicateNodeEPN9QHashData4NodeEPv)
    QHash<QtMobility::QLandmarkId, QHashDummyValue>::detach() 0x00019845   Thumb Code    28  qlandmarkmanagerengine_symbian_p.o(t._ZN5QHashIN10QtMobility11QLandmarkIdE15QHashDummyValueE6detachEv)
    QHash<QtMobility::QLandmarkId, QHashDummyValue>::insert(const QtMobility::QLandmarkId&, const QHashDummyValue&) 0x00019861   Thumb Code   168  qlandmarkmanagerengine_symbian_p.o(t._ZN5QHashIN10QtMobility11QLandmarkIdE15QHashDummyValueE6insertERKS1_RKS2_)
    QHash<QtMobility::QLandmarkId, QHashDummyValue>::remove(const QtMobility::QLandmarkId&) 0x00019915   Thumb Code   178  qlandmarkmanagerengine_symbian_p.o(t._ZN5QHashIN10QtMobility11QLandmarkIdE15QHashDummyValueE6removeERKS1_)
    QHash<QtMobility::QLandmarkId, QHashDummyValue>::freeData(QHashData*) 0x000199c9   Thumb Code    16  qlandmarkmanagerengine_symbian_p.o(t._ZN5QHashIN10QtMobility11QLandmarkIdE15QHashDummyValueE8freeDataEP9QHashData)
    QHash<QtMobility::QLandmarkId, QHashDummyValue>::~QHash() 0x000199dd   Thumb Code    30  qlandmarkmanagerengine_symbian_p.o(t._ZN5QHashIN10QtMobility11QLandmarkIdE15QHashDummyValueED1Ev)
    QHash<QtMobility::QLandmarkId, QHashDummyValue>::~QHash__sub_object() 0x000199dd   Thumb Code     0  qlandmarkmanagerengine_symbian_p.o(t._ZN5QHashIN10QtMobility11QLandmarkIdE15QHashDummyValueED1Ev)
    QList<QString>::detach_helper(int)       0x000199fb   Thumb Code    94  qlandmarkmanagerenginefactory_symbian.o(t._ZN5QListI7QStringE13detach_helperEi)
    QList<QString>::detach_helper()          0x00019a61   Thumb Code    16  qlandmarkmanagerengine_symbian_p.o(t._ZN5QListI7QStringE13detach_helperEv)
    QList<QString>::node_destruct(QList<QString>::Node*, QList<QString>::Node*) 0x00019a71   Thumb Code    26  qlandmarkmanagerenginefactory_symbian.o(t._ZN5QListI7QStringE13node_destructEPNS1_4NodeES3_)
    QList<QString>::node_construct(QList<QString>::Node*, const QString&) 0x00019a8b   Thumb Code    36  qlandmarkmanagerenginefactory_symbian.o(t._ZN5QListI7QStringE14node_constructEPNS1_4NodeERKS0_)
    QList<QString>::detach_helper_grow(int, int) 0x00019abd   Thumb Code   208  qlandmarkmanagerenginefactory_symbian.o(t._ZN5QListI7QStringE18detach_helper_growEii)
    QList<QString>::free(QListData::Data*)   0x00019b9d   Thumb Code    52  qlandmarkmanagerengine_symbian_p.o(t._ZN5QListI7QStringE4freeEPN9QListData4DataE)
    QList<QString>::append(const QString&)   0x00019bd1   Thumb Code   114  qlandmarkmanagerenginefactory_symbian.o(t._ZN5QListI7QStringE6appendERKS0_)
    QList<QString>::reserve(int)             0x00019c57   Thumb Code    46  qlandmarkmanagerenginefactory_symbian.o(t._ZN5QListI7QStringE7reserveEi)
    QList<QString>::removeAt(int)            0x00019c85   Thumb Code    70  qlandmarkmanagerengine_symbian_p.o(t._ZN5QListI7QStringE8removeAtEi)
    QList<QString>::node_copy(QList<QString>::Node*, QList<QString>::Node*, QList<QString>::Node*) 0x00019ccb   Thumb Code    82  qlandmarkmanagerenginefactory_symbian.o(t._ZN5QListI7QStringE9node_copyEPNS1_4NodeES3_S3_)
    QList<QString>::QList()                  0x00019d35   Thumb Code    18  qlandmarkmanagerengine_symbian_p.o(t._ZN5QListI7QStringEC1Ev)
    QList<QString>::QList__sub_object()      0x00019d35   Thumb Code     0  qlandmarkmanagerengine_symbian_p.o(t._ZN5QListI7QStringEC1Ev)
    QList<QString>::~QList()                 0x00019d4d   Thumb Code    32  qlandmarkmanagerenginefactory_symbian.o(t._ZN5QListI7QStringED1Ev)
    QList<QString>::~QList__sub_object()     0x00019d4d   Thumb Code     0  qlandmarkmanagerenginefactory_symbian.o(t._ZN5QListI7QStringED1Ev)
    QList<QtMobility::QLandmarkId>::detach_helper(int) 0x00019d6d   Thumb Code    94  qlandmarkmanagerengine_symbian_p.o(t._ZN5QListIN10QtMobility11QLandmarkIdEE13detach_helperEi)
    QList<QtMobility::QLandmarkId>::detach_helper() 0x00019dd3   Thumb Code    16  qlandmarkmanagerengine_symbian_p.o(t._ZN5QListIN10QtMobility11QLandmarkIdEE13detach_helperEv)
    QList<QtMobility::QLandmarkId>::node_destruct(QList<QtMobility::QLandmarkId>::Node*, QList<QtMobility::QLandmarkId>::Node*) 0x00019de3   Thumb Code    26  qlandmarkmanagerengine_symbian_p.o(t._ZN5QListIN10QtMobility11QLandmarkIdEE13node_destructEPNS2_4NodeES4_)
    QList<QtMobility::QLandmarkId>::node_construct(QList<QtMobility::QLandmarkId>::Node*, const QtMobility::QLandmarkId&) 0x00019dfd   Thumb Code    36  qlandmarkmanagerengine_symbian_p.o(t._ZN5QListIN10QtMobility11QLandmarkIdEE14node_constructEPNS2_4NodeERKS1_)
    QList<QtMobility::QLandmarkId>::detach_helper_grow(int, int) 0x00019e2f   Thumb Code   208  qlandmarkmanagerengine_symbian_p.o(t._ZN5QListIN10QtMobility11QLandmarkIdEE18detach_helper_growEii)
    QList<QtMobility::QLandmarkId>::free(QListData::Data*) 0x00019f0f   Thumb Code    52  qlandmarkmanagerengine_symbian_p.o(t._ZN5QListIN10QtMobility11QLandmarkIdEE4freeEPN9QListData4DataE)
    QList<QtMobility::QLandmarkId>::clear()  0x00019f43   Thumb Code    28  qlandmarkmanagerengine_symbian_p.o(t._ZN5QListIN10QtMobility11QLandmarkIdEE5clearEv)
    QList<QtMobility::QLandmarkId>::append(const QtMobility::QLandmarkId&) 0x00019f69   Thumb Code   114  qlandmarkmanagerengine_symbian_p.o(t._ZN5QListIN10QtMobility11QLandmarkIdEE6appendERKS1_)
    QList<QtMobility::QLandmarkId>::reserve(int) 0x00019fef   Thumb Code    46  qlandmarkmanagerengine_symbian_p.o(t._ZN5QListIN10QtMobility11QLandmarkIdEE7reserveEi)
    QList<QtMobility::QLandmarkId>::node_copy(QList<QtMobility::QLandmarkId>::Node*, QList<QtMobility::QLandmarkId>::Node*, QList<QtMobility::QLandmarkId>::Node*) 0x0001a01d   Thumb Code    82  qlandmarkmanagerengine_symbian_p.o(t._ZN5QListIN10QtMobility11QLandmarkIdEE9node_copyEPNS2_4NodeES4_S4_)
    QList<QtMobility::QLandmarkId>::QList(const QList<QtMobility::QLandmarkId>&) 0x0001a085   Thumb Code    36  qlandmarkmanagerengine_symbian_p.o(t._ZN5QListIN10QtMobility11QLandmarkIdEEC1ERKS2_)
    QList<QtMobility::QLandmarkId>::QList__sub_object(const QList<QtMobility::QLandmarkId>&) 0x0001a085   Thumb Code     0  qlandmarkmanagerengine_symbian_p.o(t._ZN5QListIN10QtMobility11QLandmarkIdEEC1ERKS2_)
    QList<QtMobility::QLandmarkId>::QList()  0x0001a0a9   Thumb Code    18  qlandmarkmanagerengine_symbian_p.o(t._ZN5QListIN10QtMobility11QLandmarkIdEEC1Ev)
    QList<QtMobility::QLandmarkId>::QList__sub_object() 0x0001a0a9   Thumb Code     0  qlandmarkmanagerengine_symbian_p.o(t._ZN5QListIN10QtMobility11QLandmarkIdEEC1Ev)
    QList<QtMobility::QLandmarkId>::~QList() 0x0001a0c1   Thumb Code    32  qlandmarkmanagerengine_symbian_p.o(t._ZN5QListIN10QtMobility11QLandmarkIdEED1Ev)
    QList<QtMobility::QLandmarkId>::~QList__sub_object() 0x0001a0c1   Thumb Code     0  qlandmarkmanagerengine_symbian_p.o(t._ZN5QListIN10QtMobility11QLandmarkIdEED1Ev)
    QList<QtMobility::QLandmarkId>::operator =(const QList<QtMobility::QLandmarkId>&) 0x0001a0e1   Thumb Code    64  qlandmarkmanagerengine_symbian_p.o(t._ZN5QListIN10QtMobility11QLandmarkIdEEaSERKS2_)
    QList<QtMobility::QLandmarkId>::operator <<(const QtMobility::QLandmarkId&) 0x0001a121   Thumb Code    18  qlandmarkmanagerengine_symbian_p.o(t._ZN5QListIN10QtMobility11QLandmarkIdEElsERKS1_)
    QList<QtMobility::QLandmarkId>::operator +=(const QList<QtMobility::QLandmarkId>&) 0x0001a135   Thumb Code   144  qlandmarkmanagerengine_symbian_p.o(t._ZN5QListIN10QtMobility11QLandmarkIdEEpLERKS2_)
    QList<QtMobility::QLandmarkFilter>::detach_helper(int) 0x0001a1d1   Thumb Code   198  qlandmarkmanagerengine_symbian_p.o(t._ZN5QListIN10QtMobility15QLandmarkFilterEE13detach_helperEi)
    QList<QtMobility::QLandmarkFilter>::detach_helper() 0x0001a2b7   Thumb Code    16  qlandmarkmanagerengine_symbian_p.o(t._ZN5QListIN10QtMobility15QLandmarkFilterEE13detach_helperEv)
    QList<QtMobility::QLandmarkFilter>::free(QListData::Data*) 0x0001a2c7   Thumb Code    74  qlandmarkmanagerengine_symbian_p.o(t._ZN5QListIN10QtMobility15QLandmarkFilterEE4freeEPN9QListData4DataE)
    QList<QtMobility::QLandmarkFilter>::takeAt(int) 0x0001a311   Thumb Code    86  qlandmarkmanagerengine_symbian_p.o(t._ZN5QListIN10QtMobility15QLandmarkFilterEE6takeAtEi)
    QList<QtMobility::QLandmarkFilter>::~QList() 0x0001a371   Thumb Code    32  qlandmarkmanagerengine_symbian_p.o(t._ZN5QListIN10QtMobility15QLandmarkFilterEED1Ev)
    QList<QtMobility::QLandmarkFilter>::~QList__sub_object() 0x0001a371   Thumb Code     0  qlandmarkmanagerengine_symbian_p.o(t._ZN5QListIN10QtMobility15QLandmarkFilterEED1Ev)
    QList<QtMobility::QLandmarkFilter>::operator =(const QList<QtMobility::QLandmarkFilter>&) 0x0001a391   Thumb Code    64  qlandmarkmanagerengine_symbian_p.o(t._ZN5QListIN10QtMobility15QLandmarkFilterEEaSERKS2_)
    QList<QtMobility::QLandmarkCategory>::detach_helper(int) 0x0001a3d1   Thumb Code    94  qlandmarkmanagerengine_symbian_p.o(t._ZN5QListIN10QtMobility17QLandmarkCategoryEE13detach_helperEi)
    QList<QtMobility::QLandmarkCategory>::detach_helper() 0x0001a437   Thumb Code    16  qlandmarkmanagerengine_symbian_p.o(t._ZN5QListIN10QtMobility17QLandmarkCategoryEE13detach_helperEv)
    QList<QtMobility::QLandmarkCategory>::node_destruct(QList<QtMobility::QLandmarkCategory>::Node*, QList<QtMobility::QLandmarkCategory>::Node*) 0x0001a447   Thumb Code    26  qlandmarkmanagerengine_symbian_p.o(t._ZN5QListIN10QtMobility17QLandmarkCategoryEE13node_destructEPNS2_4NodeES4_)
    QList<QtMobility::QLandmarkCategory>::node_construct(QList<QtMobility::QLandmarkCategory>::Node*, const QtMobility::QLandmarkCategory&) 0x0001a461   Thumb Code    36  qlandmarkmanagerengine_symbian_p.o(t._ZN5QListIN10QtMobility17QLandmarkCategoryEE14node_constructEPNS2_4NodeERKS1_)
    QList<QtMobility::QLandmarkCategory>::detach_helper_grow(int, int) 0x0001a493   Thumb Code   208  qlandmarkmanagerengine_symbian_p.o(t._ZN5QListIN10QtMobility17QLandmarkCategoryEE18detach_helper_growEii)
    QList<QtMobility::QLandmarkCategory>::free(QListData::Data*) 0x0001a573   Thumb Code    52  qlandmarkmanagerengine_symbian_p.o(t._ZN5QListIN10QtMobility17QLandmarkCategoryEE4freeEPN9QListData4DataE)
    QList<QtMobility::QLandmarkCategory>::clear() 0x0001a5a7   Thumb Code    28  qlandmarkmanagerengine_symbian_p.o(t._ZN5QListIN10QtMobility17QLandmarkCategoryEE5clearEv)
    QList<QtMobility::QLandmarkCategory>::append(const QtMobility::QLandmarkCategory&) 0x0001a5cd   Thumb Code   114  qlandmarkmanagerengine_symbian_p.o(t._ZN5QListIN10QtMobility17QLandmarkCategoryEE6appendERKS1_)
    QList<QtMobility::QLandmarkCategory>::reserve(int) 0x0001a653   Thumb Code    46  qlandmarkmanagerengine_symbian_p.o(t._ZN5QListIN10QtMobility17QLandmarkCategoryEE7reserveEi)
    QList<QtMobility::QLandmarkCategory>::node_copy(QList<QtMobility::QLandmarkCategory>::Node*, QList<QtMobility::QLandmarkCategory>::Node*, QList<QtMobility::QLandmarkCategory>::Node*) 0x0001a681   Thumb Code    82  qlandmarkmanagerengine_symbian_p.o(t._ZN5QListIN10QtMobility17QLandmarkCategoryEE9node_copyEPNS2_4NodeES4_S4_)
    QList<QtMobility::QLandmarkCategory>::QList(const QList<QtMobility::QLandmarkCategory>&) 0x0001a6e9   Thumb Code    36  qlandmarkmanagerengine_symbian_p.o(t._ZN5QListIN10QtMobility17QLandmarkCategoryEEC1ERKS2_)
    QList<QtMobility::QLandmarkCategory>::QList__sub_object(const QList<QtMobility::QLandmarkCategory>&) 0x0001a6e9   Thumb Code     0  qlandmarkmanagerengine_symbian_p.o(t._ZN5QListIN10QtMobility17QLandmarkCategoryEEC1ERKS2_)
    QList<QtMobility::QLandmarkCategory>::QList() 0x0001a70d   Thumb Code    18  qlandmarkmanagerengine_symbian_p.o(t._ZN5QListIN10QtMobility17QLandmarkCategoryEEC1Ev)
    QList<QtMobility::QLandmarkCategory>::QList__sub_object() 0x0001a70d   Thumb Code     0  qlandmarkmanagerengine_symbian_p.o(t._ZN5QListIN10QtMobility17QLandmarkCategoryEEC1Ev)
    QList<QtMobility::QLandmarkCategory>::~QList() 0x0001a725   Thumb Code    32  qlandmarkmanagerengine_symbian_p.o(t._ZN5QListIN10QtMobility17QLandmarkCategoryEED1Ev)
    QList<QtMobility::QLandmarkCategory>::~QList__sub_object() 0x0001a725   Thumb Code     0  qlandmarkmanagerengine_symbian_p.o(t._ZN5QListIN10QtMobility17QLandmarkCategoryEED1Ev)
    QList<QtMobility::QLandmarkCategory>::operator =(const QList<QtMobility::QLandmarkCategory>&) 0x0001a745   Thumb Code    64  qlandmarkmanagerengine_symbian_p.o(t._ZN5QListIN10QtMobility17QLandmarkCategoryEEaSERKS2_)
    QList<QtMobility::QLandmarkSortOrder>::detach_helper(int) 0x0001a785   Thumb Code    94  qlandmarkmanagerengine_symbian_p.o(t._ZN5QListIN10QtMobility18QLandmarkSortOrderEE13detach_helperEi)
    QList<QtMobility::QLandmarkSortOrder>::detach_helper() 0x0001a7eb   Thumb Code    16  qlandmarkmanagerengine_symbian_p.o(t._ZN5QListIN10QtMobility18QLandmarkSortOrderEE13detach_helperEv)
    QList<QtMobility::QLandmarkSortOrder>::node_destruct(QList<QtMobility::QLandmarkSortOrder>::Node*, QList<QtMobility::QLandmarkSortOrder>::Node*) 0x0001a7fb   Thumb Code    36  qlandmarkmanagerengine_symbian_p.o(t._ZN5QListIN10QtMobility18QLandmarkSortOrderEE13node_destructEPNS2_4NodeES4_)
    QList<QtMobility::QLandmarkSortOrder>::node_construct(QList<QtMobility::QLandmarkSortOrder>::Node*, const QtMobility::QLandmarkSortOrder&) 0x0001a81f   Thumb Code    34  qlandmarkmanagerengine_symbian_p.o(t._ZN5QListIN10QtMobility18QLandmarkSortOrderEE14node_constructEPNS2_4NodeERKS1_)
    QList<QtMobility::QLandmarkSortOrder>::detach_helper_grow(int, int) 0x0001a84f   Thumb Code   208  qlandmarkmanagerengine_symbian_p.o(t._ZN5QListIN10QtMobility18QLandmarkSortOrderEE18detach_helper_growEii)
    QList<QtMobility::QLandmarkSortOrder>::free(QListData::Data*) 0x0001a92f   Thumb Code    52  qlandmarkmanagerengine_symbian_p.o(t._ZN5QListIN10QtMobility18QLandmarkSortOrderEE4freeEPN9QListData4DataE)
    QList<QtMobility::QLandmarkSortOrder>::append(const QtMobility::QLandmarkSortOrder&) 0x0001a965   Thumb Code   106  qlandmarkmanagerengine_symbian_p.o(t._ZN5QListIN10QtMobility18QLandmarkSortOrderEE6appendERKS1_)
    QList<QtMobility::QLandmarkSortOrder>::node_copy(QList<QtMobility::QLandmarkSortOrder>::Node*, QList<QtMobility::QLandmarkSortOrder>::Node*, QList<QtMobility::QLandmarkSortOrder>::Node*) 0x0001a9e3   Thumb Code    90  qlandmarkmanagerengine_symbian_p.o(t._ZN5QListIN10QtMobility18QLandmarkSortOrderEE9node_copyEPNS2_4NodeES4_S4_)
    QList<QtMobility::QLandmarkSortOrder>::QList(const QList<QtMobility::QLandmarkSortOrder>&) 0x0001aa53   Thumb Code    36  qlandmarkmanagerengine_symbian_p.o(t._ZN5QListIN10QtMobility18QLandmarkSortOrderEEC1ERKS2_)
    QList<QtMobility::QLandmarkSortOrder>::QList__sub_object(const QList<QtMobility::QLandmarkSortOrder>&) 0x0001aa53   Thumb Code     0  qlandmarkmanagerengine_symbian_p.o(t._ZN5QListIN10QtMobility18QLandmarkSortOrderEEC1ERKS2_)
    QList<QtMobility::QLandmarkSortOrder>::QList() 0x0001aa79   Thumb Code    18  qlandmarkmanagerengine_symbian_p.o(t._ZN5QListIN10QtMobility18QLandmarkSortOrderEEC1Ev)
    QList<QtMobility::QLandmarkSortOrder>::QList__sub_object() 0x0001aa79   Thumb Code     0  qlandmarkmanagerengine_symbian_p.o(t._ZN5QListIN10QtMobility18QLandmarkSortOrderEEC1Ev)
    QList<QtMobility::QLandmarkSortOrder>::~QList() 0x0001aa91   Thumb Code    32  qlandmarkmanagerengine_symbian_p.o(t._ZN5QListIN10QtMobility18QLandmarkSortOrderEED1Ev)
    QList<QtMobility::QLandmarkSortOrder>::~QList__sub_object() 0x0001aa91   Thumb Code     0  qlandmarkmanagerengine_symbian_p.o(t._ZN5QListIN10QtMobility18QLandmarkSortOrderEED1Ev)
    QList<QtMobility::QLandmarkSortOrder>::operator =(const QList<QtMobility::QLandmarkSortOrder>&) 0x0001aab1   Thumb Code    64  qlandmarkmanagerengine_symbian_p.o(t._ZN5QListIN10QtMobility18QLandmarkSortOrderEEaSERKS2_)
    QList<QtMobility::QLandmarkCategoryId>::detach_helper(int) 0x0001aaf1   Thumb Code    94  qlandmarkmanagerengine_symbian_p.o(t._ZN5QListIN10QtMobility19QLandmarkCategoryIdEE13detach_helperEi)
    QList<QtMobility::QLandmarkCategoryId>::detach_helper() 0x0001ab57   Thumb Code    16  qlandmarkmanagerengine_symbian_p.o(t._ZN5QListIN10QtMobility19QLandmarkCategoryIdEE13detach_helperEv)
    QList<QtMobility::QLandmarkCategoryId>::node_destruct(QList<QtMobility::QLandmarkCategoryId>::Node*, QList<QtMobility::QLandmarkCategoryId>::Node*) 0x0001ab67   Thumb Code    26  qlandmarkmanagerengine_symbian_p.o(t._ZN5QListIN10QtMobility19QLandmarkCategoryIdEE13node_destructEPNS2_4NodeES4_)
    QList<QtMobility::QLandmarkCategoryId>::node_construct(QList<QtMobility::QLandmarkCategoryId>::Node*, const QtMobility::QLandmarkCategoryId&) 0x0001ab81   Thumb Code    36  qlandmarkmanagerengine_symbian_p.o(t._ZN5QListIN10QtMobility19QLandmarkCategoryIdEE14node_constructEPNS2_4NodeERKS1_)
    QList<QtMobility::QLandmarkCategoryId>::detach_helper_grow(int, int) 0x0001abb3   Thumb Code   208  qlandmarkmanagerengine_symbian_p.o(t._ZN5QListIN10QtMobility19QLandmarkCategoryIdEE18detach_helper_growEii)
    QList<QtMobility::QLandmarkCategoryId>::free(QListData::Data*) 0x0001ac93   Thumb Code    52  qlandmarkmanagerengine_symbian_p.o(t._ZN5QListIN10QtMobility19QLandmarkCategoryIdEE4freeEPN9QListData4DataE)
    QList<QtMobility::QLandmarkCategoryId>::clear() 0x0001acc7   Thumb Code    28  qlandmarkmanagerengine_symbian_p.o(t._ZN5QListIN10QtMobility19QLandmarkCategoryIdEE5clearEv)
    QList<QtMobility::QLandmarkCategoryId>::append(const QtMobility::QLandmarkCategoryId&) 0x0001aced   Thumb Code   114  qlandmarkmanagerengine_symbian_p.o(t._ZN5QListIN10QtMobility19QLandmarkCategoryIdEE6appendERKS1_)
    QList<QtMobility::QLandmarkCategoryId>::reserve(int) 0x0001ad73   Thumb Code    46  qlandmarkmanagerengine_symbian_p.o(t._ZN5QListIN10QtMobility19QLandmarkCategoryIdEE7reserveEi)
    QList<QtMobility::QLandmarkCategoryId>::node_copy(QList<QtMobility::QLandmarkCategoryId>::Node*, QList<QtMobility::QLandmarkCategoryId>::Node*, QList<QtMobility::QLandmarkCategoryId>::Node*) 0x0001ada1   Thumb Code    82  qlandmarkmanagerengine_symbian_p.o(t._ZN5QListIN10QtMobility19QLandmarkCategoryIdEE9node_copyEPNS2_4NodeES4_S4_)
    QList<QtMobility::QLandmarkCategoryId>::QList(const QList<QtMobility::QLandmarkCategoryId>&) 0x0001ae09   Thumb Code    36  qlandmarkmanagerengine_symbian_p.o(t._ZN5QListIN10QtMobility19QLandmarkCategoryIdEEC1ERKS2_)
    QList<QtMobility::QLandmarkCategoryId>::QList__sub_object(const QList<QtMobility::QLandmarkCategoryId>&) 0x0001ae09   Thumb Code     0  qlandmarkmanagerengine_symbian_p.o(t._ZN5QListIN10QtMobility19QLandmarkCategoryIdEEC1ERKS2_)
    QList<QtMobility::QLandmarkCategoryId>::QList() 0x0001ae2d   Thumb Code    18  qlandmarkmanagerengine_symbian_p.o(t._ZN5QListIN10QtMobility19QLandmarkCategoryIdEEC1Ev)
    QList<QtMobility::QLandmarkCategoryId>::QList__sub_object() 0x0001ae2d   Thumb Code     0  qlandmarkmanagerengine_symbian_p.o(t._ZN5QListIN10QtMobility19QLandmarkCategoryIdEEC1Ev)
    QList<QtMobility::QLandmarkCategoryId>::~QList() 0x0001ae45   Thumb Code    32  qlandmarkmanagerengine_symbian_p.o(t._ZN5QListIN10QtMobility19QLandmarkCategoryIdEED1Ev)
    QList<QtMobility::QLandmarkCategoryId>::~QList__sub_object() 0x0001ae45   Thumb Code     0  qlandmarkmanagerengine_symbian_p.o(t._ZN5QListIN10QtMobility19QLandmarkCategoryIdEED1Ev)
    QList<QtMobility::QLandmarkCategoryId>::operator =(const QList<QtMobility::QLandmarkCategoryId>&) 0x0001ae65   Thumb Code    64  qlandmarkmanagerengine_symbian_p.o(t._ZN5QListIN10QtMobility19QLandmarkCategoryIdEEaSERKS2_)
    QList<QtMobility::QLandmarkCategoryId>::operator [](int) 0x0001aea5   Thumb Code    42  qlandmarkutility.o(t._ZN5QListIN10QtMobility19QLandmarkCategoryIdEEixEi)
    QList<QtMobility::QLandmarkCategoryId>::operator <<(const QtMobility::QLandmarkCategoryId&) 0x0001aecf   Thumb Code    18  qlandmarkmanagerengine_symbian_p.o(t._ZN5QListIN10QtMobility19QLandmarkCategoryIdEElsERKS1_)
    QList<QtMobility::QLandmark>::detach_helper(int) 0x0001aee1   Thumb Code    94  qlandmarkmanagerengine_symbian_p.o(t._ZN5QListIN10QtMobility9QLandmarkEE13detach_helperEi)
    QList<QtMobility::QLandmark>::detach_helper() 0x0001af47   Thumb Code    16  qlandmarkmanagerengine_symbian_p.o(t._ZN5QListIN10QtMobility9QLandmarkEE13detach_helperEv)
    QList<QtMobility::QLandmark>::node_destruct(QList<QtMobility::QLandmark>::Node*, QList<QtMobility::QLandmark>::Node*) 0x0001af57   Thumb Code    36  qlandmarkmanagerengine_symbian_p.o(t._ZN5QListIN10QtMobility9QLandmarkEE13node_destructEPNS2_4NodeES4_)
    QList<QtMobility::QLandmark>::node_construct(QList<QtMobility::QLandmark>::Node*, const QtMobility::QLandmark&) 0x0001af7b   Thumb Code    34  qlandmarkmanagerengine_symbian_p.o(t._ZN5QListIN10QtMobility9QLandmarkEE14node_constructEPNS2_4NodeERKS1_)
    QList<QtMobility::QLandmark>::detach_helper_grow(int, int) 0x0001afab   Thumb Code   208  qlandmarkmanagerengine_symbian_p.o(t._ZN5QListIN10QtMobility9QLandmarkEE18detach_helper_growEii)
    QList<QtMobility::QLandmark>::free(QListData::Data*) 0x0001b08b   Thumb Code    52  qlandmarkmanagerengine_symbian_p.o(t._ZN5QListIN10QtMobility9QLandmarkEE4freeEPN9QListData4DataE)
    QList<QtMobility::QLandmark>::clear()    0x0001b0bf   Thumb Code    76  qlandmarkmanagerengine_symbian_p.o(t._ZN5QListIN10QtMobility9QLandmarkEE5clearEv)
    QList<QtMobility::QLandmark>::append(const QtMobility::QLandmark&) 0x0001b115   Thumb Code   106  qlandmarkmanagerengine_symbian_p.o(t._ZN5QListIN10QtMobility9QLandmarkEE6appendERKS1_)
    QList<QtMobility::QLandmark>::node_copy(QList<QtMobility::QLandmark>::Node*, QList<QtMobility::QLandmark>::Node*, QList<QtMobility::QLandmark>::Node*) 0x0001b193   Thumb Code    90  qlandmarkmanagerengine_symbian_p.o(t._ZN5QListIN10QtMobility9QLandmarkEE9node_copyEPNS2_4NodeES4_S4_)
    QList<QtMobility::QLandmark>::QList()    0x0001b205   Thumb Code    18  qlandmarkmanagerengine_symbian_p.o(t._ZN5QListIN10QtMobility9QLandmarkEEC1Ev)
    QList<QtMobility::QLandmark>::QList__sub_object() 0x0001b205   Thumb Code     0  qlandmarkmanagerengine_symbian_p.o(t._ZN5QListIN10QtMobility9QLandmarkEEC1Ev)
    QList<QtMobility::QLandmark>::~QList()   0x0001b21d   Thumb Code    32  qlandmarkmanagerengine_symbian_p.o(t._ZN5QListIN10QtMobility9QLandmarkEED1Ev)
    QList<QtMobility::QLandmark>::~QList__sub_object() 0x0001b21d   Thumb Code     0  qlandmarkmanagerengine_symbian_p.o(t._ZN5QListIN10QtMobility9QLandmarkEED1Ev)
    QList<int>::detach_helper_grow(int, int) 0x0001b23d   Thumb Code   204  qlandmarkmanagerenginefactory_symbian.o(t._ZN5QListIiE18detach_helper_growEii)
    QList<int>::free(QListData::Data*)       0x0001b319   Thumb Code    58  qlandmarkmanagerenginefactory_symbian.o(t._ZN5QListIiE4freeEPN9QListData4DataE)
    QList<int>::append(const int&)           0x0001b355   Thumb Code    94  qlandmarkmanagerenginefactory_symbian.o(t._ZN5QListIiE6appendERKi)
    QList<int>::node_copy(QList<int>::Node*, QList<int>::Node*, QList<int>::Node*) 0x0001b3c3   Thumb Code    46  qlandmarkmanagerenginefactory_symbian.o(t._ZN5QListIiE9node_copyEPNS0_4NodeES2_S2_)
    QList<int>::~QList()                     0x0001b3f1   Thumb Code    32  qlandmarkmanagerenginefactory_symbian.o(t._ZN5QListIiED1Ev)
    QList<int>::~QList__sub_object()         0x0001b3f1   Thumb Code     0  qlandmarkmanagerenginefactory_symbian.o(t._ZN5QListIiED1Ev)
    RArray<unsigned long>::Append(const unsigned long&) 0x0001b411   Thumb Code    16  qlandmarkmanagerengine_symbian_p.o(t._ZN6RArrayImE6AppendERKm)
    RArray<unsigned long>::AppendL(const unsigned long&) 0x0001b421   Thumb Code    22  qlandmarkmanagerengine_symbian_p.o(t._ZN6RArrayImE7AppendLERKm)
    RArray<unsigned long>::RArray()          0x0001b437   Thumb Code    16  qlandmarkmanagerengine_symbian_p.o(t._ZN6RArrayImEC1Ev)
    RArray<unsigned long>::RArray__sub_object() 0x0001b437   Thumb Code     0  qlandmarkmanagerengine_symbian_p.o(t._ZN6RArrayImEC1Ev)
    RArray<unsigned long>::operator [](int)  0x0001b447   Thumb Code    16  qlandmarkutility.o(t._ZN6RArrayImEixEi)
    QPointer<QObject>::~QPointer()           0x0001b457   Thumb Code    14  qlandmarkmanagerenginefactory_symbian.o(t._ZN8QPointerI7QObjectED1Ev)
    QPointer<QObject>::~QPointer__sub_object() 0x0001b457   Thumb Code     0  qlandmarkmanagerenginefactory_symbian.o(t._ZN8QPointerI7QObjectED1Ev)
    QtMobility::QLatin1Constant<(int)4>::operator QString() const 0x0001b465   Thumb Code    18  qlandmarkmanagerengine_symbian_p.o(t._ZNK10QtMobility15QLatin1ConstantILi4EEcv7QStringEv)
    RPointerArray<CLandmarkRequestData>::Count() const 0x0001b477   Thumb Code    12  qlandmarkrequesthandler.o(t._ZNK13RPointerArrayI20CLandmarkRequestDataE5CountEv)
    QForeachContainer<QList<QtMobility::QLandmarkId>>::condition() const 0x0001b483   Thumb Code    40  qlandmarkmanagerengine_symbian_p.o(t._ZNK17QForeachContainerI5QListIN10QtMobility11QLandmarkIdEEE9conditionEv)
    QMap<QString, QString>::mutableFindNode(QMapData::Node**, const QString&) const 0x0001b4ab   Thumb Code   116  qlandmarkmanagerengine_symbian_p.o(t._ZNK4QMapI7QStringS0_E15mutableFindNodeEPPN8QMapData4NodeERKS0_)
    QMap<QString, QString>::keys() const     0x0001b521   Thumb Code   110  qlandmarkmanagerenginefactory_symbian.o(t._ZNK4QMapI7QStringS0_E4keysEv)
    QMap<int, QtMobility::QLandmarkManager::Error>::mutableFindNode(QMapData::Node**, const int&) const 0x0001b59f   Thumb Code   108  qlandmarkmanagerengine_symbian_p.o(t._ZNK4QMapIiN10QtMobility16QLandmarkManager5ErrorEE15mutableFindNodeEPPN8QMapData4NodeERKi)
    QSet<QString>::constBegin() const        0x0001b60b   Thumb Code    30  qlandmarkmanagerengine_symbian_p.o(t._ZNK4QSetI7QStringE10constBeginEv)
    QSet<QString>::const_iterator::operator !=(const QSet<QString>::const_iterator&) const 0x0001b629   Thumb Code    20  qlandmarkmanagerengine_symbian_p.o(t._ZNK4QSetI7QStringE14const_iteratorneERKS2_)
    QSet<QString>::toList() const            0x0001b63d   Thumb Code   120  qlandmarkmanagerengine_symbian_p.o(t._ZNK4QSetI7QStringE6toListEv)
    QSet<QtMobility::QLandmarkId>::constBegin() const 0x0001b6bf   Thumb Code    30  qlandmarkmanagerengine_symbian_p.o(t._ZNK4QSetIN10QtMobility11QLandmarkIdEE10constBeginEv)
    QSet<QtMobility::QLandmarkId>::const_iterator::operator !=(const QSet<QtMobility::QLandmarkId>::const_iterator&) const 0x0001b6dd   Thumb Code    20  qlandmarkmanagerengine_symbian_p.o(t._ZNK4QSetIN10QtMobility11QLandmarkIdEE14const_iteratorneERKS3_)
    QSet<QtMobility::QLandmarkId>::toList() const 0x0001b6f1   Thumb Code   120  qlandmarkmanagerengine_symbian_p.o(t._ZNK4QSetIN10QtMobility11QLandmarkIdEE6toListEv)
    QHash<QString, QHashDummyValue>::findNode(const QString&, unsigned*) const 0x0001b773   Thumb Code   116  qlandmarkmanagerengine_symbian_p.o(t._ZNK5QHashI7QString15QHashDummyValueE8findNodeERKS0_Pj)
    QHash<QtMobility::QLandmarkId, QHashDummyValue>::findNode(const QtMobility::QLandmarkId&, unsigned*) const 0x0001b7e7   Thumb Code   116  qlandmarkmanagerengine_symbian_p.o(t._ZNK5QHashIN10QtMobility11QLandmarkIdE15QHashDummyValueE8findNodeERKS1_Pj)
    QList<QString>::at(int) const            0x0001b85b   Thumb Code    22  qlandmarkmanagerengine_symbian_p.o(t._ZNK5QListI7QStringE2atEi)
    QList<QString>::size() const             0x0001b871   Thumb Code    12  qlandmarkmanagerengine_symbian_p.o(t._ZNK5QListI7QStringE4sizeEv)
    QList<QtMobility::QLandmarkId>::at(int) const 0x0001b87d   Thumb Code    22  qlandmarkmanagerengine_symbian_p.o(t._ZNK5QListIN10QtMobility11QLandmarkIdEE2atEi)
    QList<QtMobility::QLandmarkId>::mid(int, int) const 0x0001b893   Thumb Code   152  qlandmarkmanagerengine_symbian_p.o(t._ZNK5QListIN10QtMobility11QLandmarkIdEE3midEii)
    QList<QtMobility::QLandmarkId>::size() const 0x0001b93b   Thumb Code    12  qlandmarkmanagerengine_symbian_p.o(t._ZNK5QListIN10QtMobility11QLandmarkIdEE4sizeEv)
    QList<QtMobility::QLandmarkId>::count() const 0x0001b947   Thumb Code    12  qlandmarkmanagerengine_symbian_p.o(t._ZNK5QListIN10QtMobility11QLandmarkIdEE5countEv)
    QList<QtMobility::QLandmarkId>::toSet() const 0x0001b953   Thumb Code   138  qlandmarkmanagerengine_symbian_p.o(t._ZNK5QListIN10QtMobility11QLandmarkIdEE5toSetEv)
    QList<QtMobility::QLandmarkId>::isEmpty() const 0x0001b9e7   Thumb Code    12  qlandmarkmanagerengine_symbian_p.o(t._ZNK5QListIN10QtMobility11QLandmarkIdEE7isEmptyEv)
    QList<QtMobility::QLandmarkFilter>::at(int) const 0x0001b9f3   Thumb Code    22  qlandmarkmanagerengine_symbian_p.o(t._ZNK5QListIN10QtMobility15QLandmarkFilterEE2atEi)
    QList<QtMobility::QLandmarkFilter>::size() const 0x0001ba09   Thumb Code    12  qlandmarkmanagerengine_symbian_p.o(t._ZNK5QListIN10QtMobility15QLandmarkFilterEE4sizeEv)
    QList<QtMobility::QLandmarkCategory>::mid(int, int) const 0x0001ba15   Thumb Code   152  qlandmarkmanagerengine_symbian_p.o(t._ZNK5QListIN10QtMobility17QLandmarkCategoryEE3midEii)
    QList<QtMobility::QLandmarkCategory>::size() const 0x0001babd   Thumb Code    12  qlandmarkmanagerengine_symbian_p.o(t._ZNK5QListIN10QtMobility17QLandmarkCategoryEE4sizeEv)
    QList<QtMobility::QLandmarkSortOrder>::at(int) const 0x0001bac9   Thumb Code    22  qlandmarkmanagerengine_symbian_p.o(t._ZNK5QListIN10QtMobility18QLandmarkSortOrderEE2atEi)
    QList<QtMobility::QLandmarkSortOrder>::isEmpty() const 0x0001badf   Thumb Code    12  qlandmarkmanagerengine_symbian_p.o(t._ZNK5QListIN10QtMobility18QLandmarkSortOrderEE7isEmptyEv)
    QList<QtMobility::QLandmarkCategoryId>::at(int) const 0x0001baeb   Thumb Code    22  qlandmarkutility.o(t._ZNK5QListIN10QtMobility19QLandmarkCategoryIdEE2atEi)
    QList<QtMobility::QLandmarkCategoryId>::mid(int, int) const 0x0001bb01   Thumb Code   152  qlandmarkmanagerengine_symbian_p.o(t._ZNK5QListIN10QtMobility19QLandmarkCategoryIdEE3midEii)
    QList<QtMobility::QLandmarkCategoryId>::size() const 0x0001bba9   Thumb Code    12  qlandmarkmanagerengine_symbian_p.o(t._ZNK5QListIN10QtMobility19QLandmarkCategoryIdEE4sizeEv)
    QList<QtMobility::QLandmark>::at(int) const 0x0001bbb5   Thumb Code    22  qlandmarkmanagerengine_symbian_p.o(t._ZNK5QListIN10QtMobility9QLandmarkEE2atEi)
    QList<QtMobility::QLandmark>::size() const 0x0001bbcb   Thumb Code    12  qlandmarkmanagerengine_symbian_p.o(t._ZNK5QListIN10QtMobility9QLandmarkEE4sizeEv)
    QList<QtMobility::QLandmark>::count() const 0x0001bbd7   Thumb Code    12  qlandmarkmanagerengine_symbian_p.o(t._ZNK5QListIN10QtMobility9QLandmarkEE5countEv)
    RArray<unsigned long>::Count() const     0x0001bbe3   Thumb Code    12  qlandmarkutility.o(t._ZNK6RArrayImE5CountEv)
    QLandmarkManagerEngineFactorySymbian::staticMetaObject 0x0001fdec   Data          16  moc_qlandmarkmanagerenginefactory_symbian.o(.constdata)
    QLandmarkManagerEngineSymbian::staticMetaObject 0x0001fe58   Data          16  moc_qlandmarkmanagerengine_symbian.o(.constdata)
    stlp_priv::_Integer_limits<signed char, (signed char)-128, (signed char)127, (int)-1, (bool)1>::digits 0x000205cc   Data           4  moc_qlandmarkmanagerenginefactory_symbian.o(.constdata__ZN9stlp_priv15_Integer_limitsIaLan128ELa127ELin1ELb1EE6digitsE)
    stlp_priv::_Integer_limits<bool, (bool)0, (bool)1, (int)1, (bool)0>::digits 0x000205d0   Data           4  moc_qlandmarkmanagerenginefactory_symbian.o(.constdata__ZN9stlp_priv15_Integer_limitsIbLb0ELb1ELi1ELb0EE6digitsE)
    stlp_priv::_Integer_limits<char, (char)128, (char)127, (int)-1, (bool)1>::digits 0x000205d4   Data           4  moc_qlandmarkmanagerenginefactory_symbian.o(.constdata__ZN9stlp_priv15_Integer_limitsIcLc128ELc127ELin1ELb1EE6digitsE)
    stlp_priv::_Integer_limits<unsigned char, (unsigned char)0, (unsigned char)255, (int)-1, (bool)1>::digits 0x000205d8   Data           4  moc_qlandmarkmanagerenginefactory_symbian.o(.constdata__ZN9stlp_priv15_Integer_limitsIhLh0ELh255ELin1ELb1EE6digitsE)
    stlp_priv::_Integer_limits<int, (int)-2147483648, (int)2147483647, (int)-1, (bool)1>::digits 0x000205dc   Data           4  moc_qlandmarkmanagerenginefactory_symbian.o(.constdata__ZN9stlp_priv15_Integer_limitsIiLin2147483648ELi2147483647ELin1ELb1EE6digitsE)
    stlp_priv::_Integer_limits<int, (int)-2147483648, (int)2147483647, (int)-1, (bool)1>::is_signed 0x000205e0   Data           1  moc_qlandmarkmanagerenginefactory_symbian.o(.constdata__ZN9stlp_priv15_Integer_limitsIiLin2147483648ELi2147483647ELin1ELb1EE9is_signedE)
    stlp_priv::_Integer_limits<unsigned, (unsigned)0, (unsigned)4294967295, (int)-1, (bool)1>::digits 0x000205e4   Data           4  moc_qlandmarkmanagerenginefactory_symbian.o(.constdata__ZN9stlp_priv15_Integer_limitsIjLj0ELj4294967295ELin1ELb1EE6digitsE)
    stlp_priv::_Integer_limits<long, (long)-2147483648, (long)2147483647, (int)-1, (bool)1>::digits 0x000205e8   Data           4  moc_qlandmarkmanagerenginefactory_symbian.o(.constdata__ZN9stlp_priv15_Integer_limitsIlLln2147483648ELl2147483647ELin1ELb1EE6digitsE)
    stlp_priv::_Integer_limits<unsigned long, (unsigned long)0, (unsigned long)4294967295, (int)-1, (bool)1>::digits 0x000205ec   Data           4  moc_qlandmarkmanagerenginefactory_symbian.o(.constdata__ZN9stlp_priv15_Integer_limitsImLm0ELm4294967295ELin1ELb1EE6digitsE)
    stlp_priv::_Integer_limits<short, (short)-32768, (short)32767, (int)-1, (bool)1>::digits 0x000205f0   Data           4  moc_qlandmarkmanagerenginefactory_symbian.o(.constdata__ZN9stlp_priv15_Integer_limitsIsLsn32768ELs32767ELin1ELb1EE6digitsE)
    stlp_priv::_Integer_limits<unsigned short, (unsigned short)0, (unsigned short)65535, (int)-1, (bool)1>::digits 0x000205f4   Data           4  moc_qlandmarkmanagerenginefactory_symbian.o(.constdata__ZN9stlp_priv15_Integer_limitsItLt0ELt65535ELin1ELb1EE6digitsE)
    stlp_priv::_Integer_limits<wchar_t, (wchar_t)0, (wchar_t)65535, (int)-1, (bool)1>::digits 0x000205f8   Data           4  moc_qlandmarkmanagerenginefactory_symbian.o(.constdata__ZN9stlp_priv15_Integer_limitsIwLw0ELw65535ELin1ELb1EE6digitsE)
    stlp_priv::_Integer_limits<long long, (long long)-9223372036854775808, (long long)9223372036854775807, (int)-1, (bool)1>::digits 0x000205fc   Data           4  moc_qlandmarkmanagerenginefactory_symbian.o(.constdata__ZN9stlp_priv15_Integer_limitsIxLxn9223372036854775808ELx9223372036854775807ELin1ELb1EE6digitsE)
    stlp_priv::_Integer_limits<unsigned long long, (unsigned long long)0, (unsigned long long)18446744073709551615, (int)-1, (bool)1>::digits 0x00020600   Data           4  moc_qlandmarkmanagerenginefactory_symbian.o(.constdata__ZN9stlp_priv15_Integer_limitsIyLy0ELy18446744073709551615ELin1ELb1EE6digitsE)
    typeinfo for CLandmarkRequestAO          0x00020604   Data          12  qlandmarkrequesthandler.o(.constdata__ZTI18CLandmarkRequestAO)
    typeinfo for CLandmarkRequestData        0x00020610   Data          12  qlandmarkrequesthandler.o(.constdata__ZTI20CLandmarkRequestData)
    typeinfo for LandmarkEventObserver       0x0002061c   Data           8  moc_qlandmarkmanagerengine_symbian.o(.constdata__ZTI21LandmarkEventObserver)
    typeinfo for CLandmarkDbEventHandler     0x00020624   Data          12  qlandmarkdbeventhandler.o(.constdata__ZTI23CLandmarkDbEventHandler)
    typeinfo for MLandmarkDbEventObserver    0x00020630   Data           8  qlandmarkmanagerengine_symbian_p.o(.constdata__ZTI24MLandmarkDbEventObserver)
    typeinfo for MLandmarkRequestObserver    0x00020638   Data           8  qlandmarkmanagerengine_symbian_p.o(.constdata__ZTI24MLandmarkRequestObserver)
    typeinfo for QLandmarkManagerEngineSymbian 0x00020640   Data          32  moc_qlandmarkmanagerengine_symbian.o(.constdata__ZTI29QLandmarkManagerEngineSymbian)
    typeinfo for LandmarkManagerEngineSymbianPrivate 0x00020660   Data          32  qlandmarkmanagerengine_symbian_p.o(.constdata__ZTI35LandmarkManagerEngineSymbianPrivate)
    typeinfo for QLandmarkManagerEngineFactorySymbian 0x00020680   Data          32  moc_qlandmarkmanagerenginefactory_symbian.o(.constdata__ZTI36QLandmarkManagerEngineFactorySymbian)
    typeinfo name for CLandmarkRequestAO     0x000206a0   Data          21  qlandmarkrequesthandler.o(.constdata__ZTS18CLandmarkRequestAO)
    typeinfo name for CLandmarkRequestData   0x000206b5   Data          23  qlandmarkrequesthandler.o(.constdata__ZTS20CLandmarkRequestData)
    typeinfo name for LandmarkEventObserver  0x000206cc   Data          24  moc_qlandmarkmanagerengine_symbian.o(.constdata__ZTS21LandmarkEventObserver)
    typeinfo name for CLandmarkDbEventHandler 0x000206e4   Data          26  qlandmarkdbeventhandler.o(.constdata__ZTS23CLandmarkDbEventHandler)
    typeinfo name for MLandmarkDbEventObserver 0x000206fe   Data          27  qlandmarkmanagerengine_symbian_p.o(.constdata__ZTS24MLandmarkDbEventObserver)
    typeinfo name for MLandmarkRequestObserver 0x00020719   Data          27  qlandmarkmanagerengine_symbian_p.o(.constdata__ZTS24MLandmarkRequestObserver)
    typeinfo name for QLandmarkManagerEngineSymbian 0x00020734   Data          32  moc_qlandmarkmanagerengine_symbian.o(.constdata__ZTS29QLandmarkManagerEngineSymbian)
    typeinfo name for LandmarkManagerEngineSymbianPrivate 0x00020754   Data          38  qlandmarkmanagerengine_symbian_p.o(.constdata__ZTS35LandmarkManagerEngineSymbianPrivate)
    typeinfo name for QLandmarkManagerEngineFactorySymbian 0x0002077a   Data          39  moc_qlandmarkmanagerenginefactory_symbian.o(.constdata__ZTS36QLandmarkManagerEngineFactorySymbian)
    vtable for CLandmarkRequestAO            0x000207a4   Data          32  qlandmarkrequesthandler.o(.constdata__ZTV18CLandmarkRequestAO)
    vtable for CLandmarkRequestData          0x000207c4   Data          20  qlandmarkrequesthandler.o(.constdata__ZTV20CLandmarkRequestData)
    vtable for LandmarkEventObserver         0x000207d8   Data          12  qlandmarkmanagerengine_symbian.o(.constdata__ZTV21LandmarkEventObserver)
    vtable for CLandmarkDbEventHandler       0x000207e4   Data          32  qlandmarkdbeventhandler.o(.constdata__ZTV23CLandmarkDbEventHandler)
    vtable for MLandmarkDbEventObserver      0x00020804   Data          12  qlandmarkmanagerengine_symbian_p.o(.constdata__ZTV24MLandmarkDbEventObserver)
    vtable for MLandmarkRequestObserver      0x00020810   Data          16  qlandmarkmanagerengine_symbian_p.o(.constdata__ZTV24MLandmarkRequestObserver)
    vtable for QLandmarkManagerEngineSymbian 0x00020820   Data         196  moc_qlandmarkmanagerengine_symbian.o(.constdata__ZTV29QLandmarkManagerEngineSymbian)
    vtable for LandmarkManagerEngineSymbianPrivate 0x000208e4   Data          32  qlandmarkmanagerengine_symbian_p.o(.constdata__ZTV35LandmarkManagerEngineSymbianPrivate)
    vtable for QLandmarkManagerEngineFactorySymbian 0x00020904   Data          96  moc_qlandmarkmanagerenginefactory_symbian.o(.constdata__ZTV36QLandmarkManagerEngineFactorySymbian)
    SHT$$INIT_ARRAY$$Base                    0x00020964   Number         0  qlandmarkmanagerengine_symbian_p.o(.init_array)
    .ARM.exidx$$Base                         0x00020968   Number         0  ucppinit.o(.ARM.exidx)
    SHT$$INIT_ARRAY$$Limit                   0x00020968   Data           0  qlandmarkmanagerengine_symbian_p.o(.init_array)
    .ARM.exidx$$Limit                        0x00021648   Number         0  qlandmarkmanagerengine_symbian_p.o(.ARM.exidx)
    Image$$ER_RO$$Limit                      0x00021648   Number         0  anon$$obj.o(linker$$defined$$symbols)
    __dso_handle                             0x00400008   Data           4  ucppfini.o(.data)
    std::_Atomic_swap_struct<(int)1>::_S_swap_lock 0x0040000c   Data          12  moc_qlandmarkmanagerenginefactory_symbian.o(.data__ZNSt19_Atomic_swap_structILi1EE12_S_swap_lockE)
    LandmarkManagerEngineSymbianPrivate::m_DbEventHandler 0x00400018   Data          84  qlandmarkmanagerengine_symbian_p.o(.bss)
    LandmarkManagerEngineSymbianPrivate::m_RequestHandler 0x0040006c   Data          32  qlandmarkmanagerengine_symbian_p.o(.bss)
    dtor_rec                                 0x0040008c   Data        2048  ucppfini.o(.bss)

