ARM Linker, RVCT2.2 [Build 686]

================================================================================

Image Symbol Table

    Local Symbols

    Symbol Name                              Value     Ov Type        Size  Object(Section)

    ../../unhosted.s                         0x00000000   Number         0  switch8.o ABSOLUTE
    M:\\epoc32\\build\\euser\\c_e18a23aea4fd210f\\edll_lib\\armv5\\udeb\\uc_dll_.cpp 0x00000000   Number         0  uc_dll_.o ABSOLUTE
    M:\\sf\\os\\kernelhwsrv\\kernel\\eka\\compsupp\\rvct\\ucppinit.cpp 0x00000000   Number         0  ucppinit.o ABSOLUTE
    M:\epoc32\build\euser\c_e18a23aea4fd210f\edll_lib\armv5\udeb\uc_dll_.cpp 0x00000000   Number         0  uc_dll_.o ABSOLUTE
    M:\sf\os\kernelhwsrv\kernel\eka\compsupp\rvct\dllexp.cpp 0x00000000   Number         0  dllexp.o ABSOLUTE
    M:\sf\os\kernelhwsrv\kernel\eka\compsupp\rvct\ucppfini.cpp 0x00000000   Number         0  ucppfini.o ABSOLUTE
    M:\sf\os\kernelhwsrv\kernel\eka\compsupp\rvct\ucppinit.cpp 0x00000000   Number         0  ucppinit.o ABSOLUTE
    M:\sf\os\kernelhwsrv\kernel\eka\euser\epoc\arm\uc_dll.cpp 0x00000000   Number         0  uc_dll.o ABSOLUTE
    S:\sf\mw\qtmobility\build\Release\QtLocation\moc\moc_qgeoareamonitor.cpp 0x00000000   Number         0  moc_qgeoareamonitor.o ABSOLUTE
    S:\sf\mw\qtmobility\src\location\landmarks\qlandmark.cpp 0x00000000   Number         0  qlandmark.o ABSOLUTE
    S:\sf\mw\qtmobility\src\location\landmarks\qlandmarkabstractrequest.cpp 0x00000000   Number         0  qlandmarkabstractrequest.o ABSOLUTE
    S:\sf\mw\qtmobility\src\location\landmarks\qlandmarkattributefilter.cpp 0x00000000   Number         0  qlandmarkattributefilter.o ABSOLUTE
    S:\sf\mw\qtmobility\src\location\landmarks\qlandmarkboxfilter.cpp 0x00000000   Number         0  qlandmarkboxfilter.o ABSOLUTE
    S:\sf\mw\qtmobility\src\location\landmarks\qlandmarkcategory.cpp 0x00000000   Number         0  qlandmarkcategory.o ABSOLUTE
    S:\sf\mw\qtmobility\src\location\landmarks\qlandmarkcategoryfetchbyidrequest.cpp 0x00000000   Number         0  qlandmarkcategoryfetchbyidrequest.o ABSOLUTE
    S:\sf\mw\qtmobility\src\location\landmarks\qlandmarkcategoryfetchrequest.cpp 0x00000000   Number         0  qlandmarkcategoryfetchrequest.o ABSOLUTE
    S:\sf\mw\qtmobility\src\location\landmarks\qlandmarkcategoryfilter.cpp 0x00000000   Number         0  qlandmarkcategoryfilter.o ABSOLUTE
    S:\sf\mw\qtmobility\src\location\landmarks\qlandmarkcategoryid.cpp 0x00000000   Number         0  qlandmarkcategoryid.o ABSOLUTE
    S:\sf\mw\qtmobility\src\location\landmarks\qlandmarkcategoryidfetchrequest.cpp 0x00000000   Number         0  qlandmarkcategoryidfetchrequest.o ABSOLUTE
    S:\sf\mw\qtmobility\src\location\landmarks\qlandmarkcategoryremoverequest.cpp 0x00000000   Number         0  qlandmarkcategoryremoverequest.o ABSOLUTE
    S:\sf\mw\qtmobility\src\location\landmarks\qlandmarkcategorysaverequest.cpp 0x00000000   Number         0  qlandmarkcategorysaverequest.o ABSOLUTE
    S:\sf\mw\qtmobility\src\location\landmarks\qlandmarkexportrequest.cpp 0x00000000   Number         0  qlandmarkexportrequest.o ABSOLUTE
    S:\sf\mw\qtmobility\src\location\landmarks\qlandmarkfetchbyidrequest.cpp 0x00000000   Number         0  qlandmarkfetchbyidrequest.o ABSOLUTE
    S:\sf\mw\qtmobility\src\location\landmarks\qlandmarkfetchrequest.cpp 0x00000000   Number         0  qlandmarkfetchrequest.o ABSOLUTE
    S:\sf\mw\qtmobility\src\location\landmarks\qlandmarkfilter.cpp 0x00000000   Number         0  qlandmarkfilter.o ABSOLUTE
    S:\sf\mw\qtmobility\src\location\landmarks\qlandmarkid.cpp 0x00000000   Number         0  qlandmarkid.o ABSOLUTE
    S:\sf\mw\qtmobility\src\location\landmarks\qlandmarkidfetchrequest.cpp 0x00000000   Number         0  qlandmarkidfetchrequest.o ABSOLUTE
    S:\sf\mw\qtmobility\src\location\landmarks\qlandmarkidfilter.cpp 0x00000000   Number         0  qlandmarkidfilter.o ABSOLUTE
    S:\sf\mw\qtmobility\src\location\landmarks\qlandmarkimportrequest.cpp 0x00000000   Number         0  qlandmarkimportrequest.o ABSOLUTE
    S:\sf\mw\qtmobility\src\location\landmarks\qlandmarkintersectionfilter.cpp 0x00000000   Number         0  qlandmarkintersectionfilter.o ABSOLUTE
    S:\sf\mw\qtmobility\src\location\landmarks\qlandmarkmanager.cpp 0x00000000   Number         0  qlandmarkmanager.o ABSOLUTE
    S:\sf\mw\qtmobility\src\location\landmarks\qlandmarkmanager_p.cpp 0x00000000   Number         0  qlandmarkmanager_p.o ABSOLUTE
    S:\sf\mw\qtmobility\src\location\landmarks\qlandmarkmanagerengine.cpp 0x00000000   Number         0  qlandmarkmanagerengine.o ABSOLUTE
    S:\sf\mw\qtmobility\src\location\landmarks\qlandmarkmanagerenginefactory.cpp 0x00000000   Number         0  qlandmarkmanagerenginefactory.o ABSOLUTE
    S:\sf\mw\qtmobility\src\location\landmarks\qlandmarknamefilter.cpp 0x00000000   Number         0  qlandmarknamefilter.o ABSOLUTE
    S:\sf\mw\qtmobility\src\location\landmarks\qlandmarknamesort.cpp 0x00000000   Number         0  qlandmarknamesort.o ABSOLUTE
    S:\sf\mw\qtmobility\src\location\landmarks\qlandmarkproximityfilter.cpp 0x00000000   Number         0  qlandmarkproximityfilter.o ABSOLUTE
    S:\sf\mw\qtmobility\src\location\landmarks\qlandmarkremoverequest.cpp 0x00000000   Number         0  qlandmarkremoverequest.o ABSOLUTE
    S:\sf\mw\qtmobility\src\location\landmarks\qlandmarksaverequest.cpp 0x00000000   Number         0  qlandmarksaverequest.o ABSOLUTE
    S:\sf\mw\qtmobility\src\location\landmarks\qlandmarksortorder.cpp 0x00000000   Number         0  qlandmarksortorder.o ABSOLUTE
    S:\sf\mw\qtmobility\src\location\landmarks\qlandmarkunionfilter.cpp 0x00000000   Number         0  qlandmarkunionfilter.o ABSOLUTE
    S:\sf\mw\qtmobility\src\location\maps\qgeomaneuver.cpp 0x00000000   Number         0  qgeomaneuver.o ABSOLUTE
    S:\sf\mw\qtmobility\src\location\maps\qgeomapcircleobject.cpp 0x00000000   Number         0  qgeomapcircleobject.o ABSOLUTE
    S:\sf\mw\qtmobility\src\location\maps\qgeomapdata.cpp 0x00000000   Number         0  qgeomapdata.o ABSOLUTE
    S:\sf\mw\qtmobility\src\location\maps\qgeomapgroupobject.cpp 0x00000000   Number         0  qgeomapgroupobject.o ABSOLUTE
    S:\sf\mw\qtmobility\src\location\maps\qgeomapobject.cpp 0x00000000   Number         0  qgeomapobject.o ABSOLUTE
    S:\sf\mw\qtmobility\src\location\maps\qgeomapobjectinfo.cpp 0x00000000   Number         0  qgeomapobjectinfo.o ABSOLUTE
    S:\sf\mw\qtmobility\src\location\maps\qgeomapoverlay.cpp 0x00000000   Number         0  qgeomapoverlay.o ABSOLUTE
    S:\sf\mw\qtmobility\src\location\maps\qgeomappingmanager.cpp 0x00000000   Number         0  qgeomappingmanager.o ABSOLUTE
    S:\sf\mw\qtmobility\src\location\maps\qgeomappingmanagerengine.cpp 0x00000000   Number         0  qgeomappingmanagerengine.o ABSOLUTE
    S:\sf\mw\qtmobility\src\location\maps\qgeomappixmapobject.cpp 0x00000000   Number         0  qgeomappixmapobject.o ABSOLUTE
    S:\sf\mw\qtmobility\src\location\maps\qgeomappolygonobject.cpp 0x00000000   Number         0  qgeomappolygonobject.o ABSOLUTE
    S:\sf\mw\qtmobility\src\location\maps\qgeomappolylineobject.cpp 0x00000000   Number         0  qgeomappolylineobject.o ABSOLUTE
    S:\sf\mw\qtmobility\src\location\maps\qgeomaprectangleobject.cpp 0x00000000   Number         0  qgeomaprectangleobject.o ABSOLUTE
    S:\sf\mw\qtmobility\src\location\maps\qgeomaprouteobject.cpp 0x00000000   Number         0  qgeomaprouteobject.o ABSOLUTE
    S:\sf\mw\qtmobility\src\location\maps\qgeomaptextobject.cpp 0x00000000   Number         0  qgeomaptextobject.o ABSOLUTE
    S:\sf\mw\qtmobility\src\location\maps\qgeoroute.cpp 0x00000000   Number         0  qgeoroute.o ABSOLUTE
    S:\sf\mw\qtmobility\src\location\maps\qgeoroutereply.cpp 0x00000000   Number         0  qgeoroutereply.o ABSOLUTE
    S:\sf\mw\qtmobility\src\location\maps\qgeorouterequest.cpp 0x00000000   Number         0  qgeorouterequest.o ABSOLUTE
    S:\sf\mw\qtmobility\src\location\maps\qgeoroutesegment.cpp 0x00000000   Number         0  qgeoroutesegment.o ABSOLUTE
    S:\sf\mw\qtmobility\src\location\maps\qgeoroutingmanager.cpp 0x00000000   Number         0  qgeoroutingmanager.o ABSOLUTE
    S:\sf\mw\qtmobility\src\location\maps\qgeoroutingmanagerengine.cpp 0x00000000   Number         0  qgeoroutingmanagerengine.o ABSOLUTE
    S:\sf\mw\qtmobility\src\location\maps\qgeosearchmanager.cpp 0x00000000   Number         0  qgeosearchmanager.o ABSOLUTE
    S:\sf\mw\qtmobility\src\location\maps\qgeosearchmanagerengine.cpp 0x00000000   Number         0  qgeosearchmanagerengine.o ABSOLUTE
    S:\sf\mw\qtmobility\src\location\maps\qgeosearchreply.cpp 0x00000000   Number         0  qgeosearchreply.o ABSOLUTE
    S:\sf\mw\qtmobility\src\location\maps\qgeoserviceprovider.cpp 0x00000000   Number         0  qgeoserviceprovider.o ABSOLUTE
    S:\sf\mw\qtmobility\src\location\maps\qgeoserviceproviderfactory.cpp 0x00000000   Number         0  qgeoserviceproviderfactory.o ABSOLUTE
    S:\sf\mw\qtmobility\src\location\maps\qgraphicsgeomap.cpp 0x00000000   Number         0  qgraphicsgeomap.o ABSOLUTE
    S:\sf\mw\qtmobility\src\location\maps\tiled\qgeotiledmapcircleobjectinfo_p.cpp 0x00000000   Number         0  qgeotiledmapcircleobjectinfo_p.o ABSOLUTE
    S:\sf\mw\qtmobility\src\location\maps\tiled\qgeotiledmapdata.cpp 0x00000000   Number         0  qgeotiledmapdata.o ABSOLUTE
    S:\sf\mw\qtmobility\src\location\maps\tiled\qgeotiledmapgroupobjectinfo_p.cpp 0x00000000   Number         0  qgeotiledmapgroupobjectinfo_p.o ABSOLUTE
    S:\sf\mw\qtmobility\src\location\maps\tiled\qgeotiledmapobjectinfo_p.cpp 0x00000000   Number         0  qgeotiledmapobjectinfo_p.o ABSOLUTE
    S:\sf\mw\qtmobility\src\location\maps\tiled\qgeotiledmappingmanagerengine.cpp 0x00000000   Number         0  qgeotiledmappingmanagerengine.o ABSOLUTE
    S:\sf\mw\qtmobility\src\location\maps\tiled\qgeotiledmappixmapobjectinfo_p.cpp 0x00000000   Number         0  qgeotiledmappixmapobjectinfo_p.o ABSOLUTE
    S:\sf\mw\qtmobility\src\location\maps\tiled\qgeotiledmappolygonobjectinfo_p.cpp 0x00000000   Number         0  qgeotiledmappolygonobjectinfo_p.o ABSOLUTE
    S:\sf\mw\qtmobility\src\location\maps\tiled\qgeotiledmappolylineobjectinfo_p.cpp 0x00000000   Number         0  qgeotiledmappolylineobjectinfo_p.o ABSOLUTE
    S:\sf\mw\qtmobility\src\location\maps\tiled\qgeotiledmaprectangleobjectinfo_p.cpp 0x00000000   Number         0  qgeotiledmaprectangleobjectinfo_p.o ABSOLUTE
    S:\sf\mw\qtmobility\src\location\maps\tiled\qgeotiledmapreply.cpp 0x00000000   Number         0  qgeotiledmapreply.o ABSOLUTE
    S:\sf\mw\qtmobility\src\location\maps\tiled\qgeotiledmaprequest.cpp 0x00000000   Number         0  qgeotiledmaprequest.o ABSOLUTE
    S:\sf\mw\qtmobility\src\location\maps\tiled\qgeotiledmaprouteobjectinfo_p.cpp 0x00000000   Number         0  qgeotiledmaprouteobjectinfo_p.o ABSOLUTE
    S:\sf\mw\qtmobility\src\location\maps\tiled\qgeotiledmaptextobjectinfo_p.cpp 0x00000000   Number         0  qgeotiledmaptextobjectinfo_p.o ABSOLUTE
    S:\sf\mw\qtmobility\src\location\qgeoaddress.cpp 0x00000000   Number         0  qgeoaddress.o ABSOLUTE
    S:\sf\mw\qtmobility\src\location\qgeoareamonitor.cpp 0x00000000   Number         0  qgeoareamonitor.o ABSOLUTE
    S:\sf\mw\qtmobility\src\location\qgeoareamonitor_s60.cpp 0x00000000   Number         0  qgeoareamonitor_s60.o ABSOLUTE
    S:\sf\mw\qtmobility\src\location\qgeoboundingarea.cpp 0x00000000   Number         0  qgeoboundingarea.o ABSOLUTE
    S:\sf\mw\qtmobility\src\location\qgeoboundingbox.cpp 0x00000000   Number         0  qgeoboundingbox.o ABSOLUTE
    S:\sf\mw\qtmobility\src\location\qgeoboundingcircle.cpp 0x00000000   Number         0  qgeoboundingcircle.o ABSOLUTE
    S:\sf\mw\qtmobility\src\location\qgeocoordinate.cpp 0x00000000   Number         0  qgeocoordinate.o ABSOLUTE
    S:\sf\mw\qtmobility\src\location\qgeoplace.cpp 0x00000000   Number         0  qgeoplace.o ABSOLUTE
    S:\sf\mw\qtmobility\src\location\qgeopositioninfo.cpp 0x00000000   Number         0  qgeopositioninfo.o ABSOLUTE
    S:\sf\mw\qtmobility\src\location\qgeopositioninfosource.cpp 0x00000000   Number         0  qgeopositioninfosource.o ABSOLUTE
    S:\sf\mw\qtmobility\src\location\qgeopositioninfosource_s60.cpp 0x00000000   Number         0  qgeopositioninfosource_s60.o ABSOLUTE
    S:\sf\mw\qtmobility\src\location\qgeosatelliteinfo.cpp 0x00000000   Number         0  qgeosatelliteinfo.o ABSOLUTE
    S:\sf\mw\qtmobility\src\location\qgeosatelliteinfosource.cpp 0x00000000   Number         0  qgeosatelliteinfosource.o ABSOLUTE
    S:\sf\mw\qtmobility\src\location\qgeosatelliteinfosource_s60.cpp 0x00000000   Number         0  qgeosatelliteinfosource_s60.o ABSOLUTE
    S:\sf\mw\qtmobility\src\location\qlocationutils.cpp 0x00000000   Number         0  qlocationutils.o ABSOLUTE
    S:\sf\mw\qtmobility\src\location\qmlbackendao_s60.cpp 0x00000000   Number         0  qmlbackendao_s60.o ABSOLUTE
    S:\sf\mw\qtmobility\src\location\qmlbackendmonitorao_s60.cpp 0x00000000   Number         0  qmlbackendmonitorao_s60.o ABSOLUTE
    S:\sf\mw\qtmobility\src\location\qmlbackendmonitorcreatetriggerao_s60.cpp 0x00000000   Number         0  qmlbackendmonitorcreatetriggerao_s60.o ABSOLUTE
    S:\sf\mw\qtmobility\src\location\qmlbackendmonitorinfo_s60.cpp 0x00000000   Number         0  qmlbackendmonitorinfo_s60.o ABSOLUTE
    S:\sf\mw\qtmobility\src\location\qmlbackendtriggerchangeao_s60.cpp 0x00000000   Number         0  qmlbackendtriggerchangeao_s60.o ABSOLUTE
    S:\sf\mw\qtmobility\src\location\qnmeapositioninfosource.cpp 0x00000000   Number         0  qnmeapositioninfosource.o ABSOLUTE
    .emb_text                                0x00008000   Section       40  uc_dll_.o(.emb_text)
    Symbian$$eit_base                        0x00008014   Data           4  uc_dll_.o(.emb_text)
    Symbian$$eit_limit                       0x00008018   Data           4  uc_dll_.o(.emb_text)
    Symbian$$code_seg_base                   0x0000801c   Data           4  uc_dll_.o(.emb_text)
    Symbian$$code_seg_limit                  0x00008020   Data           4  uc_dll_.o(.emb_text)
    Symbian$$reserved                        0x00008024   Data           4  uc_dll_.o(.emb_text)
    .emb_text                                0x00008028   Section       52  ucppinit.o(.emb_text)
    loop                                     0x0000803c   ARM Code       0  ucppinit.o(.emb_text)
    ret                                      0x00008044   ARM Code       0  ucppinit.o(.emb_text)
    base                                     0x00008054   Data           0  ucppinit.o(.emb_text)
    limit                                    0x00008058   Data           0  ucppinit.o(.emb_text)
    .text                                    0x00008fac   Section      436  moc_qgeoareamonitor.o(.text)
    .text                                    0x00009160   Section     6384  qgeopositioninfosource_s60.o(.text)
    |L1.3148|                                0x00009dac   Data           0  qgeopositioninfosource_s60.o(.text)
    .text                                    0x0000aa50   Section     4900  qgeosatelliteinfosource_s60.o(.text)
    |L1.2120|                                0x0000b298   Data           0  qgeosatelliteinfosource_s60.o(.text)
    |L1.4264|                                0x0000baf8   Data           0  qgeosatelliteinfosource_s60.o(.text)
    |L1.4324|                                0x0000bb34   Data           0  qgeosatelliteinfosource_s60.o(.text)
    .text                                    0x0000bd74   Section     1892  qmlbackendao_s60.o(.text)
    |L1.1048|                                0x0000c18c   Data           0  qmlbackendao_s60.o(.text)
    .text                                    0x0000c4d8   Section     1744  qgeoareamonitor_s60.o(.text)
    |L1.1040|                                0x0000c8e8   Data           0  qgeoareamonitor_s60.o(.text)
    |L1.1080|                                0x0000c910   Data           0  qgeoareamonitor_s60.o(.text)
    .text                                    0x0000cba8   Section      504  qmlbackendmonitorao_s60.o(.text)
    .text                                    0x0000cda0   Section     2060  qmlbackendmonitorcreatetriggerao_s60.o(.text)
    .text                                    0x0000d5ac   Section      332  qmlbackendmonitorinfo_s60.o(.text)
    .text                                    0x0000d6f8   Section      712  qmlbackendtriggerchangeao_s60.o(.text)
    .text                                    0x0000d9c0   Section     1570  qgeoaddress.o(.text)
    .text                                    0x0000dfe4   Section      188  qgeoareamonitor.o(.text)
    .text                                    0x0000e0a0   Section       24  qgeoboundingarea.o(.text)
    .text                                    0x0000e0b8   Section     5632  qgeoboundingbox.o(.text)
    |L1.1096|                                0x0000e500   Data           0  qgeoboundingbox.o(.text)
    |L1.1104|                                0x0000e508   Data           0  qgeoboundingbox.o(.text)
    |L1.1112|                                0x0000e510   Data           0  qgeoboundingbox.o(.text)
    |L1.1120|                                0x0000e518   Data           0  qgeoboundingbox.o(.text)
    |L1.1128|                                0x0000e520   Data           0  qgeoboundingbox.o(.text)
    |L1.1136|                                0x0000e528   Data           0  qgeoboundingbox.o(.text)
    |L1.1144|                                0x0000e530   Data           0  qgeoboundingbox.o(.text)
    .text                                    0x0000f6b8   Section     1210  qgeoboundingcircle.o(.text)
    qFuzzyCompare(double, double)            0x0000fb75   Thumb Code   102  qgeocoordinate.o(.text)
    .text                                    0x0000fb74   Section     4032  qgeocoordinate.o(.text)
    QtMobility::qgeocoordinate_degToRad(double) 0x0000fed7   Thumb Code    38  qgeocoordinate.o(.text)
    |L1.1088|                                0x0000ffb4   Data           0  qgeocoordinate.o(.text)
    |L1.1096|                                0x0000ffbc   Data           0  qgeocoordinate.o(.text)
    |L1.1104|                                0x0000ffc4   Data           0  qgeocoordinate.o(.text)
    |L1.2236|                                0x00010430   Data           0  qgeocoordinate.o(.text)
    |L1.2244|                                0x00010438   Data           0  qgeocoordinate.o(.text)
    |L1.3348|                                0x00010888   Data           0  qgeocoordinate.o(.text)
    .text                                    0x00010b34   Section      812  qgeoplace.o(.text)
    .text                                    0x00010e60   Section     1192  qgeopositioninfo.o(.text)
    .text                                    0x00011308   Section      748  qgeopositioninfosource.o(.text)
    .text                                    0x000115f4   Section      852  qgeosatelliteinfo.o(.text)
    .text                                    0x00011948   Section      436  qgeosatelliteinfosource.o(.text)
    .text                                    0x00011afc   Section     3508  qlocationutils.o(.text)
    QtMobility::qlocationutils_readZda(const char*, int, QtMobility::QGeoPositionInfo*, bool*) 0x00011bef   Thumb Code   284  qlocationutils.o(.text)
    QtMobility::qlocationutils_readVtg(const char*, int, QtMobility::QGeoPositionInfo*, bool*) 0x00011d0b   Thumb Code   236  qlocationutils.o(.text)
    QtMobility::qlocationutils_nmeaDegreesToDecimal(double) 0x00011df7   Thumb Code    76  qlocationutils.o(.text)
    |L1.1036|                                0x00011f08   Data           0  qlocationutils.o(.text)
    |L1.1044|                                0x00011f10   Data           0  qlocationutils.o(.text)
    |L1.1068|                                0x00011f28   Data           0  qlocationutils.o(.text)
    QtMobility::qlocationutils_readRmc(const char*, int, QtMobility::QGeoPositionInfo*, bool*) 0x00011f8f   Thumb Code   982  qlocationutils.o(.text)
    QtMobility::qlocationutils_readGll(const char*, int, QtMobility::QGeoPositionInfo*, bool*) 0x00012365   Thumb Code   426  qlocationutils.o(.text)
    QtMobility::qlocationutils_readGga(const char*, int, QtMobility::QGeoPositionInfo*, bool*) 0x0001250f   Thumb Code   488  qlocationutils.o(.text)
    .text                                    0x000128b0   Section     4252  qnmeapositioninfosource.o(.text)
    |L1.912|                                 0x00012c40   Data           0  qnmeapositioninfosource.o(.text)
    |L1.3372|                                0x000135dc   Data           0  qnmeapositioninfosource.o(.text)
    .text                                    0x0001394c   Section     2168  qlandmark.o(.text)
    .text                                    0x000141c4   Section     1652  qlandmarkabstractrequest.o(.text)
    .text                                    0x00014838   Section     1164  qlandmarkattributefilter.o(.text)
    .text                                    0x00014cc4   Section      492  qlandmarkboxfilter.o(.text)
    .text                                    0x00014eb0   Section      728  qlandmarkcategory.o(.text)
    .text                                    0x00015188   Section      612  qlandmarkcategoryfetchrequest.o(.text)
    .text                                    0x000153ec   Section      632  qlandmarkcategoryfetchbyidrequest.o(.text)
    .text                                    0x00015664   Section      348  qlandmarkcategoryfilter.o(.text)
    .text                                    0x000157c0   Section      412  qlandmarkcategoryid.o(.text)
    .text                                    0x0001595c   Section      612  qlandmarkcategoryidfetchrequest.o(.text)
    .text                                    0x00015bc0   Section      728  qlandmarkcategoryremoverequest.o(.text)
    .text                                    0x00015e98   Section      536  qlandmarkcategorysaverequest.o(.text)
    .text                                    0x000160b0   Section      784  qlandmarkexportrequest.o(.text)
    .text                                    0x000163c0   Section      764  qlandmarkfetchrequest.o(.text)
    .text                                    0x000166bc   Section      632  qlandmarkfetchbyidrequest.o(.text)
    .text                                    0x00016934   Section      464  qlandmarkfilter.o(.text)
    .text                                    0x00016b04   Section      450  qlandmarkid.o(.text)
    .text                                    0x00016cc8   Section      764  qlandmarkidfetchrequest.o(.text)
    .text                                    0x00016fc4   Section      412  qlandmarkidfilter.o(.text)
    .text                                    0x00017160   Section      772  qlandmarkimportrequest.o(.text)
    .text                                    0x00017464   Section      524  qlandmarkintersectionfilter.o(.text)
    .text                                    0x00017670   Section     6884  qlandmarkmanager.o(.text)
    |L1.6316|                                0x00018f1c   Data           0  qlandmarkmanager.o(.text)
    |L1.6352|                                0x00018f40   Data           0  qlandmarkmanager.o(.text)
    |L1.6392|                                0x00018f68   Data           0  qlandmarkmanager.o(.text)
    |L1.6432|                                0x00018f90   Data           0  qlandmarkmanager.o(.text)
    |L1.6480|                                0x00018fc0   Data           0  qlandmarkmanager.o(.text)
    |L1.6528|                                0x00018ff0   Data           0  qlandmarkmanager.o(.text)
    |L1.6576|                                0x00019020   Data           0  qlandmarkmanager.o(.text)
    .text                                    0x00019154   Section     1692  qlandmarkmanager_p.o(.text)
    QtMobility::qSymbian_CheckDir(const QDir&, RFs&) 0x00019189   Thumb Code    86  qlandmarkmanager_p.o(.text)
    .text                                    0x000197f0   Section     8504  qlandmarkmanagerengine.o(.text)
    |L1.5480|                                0x0001ad58   Data           0  qlandmarkmanagerengine.o(.text)
    |L1.5488|                                0x0001ad60   Data           0  qlandmarkmanagerengine.o(.text)
    |L1.5500|                                0x0001ad6c   Data           0  qlandmarkmanagerengine.o(.text)
    |L1.5512|                                0x0001ad78   Data           0  qlandmarkmanagerengine.o(.text)
    |L1.5520|                                0x0001ad80   Data           0  qlandmarkmanagerengine.o(.text)
    |L1.5528|                                0x0001ad88   Data           0  qlandmarkmanagerengine.o(.text)
    |L1.5536|                                0x0001ad90   Data           0  qlandmarkmanagerengine.o(.text)
    |L1.5548|                                0x0001ad9c   Data           0  qlandmarkmanagerengine.o(.text)
    |L1.5556|                                0x0001ada4   Data           0  qlandmarkmanagerengine.o(.text)
    |L1.5568|                                0x0001adb0   Data           0  qlandmarkmanagerengine.o(.text)
    __sti___26_qlandmarkmanagerengine_cpp    0x0001b7b7   Thumb Code   304  qlandmarkmanagerengine.o(.text)
    .text                                    0x0001b928   Section       64  qlandmarkmanagerenginefactory.o(.text)
    .text                                    0x0001b968   Section      388  qlandmarknamefilter.o(.text)
    .text                                    0x0001baec   Section      264  qlandmarknamesort.o(.text)
    .text                                    0x0001bbf4   Section      532  qlandmarkproximityfilter.o(.text)
    .text                                    0x0001be08   Section      724  qlandmarkremoverequest.o(.text)
    .text                                    0x0001c0dc   Section      536  qlandmarksaverequest.o(.text)
    .text                                    0x0001c2f4   Section      452  qlandmarksortorder.o(.text)
    .text                                    0x0001c4b8   Section      524  qlandmarkunionfilter.o(.text)
    .text                                    0x0001c6c4   Section      792  qgeomaneuver.o(.text)
    .text                                    0x0001c9dc   Section     1432  qgeomapcircleobject.o(.text)
    qFuzzyCompare(float, float)              0x0001cf75   Thumb Code    76  qgeomapdata.o(.text)
    .text                                    0x0001cf74   Section     2660  qgeomapdata.o(.text)
    .text                                    0x0001d9d8   Section     1116  qgeomapgroupobject.o(.text)
    .text                                    0x0001de34   Section     1420  qgeomapobject.o(.text)
    .text                                    0x0001e3c0   Section      456  qgeomapobjectinfo.o(.text)
    .text                                    0x0001e588   Section      144  qgeomapoverlay.o(.text)
    .text                                    0x0001e618   Section      456  qgeomappingmanager.o(.text)
    .text                                    0x0001e7e0   Section      860  qgeomappingmanagerengine.o(.text)
    .text                                    0x0001eb3c   Section     1120  qgeomappixmapobject.o(.text)
    .text                                    0x0001ef9c   Section      980  qgeomappolygonobject.o(.text)
    .text                                    0x0001f370   Section      792  qgeomappolylineobject.o(.text)
    .text                                    0x0001f688   Section     1516  qgeomaprectangleobject.o(.text)
    .text                                    0x0001fc74   Section      928  qgeomaprouteobject.o(.text)
    .text                                    0x00020014   Section     1812  qgeomaptextobject.o(.text)
    .text                                    0x00020728   Section     1092  qgeoroute.o(.text)
    .text                                    0x00020b6c   Section      924  qgeoroutereply.o(.text)
    .text                                    0x00020f08   Section     1242  qgeorouterequest.o(.text)
    .text                                    0x000213e4   Section      812  qgeoroutesegment.o(.text)
    .text                                    0x00021710   Section      912  qgeoroutingmanager.o(.text)
    .text                                    0x00021aa0   Section      950  qgeoroutingmanagerengine.o(.text)
    .text                                    0x00021e58   Section     2436  qgeosearchmanager.o(.text)
    .text                                    0x000227dc   Section     1334  qgeosearchmanagerengine.o(.text)
    .text                                    0x00022d14   Section      888  qgeosearchreply.o(.text)
    QtMobility::qSymbian_CheckDir(const QDir&, RFs&) 0x0002308d   Thumb Code    86  qgeoserviceprovider.o(.text)
    .text                                    0x0002308c   Section     2500  qgeoserviceprovider.o(.text)
    .text                                    0x00023a50   Section       60  qgeoserviceproviderfactory.o(.text)
    .text                                    0x00023a8c   Section     2716  qgraphicsgeomap.o(.text)
    .text                                    0x00024528   Section     1764  qgeotiledmapcircleobjectinfo_p.o(.text)
    QtMobility::qgeocoordinate_radToDeg(double) 0x000245b1   Thumb Code    38  qgeotiledmapcircleobjectinfo_p.o(.text)
    QtMobility::qgeocoordinate_degToRad(double) 0x000245d7   Thumb Code    38  qgeotiledmapcircleobjectinfo_p.o(.text)
    |L1.1004|                                0x00024914   Data           0  qgeotiledmapcircleobjectinfo_p.o(.text)
    .text                                    0x00024c0c   Section      880  qgeotiledmapgroupobjectinfo_p.o(.text)
    qFuzzyCompare(float, float)              0x00024f7d   Thumb Code    84  qgeotiledmapdata.o(.text)
    .text                                    0x00024f7c   Section    15082  qgeotiledmapdata.o(.text)
    |L1.2208|                                0x0002581c   Data           0  qgeotiledmapdata.o(.text)
    |L1.2216|                                0x00025824   Data           0  qgeotiledmapdata.o(.text)
    |L1.2236|                                0x00025838   Data           0  qgeotiledmapdata.o(.text)
    |L1.2252|                                0x00025848   Data           0  qgeotiledmapdata.o(.text)
    |L1.11876|                               0x00027de0   Data           0  qgeotiledmapdata.o(.text)
    |L1.11884|                               0x00027de8   Data           0  qgeotiledmapdata.o(.text)
    .text                                    0x00028a68   Section     1570  qgeotiledmapobjectinfo_p.o(.text)
    .text                                    0x0002908c   Section      360  qgeotiledmappingmanagerengine.o(.text)
    .text                                    0x000291f4   Section     1580  qgeotiledmappixmapobjectinfo_p.o(.text)
    .text                                    0x00029820   Section      836  qgeotiledmappolygonobjectinfo_p.o(.text)
    .text                                    0x00029b64   Section      824  qgeotiledmappolylineobjectinfo_p.o(.text)
    .text                                    0x00029e9c   Section     1600  qgeotiledmaprectangleobjectinfo_p.o(.text)
    .text                                    0x0002a4dc   Section      884  qgeotiledmapreply.o(.text)
    .text                                    0x0002a850   Section      606  qgeotiledmaprequest.o(.text)
    .text                                    0x0002aab0   Section     1808  qgeotiledmaprouteobjectinfo_p.o(.text)
    .text                                    0x0002b1c0   Section     2752  qgeotiledmaptextobjectinfo_p.o(.text)
    .text                                    0x0002bc80   Section       24  switch8.o(.text)
    .text                                    0x0002bc98   Section       80  uc_dll.o(.text)
    .text                                    0x0002bce8   Section      180  ucppfini.o(.text)
    .text                                    0x0002bd9c   Section        4  dllexp.o(.text)
    .text.clean                              0x0002bda0   Section       10  moc_qgeoareamonitor.o(.text.clean)
    .text.clean                              0x0002bdac   Section      360  qgeopositioninfosource_s60.o(.text.clean)
    .text.clean                              0x0002bf14   Section      356  qgeosatelliteinfosource_s60.o(.text.clean)
    .text.clean                              0x0002c078   Section       20  qmlbackendao_s60.o(.text.clean)
    .text.clean                              0x0002c08c   Section       76  qgeoareamonitor_s60.o(.text.clean)
    .text.clean                              0x0002c0d8   Section       44  qmlbackendmonitorao_s60.o(.text.clean)
    .text.clean                              0x0002c104   Section      142  qmlbackendmonitorcreatetriggerao_s60.o(.text.clean)
    .text.clean                              0x0002c192   Section       66  qmlbackendtriggerchangeao_s60.o(.text.clean)
    .text.clean                              0x0002c1d4   Section      352  qgeoaddress.o(.text.clean)
    .text.clean                              0x0002c334   Section       30  qgeoareamonitor.o(.text.clean)
    .text.clean                              0x0002c352   Section      284  qgeoboundingbox.o(.text.clean)
    .text.clean                              0x0002c46e   Section       80  qgeoboundingcircle.o(.text.clean)
    .text.clean                              0x0002c4be   Section      312  qgeocoordinate.o(.text.clean)
    .text.clean                              0x0002c5f6   Section       86  qgeoplace.o(.text.clean)
    .text.clean                              0x0002c64c   Section       86  qgeopositioninfo.o(.text.clean)
    .text.clean                              0x0002c6a2   Section       28  qgeopositioninfosource.o(.text.clean)
    .text.clean                              0x0002c6be   Section       38  qgeosatelliteinfo.o(.text.clean)
    .text.clean                              0x0002c6e4   Section       18  qgeosatelliteinfosource.o(.text.clean)
    .text.clean                              0x0002c6f6   Section      202  qlocationutils.o(.text.clean)
    .text.clean                              0x0002c7c0   Section      380  qnmeapositioninfosource.o(.text.clean)
    .text.clean                              0x0002c93c   Section      442  qlandmark.o(.text.clean)
    .text.clean                              0x0002caf6   Section      168  qlandmarkabstractrequest.o(.text.clean)
    .text.clean                              0x0002cb9e   Section      154  qlandmarkattributefilter.o(.text.clean)
    .text.clean                              0x0002cc38   Section       78  qlandmarkboxfilter.o(.text.clean)
    .text.clean                              0x0002cc86   Section      122  qlandmarkcategory.o(.text.clean)
    .text.clean                              0x0002cd00   Section       66  qlandmarkcategoryfetchrequest.o(.text.clean)
    .text.clean                              0x0002cd42   Section       98  qlandmarkcategoryfetchbyidrequest.o(.text.clean)
    .text.clean                              0x0002cda4   Section       64  qlandmarkcategoryfilter.o(.text.clean)
    .text.clean                              0x0002cde4   Section       24  qlandmarkcategoryid.o(.text.clean)
    .text.clean                              0x0002cdfc   Section       66  qlandmarkcategoryidfetchrequest.o(.text.clean)
    .text.clean                              0x0002ce3e   Section      108  qlandmarkcategoryremoverequest.o(.text.clean)
    .text.clean                              0x0002ceaa   Section       76  qlandmarkcategorysaverequest.o(.text.clean)
    .text.clean                              0x0002cef6   Section      106  qlandmarkexportrequest.o(.text.clean)
    .text.clean                              0x0002cf60   Section      108  qlandmarkfetchrequest.o(.text.clean)
    .text.clean                              0x0002cfcc   Section       98  qlandmarkfetchbyidrequest.o(.text.clean)
    .text.clean                              0x0002d02e   Section       34  qlandmarkfilter.o(.text.clean)
    .text.clean                              0x0002d050   Section       38  qlandmarkid.o(.text.clean)
    .text.clean                              0x0002d076   Section      108  qlandmarkidfetchrequest.o(.text.clean)
    .text.clean                              0x0002d0e2   Section       54  qlandmarkidfilter.o(.text.clean)
    .text.clean                              0x0002d118   Section      116  qlandmarkimportrequest.o(.text.clean)
    .text.clean                              0x0002d18c   Section       68  qlandmarkintersectionfilter.o(.text.clean)
    .text.clean                              0x0002d1d0   Section      526  qlandmarkmanager.o(.text.clean)
    .text.clean                              0x0002d3e0   Section      216  qlandmarkmanager_p.o(.text.clean)
    .text.clean                              0x0002d4b8   Section      924  qlandmarkmanagerengine.o(.text.clean)
    .text.clean                              0x0002d854   Section       54  qlandmarknamefilter.o(.text.clean)
    .text.clean                              0x0002d88a   Section       24  qlandmarknamesort.o(.text.clean)
    .text.clean                              0x0002d8a2   Section       96  qlandmarkproximityfilter.o(.text.clean)
    .text.clean                              0x0002d902   Section      108  qlandmarkremoverequest.o(.text.clean)
    .text.clean                              0x0002d96e   Section       76  qlandmarksaverequest.o(.text.clean)
    .text.clean                              0x0002d9ba   Section       14  qlandmarksortorder.o(.text.clean)
    .text.clean                              0x0002d9c8   Section       68  qlandmarkunionfilter.o(.text.clean)
    .text.clean                              0x0002da0c   Section      122  qgeomaneuver.o(.text.clean)
    .text.clean                              0x0002da86   Section      210  qgeomapcircleobject.o(.text.clean)
    .text.clean                              0x0002db58   Section      206  qgeomapdata.o(.text.clean)
    .text.clean                              0x0002dc26   Section       74  qgeomapgroupobject.o(.text.clean)
    .text.clean                              0x0002dc70   Section       30  qgeomapobject.o(.text.clean)
    .text.clean                              0x0002dc8e   Section       30  qgeomapobjectinfo.o(.text.clean)
    .text.clean                              0x0002dcac   Section       14  qgeomapoverlay.o(.text.clean)
    .text.clean                              0x0002dcba   Section       30  qgeomappingmanager.o(.text.clean)
    .text.clean                              0x0002dcd8   Section       86  qgeomappingmanagerengine.o(.text.clean)
    .text.clean                              0x0002dd2e   Section      112  qgeomappixmapobject.o(.text.clean)
    .text.clean                              0x0002dd9e   Section      114  qgeomappolygonobject.o(.text.clean)
    .text.clean                              0x0002de10   Section       86  qgeomappolylineobject.o(.text.clean)
    .text.clean                              0x0002de66   Section      266  qgeomaprectangleobject.o(.text.clean)
    .text.clean                              0x0002df70   Section      106  qgeomaprouteobject.o(.text.clean)
    .text.clean                              0x0002dfda   Section      198  qgeomaptextobject.o(.text.clean)
    .text.clean                              0x0002e0a0   Section      190  qgeoroute.o(.text.clean)
    .text.clean                              0x0002e15e   Section      144  qgeoroutereply.o(.text.clean)
    .text.clean                              0x0002e1ee   Section       94  qgeorouterequest.o(.text.clean)
    .text.clean                              0x0002e24c   Section       96  qgeoroutesegment.o(.text.clean)
    .text.clean                              0x0002e2ac   Section       48  qgeoroutingmanager.o(.text.clean)
    .text.clean                              0x0002e2dc   Section       84  qgeoroutingmanagerengine.o(.text.clean)
    .text.clean                              0x0002e330   Section      250  qgeosearchmanager.o(.text.clean)
    .text.clean                              0x0002e42a   Section      170  qgeosearchmanagerengine.o(.text.clean)
    .text.clean                              0x0002e4d4   Section       90  qgeosearchreply.o(.text.clean)
    .text.clean                              0x0002e530   Section      332  qgeoserviceprovider.o(.text.clean)
    .text.clean                              0x0002e67c   Section       72  qgraphicsgeomap.o(.text.clean)
    .text.clean                              0x0002e6c4   Section       98  qgeotiledmapcircleobjectinfo_p.o(.text.clean)
    .text.clean                              0x0002e726   Section       46  qgeotiledmapgroupobjectinfo_p.o(.text.clean)
    .text.clean                              0x0002e754   Section      876  qgeotiledmapdata.o(.text.clean)
    .text.clean                              0x0002eac0   Section       74  qgeotiledmapobjectinfo_p.o(.text.clean)
    .text.clean                              0x0002eb0a   Section       32  qgeotiledmappingmanagerengine.o(.text.clean)
    .text.clean                              0x0002eb2a   Section      170  qgeotiledmappixmapobjectinfo_p.o(.text.clean)
    .text.clean                              0x0002ebd4   Section      102  qgeotiledmappolygonobjectinfo_p.o(.text.clean)
    .text.clean                              0x0002ec3a   Section      102  qgeotiledmappolylineobjectinfo_p.o(.text.clean)
    .text.clean                              0x0002eca0   Section      114  qgeotiledmaprectangleobjectinfo_p.o(.text.clean)
    .text.clean                              0x0002ed12   Section      162  qgeotiledmapreply.o(.text.clean)
    .text.clean                              0x0002edb4   Section       28  qgeotiledmaprequest.o(.text.clean)
    .text.clean                              0x0002edd0   Section      168  qgeotiledmaprouteobjectinfo_p.o(.text.clean)
    .text.clean                              0x0002ee78   Section      278  qgeotiledmaptextobjectinfo_p.o(.text.clean)
    i._Z6qRoundf                             0x0002ef90   Section      156  qgeotiledmapdata.o(i._Z6qRoundf)
    i._Z8qWarningv                           0x0002f02c   Section       88  qlandmarkabstractrequest.o(i._Z8qWarningv)
    i._Z8qWarningv.clean                     0x0002f084   Section       24  qlandmarkabstractrequest.o(i._Z8qWarningv.clean)
    i._ZN10QByteArrayC1ERKS_                 0x0002f09c   Section       20  qlocationutils.o(i._ZN10QByteArrayC1ERKS_)
    i._ZN10QByteArrayC1Ev                    0x0002f0b0   Section       24  qgeotiledmapreply.o(i._ZN10QByteArrayC1Ev)
    i._ZN10QByteArrayD1Ev                    0x0002f0c8   Section       24  qgeopositioninfosource_s60.o(i._ZN10QByteArrayD1Ev)
    i._ZN10QtMobility11QNmeaReaderD0Ev       0x0002f0e0   Section       18  qnmeapositioninfosource.o(i._ZN10QtMobility11QNmeaReaderD0Ev)
    i._ZN10QtMobility11QNmeaReaderD2Ev       0x0002f0f2   Section        2  qnmeapositioninfosource.o(i._ZN10QtMobility11QNmeaReaderD2Ev)
    i._ZN10QtMobility14CPosMethodInfoC1Ev    0x0002f0f4   Section       18  qgeopositioninfosource_s60.o(i._ZN10QtMobility14CPosMethodInfoC1Ev)
    i._ZN10QtMobility14CSatMethodInfoC1Ev    0x0002f106   Section       18  qgeosatelliteinfosource_s60.o(i._ZN10QtMobility14CSatMethodInfoC1Ev)
    i._ZN10QtMobility14QLocationUtils10isValidLatEd 0x0002f118   Section       56  qgeocoordinate.o(i._ZN10QtMobility14QLocationUtils10isValidLatEd)
    i._ZN10QtMobility14QLocationUtils11isValidLongEd 0x0002f150   Section       56  qgeocoordinate.o(i._ZN10QtMobility14QLocationUtils11isValidLongEd)
    i._ZN10QtMobility15mobilityPluginsERK7QString 0x0002f188   Section      716  qlandmarkmanager_p.o(i._ZN10QtMobility15mobilityPluginsERK7QString)
    i._ZN10QtMobility15mobilityPluginsERK7QString.clean 0x0002f454   Section      124  qlandmarkmanager_p.o(i._ZN10QtMobility15mobilityPluginsERK7QString.clean)
    i._ZN10QtMobility17QLandmarkIdFilter6d_funcEv 0x0002f4d0   Section       38  qlandmarkidfilter.o(i._ZN10QtMobility17QLandmarkIdFilter6d_funcEv)
    i._ZN10QtMobility17QLandmarkNameSort6d_funcEv 0x0002f4f6   Section       44  qlandmarknamesort.o(i._ZN10QtMobility17QLandmarkNameSort6d_funcEv)
    i._ZN10QtMobility18QLandmarkBoxFilter6d_funcEv 0x0002f522   Section       44  qlandmarkboxfilter.o(i._ZN10QtMobility18QLandmarkBoxFilter6d_funcEv)
    i._ZN10QtMobility18QLandmarkIdPrivateD1Ev 0x0002f54e   Section       28  qlandmarkid.o(i._ZN10QtMobility18QLandmarkIdPrivateD1Ev)
    i._ZN10QtMobility18QLandmarkIdPrivateD1Ev.clean 0x0002f56a   Section       10  qlandmarkid.o(i._ZN10QtMobility18QLandmarkIdPrivateD1Ev.clean)
    i._ZN10QtMobility19QLandmarkNameFilter6d_funcEv 0x0002f574   Section       44  qlandmarknamefilter.o(i._ZN10QtMobility19QLandmarkNameFilter6d_funcEv)
    i._ZN10QtMobility19QNmeaRealTimeReaderD0Ev 0x0002f5a0   Section       18  qnmeapositioninfosource.o(i._ZN10QtMobility19QNmeaRealTimeReaderD0Ev)
    i._ZN10QtMobility19QNmeaRealTimeReaderD1Ev 0x0002f5b2   Section        2  qnmeapositioninfosource.o(i._ZN10QtMobility19QNmeaRealTimeReaderD1Ev)
    i._ZN10QtMobility20QLandmarkUnionFilter6d_funcEv 0x0002f5b4   Section       38  qlandmarkunionfilter.o(i._ZN10QtMobility20QLandmarkUnionFilter6d_funcEv)
    i._ZN10QtMobility21QGeoCoordinatePrivateC1Ev 0x0002f5da   Section       32  qgeocoordinate.o(i._ZN10QtMobility21QGeoCoordinatePrivateC1Ev)
    i._ZN10QtMobility23QGeoPositionInfoPrivateC1Ev 0x0002f5fa   Section       36  qgeopositioninfo.o(i._ZN10QtMobility23QGeoPositionInfoPrivateC1Ev)
    i._ZN10QtMobility23QGeoPositionInfoPrivateC1Ev.clean 0x0002f61e   Section       18  qgeopositioninfo.o(i._ZN10QtMobility23QGeoPositionInfoPrivateC1Ev.clean)
    i._ZN10QtMobility23QGeoSatelliteInfoSourceD0Ev 0x0002f630   Section       24  qgeosatelliteinfosource.o(i._ZN10QtMobility23QGeoSatelliteInfoSourceD0Ev)
    i._ZN10QtMobility23QGeoSatelliteInfoSourceD2Ev 0x0002f648   Section       14  qgeosatelliteinfosource_s60.o(i._ZN10QtMobility23QGeoSatelliteInfoSourceD2Ev)
    i._ZN10QtMobility23QLandmarkCategoryFilter6d_funcEv 0x0002f656   Section       44  qlandmarkcategoryfilter.o(i._ZN10QtMobility23QLandmarkCategoryFilter6d_funcEv)
    i._ZN10QtMobility23QPendingGeoPositionInfoC1ERKS0_ 0x0002f682   Section       24  qnmeapositioninfosource.o(i._ZN10QtMobility23QPendingGeoPositionInfoC1ERKS0_)
    i._ZN10QtMobility23QPendingGeoPositionInfoD1Ev 0x0002f69a   Section       14  qnmeapositioninfosource.o(i._ZN10QtMobility23QPendingGeoPositionInfoD1Ev)
    i._ZN10QtMobility24QGeoSatelliteInfoPrivateC1Ev 0x0002f6a8   Section       20  qgeosatelliteinfo.o(i._ZN10QtMobility24QGeoSatelliteInfoPrivateC1Ev)
    i._ZN10QtMobility24QLandmarkAttributeFilter6d_funcEv 0x0002f6bc   Section       38  qlandmarkattributefilter.o(i._ZN10QtMobility24QLandmarkAttributeFilter6d_funcEv)
    i._ZN10QtMobility24QLandmarkIdFilterPrivate14copyIfPossibleER18QSharedDataPointerINS_22QLandmarkFilterPrivateEERKNS_15QLandmarkFilterE 0x0002f6e2   Section      204  qlandmarkidfilter.o(i._ZN10QtMobility24QLandmarkIdFilterPrivate14copyIfPossibleER18QSharedDataPointerINS_22QLandmarkFilterPrivateEERKNS_15QLandmarkFilterE)
    i._ZN10QtMobility24QLandmarkIdFilterPrivate14copyIfPossibleER18QSharedDataPointerINS_22QLandmarkFilterPrivateEERKNS_15QLandmarkFilterE.clean 0x0002f7ae   Section       24  qlandmarkidfilter.o(i._ZN10QtMobility24QLandmarkIdFilterPrivate14copyIfPossibleER18QSharedDataPointerINS_22QLandmarkFilterPrivateEERKNS_15QLandmarkFilterE.clean)
    i._ZN10QtMobility24QLandmarkNameSortPrivate14copyIfPossibleER18QSharedDataPointerINS_25QLandmarkSortOrderPrivateEERKNS_18QLandmarkSortOrderE 0x0002f7c6   Section      166  qlandmarknamesort.o(i._ZN10QtMobility24QLandmarkNameSortPrivate14copyIfPossibleER18QSharedDataPointerINS_25QLandmarkSortOrderPrivateEERKNS_18QLandmarkSortOrderE)
    i._ZN10QtMobility24QLandmarkNameSortPrivate14copyIfPossibleER18QSharedDataPointerINS_25QLandmarkSortOrderPrivateEERKNS_18QLandmarkSortOrderE.clean 0x0002f86c   Section       14  qlandmarknamesort.o(i._ZN10QtMobility24QLandmarkNameSortPrivate14copyIfPossibleER18QSharedDataPointerINS_25QLandmarkSortOrderPrivateEERKNS_18QLandmarkSortOrderE.clean)
    i._ZN10QtMobility24QLandmarkProximityFilter6d_funcEv 0x0002f87a   Section       44  qlandmarkproximityfilter.o(i._ZN10QtMobility24QLandmarkProximityFilter6d_funcEv)
    i._ZN10QtMobility25QLandmarkBoxFilterPrivate14copyIfPossibleER18QSharedDataPointerINS_22QLandmarkFilterPrivateEERKNS_15QLandmarkFilterE 0x0002f8a6   Section      204  qlandmarkboxfilter.o(i._ZN10QtMobility25QLandmarkBoxFilterPrivate14copyIfPossibleER18QSharedDataPointerINS_22QLandmarkFilterPrivateEERKNS_15QLandmarkFilterE)
    i._ZN10QtMobility25QLandmarkBoxFilterPrivate14copyIfPossibleER18QSharedDataPointerINS_22QLandmarkFilterPrivateEERKNS_15QLandmarkFilterE.clean 0x0002f972   Section       24  qlandmarkboxfilter.o(i._ZN10QtMobility25QLandmarkBoxFilterPrivate14copyIfPossibleER18QSharedDataPointerINS_22QLandmarkFilterPrivateEERKNS_15QLandmarkFilterE.clean)
    i._ZN10QtMobility26QGeoServiceProviderFactoryD0Ev 0x0002f98a   Section       18  qgeoserviceproviderfactory.o(i._ZN10QtMobility26QGeoServiceProviderFactoryD0Ev)
    i._ZN10QtMobility26QGeoServiceProviderFactoryD2Ev 0x0002f99c   Section        2  qgeoserviceproviderfactory.o(i._ZN10QtMobility26QGeoServiceProviderFactoryD2Ev)
    i._ZN10QtMobility26QLandmarkCategoryIdPrivateD1Ev 0x0002f99e   Section       28  qlandmarkcategoryid.o(i._ZN10QtMobility26QLandmarkCategoryIdPrivateD1Ev)
    i._ZN10QtMobility26QLandmarkCategoryIdPrivateD1Ev.clean 0x0002f9ba   Section       10  qlandmarkcategoryid.o(i._ZN10QtMobility26QLandmarkCategoryIdPrivateD1Ev.clean)
    i._ZN10QtMobility26QLandmarkNameFilterPrivate14copyIfPossibleER18QSharedDataPointerINS_22QLandmarkFilterPrivateEERKNS_15QLandmarkFilterE 0x0002f9c4   Section      212  qlandmarknamefilter.o(i._ZN10QtMobility26QLandmarkNameFilterPrivate14copyIfPossibleER18QSharedDataPointerINS_22QLandmarkFilterPrivateEERKNS_15QLandmarkFilterE)
    i._ZN10QtMobility26QLandmarkNameFilterPrivate14copyIfPossibleER18QSharedDataPointerINS_22QLandmarkFilterPrivateEERKNS_15QLandmarkFilterE.clean 0x0002fa98   Section       24  qlandmarknamefilter.o(i._ZN10QtMobility26QLandmarkNameFilterPrivate14copyIfPossibleER18QSharedDataPointerINS_22QLandmarkFilterPrivateEERKNS_15QLandmarkFilterE.clean)
    i._ZN10QtMobility27QLandmarkIntersectionFilter6d_funcEv 0x0002fab0   Section       38  qlandmarkintersectionfilter.o(i._ZN10QtMobility27QLandmarkIntersectionFilter6d_funcEv)
    i._ZN10QtMobility27QLandmarkSaveRequestPrivateD0Ev 0x0002fad6   Section       22  qlandmarkcategoryfetchrequest.o(i._ZN10QtMobility27QLandmarkSaveRequestPrivateD0Ev)
    i._ZN10QtMobility27QLandmarkSaveRequestPrivateD1Ev 0x0002faec   Section       48  qlandmarkcategoryfetchrequest.o(i._ZN10QtMobility27QLandmarkSaveRequestPrivateD1Ev)
    i._ZN10QtMobility27QLandmarkSaveRequestPrivateD1Ev.clean 0x0002fb1c   Section       22  qlandmarkcategoryfetchrequest.o(i._ZN10QtMobility27QLandmarkSaveRequestPrivateD1Ev.clean)
    i._ZN10QtMobility27QLandmarkUnionFilterPrivate14copyIfPossibleER18QSharedDataPointerINS_22QLandmarkFilterPrivateEERKNS_15QLandmarkFilterE 0x0002fb32   Section      166  qlandmarkunionfilter.o(i._ZN10QtMobility27QLandmarkUnionFilterPrivate14copyIfPossibleER18QSharedDataPointerINS_22QLandmarkFilterPrivateEERKNS_15QLandmarkFilterE)
    i._ZN10QtMobility27QLandmarkUnionFilterPrivate14copyIfPossibleER18QSharedDataPointerINS_22QLandmarkFilterPrivateEERKNS_15QLandmarkFilterE.clean 0x0002fbd8   Section       14  qlandmarkunionfilter.o(i._ZN10QtMobility27QLandmarkUnionFilterPrivate14copyIfPossibleER18QSharedDataPointerINS_22QLandmarkFilterPrivateEERKNS_15QLandmarkFilterE.clean)
    i._ZN10QtMobility28QLandmarkFetchRequestPrivateD0Ev 0x0002fbe6   Section       22  qlandmarkcategoryfetchrequest.o(i._ZN10QtMobility28QLandmarkFetchRequestPrivateD0Ev)
    i._ZN10QtMobility28QLandmarkFetchRequestPrivateD1Ev 0x0002fbfc   Section       60  qlandmarkcategoryfetchrequest.o(i._ZN10QtMobility28QLandmarkFetchRequestPrivateD1Ev)
    i._ZN10QtMobility28QLandmarkFetchRequestPrivateD1Ev.clean 0x0002fc38   Section       34  qlandmarkcategoryfetchrequest.o(i._ZN10QtMobility28QLandmarkFetchRequestPrivateD1Ev.clean)
    i._ZN10QtMobility29QLandmarkExportRequestPrivateC1EPNS_16QLandmarkManagerE 0x0002fc5c   Section      136  qlandmarkexportrequest.o(i._ZN10QtMobility29QLandmarkExportRequestPrivateC1EPNS_16QLandmarkManagerE)
    i._ZN10QtMobility29QLandmarkExportRequestPrivateC1EPNS_16QLandmarkManagerE.clean 0x0002fce4   Section       56  qlandmarkexportrequest.o(i._ZN10QtMobility29QLandmarkExportRequestPrivateC1EPNS_16QLandmarkManagerE.clean)
    i._ZN10QtMobility29QLandmarkExportRequestPrivateD0Ev 0x0002fd1c   Section       22  qlandmarkcategoryfetchrequest.o(i._ZN10QtMobility29QLandmarkExportRequestPrivateD0Ev)
    i._ZN10QtMobility29QLandmarkExportRequestPrivateD1Ev 0x0002fd34   Section       60  qlandmarkcategoryfetchrequest.o(i._ZN10QtMobility29QLandmarkExportRequestPrivateD1Ev)
    i._ZN10QtMobility29QLandmarkExportRequestPrivateD1Ev.clean 0x0002fd70   Section       34  qlandmarkcategoryfetchrequest.o(i._ZN10QtMobility29QLandmarkExportRequestPrivateD1Ev.clean)
    i._ZN10QtMobility29QLandmarkImportRequestPrivateC1EPNS_16QLandmarkManagerE 0x0002fd94   Section      168  qlandmarkimportrequest.o(i._ZN10QtMobility29QLandmarkImportRequestPrivateC1EPNS_16QLandmarkManagerE)
    i._ZN10QtMobility29QLandmarkImportRequestPrivateC1EPNS_16QLandmarkManagerE.clean 0x0002fe3c   Section       76  qlandmarkimportrequest.o(i._ZN10QtMobility29QLandmarkImportRequestPrivateC1EPNS_16QLandmarkManagerE.clean)
    i._ZN10QtMobility29QLandmarkImportRequestPrivateD0Ev 0x0002fe88   Section       22  qlandmarkcategoryfetchrequest.o(i._ZN10QtMobility29QLandmarkImportRequestPrivateD0Ev)
    i._ZN10QtMobility29QLandmarkImportRequestPrivateD1Ev 0x0002fea0   Section       72  qlandmarkcategoryfetchrequest.o(i._ZN10QtMobility29QLandmarkImportRequestPrivateD1Ev)
    i._ZN10QtMobility29QLandmarkImportRequestPrivateD1Ev.clean 0x0002fee8   Section       46  qlandmarkcategoryfetchrequest.o(i._ZN10QtMobility29QLandmarkImportRequestPrivateD1Ev.clean)
    i._ZN10QtMobility29QLandmarkRemoveRequestPrivateD0Ev 0x0002ff16   Section       22  qlandmarkcategoryfetchrequest.o(i._ZN10QtMobility29QLandmarkRemoveRequestPrivateD0Ev)
    i._ZN10QtMobility29QLandmarkRemoveRequestPrivateD1Ev 0x0002ff2c   Section       48  qlandmarkcategoryfetchrequest.o(i._ZN10QtMobility29QLandmarkRemoveRequestPrivateD1Ev)
    i._ZN10QtMobility29QLandmarkRemoveRequestPrivateD1Ev.clean 0x0002ff5c   Section       22  qlandmarkcategoryfetchrequest.o(i._ZN10QtMobility29QLandmarkRemoveRequestPrivateD1Ev.clean)
    i._ZN10QtMobility30QLandmarkCategoryFilterPrivate14copyIfPossibleER18QSharedDataPointerINS_22QLandmarkFilterPrivateEERKNS_15QLandmarkFilterE 0x0002ff72   Section      204  qlandmarkcategoryfilter.o(i._ZN10QtMobility30QLandmarkCategoryFilterPrivate14copyIfPossibleER18QSharedDataPointerINS_22QLandmarkFilterPrivateEERKNS_15QLandmarkFilterE)
    i._ZN10QtMobility30QLandmarkCategoryFilterPrivate14copyIfPossibleER18QSharedDataPointerINS_22QLandmarkFilterPrivateEERKNS_15QLandmarkFilterE.clean 0x0003003e   Section       24  qlandmarkcategoryfilter.o(i._ZN10QtMobility30QLandmarkCategoryFilterPrivate14copyIfPossibleER18QSharedDataPointerINS_22QLandmarkFilterPrivateEERKNS_15QLandmarkFilterE.clean)
    i._ZN10QtMobility30QLandmarkIdFetchRequestPrivateD0Ev 0x00030056   Section       22  qlandmarkcategoryfetchrequest.o(i._ZN10QtMobility30QLandmarkIdFetchRequestPrivateD0Ev)
    i._ZN10QtMobility30QLandmarkIdFetchRequestPrivateD1Ev 0x0003006c   Section       60  qlandmarkcategoryfetchrequest.o(i._ZN10QtMobility30QLandmarkIdFetchRequestPrivateD1Ev)
    i._ZN10QtMobility30QLandmarkIdFetchRequestPrivateD1Ev.clean 0x000300a8   Section       34  qlandmarkcategoryfetchrequest.o(i._ZN10QtMobility30QLandmarkIdFetchRequestPrivateD1Ev.clean)
    i._ZN10QtMobility31QLandmarkAttributeFilterPrivate14copyIfPossibleER18QSharedDataPointerINS_22QLandmarkFilterPrivateEERKNS_15QLandmarkFilterE 0x000300ca   Section      166  qlandmarkattributefilter.o(i._ZN10QtMobility31QLandmarkAttributeFilterPrivate14copyIfPossibleER18QSharedDataPointerINS_22QLandmarkFilterPrivateEERKNS_15QLandmarkFilterE)
    i._ZN10QtMobility31QLandmarkAttributeFilterPrivate14copyIfPossibleER18QSharedDataPointerINS_22QLandmarkFilterPrivateEERKNS_15QLandmarkFilterE.clean 0x00030170   Section       14  qlandmarkattributefilter.o(i._ZN10QtMobility31QLandmarkAttributeFilterPrivate14copyIfPossibleER18QSharedDataPointerINS_22QLandmarkFilterPrivateEERKNS_15QLandmarkFilterE.clean)
    i._ZN10QtMobility31QLandmarkProximityFilterPrivate14copyIfPossibleER18QSharedDataPointerINS_22QLandmarkFilterPrivateEERKNS_15QLandmarkFilterE 0x0003017e   Section      204  qlandmarkproximityfilter.o(i._ZN10QtMobility31QLandmarkProximityFilterPrivate14copyIfPossibleER18QSharedDataPointerINS_22QLandmarkFilterPrivateEERKNS_15QLandmarkFilterE)
    i._ZN10QtMobility31QLandmarkProximityFilterPrivate14copyIfPossibleER18QSharedDataPointerINS_22QLandmarkFilterPrivateEERKNS_15QLandmarkFilterE.clean 0x0003024a   Section       24  qlandmarkproximityfilter.o(i._ZN10QtMobility31QLandmarkProximityFilterPrivate14copyIfPossibleER18QSharedDataPointerINS_22QLandmarkFilterPrivateEERKNS_15QLandmarkFilterE.clean)
    i._ZN10QtMobility32QLandmarkFetchByIdRequestPrivateD0Ev 0x00030262   Section       22  qlandmarkcategoryfetchrequest.o(i._ZN10QtMobility32QLandmarkFetchByIdRequestPrivateD0Ev)
    i._ZN10QtMobility32QLandmarkFetchByIdRequestPrivateD1Ev 0x00030278   Section       60  qlandmarkcategoryfetchrequest.o(i._ZN10QtMobility32QLandmarkFetchByIdRequestPrivateD1Ev)
    i._ZN10QtMobility32QLandmarkFetchByIdRequestPrivateD1Ev.clean 0x000302b4   Section       34  qlandmarkcategoryfetchrequest.o(i._ZN10QtMobility32QLandmarkFetchByIdRequestPrivateD1Ev.clean)
    i._ZN10QtMobility34QLandmarkIntersectionFilterPrivate14copyIfPossibleER18QSharedDataPointerINS_22QLandmarkFilterPrivateEERKNS_15QLandmarkFilterE 0x000302d6   Section      166  qlandmarkintersectionfilter.o(i._ZN10QtMobility34QLandmarkIntersectionFilterPrivate14copyIfPossibleER18QSharedDataPointerINS_22QLandmarkFilterPrivateEERKNS_15QLandmarkFilterE)
    i._ZN10QtMobility34QLandmarkIntersectionFilterPrivate14copyIfPossibleER18QSharedDataPointerINS_22QLandmarkFilterPrivateEERKNS_15QLandmarkFilterE.clean 0x0003037c   Section       14  qlandmarkintersectionfilter.o(i._ZN10QtMobility34QLandmarkIntersectionFilterPrivate14copyIfPossibleER18QSharedDataPointerINS_22QLandmarkFilterPrivateEERKNS_15QLandmarkFilterE.clean)
    i._ZN10QtMobility35QLandmarkCategorySaveRequestPrivateD0Ev 0x0003038a   Section       22  qlandmarkcategoryfetchrequest.o(i._ZN10QtMobility35QLandmarkCategorySaveRequestPrivateD0Ev)
    i._ZN10QtMobility35QLandmarkCategorySaveRequestPrivateD1Ev 0x000303a0   Section       48  qlandmarkcategoryfetchrequest.o(i._ZN10QtMobility35QLandmarkCategorySaveRequestPrivateD1Ev)
    i._ZN10QtMobility35QLandmarkCategorySaveRequestPrivateD1Ev.clean 0x000303d0   Section       22  qlandmarkcategoryfetchrequest.o(i._ZN10QtMobility35QLandmarkCategorySaveRequestPrivateD1Ev.clean)
    i._ZN10QtMobility36QLandmarkCategoryFetchRequestPrivateD0Ev 0x000303e6   Section       22  qlandmarkcategoryfetchrequest.o(i._ZN10QtMobility36QLandmarkCategoryFetchRequestPrivateD0Ev)
    i._ZN10QtMobility36QLandmarkCategoryFetchRequestPrivateD1Ev 0x000303fc   Section       48  qlandmarkcategoryfetchrequest.o(i._ZN10QtMobility36QLandmarkCategoryFetchRequestPrivateD1Ev)
    i._ZN10QtMobility36QLandmarkCategoryFetchRequestPrivateD1Ev.clean 0x0003042c   Section       22  qlandmarkcategoryfetchrequest.o(i._ZN10QtMobility36QLandmarkCategoryFetchRequestPrivateD1Ev.clean)
    i._ZN10QtMobility37QLandmarkCategoryRemoveRequestPrivateD0Ev 0x00030442   Section       22  qlandmarkcategoryfetchrequest.o(i._ZN10QtMobility37QLandmarkCategoryRemoveRequestPrivateD0Ev)
    i._ZN10QtMobility37QLandmarkCategoryRemoveRequestPrivateD1Ev 0x00030458   Section       48  qlandmarkcategoryfetchrequest.o(i._ZN10QtMobility37QLandmarkCategoryRemoveRequestPrivateD1Ev)
    i._ZN10QtMobility37QLandmarkCategoryRemoveRequestPrivateD1Ev.clean 0x00030488   Section       22  qlandmarkcategoryfetchrequest.o(i._ZN10QtMobility37QLandmarkCategoryRemoveRequestPrivateD1Ev.clean)
    i._ZN10QtMobility38QLandmarkCategoryIdFetchRequestPrivateD0Ev 0x0003049e   Section       22  qlandmarkcategoryfetchrequest.o(i._ZN10QtMobility38QLandmarkCategoryIdFetchRequestPrivateD0Ev)
    i._ZN10QtMobility38QLandmarkCategoryIdFetchRequestPrivateD1Ev 0x000304b4   Section       48  qlandmarkcategoryfetchrequest.o(i._ZN10QtMobility38QLandmarkCategoryIdFetchRequestPrivateD1Ev)
    i._ZN10QtMobility38QLandmarkCategoryIdFetchRequestPrivateD1Ev.clean 0x000304e4   Section       22  qlandmarkcategoryfetchrequest.o(i._ZN10QtMobility38QLandmarkCategoryIdFetchRequestPrivateD1Ev.clean)
    i._ZN10QtMobility40QLandmarkCategoryFetchByIdRequestPrivateD0Ev 0x000304fa   Section       22  qlandmarkcategoryfetchrequest.o(i._ZN10QtMobility40QLandmarkCategoryFetchByIdRequestPrivateD0Ev)
    i._ZN10QtMobility40QLandmarkCategoryFetchByIdRequestPrivateD1Ev 0x00030510   Section       60  qlandmarkcategoryfetchrequest.o(i._ZN10QtMobility40QLandmarkCategoryFetchByIdRequestPrivateD1Ev)
    i._ZN10QtMobility40QLandmarkCategoryFetchByIdRequestPrivateD1Ev.clean 0x0003054c   Section       34  qlandmarkcategoryfetchrequest.o(i._ZN10QtMobility40QLandmarkCategoryFetchByIdRequestPrivateD1Ev.clean)
    i._ZN10QtMobility9QGeoPlace6d_funcEv     0x0003056e   Section       44  qgeoplace.o(i._ZN10QtMobility9QGeoPlace6d_funcEv)
    i._ZN10QtMobility9QLandmark6d_funcEv     0x0003059a   Section       38  qlandmark.o(i._ZN10QtMobility9QLandmark6d_funcEv)
    i._ZN11QStringListC1ERK5QListI7QStringE  0x000305c0   Section       38  qlandmarkmanager.o(i._ZN11QStringListC1ERK5QListI7QStringE)
    i._ZN11QStringListC1ERKS_                0x000305e6   Section       38  qlandmarkmanagerengine.o(i._ZN11QStringListC1ERKS_)
    i._ZN11QStringListC1Ev                   0x0003060c   Section       14  qlandmarkmanager.o(i._ZN11QStringListC1Ev)
    i._ZN11QStringListD1Ev                   0x0003061a   Section       14  qlandmarkattributefilter.o(i._ZN11QStringListD1Ev)
    i._ZN11QStringListlsERK7QString          0x00030628   Section       18  qlandmarkmanagerengine.o(i._ZN11QStringListlsERK7QString)
    i._ZN12CleanupStack13PopAndDestroyEPv    0x0003063a   Section       16  qmlbackendmonitorcreatetriggerao_s60.o(i._ZN12CleanupStack13PopAndDestroyEPv)
    i._ZN12CleanupStack3PopEPv               0x0003064a   Section       16  qmlbackendmonitorcreatetriggerao_s60.o(i._ZN12CleanupStack3PopEPv)
    i._ZN12QMutexLocker6unlockEv             0x0003065a   Section       38  qgeopositioninfosource_s60.o(i._ZN12QMutexLocker6unlockEv)
    i._ZN12QMutexLockerC1EP6QMutex           0x00030680   Section       34  qgeopositioninfosource_s60.o(i._ZN12QMutexLockerC1EP6QMutex)
    i._ZN12QMutexLockerD1Ev                  0x000306a2   Section       14  qgeopositioninfosource_s60.o(i._ZN12QMutexLockerD1Ev)
    i._ZN13QListIteratorIN10QtMobility14QGeoCoordinateEED1Ev 0x000306b0   Section       14  qgeotiledmaprouteobjectinfo_p.o(i._ZN13QListIteratorIN10QtMobility14QGeoCoordinateEED1Ev)
    i._ZN15QBasicAtomicInt3refEv             0x000306be   Section       24  qgeosatelliteinfosource_s60.o(i._ZN15QBasicAtomicInt3refEv)
    i._ZN15QBasicAtomicInt5derefEv           0x000306d6   Section       24  qgeopositioninfosource_s60.o(i._ZN15QBasicAtomicInt5derefEv)
    i._ZN17QForeachContainerI11QStringListED1Ev 0x000306ee   Section       14  qlandmarkmanagerengine.o(i._ZN17QForeachContainerI11QStringListED1Ev)
    i._ZN17QForeachContainerI4QSetIPN10QtMobility17QGeoTiledMapReplyEEED1Ev 0x000306fc   Section       14  qgeotiledmapdata.o(i._ZN17QForeachContainerI4QSetIPN10QtMobility17QGeoTiledMapReplyEEED1Ev)
    i._ZN17QForeachContainerI5QListIN10QtMobility11QLandmarkIdEEED1Ev 0x0003070a   Section       14  qlandmarkmanagerengine.o(i._ZN17QForeachContainerI5QListIN10QtMobility11QLandmarkIdEEED1Ev)
    i._ZN17QForeachContainerI5QListIN10QtMobility19QLandmarkCategoryIdEEED1Ev 0x00030718   Section       14  qlandmarkmanagerengine.o(i._ZN17QForeachContainerI5QListIN10QtMobility19QLandmarkCategoryIdEEED1Ev)
    i._ZN17QForeachContainerI5QListIN10QtMobility9QLandmarkEEED1Ev 0x00030726   Section       14  qlandmarkmanagerengine.o(i._ZN17QForeachContainerI5QListIN10QtMobility9QLandmarkEEED1Ev)
    i._ZN17QForeachContainerI5QListIP13QGraphicsItemEED1Ev 0x00030734   Section       14  qgeotiledmapdata.o(i._ZN17QForeachContainerI5QListIP13QGraphicsItemEED1Ev)
    i._ZN17QForeachContainerI5QListIPN10QtMobility13QGeoMapObjectEEED1Ev 0x00030742   Section       14  qgeotiledmapgroupobjectinfo_p.o(i._ZN17QForeachContainerI5QListIPN10QtMobility13QGeoMapObjectEEED1Ev)
    i._ZN17QForeachContainerI5QListIPN10QtMobility29QLandmarkManagerEngineFactoryEEED1Ev 0x00030750   Section       14  qlandmarkmanager_p.o(i._ZN17QForeachContainerI5QListIPN10QtMobility29QLandmarkManagerEngineFactoryEEED1Ev)
    i._ZN4QSetI5QRectED1Ev                   0x0003075e   Section       14  qgeotiledmapdata.o(i._ZN4QSetI5QRectED1Ev)
    i._ZN4QSetI7QStringED1Ev                 0x0003076c   Section       14  qlandmarkmanager_p.o(i._ZN4QSetI7QStringED1Ev)
    i._ZN4QSetIN10QtMobility19QLandmarkCategoryIdEED1Ev 0x0003077a   Section       14  qlandmark.o(i._ZN4QSetIN10QtMobility19QLandmarkCategoryIdEED1Ev)
    i._ZN4QSetIPN10QtMobility17QGeoTiledMapReplyEED1Ev 0x00030788   Section       14  qgeotiledmapdata.o(i._ZN4QSetIPN10QtMobility17QGeoTiledMapReplyEED1Ev)
    i._ZN5CBasenwEj                          0x00030796   Section       16  qmlbackendmonitorinfo_s60.o(i._ZN5CBasenwEj)
    i._ZN5QPairI5QRectS0_EC1ERKS1_           0x000307a6   Section       26  qgeotiledmapdata.o(i._ZN5QPairI5QRectS0_EC1ERKS1_)
    i._ZN5QRect9translateEii                 0x000307c0   Section       26  qgeotiledmapdata.o(i._ZN5QRect9translateEii)
    i._ZN5QRectC1ERK6QPointRK5QSize          0x000307da   Section       40  qgeotiledmapdata.o(i._ZN5QRectC1ERK6QPointRK5QSize)
    i._ZN5QRectC1ERKS_                       0x00030802   Section       18  qgeotiledmapdata.o(i._ZN5QRectC1ERKS_)
    i._ZN5QRectC1Eiiii                       0x00030814   Section       22  qgeotiledmapdata.o(i._ZN5QRectC1Eiiii)
    i._ZN5QRectC1Ev                          0x0003082a   Section       14  qgeotiledmapdata.o(i._ZN5QRectC1Ev)
    i._ZN6QDebug10maybeSpaceEv               0x00030838   Section       24  qgeocoordinate.o(i._ZN6QDebug10maybeSpaceEv)
    i._ZN6QDebugC1ERKS_                      0x00030850   Section       16  qgeopositioninfo.o(i._ZN6QDebugC1ERKS_)
    i._ZN6QDebugD1Ev                         0x00030860   Section      144  qgeotiledmapdata.o(i._ZN6QDebugD1Ev)
    i._ZN6QDebugD1Ev.clean                   0x000308f0   Section       20  qgeotiledmapdata.o(i._ZN6QDebugD1Ev.clean)
    i._ZN6QDebuglsEPKc                       0x00030904   Section       44  qgeocoordinate.o(i._ZN6QDebuglsEPKc)
    i._ZN6QDebuglsEPKc.clean                 0x00030930   Section       10  qgeocoordinate.o(i._ZN6QDebuglsEPKc.clean)
    i._ZN6QDebuglsERK7QString                0x0003093a   Section       52  qlandmarkabstractrequest.o(i._ZN6QDebuglsERK7QString)
    i._ZN6QDebuglsEc                         0x0003096e   Section       22  qgeocoordinate.o(i._ZN6QDebuglsEc)
    i._ZN6QDebuglsEd                         0x00030984   Section       24  qgeocoordinate.o(i._ZN6QDebuglsEd)
    i._ZN6QDebuglsEi                         0x0003099c   Section       22  qgeosatelliteinfo.o(i._ZN6QDebuglsEi)
    i._ZN6QRectFC1ERK5QRect                  0x000309b2   Section       70  qgeotiledmapdata.o(i._ZN6QRectFC1ERK5QRect)
    i._ZN6QRectFC1ERK7QPointFRK6QSizeF       0x000309f8   Section       26  qgeotiledmapdata.o(i._ZN6QRectFC1ERK7QPointFRK6QSizeF)
    i._ZN6QRectFC1ERK7QPointFS2_             0x00030a12   Section       52  qgeotiledmaprectangleobjectinfo_p.o(i._ZN6QRectFC1ERK7QPointFS2_)
    i._ZN6QRectFC1Effff                      0x00030a46   Section       14  qgeotiledmapdata.o(i._ZN6QRectFC1Effff)
    i._ZN6QRectFC1Ev                         0x00030a54   Section       12  qgraphicsgeomap.o(i._ZN6QRectFC1Ev)
    i._ZN7QPointFC1ERK6QPoint                0x00030a60   Section       34  qgeotiledmapobjectinfo_p.o(i._ZN7QPointFC1ERK6QPoint)
    i._ZN7QPointFC1ERKS_                     0x00030a82   Section       10  qgeotiledmapobjectinfo_p.o(i._ZN7QPointFC1ERKS_)
    i._ZN7QPointFpLERKS_                     0x00030a8c   Section       30  qgeotiledmapobjectinfo_p.o(i._ZN7QPointFpLERKS_)
    i._ZN7QString5clearEv                    0x00030aac   Section       56  qgeoaddress.o(i._ZN7QString5clearEv)
    i._ZN7QString5clearEv.clean              0x00030ae4   Section       10  qgeoaddress.o(i._ZN7QString5clearEv.clean)
    i._ZN7QString6appendEPKc                 0x00030aee   Section       40  qgeocoordinate.o(i._ZN7QString6appendEPKc)
    i._ZN7QString6appendEPKc.clean           0x00030b16   Section       10  qgeocoordinate.o(i._ZN7QString6appendEPKc.clean)
    i._ZN7QString6insertEiRKS_               0x00030b20   Section       34  qgeocoordinate.o(i._ZN7QString6insertEiRKS_)
    i._ZN7QStringC1EPKc                      0x00030b42   Section       22  qgeocoordinate.o(i._ZN7QStringC1EPKc)
    i._ZN7QStringC1ERK10QByteArray           0x00030b58   Section       70  qlocationutils.o(i._ZN7QStringC1ERK10QByteArray)
    i._ZN7QStringC1ERK13QLatin1String        0x00030b9e   Section       26  qlandmarkmanager.o(i._ZN7QStringC1ERK13QLatin1String)
    i._ZN7QStringC1ERKS_                     0x00030bb8   Section       22  qgeoaddress.o(i._ZN7QStringC1ERKS_)
    i._ZN7QStringC1Ev                        0x00030bd0   Section       24  qgeoaddress.o(i._ZN7QStringC1Ev)
    i._ZN7QStringD1Ev                        0x00030be8   Section       24  qgeopositioninfosource_s60.o(i._ZN7QStringD1Ev)
    i._ZN7QStringaSEPKc                      0x00030c00   Section       40  qlandmarkabstractrequest.o(i._ZN7QStringaSEPKc)
    i._ZN7QStringaSEPKc.clean                0x00030c28   Section       10  qlandmarkabstractrequest.o(i._ZN7QStringaSEPKc.clean)
    i._ZN8QVariantC1Ev                       0x00030c32   Section       38  qlandmarkattributefilter.o(i._ZN8QVariantC1Ev)
    i._ZN9QHashData8willGrowEv               0x00030c58   Section       32  qgeopositioninfo.o(i._ZN9QHashData8willGrowEv)
    i._ZN9QHashData9firstNodeEv              0x00030c78   Section       36  qlandmarkattributefilter.o(i._ZN9QHashData9firstNodeEv)
    i._ZN9QHashData9hasShrunkEv              0x00030c9c   Section       82  qlandmarkattributefilter.o(i._ZN9QHashData9hasShrunkEv)
    i._ZN9QPolygonFD1Ev                      0x00030cee   Section       14  qgeotiledmapcircleobjectinfo_p.o(i._ZN9QPolygonFD1Ev)
    i._ZNK10QtMobility14QGeoCoordinateneERKS0_ 0x00030cfc   Section       20  qgeomapcircleobject.o(i._ZNK10QtMobility14QGeoCoordinateneERKS0_)
    i._ZNK10QtMobility16QGeoPlacePrivate5cloneEv 0x00030d10   Section       32  qgeoplace.o(i._ZNK10QtMobility16QGeoPlacePrivate5cloneEv)
    i._ZNK10QtMobility16QGeoPlacePrivate5cloneEv.clean 0x00030d30   Section       14  qgeoplace.o(i._ZNK10QtMobility16QGeoPlacePrivate5cloneEv.clean)
    i._ZNK10QtMobility16QLandmarkPrivate5cloneEv 0x00030d3e   Section       32  qlandmark.o(i._ZNK10QtMobility16QLandmarkPrivate5cloneEv)
    i._ZNK10QtMobility16QLandmarkPrivate5cloneEv.clean 0x00030d5e   Section       14  qlandmark.o(i._ZNK10QtMobility16QLandmarkPrivate5cloneEv.clean)
    i._ZNK10QtMobility22QLandmarkFilterPrivate5cloneEv 0x00030d6c   Section       32  qlandmarkfilter.o(i._ZNK10QtMobility22QLandmarkFilterPrivate5cloneEv)
    i._ZNK10QtMobility22QLandmarkFilterPrivate5cloneEv.clean 0x00030d8c   Section       14  qlandmarkfilter.o(i._ZNK10QtMobility22QLandmarkFilterPrivate5cloneEv.clean)
    i._ZNK10QtMobility22QLandmarkFilterPrivate7compareEPKS0_ 0x00030d9a   Section       18  qlandmarkfilter.o(i._ZNK10QtMobility22QLandmarkFilterPrivate7compareEPKS0_)
    i._ZNK10QtMobility24QLandmarkIdFilterPrivate5cloneEv 0x00030dac   Section       32  qlandmarkidfilter.o(i._ZNK10QtMobility24QLandmarkIdFilterPrivate5cloneEv)
    i._ZNK10QtMobility24QLandmarkIdFilterPrivate5cloneEv.clean 0x00030dcc   Section       14  qlandmarkidfilter.o(i._ZNK10QtMobility24QLandmarkIdFilterPrivate5cloneEv.clean)
    i._ZNK10QtMobility24QLandmarkIdFilterPrivate7compareEPKNS_22QLandmarkFilterPrivateE 0x00030dda   Section       22  qlandmarkidfilter.o(i._ZNK10QtMobility24QLandmarkIdFilterPrivate7compareEPKNS_22QLandmarkFilterPrivateE)
    i._ZNK10QtMobility24QLandmarkNameSortPrivate5cloneEv 0x00030df0   Section       32  qlandmarknamesort.o(i._ZNK10QtMobility24QLandmarkNameSortPrivate5cloneEv)
    i._ZNK10QtMobility24QLandmarkNameSortPrivate5cloneEv.clean 0x00030e10   Section       14  qlandmarknamesort.o(i._ZNK10QtMobility24QLandmarkNameSortPrivate5cloneEv.clean)
    i._ZNK10QtMobility24QLandmarkNameSortPrivate7compareEPKNS_25QLandmarkSortOrderPrivateE 0x00030e1e   Section       24  qlandmarknamesort.o(i._ZNK10QtMobility24QLandmarkNameSortPrivate7compareEPKNS_25QLandmarkSortOrderPrivateE)
    i._ZNK10QtMobility25QLandmarkBoxFilterPrivate5cloneEv 0x00030e36   Section       32  qlandmarkboxfilter.o(i._ZNK10QtMobility25QLandmarkBoxFilterPrivate5cloneEv)
    i._ZNK10QtMobility25QLandmarkBoxFilterPrivate5cloneEv.clean 0x00030e56   Section       14  qlandmarkboxfilter.o(i._ZNK10QtMobility25QLandmarkBoxFilterPrivate5cloneEv.clean)
    i._ZNK10QtMobility25QLandmarkBoxFilterPrivate7compareEPKNS_22QLandmarkFilterPrivateE 0x00030e64   Section       22  qlandmarkboxfilter.o(i._ZNK10QtMobility25QLandmarkBoxFilterPrivate7compareEPKNS_22QLandmarkFilterPrivateE)
    i._ZNK10QtMobility25QLandmarkSortOrderPrivate5cloneEv 0x00030e7a   Section       32  qlandmarksortorder.o(i._ZNK10QtMobility25QLandmarkSortOrderPrivate5cloneEv)
    i._ZNK10QtMobility25QLandmarkSortOrderPrivate5cloneEv.clean 0x00030e9a   Section       14  qlandmarksortorder.o(i._ZNK10QtMobility25QLandmarkSortOrderPrivate5cloneEv.clean)
    i._ZNK10QtMobility25QLandmarkSortOrderPrivate7compareEPKS0_ 0x00030ea8   Section       18  qlandmarksortorder.o(i._ZNK10QtMobility25QLandmarkSortOrderPrivate7compareEPKS0_)
    i._ZNK10QtMobility26CQGeoPositionInfoSourceS6027supportedPositioningMethodsEv 0x00030eba   Section       14  qgeopositioninfosource_s60.o(i._ZNK10QtMobility26CQGeoPositionInfoSourceS6027supportedPositioningMethodsEv)
    i._ZNK10QtMobility26QLandmarkNameFilterPrivate5cloneEv 0x00030ec8   Section       32  qlandmarknamefilter.o(i._ZNK10QtMobility26QLandmarkNameFilterPrivate5cloneEv)
    i._ZNK10QtMobility26QLandmarkNameFilterPrivate5cloneEv.clean 0x00030ee8   Section       14  qlandmarknamefilter.o(i._ZNK10QtMobility26QLandmarkNameFilterPrivate5cloneEv.clean)
    i._ZNK10QtMobility26QLandmarkNameFilterPrivate7compareEPKNS_22QLandmarkFilterPrivateE 0x00030ef6   Section       46  qlandmarknamefilter.o(i._ZNK10QtMobility26QLandmarkNameFilterPrivate7compareEPKNS_22QLandmarkFilterPrivateE)
    i._ZNK10QtMobility27QLandmarkUnionFilterPrivate5cloneEv 0x00030f24   Section       32  qlandmarkunionfilter.o(i._ZNK10QtMobility27QLandmarkUnionFilterPrivate5cloneEv)
    i._ZNK10QtMobility27QLandmarkUnionFilterPrivate5cloneEv.clean 0x00030f44   Section       14  qlandmarkunionfilter.o(i._ZNK10QtMobility27QLandmarkUnionFilterPrivate5cloneEv.clean)
    i._ZNK10QtMobility27QLandmarkUnionFilterPrivate7compareEPKNS_22QLandmarkFilterPrivateE 0x00030f52   Section       22  qlandmarkunionfilter.o(i._ZNK10QtMobility27QLandmarkUnionFilterPrivate7compareEPKNS_22QLandmarkFilterPrivateE)
    i._ZNK10QtMobility30QLandmarkCategoryFilterPrivate5cloneEv 0x00030f68   Section       32  qlandmarkcategoryfilter.o(i._ZNK10QtMobility30QLandmarkCategoryFilterPrivate5cloneEv)
    i._ZNK10QtMobility30QLandmarkCategoryFilterPrivate5cloneEv.clean 0x00030f88   Section       14  qlandmarkcategoryfilter.o(i._ZNK10QtMobility30QLandmarkCategoryFilterPrivate5cloneEv.clean)
    i._ZNK10QtMobility30QLandmarkCategoryFilterPrivate7compareEPKNS_22QLandmarkFilterPrivateE 0x00030f96   Section       22  qlandmarkcategoryfilter.o(i._ZNK10QtMobility30QLandmarkCategoryFilterPrivate7compareEPKNS_22QLandmarkFilterPrivateE)
    i._ZNK10QtMobility31QLandmarkAttributeFilterPrivate5cloneEv 0x00030fac   Section       32  qlandmarkattributefilter.o(i._ZNK10QtMobility31QLandmarkAttributeFilterPrivate5cloneEv)
    i._ZNK10QtMobility31QLandmarkAttributeFilterPrivate5cloneEv.clean 0x00030fcc   Section       14  qlandmarkattributefilter.o(i._ZNK10QtMobility31QLandmarkAttributeFilterPrivate5cloneEv.clean)
    i._ZNK10QtMobility31QLandmarkAttributeFilterPrivate7compareEPKNS_22QLandmarkFilterPrivateE 0x00030fda   Section       56  qlandmarkattributefilter.o(i._ZNK10QtMobility31QLandmarkAttributeFilterPrivate7compareEPKNS_22QLandmarkFilterPrivateE)
    i._ZNK10QtMobility31QLandmarkProximityFilterPrivate5cloneEv 0x00031012   Section       32  qlandmarkproximityfilter.o(i._ZNK10QtMobility31QLandmarkProximityFilterPrivate5cloneEv)
    i._ZNK10QtMobility31QLandmarkProximityFilterPrivate5cloneEv.clean 0x00031032   Section       14  qlandmarkproximityfilter.o(i._ZNK10QtMobility31QLandmarkProximityFilterPrivate5cloneEv.clean)
    i._ZNK10QtMobility31QLandmarkProximityFilterPrivate7compareEPKNS_22QLandmarkFilterPrivateE 0x00031040   Section       22  qlandmarkproximityfilter.o(i._ZNK10QtMobility31QLandmarkProximityFilterPrivate7compareEPKNS_22QLandmarkFilterPrivateE)
    i._ZNK10QtMobility34QLandmarkIntersectionFilterPrivate5cloneEv 0x00031056   Section       32  qlandmarkintersectionfilter.o(i._ZNK10QtMobility34QLandmarkIntersectionFilterPrivate5cloneEv)
    i._ZNK10QtMobility34QLandmarkIntersectionFilterPrivate5cloneEv.clean 0x00031076   Section       14  qlandmarkintersectionfilter.o(i._ZNK10QtMobility34QLandmarkIntersectionFilterPrivate5cloneEv.clean)
    i._ZNK10QtMobility34QLandmarkIntersectionFilterPrivate7compareEPKNS_22QLandmarkFilterPrivateE 0x00031084   Section       22  qlandmarkintersectionfilter.o(i._ZNK10QtMobility34QLandmarkIntersectionFilterPrivate7compareEPKNS_22QLandmarkFilterPrivateE)
    i._ZNK13QLatin1StringeqEPKc              0x0003109a   Section       40  qgeopositioninfosource_s60.o(i._ZNK13QLatin1StringeqEPKc)
    i._ZNK13QLatin1StringeqEPKc.clean        0x000310c2   Section       10  qgeopositioninfosource_s60.o(i._ZNK13QLatin1StringeqEPKc.clean)
    i._ZNK15QBasicAtomicInteqEi              0x000310cc   Section       16  qlandmarkcategoryfetchrequest.o(i._ZNK15QBasicAtomicInteqEi)
    i._ZNK15QBasicAtomicIntneEi              0x000310dc   Section       16  qgeosatelliteinfosource_s60.o(i._ZNK15QBasicAtomicIntneEi)
    i._ZNK25TTimeIntervalMicroSecondsltERKS_ 0x000310ec   Section       28  qgeopositioninfosource_s60.o(i._ZNK25TTimeIntervalMicroSecondsltERKS_)
    i._ZNK25TTimeIntervalMicroSecondsneERKS_ 0x00031108   Section       28  qgeopositioninfosource_s60.o(i._ZNK25TTimeIntervalMicroSecondsneERKS_)
    i._ZNK5QRect4sizeEv                      0x00031124   Section       38  qgeotiledmapdata.o(i._ZNK5QRect4sizeEv)
    i._ZNK5QRect5widthEv                     0x0003114a   Section       12  qgeotiledmapdata.o(i._ZNK5QRect5widthEv)
    i._ZNK5QRect6heightEv                    0x00031156   Section       12  qgeotiledmapdata.o(i._ZNK5QRect6heightEv)
    i._ZNK5QRect7isEmptyEv                   0x00031162   Section       26  qgeotiledmapdata.o(i._ZNK5QRect7isEmptyEv)
    i._ZNK5QRect7isValidEv                   0x0003117c   Section       26  qgeotiledmapdata.o(i._ZNK5QRect7isValidEv)
    i._ZNK7QObject7connectEPKS_PKcS3_N2Qt14ConnectionTypeE 0x00031196   Section       30  qnmeapositioninfosource.o(i._ZNK7QObject7connectEPKS_PKcS3_N2Qt14ConnectionTypeE)
    i._ZNK7QObject8inheritsEPKc              0x000311b4   Section       28  qmlbackendao_s60.o(i._ZNK7QObject8inheritsEPKc)
    i._ZNK7QPointF7toPointEv                 0x000311d0   Section       34  qgeotiledmapobjectinfo_p.o(i._ZNK7QPointF7toPointEv)
    i._ZNK7QString7isEmptyEv                 0x000311f2   Section       18  qgeoaddress.o(i._ZNK7QString7isEmptyEv)
    i._ZNK7QStringeqEPKc                     0x00031204   Section       76  qlandmarkmanagerengine.o(i._ZNK7QStringeqEPKc)
    i._ZNK7QStringeqEPKc.clean               0x00031250   Section       10  qlandmarkmanagerengine.o(i._ZNK7QStringeqEPKc.clean)
    i._ZNK8QByteRefcvcEv                     0x0003125a   Section       30  qlocationutils.o(i._ZNK8QByteRefcvcEv)
    i._ZNK8QByteRefeqEc                      0x00031278   Section       24  qlocationutils.o(i._ZNK8QByteRefeqEc)
    i._ZNK8QVarianteqERKS_                   0x00031290   Section       16  qlandmarkmanagerengine.o(i._ZNK8QVarianteqERKS_)
    i._ZNK9QListData2atEi                    0x000312a0   Section       20  qlandmark.o(i._ZNK9QListData2atEi)
    i._ZNK9QListData3endEv                   0x000312b4   Section       16  qgeosatelliteinfosource_s60.o(i._ZNK9QListData3endEv)
    i._ZNK9QListData4sizeEv                  0x000312c4   Section       14  qlandmarkmanager.o(i._ZNK9QListData4sizeEv)
    i._ZNK9QListData5beginEv                 0x000312d2   Section       16  qgeosatelliteinfosource_s60.o(i._ZNK9QListData5beginEv)
    i._ZNK9QListData7isEmptyEv               0x000312e2   Section       22  qlandmarkmanager_p.o(i._ZNK9QListData7isEmptyEv)
    i._ZThn4_NK10QtMobility26CQGeoPositionInfoSourceS6027supportedPositioningMethodsEv 0x000312f8   Section       24  qgeopositioninfosource_s60.o(i._ZThn4_NK10QtMobility26CQGeoPositionInfoSourceS6027supportedPositioningMethodsEv)
    i._ZdlPvS_                               0x00031310   Section        2  qlocationutils.o(i._ZdlPvS_)
    i._ZeqRK5QRectS1_                        0x00031312   Section       42  qgeotiledmapdata.o(i._ZeqRK5QRectS1_)
    i._ZmiRK6QPointS1_                       0x0003133c   Section       28  qgeotiledmapdata.o(i._ZmiRK6QPointS1_)
    i._ZmiRK7QPointFS1_                      0x00031358   Section       42  qgeotiledmapobjectinfo_p.o(i._ZmiRK7QPointFS1_)
    i._ZmlRK7QPointFf                        0x00031382   Section       42  qgeotiledmapobjectinfo_p.o(i._ZmlRK7QPointFf)
    i._ZnwjPv                                0x000313ac   Section        6  qgeopositioninfo.o(i._ZnwjPv)
    i._ZplRK7QString5QChar                   0x000313b2   Section      128  qlandmarkmanager.o(i._ZplRK7QString5QChar)
    i._ZplRK7QString5QChar.clean             0x00031432   Section       10  qlandmarkmanager.o(i._ZplRK7QString5QChar.clean)
    i._ZplRK7QStringS1_                      0x0003143c   Section       44  qlandmarkmanager.o(i._ZplRK7QStringS1_)
    i._ZplRK7QStringS1_.clean                0x00031468   Section       10  qlandmarkmanager.o(i._ZplRK7QStringS1_.clean)
    t._Z10qDeleteAllI5QListIPN10QtMobility14QGeoMapOverlayEEEvRKT_ 0x00031472   Section       46  qgeomapdata.o(t._Z10qDeleteAllI5QListIPN10QtMobility14QGeoMapOverlayEEEvRKT_)
    t._Z10qDeleteAllI5QListIPN10QtMobility21QLandmarkFetchRequestEEEvRKT_ 0x000314a0   Section       46  qgeosearchmanager.o(t._Z10qDeleteAllI5QListIPN10QtMobility21QLandmarkFetchRequestEEEvRKT_)
    t._Z10qDeleteAllIN5QListIPN10QtMobility13QGeoMapObjectEE14const_iteratorEEvT_S6_ 0x000314ce   Section       62  qgeomapgroupobject.o(t._Z10qDeleteAllIN5QListIPN10QtMobility13QGeoMapObjectEE14const_iteratorEEvT_S6_)
    t._Z10qDeleteAllIN5QListIPN10QtMobility14QGeoMapOverlayEE14const_iteratorEEvT_S6_ 0x0003150c   Section       62  qgeomapdata.o(t._Z10qDeleteAllIN5QListIPN10QtMobility14QGeoMapOverlayEE14const_iteratorEEvT_S6_)
    t._Z10qDeleteAllIN5QListIPN10QtMobility16QLandmarkManagerEE14const_iteratorEEvT_S6_ 0x0003154a   Section       62  qgeosearchmanagerengine.o(t._Z10qDeleteAllIN5QListIPN10QtMobility16QLandmarkManagerEE14const_iteratorEEvT_S6_)
    t._Z10qDeleteAllIN5QListIPN10QtMobility21QLandmarkFetchRequestEE14const_iteratorEEvT_S6_ 0x00031588   Section       62  qgeosearchmanager.o(t._Z10qDeleteAllIN5QListIPN10QtMobility21QLandmarkFetchRequestEE14const_iteratorEEvT_S6_)
    t._Z11qUpperBoundIN5QListIPN10QtMobility13QGeoMapObjectEE8iteratorES3_PFbPKS2_S7_EET_SA_SA_RKT0_T1_ 0x000315c6   Section       48  qgeomapgroupobject.o(t._Z11qUpperBoundIN5QListIPN10QtMobility13QGeoMapObjectEE8iteratorES3_PFbPKS2_S7_EET_SA_SA_RKT0_T1_)
    t._Z12qobject_castIPN10QtMobility26QGeoServiceProviderFactoryEET_P7QObject 0x000315f8   Section       84  qgeoserviceprovider.o(t._Z12qobject_castIPN10QtMobility26QGeoServiceProviderFactoryEET_P7QObject)
    t._Z12qobject_castIPN10QtMobility29QLandmarkManagerEngineFactoryEET_P7QObject 0x0003164c   Section       76  qlandmarkmanager_p.o(t._Z12qobject_castIPN10QtMobility29QLandmarkManagerEngineFactoryEET_P7QObject)
    t._Z15qMapLessThanKeyI7QStringEbRKT_S3_  0x00031698   Section       16  qlandmarkmanager.o(t._Z15qMapLessThanKeyI7QStringEbRKT_S3_)
    t._Z15qMapLessThanKeyIN10QtMobility16QGeoRouteRequest11FeatureTypeEEbRKT_S5_ 0x000316a8   Section       18  qgeorouterequest.o(t._Z15qMapLessThanKeyIN10QtMobility16QGeoRouteRequest11FeatureTypeEEbRKT_S5_)
    t._Z20qForeachContainerNewI11QStringListE17QForeachContainerIT_ERKS2_ 0x000316ba   Section      102  qlandmarkmanagerengine.o(t._Z20qForeachContainerNewI11QStringListE17QForeachContainerIT_ERKS2_)
    t._Z20qForeachContainerNewI11QStringListE17QForeachContainerIT_ERKS2_.clean 0x00031720   Section       10  qlandmarkmanagerengine.o(t._Z20qForeachContainerNewI11QStringListE17QForeachContainerIT_ERKS2_.clean)
    t._Z20qForeachContainerNewI5QListIN10QtMobility9QLandmarkEEE17QForeachContainerIT_ERKS5_ 0x0003172a   Section      126  qlandmarkmanagerengine.o(t._Z20qForeachContainerNewI5QListIN10QtMobility9QLandmarkEEE17QForeachContainerIT_ERKS5_)
    t._Z20qForeachContainerNewI5QListIN10QtMobility9QLandmarkEEE17QForeachContainerIT_ERKS5_.clean 0x000317a8   Section       10  qlandmarkmanagerengine.o(t._Z20qForeachContainerNewI5QListIN10QtMobility9QLandmarkEEE17QForeachContainerIT_ERKS5_.clean)
    t._Z4qAbsIdET_RKS0_                      0x000317b4   Section       56  qgeocoordinate.o(t._Z4qAbsIdET_RKS0_)
    t._Z4qAbsIfET_RKS0_                      0x000317ec   Section       28  qlandmark.o(t._Z4qAbsIfET_RKS0_)
    t._Z4qAbsIiET_RKS0_                      0x00031808   Section       18  qgeotiledmapdata.o(t._Z4qAbsIiET_RKS0_)
    t._Z4qMaxIdERKT_S2_S2_                   0x0003181a   Section       28  qgeoboundingbox.o(t._Z4qMaxIdERKT_S2_S2_)
    t._Z4qMinIdERKT_S2_S2_                   0x00031836   Section       28  qgeoboundingbox.o(t._Z4qMinIdERKT_S2_S2_)
    t._Z4qMinIfERKT_S2_S2_                   0x00031852   Section       24  qgeomapdata.o(t._Z4qMinIfERKT_S2_S2_)
    t._ZN12CleanupCloseI10RLbtServerE5CloseEPv 0x0003186a   Section       12  qgeoareamonitor_s60.o(t._ZN12CleanupCloseI10RLbtServerE5CloseEPv)
    t._ZN12CleanupCloseI11RPositionerE5CloseEPv 0x00031876   Section       12  qmlbackendao_s60.o(t._ZN12CleanupCloseI11RPositionerE5CloseEPv)
    t._ZN12CleanupCloseI15RPositionServerE5CloseEPv 0x00031882   Section       12  qgeopositioninfosource_s60.o(t._ZN12CleanupCloseI15RPositionServerE5CloseEPv)
    t._ZN12CleanupCloseI15RRequestorStackE5CloseEPv 0x0003188e   Section       14  qmlbackendmonitorcreatetriggerao_s60.o(t._ZN12CleanupCloseI15RRequestorStackE5CloseEPv)
    t._ZN12CleanupCloseI6RArrayImEE5CloseEPv 0x0003189c   Section       14  qmlbackendtriggerchangeao_s60.o(t._ZN12CleanupCloseI6RArrayImEE5CloseEPv)
    t._ZN12QWeakPointerIN10QtMobility20QLandmarkSaveRequestEED1Ev 0x000318aa   Section       42  qlandmarkmanagerengine.o(t._ZN12QWeakPointerIN10QtMobility20QLandmarkSaveRequestEED1Ev)
    t._ZN12QWeakPointerIN10QtMobility21QLandmarkFetchRequestEED1Ev 0x000318d4   Section       42  qlandmarkmanagerengine.o(t._ZN12QWeakPointerIN10QtMobility21QLandmarkFetchRequestEED1Ev)
    t._ZN12QWeakPointerIN10QtMobility22QLandmarkExportRequestEED1Ev 0x000318fe   Section       42  qlandmarkmanagerengine.o(t._ZN12QWeakPointerIN10QtMobility22QLandmarkExportRequestEED1Ev)
    t._ZN12QWeakPointerIN10QtMobility22QLandmarkImportRequestEED1Ev 0x00031928   Section       42  qlandmarkmanagerengine.o(t._ZN12QWeakPointerIN10QtMobility22QLandmarkImportRequestEED1Ev)
    t._ZN12QWeakPointerIN10QtMobility22QLandmarkRemoveRequestEED1Ev 0x00031952   Section       42  qlandmarkmanagerengine.o(t._ZN12QWeakPointerIN10QtMobility22QLandmarkRemoveRequestEED1Ev)
    t._ZN12QWeakPointerIN10QtMobility23QLandmarkIdFetchRequestEED1Ev 0x0003197c   Section       42  qlandmarkmanagerengine.o(t._ZN12QWeakPointerIN10QtMobility23QLandmarkIdFetchRequestEED1Ev)
    t._ZN12QWeakPointerIN10QtMobility25QLandmarkFetchByIdRequestEED1Ev 0x000319a6   Section       42  qlandmarkmanagerengine.o(t._ZN12QWeakPointerIN10QtMobility25QLandmarkFetchByIdRequestEED1Ev)
    t._ZN12QWeakPointerIN10QtMobility28QLandmarkCategorySaveRequestEED1Ev 0x000319d0   Section       42  qlandmarkmanagerengine.o(t._ZN12QWeakPointerIN10QtMobility28QLandmarkCategorySaveRequestEED1Ev)
    t._ZN12QWeakPointerIN10QtMobility29QLandmarkCategoryFetchRequestEED1Ev 0x000319fa   Section       42  qlandmarkmanagerengine.o(t._ZN12QWeakPointerIN10QtMobility29QLandmarkCategoryFetchRequestEED1Ev)
    t._ZN12QWeakPointerIN10QtMobility30QLandmarkCategoryRemoveRequestEED1Ev 0x00031a24   Section       42  qlandmarkmanagerengine.o(t._ZN12QWeakPointerIN10QtMobility30QLandmarkCategoryRemoveRequestEED1Ev)
    t._ZN12QWeakPointerIN10QtMobility31QLandmarkCategoryIdFetchRequestEED1Ev 0x00031a4e   Section       42  qlandmarkmanagerengine.o(t._ZN12QWeakPointerIN10QtMobility31QLandmarkCategoryIdFetchRequestEED1Ev)
    t._ZN12QWeakPointerIN10QtMobility33QLandmarkCategoryFetchByIdRequestEED1Ev 0x00031a78   Section       42  qlandmarkmanagerengine.o(t._ZN12QWeakPointerIN10QtMobility33QLandmarkCategoryFetchByIdRequestEED1Ev)
    t._ZN14QHashDummyNodeI5QRect15QHashDummyValueEC1ERKS0_ 0x00031aa2   Section       24  qgeotiledmapdata.o(t._ZN14QHashDummyNodeI5QRect15QHashDummyValueEC1ERKS0_)
    t._ZN14QHashDummyNodeI7QString15QHashDummyValueEC1ERKS0_ 0x00031aba   Section       24  qlandmarkmanager_p.o(t._ZN14QHashDummyNodeI7QString15QHashDummyValueEC1ERKS0_)
    t._ZN14QHashDummyNodeIN10QtMobility19QLandmarkCategoryIdE15QHashDummyValueEC1ERKS1_ 0x00031ad2   Section       24  qlandmark.o(t._ZN14QHashDummyNodeIN10QtMobility19QLandmarkCategoryIdE15QHashDummyValueEC1ERKS1_)
    t._ZN18QAlgorithmsPrivate17qUpperBoundHelperIN5QListIPN10QtMobility13QGeoMapObjectEE8iteratorES4_PFbPKS3_S8_EEET_SB_SB_RKT0_T1_ 0x00031aea   Section      138  qgeomapgroupobject.o(t._ZN18QAlgorithmsPrivate17qUpperBoundHelperIN5QListIPN10QtMobility13QGeoMapObjectEE8iteratorES4_PFbPKS3_S8_EEET_SB_SB_RKT0_T1_)
    t._ZN18QSharedDataPointerIN10QtMobility16QGeoPlacePrivateEE13detach_helperEv 0x00031b74   Section       50  qgeoplace.o(t._ZN18QSharedDataPointerIN10QtMobility16QGeoPlacePrivateEE13detach_helperEv)
    t._ZN18QSharedDataPointerIN10QtMobility16QGeoPlacePrivateEE5cloneEv 0x00031ba6   Section       16  qgeoplace.o(t._ZN18QSharedDataPointerIN10QtMobility16QGeoPlacePrivateEE5cloneEv)
    t._ZN18QSharedDataPointerIN10QtMobility16QGeoPlacePrivateEEC1EPS1_ 0x00031bb6   Section       26  qgeoplace.o(t._ZN18QSharedDataPointerIN10QtMobility16QGeoPlacePrivateEEC1EPS1_)
    t._ZN18QSharedDataPointerIN10QtMobility16QGeoPlacePrivateEED1Ev 0x00031bd0   Section       42  qgeoplace.o(t._ZN18QSharedDataPointerIN10QtMobility16QGeoPlacePrivateEED1Ev)
    t._ZN18QSharedDataPointerIN10QtMobility16QGeoPlacePrivateEEaSEPS1_ 0x00031bfa   Section       58  qlandmark.o(t._ZN18QSharedDataPointerIN10QtMobility16QGeoPlacePrivateEEaSEPS1_)
    t._ZN18QSharedDataPointerIN10QtMobility18QGeoAddressPrivateEE13detach_helperEv 0x00031c34   Section       82  qgeoaddress.o(t._ZN18QSharedDataPointerIN10QtMobility18QGeoAddressPrivateEE13detach_helperEv)
    t._ZN18QSharedDataPointerIN10QtMobility18QGeoAddressPrivateEE13detach_helperEv.clean 0x00031c86   Section       16  qgeoaddress.o(t._ZN18QSharedDataPointerIN10QtMobility18QGeoAddressPrivateEE13detach_helperEv.clean)
    t._ZN18QSharedDataPointerIN10QtMobility18QGeoAddressPrivateEED1Ev 0x00031c96   Section       42  qgeoaddress.o(t._ZN18QSharedDataPointerIN10QtMobility18QGeoAddressPrivateEED1Ev)
    t._ZN18QSharedDataPointerIN10QtMobility18QGeoAddressPrivateEEptEv 0x00031cc0   Section       40  qgeoaddress.o(t._ZN18QSharedDataPointerIN10QtMobility18QGeoAddressPrivateEEptEv)
    t._ZN18QSharedDataPointerIN10QtMobility18QLandmarkIdPrivateEE13detach_helperEv 0x00031ce8   Section      130  qlandmarkid.o(t._ZN18QSharedDataPointerIN10QtMobility18QLandmarkIdPrivateEE13detach_helperEv)
    t._ZN18QSharedDataPointerIN10QtMobility18QLandmarkIdPrivateEE13detach_helperEv.clean 0x00031d6a   Section       28  qlandmarkid.o(t._ZN18QSharedDataPointerIN10QtMobility18QLandmarkIdPrivateEE13detach_helperEv.clean)
    t._ZN18QSharedDataPointerIN10QtMobility18QLandmarkIdPrivateEED1Ev 0x00031d86   Section       42  qlandmarkid.o(t._ZN18QSharedDataPointerIN10QtMobility18QLandmarkIdPrivateEED1Ev)
    t._ZN18QSharedDataPointerIN10QtMobility18QLandmarkIdPrivateEEptEv 0x00031db0   Section       40  qlandmarkid.o(t._ZN18QSharedDataPointerIN10QtMobility18QLandmarkIdPrivateEEptEv)
    t._ZN18QSharedDataPointerIN10QtMobility22QGeoBoundingBoxPrivateEE13detach_helperEv 0x00031dd8   Section       82  qgeoboundingbox.o(t._ZN18QSharedDataPointerIN10QtMobility22QGeoBoundingBoxPrivateEE13detach_helperEv)
    t._ZN18QSharedDataPointerIN10QtMobility22QGeoBoundingBoxPrivateEE13detach_helperEv.clean 0x00031e2a   Section       16  qgeoboundingbox.o(t._ZN18QSharedDataPointerIN10QtMobility22QGeoBoundingBoxPrivateEE13detach_helperEv.clean)
    t._ZN18QSharedDataPointerIN10QtMobility22QGeoBoundingBoxPrivateEEC1EPS1_ 0x00031e3a   Section       24  qgeoboundingbox.o(t._ZN18QSharedDataPointerIN10QtMobility22QGeoBoundingBoxPrivateEEC1EPS1_)
    t._ZN18QSharedDataPointerIN10QtMobility22QGeoBoundingBoxPrivateEED1Ev 0x00031e52   Section       42  qgeoboundingbox.o(t._ZN18QSharedDataPointerIN10QtMobility22QGeoBoundingBoxPrivateEED1Ev)
    t._ZN18QSharedDataPointerIN10QtMobility22QGeoBoundingBoxPrivateEEptEv 0x00031e7c   Section       40  qgeoboundingbox.o(t._ZN18QSharedDataPointerIN10QtMobility22QGeoBoundingBoxPrivateEEptEv)
    t._ZN18QSharedDataPointerIN10QtMobility22QLandmarkFilterPrivateEE13detach_helperEv 0x00031ea4   Section       50  qlandmarkattributefilter.o(t._ZN18QSharedDataPointerIN10QtMobility22QLandmarkFilterPrivateEE13detach_helperEv)
    t._ZN18QSharedDataPointerIN10QtMobility22QLandmarkFilterPrivateEE5cloneEv 0x00031ed6   Section       16  qlandmarkfilter.o(t._ZN18QSharedDataPointerIN10QtMobility22QLandmarkFilterPrivateEE5cloneEv)
    t._ZN18QSharedDataPointerIN10QtMobility22QLandmarkFilterPrivateEEC1EPS1_ 0x00031ee6   Section       26  qlandmarkfilter.o(t._ZN18QSharedDataPointerIN10QtMobility22QLandmarkFilterPrivateEEC1EPS1_)
    t._ZN18QSharedDataPointerIN10QtMobility22QLandmarkFilterPrivateEED1Ev 0x00031f00   Section       42  qlandmarkfilter.o(t._ZN18QSharedDataPointerIN10QtMobility22QLandmarkFilterPrivateEED1Ev)
    t._ZN18QSharedDataPointerIN10QtMobility24QLandmarkCategoryPrivateEE13detach_helperEv 0x00031f2a   Section       82  qlandmarkcategory.o(t._ZN18QSharedDataPointerIN10QtMobility24QLandmarkCategoryPrivateEE13detach_helperEv)
    t._ZN18QSharedDataPointerIN10QtMobility24QLandmarkCategoryPrivateEE13detach_helperEv.clean 0x00031f7c   Section       16  qlandmarkcategory.o(t._ZN18QSharedDataPointerIN10QtMobility24QLandmarkCategoryPrivateEE13detach_helperEv.clean)
    t._ZN18QSharedDataPointerIN10QtMobility24QLandmarkCategoryPrivateEE6detachEv 0x00031f8c   Section       36  qlandmarkcategory.o(t._ZN18QSharedDataPointerIN10QtMobility24QLandmarkCategoryPrivateEE6detachEv)
    t._ZN18QSharedDataPointerIN10QtMobility24QLandmarkCategoryPrivateEED1Ev 0x00031fb0   Section       42  qlandmarkcategory.o(t._ZN18QSharedDataPointerIN10QtMobility24QLandmarkCategoryPrivateEED1Ev)
    t._ZN18QSharedDataPointerIN10QtMobility24QLandmarkCategoryPrivateEEptEv 0x00031fda   Section       14  qlandmarkcategory.o(t._ZN18QSharedDataPointerIN10QtMobility24QLandmarkCategoryPrivateEEptEv)
    t._ZN18QSharedDataPointerIN10QtMobility25QGeoBoundingCirclePrivateEE13detach_helperEv 0x00031fe8   Section       82  qgeoboundingcircle.o(t._ZN18QSharedDataPointerIN10QtMobility25QGeoBoundingCirclePrivateEE13detach_helperEv)
    t._ZN18QSharedDataPointerIN10QtMobility25QGeoBoundingCirclePrivateEE13detach_helperEv.clean 0x0003203a   Section       16  qgeoboundingcircle.o(t._ZN18QSharedDataPointerIN10QtMobility25QGeoBoundingCirclePrivateEE13detach_helperEv.clean)
    t._ZN18QSharedDataPointerIN10QtMobility25QGeoBoundingCirclePrivateEEC1EPS1_ 0x0003204a   Section       24  qgeoboundingcircle.o(t._ZN18QSharedDataPointerIN10QtMobility25QGeoBoundingCirclePrivateEEC1EPS1_)
    t._ZN18QSharedDataPointerIN10QtMobility25QGeoBoundingCirclePrivateEED1Ev 0x00032062   Section       42  qgeoboundingcircle.o(t._ZN18QSharedDataPointerIN10QtMobility25QGeoBoundingCirclePrivateEED1Ev)
    t._ZN18QSharedDataPointerIN10QtMobility25QGeoBoundingCirclePrivateEEptEv 0x0003208c   Section       40  qgeoboundingcircle.o(t._ZN18QSharedDataPointerIN10QtMobility25QGeoBoundingCirclePrivateEEptEv)
    t._ZN18QSharedDataPointerIN10QtMobility25QLandmarkSortOrderPrivateEE13detach_helperEv 0x000320b4   Section       50  qlandmarknamesort.o(t._ZN18QSharedDataPointerIN10QtMobility25QLandmarkSortOrderPrivateEE13detach_helperEv)
    t._ZN18QSharedDataPointerIN10QtMobility25QLandmarkSortOrderPrivateEE5cloneEv 0x000320e6   Section       16  qlandmarksortorder.o(t._ZN18QSharedDataPointerIN10QtMobility25QLandmarkSortOrderPrivateEE5cloneEv)
    t._ZN18QSharedDataPointerIN10QtMobility25QLandmarkSortOrderPrivateEEC1EPS1_ 0x000320f6   Section       26  qlandmarksortorder.o(t._ZN18QSharedDataPointerIN10QtMobility25QLandmarkSortOrderPrivateEEC1EPS1_)
    t._ZN18QSharedDataPointerIN10QtMobility25QLandmarkSortOrderPrivateEED1Ev 0x00032110   Section       42  qlandmarksortorder.o(t._ZN18QSharedDataPointerIN10QtMobility25QLandmarkSortOrderPrivateEED1Ev)
    t._ZN18QSharedDataPointerIN10QtMobility26QLandmarkCategoryIdPrivateEE13detach_helperEv 0x0003213a   Section      130  qlandmarkcategoryid.o(t._ZN18QSharedDataPointerIN10QtMobility26QLandmarkCategoryIdPrivateEE13detach_helperEv)
    t._ZN18QSharedDataPointerIN10QtMobility26QLandmarkCategoryIdPrivateEE13detach_helperEv.clean 0x000321bc   Section       28  qlandmarkcategoryid.o(t._ZN18QSharedDataPointerIN10QtMobility26QLandmarkCategoryIdPrivateEE13detach_helperEv.clean)
    t._ZN18QSharedDataPointerIN10QtMobility26QLandmarkCategoryIdPrivateEED1Ev 0x000321d8   Section       42  qlandmarkcategoryid.o(t._ZN18QSharedDataPointerIN10QtMobility26QLandmarkCategoryIdPrivateEED1Ev)
    t._ZN18QSharedDataPointerIN10QtMobility26QLandmarkCategoryIdPrivateEEptEv 0x00032202   Section       40  qlandmarkcategoryid.o(t._ZN18QSharedDataPointerIN10QtMobility26QLandmarkCategoryIdPrivateEEptEv)
    t._ZN19QMutableSetIteratorIPN10QtMobility17QGeoTiledMapReplyEED1Ev 0x0003222a   Section       16  qgeotiledmapdata.o(t._ZN19QMutableSetIteratorIPN10QtMobility17QGeoTiledMapReplyEED1Ev)
    t._ZN20QMutableListIteratorIN10QtMobility19QGeoTiledMapRequestEE4nextEv 0x0003223a   Section       36  qgeotiledmapdata.o(t._ZN20QMutableListIteratorIN10QtMobility19QGeoTiledMapRequestEE4nextEv)
    t._ZN20QMutableListIteratorIN10QtMobility19QGeoTiledMapRequestEE6removeEv 0x0003225e   Section      108  qgeotiledmapdata.o(t._ZN20QMutableListIteratorIN10QtMobility19QGeoTiledMapRequestEE6removeEv)
    t._ZN20QMutableListIteratorIN10QtMobility19QGeoTiledMapRequestEEC1ER5QListIS1_E 0x000322ca   Section       78  qgeotiledmapdata.o(t._ZN20QMutableListIteratorIN10QtMobility19QGeoTiledMapRequestEEC1ER5QListIS1_E)
    t._ZN20QMutableListIteratorIN10QtMobility19QGeoTiledMapRequestEED1Ev 0x00032318   Section       16  qgeotiledmapdata.o(t._ZN20QMutableListIteratorIN10QtMobility19QGeoTiledMapRequestEED1Ev)
    t._ZN28QExplicitlySharedDataPointerIN10QtMobility16QGeoRoutePrivateEED1Ev 0x00032328   Section       42  qgeoroute.o(t._ZN28QExplicitlySharedDataPointerIN10QtMobility16QGeoRoutePrivateEED1Ev)
    t._ZN28QExplicitlySharedDataPointerIN10QtMobility19QGeoManeuverPrivateEED1Ev 0x00032352   Section       42  qgeomaneuver.o(t._ZN28QExplicitlySharedDataPointerIN10QtMobility19QGeoManeuverPrivateEED1Ev)
    t._ZN28QExplicitlySharedDataPointerIN10QtMobility23QGeoRouteRequestPrivateEEC1EPS1_ 0x0003237c   Section       24  qgeorouterequest.o(t._ZN28QExplicitlySharedDataPointerIN10QtMobility23QGeoRouteRequestPrivateEEC1EPS1_)
    t._ZN28QExplicitlySharedDataPointerIN10QtMobility23QGeoRouteRequestPrivateEED1Ev 0x00032394   Section       42  qgeorouterequest.o(t._ZN28QExplicitlySharedDataPointerIN10QtMobility23QGeoRouteRequestPrivateEED1Ev)
    t._ZN28QExplicitlySharedDataPointerIN10QtMobility23QGeoRouteSegmentPrivateEEC1ERKS2_ 0x000323be   Section       26  qgeoroutesegment.o(t._ZN28QExplicitlySharedDataPointerIN10QtMobility23QGeoRouteSegmentPrivateEEC1ERKS2_)
    t._ZN28QExplicitlySharedDataPointerIN10QtMobility23QGeoRouteSegmentPrivateEED1Ev 0x000323d8   Section       42  qgeoroutesegment.o(t._ZN28QExplicitlySharedDataPointerIN10QtMobility23QGeoRouteSegmentPrivateEED1Ev)
    t._ZN28QExplicitlySharedDataPointerIN10QtMobility23QGeoRouteSegmentPrivateEEaSERKS2_ 0x00032402   Section       68  qgeoroutesegment.o(t._ZN28QExplicitlySharedDataPointerIN10QtMobility23QGeoRouteSegmentPrivateEEaSERKS2_)
    t._ZN28QExplicitlySharedDataPointerIN10QtMobility26QGeoTiledMapRequestPrivateEEC1EPS1_ 0x00032446   Section       24  qgeotiledmaprequest.o(t._ZN28QExplicitlySharedDataPointerIN10QtMobility26QGeoTiledMapRequestPrivateEEC1EPS1_)
    t._ZN28QExplicitlySharedDataPointerIN10QtMobility26QGeoTiledMapRequestPrivateEED1Ev 0x0003245e   Section       42  qgeotiledmaprequest.o(t._ZN28QExplicitlySharedDataPointerIN10QtMobility26QGeoTiledMapRequestPrivateEED1Ev)
    t._ZN4QMapI7QString8QVariantE11node_createEP8QMapDataPPNS3_4NodeERKS0_RKS1_ 0x00032488   Section      142  qgeoserviceprovider.o(t._ZN4QMapI7QString8QVariantE11node_createEP8QMapDataPPNS3_4NodeERKS0_RKS1_)
    t._ZN4QMapI7QString8QVariantE11node_createEP8QMapDataPPNS3_4NodeERKS0_RKS1_.clean 0x00032516   Section       38  qgeoserviceprovider.o(t._ZN4QMapI7QString8QVariantE11node_createEP8QMapDataPPNS3_4NodeERKS0_RKS1_.clean)
    t._ZN4QMapI7QString8QVariantE13detach_helperEv 0x0003253c   Section      148  qgeoserviceprovider.o(t._ZN4QMapI7QString8QVariantE13detach_helperEv)
    t._ZN4QMapI7QString8QVariantE13detach_helperEv.clean 0x000325d0   Section        8  qgeoserviceprovider.o(t._ZN4QMapI7QString8QVariantE13detach_helperEv.clean)
    t._ZN4QMapI7QString8QVariantE8freeDataEP8QMapData 0x000325d8   Section       64  qgeoserviceprovider.o(t._ZN4QMapI7QString8QVariantE8freeDataEP8QMapData)
    t._ZN4QMapI7QString8QVariantED1Ev        0x00032618   Section       38  qgeoserviceprovider.o(t._ZN4QMapI7QString8QVariantED1Ev)
    t._ZN4QMapI7QStringS0_E11node_createEP8QMapDataPPNS2_4NodeERKS0_S8_ 0x0003263e   Section      140  qlandmarkmanager.o(t._ZN4QMapI7QStringS0_E11node_createEP8QMapDataPPNS2_4NodeERKS0_S8_)
    t._ZN4QMapI7QStringS0_E11node_createEP8QMapDataPPNS2_4NodeERKS0_S8_.clean 0x000326ca   Section       38  qlandmarkmanager.o(t._ZN4QMapI7QStringS0_E11node_createEP8QMapDataPPNS2_4NodeERKS0_S8_.clean)
    t._ZN4QMapI7QStringS0_E13detach_helperEv 0x000326f0   Section      146  qlandmarkmanager.o(t._ZN4QMapI7QStringS0_E13detach_helperEv)
    t._ZN4QMapI7QStringS0_E13detach_helperEv.clean 0x00032782   Section        8  qlandmarkmanager.o(t._ZN4QMapI7QStringS0_E13detach_helperEv.clean)
    t._ZN4QMapI7QStringS0_E8freeDataEP8QMapData 0x0003278a   Section       62  qlandmarkmanager.o(t._ZN4QMapI7QStringS0_E8freeDataEP8QMapData)
    t._ZN4QMapI7QStringS0_EC1Ev              0x000327c8   Section       28  qlandmarkmanager.o(t._ZN4QMapI7QStringS0_EC1Ev)
    t._ZN4QMapI7QStringS0_ED1Ev              0x000327e4   Section       38  qlandmarkmanager.o(t._ZN4QMapI7QStringS0_ED1Ev)
    t._ZN4QMapIN10QtMobility16QGeoRouteRequest11FeatureTypeENS1_13FeatureWeightEE11node_createEP8QMapDataPPNS5_4NodeERKS2_RKS3_ 0x0003280a   Section       82  qgeorouterequest.o(t._ZN4QMapIN10QtMobility16QGeoRouteRequest11FeatureTypeENS1_13FeatureWeightEE11node_createEP8QMapDataPPNS5_4NodeERKS2_RKS3_)
    t._ZN4QMapIN10QtMobility16QGeoRouteRequest11FeatureTypeENS1_13FeatureWeightEE11node_createEP8QMapDataPPNS5_4NodeERKS2_RKS3_.clean 0x0003285c   Section        4  qgeorouterequest.o(t._ZN4QMapIN10QtMobility16QGeoRouteRequest11FeatureTypeENS1_13FeatureWeightEE11node_createEP8QMapDataPPNS5_4NodeERKS2_RKS3_.clean)
    t._ZN4QMapIN10QtMobility16QGeoRouteRequest11FeatureTypeENS1_13FeatureWeightEE13detach_helperEv 0x00032860   Section      146  qgeorouterequest.o(t._ZN4QMapIN10QtMobility16QGeoRouteRequest11FeatureTypeENS1_13FeatureWeightEE13detach_helperEv)
    t._ZN4QMapIN10QtMobility16QGeoRouteRequest11FeatureTypeENS1_13FeatureWeightEE13detach_helperEv.clean 0x000328f2   Section        8  qgeorouterequest.o(t._ZN4QMapIN10QtMobility16QGeoRouteRequest11FeatureTypeENS1_13FeatureWeightEE13detach_helperEv.clean)
    t._ZN4QMapIN10QtMobility16QGeoRouteRequest11FeatureTypeENS1_13FeatureWeightEE6detachEv 0x000328fa   Section       28  qgeorouterequest.o(t._ZN4QMapIN10QtMobility16QGeoRouteRequest11FeatureTypeENS1_13FeatureWeightEE6detachEv)
    t._ZN4QMapIN10QtMobility16QGeoRouteRequest11FeatureTypeENS1_13FeatureWeightEE6removeERKS2_ 0x00032916   Section      246  qgeorouterequest.o(t._ZN4QMapIN10QtMobility16QGeoRouteRequest11FeatureTypeENS1_13FeatureWeightEE6removeERKS2_)
    t._ZN4QMapIN10QtMobility16QGeoRouteRequest11FeatureTypeENS1_13FeatureWeightEE8freeDataEP8QMapData 0x00032a0c   Section       48  qgeorouterequest.o(t._ZN4QMapIN10QtMobility16QGeoRouteRequest11FeatureTypeENS1_13FeatureWeightEE8freeDataEP8QMapData)
    t._ZN4QMapIN10QtMobility16QGeoRouteRequest11FeatureTypeENS1_13FeatureWeightEED1Ev 0x00032a3c   Section       38  qgeorouterequest.o(t._ZN4QMapIN10QtMobility16QGeoRouteRequest11FeatureTypeENS1_13FeatureWeightEED1Ev)
    t._ZN4QMapIiN10QtMobility16QLandmarkManager5ErrorEE13detach_helperEv 0x00032a62   Section      220  qlandmarkcategoryfetchbyidrequest.o(t._ZN4QMapIiN10QtMobility16QLandmarkManager5ErrorEE13detach_helperEv)
    t._ZN4QMapIiN10QtMobility16QLandmarkManager5ErrorEE13detach_helperEv.clean 0x00032b3e   Section       12  qlandmarkcategoryfetchbyidrequest.o(t._ZN4QMapIiN10QtMobility16QLandmarkManager5ErrorEE13detach_helperEv.clean)
    t._ZN4QMapIiN10QtMobility16QLandmarkManager5ErrorEE5clearEv 0x00032b4c   Section      100  qlandmarkmanager.o(t._ZN4QMapIiN10QtMobility16QLandmarkManager5ErrorEE5clearEv)
    t._ZN4QMapIiN10QtMobility16QLandmarkManager5ErrorEE5clearEv.clean 0x00032bb0   Section       10  qlandmarkmanager.o(t._ZN4QMapIiN10QtMobility16QLandmarkManager5ErrorEE5clearEv.clean)
    t._ZN4QMapIiN10QtMobility16QLandmarkManager5ErrorEE8freeDataEP8QMapData 0x00032bba   Section       48  qlandmarkcategoryfetchrequest.o(t._ZN4QMapIiN10QtMobility16QLandmarkManager5ErrorEE8freeDataEP8QMapData)
    t._ZN4QMapIiN10QtMobility16QLandmarkManager5ErrorEED1Ev 0x00032bea   Section       38  qlandmarkcategoryfetchrequest.o(t._ZN4QMapIiN10QtMobility16QLandmarkManager5ErrorEED1Ev)
    t._ZN4QMapIiN10QtMobility16QLandmarkManager5ErrorEEaSERKS3_ 0x00032c10   Section       70  qlandmarkmanagerengine.o(t._ZN4QMapIiN10QtMobility16QLandmarkManager5ErrorEEaSERKS3_)
    t._ZN4QSetI5QRectE6insertERKS0_          0x00032c56   Section       46  qgeotiledmapdata.o(t._ZN4QSetI5QRectE6insertERKS0_)
    t._ZN4QSetI5QRectE6removeERKS0_          0x00032c84   Section       26  qgeotiledmapdata.o(t._ZN4QSetI5QRectE6removeERKS0_)
    t._ZN4QSetI5QRectEC1Ev                   0x00032c9e   Section       14  qgeotiledmapdata.o(t._ZN4QSetI5QRectEC1Ev)
    t._ZN4QSetI7QStringE6insertERKS0_        0x00032cac   Section       46  qlandmarkmanager_p.o(t._ZN4QSetI7QStringE6insertERKS0_)
    t._ZN4QSetIPN10QtMobility17QGeoTiledMapReplyEE11setSharableEb 0x00032cda   Section       38  qgeotiledmapdata.o(t._ZN4QSetIPN10QtMobility17QGeoTiledMapReplyEE11setSharableEb)
    t._ZN4QSetIPN10QtMobility17QGeoTiledMapReplyEE3endEv 0x00032d00   Section       30  qgeotiledmapdata.o(t._ZN4QSetIPN10QtMobility17QGeoTiledMapReplyEE3endEv)
    t._ZN4QSetIPN10QtMobility17QGeoTiledMapReplyEE6insertERKS2_ 0x00032d1e   Section      200  qgeotiledmapdata.o(t._ZN4QSetIPN10QtMobility17QGeoTiledMapReplyEE6insertERKS2_)
    t._ZN4QSetIPN10QtMobility17QGeoTiledMapReplyEE6insertERKS2_.clean 0x00032de6   Section        4  qgeotiledmapdata.o(t._ZN4QSetIPN10QtMobility17QGeoTiledMapReplyEE6insertERKS2_.clean)
    t._ZN5QHashI5QRect15QHashDummyValueE11deleteNode2EPN9QHashData4NodeE 0x00032dea   Section        6  qgeotiledmapdata.o(t._ZN5QHashI5QRect15QHashDummyValueE11deleteNode2EPN9QHashData4NodeE)
    t._ZN5QHashI5QRect15QHashDummyValueE13detach_helperEv 0x00032df0   Section       60  qgeotiledmapdata.o(t._ZN5QHashI5QRect15QHashDummyValueE13detach_helperEv)
    t._ZN5QHashI5QRect15QHashDummyValueE13duplicateNodeEPN9QHashData4NodeEPv 0x00032e2c   Section       44  qgeotiledmapdata.o(t._ZN5QHashI5QRect15QHashDummyValueE13duplicateNodeEPN9QHashData4NodeEPv)
    t._ZN5QHashI5QRect15QHashDummyValueE13duplicateNodeEPN9QHashData4NodeEPv.clean 0x00032e58   Section       12  qgeotiledmapdata.o(t._ZN5QHashI5QRect15QHashDummyValueE13duplicateNodeEPN9QHashData4NodeEPv.clean)
    t._ZN5QHashI5QRect15QHashDummyValueE6detachEv 0x00032e64   Section       28  qgeotiledmapdata.o(t._ZN5QHashI5QRect15QHashDummyValueE6detachEv)
    t._ZN5QHashI5QRect15QHashDummyValueE6insertERKS0_RKS1_ 0x00032e80   Section      168  qgeotiledmapdata.o(t._ZN5QHashI5QRect15QHashDummyValueE6insertERKS0_RKS1_)
    t._ZN5QHashI5QRect15QHashDummyValueE6insertERKS0_RKS1_.clean 0x00032f28   Section       12  qgeotiledmapdata.o(t._ZN5QHashI5QRect15QHashDummyValueE6insertERKS0_RKS1_.clean)
    t._ZN5QHashI5QRect15QHashDummyValueE6removeERKS0_ 0x00032f34   Section      166  qgeotiledmapdata.o(t._ZN5QHashI5QRect15QHashDummyValueE6removeERKS0_)
    t._ZN5QHashI5QRect15QHashDummyValueE8freeDataEP9QHashData 0x00032fdc   Section       20  qgeotiledmapdata.o(t._ZN5QHashI5QRect15QHashDummyValueE8freeDataEP9QHashData)
    t._ZN5QHashI5QRect15QHashDummyValueEC1Ev 0x00032ff0   Section       28  qgeotiledmapdata.o(t._ZN5QHashI5QRect15QHashDummyValueEC1Ev)
    t._ZN5QHashI5QRect15QHashDummyValueED1Ev 0x0003300c   Section       30  qgeotiledmapdata.o(t._ZN5QHashI5QRect15QHashDummyValueED1Ev)
    t._ZN5QHashI7QString15QHashDummyValueE11deleteNode2EPN9QHashData4NodeE 0x0003302a   Section       24  qlandmarkmanager_p.o(t._ZN5QHashI7QString15QHashDummyValueE11deleteNode2EPN9QHashData4NodeE)
    t._ZN5QHashI7QString15QHashDummyValueE13detach_helperEv 0x00033044   Section       60  qlandmarkmanager_p.o(t._ZN5QHashI7QString15QHashDummyValueE13detach_helperEv)
    t._ZN5QHashI7QString15QHashDummyValueE13duplicateNodeEPN9QHashData4NodeEPv 0x00033080   Section       44  qlandmarkmanager_p.o(t._ZN5QHashI7QString15QHashDummyValueE13duplicateNodeEPN9QHashData4NodeEPv)
    t._ZN5QHashI7QString15QHashDummyValueE13duplicateNodeEPN9QHashData4NodeEPv.clean 0x000330ac   Section       12  qlandmarkmanager_p.o(t._ZN5QHashI7QString15QHashDummyValueE13duplicateNodeEPN9QHashData4NodeEPv.clean)
    t._ZN5QHashI7QString15QHashDummyValueE6insertERKS0_RKS1_ 0x000330b8   Section      186  qlandmarkmanager_p.o(t._ZN5QHashI7QString15QHashDummyValueE6insertERKS0_RKS1_)
    t._ZN5QHashI7QString15QHashDummyValueE6insertERKS0_RKS1_.clean 0x00033172   Section       12  qlandmarkmanager_p.o(t._ZN5QHashI7QString15QHashDummyValueE6insertERKS0_RKS1_.clean)
    t._ZN5QHashI7QString15QHashDummyValueE8freeDataEP9QHashData 0x00033180   Section       20  qlandmarkmanager_p.o(t._ZN5QHashI7QString15QHashDummyValueE8freeDataEP9QHashData)
    t._ZN5QHashI7QString15QHashDummyValueED1Ev 0x00033194   Section       30  qlandmarkmanager_p.o(t._ZN5QHashI7QString15QHashDummyValueED1Ev)
    t._ZN5QHashI7QString6QFlagsIN10QtMobility15QLandmarkFilter9MatchFlagEEE11deleteNode2EPN9QHashData4NodeE 0x000331b2   Section       24  qlandmarkattributefilter.o(t._ZN5QHashI7QString6QFlagsIN10QtMobility15QLandmarkFilter9MatchFlagEEE11deleteNode2EPN9QHashData4NodeE)
    t._ZN5QHashI7QString6QFlagsIN10QtMobility15QLandmarkFilter9MatchFlagEEE13detach_helperEv 0x000331cc   Section       60  qlandmarkattributefilter.o(t._ZN5QHashI7QString6QFlagsIN10QtMobility15QLandmarkFilter9MatchFlagEEE13detach_helperEv)
    t._ZN5QHashI7QString6QFlagsIN10QtMobility15QLandmarkFilter9MatchFlagEEE13duplicateNodeEPN9QHashData4NodeEPv 0x00033208   Section       46  qlandmarkattributefilter.o(t._ZN5QHashI7QString6QFlagsIN10QtMobility15QLandmarkFilter9MatchFlagEEE13duplicateNodeEPN9QHashData4NodeEPv)
    t._ZN5QHashI7QString6QFlagsIN10QtMobility15QLandmarkFilter9MatchFlagEEE13duplicateNodeEPN9QHashData4NodeEPv.clean 0x00033236   Section       14  qlandmarkattributefilter.o(t._ZN5QHashI7QString6QFlagsIN10QtMobility15QLandmarkFilter9MatchFlagEEE13duplicateNodeEPN9QHashData4NodeEPv.clean)
    t._ZN5QHashI7QString6QFlagsIN10QtMobility15QLandmarkFilter9MatchFlagEEE6detachEv 0x00033244   Section       28  qlandmarkattributefilter.o(t._ZN5QHashI7QString6QFlagsIN10QtMobility15QLandmarkFilter9MatchFlagEEE6detachEv)
    t._ZN5QHashI7QString6QFlagsIN10QtMobility15QLandmarkFilter9MatchFlagEEE6removeERKS0_ 0x00033260   Section      178  qlandmarkattributefilter.o(t._ZN5QHashI7QString6QFlagsIN10QtMobility15QLandmarkFilter9MatchFlagEEE6removeERKS0_)
    t._ZN5QHashI7QString6QFlagsIN10QtMobility15QLandmarkFilter9MatchFlagEEE8freeDataEP9QHashData 0x00033314   Section       20  qlandmarkattributefilter.o(t._ZN5QHashI7QString6QFlagsIN10QtMobility15QLandmarkFilter9MatchFlagEEE8freeDataEP9QHashData)
    t._ZN5QHashI7QString6QFlagsIN10QtMobility15QLandmarkFilter9MatchFlagEEEC1ERKS6_ 0x00033328   Section       40  qlandmarkattributefilter.o(t._ZN5QHashI7QString6QFlagsIN10QtMobility15QLandmarkFilter9MatchFlagEEEC1ERKS6_)
    t._ZN5QHashI7QString6QFlagsIN10QtMobility15QLandmarkFilter9MatchFlagEEEC1Ev 0x00033350   Section       28  qlandmarkattributefilter.o(t._ZN5QHashI7QString6QFlagsIN10QtMobility15QLandmarkFilter9MatchFlagEEEC1Ev)
    t._ZN5QHashI7QString6QFlagsIN10QtMobility15QLandmarkFilter9MatchFlagEEED1Ev 0x0003336c   Section       30  qlandmarkattributefilter.o(t._ZN5QHashI7QString6QFlagsIN10QtMobility15QLandmarkFilter9MatchFlagEEED1Ev)
    t._ZN5QHashI7QString6QFlagsIN10QtMobility15QLandmarkFilter9MatchFlagEEEixERKS0_ 0x0003338a   Section      168  qlandmarkattributefilter.o(t._ZN5QHashI7QString6QFlagsIN10QtMobility15QLandmarkFilter9MatchFlagEEEixERKS0_)
    t._ZN5QHashI7QString6QFlagsIN10QtMobility15QLandmarkFilter9MatchFlagEEEixERKS0_.clean 0x00033432   Section       14  qlandmarkattributefilter.o(t._ZN5QHashI7QString6QFlagsIN10QtMobility15QLandmarkFilter9MatchFlagEEEixERKS0_.clean)
    t._ZN5QHashI7QString8QVariantE11deleteNode2EPN9QHashData4NodeE 0x00033440   Section       36  qlandmarkattributefilter.o(t._ZN5QHashI7QString8QVariantE11deleteNode2EPN9QHashData4NodeE)
    t._ZN5QHashI7QString8QVariantE11deleteNode2EPN9QHashData4NodeE.clean 0x00033464   Section       12  qlandmarkattributefilter.o(t._ZN5QHashI7QString8QVariantE11deleteNode2EPN9QHashData4NodeE.clean)
    t._ZN5QHashI7QString8QVariantE13detach_helperEv 0x00033470   Section       60  qlandmarkattributefilter.o(t._ZN5QHashI7QString8QVariantE13detach_helperEv)
    t._ZN5QHashI7QString8QVariantE13duplicateNodeEPN9QHashData4NodeEPv 0x000334ac   Section       48  qlandmarkattributefilter.o(t._ZN5QHashI7QString8QVariantE13duplicateNodeEPN9QHashData4NodeEPv)
    t._ZN5QHashI7QString8QVariantE13duplicateNodeEPN9QHashData4NodeEPv.clean 0x000334dc   Section       14  qlandmarkattributefilter.o(t._ZN5QHashI7QString8QVariantE13duplicateNodeEPN9QHashData4NodeEPv.clean)
    t._ZN5QHashI7QString8QVariantE6detachEv  0x000334ea   Section       28  qlandmarkattributefilter.o(t._ZN5QHashI7QString8QVariantE6detachEv)
    t._ZN5QHashI7QString8QVariantE6removeERKS0_ 0x00033506   Section      164  qlandmarkattributefilter.o(t._ZN5QHashI7QString8QVariantE6removeERKS0_)
    t._ZN5QHashI7QString8QVariantE8freeDataEP9QHashData 0x000335ac   Section       20  qlandmarkattributefilter.o(t._ZN5QHashI7QString8QVariantE8freeDataEP9QHashData)
    t._ZN5QHashI7QString8QVariantEC1ERKS2_   0x000335c0   Section       40  qlandmarkattributefilter.o(t._ZN5QHashI7QString8QVariantEC1ERKS2_)
    t._ZN5QHashI7QString8QVariantEC1Ev       0x000335e8   Section       28  qlandmarkattributefilter.o(t._ZN5QHashI7QString8QVariantEC1Ev)
    t._ZN5QHashI7QString8QVariantED1Ev       0x00033604   Section       30  qlandmarkattributefilter.o(t._ZN5QHashI7QString8QVariantED1Ev)
    t._ZN5QHashI7QString8QVariantEixERKS0_   0x00033622   Section      188  qlandmarkattributefilter.o(t._ZN5QHashI7QString8QVariantEixERKS0_)
    t._ZN5QHashI7QString8QVariantEixERKS0_.clean 0x000336de   Section       24  qlandmarkattributefilter.o(t._ZN5QHashI7QString8QVariantEixERKS0_.clean)
    t._ZN5QHashI7QStringPN10QtMobility26QGeoServiceProviderFactoryEE11deleteNode2EPN9QHashData4NodeE 0x000336f6   Section       24  qgeoserviceprovider.o(t._ZN5QHashI7QStringPN10QtMobility26QGeoServiceProviderFactoryEE11deleteNode2EPN9QHashData4NodeE)
    t._ZN5QHashI7QStringPN10QtMobility26QGeoServiceProviderFactoryEE11insertMultiERKS0_RKS3_ 0x0003370e   Section      138  qgeoserviceprovider.o(t._ZN5QHashI7QStringPN10QtMobility26QGeoServiceProviderFactoryEE11insertMultiERKS0_RKS3_)
    t._ZN5QHashI7QStringPN10QtMobility26QGeoServiceProviderFactoryEE11insertMultiERKS0_RKS3_.clean 0x00033798   Section       14  qgeoserviceprovider.o(t._ZN5QHashI7QStringPN10QtMobility26QGeoServiceProviderFactoryEE11insertMultiERKS0_RKS3_.clean)
    t._ZN5QHashI7QStringPN10QtMobility26QGeoServiceProviderFactoryEE13detach_helperEv 0x000337a8   Section       60  qgeoserviceprovider.o(t._ZN5QHashI7QStringPN10QtMobility26QGeoServiceProviderFactoryEE13detach_helperEv)
    t._ZN5QHashI7QStringPN10QtMobility26QGeoServiceProviderFactoryEE13duplicateNodeEPN9QHashData4NodeEPv 0x000337e4   Section       46  qgeoserviceprovider.o(t._ZN5QHashI7QStringPN10QtMobility26QGeoServiceProviderFactoryEE13duplicateNodeEPN9QHashData4NodeEPv)
    t._ZN5QHashI7QStringPN10QtMobility26QGeoServiceProviderFactoryEE13duplicateNodeEPN9QHashData4NodeEPv.clean 0x00033812   Section       14  qgeoserviceprovider.o(t._ZN5QHashI7QStringPN10QtMobility26QGeoServiceProviderFactoryEE13duplicateNodeEPN9QHashData4NodeEPv.clean)
    t._ZN5QHashI7QStringPN10QtMobility26QGeoServiceProviderFactoryEE6detachEv 0x00033820   Section       28  qgeoserviceprovider.o(t._ZN5QHashI7QStringPN10QtMobility26QGeoServiceProviderFactoryEE6detachEv)
    t._ZN5QHashI7QStringPN10QtMobility26QGeoServiceProviderFactoryEE8freeDataEP9QHashData 0x0003383c   Section       20  qgeoserviceprovider.o(t._ZN5QHashI7QStringPN10QtMobility26QGeoServiceProviderFactoryEE8freeDataEP9QHashData)
    t._ZN5QHashI7QStringPN10QtMobility26QGeoServiceProviderFactoryEED1Ev 0x00033850   Section       30  qgeoserviceprovider.o(t._ZN5QHashI7QStringPN10QtMobility26QGeoServiceProviderFactoryEED1Ev)
    t._ZN5QHashI7QStringPN10QtMobility29QLandmarkManagerEngineFactoryEE11deleteNode2EPN9QHashData4NodeE 0x0003386e   Section       24  qlandmarkmanager.o(t._ZN5QHashI7QStringPN10QtMobility29QLandmarkManagerEngineFactoryEE11deleteNode2EPN9QHashData4NodeE)
    t._ZN5QHashI7QStringPN10QtMobility29QLandmarkManagerEngineFactoryEE11insertMultiERKS0_RKS3_ 0x00033886   Section      138  qlandmarkmanager_p.o(t._ZN5QHashI7QStringPN10QtMobility29QLandmarkManagerEngineFactoryEE11insertMultiERKS0_RKS3_)
    t._ZN5QHashI7QStringPN10QtMobility29QLandmarkManagerEngineFactoryEE11insertMultiERKS0_RKS3_.clean 0x00033910   Section       14  qlandmarkmanager_p.o(t._ZN5QHashI7QStringPN10QtMobility29QLandmarkManagerEngineFactoryEE11insertMultiERKS0_RKS3_.clean)
    t._ZN5QHashI7QStringPN10QtMobility29QLandmarkManagerEngineFactoryEE13detach_helperEv 0x00033920   Section       60  qlandmarkmanager_p.o(t._ZN5QHashI7QStringPN10QtMobility29QLandmarkManagerEngineFactoryEE13detach_helperEv)
    t._ZN5QHashI7QStringPN10QtMobility29QLandmarkManagerEngineFactoryEE13duplicateNodeEPN9QHashData4NodeEPv 0x0003395c   Section       46  qlandmarkmanager_p.o(t._ZN5QHashI7QStringPN10QtMobility29QLandmarkManagerEngineFactoryEE13duplicateNodeEPN9QHashData4NodeEPv)
    t._ZN5QHashI7QStringPN10QtMobility29QLandmarkManagerEngineFactoryEE13duplicateNodeEPN9QHashData4NodeEPv.clean 0x0003398a   Section       14  qlandmarkmanager_p.o(t._ZN5QHashI7QStringPN10QtMobility29QLandmarkManagerEngineFactoryEE13duplicateNodeEPN9QHashData4NodeEPv.clean)
    t._ZN5QHashI7QStringPN10QtMobility29QLandmarkManagerEngineFactoryEE6detachEv 0x00033998   Section       28  qlandmarkmanager_p.o(t._ZN5QHashI7QStringPN10QtMobility29QLandmarkManagerEngineFactoryEE6detachEv)
    t._ZN5QHashI7QStringPN10QtMobility29QLandmarkManagerEngineFactoryEE8freeDataEP9QHashData 0x000339b4   Section       20  qlandmarkmanager.o(t._ZN5QHashI7QStringPN10QtMobility29QLandmarkManagerEngineFactoryEE8freeDataEP9QHashData)
    t._ZN5QHashI7QStringPN10QtMobility29QLandmarkManagerEngineFactoryEED1Ev 0x000339c8   Section       30  qlandmarkmanager.o(t._ZN5QHashI7QStringPN10QtMobility29QLandmarkManagerEngineFactoryEED1Ev)
    t._ZN5QHashIN10QtMobility19QGeoTiledMapRequestEN6QCacheIS1_6QImageE4NodeEE11deleteNode2EPN9QHashData4NodeE 0x000339e6   Section       24  qgeotiledmapdata.o(t._ZN5QHashIN10QtMobility19QGeoTiledMapRequestEN6QCacheIS1_6QImageE4NodeEE11deleteNode2EPN9QHashData4NodeE)
    t._ZN5QHashIN10QtMobility19QGeoTiledMapRequestEN6QCacheIS1_6QImageE4NodeEE13detach_helperEv 0x00033a00   Section       60  qgeotiledmapdata.o(t._ZN5QHashIN10QtMobility19QGeoTiledMapRequestEN6QCacheIS1_6QImageE4NodeEE13detach_helperEv)
    t._ZN5QHashIN10QtMobility19QGeoTiledMapRequestEN6QCacheIS1_6QImageE4NodeEE13duplicateNodeEPN9QHashData4NodeEPv 0x00033a3c   Section       46  qgeotiledmapdata.o(t._ZN5QHashIN10QtMobility19QGeoTiledMapRequestEN6QCacheIS1_6QImageE4NodeEE13duplicateNodeEPN9QHashData4NodeEPv)
    t._ZN5QHashIN10QtMobility19QGeoTiledMapRequestEN6QCacheIS1_6QImageE4NodeEE13duplicateNodeEPN9QHashData4NodeEPv.clean 0x00033a6a   Section       14  qgeotiledmapdata.o(t._ZN5QHashIN10QtMobility19QGeoTiledMapRequestEN6QCacheIS1_6QImageE4NodeEE13duplicateNodeEPN9QHashData4NodeEPv.clean)
    t._ZN5QHashIN10QtMobility19QGeoTiledMapRequestEN6QCacheIS1_6QImageE4NodeEE4findERKS1_ 0x00033a78   Section       30  qgeotiledmapdata.o(t._ZN5QHashIN10QtMobility19QGeoTiledMapRequestEN6QCacheIS1_6QImageE4NodeEE4findERKS1_)
    t._ZN5QHashIN10QtMobility19QGeoTiledMapRequestEN6QCacheIS1_6QImageE4NodeEE6detachEv 0x00033a96   Section       28  qgeotiledmapdata.o(t._ZN5QHashIN10QtMobility19QGeoTiledMapRequestEN6QCacheIS1_6QImageE4NodeEE6detachEv)
    t._ZN5QHashIN10QtMobility19QGeoTiledMapRequestEN6QCacheIS1_6QImageE4NodeEE6insertERKS1_RKS5_ 0x00033ab2   Section      184  qgeotiledmapdata.o(t._ZN5QHashIN10QtMobility19QGeoTiledMapRequestEN6QCacheIS1_6QImageE4NodeEE6insertERKS1_RKS5_)
    t._ZN5QHashIN10QtMobility19QGeoTiledMapRequestEN6QCacheIS1_6QImageE4NodeEE6insertERKS1_RKS5_.clean 0x00033b6a   Section       14  qgeotiledmapdata.o(t._ZN5QHashIN10QtMobility19QGeoTiledMapRequestEN6QCacheIS1_6QImageE4NodeEE6insertERKS1_RKS5_.clean)
    t._ZN5QHashIN10QtMobility19QGeoTiledMapRequestEN6QCacheIS1_6QImageE4NodeEE6removeERKS1_ 0x00033b78   Section      178  qgeotiledmapdata.o(t._ZN5QHashIN10QtMobility19QGeoTiledMapRequestEN6QCacheIS1_6QImageE4NodeEE6removeERKS1_)
    t._ZN5QHashIN10QtMobility19QGeoTiledMapRequestEN6QCacheIS1_6QImageE4NodeEE8freeDataEP9QHashData 0x00033c2c   Section       20  qgeotiledmapdata.o(t._ZN5QHashIN10QtMobility19QGeoTiledMapRequestEN6QCacheIS1_6QImageE4NodeEE8freeDataEP9QHashData)
    t._ZN5QHashIN10QtMobility19QGeoTiledMapRequestEN6QCacheIS1_6QImageE4NodeEEC1Ev 0x00033c40   Section       28  qgeotiledmapdata.o(t._ZN5QHashIN10QtMobility19QGeoTiledMapRequestEN6QCacheIS1_6QImageE4NodeEEC1Ev)
    t._ZN5QHashIN10QtMobility19QGeoTiledMapRequestEN6QCacheIS1_6QImageE4NodeEED1Ev 0x00033c5c   Section       30  qgeotiledmapdata.o(t._ZN5QHashIN10QtMobility19QGeoTiledMapRequestEN6QCacheIS1_6QImageE4NodeEED1Ev)
    t._ZN5QHashIN10QtMobility19QGeoTiledMapRequestEN6QCacheIS1_7QPixmapE4NodeEE11deleteNode2EPN9QHashData4NodeE 0x00033c7a   Section       24  qgeotiledmapdata.o(t._ZN5QHashIN10QtMobility19QGeoTiledMapRequestEN6QCacheIS1_7QPixmapE4NodeEE11deleteNode2EPN9QHashData4NodeE)
    t._ZN5QHashIN10QtMobility19QGeoTiledMapRequestEN6QCacheIS1_7QPixmapE4NodeEE13detach_helperEv 0x00033c94   Section       60  qgeotiledmapdata.o(t._ZN5QHashIN10QtMobility19QGeoTiledMapRequestEN6QCacheIS1_7QPixmapE4NodeEE13detach_helperEv)
    t._ZN5QHashIN10QtMobility19QGeoTiledMapRequestEN6QCacheIS1_7QPixmapE4NodeEE13duplicateNodeEPN9QHashData4NodeEPv 0x00033cd0   Section       46  qgeotiledmapdata.o(t._ZN5QHashIN10QtMobility19QGeoTiledMapRequestEN6QCacheIS1_7QPixmapE4NodeEE13duplicateNodeEPN9QHashData4NodeEPv)
    t._ZN5QHashIN10QtMobility19QGeoTiledMapRequestEN6QCacheIS1_7QPixmapE4NodeEE13duplicateNodeEPN9QHashData4NodeEPv.clean 0x00033cfe   Section       14  qgeotiledmapdata.o(t._ZN5QHashIN10QtMobility19QGeoTiledMapRequestEN6QCacheIS1_7QPixmapE4NodeEE13duplicateNodeEPN9QHashData4NodeEPv.clean)
    t._ZN5QHashIN10QtMobility19QGeoTiledMapRequestEN6QCacheIS1_7QPixmapE4NodeEE4findERKS1_ 0x00033d0c   Section       30  qgeotiledmapdata.o(t._ZN5QHashIN10QtMobility19QGeoTiledMapRequestEN6QCacheIS1_7QPixmapE4NodeEE4findERKS1_)
    t._ZN5QHashIN10QtMobility19QGeoTiledMapRequestEN6QCacheIS1_7QPixmapE4NodeEE6detachEv 0x00033d2a   Section       28  qgeotiledmapdata.o(t._ZN5QHashIN10QtMobility19QGeoTiledMapRequestEN6QCacheIS1_7QPixmapE4NodeEE6detachEv)
    t._ZN5QHashIN10QtMobility19QGeoTiledMapRequestEN6QCacheIS1_7QPixmapE4NodeEE6insertERKS1_RKS5_ 0x00033d46   Section      184  qgeotiledmapdata.o(t._ZN5QHashIN10QtMobility19QGeoTiledMapRequestEN6QCacheIS1_7QPixmapE4NodeEE6insertERKS1_RKS5_)
    t._ZN5QHashIN10QtMobility19QGeoTiledMapRequestEN6QCacheIS1_7QPixmapE4NodeEE6insertERKS1_RKS5_.clean 0x00033dfe   Section       14  qgeotiledmapdata.o(t._ZN5QHashIN10QtMobility19QGeoTiledMapRequestEN6QCacheIS1_7QPixmapE4NodeEE6insertERKS1_RKS5_.clean)
    t._ZN5QHashIN10QtMobility19QGeoTiledMapRequestEN6QCacheIS1_7QPixmapE4NodeEE6removeERKS1_ 0x00033e0c   Section      178  qgeotiledmapdata.o(t._ZN5QHashIN10QtMobility19QGeoTiledMapRequestEN6QCacheIS1_7QPixmapE4NodeEE6removeERKS1_)
    t._ZN5QHashIN10QtMobility19QGeoTiledMapRequestEN6QCacheIS1_7QPixmapE4NodeEE8freeDataEP9QHashData 0x00033ec0   Section       20  qgeotiledmapdata.o(t._ZN5QHashIN10QtMobility19QGeoTiledMapRequestEN6QCacheIS1_7QPixmapE4NodeEE8freeDataEP9QHashData)
    t._ZN5QHashIN10QtMobility19QGeoTiledMapRequestEN6QCacheIS1_7QPixmapE4NodeEEC1Ev 0x00033ed4   Section       28  qgeotiledmapdata.o(t._ZN5QHashIN10QtMobility19QGeoTiledMapRequestEN6QCacheIS1_7QPixmapE4NodeEEC1Ev)
    t._ZN5QHashIN10QtMobility19QGeoTiledMapRequestEN6QCacheIS1_7QPixmapE4NodeEED1Ev 0x00033ef0   Section       30  qgeotiledmapdata.o(t._ZN5QHashIN10QtMobility19QGeoTiledMapRequestEN6QCacheIS1_7QPixmapE4NodeEED1Ev)
    t._ZN5QHashIN10QtMobility19QLandmarkCategoryIdE15QHashDummyValueE11deleteNode2EPN9QHashData4NodeE 0x00033f0e   Section       24  qlandmark.o(t._ZN5QHashIN10QtMobility19QLandmarkCategoryIdE15QHashDummyValueE11deleteNode2EPN9QHashData4NodeE)
    t._ZN5QHashIN10QtMobility19QLandmarkCategoryIdE15QHashDummyValueE13detach_helperEv 0x00033f28   Section       60  qlandmark.o(t._ZN5QHashIN10QtMobility19QLandmarkCategoryIdE15QHashDummyValueE13detach_helperEv)
    t._ZN5QHashIN10QtMobility19QLandmarkCategoryIdE15QHashDummyValueE13duplicateNodeEPN9QHashData4NodeEPv 0x00033f64   Section       44  qlandmark.o(t._ZN5QHashIN10QtMobility19QLandmarkCategoryIdE15QHashDummyValueE13duplicateNodeEPN9QHashData4NodeEPv)
    t._ZN5QHashIN10QtMobility19QLandmarkCategoryIdE15QHashDummyValueE13duplicateNodeEPN9QHashData4NodeEPv.clean 0x00033f90   Section       12  qlandmark.o(t._ZN5QHashIN10QtMobility19QLandmarkCategoryIdE15QHashDummyValueE13duplicateNodeEPN9QHashData4NodeEPv.clean)
    t._ZN5QHashIN10QtMobility19QLandmarkCategoryIdE15QHashDummyValueE6detachEv 0x00033f9c   Section       28  qlandmark.o(t._ZN5QHashIN10QtMobility19QLandmarkCategoryIdE15QHashDummyValueE6detachEv)
    t._ZN5QHashIN10QtMobility19QLandmarkCategoryIdE15QHashDummyValueE6insertERKS1_RKS2_ 0x00033fb8   Section      190  qlandmark.o(t._ZN5QHashIN10QtMobility19QLandmarkCategoryIdE15QHashDummyValueE6insertERKS1_RKS2_)
    t._ZN5QHashIN10QtMobility19QLandmarkCategoryIdE15QHashDummyValueE6insertERKS1_RKS2_.clean 0x00034076   Section       12  qlandmark.o(t._ZN5QHashIN10QtMobility19QLandmarkCategoryIdE15QHashDummyValueE6insertERKS1_RKS2_.clean)
    t._ZN5QHashIN10QtMobility19QLandmarkCategoryIdE15QHashDummyValueE8freeDataEP9QHashData 0x00034084   Section       20  qlandmark.o(t._ZN5QHashIN10QtMobility19QLandmarkCategoryIdE15QHashDummyValueE8freeDataEP9QHashData)
    t._ZN5QHashIN10QtMobility19QLandmarkCategoryIdE15QHashDummyValueED1Ev 0x00034098   Section       30  qlandmark.o(t._ZN5QHashIN10QtMobility19QLandmarkCategoryIdE15QHashDummyValueED1Ev)
    t._ZN5QHashIP13QGraphicsItemPN10QtMobility13QGeoMapObjectEE11deleteNode2EPN9QHashData4NodeE 0x000340b6   Section        6  qgeotiledmapdata.o(t._ZN5QHashIP13QGraphicsItemPN10QtMobility13QGeoMapObjectEE11deleteNode2EPN9QHashData4NodeE)
    t._ZN5QHashIP13QGraphicsItemPN10QtMobility13QGeoMapObjectEE13detach_helperEv 0x000340bc   Section       60  qgeotiledmapdata.o(t._ZN5QHashIP13QGraphicsItemPN10QtMobility13QGeoMapObjectEE13detach_helperEv)
    t._ZN5QHashIP13QGraphicsItemPN10QtMobility13QGeoMapObjectEE13duplicateNodeEPN9QHashData4NodeEPv 0x000340f8   Section       48  qgeotiledmapdata.o(t._ZN5QHashIP13QGraphicsItemPN10QtMobility13QGeoMapObjectEE13duplicateNodeEPN9QHashData4NodeEPv)
    t._ZN5QHashIP13QGraphicsItemPN10QtMobility13QGeoMapObjectEE6detachEv 0x00034128   Section       28  qgeotiledmapdata.o(t._ZN5QHashIP13QGraphicsItemPN10QtMobility13QGeoMapObjectEE6detachEv)
    t._ZN5QHashIP13QGraphicsItemPN10QtMobility13QGeoMapObjectEE6insertERKS1_RKS4_ 0x00034144   Section      182  qgeotiledmapdata.o(t._ZN5QHashIP13QGraphicsItemPN10QtMobility13QGeoMapObjectEE6insertERKS1_RKS4_)
    t._ZN5QHashIP13QGraphicsItemPN10QtMobility13QGeoMapObjectEE6insertERKS1_RKS4_.clean 0x000341fa   Section        4  qgeotiledmapdata.o(t._ZN5QHashIP13QGraphicsItemPN10QtMobility13QGeoMapObjectEE6insertERKS1_RKS4_.clean)
    t._ZN5QHashIP13QGraphicsItemPN10QtMobility13QGeoMapObjectEE6removeERKS1_ 0x000341fe   Section      158  qgeotiledmapdata.o(t._ZN5QHashIP13QGraphicsItemPN10QtMobility13QGeoMapObjectEE6removeERKS1_)
    t._ZN5QHashIP13QGraphicsItemPN10QtMobility13QGeoMapObjectEE8freeDataEP9QHashData 0x0003429c   Section       20  qgeotiledmapdata.o(t._ZN5QHashIP13QGraphicsItemPN10QtMobility13QGeoMapObjectEE8freeDataEP9QHashData)
    t._ZN5QHashIP13QGraphicsItemPN10QtMobility13QGeoMapObjectEEC1Ev 0x000342b0   Section       28  qgeotiledmapdata.o(t._ZN5QHashIP13QGraphicsItemPN10QtMobility13QGeoMapObjectEEC1Ev)
    t._ZN5QHashIP13QGraphicsItemPN10QtMobility13QGeoMapObjectEED1Ev 0x000342cc   Section       30  qgeotiledmapdata.o(t._ZN5QHashIP13QGraphicsItemPN10QtMobility13QGeoMapObjectEED1Ev)
    t._ZN5QHashIPN10QtMobility17QGeoTiledMapReplyE15QHashDummyValueE11deleteNode2EPN9QHashData4NodeE 0x000342ea   Section        6  qgeotiledmapdata.o(t._ZN5QHashIPN10QtMobility17QGeoTiledMapReplyE15QHashDummyValueE11deleteNode2EPN9QHashData4NodeE)
    t._ZN5QHashIPN10QtMobility17QGeoTiledMapReplyE15QHashDummyValueE13detach_helperEv 0x000342f0   Section       60  qgeotiledmapdata.o(t._ZN5QHashIPN10QtMobility17QGeoTiledMapReplyE15QHashDummyValueE13detach_helperEv)
    t._ZN5QHashIPN10QtMobility17QGeoTiledMapReplyE15QHashDummyValueE13duplicateNodeEPN9QHashData4NodeEPv 0x0003432c   Section       42  qgeotiledmapdata.o(t._ZN5QHashIPN10QtMobility17QGeoTiledMapReplyE15QHashDummyValueE13duplicateNodeEPN9QHashData4NodeEPv)
    t._ZN5QHashIPN10QtMobility17QGeoTiledMapReplyE15QHashDummyValueE5eraseENS4_8iteratorE 0x00034356   Section      128  qgeotiledmapdata.o(t._ZN5QHashIPN10QtMobility17QGeoTiledMapReplyE15QHashDummyValueE5eraseENS4_8iteratorE)
    t._ZN5QHashIPN10QtMobility17QGeoTiledMapReplyE15QHashDummyValueE6detachEv 0x000343d6   Section       28  qgeotiledmapdata.o(t._ZN5QHashIPN10QtMobility17QGeoTiledMapReplyE15QHashDummyValueE6detachEv)
    t._ZN5QHashIPN10QtMobility17QGeoTiledMapReplyE15QHashDummyValueE6removeERKS2_ 0x000343f2   Section      158  qgeotiledmapdata.o(t._ZN5QHashIPN10QtMobility17QGeoTiledMapReplyE15QHashDummyValueE6removeERKS2_)
    t._ZN5QHashIPN10QtMobility17QGeoTiledMapReplyE15QHashDummyValueE8freeDataEP9QHashData 0x00034490   Section       20  qgeotiledmapdata.o(t._ZN5QHashIPN10QtMobility17QGeoTiledMapReplyE15QHashDummyValueE8freeDataEP9QHashData)
    t._ZN5QHashIPN10QtMobility17QGeoTiledMapReplyE15QHashDummyValueED1Ev 0x000344a4   Section       30  qgeotiledmapdata.o(t._ZN5QHashIPN10QtMobility17QGeoTiledMapReplyE15QHashDummyValueED1Ev)
    t._ZN5QHashIifE10createNodeEjRKiRKfPP9QHashNodeIifE 0x000344c2   Section      100  qgeopositioninfo.o(t._ZN5QHashIifE10createNodeEjRKiRKfPP9QHashNodeIifE)
    t._ZN5QHashIifE10createNodeEjRKiRKfPP9QHashNodeIifE.clean 0x00034526   Section        4  qgeopositioninfo.o(t._ZN5QHashIifE10createNodeEjRKiRKfPP9QHashNodeIifE.clean)
    t._ZN5QHashIifE11deleteNode2EPN9QHashData4NodeE 0x0003452a   Section        6  qgeopositioninfo.o(t._ZN5QHashIifE11deleteNode2EPN9QHashData4NodeE)
    t._ZN5QHashIifE13detach_helperEv         0x00034530   Section       60  qgeopositioninfo.o(t._ZN5QHashIifE13detach_helperEv)
    t._ZN5QHashIifE13duplicateNodeEPN9QHashData4NodeEPv 0x0003456c   Section       42  qgeopositioninfo.o(t._ZN5QHashIifE13duplicateNodeEPN9QHashData4NodeEPv)
    t._ZN5QHashIifE5clearEv                  0x00034596   Section       28  qgeopositioninfo.o(t._ZN5QHashIifE5clearEv)
    t._ZN5QHashIifE5clearEv.clean            0x000345b2   Section       10  qgeopositioninfo.o(t._ZN5QHashIifE5clearEv.clean)
    t._ZN5QHashIifE6detachEv                 0x000345bc   Section       28  qgeopositioninfo.o(t._ZN5QHashIifE6detachEv)
    t._ZN5QHashIifE6removeERKi               0x000345d8   Section      242  qgeopositioninfo.o(t._ZN5QHashIifE6removeERKi)
    t._ZN5QHashIifE8freeDataEP9QHashData     0x000346cc   Section       20  qgeopositioninfo.o(t._ZN5QHashIifE8freeDataEP9QHashData)
    t._ZN5QHashIifEC1Ev                      0x000346e0   Section       28  qgeopositioninfo.o(t._ZN5QHashIifEC1Ev)
    t._ZN5QHashIifED1Ev                      0x000346fc   Section       30  qgeopositioninfo.o(t._ZN5QHashIifED1Ev)
    t._ZN5QHashIifEaSERKS0_                  0x0003471a   Section       70  qgeopositioninfo.o(t._ZN5QHashIifEaSERKS0_)
    t._ZN5QHashIifEixERKi                    0x00034760   Section       82  qgeopositioninfo.o(t._ZN5QHashIifEixERKi)
    t._ZN5QListI10QByteArrayE13detach_helperEi 0x000347b2   Section      182  qlocationutils.o(t._ZN5QListI10QByteArrayE13detach_helperEi)
    t._ZN5QListI10QByteArrayE13detach_helperEi.clean 0x00034868   Section       30  qlocationutils.o(t._ZN5QListI10QByteArrayE13detach_helperEi.clean)
    t._ZN5QListI10QByteArrayE13detach_helperEv 0x00034886   Section       16  qlocationutils.o(t._ZN5QListI10QByteArrayE13detach_helperEv)
    t._ZN5QListI10QByteArrayE4freeEPN9QListData4DataE 0x00034896   Section       70  qlocationutils.o(t._ZN5QListI10QByteArrayE4freeEPN9QListData4DataE)
    t._ZN5QListI10QByteArrayED1Ev            0x000348dc   Section       32  qlocationutils.o(t._ZN5QListI10QByteArrayED1Ev)
    t._ZN5QListI10QByteArrayEixEi            0x000348fc   Section       58  qlocationutils.o(t._ZN5QListI10QByteArrayEixEi)
    t._ZN5QListI5QPairI5QRectS1_EE13node_destructEPNS3_4NodeES5_ 0x00034936   Section       26  qgeotiledmapdata.o(t._ZN5QListI5QPairI5QRectS1_EE13node_destructEPNS3_4NodeES5_)
    t._ZN5QListI5QPairI5QRectS1_EE14node_constructEPNS3_4NodeERKS2_ 0x00034950   Section       34  qgeotiledmapdata.o(t._ZN5QListI5QPairI5QRectS1_EE14node_constructEPNS3_4NodeERKS2_)
    t._ZN5QListI5QPairI5QRectS1_EE14node_constructEPNS3_4NodeERKS2_.clean 0x00034972   Section       14  qgeotiledmapdata.o(t._ZN5QListI5QPairI5QRectS1_EE14node_constructEPNS3_4NodeERKS2_.clean)
    t._ZN5QListI5QPairI5QRectS1_EE18detach_helper_growEii 0x00034980   Section      208  qgeotiledmapdata.o(t._ZN5QListI5QPairI5QRectS1_EE18detach_helper_growEii)
    t._ZN5QListI5QPairI5QRectS1_EE18detach_helper_growEii.clean 0x00034a50   Section       16  qgeotiledmapdata.o(t._ZN5QListI5QPairI5QRectS1_EE18detach_helper_growEii.clean)
    t._ZN5QListI5QPairI5QRectS1_EE4freeEPN9QListData4DataE 0x00034a60   Section       52  qgeotiledmapdata.o(t._ZN5QListI5QPairI5QRectS1_EE4freeEPN9QListData4DataE)
    t._ZN5QListI5QPairI5QRectS1_EE6appendERKS2_ 0x00034a94   Section      112  qgeotiledmapdata.o(t._ZN5QListI5QPairI5QRectS1_EE6appendERKS2_)
    t._ZN5QListI5QPairI5QRectS1_EE6appendERKS2_.clean 0x00034b04   Section       14  qgeotiledmapdata.o(t._ZN5QListI5QPairI5QRectS1_EE6appendERKS2_.clean)
    t._ZN5QListI5QPairI5QRectS1_EE9node_copyEPNS3_4NodeES5_S5_ 0x00034b12   Section       80  qgeotiledmapdata.o(t._ZN5QListI5QPairI5QRectS1_EE9node_copyEPNS3_4NodeES5_S5_)
    t._ZN5QListI5QPairI5QRectS1_EE9node_copyEPNS3_4NodeES5_S5_.clean 0x00034b62   Section       22  qgeotiledmapdata.o(t._ZN5QListI5QPairI5QRectS1_EE9node_copyEPNS3_4NodeES5_S5_.clean)
    t._ZN5QListI5QPairI5QRectS1_EED1Ev       0x00034b78   Section       32  qgeotiledmapdata.o(t._ZN5QListI5QPairI5QRectS1_EED1Ev)
    t._ZN5QListI7QPointFE13detach_helperEi   0x00034b98   Section       94  qgeotiledmaprouteobjectinfo_p.o(t._ZN5QListI7QPointFE13detach_helperEi)
    t._ZN5QListI7QPointFE13detach_helperEi.clean 0x00034bf6   Section        8  qgeotiledmaprouteobjectinfo_p.o(t._ZN5QListI7QPointFE13detach_helperEi.clean)
    t._ZN5QListI7QPointFE13detach_helperEv   0x00034bfe   Section       16  qgeotiledmaprouteobjectinfo_p.o(t._ZN5QListI7QPointFE13detach_helperEv)
    t._ZN5QListI7QPointFE13node_destructEPNS1_4NodeES3_ 0x00034c0e   Section       26  qgeotiledmaprouteobjectinfo_p.o(t._ZN5QListI7QPointFE13node_destructEPNS1_4NodeES3_)
    t._ZN5QListI7QPointFE14node_constructEPNS1_4NodeERKS0_ 0x00034c28   Section       34  qgeotiledmaprouteobjectinfo_p.o(t._ZN5QListI7QPointFE14node_constructEPNS1_4NodeERKS0_)
    t._ZN5QListI7QPointFE14node_constructEPNS1_4NodeERKS0_.clean 0x00034c4a   Section        4  qgeotiledmaprouteobjectinfo_p.o(t._ZN5QListI7QPointFE14node_constructEPNS1_4NodeERKS0_.clean)
    t._ZN5QListI7QPointFE18detach_helper_growEii 0x00034c4e   Section      208  qgeotiledmaprouteobjectinfo_p.o(t._ZN5QListI7QPointFE18detach_helper_growEii)
    t._ZN5QListI7QPointFE18detach_helper_growEii.clean 0x00034d1e   Section       16  qgeotiledmaprouteobjectinfo_p.o(t._ZN5QListI7QPointFE18detach_helper_growEii.clean)
    t._ZN5QListI7QPointFE4freeEPN9QListData4DataE 0x00034d2e   Section       58  qgeotiledmaprouteobjectinfo_p.o(t._ZN5QListI7QPointFE4freeEPN9QListData4DataE)
    t._ZN5QListI7QPointFE5clearEv            0x00034d68   Section       76  qgeotiledmaprouteobjectinfo_p.o(t._ZN5QListI7QPointFE5clearEv)
    t._ZN5QListI7QPointFE5clearEv.clean      0x00034db4   Section       10  qgeotiledmaprouteobjectinfo_p.o(t._ZN5QListI7QPointFE5clearEv.clean)
    t._ZN5QListI7QPointFE6appendERKS0_       0x00034dc0   Section      116  qgeotiledmaprouteobjectinfo_p.o(t._ZN5QListI7QPointFE6appendERKS0_)
    t._ZN5QListI7QPointFE6appendERKS0_.clean 0x00034e34   Section       14  qgeotiledmaprouteobjectinfo_p.o(t._ZN5QListI7QPointFE6appendERKS0_.clean)
    t._ZN5QListI7QPointFE9node_copyEPNS1_4NodeES3_S3_ 0x00034e42   Section       80  qgeotiledmaprouteobjectinfo_p.o(t._ZN5QListI7QPointFE9node_copyEPNS1_4NodeES3_S3_)
    t._ZN5QListI7QPointFE9node_copyEPNS1_4NodeES3_S3_.clean 0x00034e92   Section       22  qgeotiledmaprouteobjectinfo_p.o(t._ZN5QListI7QPointFE9node_copyEPNS1_4NodeES3_S3_.clean)
    t._ZN5QListI7QPointFEC1Ev                0x00034ea8   Section       24  qgeotiledmaprouteobjectinfo_p.o(t._ZN5QListI7QPointFEC1Ev)
    t._ZN5QListI7QPointFED1Ev                0x00034ec0   Section       32  qgeotiledmaprouteobjectinfo_p.o(t._ZN5QListI7QPointFED1Ev)
    t._ZN5QListI7QStringE13detach_helperEi   0x00034ee0   Section       94  qlandmarkattributefilter.o(t._ZN5QListI7QStringE13detach_helperEi)
    t._ZN5QListI7QStringE13detach_helperEi.clean 0x00034f3e   Section        8  qlandmarkattributefilter.o(t._ZN5QListI7QStringE13detach_helperEi.clean)
    t._ZN5QListI7QStringE13detach_helperEv   0x00034f46   Section       16  qlandmarkattributefilter.o(t._ZN5QListI7QStringE13detach_helperEv)
    t._ZN5QListI7QStringE13node_destructEPNS1_4NodeES3_ 0x00034f56   Section       26  qlandmarkattributefilter.o(t._ZN5QListI7QStringE13node_destructEPNS1_4NodeES3_)
    t._ZN5QListI7QStringE14node_constructEPNS1_4NodeERKS0_ 0x00034f70   Section       36  qlandmarkattributefilter.o(t._ZN5QListI7QStringE14node_constructEPNS1_4NodeERKS0_)
    t._ZN5QListI7QStringE14node_constructEPNS1_4NodeERKS0_.clean 0x00034f94   Section       14  qlandmarkattributefilter.o(t._ZN5QListI7QStringE14node_constructEPNS1_4NodeERKS0_.clean)
    t._ZN5QListI7QStringE18detach_helper_growEii 0x00034fa2   Section      208  qlandmarkattributefilter.o(t._ZN5QListI7QStringE18detach_helper_growEii)
    t._ZN5QListI7QStringE18detach_helper_growEii.clean 0x00035072   Section       16  qlandmarkattributefilter.o(t._ZN5QListI7QStringE18detach_helper_growEii.clean)
    t._ZN5QListI7QStringE4freeEPN9QListData4DataE 0x00035082   Section       52  qlandmarkmanager.o(t._ZN5QListI7QStringE4freeEPN9QListData4DataE)
    t._ZN5QListI7QStringE6appendERKS0_       0x000350b8   Section      120  qlandmarkattributefilter.o(t._ZN5QListI7QStringE6appendERKS0_)
    t._ZN5QListI7QStringE6appendERKS0_.clean 0x00035130   Section       14  qlandmarkattributefilter.o(t._ZN5QListI7QStringE6appendERKS0_.clean)
    t._ZN5QListI7QStringE7reserveEi          0x0003513e   Section       46  qlandmarkattributefilter.o(t._ZN5QListI7QStringE7reserveEi)
    t._ZN5QListI7QStringE9node_copyEPNS1_4NodeES3_S3_ 0x0003516c   Section       82  qlandmarkattributefilter.o(t._ZN5QListI7QStringE9node_copyEPNS1_4NodeES3_S3_)
    t._ZN5QListI7QStringE9node_copyEPNS1_4NodeES3_S3_.clean 0x000351be   Section       22  qlandmarkattributefilter.o(t._ZN5QListI7QStringE9node_copyEPNS1_4NodeES3_S3_.clean)
    t._ZN5QListI7QStringEC1ERKS1_            0x000351d4   Section       36  qlandmarkattributefilter.o(t._ZN5QListI7QStringEC1ERKS1_)
    t._ZN5QListI7QStringEC1Ev                0x000351f8   Section       24  qlandmarkmanager.o(t._ZN5QListI7QStringEC1Ev)
    t._ZN5QListI7QStringED1Ev                0x00035210   Section       32  qlandmarkattributefilter.o(t._ZN5QListI7QStringED1Ev)
    t._ZN5QListI7QStringEpLERKS1_            0x00035230   Section      200  qgeoserviceprovider.o(t._ZN5QListI7QStringEpLERKS1_)
    t._ZN5QListI7QStringEpLERKS1_.clean      0x000352f8   Section        8  qgeoserviceprovider.o(t._ZN5QListI7QStringEpLERKS1_.clean)
    t._ZN5QListIN10QtMobility11QLandmarkIdEE13detach_helperEi 0x00035300   Section       94  qlandmarkfetchbyidrequest.o(t._ZN5QListIN10QtMobility11QLandmarkIdEE13detach_helperEi)
    t._ZN5QListIN10QtMobility11QLandmarkIdEE13detach_helperEi.clean 0x0003535e   Section        8  qlandmarkfetchbyidrequest.o(t._ZN5QListIN10QtMobility11QLandmarkIdEE13detach_helperEi.clean)
    t._ZN5QListIN10QtMobility11QLandmarkIdEE13detach_helperEv 0x00035366   Section       16  qlandmarkexportrequest.o(t._ZN5QListIN10QtMobility11QLandmarkIdEE13detach_helperEv)
    t._ZN5QListIN10QtMobility11QLandmarkIdEE13node_destructEPNS2_4NodeES4_ 0x00035376   Section       26  qlandmarkfetchbyidrequest.o(t._ZN5QListIN10QtMobility11QLandmarkIdEE13node_destructEPNS2_4NodeES4_)
    t._ZN5QListIN10QtMobility11QLandmarkIdEE14node_constructEPNS2_4NodeERKS1_ 0x00035390   Section       36  qlandmarkfetchbyidrequest.o(t._ZN5QListIN10QtMobility11QLandmarkIdEE14node_constructEPNS2_4NodeERKS1_)
    t._ZN5QListIN10QtMobility11QLandmarkIdEE14node_constructEPNS2_4NodeERKS1_.clean 0x000353b4   Section       14  qlandmarkfetchbyidrequest.o(t._ZN5QListIN10QtMobility11QLandmarkIdEE14node_constructEPNS2_4NodeERKS1_.clean)
    t._ZN5QListIN10QtMobility11QLandmarkIdEE18detach_helper_growEii 0x000353c2   Section      208  qlandmarkfetchbyidrequest.o(t._ZN5QListIN10QtMobility11QLandmarkIdEE18detach_helper_growEii)
    t._ZN5QListIN10QtMobility11QLandmarkIdEE18detach_helper_growEii.clean 0x00035492   Section       16  qlandmarkfetchbyidrequest.o(t._ZN5QListIN10QtMobility11QLandmarkIdEE18detach_helper_growEii.clean)
    t._ZN5QListIN10QtMobility11QLandmarkIdEE4freeEPN9QListData4DataE 0x000354a2   Section       52  qlandmarkfetchbyidrequest.o(t._ZN5QListIN10QtMobility11QLandmarkIdEE4freeEPN9QListData4DataE)
    t._ZN5QListIN10QtMobility11QLandmarkIdEE5clearEv 0x000354d6   Section       28  qlandmarkfetchbyidrequest.o(t._ZN5QListIN10QtMobility11QLandmarkIdEE5clearEv)
    t._ZN5QListIN10QtMobility11QLandmarkIdEE5clearEv.clean 0x000354f2   Section       10  qlandmarkfetchbyidrequest.o(t._ZN5QListIN10QtMobility11QLandmarkIdEE5clearEv.clean)
    t._ZN5QListIN10QtMobility11QLandmarkIdEE6appendERKS1_ 0x000354fc   Section      120  qlandmarkfetchbyidrequest.o(t._ZN5QListIN10QtMobility11QLandmarkIdEE6appendERKS1_)
    t._ZN5QListIN10QtMobility11QLandmarkIdEE6appendERKS1_.clean 0x00035574   Section       14  qlandmarkfetchbyidrequest.o(t._ZN5QListIN10QtMobility11QLandmarkIdEE6appendERKS1_.clean)
    t._ZN5QListIN10QtMobility11QLandmarkIdEE9node_copyEPNS2_4NodeES4_S4_ 0x00035582   Section       82  qlandmarkfetchbyidrequest.o(t._ZN5QListIN10QtMobility11QLandmarkIdEE9node_copyEPNS2_4NodeES4_S4_)
    t._ZN5QListIN10QtMobility11QLandmarkIdEE9node_copyEPNS2_4NodeES4_S4_.clean 0x000355d4   Section       22  qlandmarkfetchbyidrequest.o(t._ZN5QListIN10QtMobility11QLandmarkIdEE9node_copyEPNS2_4NodeES4_S4_.clean)
    t._ZN5QListIN10QtMobility11QLandmarkIdEE9removeAllERKS1_ 0x000355ec   Section      152  qlandmarkidfilter.o(t._ZN5QListIN10QtMobility11QLandmarkIdEE9removeAllERKS1_)
    t._ZN5QListIN10QtMobility11QLandmarkIdEE9removeAllERKS1_.clean 0x00035684   Section       10  qlandmarkidfilter.o(t._ZN5QListIN10QtMobility11QLandmarkIdEE9removeAllERKS1_.clean)
    t._ZN5QListIN10QtMobility11QLandmarkIdEEC1ERKS2_ 0x0003568e   Section       36  qlandmarkexportrequest.o(t._ZN5QListIN10QtMobility11QLandmarkIdEEC1ERKS2_)
    t._ZN5QListIN10QtMobility11QLandmarkIdEEC1Ev 0x000356b4   Section       24  qlandmarkfetchbyidrequest.o(t._ZN5QListIN10QtMobility11QLandmarkIdEEC1Ev)
    t._ZN5QListIN10QtMobility11QLandmarkIdEED1Ev 0x000356cc   Section       32  qlandmarkcategoryfetchrequest.o(t._ZN5QListIN10QtMobility11QLandmarkIdEED1Ev)
    t._ZN5QListIN10QtMobility11QLandmarkIdEEaSERKS2_ 0x000356ec   Section       64  qlandmarkfetchbyidrequest.o(t._ZN5QListIN10QtMobility11QLandmarkIdEEaSERKS2_)
    t._ZN5QListIN10QtMobility14QGeoCoordinateEE13detach_helperEi 0x0003572c   Section       94  qgeorouterequest.o(t._ZN5QListIN10QtMobility14QGeoCoordinateEE13detach_helperEi)
    t._ZN5QListIN10QtMobility14QGeoCoordinateEE13detach_helperEi.clean 0x0003578a   Section        8  qgeorouterequest.o(t._ZN5QListIN10QtMobility14QGeoCoordinateEE13detach_helperEi.clean)
    t._ZN5QListIN10QtMobility14QGeoCoordinateEE13detach_helperEv 0x00035792   Section       16  qgeomappolygonobject.o(t._ZN5QListIN10QtMobility14QGeoCoordinateEE13detach_helperEv)
    t._ZN5QListIN10QtMobility14QGeoCoordinateEE13node_destructEPNS2_4NodeES4_ 0x000357a2   Section       38  qgeorouterequest.o(t._ZN5QListIN10QtMobility14QGeoCoordinateEE13node_destructEPNS2_4NodeES4_)
    t._ZN5QListIN10QtMobility14QGeoCoordinateEE14node_constructEPNS2_4NodeERKS1_ 0x000357c8   Section       34  qgeorouterequest.o(t._ZN5QListIN10QtMobility14QGeoCoordinateEE14node_constructEPNS2_4NodeERKS1_)
    t._ZN5QListIN10QtMobility14QGeoCoordinateEE14node_constructEPNS2_4NodeERKS1_.clean 0x000357ea   Section       14  qgeorouterequest.o(t._ZN5QListIN10QtMobility14QGeoCoordinateEE14node_constructEPNS2_4NodeERKS1_.clean)
    t._ZN5QListIN10QtMobility14QGeoCoordinateEE18detach_helper_growEii 0x000357f8   Section      208  qgeorouterequest.o(t._ZN5QListIN10QtMobility14QGeoCoordinateEE18detach_helper_growEii)
    t._ZN5QListIN10QtMobility14QGeoCoordinateEE18detach_helper_growEii.clean 0x000358c8   Section       16  qgeorouterequest.o(t._ZN5QListIN10QtMobility14QGeoCoordinateEE18detach_helper_growEii.clean)
    t._ZN5QListIN10QtMobility14QGeoCoordinateEE4freeEPN9QListData4DataE 0x000358d8   Section       58  qgeorouterequest.o(t._ZN5QListIN10QtMobility14QGeoCoordinateEE4freeEPN9QListData4DataE)
    t._ZN5QListIN10QtMobility14QGeoCoordinateEE6appendERKS1_ 0x00035914   Section      112  qgeorouterequest.o(t._ZN5QListIN10QtMobility14QGeoCoordinateEE6appendERKS1_)
    t._ZN5QListIN10QtMobility14QGeoCoordinateEE6appendERKS1_.clean 0x00035984   Section       14  qgeorouterequest.o(t._ZN5QListIN10QtMobility14QGeoCoordinateEE6appendERKS1_.clean)
    t._ZN5QListIN10QtMobility14QGeoCoordinateEE9node_copyEPNS2_4NodeES4_S4_ 0x00035992   Section       92  qgeorouterequest.o(t._ZN5QListIN10QtMobility14QGeoCoordinateEE9node_copyEPNS2_4NodeES4_S4_)
    t._ZN5QListIN10QtMobility14QGeoCoordinateEE9node_copyEPNS2_4NodeES4_S4_.clean 0x000359ee   Section       22  qgeorouterequest.o(t._ZN5QListIN10QtMobility14QGeoCoordinateEE9node_copyEPNS2_4NodeES4_S4_.clean)
    t._ZN5QListIN10QtMobility14QGeoCoordinateEEC1ERKS2_ 0x00035a04   Section       36  qgeoroute.o(t._ZN5QListIN10QtMobility14QGeoCoordinateEEC1ERKS2_)
    t._ZN5QListIN10QtMobility14QGeoCoordinateEEC1Ev 0x00035a28   Section       24  qgeoroute.o(t._ZN5QListIN10QtMobility14QGeoCoordinateEEC1Ev)
    t._ZN5QListIN10QtMobility14QGeoCoordinateEED1Ev 0x00035a40   Section       32  qgeomappolygonobject.o(t._ZN5QListIN10QtMobility14QGeoCoordinateEED1Ev)
    t._ZN5QListIN10QtMobility14QGeoCoordinateEEaSERKS2_ 0x00035a60   Section       64  qgeomappolygonobject.o(t._ZN5QListIN10QtMobility14QGeoCoordinateEEaSERKS2_)
    t._ZN5QListIN10QtMobility15QGeoBoundingBoxEE13detach_helperEi 0x00035aa0   Section      198  qgeorouterequest.o(t._ZN5QListIN10QtMobility15QGeoBoundingBoxEE13detach_helperEi)
    t._ZN5QListIN10QtMobility15QGeoBoundingBoxEE13detach_helperEi.clean 0x00035b66   Section       32  qgeorouterequest.o(t._ZN5QListIN10QtMobility15QGeoBoundingBoxEE13detach_helperEi.clean)
    t._ZN5QListIN10QtMobility15QGeoBoundingBoxEE13detach_helperEv 0x00035b86   Section       16  qgeorouterequest.o(t._ZN5QListIN10QtMobility15QGeoBoundingBoxEE13detach_helperEv)
    t._ZN5QListIN10QtMobility15QGeoBoundingBoxEE4freeEPN9QListData4DataE 0x00035b96   Section       80  qgeorouterequest.o(t._ZN5QListIN10QtMobility15QGeoBoundingBoxEE4freeEPN9QListData4DataE)
    t._ZN5QListIN10QtMobility15QGeoBoundingBoxEEC1ERKS2_ 0x00035be6   Section       36  qgeorouterequest.o(t._ZN5QListIN10QtMobility15QGeoBoundingBoxEEC1ERKS2_)
    t._ZN5QListIN10QtMobility15QGeoBoundingBoxEED1Ev 0x00035c0a   Section       32  qgeorouterequest.o(t._ZN5QListIN10QtMobility15QGeoBoundingBoxEED1Ev)
    t._ZN5QListIN10QtMobility15QGraphicsGeoMap16ConnectivityModeEE13detach_helperEi 0x00035c2a   Section      184  qgeomappingmanagerengine.o(t._ZN5QListIN10QtMobility15QGraphicsGeoMap16ConnectivityModeEE13detach_helperEi)
    t._ZN5QListIN10QtMobility15QGraphicsGeoMap16ConnectivityModeEE13detach_helperEi.clean 0x00035ce2   Section       16  qgeomappingmanagerengine.o(t._ZN5QListIN10QtMobility15QGraphicsGeoMap16ConnectivityModeEE13detach_helperEi.clean)
    t._ZN5QListIN10QtMobility15QGraphicsGeoMap16ConnectivityModeEE13detach_helperEv 0x00035cf2   Section       16  qgeomappingmanagerengine.o(t._ZN5QListIN10QtMobility15QGraphicsGeoMap16ConnectivityModeEE13detach_helperEv)
    t._ZN5QListIN10QtMobility15QGraphicsGeoMap16ConnectivityModeEE4freeEPN9QListData4DataE 0x00035d02   Section       70  qgeomapdata.o(t._ZN5QListIN10QtMobility15QGraphicsGeoMap16ConnectivityModeEE4freeEPN9QListData4DataE)
    t._ZN5QListIN10QtMobility15QGraphicsGeoMap16ConnectivityModeEED1Ev 0x00035d48   Section       32  qgeomapdata.o(t._ZN5QListIN10QtMobility15QGraphicsGeoMap16ConnectivityModeEED1Ev)
    t._ZN5QListIN10QtMobility15QGraphicsGeoMap7MapTypeEE13detach_helperEi 0x00035d68   Section      184  qgeomappingmanagerengine.o(t._ZN5QListIN10QtMobility15QGraphicsGeoMap7MapTypeEE13detach_helperEi)
    t._ZN5QListIN10QtMobility15QGraphicsGeoMap7MapTypeEE13detach_helperEi.clean 0x00035e20   Section       16  qgeomappingmanagerengine.o(t._ZN5QListIN10QtMobility15QGraphicsGeoMap7MapTypeEE13detach_helperEi.clean)
    t._ZN5QListIN10QtMobility15QGraphicsGeoMap7MapTypeEE13detach_helperEv 0x00035e30   Section       16  qgeomappingmanagerengine.o(t._ZN5QListIN10QtMobility15QGraphicsGeoMap7MapTypeEE13detach_helperEv)
    t._ZN5QListIN10QtMobility15QGraphicsGeoMap7MapTypeEE4freeEPN9QListData4DataE 0x00035e40   Section       70  qgeomappingmanagerengine.o(t._ZN5QListIN10QtMobility15QGraphicsGeoMap7MapTypeEE4freeEPN9QListData4DataE)
    t._ZN5QListIN10QtMobility15QGraphicsGeoMap7MapTypeEED1Ev 0x00035e86   Section       32  qgeomappingmanagerengine.o(t._ZN5QListIN10QtMobility15QGraphicsGeoMap7MapTypeEED1Ev)
    t._ZN5QListIN10QtMobility15QLandmarkFilterEE13detach_helperEi 0x00035ea6   Section       94  qlandmarkintersectionfilter.o(t._ZN5QListIN10QtMobility15QLandmarkFilterEE13detach_helperEi)
    t._ZN5QListIN10QtMobility15QLandmarkFilterEE13detach_helperEi.clean 0x00035f04   Section        8  qlandmarkintersectionfilter.o(t._ZN5QListIN10QtMobility15QLandmarkFilterEE13detach_helperEi.clean)
    t._ZN5QListIN10QtMobility15QLandmarkFilterEE13detach_helperEv 0x00035f0c   Section       16  qlandmarkintersectionfilter.o(t._ZN5QListIN10QtMobility15QLandmarkFilterEE13detach_helperEv)
    t._ZN5QListIN10QtMobility15QLandmarkFilterEE13node_destructEPNS2_4NodeE 0x00035f1c   Section       26  qlandmarkintersectionfilter.o(t._ZN5QListIN10QtMobility15QLandmarkFilterEE13node_destructEPNS2_4NodeE)
    t._ZN5QListIN10QtMobility15QLandmarkFilterEE13node_destructEPNS2_4NodeES4_ 0x00035f36   Section       36  qlandmarkintersectionfilter.o(t._ZN5QListIN10QtMobility15QLandmarkFilterEE13node_destructEPNS2_4NodeES4_)
    t._ZN5QListIN10QtMobility15QLandmarkFilterEE14node_constructEPNS2_4NodeERKS1_ 0x00035f5a   Section       34  qlandmarkintersectionfilter.o(t._ZN5QListIN10QtMobility15QLandmarkFilterEE14node_constructEPNS2_4NodeERKS1_)
    t._ZN5QListIN10QtMobility15QLandmarkFilterEE14node_constructEPNS2_4NodeERKS1_.clean 0x00035f7c   Section       14  qlandmarkintersectionfilter.o(t._ZN5QListIN10QtMobility15QLandmarkFilterEE14node_constructEPNS2_4NodeERKS1_.clean)
    t._ZN5QListIN10QtMobility15QLandmarkFilterEE18detach_helper_growEii 0x00035f8a   Section      208  qlandmarkintersectionfilter.o(t._ZN5QListIN10QtMobility15QLandmarkFilterEE18detach_helper_growEii)
    t._ZN5QListIN10QtMobility15QLandmarkFilterEE18detach_helper_growEii.clean 0x0003605a   Section       16  qlandmarkintersectionfilter.o(t._ZN5QListIN10QtMobility15QLandmarkFilterEE18detach_helper_growEii.clean)
    t._ZN5QListIN10QtMobility15QLandmarkFilterEE4freeEPN9QListData4DataE 0x0003606a   Section       58  qlandmarkintersectionfilter.o(t._ZN5QListIN10QtMobility15QLandmarkFilterEE4freeEPN9QListData4DataE)
    t._ZN5QListIN10QtMobility15QLandmarkFilterEE5clearEv 0x000360a4   Section       28  qlandmarkintersectionfilter.o(t._ZN5QListIN10QtMobility15QLandmarkFilterEE5clearEv)
    t._ZN5QListIN10QtMobility15QLandmarkFilterEE5clearEv.clean 0x000360c0   Section       10  qlandmarkintersectionfilter.o(t._ZN5QListIN10QtMobility15QLandmarkFilterEE5clearEv.clean)
    t._ZN5QListIN10QtMobility15QLandmarkFilterEE6appendERKS1_ 0x000360cc   Section      112  qlandmarkintersectionfilter.o(t._ZN5QListIN10QtMobility15QLandmarkFilterEE6appendERKS1_)
    t._ZN5QListIN10QtMobility15QLandmarkFilterEE6appendERKS1_.clean 0x0003613c   Section       14  qlandmarkintersectionfilter.o(t._ZN5QListIN10QtMobility15QLandmarkFilterEE6appendERKS1_.clean)
    t._ZN5QListIN10QtMobility15QLandmarkFilterEE9node_copyEPNS2_4NodeES4_S4_ 0x0003614a   Section       90  qlandmarkintersectionfilter.o(t._ZN5QListIN10QtMobility15QLandmarkFilterEE9node_copyEPNS2_4NodeES4_S4_)
    t._ZN5QListIN10QtMobility15QLandmarkFilterEE9node_copyEPNS2_4NodeES4_S4_.clean 0x000361a4   Section       22  qlandmarkintersectionfilter.o(t._ZN5QListIN10QtMobility15QLandmarkFilterEE9node_copyEPNS2_4NodeES4_S4_.clean)
    t._ZN5QListIN10QtMobility15QLandmarkFilterEE9removeAllERKS1_ 0x000361bc   Section      148  qlandmarkintersectionfilter.o(t._ZN5QListIN10QtMobility15QLandmarkFilterEE9removeAllERKS1_)
    t._ZN5QListIN10QtMobility15QLandmarkFilterEE9removeAllERKS1_.clean 0x00036250   Section       10  qlandmarkintersectionfilter.o(t._ZN5QListIN10QtMobility15QLandmarkFilterEE9removeAllERKS1_.clean)
    t._ZN5QListIN10QtMobility15QLandmarkFilterEEC1ERKS2_ 0x0003625a   Section       36  qlandmarkintersectionfilter.o(t._ZN5QListIN10QtMobility15QLandmarkFilterEEC1ERKS2_)
    t._ZN5QListIN10QtMobility15QLandmarkFilterEEC1Ev 0x00036280   Section       24  qlandmarkintersectionfilter.o(t._ZN5QListIN10QtMobility15QLandmarkFilterEEC1Ev)
    t._ZN5QListIN10QtMobility15QLandmarkFilterEED1Ev 0x00036298   Section       32  qlandmarkintersectionfilter.o(t._ZN5QListIN10QtMobility15QLandmarkFilterEED1Ev)
    t._ZN5QListIN10QtMobility15QLandmarkFilterEEaSERKS2_ 0x000362b8   Section       64  qlandmarkintersectionfilter.o(t._ZN5QListIN10QtMobility15QLandmarkFilterEEaSERKS2_)
    t._ZN5QListIN10QtMobility16QGeoRouteRequest11FeatureTypeEE13detach_helperEi 0x000362f8   Section       94  qgeorouterequest.o(t._ZN5QListIN10QtMobility16QGeoRouteRequest11FeatureTypeEE13detach_helperEi)
    t._ZN5QListIN10QtMobility16QGeoRouteRequest11FeatureTypeEE13detach_helperEi.clean 0x00036356   Section        8  qgeorouterequest.o(t._ZN5QListIN10QtMobility16QGeoRouteRequest11FeatureTypeEE13detach_helperEi.clean)
    t._ZN5QListIN10QtMobility16QGeoRouteRequest11FeatureTypeEE13node_destructEPNS3_4NodeES5_ 0x0003635e   Section       26  qgeorouterequest.o(t._ZN5QListIN10QtMobility16QGeoRouteRequest11FeatureTypeEE13node_destructEPNS3_4NodeES5_)
    t._ZN5QListIN10QtMobility16QGeoRouteRequest11FeatureTypeEE14node_constructEPNS3_4NodeERKS2_ 0x00036378   Section       30  qgeorouterequest.o(t._ZN5QListIN10QtMobility16QGeoRouteRequest11FeatureTypeEE14node_constructEPNS3_4NodeERKS2_)
    t._ZN5QListIN10QtMobility16QGeoRouteRequest11FeatureTypeEE18detach_helper_growEii 0x00036396   Section      208  qgeorouterequest.o(t._ZN5QListIN10QtMobility16QGeoRouteRequest11FeatureTypeEE18detach_helper_growEii)
    t._ZN5QListIN10QtMobility16QGeoRouteRequest11FeatureTypeEE18detach_helper_growEii.clean 0x00036466   Section       16  qgeorouterequest.o(t._ZN5QListIN10QtMobility16QGeoRouteRequest11FeatureTypeEE18detach_helper_growEii.clean)
    t._ZN5QListIN10QtMobility16QGeoRouteRequest11FeatureTypeEE4freeEPN9QListData4DataE 0x00036476   Section       58  qgeorouterequest.o(t._ZN5QListIN10QtMobility16QGeoRouteRequest11FeatureTypeEE4freeEPN9QListData4DataE)
    t._ZN5QListIN10QtMobility16QGeoRouteRequest11FeatureTypeEE6appendERKS2_ 0x000364b0   Section      112  qgeorouterequest.o(t._ZN5QListIN10QtMobility16QGeoRouteRequest11FeatureTypeEE6appendERKS2_)
    t._ZN5QListIN10QtMobility16QGeoRouteRequest11FeatureTypeEE6appendERKS2_.clean 0x00036520   Section       14  qgeorouterequest.o(t._ZN5QListIN10QtMobility16QGeoRouteRequest11FeatureTypeEE6appendERKS2_.clean)
    t._ZN5QListIN10QtMobility16QGeoRouteRequest11FeatureTypeEE7reserveEi 0x0003652e   Section       46  qgeorouterequest.o(t._ZN5QListIN10QtMobility16QGeoRouteRequest11FeatureTypeEE7reserveEi)
    t._ZN5QListIN10QtMobility16QGeoRouteRequest11FeatureTypeEE9node_copyEPNS3_4NodeES5_S5_ 0x0003655c   Section       78  qgeorouterequest.o(t._ZN5QListIN10QtMobility16QGeoRouteRequest11FeatureTypeEE9node_copyEPNS3_4NodeES5_S5_)
    t._ZN5QListIN10QtMobility16QGeoRouteRequest11FeatureTypeEE9node_copyEPNS3_4NodeES5_S5_.clean 0x000365aa   Section        8  qgeorouterequest.o(t._ZN5QListIN10QtMobility16QGeoRouteRequest11FeatureTypeEE9node_copyEPNS3_4NodeES5_S5_.clean)
    t._ZN5QListIN10QtMobility16QGeoRouteRequest11FeatureTypeEED1Ev 0x000365b2   Section       32  qgeorouterequest.o(t._ZN5QListIN10QtMobility16QGeoRouteRequest11FeatureTypeEED1Ev)
    t._ZN5QListIN10QtMobility17QGeoSatelliteInfoEE13detach_helperEi 0x000365d2   Section       94  qgeosatelliteinfosource_s60.o(t._ZN5QListIN10QtMobility17QGeoSatelliteInfoEE13detach_helperEi)
    t._ZN5QListIN10QtMobility17QGeoSatelliteInfoEE13detach_helperEi.clean 0x00036630   Section        8  qgeosatelliteinfosource_s60.o(t._ZN5QListIN10QtMobility17QGeoSatelliteInfoEE13detach_helperEi.clean)
    t._ZN5QListIN10QtMobility17QGeoSatelliteInfoEE13detach_helperEv 0x00036638   Section       16  qgeosatelliteinfosource_s60.o(t._ZN5QListIN10QtMobility17QGeoSatelliteInfoEE13detach_helperEv)
    t._ZN5QListIN10QtMobility17QGeoSatelliteInfoEE13node_destructEPNS2_4NodeES4_ 0x00036648   Section       38  qgeosatelliteinfosource_s60.o(t._ZN5QListIN10QtMobility17QGeoSatelliteInfoEE13node_destructEPNS2_4NodeES4_)
    t._ZN5QListIN10QtMobility17QGeoSatelliteInfoEE14node_constructEPNS2_4NodeERKS1_ 0x0003666e   Section       34  qgeosatelliteinfosource_s60.o(t._ZN5QListIN10QtMobility17QGeoSatelliteInfoEE14node_constructEPNS2_4NodeERKS1_)
    t._ZN5QListIN10QtMobility17QGeoSatelliteInfoEE14node_constructEPNS2_4NodeERKS1_.clean 0x00036690   Section       14  qgeosatelliteinfosource_s60.o(t._ZN5QListIN10QtMobility17QGeoSatelliteInfoEE14node_constructEPNS2_4NodeERKS1_.clean)
    t._ZN5QListIN10QtMobility17QGeoSatelliteInfoEE18detach_helper_growEii 0x0003669e   Section      208  qgeosatelliteinfosource_s60.o(t._ZN5QListIN10QtMobility17QGeoSatelliteInfoEE18detach_helper_growEii)
    t._ZN5QListIN10QtMobility17QGeoSatelliteInfoEE18detach_helper_growEii.clean 0x0003676e   Section       16  qgeosatelliteinfosource_s60.o(t._ZN5QListIN10QtMobility17QGeoSatelliteInfoEE18detach_helper_growEii.clean)
    t._ZN5QListIN10QtMobility17QGeoSatelliteInfoEE4freeEPN9QListData4DataE 0x0003677e   Section       58  qgeosatelliteinfosource_s60.o(t._ZN5QListIN10QtMobility17QGeoSatelliteInfoEE4freeEPN9QListData4DataE)
    t._ZN5QListIN10QtMobility17QGeoSatelliteInfoEE6appendERKS1_ 0x000367b8   Section      112  qgeosatelliteinfosource_s60.o(t._ZN5QListIN10QtMobility17QGeoSatelliteInfoEE6appendERKS1_)
    t._ZN5QListIN10QtMobility17QGeoSatelliteInfoEE6appendERKS1_.clean 0x00036828   Section       14  qgeosatelliteinfosource_s60.o(t._ZN5QListIN10QtMobility17QGeoSatelliteInfoEE6appendERKS1_.clean)
    t._ZN5QListIN10QtMobility17QGeoSatelliteInfoEE9node_copyEPNS2_4NodeES4_S4_ 0x00036836   Section       92  qgeosatelliteinfosource_s60.o(t._ZN5QListIN10QtMobility17QGeoSatelliteInfoEE9node_copyEPNS2_4NodeES4_S4_)
    t._ZN5QListIN10QtMobility17QGeoSatelliteInfoEE9node_copyEPNS2_4NodeES4_S4_.clean 0x00036892   Section       22  qgeosatelliteinfosource_s60.o(t._ZN5QListIN10QtMobility17QGeoSatelliteInfoEE9node_copyEPNS2_4NodeES4_S4_.clean)
    t._ZN5QListIN10QtMobility17QGeoSatelliteInfoEEC1Ev 0x000368a8   Section       24  qgeosatelliteinfosource_s60.o(t._ZN5QListIN10QtMobility17QGeoSatelliteInfoEEC1Ev)
    t._ZN5QListIN10QtMobility17QGeoSatelliteInfoEED1Ev 0x000368c0   Section       32  qgeosatelliteinfosource_s60.o(t._ZN5QListIN10QtMobility17QGeoSatelliteInfoEED1Ev)
    t._ZN5QListIN10QtMobility17QGeoSatelliteInfoEEaSERKS2_ 0x000368e0   Section       64  qgeosatelliteinfosource_s60.o(t._ZN5QListIN10QtMobility17QGeoSatelliteInfoEEaSERKS2_)
    t._ZN5QListIN10QtMobility17QLandmarkCategoryEE13detach_helperEi 0x00036920   Section       94  qlandmarkcategorysaverequest.o(t._ZN5QListIN10QtMobility17QLandmarkCategoryEE13detach_helperEi)
    t._ZN5QListIN10QtMobility17QLandmarkCategoryEE13detach_helperEi.clean 0x0003697e   Section        8  qlandmarkcategorysaverequest.o(t._ZN5QListIN10QtMobility17QLandmarkCategoryEE13detach_helperEi.clean)
    t._ZN5QListIN10QtMobility17QLandmarkCategoryEE13detach_helperEv 0x00036986   Section       16  qlandmarkcategoryfetchrequest.o(t._ZN5QListIN10QtMobility17QLandmarkCategoryEE13detach_helperEv)
    t._ZN5QListIN10QtMobility17QLandmarkCategoryEE13node_destructEPNS2_4NodeES4_ 0x00036996   Section       26  qlandmarkcategorysaverequest.o(t._ZN5QListIN10QtMobility17QLandmarkCategoryEE13node_destructEPNS2_4NodeES4_)
    t._ZN5QListIN10QtMobility17QLandmarkCategoryEE14node_constructEPNS2_4NodeERKS1_ 0x000369b0   Section       36  qlandmarkcategorysaverequest.o(t._ZN5QListIN10QtMobility17QLandmarkCategoryEE14node_constructEPNS2_4NodeERKS1_)
    t._ZN5QListIN10QtMobility17QLandmarkCategoryEE14node_constructEPNS2_4NodeERKS1_.clean 0x000369d4   Section       14  qlandmarkcategorysaverequest.o(t._ZN5QListIN10QtMobility17QLandmarkCategoryEE14node_constructEPNS2_4NodeERKS1_.clean)
    t._ZN5QListIN10QtMobility17QLandmarkCategoryEE18detach_helper_growEii 0x000369e2   Section      208  qlandmarkcategorysaverequest.o(t._ZN5QListIN10QtMobility17QLandmarkCategoryEE18detach_helper_growEii)
    t._ZN5QListIN10QtMobility17QLandmarkCategoryEE18detach_helper_growEii.clean 0x00036ab2   Section       16  qlandmarkcategorysaverequest.o(t._ZN5QListIN10QtMobility17QLandmarkCategoryEE18detach_helper_growEii.clean)
    t._ZN5QListIN10QtMobility17QLandmarkCategoryEE4freeEPN9QListData4DataE 0x00036ac2   Section       52  qlandmarkcategorysaverequest.o(t._ZN5QListIN10QtMobility17QLandmarkCategoryEE4freeEPN9QListData4DataE)
    t._ZN5QListIN10QtMobility17QLandmarkCategoryEE5clearEv 0x00036af6   Section       28  qlandmarkcategorysaverequest.o(t._ZN5QListIN10QtMobility17QLandmarkCategoryEE5clearEv)
    t._ZN5QListIN10QtMobility17QLandmarkCategoryEE5clearEv.clean 0x00036b12   Section       10  qlandmarkcategorysaverequest.o(t._ZN5QListIN10QtMobility17QLandmarkCategoryEE5clearEv.clean)
    t._ZN5QListIN10QtMobility17QLandmarkCategoryEE6appendERKS1_ 0x00036b1c   Section      120  qlandmarkcategorysaverequest.o(t._ZN5QListIN10QtMobility17QLandmarkCategoryEE6appendERKS1_)
    t._ZN5QListIN10QtMobility17QLandmarkCategoryEE6appendERKS1_.clean 0x00036b94   Section       14  qlandmarkcategorysaverequest.o(t._ZN5QListIN10QtMobility17QLandmarkCategoryEE6appendERKS1_.clean)
    t._ZN5QListIN10QtMobility17QLandmarkCategoryEE9node_copyEPNS2_4NodeES4_S4_ 0x00036ba2   Section       82  qlandmarkcategorysaverequest.o(t._ZN5QListIN10QtMobility17QLandmarkCategoryEE9node_copyEPNS2_4NodeES4_S4_)
    t._ZN5QListIN10QtMobility17QLandmarkCategoryEE9node_copyEPNS2_4NodeES4_S4_.clean 0x00036bf4   Section       22  qlandmarkcategorysaverequest.o(t._ZN5QListIN10QtMobility17QLandmarkCategoryEE9node_copyEPNS2_4NodeES4_S4_.clean)
    t._ZN5QListIN10QtMobility17QLandmarkCategoryEEC1ERKS2_ 0x00036c0a   Section       36  qlandmarkmanager.o(t._ZN5QListIN10QtMobility17QLandmarkCategoryEEC1ERKS2_)
    t._ZN5QListIN10QtMobility17QLandmarkCategoryEEC1Ev 0x00036c30   Section       24  qlandmarkcategorysaverequest.o(t._ZN5QListIN10QtMobility17QLandmarkCategoryEEC1Ev)
    t._ZN5QListIN10QtMobility17QLandmarkCategoryEED1Ev 0x00036c48   Section       32  qlandmarkcategoryfetchrequest.o(t._ZN5QListIN10QtMobility17QLandmarkCategoryEED1Ev)
    t._ZN5QListIN10QtMobility17QLandmarkCategoryEEaSERKS2_ 0x00036c68   Section       64  qlandmarkcategorysaverequest.o(t._ZN5QListIN10QtMobility17QLandmarkCategoryEEaSERKS2_)
    t._ZN5QListIN10QtMobility18QLandmarkSortOrderEE13detach_helperEi 0x00036ca8   Section       94  qlandmarkfetchrequest.o(t._ZN5QListIN10QtMobility18QLandmarkSortOrderEE13detach_helperEi)
    t._ZN5QListIN10QtMobility18QLandmarkSortOrderEE13detach_helperEi.clean 0x00036d06   Section        8  qlandmarkfetchrequest.o(t._ZN5QListIN10QtMobility18QLandmarkSortOrderEE13detach_helperEi.clean)
    t._ZN5QListIN10QtMobility18QLandmarkSortOrderEE13detach_helperEv 0x00036d0e   Section       16  qlandmarkfetchrequest.o(t._ZN5QListIN10QtMobility18QLandmarkSortOrderEE13detach_helperEv)
    t._ZN5QListIN10QtMobility18QLandmarkSortOrderEE13node_destructEPNS2_4NodeES4_ 0x00036d1e   Section       36  qlandmarkfetchrequest.o(t._ZN5QListIN10QtMobility18QLandmarkSortOrderEE13node_destructEPNS2_4NodeES4_)
    t._ZN5QListIN10QtMobility18QLandmarkSortOrderEE14node_constructEPNS2_4NodeERKS1_ 0x00036d42   Section       34  qlandmarkfetchrequest.o(t._ZN5QListIN10QtMobility18QLandmarkSortOrderEE14node_constructEPNS2_4NodeERKS1_)
    t._ZN5QListIN10QtMobility18QLandmarkSortOrderEE14node_constructEPNS2_4NodeERKS1_.clean 0x00036d64   Section       14  qlandmarkfetchrequest.o(t._ZN5QListIN10QtMobility18QLandmarkSortOrderEE14node_constructEPNS2_4NodeERKS1_.clean)
    t._ZN5QListIN10QtMobility18QLandmarkSortOrderEE18detach_helper_growEii 0x00036d72   Section      208  qlandmarkfetchrequest.o(t._ZN5QListIN10QtMobility18QLandmarkSortOrderEE18detach_helper_growEii)
    t._ZN5QListIN10QtMobility18QLandmarkSortOrderEE18detach_helper_growEii.clean 0x00036e42   Section       16  qlandmarkfetchrequest.o(t._ZN5QListIN10QtMobility18QLandmarkSortOrderEE18detach_helper_growEii.clean)
    t._ZN5QListIN10QtMobility18QLandmarkSortOrderEE4freeEPN9QListData4DataE 0x00036e52   Section       52  qlandmarkfetchrequest.o(t._ZN5QListIN10QtMobility18QLandmarkSortOrderEE4freeEPN9QListData4DataE)
    t._ZN5QListIN10QtMobility18QLandmarkSortOrderEE5clearEv 0x00036e86   Section       28  qlandmarkfetchrequest.o(t._ZN5QListIN10QtMobility18QLandmarkSortOrderEE5clearEv)
    t._ZN5QListIN10QtMobility18QLandmarkSortOrderEE5clearEv.clean 0x00036ea2   Section       10  qlandmarkfetchrequest.o(t._ZN5QListIN10QtMobility18QLandmarkSortOrderEE5clearEv.clean)
    t._ZN5QListIN10QtMobility18QLandmarkSortOrderEE6appendERKS1_ 0x00036eac   Section      112  qlandmarkmanager.o(t._ZN5QListIN10QtMobility18QLandmarkSortOrderEE6appendERKS1_)
    t._ZN5QListIN10QtMobility18QLandmarkSortOrderEE6appendERKS1_.clean 0x00036f1c   Section       14  qlandmarkmanager.o(t._ZN5QListIN10QtMobility18QLandmarkSortOrderEE6appendERKS1_.clean)
    t._ZN5QListIN10QtMobility18QLandmarkSortOrderEE9node_copyEPNS2_4NodeES4_S4_ 0x00036f2a   Section       90  qlandmarkfetchrequest.o(t._ZN5QListIN10QtMobility18QLandmarkSortOrderEE9node_copyEPNS2_4NodeES4_S4_)
    t._ZN5QListIN10QtMobility18QLandmarkSortOrderEE9node_copyEPNS2_4NodeES4_S4_.clean 0x00036f84   Section       22  qlandmarkfetchrequest.o(t._ZN5QListIN10QtMobility18QLandmarkSortOrderEE9node_copyEPNS2_4NodeES4_S4_.clean)
    t._ZN5QListIN10QtMobility18QLandmarkSortOrderEEC1Ev 0x00036f9c   Section       24  qlandmarkfetchrequest.o(t._ZN5QListIN10QtMobility18QLandmarkSortOrderEEC1Ev)
    t._ZN5QListIN10QtMobility18QLandmarkSortOrderEED1Ev 0x00036fb4   Section       32  qlandmarkcategoryfetchrequest.o(t._ZN5QListIN10QtMobility18QLandmarkSortOrderEED1Ev)
    t._ZN5QListIN10QtMobility18QLandmarkSortOrderEEaSERKS2_ 0x00036fd4   Section       64  qlandmarkfetchrequest.o(t._ZN5QListIN10QtMobility18QLandmarkSortOrderEEaSERKS2_)
    t._ZN5QListIN10QtMobility19QGeoTiledMapRequestEE11setSharableEb 0x00037014   Section       22  qgeotiledmapdata.o(t._ZN5QListIN10QtMobility19QGeoTiledMapRequestEE11setSharableEb)
    t._ZN5QListIN10QtMobility19QGeoTiledMapRequestEE13detach_helperEi 0x0003702a   Section       94  qgeotiledmapdata.o(t._ZN5QListIN10QtMobility19QGeoTiledMapRequestEE13detach_helperEi)
    t._ZN5QListIN10QtMobility19QGeoTiledMapRequestEE13detach_helperEi.clean 0x00037088   Section        8  qgeotiledmapdata.o(t._ZN5QListIN10QtMobility19QGeoTiledMapRequestEE13detach_helperEi.clean)
    t._ZN5QListIN10QtMobility19QGeoTiledMapRequestEE13detach_helperEv 0x00037090   Section       16  qgeotiledmapdata.o(t._ZN5QListIN10QtMobility19QGeoTiledMapRequestEE13detach_helperEv)
    t._ZN5QListIN10QtMobility19QGeoTiledMapRequestEE13node_destructEPNS2_4NodeE 0x000370a0   Section       28  qgeotiledmapdata.o(t._ZN5QListIN10QtMobility19QGeoTiledMapRequestEE13node_destructEPNS2_4NodeE)
    t._ZN5QListIN10QtMobility19QGeoTiledMapRequestEE13node_destructEPNS2_4NodeES4_ 0x000370bc   Section       38  qgeotiledmapdata.o(t._ZN5QListIN10QtMobility19QGeoTiledMapRequestEE13node_destructEPNS2_4NodeES4_)
    t._ZN5QListIN10QtMobility19QGeoTiledMapRequestEE14node_constructEPNS2_4NodeERKS1_ 0x000370e2   Section       34  qgeotiledmapdata.o(t._ZN5QListIN10QtMobility19QGeoTiledMapRequestEE14node_constructEPNS2_4NodeERKS1_)
    t._ZN5QListIN10QtMobility19QGeoTiledMapRequestEE14node_constructEPNS2_4NodeERKS1_.clean 0x00037104   Section       14  qgeotiledmapdata.o(t._ZN5QListIN10QtMobility19QGeoTiledMapRequestEE14node_constructEPNS2_4NodeERKS1_.clean)
    t._ZN5QListIN10QtMobility19QGeoTiledMapRequestEE18detach_helper_growEii 0x00037112   Section      208  qgeotiledmapdata.o(t._ZN5QListIN10QtMobility19QGeoTiledMapRequestEE18detach_helper_growEii)
    t._ZN5QListIN10QtMobility19QGeoTiledMapRequestEE18detach_helper_growEii.clean 0x000371e2   Section       16  qgeotiledmapdata.o(t._ZN5QListIN10QtMobility19QGeoTiledMapRequestEE18detach_helper_growEii.clean)
    t._ZN5QListIN10QtMobility19QGeoTiledMapRequestEE3endEv 0x000371f2   Section       26  qgeotiledmapdata.o(t._ZN5QListIN10QtMobility19QGeoTiledMapRequestEE3endEv)
    t._ZN5QListIN10QtMobility19QGeoTiledMapRequestEE4freeEPN9QListData4DataE 0x0003720c   Section       52  qgeotiledmapdata.o(t._ZN5QListIN10QtMobility19QGeoTiledMapRequestEE4freeEPN9QListData4DataE)
    t._ZN5QListIN10QtMobility19QGeoTiledMapRequestEE5clearEv 0x00037240   Section       76  qgeotiledmapdata.o(t._ZN5QListIN10QtMobility19QGeoTiledMapRequestEE5clearEv)
    t._ZN5QListIN10QtMobility19QGeoTiledMapRequestEE5clearEv.clean 0x0003728c   Section       10  qgeotiledmapdata.o(t._ZN5QListIN10QtMobility19QGeoTiledMapRequestEE5clearEv.clean)
    t._ZN5QListIN10QtMobility19QGeoTiledMapRequestEE6appendERKS1_ 0x00037298   Section      112  qgeotiledmapdata.o(t._ZN5QListIN10QtMobility19QGeoTiledMapRequestEE6appendERKS1_)
    t._ZN5QListIN10QtMobility19QGeoTiledMapRequestEE6appendERKS1_.clean 0x00037308   Section       14  qgeotiledmapdata.o(t._ZN5QListIN10QtMobility19QGeoTiledMapRequestEE6appendERKS1_.clean)
    t._ZN5QListIN10QtMobility19QGeoTiledMapRequestEE6detachEv 0x00037316   Section       24  qgeotiledmapdata.o(t._ZN5QListIN10QtMobility19QGeoTiledMapRequestEE6detachEv)
    t._ZN5QListIN10QtMobility19QGeoTiledMapRequestEE7reserveEi 0x0003732e   Section       46  qgeotiledmapdata.o(t._ZN5QListIN10QtMobility19QGeoTiledMapRequestEE7reserveEi)
    t._ZN5QListIN10QtMobility19QGeoTiledMapRequestEE9node_copyEPNS2_4NodeES4_S4_ 0x0003735c   Section       92  qgeotiledmapdata.o(t._ZN5QListIN10QtMobility19QGeoTiledMapRequestEE9node_copyEPNS2_4NodeES4_S4_)
    t._ZN5QListIN10QtMobility19QGeoTiledMapRequestEE9node_copyEPNS2_4NodeES4_S4_.clean 0x000373b8   Section       22  qgeotiledmapdata.o(t._ZN5QListIN10QtMobility19QGeoTiledMapRequestEE9node_copyEPNS2_4NodeES4_S4_.clean)
    t._ZN5QListIN10QtMobility19QGeoTiledMapRequestEEC1Ev 0x000373d0   Section       24  qgeotiledmapdata.o(t._ZN5QListIN10QtMobility19QGeoTiledMapRequestEEC1Ev)
    t._ZN5QListIN10QtMobility19QGeoTiledMapRequestEED1Ev 0x000373e8   Section       32  qgeotiledmapdata.o(t._ZN5QListIN10QtMobility19QGeoTiledMapRequestEED1Ev)
    t._ZN5QListIN10QtMobility19QLandmarkCategoryIdEE13detach_helperEi 0x00037408   Section       94  qlandmark.o(t._ZN5QListIN10QtMobility19QLandmarkCategoryIdEE13detach_helperEi)
    t._ZN5QListIN10QtMobility19QLandmarkCategoryIdEE13detach_helperEi.clean 0x00037466   Section        8  qlandmark.o(t._ZN5QListIN10QtMobility19QLandmarkCategoryIdEE13detach_helperEi.clean)
    t._ZN5QListIN10QtMobility19QLandmarkCategoryIdEE13detach_helperEv 0x0003746e   Section       16  qlandmark.o(t._ZN5QListIN10QtMobility19QLandmarkCategoryIdEE13detach_helperEv)
    t._ZN5QListIN10QtMobility19QLandmarkCategoryIdEE13node_destructEPNS2_4NodeES4_ 0x0003747e   Section       26  qlandmark.o(t._ZN5QListIN10QtMobility19QLandmarkCategoryIdEE13node_destructEPNS2_4NodeES4_)
    t._ZN5QListIN10QtMobility19QLandmarkCategoryIdEE14node_constructEPNS2_4NodeERKS1_ 0x00037498   Section       36  qlandmark.o(t._ZN5QListIN10QtMobility19QLandmarkCategoryIdEE14node_constructEPNS2_4NodeERKS1_)
    t._ZN5QListIN10QtMobility19QLandmarkCategoryIdEE14node_constructEPNS2_4NodeERKS1_.clean 0x000374bc   Section       14  qlandmark.o(t._ZN5QListIN10QtMobility19QLandmarkCategoryIdEE14node_constructEPNS2_4NodeERKS1_.clean)
    t._ZN5QListIN10QtMobility19QLandmarkCategoryIdEE18detach_helper_growEii 0x000374ca   Section      208  qlandmark.o(t._ZN5QListIN10QtMobility19QLandmarkCategoryIdEE18detach_helper_growEii)
    t._ZN5QListIN10QtMobility19QLandmarkCategoryIdEE18detach_helper_growEii.clean 0x0003759a   Section       16  qlandmark.o(t._ZN5QListIN10QtMobility19QLandmarkCategoryIdEE18detach_helper_growEii.clean)
    t._ZN5QListIN10QtMobility19QLandmarkCategoryIdEE4freeEPN9QListData4DataE 0x000375aa   Section       52  qlandmarkcategoryfetchbyidrequest.o(t._ZN5QListIN10QtMobility19QLandmarkCategoryIdEE4freeEPN9QListData4DataE)
    t._ZN5QListIN10QtMobility19QLandmarkCategoryIdEE5clearEv 0x000375de   Section       28  qlandmark.o(t._ZN5QListIN10QtMobility19QLandmarkCategoryIdEE5clearEv)
    t._ZN5QListIN10QtMobility19QLandmarkCategoryIdEE5clearEv.clean 0x000375fa   Section       10  qlandmark.o(t._ZN5QListIN10QtMobility19QLandmarkCategoryIdEE5clearEv.clean)
    t._ZN5QListIN10QtMobility19QLandmarkCategoryIdEE6appendERKS1_ 0x00037604   Section      120  qlandmark.o(t._ZN5QListIN10QtMobility19QLandmarkCategoryIdEE6appendERKS1_)
    t._ZN5QListIN10QtMobility19QLandmarkCategoryIdEE6appendERKS1_.clean 0x0003767c   Section       14  qlandmark.o(t._ZN5QListIN10QtMobility19QLandmarkCategoryIdEE6appendERKS1_.clean)
    t._ZN5QListIN10QtMobility19QLandmarkCategoryIdEE9node_copyEPNS2_4NodeES4_S4_ 0x0003768a   Section       82  qlandmark.o(t._ZN5QListIN10QtMobility19QLandmarkCategoryIdEE9node_copyEPNS2_4NodeES4_S4_)
    t._ZN5QListIN10QtMobility19QLandmarkCategoryIdEE9node_copyEPNS2_4NodeES4_S4_.clean 0x000376dc   Section       22  qlandmark.o(t._ZN5QListIN10QtMobility19QLandmarkCategoryIdEE9node_copyEPNS2_4NodeES4_S4_.clean)
    t._ZN5QListIN10QtMobility19QLandmarkCategoryIdEE9removeAllERKS1_ 0x000376f4   Section      140  qlandmark.o(t._ZN5QListIN10QtMobility19QLandmarkCategoryIdEE9removeAllERKS1_)
    t._ZN5QListIN10QtMobility19QLandmarkCategoryIdEE9removeAllERKS1_.clean 0x00037780   Section       10  qlandmark.o(t._ZN5QListIN10QtMobility19QLandmarkCategoryIdEE9removeAllERKS1_.clean)
    t._ZN5QListIN10QtMobility19QLandmarkCategoryIdEEC1ERKS2_ 0x0003778a   Section       36  qlandmark.o(t._ZN5QListIN10QtMobility19QLandmarkCategoryIdEEC1ERKS2_)
    t._ZN5QListIN10QtMobility19QLandmarkCategoryIdEEC1Ev 0x000377b0   Section       24  qlandmark.o(t._ZN5QListIN10QtMobility19QLandmarkCategoryIdEEC1Ev)
    t._ZN5QListIN10QtMobility19QLandmarkCategoryIdEED1Ev 0x000377c8   Section       32  qlandmark.o(t._ZN5QListIN10QtMobility19QLandmarkCategoryIdEED1Ev)
    t._ZN5QListIN10QtMobility19QLandmarkCategoryIdEEaSERKS2_ 0x000377e8   Section       64  qlandmark.o(t._ZN5QListIN10QtMobility19QLandmarkCategoryIdEEaSERKS2_)
    t._ZN5QListIN10QtMobility23QPendingGeoPositionInfoEE13detach_helperEi 0x00037828   Section       94  qnmeapositioninfosource.o(t._ZN5QListIN10QtMobility23QPendingGeoPositionInfoEE13detach_helperEi)
    t._ZN5QListIN10QtMobility23QPendingGeoPositionInfoEE13detach_helperEi.clean 0x00037886   Section        8  qnmeapositioninfosource.o(t._ZN5QListIN10QtMobility23QPendingGeoPositionInfoEE13detach_helperEi.clean)
    t._ZN5QListIN10QtMobility23QPendingGeoPositionInfoEE13detach_helperEv 0x0003788e   Section       16  qnmeapositioninfosource.o(t._ZN5QListIN10QtMobility23QPendingGeoPositionInfoEE13detach_helperEv)
    t._ZN5QListIN10QtMobility23QPendingGeoPositionInfoEE13node_destructEPNS2_4NodeE 0x0003789e   Section       28  qnmeapositioninfosource.o(t._ZN5QListIN10QtMobility23QPendingGeoPositionInfoEE13node_destructEPNS2_4NodeE)
    t._ZN5QListIN10QtMobility23QPendingGeoPositionInfoEE13node_destructEPNS2_4NodeES4_ 0x000378ba   Section       38  qnmeapositioninfosource.o(t._ZN5QListIN10QtMobility23QPendingGeoPositionInfoEE13node_destructEPNS2_4NodeES4_)
    t._ZN5QListIN10QtMobility23QPendingGeoPositionInfoEE14node_constructEPNS2_4NodeERKS1_ 0x000378e0   Section       34  qnmeapositioninfosource.o(t._ZN5QListIN10QtMobility23QPendingGeoPositionInfoEE14node_constructEPNS2_4NodeERKS1_)
    t._ZN5QListIN10QtMobility23QPendingGeoPositionInfoEE14node_constructEPNS2_4NodeERKS1_.clean 0x00037902   Section       14  qnmeapositioninfosource.o(t._ZN5QListIN10QtMobility23QPendingGeoPositionInfoEE14node_constructEPNS2_4NodeERKS1_.clean)
    t._ZN5QListIN10QtMobility23QPendingGeoPositionInfoEE18detach_helper_growEii 0x00037910   Section      208  qnmeapositioninfosource.o(t._ZN5QListIN10QtMobility23QPendingGeoPositionInfoEE18detach_helper_growEii)
    t._ZN5QListIN10QtMobility23QPendingGeoPositionInfoEE18detach_helper_growEii.clean 0x000379e0   Section       16  qnmeapositioninfosource.o(t._ZN5QListIN10QtMobility23QPendingGeoPositionInfoEE18detach_helper_growEii.clean)
    t._ZN5QListIN10QtMobility23QPendingGeoPositionInfoEE4freeEPN9QListData4DataE 0x000379f0   Section       58  qnmeapositioninfosource.o(t._ZN5QListIN10QtMobility23QPendingGeoPositionInfoEE4freeEPN9QListData4DataE)
    t._ZN5QListIN10QtMobility23QPendingGeoPositionInfoEE5beginEv 0x00037a2a   Section       40  qnmeapositioninfosource.o(t._ZN5QListIN10QtMobility23QPendingGeoPositionInfoEE5beginEv)
    t._ZN5QListIN10QtMobility23QPendingGeoPositionInfoEE5firstEv 0x00037a52   Section       22  qnmeapositioninfosource.o(t._ZN5QListIN10QtMobility23QPendingGeoPositionInfoEE5firstEv)
    t._ZN5QListIN10QtMobility23QPendingGeoPositionInfoEE6appendERKS1_ 0x00037a68   Section      112  qnmeapositioninfosource.o(t._ZN5QListIN10QtMobility23QPendingGeoPositionInfoEE6appendERKS1_)
    t._ZN5QListIN10QtMobility23QPendingGeoPositionInfoEE6appendERKS1_.clean 0x00037ad8   Section       14  qnmeapositioninfosource.o(t._ZN5QListIN10QtMobility23QPendingGeoPositionInfoEE6appendERKS1_.clean)
    t._ZN5QListIN10QtMobility23QPendingGeoPositionInfoEE9node_copyEPNS2_4NodeES4_S4_ 0x00037ae6   Section       92  qnmeapositioninfosource.o(t._ZN5QListIN10QtMobility23QPendingGeoPositionInfoEE9node_copyEPNS2_4NodeES4_S4_)
    t._ZN5QListIN10QtMobility23QPendingGeoPositionInfoEE9node_copyEPNS2_4NodeES4_S4_.clean 0x00037b42   Section       22  qnmeapositioninfosource.o(t._ZN5QListIN10QtMobility23QPendingGeoPositionInfoEE9node_copyEPNS2_4NodeES4_S4_.clean)
    t._ZN5QListIN10QtMobility23QPendingGeoPositionInfoEED1Ev 0x00037b58   Section       32  qnmeapositioninfosource.o(t._ZN5QListIN10QtMobility23QPendingGeoPositionInfoEED1Ev)
    t._ZN5QListIN10QtMobility9QGeoPlaceEE13detach_helperEi 0x00037b78   Section       94  qgeosearchreply.o(t._ZN5QListIN10QtMobility9QGeoPlaceEE13detach_helperEi)
    t._ZN5QListIN10QtMobility9QGeoPlaceEE13detach_helperEi.clean 0x00037bd6   Section        8  qgeosearchreply.o(t._ZN5QListIN10QtMobility9QGeoPlaceEE13detach_helperEi.clean)
    t._ZN5QListIN10QtMobility9QGeoPlaceEE13detach_helperEv 0x00037bde   Section       16  qgeosearchreply.o(t._ZN5QListIN10QtMobility9QGeoPlaceEE13detach_helperEv)
    t._ZN5QListIN10QtMobility9QGeoPlaceEE13node_destructEPNS2_4NodeES4_ 0x00037bee   Section       36  qgeosearchreply.o(t._ZN5QListIN10QtMobility9QGeoPlaceEE13node_destructEPNS2_4NodeES4_)
    t._ZN5QListIN10QtMobility9QGeoPlaceEE14node_constructEPNS2_4NodeERKS1_ 0x00037c12   Section       34  qgeosearchreply.o(t._ZN5QListIN10QtMobility9QGeoPlaceEE14node_constructEPNS2_4NodeERKS1_)
    t._ZN5QListIN10QtMobility9QGeoPlaceEE14node_constructEPNS2_4NodeERKS1_.clean 0x00037c34   Section       14  qgeosearchreply.o(t._ZN5QListIN10QtMobility9QGeoPlaceEE14node_constructEPNS2_4NodeERKS1_.clean)
    t._ZN5QListIN10QtMobility9QGeoPlaceEE18detach_helper_growEii 0x00037c42   Section      208  qgeosearchreply.o(t._ZN5QListIN10QtMobility9QGeoPlaceEE18detach_helper_growEii)
    t._ZN5QListIN10QtMobility9QGeoPlaceEE18detach_helper_growEii.clean 0x00037d12   Section       16  qgeosearchreply.o(t._ZN5QListIN10QtMobility9QGeoPlaceEE18detach_helper_growEii.clean)
    t._ZN5QListIN10QtMobility9QGeoPlaceEE4freeEPN9QListData4DataE 0x00037d22   Section       58  qgeosearchreply.o(t._ZN5QListIN10QtMobility9QGeoPlaceEE4freeEPN9QListData4DataE)
    t._ZN5QListIN10QtMobility9QGeoPlaceEE6appendERKS1_ 0x00037d5c   Section      116  qgeosearchreply.o(t._ZN5QListIN10QtMobility9QGeoPlaceEE6appendERKS1_)
    t._ZN5QListIN10QtMobility9QGeoPlaceEE6appendERKS1_.clean 0x00037dd0   Section       14  qgeosearchreply.o(t._ZN5QListIN10QtMobility9QGeoPlaceEE6appendERKS1_.clean)
    t._ZN5QListIN10QtMobility9QGeoPlaceEE9node_copyEPNS2_4NodeES4_S4_ 0x00037dde   Section       90  qgeosearchreply.o(t._ZN5QListIN10QtMobility9QGeoPlaceEE9node_copyEPNS2_4NodeES4_S4_)
    t._ZN5QListIN10QtMobility9QGeoPlaceEE9node_copyEPNS2_4NodeES4_S4_.clean 0x00037e38   Section       22  qgeosearchreply.o(t._ZN5QListIN10QtMobility9QGeoPlaceEE9node_copyEPNS2_4NodeES4_S4_.clean)
    t._ZN5QListIN10QtMobility9QGeoPlaceEEC1Ev 0x00037e50   Section       24  qgeosearchreply.o(t._ZN5QListIN10QtMobility9QGeoPlaceEEC1Ev)
    t._ZN5QListIN10QtMobility9QGeoPlaceEED1Ev 0x00037e68   Section       32  qgeosearchmanager.o(t._ZN5QListIN10QtMobility9QGeoPlaceEED1Ev)
    t._ZN5QListIN10QtMobility9QGeoRouteEE13detach_helperEi 0x00037e88   Section      206  qgeoroutereply.o(t._ZN5QListIN10QtMobility9QGeoRouteEE13detach_helperEi)
    t._ZN5QListIN10QtMobility9QGeoRouteEE13detach_helperEi.clean 0x00037f56   Section       32  qgeoroutereply.o(t._ZN5QListIN10QtMobility9QGeoRouteEE13detach_helperEi.clean)
    t._ZN5QListIN10QtMobility9QGeoRouteEE13detach_helperEv 0x00037f76   Section       16  qgeoroutereply.o(t._ZN5QListIN10QtMobility9QGeoRouteEE13detach_helperEv)
    t._ZN5QListIN10QtMobility9QGeoRouteEE4freeEPN9QListData4DataE 0x00037f86   Section       82  qgeoroutereply.o(t._ZN5QListIN10QtMobility9QGeoRouteEE4freeEPN9QListData4DataE)
    t._ZN5QListIN10QtMobility9QGeoRouteEEC1Ev 0x00037fd8   Section       24  qgeoroutereply.o(t._ZN5QListIN10QtMobility9QGeoRouteEEC1Ev)
    t._ZN5QListIN10QtMobility9QGeoRouteEED1Ev 0x00037ff0   Section       32  qgeoroutereply.o(t._ZN5QListIN10QtMobility9QGeoRouteEED1Ev)
    t._ZN5QListIN10QtMobility9QLandmarkEE13detach_helperEi 0x00038010   Section       94  qlandmarkmanagerengine.o(t._ZN5QListIN10QtMobility9QLandmarkEE13detach_helperEi)
    t._ZN5QListIN10QtMobility9QLandmarkEE13detach_helperEi.clean 0x0003806e   Section        8  qlandmarkmanagerengine.o(t._ZN5QListIN10QtMobility9QLandmarkEE13detach_helperEi.clean)
    t._ZN5QListIN10QtMobility9QLandmarkEE13detach_helperEv 0x00038076   Section       16  qlandmarkfetchrequest.o(t._ZN5QListIN10QtMobility9QLandmarkEE13detach_helperEv)
    t._ZN5QListIN10QtMobility9QLandmarkEE13node_destructEPNS2_4NodeES4_ 0x00038086   Section       36  qlandmarkmanagerengine.o(t._ZN5QListIN10QtMobility9QLandmarkEE13node_destructEPNS2_4NodeES4_)
    t._ZN5QListIN10QtMobility9QLandmarkEE14node_constructEPNS2_4NodeERKS1_ 0x000380aa   Section       34  qlandmarkmanagerengine.o(t._ZN5QListIN10QtMobility9QLandmarkEE14node_constructEPNS2_4NodeERKS1_)
    t._ZN5QListIN10QtMobility9QLandmarkEE14node_constructEPNS2_4NodeERKS1_.clean 0x000380cc   Section       14  qlandmarkmanagerengine.o(t._ZN5QListIN10QtMobility9QLandmarkEE14node_constructEPNS2_4NodeERKS1_.clean)
    t._ZN5QListIN10QtMobility9QLandmarkEE18detach_helper_growEii 0x000380da   Section      208  qlandmarkmanagerengine.o(t._ZN5QListIN10QtMobility9QLandmarkEE18detach_helper_growEii)
    t._ZN5QListIN10QtMobility9QLandmarkEE18detach_helper_growEii.clean 0x000381aa   Section       16  qlandmarkmanagerengine.o(t._ZN5QListIN10QtMobility9QLandmarkEE18detach_helper_growEii.clean)
    t._ZN5QListIN10QtMobility9QLandmarkEE4freeEPN9QListData4DataE 0x000381ba   Section       52  qlandmarkmanagerengine.o(t._ZN5QListIN10QtMobility9QLandmarkEE4freeEPN9QListData4DataE)
    t._ZN5QListIN10QtMobility9QLandmarkEE5clearEv 0x000381ee   Section       28  qlandmarksaverequest.o(t._ZN5QListIN10QtMobility9QLandmarkEE5clearEv)
    t._ZN5QListIN10QtMobility9QLandmarkEE5clearEv.clean 0x0003820a   Section       10  qlandmarksaverequest.o(t._ZN5QListIN10QtMobility9QLandmarkEE5clearEv.clean)
    t._ZN5QListIN10QtMobility9QLandmarkEE6appendERKS1_ 0x00038214   Section      112  qlandmarkmanagerengine.o(t._ZN5QListIN10QtMobility9QLandmarkEE6appendERKS1_)
    t._ZN5QListIN10QtMobility9QLandmarkEE6appendERKS1_.clean 0x00038284   Section       14  qlandmarkmanagerengine.o(t._ZN5QListIN10QtMobility9QLandmarkEE6appendERKS1_.clean)
    t._ZN5QListIN10QtMobility9QLandmarkEE9node_copyEPNS2_4NodeES4_S4_ 0x00038292   Section       90  qlandmarkmanagerengine.o(t._ZN5QListIN10QtMobility9QLandmarkEE9node_copyEPNS2_4NodeES4_S4_)
    t._ZN5QListIN10QtMobility9QLandmarkEE9node_copyEPNS2_4NodeES4_S4_.clean 0x000382ec   Section       22  qlandmarkmanagerengine.o(t._ZN5QListIN10QtMobility9QLandmarkEE9node_copyEPNS2_4NodeES4_S4_.clean)
    t._ZN5QListIN10QtMobility9QLandmarkEEC1ERKS2_ 0x00038302   Section       36  qlandmarkmanager.o(t._ZN5QListIN10QtMobility9QLandmarkEEC1ERKS2_)
    t._ZN5QListIN10QtMobility9QLandmarkEEC1Ev 0x00038328   Section       24  qlandmarkmanager.o(t._ZN5QListIN10QtMobility9QLandmarkEEC1Ev)
    t._ZN5QListIN10QtMobility9QLandmarkEED1Ev 0x00038340   Section       32  qlandmarkcategoryfetchrequest.o(t._ZN5QListIN10QtMobility9QLandmarkEED1Ev)
    t._ZN5QListIN10QtMobility9QLandmarkEEaSERKS2_ 0x00038360   Section       64  qlandmarkmanagerengine.o(t._ZN5QListIN10QtMobility9QLandmarkEEaSERKS2_)
    t._ZN5QListIP13QGraphicsItemE13detach_helperEi 0x000383a0   Section       94  qgeotiledmapdata.o(t._ZN5QListIP13QGraphicsItemE13detach_helperEi)
    t._ZN5QListIP13QGraphicsItemE13detach_helperEi.clean 0x000383fe   Section        8  qgeotiledmapdata.o(t._ZN5QListIP13QGraphicsItemE13detach_helperEi.clean)
    t._ZN5QListIP13QGraphicsItemE13detach_helperEv 0x00038406   Section       16  qgeotiledmapdata.o(t._ZN5QListIP13QGraphicsItemE13detach_helperEv)
    t._ZN5QListIP13QGraphicsItemE18detach_helper_growEii 0x00038416   Section      204  qgeotiledmapdata.o(t._ZN5QListIP13QGraphicsItemE18detach_helper_growEii)
    t._ZN5QListIP13QGraphicsItemE18detach_helper_growEii.clean 0x000384e2   Section       16  qgeotiledmapdata.o(t._ZN5QListIP13QGraphicsItemE18detach_helper_growEii.clean)
    t._ZN5QListIP13QGraphicsItemE4freeEPN9QListData4DataE 0x000384f2   Section       52  qgeotiledmapdata.o(t._ZN5QListIP13QGraphicsItemE4freeEPN9QListData4DataE)
    t._ZN5QListIP13QGraphicsItemE6appendERKS1_ 0x00038528   Section      100  qgeotiledmapdata.o(t._ZN5QListIP13QGraphicsItemE6appendERKS1_)
    t._ZN5QListIP13QGraphicsItemE6appendERKS1_.clean 0x0003858c   Section       10  qgeotiledmapdata.o(t._ZN5QListIP13QGraphicsItemE6appendERKS1_.clean)
    t._ZN5QListIP13QGraphicsItemE7reserveEi  0x00038596   Section       46  qgeotiledmapdata.o(t._ZN5QListIP13QGraphicsItemE7reserveEi)
    t._ZN5QListIP13QGraphicsItemE9node_copyEPNS2_4NodeES4_S4_ 0x000385c4   Section       46  qgeotiledmapdata.o(t._ZN5QListIP13QGraphicsItemE9node_copyEPNS2_4NodeES4_S4_)
    t._ZN5QListIP13QGraphicsItemED1Ev        0x000385f2   Section       32  qgeotiledmapdata.o(t._ZN5QListIP13QGraphicsItemED1Ev)
    t._ZN5QListIP7QObjectE4freeEPN9QListData4DataE 0x00038612   Section       52  qlandmarkmanager_p.o(t._ZN5QListIP7QObjectE4freeEPN9QListData4DataE)
    t._ZN5QListIP7QObjectED1Ev               0x00038646   Section       32  qlandmarkmanager_p.o(t._ZN5QListIP7QObjectED1Ev)
    t._ZN5QListIPN10QtMobility13QGeoMapObjectEE13detach_helperEi 0x00038666   Section      128  qgeomapgroupobject.o(t._ZN5QListIPN10QtMobility13QGeoMapObjectEE13detach_helperEi)
    t._ZN5QListIPN10QtMobility13QGeoMapObjectEE13detach_helperEi.clean 0x000386e6   Section        8  qgeomapgroupobject.o(t._ZN5QListIPN10QtMobility13QGeoMapObjectEE13detach_helperEi.clean)
    t._ZN5QListIPN10QtMobility13QGeoMapObjectEE13detach_helperEv 0x000386ee   Section       16  qgeomapgroupobject.o(t._ZN5QListIPN10QtMobility13QGeoMapObjectEE13detach_helperEv)
    t._ZN5QListIPN10QtMobility13QGeoMapObjectEE18detach_helper_growEii 0x000386fe   Section      204  qgeomapdata.o(t._ZN5QListIPN10QtMobility13QGeoMapObjectEE18detach_helper_growEii)
    t._ZN5QListIPN10QtMobility13QGeoMapObjectEE18detach_helper_growEii.clean 0x000387ca   Section       16  qgeomapdata.o(t._ZN5QListIPN10QtMobility13QGeoMapObjectEE18detach_helper_growEii.clean)
    t._ZN5QListIPN10QtMobility13QGeoMapObjectEE4freeEPN9QListData4DataE 0x000387da   Section       52  qgeotiledmapdata.o(t._ZN5QListIPN10QtMobility13QGeoMapObjectEE4freeEPN9QListData4DataE)
    t._ZN5QListIPN10QtMobility13QGeoMapObjectEE5clearEv 0x0003880e   Section       76  qgeomapgroupobject.o(t._ZN5QListIPN10QtMobility13QGeoMapObjectEE5clearEv)
    t._ZN5QListIPN10QtMobility13QGeoMapObjectEE5clearEv.clean 0x0003885a   Section       10  qgeomapgroupobject.o(t._ZN5QListIPN10QtMobility13QGeoMapObjectEE5clearEv.clean)
    t._ZN5QListIPN10QtMobility13QGeoMapObjectEE6appendERKS2_ 0x00038864   Section      100  qgeomapdata.o(t._ZN5QListIPN10QtMobility13QGeoMapObjectEE6appendERKS2_)
    t._ZN5QListIPN10QtMobility13QGeoMapObjectEE6appendERKS2_.clean 0x000388c8   Section       10  qgeomapdata.o(t._ZN5QListIPN10QtMobility13QGeoMapObjectEE6appendERKS2_.clean)
    t._ZN5QListIPN10QtMobility13QGeoMapObjectEE6detachEv 0x000388d2   Section       24  qgeomapgroupobject.o(t._ZN5QListIPN10QtMobility13QGeoMapObjectEE6detachEv)
    t._ZN5QListIPN10QtMobility13QGeoMapObjectEE9node_copyEPNS3_4NodeES5_S5_ 0x000388ea   Section       46  qgeomapdata.o(t._ZN5QListIPN10QtMobility13QGeoMapObjectEE9node_copyEPNS3_4NodeES5_S5_)
    t._ZN5QListIPN10QtMobility13QGeoMapObjectEE9removeAllERKS2_ 0x00038918   Section      116  qgeomapgroupobject.o(t._ZN5QListIPN10QtMobility13QGeoMapObjectEE9removeAllERKS2_)
    t._ZN5QListIPN10QtMobility13QGeoMapObjectEEC1Ev 0x0003898c   Section       24  qgeomapdata.o(t._ZN5QListIPN10QtMobility13QGeoMapObjectEEC1Ev)
    t._ZN5QListIPN10QtMobility13QGeoMapObjectEED1Ev 0x000389a4   Section       32  qgeomapdata.o(t._ZN5QListIPN10QtMobility13QGeoMapObjectEED1Ev)
    t._ZN5QListIPN10QtMobility13QGeoMapObjectEEixEi 0x000389c4   Section       28  qgeomapgroupobject.o(t._ZN5QListIPN10QtMobility13QGeoMapObjectEEixEi)
    t._ZN5QListIPN10QtMobility14QGeoMapOverlayEE13detach_helperEi 0x000389e0   Section       94  qgeomapdata.o(t._ZN5QListIPN10QtMobility14QGeoMapOverlayEE13detach_helperEi)
    t._ZN5QListIPN10QtMobility14QGeoMapOverlayEE13detach_helperEi.clean 0x00038a3e   Section        8  qgeomapdata.o(t._ZN5QListIPN10QtMobility14QGeoMapOverlayEE13detach_helperEi.clean)
    t._ZN5QListIPN10QtMobility14QGeoMapOverlayEE13detach_helperEv 0x00038a46   Section       16  qgeomapdata.o(t._ZN5QListIPN10QtMobility14QGeoMapOverlayEE13detach_helperEv)
    t._ZN5QListIPN10QtMobility14QGeoMapOverlayEE18detach_helper_growEii 0x00038a56   Section      204  qgeomapdata.o(t._ZN5QListIPN10QtMobility14QGeoMapOverlayEE18detach_helper_growEii)
    t._ZN5QListIPN10QtMobility14QGeoMapOverlayEE18detach_helper_growEii.clean 0x00038b22   Section       16  qgeomapdata.o(t._ZN5QListIPN10QtMobility14QGeoMapOverlayEE18detach_helper_growEii.clean)
    t._ZN5QListIPN10QtMobility14QGeoMapOverlayEE4freeEPN9QListData4DataE 0x00038b32   Section       58  qgeomapdata.o(t._ZN5QListIPN10QtMobility14QGeoMapOverlayEE4freeEPN9QListData4DataE)
    t._ZN5QListIPN10QtMobility14QGeoMapOverlayEE5clearEv 0x00038b6c   Section       76  qgeomapdata.o(t._ZN5QListIPN10QtMobility14QGeoMapOverlayEE5clearEv)
    t._ZN5QListIPN10QtMobility14QGeoMapOverlayEE5clearEv.clean 0x00038bb8   Section       10  qgeomapdata.o(t._ZN5QListIPN10QtMobility14QGeoMapOverlayEE5clearEv.clean)
    t._ZN5QListIPN10QtMobility14QGeoMapOverlayEE6appendERKS2_ 0x00038bc4   Section      100  qgeomapdata.o(t._ZN5QListIPN10QtMobility14QGeoMapOverlayEE6appendERKS2_)
    t._ZN5QListIPN10QtMobility14QGeoMapOverlayEE6appendERKS2_.clean 0x00038c28   Section       10  qgeomapdata.o(t._ZN5QListIPN10QtMobility14QGeoMapOverlayEE6appendERKS2_.clean)
    t._ZN5QListIPN10QtMobility14QGeoMapOverlayEE9node_copyEPNS3_4NodeES5_S5_ 0x00038c32   Section       46  qgeomapdata.o(t._ZN5QListIPN10QtMobility14QGeoMapOverlayEE9node_copyEPNS3_4NodeES5_S5_)
    t._ZN5QListIPN10QtMobility14QGeoMapOverlayEE9removeAllERKS2_ 0x00038c60   Section      108  qgeomapdata.o(t._ZN5QListIPN10QtMobility14QGeoMapOverlayEE9removeAllERKS2_)
    t._ZN5QListIPN10QtMobility14QGeoMapOverlayEEC1Ev 0x00038ccc   Section       24  qgeomapdata.o(t._ZN5QListIPN10QtMobility14QGeoMapOverlayEEC1Ev)
    t._ZN5QListIPN10QtMobility14QGeoMapOverlayEED1Ev 0x00038ce4   Section       32  qgeomapdata.o(t._ZN5QListIPN10QtMobility14QGeoMapOverlayEED1Ev)
    t._ZN5QListIPN10QtMobility16QLandmarkManagerEE13detach_helperEi 0x00038d04   Section       94  qgeosearchmanagerengine.o(t._ZN5QListIPN10QtMobility16QLandmarkManagerEE13detach_helperEi)
    t._ZN5QListIPN10QtMobility16QLandmarkManagerEE13detach_helperEi.clean 0x00038d62   Section        8  qgeosearchmanagerengine.o(t._ZN5QListIPN10QtMobility16QLandmarkManagerEE13detach_helperEi.clean)
    t._ZN5QListIPN10QtMobility16QLandmarkManagerEE13detach_helperEv 0x00038d6a   Section       16  qgeosearchmanagerengine.o(t._ZN5QListIPN10QtMobility16QLandmarkManagerEE13detach_helperEv)
    t._ZN5QListIPN10QtMobility16QLandmarkManagerEE18detach_helper_growEii 0x00038d7a   Section      204  qgeosearchmanagerengine.o(t._ZN5QListIPN10QtMobility16QLandmarkManagerEE18detach_helper_growEii)
    t._ZN5QListIPN10QtMobility16QLandmarkManagerEE18detach_helper_growEii.clean 0x00038e46   Section       16  qgeosearchmanagerengine.o(t._ZN5QListIPN10QtMobility16QLandmarkManagerEE18detach_helper_growEii.clean)
    t._ZN5QListIPN10QtMobility16QLandmarkManagerEE4freeEPN9QListData4DataE 0x00038e56   Section       52  qgeosearchmanager.o(t._ZN5QListIPN10QtMobility16QLandmarkManagerEE4freeEPN9QListData4DataE)
    t._ZN5QListIPN10QtMobility16QLandmarkManagerEE6appendERKS2_ 0x00038e8c   Section      104  qgeosearchmanagerengine.o(t._ZN5QListIPN10QtMobility16QLandmarkManagerEE6appendERKS2_)
    t._ZN5QListIPN10QtMobility16QLandmarkManagerEE6appendERKS2_.clean 0x00038ef4   Section       10  qgeosearchmanagerengine.o(t._ZN5QListIPN10QtMobility16QLandmarkManagerEE6appendERKS2_.clean)
    t._ZN5QListIPN10QtMobility16QLandmarkManagerEE9node_copyEPNS3_4NodeES5_S5_ 0x00038efe   Section       46  qgeosearchmanagerengine.o(t._ZN5QListIPN10QtMobility16QLandmarkManagerEE9node_copyEPNS3_4NodeES5_S5_)
    t._ZN5QListIPN10QtMobility16QLandmarkManagerEED1Ev 0x00038f2c   Section       32  qgeosearchmanager.o(t._ZN5QListIPN10QtMobility16QLandmarkManagerEED1Ev)
    t._ZN5QListIPN10QtMobility21QLandmarkFetchRequestEE13detach_helperEi 0x00038f4c   Section       94  qgeosearchmanager.o(t._ZN5QListIPN10QtMobility21QLandmarkFetchRequestEE13detach_helperEi)
    t._ZN5QListIPN10QtMobility21QLandmarkFetchRequestEE13detach_helperEi.clean 0x00038faa   Section        8  qgeosearchmanager.o(t._ZN5QListIPN10QtMobility21QLandmarkFetchRequestEE13detach_helperEi.clean)
    t._ZN5QListIPN10QtMobility21QLandmarkFetchRequestEE13detach_helperEv 0x00038fb2   Section       16  qgeosearchmanager.o(t._ZN5QListIPN10QtMobility21QLandmarkFetchRequestEE13detach_helperEv)
    t._ZN5QListIPN10QtMobility21QLandmarkFetchRequestEE18detach_helper_growEii 0x00038fc2   Section      204  qgeosearchmanager.o(t._ZN5QListIPN10QtMobility21QLandmarkFetchRequestEE18detach_helper_growEii)
    t._ZN5QListIPN10QtMobility21QLandmarkFetchRequestEE18detach_helper_growEii.clean 0x0003908e   Section       16  qgeosearchmanager.o(t._ZN5QListIPN10QtMobility21QLandmarkFetchRequestEE18detach_helper_growEii.clean)
    t._ZN5QListIPN10QtMobility21QLandmarkFetchRequestEE4freeEPN9QListData4DataE 0x0003909e   Section       52  qgeosearchmanager.o(t._ZN5QListIPN10QtMobility21QLandmarkFetchRequestEE4freeEPN9QListData4DataE)
    t._ZN5QListIPN10QtMobility21QLandmarkFetchRequestEE5clearEv 0x000390d2   Section       76  qgeosearchmanager.o(t._ZN5QListIPN10QtMobility21QLandmarkFetchRequestEE5clearEv)
    t._ZN5QListIPN10QtMobility21QLandmarkFetchRequestEE5clearEv.clean 0x0003911e   Section       10  qgeosearchmanager.o(t._ZN5QListIPN10QtMobility21QLandmarkFetchRequestEE5clearEv.clean)
    t._ZN5QListIPN10QtMobility21QLandmarkFetchRequestEE6appendERKS2_ 0x00039128   Section      100  qgeosearchmanager.o(t._ZN5QListIPN10QtMobility21QLandmarkFetchRequestEE6appendERKS2_)
    t._ZN5QListIPN10QtMobility21QLandmarkFetchRequestEE6appendERKS2_.clean 0x0003918c   Section       10  qgeosearchmanager.o(t._ZN5QListIPN10QtMobility21QLandmarkFetchRequestEE6appendERKS2_.clean)
    t._ZN5QListIPN10QtMobility21QLandmarkFetchRequestEE9node_copyEPNS3_4NodeES5_S5_ 0x00039196   Section       46  qgeosearchmanager.o(t._ZN5QListIPN10QtMobility21QLandmarkFetchRequestEE9node_copyEPNS3_4NodeES5_S5_)
    t._ZN5QListIPN10QtMobility21QLandmarkFetchRequestEE9removeAllERKS2_ 0x000391c4   Section      108  qgeosearchmanager.o(t._ZN5QListIPN10QtMobility21QLandmarkFetchRequestEE9removeAllERKS2_)
    t._ZN5QListIPN10QtMobility21QLandmarkFetchRequestEEC1ERKS3_ 0x00039230   Section       36  qgeosearchmanager.o(t._ZN5QListIPN10QtMobility21QLandmarkFetchRequestEEC1ERKS3_)
    t._ZN5QListIPN10QtMobility21QLandmarkFetchRequestEEC1Ev 0x00039254   Section       24  qgeosearchmanager.o(t._ZN5QListIPN10QtMobility21QLandmarkFetchRequestEEC1Ev)
    t._ZN5QListIPN10QtMobility21QLandmarkFetchRequestEED1Ev 0x0003926c   Section       32  qgeosearchmanager.o(t._ZN5QListIPN10QtMobility21QLandmarkFetchRequestEED1Ev)
    t._ZN5QListIPN10QtMobility26QGeoServiceProviderFactoryEE13detach_helperEi 0x0003928c   Section       94  qgeoserviceprovider.o(t._ZN5QListIPN10QtMobility26QGeoServiceProviderFactoryEE13detach_helperEi)
    t._ZN5QListIPN10QtMobility26QGeoServiceProviderFactoryEE13detach_helperEi.clean 0x000392ea   Section        8  qgeoserviceprovider.o(t._ZN5QListIPN10QtMobility26QGeoServiceProviderFactoryEE13detach_helperEi.clean)
    t._ZN5QListIPN10QtMobility26QGeoServiceProviderFactoryEE13detach_helperEv 0x000392f2   Section       16  qgeoserviceprovider.o(t._ZN5QListIPN10QtMobility26QGeoServiceProviderFactoryEE13detach_helperEv)
    t._ZN5QListIPN10QtMobility26QGeoServiceProviderFactoryEE18detach_helper_growEii 0x00039302   Section      204  qgeoserviceprovider.o(t._ZN5QListIPN10QtMobility26QGeoServiceProviderFactoryEE18detach_helper_growEii)
    t._ZN5QListIPN10QtMobility26QGeoServiceProviderFactoryEE18detach_helper_growEii.clean 0x000393ce   Section       16  qgeoserviceprovider.o(t._ZN5QListIPN10QtMobility26QGeoServiceProviderFactoryEE18detach_helper_growEii.clean)
    t._ZN5QListIPN10QtMobility26QGeoServiceProviderFactoryEE4freeEPN9QListData4DataE 0x000393de   Section       58  qgeoserviceprovider.o(t._ZN5QListIPN10QtMobility26QGeoServiceProviderFactoryEE4freeEPN9QListData4DataE)
    t._ZN5QListIPN10QtMobility26QGeoServiceProviderFactoryEE6appendERKS2_ 0x00039418   Section      100  qgeoserviceprovider.o(t._ZN5QListIPN10QtMobility26QGeoServiceProviderFactoryEE6appendERKS2_)
    t._ZN5QListIPN10QtMobility26QGeoServiceProviderFactoryEE6appendERKS2_.clean 0x0003947c   Section       10  qgeoserviceprovider.o(t._ZN5QListIPN10QtMobility26QGeoServiceProviderFactoryEE6appendERKS2_.clean)
    t._ZN5QListIPN10QtMobility26QGeoServiceProviderFactoryEE9node_copyEPNS3_4NodeES5_S5_ 0x00039486   Section       46  qgeoserviceprovider.o(t._ZN5QListIPN10QtMobility26QGeoServiceProviderFactoryEE9node_copyEPNS3_4NodeES5_S5_)
    t._ZN5QListIPN10QtMobility26QGeoServiceProviderFactoryEED1Ev 0x000394b4   Section       32  qgeoserviceprovider.o(t._ZN5QListIPN10QtMobility26QGeoServiceProviderFactoryEED1Ev)
    t._ZN5QListIPN10QtMobility29QLandmarkManagerEngineFactoryEE13detach_helperEi 0x000394d4   Section       94  qlandmarkmanager_p.o(t._ZN5QListIPN10QtMobility29QLandmarkManagerEngineFactoryEE13detach_helperEi)
    t._ZN5QListIPN10QtMobility29QLandmarkManagerEngineFactoryEE13detach_helperEi.clean 0x00039532   Section        8  qlandmarkmanager_p.o(t._ZN5QListIPN10QtMobility29QLandmarkManagerEngineFactoryEE13detach_helperEi.clean)
    t._ZN5QListIPN10QtMobility29QLandmarkManagerEngineFactoryEE13detach_helperEv 0x0003953a   Section       16  qlandmarkmanager_p.o(t._ZN5QListIPN10QtMobility29QLandmarkManagerEngineFactoryEE13detach_helperEv)
    t._ZN5QListIPN10QtMobility29QLandmarkManagerEngineFactoryEE18detach_helper_growEii 0x0003954a   Section      204  qlandmarkmanager_p.o(t._ZN5QListIPN10QtMobility29QLandmarkManagerEngineFactoryEE18detach_helper_growEii)
    t._ZN5QListIPN10QtMobility29QLandmarkManagerEngineFactoryEE18detach_helper_growEii.clean 0x00039616   Section       16  qlandmarkmanager_p.o(t._ZN5QListIPN10QtMobility29QLandmarkManagerEngineFactoryEE18detach_helper_growEii.clean)
    t._ZN5QListIPN10QtMobility29QLandmarkManagerEngineFactoryEE4freeEPN9QListData4DataE 0x00039626   Section       52  qlandmarkmanager_p.o(t._ZN5QListIPN10QtMobility29QLandmarkManagerEngineFactoryEE4freeEPN9QListData4DataE)
    t._ZN5QListIPN10QtMobility29QLandmarkManagerEngineFactoryEE6appendERKS2_ 0x0003965c   Section      100  qlandmarkmanager_p.o(t._ZN5QListIPN10QtMobility29QLandmarkManagerEngineFactoryEE6appendERKS2_)
    t._ZN5QListIPN10QtMobility29QLandmarkManagerEngineFactoryEE6appendERKS2_.clean 0x000396c0   Section       10  qlandmarkmanager_p.o(t._ZN5QListIPN10QtMobility29QLandmarkManagerEngineFactoryEE6appendERKS2_.clean)
    t._ZN5QListIPN10QtMobility29QLandmarkManagerEngineFactoryEE9node_copyEPNS3_4NodeES5_S5_ 0x000396ca   Section       46  qlandmarkmanager_p.o(t._ZN5QListIPN10QtMobility29QLandmarkManagerEngineFactoryEE9node_copyEPNS3_4NodeES5_S5_)
    t._ZN5QListIPN10QtMobility29QLandmarkManagerEngineFactoryEED1Ev 0x000396f8   Section       32  qlandmarkmanager_p.o(t._ZN5QListIPN10QtMobility29QLandmarkManagerEngineFactoryEED1Ev)
    t._ZN5QListIiE13detach_helperEi          0x00039718   Section       94  qgeopositioninfo.o(t._ZN5QListIiE13detach_helperEi)
    t._ZN5QListIiE13detach_helperEi.clean    0x00039776   Section        8  qgeopositioninfo.o(t._ZN5QListIiE13detach_helperEi.clean)
    t._ZN5QListIiE13detach_helperEv          0x0003977e   Section       16  qgeopositioninfo.o(t._ZN5QListIiE13detach_helperEv)
    t._ZN5QListIiE18detach_helper_growEii    0x0003978e   Section      204  qgeopositioninfo.o(t._ZN5QListIiE18detach_helper_growEii)
    t._ZN5QListIiE18detach_helper_growEii.clean 0x0003985a   Section       16  qgeopositioninfo.o(t._ZN5QListIiE18detach_helper_growEii.clean)
    t._ZN5QListIiE4freeEPN9QListData4DataE   0x0003986a   Section       52  qlandmarkmanager_p.o(t._ZN5QListIiE4freeEPN9QListData4DataE)
    t._ZN5QListIiE6appendERKi                0x000398a0   Section      100  qgeopositioninfo.o(t._ZN5QListIiE6appendERKi)
    t._ZN5QListIiE6appendERKi.clean          0x00039904   Section       10  qgeopositioninfo.o(t._ZN5QListIiE6appendERKi.clean)
    t._ZN5QListIiE7reserveEi                 0x0003990e   Section       46  qgeopositioninfo.o(t._ZN5QListIiE7reserveEi)
    t._ZN5QListIiE9node_copyEPNS0_4NodeES2_S2_ 0x0003993c   Section       46  qgeopositioninfo.o(t._ZN5QListIiE9node_copyEPNS0_4NodeES2_S2_)
    t._ZN5QListIiED1Ev                       0x0003996a   Section       32  qgeopositioninfo.o(t._ZN5QListIiED1Ev)
    t._ZN5QListIiEixEi                       0x0003998a   Section       52  qgeopositioninfo.o(t._ZN5QListIiEixEi)
    t._ZN5QPairI5QRectS0_EC1ERKS0_S3_        0x000399be   Section       36  qgeotiledmapdata.o(t._ZN5QPairI5QRectS0_EC1ERKS0_S3_)
    t._ZN6QCacheIN10QtMobility19QGeoTiledMapRequestE6QImageE4trimEi 0x000399e2   Section       50  qgeotiledmapdata.o(t._ZN6QCacheIN10QtMobility19QGeoTiledMapRequestE6QImageE4trimEi)
    t._ZN6QCacheIN10QtMobility19QGeoTiledMapRequestE6QImageE5clearEv 0x00039a14   Section      128  qgeotiledmapdata.o(t._ZN6QCacheIN10QtMobility19QGeoTiledMapRequestE6QImageE5clearEv)
    t._ZN6QCacheIN10QtMobility19QGeoTiledMapRequestE6QImageE5clearEv.clean 0x00039a94   Section       10  qgeotiledmapdata.o(t._ZN6QCacheIN10QtMobility19QGeoTiledMapRequestE6QImageE5clearEv.clean)
    t._ZN6QCacheIN10QtMobility19QGeoTiledMapRequestE6QImageE6insertERKS1_PS2_i 0x00039a9e   Section      158  qgeotiledmapdata.o(t._ZN6QCacheIN10QtMobility19QGeoTiledMapRequestE6QImageE6insertERKS1_PS2_i)
    t._ZN6QCacheIN10QtMobility19QGeoTiledMapRequestE6QImageE6removeERKS1_ 0x00039b3c   Section       76  qgeotiledmapdata.o(t._ZN6QCacheIN10QtMobility19QGeoTiledMapRequestE6QImageE6removeERKS1_)
    t._ZN6QCacheIN10QtMobility19QGeoTiledMapRequestE6QImageE6unlinkERNS3_4NodeE 0x00039b88   Section       84  qgeotiledmapdata.o(t._ZN6QCacheIN10QtMobility19QGeoTiledMapRequestE6QImageE6unlinkERNS3_4NodeE)
    t._ZN6QCacheIN10QtMobility19QGeoTiledMapRequestE6QImageED1Ev 0x00039bdc   Section       26  qgeotiledmapdata.o(t._ZN6QCacheIN10QtMobility19QGeoTiledMapRequestE6QImageED1Ev)
    t._ZN6QCacheIN10QtMobility19QGeoTiledMapRequestE6QImageED1Ev.clean 0x00039bf6   Section       12  qgeotiledmapdata.o(t._ZN6QCacheIN10QtMobility19QGeoTiledMapRequestE6QImageED1Ev.clean)
    t._ZN6QCacheIN10QtMobility19QGeoTiledMapRequestE7QPixmapE4trimEi 0x00039c02   Section       50  qgeotiledmapdata.o(t._ZN6QCacheIN10QtMobility19QGeoTiledMapRequestE7QPixmapE4trimEi)
    t._ZN6QCacheIN10QtMobility19QGeoTiledMapRequestE7QPixmapE5clearEv 0x00039c34   Section      128  qgeotiledmapdata.o(t._ZN6QCacheIN10QtMobility19QGeoTiledMapRequestE7QPixmapE5clearEv)
    t._ZN6QCacheIN10QtMobility19QGeoTiledMapRequestE7QPixmapE5clearEv.clean 0x00039cb4   Section       10  qgeotiledmapdata.o(t._ZN6QCacheIN10QtMobility19QGeoTiledMapRequestE7QPixmapE5clearEv.clean)
    t._ZN6QCacheIN10QtMobility19QGeoTiledMapRequestE7QPixmapE6insertERKS1_PS2_i 0x00039cbe   Section      158  qgeotiledmapdata.o(t._ZN6QCacheIN10QtMobility19QGeoTiledMapRequestE7QPixmapE6insertERKS1_PS2_i)
    t._ZN6QCacheIN10QtMobility19QGeoTiledMapRequestE7QPixmapE6removeERKS1_ 0x00039d5c   Section       76  qgeotiledmapdata.o(t._ZN6QCacheIN10QtMobility19QGeoTiledMapRequestE7QPixmapE6removeERKS1_)
    t._ZN6QCacheIN10QtMobility19QGeoTiledMapRequestE7QPixmapE6unlinkERNS3_4NodeE 0x00039da8   Section       84  qgeotiledmapdata.o(t._ZN6QCacheIN10QtMobility19QGeoTiledMapRequestE7QPixmapE6unlinkERNS3_4NodeE)
    t._ZN6QCacheIN10QtMobility19QGeoTiledMapRequestE7QPixmapED1Ev 0x00039dfc   Section       26  qgeotiledmapdata.o(t._ZN6QCacheIN10QtMobility19QGeoTiledMapRequestE7QPixmapED1Ev)
    t._ZN6QCacheIN10QtMobility19QGeoTiledMapRequestE7QPixmapED1Ev.clean 0x00039e16   Section       12  qgeotiledmapdata.o(t._ZN6QCacheIN10QtMobility19QGeoTiledMapRequestE7QPixmapED1Ev.clean)
    t._ZN6QQueueIN10QtMobility23QPendingGeoPositionInfoEED1Ev 0x00039e22   Section       14  qnmeapositioninfosource.o(t._ZN6QQueueIN10QtMobility23QPendingGeoPositionInfoEED1Ev)
    t._ZN7QVectorI7QPointFE13detach_helperEv 0x00039e30   Section       18  qgeotiledmapcircleobjectinfo_p.o(t._ZN7QVectorI7QPointFE13detach_helperEv)
    t._ZN7QVectorI7QPointFE4freeEP16QVectorTypedDataIS0_E 0x00039e42   Section       48  qgeotiledmapcircleobjectinfo_p.o(t._ZN7QVectorI7QPointFE4freeEP16QVectorTypedDataIS0_E)
    t._ZN7QVectorI7QPointFE6appendERKS0_     0x00039e72   Section      170  qgeotiledmapobjectinfo_p.o(t._ZN7QVectorI7QPointFE6appendERKS0_)
    t._ZN7QVectorI7QPointFE6appendERKS0_.clean 0x00039f1c   Section        4  qgeotiledmapobjectinfo_p.o(t._ZN7QVectorI7QPointFE6appendERKS0_.clean)
    t._ZN7QVectorI7QPointFE6mallocEi         0x00039f20   Section       52  qgeotiledmapcircleobjectinfo_p.o(t._ZN7QVectorI7QPointFE6mallocEi)
    t._ZN7QVectorI7QPointFE7reallocEii       0x00039f54   Section      584  qgeotiledmapcircleobjectinfo_p.o(t._ZN7QVectorI7QPointFE7reallocEii)
    t._ZN7QVectorI7QPointFE7reallocEii.clean 0x0003a19c   Section        8  qgeotiledmapcircleobjectinfo_p.o(t._ZN7QVectorI7QPointFE7reallocEii.clean)
    t._ZN7QVectorI7QPointFED1Ev              0x0003a1a4   Section       34  qgeotiledmapcircleobjectinfo_p.o(t._ZN7QVectorI7QPointFED1Ev)
    t._ZN7QVectorI7QPointFEaSERKS1_          0x0003a1c6   Section       54  qgeotiledmapcircleobjectinfo_p.o(t._ZN7QVectorI7QPointFEaSERKS1_)
    t._ZN8QPointerI9QIODeviceED1Ev           0x0003a1fc   Section       14  qnmeapositioninfosource.o(t._ZN8QPointerI9QIODeviceED1Ev)
    t._ZN8QPointerI9QIODeviceEaSEPS0_        0x0003a20a   Section       24  qnmeapositioninfosource.o(t._ZN8QPointerI9QIODeviceEaSEPS0_)
    t._ZN8QPointerIN10QtMobility16QLandmarkManagerEED1Ev 0x0003a222   Section       14  qlandmarkabstractrequest.o(t._ZN8QPointerIN10QtMobility16QLandmarkManagerEED1Ev)
    t._ZN9QHashNodeI7QString6QFlagsIN10QtMobility15QLandmarkFilter9MatchFlagEEEC1ERKS0_RKS5_ 0x0003a230   Section       38  qlandmarkattributefilter.o(t._ZN9QHashNodeI7QString6QFlagsIN10QtMobility15QLandmarkFilter9MatchFlagEEEC1ERKS0_RKS5_)
    t._ZN9QHashNodeI7QString6QFlagsIN10QtMobility15QLandmarkFilter9MatchFlagEEEC1ERKS0_RKS5_.clean 0x0003a256   Section        4  qlandmarkattributefilter.o(t._ZN9QHashNodeI7QString6QFlagsIN10QtMobility15QLandmarkFilter9MatchFlagEEEC1ERKS0_RKS5_.clean)
    t._ZN9QHashNodeI7QString8QVariantEC1ERKS0_RKS1_ 0x0003a25a   Section       40  qlandmarkattributefilter.o(t._ZN9QHashNodeI7QString8QVariantEC1ERKS0_RKS1_)
    t._ZN9QHashNodeI7QString8QVariantEC1ERKS0_RKS1_.clean 0x0003a282   Section       12  qlandmarkattributefilter.o(t._ZN9QHashNodeI7QString8QVariantEC1ERKS0_RKS1_.clean)
    t._ZN9QHashNodeI7QStringPN10QtMobility26QGeoServiceProviderFactoryEEC1ERKS0_RKS3_ 0x0003a28e   Section       30  qgeoserviceprovider.o(t._ZN9QHashNodeI7QStringPN10QtMobility26QGeoServiceProviderFactoryEEC1ERKS0_RKS3_)
    t._ZN9QHashNodeI7QStringPN10QtMobility29QLandmarkManagerEngineFactoryEEC1ERKS0_RKS3_ 0x0003a2ac   Section       30  qlandmarkmanager_p.o(t._ZN9QHashNodeI7QStringPN10QtMobility29QLandmarkManagerEngineFactoryEEC1ERKS0_RKS3_)
    t._ZN9QHashNodeIN10QtMobility19QGeoTiledMapRequestEN6QCacheIS1_6QImageE4NodeEEC1ERKS1_RKS5_ 0x0003a2ca   Section       46  qgeotiledmapdata.o(t._ZN9QHashNodeIN10QtMobility19QGeoTiledMapRequestEN6QCacheIS1_6QImageE4NodeEEC1ERKS1_RKS5_)
    t._ZN9QHashNodeIN10QtMobility19QGeoTiledMapRequestEN6QCacheIS1_6QImageE4NodeEEC1ERKS1_RKS5_.clean 0x0003a2f8   Section        4  qgeotiledmapdata.o(t._ZN9QHashNodeIN10QtMobility19QGeoTiledMapRequestEN6QCacheIS1_6QImageE4NodeEEC1ERKS1_RKS5_.clean)
    t._ZN9QHashNodeIN10QtMobility19QGeoTiledMapRequestEN6QCacheIS1_7QPixmapE4NodeEEC1ERKS1_RKS5_ 0x0003a2fc   Section       46  qgeotiledmapdata.o(t._ZN9QHashNodeIN10QtMobility19QGeoTiledMapRequestEN6QCacheIS1_7QPixmapE4NodeEEC1ERKS1_RKS5_)
    t._ZN9QHashNodeIN10QtMobility19QGeoTiledMapRequestEN6QCacheIS1_7QPixmapE4NodeEEC1ERKS1_RKS5_.clean 0x0003a32a   Section        4  qgeotiledmapdata.o(t._ZN9QHashNodeIN10QtMobility19QGeoTiledMapRequestEN6QCacheIS1_7QPixmapE4NodeEEC1ERKS1_RKS5_.clean)
    t._ZNK12QWeakPointerIN10QtMobility23QLandmarkIdFetchRequestEE4dataEv 0x0003a32e   Section       34  qlandmarkmanagerengine.o(t._ZNK12QWeakPointerIN10QtMobility23QLandmarkIdFetchRequestEE4dataEv)
    t._ZNK17QForeachContainerI11QStringListE9conditionEv 0x0003a350   Section       40  qlandmarkmanagerengine.o(t._ZNK17QForeachContainerI11QStringListE9conditionEv)
    t._ZNK17QForeachContainerI5QListIN10QtMobility9QLandmarkEEE9conditionEv 0x0003a378   Section       40  qlandmarkmanagerengine.o(t._ZNK17QForeachContainerI5QListIN10QtMobility9QLandmarkEEE9conditionEv)
    t._ZNK20QMutableListIteratorIN10QtMobility19QGeoTiledMapRequestEE7hasNextEv 0x0003a3a0   Section       44  qgeotiledmapdata.o(t._ZNK20QMutableListIteratorIN10QtMobility19QGeoTiledMapRequestEE7hasNextEv)
    t._ZNK4QMapI7QStringS0_E15mutableFindNodeEPPN8QMapData4NodeERKS0_ 0x0003a3cc   Section      108  qlandmarkmanager.o(t._ZNK4QMapI7QStringS0_E15mutableFindNodeEPPN8QMapData4NodeERKS0_)
    t._ZNK4QMapI7QStringS0_E4keysEv          0x0003a438   Section      104  qlandmarkmanager.o(t._ZNK4QMapI7QStringS0_E4keysEv)
    t._ZNK4QMapI7QStringS0_E4keysEv.clean    0x0003a4a0   Section       10  qlandmarkmanager.o(t._ZNK4QMapI7QStringS0_E4keysEv.clean)
    t._ZNK4QMapIN10QtMobility16QGeoRouteRequest11FeatureTypeENS1_13FeatureWeightEE14const_iteratorneERKS5_ 0x0003a4aa   Section       18  qgeorouterequest.o(t._ZNK4QMapIN10QtMobility16QGeoRouteRequest11FeatureTypeENS1_13FeatureWeightEE14const_iteratorneERKS5_)
    t._ZNK4QMapIN10QtMobility16QGeoRouteRequest11FeatureTypeENS1_13FeatureWeightEE15mutableFindNodeEPPN8QMapData4NodeERKS2_ 0x0003a4bc   Section      108  qgeorouterequest.o(t._ZNK4QMapIN10QtMobility16QGeoRouteRequest11FeatureTypeENS1_13FeatureWeightEE15mutableFindNodeEPPN8QMapData4NodeERKS2_)
    t._ZNK4QMapIN10QtMobility16QGeoRouteRequest11FeatureTypeENS1_13FeatureWeightEE4keysEv 0x0003a528   Section      108  qgeorouterequest.o(t._ZNK4QMapIN10QtMobility16QGeoRouteRequest11FeatureTypeENS1_13FeatureWeightEE4keysEv)
    t._ZNK4QMapIN10QtMobility16QGeoRouteRequest11FeatureTypeENS1_13FeatureWeightEE4keysEv.clean 0x0003a594   Section       10  qgeorouterequest.o(t._ZNK4QMapIN10QtMobility16QGeoRouteRequest11FeatureTypeENS1_13FeatureWeightEE4keysEv.clean)
    t._ZNK4QMapIN10QtMobility16QGeoRouteRequest11FeatureTypeENS1_13FeatureWeightEEeqERKS4_ 0x0003a59e   Section      220  qgeorouterequest.o(t._ZNK4QMapIN10QtMobility16QGeoRouteRequest11FeatureTypeENS1_13FeatureWeightEEeqERKS4_)
    t._ZNK4QSetI5QRectE8containsERKS0_       0x0003a67a   Section       34  qgeotiledmapdata.o(t._ZNK4QSetI5QRectE8containsERKS0_)
    t._ZNK4QSetI7QStringE8containsERKS0_     0x0003a69c   Section       34  qlandmarkmanager_p.o(t._ZNK4QSetI7QStringE8containsERKS0_)
    t._ZNK4QSetIPN10QtMobility17QGeoTiledMapReplyEE14const_iteratorneERKS4_ 0x0003a6be   Section       20  qgeotiledmapdata.o(t._ZNK4QSetIPN10QtMobility17QGeoTiledMapReplyEE14const_iteratorneERKS4_)
    t._ZNK5QHashI5QRect15QHashDummyValueE8findNodeERKS0_Pj 0x0003a6d2   Section      124  qgeotiledmapdata.o(t._ZNK5QHashI5QRect15QHashDummyValueE8findNodeERKS0_Pj)
    t._ZNK5QHashI7QString15QHashDummyValueE8findNodeERKS0_Pj 0x0003a74e   Section      116  qlandmarkmanager_p.o(t._ZNK5QHashI7QString15QHashDummyValueE8findNodeERKS0_Pj)
    t._ZNK5QHashI7QString6QFlagsIN10QtMobility15QLandmarkFilter9MatchFlagEEE14const_iteratorneERKS7_ 0x0003a7c2   Section       18  qlandmarkattributefilter.o(t._ZNK5QHashI7QString6QFlagsIN10QtMobility15QLandmarkFilter9MatchFlagEEE14const_iteratorneERKS7_)
    t._ZNK5QHashI7QString6QFlagsIN10QtMobility15QLandmarkFilter9MatchFlagEEE8findNodeERKS0_Pj 0x0003a7d4   Section      116  qlandmarkattributefilter.o(t._ZNK5QHashI7QString6QFlagsIN10QtMobility15QLandmarkFilter9MatchFlagEEE8findNodeERKS0_Pj)
    t._ZNK5QHashI7QString6QFlagsIN10QtMobility15QLandmarkFilter9MatchFlagEEEeqERKS6_ 0x0003a848   Section      272  qlandmarkattributefilter.o(t._ZNK5QHashI7QString6QFlagsIN10QtMobility15QLandmarkFilter9MatchFlagEEEeqERKS6_)
    t._ZNK5QHashI7QString8QVariantE14const_iteratorneERKS3_ 0x0003a958   Section       18  qlandmarkattributefilter.o(t._ZNK5QHashI7QString8QVariantE14const_iteratorneERKS3_)
    t._ZNK5QHashI7QString8QVariantE4keysEv   0x0003a96c   Section      112  qlandmarkattributefilter.o(t._ZNK5QHashI7QString8QVariantE4keysEv)
    t._ZNK5QHashI7QString8QVariantE4keysEv.clean 0x0003a9dc   Section       10  qlandmarkattributefilter.o(t._ZNK5QHashI7QString8QVariantE4keysEv.clean)
    t._ZNK5QHashI7QString8QVariantE8findNodeERKS0_Pj 0x0003a9e6   Section      116  qlandmarkattributefilter.o(t._ZNK5QHashI7QString8QVariantE8findNodeERKS0_Pj)
    t._ZNK5QHashI7QString8QVariantEeqERKS2_  0x0003aa5a   Section      268  qlandmarkattributefilter.o(t._ZNK5QHashI7QString8QVariantEeqERKS2_)
    t._ZNK5QHashI7QStringPN10QtMobility26QGeoServiceProviderFactoryEE4keysEv 0x0003ab66   Section      142  qgeoserviceprovider.o(t._ZNK5QHashI7QStringPN10QtMobility26QGeoServiceProviderFactoryEE4keysEv)
    t._ZNK5QHashI7QStringPN10QtMobility26QGeoServiceProviderFactoryEE4keysEv.clean 0x0003abf4   Section       10  qgeoserviceprovider.o(t._ZNK5QHashI7QStringPN10QtMobility26QGeoServiceProviderFactoryEE4keysEv.clean)
    t._ZNK5QHashI7QStringPN10QtMobility26QGeoServiceProviderFactoryEE6valuesERKS0_ 0x0003ac00   Section       84  qgeoserviceprovider.o(t._ZNK5QHashI7QStringPN10QtMobility26QGeoServiceProviderFactoryEE6valuesERKS0_)
    t._ZNK5QHashI7QStringPN10QtMobility26QGeoServiceProviderFactoryEE6valuesERKS0_.clean 0x0003ac54   Section       10  qgeoserviceprovider.o(t._ZNK5QHashI7QStringPN10QtMobility26QGeoServiceProviderFactoryEE6valuesERKS0_.clean)
    t._ZNK5QHashI7QStringPN10QtMobility26QGeoServiceProviderFactoryEE8findNodeERKS0_Pj 0x0003ac5e   Section      116  qgeoserviceprovider.o(t._ZNK5QHashI7QStringPN10QtMobility26QGeoServiceProviderFactoryEE8findNodeERKS0_Pj)
    t._ZNK5QHashI7QStringPN10QtMobility29QLandmarkManagerEngineFactoryEE4keysEv 0x0003acd2   Section      142  qlandmarkmanager.o(t._ZNK5QHashI7QStringPN10QtMobility29QLandmarkManagerEngineFactoryEE4keysEv)
    t._ZNK5QHashI7QStringPN10QtMobility29QLandmarkManagerEngineFactoryEE4keysEv.clean 0x0003ad60   Section       10  qlandmarkmanager.o(t._ZNK5QHashI7QStringPN10QtMobility29QLandmarkManagerEngineFactoryEE4keysEv.clean)
    t._ZNK5QHashI7QStringPN10QtMobility29QLandmarkManagerEngineFactoryEE6valuesERKS0_ 0x0003ad6c   Section       84  qlandmarkmanager_p.o(t._ZNK5QHashI7QStringPN10QtMobility29QLandmarkManagerEngineFactoryEE6valuesERKS0_)
    t._ZNK5QHashI7QStringPN10QtMobility29QLandmarkManagerEngineFactoryEE6valuesERKS0_.clean 0x0003adc0   Section       10  qlandmarkmanager_p.o(t._ZNK5QHashI7QStringPN10QtMobility29QLandmarkManagerEngineFactoryEE6valuesERKS0_.clean)
    t._ZNK5QHashI7QStringPN10QtMobility29QLandmarkManagerEngineFactoryEE8findNodeERKS0_Pj 0x0003adca   Section      116  qlandmarkmanager_p.o(t._ZNK5QHashI7QStringPN10QtMobility29QLandmarkManagerEngineFactoryEE8findNodeERKS0_Pj)
    t._ZNK5QHashIN10QtMobility19QGeoTiledMapRequestEN6QCacheIS1_6QImageE4NodeEE14const_iteratoreqERKS7_ 0x0003ae3e   Section       18  qgeotiledmapdata.o(t._ZNK5QHashIN10QtMobility19QGeoTiledMapRequestEN6QCacheIS1_6QImageE4NodeEE14const_iteratoreqERKS7_)
    t._ZNK5QHashIN10QtMobility19QGeoTiledMapRequestEN6QCacheIS1_6QImageE4NodeEE4keysEv 0x0003ae50   Section      108  qgeotiledmapdata.o(t._ZNK5QHashIN10QtMobility19QGeoTiledMapRequestEN6QCacheIS1_6QImageE4NodeEE4keysEv)
    t._ZNK5QHashIN10QtMobility19QGeoTiledMapRequestEN6QCacheIS1_6QImageE4NodeEE4keysEv.clean 0x0003aebc   Section       10  qgeotiledmapdata.o(t._ZNK5QHashIN10QtMobility19QGeoTiledMapRequestEN6QCacheIS1_6QImageE4NodeEE4keysEv.clean)
    t._ZNK5QHashIN10QtMobility19QGeoTiledMapRequestEN6QCacheIS1_6QImageE4NodeEE8findNodeERKS1_Pj 0x0003aec6   Section      116  qgeotiledmapdata.o(t._ZNK5QHashIN10QtMobility19QGeoTiledMapRequestEN6QCacheIS1_6QImageE4NodeEE8findNodeERKS1_Pj)
    t._ZNK5QHashIN10QtMobility19QGeoTiledMapRequestEN6QCacheIS1_7QPixmapE4NodeEE14const_iteratoreqERKS7_ 0x0003af3a   Section       18  qgeotiledmapdata.o(t._ZNK5QHashIN10QtMobility19QGeoTiledMapRequestEN6QCacheIS1_7QPixmapE4NodeEE14const_iteratoreqERKS7_)
    t._ZNK5QHashIN10QtMobility19QGeoTiledMapRequestEN6QCacheIS1_7QPixmapE4NodeEE8findNodeERKS1_Pj 0x0003af4c   Section      116  qgeotiledmapdata.o(t._ZNK5QHashIN10QtMobility19QGeoTiledMapRequestEN6QCacheIS1_7QPixmapE4NodeEE8findNodeERKS1_Pj)
    t._ZNK5QHashIN10QtMobility19QLandmarkCategoryIdE15QHashDummyValueE14const_iteratorneERKS4_ 0x0003afc0   Section       18  qlandmark.o(t._ZNK5QHashIN10QtMobility19QLandmarkCategoryIdE15QHashDummyValueE14const_iteratorneERKS4_)
    t._ZNK5QHashIN10QtMobility19QLandmarkCategoryIdE15QHashDummyValueE8findNodeERKS1_Pj 0x0003afd2   Section      116  qlandmark.o(t._ZNK5QHashIN10QtMobility19QLandmarkCategoryIdE15QHashDummyValueE8findNodeERKS1_Pj)
    t._ZNK5QHashIN10QtMobility19QLandmarkCategoryIdE15QHashDummyValueEeqERKS3_ 0x0003b046   Section      266  qlandmark.o(t._ZNK5QHashIN10QtMobility19QLandmarkCategoryIdE15QHashDummyValueEeqERKS3_)
    t._ZNK5QHashIP13QGraphicsItemPN10QtMobility13QGeoMapObjectEE4keysEv 0x0003b150   Section      120  qgeotiledmapdata.o(t._ZNK5QHashIP13QGraphicsItemPN10QtMobility13QGeoMapObjectEE4keysEv)
    t._ZNK5QHashIP13QGraphicsItemPN10QtMobility13QGeoMapObjectEE4keysEv.clean 0x0003b1c8   Section       10  qgeotiledmapdata.o(t._ZNK5QHashIP13QGraphicsItemPN10QtMobility13QGeoMapObjectEE4keysEv.clean)
    t._ZNK5QHashIP13QGraphicsItemPN10QtMobility13QGeoMapObjectEE5valueERKS1_ 0x0003b1d2   Section       40  qgeotiledmapdata.o(t._ZNK5QHashIP13QGraphicsItemPN10QtMobility13QGeoMapObjectEE5valueERKS1_)
    t._ZNK5QHashIP13QGraphicsItemPN10QtMobility13QGeoMapObjectEE8containsERKS1_ 0x0003b1fa   Section       32  qgeotiledmapdata.o(t._ZNK5QHashIP13QGraphicsItemPN10QtMobility13QGeoMapObjectEE8containsERKS1_)
    t._ZNK5QHashIP13QGraphicsItemPN10QtMobility13QGeoMapObjectEE8findNodeERKS1_Pj 0x0003b21a   Section      104  qgeotiledmapdata.o(t._ZNK5QHashIP13QGraphicsItemPN10QtMobility13QGeoMapObjectEE8findNodeERKS1_Pj)
    t._ZNK5QHashIPN10QtMobility17QGeoTiledMapReplyE15QHashDummyValueE8findNodeERKS2_Pj 0x0003b282   Section      104  qgeotiledmapdata.o(t._ZNK5QHashIPN10QtMobility17QGeoTiledMapReplyE15QHashDummyValueE8findNodeERKS2_Pj)
    t._ZNK5QHashIifE14const_iteratorneERKS1_ 0x0003b2ea   Section       18  qgeopositioninfo.o(t._ZNK5QHashIifE14const_iteratorneERKS1_)
    t._ZNK5QHashIifE4keysEv                  0x0003b2fc   Section      104  qgeopositioninfo.o(t._ZNK5QHashIifE4keysEv)
    t._ZNK5QHashIifE4keysEv.clean            0x0003b364   Section       10  qgeopositioninfo.o(t._ZNK5QHashIifE4keysEv.clean)
    t._ZNK5QHashIifE5beginEv                 0x0003b36e   Section       44  qgeopositioninfo.o(t._ZNK5QHashIifE5beginEv)
    t._ZNK5QHashIifE8containsERKi            0x0003b39a   Section       32  qgeopositioninfo.o(t._ZNK5QHashIifE8containsERKi)
    t._ZNK5QHashIifE8findNodeERKiPj          0x0003b3ba   Section       94  qgeopositioninfo.o(t._ZNK5QHashIifE8findNodeERKiPj)
    t._ZNK5QHashIifEeqERKS0_                 0x0003b418   Section      260  qgeopositioninfo.o(t._ZNK5QHashIifEeqERKS0_)
    t._ZNK5QListI10QByteArrayE5countEv       0x0003b51c   Section       16  qlocationutils.o(t._ZNK5QListI10QByteArrayE5countEv)
    t._ZNK5QListI5QPairI5QRectS1_EE2atEi     0x0003b52c   Section       22  qgeotiledmapdata.o(t._ZNK5QListI5QPairI5QRectS1_EE2atEi)
    t._ZNK5QListI7QPointFE2atEi              0x0003b542   Section       30  qgeotiledmaprouteobjectinfo_p.o(t._ZNK5QListI7QPointFE2atEi)
    t._ZNK5QListI7QPointFE4sizeEv            0x0003b560   Section       16  qgeotiledmaprouteobjectinfo_p.o(t._ZNK5QListI7QPointFE4sizeEv)
    t._ZNK5QListI7QStringE2atEi              0x0003b570   Section       22  qlandmarkmanager_p.o(t._ZNK5QListI7QStringE2atEi)
    t._ZNK5QListI7QStringE5countEv           0x0003b586   Section       16  qlandmarkmanager_p.o(t._ZNK5QListI7QStringE5countEv)
    t._ZNK5QListI7QStringE5valueEi           0x0003b596   Section       58  qlandmarkmanager.o(t._ZNK5QListI7QStringE5valueEi)
    t._ZNK5QListI7QStringE7isEmptyEv         0x0003b5d0   Section       24  qgeoserviceprovider.o(t._ZNK5QListI7QStringE7isEmptyEv)
    t._ZNK5QListI7QStringE8containsERKS0_    0x0003b5e8   Section       74  qgeoserviceprovider.o(t._ZNK5QListI7QStringE8containsERKS0_)
    t._ZNK5QListIN10QtMobility11QLandmarkIdEEeqERKS2_ 0x0003b632   Section      122  qlandmarkidfilter.o(t._ZNK5QListIN10QtMobility11QLandmarkIdEEeqERKS2_)
    t._ZNK5QListIN10QtMobility14QGeoCoordinateEE2atEi 0x0003b6ac   Section       30  qgeotiledmapobjectinfo_p.o(t._ZNK5QListIN10QtMobility14QGeoCoordinateEE2atEi)
    t._ZNK5QListIN10QtMobility14QGeoCoordinateEEeqERKS2_ 0x0003b6ca   Section      110  qgeorouterequest.o(t._ZNK5QListIN10QtMobility14QGeoCoordinateEEeqERKS2_)
    t._ZNK5QListIN10QtMobility15QGeoBoundingBoxEEeqERKS2_ 0x0003b738   Section      110  qgeorouterequest.o(t._ZNK5QListIN10QtMobility15QGeoBoundingBoxEEeqERKS2_)
    t._ZNK5QListIN10QtMobility15QGraphicsGeoMap16ConnectivityModeEE8containsERKS2_ 0x0003b7a6   Section       66  qgraphicsgeomap.o(t._ZNK5QListIN10QtMobility15QGraphicsGeoMap16ConnectivityModeEE8containsERKS2_)
    t._ZNK5QListIN10QtMobility15QGraphicsGeoMap7MapTypeEE8containsERKS2_ 0x0003b7e8   Section       66  qgraphicsgeomap.o(t._ZNK5QListIN10QtMobility15QGraphicsGeoMap7MapTypeEE8containsERKS2_)
    t._ZNK5QListIN10QtMobility15QLandmarkFilterEE5countEv 0x0003b82a   Section       16  qlandmarkmanagerengine.o(t._ZNK5QListIN10QtMobility15QLandmarkFilterEE5countEv)
    t._ZNK5QListIN10QtMobility15QLandmarkFilterEEeqERKS2_ 0x0003b83a   Section      124  qlandmarkintersectionfilter.o(t._ZNK5QListIN10QtMobility15QLandmarkFilterEEeqERKS2_)
    t._ZNK5QListIN10QtMobility17QGeoSatelliteInfoEEeqERKS2_ 0x0003b8b6   Section      124  qgeosatelliteinfosource_s60.o(t._ZNK5QListIN10QtMobility17QGeoSatelliteInfoEEeqERKS2_)
    t._ZNK5QListIN10QtMobility17QGeoSatelliteInfoEEneERKS2_ 0x0003b932   Section       20  qgeosatelliteinfosource_s60.o(t._ZNK5QListIN10QtMobility17QGeoSatelliteInfoEEneERKS2_)
    t._ZNK5QListIN10QtMobility19QGeoTiledMapRequestEE14const_iteratorneERKS3_ 0x0003b946   Section       18  qgeotiledmapdata.o(t._ZNK5QListIN10QtMobility19QGeoTiledMapRequestEE14const_iteratorneERKS3_)
    t._ZNK5QListIN10QtMobility19QGeoTiledMapRequestEE4sizeEv 0x0003b958   Section       16  qgeotiledmapdata.o(t._ZNK5QListIN10QtMobility19QGeoTiledMapRequestEE4sizeEv)
    t._ZNK5QListIN10QtMobility19QLandmarkCategoryIdEE5toSetEv 0x0003b968   Section      188  qlandmark.o(t._ZNK5QListIN10QtMobility19QLandmarkCategoryIdEE5toSetEv)
    t._ZNK5QListIN10QtMobility19QLandmarkCategoryIdEE5toSetEv.clean 0x0003ba24   Section       10  qlandmark.o(t._ZNK5QListIN10QtMobility19QLandmarkCategoryIdEE5toSetEv.clean)
    t._ZNK5QListIN10QtMobility19QLandmarkCategoryIdEE8containsERKS1_ 0x0003ba2e   Section       74  qlandmark.o(t._ZNK5QListIN10QtMobility19QLandmarkCategoryIdEE8containsERKS1_)
    t._ZNK5QListIP13QGraphicsItemE2atEi      0x0003ba78   Section       22  qgeotiledmapdata.o(t._ZNK5QListIP13QGraphicsItemE2atEi)
    t._ZNK5QListIPN10QtMobility13QGeoMapObjectEE4sizeEv 0x0003ba8e   Section       16  qgeomapgroupobject.o(t._ZNK5QListIPN10QtMobility13QGeoMapObjectEE4sizeEv)
    t._ZNK5QListIPN10QtMobility13QGeoMapObjectEE8containsERKS2_ 0x0003ba9e   Section       66  qgeomapgroupobject.o(t._ZNK5QListIPN10QtMobility13QGeoMapObjectEE8containsERKS2_)
    t._ZNK5QListIPN10QtMobility16QLandmarkManagerEE2atEi 0x0003bae0   Section       30  qgeosearchmanagerengine.o(t._ZNK5QListIPN10QtMobility16QLandmarkManagerEE2atEi)
    t._ZNK5QListIiE8containsERKi             0x0003bafe   Section       66  qlandmarkmanager_p.o(t._ZNK5QListIiE8containsERKi)
    t._ZNK6QCacheIN10QtMobility19QGeoTiledMapRequestE6QImageE8containsERKS1_ 0x0003bb40   Section       36  qgeotiledmapdata.o(t._ZNK6QCacheIN10QtMobility19QGeoTiledMapRequestE6QImageE8containsERKS1_)
    t._ZNK6QFlagsIN10QtMobility22QGeoPositionInfoSource17PositioningMethodEE8testFlagES2_ 0x0003bb64   Section       28  qgeopositioninfosource_s60.o(t._ZNK6QFlagsIN10QtMobility22QGeoPositionInfoSource17PositioningMethodEE8testFlagES2_)
    t._ZlsIifER11QDataStreamS1_RK5QHashIT_T0_E 0x0003bb80   Section      106  qgeopositioninfo.o(t._ZlsIifER11QDataStreamS1_RK5QHashIT_T0_E)
    t._ZrsIifER11QDataStreamS1_R5QHashIT_T0_E 0x0003bbea   Section      164  qgeopositioninfo.o(t._ZrsIifER11QDataStreamS1_R5QHashIT_T0_E)
    .extab._ZN10QtMobility15QGeoAreaMonitor11qt_metacallEN11QMetaObject4CallEiPPv 0x0003bc90   Data           0  moc_qgeoareamonitor.o(.ARM.extab)
    .extab._ZN10QtMobility26CQGeoPositionInfoSourceS60D1Ev 0x0003bca0   Data           0  qgeopositioninfosource_s60.o(.ARM.extab)
    .extab._ZN10QtMobility26CQGeoPositionInfoSourceS60C1EP7QObject 0x0003bcd0   Data           0  qgeopositioninfosource_s60.o(.ARM.extab)
    .extab._ZN10QtMobility26CQGeoPositionInfoSourceS604NewLEP7QObject 0x0003bcf8   Data           0  qgeopositioninfosource_s60.o(.ARM.extab)
    .extab._ZNK10QtMobility26CQGeoPositionInfoSourceS6017lastKnownPositionEb 0x0003bd10   Data           0  qgeopositioninfosource_s60.o(.ARM.extab)
    .extab._ZN10QtMobility26CQGeoPositionInfoSourceS6030setPreferredPositioningMethodsE6QFlagsINS_22QGeoPositionInfoSource17PositioningMethodEE 0x0003bd40   Data           0  qgeopositioninfosource_s60.o(.ARM.extab)
    .extab._ZN10QtMobility26CQGeoPositionInfoSourceS6012updateStatusER19TPositionModuleInfoi 0x0003bd9c   Data           0  qgeopositioninfosource_s60.o(.ARM.extab)
    .extab._ZN10QtMobility26CQGeoPositionInfoSourceS6030TPositionInfo2QGeoPositionInfoEP20HPositionGenericInfoRNS_16QGeoPositionInfoE 0x0003bf2c   Data           0  qgeopositioninfosource_s60.o(.ARM.extab)
    .extab._ZN10QtMobility26CQGeoPositionInfoSourceS6014updatePositionEP20HPositionGenericInfoi 0x0003bf4c   Data           0  qgeopositioninfosource_s60.o(.ARM.extab)
    .extab._ZN10QtMobility26CQGeoPositionInfoSourceS6013requestUpdateEi 0x0003bf5c   Data           0  qgeopositioninfosource_s60.o(.ARM.extab)
    .extab._ZNK13QLatin1StringeqEPKc         0x0003bfb0   Data           0  qgeopositioninfosource_s60.o(.ARM.extab)
    .extab._ZN10QtMobility27CQGeoSatelliteInfoSourceS60D1Ev 0x0003bfc0   Data           0  qgeosatelliteinfosource_s60.o(.ARM.extab)
    .extab._ZN10QtMobility27CQGeoSatelliteInfoSourceS6010ConstructLEv 0x0003bff8   Data           0  qgeosatelliteinfosource_s60.o(.ARM.extab)
    .extab._ZN10QtMobility27CQGeoSatelliteInfoSourceS60C1EP7QObject 0x0003c03c   Data           0  qgeosatelliteinfosource_s60.o(.ARM.extab)
    .extab._ZN10QtMobility27CQGeoSatelliteInfoSourceS604NewLEP7QObject 0x0003c06c   Data           0  qgeosatelliteinfosource_s60.o(.ARM.extab)
    .extab._ZN10QtMobility27CQGeoSatelliteInfoSourceS6011checkModuleE4TUid 0x0003c094   Data           0  qgeosatelliteinfosource_s60.o(.ARM.extab)
    .extab._ZN10QtMobility27CQGeoSatelliteInfoSourceS6012updateStatusER19TPositionModuleInfoi 0x0003c0a4   Data           0  qgeosatelliteinfosource_s60.o(.ARM.extab)
    .extab._ZN10QtMobility27CQGeoSatelliteInfoSourceS6040TPositionSatelliteInfo2QGeoSatelliteInfoER22TPositionSatelliteInfoR5QListINS_17QGeoSatelliteInfoEES6_ 0x0003c1f4   Data           0  qgeosatelliteinfosource_s60.o(.ARM.extab)
    .extab._ZN10QtMobility27CQGeoSatelliteInfoSourceS6014updatePositionER22TPositionSatelliteInfoib 0x0003c204   Data           0  qgeosatelliteinfosource_s60.o(.ARM.extab)
    .extab._ZN10QtMobility27CQGeoSatelliteInfoSourceS6013requestUpdateEi 0x0003c224   Data           0  qgeosatelliteinfosource_s60.o(.ARM.extab)
    .extab._ZN5QListIN10QtMobility17QGeoSatelliteInfoEE9node_copyEPNS2_4NodeES4_S4_ 0x0003c278   Data           0  qgeosatelliteinfosource_s60.o(.ARM.extab)
    .extab._ZN5QListIN10QtMobility17QGeoSatelliteInfoEE13detach_helperEi 0x0003c29c   Data           0  qgeosatelliteinfosource_s60.o(.ARM.extab)
    .extab._ZN5QListIN10QtMobility17QGeoSatelliteInfoEE14node_constructEPNS2_4NodeERKS1_ 0x0003c2b8   Data           0  qgeosatelliteinfosource_s60.o(.ARM.extab)
    .extab._ZN5QListIN10QtMobility17QGeoSatelliteInfoEE18detach_helper_growEii 0x0003c2c8   Data           0  qgeosatelliteinfosource_s60.o(.ARM.extab)
    .extab._ZN5QListIN10QtMobility17QGeoSatelliteInfoEE6appendERKS1_ 0x0003c2f8   Data           0  qgeosatelliteinfosource_s60.o(.ARM.extab)
    .extab._ZN10QtMobility13CQMLBackendAOD1Ev 0x0003c328   Data           0  qmlbackendao_s60.o(.ARM.extab)
    .extab._ZN10QtMobility13CQMLBackendAOC1Ev 0x0003c338   Data           0  qmlbackendao_s60.o(.ARM.extab)
    .extab._ZN10QtMobility18QGeoAreaMonitorS60C1EP7QObject 0x0003c348   Data           0  qgeoareamonitor_s60.o(.ARM.extab)
    .extab._ZN10QtMobility18QGeoAreaMonitorS604NewLEP7QObject 0x0003c358   Data           0  qgeoareamonitor_s60.o(.ARM.extab)
    .extab._ZN10QtMobility18QGeoAreaMonitorS609setRadiusEf 0x0003c370   Data           0  qgeoareamonitor_s60.o(.ARM.extab)
    .extab._ZN10QtMobility18QGeoAreaMonitorS6031TPositionInfoToQGeoPositionInfoER13TPositionInfoRNS_16QGeoPositionInfoE 0x0003c380   Data           0  qgeoareamonitor_s60.o(.ARM.extab)
    .extab._ZN10QtMobility18QGeoAreaMonitorS6018handleTriggerEventE13TPositionInfoNS_13enTriggerTypeE 0x0003c3a0   Data           0  qgeoareamonitor_s60.o(.ARM.extab)
    .extab._ZN10QtMobility18QGeoAreaMonitorS60D1Ev 0x0003c3b8   Data           0  qgeoareamonitor_s60.o(.ARM.extab)
    .extab._ZN10QtMobility19QMLBackendMonitorAOC1Ev 0x0003c3c8   Data           0  qmlbackendmonitorao_s60.o(.ARM.extab)
    .extab._ZN10QtMobility19QMLBackendMonitorAOD1Ev 0x0003c3e0   Data           0  qmlbackendmonitorao_s60.o(.ARM.extab)
    .extab._ZN10QtMobility32QMLBackendMonitorCreateTriggerAOC1Ev 0x0003c3f8   Data           0  qmlbackendmonitorcreatetriggerao_s60.o(.ARM.extab)
    .extab._ZN10QtMobility32QMLBackendMonitorCreateTriggerAO17InitializeTriggerEPNS_18QGeoAreaMonitorS60ENS_13enTriggerTypeER11TCoordinateRf 0x0003c410   Data           0  qmlbackendmonitorcreatetriggerao_s60.o(.ARM.extab)
    .extab._ZN10QtMobility32QMLBackendMonitorCreateTriggerAO15SetTriggerStateEPNS_18QGeoAreaMonitorS60ENS_13enTriggerTypeEb 0x0003c5f8   Data           0  qmlbackendmonitorcreatetriggerao_s60.o(.ARM.extab)
    .extab._ZN10QtMobility32QMLBackendMonitorCreateTriggerAO9getRadiusERf 0x0003c650   Data           0  qmlbackendmonitorcreatetriggerao_s60.o(.ARM.extab)
    .extab._ZN10QtMobility32QMLBackendMonitorCreateTriggerAOD1Ev 0x0003c680   Data           0  qmlbackendmonitorcreatetriggerao_s60.o(.ARM.extab)
    .extab._ZN5CBasenwEj                     0x0003c698   Data           0  qmlbackendmonitorinfo_s60.o(.ARM.extab)
    .extab._ZN10QtMobility25QMLBackendTriggerChangeAOC1Ev 0x0003c6a8   Data           0  qmlbackendtriggerchangeao_s60.o(.ARM.extab)
    .extab._ZN10QtMobility25QMLBackendTriggerChangeAO4NewLER10RLbtServer 0x0003c6c0   Data           0  qmlbackendtriggerchangeao_s60.o(.ARM.extab)
    .extab._ZN10QtMobility25QMLBackendTriggerChangeAO4RunLEv 0x0003c6d0   Data           0  qmlbackendtriggerchangeao_s60.o(.ARM.extab)
    .extab._ZN10QtMobility25QMLBackendTriggerChangeAOD1Ev 0x0003c700   Data           0  qmlbackendtriggerchangeao_s60.o(.ARM.extab)
    .extab._ZN10QtMobility18QGeoAddressPrivateD1Ev 0x0003c718   Data           0  qgeoaddress.o(.ARM.extab)
    .extab._ZN10QtMobility18QGeoAddressPrivateC1Ev 0x0003c758   Data           0  qgeoaddress.o(.ARM.extab)
    .extab._ZN10QtMobility11QGeoAddressC1Ev  0x0003c798   Data           0  qgeoaddress.o(.ARM.extab)
    .extab._ZNK10QtMobility11QGeoAddresseqERKS0_ 0x0003c7a8   Data           0  qgeoaddress.o(.ARM.extab)
    .extab._ZN10QtMobility18QGeoAddressPrivateC1ERKS0_ 0x0003c828   Data           0  qgeoaddress.o(.ARM.extab)
    .extab._ZN7QString5clearEv               0x0003c868   Data           0  qgeoaddress.o(.ARM.extab)
    .extab._ZN18QSharedDataPointerIN10QtMobility18QGeoAddressPrivateEE13detach_helperEv 0x0003c878   Data           0  qgeoaddress.o(.ARM.extab)
    .extab._ZN10QtMobility15QGeoAreaMonitorC2EP7QObject 0x0003c888   Data           0  qgeoareamonitor.o(.ARM.extab)
    .extab._ZN10QtMobility15QGeoAreaMonitorD2Ev 0x0003c8a0   Data           0  qgeoareamonitor.o(.ARM.extab)
    .extab._ZN10QtMobility22QGeoBoundingBoxPrivateD1Ev 0x0003c8b0   Data           0  qgeoboundingbox.o(.ARM.extab)
    .extab._ZN10QtMobility22QGeoBoundingBoxPrivateC1Ev 0x0003c8c0   Data           0  qgeoboundingbox.o(.ARM.extab)
    .extab._ZN10QtMobility15QGeoBoundingBoxC1Ev 0x0003c8d0   Data           0  qgeoboundingbox.o(.ARM.extab)
    .extab._ZN10QtMobility22QGeoBoundingBoxPrivateC1ERKS0_ 0x0003c8e8   Data           0  qgeoboundingbox.o(.ARM.extab)
    .extab._ZN10QtMobility15QGeoBoundingBox9setHeightEd 0x0003c8f8   Data           0  qgeoboundingbox.o(.ARM.extab)
    .extab._ZN10QtMobility15QGeoBoundingBox8setWidthEd 0x0003c928   Data           0  qgeoboundingbox.o(.ARM.extab)
    .extab._ZN10QtMobility22QGeoBoundingBoxPrivateC1ERKNS_14QGeoCoordinateES3_ 0x0003c958   Data           0  qgeoboundingbox.o(.ARM.extab)
    .extab._ZN10QtMobility15QGeoBoundingBoxC1ERKNS_14QGeoCoordinateEdd 0x0003c968   Data           0  qgeoboundingbox.o(.ARM.extab)
    .extab._ZN10QtMobility15QGeoBoundingBoxC1ERKNS_14QGeoCoordinateES3_ 0x0003c988   Data           0  qgeoboundingbox.o(.ARM.extab)
    .extab._ZN10QtMobility15QGeoBoundingBoxC1ERKS0_ 0x0003c9a0   Data           0  qgeoboundingbox.o(.ARM.extab)
    .extab._ZN10QtMobility15QGeoBoundingBoxD1Ev 0x0003c9b0   Data           0  qgeoboundingbox.o(.ARM.extab)
    .extab._ZN10QtMobility15QGeoBoundingBox9setCenterERKNS_14QGeoCoordinateE 0x0003c9c0   Data           0  qgeoboundingbox.o(.ARM.extab)
    .extab._ZNK10QtMobility15QGeoBoundingBox8containsERKS0_ 0x0003c9d8   Data           0  qgeoboundingbox.o(.ARM.extab)
    .extab._ZN10QtMobility15QGeoBoundingBox9translateEdd 0x0003ca18   Data           0  qgeoboundingbox.o(.ARM.extab)
    .extab._ZNK10QtMobility15QGeoBoundingBox10translatedEdd 0x0003ca30   Data           0  qgeoboundingbox.o(.ARM.extab)
    .extab._ZN10QtMobility15QGeoBoundingBoxoRERKS0_ 0x0003ca40   Data           0  qgeoboundingbox.o(.ARM.extab)
    .extab._ZNK10QtMobility15QGeoBoundingBox6unitedERKS0_ 0x0003ca58   Data           0  qgeoboundingbox.o(.ARM.extab)
    .extab._ZN18QSharedDataPointerIN10QtMobility22QGeoBoundingBoxPrivateEE13detach_helperEv 0x0003ca68   Data           0  qgeoboundingbox.o(.ARM.extab)
    .extab._ZN10QtMobility18QGeoBoundingCircleC1Ev 0x0003ca78   Data           0  qgeoboundingcircle.o(.ARM.extab)
    .extab._ZN10QtMobility18QGeoBoundingCircleC1ERKNS_14QGeoCoordinateEf 0x0003ca90   Data           0  qgeoboundingcircle.o(.ARM.extab)
    .extab._ZN10QtMobility18QGeoBoundingCircleC1ERKS0_ 0x0003caa8   Data           0  qgeoboundingcircle.o(.ARM.extab)
    .extab._ZN10QtMobility18QGeoBoundingCircleD1Ev 0x0003cab8   Data           0  qgeoboundingcircle.o(.ARM.extab)
    .extab._ZN10QtMobility18QGeoBoundingCircle9translateEdd 0x0003cac8   Data           0  qgeoboundingcircle.o(.ARM.extab)
    .extab._ZNK10QtMobility18QGeoBoundingCircle10translatedEdd 0x0003cad8   Data           0  qgeoboundingcircle.o(.ARM.extab)
    .extab._ZN18QSharedDataPointerIN10QtMobility25QGeoBoundingCirclePrivateEE13detach_helperEv 0x0003cae8   Data           0  qgeoboundingcircle.o(.ARM.extab)
    .extab._ZN10QtMobility14QGeoCoordinateC1Ev 0x0003caf8   Data           0  qgeocoordinate.o(.ARM.extab)
    .extab._ZN10QtMobility14QGeoCoordinateC1Edd 0x0003cb08   Data           0  qgeocoordinate.o(.ARM.extab)
    .extab._ZN10QtMobility14QGeoCoordinateC1Eddd 0x0003cb18   Data           0  qgeocoordinate.o(.ARM.extab)
    .extab._ZN10QtMobility14QGeoCoordinateC1ERKS0_ 0x0003cb28   Data           0  qgeocoordinate.o(.ARM.extab)
    .extab._ZNK10QtMobility14QGeoCoordinate8toStringENS0_16CoordinateFormatE 0x0003cb38   Data           0  qgeocoordinate.o(.ARM.extab)
    .extab._ZN7QString6appendEPKc            0x0003cdb8   Data           0  qgeocoordinate.o(.ARM.extab)
    .extab._ZN6QDebuglsEPKc                  0x0003cdc8   Data           0  qgeocoordinate.o(.ARM.extab)
    .extab._ZN10QtMobility16QGeoPlacePrivateC1Ev 0x0003cdd8   Data           0  qgeoplace.o(.ARM.extab)
    .extab._ZN10QtMobility9QGeoPlaceC1Ev     0x0003cdf0   Data           0  qgeoplace.o(.ARM.extab)
    .extab._ZN10QtMobility16QGeoPlacePrivateC1ERKS0_ 0x0003ce00   Data           0  qgeoplace.o(.ARM.extab)
    .extab._ZN10QtMobility16QGeoPlacePrivateD1Ev 0x0003ce18   Data           0  qgeoplace.o(.ARM.extab)
    .extab._ZNK10QtMobility16QGeoPlacePrivate5cloneEv 0x0003ce30   Data           0  qgeoplace.o(.ARM.extab)
    .extab._ZN10QtMobility16QGeoPositionInfoC1Ev 0x0003ce40   Data           0  qgeopositioninfo.o(.ARM.extab)
    .extab._ZN10QtMobility16QGeoPositionInfoC1ERKNS_14QGeoCoordinateERK9QDateTime 0x0003ce50   Data           0  qgeopositioninfo.o(.ARM.extab)
    .extab._ZN10QtMobility16QGeoPositionInfoC1ERKS0_ 0x0003ce60   Data           0  qgeopositioninfo.o(.ARM.extab)
    .extab._ZN10QtMobility16QGeoPositionInfoD1Ev 0x0003ce70   Data           0  qgeopositioninfo.o(.ARM.extab)
    .extab._ZN10QtMobilitylsE6QDebugRKNS_16QGeoPositionInfoE 0x0003ce88   Data           0  qgeopositioninfo.o(.ARM.extab)
    .extab._ZN5QHashIifE5clearEv             0x0003cea8   Data           0  qgeopositioninfo.o(.ARM.extab)
    .extab._ZN5QHashIifE10createNodeEjRKiRKfPP9QHashNodeIifE 0x0003ceb8   Data           0  qgeopositioninfo.o(.ARM.extab)
    .extab._ZN5QListIiE13detach_helperEi     0x0003cec8   Data           0  qgeopositioninfo.o(.ARM.extab)
    .extab._ZN5QListIiE18detach_helper_growEii 0x0003cee4   Data           0  qgeopositioninfo.o(.ARM.extab)
    .extab._ZN5QListIiE6appendERKi           0x0003cf14   Data           0  qgeopositioninfo.o(.ARM.extab)
    .extab._ZN10QtMobility23QGeoPositionInfoPrivateC1Ev 0x0003cf30   Data           0  qgeopositioninfo.o(.ARM.extab)
    .extab._ZN5QHashIifE6removeERKi          0x0003cf48   Data           0  qgeopositioninfo.o(.ARM.extab)
    .extab._ZNK5QHashIifE4keysEv             0x0003cf5c   Data           0  qgeopositioninfo.o(.ARM.extab)
    .extab._ZN10QtMobility22QGeoPositionInfoSourceC2EP7QObject 0x0003cf6c   Data           0  qgeopositioninfosource.o(.ARM.extab)
    .extab._ZN10QtMobility22QGeoPositionInfoSource19createDefaultSourceEP7QObject 0x0003cf7c   Data           0  qgeopositioninfosource.o(.ARM.extab)
    .extab._ZN10QtMobility17QGeoSatelliteInfoC1Ev 0x0003cfc0   Data           0  qgeosatelliteinfo.o(.ARM.extab)
    .extab._ZN10QtMobility17QGeoSatelliteInfoC1ERKS0_ 0x0003cfd0   Data           0  qgeosatelliteinfo.o(.ARM.extab)
    .extab._ZN10QtMobilitylsE6QDebugRKNS_17QGeoSatelliteInfoE 0x0003cfe0   Data           0  qgeosatelliteinfo.o(.ARM.extab)
    .extab._ZN10QtMobility23QGeoSatelliteInfoSource19createDefaultSourceEP7QObject 0x0003cff0   Data           0  qgeosatelliteinfosource.o(.ARM.extab)
    .extab._ZN10QtMobility14QLocationUtils11getNmeaTimeERK10QByteArrayP5QTime 0x0003d034   Data           0  qlocationutils.o(.ARM.extab)
    .extab._ZN10QtMobility22qlocationutils_readZdaEPKciPNS_16QGeoPositionInfoEPb 0x0003d084   Data           0  qlocationutils.o(.ARM.extab)
    .extab._ZN10QtMobility22qlocationutils_readVtgEPKciPNS_16QGeoPositionInfoEPb 0x0003d0b4   Data           0  qlocationutils.o(.ARM.extab)
    .extab._ZN10QtMobility22qlocationutils_readRmcEPKciPNS_16QGeoPositionInfoEPb 0x0003d0d4   Data           0  qlocationutils.o(.ARM.extab)
    .extab._ZN10QtMobility22qlocationutils_readGllEPKciPNS_16QGeoPositionInfoEPb 0x0003d134   Data           0  qlocationutils.o(.ARM.extab)
    .extab._ZN10QtMobility22qlocationutils_readGgaEPKciPNS_16QGeoPositionInfoEPb 0x0003d174   Data           0  qlocationutils.o(.ARM.extab)
    .extab._ZN10QtMobility14QLocationUtils20hasValidNmeaChecksumEPKci 0x0003d1b4   Data           0  qlocationutils.o(.ARM.extab)
    .extab._ZN5QListI10QByteArrayE13detach_helperEi 0x0003d1e4   Data           0  qlocationutils.o(.ARM.extab)
    .extab._ZN10QtMobility30QNmeaPositionInfoSourcePrivateC1EPNS_23QNmeaPositionInfoSourceE 0x0003d228   Data           0  qnmeapositioninfosource.o(.ARM.extab)
    .extab._ZN10QtMobility23QNmeaPositionInfoSourceC1ENS0_10UpdateModeEP7QObject 0x0003d240   Data           0  qnmeapositioninfosource.o(.ARM.extab)
    .extab._ZN10QtMobility23QNmeaPositionInfoSourceD1Ev 0x0003d260   Data           0  qnmeapositioninfosource.o(.ARM.extab)
    .extab._ZN10QtMobility20QNmeaSimulatedReaderC1EPNS_30QNmeaPositionInfoSourcePrivateE 0x0003d270   Data           0  qnmeapositioninfosource.o(.ARM.extab)
    .extab._ZN10QtMobility30QNmeaPositionInfoSourcePrivate10initializeEv 0x0003d280   Data           0  qnmeapositioninfosource.o(.ARM.extab)
    .extab._ZN10QtMobility30QNmeaPositionInfoSourcePrivate12startUpdatesEv 0x0003d298   Data           0  qnmeapositioninfosource.o(.ARM.extab)
    .extab._ZN10QtMobility30QNmeaPositionInfoSourcePrivate11stopUpdatesEv 0x0003d2a8   Data           0  qnmeapositioninfosource.o(.ARM.extab)
    .extab._ZN10QtMobility30QNmeaPositionInfoSourcePrivate13requestUpdateEi 0x0003d2b8   Data           0  qnmeapositioninfosource.o(.ARM.extab)
    .extab._ZN10QtMobility30QNmeaPositionInfoSourcePrivate17emitPendingUpdateEv 0x0003d2c8   Data           0  qnmeapositioninfosource.o(.ARM.extab)
    .extab._ZN10QtMobility30QNmeaPositionInfoSourcePrivateD1Ev 0x0003d2e0   Data           0  qnmeapositioninfosource.o(.ARM.extab)
    .extab._ZN10QtMobility30QNmeaPositionInfoSourcePrivate15notifyNewUpdateEPNS_16QGeoPositionInfoEb 0x0003d308   Data           0  qnmeapositioninfosource.o(.ARM.extab)
    .extab._ZN10QtMobility19QNmeaRealTimeReader17readAvailableDataEv 0x0003d328   Data           0  qnmeapositioninfosource.o(.ARM.extab)
    .extab._ZN10QtMobility20QNmeaSimulatedReader19processNextSentenceEv 0x0003d33c   Data           0  qnmeapositioninfosource.o(.ARM.extab)
    .extab._ZN10QtMobility20QNmeaSimulatedReader21simulatePendingUpdateEv 0x0003d390   Data           0  qnmeapositioninfosource.o(.ARM.extab)
    .extab._ZN10QtMobility20QNmeaSimulatedReaderD1Ev 0x0003d3a0   Data           0  qnmeapositioninfosource.o(.ARM.extab)
    .extab._ZN10QtMobility20QNmeaSimulatedReader16setFirstDateTimeEv 0x0003d3b8   Data           0  qnmeapositioninfosource.o(.ARM.extab)
    .extab._ZN5QListIN10QtMobility23QPendingGeoPositionInfoEE14node_constructEPNS2_4NodeERKS1_ 0x0003d3f4   Data           0  qnmeapositioninfosource.o(.ARM.extab)
    .extab._ZN5QListIN10QtMobility23QPendingGeoPositionInfoEE9node_copyEPNS2_4NodeES4_S4_ 0x0003d404   Data           0  qnmeapositioninfosource.o(.ARM.extab)
    .extab._ZN5QListIN10QtMobility23QPendingGeoPositionInfoEE18detach_helper_growEii 0x0003d428   Data           0  qnmeapositioninfosource.o(.ARM.extab)
    .extab._ZN5QListIN10QtMobility23QPendingGeoPositionInfoEE6appendERKS1_ 0x0003d458   Data           0  qnmeapositioninfosource.o(.ARM.extab)
    .extab._ZN5QListIN10QtMobility23QPendingGeoPositionInfoEE13detach_helperEi 0x0003d488   Data           0  qnmeapositioninfosource.o(.ARM.extab)
    .extab._ZN10QtMobility5qHashERKNS_19QLandmarkCategoryIdE 0x0003d4a4   Data           0  qlandmark.o(.ARM.extab)
    .extab._ZN10QtMobility16QLandmarkPrivateC1Ev 0x0003d4c4   Data           0  qlandmark.o(.ARM.extab)
    .extab._ZN10QtMobility9QLandmarkC1Ev     0x0003d504   Data           0  qlandmark.o(.ARM.extab)
    .extab._ZN10QtMobility16QLandmarkPrivateC1ERKNS_16QGeoPlacePrivateE 0x0003d514   Data           0  qlandmark.o(.ARM.extab)
    .extab._ZN10QtMobility9QLandmarkC1ERKNS_9QGeoPlaceE 0x0003d554   Data           0  qlandmark.o(.ARM.extab)
    .extab._ZNK10QtMobility16QLandmarkPrivateeqERKS0_ 0x0003d57c   Data           0  qlandmark.o(.ARM.extab)
    .extab._ZN10QtMobility9QLandmark5clearEv 0x0003d59c   Data           0  qlandmark.o(.ARM.extab)
    .extab._ZN10QtMobility16QLandmarkPrivateC1ERKS0_ 0x0003d5bc   Data           0  qlandmark.o(.ARM.extab)
    .extab._ZN10QtMobility16QLandmarkPrivateD1Ev 0x0003d5fc   Data           0  qlandmark.o(.ARM.extab)
    .extab._ZNK5QListIN10QtMobility19QLandmarkCategoryIdEE5toSetEv 0x0003d63c   Data           0  qlandmark.o(.ARM.extab)
    .extab._ZN5QListIN10QtMobility19QLandmarkCategoryIdEE9node_copyEPNS2_4NodeES4_S4_ 0x0003d64c   Data           0  qlandmark.o(.ARM.extab)
    .extab._ZN5QListIN10QtMobility19QLandmarkCategoryIdEE13detach_helperEi 0x0003d670   Data           0  qlandmark.o(.ARM.extab)
    .extab._ZN5QListIN10QtMobility19QLandmarkCategoryIdEE14node_constructEPNS2_4NodeERKS1_ 0x0003d68c   Data           0  qlandmark.o(.ARM.extab)
    .extab._ZN5QListIN10QtMobility19QLandmarkCategoryIdEE18detach_helper_growEii 0x0003d69c   Data           0  qlandmark.o(.ARM.extab)
    .extab._ZN5QListIN10QtMobility19QLandmarkCategoryIdEE6appendERKS1_ 0x0003d6cc   Data           0  qlandmark.o(.ARM.extab)
    .extab._ZN5QListIN10QtMobility19QLandmarkCategoryIdEE5clearEv 0x0003d6fc   Data           0  qlandmark.o(.ARM.extab)
    .extab._ZN5QListIN10QtMobility19QLandmarkCategoryIdEE9removeAllERKS1_ 0x0003d70c   Data           0  qlandmark.o(.ARM.extab)
    .extab._ZN5QHashIN10QtMobility19QLandmarkCategoryIdE15QHashDummyValueE13duplicateNodeEPN9QHashData4NodeEPv 0x0003d71c   Data           0  qlandmark.o(.ARM.extab)
    .extab._ZN5QHashIN10QtMobility19QLandmarkCategoryIdE15QHashDummyValueE6insertERKS1_RKS2_ 0x0003d72c   Data           0  qlandmark.o(.ARM.extab)
    .extab._ZNK10QtMobility16QLandmarkPrivate5cloneEv 0x0003d73c   Data           0  qlandmark.o(.ARM.extab)
    .extab._ZN10QtMobility24QLandmarkAbstractRequest15waitForFinishedEi 0x0003d74c   Data           0  qlandmarkabstractrequest.o(.ARM.extab)
    .extab._ZN10QtMobility24QLandmarkAbstractRequest6cancelEv 0x0003d774   Data           0  qlandmarkabstractrequest.o(.ARM.extab)
    .extab._ZN10QtMobility24QLandmarkAbstractRequest5startEv 0x0003d79c   Data           0  qlandmarkabstractrequest.o(.ARM.extab)
    .extab._ZN10QtMobility31QLandmarkAbstractRequestPrivateC1EPNS_16QLandmarkManagerE 0x0003d7cc   Data           0  qlandmarkabstractrequest.o(.ARM.extab)
    .extab._ZN10QtMobility24QLandmarkAbstractRequestC1EPNS_16QLandmarkManagerEP7QObject 0x0003d7ec   Data           0  qlandmarkabstractrequest.o(.ARM.extab)
    .extab._ZN10QtMobility31QLandmarkAbstractRequestPrivate12notifyEngineEPNS_24QLandmarkAbstractRequestE 0x0003d804   Data           0  qlandmarkabstractrequest.o(.ARM.extab)
    .extab._ZN10QtMobility24QLandmarkAbstractRequestD1Ev 0x0003d814   Data           0  qlandmarkabstractrequest.o(.ARM.extab)
    .extab._ZNK10QtMobility24QLandmarkAbstractRequest11errorStringEv 0x0003d824   Data           0  qlandmarkabstractrequest.o(.ARM.extab)
    .extab._ZN10QtMobility24QLandmarkAbstractRequest10setManagerEPNS_16QLandmarkManagerE 0x0003d834   Data           0  qlandmarkabstractrequest.o(.ARM.extab)
    .extab._ZN10QtMobility31QLandmarkAbstractRequestPrivateD1Ev 0x0003d844   Data           0  qlandmarkabstractrequest.o(.ARM.extab)
    .extab._Z8qWarningv                      0x0003d85c   Data           0  qlandmarkabstractrequest.o(.ARM.extab)
    .extab._ZN7QStringaSEPKc                 0x0003d874   Data           0  qlandmarkabstractrequest.o(.ARM.extab)
    .extab._ZN10QtMobility31QLandmarkAttributeFilterPrivateC1Ev 0x0003d884   Data           0  qlandmarkattributefilter.o(.ARM.extab)
    .extab._ZN10QtMobility24QLandmarkAttributeFilterC1Ev 0x0003d8bc   Data           0  qlandmarkattributefilter.o(.ARM.extab)
    .extab._ZN10QtMobility24QLandmarkAttributeFilterC1ERKNS_15QLandmarkFilterE 0x0003d8cc   Data           0  qlandmarkattributefilter.o(.ARM.extab)
    .extab._ZN10QtMobility24QLandmarkAttributeFilter13setAttributesERK11QStringListRK8QVariant6QFlagsINS_15QLandmarkFilter9MatchFlagEE 0x0003d8dc   Data           0  qlandmarkattributefilter.o(.ARM.extab)
    .extab._ZN10QtMobility24QLandmarkAttributeFilter15clearAttributesEv 0x0003d8f4   Data           0  qlandmarkattributefilter.o(.ARM.extab)
    .extab._ZNK10QtMobility24QLandmarkAttributeFilter13attributeKeysEv 0x0003d90c   Data           0  qlandmarkattributefilter.o(.ARM.extab)
    .extab._ZN10QtMobility31QLandmarkAttributeFilterPrivateC1ERKS0_ 0x0003d91c   Data           0  qlandmarkattributefilter.o(.ARM.extab)
    .extab._ZN10QtMobility31QLandmarkAttributeFilterPrivateD1Ev 0x0003d934   Data           0  qlandmarkattributefilter.o(.ARM.extab)
    .extab._ZN5QListI7QStringE9node_copyEPNS1_4NodeES3_S3_ 0x0003d94c   Data           0  qlandmarkattributefilter.o(.ARM.extab)
    .extab._ZN5QListI7QStringE13detach_helperEi 0x0003d970   Data           0  qlandmarkattributefilter.o(.ARM.extab)
    .extab._ZN9QHashData9hasShrunkEv         0x0003d98c   Data           0  qlandmarkattributefilter.o(.ARM.extab)
    .extab._ZN9QHashNodeI7QString8QVariantEC1ERKS0_RKS1_ 0x0003d9a0   Data           0  qlandmarkattributefilter.o(.ARM.extab)
    .extab._ZN5QHashI7QString8QVariantEixERKS0_ 0x0003d9b0   Data           0  qlandmarkattributefilter.o(.ARM.extab)
    .extab._ZN5QListI7QStringE14node_constructEPNS1_4NodeERKS0_ 0x0003d9d0   Data           0  qlandmarkattributefilter.o(.ARM.extab)
    .extab._ZN5QListI7QStringE18detach_helper_growEii 0x0003d9e0   Data           0  qlandmarkattributefilter.o(.ARM.extab)
    .extab._ZN5QListI7QStringE6appendERKS0_  0x0003da10   Data           0  qlandmarkattributefilter.o(.ARM.extab)
    .extab._ZNK5QHashI7QString8QVariantE4keysEv 0x0003da40   Data           0  qlandmarkattributefilter.o(.ARM.extab)
    .extab._ZN5QHashI7QString6QFlagsIN10QtMobility15QLandmarkFilter9MatchFlagEEEixERKS0_ 0x0003da50   Data           0  qlandmarkattributefilter.o(.ARM.extab)
    .extab._ZN5QHashI7QString8QVariantE11deleteNode2EPN9QHashData4NodeE 0x0003da68   Data           0  qlandmarkattributefilter.o(.ARM.extab)
    .extab._ZN5QHashI7QString8QVariantE13duplicateNodeEPN9QHashData4NodeEPv 0x0003da78   Data           0  qlandmarkattributefilter.o(.ARM.extab)
    .extab._ZN5QHashI7QString6QFlagsIN10QtMobility15QLandmarkFilter9MatchFlagEEE13duplicateNodeEPN9QHashData4NodeEPv 0x0003da88   Data           0  qlandmarkattributefilter.o(.ARM.extab)
    .extab._ZN10QtMobility31QLandmarkAttributeFilterPrivate14copyIfPossibleER18QSharedDataPointerINS_22QLandmarkFilterPrivateEERKNS_15QLandmarkFilterE 0x0003da98   Data           0  qlandmarkattributefilter.o(.ARM.extab)
    .extab._ZNK10QtMobility31QLandmarkAttributeFilterPrivate5cloneEv 0x0003daa8   Data           0  qlandmarkattributefilter.o(.ARM.extab)
    .extab._ZN10QtMobility25QLandmarkBoxFilterPrivateC1ERKNS_15QGeoBoundingBoxE 0x0003dab8   Data           0  qlandmarkboxfilter.o(.ARM.extab)
    .extab._ZN10QtMobility18QLandmarkBoxFilterC1ERKNS_15QGeoBoundingBoxE 0x0003dac8   Data           0  qlandmarkboxfilter.o(.ARM.extab)
    .extab._ZN10QtMobility18QLandmarkBoxFilterC1ERKNS_14QGeoCoordinateES3_ 0x0003dad8   Data           0  qlandmarkboxfilter.o(.ARM.extab)
    .extab._ZN10QtMobility18QLandmarkBoxFilterC1ERKNS_15QLandmarkFilterE 0x0003daf8   Data           0  qlandmarkboxfilter.o(.ARM.extab)
    .extab._ZN10QtMobility25QLandmarkBoxFilterPrivateC1ERKS0_ 0x0003db08   Data           0  qlandmarkboxfilter.o(.ARM.extab)
    .extab._ZN10QtMobility25QLandmarkBoxFilterPrivateD1Ev 0x0003db18   Data           0  qlandmarkboxfilter.o(.ARM.extab)
    .extab._ZN10QtMobility25QLandmarkBoxFilterPrivate14copyIfPossibleER18QSharedDataPointerINS_22QLandmarkFilterPrivateEERKNS_15QLandmarkFilterE 0x0003db28   Data           0  qlandmarkboxfilter.o(.ARM.extab)
    .extab._ZNK10QtMobility25QLandmarkBoxFilterPrivate5cloneEv 0x0003db48   Data           0  qlandmarkboxfilter.o(.ARM.extab)
    .extab._ZN10QtMobility24QLandmarkCategoryPrivateD1Ev 0x0003db58   Data           0  qlandmarkcategory.o(.ARM.extab)
    .extab._ZN10QtMobility24QLandmarkCategoryPrivateC1Ev 0x0003db70   Data           0  qlandmarkcategory.o(.ARM.extab)
    .extab._ZN10QtMobility17QLandmarkCategoryC1Ev 0x0003dbb0   Data           0  qlandmarkcategory.o(.ARM.extab)
    .extab._ZN10QtMobility24QLandmarkCategoryPrivateC1ERKS0_ 0x0003dbc0   Data           0  qlandmarkcategory.o(.ARM.extab)
    .extab._ZN10QtMobility17QLandmarkCategory5clearEv 0x0003dbd8   Data           0  qlandmarkcategory.o(.ARM.extab)
    .extab._ZN18QSharedDataPointerIN10QtMobility24QLandmarkCategoryPrivateEE13detach_helperEv 0x0003dbf0   Data           0  qlandmarkcategory.o(.ARM.extab)
    .extab._ZN10QtMobility29QLandmarkCategoryFetchRequestC1EPNS_16QLandmarkManagerEP7QObject 0x0003dc00   Data           0  qlandmarkcategoryfetchrequest.o(.ARM.extab)
    .extab._ZNK10QtMobility29QLandmarkCategoryFetchRequest10categoriesEv 0x0003dc20   Data           0  qlandmarkcategoryfetchrequest.o(.ARM.extab)
    .extab._ZNK10QtMobility29QLandmarkCategoryFetchRequest7sortingEv 0x0003dc30   Data           0  qlandmarkcategoryfetchrequest.o(.ARM.extab)
    .extab._ZN10QtMobility29QLandmarkCategoryFetchRequest10setSortingERKNS_17QLandmarkNameSortE 0x0003dc40   Data           0  qlandmarkcategoryfetchrequest.o(.ARM.extab)
    .extab._ZN10QtMobility30QLandmarkIdFetchRequestPrivateD1Ev 0x0003dc50   Data           0  qlandmarkcategoryfetchrequest.o(.ARM.extab)
    .extab._ZN10QtMobility28QLandmarkFetchRequestPrivateD1Ev 0x0003dc70   Data           0  qlandmarkcategoryfetchrequest.o(.ARM.extab)
    .extab._ZN10QtMobility32QLandmarkFetchByIdRequestPrivateD1Ev 0x0003dc90   Data           0  qlandmarkcategoryfetchrequest.o(.ARM.extab)
    .extab._ZN10QtMobility29QLandmarkRemoveRequestPrivateD1Ev 0x0003dcb0   Data           0  qlandmarkcategoryfetchrequest.o(.ARM.extab)
    .extab._ZN10QtMobility27QLandmarkSaveRequestPrivateD1Ev 0x0003dcc8   Data           0  qlandmarkcategoryfetchrequest.o(.ARM.extab)
    .extab._ZN10QtMobility38QLandmarkCategoryIdFetchRequestPrivateD1Ev 0x0003dce0   Data           0  qlandmarkcategoryfetchrequest.o(.ARM.extab)
    .extab._ZN10QtMobility36QLandmarkCategoryFetchRequestPrivateD1Ev 0x0003dcf8   Data           0  qlandmarkcategoryfetchrequest.o(.ARM.extab)
    .extab._ZN10QtMobility40QLandmarkCategoryFetchByIdRequestPrivateD1Ev 0x0003dd10   Data           0  qlandmarkcategoryfetchrequest.o(.ARM.extab)
    .extab._ZN10QtMobility37QLandmarkCategoryRemoveRequestPrivateD1Ev 0x0003dd30   Data           0  qlandmarkcategoryfetchrequest.o(.ARM.extab)
    .extab._ZN10QtMobility35QLandmarkCategorySaveRequestPrivateD1Ev 0x0003dd48   Data           0  qlandmarkcategoryfetchrequest.o(.ARM.extab)
    .extab._ZN10QtMobility29QLandmarkImportRequestPrivateD1Ev 0x0003dd60   Data           0  qlandmarkcategoryfetchrequest.o(.ARM.extab)
    .extab._ZN10QtMobility29QLandmarkExportRequestPrivateD1Ev 0x0003dd88   Data           0  qlandmarkcategoryfetchrequest.o(.ARM.extab)
    .extab._ZN10QtMobility33QLandmarkCategoryFetchByIdRequestC1EPNS_16QLandmarkManagerEP7QObject 0x0003dda8   Data           0  qlandmarkcategoryfetchbyidrequest.o(.ARM.extab)
    .extab._ZNK10QtMobility33QLandmarkCategoryFetchByIdRequest11categoryIdsEv 0x0003ddd0   Data           0  qlandmarkcategoryfetchbyidrequest.o(.ARM.extab)
    .extab._ZN10QtMobility33QLandmarkCategoryFetchByIdRequest14setCategoryIdsERK5QListINS_19QLandmarkCategoryIdEE 0x0003dde0   Data           0  qlandmarkcategoryfetchbyidrequest.o(.ARM.extab)
    .extab._ZN10QtMobility33QLandmarkCategoryFetchByIdRequest13setCategoryIdERKNS_19QLandmarkCategoryIdE 0x0003ddf0   Data           0  qlandmarkcategoryfetchbyidrequest.o(.ARM.extab)
    .extab._ZNK10QtMobility33QLandmarkCategoryFetchByIdRequest10categoriesEv 0x0003de00   Data           0  qlandmarkcategoryfetchbyidrequest.o(.ARM.extab)
    .extab._ZNK10QtMobility33QLandmarkCategoryFetchByIdRequest8errorMapEv 0x0003de10   Data           0  qlandmarkcategoryfetchbyidrequest.o(.ARM.extab)
    .extab._ZN4QMapIiN10QtMobility16QLandmarkManager5ErrorEE13detach_helperEv 0x0003de20   Data           0  qlandmarkcategoryfetchbyidrequest.o(.ARM.extab)
    .extab._ZN10QtMobility30QLandmarkCategoryFilterPrivateC1ERKNS_19QLandmarkCategoryIdE 0x0003de3c   Data           0  qlandmarkcategoryfilter.o(.ARM.extab)
    .extab._ZN10QtMobility23QLandmarkCategoryFilterC1ERKNS_19QLandmarkCategoryIdE 0x0003de4c   Data           0  qlandmarkcategoryfilter.o(.ARM.extab)
    .extab._ZN10QtMobility23QLandmarkCategoryFilterC1ERKNS_15QLandmarkFilterE 0x0003de5c   Data           0  qlandmarkcategoryfilter.o(.ARM.extab)
    .extab._ZN10QtMobility23QLandmarkCategoryFilter11setCategoryERKNS_17QLandmarkCategoryE 0x0003de6c   Data           0  qlandmarkcategoryfilter.o(.ARM.extab)
    .extab._ZN10QtMobility30QLandmarkCategoryFilterPrivateC1ERKS0_ 0x0003de7c   Data           0  qlandmarkcategoryfilter.o(.ARM.extab)
    .extab._ZN10QtMobility30QLandmarkCategoryFilterPrivateD1Ev 0x0003de8c   Data           0  qlandmarkcategoryfilter.o(.ARM.extab)
    .extab._ZN10QtMobility30QLandmarkCategoryFilterPrivate14copyIfPossibleER18QSharedDataPointerINS_22QLandmarkFilterPrivateEERKNS_15QLandmarkFilterE 0x0003de9c   Data           0  qlandmarkcategoryfilter.o(.ARM.extab)
    .extab._ZNK10QtMobility30QLandmarkCategoryFilterPrivate5cloneEv 0x0003debc   Data           0  qlandmarkcategoryfilter.o(.ARM.extab)
    .extab._ZN10QtMobility19QLandmarkCategoryIdC1Ev 0x0003decc   Data           0  qlandmarkcategoryid.o(.ARM.extab)
    .extab._ZN18QSharedDataPointerIN10QtMobility26QLandmarkCategoryIdPrivateEE13detach_helperEv 0x0003dee4   Data           0  qlandmarkcategoryid.o(.ARM.extab)
    .extab._ZN10QtMobility26QLandmarkCategoryIdPrivateD1Ev 0x0003defc   Data           0  qlandmarkcategoryid.o(.ARM.extab)
    .extab._ZN10QtMobility31QLandmarkCategoryIdFetchRequestC1EPNS_16QLandmarkManagerEP7QObject 0x0003df0c   Data           0  qlandmarkcategoryidfetchrequest.o(.ARM.extab)
    .extab._ZNK10QtMobility31QLandmarkCategoryIdFetchRequest11categoryIdsEv 0x0003df2c   Data           0  qlandmarkcategoryidfetchrequest.o(.ARM.extab)
    .extab._ZN10QtMobility31QLandmarkCategoryIdFetchRequest10setSortingERKNS_17QLandmarkNameSortE 0x0003df3c   Data           0  qlandmarkcategoryidfetchrequest.o(.ARM.extab)
    .extab._ZNK10QtMobility31QLandmarkCategoryIdFetchRequest7sortingEv 0x0003df4c   Data           0  qlandmarkcategoryidfetchrequest.o(.ARM.extab)
    .extab._ZN10QtMobility30QLandmarkCategoryRemoveRequestC1EPNS_16QLandmarkManagerEP7QObject 0x0003df5c   Data           0  qlandmarkcategoryremoverequest.o(.ARM.extab)
    .extab._ZNK10QtMobility30QLandmarkCategoryRemoveRequest11categoryIdsEv 0x0003df7c   Data           0  qlandmarkcategoryremoverequest.o(.ARM.extab)
    .extab._ZN10QtMobility30QLandmarkCategoryRemoveRequest14setCategoryIdsERK5QListINS_19QLandmarkCategoryIdEE 0x0003df8c   Data           0  qlandmarkcategoryremoverequest.o(.ARM.extab)
    .extab._ZN10QtMobility30QLandmarkCategoryRemoveRequest13setCategoryIdERKNS_19QLandmarkCategoryIdE 0x0003df9c   Data           0  qlandmarkcategoryremoverequest.o(.ARM.extab)
    .extab._ZN10QtMobility30QLandmarkCategoryRemoveRequest13setCategoriesERK5QListINS_17QLandmarkCategoryEE 0x0003dfac   Data           0  qlandmarkcategoryremoverequest.o(.ARM.extab)
    .extab._ZN10QtMobility30QLandmarkCategoryRemoveRequest11setCategoryERKNS_17QLandmarkCategoryE 0x0003dfcc   Data           0  qlandmarkcategoryremoverequest.o(.ARM.extab)
    .extab._ZNK10QtMobility30QLandmarkCategoryRemoveRequest8errorMapEv 0x0003dfec   Data           0  qlandmarkcategoryremoverequest.o(.ARM.extab)
    .extab._ZN10QtMobility28QLandmarkCategorySaveRequestC1EPNS_16QLandmarkManagerEP7QObject 0x0003dffc   Data           0  qlandmarkcategorysaverequest.o(.ARM.extab)
    .extab._ZNK10QtMobility28QLandmarkCategorySaveRequest10categoriesEv 0x0003e01c   Data           0  qlandmarkcategorysaverequest.o(.ARM.extab)
    .extab._ZN10QtMobility28QLandmarkCategorySaveRequest13setCategoriesERK5QListINS_17QLandmarkCategoryEE 0x0003e02c   Data           0  qlandmarkcategorysaverequest.o(.ARM.extab)
    .extab._ZN10QtMobility28QLandmarkCategorySaveRequest11setCategoryERKNS_17QLandmarkCategoryE 0x0003e03c   Data           0  qlandmarkcategorysaverequest.o(.ARM.extab)
    .extab._ZNK10QtMobility28QLandmarkCategorySaveRequest8errorMapEv 0x0003e04c   Data           0  qlandmarkcategorysaverequest.o(.ARM.extab)
    .extab._ZN5QListIN10QtMobility17QLandmarkCategoryEE9node_copyEPNS2_4NodeES4_S4_ 0x0003e05c   Data           0  qlandmarkcategorysaverequest.o(.ARM.extab)
    .extab._ZN5QListIN10QtMobility17QLandmarkCategoryEE13detach_helperEi 0x0003e080   Data           0  qlandmarkcategorysaverequest.o(.ARM.extab)
    .extab._ZN5QListIN10QtMobility17QLandmarkCategoryEE14node_constructEPNS2_4NodeERKS1_ 0x0003e09c   Data           0  qlandmarkcategorysaverequest.o(.ARM.extab)
    .extab._ZN5QListIN10QtMobility17QLandmarkCategoryEE18detach_helper_growEii 0x0003e0ac   Data           0  qlandmarkcategorysaverequest.o(.ARM.extab)
    .extab._ZN5QListIN10QtMobility17QLandmarkCategoryEE6appendERKS1_ 0x0003e0dc   Data           0  qlandmarkcategorysaverequest.o(.ARM.extab)
    .extab._ZN5QListIN10QtMobility17QLandmarkCategoryEE5clearEv 0x0003e10c   Data           0  qlandmarkcategorysaverequest.o(.ARM.extab)
    .extab._ZN10QtMobility22QLandmarkExportRequestC1EPNS_16QLandmarkManagerEP7QObject 0x0003e11c   Data           0  qlandmarkexportrequest.o(.ARM.extab)
    .extab._ZNK10QtMobility22QLandmarkExportRequest8fileNameEv 0x0003e12c   Data           0  qlandmarkexportrequest.o(.ARM.extab)
    .extab._ZN10QtMobility22QLandmarkExportRequest11setFileNameERK7QString 0x0003e15c   Data           0  qlandmarkexportrequest.o(.ARM.extab)
    .extab._ZNK10QtMobility22QLandmarkExportRequest6formatEv 0x0003e174   Data           0  qlandmarkexportrequest.o(.ARM.extab)
    .extab._ZN10QtMobility22QLandmarkExportRequest9setFormatERK7QString 0x0003e184   Data           0  qlandmarkexportrequest.o(.ARM.extab)
    .extab._ZNK10QtMobility22QLandmarkExportRequest11landmarkIdsEv 0x0003e194   Data           0  qlandmarkexportrequest.o(.ARM.extab)
    .extab._ZN10QtMobility22QLandmarkExportRequest14setLandmarkIdsERK5QListINS_11QLandmarkIdEE 0x0003e1a4   Data           0  qlandmarkexportrequest.o(.ARM.extab)
    .extab._ZN10QtMobility29QLandmarkExportRequestPrivateC1EPNS_16QLandmarkManagerE 0x0003e1b4   Data           0  qlandmarkexportrequest.o(.ARM.extab)
    .extab._ZN10QtMobility21QLandmarkFetchRequestC1EPNS_16QLandmarkManagerEP7QObject 0x0003e204   Data           0  qlandmarkfetchrequest.o(.ARM.extab)
    .extab._ZNK10QtMobility21QLandmarkFetchRequest6filterEv 0x0003e22c   Data           0  qlandmarkfetchrequest.o(.ARM.extab)
    .extab._ZN10QtMobility21QLandmarkFetchRequest9setFilterERKNS_15QLandmarkFilterE 0x0003e23c   Data           0  qlandmarkfetchrequest.o(.ARM.extab)
    .extab._ZNK10QtMobility21QLandmarkFetchRequest7sortingEv 0x0003e24c   Data           0  qlandmarkfetchrequest.o(.ARM.extab)
    .extab._ZN10QtMobility21QLandmarkFetchRequest10setSortingERK5QListINS_18QLandmarkSortOrderEE 0x0003e25c   Data           0  qlandmarkfetchrequest.o(.ARM.extab)
    .extab._ZN10QtMobility21QLandmarkFetchRequest10setSortingERKNS_18QLandmarkSortOrderE 0x0003e26c   Data           0  qlandmarkfetchrequest.o(.ARM.extab)
    .extab._ZNK10QtMobility21QLandmarkFetchRequest9landmarksEv 0x0003e27c   Data           0  qlandmarkfetchrequest.o(.ARM.extab)
    .extab._ZN5QListIN10QtMobility18QLandmarkSortOrderEE9node_copyEPNS2_4NodeES4_S4_ 0x0003e28c   Data           0  qlandmarkfetchrequest.o(.ARM.extab)
    .extab._ZN5QListIN10QtMobility18QLandmarkSortOrderEE13detach_helperEi 0x0003e2b0   Data           0  qlandmarkfetchrequest.o(.ARM.extab)
    .extab._ZN5QListIN10QtMobility18QLandmarkSortOrderEE14node_constructEPNS2_4NodeERKS1_ 0x0003e2cc   Data           0  qlandmarkfetchrequest.o(.ARM.extab)
    .extab._ZN5QListIN10QtMobility18QLandmarkSortOrderEE18detach_helper_growEii 0x0003e2dc   Data           0  qlandmarkfetchrequest.o(.ARM.extab)
    .extab._ZN5QListIN10QtMobility18QLandmarkSortOrderEE5clearEv 0x0003e30c   Data           0  qlandmarkfetchrequest.o(.ARM.extab)
    .extab._ZN10QtMobility25QLandmarkFetchByIdRequestC1EPNS_16QLandmarkManagerEP7QObject 0x0003e31c   Data           0  qlandmarkfetchbyidrequest.o(.ARM.extab)
    .extab._ZNK10QtMobility25QLandmarkFetchByIdRequest11landmarkIdsEv 0x0003e344   Data           0  qlandmarkfetchbyidrequest.o(.ARM.extab)
    .extab._ZN10QtMobility25QLandmarkFetchByIdRequest14setLandmarkIdsERK5QListINS_11QLandmarkIdEE 0x0003e354   Data           0  qlandmarkfetchbyidrequest.o(.ARM.extab)
    .extab._ZN10QtMobility25QLandmarkFetchByIdRequest13setLandmarkIdERKNS_11QLandmarkIdE 0x0003e364   Data           0  qlandmarkfetchbyidrequest.o(.ARM.extab)
    .extab._ZNK10QtMobility25QLandmarkFetchByIdRequest9landmarksEv 0x0003e374   Data           0  qlandmarkfetchbyidrequest.o(.ARM.extab)
    .extab._ZNK10QtMobility25QLandmarkFetchByIdRequest8errorMapEv 0x0003e384   Data           0  qlandmarkfetchbyidrequest.o(.ARM.extab)
    .extab._ZN5QListIN10QtMobility11QLandmarkIdEE9node_copyEPNS2_4NodeES4_S4_ 0x0003e394   Data           0  qlandmarkfetchbyidrequest.o(.ARM.extab)
    .extab._ZN5QListIN10QtMobility11QLandmarkIdEE13detach_helperEi 0x0003e3b8   Data           0  qlandmarkfetchbyidrequest.o(.ARM.extab)
    .extab._ZN5QListIN10QtMobility11QLandmarkIdEE5clearEv 0x0003e3d4   Data           0  qlandmarkfetchbyidrequest.o(.ARM.extab)
    .extab._ZN5QListIN10QtMobility11QLandmarkIdEE14node_constructEPNS2_4NodeERKS1_ 0x0003e3e4   Data           0  qlandmarkfetchbyidrequest.o(.ARM.extab)
    .extab._ZN5QListIN10QtMobility11QLandmarkIdEE18detach_helper_growEii 0x0003e3f4   Data           0  qlandmarkfetchbyidrequest.o(.ARM.extab)
    .extab._ZN5QListIN10QtMobility11QLandmarkIdEE6appendERKS1_ 0x0003e424   Data           0  qlandmarkfetchbyidrequest.o(.ARM.extab)
    .extab._ZN10QtMobility15QLandmarkFilterC1Ev 0x0003e454   Data           0  qlandmarkfilter.o(.ARM.extab)
    .extab._ZN10QtMobilityanERKNS_15QLandmarkFilterES2_ 0x0003e464   Data           0  qlandmarkfilter.o(.ARM.extab)
    .extab._ZN10QtMobilityorERKNS_15QLandmarkFilterES2_ 0x0003e474   Data           0  qlandmarkfilter.o(.ARM.extab)
    .extab._ZNK10QtMobility22QLandmarkFilterPrivate5cloneEv 0x0003e484   Data           0  qlandmarkfilter.o(.ARM.extab)
    .extab._ZN10QtMobility11QLandmarkIdC1Ev  0x0003e494   Data           0  qlandmarkid.o(.ARM.extab)
    .extab._ZN18QSharedDataPointerIN10QtMobility18QLandmarkIdPrivateEE13detach_helperEv 0x0003e4c4   Data           0  qlandmarkid.o(.ARM.extab)
    .extab._ZN10QtMobility18QLandmarkIdPrivateD1Ev 0x0003e4dc   Data           0  qlandmarkid.o(.ARM.extab)
    .extab._ZN10QtMobility23QLandmarkIdFetchRequestC1EPNS_16QLandmarkManagerEP7QObject 0x0003e4ec   Data           0  qlandmarkidfetchrequest.o(.ARM.extab)
    .extab._ZNK10QtMobility23QLandmarkIdFetchRequest6filterEv 0x0003e514   Data           0  qlandmarkidfetchrequest.o(.ARM.extab)
    .extab._ZN10QtMobility23QLandmarkIdFetchRequest9setFilterERKNS_15QLandmarkFilterE 0x0003e524   Data           0  qlandmarkidfetchrequest.o(.ARM.extab)
    .extab._ZNK10QtMobility23QLandmarkIdFetchRequest7sortingEv 0x0003e534   Data           0  qlandmarkidfetchrequest.o(.ARM.extab)
    .extab._ZN10QtMobility23QLandmarkIdFetchRequest10setSortingERK5QListINS_18QLandmarkSortOrderEE 0x0003e544   Data           0  qlandmarkidfetchrequest.o(.ARM.extab)
    .extab._ZN10QtMobility23QLandmarkIdFetchRequest10setSortingERKNS_18QLandmarkSortOrderE 0x0003e554   Data           0  qlandmarkidfetchrequest.o(.ARM.extab)
    .extab._ZNK10QtMobility23QLandmarkIdFetchRequest11landmarkIdsEv 0x0003e564   Data           0  qlandmarkidfetchrequest.o(.ARM.extab)
    .extab._ZN10QtMobility24QLandmarkIdFilterPrivateC1ERK5QListINS_11QLandmarkIdEE 0x0003e574   Data           0  qlandmarkidfilter.o(.ARM.extab)
    .extab._ZN10QtMobility17QLandmarkIdFilterC1ERK5QListINS_11QLandmarkIdEE 0x0003e584   Data           0  qlandmarkidfilter.o(.ARM.extab)
    .extab._ZN10QtMobility17QLandmarkIdFilterC1ERKNS_15QLandmarkFilterE 0x0003e594   Data           0  qlandmarkidfilter.o(.ARM.extab)
    .extab._ZN10QtMobility24QLandmarkIdFilterPrivateC1ERKS0_ 0x0003e5a4   Data           0  qlandmarkidfilter.o(.ARM.extab)
    .extab._ZN10QtMobility24QLandmarkIdFilterPrivateD1Ev 0x0003e5b4   Data           0  qlandmarkidfilter.o(.ARM.extab)
    .extab._ZN5QListIN10QtMobility11QLandmarkIdEE9removeAllERKS1_ 0x0003e5c4   Data           0  qlandmarkidfilter.o(.ARM.extab)
    .extab._ZN10QtMobility24QLandmarkIdFilterPrivate14copyIfPossibleER18QSharedDataPointerINS_22QLandmarkFilterPrivateEERKNS_15QLandmarkFilterE 0x0003e5d4   Data           0  qlandmarkidfilter.o(.ARM.extab)
    .extab._ZNK10QtMobility24QLandmarkIdFilterPrivate5cloneEv 0x0003e5f4   Data           0  qlandmarkidfilter.o(.ARM.extab)
    .extab._ZN10QtMobility22QLandmarkImportRequestC1EPNS_16QLandmarkManagerEP7QObject 0x0003e604   Data           0  qlandmarkimportrequest.o(.ARM.extab)
    .extab._ZNK10QtMobility22QLandmarkImportRequest8fileNameEv 0x0003e614   Data           0  qlandmarkimportrequest.o(.ARM.extab)
    .extab._ZN10QtMobility22QLandmarkImportRequest11setFileNameERK7QString 0x0003e644   Data           0  qlandmarkimportrequest.o(.ARM.extab)
    .extab._ZNK10QtMobility22QLandmarkImportRequest6formatEv 0x0003e65c   Data           0  qlandmarkimportrequest.o(.ARM.extab)
    .extab._ZN10QtMobility22QLandmarkImportRequest9setFormatERK7QString 0x0003e66c   Data           0  qlandmarkimportrequest.o(.ARM.extab)
    .extab._ZNK10QtMobility22QLandmarkImportRequest10categoryIdEv 0x0003e67c   Data           0  qlandmarkimportrequest.o(.ARM.extab)
    .extab._ZN10QtMobility22QLandmarkImportRequest13setCategoryIdERKNS_19QLandmarkCategoryIdE 0x0003e68c   Data           0  qlandmarkimportrequest.o(.ARM.extab)
    .extab._ZNK10QtMobility22QLandmarkImportRequest11landmarkIdsEv 0x0003e69c   Data           0  qlandmarkimportrequest.o(.ARM.extab)
    .extab._ZN10QtMobility29QLandmarkImportRequestPrivateC1EPNS_16QLandmarkManagerE 0x0003e6ac   Data           0  qlandmarkimportrequest.o(.ARM.extab)
    .extab._ZN10QtMobility34QLandmarkIntersectionFilterPrivateC1Ev 0x0003e714   Data           0  qlandmarkintersectionfilter.o(.ARM.extab)
    .extab._ZN10QtMobility27QLandmarkIntersectionFilterC1Ev 0x0003e724   Data           0  qlandmarkintersectionfilter.o(.ARM.extab)
    .extab._ZN10QtMobility27QLandmarkIntersectionFilterC1ERKNS_15QLandmarkFilterE 0x0003e734   Data           0  qlandmarkintersectionfilter.o(.ARM.extab)
    .extab._ZN10QtMobility27QLandmarkIntersectionFilter7prependERKNS_15QLandmarkFilterE 0x0003e744   Data           0  qlandmarkintersectionfilter.o(.ARM.extab)
    .extab._ZN10QtMobility34QLandmarkIntersectionFilterPrivateC1ERKS0_ 0x0003e774   Data           0  qlandmarkintersectionfilter.o(.ARM.extab)
    .extab._ZN10QtMobility34QLandmarkIntersectionFilterPrivateD1Ev 0x0003e784   Data           0  qlandmarkintersectionfilter.o(.ARM.extab)
    .extab._ZN5QListIN10QtMobility15QLandmarkFilterEE9node_copyEPNS2_4NodeES4_S4_ 0x0003e794   Data           0  qlandmarkintersectionfilter.o(.ARM.extab)
    .extab._ZN5QListIN10QtMobility15QLandmarkFilterEE13detach_helperEi 0x0003e7b8   Data           0  qlandmarkintersectionfilter.o(.ARM.extab)
    .extab._ZN5QListIN10QtMobility15QLandmarkFilterEE14node_constructEPNS2_4NodeERKS1_ 0x0003e7d4   Data           0  qlandmarkintersectionfilter.o(.ARM.extab)
    .extab._ZN5QListIN10QtMobility15QLandmarkFilterEE18detach_helper_growEii 0x0003e7e4   Data           0  qlandmarkintersectionfilter.o(.ARM.extab)
    .extab._ZN5QListIN10QtMobility15QLandmarkFilterEE6appendERKS1_ 0x0003e814   Data           0  qlandmarkintersectionfilter.o(.ARM.extab)
    .extab._ZN5QListIN10QtMobility15QLandmarkFilterEE9removeAllERKS1_ 0x0003e844   Data           0  qlandmarkintersectionfilter.o(.ARM.extab)
    .extab._ZN5QListIN10QtMobility15QLandmarkFilterEE5clearEv 0x0003e854   Data           0  qlandmarkintersectionfilter.o(.ARM.extab)
    .extab._ZN10QtMobility34QLandmarkIntersectionFilterPrivate14copyIfPossibleER18QSharedDataPointerINS_22QLandmarkFilterPrivateEERKNS_15QLandmarkFilterE 0x0003e864   Data           0  qlandmarkintersectionfilter.o(.ARM.extab)
    .extab._ZNK10QtMobility34QLandmarkIntersectionFilterPrivate5cloneEv 0x0003e874   Data           0  qlandmarkintersectionfilter.o(.ARM.extab)
    .extab._ZN10QtMobility16QLandmarkManagerC1EP7QObject 0x0003e884   Data           0  qlandmarkmanager.o(.ARM.extab)
    .extab._ZN10QtMobility16QLandmarkManagerC1ERK7QStringRK4QMapIS1_S1_EP7QObject 0x0003e8c4   Data           0  qlandmarkmanager.o(.ARM.extab)
    .extab._ZN10QtMobility16QLandmarkManagerD1Ev 0x0003e8e4   Data           0  qlandmarkmanager.o(.ARM.extab)
    .extab._ZN10QtMobility16QLandmarkManager14removeLandmarkERKNS_9QLandmarkE 0x0003e8fc   Data           0  qlandmarkmanager.o(.ARM.extab)
    .extab._ZN10QtMobility16QLandmarkManager15removeLandmarksERK5QListINS_9QLandmarkEE 0x0003e90c   Data           0  qlandmarkmanager.o(.ARM.extab)
    .extab._ZN10QtMobility16QLandmarkManager14removeCategoryERKNS_17QLandmarkCategoryE 0x0003e92c   Data           0  qlandmarkmanager.o(.ARM.extab)
    .extab._ZNK10QtMobility16QLandmarkManager8categoryERKNS_19QLandmarkCategoryIdE 0x0003e93c   Data           0  qlandmarkmanager.o(.ARM.extab)
    .extab._ZNK10QtMobility16QLandmarkManager10categoriesERK5QListINS_19QLandmarkCategoryIdEE 0x0003e954   Data           0  qlandmarkmanager.o(.ARM.extab)
    .extab._ZNK10QtMobility16QLandmarkManager10categoriesEiiRKNS_17QLandmarkNameSortE 0x0003e964   Data           0  qlandmarkmanager.o(.ARM.extab)
    .extab._ZNK10QtMobility16QLandmarkManager11categoryIdsEiiRKNS_17QLandmarkNameSortE 0x0003e97c   Data           0  qlandmarkmanager.o(.ARM.extab)
    .extab._ZNK10QtMobility16QLandmarkManager8landmarkERKNS_11QLandmarkIdE 0x0003e994   Data           0  qlandmarkmanager.o(.ARM.extab)
    .extab._ZNK10QtMobility16QLandmarkManager9landmarksERKNS_15QLandmarkFilterEiiRK5QListINS_18QLandmarkSortOrderEE 0x0003e9ac   Data           0  qlandmarkmanager.o(.ARM.extab)
    .extab._ZNK10QtMobility16QLandmarkManager9landmarksERKNS_15QLandmarkFilterEiiRKNS_18QLandmarkSortOrderE 0x0003e9c4   Data           0  qlandmarkmanager.o(.ARM.extab)
    .extab._ZNK10QtMobility16QLandmarkManager9landmarksERK5QListINS_11QLandmarkIdEE 0x0003e9f4   Data           0  qlandmarkmanager.o(.ARM.extab)
    .extab._ZNK10QtMobility16QLandmarkManager11landmarkIdsERKNS_15QLandmarkFilterEiiRK5QListINS_18QLandmarkSortOrderEE 0x0003ea04   Data           0  qlandmarkmanager.o(.ARM.extab)
    .extab._ZNK10QtMobility16QLandmarkManager11landmarkIdsERKNS_15QLandmarkFilterEiiRKNS_18QLandmarkSortOrderE 0x0003ea1c   Data           0  qlandmarkmanager.o(.ARM.extab)
    .extab._ZN10QtMobility16QLandmarkManager15importLandmarksERK7QStringS3_NS0_14TransferOptionERKNS_19QLandmarkCategoryIdE 0x0003ea4c   Data           0  qlandmarkmanager.o(.ARM.extab)
    .extab._ZNK10QtMobility16QLandmarkManager15exportLandmarksERK7QStringS3_RK5QListINS_11QLandmarkIdEENS0_14TransferOptionE 0x0003ea5c   Data           0  qlandmarkmanager.o(.ARM.extab)
    .extab._ZN10QtMobility16QLandmarkManager17availableManagersEv 0x0003ea6c   Data           0  qlandmarkmanager.o(.ARM.extab)
    .extab._ZN10QtMobility16QLandmarkManager8buildUriERK7QStringRK4QMapIS1_S1_Ei 0x0003ea8c   Data           0  qlandmarkmanager.o(.ARM.extab)
    .extab._ZN10QtMobility16QLandmarkManager8parseUriERK7QStringPS1_P4QMapIS1_S1_E 0x0003eb5c   Data           0  qlandmarkmanager.o(.ARM.extab)
    .extab._ZN10QtMobility16QLandmarkManager7fromUriERK7QStringP7QObject 0x0003ed24   Data           0  qlandmarkmanager.o(.ARM.extab)
    .extab._ZplRK7QStringS1_                 0x0003ed7c   Data           0  qlandmarkmanager.o(.ARM.extab)
    .extab._ZplRK7QString5QChar              0x0003ed8c   Data           0  qlandmarkmanager.o(.ARM.extab)
    .extab._ZN4QMapI7QStringS0_E11node_createEP8QMapDataPPNS2_4NodeERKS0_S8_ 0x0003ed9c   Data           0  qlandmarkmanager.o(.ARM.extab)
    .extab._ZN4QMapI7QStringS0_E13detach_helperEv 0x0003ede8   Data           0  qlandmarkmanager.o(.ARM.extab)
    .extab._ZNK4QMapI7QStringS0_E4keysEv     0x0003ee04   Data           0  qlandmarkmanager.o(.ARM.extab)
    .extab._ZN5QListIN10QtMobility18QLandmarkSortOrderEE6appendERKS1_ 0x0003ee14   Data           0  qlandmarkmanager.o(.ARM.extab)
    .extab._ZNK5QHashI7QStringPN10QtMobility29QLandmarkManagerEngineFactoryEE4keysEv 0x0003ee44   Data           0  qlandmarkmanager.o(.ARM.extab)
    .extab._ZN4QMapIiN10QtMobility16QLandmarkManager5ErrorEE5clearEv 0x0003ee54   Data           0  qlandmarkmanager.o(.ARM.extab)
    .extab._ZN10QtMobility23QLandmarkManagerPrivateC1Ev 0x0003ee64   Data           0  qlandmarkmanager_p.o(.ARM.extab)
    .extab._ZN10QtMobility17qSymbian_CheckDirERK4QDirR3RFs 0x0003ee74   Data           0  qlandmarkmanager_p.o(.ARM.extab)
    .extab._ZN10QtMobility23QLandmarkManagerPrivate20loadDynamicFactoriesEP5QHashI7QStringPNS_29QLandmarkManagerEngineFactoryEE 0x0003ee8c   Data           0  qlandmarkmanager_p.o(.ARM.extab)
    .extab._ZN10QtMobility23QLandmarkManagerPrivate19loadStaticFactoriesEP5QHashI7QStringPNS_29QLandmarkManagerEngineFactoryEE 0x0003eedc   Data           0  qlandmarkmanager_p.o(.ARM.extab)
    .extab._ZN10QtMobility23QLandmarkManagerPrivate9factoriesEb 0x0003eefc   Data           0  qlandmarkmanager_p.o(.ARM.extab)
    .extab._ZN10QtMobility23QLandmarkManagerPrivate12createEngineERK7QStringRK4QMapIS1_S1_E 0x0003ef14   Data           0  qlandmarkmanager_p.o(.ARM.extab)
    .extab._ZN5QListIPN10QtMobility29QLandmarkManagerEngineFactoryEE13detach_helperEi 0x0003efb4   Data           0  qlandmarkmanager_p.o(.ARM.extab)
    .extab._ZN5QListIPN10QtMobility29QLandmarkManagerEngineFactoryEE18detach_helper_growEii 0x0003efd0   Data           0  qlandmarkmanager_p.o(.ARM.extab)
    .extab._ZN5QListIPN10QtMobility29QLandmarkManagerEngineFactoryEE6appendERKS2_ 0x0003f000   Data           0  qlandmarkmanager_p.o(.ARM.extab)
    .extab._ZNK5QHashI7QStringPN10QtMobility29QLandmarkManagerEngineFactoryEE6valuesERKS0_ 0x0003f01c   Data           0  qlandmarkmanager_p.o(.ARM.extab)
    .extab._ZN5QHashI7QStringPN10QtMobility29QLandmarkManagerEngineFactoryEE11insertMultiERKS0_RKS3_ 0x0003f02c   Data           0  qlandmarkmanager_p.o(.ARM.extab)
    .extab._ZN10QtMobility15mobilityPluginsERK7QString 0x0003f044   Data           0  qlandmarkmanager_p.o(.ARM.extab)
    .extab._ZN5QHashI7QString15QHashDummyValueE13duplicateNodeEPN9QHashData4NodeEPv 0x0003f15c   Data           0  qlandmarkmanager_p.o(.ARM.extab)
    .extab._ZN5QHashI7QStringPN10QtMobility29QLandmarkManagerEngineFactoryEE13duplicateNodeEPN9QHashData4NodeEPv 0x0003f16c   Data           0  qlandmarkmanager_p.o(.ARM.extab)
    .extab._ZN5QHashI7QString15QHashDummyValueE6insertERKS0_RKS1_ 0x0003f17c   Data           0  qlandmarkmanager_p.o(.ARM.extab)
    .extab._ZNK10QtMobility22QLandmarkManagerEngine10managerUriEv 0x0003f18c   Data           0  qlandmarkmanagerengine.o(.ARM.extab)
    .extab._ZN10QtMobility22QLandmarkManagerEngine18updateRequestStateEPNS_24QLandmarkAbstractRequestENS1_5StateE 0x0003f1ac   Data           0  qlandmarkmanagerengine.o(.ARM.extab)
    .extab._ZN10QtMobility22QLandmarkManagerEngine28updateLandmarkIdFetchRequestEPNS_23QLandmarkIdFetchRequestERK5QListINS_11QLandmarkIdEENS_16QLandmarkManager5ErrorERK7QStringNS_24QLandmarkAbstractRequest5StateE 0x0003f1bc   Data           0  qlandmarkmanagerengine.o(.ARM.extab)
    .extab._ZN10QtMobility22QLandmarkManagerEngine26updateLandmarkFetchRequestEPNS_21QLandmarkFetchRequestERK5QListINS_9QLandmarkEENS_16QLandmarkManager5ErrorERK7QStringNS_24QLandmarkAbstractRequest5StateE 0x0003f1dc   Data           0  qlandmarkmanagerengine.o(.ARM.extab)
    .extab._ZN10QtMobility22QLandmarkManagerEngine30updateLandmarkFetchByIdRequestEPNS_25QLandmarkFetchByIdRequestERK5QListINS_9QLandmarkEENS_16QLandmarkManager5ErrorERK7QStringRK4QMapIiS9_ENS_24QLandmarkAbstractRequest5StateE 0x0003f1fc   Data           0  qlandmarkmanagerengine.o(.ARM.extab)
    .extab._ZN10QtMobility22QLandmarkManagerEngine27updateLandmarkRemoveRequestEPNS_22QLandmarkRemoveRequestENS_16QLandmarkManager5ErrorERK7QStringRK4QMapIiS4_ENS_24QLandmarkAbstractRequest5StateE 0x0003f21c   Data           0  qlandmarkmanagerengine.o(.ARM.extab)
    .extab._ZN10QtMobility22QLandmarkManagerEngine25updateLandmarkSaveRequestEPNS_20QLandmarkSaveRequestERK5QListINS_9QLandmarkEENS_16QLandmarkManager5ErrorERK7QStringRK4QMapIiS9_ENS_24QLandmarkAbstractRequest5StateE 0x0003f23c   Data           0  qlandmarkmanagerengine.o(.ARM.extab)
    .extab._ZN10QtMobility22QLandmarkManagerEngine36updateLandmarkCategoryIdFetchRequestEPNS_31QLandmarkCategoryIdFetchRequestERK5QListINS_19QLandmarkCategoryIdEENS_16QLandmarkManager5ErrorERK7QStringNS_24QLandmarkAbstractRequest5StateE 0x0003f25c   Data           0  qlandmarkmanagerengine.o(.ARM.extab)
    .extab._ZN10QtMobility22QLandmarkManagerEngine34updateLandmarkCategoryFetchRequestEPNS_29QLandmarkCategoryFetchRequestERK5QListINS_17QLandmarkCategoryEENS_16QLandmarkManager5ErrorERK7QStringNS_24QLandmarkAbstractRequest5StateE 0x0003f27c   Data           0  qlandmarkmanagerengine.o(.ARM.extab)
    .extab._ZN10QtMobility22QLandmarkManagerEngine38updateLandmarkCategoryFetchByIdRequestEPNS_33QLandmarkCategoryFetchByIdRequestERK5QListINS_17QLandmarkCategoryEENS_16QLandmarkManager5ErrorERK7QStringRK4QMapIiS9_ENS_24QLandmarkAbstractRequest5StateE 0x0003f29c   Data           0  qlandmarkmanagerengine.o(.ARM.extab)
    .extab._ZN10QtMobility22QLandmarkManagerEngine35updateLandmarkCategoryRemoveRequestEPNS_30QLandmarkCategoryRemoveRequestENS_16QLandmarkManager5ErrorERK7QStringRK4QMapIiS4_ENS_24QLandmarkAbstractRequest5StateE 0x0003f2bc   Data           0  qlandmarkmanagerengine.o(.ARM.extab)
    .extab._ZN10QtMobility22QLandmarkManagerEngine33updateLandmarkCategorySaveRequestEPNS_28QLandmarkCategorySaveRequestERK5QListINS_17QLandmarkCategoryEENS_16QLandmarkManager5ErrorERK7QStringRK4QMapIiS9_ENS_24QLandmarkAbstractRequest5StateE 0x0003f2dc   Data           0  qlandmarkmanagerengine.o(.ARM.extab)
    .extab._ZN10QtMobility22QLandmarkManagerEngine27updateLandmarkImportRequestEPNS_22QLandmarkImportRequestERK5QListINS_11QLandmarkIdEENS_16QLandmarkManager5ErrorERK7QStringNS_24QLandmarkAbstractRequest5StateE 0x0003f2fc   Data           0  qlandmarkmanagerengine.o(.ARM.extab)
    .extab._ZN10QtMobility22QLandmarkManagerEngine27updateLandmarkExportRequestEPNS_22QLandmarkExportRequestENS_16QLandmarkManager5ErrorERK7QStringNS_24QLandmarkAbstractRequest5StateE 0x0003f31c   Data           0  qlandmarkmanagerengine.o(.ARM.extab)
    .extab._ZN10QtMobility22QLandmarkManagerEngine11compareNameERKNS_9QLandmarkES3_RKNS_17QLandmarkNameSortE 0x0003f33c   Data           0  qlandmarkmanagerengine.o(.ARM.extab)
    .extab._ZN10QtMobility22QLandmarkManagerEngine15compareLandmarkERKNS_9QLandmarkES3_RK5QListINS_18QLandmarkSortOrderEE 0x0003f35c   Data           0  qlandmarkmanagerengine.o(.ARM.extab)
    .extab._ZN10QtMobility22QLandmarkManagerEngine9addSortedEP5QListINS_9QLandmarkEERKS2_RKS1_INS_18QLandmarkSortOrderEE 0x0003f36c   Data           0  qlandmarkmanagerengine.o(.ARM.extab)
    .extab._ZN10QtMobility11matchStringERK7QStringS2_6QFlagsINS_15QLandmarkFilter9MatchFlagEE 0x0003f39c   Data           0  qlandmarkmanagerengine.o(.ARM.extab)
    .extab._ZN10QtMobility20getLandmarkAttributeE7QStringRKNS_9QLandmarkE 0x0003f3bc   Data           0  qlandmarkmanagerengine.o(.ARM.extab)
    .extab._ZN10QtMobility22QLandmarkManagerEngine10testFilterERKNS_15QLandmarkFilterERKNS_9QLandmarkE 0x0003f49c   Data           0  qlandmarkmanagerengine.o(.ARM.extab)
    .extab._ZN10QtMobility22QLandmarkManagerEngine13sortLandmarksERK5QListINS_9QLandmarkEERKS1_INS_18QLandmarkSortOrderEE 0x0003f8fc   Data           0  qlandmarkmanagerengine.o(.ARM.extab)
    .extab.__sti___26_qlandmarkmanagerengine_cpp 0x0003f96c   Data           0  qlandmarkmanagerengine.o(.ARM.extab)
    .extab._Z20qForeachContainerNewI11QStringListE17QForeachContainerIT_ERKS2_ 0x0003fa34   Data           0  qlandmarkmanagerengine.o(.ARM.extab)
    .extab._ZN5QListIN10QtMobility9QLandmarkEE9node_copyEPNS2_4NodeES4_S4_ 0x0003fa44   Data           0  qlandmarkmanagerengine.o(.ARM.extab)
    .extab._ZN5QListIN10QtMobility9QLandmarkEE13detach_helperEi 0x0003fa68   Data           0  qlandmarkmanagerengine.o(.ARM.extab)
    .extab._Z20qForeachContainerNewI5QListIN10QtMobility9QLandmarkEEE17QForeachContainerIT_ERKS5_ 0x0003fa84   Data           0  qlandmarkmanagerengine.o(.ARM.extab)
    .extab._ZNK7QStringeqEPKc                0x0003fa94   Data           0  qlandmarkmanagerengine.o(.ARM.extab)
    .extab._ZN5QListIN10QtMobility9QLandmarkEE14node_constructEPNS2_4NodeERKS1_ 0x0003faa4   Data           0  qlandmarkmanagerengine.o(.ARM.extab)
    .extab._ZN5QListIN10QtMobility9QLandmarkEE18detach_helper_growEii 0x0003fab4   Data           0  qlandmarkmanagerengine.o(.ARM.extab)
    .extab._ZN5QListIN10QtMobility9QLandmarkEE6appendERKS1_ 0x0003fae4   Data           0  qlandmarkmanagerengine.o(.ARM.extab)
    .extab._ZN10QtMobility26QLandmarkNameFilterPrivateC1ERK7QString 0x0003fb14   Data           0  qlandmarknamefilter.o(.ARM.extab)
    .extab._ZN10QtMobility19QLandmarkNameFilterC1ERK7QString 0x0003fb24   Data           0  qlandmarknamefilter.o(.ARM.extab)
    .extab._ZN10QtMobility19QLandmarkNameFilterC1ERKNS_15QLandmarkFilterE 0x0003fb34   Data           0  qlandmarknamefilter.o(.ARM.extab)
    .extab._ZN10QtMobility26QLandmarkNameFilterPrivateC1ERKS0_ 0x0003fb44   Data           0  qlandmarknamefilter.o(.ARM.extab)
    .extab._ZN10QtMobility26QLandmarkNameFilterPrivateD1Ev 0x0003fb54   Data           0  qlandmarknamefilter.o(.ARM.extab)
    .extab._ZN10QtMobility26QLandmarkNameFilterPrivate14copyIfPossibleER18QSharedDataPointerINS_22QLandmarkFilterPrivateEERKNS_15QLandmarkFilterE 0x0003fb64   Data           0  qlandmarknamefilter.o(.ARM.extab)
    .extab._ZNK10QtMobility26QLandmarkNameFilterPrivate5cloneEv 0x0003fb84   Data           0  qlandmarknamefilter.o(.ARM.extab)
    .extab._ZN10QtMobility17QLandmarkNameSortC1EN2Qt9SortOrderENS1_15CaseSensitivityE 0x0003fb94   Data           0  qlandmarknamesort.o(.ARM.extab)
    .extab._ZN10QtMobility17QLandmarkNameSortC1ERKNS_18QLandmarkSortOrderE 0x0003fba4   Data           0  qlandmarknamesort.o(.ARM.extab)
    .extab._ZN10QtMobility24QLandmarkNameSortPrivate14copyIfPossibleER18QSharedDataPointerINS_25QLandmarkSortOrderPrivateEERKNS_18QLandmarkSortOrderE 0x0003fbb4   Data           0  qlandmarknamesort.o(.ARM.extab)
    .extab._ZNK10QtMobility24QLandmarkNameSortPrivate5cloneEv 0x0003fbc4   Data           0  qlandmarknamesort.o(.ARM.extab)
    .extab._ZN10QtMobility31QLandmarkProximityFilterPrivateC1ERKNS_18QGeoBoundingCircleE 0x0003fbd4   Data           0  qlandmarkproximityfilter.o(.ARM.extab)
    .extab._ZN10QtMobility24QLandmarkProximityFilterC1ERKNS_14QGeoCoordinateEf 0x0003fbe4   Data           0  qlandmarkproximityfilter.o(.ARM.extab)
    .extab._ZN10QtMobility24QLandmarkProximityFilterC1ERKNS_18QGeoBoundingCircleE 0x0003fc04   Data           0  qlandmarkproximityfilter.o(.ARM.extab)
    .extab._ZN10QtMobility24QLandmarkProximityFilterC1ERKNS_15QLandmarkFilterE 0x0003fc14   Data           0  qlandmarkproximityfilter.o(.ARM.extab)
    .extab._ZN10QtMobility31QLandmarkProximityFilterPrivateC1ERKS0_ 0x0003fc24   Data           0  qlandmarkproximityfilter.o(.ARM.extab)
    .extab._ZN10QtMobility31QLandmarkProximityFilterPrivateD1Ev 0x0003fc4c   Data           0  qlandmarkproximityfilter.o(.ARM.extab)
    .extab._ZN10QtMobility31QLandmarkProximityFilterPrivate14copyIfPossibleER18QSharedDataPointerINS_22QLandmarkFilterPrivateEERKNS_15QLandmarkFilterE 0x0003fc5c   Data           0  qlandmarkproximityfilter.o(.ARM.extab)
    .extab._ZNK10QtMobility31QLandmarkProximityFilterPrivate5cloneEv 0x0003fc7c   Data           0  qlandmarkproximityfilter.o(.ARM.extab)
    .extab._ZN10QtMobility22QLandmarkRemoveRequestC1EPNS_16QLandmarkManagerEP7QObject 0x0003fc8c   Data           0  qlandmarkremoverequest.o(.ARM.extab)
    .extab._ZNK10QtMobility22QLandmarkRemoveRequest11landmarkIdsEv 0x0003fcac   Data           0  qlandmarkremoverequest.o(.ARM.extab)
    .extab._ZN10QtMobility22QLandmarkRemoveRequest14setLandmarkIdsERK5QListINS_11QLandmarkIdEE 0x0003fcbc   Data           0  qlandmarkremoverequest.o(.ARM.extab)
    .extab._ZN10QtMobility22QLandmarkRemoveRequest13setLandmarkIdERKNS_11QLandmarkIdE 0x0003fccc   Data           0  qlandmarkremoverequest.o(.ARM.extab)
    .extab._ZN10QtMobility22QLandmarkRemoveRequest12setLandmarksERK5QListINS_9QLandmarkEE 0x0003fcdc   Data           0  qlandmarkremoverequest.o(.ARM.extab)
    .extab._ZN10QtMobility22QLandmarkRemoveRequest11setLandmarkERKNS_9QLandmarkE 0x0003fcfc   Data           0  qlandmarkremoverequest.o(.ARM.extab)
    .extab._ZNK10QtMobility22QLandmarkRemoveRequest8errorMapEv 0x0003fd1c   Data           0  qlandmarkremoverequest.o(.ARM.extab)
    .extab._ZN10QtMobility20QLandmarkSaveRequestC1EPNS_16QLandmarkManagerEP7QObject 0x0003fd2c   Data           0  qlandmarksaverequest.o(.ARM.extab)
    .extab._ZNK10QtMobility20QLandmarkSaveRequest9landmarksEv 0x0003fd4c   Data           0  qlandmarksaverequest.o(.ARM.extab)
    .extab._ZN10QtMobility20QLandmarkSaveRequest12setLandmarksERK5QListINS_9QLandmarkEE 0x0003fd5c   Data           0  qlandmarksaverequest.o(.ARM.extab)
    .extab._ZN10QtMobility20QLandmarkSaveRequest11setLandmarkERKNS_9QLandmarkE 0x0003fd6c   Data           0  qlandmarksaverequest.o(.ARM.extab)
    .extab._ZNK10QtMobility20QLandmarkSaveRequest8errorMapEv 0x0003fd7c   Data           0  qlandmarksaverequest.o(.ARM.extab)
    .extab._ZN5QListIN10QtMobility9QLandmarkEE5clearEv 0x0003fd8c   Data           0  qlandmarksaverequest.o(.ARM.extab)
    .extab._ZN10QtMobility18QLandmarkSortOrderC1Ev 0x0003fd9c   Data           0  qlandmarksortorder.o(.ARM.extab)
    .extab._ZNK10QtMobility25QLandmarkSortOrderPrivate5cloneEv 0x0003fdac   Data           0  qlandmarksortorder.o(.ARM.extab)
    .extab._ZN10QtMobility27QLandmarkUnionFilterPrivateC1Ev 0x0003fdbc   Data           0  qlandmarkunionfilter.o(.ARM.extab)
    .extab._ZN10QtMobility20QLandmarkUnionFilterC1Ev 0x0003fdcc   Data           0  qlandmarkunionfilter.o(.ARM.extab)
    .extab._ZN10QtMobility20QLandmarkUnionFilterC1ERKNS_15QLandmarkFilterE 0x0003fddc   Data           0  qlandmarkunionfilter.o(.ARM.extab)
    .extab._ZN10QtMobility20QLandmarkUnionFilter7prependERKNS_15QLandmarkFilterE 0x0003fdec   Data           0  qlandmarkunionfilter.o(.ARM.extab)
    .extab._ZN10QtMobility27QLandmarkUnionFilterPrivateC1ERKS0_ 0x0003fe1c   Data           0  qlandmarkunionfilter.o(.ARM.extab)
    .extab._ZN10QtMobility27QLandmarkUnionFilterPrivateD1Ev 0x0003fe2c   Data           0  qlandmarkunionfilter.o(.ARM.extab)
    .extab._ZN10QtMobility27QLandmarkUnionFilterPrivate14copyIfPossibleER18QSharedDataPointerINS_22QLandmarkFilterPrivateEERKNS_15QLandmarkFilterE 0x0003fe3c   Data           0  qlandmarkunionfilter.o(.ARM.extab)
    .extab._ZNK10QtMobility27QLandmarkUnionFilterPrivate5cloneEv 0x0003fe4c   Data           0  qlandmarkunionfilter.o(.ARM.extab)
    .extab._ZN10QtMobility19QGeoManeuverPrivateD1Ev 0x0003fe5c   Data           0  qgeomaneuver.o(.ARM.extab)
    .extab._ZN10QtMobility19QGeoManeuverPrivateC1Ev 0x0003fe7c   Data           0  qgeomaneuver.o(.ARM.extab)
    .extab._ZN10QtMobility12QGeoManeuverC1Ev 0x0003fe9c   Data           0  qgeomaneuver.o(.ARM.extab)
    .extab._ZN10QtMobility19QGeoManeuverPrivateC1ERKS0_ 0x0003feac   Data           0  qgeomaneuver.o(.ARM.extab)
    .extab._ZN10QtMobility19QGeoMapCircleObject6setPenERK4QPen 0x0003fecc   Data           0  qgeomapcircleobject.o(.ARM.extab)
    .extab._ZN10QtMobility19QGeoMapCircleObject9setCenterERKNS_14QGeoCoordinateE 0x0003fee4   Data           0  qgeomapcircleobject.o(.ARM.extab)
    .extab._ZN10QtMobility19QGeoMapCircleObject11qt_metacallEN11QMetaObject4CallEiPPv 0x0003fef4   Data           0  qgeomapcircleobject.o(.ARM.extab)
    .extab._ZN10QtMobility26QGeoMapCircleObjectPrivateC1Ev 0x0003ff14   Data           0  qgeomapcircleobject.o(.ARM.extab)
    .extab._ZN10QtMobility19QGeoMapCircleObjectC1Ev 0x0003ff34   Data           0  qgeomapcircleobject.o(.ARM.extab)
    .extab._ZN10QtMobility19QGeoMapCircleObjectC1ERKNS_18QGeoBoundingCircleE 0x0003ff4c   Data           0  qgeomapcircleobject.o(.ARM.extab)
    .extab._ZN10QtMobility19QGeoMapCircleObjectC1ERKNS_14QGeoCoordinateEf 0x0003ff6c   Data           0  qgeomapcircleobject.o(.ARM.extab)
    .extab._ZN10QtMobility26QGeoMapCircleObjectPrivateD1Ev 0x0003ff9c   Data           0  qgeomapcircleobject.o(.ARM.extab)
    .extab._ZN10QtMobility19QGeoMapCircleObjectD1Ev 0x0003ffb4   Data           0  qgeomapcircleobject.o(.ARM.extab)
    .extab._ZN10QtMobility19QGeoMapCircleObject9setCircleERKNS_18QGeoBoundingCircleE 0x0003ffc4   Data           0  qgeomapcircleobject.o(.ARM.extab)
    .extab._ZN10QtMobility11QGeoMapData11qt_metacallEN11QMetaObject4CallEiPPv 0x0004000c   Data           0  qgeomapdata.o(.ARM.extab)
    .extab._ZN10QtMobility18QGeoMapDataPrivateC1EPNS_11QGeoMapDataEPNS_24QGeoMappingManagerEngineE 0x0004001c   Data           0  qgeomapdata.o(.ARM.extab)
    .extab._ZN10QtMobility11QGeoMapDataC2EPNS_24QGeoMappingManagerEngineE 0x0004002c   Data           0  qgeomapdata.o(.ARM.extab)
    .extab._ZN10QtMobility11QGeoMapDataD2Ev  0x0004006c   Data           0  qgeomapdata.o(.ARM.extab)
    .extab._ZN10QtMobility11QGeoMapData4initEv 0x0004007c   Data           0  qgeomapdata.o(.ARM.extab)
    .extab._ZN10QtMobility11QGeoMapData3panEii 0x0004008c   Data           0  qgeomapdata.o(.ARM.extab)
    .extab._ZNK10QtMobility11QGeoMapData26mapObjectsAtScreenPositionERK7QPointF 0x000400a4   Data           0  qgeomapdata.o(.ARM.extab)
    .extab._ZNK10QtMobility11QGeoMapData22mapObjectsInScreenRectERK6QRectF 0x000400e4   Data           0  qgeomapdata.o(.ARM.extab)
    .extab._ZN10QtMobility18QGeoMapDataPrivateD1Ev 0x00040154   Data           0  qgeomapdata.o(.ARM.extab)
    .extab._ZN5QListIPN10QtMobility13QGeoMapObjectEE18detach_helper_growEii 0x0004016c   Data           0  qgeomapdata.o(.ARM.extab)
    .extab._ZN5QListIPN10QtMobility13QGeoMapObjectEE6appendERKS2_ 0x0004019c   Data           0  qgeomapdata.o(.ARM.extab)
    .extab._ZN5QListIPN10QtMobility14QGeoMapOverlayEE13detach_helperEi 0x000401b8   Data           0  qgeomapdata.o(.ARM.extab)
    .extab._ZN5QListIPN10QtMobility14QGeoMapOverlayEE18detach_helper_growEii 0x000401d4   Data           0  qgeomapdata.o(.ARM.extab)
    .extab._ZN5QListIPN10QtMobility14QGeoMapOverlayEE6appendERKS2_ 0x00040204   Data           0  qgeomapdata.o(.ARM.extab)
    .extab._ZN5QListIPN10QtMobility14QGeoMapOverlayEE5clearEv 0x00040220   Data           0  qgeomapdata.o(.ARM.extab)
    .extab._ZN10QtMobility18QGeoMapGroupObjectC1Ev 0x00040230   Data           0  qgeomapgroupobject.o(.ARM.extab)
    .extab._ZN10QtMobility25QGeoMapGroupObjectPrivateD1Ev 0x00040248   Data           0  qgeomapgroupobject.o(.ARM.extab)
    .extab._ZN10QtMobility18QGeoMapGroupObjectD1Ev 0x00040258   Data           0  qgeomapgroupobject.o(.ARM.extab)
    .extab._ZNK10QtMobility18QGeoMapGroupObject11boundingBoxEv 0x00040268   Data           0  qgeomapgroupobject.o(.ARM.extab)
    .extab._ZN5QListIPN10QtMobility13QGeoMapObjectEE13detach_helperEi 0x000402a8   Data           0  qgeomapgroupobject.o(.ARM.extab)
    .extab._ZN5QListIPN10QtMobility13QGeoMapObjectEE5clearEv 0x000402c4   Data           0  qgeomapgroupobject.o(.ARM.extab)
    .extab._ZN10QtMobility13QGeoMapObjectC1EPNS_11QGeoMapDataE 0x000402d4   Data           0  qgeomapobject.o(.ARM.extab)
    .extab._ZN10QtMobility13QGeoMapObjectD1Ev 0x000402f4   Data           0  qgeomapobject.o(.ARM.extab)
    .extab._ZN10QtMobility17QGeoMapObjectInfoC1EPNS_11QGeoMapDataEPNS_13QGeoMapObjectE 0x00040304   Data           0  qgeomapobjectinfo.o(.ARM.extab)
    .extab._ZN10QtMobility17QGeoMapObjectInfoD1Ev 0x0004031c   Data           0  qgeomapobjectinfo.o(.ARM.extab)
    .extab._ZN10QtMobility14QGeoMapOverlayC2Ev 0x0004032c   Data           0  qgeomapoverlay.o(.ARM.extab)
    .extab._ZN10QtMobility18QGeoMappingManagerD1Ev 0x0004033c   Data           0  qgeomappingmanager.o(.ARM.extab)
    .extab._ZN10QtMobility18QGeoMappingManagerC1EPNS_24QGeoMappingManagerEngineEP7QObject 0x0004034c   Data           0  qgeomappingmanager.o(.ARM.extab)
    .extab._ZN10QtMobility31QGeoMappingManagerEnginePrivateC1Ev 0x0004036c   Data           0  qgeomappingmanagerengine.o(.ARM.extab)
    .extab._ZN10QtMobility24QGeoMappingManagerEngineC2ERK4QMapI7QString8QVariantEP7QObject 0x0004038c   Data           0  qgeomappingmanagerengine.o(.ARM.extab)
    .extab._ZN10QtMobility24QGeoMappingManagerEngineD2Ev 0x000403a4   Data           0  qgeomappingmanagerengine.o(.ARM.extab)
    .extab._ZN10QtMobility31QGeoMappingManagerEnginePrivateD1Ev 0x000403b4   Data           0  qgeomappingmanagerengine.o(.ARM.extab)
    .extab._ZN5QListIN10QtMobility15QGraphicsGeoMap7MapTypeEE13detach_helperEi 0x000403cc   Data           0  qgeomappingmanagerengine.o(.ARM.extab)
    .extab._ZN5QListIN10QtMobility15QGraphicsGeoMap16ConnectivityModeEE13detach_helperEi 0x00040408   Data           0  qgeomappingmanagerengine.o(.ARM.extab)
    .extab._ZN10QtMobility19QGeoMapPixmapObject9setPixmapERK7QPixmap 0x00040444   Data           0  qgeomappixmapobject.o(.ARM.extab)
    .extab._ZN10QtMobility19QGeoMapPixmapObject11qt_metacallEN11QMetaObject4CallEiPPv 0x00040464   Data           0  qgeomappixmapobject.o(.ARM.extab)
    .extab._ZN10QtMobility26QGeoMapPixmapObjectPrivateC1Ev 0x0004047c   Data           0  qgeomappixmapobject.o(.ARM.extab)
    .extab._ZN10QtMobility19QGeoMapPixmapObjectC1Ev 0x0004048c   Data           0  qgeomappixmapobject.o(.ARM.extab)
    .extab._ZN10QtMobility19QGeoMapPixmapObjectC1ERKNS_14QGeoCoordinateERK6QPointRK7QPixmap 0x000404a4   Data           0  qgeomappixmapobject.o(.ARM.extab)
    .extab._ZN10QtMobility26QGeoMapPixmapObjectPrivateD1Ev 0x000404c4   Data           0  qgeomappixmapobject.o(.ARM.extab)
    .extab._ZN10QtMobility19QGeoMapPixmapObjectD1Ev 0x000404d4   Data           0  qgeomappixmapobject.o(.ARM.extab)
    .extab._ZN10QtMobility20QGeoMapPolygonObject6setPenERK4QPen 0x000404e4   Data           0  qgeomappolygonobject.o(.ARM.extab)
    .extab._ZN10QtMobility20QGeoMapPolygonObject11qt_metacallEN11QMetaObject4CallEiPPv 0x000404fc   Data           0  qgeomappolygonobject.o(.ARM.extab)
    .extab._ZN10QtMobility27QGeoMapPolygonObjectPrivateC1Ev 0x0004051c   Data           0  qgeomappolygonobject.o(.ARM.extab)
    .extab._ZN10QtMobility20QGeoMapPolygonObjectC1Ev 0x0004053c   Data           0  qgeomappolygonobject.o(.ARM.extab)
    .extab._ZN10QtMobility27QGeoMapPolygonObjectPrivateD1Ev 0x00040554   Data           0  qgeomappolygonobject.o(.ARM.extab)
    .extab._ZN10QtMobility20QGeoMapPolygonObjectD1Ev 0x0004056c   Data           0  qgeomappolygonobject.o(.ARM.extab)
    .extab._ZN10QtMobility21QGeoMapPolylineObject6setPenERK4QPen 0x0004057c   Data           0  qgeomappolylineobject.o(.ARM.extab)
    .extab._ZN10QtMobility21QGeoMapPolylineObject11qt_metacallEN11QMetaObject4CallEiPPv 0x00040594   Data           0  qgeomappolylineobject.o(.ARM.extab)
    .extab._ZN10QtMobility28QGeoMapPolylineObjectPrivateC1Ev 0x000405ac   Data           0  qgeomappolylineobject.o(.ARM.extab)
    .extab._ZN10QtMobility21QGeoMapPolylineObjectC1Ev 0x000405c4   Data           0  qgeomappolylineobject.o(.ARM.extab)
    .extab._ZN10QtMobility28QGeoMapPolylineObjectPrivateD1Ev 0x000405dc   Data           0  qgeomappolylineobject.o(.ARM.extab)
    .extab._ZN10QtMobility21QGeoMapPolylineObjectD1Ev 0x000405ec   Data           0  qgeomappolylineobject.o(.ARM.extab)
    .extab._ZN10QtMobility22QGeoMapRectangleObject6setPenERK4QPen 0x000405fc   Data           0  qgeomaprectangleobject.o(.ARM.extab)
    .extab._ZN10QtMobility22QGeoMapRectangleObject14setBottomRightERKNS_14QGeoCoordinateE 0x00040614   Data           0  qgeomaprectangleobject.o(.ARM.extab)
    .extab._ZN10QtMobility22QGeoMapRectangleObject10setTopLeftERKNS_14QGeoCoordinateE 0x0004062c   Data           0  qgeomaprectangleobject.o(.ARM.extab)
    .extab._ZN10QtMobility22QGeoMapRectangleObject11qt_metacallEN11QMetaObject4CallEiPPv 0x00040644   Data           0  qgeomaprectangleobject.o(.ARM.extab)
    .extab._ZN10QtMobility29QGeoMapRectangleObjectPrivateC1Ev 0x0004066c   Data           0  qgeomaprectangleobject.o(.ARM.extab)
    .extab._ZN10QtMobility22QGeoMapRectangleObjectC1Ev 0x0004068c   Data           0  qgeomaprectangleobject.o(.ARM.extab)
    .extab._ZN10QtMobility22QGeoMapRectangleObjectC1ERKNS_15QGeoBoundingBoxE 0x000406a4   Data           0  qgeomaprectangleobject.o(.ARM.extab)
    .extab._ZN10QtMobility22QGeoMapRectangleObjectC1ERKNS_14QGeoCoordinateES3_ 0x000406c4   Data           0  qgeomaprectangleobject.o(.ARM.extab)
    .extab._ZN10QtMobility29QGeoMapRectangleObjectPrivateD1Ev 0x000406f4   Data           0  qgeomaprectangleobject.o(.ARM.extab)
    .extab._ZN10QtMobility22QGeoMapRectangleObjectD1Ev 0x0004070c   Data           0  qgeomaprectangleobject.o(.ARM.extab)
    .extab._ZN10QtMobility22QGeoMapRectangleObject9setBoundsERKNS_15QGeoBoundingBoxE 0x0004071c   Data           0  qgeomaprectangleobject.o(.ARM.extab)
    .extab._ZN10QtMobility18QGeoMapRouteObject6setPenERK4QPen 0x00040794   Data           0  qgeomaprouteobject.o(.ARM.extab)
    .extab._ZN10QtMobility18QGeoMapRouteObject11qt_metacallEN11QMetaObject4CallEiPPv 0x000407ac   Data           0  qgeomaprouteobject.o(.ARM.extab)
    .extab._ZN10QtMobility25QGeoMapRouteObjectPrivateC1Ev 0x000407c4   Data           0  qgeomaprouteobject.o(.ARM.extab)
    .extab._ZN10QtMobility18QGeoMapRouteObjectC1Ev 0x000407dc   Data           0  qgeomaprouteobject.o(.ARM.extab)
    .extab._ZN10QtMobility18QGeoMapRouteObjectC1ERKNS_9QGeoRouteE 0x000407f4   Data           0  qgeomaprouteobject.o(.ARM.extab)
    .extab._ZN10QtMobility25QGeoMapRouteObjectPrivateD1Ev 0x00040814   Data           0  qgeomaprouteobject.o(.ARM.extab)
    .extab._ZN10QtMobility18QGeoMapRouteObjectD1Ev 0x00040824   Data           0  qgeomaprouteobject.o(.ARM.extab)
    .extab._ZN10QtMobility17QGeoMapTextObject6setPenERK4QPen 0x00040834   Data           0  qgeomaptextobject.o(.ARM.extab)
    .extab._ZN10QtMobility17QGeoMapTextObject11qt_metacallEN11QMetaObject4CallEiPPv 0x0004084c   Data           0  qgeomaptextobject.o(.ARM.extab)
    .extab._ZN10QtMobility24QGeoMapTextObjectPrivateC1Ev 0x0004087c   Data           0  qgeomaptextobject.o(.ARM.extab)
    .extab._ZN10QtMobility17QGeoMapTextObjectC1Ev 0x000408ac   Data           0  qgeomaptextobject.o(.ARM.extab)
    .extab._ZN10QtMobility17QGeoMapTextObjectC1ERKNS_14QGeoCoordinateERK7QStringRK5QFontRK6QPoint6QFlagsIN2Qt13AlignmentFlagEE 0x000408c4   Data           0  qgeomaptextobject.o(.ARM.extab)
    .extab._ZN10QtMobility24QGeoMapTextObjectPrivateD1Ev 0x000408e4   Data           0  qgeomaptextobject.o(.ARM.extab)
    .extab._ZN10QtMobility17QGeoMapTextObjectD1Ev 0x0004090c   Data           0  qgeomaptextobject.o(.ARM.extab)
    .extab._ZN10QtMobility16QGeoRoutePrivateD1Ev 0x0004091c   Data           0  qgeoroute.o(.ARM.extab)
    .extab._ZN10QtMobility16QGeoRoutePrivateC1Ev 0x00040944   Data           0  qgeoroute.o(.ARM.extab)
    .extab._ZN10QtMobility9QGeoRouteC1Ev     0x0004097c   Data           0  qgeoroute.o(.ARM.extab)
    .extab._ZN10QtMobility16QGeoRoutePrivateC1ERKS0_ 0x0004098c   Data           0  qgeoroute.o(.ARM.extab)
    .extab._ZNK10QtMobility16QGeoRoutePrivateeqERKS0_ 0x000409b4   Data           0  qgeoroute.o(.ARM.extab)
    .extab._ZN10QtMobility14QGeoRouteReply11qt_metacallEN11QMetaObject4CallEiPPv 0x00040a14   Data           0  qgeoroutereply.o(.ARM.extab)
    .extab._ZN10QtMobility21QGeoRouteReplyPrivateC1ENS_14QGeoRouteReply5ErrorE7QString 0x00040a24   Data           0  qgeoroutereply.o(.ARM.extab)
    .extab._ZN10QtMobility14QGeoRouteReplyC1ENS0_5ErrorERK7QStringP7QObject 0x00040a4c   Data           0  qgeoroutereply.o(.ARM.extab)
    .extab._ZN10QtMobility21QGeoRouteReplyPrivateD1Ev 0x00040a74   Data           0  qgeoroutereply.o(.ARM.extab)
    .extab._ZN10QtMobility14QGeoRouteReplyD1Ev 0x00040a8c   Data           0  qgeoroutereply.o(.ARM.extab)
    .extab._ZN10QtMobility21QGeoRouteReplyPrivateC1ERKNS_16QGeoRouteRequestE 0x00040a9c   Data           0  qgeoroutereply.o(.ARM.extab)
    .extab._ZN10QtMobility14QGeoRouteReplyC1ERKNS_16QGeoRouteRequestEP7QObject 0x00040ab4   Data           0  qgeoroutereply.o(.ARM.extab)
    .extab._ZN5QListIN10QtMobility9QGeoRouteEE13detach_helperEi 0x00040acc   Data           0  qgeoroutereply.o(.ARM.extab)
    .extab._ZN10QtMobility23QGeoRouteRequestPrivateD1Ev 0x00040b10   Data           0  qgeorouterequest.o(.ARM.extab)
    .extab._ZN10QtMobility23QGeoRouteRequestPrivateC1Ev 0x00040b28   Data           0  qgeorouterequest.o(.ARM.extab)
    .extab._ZN10QtMobility16QGeoRouteRequestC1ERK5QListINS_14QGeoCoordinateEE 0x00040b40   Data           0  qgeorouterequest.o(.ARM.extab)
    .extab._ZN10QtMobility16QGeoRouteRequestC1ERKNS_14QGeoCoordinateES3_ 0x00040b50   Data           0  qgeorouterequest.o(.ARM.extab)
    .extab._ZN10QtMobility23QGeoRouteRequestPrivateC1ERKS0_ 0x00040b60   Data           0  qgeorouterequest.o(.ARM.extab)
    .extab._ZN5QListIN10QtMobility14QGeoCoordinateEE9node_copyEPNS2_4NodeES4_S4_ 0x00040b78   Data           0  qgeorouterequest.o(.ARM.extab)
    .extab._ZN5QListIN10QtMobility14QGeoCoordinateEE13detach_helperEi 0x00040b9c   Data           0  qgeorouterequest.o(.ARM.extab)
    .extab._ZN5QListIN10QtMobility14QGeoCoordinateEE14node_constructEPNS2_4NodeERKS1_ 0x00040bb8   Data           0  qgeorouterequest.o(.ARM.extab)
    .extab._ZN5QListIN10QtMobility14QGeoCoordinateEE18detach_helper_growEii 0x00040bc8   Data           0  qgeorouterequest.o(.ARM.extab)
    .extab._ZN5QListIN10QtMobility14QGeoCoordinateEE6appendERKS1_ 0x00040bf8   Data           0  qgeorouterequest.o(.ARM.extab)
    .extab._ZN5QListIN10QtMobility16QGeoRouteRequest11FeatureTypeEE9node_copyEPNS3_4NodeES5_S5_ 0x00040c28   Data           0  qgeorouterequest.o(.ARM.extab)
    .extab._ZN5QListIN10QtMobility16QGeoRouteRequest11FeatureTypeEE13detach_helperEi 0x00040c44   Data           0  qgeorouterequest.o(.ARM.extab)
    .extab._ZN5QListIN10QtMobility16QGeoRouteRequest11FeatureTypeEE18detach_helper_growEii 0x00040c60   Data           0  qgeorouterequest.o(.ARM.extab)
    .extab._ZN5QListIN10QtMobility16QGeoRouteRequest11FeatureTypeEE6appendERKS2_ 0x00040c90   Data           0  qgeorouterequest.o(.ARM.extab)
    .extab._ZN5QListIN10QtMobility15QGeoBoundingBoxEE13detach_helperEi 0x00040cc0   Data           0  qgeorouterequest.o(.ARM.extab)
    .extab._ZN4QMapIN10QtMobility16QGeoRouteRequest11FeatureTypeENS1_13FeatureWeightEE13detach_helperEv 0x00040d04   Data           0  qgeorouterequest.o(.ARM.extab)
    .extab._ZNK4QMapIN10QtMobility16QGeoRouteRequest11FeatureTypeENS1_13FeatureWeightEE4keysEv 0x00040d20   Data           0  qgeorouterequest.o(.ARM.extab)
    .extab._ZN10QtMobility23QGeoRouteSegmentPrivateD1Ev 0x00040d30   Data           0  qgeoroutesegment.o(.ARM.extab)
    .extab._ZN10QtMobility23QGeoRouteSegmentPrivateC1Ev 0x00040d50   Data           0  qgeoroutesegment.o(.ARM.extab)
    .extab._ZN10QtMobility16QGeoRouteSegmentC1Ev 0x00040d60   Data           0  qgeoroutesegment.o(.ARM.extab)
    .extab._ZNK10QtMobility16QGeoRouteSegment16nextRouteSegmentEv 0x00040d70   Data           0  qgeoroutesegment.o(.ARM.extab)
    .extab._ZN10QtMobility23QGeoRouteSegmentPrivateC1ERKS0_ 0x00040d80   Data           0  qgeoroutesegment.o(.ARM.extab)
    .extab._ZN10QtMobility18QGeoRoutingManager11qt_metacallEN11QMetaObject4CallEiPPv 0x00040d98   Data           0  qgeoroutingmanager.o(.ARM.extab)
    .extab._ZN10QtMobility18QGeoRoutingManagerD1Ev 0x00040db0   Data           0  qgeoroutingmanager.o(.ARM.extab)
    .extab._ZN10QtMobility18QGeoRoutingManagerC1EPNS_24QGeoRoutingManagerEngineEP7QObject 0x00040dc0   Data           0  qgeoroutingmanager.o(.ARM.extab)
    .extab._ZN10QtMobility24QGeoRoutingManagerEngine11qt_metacallEN11QMetaObject4CallEiPPv 0x00040de0   Data           0  qgeoroutingmanagerengine.o(.ARM.extab)
    .extab._ZN10QtMobility31QGeoRoutingManagerEnginePrivateC1Ev 0x00040df8   Data           0  qgeoroutingmanagerengine.o(.ARM.extab)
    .extab._ZN10QtMobility24QGeoRoutingManagerEngineC2ERK4QMapI7QString8QVariantEP7QObject 0x00040e08   Data           0  qgeoroutingmanagerengine.o(.ARM.extab)
    .extab._ZN10QtMobility24QGeoRoutingManagerEngineD2Ev 0x00040e20   Data           0  qgeoroutingmanagerengine.o(.ARM.extab)
    .extab._ZN10QtMobility24QGeoRoutingManagerEngine11updateRouteERKNS_9QGeoRouteERKNS_14QGeoCoordinateE 0x00040e30   Data           0  qgeoroutingmanagerengine.o(.ARM.extab)
    .extab._ZN10QtMobility17QGeoSearchManager11qt_metacallEN11QMetaObject4CallEiPPv 0x00040e50   Data           0  qgeosearchmanager.o(.ARM.extab)
    .extab._ZN10QtMobility17QGeoSearchManagerD1Ev 0x00040e68   Data           0  qgeosearchmanager.o(.ARM.extab)
    .extab._ZN10QtMobility24QGeoCombiningSearchReplyC1EPNS_15QGeoSearchReplyE5QListIPNS_21QLandmarkFetchRequestEEP7QObject 0x00040e78   Data           0  qgeosearchmanager.o(.ARM.extab)
    .extab._ZN10QtMobility17QGeoSearchManager6searchERK7QString6QFlagsINS0_10SearchTypeEEiiPNS_16QGeoBoundingAreaE 0x00040e90   Data           0  qgeosearchmanager.o(.ARM.extab)
    .extab._ZN10QtMobility17QGeoSearchManagerC1EPNS_23QGeoSearchManagerEngineEP7QObject 0x00040f60   Data           0  qgeosearchmanager.o(.ARM.extab)
    .extab._ZN10QtMobility24QGeoCombiningSearchReply25landmarkFetchStateChangedENS_24QLandmarkAbstractRequest5StateE 0x00040f80   Data           0  qgeosearchmanager.o(.ARM.extab)
    .extab._ZN10QtMobility24QGeoCombiningSearchReply19searchReplyFinishedEv 0x00040f98   Data           0  qgeosearchmanager.o(.ARM.extab)
    .extab._ZN10QtMobility24QGeoCombiningSearchReplyD1Ev 0x00040fb0   Data           0  qgeosearchmanager.o(.ARM.extab)
    .extab._ZN5QListIPN10QtMobility21QLandmarkFetchRequestEE13detach_helperEi 0x00040fc8   Data           0  qgeosearchmanager.o(.ARM.extab)
    .extab._ZN5QListIPN10QtMobility21QLandmarkFetchRequestEE18detach_helper_growEii 0x00040fe4   Data           0  qgeosearchmanager.o(.ARM.extab)
    .extab._ZN5QListIPN10QtMobility21QLandmarkFetchRequestEE6appendERKS2_ 0x00041014   Data           0  qgeosearchmanager.o(.ARM.extab)
    .extab._ZN5QListIPN10QtMobility21QLandmarkFetchRequestEE5clearEv 0x00041030   Data           0  qgeosearchmanager.o(.ARM.extab)
    .extab._ZN10QtMobility23QGeoSearchManagerEngine11qt_metacallEN11QMetaObject4CallEiPPv 0x00041040   Data           0  qgeosearchmanagerengine.o(.ARM.extab)
    .extab._ZN10QtMobility30QGeoSearchManagerEnginePrivateC1Ev 0x00041058   Data           0  qgeosearchmanagerengine.o(.ARM.extab)
    .extab._ZN10QtMobility23QGeoSearchManagerEngineC1ERK4QMapI7QString8QVariantEP7QObject 0x00041070   Data           0  qgeosearchmanagerengine.o(.ARM.extab)
    .extab._ZN10QtMobility30QGeoSearchManagerEnginePrivateD1Ev 0x00041088   Data           0  qgeosearchmanagerengine.o(.ARM.extab)
    .extab._ZN10QtMobility23QGeoSearchManagerEngineD1Ev 0x000410a0   Data           0  qgeosearchmanagerengine.o(.ARM.extab)
    .extab._ZN10QtMobility23QGeoSearchManagerEngine7geocodeERKNS_11QGeoAddressEPNS_16QGeoBoundingAreaE 0x000410b0   Data           0  qgeosearchmanagerengine.o(.ARM.extab)
    .extab._ZN10QtMobility23QGeoSearchManagerEngine14reverseGeocodeERKNS_14QGeoCoordinateEPNS_16QGeoBoundingAreaE 0x000410d0   Data           0  qgeosearchmanagerengine.o(.ARM.extab)
    .extab._ZN10QtMobility23QGeoSearchManagerEngine6searchERK7QString6QFlagsINS_17QGeoSearchManager10SearchTypeEEiiPNS_16QGeoBoundingAreaE 0x000410f0   Data           0  qgeosearchmanagerengine.o(.ARM.extab)
    .extab._ZN5QListIPN10QtMobility16QLandmarkManagerEE18detach_helper_growEii 0x00041110   Data           0  qgeosearchmanagerengine.o(.ARM.extab)
    .extab._ZN5QListIPN10QtMobility16QLandmarkManagerEE6appendERKS2_ 0x00041140   Data           0  qgeosearchmanagerengine.o(.ARM.extab)
    .extab._ZN5QListIPN10QtMobility16QLandmarkManagerEE13detach_helperEi 0x0004115c   Data           0  qgeosearchmanagerengine.o(.ARM.extab)
    .extab._ZN10QtMobility15QGeoSearchReply11qt_metacallEN11QMetaObject4CallEiPPv 0x00041178   Data           0  qgeosearchreply.o(.ARM.extab)
    .extab._ZN10QtMobility22QGeoSearchReplyPrivateC1ENS_15QGeoSearchReply5ErrorERK7QString 0x00041188   Data           0  qgeosearchreply.o(.ARM.extab)
    .extab._ZN10QtMobility15QGeoSearchReplyC1ENS0_5ErrorERK7QStringP7QObject 0x00041198   Data           0  qgeosearchreply.o(.ARM.extab)
    .extab._ZN10QtMobility22QGeoSearchReplyPrivateD1Ev 0x000411b0   Data           0  qgeosearchreply.o(.ARM.extab)
    .extab._ZN10QtMobility15QGeoSearchReplyD1Ev 0x000411c0   Data           0  qgeosearchreply.o(.ARM.extab)
    .extab._ZN10QtMobility22QGeoSearchReplyPrivateC1Ev 0x000411d0   Data           0  qgeosearchreply.o(.ARM.extab)
    .extab._ZN10QtMobility15QGeoSearchReplyC1EP7QObject 0x000411e0   Data           0  qgeosearchreply.o(.ARM.extab)
    .extab._ZN5QListIN10QtMobility9QGeoPlaceEE9node_copyEPNS2_4NodeES4_S4_ 0x000411f8   Data           0  qgeosearchreply.o(.ARM.extab)
    .extab._ZN5QListIN10QtMobility9QGeoPlaceEE13detach_helperEi 0x0004121c   Data           0  qgeosearchreply.o(.ARM.extab)
    .extab._ZN5QListIN10QtMobility9QGeoPlaceEE14node_constructEPNS2_4NodeERKS1_ 0x00041238   Data           0  qgeosearchreply.o(.ARM.extab)
    .extab._ZN5QListIN10QtMobility9QGeoPlaceEE18detach_helper_growEii 0x00041248   Data           0  qgeosearchreply.o(.ARM.extab)
    .extab._ZN5QListIN10QtMobility9QGeoPlaceEE6appendERKS1_ 0x00041278   Data           0  qgeosearchreply.o(.ARM.extab)
    .extab._ZN10QtMobility17qSymbian_CheckDirERK4QDirR3RFs 0x000412a8   Data           0  qgeoserviceprovider.o(.ARM.extab)
    .extab._ZN10QtMobility26QGeoServiceProviderPrivate18loadDynamicPluginsEP5QHashI7QStringPNS_26QGeoServiceProviderFactoryEE 0x000412c0   Data           0  qgeoserviceprovider.o(.ARM.extab)
    .extab._ZN10QtMobility26QGeoServiceProviderPrivate17loadStaticPluginsEP5QHashI7QStringPNS_26QGeoServiceProviderFactoryEE 0x00041310   Data           0  qgeoserviceprovider.o(.ARM.extab)
    .extab._ZN10QtMobility26QGeoServiceProviderPrivate7pluginsEb 0x00041330   Data           0  qgeoserviceprovider.o(.ARM.extab)
    .extab._ZN10QtMobility19QGeoServiceProvider25availableServiceProvidersEv 0x00041348   Data           0  qgeoserviceprovider.o(.ARM.extab)
    .extab._ZN10QtMobility26QGeoServiceProviderPrivate10loadPluginERK7QStringRK4QMapIS1_8QVariantE 0x00041368   Data           0  qgeoserviceprovider.o(.ARM.extab)
    .extab._ZN10QtMobility26QGeoServiceProviderPrivateC1Ev 0x000413b0   Data           0  qgeoserviceprovider.o(.ARM.extab)
    .extab._ZN10QtMobility19QGeoServiceProviderC1ERK7QStringRK4QMapIS1_8QVariantE 0x000413d8   Data           0  qgeoserviceprovider.o(.ARM.extab)
    .extab._ZN10QtMobility26QGeoServiceProviderPrivateD1Ev 0x000413e8   Data           0  qgeoserviceprovider.o(.ARM.extab)
    .extab._ZNK10QtMobility19QGeoServiceProvider13searchManagerEv 0x00041418   Data           0  qgeoserviceprovider.o(.ARM.extab)
    .extab._ZNK10QtMobility19QGeoServiceProvider14mappingManagerEv 0x00041430   Data           0  qgeoserviceprovider.o(.ARM.extab)
    .extab._ZNK10QtMobility19QGeoServiceProvider14routingManagerEv 0x00041448   Data           0  qgeoserviceprovider.o(.ARM.extab)
    .extab._ZN4QMapI7QString8QVariantE13detach_helperEv 0x00041460   Data           0  qgeoserviceprovider.o(.ARM.extab)
    .extab._ZN5QListI7QStringEpLERKS1_       0x0004147c   Data           0  qgeoserviceprovider.o(.ARM.extab)
    .extab._ZNK5QHashI7QStringPN10QtMobility26QGeoServiceProviderFactoryEE4keysEv 0x00041498   Data           0  qgeoserviceprovider.o(.ARM.extab)
    .extab._ZN5QListIPN10QtMobility26QGeoServiceProviderFactoryEE18detach_helper_growEii 0x000414a8   Data           0  qgeoserviceprovider.o(.ARM.extab)
    .extab._ZN5QListIPN10QtMobility26QGeoServiceProviderFactoryEE6appendERKS2_ 0x000414d8   Data           0  qgeoserviceprovider.o(.ARM.extab)
    .extab._ZNK5QHashI7QStringPN10QtMobility26QGeoServiceProviderFactoryEE6valuesERKS0_ 0x000414f4   Data           0  qgeoserviceprovider.o(.ARM.extab)
    .extab._ZN5QHashI7QStringPN10QtMobility26QGeoServiceProviderFactoryEE11insertMultiERKS0_RKS3_ 0x00041504   Data           0  qgeoserviceprovider.o(.ARM.extab)
    .extab._ZN5QListIPN10QtMobility26QGeoServiceProviderFactoryEE13detach_helperEi 0x0004151c   Data           0  qgeoserviceprovider.o(.ARM.extab)
    .extab._ZN4QMapI7QString8QVariantE11node_createEP8QMapDataPPNS3_4NodeERKS0_RKS1_ 0x00041538   Data           0  qgeoserviceprovider.o(.ARM.extab)
    .extab._ZN5QHashI7QStringPN10QtMobility26QGeoServiceProviderFactoryEE13duplicateNodeEPN9QHashData4NodeEPv 0x00041584   Data           0  qgeoserviceprovider.o(.ARM.extab)
    .extab._ZN10QtMobility15QGraphicsGeoMap19setConnectivityModeENS0_16ConnectivityModeE 0x00041594   Data           0  qgraphicsgeomap.o(.ARM.extab)
    .extab._ZN10QtMobility15QGraphicsGeoMap10setMapTypeENS0_7MapTypeE 0x000415a4   Data           0  qgraphicsgeomap.o(.ARM.extab)
    .extab._ZN10QtMobility15QGraphicsGeoMap11qt_metacallEN11QMetaObject4CallEiPPv 0x000415b4   Data           0  qgraphicsgeomap.o(.ARM.extab)
    .extab._ZN10QtMobility15QGraphicsGeoMapC1EPNS_18QGeoMappingManagerEP13QGraphicsItem 0x000415c4   Data           0  qgraphicsgeomap.o(.ARM.extab)
    .extab._ZN10QtMobility15QGraphicsGeoMapD1Ev 0x000415e4   Data           0  qgraphicsgeomap.o(.ARM.extab)
    .extab._ZNK10QtMobility15QGraphicsGeoMap5shapeEv 0x000415f4   Data           0  qgraphicsgeomap.o(.ARM.extab)
    .extab._ZN10QtMobility28QGeoTiledMapCircleObjectInfo6updateEv 0x00041604   Data           0  qgeotiledmapcircleobjectinfo_p.o(.ARM.extab)
    .extab._ZN10QtMobility28QGeoTiledMapCircleObjectInfo14updateValidityEv 0x00041644   Data           0  qgeotiledmapcircleobjectinfo_p.o(.ARM.extab)
    .extab._ZN10QtMobility28QGeoTiledMapCircleObjectInfoC1EPNS_16QGeoTiledMapDataEPNS_13QGeoMapObjectE 0x00041654   Data           0  qgeotiledmapcircleobjectinfo_p.o(.ARM.extab)
    .extab._ZN10QtMobility28QGeoTiledMapCircleObjectInfoD1Ev 0x0004169c   Data           0  qgeotiledmapcircleobjectinfo_p.o(.ARM.extab)
    .extab._ZN7QVectorI7QPointFE7reallocEii  0x000416ac   Data           0  qgeotiledmapcircleobjectinfo_p.o(.ARM.extab)
    .extab._ZN10QtMobility27QGeoTiledMapGroupObjectInfoC1EPNS_16QGeoTiledMapDataEPNS_13QGeoMapObjectE 0x000416c8   Data           0  qgeotiledmapgroupobjectinfo_p.o(.ARM.extab)
    .extab._ZN10QtMobility16QGeoTiledMapData9tileErrorENS_17QGeoTiledMapReply5ErrorE7QString 0x00041710   Data           0  qgeotiledmapdata.o(.ARM.extab)
    .extab._ZNK10QtMobility23QGeoTiledMapDataPrivate17intersectedScreenERK5QRectb 0x00041720   Data           0  qgeotiledmapdata.o(.ARM.extab)
    .extab._ZN10QtMobility23QGeoTiledMapDataPrivate13cleanupCachesEv 0x00041730   Data           0  qgeotiledmapdata.o(.ARM.extab)
    .extab._ZN10QtMobility16QGeoTiledMapData13replyFinishedEPNS_17QGeoTiledMapReplyE 0x00041740   Data           0  qgeotiledmapdata.o(.ARM.extab)
    .extab._ZN10QtMobility16QGeoTiledMapData15processRequestsEv 0x000417c8   Data           0  qgeotiledmapdata.o(.ARM.extab)
    .extab._ZN10QtMobility16QGeoTiledMapData11qt_metacallEN11QMetaObject4CallEiPPv 0x000418b8   Data           0  qgeotiledmapdata.o(.ARM.extab)
    .extab._ZN10QtMobility23QGeoTiledMapDataPrivate14updateMapImageEv 0x000418c8   Data           0  qgeotiledmapdata.o(.ARM.extab)
    .extab._ZN10QtMobility23QGeoTiledMapDataPrivate13clearRequestsEv 0x000418f8   Data           0  qgeotiledmapdata.o(.ARM.extab)
    .extab._ZN10QtMobility23QGeoTiledMapDataPrivate8paintMapEP8QPainterPK24QStyleOptionGraphicsItem 0x00041908   Data           0  qgeotiledmapdata.o(.ARM.extab)
    .extab._ZN10QtMobility16QGeoTiledMapData12setZoomLevelEf 0x00041928   Data           0  qgeotiledmapdata.o(.ARM.extab)
    .extab._ZN10QtMobility23QGeoTiledMapDataPrivateC1EPNS_16QGeoTiledMapDataEPNS_24QGeoMappingManagerEngineE 0x000419d8   Data           0  qgeotiledmapdata.o(.ARM.extab)
    .extab._ZN10QtMobility16QGeoTiledMapDataC1EPNS_24QGeoMappingManagerEngineE 0x00041a18   Data           0  qgeotiledmapdata.o(.ARM.extab)
    .extab._ZN10QtMobility16QGeoTiledMapData3panEii 0x00041a38   Data           0  qgeotiledmapdata.o(.ARM.extab)
    .extab._ZNK10QtMobility16QGeoTiledMapData8viewportEv 0x00041a48   Data           0  qgeotiledmapdata.o(.ARM.extab)
    .extab._ZN10QtMobility16QGeoTiledMapData13fitInViewportERKNS_15QGeoBoundingBoxEb 0x00041a80   Data           0  qgeotiledmapdata.o(.ARM.extab)
    .extab._ZNK10QtMobility16QGeoTiledMapData26mapObjectsAtScreenPositionERK7QPointF 0x00041b00   Data           0  qgeotiledmapdata.o(.ARM.extab)
    .extab._ZNK10QtMobility16QGeoTiledMapData22mapObjectsInScreenRectERK6QRectF 0x00041b28   Data           0  qgeotiledmapdata.o(.ARM.extab)
    .extab._ZN10QtMobility16QGeoTiledMapData19createMapObjectInfoEPNS_13QGeoMapObjectE 0x00041b40   Data           0  qgeotiledmapdata.o(.ARM.extab)
    .extab._ZN10QtMobility23QGeoTiledMapDataPrivateD1Ev 0x00041b88   Data           0  qgeotiledmapdata.o(.ARM.extab)
    .extab._ZN5QListIP13QGraphicsItemE13detach_helperEi 0x00041c18   Data           0  qgeotiledmapdata.o(.ARM.extab)
    .extab._ZN5QListIP13QGraphicsItemE18detach_helper_growEii 0x00041c34   Data           0  qgeotiledmapdata.o(.ARM.extab)
    .extab._ZN5QListIP13QGraphicsItemE6appendERKS1_ 0x00041c64   Data           0  qgeotiledmapdata.o(.ARM.extab)
    .extab._ZN6QDebugD1Ev                    0x00041c80   Data           0  qgeotiledmapdata.o(.ARM.extab)
    .extab._ZN5QListI5QPairI5QRectS1_EE14node_constructEPNS3_4NodeERKS2_ 0x00041ca4   Data           0  qgeotiledmapdata.o(.ARM.extab)
    .extab._ZN5QListI5QPairI5QRectS1_EE9node_copyEPNS3_4NodeES5_S5_ 0x00041cb4   Data           0  qgeotiledmapdata.o(.ARM.extab)
    .extab._ZN5QListI5QPairI5QRectS1_EE18detach_helper_growEii 0x00041cd8   Data           0  qgeotiledmapdata.o(.ARM.extab)
    .extab._ZN5QListI5QPairI5QRectS1_EE6appendERKS2_ 0x00041d08   Data           0  qgeotiledmapdata.o(.ARM.extab)
    .extab._ZN5QListIN10QtMobility19QGeoTiledMapRequestEE9node_copyEPNS2_4NodeES4_S4_ 0x00041d38   Data           0  qgeotiledmapdata.o(.ARM.extab)
    .extab._ZN5QListIN10QtMobility19QGeoTiledMapRequestEE13detach_helperEi 0x00041d5c   Data           0  qgeotiledmapdata.o(.ARM.extab)
    .extab._ZN5QListIN10QtMobility19QGeoTiledMapRequestEE14node_constructEPNS2_4NodeERKS1_ 0x00041d78   Data           0  qgeotiledmapdata.o(.ARM.extab)
    .extab._ZN5QListIN10QtMobility19QGeoTiledMapRequestEE18detach_helper_growEii 0x00041d88   Data           0  qgeotiledmapdata.o(.ARM.extab)
    .extab._ZN5QListIN10QtMobility19QGeoTiledMapRequestEE6appendERKS1_ 0x00041db8   Data           0  qgeotiledmapdata.o(.ARM.extab)
    .extab._ZNK5QHashIN10QtMobility19QGeoTiledMapRequestEN6QCacheIS1_6QImageE4NodeEE4keysEv 0x00041de8   Data           0  qgeotiledmapdata.o(.ARM.extab)
    .extab._ZN5QListIN10QtMobility19QGeoTiledMapRequestEE5clearEv 0x00041df8   Data           0  qgeotiledmapdata.o(.ARM.extab)
    .extab._ZN6QCacheIN10QtMobility19QGeoTiledMapRequestE7QPixmapE5clearEv 0x00041e08   Data           0  qgeotiledmapdata.o(.ARM.extab)
    .extab._ZN6QCacheIN10QtMobility19QGeoTiledMapRequestE6QImageE5clearEv 0x00041e18   Data           0  qgeotiledmapdata.o(.ARM.extab)
    .extab._ZNK5QHashIP13QGraphicsItemPN10QtMobility13QGeoMapObjectEE4keysEv 0x00041e28   Data           0  qgeotiledmapdata.o(.ARM.extab)
    .extab._ZN5QHashIN10QtMobility19QGeoTiledMapRequestEN6QCacheIS1_6QImageE4NodeEE13duplicateNodeEPN9QHashData4NodeEPv 0x00041e38   Data           0  qgeotiledmapdata.o(.ARM.extab)
    .extab._ZN5QHashIN10QtMobility19QGeoTiledMapRequestEN6QCacheIS1_6QImageE4NodeEE6insertERKS1_RKS5_ 0x00041e48   Data           0  qgeotiledmapdata.o(.ARM.extab)
    .extab._ZN5QHashIN10QtMobility19QGeoTiledMapRequestEN6QCacheIS1_7QPixmapE4NodeEE13duplicateNodeEPN9QHashData4NodeEPv 0x00041e60   Data           0  qgeotiledmapdata.o(.ARM.extab)
    .extab._ZN5QHashI5QRect15QHashDummyValueE13duplicateNodeEPN9QHashData4NodeEPv 0x00041e70   Data           0  qgeotiledmapdata.o(.ARM.extab)
    .extab._ZN5QHashIN10QtMobility19QGeoTiledMapRequestEN6QCacheIS1_7QPixmapE4NodeEE6insertERKS1_RKS5_ 0x00041e80   Data           0  qgeotiledmapdata.o(.ARM.extab)
    .extab._ZN6QCacheIN10QtMobility19QGeoTiledMapRequestE7QPixmapED1Ev 0x00041e98   Data           0  qgeotiledmapdata.o(.ARM.extab)
    .extab._ZN6QCacheIN10QtMobility19QGeoTiledMapRequestE6QImageED1Ev 0x00041ea8   Data           0  qgeotiledmapdata.o(.ARM.extab)
    .extab._ZN5QHashIP13QGraphicsItemPN10QtMobility13QGeoMapObjectEE6insertERKS1_RKS4_ 0x00041eb8   Data           0  qgeotiledmapdata.o(.ARM.extab)
    .extab._ZN5QHashI5QRect15QHashDummyValueE6insertERKS0_RKS1_ 0x00041ec8   Data           0  qgeotiledmapdata.o(.ARM.extab)
    .extab._ZN10QtMobility22QGeoTiledMapObjectInfoC1EPNS_16QGeoTiledMapDataEPNS_13QGeoMapObjectE 0x00041ed8   Data           0  qgeotiledmapobjectinfo_p.o(.ARM.extab)
    .extab._ZN10QtMobility22QGeoTiledMapObjectInfoD1Ev 0x00041ee8   Data           0  qgeotiledmapobjectinfo_p.o(.ARM.extab)
    .extab._ZN10QtMobility22QGeoTiledMapObjectInfo13createPolygonERK5QListINS_14QGeoCoordinateEEPNS_16QGeoTiledMapDataEbf 0x00041ef8   Data           0  qgeotiledmapobjectinfo_p.o(.ARM.extab)
    .extab._ZNK10QtMobility22QGeoTiledMapObjectInfo11boundingBoxEv 0x00041f18   Data           0  qgeotiledmapobjectinfo_p.o(.ARM.extab)
    .extab._ZNK10QtMobility22QGeoTiledMapObjectInfo8containsERKNS_14QGeoCoordinateE 0x00041f48   Data           0  qgeotiledmapobjectinfo_p.o(.ARM.extab)
    .extab._ZN10QtMobility29QGeoTiledMappingManagerEngine13createMapDataEv 0x00041f68   Data           0  qgeotiledmappingmanagerengine.o(.ARM.extab)
    .extab._ZN10QtMobility29QGeoTiledMappingManagerEngineC2ERK4QMapI7QString8QVariantEP7QObject 0x00041f78   Data           0  qgeotiledmappingmanagerengine.o(.ARM.extab)
    .extab._ZN10QtMobility28QGeoTiledMapPixmapObjectInfo6updateEv 0x00041f88   Data           0  qgeotiledmappixmapobjectinfo_p.o(.ARM.extab)
    .extab._ZN10QtMobility28QGeoTiledMapPixmapObjectInfo14updateValidityEv 0x00041fe0   Data           0  qgeotiledmappixmapobjectinfo_p.o(.ARM.extab)
    .extab._ZN10QtMobility28QGeoTiledMapPixmapObjectInfo13pixmapChangedERK7QPixmap 0x00042000   Data           0  qgeotiledmappixmapobjectinfo_p.o(.ARM.extab)
    .extab._ZN10QtMobility28QGeoTiledMapPixmapObjectInfoC1EPNS_16QGeoTiledMapDataEPNS_13QGeoMapObjectE 0x00042020   Data           0  qgeotiledmappixmapobjectinfo_p.o(.ARM.extab)
    .extab._ZN10QtMobility28QGeoTiledMapPixmapObjectInfoD1Ev 0x00042068   Data           0  qgeotiledmappixmapobjectinfo_p.o(.ARM.extab)
    .extab._ZN10QtMobility29QGeoTiledMapPolygonObjectInfo12brushChangedERK6QBrush 0x00042078   Data           0  qgeotiledmappolygonobjectinfo_p.o(.ARM.extab)
    .extab._ZN10QtMobility29QGeoTiledMapPolygonObjectInfo10penChangedERK4QPen 0x00042088   Data           0  qgeotiledmappolygonobjectinfo_p.o(.ARM.extab)
    .extab._ZN10QtMobility29QGeoTiledMapPolygonObjectInfo11pathChangedERK5QListINS_14QGeoCoordinateEE 0x00042098   Data           0  qgeotiledmappolygonobjectinfo_p.o(.ARM.extab)
    .extab._ZN10QtMobility29QGeoTiledMapPolygonObjectInfoC1EPNS_16QGeoTiledMapDataEPNS_13QGeoMapObjectE 0x000420b8   Data           0  qgeotiledmappolygonobjectinfo_p.o(.ARM.extab)
    .extab._ZN10QtMobility29QGeoTiledMapPolygonObjectInfoD1Ev 0x00042110   Data           0  qgeotiledmappolygonobjectinfo_p.o(.ARM.extab)
    .extab._ZN10QtMobility30QGeoTiledMapPolylineObjectInfo10penChangedERK4QPen 0x00042120   Data           0  qgeotiledmappolylineobjectinfo_p.o(.ARM.extab)
    .extab._ZN10QtMobility30QGeoTiledMapPolylineObjectInfo11pathChangedERK5QListINS_14QGeoCoordinateEE 0x00042130   Data           0  qgeotiledmappolylineobjectinfo_p.o(.ARM.extab)
    .extab._ZN10QtMobility30QGeoTiledMapPolylineObjectInfoC1EPNS_16QGeoTiledMapDataEPNS_13QGeoMapObjectE 0x00042158   Data           0  qgeotiledmappolylineobjectinfo_p.o(.ARM.extab)
    .extab._ZN10QtMobility30QGeoTiledMapPolylineObjectInfoD1Ev 0x000421a0   Data           0  qgeotiledmappolylineobjectinfo_p.o(.ARM.extab)
    .extab._ZN10QtMobility30QGeoTiledMapPolylineObjectInfo16zoomLevelChangedEf 0x000421b0   Data           0  qgeotiledmappolylineobjectinfo_p.o(.ARM.extab)
    .extab._ZN10QtMobility31QGeoTiledMapRectangleObjectInfo6updateEv 0x000421c0   Data           0  qgeotiledmaprectangleobjectinfo_p.o(.ARM.extab)
    .extab._ZN10QtMobility31QGeoTiledMapRectangleObjectInfo14updateValidityEv 0x00042228   Data           0  qgeotiledmaprectangleobjectinfo_p.o(.ARM.extab)
    .extab._ZN10QtMobility31QGeoTiledMapRectangleObjectInfoC1EPNS_16QGeoTiledMapDataEPNS_13QGeoMapObjectE 0x00042248   Data           0  qgeotiledmaprectangleobjectinfo_p.o(.ARM.extab)
    .extab._ZN10QtMobility17QGeoTiledMapReply11qt_metacallEN11QMetaObject4CallEiPPv 0x00042288   Data           0  qgeotiledmapreply.o(.ARM.extab)
    .extab._ZN10QtMobility24QGeoTiledMapReplyPrivateC1ERKNS_19QGeoTiledMapRequestE 0x00042298   Data           0  qgeotiledmapreply.o(.ARM.extab)
    .extab._ZN10QtMobility17QGeoTiledMapReplyC1ERKNS_19QGeoTiledMapRequestEP7QObject 0x000422b8   Data           0  qgeotiledmapreply.o(.ARM.extab)
    .extab._ZN10QtMobility24QGeoTiledMapReplyPrivateC1ENS_17QGeoTiledMapReply5ErrorERK7QString 0x000422d0   Data           0  qgeotiledmapreply.o(.ARM.extab)
    .extab._ZN10QtMobility17QGeoTiledMapReplyC1ENS0_5ErrorERK7QStringP7QObject 0x000422f0   Data           0  qgeotiledmapreply.o(.ARM.extab)
    .extab._ZN10QtMobility24QGeoTiledMapReplyPrivateD1Ev 0x00042308   Data           0  qgeotiledmapreply.o(.ARM.extab)
    .extab._ZN10QtMobility17QGeoTiledMapReplyD1Ev 0x00042328   Data           0  qgeotiledmapreply.o(.ARM.extab)
    .extab._ZN10QtMobility19QGeoTiledMapRequestC1Ev 0x00042338   Data           0  qgeotiledmaprequest.o(.ARM.extab)
    .extab._ZN10QtMobility19QGeoTiledMapRequestC1ENS_15QGraphicsGeoMap16ConnectivityModeENS1_7MapTypeEfiiRK5QRect 0x00042348   Data           0  qgeotiledmaprequest.o(.ARM.extab)
    .extab._ZN10QtMobility27QGeoTiledMapRouteObjectInfo13updateVisibleEv 0x00042358   Data           0  qgeotiledmaprouteobjectinfo_p.o(.ARM.extab)
    .extab._ZN10QtMobility27QGeoTiledMapRouteObjectInfo10penChangedERK4QPen 0x00042368   Data           0  qgeotiledmaprouteobjectinfo_p.o(.ARM.extab)
    .extab._ZN10QtMobility27QGeoTiledMapRouteObjectInfo12routeChangedERKNS_9QGeoRouteE 0x00042378   Data           0  qgeotiledmaprouteobjectinfo_p.o(.ARM.extab)
    .extab._ZN10QtMobility27QGeoTiledMapRouteObjectInfoC1EPNS_16QGeoTiledMapDataEPNS_13QGeoMapObjectE 0x000423e8   Data           0  qgeotiledmaprouteobjectinfo_p.o(.ARM.extab)
    .extab._ZN10QtMobility27QGeoTiledMapRouteObjectInfoD1Ev 0x00042438   Data           0  qgeotiledmaprouteobjectinfo_p.o(.ARM.extab)
    .extab._ZN10QtMobility27QGeoTiledMapRouteObjectInfo16zoomLevelChangedEf 0x00042450   Data           0  qgeotiledmaprouteobjectinfo_p.o(.ARM.extab)
    .extab._ZN5QListI7QPointFE9node_copyEPNS1_4NodeES3_S3_ 0x00042460   Data           0  qgeotiledmaprouteobjectinfo_p.o(.ARM.extab)
    .extab._ZN5QListI7QPointFE18detach_helper_growEii 0x00042484   Data           0  qgeotiledmaprouteobjectinfo_p.o(.ARM.extab)
    .extab._ZN5QListI7QPointFE6appendERKS0_  0x000424b4   Data           0  qgeotiledmaprouteobjectinfo_p.o(.ARM.extab)
    .extab._ZN5QListI7QPointFE13detach_helperEi 0x000424e4   Data           0  qgeotiledmaprouteobjectinfo_p.o(.ARM.extab)
    .extab._ZN5QListI7QPointFE5clearEv       0x00042500   Data           0  qgeotiledmaprouteobjectinfo_p.o(.ARM.extab)
    .extab._ZN10QtMobility26QGeoTiledMapTextObjectInfo6updateEv 0x00042510   Data           0  qgeotiledmaptextobjectinfo_p.o(.ARM.extab)
    .extab._ZN10QtMobility26QGeoTiledMapTextObjectInfo12brushChangedERK6QBrush 0x000425c8   Data           0  qgeotiledmaptextobjectinfo_p.o(.ARM.extab)
    .extab._ZN10QtMobility26QGeoTiledMapTextObjectInfo10penChangedERK4QPen 0x000425e0   Data           0  qgeotiledmaptextobjectinfo_p.o(.ARM.extab)
    .extab._ZN10QtMobility26QGeoTiledMapTextObjectInfo11fontChangedERK5QFont 0x000425f8   Data           0  qgeotiledmaptextobjectinfo_p.o(.ARM.extab)
    .extab._ZN10QtMobility26QGeoTiledMapTextObjectInfo14updateValidityEv 0x00042610   Data           0  qgeotiledmaptextobjectinfo_p.o(.ARM.extab)
    .extab._ZN10QtMobility26QGeoTiledMapTextObjectInfo11textChangedERK7QString 0x00042630   Data           0  qgeotiledmaptextobjectinfo_p.o(.ARM.extab)
    .extab._ZN10QtMobility26QGeoTiledMapTextObjectInfoC1EPNS_16QGeoTiledMapDataEPNS_13QGeoMapObjectE 0x00042650   Data           0  qgeotiledmaptextobjectinfo_p.o(.ARM.extab)
    .extab._ZN10QtMobility26QGeoTiledMapTextObjectInfoD1Ev 0x000426c8   Data           0  qgeotiledmaptextobjectinfo_p.o(.ARM.extab)
    .constdata$1                             0x000426d8   Data           0  moc_qgeoareamonitor.o(.constdata)
    qt_meta_data_QtMobility__QGeoAreaMonitor 0x000426d8   Data         124  moc_qgeoareamonitor.o(.constdata)
    .constdata                               0x000426d8   Section      272  moc_qgeoareamonitor.o(.constdata)
    qt_meta_stringdata_QtMobility__QGeoAreaMonitor 0x00042754   Data         131  moc_qgeoareamonitor.o(.constdata)
    .constdata$1                             0x000427e8   Data           0  qgeopositioninfosource_s60.o(.constdata)
    .constdata                               0x000427e8   Section      124  qgeopositioninfosource_s60.o(.constdata)
    .constdata$1                             0x00042864   Data           0  qgeosatelliteinfosource_s60.o(.constdata)
    .constdata                               0x00042864   Section      124  qgeosatelliteinfosource_s60.o(.constdata)
    .constdata$1                             0x000428e0   Data           0  qmlbackendao_s60.o(.constdata)
    KPositionNullModuleId                    0x000428e0   Data           4  qmlbackendao_s60.o(.constdata)
    .constdata                               0x000428e0   Section        4  qmlbackendao_s60.o(.constdata)
    .constdata$1                             0x000428e4   Data           0  qgeoareamonitor_s60.o(.constdata)
    .constdata                               0x000428e4   Section      120  qgeoareamonitor_s60.o(.constdata)
    .constdata$1                             0x0004295c   Data           0  qmlbackendmonitorcreatetriggerao_s60.o(.constdata)
    KMyTriggerName@_ZN10QtMobility32QMLBackendMonitorCreateTriggerAO17InitializeTriggerEPNS_18QGeoAreaMonitorS60ENS_13enTriggerTypeER11TCoordinateRf_0 0x0004295c   Data          32  qmlbackendmonitorcreatetriggerao_s60.o(.constdata)
    .constdata                               0x0004295c   Section       92  qmlbackendmonitorcreatetriggerao_s60.o(.constdata)
    KMyRequestorName@_ZN10QtMobility32QMLBackendMonitorCreateTriggerAO17InitializeTriggerEPNS_18QGeoAreaMonitorS60ENS_13enTriggerTypeER11TCoordinateRf_1 0x0004297c   Data          32  qmlbackendmonitorcreatetriggerao_s60.o(.constdata)
    KMyTriggerName@_ZN10QtMobility32QMLBackendMonitorCreateTriggerAO17InitializeTriggerEPNS_18QGeoAreaMonitorS60ENS_13enTriggerTypeER11TCoordinateRf_2 0x0004299c   Data          28  qmlbackendmonitorcreatetriggerao_s60.o(.constdata)
    .constdata$1                             0x000429b8   Data           0  qgeopositioninfosource.o(.constdata)
    .constdata                               0x000429b8   Section      415  qgeopositioninfosource.o(.constdata)
    QtMobility::qt_meta_data_QGeoPositionInfoSource 0x000429c8   Data         204  qgeopositioninfosource.o(.constdata)
    QtMobility::qt_meta_stringdata_QGeoPositionInfoSource 0x00042a94   Data         195  qgeopositioninfosource.o(.constdata)
    .constdata$1                             0x00042b58   Data           0  qgeosatelliteinfosource.o(.constdata)
    .constdata                               0x00042b58   Section      441  qgeosatelliteinfosource.o(.constdata)
    QtMobility::qt_meta_data_QGeoSatelliteInfoSource 0x00042b68   Data         200  qgeosatelliteinfosource.o(.constdata)
    QtMobility::qt_meta_stringdata_QGeoSatelliteInfoSource 0x00042c30   Data         225  qgeosatelliteinfosource.o(.constdata)
    .constdata$1                             0x00042d14   Data           0  qnmeapositioninfosource.o(.constdata)
    .constdata                               0x00042d14   Section      816  qnmeapositioninfosource.o(.constdata)
    QtMobility::qt_meta_data_QNmeaPositionInfoSource 0x00042d44   Data         140  qnmeapositioninfosource.o(.constdata)
    QtMobility::qt_meta_stringdata_QNmeaPositionInfoSource 0x00042dd0   Data          98  qnmeapositioninfosource.o(.constdata)
    QtMobility::qt_meta_data_QNmeaPositionInfoSourcePrivate 0x00042e34   Data         140  qnmeapositioninfosource.o(.constdata)
    QtMobility::qt_meta_stringdata_QNmeaPositionInfoSourcePrivate 0x00042ec0   Data         107  qnmeapositioninfosource.o(.constdata)
    QtMobility::qt_meta_data_QNmeaSimulatedReader 0x00042f2c   Data          80  qnmeapositioninfosource.o(.constdata)
    QtMobility::qt_meta_stringdata_QNmeaSimulatedReader 0x00042f7c   Data          47  qnmeapositioninfosource.o(.constdata)
    .constdata$1                             0x00043044   Data           0  qlandmarkabstractrequest.o(.constdata)
    qt_meta_data_QLandmarkAbstractRequest    0x00043044   Data         180  qlandmarkabstractrequest.o(.constdata)
    .constdata                               0x00043044   Section      364  qlandmarkabstractrequest.o(.constdata)
    qt_meta_stringdata_QLandmarkAbstractRequest 0x000430f8   Data         168  qlandmarkabstractrequest.o(.constdata)
    .constdata$1                             0x000431b0   Data           0  qlandmarkcategoryfetchrequest.o(.constdata)
    .constdata                               0x000431b0   Section      107  qlandmarkcategoryfetchrequest.o(.constdata)
    QtMobility::qt_meta_data_QLandmarkCategoryFetchRequest 0x000431c0   Data          60  qlandmarkcategoryfetchrequest.o(.constdata)
    QtMobility::qt_meta_stringdata_QLandmarkCategoryFetchRequest 0x000431fc   Data          31  qlandmarkcategoryfetchrequest.o(.constdata)
    .constdata$1                             0x0004321c   Data           0  qlandmarkcategoryfetchbyidrequest.o(.constdata)
    .constdata                               0x0004321c   Section      111  qlandmarkcategoryfetchbyidrequest.o(.constdata)
    QtMobility::qt_meta_data_QLandmarkCategoryFetchByIdRequest 0x0004322c   Data          60  qlandmarkcategoryfetchbyidrequest.o(.constdata)
    QtMobility::qt_meta_stringdata_QLandmarkCategoryFetchByIdRequest 0x00043268   Data          35  qlandmarkcategoryfetchbyidrequest.o(.constdata)
    .constdata$1                             0x0004328c   Data           0  qlandmarkcategoryidfetchrequest.o(.constdata)
    .constdata                               0x0004328c   Section      109  qlandmarkcategoryidfetchrequest.o(.constdata)
    QtMobility::qt_meta_data_QLandmarkCategoryIdFetchRequest 0x0004329c   Data          60  qlandmarkcategoryidfetchrequest.o(.constdata)
    QtMobility::qt_meta_stringdata_QLandmarkCategoryIdFetchRequest 0x000432d8   Data          33  qlandmarkcategoryidfetchrequest.o(.constdata)
    .constdata$1                             0x000432fc   Data           0  qlandmarkcategoryremoverequest.o(.constdata)
    .constdata                               0x000432fc   Section      108  qlandmarkcategoryremoverequest.o(.constdata)
    QtMobility::qt_meta_data_QLandmarkCategoryRemoveRequest 0x0004330c   Data          60  qlandmarkcategoryremoverequest.o(.constdata)
    QtMobility::qt_meta_stringdata_QLandmarkCategoryRemoveRequest 0x00043348   Data          32  qlandmarkcategoryremoverequest.o(.constdata)
    .constdata$1                             0x00043368   Data           0  qlandmarkcategorysaverequest.o(.constdata)
    .constdata                               0x00043368   Section      106  qlandmarkcategorysaverequest.o(.constdata)
    QtMobility::qt_meta_data_QLandmarkCategorySaveRequest 0x00043378   Data          60  qlandmarkcategorysaverequest.o(.constdata)
    QtMobility::qt_meta_stringdata_QLandmarkCategorySaveRequest 0x000433b4   Data          30  qlandmarkcategorysaverequest.o(.constdata)
    .constdata$1                             0x000433d4   Data           0  qlandmarkexportrequest.o(.constdata)
    .constdata                               0x000433d4   Section      100  qlandmarkexportrequest.o(.constdata)
    QtMobility::qt_meta_data_QLandmarkExportRequest 0x000433e4   Data          60  qlandmarkexportrequest.o(.constdata)
    QtMobility::qt_meta_stringdata_QLandmarkExportRequest 0x00043420   Data          24  qlandmarkexportrequest.o(.constdata)
    .constdata$1                             0x00043438   Data           0  qlandmarkfetchrequest.o(.constdata)
    .constdata                               0x00043438   Section       99  qlandmarkfetchrequest.o(.constdata)
    QtMobility::qt_meta_data_QLandmarkFetchRequest 0x00043448   Data          60  qlandmarkfetchrequest.o(.constdata)
    QtMobility::qt_meta_stringdata_QLandmarkFetchRequest 0x00043484   Data          23  qlandmarkfetchrequest.o(.constdata)
    .constdata$1                             0x0004349c   Data           0  qlandmarkfetchbyidrequest.o(.constdata)
    .constdata                               0x0004349c   Section      103  qlandmarkfetchbyidrequest.o(.constdata)
    QtMobility::qt_meta_data_QLandmarkFetchByIdRequest 0x000434ac   Data          60  qlandmarkfetchbyidrequest.o(.constdata)
    QtMobility::qt_meta_stringdata_QLandmarkFetchByIdRequest 0x000434e8   Data          27  qlandmarkfetchbyidrequest.o(.constdata)
    .constdata$1                             0x00043504   Data           0  qlandmarkidfetchrequest.o(.constdata)
    .constdata                               0x00043504   Section      101  qlandmarkidfetchrequest.o(.constdata)
    QtMobility::qt_meta_data_QLandmarkIdFetchRequest 0x00043514   Data          60  qlandmarkidfetchrequest.o(.constdata)
    QtMobility::qt_meta_stringdata_QLandmarkIdFetchRequest 0x00043550   Data          25  qlandmarkidfetchrequest.o(.constdata)
    .constdata$1                             0x0004356c   Data           0  qlandmarkimportrequest.o(.constdata)
    .constdata                               0x0004356c   Section      100  qlandmarkimportrequest.o(.constdata)
    QtMobility::qt_meta_data_QLandmarkImportRequest 0x0004357c   Data          60  qlandmarkimportrequest.o(.constdata)
    QtMobility::qt_meta_stringdata_QLandmarkImportRequest 0x000435b8   Data          24  qlandmarkimportrequest.o(.constdata)
    .constdata$1                             0x000435d0   Data           0  qlandmarkmanager.o(.constdata)
    qt_meta_data_QLandmarkManager            0x000435d0   Data         200  qlandmarkmanager.o(.constdata)
    .constdata                               0x000435d0   Section      536  qlandmarkmanager.o(.constdata)
    qt_meta_stringdata_QLandmarkManager      0x00043698   Data         302  qlandmarkmanager.o(.constdata)
    .constdata$1                             0x000437e8   Data           0  qlandmarkmanager_p.o(.constdata)
    .constdata                               0x000437e8   Section       68  qlandmarkmanager_p.o(.constdata)
    .constdata$1                             0x0004382c   Data           0  qlandmarkmanagerengine.o(.constdata)
    .constdata                               0x0004382c   Section      524  qlandmarkmanagerengine.o(.constdata)
    QtMobility::qt_meta_data_QLandmarkManagerEngine 0x0004383c   Data         200  qlandmarkmanagerengine.o(.constdata)
    QtMobility::qt_meta_stringdata_QLandmarkManagerEngine 0x00043904   Data         308  qlandmarkmanagerengine.o(.constdata)
    .constdata$1                             0x00043a38   Data           0  qlandmarkremoverequest.o(.constdata)
    .constdata                               0x00043a38   Section      100  qlandmarkremoverequest.o(.constdata)
    QtMobility::qt_meta_data_QLandmarkRemoveRequest 0x00043a48   Data          60  qlandmarkremoverequest.o(.constdata)
    QtMobility::qt_meta_stringdata_QLandmarkRemoveRequest 0x00043a84   Data          24  qlandmarkremoverequest.o(.constdata)
    .constdata$1                             0x00043a9c   Data           0  qlandmarksaverequest.o(.constdata)
    .constdata                               0x00043a9c   Section       98  qlandmarksaverequest.o(.constdata)
    QtMobility::qt_meta_data_QLandmarkSaveRequest 0x00043aac   Data          60  qlandmarksaverequest.o(.constdata)
    QtMobility::qt_meta_stringdata_QLandmarkSaveRequest 0x00043ae8   Data          22  qlandmarksaverequest.o(.constdata)
    .constdata$1                             0x00043b00   Data           0  qgeomapcircleobject.o(.constdata)
    .constdata                               0x00043b00   Section      388  qgeomapcircleobject.o(.constdata)
    QtMobility::qt_meta_data_QGeoMapCircleObject 0x00043b10   Data         204  qgeomapcircleobject.o(.constdata)
    QtMobility::qt_meta_stringdata_QGeoMapCircleObject 0x00043bdc   Data         168  qgeomapcircleobject.o(.constdata)
    .constdata$1                             0x00043c84   Data           0  qgeomapdata.o(.constdata)
    .constdata                               0x00043c84   Section      708  qgeomapdata.o(.constdata)
    QtMobility::qt_meta_data_QGeoMapData     0x00043c94   Data         280  qgeomapdata.o(.constdata)
    QtMobility::qt_meta_stringdata_QGeoMapData 0x00043dac   Data         396  qgeomapdata.o(.constdata)
    QtMobility::qt_meta_extradata_QGeoMapData 0x00043f38   Data           8  qgeomapdata.o(.constdata)
    QtMobility::qt_meta_extradata2_QGeoMapData 0x00043f40   Data           8  qgeomapdata.o(.constdata)
    .constdata$1                             0x00043f48   Data           0  qgeomapgroupobject.o(.constdata)
    .constdata                               0x00043f48   Section      205  qgeomapgroupobject.o(.constdata)
    QtMobility::qt_meta_data_QGeoMapGroupObject 0x00043f58   Data         100  qgeomapgroupobject.o(.constdata)
    QtMobility::qt_meta_stringdata_QGeoMapGroupObject 0x00043fbc   Data          89  qgeomapgroupobject.o(.constdata)
    .constdata$1                             0x00044018   Data           0  qgeomapobject.o(.constdata)
    .constdata                               0x00044018   Section      295  qgeomapobject.o(.constdata)
    QtMobility::qt_meta_data_QGeoMapObject   0x00044028   Data         168  qgeomapobject.o(.constdata)
    QtMobility::qt_meta_stringdata_QGeoMapObject 0x000440d0   Data         111  qgeomapobject.o(.constdata)
    .constdata$1                             0x00044140   Data           0  qgeomapobjectinfo.o(.constdata)
    .constdata                               0x00044140   Section      414  qgeomapobjectinfo.o(.constdata)
    QtMobility::qt_meta_data_QGeoMapObjectInfo 0x00044150   Data         180  qgeomapobjectinfo.o(.constdata)
    QtMobility::qt_meta_stringdata_QGeoMapObjectInfo 0x00044204   Data         218  qgeomapobjectinfo.o(.constdata)
    .constdata$1                             0x000442e0   Data           0  qgeomappingmanager.o(.constdata)
    .constdata                               0x000442e0   Section      172  qgeomappingmanager.o(.constdata)
    QtMobility::qt_meta_data_QGeoMappingManager 0x000442f0   Data          60  qgeomappingmanager.o(.constdata)
    QtMobility::qt_meta_stringdata_QGeoMappingManager 0x0004432c   Data          20  qgeomappingmanager.o(.constdata)
    .constdata$1                             0x0004438c   Data           0  qgeomappingmanagerengine.o(.constdata)
    .constdata                               0x0004438c   Section      102  qgeomappingmanagerengine.o(.constdata)
    QtMobility::qt_meta_data_QGeoMappingManagerEngine 0x0004439c   Data          60  qgeomappingmanagerengine.o(.constdata)
    QtMobility::qt_meta_stringdata_QGeoMappingManagerEngine 0x000443d8   Data          26  qgeomappingmanagerengine.o(.constdata)
    .constdata$1                             0x000443f4   Data           0  qgeomappixmapobject.o(.constdata)
    .constdata                               0x000443f4   Section      340  qgeomappixmapobject.o(.constdata)
    QtMobility::qt_meta_data_QGeoMapPixmapObject 0x00044404   Data         168  qgeomappixmapobject.o(.constdata)
    QtMobility::qt_meta_stringdata_QGeoMapPixmapObject 0x000444ac   Data         156  qgeomappixmapobject.o(.constdata)
    .constdata$1                             0x00044548   Data           0  qgeomappolygonobject.o(.constdata)
    .constdata                               0x00044548   Section      329  qgeomappolygonobject.o(.constdata)
    QtMobility::qt_meta_data_QGeoMapPolygonObject 0x00044558   Data         168  qgeomappolygonobject.o(.constdata)
    QtMobility::qt_meta_stringdata_QGeoMapPolygonObject 0x00044600   Data         145  qgeomappolygonobject.o(.constdata)
    .constdata$1                             0x00044694   Data           0  qgeomappolylineobject.o(.constdata)
    .constdata                               0x00044694   Section      260  qgeomappolylineobject.o(.constdata)
    QtMobility::qt_meta_data_QGeoMapPolylineObject 0x000446a4   Data         132  qgeomappolylineobject.o(.constdata)
    QtMobility::qt_meta_stringdata_QGeoMapPolylineObject 0x00044728   Data         112  qgeomappolylineobject.o(.constdata)
    .constdata$1                             0x00044798   Data           0  qgeomaprectangleobject.o(.constdata)
    .constdata                               0x00044798   Section      406  qgeomaprectangleobject.o(.constdata)
    QtMobility::qt_meta_data_QGeoMapRectangleObject 0x000447a8   Data         204  qgeomaprectangleobject.o(.constdata)
    QtMobility::qt_meta_stringdata_QGeoMapRectangleObject 0x00044874   Data         186  qgeomaprectangleobject.o(.constdata)
    .constdata$1                             0x00044930   Data           0  qgeomaprouteobject.o(.constdata)
    .constdata                               0x00044930   Section      319  qgeomaprouteobject.o(.constdata)
    QtMobility::qt_meta_data_QGeoMapRouteObject 0x00044940   Data         168  qgeomaprouteobject.o(.constdata)
    QtMobility::qt_meta_stringdata_QGeoMapRouteObject 0x000449e8   Data         135  qgeomaprouteobject.o(.constdata)
    .constdata$1                             0x00044a70   Data           0  qgeomaptextobject.o(.constdata)
    .constdata                               0x00044a70   Section      624  qgeomaptextobject.o(.constdata)
    QtMobility::qt_meta_data_QGeoMapTextObject 0x00044a80   Data         312  qgeomaptextobject.o(.constdata)
    QtMobility::qt_meta_stringdata_QGeoMapTextObject 0x00044bb8   Data         296  qgeomaptextobject.o(.constdata)
    .constdata$1                             0x00044ce0   Data           0  qgeoroutereply.o(.constdata)
    .constdata                               0x00044ce0   Section      254  qgeoroutereply.o(.constdata)
    QtMobility::qt_meta_data_QGeoRouteReply  0x00044cf0   Data         120  qgeoroutereply.o(.constdata)
    QtMobility::qt_meta_stringdata_QGeoRouteReply 0x00044d68   Data         118  qgeoroutereply.o(.constdata)
    .constdata$1                             0x00044de0   Data           0  qgeoroutingmanager.o(.constdata)
    .constdata                               0x00044de0   Section      400  qgeoroutingmanager.o(.constdata)
    QtMobility::qt_meta_data_QGeoRoutingManager 0x00044df0   Data         120  qgeoroutingmanager.o(.constdata)
    QtMobility::qt_meta_stringdata_QGeoRoutingManager 0x00044e68   Data         187  qgeoroutingmanager.o(.constdata)
    .constdata$1                             0x00044f70   Data           0  qgeoroutingmanagerengine.o(.constdata)
    .constdata                               0x00044f70   Section      400  qgeoroutingmanagerengine.o(.constdata)
    QtMobility::qt_meta_data_QGeoRoutingManagerEngine 0x00044f80   Data         120  qgeoroutingmanagerengine.o(.constdata)
    QtMobility::qt_meta_stringdata_QGeoRoutingManagerEngine 0x00044ff8   Data         193  qgeoroutingmanagerengine.o(.constdata)
    .constdata$1                             0x00045100   Data           0  qgeosearchmanager.o(.constdata)
    .constdata                               0x00045100   Section      640  qgeosearchmanager.o(.constdata)
    QtMobility::qt_meta_data_QGeoSearchManager 0x00045120   Data         120  qgeosearchmanager.o(.constdata)
    QtMobility::qt_meta_stringdata_QGeoSearchManager 0x00045198   Data         191  qgeosearchmanager.o(.constdata)
    QtMobility::qt_meta_data_QGeoCombiningSearchReply 0x00045258   Data         100  qgeosearchmanager.o(.constdata)
    QtMobility::qt_meta_stringdata_QGeoCombiningSearchReply 0x000452bc   Data         117  qgeosearchmanager.o(.constdata)
    .constdata$1                             0x00045380   Data           0  qgeosearchmanagerengine.o(.constdata)
    .constdata                               0x00045380   Section      333  qgeosearchmanagerengine.o(.constdata)
    QtMobility::qt_meta_data_QGeoSearchManagerEngine 0x00045390   Data         120  qgeosearchmanagerengine.o(.constdata)
    QtMobility::qt_meta_stringdata_QGeoSearchManagerEngine 0x00045408   Data         197  qgeosearchmanagerengine.o(.constdata)
    .constdata$1                             0x000454d0   Data           0  qgeosearchreply.o(.constdata)
    .constdata                               0x000454d0   Section      257  qgeosearchreply.o(.constdata)
    QtMobility::qt_meta_data_QGeoSearchReply 0x000454e0   Data         120  qgeosearchreply.o(.constdata)
    QtMobility::qt_meta_stringdata_QGeoSearchReply 0x00045558   Data         121  qgeosearchreply.o(.constdata)
    .constdata$1                             0x000455d4   Data           0  qgraphicsgeomap.o(.constdata)
    .constdata                               0x000455d4   Section      862  qgraphicsgeomap.o(.constdata)
    QtMobility::qt_meta_data_QGraphicsGeoMap 0x000455e4   Data         380  qgraphicsgeomap.o(.constdata)
    QtMobility::qt_meta_stringdata_QGraphicsGeoMap 0x00045760   Data         466  qgraphicsgeomap.o(.constdata)
    .constdata$1                             0x00045934   Data           0  qgeotiledmapcircleobjectinfo_p.o(.constdata)
    .constdata                               0x00045934   Section      300  qgeotiledmapcircleobjectinfo_p.o(.constdata)
    QtMobility::qt_meta_data_QGeoTiledMapCircleObjectInfo 0x00045944   Data         140  qgeotiledmapcircleobjectinfo_p.o(.constdata)
    QtMobility::qt_meta_stringdata_QGeoTiledMapCircleObjectInfo 0x000459d0   Data         144  qgeotiledmapcircleobjectinfo_p.o(.constdata)
    .constdata$1                             0x00045a60   Data           0  qgeotiledmapgroupobjectinfo_p.o(.constdata)
    .constdata                               0x00045a60   Section      214  qgeotiledmapgroupobjectinfo_p.o(.constdata)
    QtMobility::qt_meta_data_QGeoTiledMapGroupObjectInfo 0x00045a70   Data         100  qgeotiledmapgroupobjectinfo_p.o(.constdata)
    QtMobility::qt_meta_stringdata_QGeoTiledMapGroupObjectInfo 0x00045ad4   Data          98  qgeotiledmapgroupobjectinfo_p.o(.constdata)
    .constdata$1                             0x00045b38   Data           0  qgeotiledmapdata.o(.constdata)
    .constdata                               0x00045b38   Section      310  qgeotiledmapdata.o(.constdata)
    QtMobility::qt_meta_data_QGeoTiledMapData 0x00045b48   Data         140  qgeotiledmapdata.o(.constdata)
    QtMobility::qt_meta_stringdata_QGeoTiledMapData 0x00045bd4   Data         154  qgeotiledmapdata.o(.constdata)
    .constdata$1                             0x00045c70   Data           0  qgeotiledmapobjectinfo_p.o(.constdata)
    .constdata                               0x00045c70   Section      247  qgeotiledmapobjectinfo_p.o(.constdata)
    QtMobility::qt_meta_data_QGeoTiledMapObjectInfo 0x00045c80   Data         120  qgeotiledmapobjectinfo_p.o(.constdata)
    QtMobility::qt_meta_stringdata_QGeoTiledMapObjectInfo 0x00045cf8   Data         111  qgeotiledmapobjectinfo_p.o(.constdata)
    .constdata$1                             0x00045d68   Data           0  qgeotiledmappingmanagerengine.o(.constdata)
    .constdata                               0x00045d68   Section      107  qgeotiledmappingmanagerengine.o(.constdata)
    QtMobility::qt_meta_data_QGeoTiledMappingManagerEngine 0x00045d78   Data          60  qgeotiledmappingmanagerengine.o(.constdata)
    QtMobility::qt_meta_stringdata_QGeoTiledMappingManagerEngine 0x00045db4   Data          31  qgeotiledmappingmanagerengine.o(.constdata)
    .constdata$1                             0x00045dd4   Data           0  qgeotiledmappixmapobjectinfo_p.o(.constdata)
    .constdata                               0x00045dd4   Section      325  qgeotiledmappixmapobjectinfo_p.o(.constdata)
    QtMobility::qt_meta_data_QGeoTiledMapPixmapObjectInfo 0x00045de4   Data         140  qgeotiledmappixmapobjectinfo_p.o(.constdata)
    QtMobility::qt_meta_stringdata_QGeoTiledMapPixmapObjectInfo 0x00045e70   Data         169  qgeotiledmappixmapobjectinfo_p.o(.constdata)
    .constdata$1                             0x00045f1c   Data           0  qgeotiledmappolygonobjectinfo_p.o(.constdata)
    .constdata                               0x00045f1c   Section      256  qgeotiledmappolygonobjectinfo_p.o(.constdata)
    QtMobility::qt_meta_data_QGeoTiledMapPolygonObjectInfo 0x00045f2c   Data         120  qgeotiledmappolygonobjectinfo_p.o(.constdata)
    QtMobility::qt_meta_stringdata_QGeoTiledMapPolygonObjectInfo 0x00045fa4   Data         120  qgeotiledmappolygonobjectinfo_p.o(.constdata)
    .constdata$1                             0x0004601c   Data           0  qgeotiledmappolylineobjectinfo_p.o(.constdata)
    .constdata                               0x0004601c   Section      264  qgeotiledmappolylineobjectinfo_p.o(.constdata)
    QtMobility::qt_meta_data_QGeoTiledMapPolylineObjectInfo 0x0004602c   Data         120  qgeotiledmappolylineobjectinfo_p.o(.constdata)
    QtMobility::qt_meta_stringdata_QGeoTiledMapPolylineObjectInfo 0x000460a4   Data         128  qgeotiledmappolylineobjectinfo_p.o(.constdata)
    .constdata$1                             0x00046124   Data           0  qgeotiledmaprectangleobjectinfo_p.o(.constdata)
    .constdata                               0x00046124   Section      324  qgeotiledmaprectangleobjectinfo_p.o(.constdata)
    QtMobility::qt_meta_data_QGeoTiledMapRectangleObjectInfo 0x00046134   Data         140  qgeotiledmaprectangleobjectinfo_p.o(.constdata)
    QtMobility::qt_meta_stringdata_QGeoTiledMapRectangleObjectInfo 0x000461c0   Data         168  qgeotiledmaprectangleobjectinfo_p.o(.constdata)
    .constdata$1                             0x00046268   Data           0  qgeotiledmapreply.o(.constdata)
    .constdata                               0x00046268   Section      263  qgeotiledmapreply.o(.constdata)
    QtMobility::qt_meta_data_QGeoTiledMapReply 0x00046278   Data         120  qgeotiledmapreply.o(.constdata)
    QtMobility::qt_meta_stringdata_QGeoTiledMapReply 0x000462f0   Data         127  qgeotiledmapreply.o(.constdata)
    .constdata$1                             0x00046370   Data           0  qgeotiledmaprouteobjectinfo_p.o(.constdata)
    .constdata                               0x00046370   Section      429  qgeotiledmaprouteobjectinfo_p.o(.constdata)
    QtMobility::qt_meta_data_QGeoTiledMapRouteObjectInfo 0x00046380   Data         180  qgeotiledmaprouteobjectinfo_p.o(.constdata)
    QtMobility::qt_meta_stringdata_QGeoTiledMapRouteObjectInfo 0x00046434   Data         233  qgeotiledmaprouteobjectinfo_p.o(.constdata)
    .constdata$1                             0x00046520   Data           0  qgeotiledmaptextobjectinfo_p.o(.constdata)
    .constdata                               0x00046520   Section      513  qgeotiledmaptextobjectinfo_p.o(.constdata)
    QtMobility::qt_meta_data_QGeoTiledMapTextObjectInfo 0x00046530   Data         220  qgeotiledmaptextobjectinfo_p.o(.constdata)
    QtMobility::qt_meta_stringdata_QGeoTiledMapTextObjectInfo 0x0004660c   Data         277  qgeotiledmaptextobjectinfo_p.o(.constdata)
    .constdata__ZN9stlp_priv15_Integer_limitsIaLan128ELa127ELin1ELb1EE6digitsE 0x00046724   Section        4  moc_qgeoareamonitor.o(.constdata__ZN9stlp_priv15_Integer_limitsIaLan128ELa127ELin1ELb1EE6digitsE)
    .constdata__ZN9stlp_priv15_Integer_limitsIbLb0ELb1ELi1ELb0EE6digitsE 0x00046728   Section        4  moc_qgeoareamonitor.o(.constdata__ZN9stlp_priv15_Integer_limitsIbLb0ELb1ELi1ELb0EE6digitsE)
    .constdata__ZN9stlp_priv15_Integer_limitsIcLc128ELc127ELin1ELb1EE6digitsE 0x0004672c   Section        4  moc_qgeoareamonitor.o(.constdata__ZN9stlp_priv15_Integer_limitsIcLc128ELc127ELin1ELb1EE6digitsE)
    .constdata__ZN9stlp_priv15_Integer_limitsIhLh0ELh255ELin1ELb1EE6digitsE 0x00046730   Section        4  moc_qgeoareamonitor.o(.constdata__ZN9stlp_priv15_Integer_limitsIhLh0ELh255ELin1ELb1EE6digitsE)
    .constdata__ZN9stlp_priv15_Integer_limitsIiLin2147483648ELi2147483647ELin1ELb1EE6digitsE 0x00046734   Section        4  moc_qgeoareamonitor.o(.constdata__ZN9stlp_priv15_Integer_limitsIiLin2147483648ELi2147483647ELin1ELb1EE6digitsE)
    .constdata__ZN9stlp_priv15_Integer_limitsIiLin2147483648ELi2147483647ELin1ELb1EE9is_signedE 0x00046738   Section        1  moc_qgeoareamonitor.o(.constdata__ZN9stlp_priv15_Integer_limitsIiLin2147483648ELi2147483647ELin1ELb1EE9is_signedE)
    .constdata__ZN9stlp_priv15_Integer_limitsIjLj0ELj4294967295ELin1ELb1EE6digitsE 0x0004673c   Section        4  moc_qgeoareamonitor.o(.constdata__ZN9stlp_priv15_Integer_limitsIjLj0ELj4294967295ELin1ELb1EE6digitsE)
    .constdata__ZN9stlp_priv15_Integer_limitsIlLln2147483648ELl2147483647ELin1ELb1EE6digitsE 0x00046740   Section        4  moc_qgeoareamonitor.o(.constdata__ZN9stlp_priv15_Integer_limitsIlLln2147483648ELl2147483647ELin1ELb1EE6digitsE)
    .constdata__ZN9stlp_priv15_Integer_limitsImLm0ELm4294967295ELin1ELb1EE6digitsE 0x00046744   Section        4  moc_qgeoareamonitor.o(.constdata__ZN9stlp_priv15_Integer_limitsImLm0ELm4294967295ELin1ELb1EE6digitsE)
    .constdata__ZN9stlp_priv15_Integer_limitsIsLsn32768ELs32767ELin1ELb1EE6digitsE 0x00046748   Section        4  moc_qgeoareamonitor.o(.constdata__ZN9stlp_priv15_Integer_limitsIsLsn32768ELs32767ELin1ELb1EE6digitsE)
    .constdata__ZN9stlp_priv15_Integer_limitsItLt0ELt65535ELin1ELb1EE6digitsE 0x0004674c   Section        4  moc_qgeoareamonitor.o(.constdata__ZN9stlp_priv15_Integer_limitsItLt0ELt65535ELin1ELb1EE6digitsE)
    .constdata__ZN9stlp_priv15_Integer_limitsIwLw0ELw65535ELin1ELb1EE6digitsE 0x00046750   Section        4  moc_qgeoareamonitor.o(.constdata__ZN9stlp_priv15_Integer_limitsIwLw0ELw65535ELin1ELb1EE6digitsE)
    .constdata__ZN9stlp_priv15_Integer_limitsIxLxn9223372036854775808ELx9223372036854775807ELin1ELb1EE6digitsE 0x00046754   Section        4  moc_qgeoareamonitor.o(.constdata__ZN9stlp_priv15_Integer_limitsIxLxn9223372036854775808ELx9223372036854775807ELin1ELb1EE6digitsE)
    .constdata__ZN9stlp_priv15_Integer_limitsIyLy0ELy18446744073709551615ELin1ELb1EE6digitsE 0x00046758   Section        4  moc_qgeoareamonitor.o(.constdata__ZN9stlp_priv15_Integer_limitsIyLy0ELy18446744073709551615ELin1ELb1EE6digitsE)
    .constdata__ZTI11QSharedData             0x0004675c   Section        8  qgeoplace.o(.constdata__ZTI11QSharedData)
    .constdata__ZTIN10QtMobility11QGeoMapDataE 0x00046764   Section       12  qgeomapdata.o(.constdata__ZTIN10QtMobility11QGeoMapDataE)
    .constdata__ZTIN10QtMobility11QNmeaReaderE 0x00046770   Section        8  qnmeapositioninfosource.o(.constdata__ZTIN10QtMobility11QNmeaReaderE)
    .constdata__ZTIN10QtMobility13CQMLBackendAOE 0x00046778   Section       12  qmlbackendao_s60.o(.constdata__ZTIN10QtMobility13CQMLBackendAOE)
    .constdata__ZTIN10QtMobility13QGeoMapObjectE 0x00046784   Section       12  qgeomapobject.o(.constdata__ZTIN10QtMobility13QGeoMapObjectE)
    .constdata__ZTIN10QtMobility14QGeoMapOverlayE 0x00046790   Section        8  qgeomapoverlay.o(.constdata__ZTIN10QtMobility14QGeoMapOverlayE)
    .constdata__ZTIN10QtMobility14QGeoRouteReplyE 0x00046798   Section       12  qgeoroutereply.o(.constdata__ZTIN10QtMobility14QGeoRouteReplyE)
    .constdata__ZTIN10QtMobility15QGeoAreaMonitorE 0x000467a4   Section       12  moc_qgeoareamonitor.o(.constdata__ZTIN10QtMobility15QGeoAreaMonitorE)
    .constdata__ZTIN10QtMobility15QGeoBoundingBoxE 0x000467b0   Section       12  qgeoboundingbox.o(.constdata__ZTIN10QtMobility15QGeoBoundingBoxE)
    .constdata__ZTIN10QtMobility15QGeoSearchReplyE 0x000467bc   Section       12  qgeosearchreply.o(.constdata__ZTIN10QtMobility15QGeoSearchReplyE)
    .constdata__ZTIN10QtMobility15QGraphicsGeoMapE 0x000467c8   Section       12  qgraphicsgeomap.o(.constdata__ZTIN10QtMobility15QGraphicsGeoMapE)
    .constdata__ZTIN10QtMobility15QLandmarkFilterE 0x000467d4   Section        8  qlandmarkfilter.o(.constdata__ZTIN10QtMobility15QLandmarkFilterE)
    .constdata__ZTIN10QtMobility16QGeoBoundingAreaE 0x000467dc   Section        8  qgeoboundingarea.o(.constdata__ZTIN10QtMobility16QGeoBoundingAreaE)
    .constdata__ZTIN10QtMobility16QGeoPlacePrivateE 0x000467e4   Section       24  qgeoplace.o(.constdata__ZTIN10QtMobility16QGeoPlacePrivateE)
    .constdata__ZTIN10QtMobility16QGeoTiledMapDataE 0x000467fc   Section       12  qgeotiledmapdata.o(.constdata__ZTIN10QtMobility16QGeoTiledMapDataE)
    .constdata__ZTIN10QtMobility16QLandmarkManagerE 0x00046808   Section       12  qlandmarkmanager.o(.constdata__ZTIN10QtMobility16QLandmarkManagerE)
    .constdata__ZTIN10QtMobility16QLandmarkPrivateE 0x00046814   Section       12  qlandmark.o(.constdata__ZTIN10QtMobility16QLandmarkPrivateE)
    .constdata__ZTIN10QtMobility17QGeoMapObjectInfoE 0x00046820   Section       12  qgeomapobjectinfo.o(.constdata__ZTIN10QtMobility17QGeoMapObjectInfoE)
    .constdata__ZTIN10QtMobility17QGeoMapTextObjectE 0x0004682c   Section       12  qgeomaptextobject.o(.constdata__ZTIN10QtMobility17QGeoMapTextObjectE)
    .constdata__ZTIN10QtMobility17QGeoSearchManagerE 0x00046838   Section       12  qgeosearchmanager.o(.constdata__ZTIN10QtMobility17QGeoSearchManagerE)
    .constdata__ZTIN10QtMobility17QGeoTiledMapReplyE 0x00046844   Section       12  qgeotiledmapreply.o(.constdata__ZTIN10QtMobility17QGeoTiledMapReplyE)
    .constdata__ZTIN10QtMobility17QLandmarkIdFilterE 0x00046850   Section       12  qlandmarkidfilter.o(.constdata__ZTIN10QtMobility17QLandmarkIdFilterE)
    .constdata__ZTIN10QtMobility17QLandmarkNameSortE 0x0004685c   Section       12  qlandmarknamesort.o(.constdata__ZTIN10QtMobility17QLandmarkNameSortE)
    .constdata__ZTIN10QtMobility18QGeoAreaMonitorS60E 0x00046868   Section       32  qgeoareamonitor_s60.o(.constdata__ZTIN10QtMobility18QGeoAreaMonitorS60E)
    .constdata__ZTIN10QtMobility18QGeoBoundingCircleE 0x00046888   Section       12  qgeoboundingcircle.o(.constdata__ZTIN10QtMobility18QGeoBoundingCircleE)
    .constdata__ZTIN10QtMobility18QGeoMapDataPrivateE 0x00046894   Section        8  qgeomapdata.o(.constdata__ZTIN10QtMobility18QGeoMapDataPrivateE)
    .constdata__ZTIN10QtMobility18QGeoMapGroupObjectE 0x0004689c   Section       12  qgeomapgroupobject.o(.constdata__ZTIN10QtMobility18QGeoMapGroupObjectE)
    .constdata__ZTIN10QtMobility18QGeoMapRouteObjectE 0x000468a8   Section       12  qgeomaprouteobject.o(.constdata__ZTIN10QtMobility18QGeoMapRouteObjectE)
    .constdata__ZTIN10QtMobility18QGeoMappingManagerE 0x000468b4   Section       12  qgeomappingmanager.o(.constdata__ZTIN10QtMobility18QGeoMappingManagerE)
    .constdata__ZTIN10QtMobility18QGeoRoutingManagerE 0x000468c0   Section       12  qgeoroutingmanager.o(.constdata__ZTIN10QtMobility18QGeoRoutingManagerE)
    .constdata__ZTIN10QtMobility18QLandmarkBoxFilterE 0x000468cc   Section       12  qlandmarkboxfilter.o(.constdata__ZTIN10QtMobility18QLandmarkBoxFilterE)
    .constdata__ZTIN10QtMobility18QLandmarkSortOrderE 0x000468d8   Section        8  qlandmarksortorder.o(.constdata__ZTIN10QtMobility18QLandmarkSortOrderE)
    .constdata__ZTIN10QtMobility19CBackendMonitorInfoE 0x000468e0   Section       12  qmlbackendmonitorinfo_s60.o(.constdata__ZTIN10QtMobility19CBackendMonitorInfoE)
    .constdata__ZTIN10QtMobility19QGeoMapCircleObjectE 0x000468ec   Section       12  qgeomapcircleobject.o(.constdata__ZTIN10QtMobility19QGeoMapCircleObjectE)
    .constdata__ZTIN10QtMobility19QGeoMapPixmapObjectE 0x000468f8   Section       12  qgeomappixmapobject.o(.constdata__ZTIN10QtMobility19QGeoMapPixmapObjectE)
    .constdata__ZTIN10QtMobility19QLandmarkNameFilterE 0x00046904   Section       12  qlandmarknamefilter.o(.constdata__ZTIN10QtMobility19QLandmarkNameFilterE)
    .constdata__ZTIN10QtMobility19QMLBackendMonitorAOE 0x00046910   Section       12  qmlbackendmonitorao_s60.o(.constdata__ZTIN10QtMobility19QMLBackendMonitorAOE)
    .constdata__ZTIN10QtMobility19QNmeaRealTimeReaderE 0x0004691c   Section       12  qnmeapositioninfosource.o(.constdata__ZTIN10QtMobility19QNmeaRealTimeReaderE)
    .constdata__ZTIN10QtMobility20QGeoMapObjectPrivateE 0x00046928   Section        8  qgeomapobject.o(.constdata__ZTIN10QtMobility20QGeoMapObjectPrivateE)
    .constdata__ZTIN10QtMobility20QGeoMapPolygonObjectE 0x00046930   Section       12  qgeomappolygonobject.o(.constdata__ZTIN10QtMobility20QGeoMapPolygonObjectE)
    .constdata__ZTIN10QtMobility20QLandmarkSaveRequestE 0x0004693c   Section       12  qlandmarksaverequest.o(.constdata__ZTIN10QtMobility20QLandmarkSaveRequestE)
    .constdata__ZTIN10QtMobility20QLandmarkUnionFilterE 0x00046948   Section       12  qlandmarkunionfilter.o(.constdata__ZTIN10QtMobility20QLandmarkUnionFilterE)
    .constdata__ZTIN10QtMobility20QNmeaSimulatedReaderE 0x00046954   Section       32  qnmeapositioninfosource.o(.constdata__ZTIN10QtMobility20QNmeaSimulatedReaderE)
    .constdata__ZTIN10QtMobility21INotificationCallbackE 0x00046974   Section        8  qgeopositioninfosource_s60.o(.constdata__ZTIN10QtMobility21INotificationCallbackE)
    .constdata__ZTIN10QtMobility21QGeoMapOverlayPrivateE 0x0004697c   Section        8  qgeomapoverlay.o(.constdata__ZTIN10QtMobility21QGeoMapOverlayPrivateE)
    .constdata__ZTIN10QtMobility21QGeoMapPolylineObjectE 0x00046984   Section       12  qgeomappolylineobject.o(.constdata__ZTIN10QtMobility21QGeoMapPolylineObjectE)
    .constdata__ZTIN10QtMobility21QLandmarkFetchRequestE 0x00046990   Section       12  qlandmarkfetchrequest.o(.constdata__ZTIN10QtMobility21QLandmarkFetchRequestE)
    .constdata__ZTIN10QtMobility22QGeoMapRectangleObjectE 0x0004699c   Section       12  qgeomaprectangleobject.o(.constdata__ZTIN10QtMobility22QGeoMapRectangleObjectE)
    .constdata__ZTIN10QtMobility22QGeoPositionInfoSourceE 0x000469a8   Section       12  qgeopositioninfosource.o(.constdata__ZTIN10QtMobility22QGeoPositionInfoSourceE)
    .constdata__ZTIN10QtMobility22QGeoTiledMapObjectInfoE 0x000469b4   Section       12  qgeotiledmapobjectinfo_p.o(.constdata__ZTIN10QtMobility22QGeoTiledMapObjectInfoE)
    .constdata__ZTIN10QtMobility22QLandmarkExportRequestE 0x000469c0   Section       12  qlandmarkexportrequest.o(.constdata__ZTIN10QtMobility22QLandmarkExportRequestE)
    .constdata__ZTIN10QtMobility22QLandmarkFilterPrivateE 0x000469cc   Section       24  qlandmarkfilter.o(.constdata__ZTIN10QtMobility22QLandmarkFilterPrivateE)
    .constdata__ZTIN10QtMobility22QLandmarkImportRequestE 0x000469e4   Section       12  qlandmarkimportrequest.o(.constdata__ZTIN10QtMobility22QLandmarkImportRequestE)
    .constdata__ZTIN10QtMobility22QLandmarkManagerEngineE 0x000469f0   Section       12  qlandmarkmanagerengine.o(.constdata__ZTIN10QtMobility22QLandmarkManagerEngineE)
    .constdata__ZTIN10QtMobility22QLandmarkRemoveRequestE 0x000469fc   Section       12  qlandmarkremoverequest.o(.constdata__ZTIN10QtMobility22QLandmarkRemoveRequestE)
    .constdata__ZTIN10QtMobility23QGeoSatelliteInfoSourceE 0x00046a08   Section       12  qgeosatelliteinfosource.o(.constdata__ZTIN10QtMobility23QGeoSatelliteInfoSourceE)
    .constdata__ZTIN10QtMobility23QGeoSearchManagerEngineE 0x00046a14   Section       12  qgeosearchmanagerengine.o(.constdata__ZTIN10QtMobility23QGeoSearchManagerEngineE)
    .constdata__ZTIN10QtMobility23QGeoTiledMapDataPrivateE 0x00046a20   Section       12  qgeotiledmapdata.o(.constdata__ZTIN10QtMobility23QGeoTiledMapDataPrivateE)
    .constdata__ZTIN10QtMobility23QLandmarkCategoryFilterE 0x00046a2c   Section       12  qlandmarkcategoryfilter.o(.constdata__ZTIN10QtMobility23QLandmarkCategoryFilterE)
    .constdata__ZTIN10QtMobility23QLandmarkIdFetchRequestE 0x00046a38   Section       12  qlandmarkidfetchrequest.o(.constdata__ZTIN10QtMobility23QLandmarkIdFetchRequestE)
    .constdata__ZTIN10QtMobility23QNmeaPositionInfoSourceE 0x00046a44   Section       12  qnmeapositioninfosource.o(.constdata__ZTIN10QtMobility23QNmeaPositionInfoSourceE)
    .constdata__ZTIN10QtMobility24QGeoCombiningSearchReplyE 0x00046a50   Section       12  qgeosearchmanager.o(.constdata__ZTIN10QtMobility24QGeoCombiningSearchReplyE)
    .constdata__ZTIN10QtMobility24QGeoMapObjectInfoPrivateE 0x00046a5c   Section        8  qgeomapobjectinfo.o(.constdata__ZTIN10QtMobility24QGeoMapObjectInfoPrivateE)
    .constdata__ZTIN10QtMobility24QGeoMappingManagerEngineE 0x00046a64   Section       12  qgeomappingmanagerengine.o(.constdata__ZTIN10QtMobility24QGeoMappingManagerEngineE)
    .constdata__ZTIN10QtMobility24QGeoRoutingManagerEngineE 0x00046a70   Section       12  qgeoroutingmanagerengine.o(.constdata__ZTIN10QtMobility24QGeoRoutingManagerEngineE)
    .constdata__ZTIN10QtMobility24QLandmarkAbstractRequestE 0x00046a7c   Section       12  qlandmarkabstractrequest.o(.constdata__ZTIN10QtMobility24QLandmarkAbstractRequestE)
    .constdata__ZTIN10QtMobility24QLandmarkAttributeFilterE 0x00046a88   Section       12  qlandmarkattributefilter.o(.constdata__ZTIN10QtMobility24QLandmarkAttributeFilterE)
    .constdata__ZTIN10QtMobility24QLandmarkIdFilterPrivateE 0x00046a94   Section       12  qlandmarkidfilter.o(.constdata__ZTIN10QtMobility24QLandmarkIdFilterPrivateE)
    .constdata__ZTIN10QtMobility24QLandmarkNameSortPrivateE 0x00046aa0   Section       12  qlandmarknamesort.o(.constdata__ZTIN10QtMobility24QLandmarkNameSortPrivateE)
    .constdata__ZTIN10QtMobility24QLandmarkProximityFilterE 0x00046aac   Section       12  qlandmarkproximityfilter.o(.constdata__ZTIN10QtMobility24QLandmarkProximityFilterE)
    .constdata__ZTIN10QtMobility25QLandmarkBoxFilterPrivateE 0x00046ab8   Section       12  qlandmarkboxfilter.o(.constdata__ZTIN10QtMobility25QLandmarkBoxFilterPrivateE)
    .constdata__ZTIN10QtMobility25QLandmarkFetchByIdRequestE 0x00046ac4   Section       12  qlandmarkfetchbyidrequest.o(.constdata__ZTIN10QtMobility25QLandmarkFetchByIdRequestE)
    .constdata__ZTIN10QtMobility25QLandmarkSortOrderPrivateE 0x00046ad0   Section       24  qlandmarksortorder.o(.constdata__ZTIN10QtMobility25QLandmarkSortOrderPrivateE)
    .constdata__ZTIN10QtMobility25QMLBackendTriggerChangeAOE 0x00046ae8   Section       12  qmlbackendtriggerchangeao_s60.o(.constdata__ZTIN10QtMobility25QMLBackendTriggerChangeAOE)
    .constdata__ZTIN10QtMobility26CQGeoPositionInfoSourceS60E 0x00046af4   Section       32  qgeopositioninfosource_s60.o(.constdata__ZTIN10QtMobility26CQGeoPositionInfoSourceS60E)
    .constdata__ZTIN10QtMobility26QGeoServiceProviderFactoryE 0x00046b14   Section        8  qgeoserviceproviderfactory.o(.constdata__ZTIN10QtMobility26QGeoServiceProviderFactoryE)
    .constdata__ZTIN10QtMobility26QGeoTiledMapTextObjectInfoE 0x00046b1c   Section       12  qgeotiledmaptextobjectinfo_p.o(.constdata__ZTIN10QtMobility26QGeoTiledMapTextObjectInfoE)
    .constdata__ZTIN10QtMobility26QLandmarkNameFilterPrivateE 0x00046b28   Section       12  qlandmarknamefilter.o(.constdata__ZTIN10QtMobility26QLandmarkNameFilterPrivateE)
    .constdata__ZTIN10QtMobility27CQGeoSatelliteInfoSourceS60E 0x00046b34   Section       32  qgeosatelliteinfosource_s60.o(.constdata__ZTIN10QtMobility27CQGeoSatelliteInfoSourceS60E)
    .constdata__ZTIN10QtMobility27QGeoTiledMapGroupObjectInfoE 0x00046b54   Section       12  qgeotiledmapgroupobjectinfo_p.o(.constdata__ZTIN10QtMobility27QGeoTiledMapGroupObjectInfoE)
    .constdata__ZTIN10QtMobility27QGeoTiledMapRouteObjectInfoE 0x00046b60   Section       12  qgeotiledmaprouteobjectinfo_p.o(.constdata__ZTIN10QtMobility27QGeoTiledMapRouteObjectInfoE)
    .constdata__ZTIN10QtMobility27QLandmarkIntersectionFilterE 0x00046b6c   Section       12  qlandmarkintersectionfilter.o(.constdata__ZTIN10QtMobility27QLandmarkIntersectionFilterE)
    .constdata__ZTIN10QtMobility27QLandmarkSaveRequestPrivateE 0x00046b78   Section       12  qlandmarkcategoryfetchrequest.o(.constdata__ZTIN10QtMobility27QLandmarkSaveRequestPrivateE)
    .constdata__ZTIN10QtMobility27QLandmarkUnionFilterPrivateE 0x00046b84   Section       12  qlandmarkunionfilter.o(.constdata__ZTIN10QtMobility27QLandmarkUnionFilterPrivateE)
    .constdata__ZTIN10QtMobility28INotificationMonitorCallbackE 0x00046b90   Section        8  qgeoareamonitor_s60.o(.constdata__ZTIN10QtMobility28INotificationMonitorCallbackE)
    .constdata__ZTIN10QtMobility28QGeoTiledMapCircleObjectInfoE 0x00046b98   Section       12  qgeotiledmapcircleobjectinfo_p.o(.constdata__ZTIN10QtMobility28QGeoTiledMapCircleObjectInfoE)
    .constdata__ZTIN10QtMobility28QGeoTiledMapPixmapObjectInfoE 0x00046ba4   Section       12  qgeotiledmappixmapobjectinfo_p.o(.constdata__ZTIN10QtMobility28QGeoTiledMapPixmapObjectInfoE)
    .constdata__ZTIN10QtMobility28QLandmarkCategorySaveRequestE 0x00046bb0   Section       12  qlandmarkcategorysaverequest.o(.constdata__ZTIN10QtMobility28QLandmarkCategorySaveRequestE)
    .constdata__ZTIN10QtMobility28QLandmarkFetchRequestPrivateE 0x00046bbc   Section       12  qlandmarkcategoryfetchrequest.o(.constdata__ZTIN10QtMobility28QLandmarkFetchRequestPrivateE)
    .constdata__ZTIN10QtMobility29QGeoTiledMapPolygonObjectInfoE 0x00046bc8   Section       12  qgeotiledmappolygonobjectinfo_p.o(.constdata__ZTIN10QtMobility29QGeoTiledMapPolygonObjectInfoE)
    .constdata__ZTIN10QtMobility29QGeoTiledMappingManagerEngineE 0x00046bd4   Section       12  qgeotiledmappingmanagerengine.o(.constdata__ZTIN10QtMobility29QGeoTiledMappingManagerEngineE)
    .constdata__ZTIN10QtMobility29QLandmarkCategoryFetchRequestE 0x00046be0   Section       12  qlandmarkcategoryfetchrequest.o(.constdata__ZTIN10QtMobility29QLandmarkCategoryFetchRequestE)
    .constdata__ZTIN10QtMobility29QLandmarkExportRequestPrivateE 0x00046bec   Section       12  qlandmarkcategoryfetchrequest.o(.constdata__ZTIN10QtMobility29QLandmarkExportRequestPrivateE)
    .constdata__ZTIN10QtMobility29QLandmarkImportRequestPrivateE 0x00046bf8   Section       12  qlandmarkcategoryfetchrequest.o(.constdata__ZTIN10QtMobility29QLandmarkImportRequestPrivateE)
    .constdata__ZTIN10QtMobility29QLandmarkManagerEngineFactoryE 0x00046c04   Section        8  qlandmarkmanagerenginefactory.o(.constdata__ZTIN10QtMobility29QLandmarkManagerEngineFactoryE)
    .constdata__ZTIN10QtMobility29QLandmarkRemoveRequestPrivateE 0x00046c0c   Section       12  qlandmarkcategoryfetchrequest.o(.constdata__ZTIN10QtMobility29QLandmarkRemoveRequestPrivateE)
    .constdata__ZTIN10QtMobility30INotificationSatelliteCallbackE 0x00046c18   Section        8  qgeosatelliteinfosource_s60.o(.constdata__ZTIN10QtMobility30INotificationSatelliteCallbackE)
    .constdata__ZTIN10QtMobility30QGeoTiledMapPolylineObjectInfoE 0x00046c20   Section       12  qgeotiledmappolylineobjectinfo_p.o(.constdata__ZTIN10QtMobility30QGeoTiledMapPolylineObjectInfoE)
    .constdata__ZTIN10QtMobility30QLandmarkCategoryFilterPrivateE 0x00046c2c   Section       12  qlandmarkcategoryfilter.o(.constdata__ZTIN10QtMobility30QLandmarkCategoryFilterPrivateE)
    .constdata__ZTIN10QtMobility30QLandmarkCategoryRemoveRequestE 0x00046c38   Section       12  qlandmarkcategoryremoverequest.o(.constdata__ZTIN10QtMobility30QLandmarkCategoryRemoveRequestE)
    .constdata__ZTIN10QtMobility30QLandmarkIdFetchRequestPrivateE 0x00046c44   Section       12  qlandmarkcategoryfetchrequest.o(.constdata__ZTIN10QtMobility30QLandmarkIdFetchRequestPrivateE)
    .constdata__ZTIN10QtMobility30QNmeaPositionInfoSourcePrivateE 0x00046c50   Section       12  qnmeapositioninfosource.o(.constdata__ZTIN10QtMobility30QNmeaPositionInfoSourcePrivateE)
    .constdata__ZTIN10QtMobility31QGeoMappingManagerEnginePrivateE 0x00046c5c   Section        8  qgeomappingmanagerengine.o(.constdata__ZTIN10QtMobility31QGeoMappingManagerEnginePrivateE)
    .constdata__ZTIN10QtMobility31QGeoTiledMapRectangleObjectInfoE 0x00046c64   Section       12  qgeotiledmaprectangleobjectinfo_p.o(.constdata__ZTIN10QtMobility31QGeoTiledMapRectangleObjectInfoE)
    .constdata__ZTIN10QtMobility31QLandmarkAbstractRequestPrivateE 0x00046c70   Section        8  qlandmarkabstractrequest.o(.constdata__ZTIN10QtMobility31QLandmarkAbstractRequestPrivateE)
    .constdata__ZTIN10QtMobility31QLandmarkAttributeFilterPrivateE 0x00046c78   Section       12  qlandmarkattributefilter.o(.constdata__ZTIN10QtMobility31QLandmarkAttributeFilterPrivateE)
    .constdata__ZTIN10QtMobility31QLandmarkCategoryIdFetchRequestE 0x00046c84   Section       12  qlandmarkcategoryidfetchrequest.o(.constdata__ZTIN10QtMobility31QLandmarkCategoryIdFetchRequestE)
    .constdata__ZTIN10QtMobility31QLandmarkProximityFilterPrivateE 0x00046c90   Section       12  qlandmarkproximityfilter.o(.constdata__ZTIN10QtMobility31QLandmarkProximityFilterPrivateE)
    .constdata__ZTIN10QtMobility32QLandmarkFetchByIdRequestPrivateE 0x00046c9c   Section       12  qlandmarkcategoryfetchrequest.o(.constdata__ZTIN10QtMobility32QLandmarkFetchByIdRequestPrivateE)
    .constdata__ZTIN10QtMobility32QMLBackendMonitorCreateTriggerAOE 0x00046ca8   Section       12  qmlbackendmonitorcreatetriggerao_s60.o(.constdata__ZTIN10QtMobility32QMLBackendMonitorCreateTriggerAOE)
    .constdata__ZTIN10QtMobility33QLandmarkCategoryFetchByIdRequestE 0x00046cb4   Section       12  qlandmarkcategoryfetchbyidrequest.o(.constdata__ZTIN10QtMobility33QLandmarkCategoryFetchByIdRequestE)
    .constdata__ZTIN10QtMobility34QLandmarkIntersectionFilterPrivateE 0x00046cc0   Section       12  qlandmarkintersectionfilter.o(.constdata__ZTIN10QtMobility34QLandmarkIntersectionFilterPrivateE)
    .constdata__ZTIN10QtMobility35QLandmarkCategorySaveRequestPrivateE 0x00046ccc   Section       12  qlandmarkcategoryfetchrequest.o(.constdata__ZTIN10QtMobility35QLandmarkCategorySaveRequestPrivateE)
    .constdata__ZTIN10QtMobility36QGeoTiledMappingManagerEnginePrivateE 0x00046cd8   Section       12  qgeotiledmappingmanagerengine.o(.constdata__ZTIN10QtMobility36QGeoTiledMappingManagerEnginePrivateE)
    .constdata__ZTIN10QtMobility36QLandmarkCategoryFetchRequestPrivateE 0x00046ce4   Section       12  qlandmarkcategoryfetchrequest.o(.constdata__ZTIN10QtMobility36QLandmarkCategoryFetchRequestPrivateE)
    .constdata__ZTIN10QtMobility37QLandmarkCategoryRemoveRequestPrivateE 0x00046cf0   Section       12  qlandmarkcategoryfetchrequest.o(.constdata__ZTIN10QtMobility37QLandmarkCategoryRemoveRequestPrivateE)
    .constdata__ZTIN10QtMobility38QLandmarkCategoryIdFetchRequestPrivateE 0x00046cfc   Section       12  qlandmarkcategoryfetchrequest.o(.constdata__ZTIN10QtMobility38QLandmarkCategoryIdFetchRequestPrivateE)
    .constdata__ZTIN10QtMobility40QLandmarkCategoryFetchByIdRequestPrivateE 0x00046d08   Section       12  qlandmarkcategoryfetchrequest.o(.constdata__ZTIN10QtMobility40QLandmarkCategoryFetchByIdRequestPrivateE)
    .constdata__ZTIN10QtMobility9QGeoPlaceE  0x00046d14   Section        8  qgeoplace.o(.constdata__ZTIN10QtMobility9QGeoPlaceE)
    .constdata__ZTIN10QtMobility9QLandmarkE  0x00046d1c   Section       12  qlandmark.o(.constdata__ZTIN10QtMobility9QLandmarkE)
    .constdata__ZTS11QSharedData             0x00046d28   Section       14  qgeoplace.o(.constdata__ZTS11QSharedData)
    .constdata__ZTSN10QtMobility11QGeoMapDataE 0x00046d36   Section       28  qgeomapdata.o(.constdata__ZTSN10QtMobility11QGeoMapDataE)
    .constdata__ZTSN10QtMobility11QNmeaReaderE 0x00046d52   Section       28  qnmeapositioninfosource.o(.constdata__ZTSN10QtMobility11QNmeaReaderE)
    .constdata__ZTSN10QtMobility13CQMLBackendAOE 0x00046d6e   Section       30  qmlbackendao_s60.o(.constdata__ZTSN10QtMobility13CQMLBackendAOE)
    .constdata__ZTSN10QtMobility13QGeoMapObjectE 0x00046d8c   Section       30  qgeomapobject.o(.constdata__ZTSN10QtMobility13QGeoMapObjectE)
    .constdata__ZTSN10QtMobility14QGeoMapOverlayE 0x00046daa   Section       31  qgeomapoverlay.o(.constdata__ZTSN10QtMobility14QGeoMapOverlayE)
    .constdata__ZTSN10QtMobility14QGeoRouteReplyE 0x00046dc9   Section       31  qgeoroutereply.o(.constdata__ZTSN10QtMobility14QGeoRouteReplyE)
    .constdata__ZTSN10QtMobility15QGeoAreaMonitorE 0x00046de8   Section       32  moc_qgeoareamonitor.o(.constdata__ZTSN10QtMobility15QGeoAreaMonitorE)
    .constdata__ZTSN10QtMobility15QGeoBoundingBoxE 0x00046e08   Section       32  qgeoboundingbox.o(.constdata__ZTSN10QtMobility15QGeoBoundingBoxE)
    .constdata__ZTSN10QtMobility15QGeoSearchReplyE 0x00046e28   Section       32  qgeosearchreply.o(.constdata__ZTSN10QtMobility15QGeoSearchReplyE)
    .constdata__ZTSN10QtMobility15QGraphicsGeoMapE 0x00046e48   Section       32  qgraphicsgeomap.o(.constdata__ZTSN10QtMobility15QGraphicsGeoMapE)
    .constdata__ZTSN10QtMobility15QLandmarkFilterE 0x00046e68   Section       32  qlandmarkfilter.o(.constdata__ZTSN10QtMobility15QLandmarkFilterE)
    .constdata__ZTSN10QtMobility16QGeoBoundingAreaE 0x00046e88   Section       33  qgeoboundingarea.o(.constdata__ZTSN10QtMobility16QGeoBoundingAreaE)
    .constdata__ZTSN10QtMobility16QGeoPlacePrivateE 0x00046ea9   Section       33  qgeoplace.o(.constdata__ZTSN10QtMobility16QGeoPlacePrivateE)
    .constdata__ZTSN10QtMobility16QGeoTiledMapDataE 0x00046eca   Section       33  qgeotiledmapdata.o(.constdata__ZTSN10QtMobility16QGeoTiledMapDataE)
    .constdata__ZTSN10QtMobility16QLandmarkManagerE 0x00046eeb   Section       33  qlandmarkmanager.o(.constdata__ZTSN10QtMobility16QLandmarkManagerE)
    .constdata__ZTSN10QtMobility16QLandmarkPrivateE 0x00046f0c   Section       33  qlandmark.o(.constdata__ZTSN10QtMobility16QLandmarkPrivateE)
    .constdata__ZTSN10QtMobility17QGeoMapObjectInfoE 0x00046f2d   Section       34  qgeomapobjectinfo.o(.constdata__ZTSN10QtMobility17QGeoMapObjectInfoE)
    .constdata__ZTSN10QtMobility17QGeoMapTextObjectE 0x00046f4f   Section       34  qgeomaptextobject.o(.constdata__ZTSN10QtMobility17QGeoMapTextObjectE)
    .constdata__ZTSN10QtMobility17QGeoSearchManagerE 0x00046f71   Section       34  qgeosearchmanager.o(.constdata__ZTSN10QtMobility17QGeoSearchManagerE)
    .constdata__ZTSN10QtMobility17QGeoTiledMapReplyE 0x00046f93   Section       34  qgeotiledmapreply.o(.constdata__ZTSN10QtMobility17QGeoTiledMapReplyE)
    .constdata__ZTSN10QtMobility17QLandmarkIdFilterE 0x00046fb5   Section       34  qlandmarkidfilter.o(.constdata__ZTSN10QtMobility17QLandmarkIdFilterE)
    .constdata__ZTSN10QtMobility17QLandmarkNameSortE 0x00046fd7   Section       34  qlandmarknamesort.o(.constdata__ZTSN10QtMobility17QLandmarkNameSortE)
    .constdata__ZTSN10QtMobility18QGeoAreaMonitorS60E 0x00046ff9   Section       35  qgeoareamonitor_s60.o(.constdata__ZTSN10QtMobility18QGeoAreaMonitorS60E)
    .constdata__ZTSN10QtMobility18QGeoBoundingCircleE 0x0004701c   Section       35  qgeoboundingcircle.o(.constdata__ZTSN10QtMobility18QGeoBoundingCircleE)
    .constdata__ZTSN10QtMobility18QGeoMapDataPrivateE 0x0004703f   Section       35  qgeomapdata.o(.constdata__ZTSN10QtMobility18QGeoMapDataPrivateE)
    .constdata__ZTSN10QtMobility18QGeoMapGroupObjectE 0x00047062   Section       35  qgeomapgroupobject.o(.constdata__ZTSN10QtMobility18QGeoMapGroupObjectE)
    .constdata__ZTSN10QtMobility18QGeoMapRouteObjectE 0x00047085   Section       35  qgeomaprouteobject.o(.constdata__ZTSN10QtMobility18QGeoMapRouteObjectE)
    .constdata__ZTSN10QtMobility18QGeoMappingManagerE 0x000470a8   Section       35  qgeomappingmanager.o(.constdata__ZTSN10QtMobility18QGeoMappingManagerE)
    .constdata__ZTSN10QtMobility18QGeoRoutingManagerE 0x000470cb   Section       35  qgeoroutingmanager.o(.constdata__ZTSN10QtMobility18QGeoRoutingManagerE)
    .constdata__ZTSN10QtMobility18QLandmarkBoxFilterE 0x000470ee   Section       35  qlandmarkboxfilter.o(.constdata__ZTSN10QtMobility18QLandmarkBoxFilterE)
    .constdata__ZTSN10QtMobility18QLandmarkSortOrderE 0x00047111   Section       35  qlandmarksortorder.o(.constdata__ZTSN10QtMobility18QLandmarkSortOrderE)
    .constdata__ZTSN10QtMobility19CBackendMonitorInfoE 0x00047134   Section       36  qmlbackendmonitorinfo_s60.o(.constdata__ZTSN10QtMobility19CBackendMonitorInfoE)
    .constdata__ZTSN10QtMobility19QGeoMapCircleObjectE 0x00047158   Section       36  qgeomapcircleobject.o(.constdata__ZTSN10QtMobility19QGeoMapCircleObjectE)
    .constdata__ZTSN10QtMobility19QGeoMapPixmapObjectE 0x0004717c   Section       36  qgeomappixmapobject.o(.constdata__ZTSN10QtMobility19QGeoMapPixmapObjectE)
    .constdata__ZTSN10QtMobility19QLandmarkNameFilterE 0x000471a0   Section       36  qlandmarknamefilter.o(.constdata__ZTSN10QtMobility19QLandmarkNameFilterE)
    .constdata__ZTSN10QtMobility19QMLBackendMonitorAOE 0x000471c4   Section       36  qmlbackendmonitorao_s60.o(.constdata__ZTSN10QtMobility19QMLBackendMonitorAOE)
    .constdata__ZTSN10QtMobility19QNmeaRealTimeReaderE 0x000471e8   Section       36  qnmeapositioninfosource.o(.constdata__ZTSN10QtMobility19QNmeaRealTimeReaderE)
    .constdata__ZTSN10QtMobility20QGeoMapObjectPrivateE 0x0004720c   Section       37  qgeomapobject.o(.constdata__ZTSN10QtMobility20QGeoMapObjectPrivateE)
    .constdata__ZTSN10QtMobility20QGeoMapPolygonObjectE 0x00047231   Section       37  qgeomappolygonobject.o(.constdata__ZTSN10QtMobility20QGeoMapPolygonObjectE)
    .constdata__ZTSN10QtMobility20QLandmarkSaveRequestE 0x00047256   Section       37  qlandmarksaverequest.o(.constdata__ZTSN10QtMobility20QLandmarkSaveRequestE)
    .constdata__ZTSN10QtMobility20QLandmarkUnionFilterE 0x0004727b   Section       37  qlandmarkunionfilter.o(.constdata__ZTSN10QtMobility20QLandmarkUnionFilterE)
    .constdata__ZTSN10QtMobility20QNmeaSimulatedReaderE 0x000472a0   Section       37  qnmeapositioninfosource.o(.constdata__ZTSN10QtMobility20QNmeaSimulatedReaderE)
    .constdata__ZTSN10QtMobility21INotificationCallbackE 0x000472c5   Section       38  qgeopositioninfosource_s60.o(.constdata__ZTSN10QtMobility21INotificationCallbackE)
    .constdata__ZTSN10QtMobility21QGeoMapOverlayPrivateE 0x000472eb   Section       38  qgeomapoverlay.o(.constdata__ZTSN10QtMobility21QGeoMapOverlayPrivateE)
    .constdata__ZTSN10QtMobility21QGeoMapPolylineObjectE 0x00047311   Section       38  qgeomappolylineobject.o(.constdata__ZTSN10QtMobility21QGeoMapPolylineObjectE)
    .constdata__ZTSN10QtMobility21QLandmarkFetchRequestE 0x00047337   Section       38  qlandmarkfetchrequest.o(.constdata__ZTSN10QtMobility21QLandmarkFetchRequestE)
    .constdata__ZTSN10QtMobility22QGeoMapRectangleObjectE 0x0004735d   Section       39  qgeomaprectangleobject.o(.constdata__ZTSN10QtMobility22QGeoMapRectangleObjectE)
    .constdata__ZTSN10QtMobility22QGeoPositionInfoSourceE 0x00047384   Section       39  qgeopositioninfosource.o(.constdata__ZTSN10QtMobility22QGeoPositionInfoSourceE)
    .constdata__ZTSN10QtMobility22QGeoTiledMapObjectInfoE 0x000473ab   Section       39  qgeotiledmapobjectinfo_p.o(.constdata__ZTSN10QtMobility22QGeoTiledMapObjectInfoE)
    .constdata__ZTSN10QtMobility22QLandmarkExportRequestE 0x000473d2   Section       39  qlandmarkexportrequest.o(.constdata__ZTSN10QtMobility22QLandmarkExportRequestE)
    .constdata__ZTSN10QtMobility22QLandmarkFilterPrivateE 0x000473f9   Section       39  qlandmarkfilter.o(.constdata__ZTSN10QtMobility22QLandmarkFilterPrivateE)
    .constdata__ZTSN10QtMobility22QLandmarkImportRequestE 0x00047420   Section       39  qlandmarkimportrequest.o(.constdata__ZTSN10QtMobility22QLandmarkImportRequestE)
    .constdata__ZTSN10QtMobility22QLandmarkManagerEngineE 0x00047447   Section       39  qlandmarkmanagerengine.o(.constdata__ZTSN10QtMobility22QLandmarkManagerEngineE)
    .constdata__ZTSN10QtMobility22QLandmarkRemoveRequestE 0x0004746e   Section       39  qlandmarkremoverequest.o(.constdata__ZTSN10QtMobility22QLandmarkRemoveRequestE)
    .constdata__ZTSN10QtMobility23QGeoSatelliteInfoSourceE 0x00047495   Section       40  qgeosatelliteinfosource.o(.constdata__ZTSN10QtMobility23QGeoSatelliteInfoSourceE)
    .constdata__ZTSN10QtMobility23QGeoSearchManagerEngineE 0x000474bd   Section       40  qgeosearchmanagerengine.o(.constdata__ZTSN10QtMobility23QGeoSearchManagerEngineE)
    .constdata__ZTSN10QtMobility23QGeoTiledMapDataPrivateE 0x000474e5   Section       40  qgeotiledmapdata.o(.constdata__ZTSN10QtMobility23QGeoTiledMapDataPrivateE)
    .constdata__ZTSN10QtMobility23QLandmarkCategoryFilterE 0x0004750d   Section       40  qlandmarkcategoryfilter.o(.constdata__ZTSN10QtMobility23QLandmarkCategoryFilterE)
    .constdata__ZTSN10QtMobility23QLandmarkIdFetchRequestE 0x00047535   Section       40  qlandmarkidfetchrequest.o(.constdata__ZTSN10QtMobility23QLandmarkIdFetchRequestE)
    .constdata__ZTSN10QtMobility23QNmeaPositionInfoSourceE 0x0004755d   Section       40  qnmeapositioninfosource.o(.constdata__ZTSN10QtMobility23QNmeaPositionInfoSourceE)
    .constdata__ZTSN10QtMobility24QGeoCombiningSearchReplyE 0x00047585   Section       41  qgeosearchmanager.o(.constdata__ZTSN10QtMobility24QGeoCombiningSearchReplyE)
    .constdata__ZTSN10QtMobility24QGeoMapObjectInfoPrivateE 0x000475ae   Section       41  qgeomapobjectinfo.o(.constdata__ZTSN10QtMobility24QGeoMapObjectInfoPrivateE)
    .constdata__ZTSN10QtMobility24QGeoMappingManagerEngineE 0x000475d7   Section       41  qgeomappingmanagerengine.o(.constdata__ZTSN10QtMobility24QGeoMappingManagerEngineE)
    .constdata__ZTSN10QtMobility24QGeoRoutingManagerEngineE 0x00047600   Section       41  qgeoroutingmanagerengine.o(.constdata__ZTSN10QtMobility24QGeoRoutingManagerEngineE)
    .constdata__ZTSN10QtMobility24QLandmarkAbstractRequestE 0x00047629   Section       41  qlandmarkabstractrequest.o(.constdata__ZTSN10QtMobility24QLandmarkAbstractRequestE)
    .constdata__ZTSN10QtMobility24QLandmarkAttributeFilterE 0x00047652   Section       41  qlandmarkattributefilter.o(.constdata__ZTSN10QtMobility24QLandmarkAttributeFilterE)
    .constdata__ZTSN10QtMobility24QLandmarkIdFilterPrivateE 0x0004767b   Section       41  qlandmarkidfilter.o(.constdata__ZTSN10QtMobility24QLandmarkIdFilterPrivateE)
    .constdata__ZTSN10QtMobility24QLandmarkNameSortPrivateE 0x000476a4   Section       41  qlandmarknamesort.o(.constdata__ZTSN10QtMobility24QLandmarkNameSortPrivateE)
    .constdata__ZTSN10QtMobility24QLandmarkProximityFilterE 0x000476cd   Section       41  qlandmarkproximityfilter.o(.constdata__ZTSN10QtMobility24QLandmarkProximityFilterE)
    .constdata__ZTSN10QtMobility25QLandmarkBoxFilterPrivateE 0x000476f6   Section       42  qlandmarkboxfilter.o(.constdata__ZTSN10QtMobility25QLandmarkBoxFilterPrivateE)
    .constdata__ZTSN10QtMobility25QLandmarkFetchByIdRequestE 0x00047720   Section       42  qlandmarkfetchbyidrequest.o(.constdata__ZTSN10QtMobility25QLandmarkFetchByIdRequestE)
    .constdata__ZTSN10QtMobility25QLandmarkSortOrderPrivateE 0x0004774a   Section       42  qlandmarksortorder.o(.constdata__ZTSN10QtMobility25QLandmarkSortOrderPrivateE)
    .constdata__ZTSN10QtMobility25QMLBackendTriggerChangeAOE 0x00047774   Section       42  qmlbackendtriggerchangeao_s60.o(.constdata__ZTSN10QtMobility25QMLBackendTriggerChangeAOE)
    .constdata__ZTSN10QtMobility26CQGeoPositionInfoSourceS60E 0x0004779e   Section       43  qgeopositioninfosource_s60.o(.constdata__ZTSN10QtMobility26CQGeoPositionInfoSourceS60E)
    .constdata__ZTSN10QtMobility26QGeoServiceProviderFactoryE 0x000477c9   Section       43  qgeoserviceproviderfactory.o(.constdata__ZTSN10QtMobility26QGeoServiceProviderFactoryE)
    .constdata__ZTSN10QtMobility26QGeoTiledMapTextObjectInfoE 0x000477f4   Section       43  qgeotiledmaptextobjectinfo_p.o(.constdata__ZTSN10QtMobility26QGeoTiledMapTextObjectInfoE)
    .constdata__ZTSN10QtMobility26QLandmarkNameFilterPrivateE 0x0004781f   Section       43  qlandmarknamefilter.o(.constdata__ZTSN10QtMobility26QLandmarkNameFilterPrivateE)
    .constdata__ZTSN10QtMobility27CQGeoSatelliteInfoSourceS60E 0x0004784a   Section       44  qgeosatelliteinfosource_s60.o(.constdata__ZTSN10QtMobility27CQGeoSatelliteInfoSourceS60E)
    .constdata__ZTSN10QtMobility27QGeoTiledMapGroupObjectInfoE 0x00047876   Section       44  qgeotiledmapgroupobjectinfo_p.o(.constdata__ZTSN10QtMobility27QGeoTiledMapGroupObjectInfoE)
    .constdata__ZTSN10QtMobility27QGeoTiledMapRouteObjectInfoE 0x000478a2   Section       44  qgeotiledmaprouteobjectinfo_p.o(.constdata__ZTSN10QtMobility27QGeoTiledMapRouteObjectInfoE)
    .constdata__ZTSN10QtMobility27QLandmarkIntersectionFilterE 0x000478ce   Section       44  qlandmarkintersectionfilter.o(.constdata__ZTSN10QtMobility27QLandmarkIntersectionFilterE)
    .constdata__ZTSN10QtMobility27QLandmarkSaveRequestPrivateE 0x000478fa   Section       44  qlandmarkcategoryfetchrequest.o(.constdata__ZTSN10QtMobility27QLandmarkSaveRequestPrivateE)
    .constdata__ZTSN10QtMobility27QLandmarkUnionFilterPrivateE 0x00047926   Section       44  qlandmarkunionfilter.o(.constdata__ZTSN10QtMobility27QLandmarkUnionFilterPrivateE)
    .constdata__ZTSN10QtMobility28INotificationMonitorCallbackE 0x00047952   Section       45  qgeoareamonitor_s60.o(.constdata__ZTSN10QtMobility28INotificationMonitorCallbackE)
    .constdata__ZTSN10QtMobility28QGeoTiledMapCircleObjectInfoE 0x0004797f   Section       45  qgeotiledmapcircleobjectinfo_p.o(.constdata__ZTSN10QtMobility28QGeoTiledMapCircleObjectInfoE)
    .constdata__ZTSN10QtMobility28QGeoTiledMapPixmapObjectInfoE 0x000479ac   Section       45  qgeotiledmappixmapobjectinfo_p.o(.constdata__ZTSN10QtMobility28QGeoTiledMapPixmapObjectInfoE)
    .constdata__ZTSN10QtMobility28QLandmarkCategorySaveRequestE 0x000479d9   Section       45  qlandmarkcategorysaverequest.o(.constdata__ZTSN10QtMobility28QLandmarkCategorySaveRequestE)
    .constdata__ZTSN10QtMobility28QLandmarkFetchRequestPrivateE 0x00047a06   Section       45  qlandmarkcategoryfetchrequest.o(.constdata__ZTSN10QtMobility28QLandmarkFetchRequestPrivateE)
    .constdata__ZTSN10QtMobility29QGeoTiledMapPolygonObjectInfoE 0x00047a33   Section       46  qgeotiledmappolygonobjectinfo_p.o(.constdata__ZTSN10QtMobility29QGeoTiledMapPolygonObjectInfoE)
    .constdata__ZTSN10QtMobility29QGeoTiledMappingManagerEngineE 0x00047a61   Section       46  qgeotiledmappingmanagerengine.o(.constdata__ZTSN10QtMobility29QGeoTiledMappingManagerEngineE)
    .constdata__ZTSN10QtMobility29QLandmarkCategoryFetchRequestE 0x00047a8f   Section       46  qlandmarkcategoryfetchrequest.o(.constdata__ZTSN10QtMobility29QLandmarkCategoryFetchRequestE)
    .constdata__ZTSN10QtMobility29QLandmarkExportRequestPrivateE 0x00047abd   Section       46  qlandmarkcategoryfetchrequest.o(.constdata__ZTSN10QtMobility29QLandmarkExportRequestPrivateE)
    .constdata__ZTSN10QtMobility29QLandmarkImportRequestPrivateE 0x00047aeb   Section       46  qlandmarkcategoryfetchrequest.o(.constdata__ZTSN10QtMobility29QLandmarkImportRequestPrivateE)
    .constdata__ZTSN10QtMobility29QLandmarkManagerEngineFactoryE 0x00047b19   Section       46  qlandmarkmanagerenginefactory.o(.constdata__ZTSN10QtMobility29QLandmarkManagerEngineFactoryE)
    .constdata__ZTSN10QtMobility29QLandmarkRemoveRequestPrivateE 0x00047b47   Section       46  qlandmarkcategoryfetchrequest.o(.constdata__ZTSN10QtMobility29QLandmarkRemoveRequestPrivateE)
    .constdata__ZTSN10QtMobility30INotificationSatelliteCallbackE 0x00047b75   Section       47  qgeosatelliteinfosource_s60.o(.constdata__ZTSN10QtMobility30INotificationSatelliteCallbackE)
    .constdata__ZTSN10QtMobility30QGeoTiledMapPolylineObjectInfoE 0x00047ba4   Section       47  qgeotiledmappolylineobjectinfo_p.o(.constdata__ZTSN10QtMobility30QGeoTiledMapPolylineObjectInfoE)
    .constdata__ZTSN10QtMobility30QLandmarkCategoryFilterPrivateE 0x00047bd3   Section       47  qlandmarkcategoryfilter.o(.constdata__ZTSN10QtMobility30QLandmarkCategoryFilterPrivateE)
    .constdata__ZTSN10QtMobility30QLandmarkCategoryRemoveRequestE 0x00047c02   Section       47  qlandmarkcategoryremoverequest.o(.constdata__ZTSN10QtMobility30QLandmarkCategoryRemoveRequestE)
    .constdata__ZTSN10QtMobility30QLandmarkIdFetchRequestPrivateE 0x00047c31   Section       47  qlandmarkcategoryfetchrequest.o(.constdata__ZTSN10QtMobility30QLandmarkIdFetchRequestPrivateE)
    .constdata__ZTSN10QtMobility30QNmeaPositionInfoSourcePrivateE 0x00047c60   Section       47  qnmeapositioninfosource.o(.constdata__ZTSN10QtMobility30QNmeaPositionInfoSourcePrivateE)
    .constdata__ZTSN10QtMobility31QGeoMappingManagerEnginePrivateE 0x00047c8f   Section       48  qgeomappingmanagerengine.o(.constdata__ZTSN10QtMobility31QGeoMappingManagerEnginePrivateE)
    .constdata__ZTSN10QtMobility31QGeoTiledMapRectangleObjectInfoE 0x00047cbf   Section       48  qgeotiledmaprectangleobjectinfo_p.o(.constdata__ZTSN10QtMobility31QGeoTiledMapRectangleObjectInfoE)
    .constdata__ZTSN10QtMobility31QLandmarkAbstractRequestPrivateE 0x00047cef   Section       48  qlandmarkabstractrequest.o(.constdata__ZTSN10QtMobility31QLandmarkAbstractRequestPrivateE)
    .constdata__ZTSN10QtMobility31QLandmarkAttributeFilterPrivateE 0x00047d1f   Section       48  qlandmarkattributefilter.o(.constdata__ZTSN10QtMobility31QLandmarkAttributeFilterPrivateE)
    .constdata__ZTSN10QtMobility31QLandmarkCategoryIdFetchRequestE 0x00047d4f   Section       48  qlandmarkcategoryidfetchrequest.o(.constdata__ZTSN10QtMobility31QLandmarkCategoryIdFetchRequestE)
    .constdata__ZTSN10QtMobility31QLandmarkProximityFilterPrivateE 0x00047d7f   Section       48  qlandmarkproximityfilter.o(.constdata__ZTSN10QtMobility31QLandmarkProximityFilterPrivateE)
    .constdata__ZTSN10QtMobility32QLandmarkFetchByIdRequestPrivateE 0x00047daf   Section       49  qlandmarkcategoryfetchrequest.o(.constdata__ZTSN10QtMobility32QLandmarkFetchByIdRequestPrivateE)
    .constdata__ZTSN10QtMobility32QMLBackendMonitorCreateTriggerAOE 0x00047de0   Section       49  qmlbackendmonitorcreatetriggerao_s60.o(.constdata__ZTSN10QtMobility32QMLBackendMonitorCreateTriggerAOE)
    .constdata__ZTSN10QtMobility33QLandmarkCategoryFetchByIdRequestE 0x00047e11   Section       50  qlandmarkcategoryfetchbyidrequest.o(.constdata__ZTSN10QtMobility33QLandmarkCategoryFetchByIdRequestE)
    .constdata__ZTSN10QtMobility34QLandmarkIntersectionFilterPrivateE 0x00047e43   Section       51  qlandmarkintersectionfilter.o(.constdata__ZTSN10QtMobility34QLandmarkIntersectionFilterPrivateE)
    .constdata__ZTSN10QtMobility35QLandmarkCategorySaveRequestPrivateE 0x00047e76   Section       52  qlandmarkcategoryfetchrequest.o(.constdata__ZTSN10QtMobility35QLandmarkCategorySaveRequestPrivateE)
    .constdata__ZTSN10QtMobility36QGeoTiledMappingManagerEnginePrivateE 0x00047eaa   Section       53  qgeotiledmappingmanagerengine.o(.constdata__ZTSN10QtMobility36QGeoTiledMappingManagerEnginePrivateE)
    .constdata__ZTSN10QtMobility36QLandmarkCategoryFetchRequestPrivateE 0x00047edf   Section       53  qlandmarkcategoryfetchrequest.o(.constdata__ZTSN10QtMobility36QLandmarkCategoryFetchRequestPrivateE)
    .constdata__ZTSN10QtMobility37QLandmarkCategoryRemoveRequestPrivateE 0x00047f14   Section       54  qlandmarkcategoryfetchrequest.o(.constdata__ZTSN10QtMobility37QLandmarkCategoryRemoveRequestPrivateE)
    .constdata__ZTSN10QtMobility38QLandmarkCategoryIdFetchRequestPrivateE 0x00047f4a   Section       55  qlandmarkcategoryfetchrequest.o(.constdata__ZTSN10QtMobility38QLandmarkCategoryIdFetchRequestPrivateE)
    .constdata__ZTSN10QtMobility40QLandmarkCategoryFetchByIdRequestPrivateE 0x00047f81   Section       57  qlandmarkcategoryfetchrequest.o(.constdata__ZTSN10QtMobility40QLandmarkCategoryFetchByIdRequestPrivateE)
    .constdata__ZTSN10QtMobility9QGeoPlaceE  0x00047fba   Section       25  qgeoplace.o(.constdata__ZTSN10QtMobility9QGeoPlaceE)
    .constdata__ZTSN10QtMobility9QLandmarkE  0x00047fd3   Section       25  qlandmark.o(.constdata__ZTSN10QtMobility9QLandmarkE)
    .constdata__ZTVN10QtMobility11QGeoMapDataE 0x00047fec   Section      152  qgeomapdata.o(.constdata__ZTVN10QtMobility11QGeoMapDataE)
    .constdata__ZTVN10QtMobility11QNmeaReaderE 0x00048084   Section       20  qnmeapositioninfosource.o(.constdata__ZTVN10QtMobility11QNmeaReaderE)
    .constdata__ZTVN10QtMobility13CQMLBackendAOE 0x00048098   Section       32  qmlbackendao_s60.o(.constdata__ZTVN10QtMobility13CQMLBackendAOE)
    .constdata__ZTVN10QtMobility13QGeoMapObjectE 0x000480b8   Section       76  qgeomapobject.o(.constdata__ZTVN10QtMobility13QGeoMapObjectE)
    .constdata__ZTVN10QtMobility14QGeoMapOverlayE 0x00048104   Section       20  qgeomapoverlay.o(.constdata__ZTVN10QtMobility14QGeoMapOverlayE)
    .constdata__ZTVN10QtMobility14QGeoRouteReplyE 0x00048118   Section       60  qgeoroutereply.o(.constdata__ZTVN10QtMobility14QGeoRouteReplyE)
    .constdata__ZTVN10QtMobility15QGeoAreaMonitorE 0x00048154   Section       64  moc_qgeoareamonitor.o(.constdata__ZTVN10QtMobility15QGeoAreaMonitorE)
    .constdata__ZTVN10QtMobility15QGeoBoundingBoxE 0x00048194   Section       32  qgeoboundingbox.o(.constdata__ZTVN10QtMobility15QGeoBoundingBoxE)
    .constdata__ZTVN10QtMobility15QGeoSearchReplyE 0x000481b4   Section       60  qgeosearchreply.o(.constdata__ZTVN10QtMobility15QGeoSearchReplyE)
    .constdata__ZTVN10QtMobility15QGraphicsGeoMapE 0x000481f0   Section      368  qgraphicsgeomap.o(.constdata__ZTVN10QtMobility15QGraphicsGeoMapE)
    .constdata__ZTVN10QtMobility15QLandmarkFilterE 0x00048360   Section       16  qlandmarkfilter.o(.constdata__ZTVN10QtMobility15QLandmarkFilterE)
    .constdata__ZTVN10QtMobility16QGeoBoundingAreaE 0x00048370   Section       32  qgeoboundingarea.o(.constdata__ZTVN10QtMobility16QGeoBoundingAreaE)
    .constdata__ZTVN10QtMobility16QGeoPlacePrivateE 0x00048390   Section       24  qgeoplace.o(.constdata__ZTVN10QtMobility16QGeoPlacePrivateE)
    .constdata__ZTVN10QtMobility16QGeoTiledMapDataE 0x000483a8   Section      160  qgeotiledmapdata.o(.constdata__ZTVN10QtMobility16QGeoTiledMapDataE)
    .constdata__ZTVN10QtMobility16QLandmarkManagerE 0x00048448   Section       56  qlandmarkmanager.o(.constdata__ZTVN10QtMobility16QLandmarkManagerE)
    .constdata__ZTVN10QtMobility16QLandmarkPrivateE 0x00048480   Section       24  qlandmark.o(.constdata__ZTVN10QtMobility16QLandmarkPrivateE)
    .constdata__ZTVN10QtMobility17QGeoMapObjectInfoE 0x00048498   Section       92  qgeomapobjectinfo.o(.constdata__ZTVN10QtMobility17QGeoMapObjectInfoE)
    .constdata__ZTVN10QtMobility17QGeoMapTextObjectE 0x000484f4   Section       76  qgeomaptextobject.o(.constdata__ZTVN10QtMobility17QGeoMapTextObjectE)
    .constdata__ZTVN10QtMobility17QGeoSearchManagerE 0x00048540   Section       56  qgeosearchmanager.o(.constdata__ZTVN10QtMobility17QGeoSearchManagerE)
    .constdata__ZTVN10QtMobility17QGeoTiledMapReplyE 0x00048578   Section       60  qgeotiledmapreply.o(.constdata__ZTVN10QtMobility17QGeoTiledMapReplyE)
    .constdata__ZTVN10QtMobility17QLandmarkIdFilterE 0x000485b4   Section       16  qlandmarkidfilter.o(.constdata__ZTVN10QtMobility17QLandmarkIdFilterE)
    .constdata__ZTVN10QtMobility17QLandmarkNameSortE 0x000485c4   Section       16  qlandmarknamesort.o(.constdata__ZTVN10QtMobility17QLandmarkNameSortE)
    .constdata__ZTVN10QtMobility18QGeoAreaMonitorS60E 0x000485d4   Section      100  qgeoareamonitor_s60.o(.constdata__ZTVN10QtMobility18QGeoAreaMonitorS60E)
    .constdata__ZTVN10QtMobility18QGeoBoundingCircleE 0x00048638   Section       32  qgeoboundingcircle.o(.constdata__ZTVN10QtMobility18QGeoBoundingCircleE)
    .constdata__ZTVN10QtMobility18QGeoMapDataPrivateE 0x00048658   Section       16  qgeomapdata.o(.constdata__ZTVN10QtMobility18QGeoMapDataPrivateE)
    .constdata__ZTVN10QtMobility18QGeoMapGroupObjectE 0x00048668   Section       76  qgeomapgroupobject.o(.constdata__ZTVN10QtMobility18QGeoMapGroupObjectE)
    .constdata__ZTVN10QtMobility18QGeoMapRouteObjectE 0x000486b4   Section       76  qgeomaprouteobject.o(.constdata__ZTVN10QtMobility18QGeoMapRouteObjectE)
    .constdata__ZTVN10QtMobility18QGeoMappingManagerE 0x00048700   Section       56  qgeomappingmanager.o(.constdata__ZTVN10QtMobility18QGeoMappingManagerE)
    .constdata__ZTVN10QtMobility18QGeoRoutingManagerE 0x00048738   Section       56  qgeoroutingmanager.o(.constdata__ZTVN10QtMobility18QGeoRoutingManagerE)
    .constdata__ZTVN10QtMobility18QLandmarkBoxFilterE 0x00048770   Section       16  qlandmarkboxfilter.o(.constdata__ZTVN10QtMobility18QLandmarkBoxFilterE)
    .constdata__ZTVN10QtMobility18QLandmarkSortOrderE 0x00048780   Section       16  qlandmarksortorder.o(.constdata__ZTVN10QtMobility18QLandmarkSortOrderE)
    .constdata__ZTVN10QtMobility19CBackendMonitorInfoE 0x00048790   Section       20  qmlbackendmonitorinfo_s60.o(.constdata__ZTVN10QtMobility19CBackendMonitorInfoE)
    .constdata__ZTVN10QtMobility19QGeoMapCircleObjectE 0x000487a4   Section       76  qgeomapcircleobject.o(.constdata__ZTVN10QtMobility19QGeoMapCircleObjectE)
    .constdata__ZTVN10QtMobility19QGeoMapPixmapObjectE 0x000487f0   Section       76  qgeomappixmapobject.o(.constdata__ZTVN10QtMobility19QGeoMapPixmapObjectE)
    .constdata__ZTVN10QtMobility19QLandmarkNameFilterE 0x0004883c   Section       16  qlandmarknamefilter.o(.constdata__ZTVN10QtMobility19QLandmarkNameFilterE)
    .constdata__ZTVN10QtMobility19QMLBackendMonitorAOE 0x0004884c   Section       32  qmlbackendmonitorao_s60.o(.constdata__ZTVN10QtMobility19QMLBackendMonitorAOE)
    .constdata__ZTVN10QtMobility19QNmeaRealTimeReaderE 0x0004886c   Section       20  qnmeapositioninfosource.o(.constdata__ZTVN10QtMobility19QNmeaRealTimeReaderE)
    .constdata__ZTVN10QtMobility20QGeoMapObjectPrivateE 0x00048880   Section       16  qgeomapobject.o(.constdata__ZTVN10QtMobility20QGeoMapObjectPrivateE)
    .constdata__ZTVN10QtMobility20QGeoMapPolygonObjectE 0x00048890   Section       76  qgeomappolygonobject.o(.constdata__ZTVN10QtMobility20QGeoMapPolygonObjectE)
    .constdata__ZTVN10QtMobility20QLandmarkSaveRequestE 0x000488dc   Section       56  qlandmarksaverequest.o(.constdata__ZTVN10QtMobility20QLandmarkSaveRequestE)
    .constdata__ZTVN10QtMobility20QLandmarkUnionFilterE 0x00048914   Section       16  qlandmarkunionfilter.o(.constdata__ZTVN10QtMobility20QLandmarkUnionFilterE)
    .constdata__ZTVN10QtMobility20QNmeaSimulatedReaderE 0x00048924   Section       80  qnmeapositioninfosource.o(.constdata__ZTVN10QtMobility20QNmeaSimulatedReaderE)
    .constdata__ZTVN10QtMobility21INotificationCallbackE 0x00048974   Section       16  qgeopositioninfosource_s60.o(.constdata__ZTVN10QtMobility21INotificationCallbackE)
    .constdata__ZTVN10QtMobility21QGeoMapOverlayPrivateE 0x00048984   Section       16  qgeomapoverlay.o(.constdata__ZTVN10QtMobility21QGeoMapOverlayPrivateE)
    .constdata__ZTVN10QtMobility21QGeoMapPolylineObjectE 0x00048994   Section       76  qgeomappolylineobject.o(.constdata__ZTVN10QtMobility21QGeoMapPolylineObjectE)
    .constdata__ZTVN10QtMobility21QLandmarkFetchRequestE 0x000489e0   Section       56  qlandmarkfetchrequest.o(.constdata__ZTVN10QtMobility21QLandmarkFetchRequestE)
    .constdata__ZTVN10QtMobility22QGeoMapRectangleObjectE 0x00048a18   Section       76  qgeomaprectangleobject.o(.constdata__ZTVN10QtMobility22QGeoMapRectangleObjectE)
    .constdata__ZTVN10QtMobility22QGeoPositionInfoSourceE 0x00048a64   Section       88  qgeopositioninfosource.o(.constdata__ZTVN10QtMobility22QGeoPositionInfoSourceE)
    .constdata__ZTVN10QtMobility22QGeoTiledMapObjectInfoE 0x00048abc   Section       92  qgeotiledmapobjectinfo_p.o(.constdata__ZTVN10QtMobility22QGeoTiledMapObjectInfoE)
    .constdata__ZTVN10QtMobility22QLandmarkExportRequestE 0x00048b18   Section       56  qlandmarkexportrequest.o(.constdata__ZTVN10QtMobility22QLandmarkExportRequestE)
    .constdata__ZTVN10QtMobility22QLandmarkFilterPrivateE 0x00048b50   Section       24  qlandmarkfilter.o(.constdata__ZTVN10QtMobility22QLandmarkFilterPrivateE)
    .constdata__ZTVN10QtMobility22QLandmarkImportRequestE 0x00048b68   Section       56  qlandmarkimportrequest.o(.constdata__ZTVN10QtMobility22QLandmarkImportRequestE)
    .constdata__ZTVN10QtMobility22QLandmarkManagerEngineE 0x00048ba0   Section      180  qlandmarkmanagerengine.o(.constdata__ZTVN10QtMobility22QLandmarkManagerEngineE)
    .constdata__ZTVN10QtMobility22QLandmarkRemoveRequestE 0x00048c54   Section       56  qlandmarkremoverequest.o(.constdata__ZTVN10QtMobility22QLandmarkRemoveRequestE)
    .constdata__ZTVN10QtMobility23QGeoSatelliteInfoSourceE 0x00048c8c   Section       68  qgeosatelliteinfosource.o(.constdata__ZTVN10QtMobility23QGeoSatelliteInfoSourceE)
    .constdata__ZTVN10QtMobility23QGeoSearchManagerEngineE 0x00048cd0   Section       68  qgeosearchmanagerengine.o(.constdata__ZTVN10QtMobility23QGeoSearchManagerEngineE)
    .constdata__ZTVN10QtMobility23QGeoTiledMapDataPrivateE 0x00048d14   Section       16  qgeotiledmapdata.o(.constdata__ZTVN10QtMobility23QGeoTiledMapDataPrivateE)
    .constdata__ZTVN10QtMobility23QLandmarkCategoryFilterE 0x00048d24   Section       16  qlandmarkcategoryfilter.o(.constdata__ZTVN10QtMobility23QLandmarkCategoryFilterE)
    .constdata__ZTVN10QtMobility23QLandmarkIdFetchRequestE 0x00048d34   Section       56  qlandmarkidfetchrequest.o(.constdata__ZTVN10QtMobility23QLandmarkIdFetchRequestE)
    .constdata__ZTVN10QtMobility23QNmeaPositionInfoSourceE 0x00048d6c   Section       92  qnmeapositioninfosource.o(.constdata__ZTVN10QtMobility23QNmeaPositionInfoSourceE)
    .constdata__ZTVN10QtMobility24QGeoCombiningSearchReplyE 0x00048dc8   Section       60  qgeosearchmanager.o(.constdata__ZTVN10QtMobility24QGeoCombiningSearchReplyE)
    .constdata__ZTVN10QtMobility24QGeoMapObjectInfoPrivateE 0x00048e04   Section       16  qgeomapobjectinfo.o(.constdata__ZTVN10QtMobility24QGeoMapObjectInfoPrivateE)
    .constdata__ZTVN10QtMobility24QGeoMappingManagerEngineE 0x00048e14   Section       60  qgeomappingmanagerengine.o(.constdata__ZTVN10QtMobility24QGeoMappingManagerEngineE)
    .constdata__ZTVN10QtMobility24QGeoRoutingManagerEngineE 0x00048e50   Section       64  qgeoroutingmanagerengine.o(.constdata__ZTVN10QtMobility24QGeoRoutingManagerEngineE)
    .constdata__ZTVN10QtMobility24QLandmarkAbstractRequestE 0x00048e90   Section       56  qlandmarkabstractrequest.o(.constdata__ZTVN10QtMobility24QLandmarkAbstractRequestE)
    .constdata__ZTVN10QtMobility24QLandmarkAttributeFilterE 0x00048ec8   Section       16  qlandmarkattributefilter.o(.constdata__ZTVN10QtMobility24QLandmarkAttributeFilterE)
    .constdata__ZTVN10QtMobility24QLandmarkIdFilterPrivateE 0x00048ed8   Section       24  qlandmarkidfilter.o(.constdata__ZTVN10QtMobility24QLandmarkIdFilterPrivateE)
    .constdata__ZTVN10QtMobility24QLandmarkNameSortPrivateE 0x00048ef0   Section       24  qlandmarknamesort.o(.constdata__ZTVN10QtMobility24QLandmarkNameSortPrivateE)
    .constdata__ZTVN10QtMobility24QLandmarkProximityFilterE 0x00048f08   Section       16  qlandmarkproximityfilter.o(.constdata__ZTVN10QtMobility24QLandmarkProximityFilterE)
    .constdata__ZTVN10QtMobility25QLandmarkBoxFilterPrivateE 0x00048f18   Section       24  qlandmarkboxfilter.o(.constdata__ZTVN10QtMobility25QLandmarkBoxFilterPrivateE)
    .constdata__ZTVN10QtMobility25QLandmarkFetchByIdRequestE 0x00048f30   Section       56  qlandmarkfetchbyidrequest.o(.constdata__ZTVN10QtMobility25QLandmarkFetchByIdRequestE)
    .constdata__ZTVN10QtMobility25QLandmarkSortOrderPrivateE 0x00048f68   Section       24  qlandmarksortorder.o(.constdata__ZTVN10QtMobility25QLandmarkSortOrderPrivateE)
    .constdata__ZTVN10QtMobility25QMLBackendTriggerChangeAOE 0x00048f80   Section       32  qmlbackendtriggerchangeao_s60.o(.constdata__ZTVN10QtMobility25QMLBackendTriggerChangeAOE)
    .constdata__ZTVN10QtMobility26CQGeoPositionInfoSourceS60E 0x00048fa0   Section      152  qgeopositioninfosource_s60.o(.constdata__ZTVN10QtMobility26CQGeoPositionInfoSourceS60E)
    .constdata__ZTVN10QtMobility26QGeoServiceProviderFactoryE 0x00049038   Section       36  qgeoserviceproviderfactory.o(.constdata__ZTVN10QtMobility26QGeoServiceProviderFactoryE)
    .constdata__ZTVN10QtMobility26QGeoTiledMapTextObjectInfoE 0x0004905c   Section       92  qgeotiledmaptextobjectinfo_p.o(.constdata__ZTVN10QtMobility26QGeoTiledMapTextObjectInfoE)
    .constdata__ZTVN10QtMobility26QLandmarkNameFilterPrivateE 0x000490b8   Section       24  qlandmarknamefilter.o(.constdata__ZTVN10QtMobility26QLandmarkNameFilterPrivateE)
    .constdata__ZTVN10QtMobility27CQGeoSatelliteInfoSourceS60E 0x000490d0   Section      112  qgeosatelliteinfosource_s60.o(.constdata__ZTVN10QtMobility27CQGeoSatelliteInfoSourceS60E)
    .constdata__ZTVN10QtMobility27QGeoTiledMapGroupObjectInfoE 0x00049140   Section       92  qgeotiledmapgroupobjectinfo_p.o(.constdata__ZTVN10QtMobility27QGeoTiledMapGroupObjectInfoE)
    .constdata__ZTVN10QtMobility27QGeoTiledMapRouteObjectInfoE 0x0004919c   Section       92  qgeotiledmaprouteobjectinfo_p.o(.constdata__ZTVN10QtMobility27QGeoTiledMapRouteObjectInfoE)
    .constdata__ZTVN10QtMobility27QLandmarkIntersectionFilterE 0x000491f8   Section       16  qlandmarkintersectionfilter.o(.constdata__ZTVN10QtMobility27QLandmarkIntersectionFilterE)
    .constdata__ZTVN10QtMobility27QLandmarkSaveRequestPrivateE 0x00049208   Section       16  qlandmarkcategoryfetchrequest.o(.constdata__ZTVN10QtMobility27QLandmarkSaveRequestPrivateE)
    .constdata__ZTVN10QtMobility27QLandmarkUnionFilterPrivateE 0x00049218   Section       24  qlandmarkunionfilter.o(.constdata__ZTVN10QtMobility27QLandmarkUnionFilterPrivateE)
    .constdata__ZTVN10QtMobility28INotificationMonitorCallbackE 0x00049230   Section       12  qgeoareamonitor_s60.o(.constdata__ZTVN10QtMobility28INotificationMonitorCallbackE)
    .constdata__ZTVN10QtMobility28QGeoTiledMapCircleObjectInfoE 0x0004923c   Section       92  qgeotiledmapcircleobjectinfo_p.o(.constdata__ZTVN10QtMobility28QGeoTiledMapCircleObjectInfoE)
    .constdata__ZTVN10QtMobility28QGeoTiledMapPixmapObjectInfoE 0x00049298   Section       92  qgeotiledmappixmapobjectinfo_p.o(.constdata__ZTVN10QtMobility28QGeoTiledMapPixmapObjectInfoE)
    .constdata__ZTVN10QtMobility28QLandmarkCategorySaveRequestE 0x000492f4   Section       56  qlandmarkcategorysaverequest.o(.constdata__ZTVN10QtMobility28QLandmarkCategorySaveRequestE)
    .constdata__ZTVN10QtMobility28QLandmarkFetchRequestPrivateE 0x0004932c   Section       16  qlandmarkcategoryfetchrequest.o(.constdata__ZTVN10QtMobility28QLandmarkFetchRequestPrivateE)
    .constdata__ZTVN10QtMobility29QGeoTiledMapPolygonObjectInfoE 0x0004933c   Section       92  qgeotiledmappolygonobjectinfo_p.o(.constdata__ZTVN10QtMobility29QGeoTiledMapPolygonObjectInfoE)
    .constdata__ZTVN10QtMobility29QGeoTiledMappingManagerEngineE 0x00049398   Section       64  qgeotiledmappingmanagerengine.o(.constdata__ZTVN10QtMobility29QGeoTiledMappingManagerEngineE)
    .constdata__ZTVN10QtMobility29QLandmarkCategoryFetchRequestE 0x000493d8   Section       56  qlandmarkcategoryfetchrequest.o(.constdata__ZTVN10QtMobility29QLandmarkCategoryFetchRequestE)
    .constdata__ZTVN10QtMobility29QLandmarkExportRequestPrivateE 0x00049410   Section       16  qlandmarkcategoryfetchrequest.o(.constdata__ZTVN10QtMobility29QLandmarkExportRequestPrivateE)
    .constdata__ZTVN10QtMobility29QLandmarkImportRequestPrivateE 0x00049420   Section       16  qlandmarkcategoryfetchrequest.o(.constdata__ZTVN10QtMobility29QLandmarkImportRequestPrivateE)
    .constdata__ZTVN10QtMobility29QLandmarkManagerEngineFactoryE 0x00049430   Section       28  qlandmarkmanagerenginefactory.o(.constdata__ZTVN10QtMobility29QLandmarkManagerEngineFactoryE)
    .constdata__ZTVN10QtMobility29QLandmarkRemoveRequestPrivateE 0x0004944c   Section       16  qlandmarkcategoryfetchrequest.o(.constdata__ZTVN10QtMobility29QLandmarkRemoveRequestPrivateE)
    .constdata__ZTVN10QtMobility30INotificationSatelliteCallbackE 0x0004945c   Section       16  qgeosatelliteinfosource_s60.o(.constdata__ZTVN10QtMobility30INotificationSatelliteCallbackE)
    .constdata__ZTVN10QtMobility30QGeoTiledMapPolylineObjectInfoE 0x0004946c   Section       92  qgeotiledmappolylineobjectinfo_p.o(.constdata__ZTVN10QtMobility30QGeoTiledMapPolylineObjectInfoE)
    .constdata__ZTVN10QtMobility30QLandmarkCategoryFilterPrivateE 0x000494c8   Section       24  qlandmarkcategoryfilter.o(.constdata__ZTVN10QtMobility30QLandmarkCategoryFilterPrivateE)
    .constdata__ZTVN10QtMobility30QLandmarkCategoryRemoveRequestE 0x000494e0   Section       56  qlandmarkcategoryremoverequest.o(.constdata__ZTVN10QtMobility30QLandmarkCategoryRemoveRequestE)
    .constdata__ZTVN10QtMobility30QLandmarkIdFetchRequestPrivateE 0x00049518   Section       16  qlandmarkcategoryfetchrequest.o(.constdata__ZTVN10QtMobility30QLandmarkIdFetchRequestPrivateE)
    .constdata__ZTVN10QtMobility30QNmeaPositionInfoSourcePrivateE 0x00049528   Section       56  qnmeapositioninfosource.o(.constdata__ZTVN10QtMobility30QNmeaPositionInfoSourcePrivateE)
    .constdata__ZTVN10QtMobility31QGeoMappingManagerEnginePrivateE 0x00049560   Section       16  qgeomappingmanagerengine.o(.constdata__ZTVN10QtMobility31QGeoMappingManagerEnginePrivateE)
    .constdata__ZTVN10QtMobility31QGeoTiledMapRectangleObjectInfoE 0x00049570   Section       92  qgeotiledmaprectangleobjectinfo_p.o(.constdata__ZTVN10QtMobility31QGeoTiledMapRectangleObjectInfoE)
    .constdata__ZTVN10QtMobility31QLandmarkAbstractRequestPrivateE 0x000495cc   Section       16  qlandmarkabstractrequest.o(.constdata__ZTVN10QtMobility31QLandmarkAbstractRequestPrivateE)
    .constdata__ZTVN10QtMobility31QLandmarkAttributeFilterPrivateE 0x000495dc   Section       24  qlandmarkattributefilter.o(.constdata__ZTVN10QtMobility31QLandmarkAttributeFilterPrivateE)
    .constdata__ZTVN10QtMobility31QLandmarkCategoryIdFetchRequestE 0x000495f4   Section       56  qlandmarkcategoryidfetchrequest.o(.constdata__ZTVN10QtMobility31QLandmarkCategoryIdFetchRequestE)
    .constdata__ZTVN10QtMobility31QLandmarkProximityFilterPrivateE 0x0004962c   Section       24  qlandmarkproximityfilter.o(.constdata__ZTVN10QtMobility31QLandmarkProximityFilterPrivateE)
    .constdata__ZTVN10QtMobility32QLandmarkFetchByIdRequestPrivateE 0x00049644   Section       16  qlandmarkcategoryfetchrequest.o(.constdata__ZTVN10QtMobility32QLandmarkFetchByIdRequestPrivateE)
    .constdata__ZTVN10QtMobility32QMLBackendMonitorCreateTriggerAOE 0x00049654   Section       32  qmlbackendmonitorcreatetriggerao_s60.o(.constdata__ZTVN10QtMobility32QMLBackendMonitorCreateTriggerAOE)
    .constdata__ZTVN10QtMobility33QLandmarkCategoryFetchByIdRequestE 0x00049674   Section       56  qlandmarkcategoryfetchbyidrequest.o(.constdata__ZTVN10QtMobility33QLandmarkCategoryFetchByIdRequestE)
    .constdata__ZTVN10QtMobility34QLandmarkIntersectionFilterPrivateE 0x000496ac   Section       24  qlandmarkintersectionfilter.o(.constdata__ZTVN10QtMobility34QLandmarkIntersectionFilterPrivateE)
    .constdata__ZTVN10QtMobility35QLandmarkCategorySaveRequestPrivateE 0x000496c4   Section       16  qlandmarkcategoryfetchrequest.o(.constdata__ZTVN10QtMobility35QLandmarkCategorySaveRequestPrivateE)
    .constdata__ZTVN10QtMobility36QGeoTiledMappingManagerEnginePrivateE 0x000496d4   Section       16  qgeotiledmappingmanagerengine.o(.constdata__ZTVN10QtMobility36QGeoTiledMappingManagerEnginePrivateE)
    .constdata__ZTVN10QtMobility36QLandmarkCategoryFetchRequestPrivateE 0x000496e4   Section       16  qlandmarkcategoryfetchrequest.o(.constdata__ZTVN10QtMobility36QLandmarkCategoryFetchRequestPrivateE)
    .constdata__ZTVN10QtMobility37QLandmarkCategoryRemoveRequestPrivateE 0x000496f4   Section       16  qlandmarkcategoryfetchrequest.o(.constdata__ZTVN10QtMobility37QLandmarkCategoryRemoveRequestPrivateE)
    .constdata__ZTVN10QtMobility38QLandmarkCategoryIdFetchRequestPrivateE 0x00049704   Section       16  qlandmarkcategoryfetchrequest.o(.constdata__ZTVN10QtMobility38QLandmarkCategoryIdFetchRequestPrivateE)
    .constdata__ZTVN10QtMobility40QLandmarkCategoryFetchByIdRequestPrivateE 0x00049714   Section       16  qlandmarkcategoryfetchrequest.o(.constdata__ZTVN10QtMobility40QLandmarkCategoryFetchByIdRequestPrivateE)
    .constdata__ZTVN10QtMobility9QGeoPlaceE  0x00049724   Section       16  qgeoplace.o(.constdata__ZTVN10QtMobility9QGeoPlaceE)
    .constdata__ZTVN10QtMobility9QLandmarkE  0x00049734   Section       16  qlandmark.o(.constdata__ZTVN10QtMobility9QLandmarkE)
    .init_array                              0x00049744   Section        4  qlandmarkmanagerengine.o(.init_array)
    .ARM.exidx                               0x00049748   Section        8  ucppinit.o(.ARM.exidx)
    .data$0                                  0x00400000   Data           0  qgeoareamonitor_s60.o(.data)
    .data                                    0x00400000   Section        4  qgeoareamonitor_s60.o(.data)
    .data$0                                  0x00400004   Data           0  qmlbackendmonitorao_s60.o(.data)
    .data                                    0x00400004   Section        8  qmlbackendmonitorao_s60.o(.data)
    .data$0                                  0x0040000c   Data           0  qmlbackendmonitorinfo_s60.o(.data)
    .data                                    0x0040000c   Section        4  qmlbackendmonitorinfo_s60.o(.data)
    .data$0                                  0x00400010   Data           0  qmlbackendtriggerchangeao_s60.o(.data)
    .data                                    0x00400010   Section        8  qmlbackendtriggerchangeao_s60.o(.data)
    .data$0                                  0x00400018   Data           0  qlandmarkmanager_p.o(.data)
    _ZGVfactories@_ZN10QtMobility23QLandmarkManagerPrivate9factoriesEb_0 0x00400018   Data           4  qlandmarkmanager_p.o(.data)
    .data                                    0x00400018   Section        9  qlandmarkmanager_p.o(.data)
    factories@_ZN10QtMobility23QLandmarkManagerPrivate9factoriesEb_1 0x0040001c   Data           4  qlandmarkmanager_p.o(.data)
    alreadyDiscovered@_ZN10QtMobility23QLandmarkManagerPrivate9factoriesEb_2 0x00400020   Data           1  qlandmarkmanager_p.o(.data)
    .data$0                                  0x00400024   Data           0  qlandmarkmanagerengine.o(.data)
    .data                                    0x00400024   Section        4  qlandmarkmanagerengine.o(.data)
    .data$0                                  0x00400028   Data           0  qgeoserviceprovider.o(.data)
    _ZGVplugins@_ZN10QtMobility26QGeoServiceProviderPrivate7pluginsEb_0 0x00400028   Data           4  qgeoserviceprovider.o(.data)
    .data                                    0x00400028   Section        9  qgeoserviceprovider.o(.data)
    plugins@_ZN10QtMobility26QGeoServiceProviderPrivate7pluginsEb_1 0x0040002c   Data           4  qgeoserviceprovider.o(.data)
    alreadyDiscovered@_ZN10QtMobility26QGeoServiceProviderPrivate7pluginsEb_2 0x00400030   Data           1  qgeoserviceprovider.o(.data)
    .data$0                                  0x00400034   Data           0  ucppfini.o(.data)
    .data                                    0x00400034   Section        4  ucppfini.o(.data)
    .data__ZNSt19_Atomic_swap_structILi1EE12_S_swap_lockE 0x00400038   Section       12  moc_qgeoareamonitor.o(.data__ZNSt19_Atomic_swap_structILi1EE12_S_swap_lockE)
    .bss$5                                   0x00400044   Data           0  ucppfini.o(.bss)
    .bss                                     0x00400044   Section     2048  ucppfini.o(.bss)

    Global Symbols

    Symbol Name                              Value     Ov Type        Size  Object(Section)

    BuildAttributes$$THUMB_ISAv2$ARM_ISAv5$M$VFPv2$PE$A:L22$X:L11$S22$IEEE1$IW$USESV6$~STKCKD$USESV7$~SHL$OSPACE$ROPI$IEEEJ$EBA8$UX$FPIC$INDIRECT$REQ8$PRES8$EABIv2 0x00000000   Number         0  anon$$obj.o ABSOLUTE
    QtCore{00040703}[2001b2dc].dll           0x00000000   Data           0  anon$$obj.o ABSOLUTE
    QtGui{00040703}[2001b2dd].dll            0x00000000   Data           0  anon$$obj.o ABSOLUTE
    QtLocation{00010103}[2002ac83].dll       0x00000000   Data           0  anon$$obj.o ABSOLUTE
    dfpaeabi{000a0000}.dll                   0x00000000   Data           0  anon$$obj.o ABSOLUTE
    drtaeabi{000a0000}.dll                   0x00000000   Data           0  anon$$obj.o ABSOLUTE
    drtrvct2_2{000a0000}.dll                 0x00000000   Data           0  anon$$obj.o ABSOLUTE
    efsrv{000a0000}[100039e4].dll            0x00000000   Data           0  anon$$obj.o ABSOLUTE
    euser{000a0000}[100039e5].dll            0x00000000   Data           0  anon$$obj.o ABSOLUTE
    lbs{000a0000}[101f97b1].dll              0x00000000   Data           0  anon$$obj.o ABSOLUTE
    lbt{000a0000}[10283130].dll              0x00000000   Data           0  anon$$obj.o ABSOLUTE
    libc{00010001}[10207369].dll             0x00000000   Data           0  anon$$obj.o ABSOLUTE
    libm{00010001}[102750d2].dll             0x00000000   Data           0  anon$$obj.o ABSOLUTE
    stdnew{000a0000}[20022178].dll           0x00000000   Data           0  anon$$obj.o ABSOLUTE
    qt_message_output(QtMsgType, const char*)  - Undefined Reference
    _Z17qt_message_output9QtMsgTypePKc@QtCore{00040703}[2001b2dc].dll  - Undefined Reference
    qt_symbian_throwIfError(int)              - Undefined Reference
    _Z23qt_symbian_throwIfErrori@QtCore{00040703}[2001b2dc].dll  - Undefined Reference
    qt_symbian_exception2Error(const std::exception&)  - Undefined Reference
    _Z26qt_symbian_exception2ErrorRKSt9exception@QtCore{00040703}[2001b2dc].dll  - Undefined Reference
    qFree(void*)                              - Undefined Reference
    _Z5qFreePv@QtCore{00040703}[2001b2dc].dll  - Undefined Reference
    qHash(const QString&)                     - Undefined Reference
    _Z5qHashRK7QString@QtCore{00040703}[2001b2dc].dll  - Undefined Reference
    qQNaN()                                   - Undefined Reference
    _Z5qQNaNv@QtCore{00040703}[2001b2dc].dll  - Undefined Reference
    qFatal(const char*, ...)                  - Undefined Reference
    _Z6qFatalPKcz@QtCore{00040703}[2001b2dc].dll  - Undefined Reference
    qIsNaN(double)                            - Undefined Reference
    _Z6qIsNaNd@QtCore{00040703}[2001b2dc].dll  - Undefined Reference
    qIsNaN(float)                             - Undefined Reference
    _Z6qIsNaNf@QtCore{00040703}[2001b2dc].dll  - Undefined Reference
    qWarning(const char*, ...)                - Undefined Reference
    _Z8qWarningPKcz@QtCore{00040703}[2001b2dc].dll  - Undefined Reference
    qBadAlloc()                               - Undefined Reference
    _Z9qBadAllocv@QtCore{00040703}[2001b2dc].dll  - Undefined Reference
    CRequestor::NewL(int, int, const TDesC16&)  - Undefined Reference
    _ZN10CRequestor4NewLEiiRK7TDesC16@lbs{000a0000}[101f97b1].dll  - Undefined Reference
    QByteArray::shared_null                   - Undefined Reference
    _ZN10QByteArray11shared_nullE@QtCore{00040703}[2001b2dc].dll  - Undefined Reference
    QByteArray::realloc(int)                  - Undefined Reference
    _ZN10QByteArray7reallocEi@QtCore{00040703}[2001b2dc].dll  - Undefined Reference
    QByteArray::QByteArray(const char*, int)  - Undefined Reference
    _ZN10QByteArrayC1EPKci@QtCore{00040703}[2001b2dc].dll  - Undefined Reference
    QByteArray::operator =(const QByteArray&)  - Undefined Reference
    _ZN10QByteArrayaSERKS_@QtCore{00040703}[2001b2dc].dll  - Undefined Reference
    QTransform::QTransform()                  - Undefined Reference
    _ZN10QTransformC1Ev@QtGui{00040703}[2001b2dd].dll  - Undefined Reference
    RArrayBase::Close()                       - Undefined Reference
    _ZN10RArrayBase5CloseEv@euser{000a0000}[100039e5].dll  - Undefined Reference
    RArrayBase::RArrayBase(int)               - Undefined Reference
    _ZN10RArrayBaseC1Ei@euser{000a0000}[100039e5].dll  - Undefined Reference
    RLbtServer::Close()                       - Undefined Reference
    _ZN10RLbtServer5CloseEv@lbt{000a0000}[10283130].dll  - Undefined Reference
    RLbtServer::Connect()                     - Undefined Reference
    _ZN10RLbtServer7ConnectEv@lbt{000a0000}[10283130].dll  - Undefined Reference
    RLbtServer::RLbtServer()                  - Undefined Reference
    _ZN10RLbtServerC1Ev@lbt{000a0000}[10283130].dll  - Undefined Reference
    QBasicTimer::stop()                       - Undefined Reference
    _ZN11QBasicTimer4stopEv@QtCore{00040703}[2001b2dc].dll  - Undefined Reference
    QBasicTimer::start(int, QObject*)         - Undefined Reference
    _ZN11QBasicTimer5startEiP7QObject@QtCore{00040703}[2001b2dc].dll  - Undefined Reference
    QDataStream::resetStatus()                - Undefined Reference
    _ZN11QDataStream11resetStatusEv@QtCore{00040703}[2001b2dc].dll  - Undefined Reference
    QDataStream::setStatus(QDataStream::Status)  - Undefined Reference
    _ZN11QDataStream9setStatusENS_6StatusE@QtCore{00040703}[2001b2dc].dll  - Undefined Reference
    QDataStream::operator <<(double)          - Undefined Reference
    _ZN11QDataStreamlsEd@QtCore{00040703}[2001b2dc].dll  - Undefined Reference
    QDataStream::operator <<(float)           - Undefined Reference
    _ZN11QDataStreamlsEf@QtCore{00040703}[2001b2dc].dll  - Undefined Reference
    QDataStream::operator <<(int)             - Undefined Reference
    _ZN11QDataStreamlsEi@QtCore{00040703}[2001b2dc].dll  - Undefined Reference
    QDataStream::operator >>(double&)         - Undefined Reference
    _ZN11QDataStreamrsERd@QtCore{00040703}[2001b2dc].dll  - Undefined Reference
    QDataStream::operator >>(float&)          - Undefined Reference
    _ZN11QDataStreamrsERf@QtCore{00040703}[2001b2dc].dll  - Undefined Reference
    QDataStream::operator >>(int&)            - Undefined Reference
    _ZN11QDataStreamrsERi@QtCore{00040703}[2001b2dc].dll  - Undefined Reference
    QMetaObject::changeGuard(QObject**, QObject*)  - Undefined Reference
    _ZN11QMetaObject11changeGuardEPP7QObjectS1_@QtCore{00040703}[2001b2dc].dll  - Undefined Reference
    QMetaObject::removeGuard(QObject**)       - Undefined Reference
    _ZN11QMetaObject11removeGuardEPP7QObject@QtCore{00040703}[2001b2dc].dll  - Undefined Reference
    QMetaObject::activate(QObject*, const QMetaObject*, int, void**)  - Undefined Reference
    _ZN11QMetaObject8activateEP7QObjectPKS_iPPv@QtCore{00040703}[2001b2dc].dll  - Undefined Reference
    QMetaObject::addGuard(QObject**)          - Undefined Reference
    _ZN11QMetaObject8addGuardEPP7QObject@QtCore{00040703}[2001b2dc].dll  - Undefined Reference
    QTextStream::QTextStream(QString*, QFlags<QIODevice::OpenModeFlag>)  - Undefined Reference
    _ZN11QTextStreamC1EP7QString6QFlagsIN9QIODevice12OpenModeFlagEE@QtCore{00040703}[2001b2dc].dll  - Undefined Reference
    QTextStream::~QTextStream()               - Undefined Reference
    _ZN11QTextStreamD1Ev@QtCore{00040703}[2001b2dc].dll  - Undefined Reference
    QTextStream::operator <<(const QString&)  - Undefined Reference
    _ZN11QTextStreamlsERK7QString@QtCore{00040703}[2001b2dc].dll  - Undefined Reference
    QTextStream::operator <<(char)            - Undefined Reference
    _ZN11QTextStreamlsEc@QtCore{00040703}[2001b2dc].dll  - Undefined Reference
    QTextStream::operator <<(double)          - Undefined Reference
    _ZN11QTextStreamlsEd@QtCore{00040703}[2001b2dc].dll  - Undefined Reference
    QTextStream::operator <<(float)           - Undefined Reference
    _ZN11QTextStreamlsEf@QtCore{00040703}[2001b2dc].dll  - Undefined Reference
    QTextStream::operator <<(int)             - Undefined Reference
    _ZN11QTextStreamlsEi@QtCore{00040703}[2001b2dc].dll  - Undefined Reference
    QVectorData::reallocate(QVectorData*, int, int, int)  - Undefined Reference
    _ZN11QVectorData10reallocateEPS_iii@QtCore{00040703}[2001b2dc].dll  - Undefined Reference
    QVectorData::shared_null                  - Undefined Reference
    _ZN11QVectorData11shared_nullE@QtCore{00040703}[2001b2dc].dll  - Undefined Reference
    QVectorData::free(QVectorData*, int)      - Undefined Reference
    _ZN11QVectorData4freeEPS_i@QtCore{00040703}[2001b2dc].dll  - Undefined Reference
    QVectorData::grow(int, int, int, bool)    - Undefined Reference
    _ZN11QVectorData4growEiiib@QtCore{00040703}[2001b2dc].dll  - Undefined Reference
    QVectorData::allocate(int, int)           - Undefined Reference
    _ZN11QVectorData8allocateEii@QtCore{00040703}[2001b2dc].dll  - Undefined Reference
    RPositioner::SetRequestor(int, int, const TDesC16&)  - Undefined Reference
    _ZN11RPositioner12SetRequestorEiiRK7TDesC16@lbs{000a0000}[101f97b1].dll  - Undefined Reference
    RPositioner::SetUpdateOptions(const TPositionUpdateOptionsBase&)  - Undefined Reference
    _ZN11RPositioner16SetUpdateOptionsERK26TPositionUpdateOptionsBase@lbs{000a0000}[101f97b1].dll  - Undefined Reference
    RPositioner::Open(RPositionServer&)       - Undefined Reference
    RPositioner::Open(RPositionServer&, TUid)  - Undefined Reference
    _ZN11RPositioner4OpenER15RPositionServer4TUid@lbs{000a0000}[101f97b1].dll  - Undefined Reference
    _ZN11RPositioner4OpenER15RPositionServer@lbs{000a0000}[101f97b1].dll  - Undefined Reference
    RPositioner::Close()                      - Undefined Reference
    _ZN11RPositioner5CloseEv@lbs{000a0000}[101f97b1].dll  - Undefined Reference
    RPositioner::RPositioner()                - Undefined Reference
    _ZN11RPositionerC1Ev@lbs{000a0000}[101f97b1].dll  - Undefined Reference
    TCoordinate::SetCoordinate(const double&, const double&, float)  - Undefined Reference
    _ZN11TCoordinate13SetCoordinateERKdS1_f@lbs{000a0000}[101f97b1].dll  - Undefined Reference
    TCoordinate::TCoordinate()                - Undefined Reference
    _ZN11TCoordinateC1Ev@lbs{000a0000}[101f97b1].dll  - Undefined Reference
    CleanupStack::PopAndDestroy()             - Undefined Reference
    _ZN12CleanupStack13PopAndDestroyEv@euser{000a0000}[100039e5].dll  - Undefined Reference
    CleanupStack::Pop(int)                    - Undefined Reference
    _ZN12CleanupStack3PopEi@euser{000a0000}[100039e5].dll  - Undefined Reference
    CleanupStack::Pop()                       - Undefined Reference
    _ZN12CleanupStack3PopEv@euser{000a0000}[100039e5].dll  - Undefined Reference
    CleanupStack::Check(void*)                - Undefined Reference
    _ZN12CleanupStack5CheckEPv@euser{000a0000}[100039e5].dll  - Undefined Reference
    CleanupStack::PushL(TCleanupItem)         - Undefined Reference
    _ZN12CleanupStack5PushLE12TCleanupItem@euser{000a0000}[100039e5].dll  - Undefined Reference
    CleanupStack::PushL(CBase*)               - Undefined Reference
    _ZN12CleanupStack5PushLEP5CBase@euser{000a0000}[100039e5].dll  - Undefined Reference
    CleanupStack::PushL(void*)                - Undefined Reference
    _ZN12CleanupStack5PushLEPv@euser{000a0000}[100039e5].dll  - Undefined Reference
    QFontMetrics::QFontMetrics(const QFont&)  - Undefined Reference
    _ZN12QFontMetricsC1ERK5QFont@QtGui{00040703}[2001b2dd].dll  - Undefined Reference
    QFontMetrics::~QFontMetrics()             - Undefined Reference
    _ZN12QFontMetricsD1Ev@QtGui{00040703}[2001b2dd].dll  - Undefined Reference
    QPainterPath::addPolygon(const QPolygonF&)  - Undefined Reference
    _ZN12QPainterPath10addPolygonERK9QPolygonF@QtGui{00040703}[2001b2dd].dll  - Undefined Reference
    QPainterPath::lineTo(const QPointF&)      - Undefined Reference
    _ZN12QPainterPath6lineToERK7QPointF@QtGui{00040703}[2001b2dd].dll  - Undefined Reference
    QPainterPath::moveTo(const QPointF&)      - Undefined Reference
    _ZN12QPainterPath6moveToERK7QPointF@QtGui{00040703}[2001b2dd].dll  - Undefined Reference
    QPainterPath::addRect(const QRectF&)      - Undefined Reference
    _ZN12QPainterPath7addRectERK6QRectF@QtGui{00040703}[2001b2dd].dll  - Undefined Reference
    QPainterPath::QPainterPath()              - Undefined Reference
    _ZN12QPainterPathC1Ev@QtGui{00040703}[2001b2dd].dll  - Undefined Reference
    QPainterPath::~QPainterPath()             - Undefined Reference
    _ZN12QPainterPathD1Ev@QtGui{00040703}[2001b2dd].dll  - Undefined Reference
    CLbtGeoCircle::NewL(const TCoordinate&, double)  - Undefined Reference
    _ZN13CLbtGeoCircle4NewLERK11TCoordinated@lbt{000a0000}[10283130].dll  - Undefined Reference
    QGraphicsItem::setVisible(bool)           - Undefined Reference
    _ZN13QGraphicsItem10setVisibleEb@QtGui{00040703}[2001b2dd].dll  - Undefined Reference
    QGraphicsItem::wheelEvent(QGraphicsSceneWheelEvent*)  - Undefined Reference
    _ZN13QGraphicsItem10wheelEventEP24QGraphicsSceneWheelEvent@QtGui{00040703}[2001b2dd].dll  - Undefined Reference
    QGraphicsItem::setExtension(QGraphicsItem::Extension, const QVariant&)  - Undefined Reference
    _ZN13QGraphicsItem12setExtensionENS_9ExtensionERK8QVariant@QtGui{00040703}[2001b2dd].dll  - Undefined Reference
    QGraphicsItem::dragMoveEvent(QGraphicsSceneDragDropEvent*)  - Undefined Reference
    _ZN13QGraphicsItem13dragMoveEventEP27QGraphicsSceneDragDropEvent@QtGui{00040703}[2001b2dd].dll  - Undefined Reference
    QGraphicsItem::keyPressEvent(QKeyEvent*)  - Undefined Reference
    _ZN13QGraphicsItem13keyPressEventEP9QKeyEvent@QtGui{00040703}[2001b2dd].dll  - Undefined Reference
    QGraphicsItem::setParentItem(QGraphicsItem*)  - Undefined Reference
    _ZN13QGraphicsItem13setParentItemEPS_@QtGui{00040703}[2001b2dd].dll  - Undefined Reference
    QGraphicsItem::dragEnterEvent(QGraphicsSceneDragDropEvent*)  - Undefined Reference
    _ZN13QGraphicsItem14dragEnterEventEP27QGraphicsSceneDragDropEvent@QtGui{00040703}[2001b2dd].dll  - Undefined Reference
    QGraphicsItem::dragLeaveEvent(QGraphicsSceneDragDropEvent*)  - Undefined Reference
    _ZN13QGraphicsItem14dragLeaveEventEP27QGraphicsSceneDragDropEvent@QtGui{00040703}[2001b2dd].dll  - Undefined Reference
    QGraphicsItem::mouseMoveEvent(QGraphicsSceneMouseEvent*)  - Undefined Reference
    _ZN13QGraphicsItem14mouseMoveEventEP24QGraphicsSceneMouseEvent@QtGui{00040703}[2001b2dd].dll  - Undefined Reference
    QGraphicsItem::hoverEnterEvent(QGraphicsSceneHoverEvent*)  - Undefined Reference
    _ZN13QGraphicsItem15hoverEnterEventEP24QGraphicsSceneHoverEvent@QtGui{00040703}[2001b2dd].dll  - Undefined Reference
    QGraphicsItem::keyReleaseEvent(QKeyEvent*)  - Undefined Reference
    _ZN13QGraphicsItem15keyReleaseEventEP9QKeyEvent@QtGui{00040703}[2001b2dd].dll  - Undefined Reference
    QGraphicsItem::mousePressEvent(QGraphicsSceneMouseEvent*)  - Undefined Reference
    _ZN13QGraphicsItem15mousePressEventEP24QGraphicsSceneMouseEvent@QtGui{00040703}[2001b2dd].dll  - Undefined Reference
    QGraphicsItem::contextMenuEvent(QGraphicsSceneContextMenuEvent*)  - Undefined Reference
    _ZN13QGraphicsItem16contextMenuEventEP30QGraphicsSceneContextMenuEvent@QtGui{00040703}[2001b2dd].dll  - Undefined Reference
    QGraphicsItem::inputMethodEvent(QInputMethodEvent*)  - Undefined Reference
    _ZN13QGraphicsItem16inputMethodEventEP17QInputMethodEvent@QtGui{00040703}[2001b2dd].dll  - Undefined Reference
    QGraphicsItem::sceneEventFilter(QGraphicsItem*, QEvent*)  - Undefined Reference
    _ZN13QGraphicsItem16sceneEventFilterEPS_P6QEvent@QtGui{00040703}[2001b2dd].dll  - Undefined Reference
    QGraphicsItem::mouseReleaseEvent(QGraphicsSceneMouseEvent*)  - Undefined Reference
    _ZN13QGraphicsItem17mouseReleaseEventEP24QGraphicsSceneMouseEvent@QtGui{00040703}[2001b2dd].dll  - Undefined Reference
    QGraphicsItem::mouseDoubleClickEvent(QGraphicsSceneMouseEvent*)  - Undefined Reference
    _ZN13QGraphicsItem21mouseDoubleClickEventEP24QGraphicsSceneMouseEvent@QtGui{00040703}[2001b2dd].dll  - Undefined Reference
    QGraphicsItem::setPos(const QPointF&)     - Undefined Reference
    _ZN13QGraphicsItem6setPosERK7QPointF@QtGui{00040703}[2001b2dd].dll  - Undefined Reference
    QGraphicsItem::update(const QRectF&)      - Undefined Reference
    _ZN13QGraphicsItem6updateERK6QRectF@QtGui{00040703}[2001b2dd].dll  - Undefined Reference
    QGraphicsItem::advance(int)               - Undefined Reference
    _ZN13QGraphicsItem7advanceEi@QtGui{00040703}[2001b2dd].dll  - Undefined Reference
    QGraphicsItem::setFlag(QGraphicsItem::GraphicsItemFlag, bool)  - Undefined Reference
    _ZN13QGraphicsItem7setFlagENS_16GraphicsItemFlagEb@QtGui{00040703}[2001b2dd].dll  - Undefined Reference
    QGraphicsItem::setFocus(Qt::FocusReason)  - Undefined Reference
    _ZN13QGraphicsItem8setFocusEN2Qt11FocusReasonE@QtGui{00040703}[2001b2dd].dll  - Undefined Reference
    QGraphicsItem::setScale(float)            - Undefined Reference
    _ZN13QGraphicsItem8setScaleEf@QtGui{00040703}[2001b2dd].dll  - Undefined Reference
    QGraphicsItem::dropEvent(QGraphicsSceneDragDropEvent*)  - Undefined Reference
    _ZN13QGraphicsItem9dropEventEP27QGraphicsSceneDragDropEvent@QtGui{00040703}[2001b2dd].dll  - Undefined Reference
    QGraphicsItem::setZValue(float)           - Undefined Reference
    _ZN13QGraphicsItem9setZValueEf@QtGui{00040703}[2001b2dd].dll  - Undefined Reference
    QPluginLoader::setFileName(const QString&)  - Undefined Reference
    _ZN13QPluginLoader11setFileNameERK7QString@QtCore{00040703}[2001b2dc].dll  - Undefined Reference
    QPluginLoader::staticInstances()          - Undefined Reference
    _ZN13QPluginLoader15staticInstancesEv@QtCore{00040703}[2001b2dc].dll  - Undefined Reference
    QPluginLoader::instance()                 - Undefined Reference
    _ZN13QPluginLoader8instanceEv@QtCore{00040703}[2001b2dc].dll  - Undefined Reference
    QPluginLoader::QPluginLoader(QObject*)    - Undefined Reference
    _ZN13QPluginLoaderC1EP7QObject@QtCore{00040703}[2001b2dc].dll  - Undefined Reference
    QPluginLoader::~QPluginLoader()           - Undefined Reference
    _ZN13QPluginLoaderD1Ev@QtCore{00040703}[2001b2dc].dll  - Undefined Reference
    TPositionInfo::TPositionInfo()            - Undefined Reference
    _ZN13TPositionInfoC1Ev@lbs{000a0000}[101f97b1].dll  - Undefined Reference
    QGraphicsScene::removeItem(QGraphicsItem*)  - Undefined Reference
    _ZN14QGraphicsScene10removeItemEP13QGraphicsItem@QtGui{00040703}[2001b2dd].dll  - Undefined Reference
    QGraphicsScene::setItemIndexMethod(QGraphicsScene::ItemIndexMethod)  - Undefined Reference
    _ZN14QGraphicsScene18setItemIndexMethodENS_15ItemIndexMethodE@QtGui{00040703}[2001b2dd].dll  - Undefined Reference
    QGraphicsScene::render(QPainter*, const QRectF&, const QRectF&, Qt::AspectRatioMode)  - Undefined Reference
    _ZN14QGraphicsScene6renderEP8QPainterRK6QRectFS4_N2Qt15AspectRatioModeE@QtGui{00040703}[2001b2dd].dll  - Undefined Reference
    QGraphicsScene::addItem(QGraphicsItem*)   - Undefined Reference
    _ZN14QGraphicsScene7addItemEP13QGraphicsItem@QtGui{00040703}[2001b2dd].dll  - Undefined Reference
    QGraphicsScene::QGraphicsScene(const QRectF&, QObject*)  - Undefined Reference
    _ZN14QGraphicsSceneC1ERK6QRectFP7QObject@QtGui{00040703}[2001b2dd].dll  - Undefined Reference
    TSatelliteData::TSatelliteData()          - Undefined Reference
    _ZN14TSatelliteDataC1Ev@lbs{000a0000}[101f97b1].dll  - Undefined Reference
    QGraphicsWidget::closeEvent(QCloseEvent*)  - Undefined Reference
    _ZN15QGraphicsWidget10closeEventEP11QCloseEvent@QtGui{00040703}[2001b2dd].dll  - Undefined Reference
    QGraphicsWidget::itemChange(QGraphicsItem::GraphicsItemChange, const QVariant&)  - Undefined Reference
    _ZN15QGraphicsWidget10itemChangeEN13QGraphicsItem18GraphicsItemChangeERK8QVariant@QtGui{00040703}[2001b2dd].dll  - Undefined Reference
    QGraphicsWidget::sceneEvent(QEvent*)      - Undefined Reference
    _ZN15QGraphicsWidget10sceneEventEP6QEvent@QtGui{00040703}[2001b2dd].dll  - Undefined Reference
    QGraphicsWidget::changeEvent(QEvent*)     - Undefined Reference
    _ZN15QGraphicsWidget11changeEventEP6QEvent@QtGui{00040703}[2001b2dd].dll  - Undefined Reference
    QGraphicsWidget::polishEvent()            - Undefined Reference
    _ZN15QGraphicsWidget11polishEventEv@QtGui{00040703}[2001b2dd].dll  - Undefined Reference
    QGraphicsWidget::qt_metacall(QMetaObject::Call, int, void**)  - Undefined Reference
    _ZN15QGraphicsWidget11qt_metacallEN11QMetaObject4CallEiPPv@QtGui{00040703}[2001b2dd].dll  - Undefined Reference
    QGraphicsWidget::qt_metacast(const char*)  - Undefined Reference
    _ZN15QGraphicsWidget11qt_metacastEPKc@QtGui{00040703}[2001b2dd].dll  - Undefined Reference
    QGraphicsWidget::setGeometry(const QRectF&)  - Undefined Reference
    _ZN15QGraphicsWidget11setGeometryERK6QRectF@QtGui{00040703}[2001b2dd].dll  - Undefined Reference
    QGraphicsWidget::focusInEvent(QFocusEvent*)  - Undefined Reference
    _ZN15QGraphicsWidget12focusInEventEP11QFocusEvent@QtGui{00040703}[2001b2dd].dll  - Undefined Reference
    QGraphicsWidget::focusOutEvent(QFocusEvent*)  - Undefined Reference
    _ZN15QGraphicsWidget13focusOutEventEP11QFocusEvent@QtGui{00040703}[2001b2dd].dll  - Undefined Reference
    QGraphicsWidget::grabMouseEvent(QEvent*)  - Undefined Reference
    _ZN15QGraphicsWidget14grabMouseEventEP6QEvent@QtGui{00040703}[2001b2dd].dll  - Undefined Reference
    QGraphicsWidget::hoverMoveEvent(QGraphicsSceneHoverEvent*)  - Undefined Reference
    _ZN15QGraphicsWidget14hoverMoveEventEP24QGraphicsSceneHoverEvent@QtGui{00040703}[2001b2dd].dll  - Undefined Reference
    QGraphicsWidget::propertyChange(const QString&, const QVariant&)  - Undefined Reference
    _ZN15QGraphicsWidget14propertyChangeERK7QStringRK8QVariant@QtGui{00040703}[2001b2dd].dll  - Undefined Reference
    QGraphicsWidget::updateGeometry()         - Undefined Reference
    _ZN15QGraphicsWidget14updateGeometryEv@QtGui{00040703}[2001b2dd].dll  - Undefined Reference
    QGraphicsWidget::hoverLeaveEvent(QGraphicsSceneHoverEvent*)  - Undefined Reference
    _ZN15QGraphicsWidget15hoverLeaveEventEP24QGraphicsSceneHoverEvent@QtGui{00040703}[2001b2dd].dll  - Undefined Reference
    QGraphicsWidget::paintWindowFrame(QPainter*, const QStyleOptionGraphicsItem*, QWidget*)  - Undefined Reference
    _ZN15QGraphicsWidget16paintWindowFrameEP8QPainterPK24QStyleOptionGraphicsItemP7QWidget@QtGui{00040703}[2001b2dd].dll  - Undefined Reference
    QGraphicsWidget::staticMetaObject         - Undefined Reference
    _ZN15QGraphicsWidget16staticMetaObjectE@QtGui{00040703}[2001b2dd].dll  - Undefined Reference
    QGraphicsWidget::ungrabMouseEvent(QEvent*)  - Undefined Reference
    _ZN15QGraphicsWidget16ungrabMouseEventEP6QEvent@QtGui{00040703}[2001b2dd].dll  - Undefined Reference
    QGraphicsWidget::windowFrameEvent(QEvent*)  - Undefined Reference
    _ZN15QGraphicsWidget16windowFrameEventEP6QEvent@QtGui{00040703}[2001b2dd].dll  - Undefined Reference
    QGraphicsWidget::grabKeyboardEvent(QEvent*)  - Undefined Reference
    _ZN15QGraphicsWidget17grabKeyboardEventEP6QEvent@QtGui{00040703}[2001b2dd].dll  - Undefined Reference
    QGraphicsWidget::focusNextPrevChild(bool)  - Undefined Reference
    _ZN15QGraphicsWidget18focusNextPrevChildEb@QtGui{00040703}[2001b2dd].dll  - Undefined Reference
    QGraphicsWidget::ungrabKeyboardEvent(QEvent*)  - Undefined Reference
    _ZN15QGraphicsWidget19ungrabKeyboardEventEP6QEvent@QtGui{00040703}[2001b2dd].dll  - Undefined Reference
    QGraphicsWidget::event(QEvent*)           - Undefined Reference
    _ZN15QGraphicsWidget5eventEP6QEvent@QtGui{00040703}[2001b2dd].dll  - Undefined Reference
    QGraphicsWidget::hideEvent(QHideEvent*)   - Undefined Reference
    _ZN15QGraphicsWidget9hideEventEP10QHideEvent@QtGui{00040703}[2001b2dd].dll  - Undefined Reference
    QGraphicsWidget::moveEvent(QGraphicsSceneMoveEvent*)  - Undefined Reference
    _ZN15QGraphicsWidget9moveEventEP23QGraphicsSceneMoveEvent@QtGui{00040703}[2001b2dd].dll  - Undefined Reference
    QGraphicsWidget::showEvent(QShowEvent*)   - Undefined Reference
    _ZN15QGraphicsWidget9showEventEP10QShowEvent@QtGui{00040703}[2001b2dd].dll  - Undefined Reference
    QGraphicsWidget::QGraphicsWidget(QGraphicsItem*, QFlags<Qt::WindowType>)  - Undefined Reference
    _ZN15QGraphicsWidgetC1EP13QGraphicsItem6QFlagsIN2Qt10WindowTypeEE@QtGui{00040703}[2001b2dd].dll  - Undefined Reference
    QGraphicsWidget::~QGraphicsWidget()       - Undefined Reference
    _ZN15QGraphicsWidgetD1Ev@QtGui{00040703}[2001b2dd].dll  - Undefined Reference
    QtSharedPointer::ExternalRefCountData::getAndRef(const QObject*)  - Undefined Reference
    _ZN15QtSharedPointer20ExternalRefCountData9getAndRefEPK7QObject@QtCore{00040703}[2001b2dc].dll  - Undefined Reference
    RPositionServer::CancelRequest(int)       - Undefined Reference
    _ZN15RPositionServer13CancelRequestEi@lbs{000a0000}[101f97b1].dll  - Undefined Reference
    RPositionServer::Close()                  - Undefined Reference
    _ZN15RPositionServer5CloseEv@lbs{000a0000}[101f97b1].dll  - Undefined Reference
    RPositionServer::Connect()                - Undefined Reference
    _ZN15RPositionServer7ConnectEv@lbs{000a0000}[101f97b1].dll  - Undefined Reference
    RPositionServer::RPositionServer()        - Undefined Reference
    _ZN15RPositionServerC1Ev@lbs{000a0000}[101f97b1].dll  - Undefined Reference
    CActiveScheduler::Add(CActive*)           - Undefined Reference
    _ZN16CActiveScheduler3AddEP7CActive@euser{000a0000}[100039e5].dll  - Undefined Reference
    CLbtTriggerEntry::SetCondition(CLbtTriggerConditionBase*)  - Undefined Reference
    _ZN16CLbtTriggerEntry12SetConditionEP24CLbtTriggerConditionBase@lbt{000a0000}[10283130].dll  - Undefined Reference
    CLbtTriggerEntry::SetTimeToRearm(int)     - Undefined Reference
    _ZN16CLbtTriggerEntry14SetTimeToRearmEi@lbt{000a0000}[10283130].dll  - Undefined Reference
    CLbtTriggerEntry::SetId(unsigned long)    - Undefined Reference
    _ZN16CLbtTriggerEntry5SetIdEm@lbt{000a0000}[10283130].dll  - Undefined Reference
    QCoreApplication::libraryPaths()          - Undefined Reference
    _ZN16QCoreApplication12libraryPathsEv@QtCore{00040703}[2001b2dc].dll  - Undefined Reference
    QCoreApplication::applicationDirPath()    - Undefined Reference
    _ZN16QCoreApplication18applicationDirPathEv@QtCore{00040703}[2001b2dc].dll  - Undefined Reference
    TPositionQuality::TPositionQuality()      - Undefined Reference
    _ZN16TPositionQualityC1Ev@lbs{000a0000}[101f97b1].dll  - Undefined Reference
    QGraphicsPathItem::setPath(const QPainterPath&)  - Undefined Reference
    _ZN17QGraphicsPathItem7setPathERK12QPainterPath@QtGui{00040703}[2001b2dd].dll  - Undefined Reference
    QGraphicsPathItem::QGraphicsPathItem(QGraphicsItem*, QGraphicsScene*)  - Undefined Reference
    _ZN17QGraphicsPathItemC1EP13QGraphicsItemP14QGraphicsScene@QtGui{00040703}[2001b2dd].dll  - Undefined Reference
    QGraphicsRectItem::setRect(const QRectF&)  - Undefined Reference
    _ZN17QGraphicsRectItem7setRectERK6QRectF@QtGui{00040703}[2001b2dd].dll  - Undefined Reference
    QGraphicsRectItem::QGraphicsRectItem(QGraphicsItem*, QGraphicsScene*)  - Undefined Reference
    _ZN17QGraphicsRectItemC1EP13QGraphicsItemP14QGraphicsScene@QtGui{00040703}[2001b2dd].dll  - Undefined Reference
    RPointerArrayBase::Close()                - Undefined Reference
    _ZN17RPointerArrayBase5CloseEv@euser{000a0000}[100039e5].dll  - Undefined Reference
    RPointerArrayBase::Append(const void*)    - Undefined Reference
    _ZN17RPointerArrayBase6AppendEPKv@euser{000a0000}[100039e5].dll  - Undefined Reference
    RPointerArrayBase::RPointerArrayBase()    - Undefined Reference
    _ZN17RPointerArrayBaseC1Ev@euser{000a0000}[100039e5].dll  - Undefined Reference
    CLbtSessionTrigger::NewL(const TDesC16&, CLbtTriggerEntry::TLbtTriggerState, const RRequestorStack&, TUid, CLbtTriggerConditionBase*)  - Undefined Reference
    _ZN18CLbtSessionTrigger4NewLERK7TDesC16N16CLbtTriggerEntry16TLbtTriggerStateERK15RRequestorStack4TUidP24CLbtTriggerConditionBase@lbt{000a0000}[10283130].dll  - Undefined Reference
    CLbtSessionTrigger::NewL()                - Undefined Reference
    _ZN18CLbtSessionTrigger4NewLEv@lbt{000a0000}[10283130].dll  - Undefined Reference
    QGraphicsLayoutItem::setMinimumSize(const QSizeF&)  - Undefined Reference
    _ZN19QGraphicsLayoutItem14setMinimumSizeERK6QSizeF@QtGui{00040703}[2001b2dd].dll  - Undefined Reference
    QGraphicsLayoutItem::setPreferredSize(const QSizeF&)  - Undefined Reference
    _ZN19QGraphicsLayoutItem16setPreferredSizeERK6QSizeF@QtGui{00040703}[2001b2dd].dll  - Undefined Reference
    QGraphicsPixmapItem::setPixmap(const QPixmap&)  - Undefined Reference
    _ZN19QGraphicsPixmapItem9setPixmapERK7QPixmap@QtGui{00040703}[2001b2dd].dll  - Undefined Reference
    QGraphicsPixmapItem::QGraphicsPixmapItem(QGraphicsItem*, QGraphicsScene*)  - Undefined Reference
    _ZN19QGraphicsPixmapItemC1EP13QGraphicsItemP14QGraphicsScene@QtGui{00040703}[2001b2dd].dll  - Undefined Reference
    TPositionModuleInfo::TPositionModuleInfo()  - Undefined Reference
    _ZN19TPositionModuleInfoC1Ev@lbs{000a0000}[101f97b1].dll  - Undefined Reference
    CActiveSchedulerWait::Start()             - Undefined Reference
    _ZN20CActiveSchedulerWait5StartEv@euser{000a0000}[100039e5].dll  - Undefined Reference
    CActiveSchedulerWait::AsyncStop()         - Undefined Reference
    _ZN20CActiveSchedulerWait9AsyncStopEv@euser{000a0000}[100039e5].dll  - Undefined Reference
    CActiveSchedulerWait::CActiveSchedulerWait()  - Undefined Reference
    _ZN20CActiveSchedulerWaitC1Ev@euser{000a0000}[100039e5].dll  - Undefined Reference
    HPositionGenericInfo::ClearPositionData()  - Undefined Reference
    _ZN20HPositionGenericInfo17ClearPositionDataEv@lbs{000a0000}[101f97b1].dll  - Undefined Reference
    HPositionGenericInfo::SetRequestedField(unsigned short)  - Undefined Reference
    _ZN20HPositionGenericInfo17SetRequestedFieldEt@lbs{000a0000}[101f97b1].dll  - Undefined Reference
    HPositionGenericInfo::ClearRequestedFields()  - Undefined Reference
    _ZN20HPositionGenericInfo20ClearRequestedFieldsEv@lbs{000a0000}[101f97b1].dll  - Undefined Reference
    HPositionGenericInfo::New(int, int)       - Undefined Reference
    _ZN20HPositionGenericInfo3NewEii@lbs{000a0000}[101f97b1].dll  - Undefined Reference
    PositionFieldManager::GetValue(unsigned short, float&, const HPositionGenericInfo&)  - Undefined Reference
    _ZN20PositionFieldManager8GetValueEtRfRK20HPositionGenericInfo@lbs{000a0000}[101f97b1].dll  - Undefined Reference
    QGraphicsPolygonItem::setPolygon(const QPolygonF&)  - Undefined Reference
    _ZN20QGraphicsPolygonItem10setPolygonERK9QPolygonF@QtGui{00040703}[2001b2dd].dll  - Undefined Reference
    QGraphicsPolygonItem::QGraphicsPolygonItem(QGraphicsItem*, QGraphicsScene*)  - Undefined Reference
    _ZN20QGraphicsPolygonItemC1EP13QGraphicsItemP14QGraphicsScene@QtGui{00040703}[2001b2dd].dll  - Undefined Reference
    TPositionModuleStatus::TPositionModuleStatus()  - Undefined Reference
    _ZN21TPositionModuleStatusC1Ev@lbs{000a0000}[101f97b1].dll  - Undefined Reference
    TPositionSatelliteInfo::ClearSatellitesInView()  - Undefined Reference
    _ZN22TPositionSatelliteInfo21ClearSatellitesInViewEv@lbs{000a0000}[101f97b1].dll  - Undefined Reference
    TPositionSatelliteInfo::TPositionSatelliteInfo()  - Undefined Reference
    _ZN22TPositionSatelliteInfoC1Ev@lbs{000a0000}[101f97b1].dll  - Undefined Reference
    TPositionUpdateOptions::TPositionUpdateOptions()  - Undefined Reference
    _ZN22TPositionUpdateOptionsC1Ev@lbs{000a0000}[101f97b1].dll  - Undefined Reference
    QGraphicsSimpleTextItem::setFont(const QFont&)  - Undefined Reference
    _ZN23QGraphicsSimpleTextItem7setFontERK5QFont@QtGui{00040703}[2001b2dd].dll  - Undefined Reference
    QGraphicsSimpleTextItem::setText(const QString&)  - Undefined Reference
    _ZN23QGraphicsSimpleTextItem7setTextERK7QString@QtGui{00040703}[2001b2dd].dll  - Undefined Reference
    QGraphicsSimpleTextItem::QGraphicsSimpleTextItem(QGraphicsItem*, QGraphicsScene*)  - Undefined Reference
    _ZN23QGraphicsSimpleTextItemC1EP13QGraphicsItemP14QGraphicsScene@QtGui{00040703}[2001b2dd].dll  - Undefined Reference
    CLbtTriggerConditionArea::NewL(CLbtGeoAreaBase*, CLbtTriggerConditionArea::TDirection)  - Undefined Reference
    _ZN24CLbtTriggerConditionArea4NewLEP15CLbtGeoAreaBaseNS_10TDirectionE@lbt{000a0000}[10283130].dll  - Undefined Reference
    RPositionerSubSessionBase::CancelRequest(int)  - Undefined Reference
    _ZN25RPositionerSubSessionBase13CancelRequestEi@lbs{000a0000}[101f97b1].dll  - Undefined Reference
    QAbstractGraphicsShapeItem::setPen(const QPen&)  - Undefined Reference
    _ZN26QAbstractGraphicsShapeItem6setPenERK4QPen@QtGui{00040703}[2001b2dd].dll  - Undefined Reference
    QAbstractGraphicsShapeItem::setBrush(const QBrush&)  - Undefined Reference
    _ZN26QAbstractGraphicsShapeItem8setBrushERK6QBrush@QtGui{00040703}[2001b2dd].dll  - Undefined Reference
    TPositionModuleStatusEvent::TPositionModuleStatusEvent()  - Undefined Reference
    _ZN26TPositionModuleStatusEventC1Ev@lbs{000a0000}[101f97b1].dll  - Undefined Reference
    TPositionUpdateOptionsBase::SetUpdateTimeOut(TTimeIntervalMicroSeconds)  - Undefined Reference
    _ZN26TPositionUpdateOptionsBase16SetUpdateTimeOutE25TTimeIntervalMicroSeconds@lbs{000a0000}[101f97b1].dll  - Undefined Reference
    TPositionUpdateOptionsBase::SetUpdateInterval(TTimeIntervalMicroSeconds)  - Undefined Reference
    _ZN26TPositionUpdateOptionsBase17SetUpdateIntervalE25TTimeIntervalMicroSeconds@lbs{000a0000}[101f97b1].dll  - Undefined Reference
    TLbtTriggeringSystemSettings::TLbtTriggeringSystemSettings()  - Undefined Reference
    _ZN28TLbtTriggeringSystemSettingsC1Ev@lbt{000a0000}[10283130].dll  - Undefined Reference
    TPositionModuleStatusEventBase::SetRequestedEvents(unsigned long)  - Undefined Reference
    _ZN30TPositionModuleStatusEventBase18SetRequestedEventsEm@lbs{000a0000}[101f97b1].dll  - Undefined Reference
    RFs::Close()                              - Undefined Reference
    _ZN3RFs5CloseEv@efsrv{000a0000}[100039e4].dll  - Undefined Reference
    RFs::Connect(int)                         - Undefined Reference
    _ZN3RFs7ConnectEi@efsrv{000a0000}[100039e4].dll  - Undefined Reference
    QDir::toNativeSeparators(const QString&)  - Undefined Reference
    _ZN4QDir18toNativeSeparatorsERK7QString@QtCore{00040703}[2001b2dc].dll  - Undefined Reference
    QDir::cd(const QString&)                  - Undefined Reference
    _ZN4QDir2cdERK7QString@QtCore{00040703}[2001b2dc].dll  - Undefined Reference
    QDir::QDir(const QString&)                - Undefined Reference
    _ZN4QDirC1ERK7QString@QtCore{00040703}[2001b2dc].dll  - Undefined Reference
    QDir::~QDir()                             - Undefined Reference
    _ZN4QDirD1Ev@QtCore{00040703}[2001b2dc].dll  - Undefined Reference
    QPen::setCosmetic(bool)                   - Undefined Reference
    _ZN4QPen11setCosmeticEb@QtGui{00040703}[2001b2dd].dll  - Undefined Reference
    QPen::setWidth(int)                       - Undefined Reference
    _ZN4QPen8setWidthEi@QtGui{00040703}[2001b2dd].dll  - Undefined Reference
    QPen::QPen(const QPen&)                   - Undefined Reference
    _ZN4QPenC1ERKS_@QtGui{00040703}[2001b2dd].dll  - Undefined Reference
    QPen::QPen()                              - Undefined Reference
    _ZN4QPenC1Ev@QtGui{00040703}[2001b2dd].dll  - Undefined Reference
    QPen::~QPen()                             - Undefined Reference
    _ZN4QPenD1Ev@QtGui{00040703}[2001b2dd].dll  - Undefined Reference
    QPen::operator =(const QPen&)             - Undefined Reference
    _ZN4QPenaSERKS_@QtGui{00040703}[2001b2dd].dll  - Undefined Reference
    QUrl::clear()                             - Undefined Reference
    _ZN4QUrl5clearEv@QtCore{00040703}[2001b2dc].dll  - Undefined Reference
    QUrl::QUrl(const QUrl&)                   - Undefined Reference
    _ZN4QUrlC1ERKS_@QtCore{00040703}[2001b2dc].dll  - Undefined Reference
    QUrl::QUrl()                              - Undefined Reference
    _ZN4QUrlC1Ev@QtCore{00040703}[2001b2dc].dll  - Undefined Reference
    QUrl::~QUrl()                             - Undefined Reference
    _ZN4QUrlD1Ev@QtCore{00040703}[2001b2dc].dll  - Undefined Reference
    QUrl::operator =(const QUrl&)             - Undefined Reference
    _ZN4QUrlaSERKS_@QtCore{00040703}[2001b2dc].dll  - Undefined Reference
    RLbt::CreateTrigger(const CLbtTriggerEntry&, unsigned long&, int, TRequestStatus&)  - Undefined Reference
    _ZN4RLbt13CreateTriggerERK16CLbtTriggerEntryRmiR14TRequestStatus@lbt{000a0000}[10283130].dll  - Undefined Reference
    RLbt::UpdateTriggerL(const CLbtTriggerEntry&, unsigned long, TLbtFireOnUpdate)  - Undefined Reference
    _ZN4RLbt14UpdateTriggerLERK16CLbtTriggerEntrym16TLbtFireOnUpdate@lbt{000a0000}[10283130].dll  - Undefined Reference
    RLbt::ListTriggerIdsL(RArray<unsigned long>&, CLbtListTriggerOptions*)  - Undefined Reference
    _ZN4RLbt15ListTriggerIdsLER6RArrayImEP22CLbtListTriggerOptions@lbt{000a0000}[10283130].dll  - Undefined Reference
    RLbt::SetTriggerStateL(unsigned long, CLbtTriggerEntry::TLbtTriggerState, TLbtFireOnUpdate)  - Undefined Reference
    _ZN4RLbt16SetTriggerStateLEmN16CLbtTriggerEntry16TLbtTriggerStateE16TLbtFireOnUpdate@lbt{000a0000}[10283130].dll  - Undefined Reference
    RLbt::NotifyTriggerFired(TLbtTriggerFireInfo&, TRequestStatus&)  - Undefined Reference
    _ZN4RLbt18NotifyTriggerFiredER19TLbtTriggerFireInfoR14TRequestStatus@lbt{000a0000}[10283130].dll  - Undefined Reference
    RLbt::CancelNotifyTriggerFired()          - Undefined Reference
    _ZN4RLbt24CancelNotifyTriggerFiredEv@lbt{000a0000}[10283130].dll  - Undefined Reference
    RLbt::NotifyTriggerChangeEvent(TLbtTriggerChangeEvent&, TRequestStatus&)  - Undefined Reference
    _ZN4RLbt24NotifyTriggerChangeEventER22TLbtTriggerChangeEventR14TRequestStatus@lbt{000a0000}[10283130].dll  - Undefined Reference
    RLbt::GetTriggeringSystemSettingsL(TLbtTriggeringSystemSettings&)  - Undefined Reference
    _ZN4RLbt28GetTriggeringSystemSettingsLER28TLbtTriggeringSystemSettings@lbt{000a0000}[10283130].dll  - Undefined Reference
    RLbt::CancelNotifyTriggerChangeEvent()    - Undefined Reference
    _ZN4RLbt30CancelNotifyTriggerChangeEventEv@lbt{000a0000}[10283130].dll  - Undefined Reference
    RLbt::Open(RLbtServer&)                   - Undefined Reference
    _ZN4RLbt4OpenER10RLbtServer@lbt{000a0000}[10283130].dll  - Undefined Reference
    RLbt::Close()                             - Undefined Reference
    _ZN4RLbt5CloseEv@lbt{000a0000}[10283130].dll  - Undefined Reference
    RLbt::RLbt()                              - Undefined Reference
    _ZN4RLbtC1Ev@lbt{000a0000}[10283130].dll  - Undefined Reference
    RLbt::~RLbt()                             - Undefined Reference
    _ZN4RLbtD1Ev@lbt{000a0000}[10283130].dll  - Undefined Reference
    User::LeaveIfError(int)                   - Undefined Reference
    _ZN4User12LeaveIfErrorEi@euser{000a0000}[100039e5].dll  - Undefined Reference
    User::WaitForRequest(TRequestStatus&)     - Undefined Reference
    _ZN4User14WaitForRequestER14TRequestStatus@euser{000a0000}[100039e5].dll  - Undefined Reference
    User::MarkCleanupStack()                  - Undefined Reference
    _ZN4User16MarkCleanupStackEv@euser{000a0000}[100039e5].dll  - Undefined Reference
    User::UnMarkCleanupStack(TTrapHandler*)   - Undefined Reference
    _ZN4User18UnMarkCleanupStackEP12TTrapHandler@euser{000a0000}[100039e5].dll  - Undefined Reference
    User::AllocL(int)                         - Undefined Reference
    _ZN4User6AllocLEi@euser{000a0000}[100039e5].dll  - Undefined Reference
    User::AllocZ(int)                         - Undefined Reference
    _ZN4User6AllocZEi@euser{000a0000}[100039e5].dll  - Undefined Reference
    User::AllocZL(int)                        - Undefined Reference
    _ZN4User7AllocZLEi@euser{000a0000}[100039e5].dll  - Undefined Reference
    User::Invariant()                         - Undefined Reference
    _ZN4User9InvariantEv@euser{000a0000}[100039e5].dll  - Undefined Reference
    User::LockedDec(int&)                     - Undefined Reference
    _ZN4User9LockedDecERi@euser{000a0000}[100039e5].dll  - Undefined Reference
    User::LockedInc(int&)                     - Undefined Reference
    _ZN4User9LockedIncERi@euser{000a0000}[100039e5].dll  - Undefined Reference
    CBase::Extension_(unsigned, void*&, void*)  - Undefined Reference
    _ZN5CBase10Extension_EjRPvS0_@euser{000a0000}[100039e5].dll  - Undefined Reference
    CBase::~CBase()                           - Undefined Reference
    _ZN5CBaseD1Ev@euser{000a0000}[100039e5].dll  - Undefined Reference
    QDate::fromString(const QString&, const QString&)  - Undefined Reference
    _ZN5QDate10fromStringERK7QStringS2_@QtCore{00040703}[2001b2dc].dll  - Undefined Reference
    QDate::setDate(int, int, int)             - Undefined Reference
    _ZN5QDate7setDateEiii@QtCore{00040703}[2001b2dc].dll  - Undefined Reference
    QDate::QDate(int, int, int)               - Undefined Reference
    _ZN5QDateC1Eiii@QtCore{00040703}[2001b2dc].dll  - Undefined Reference
    QFile::staticMetaObject                   - Undefined Reference
    _ZN5QFile16staticMetaObjectE@QtCore{00040703}[2001b2dc].dll  - Undefined Reference
    QFile::QFile(const QString&)              - Undefined Reference
    _ZN5QFileC1ERK7QString@QtCore{00040703}[2001b2dc].dll  - Undefined Reference
    QFile::~QFile()                           - Undefined Reference
    _ZN5QFileD1Ev@QtCore{00040703}[2001b2dc].dll  - Undefined Reference
    QFont::QFont(const QFont&)                - Undefined Reference
    _ZN5QFontC1ERKS_@QtGui{00040703}[2001b2dd].dll  - Undefined Reference
    QFont::QFont()                            - Undefined Reference
    _ZN5QFontC1Ev@QtGui{00040703}[2001b2dd].dll  - Undefined Reference
    QFont::~QFont()                           - Undefined Reference
    _ZN5QFontD1Ev@QtGui{00040703}[2001b2dd].dll  - Undefined Reference
    QFont::operator =(const QFont&)           - Undefined Reference
    _ZN5QFontaSERKS_@QtGui{00040703}[2001b2dd].dll  - Undefined Reference
    QTime::fromString(const QString&, const QString&)  - Undefined Reference
    _ZN5QTime10fromStringERK7QStringS2_@QtCore{00040703}[2001b2dc].dll  - Undefined Reference
    QTime::QTime(int, int, int, int)          - Undefined Reference
    _ZN5QTimeC1Eiiii@QtCore{00040703}[2001b2dc].dll  - Undefined Reference
    QBrush::QBrush(const QBrush&)             - Undefined Reference
    _ZN6QBrushC1ERKS_@QtGui{00040703}[2001b2dd].dll  - Undefined Reference
    QBrush::QBrush()                          - Undefined Reference
    _ZN6QBrushC1Ev@QtGui{00040703}[2001b2dd].dll  - Undefined Reference
    QBrush::~QBrush()                         - Undefined Reference
    _ZN6QBrushD1Ev@QtGui{00040703}[2001b2dd].dll  - Undefined Reference
    QBrush::operator =(const QBrush&)         - Undefined Reference
    _ZN6QBrushaSERKS_@QtGui{00040703}[2001b2dd].dll  - Undefined Reference
    QColor::QColor(Qt::GlobalColor)           - Undefined Reference
    _ZN6QColorC1EN2Qt11GlobalColorE@QtGui{00040703}[2001b2dd].dll  - Undefined Reference
    QImage::loadFromData(const unsigned char*, int, const char*)  - Undefined Reference
    _ZN6QImage12loadFromDataEPKhiPKc@QtGui{00040703}[2001b2dd].dll  - Undefined Reference
    QImage::QImage()                          - Undefined Reference
    _ZN6QImageC1Ev@QtGui{00040703}[2001b2dd].dll  - Undefined Reference
    QImage::~QImage()                         - Undefined Reference
    _ZN6QImageD1Ev@QtGui{00040703}[2001b2dd].dll  - Undefined Reference
    QMutex::lock()                            - Undefined Reference
    _ZN6QMutex4lockEv@QtCore{00040703}[2001b2dc].dll  - Undefined Reference
    QMutex::unlock()                          - Undefined Reference
    _ZN6QMutex6unlockEv@QtCore{00040703}[2001b2dc].dll  - Undefined Reference
    QMutex::QMutex(QMutex::RecursionMode)     - Undefined Reference
    _ZN6QMutexC1ENS_13RecursionModeE@QtCore{00040703}[2001b2dc].dll  - Undefined Reference
    QMutex::~QMutex()                         - Undefined Reference
    _ZN6QMutexD1Ev@QtCore{00040703}[2001b2dc].dll  - Undefined Reference
    QTimer::singleShot(int, QObject*, const char*)  - Undefined Reference
    _ZN6QTimer10singleShotEiP7QObjectPKc@QtCore{00040703}[2001b2dc].dll  - Undefined Reference
    QTimer::stop()                            - Undefined Reference
    _ZN6QTimer4stopEv@QtCore{00040703}[2001b2dc].dll  - Undefined Reference
    QTimer::start(int)                        - Undefined Reference
    _ZN6QTimer5startEi@QtCore{00040703}[2001b2dc].dll  - Undefined Reference
    QTimer::QTimer(QObject*)                  - Undefined Reference
    _ZN6QTimerC1EP7QObject@QtCore{00040703}[2001b2dc].dll  - Undefined Reference
    CActive::Extension_(unsigned, void*&, void*)  - Undefined Reference
    _ZN7CActive10Extension_EjRPvS0_@euser{000a0000}[100039e5].dll  - Undefined Reference
    CActive::Cancel()                         - Undefined Reference
    _ZN7CActive6CancelEv@euser{000a0000}[100039e5].dll  - Undefined Reference
    CActive::RunError(int)                    - Undefined Reference
    _ZN7CActive8RunErrorEi@euser{000a0000}[100039e5].dll  - Undefined Reference
    CActive::SetActive()                      - Undefined Reference
    _ZN7CActive9SetActiveEv@euser{000a0000}[100039e5].dll  - Undefined Reference
    CActive::CActive__sub_object(int)         - Undefined Reference
    _ZN7CActiveC2Ei@euser{000a0000}[100039e5].dll  - Undefined Reference
    CActive::~CActive__sub_object()           - Undefined Reference
    _ZN7CActiveD2Ev@euser{000a0000}[100039e5].dll  - Undefined Reference
    QLocale::QLocale(const QLocale&)          - Undefined Reference
    _ZN7QLocaleC1ERKS_@QtCore{00040703}[2001b2dc].dll  - Undefined Reference
    QLocale::QLocale()                        - Undefined Reference
    _ZN7QLocaleC1Ev@QtCore{00040703}[2001b2dc].dll  - Undefined Reference
    QLocale::operator =(const QLocale&)       - Undefined Reference
    _ZN7QLocaleaSERKS_@QtCore{00040703}[2001b2dc].dll  - Undefined Reference
    QObject::childEvent(QChildEvent*)         - Undefined Reference
    _ZN7QObject10childEventEP11QChildEvent@QtCore{00040703}[2001b2dc].dll  - Undefined Reference
    QObject::disconnect(const QObject*, const char*, const QObject*, const char*)  - Undefined Reference
    _ZN7QObject10disconnectEPKS_PKcS1_S3_@QtCore{00040703}[2001b2dc].dll  - Undefined Reference
    QObject::startTimer(int)                  - Undefined Reference
    _ZN7QObject10startTimerEi@QtCore{00040703}[2001b2dc].dll  - Undefined Reference
    QObject::timerEvent(QTimerEvent*)         - Undefined Reference
    _ZN7QObject10timerEventEP11QTimerEvent@QtCore{00040703}[2001b2dc].dll  - Undefined Reference
    QObject::customEvent(QEvent*)             - Undefined Reference
    _ZN7QObject11customEventEP6QEvent@QtCore{00040703}[2001b2dc].dll  - Undefined Reference
    QObject::deleteLater()                    - Undefined Reference
    _ZN7QObject11deleteLaterEv@QtCore{00040703}[2001b2dc].dll  - Undefined Reference
    QObject::eventFilter(QObject*, QEvent*)   - Undefined Reference
    _ZN7QObject11eventFilterEPS_P6QEvent@QtCore{00040703}[2001b2dc].dll  - Undefined Reference
    QObject::qt_metacall(QMetaObject::Call, int, void**)  - Undefined Reference
    _ZN7QObject11qt_metacallEN11QMetaObject4CallEiPPv@QtCore{00040703}[2001b2dc].dll  - Undefined Reference
    QObject::qt_metacast(const char*)         - Undefined Reference
    _ZN7QObject11qt_metacastEPKc@QtCore{00040703}[2001b2dc].dll  - Undefined Reference
    QObject::connectNotify(const char*)       - Undefined Reference
    _ZN7QObject13connectNotifyEPKc@QtCore{00040703}[2001b2dc].dll  - Undefined Reference
    QObject::disconnectNotify(const char*)    - Undefined Reference
    _ZN7QObject16disconnectNotifyEPKc@QtCore{00040703}[2001b2dc].dll  - Undefined Reference
    QObject::staticMetaObject                 - Undefined Reference
    _ZN7QObject16staticMetaObjectE@QtCore{00040703}[2001b2dc].dll  - Undefined Reference
    QObject::event(QEvent*)                   - Undefined Reference
    _ZN7QObject5eventEP6QEvent@QtCore{00040703}[2001b2dc].dll  - Undefined Reference
    QObject::connect(const QObject*, const char*, const QObject*, const char*, Qt::ConnectionType)  - Undefined Reference
    _ZN7QObject7connectEPKS_PKcS1_S3_N2Qt14ConnectionTypeE@QtCore{00040703}[2001b2dc].dll  - Undefined Reference
    QObject::killTimer(int)                   - Undefined Reference
    _ZN7QObject9killTimerEi@QtCore{00040703}[2001b2dc].dll  - Undefined Reference
    QObject::setParent(QObject*)              - Undefined Reference
    _ZN7QObject9setParentEPS_@QtCore{00040703}[2001b2dc].dll  - Undefined Reference
    QObject::QObject(QObject*)                - Undefined Reference
    _ZN7QObjectC1EPS_@QtCore{00040703}[2001b2dc].dll  - Undefined Reference
    QObject::~QObject()                       - Undefined Reference
    _ZN7QObjectD1Ev@QtCore{00040703}[2001b2dc].dll  - Undefined Reference
    QPixmap::fill(const QColor&)              - Undefined Reference
    _ZN7QPixmap4fillERK6QColor@QtGui{00040703}[2001b2dd].dll  - Undefined Reference
    QPixmap::QPixmap(const QSize&)            - Undefined Reference
    _ZN7QPixmapC1ERK5QSize@QtGui{00040703}[2001b2dd].dll  - Undefined Reference
    QPixmap::QPixmap(const QPixmap&)          - Undefined Reference
    _ZN7QPixmapC1ERKS_@QtGui{00040703}[2001b2dd].dll  - Undefined Reference
    QPixmap::QPixmap()                        - Undefined Reference
    _ZN7QPixmapC1Ev@QtGui{00040703}[2001b2dd].dll  - Undefined Reference
    QPixmap::~QPixmap()                       - Undefined Reference
    _ZN7QPixmapD1Ev@QtGui{00040703}[2001b2dd].dll  - Undefined Reference
    QPixmap::operator =(const QPixmap&)       - Undefined Reference
    _ZN7QPixmapaSERKS_@QtGui{00040703}[2001b2dd].dll  - Undefined Reference
    QRegExp::QRegExp(const QString&, Qt::CaseSensitivity, QRegExp::PatternSyntax)  - Undefined Reference
    _ZN7QRegExpC1ERK7QStringN2Qt15CaseSensitivityENS_13PatternSyntaxE@QtCore{00040703}[2001b2dc].dll  - Undefined Reference
    QRegExp::~QRegExp()                       - Undefined Reference
    _ZN7QRegExpD1Ev@QtCore{00040703}[2001b2dc].dll  - Undefined Reference
    QString::shared_null                      - Undefined Reference
    _ZN7QString11shared_nullE@QtCore{00040703}[2001b2dc].dll  - Undefined Reference
    QString::codecForCStrings                 - Undefined Reference
    _ZN7QString16codecForCStringsE@QtCore{00040703}[2001b2dc].dll  - Undefined Reference
    QString::fromAscii_helper(const char*, int)  - Undefined Reference
    _ZN7QString16fromAscii_helperEPKci@QtCore{00040703}[2001b2dc].dll  - Undefined Reference
    QString::fromLatin1_helper(const char*, int)  - Undefined Reference
    _ZN7QString17fromLatin1_helperEPKci@QtCore{00040703}[2001b2dc].dll  - Undefined Reference
    QString::free(QString::Data*)             - Undefined Reference
    _ZN7QString4freeEPNS_4DataE@QtCore{00040703}[2001b2dc].dll  - Undefined Reference
    QString::grow(int)                        - Undefined Reference
    _ZN7QString4growEi@QtCore{00040703}[2001b2dc].dll  - Undefined Reference
    QString::append(const QString&)           - Undefined Reference
    _ZN7QString6appendERKS_@QtCore{00040703}[2001b2dc].dll  - Undefined Reference
    QString::insert(int, const QChar*, int)   - Undefined Reference
    _ZN7QString6insertEiPK5QChari@QtCore{00040703}[2001b2dc].dll  - Undefined Reference
    QString::number(double, char, int)        - Undefined Reference
    _ZN7QString6numberEdci@QtCore{00040703}[2001b2dc].dll  - Undefined Reference
    QString::number(int, int)                 - Undefined Reference
    _ZN7QString6numberEii@QtCore{00040703}[2001b2dc].dll  - Undefined Reference
    QString::realloc(int)                     - Undefined Reference
    _ZN7QString7reallocEi@QtCore{00040703}[2001b2dc].dll  - Undefined Reference
    QString::replace(QChar, const QLatin1String&, Qt::CaseSensitivity)  - Undefined Reference
    _ZN7QString7replaceE5QCharRK13QLatin1StringN2Qt15CaseSensitivityE@QtCore{00040703}[2001b2dc].dll  - Undefined Reference
    QString::replace(const QLatin1String&, const QLatin1String&, Qt::CaseSensitivity)  - Undefined Reference
    _ZN7QString7replaceERK13QLatin1StringS2_N2Qt15CaseSensitivityE@QtCore{00040703}[2001b2dc].dll  - Undefined Reference
    QString::sprintf(const char*, ...)        - Undefined Reference
    _ZN7QString7sprintfEPKcz@QtCore{00040703}[2001b2dc].dll  - Undefined Reference
    QString::fromAscii(const char*, int)      - Undefined Reference
    _ZN7QString9fromAsciiEPKci@QtCore{00040703}[2001b2dc].dll  - Undefined Reference
    QString::operator =(const QString&)       - Undefined Reference
    _ZN7QStringaSERKS_@QtCore{00040703}[2001b2dc].dll  - Undefined Reference
    TPtrC16::TPtrC16(const unsigned short*)   - Undefined Reference
    _ZN7TPtrC16C1EPKt@euser{000a0000}[100039e5].dll  - Undefined Reference
    TPtrC16::TPtrC16(const unsigned short*, int)  - Undefined Reference
    _ZN7TPtrC16C1EPKti@euser{000a0000}[100039e5].dll  - Undefined Reference
    QMapData::createData(int)                 - Undefined Reference
    _ZN8QMapData10createDataEi@QtCore{00040703}[2001b2dc].dll  - Undefined Reference
    QMapData::node_create(QMapData::Node**, int, int)  - Undefined Reference
    _ZN8QMapData11node_createEPPNS_4NodeEii@QtCore{00040703}[2001b2dc].dll  - Undefined Reference
    QMapData::node_delete(QMapData::Node**, int, QMapData::Node*)  - Undefined Reference
    _ZN8QMapData11node_deleteEPPNS_4NodeEiS1_@QtCore{00040703}[2001b2dc].dll  - Undefined Reference
    QMapData::shared_null                     - Undefined Reference
    _ZN8QMapData11shared_nullE@QtCore{00040703}[2001b2dc].dll  - Undefined Reference
    QMapData::continueFreeData(int)           - Undefined Reference
    _ZN8QMapData16continueFreeDataEi@QtCore{00040703}[2001b2dc].dll  - Undefined Reference
    QPainter::drawPixmap(const QRectF&, const QPixmap&, const QRectF&)  - Undefined Reference
    _ZN8QPainter10drawPixmapERK6QRectFRK7QPixmapS2_@QtGui{00040703}[2001b2dd].dll  - Undefined Reference
    QPainter::end()                           - Undefined Reference
    _ZN8QPainter3endEv@QtGui{00040703}[2001b2dd].dll  - Undefined Reference
    QPainter::fillRect(const QRectF&, const QColor&)  - Undefined Reference
    _ZN8QPainter8fillRectERK6QRectFRK6QColor@QtGui{00040703}[2001b2dd].dll  - Undefined Reference
    QPainter::drawImage(const QRectF&, const QImage&, const QRectF&, QFlags<Qt::ImageConversionFlag>)  - Undefined Reference
    _ZN8QPainter9drawImageERK6QRectFRK6QImageS2_6QFlagsIN2Qt19ImageConversionFlagEE@QtGui{00040703}[2001b2dd].dll  - Undefined Reference
    QPainter::QPainter(QPaintDevice*)         - Undefined Reference
    _ZN8QPainterC1EP12QPaintDevice@QtGui{00040703}[2001b2dd].dll  - Undefined Reference
    QPainter::~QPainter()                     - Undefined Reference
    _ZN8QPainterD1Ev@QtGui{00040703}[2001b2dd].dll  - Undefined Reference
    QVariant::QVariant(const QString&)        - Undefined Reference
    _ZN8QVariantC1ERK7QString@QtCore{00040703}[2001b2dc].dll  - Undefined Reference
    QVariant::QVariant(const QVariant&)       - Undefined Reference
    _ZN8QVariantC1ERKS_@QtCore{00040703}[2001b2dc].dll  - Undefined Reference
    QVariant::~QVariant()                     - Undefined Reference
    _ZN8QVariantD1Ev@QtCore{00040703}[2001b2dc].dll  - Undefined Reference
    QVariant::operator =(const QVariant&)     - Undefined Reference
    _ZN8QVariantaSERKS_@QtCore{00040703}[2001b2dc].dll  - Undefined Reference
    QDateTime::QDateTime(const QDate&, const QTime&, Qt::TimeSpec)  - Undefined Reference
    _ZN9QDateTimeC1ERK5QDateRK5QTimeN2Qt8TimeSpecE@QtCore{00040703}[2001b2dc].dll  - Undefined Reference
    QDateTime::QDateTime(const QDateTime&)    - Undefined Reference
    _ZN9QDateTimeC1ERKS_@QtCore{00040703}[2001b2dc].dll  - Undefined Reference
    QDateTime::QDateTime()                    - Undefined Reference
    _ZN9QDateTimeC1Ev@QtCore{00040703}[2001b2dc].dll  - Undefined Reference
    QDateTime::~QDateTime()                   - Undefined Reference
    _ZN9QDateTimeD1Ev@QtCore{00040703}[2001b2dc].dll  - Undefined Reference
    QDateTime::operator =(const QDateTime&)   - Undefined Reference
    _ZN9QDateTimeaSERKS_@QtCore{00040703}[2001b2dc].dll  - Undefined Reference
    QHashData::free_helper(void(*)(QHashData::Node*))  - Undefined Reference
    _ZN9QHashData11free_helperEPFvPNS_4NodeEE@QtCore{00040703}[2001b2dc].dll  - Undefined Reference
    QHashData::shared_null                    - Undefined Reference
    _ZN9QHashData11shared_nullE@QtCore{00040703}[2001b2dc].dll  - Undefined Reference
    QHashData::allocateNode(int)              - Undefined Reference
    _ZN9QHashData12allocateNodeEi@QtCore{00040703}[2001b2dc].dll  - Undefined Reference
    QHashData::previousNode(QHashData::Node*)  - Undefined Reference
    _ZN9QHashData12previousNodeEPNS_4NodeE@QtCore{00040703}[2001b2dc].dll  - Undefined Reference
    QHashData::detach_helper2(void(*)(QHashData::Node*, void*), void(*)(QHashData::Node*), int, int)  - Undefined Reference
    _ZN9QHashData14detach_helper2EPFvPNS_4NodeEPvEPFvS1_Eii@QtCore{00040703}[2001b2dc].dll  - Undefined Reference
    QHashData::rehash(int)                    - Undefined Reference
    _ZN9QHashData6rehashEi@QtCore{00040703}[2001b2dc].dll  - Undefined Reference
    QHashData::freeNode(void*)                - Undefined Reference
    _ZN9QHashData8freeNodeEPv@QtCore{00040703}[2001b2dc].dll  - Undefined Reference
    QHashData::nextNode(QHashData::Node*)     - Undefined Reference
    _ZN9QHashData8nextNodeEPNS_4NodeE@QtCore{00040703}[2001b2dc].dll  - Undefined Reference
    QIODevice::readAll()                      - Undefined Reference
    _ZN9QIODevice7readAllEv@QtCore{00040703}[2001b2dc].dll  - Undefined Reference
    QIODevice::readLine(char*, long long)     - Undefined Reference
    _ZN9QIODevice8readLineEPcx@QtCore{00040703}[2001b2dc].dll  - Undefined Reference
    QListData::detach_grow(int*, int)         - Undefined Reference
    _ZN9QListData11detach_growEPii@QtCore{00040703}[2001b2dc].dll  - Undefined Reference
    QListData::shared_null                    - Undefined Reference
    _ZN9QListData11shared_nullE@QtCore{00040703}[2001b2dc].dll  - Undefined Reference
    QListData::erase(void**)                  - Undefined Reference
    _ZN9QListData5eraseEPPv@QtCore{00040703}[2001b2dc].dll  - Undefined Reference
    QListData::append()                       - Undefined Reference
    _ZN9QListData6appendEv@QtCore{00040703}[2001b2dc].dll  - Undefined Reference
    QListData::detach(int)                    - Undefined Reference
    _ZN9QListData6detachEi@QtCore{00040703}[2001b2dc].dll  - Undefined Reference
    QListData::insert(int)                    - Undefined Reference
    _ZN9QListData6insertEi@QtCore{00040703}[2001b2dc].dll  - Undefined Reference
    QListData::remove(int)                    - Undefined Reference
    _ZN9QListData6removeEi@QtCore{00040703}[2001b2dc].dll  - Undefined Reference
    QListData::append2(const QListData&)      - Undefined Reference
    _ZN9QListData7append2ERKS_@QtCore{00040703}[2001b2dc].dll  - Undefined Reference
    QListData::prepend()                      - Undefined Reference
    _ZN9QListData7prependEv@QtCore{00040703}[2001b2dc].dll  - Undefined Reference
    QListData::realloc(int)                   - Undefined Reference
    _ZN9QListData7reallocEi@QtCore{00040703}[2001b2dc].dll  - Undefined Reference
    QtPrivate::QStringList_join(const QStringList*, const QString&)  - Undefined Reference
    _ZN9QtPrivate16QStringList_joinEPK11QStringListRK7QString@QtCore{00040703}[2001b2dc].dll  - Undefined Reference
    QtPrivate::QStringList_contains(const QStringList*, const QString&, Qt::CaseSensitivity)  - Undefined Reference
    _ZN9QtPrivate20QStringList_containsEPK11QStringListRK7QStringN2Qt15CaseSensitivityE@QtCore{00040703}[2001b2dc].dll  - Undefined Reference
    TPosition::TPosition()                    - Undefined Reference
    _ZN9TPositionC1Ev@lbs{000a0000}[101f97b1].dll  - Undefined Reference
    QByteArray::mid(int, int) const           - Undefined Reference
    _ZNK10QByteArray3midEii@QtCore{00040703}[2001b2dc].dll  - Undefined Reference
    QByteArray::split(char) const             - Undefined Reference
    _ZNK10QByteArray5splitEc@QtCore{00040703}[2001b2dc].dll  - Undefined Reference
    QByteArray::toInt(bool*, int) const       - Undefined Reference
    _ZNK10QByteArray5toIntEPbi@QtCore{00040703}[2001b2dc].dll  - Undefined Reference
    QByteArray::toUInt(bool*, int) const      - Undefined Reference
    _ZNK10QByteArray6toUIntEPbi@QtCore{00040703}[2001b2dc].dll  - Undefined Reference
    QByteArray::indexOf(char, int) const      - Undefined Reference
    _ZNK10QByteArray7indexOfEci@QtCore{00040703}[2001b2dc].dll  - Undefined Reference
    QByteArray::toDouble(bool*) const         - Undefined Reference
    _ZNK10QByteArray8toDoubleEPb@QtCore{00040703}[2001b2dc].dll  - Undefined Reference
    RArrayBase::At(int) const                 - Undefined Reference
    _ZNK10RArrayBase2AtEi@euser{000a0000}[100039e5].dll  - Undefined Reference
    RArrayBase::Count() const                 - Undefined Reference
    _ZNK10RArrayBase5CountEv@euser{000a0000}[100039e5].dll  - Undefined Reference
    QDataStream::status() const               - Undefined Reference
    _ZNK11QDataStream6statusEv@QtCore{00040703}[2001b2dc].dll  - Undefined Reference
    QMetaObject::cast(QObject*) const         - Undefined Reference
    _ZNK11QMetaObject4castEP7QObject@QtCore{00040703}[2001b2dc].dll  - Undefined Reference
    RPositioner::GetUpdateOptions(TPositionUpdateOptionsBase&) const  - Undefined Reference
    _ZNK11RPositioner16GetUpdateOptionsER26TPositionUpdateOptionsBase@lbs{000a0000}[101f97b1].dll  - Undefined Reference
    RPositioner::GetLastKnownPosition(TPositionInfoBase&, TRequestStatus&) const  - Undefined Reference
    _ZNK11RPositioner20GetLastKnownPositionER17TPositionInfoBaseR14TRequestStatus@lbs{000a0000}[101f97b1].dll  - Undefined Reference
    RPositioner::NotifyPositionUpdate(TPositionInfoBase&, TRequestStatus&) const  - Undefined Reference
    _ZNK11RPositioner20NotifyPositionUpdateER17TPositionInfoBaseR14TRequestStatus@lbs{000a0000}[101f97b1].dll  - Undefined Reference
    TCoordinate::Altitude() const             - Undefined Reference
    _ZNK11TCoordinate8AltitudeEv@lbs{000a0000}[101f97b1].dll  - Undefined Reference
    TCoordinate::Latitude() const             - Undefined Reference
    _ZNK11TCoordinate8LatitudeEv@lbs{000a0000}[101f97b1].dll  - Undefined Reference
    TCoordinate::Longitude() const            - Undefined Reference
    _ZNK11TCoordinate9LongitudeEv@lbs{000a0000}[101f97b1].dll  - Undefined Reference
    QFontMetrics::boundingRect(const QString&) const  - Undefined Reference
    _ZNK12QFontMetrics12boundingRectERK7QString@QtGui{00040703}[2001b2dd].dll  - Undefined Reference
    QPainterPath::contains(const QPointF&) const  - Undefined Reference
    _ZNK12QPainterPath8containsERK7QPointF@QtGui{00040703}[2001b2dd].dll  - Undefined Reference
    QGraphicsItem::opaqueArea() const         - Undefined Reference
    _ZNK13QGraphicsItem10opaqueAreaEv@QtGui{00040703}[2001b2dd].dll  - Undefined Reference
    QGraphicsItem::mapToParent(const QPainterPath&) const  - Undefined Reference
    _ZNK13QGraphicsItem11mapToParentERK12QPainterPath@QtGui{00040703}[2001b2dd].dll  - Undefined Reference
    QGraphicsItem::isObscuredBy(const QGraphicsItem*) const  - Undefined Reference
    _ZNK13QGraphicsItem12isObscuredByEPKS_@QtGui{00040703}[2001b2dd].dll  - Undefined Reference
    QGraphicsItem::collidesWithItem(const QGraphicsItem*, Qt::ItemSelectionMode) const  - Undefined Reference
    _ZNK13QGraphicsItem16collidesWithItemEPKS_N2Qt17ItemSelectionModeE@QtGui{00040703}[2001b2dd].dll  - Undefined Reference
    QGraphicsItem::collidesWithPath(const QPainterPath&, Qt::ItemSelectionMode) const  - Undefined Reference
    _ZNK13QGraphicsItem16collidesWithPathERK12QPainterPathN2Qt17ItemSelectionModeE@QtGui{00040703}[2001b2dd].dll  - Undefined Reference
    QGraphicsItem::inputMethodQuery(Qt::InputMethodQuery) const  - Undefined Reference
