ARM Linker, RVCT2.2 [Build 686]

================================================================================

Image Symbol Table

    Local Symbols

    Symbol Name                              Value     Ov Type        Size  Object(Section)

    ../../unhosted.s                         0x00000000   Number         0  switch8.o ABSOLUTE
    M:\\epoc32\\build\\euser\\c_e18a23aea4fd210f\\edll_lib\\armv5\\udeb\\uc_dll_.cpp 0x00000000   Number         0  uc_dll_.o ABSOLUTE
    M:\\sf\\os\\kernelhwsrv\\kernel\\eka\\compsupp\\rvct\\ucppinit.cpp 0x00000000   Number         0  ucppinit.o ABSOLUTE
    M:\epoc32\build\euser\c_e18a23aea4fd210f\edll_lib\armv5\udeb\uc_dll_.cpp 0x00000000   Number         0  uc_dll_.o ABSOLUTE
    M:\sf\os\kernelhwsrv\kernel\eka\compsupp\rvct\dllexp.cpp 0x00000000   Number         0  dllexp.o ABSOLUTE
    M:\sf\os\kernelhwsrv\kernel\eka\compsupp\rvct\ucppfini.cpp 0x00000000   Number         0  ucppfini.o ABSOLUTE
    M:\sf\os\kernelhwsrv\kernel\eka\compsupp\rvct\ucppinit.cpp 0x00000000   Number         0  ucppinit.o ABSOLUTE
    M:\sf\os\kernelhwsrv\kernel\eka\euser\epoc\arm\uc_dll.cpp 0x00000000   Number         0  uc_dll.o ABSOLUTE
    S:\sf\mw\qtmobility\src\messaging\addresshelper.cpp 0x00000000   Number         0  addresshelper.o ABSOLUTE
    S:\sf\mw\qtmobility\src\messaging\maemohelpers.cpp 0x00000000   Number         0  maemohelpers.o ABSOLUTE
    S:\sf\mw\qtmobility\src\messaging\messagingutil.cpp 0x00000000   Number         0  messagingutil.o ABSOLUTE
    S:\sf\mw\qtmobility\src\messaging\qfsengine_symbian.cpp 0x00000000   Number         0  qfsengine_symbian.o ABSOLUTE
    S:\sf\mw\qtmobility\src\messaging\qmessage.cpp 0x00000000   Number         0  qmessage.o ABSOLUTE
    S:\sf\mw\qtmobility\src\messaging\qmessage_symbian.cpp 0x00000000   Number         0  qmessage_symbian.o ABSOLUTE
    S:\sf\mw\qtmobility\src\messaging\qmessageaccount.cpp 0x00000000   Number         0  qmessageaccount.o ABSOLUTE
    S:\sf\mw\qtmobility\src\messaging\qmessageaccount_symbian.cpp 0x00000000   Number         0  qmessageaccount_symbian.o ABSOLUTE
    S:\sf\mw\qtmobility\src\messaging\qmessageaccountfilter.cpp 0x00000000   Number         0  qmessageaccountfilter.o ABSOLUTE
    S:\sf\mw\qtmobility\src\messaging\qmessageaccountfilter_symbian.cpp 0x00000000   Number         0  qmessageaccountfilter_symbian.o ABSOLUTE
    S:\sf\mw\qtmobility\src\messaging\qmessageaccountid.cpp 0x00000000   Number         0  qmessageaccountid.o ABSOLUTE
    S:\sf\mw\qtmobility\src\messaging\qmessageaccountid_symbian.cpp 0x00000000   Number         0  qmessageaccountid_symbian.o ABSOLUTE
    S:\sf\mw\qtmobility\src\messaging\qmessageaccountsortorder.cpp 0x00000000   Number         0  qmessageaccountsortorder.o ABSOLUTE
    S:\sf\mw\qtmobility\src\messaging\qmessageaccountsortorder_symbian.cpp 0x00000000   Number         0  qmessageaccountsortorder_symbian.o ABSOLUTE
    S:\sf\mw\qtmobility\src\messaging\qmessageaddress.cpp 0x00000000   Number         0  qmessageaddress.o ABSOLUTE
    S:\sf\mw\qtmobility\src\messaging\qmessagecontentcontainer.cpp 0x00000000   Number         0  qmessagecontentcontainer.o ABSOLUTE
    S:\sf\mw\qtmobility\src\messaging\qmessagecontentcontainer_symbian.cpp 0x00000000   Number         0  qmessagecontentcontainer_symbian.o ABSOLUTE
    S:\sf\mw\qtmobility\src\messaging\qmessagecontentcontainerid.cpp 0x00000000   Number         0  qmessagecontentcontainerid.o ABSOLUTE
    S:\sf\mw\qtmobility\src\messaging\qmessagecontentcontainerid_symbian.cpp 0x00000000   Number         0  qmessagecontentcontainerid_symbian.o ABSOLUTE
    S:\sf\mw\qtmobility\src\messaging\qmessagefilter.cpp 0x00000000   Number         0  qmessagefilter.o ABSOLUTE
    S:\sf\mw\qtmobility\src\messaging\qmessagefilter_symbian.cpp 0x00000000   Number         0  qmessagefilter_symbian.o ABSOLUTE
    S:\sf\mw\qtmobility\src\messaging\qmessagefolder.cpp 0x00000000   Number         0  qmessagefolder.o ABSOLUTE
    S:\sf\mw\qtmobility\src\messaging\qmessagefolder_symbian.cpp 0x00000000   Number         0  qmessagefolder_symbian.o ABSOLUTE
    S:\sf\mw\qtmobility\src\messaging\qmessagefolderfilter.cpp 0x00000000   Number         0  qmessagefolderfilter.o ABSOLUTE
    S:\sf\mw\qtmobility\src\messaging\qmessagefolderfilter_symbian.cpp 0x00000000   Number         0  qmessagefolderfilter_symbian.o ABSOLUTE
    S:\sf\mw\qtmobility\src\messaging\qmessagefolderid.cpp 0x00000000   Number         0  qmessagefolderid.o ABSOLUTE
    S:\sf\mw\qtmobility\src\messaging\qmessagefolderid_symbian.cpp 0x00000000   Number         0  qmessagefolderid_symbian.o ABSOLUTE
    S:\sf\mw\qtmobility\src\messaging\qmessagefoldersortorder.cpp 0x00000000   Number         0  qmessagefoldersortorder.o ABSOLUTE
    S:\sf\mw\qtmobility\src\messaging\qmessagefoldersortorder_symbian.cpp 0x00000000   Number         0  qmessagefoldersortorder_symbian.o ABSOLUTE
    S:\sf\mw\qtmobility\src\messaging\qmessageid.cpp 0x00000000   Number         0  qmessageid.o ABSOLUTE
    S:\sf\mw\qtmobility\src\messaging\qmessageid_symbian.cpp 0x00000000   Number         0  qmessageid_symbian.o ABSOLUTE
    S:\sf\mw\qtmobility\src\messaging\qmessagemanager.cpp 0x00000000   Number         0  qmessagemanager.o ABSOLUTE
    S:\sf\mw\qtmobility\src\messaging\qmessageservice.cpp 0x00000000   Number         0  qmessageservice.o ABSOLUTE
    S:\sf\mw\qtmobility\src\messaging\qmessageservice_symbian.cpp 0x00000000   Number         0  qmessageservice_symbian.o ABSOLUTE
    S:\sf\mw\qtmobility\src\messaging\qmessagesortorder.cpp 0x00000000   Number         0  qmessagesortorder.o ABSOLUTE
    S:\sf\mw\qtmobility\src\messaging\qmessagesortorder_symbian.cpp 0x00000000   Number         0  qmessagesortorder_symbian.o ABSOLUTE
    S:\sf\mw\qtmobility\src\messaging\qmessagestore.cpp 0x00000000   Number         0  qmessagestore.o ABSOLUTE
    S:\sf\mw\qtmobility\src\messaging\qmessagestore_symbian.cpp 0x00000000   Number         0  qmessagestore_symbian.o ABSOLUTE
    S:\sf\mw\qtmobility\src\messaging\qmtmengine_symbian.cpp 0x00000000   Number         0  qmtmengine_symbian.o ABSOLUTE
    .emb_text                                0x00008000   Section       40  uc_dll_.o(.emb_text)
    Symbian$$eit_base                        0x00008014   Data           4  uc_dll_.o(.emb_text)
    Symbian$$eit_limit                       0x00008018   Data           4  uc_dll_.o(.emb_text)
    Symbian$$code_seg_base                   0x0000801c   Data           4  uc_dll_.o(.emb_text)
    Symbian$$code_seg_limit                  0x00008020   Data           4  uc_dll_.o(.emb_text)
    Symbian$$reserved                        0x00008024   Data           4  uc_dll_.o(.emb_text)
    .emb_text                                0x00008028   Section       52  ucppinit.o(.emb_text)
    loop                                     0x0000803c   ARM Code       0  ucppinit.o(.emb_text)
    ret                                      0x00008044   ARM Code       0  ucppinit.o(.emb_text)
    base                                     0x00008054   Data           0  ucppinit.o(.emb_text)
    limit                                    0x00008058   Data           0  ucppinit.o(.emb_text)
    .text                                    0x00008c84   Section       40  qmessageid.o(.text)
    __sti___14_qmessageid_cpp                0x00008c99   Thumb Code    16  qmessageid.o(.text)
    .text                                    0x00008cac   Section       20  qmessagecontentcontainerid.o(.text)
    .text                                    0x00008cc0   Section       20  qmessagefolderid.o(.text)
    .text                                    0x00008cd4   Section       20  qmessageaccountid.o(.text)
    QtMobility::findDelimiters(const QString&) 0x00008ce9   Thumb Code   256  addresshelper.o(.text)
    .text                                    0x00008ce8   Section      672  addresshelper.o(.text)
    .text                                    0x00008f88   Section      520  qmessageaddress.o(.text)
    .text                                    0x00009190   Section      852  qmessage.o(.text)
    __sti___12_qmessage_cpp                  0x00009495   Thumb Code    28  qmessage.o(.text)
    .text                                    0x000094e4   Section       20  qmessageaccountfilter.o(.text)
    .text                                    0x000094f8   Section       20  qmessageaccountsortorder.o(.text)
    .text                                    0x0000950c   Section       20  qmessagefolderfilter.o(.text)
    .text                                    0x00009520   Section       20  qmessagefoldersortorder.o(.text)
    .text                                    0x00009534   Section       20  qmessagefilter.o(.text)
    .text                                    0x00009548   Section     1564  qmessagemanager.o(.text)
    __sti___19_qmessagemanager_cpp           0x00009b3f   Thumb Code    32  qmessagemanager.o(.text)
    .text                                    0x00009b64   Section       20  qmessagesortorder.o(.text)
    .text                                    0x00009b78   Section      284  qmessagestore.o(.text)
    .text                                    0x00009c94   Section      332  qmessageservice.o(.text)
    .text                                    0x00009de0   Section     2344  messagingutil.o(.text)
    .text                                    0x0000a708   Section    60984  qmtmengine_symbian.o(.text)
    |L1.1052|                                0x0000ab24   Data           0  qmtmengine_symbian.o(.text)
    |L1.1060|                                0x0000ab2c   Data           0  qmtmengine_symbian.o(.text)
    QtMobility::mtmEngine()                  0x0000afd1   Thumb Code   172  qmtmengine_symbian.o(.text)
    |L1.12792|                               0x0000d900   Data           0  qmtmengine_symbian.o(.text)
    |L1.12804|                               0x0000d90c   Data           0  qmtmengine_symbian.o(.text)
    |L1.16452|                               0x0000e74c   Data           0  qmtmengine_symbian.o(.text)
    .text                                    0x00019540   Section      396  qmessageid_symbian.o(.text)
    .text                                    0x000196cc   Section      276  qmessagecontentcontainerid_symbian.o(.text)
    .text                                    0x000197e0   Section      468  qmessagefolderid_symbian.o(.text)
    .text                                    0x000199b4   Section      470  qmessageaccountid_symbian.o(.text)
    .text                                    0x00019b8c   Section     4188  qmessagecontentcontainer_symbian.o(.text)
    .text                                    0x0001abe8   Section     4748  qmessage_symbian.o(.text)
    |L1.3924|                                0x0001bb3c   Data           0  qmessage_symbian.o(.text)
    .text                                    0x0001be74   Section      572  qmessagefolder_symbian.o(.text)
    .text                                    0x0001c0b0   Section      552  qmessageaccount_symbian.o(.text)
    .text                                    0x0001c2d8   Section     4052  qmessageaccountfilter_symbian.o(.text)
    .text                                    0x0001d2ac   Section      408  qmessageaccountsortorder_symbian.o(.text)
    .text                                    0x0001d444   Section     5458  qmessagefolderfilter_symbian.o(.text)
    .text                                    0x0001e998   Section      756  qmessagefoldersortorder_symbian.o(.text)
    .text                                    0x0001ec8c   Section     8906  qmessagefilter_symbian.o(.text)
    .text                                    0x00020f58   Section     2828  qmessagesortorder_symbian.o(.text)
    .text                                    0x00021a64   Section     2912  qmessagestore_symbian.o(.text)
    QtMobility::messageStorePrivate()        0x00021aa3   Thumb Code   162  qmessagestore_symbian.o(.text)
    |L1.1052|                                0x00021e80   Data           0  qmessagestore_symbian.o(.text)
    |L1.1092|                                0x00021ea8   Data           0  qmessagestore_symbian.o(.text)
    |L1.1132|                                0x00021ed0   Data           0  qmessagestore_symbian.o(.text)
    |L1.1140|                                0x00021ed8   Data           0  qmessagestore_symbian.o(.text)
    |L1.1180|                                0x00021f00   Data           0  qmessagestore_symbian.o(.text)
    .text                                    0x000225c4   Section     3664  qmessageservice_symbian.o(.text)
    .text                                    0x00023414   Section     7064  maemohelpers.o(.text)
    QtMobility::messagingHelper()            0x00023433   Thumb Code   166  maemohelpers.o(.text)
    QtMobility::messageCache()               0x0002393d   Thumb Code   166  maemohelpers.o(.text)
    .text                                    0x00024fac   Section    38780  qfsengine_symbian.o(.text)
    QtMobility::fsEngineThreadStorage()      0x00025483   Thumb Code   176  qfsengine_symbian.o(.text)
    QtMobility::applicationThreadFsEngine()  0x00025609   Thumb Code   172  qfsengine_symbian.o(.text)
    |L1.12480|                               0x0002806c   Data           0  qfsengine_symbian.o(.text)
    |L1.12488|                               0x00028074   Data           0  qfsengine_symbian.o(.text)
    |L1.12496|                               0x0002807c   Data           0  qfsengine_symbian.o(.text)
    |L1.16888|                               0x000291a4   Data           0  qfsengine_symbian.o(.text)
    |L1.16912|                               0x000291bc   Data           0  qfsengine_symbian.o(.text)
    .text                                    0x0002e728   Section       24  switch8.o(.text)
    .text                                    0x0002e740   Section       80  uc_dll.o(.text)
    .text                                    0x0002e790   Section      180  ucppfini.o(.text)
    .text                                    0x0002e844   Section        4  dllexp.o(.text)
    .text.clean                              0x0002e848   Section       80  addresshelper.o(.text.clean)
    .text.clean                              0x0002e898   Section       70  qmessageaddress.o(.text.clean)
    .text.clean                              0x0002e8de   Section       72  qmessage.o(.text.clean)
    .text.clean                              0x0002e926   Section       78  qmessagemanager.o(.text.clean)
    .text.clean                              0x0002e974   Section      588  messagingutil.o(.text.clean)
    .text.clean                              0x0002ebc0   Section     6486  qmtmengine_symbian.o(.text.clean)
    .text.clean                              0x00030516   Section       52  qmessageid_symbian.o(.text.clean)
    .text.clean                              0x0003054a   Section       50  qmessagecontentcontainerid_symbian.o(.text.clean)
    .text.clean                              0x0003057c   Section       54  qmessagefolderid_symbian.o(.text.clean)
    .text.clean                              0x000305b2   Section       56  qmessageaccountid_symbian.o(.text.clean)
    .text.clean                              0x000305ea   Section      452  qmessagecontentcontainer_symbian.o(.text.clean)
    .text.clean                              0x000307ae   Section      932  qmessage_symbian.o(.text.clean)
    .text.clean                              0x00030b52   Section      112  qmessagefolder_symbian.o(.text.clean)
    .text.clean                              0x00030bc2   Section       86  qmessageaccount_symbian.o(.text.clean)
    .text.clean                              0x00030c18   Section      426  qmessageaccountfilter_symbian.o(.text.clean)
    .text.clean                              0x00030dc2   Section       78  qmessageaccountsortorder_symbian.o(.text.clean)
    .text.clean                              0x00030e10   Section      690  qmessagefolderfilter_symbian.o(.text.clean)
    .text.clean                              0x000310c2   Section      132  qmessagefoldersortorder_symbian.o(.text.clean)
    .text.clean                              0x00031146   Section     1168  qmessagefilter_symbian.o(.text.clean)
    .text.clean                              0x000315d6   Section      426  qmessagesortorder_symbian.o(.text.clean)
    .text.clean                              0x00031780   Section      228  qmessagestore_symbian.o(.text.clean)
    .text.clean                              0x00031864   Section      222  qmessageservice_symbian.o(.text.clean)
    .text.clean                              0x00031944   Section      720  maemohelpers.o(.text.clean)
    .text.clean                              0x00031c14   Section     4218  qfsengine_symbian.o(.text.clean)
    i._Z5Panic10TSmcmPanic                   0x00032c90   Section       28  qmtmengine_symbian.o(i._Z5Panic10TSmcmPanic)
    i._Z8qWarningv                           0x00032cac   Section      108  messagingutil.o(i._Z8qWarningv)
    i._Z8qWarningv.clean                     0x00032d18   Section       24  messagingutil.o(i._Z8qWarningv.clean)
    i._ZN10QByteArrayC1ERKS_                 0x00032d30   Section       20  qmessage.o(i._ZN10QByteArrayC1ERKS_)
    i._ZN10QByteArrayC1Ev                    0x00032d44   Section       24  qmtmengine_symbian.o(i._ZN10QByteArrayC1Ev)
    i._ZN10QByteArrayD1Ev                    0x00032d5c   Section       24  qmessage.o(i._ZN10QByteArrayD1Ev)
    i._ZN10QtMobility12MessageEventC1ERKS0_  0x00032d74   Section       80  qmtmengine_symbian.o(i._ZN10QtMobility12MessageEventC1ERKS0_)
    i._ZN10QtMobility12MessageEventC1Ev      0x00032dc4   Section       20  qmtmengine_symbian.o(i._ZN10QtMobility12MessageEventC1Ev)
    i._ZN10QtMobility12MessageEventD1Ev      0x00032dd8   Section       20  qmtmengine_symbian.o(i._ZN10QtMobility12MessageEventD1Ev)
    i._ZN10QtMobility15QMessagePrivateaSERKS0_ 0x00032dec   Section      200  qmessage_symbian.o(i._ZN10QtMobility15QMessagePrivateaSERKS0_)
    i._ZN10QtMobility16MessageQueryInfoC1ERKS0_ 0x00032eb4   Section      126  qmtmengine_symbian.o(i._ZN10QtMobility16MessageQueryInfoC1ERKS0_)
    i._ZN10QtMobility16MessageQueryInfoC1ERKS0_.clean 0x00032f32   Section       36  qmtmengine_symbian.o(i._ZN10QtMobility16MessageQueryInfoC1ERKS0_.clean)
    i._ZN10QtMobility16MessageQueryInfoC1Ev  0x00032f56   Section       68  qmtmengine_symbian.o(i._ZN10QtMobility16MessageQueryInfoC1Ev)
    i._ZN10QtMobility16MessageQueryInfoC1Ev.clean 0x00032f9a   Section       36  qmtmengine_symbian.o(i._ZN10QtMobility16MessageQueryInfoC1Ev.clean)
    i._ZN10QtMobility16MessageQueryInfoD1Ev  0x00032fbe   Section       56  qmtmengine_symbian.o(i._ZN10QtMobility16MessageQueryInfoD1Ev)
    i._ZN10QtMobility16MessageQueryInfoD1Ev.clean 0x00032ff6   Section       36  qmtmengine_symbian.o(i._ZN10QtMobility16MessageQueryInfoD1Ev.clean)
    i._ZN10QtMobility17FSSearchOperationC1ERKS0_ 0x0003301a   Section       14  qfsengine_symbian.o(i._ZN10QtMobility17FSSearchOperationC1ERKS0_)
    i._ZN10QtMobility17QMessageIdPrivateC1Ev 0x00033028   Section       14  qmessageid_symbian.o(i._ZN10QtMobility17QMessageIdPrivateC1Ev)
    i._ZN10QtMobility18FSMessageQueryInfoC1ERKS0_ 0x00033036   Section      126  qfsengine_symbian.o(i._ZN10QtMobility18FSMessageQueryInfoC1ERKS0_)
    i._ZN10QtMobility18FSMessageQueryInfoC1ERKS0_.clean 0x000330b4   Section       36  qfsengine_symbian.o(i._ZN10QtMobility18FSMessageQueryInfoC1ERKS0_.clean)
    i._ZN10QtMobility18FSMessageQueryInfoC1Ev 0x000330d8   Section       68  qfsengine_symbian.o(i._ZN10QtMobility18FSMessageQueryInfoC1Ev)
    i._ZN10QtMobility18FSMessageQueryInfoC1Ev.clean 0x0003311c   Section       36  qfsengine_symbian.o(i._ZN10QtMobility18FSMessageQueryInfoC1Ev.clean)
    i._ZN10QtMobility18FSMessageQueryInfoD1Ev 0x00033140   Section       56  qfsengine_symbian.o(i._ZN10QtMobility18FSMessageQueryInfoD1Ev)
    i._ZN10QtMobility18FSMessageQueryInfoD1Ev.clean 0x00033178   Section       36  qfsengine_symbian.o(i._ZN10QtMobility18FSMessageQueryInfoD1Ev.clean)
    i._ZN10QtMobility21QMessageFolderPrivateC1EPNS_14QMessageFolderE 0x0003319c   Section       68  qmessagefolder_symbian.o(i._ZN10QtMobility21QMessageFolderPrivateC1EPNS_14QMessageFolderE)
    i._ZN10QtMobility21QMessageFolderPrivateC1EPNS_14QMessageFolderE.clean 0x000331e0   Section       46  qmessagefolder_symbian.o(i._ZN10QtMobility21QMessageFolderPrivateC1EPNS_14QMessageFolderE.clean)
    i._ZN10QtMobility22QMessageAccountPrivateC1EPNS_15QMessageAccountE 0x00033210   Section       56  qmessageaccount_symbian.o(i._ZN10QtMobility22QMessageAccountPrivateC1EPNS_15QMessageAccountE)
    i._ZN10QtMobility22QMessageAccountPrivateC1EPNS_15QMessageAccountE.clean 0x00033248   Section       10  qmessageaccount_symbian.o(i._ZN10QtMobility22QMessageAccountPrivateC1EPNS_15QMessageAccountE.clean)
    i._ZN10QtMobility22QMessageAddressPrivateC1EPNS_15QMessageAddressE 0x00033252   Section       28  qmessageaddress.o(i._ZN10QtMobility22QMessageAddressPrivateC1EPNS_15QMessageAddressE)
    i._ZN10QtMobility23QMessageFolderIdPrivateC1EPNS_16QMessageFolderIdE 0x0003326e   Section       20  qmessagefolderid_symbian.o(i._ZN10QtMobility23QMessageFolderIdPrivateC1EPNS_16QMessageFolderIdE)
    i._ZN10QtMobility23QMessageFolderIdPrivateD1Ev 0x00033282   Section       16  qmessagefolderid_symbian.o(i._ZN10QtMobility23QMessageFolderIdPrivateD1Ev)
    i._ZN10QtMobility24QMessageAccountIdPrivateC1EPNS_17QMessageAccountIdE 0x00033292   Section       20  qmessageaccountid_symbian.o(i._ZN10QtMobility24QMessageAccountIdPrivateC1EPNS_17QMessageAccountIdE)
    i._ZN10QtMobility24QMessageAccountIdPrivateD1Ev 0x000332a6   Section       16  qmessageaccountid_symbian.o(i._ZN10QtMobility24QMessageAccountIdPrivateD1Ev)
    i._ZN10QtMobility30QMessageFolderSortOrderPrivateC1EPNS_23QMessageFolderSortOrderE 0x000332b8   Section       32  qmessagefoldersortorder_symbian.o(i._ZN10QtMobility30QMessageFolderSortOrderPrivateC1EPNS_23QMessageFolderSortOrderE)
    i._ZN10QtMobility31QMessageContentContainerPrivateC1EPNS_24QMessageContentContainerE 0x000332d8   Section      182  qmessagecontentcontainer_symbian.o(i._ZN10QtMobility31QMessageContentContainerPrivateC1EPNS_24QMessageContentContainerE)
    i._ZN10QtMobility31QMessageContentContainerPrivateC1EPNS_24QMessageContentContainerE.clean 0x0003338e   Section      120  qmessagecontentcontainer_symbian.o(i._ZN10QtMobility31QMessageContentContainerPrivateC1EPNS_24QMessageContentContainerE.clean)
    i._ZN10QtMobility31QMessageContentContainerPrivateD1Ev 0x00033406   Section      142  qmessagecontentcontainer_symbian.o(i._ZN10QtMobility31QMessageContentContainerPrivateD1Ev)
    i._ZN10QtMobility31QMessageContentContainerPrivateD1Ev.clean 0x00033494   Section      120  qmessagecontentcontainer_symbian.o(i._ZN10QtMobility31QMessageContentContainerPrivateD1Ev.clean)
    i._ZN10QtMobility33QMessageContentContainerIdPrivateC1Ev 0x0003350c   Section       14  qmessagecontentcontainerid_symbian.o(i._ZN10QtMobility33QMessageContentContainerIdPrivateC1Ev)
    i._ZN11QMetaObject12invokeMethodEP7QObjectPKcN2Qt14ConnectionTypeE16QGenericArgumentS6_S6_S6_S6_S6_S6_S6_S6_S6_ 0x0003351a   Section      130  qfsengine_symbian.o(i._ZN11QMetaObject12invokeMethodEP7QObjectPKcN2Qt14ConnectionTypeE16QGenericArgumentS6_S6_S6_S6_S6_S6_S6_S6_S6_)
    i._ZN11QStringListD1Ev                   0x0003359c   Section       14  qmtmengine_symbian.o(i._ZN11QStringListD1Ev)
    i._ZN12CleanupStack13PopAndDestroyEPv    0x000335aa   Section       16  qmtmengine_symbian.o(i._ZN12CleanupStack13PopAndDestroyEPv)
    i._ZN12CleanupStack3PopEPv               0x000335ba   Section       16  qmtmengine_symbian.o(i._ZN12CleanupStack3PopEPv)
    i._ZN13CMmsClientMtm19SwitchCurrentEntryLEl 0x000335ca   Section       16  qmtmengine_symbian.o(i._ZN13CMmsClientMtm19SwitchCurrentEntryLEl)
    i._ZN13CSmsClientMtm15ServiceSettingsEv  0x000335da   Section       32  qmtmengine_symbian.o(i._ZN13CSmsClientMtm15ServiceSettingsEv)
    i._ZN13CSmsClientMtm9SmsHeaderEv         0x000335fc   Section       52  qmtmengine_symbian.o(i._ZN13CSmsClientMtm9SmsHeaderEv)
    i._ZN14EmailInterface17TMessageContentIdC1Ev 0x00033630   Section       48  qmtmengine_symbian.o(i._ZN14EmailInterface17TMessageContentIdC1Ev)
    i._ZN14EmailInterface22CEmailInterfaceFactory4NewLEv 0x00033660   Section      116  qfsengine_symbian.o(i._ZN14EmailInterface22CEmailInterfaceFactory4NewLEv)
    i._ZN14EmailInterface22ResetAndDestroyCleanupEPv 0x000336d4   Section       14  qfsengine_symbian.o(i._ZN14EmailInterface22ResetAndDestroyCleanupEPv)
    i._ZN15CMsvEntryFilter8SetOrderERK21TMsvSelectionOrdering 0x000336e2   Section       40  qmtmengine_symbian.o(i._ZN15CMsvEntryFilter8SetOrderERK21TMsvSelectionOrdering)
    i._ZN15QBasicAtomicInt3refEv             0x0003370a   Section       24  qmessageaddress.o(i._ZN15QBasicAtomicInt3refEv)
    i._ZN15QBasicAtomicInt5derefEv           0x00033722   Section       24  qmessage.o(i._ZN15QBasicAtomicInt5derefEv)
    i._ZN17QForeachContainerI11QStringListED1Ev 0x0003373a   Section       14  qmessage_symbian.o(i._ZN17QForeachContainerI11QStringListED1Ev)
    i._ZN17QForeachContainerI4QMapIPN10QtMobility22QMessageServicePrivateEPNS1_24CFSContentFetchOperationEEED1Ev 0x00033748   Section       14  qfsengine_symbian.o(i._ZN17QForeachContainerI4QMapIPN10QtMobility22QMessageServicePrivateEPNS1_24CFSContentFetchOperationEEED1Ev)
    i._ZN17QForeachContainerI4QMapIjPN14EmailInterface13MEmailMailboxEEED1Ev 0x00033756   Section       14  qfsengine_symbian.o(i._ZN17QForeachContainerI4QMapIjPN14EmailInterface13MEmailMailboxEEED1Ev)
    i._ZN17QForeachContainerI5QHashI7QStringN10QtMobility15QMessageAccountEEED1Ev 0x00033764   Section       14  qmtmengine_symbian.o(i._ZN17QForeachContainerI5QHashI7QStringN10QtMobility15QMessageAccountEEED1Ev)
    i._ZN17QForeachContainerI5QListI10QByteArrayEED1Ev 0x00033772   Section       14  qmessage.o(i._ZN17QForeachContainerI5QListI10QByteArrayEED1Ev)
    i._ZN17QForeachContainerI5QListIN10QtMobility10QMessageIdEEED1Ev 0x00033780   Section       14  qfsengine_symbian.o(i._ZN17QForeachContainerI5QListIN10QtMobility10QMessageIdEEED1Ev)
    i._ZN17QForeachContainerI5QListIN10QtMobility15QMessageAddressEEED1Ev 0x0003378e   Section       14  qmessage_symbian.o(i._ZN17QForeachContainerI5QListIN10QtMobility15QMessageAddressEEED1Ev)
    i._ZN17QForeachContainerI5QListIN10QtMobility17FSSearchOperationEEED1Ev 0x0003379c   Section       14  qfsengine_symbian.o(i._ZN17QForeachContainerI5QListIN10QtMobility17FSSearchOperationEEED1Ev)
    i._ZN17QForeachContainerI5QListIN10QtMobility17QMessageSortOrderEEED1Ev 0x000337aa   Section       14  qmessagemanager.o(i._ZN17QForeachContainerI5QListIN10QtMobility17QMessageSortOrderEEED1Ev)
    i._ZN17QForeachContainerI5QListIN10QtMobility23QMessageFolderSortOrderEEED1Ev 0x000337b8   Section       14  qmessagemanager.o(i._ZN17QForeachContainerI5QListIN10QtMobility23QMessageFolderSortOrderEEED1Ev)
    i._ZN17QForeachContainerI5QListIN10QtMobility24QMessageContentContainerEEED1Ev 0x000337c6   Section       14  qmessagecontentcontainer_symbian.o(i._ZN17QForeachContainerI5QListIN10QtMobility24QMessageContentContainerEEED1Ev)
    i._ZN17QForeachContainerI5QListIN10QtMobility26QMessageContentContainerIdEEED1Ev 0x000337d4   Section       14  qmtmengine_symbian.o(i._ZN17QForeachContainerI5QListIN10QtMobility26QMessageContentContainerIdEEED1Ev)
    i._ZN21TMsvSelectionOrdering23SetShowInvisibleEntriesEi 0x000337e2   Section       22  qmtmengine_symbian.o(i._ZN21TMsvSelectionOrdering23SetShowInvisibleEntriesEi)
    i._ZN4QSetIiED1Ev                        0x000337f8   Section       14  qmtmengine_symbian.o(i._ZN4QSetIiED1Ev)
    i._ZN5CBasenwEj                          0x00033806   Section       16  qmtmengine_symbian.o(i._ZN5CBasenwEj)
    i._ZN5QPairIN10QtMobility24QMessageSortOrderPrivate5FieldEN2Qt9SortOrderEEC1ERKS5_ 0x00033816   Section       10  qmessagesortorder_symbian.o(i._ZN5QPairIN10QtMobility24QMessageSortOrderPrivate5FieldEN2Qt9SortOrderEEC1ERKS5_)
    i._ZN5QPairIN10QtMobility30QMessageFolderSortOrderPrivate5FieldEN2Qt9SortOrderEEC1ERKS5_ 0x00033820   Section       10  qmessagefoldersortorder_symbian.o(i._ZN5QPairIN10QtMobility30QMessageFolderSortOrderPrivate5FieldEN2Qt9SortOrderEEC1ERKS5_)
    i._ZN5RFileC1Ev                          0x0003382a   Section       26  qmtmengine_symbian.o(i._ZN5RFileC1Ev)
    i._ZN5TPtr8C1ERKS_                       0x00033844   Section       14  qmtmengine_symbian.o(i._ZN5TPtr8C1ERKS_)
    i._ZN6QDebug10maybeSpaceEv               0x00033852   Section       24  qmessage.o(i._ZN6QDebug10maybeSpaceEv)
    i._ZN6QDebugD1Ev                         0x0003386a   Section      144  qmessage.o(i._ZN6QDebugD1Ev)
    i._ZN6QDebugD1Ev.clean                   0x000338fa   Section       20  qmessage.o(i._ZN6QDebugD1Ev.clean)
    i._ZN6QDebuglsEPKc                       0x0003390e   Section       58  messagingutil.o(i._ZN6QDebuglsEPKc)
    i._ZN6QDebuglsEPKc.clean                 0x00033948   Section       10  messagingutil.o(i._ZN6QDebuglsEPKc.clean)
    i._ZN6TPtr16C1ERKS_                      0x00033952   Section       14  qmtmengine_symbian.o(i._ZN6TPtr16C1ERKS_)
    i._ZN7QString6insertEiRKS_               0x00033960   Section       34  qmessage_symbian.o(i._ZN7QString6insertEiRKS_)
    i._ZN7QStringC1EPKc                      0x00033982   Section       22  messagingutil.o(i._ZN7QStringC1EPKc)
    i._ZN7QStringC1ERK10QByteArray           0x00033998   Section       70  qmtmengine_symbian.o(i._ZN7QStringC1ERK10QByteArray)
    i._ZN7QStringC1ERKS_                     0x000339de   Section       22  qmessageaddress.o(i._ZN7QStringC1ERKS_)
    i._ZN7QStringC1Ev                        0x000339f4   Section       24  qmessageaddress.o(i._ZN7QStringC1Ev)
    i._ZN7QStringD1Ev                        0x00033a0c   Section       24  qmessage.o(i._ZN7QStringD1Ev)
    i._ZN7QStringaSEPKc                      0x00033a24   Section       40  maemohelpers.o(i._ZN7QStringaSEPKc)
    i._ZN7QStringaSEPKc.clean                0x00033a4c   Section       10  maemohelpers.o(i._ZN7QStringaSEPKc.clean)
    i._ZN7TPtrC163SetERKS_                   0x00033a56   Section       30  qmtmengine_symbian.o(i._ZN7TPtrC163SetERKS_)
    i._ZN8QVariantC1Ev                       0x00033a74   Section       38  qmessageaccountfilter_symbian.o(i._ZN8QVariantC1Ev)
    i._ZN9QHashData8willGrowEv               0x00033a9a   Section       32  qmtmengine_symbian.o(i._ZN9QHashData8willGrowEv)
    i._ZN9TMsvEntry10SetVisibleEi            0x00033aba   Section       22  qmtmengine_symbian.o(i._ZN9TMsvEntry10SetVisibleEi)
    i._ZN9TMsvEntry16SetInPreparationEi      0x00033ad0   Section       22  qmtmengine_symbian.o(i._ZN9TMsvEntry16SetInPreparationEi)
    i._ZN9TMsvEntry6SetNewEi                 0x00033ae6   Section       20  qmtmengine_symbian.o(i._ZN9TMsvEntry6SetNewEi)
    i._ZN9TMsvEntry9SetUnreadEi              0x00033afa   Section       20  qmtmengine_symbian.o(i._ZN9TMsvEntry9SetUnreadEi)
    i._ZNK10CSmsHeader11FromAddressEv        0x00033b0e   Section      126  qmtmengine_symbian.o(i._ZNK10CSmsHeader11FromAddressEv)
    i._ZNK10QByteArray7isEmptyEv             0x00033b8c   Section       18  qmtmengine_symbian.o(i._ZNK10QByteArray7isEmptyEv)
    i._ZNK13CMmsClientMtm5EntryEv            0x00033b9e   Section       12  qmtmengine_symbian.o(i._ZNK13CMmsClientMtm5EntryEv)
    i._ZNK14EmailInterface17TMessageContentIdeqERKS0_ 0x00033baa   Section       68  qfsengine_symbian.o(i._ZNK14EmailInterface17TMessageContentIdeqERKS0_)
    i._ZNK15QBasicAtomicInteqEi              0x00033bee   Section       16  qmtmengine_symbian.o(i._ZNK15QBasicAtomicInteqEi)
    i._ZNK15QBasicAtomicIntneEi              0x00033bfe   Section       16  qmessage.o(i._ZNK15QBasicAtomicIntneEi)
    i._ZNK5QBoolcvPKvEv                      0x00033c0e   Section       16  qmessageaccountfilter_symbian.o(i._ZNK5QBoolcvPKvEv)
    i._ZNK6TDesC8eqERKS_                     0x00033c1e   Section       26  qmtmengine_symbian.o(i._ZNK6TDesC8eqERKS_)
    i._ZNK7CActive8IsActiveEv                0x00033c38   Section       10  qmtmengine_symbian.o(i._ZNK7CActive8IsActiveEv)
    i._ZNK7QString7isEmptyEv                 0x00033c42   Section       18  qmtmengine_symbian.o(i._ZNK7QString7isEmptyEv)
    i._ZNK7QString8containsERKS_N2Qt15CaseSensitivityE 0x00033c54   Section       38  qmessageaccountfilter_symbian.o(i._ZNK7QString8containsERKS_N2Qt15CaseSensitivityE)
    i._ZNK7QStringneERKS_                    0x00033c7a   Section       20  qmessagefilter_symbian.o(i._ZNK7QStringneERKS_)
    i._ZNK9QDateTimegeERKS_                  0x00033c8e   Section       20  qmessagefilter_symbian.o(i._ZNK9QDateTimegeERKS_)
    i._ZNK9QDateTimeleERKS_                  0x00033ca2   Section       20  qmessagefilter_symbian.o(i._ZNK9QDateTimeleERKS_)
    i._ZNK9QDateTimeneERKS_                  0x00033cb6   Section       20  qmessagefilter_symbian.o(i._ZNK9QDateTimeneERKS_)
    i._ZNK9QListData2atEi                    0x00033cca   Section       20  qmtmengine_symbian.o(i._ZNK9QListData2atEi)
    i._ZNK9QListData3endEv                   0x00033cde   Section       16  qmessage.o(i._ZNK9QListData3endEv)
    i._ZNK9QListData4sizeEv                  0x00033cee   Section       14  qmtmengine_symbian.o(i._ZNK9QListData4sizeEv)
    i._ZNK9QListData5beginEv                 0x00033cfc   Section       16  qmessage.o(i._ZNK9QListData5beginEv)
    i._ZNK9QListData7isEmptyEv               0x00033d0c   Section       22  qmessagemanager.o(i._ZNK9QListData7isEmptyEv)
    i._ZNK9TMsvEntry12SendingStateEv         0x00033d22   Section       14  qmtmengine_symbian.o(i._ZNK9TMsvEntry12SendingStateEv)
    i._ZNK9TMsvEntry6UnreadEv                0x00033d30   Section       18  qmtmengine_symbian.o(i._ZNK9TMsvEntry6UnreadEv)
    i._ZdlPvS_                               0x00033d42   Section        2  qmessage.o(i._ZdlPvS_)
    i._Zeq5QCharS_                           0x00033d44   Section       24  addresshelper.o(i._Zeq5QCharS_)
    i._ZeqRK10QByteArrayPKc                  0x00033d5c   Section       38  qmtmengine_symbian.o(i._ZeqRK10QByteArrayPKc)
    i._ZnwjPv                                0x00033d82   Section        6  qmessage.o(i._ZnwjPv)
    i._ZplPKcRK7QString                      0x00033d88   Section       48  messagingutil.o(i._ZplPKcRK7QString)
    i._ZplPKcRK7QString.clean                0x00033db8   Section       10  messagingutil.o(i._ZplPKcRK7QString.clean)
    i._ZplRK7QStringPKc                      0x00033dc2   Section       68  qmessagesortorder_symbian.o(i._ZplRK7QStringPKc)
    i._ZplRK7QStringPKc.clean                0x00033e06   Section       16  qmessagesortorder_symbian.o(i._ZplRK7QStringPKc.clean)
    i._ZplRK7QStringS1_                      0x00033e16   Section       44  messagingutil.o(i._ZplRK7QStringS1_)
    i._ZplRK7QStringS1_.clean                0x00033e42   Section       10  messagingutil.o(i._ZplRK7QStringS1_.clean)
    t._Z15qMapLessThanKeyI10QByteArrayEbRKT_S3_ 0x00033e4c   Section       20  qmessagecontentcontainer_symbian.o(t._Z15qMapLessThanKeyI10QByteArrayEbRKT_S3_)
    t._Z15qMapLessThanKeyIPN10QtMobility22QMessageServicePrivateEEbRKT_S5_ 0x00033e60   Section       18  qfsengine_symbian.o(t._Z15qMapLessThanKeyIPN10QtMobility22QMessageServicePrivateEEbRKT_S5_)
    t._Z15qMapLessThanKeyIiEbRKT_S2_         0x00033e72   Section       18  qmtmengine_symbian.o(t._Z15qMapLessThanKeyIiEbRKT_S2_)
    t._Z15qMapLessThanKeyIjEbRKT_S2_         0x00033e84   Section       18  qfsengine_symbian.o(t._Z15qMapLessThanKeyIjEbRKT_S2_)
    t._Z15qMapLessThanKeyIlEbRKT_S2_         0x00033e96   Section       18  qmtmengine_symbian.o(t._Z15qMapLessThanKeyIlEbRKT_S2_)
    t._Z17CleanupClosePushLI13RPointerArrayIN14EmailInterface12MEmailFolderEEEvRT_ 0x00033ea8   Section       28  qfsengine_symbian.o(t._Z17CleanupClosePushLI13RPointerArrayIN14EmailInterface12MEmailFolderEEEvRT_)
    t._Z17CleanupClosePushLI3RFsEvRT_        0x00033ec4   Section       28  qmtmengine_symbian.o(t._Z17CleanupClosePushLI3RFsEvRT_)
    t._Z17CleanupClosePushLI5RFileEvRT_      0x00033ee0   Section       28  qmtmengine_symbian.o(t._Z17CleanupClosePushLI5RFileEvRT_)
    t._Z17CleanupClosePushLI6RArrayIN14EmailInterface18TEmailSortCriteriaEEEvRT_ 0x00033efc   Section       28  qfsengine_symbian.o(t._Z17CleanupClosePushLI6RArrayIN14EmailInterface18TEmailSortCriteriaEEEvRT_)
    t._Z17qRegisterMetaTypeI4QSetIiEEiPKcPT_ 0x00033f18   Section       64  qmessagemanager.o(t._Z17qRegisterMetaTypeI4QSetIiEEiPKcPT_)
    t._Z17qRegisterMetaTypeIN10QtMobility10QMessageIdEEiPKcPT_ 0x00033f58   Section       64  qmessageid.o(t._Z17qRegisterMetaTypeIN10QtMobility10QMessageIdEEiPKcPT_)
    t._Z19CleanupReleasePushLIN14EmailInterface12MEmailFolderEEvRT_ 0x00033f98   Section       28  qfsengine_symbian.o(t._Z19CleanupReleasePushLIN14EmailInterface12MEmailFolderEEvRT_)
    t._Z19CleanupReleasePushLIN14EmailInterface13MEmailMailboxEEvRT_ 0x00033fb4   Section       28  qfsengine_symbian.o(t._Z19CleanupReleasePushLIN14EmailInterface13MEmailMailboxEEvRT_)
    t._Z19CleanupReleasePushLIN14EmailInterface13MEmailMessageEEvRT_ 0x00033fd0   Section       28  qfsengine_symbian.o(t._Z19CleanupReleasePushLIN14EmailInterface13MEmailMessageEEvRT_)
    t._Z20qForeachContainerNewI5QHashI7QStringN10QtMobility15QMessageAccountEEE17QForeachContainerIT_ERKS6_ 0x00033fec   Section       90  qfsengine_symbian.o(t._Z20qForeachContainerNewI5QHashI7QStringN10QtMobility15QMessageAccountEEE17QForeachContainerIT_ERKS6_)
    t._Z20qForeachContainerNewI5QHashI7QStringN10QtMobility15QMessageAccountEEE17QForeachContainerIT_ERKS6_.clean 0x00034046   Section       10  qfsengine_symbian.o(t._Z20qForeachContainerNewI5QHashI7QStringN10QtMobility15QMessageAccountEEE17QForeachContainerIT_ERKS6_.clean)
    t._Z20qForeachContainerNewI5QListIN10QtMobility15QMessageAddressEEE17QForeachContainerIT_ERKS5_ 0x00034050   Section      102  qmessage_symbian.o(t._Z20qForeachContainerNewI5QListIN10QtMobility15QMessageAddressEEE17QForeachContainerIT_ERKS5_)
    t._Z20qForeachContainerNewI5QListIN10QtMobility15QMessageAddressEEE17QForeachContainerIT_ERKS5_.clean 0x000340b6   Section       10  qmessage_symbian.o(t._Z20qForeachContainerNewI5QListIN10QtMobility15QMessageAddressEEE17QForeachContainerIT_ERKS5_.clean)
    t._Z20qForeachContainerNewI5QListIN10QtMobility17QMessageSortOrderEEE17QForeachContainerIT_ERKS5_ 0x000340c0   Section      126  qmessagemanager.o(t._Z20qForeachContainerNewI5QListIN10QtMobility17QMessageSortOrderEEE17QForeachContainerIT_ERKS5_)
    t._Z20qForeachContainerNewI5QListIN10QtMobility17QMessageSortOrderEEE17QForeachContainerIT_ERKS5_.clean 0x0003413e   Section       10  qmessagemanager.o(t._Z20qForeachContainerNewI5QListIN10QtMobility17QMessageSortOrderEEE17QForeachContainerIT_ERKS5_.clean)
    t._Z20qForeachContainerNewI5QListIN10QtMobility24QMessageContentContainerEEE17QForeachContainerIT_ERKS5_ 0x00034148   Section      126  qmessagecontentcontainer_symbian.o(t._Z20qForeachContainerNewI5QListIN10QtMobility24QMessageContentContainerEEE17QForeachContainerIT_ERKS5_)
    t._Z20qForeachContainerNewI5QListIN10QtMobility24QMessageContentContainerEEE17QForeachContainerIT_ERKS5_.clean 0x000341c6   Section       10  qmessagecontentcontainer_symbian.o(t._Z20qForeachContainerNewI5QListIN10QtMobility24QMessageContentContainerEEE17QForeachContainerIT_ERKS5_.clean)
    t._Z20qForeachContainerNewI5QListIN10QtMobility26QMessageContentContainerIdEEE17QForeachContainerIT_ERKS5_ 0x000341d0   Section      126  qmtmengine_symbian.o(t._Z20qForeachContainerNewI5QListIN10QtMobility26QMessageContentContainerIdEEE17QForeachContainerIT_ERKS5_)
    t._Z20qForeachContainerNewI5QListIN10QtMobility26QMessageContentContainerIdEEE17QForeachContainerIT_ERKS5_.clean 0x0003424e   Section       10  qmtmengine_symbian.o(t._Z20qForeachContainerNewI5QListIN10QtMobility26QMessageContentContainerIdEEE17QForeachContainerIT_ERKS5_.clean)
    t._Z21qMetaTypeDeleteHelperI4QSetIiEEvPT_ 0x00034258   Section       24  qmessagemanager.o(t._Z21qMetaTypeDeleteHelperI4QSetIiEEvPT_)
    t._Z21qMetaTypeDeleteHelperIN10QtMobility10QMessageIdEEvPT_ 0x00034270   Section       22  qmessageid.o(t._Z21qMetaTypeDeleteHelperIN10QtMobility10QMessageIdEEvPT_)
    t._Z24qMetaTypeConstructHelperI4QSetIiEEPvPKT_ 0x00034288   Section      164  qmessagemanager.o(t._Z24qMetaTypeConstructHelperI4QSetIiEEPvPKT_)
    t._Z24qMetaTypeConstructHelperI4QSetIiEEPvPKT_.clean 0x0003432c   Section       28  qmessagemanager.o(t._Z24qMetaTypeConstructHelperI4QSetIiEEPvPKT_.clean)
    t._Z24qMetaTypeConstructHelperIN10QtMobility10QMessageIdEEPvPKT_ 0x00034348   Section       80  qmessageid.o(t._Z24qMetaTypeConstructHelperIN10QtMobility10QMessageIdEEPvPKT_)
    t._Z24qMetaTypeConstructHelperIN10QtMobility10QMessageIdEEPvPKT_.clean 0x00034398   Section       28  qmessageid.o(t._Z24qMetaTypeConstructHelperIN10QtMobility10QMessageIdEEPvPKT_.clean)
    t._Z5qSortIN5QListIN10QtMobility14QMessageFilterEE8iteratorEPFbS2_S2_EEvT_S7_T0_ 0x000343b4   Section       78  qmtmengine_symbian.o(t._Z5qSortIN5QListIN10QtMobility14QMessageFilterEE8iteratorEPFbS2_S2_EEvT_S7_T0_)
    t._Z5qSortIN5QListIN10QtMobility20QMessageFolderFilterEE8iteratorEPFbS2_S2_EEvT_S7_T0_ 0x00034402   Section       78  qmtmengine_symbian.o(t._Z5qSortIN5QListIN10QtMobility20QMessageFolderFilterEE8iteratorEPFbS2_S2_EEvT_S7_T0_)
    t._Z5qSortIN5QListIN10QtMobility21QMessageAccountFilterEE8iteratorEPFbS2_S2_EEvT_S7_T0_ 0x00034450   Section       78  qmessageaccountfilter_symbian.o(t._Z5qSortIN5QListIN10QtMobility21QMessageAccountFilterEE8iteratorEPFbS2_S2_EEvT_S7_T0_)
    t._Z5qSwapIN10QtMobility10QMessageIdEEvRT_S3_ 0x0003449e   Section       38  maemohelpers.o(t._Z5qSwapIN10QtMobility10QMessageIdEEvRT_S3_)
    t._Z5qSwapIN10QtMobility10QMessageIdEEvRT_S3_.clean 0x000344c4   Section       10  maemohelpers.o(t._Z5qSwapIN10QtMobility10QMessageIdEEvRT_S3_.clean)
    t._Z5qSwapIN10QtMobility14QMessageFilterEEvRT_S3_ 0x000344ce   Section       38  qmtmengine_symbian.o(t._Z5qSwapIN10QtMobility14QMessageFilterEEvRT_S3_)
    t._Z5qSwapIN10QtMobility14QMessageFilterEEvRT_S3_.clean 0x000344f4   Section       10  qmtmengine_symbian.o(t._Z5qSwapIN10QtMobility14QMessageFilterEEvRT_S3_.clean)
    t._Z5qSwapIN10QtMobility16QMessageFolderIdEEvRT_S3_ 0x000344fe   Section       38  qmtmengine_symbian.o(t._Z5qSwapIN10QtMobility16QMessageFolderIdEEvRT_S3_)
    t._Z5qSwapIN10QtMobility16QMessageFolderIdEEvRT_S3_.clean 0x00034524   Section       10  qmtmengine_symbian.o(t._Z5qSwapIN10QtMobility16QMessageFolderIdEEvRT_S3_.clean)
    t._Z5qSwapIN10QtMobility17QMessageAccountIdEEvRT_S3_ 0x0003452e   Section       38  qmtmengine_symbian.o(t._Z5qSwapIN10QtMobility17QMessageAccountIdEEvRT_S3_)
    t._Z5qSwapIN10QtMobility17QMessageAccountIdEEvRT_S3_.clean 0x00034554   Section       10  qmtmengine_symbian.o(t._Z5qSwapIN10QtMobility17QMessageAccountIdEEvRT_S3_.clean)
    t._Z5qSwapIN10QtMobility20QMessageFolderFilterEEvRT_S3_ 0x0003455e   Section       38  qmtmengine_symbian.o(t._Z5qSwapIN10QtMobility20QMessageFolderFilterEEvRT_S3_)
    t._Z5qSwapIN10QtMobility20QMessageFolderFilterEEvRT_S3_.clean 0x00034584   Section       10  qmtmengine_symbian.o(t._Z5qSwapIN10QtMobility20QMessageFolderFilterEEvRT_S3_.clean)
    t._Z5qSwapIN10QtMobility21QMessageAccountFilterEEvRT_S3_ 0x0003458e   Section       38  qmessageaccountfilter_symbian.o(t._Z5qSwapIN10QtMobility21QMessageAccountFilterEEvRT_S3_)
    t._Z5qSwapIN10QtMobility21QMessageAccountFilterEEvRT_S3_.clean 0x000345b4   Section       10  qmessageaccountfilter_symbian.o(t._Z5qSwapIN10QtMobility21QMessageAccountFilterEEvRT_S3_.clean)
    t._Z5qSwapIN10QtMobility8QMessageEEvRT_S3_ 0x000345be   Section       38  qmtmengine_symbian.o(t._Z5qSwapIN10QtMobility8QMessageEEvRT_S3_)
    t._Z5qSwapIN10QtMobility8QMessageEEvRT_S3_.clean 0x000345e4   Section       10  qmtmengine_symbian.o(t._Z5qSwapIN10QtMobility8QMessageEEvRT_S3_.clean)
    t._Z9qMakePairIiiE5QPairIT_T0_ERKS1_RKS2_ 0x000345ee   Section       22  addresshelper.o(t._Z9qMakePairIiiE5QPairIT_T0_ERKS1_RKS2_)
    t._ZN12CleanupCloseI13RPointerArrayIN14EmailInterface12MEmailFolderEEE5CloseEPv 0x00034604   Section       14  qfsengine_symbian.o(t._ZN12CleanupCloseI13RPointerArrayIN14EmailInterface12MEmailFolderEEE5CloseEPv)
    t._ZN12CleanupCloseI3RFsE5CloseEPv       0x00034612   Section       12  qmtmengine_symbian.o(t._ZN12CleanupCloseI3RFsE5CloseEPv)
    t._ZN12CleanupCloseI5RFileE5CloseEPv     0x0003461e   Section       12  qmtmengine_symbian.o(t._ZN12CleanupCloseI5RFileE5CloseEPv)
    t._ZN12CleanupCloseI6RArrayIN14EmailInterface18TEmailSortCriteriaEEE5CloseEPv 0x0003462a   Section       14  qfsengine_symbian.o(t._ZN12CleanupCloseI6RArrayIN14EmailInterface18TEmailSortCriteriaEEE5CloseEPv)
    t._ZN12QMetaTypeId2I4QSetIiEE14qt_metatype_idEv 0x00034638   Section      124  qmessagemanager.o(t._ZN12QMetaTypeId2I4QSetIiEE14qt_metatype_idEv)
    t._ZN12QMetaTypeId2IN10QtMobility10QMessageIdEE14qt_metatype_idEv 0x000346b4   Section       96  qmessageid.o(t._ZN12QMetaTypeId2IN10QtMobility10QMessageIdEE14qt_metatype_idEv)
    t._ZN13RPointerArrayI26CImplementationInformationE15ResetAndDestroyEv 0x00034714   Section       64  qfsengine_symbian.o(t._ZN13RPointerArrayI26CImplementationInformationE15ResetAndDestroyEv)
    t._ZN13RPointerArrayI9CMsvEntryE15ResetAndDestroyEv 0x00034754   Section       62  qmtmengine_symbian.o(t._ZN13RPointerArrayI9CMsvEntryE15ResetAndDestroyEv)
    t._ZN13RPointerArrayI9CMsvEntryE6AppendEPKS0_ 0x00034792   Section       16  qmtmengine_symbian.o(t._ZN13RPointerArrayI9CMsvEntryE6AppendEPKS0_)
    t._ZN13RPointerArrayI9CMsvEntryE6RemoveEi 0x000347a2   Section       16  qmtmengine_symbian.o(t._ZN13RPointerArrayI9CMsvEntryE6RemoveEi)
    t._ZN13RPointerArrayIN14EmailInterface13MEmailAddressEEC1Ev 0x000347b2   Section       14  qfsengine_symbian.o(t._ZN13RPointerArrayIN14EmailInterface13MEmailAddressEEC1Ev)
    t._ZN13RPointerArrayIN14EmailInterface13MEmailAddressEEixEi 0x000347c0   Section       16  qfsengine_symbian.o(t._ZN13RPointerArrayIN14EmailInterface13MEmailAddressEEixEi)
    t._ZN13RPointerArrayIN14EmailInterface16MEmailAttachmentEEixEi 0x000347d0   Section       16  qfsengine_symbian.o(t._ZN13RPointerArrayIN14EmailInterface16MEmailAttachmentEEixEi)
    t._ZN14CleanupReleaseIN14EmailInterface12MEmailFolderEE7ReleaseEPv 0x000347e0   Section       14  qfsengine_symbian.o(t._ZN14CleanupReleaseIN14EmailInterface12MEmailFolderEE7ReleaseEPv)
    t._ZN14CleanupReleaseIN14EmailInterface13MEmailMailboxEE7ReleaseEPv 0x000347ee   Section       14  qfsengine_symbian.o(t._ZN14CleanupReleaseIN14EmailInterface13MEmailMailboxEE7ReleaseEPv)
    t._ZN14CleanupReleaseIN14EmailInterface13MEmailMessageEE7ReleaseEPv 0x000347fc   Section       14  qfsengine_symbian.o(t._ZN14CleanupReleaseIN14EmailInterface13MEmailMessageEE7ReleaseEPv)
    t._ZN14EmailInterface22CleanupResetAndReleaseINS_13MEmailAddressEE15ResetAndReleaseEPv 0x0003480a   Section       50  qfsengine_symbian.o(t._ZN14EmailInterface22CleanupResetAndReleaseINS_13MEmailAddressEE15ResetAndReleaseEPv)
    t._ZN14EmailInterface22CleanupResetAndReleaseINS_13MEmailAddressEE5PushLER13RPointerArrayIS1_E 0x0003483c   Section       24  qfsengine_symbian.o(t._ZN14EmailInterface22CleanupResetAndReleaseINS_13MEmailAddressEE5PushLER13RPointerArrayIS1_E)
    t._ZN14EmailInterface22CleanupResetAndReleaseINS_13MEmailMailboxEE15ResetAndReleaseEPv 0x00034854   Section       54  qfsengine_symbian.o(t._ZN14EmailInterface22CleanupResetAndReleaseINS_13MEmailMailboxEE15ResetAndReleaseEPv)
    t._ZN14QThreadStorageIPN10QtMobility9CFSEngineEE10deleteDataEPv 0x0003488a   Section       18  qfsengine_symbian.o(t._ZN14QThreadStorageIPN10QtMobility9CFSEngineEE10deleteDataEPv)
    t._ZN18QAlgorithmsPrivate11qSortHelperIN5QListIN10QtMobility10QMessageIdEE8iteratorES3_PFbS3_S3_EEEvT_S8_RKT0_T1_ 0x0003489c   Section      910  maemohelpers.o(t._ZN18QAlgorithmsPrivate11qSortHelperIN5QListIN10QtMobility10QMessageIdEE8iteratorES3_PFbS3_S3_EEEvT_S8_RKT0_T1_)
    t._ZN18QAlgorithmsPrivate11qSortHelperIN5QListIN10QtMobility10QMessageIdEE8iteratorES3_PFbS3_S3_EEEvT_S8_RKT0_T1_.clean 0x00034c2a   Section      108  maemohelpers.o(t._ZN18QAlgorithmsPrivate11qSortHelperIN5QListIN10QtMobility10QMessageIdEE8iteratorES3_PFbS3_S3_EEEvT_S8_RKT0_T1_.clean)
    t._ZN18QAlgorithmsPrivate11qSortHelperIN5QListIN10QtMobility14QMessageFilterEE8iteratorES3_PFbS3_S3_EEEvT_S8_RKT0_T1_ 0x00034c96   Section      910  qmtmengine_symbian.o(t._ZN18QAlgorithmsPrivate11qSortHelperIN5QListIN10QtMobility14QMessageFilterEE8iteratorES3_PFbS3_S3_EEEvT_S8_RKT0_T1_)
    t._ZN18QAlgorithmsPrivate11qSortHelperIN5QListIN10QtMobility14QMessageFilterEE8iteratorES3_PFbS3_S3_EEEvT_S8_RKT0_T1_.clean 0x00035024   Section      108  qmtmengine_symbian.o(t._ZN18QAlgorithmsPrivate11qSortHelperIN5QListIN10QtMobility14QMessageFilterEE8iteratorES3_PFbS3_S3_EEEvT_S8_RKT0_T1_.clean)
    t._ZN18QAlgorithmsPrivate11qSortHelperIN5QListIN10QtMobility16QMessageFolderIdEE8iteratorES3_PFbS3_S3_EEEvT_S8_RKT0_T1_ 0x00035090   Section      910  qmtmengine_symbian.o(t._ZN18QAlgorithmsPrivate11qSortHelperIN5QListIN10QtMobility16QMessageFolderIdEE8iteratorES3_PFbS3_S3_EEEvT_S8_RKT0_T1_)
    t._ZN18QAlgorithmsPrivate11qSortHelperIN5QListIN10QtMobility16QMessageFolderIdEE8iteratorES3_PFbS3_S3_EEEvT_S8_RKT0_T1_.clean 0x0003541e   Section      108  qmtmengine_symbian.o(t._ZN18QAlgorithmsPrivate11qSortHelperIN5QListIN10QtMobility16QMessageFolderIdEE8iteratorES3_PFbS3_S3_EEEvT_S8_RKT0_T1_.clean)
    t._ZN18QAlgorithmsPrivate11qSortHelperIN5QListIN10QtMobility17QMessageAccountIdEE8iteratorES3_PFbS3_S3_EEEvT_S8_RKT0_T1_ 0x0003548a   Section      910  qmtmengine_symbian.o(t._ZN18QAlgorithmsPrivate11qSortHelperIN5QListIN10QtMobility17QMessageAccountIdEE8iteratorES3_PFbS3_S3_EEEvT_S8_RKT0_T1_)
    t._ZN18QAlgorithmsPrivate11qSortHelperIN5QListIN10QtMobility17QMessageAccountIdEE8iteratorES3_PFbS3_S3_EEEvT_S8_RKT0_T1_.clean 0x00035818   Section      108  qmtmengine_symbian.o(t._ZN18QAlgorithmsPrivate11qSortHelperIN5QListIN10QtMobility17QMessageAccountIdEE8iteratorES3_PFbS3_S3_EEEvT_S8_RKT0_T1_.clean)
    t._ZN18QAlgorithmsPrivate11qSortHelperIN5QListIN10QtMobility20QMessageFolderFilterEE8iteratorES3_PFbS3_S3_EEEvT_S8_RKT0_T1_ 0x00035884   Section      910  qmtmengine_symbian.o(t._ZN18QAlgorithmsPrivate11qSortHelperIN5QListIN10QtMobility20QMessageFolderFilterEE8iteratorES3_PFbS3_S3_EEEvT_S8_RKT0_T1_)
    t._ZN18QAlgorithmsPrivate11qSortHelperIN5QListIN10QtMobility20QMessageFolderFilterEE8iteratorES3_PFbS3_S3_EEEvT_S8_RKT0_T1_.clean 0x00035c12   Section      108  qmtmengine_symbian.o(t._ZN18QAlgorithmsPrivate11qSortHelperIN5QListIN10QtMobility20QMessageFolderFilterEE8iteratorES3_PFbS3_S3_EEEvT_S8_RKT0_T1_.clean)
    t._ZN18QAlgorithmsPrivate11qSortHelperIN5QListIN10QtMobility21QMessageAccountFilterEE8iteratorES3_PFbS3_S3_EEEvT_S8_RKT0_T1_ 0x00035c7e   Section      910  qmessageaccountfilter_symbian.o(t._ZN18QAlgorithmsPrivate11qSortHelperIN5QListIN10QtMobility21QMessageAccountFilterEE8iteratorES3_PFbS3_S3_EEEvT_S8_RKT0_T1_)
    t._ZN18QAlgorithmsPrivate11qSortHelperIN5QListIN10QtMobility21QMessageAccountFilterEE8iteratorES3_PFbS3_S3_EEEvT_S8_RKT0_T1_.clean 0x0003600c   Section      108  qmessageaccountfilter_symbian.o(t._ZN18QAlgorithmsPrivate11qSortHelperIN5QListIN10QtMobility21QMessageAccountFilterEE8iteratorES3_PFbS3_S3_EEEvT_S8_RKT0_T1_.clean)
    t._ZN18QAlgorithmsPrivate11qSortHelperIN5QListIN10QtMobility8QMessageEE8iteratorES3_PFbRKS3_S7_EEEvT_SA_RKT0_T1_ 0x00036078   Section      650  qmtmengine_symbian.o(t._ZN18QAlgorithmsPrivate11qSortHelperIN5QListIN10QtMobility8QMessageEE8iteratorES3_PFbRKS3_S7_EEEvT_SA_RKT0_T1_)
    t._ZN20QGlobalStaticDeleterI14QThreadStorageIPN10QtMobility9CFSEngineEEED1Ev 0x00036302   Section       48  qfsengine_symbian.o(t._ZN20QGlobalStaticDeleterI14QThreadStorageIPN10QtMobility9CFSEngineEEED1Ev)
    t._ZN20QGlobalStaticDeleterIN10QtMobility10CMTMEngineEED1Ev 0x00036332   Section       38  qmtmengine_symbian.o(t._ZN20QGlobalStaticDeleterIN10QtMobility10CMTMEngineEED1Ev)
    t._ZN20QGlobalStaticDeleterIN10QtMobility12MessageCacheEED1Ev 0x00036358   Section       42  maemohelpers.o(t._ZN20QGlobalStaticDeleterIN10QtMobility12MessageCacheEED1Ev)
    t._ZN20QGlobalStaticDeleterIN10QtMobility15MessagingHelperEED1Ev 0x00036382   Section       42  maemohelpers.o(t._ZN20QGlobalStaticDeleterIN10QtMobility15MessagingHelperEED1Ev)
    t._ZN20QGlobalStaticDeleterIN10QtMobility20QMessageStorePrivateEED1Ev 0x000363ac   Section       38  qmessagestore_symbian.o(t._ZN20QGlobalStaticDeleterIN10QtMobility20QMessageStorePrivateEED1Ev)
    t._ZN20QGlobalStaticDeleterIN10QtMobility9CFSEngineEED1Ev 0x000363d2   Section       38  qfsengine_symbian.o(t._ZN20QGlobalStaticDeleterIN10QtMobility9CFSEngineEED1Ev)
    t._ZN4QMapI10QByteArray7QStringE11node_createEP8QMapDataPPNS3_4NodeERKS0_RKS1_ 0x000363f8   Section      140  qmessagecontentcontainer_symbian.o(t._ZN4QMapI10QByteArray7QStringE11node_createEP8QMapDataPPNS3_4NodeERKS0_RKS1_)
    t._ZN4QMapI10QByteArray7QStringE11node_createEP8QMapDataPPNS3_4NodeERKS0_RKS1_.clean 0x00036484   Section       38  qmessagecontentcontainer_symbian.o(t._ZN4QMapI10QByteArray7QStringE11node_createEP8QMapDataPPNS3_4NodeERKS0_RKS1_.clean)
    t._ZN4QMapI10QByteArray7QStringE13detach_helperEv 0x000364aa   Section      146  qmessagecontentcontainer_symbian.o(t._ZN4QMapI10QByteArray7QStringE13detach_helperEv)
    t._ZN4QMapI10QByteArray7QStringE13detach_helperEv.clean 0x0003653c   Section        8  qmessagecontentcontainer_symbian.o(t._ZN4QMapI10QByteArray7QStringE13detach_helperEv.clean)
    t._ZN4QMapI10QByteArray7QStringE3endEv   0x00036544   Section       18  qmessagecontentcontainer_symbian.o(t._ZN4QMapI10QByteArray7QStringE3endEv)
    t._ZN4QMapI10QByteArray7QStringE6detachEv 0x00036556   Section       28  qmessagecontentcontainer_symbian.o(t._ZN4QMapI10QByteArray7QStringE6detachEv)
    t._ZN4QMapI10QByteArray7QStringE6removeERKS0_ 0x00036572   Section      264  qmessagecontentcontainer_symbian.o(t._ZN4QMapI10QByteArray7QStringE6removeERKS0_)
    t._ZN4QMapI10QByteArray7QStringE8freeDataEP8QMapData 0x0003667a   Section       62  qmessagecontentcontainer_symbian.o(t._ZN4QMapI10QByteArray7QStringE8freeDataEP8QMapData)
    t._ZN4QMapI10QByteArray7QStringEC1Ev     0x000366b8   Section       28  qmessagecontentcontainer_symbian.o(t._ZN4QMapI10QByteArray7QStringEC1Ev)
    t._ZN4QMapI10QByteArray7QStringED1Ev     0x000366d4   Section       38  qmessagecontentcontainer_symbian.o(t._ZN4QMapI10QByteArray7QStringED1Ev)
    t._ZN4QMapI10QByteArray7QStringEaSERKS2_ 0x000366fa   Section       70  qmessagecontentcontainer_symbian.o(t._ZN4QMapI10QByteArray7QStringEaSERKS2_)
    t._ZN4QMapIPN10QtMobility22QMessageServicePrivateEPNS0_24CFSContentFetchOperationEE11node_createEP8QMapDataPPNS6_4NodeERKS2_RKS4_ 0x00036740   Section       82  qfsengine_symbian.o(t._ZN4QMapIPN10QtMobility22QMessageServicePrivateEPNS0_24CFSContentFetchOperationEE11node_createEP8QMapDataPPNS6_4NodeERKS2_RKS4_)
    t._ZN4QMapIPN10QtMobility22QMessageServicePrivateEPNS0_24CFSContentFetchOperationEE11node_createEP8QMapDataPPNS6_4NodeERKS2_RKS4_.clean 0x00036792   Section        4  qfsengine_symbian.o(t._ZN4QMapIPN10QtMobility22QMessageServicePrivateEPNS0_24CFSContentFetchOperationEE11node_createEP8QMapDataPPNS6_4NodeERKS2_RKS4_.clean)
    t._ZN4QMapIPN10QtMobility22QMessageServicePrivateEPNS0_24CFSContentFetchOperationEE13detach_helperEv 0x00036796   Section      146  qfsengine_symbian.o(t._ZN4QMapIPN10QtMobility22QMessageServicePrivateEPNS0_24CFSContentFetchOperationEE13detach_helperEv)
    t._ZN4QMapIPN10QtMobility22QMessageServicePrivateEPNS0_24CFSContentFetchOperationEE13detach_helperEv.clean 0x00036828   Section        8  qfsengine_symbian.o(t._ZN4QMapIPN10QtMobility22QMessageServicePrivateEPNS0_24CFSContentFetchOperationEE13detach_helperEv.clean)
    t._ZN4QMapIPN10QtMobility22QMessageServicePrivateEPNS0_24CFSContentFetchOperationEE4takeERKS2_ 0x00036830   Section      162  qfsengine_symbian.o(t._ZN4QMapIPN10QtMobility22QMessageServicePrivateEPNS0_24CFSContentFetchOperationEE4takeERKS2_)
    t._ZN4QMapIPN10QtMobility22QMessageServicePrivateEPNS0_24CFSContentFetchOperationEE6detachEv 0x000368d2   Section       28  qfsengine_symbian.o(t._ZN4QMapIPN10QtMobility22QMessageServicePrivateEPNS0_24CFSContentFetchOperationEE6detachEv)
    t._ZN4QMapIPN10QtMobility22QMessageServicePrivateEPNS0_24CFSContentFetchOperationEE6insertERKS2_RKS4_ 0x000368ee   Section       74  qfsengine_symbian.o(t._ZN4QMapIPN10QtMobility22QMessageServicePrivateEPNS0_24CFSContentFetchOperationEE6insertERKS2_RKS4_)
    t._ZN4QMapIPN10QtMobility22QMessageServicePrivateEPNS0_24CFSContentFetchOperationEE8freeDataEP8QMapData 0x00036938   Section       24  qfsengine_symbian.o(t._ZN4QMapIPN10QtMobility22QMessageServicePrivateEPNS0_24CFSContentFetchOperationEE8freeDataEP8QMapData)
    t._ZN4QMapIPN10QtMobility22QMessageServicePrivateEPNS0_24CFSContentFetchOperationEEC1Ev 0x00036950   Section       28  qfsengine_symbian.o(t._ZN4QMapIPN10QtMobility22QMessageServicePrivateEPNS0_24CFSContentFetchOperationEEC1Ev)
    t._ZN4QMapIPN10QtMobility22QMessageServicePrivateEPNS0_24CFSContentFetchOperationEED1Ev 0x0003696c   Section       38  qfsengine_symbian.o(t._ZN4QMapIPN10QtMobility22QMessageServicePrivateEPNS0_24CFSContentFetchOperationEED1Ev)
    t._ZN4QMapIiN10QtMobility14QMessageFilterEE11node_createEP8QMapDataPPNS3_4NodeERKiRKS1_ 0x00036992   Section      130  qmtmengine_symbian.o(t._ZN4QMapIiN10QtMobility14QMessageFilterEE11node_createEP8QMapDataPPNS3_4NodeERKiRKS1_)
    t._ZN4QMapIiN10QtMobility14QMessageFilterEE11node_createEP8QMapDataPPNS3_4NodeERKiRKS1_.clean 0x00036a14   Section       28  qmtmengine_symbian.o(t._ZN4QMapIiN10QtMobility14QMessageFilterEE11node_createEP8QMapDataPPNS3_4NodeERKiRKS1_.clean)
    t._ZN4QMapIiN10QtMobility14QMessageFilterEE13detach_helperEv 0x00036a30   Section      146  qmtmengine_symbian.o(t._ZN4QMapIiN10QtMobility14QMessageFilterEE13detach_helperEv)
    t._ZN4QMapIiN10QtMobility14QMessageFilterEE13detach_helperEv.clean 0x00036ac2   Section        8  qmtmengine_symbian.o(t._ZN4QMapIiN10QtMobility14QMessageFilterEE13detach_helperEv.clean)
    t._ZN4QMapIiN10QtMobility14QMessageFilterEE5beginEv 0x00036aca   Section       20  qmtmengine_symbian.o(t._ZN4QMapIiN10QtMobility14QMessageFilterEE5beginEv)
    t._ZN4QMapIiN10QtMobility14QMessageFilterEE6detachEv 0x00036ade   Section       28  qmtmengine_symbian.o(t._ZN4QMapIiN10QtMobility14QMessageFilterEE6detachEv)
    t._ZN4QMapIiN10QtMobility14QMessageFilterEE6removeERKi 0x00036afa   Section      256  qmtmengine_symbian.o(t._ZN4QMapIiN10QtMobility14QMessageFilterEE6removeERKi)
    t._ZN4QMapIiN10QtMobility14QMessageFilterEE8freeDataEP8QMapData 0x00036bfa   Section       56  qmtmengine_symbian.o(t._ZN4QMapIiN10QtMobility14QMessageFilterEE8freeDataEP8QMapData)
    t._ZN4QMapIiN10QtMobility14QMessageFilterEEC1ERKS2_ 0x00036c32   Section       40  qmtmengine_symbian.o(t._ZN4QMapIiN10QtMobility14QMessageFilterEEC1ERKS2_)
    t._ZN4QMapIiN10QtMobility14QMessageFilterEED1Ev 0x00036c5a   Section       38  qmtmengine_symbian.o(t._ZN4QMapIiN10QtMobility14QMessageFilterEED1Ev)
    t._ZN4QMapIjPN14EmailInterface13MEmailMailboxEE11node_createEP8QMapDataPPNS4_4NodeERKjRKS2_ 0x00036c80   Section       82  qfsengine_symbian.o(t._ZN4QMapIjPN14EmailInterface13MEmailMailboxEE11node_createEP8QMapDataPPNS4_4NodeERKjRKS2_)
    t._ZN4QMapIjPN14EmailInterface13MEmailMailboxEE11node_createEP8QMapDataPPNS4_4NodeERKjRKS2_.clean 0x00036cd2   Section        4  qfsengine_symbian.o(t._ZN4QMapIjPN14EmailInterface13MEmailMailboxEE11node_createEP8QMapDataPPNS4_4NodeERKjRKS2_.clean)
    t._ZN4QMapIjPN14EmailInterface13MEmailMailboxEE13detach_helperEv 0x00036cd6   Section      146  qfsengine_symbian.o(t._ZN4QMapIjPN14EmailInterface13MEmailMailboxEE13detach_helperEv)
    t._ZN4QMapIjPN14EmailInterface13MEmailMailboxEE13detach_helperEv.clean 0x00036d68   Section        8  qfsengine_symbian.o(t._ZN4QMapIjPN14EmailInterface13MEmailMailboxEE13detach_helperEv.clean)
    t._ZN4QMapIjPN14EmailInterface13MEmailMailboxEE6detachEv 0x00036d70   Section       28  qfsengine_symbian.o(t._ZN4QMapIjPN14EmailInterface13MEmailMailboxEE6detachEv)
    t._ZN4QMapIjPN14EmailInterface13MEmailMailboxEE8freeDataEP8QMapData 0x00036d8c   Section       24  qfsengine_symbian.o(t._ZN4QMapIjPN14EmailInterface13MEmailMailboxEE8freeDataEP8QMapData)
    t._ZN4QMapIjPN14EmailInterface13MEmailMailboxEEC1Ev 0x00036da4   Section       28  qfsengine_symbian.o(t._ZN4QMapIjPN14EmailInterface13MEmailMailboxEEC1Ev)
    t._ZN4QMapIjPN14EmailInterface13MEmailMailboxEED1Ev 0x00036dc0   Section       38  qfsengine_symbian.o(t._ZN4QMapIjPN14EmailInterface13MEmailMailboxEED1Ev)
    t._ZN4QMapIlN19MMsvSessionObserver16TMsvSessionEventEE11node_createEP8QMapDataPPNS3_4NodeERKlRKS1_ 0x00036de6   Section       82  qmtmengine_symbian.o(t._ZN4QMapIlN19MMsvSessionObserver16TMsvSessionEventEE11node_createEP8QMapDataPPNS3_4NodeERKlRKS1_)
    t._ZN4QMapIlN19MMsvSessionObserver16TMsvSessionEventEE11node_createEP8QMapDataPPNS3_4NodeERKlRKS1_.clean 0x00036e38   Section        4  qmtmengine_symbian.o(t._ZN4QMapIlN19MMsvSessionObserver16TMsvSessionEventEE11node_createEP8QMapDataPPNS3_4NodeERKlRKS1_.clean)
    t._ZN4QMapIlN19MMsvSessionObserver16TMsvSessionEventEE13detach_helperEv 0x00036e3c   Section      146  qmtmengine_symbian.o(t._ZN4QMapIlN19MMsvSessionObserver16TMsvSessionEventEE13detach_helperEv)
    t._ZN4QMapIlN19MMsvSessionObserver16TMsvSessionEventEE13detach_helperEv.clean 0x00036ece   Section        8  qmtmengine_symbian.o(t._ZN4QMapIlN19MMsvSessionObserver16TMsvSessionEventEE13detach_helperEv.clean)
    t._ZN4QMapIlN19MMsvSessionObserver16TMsvSessionEventEE4takeERKl 0x00036ed6   Section      162  qmtmengine_symbian.o(t._ZN4QMapIlN19MMsvSessionObserver16TMsvSessionEventEE4takeERKl)
    t._ZN4QMapIlN19MMsvSessionObserver16TMsvSessionEventEE6detachEv 0x00036f78   Section       28  qmtmengine_symbian.o(t._ZN4QMapIlN19MMsvSessionObserver16TMsvSessionEventEE6detachEv)
    t._ZN4QMapIlN19MMsvSessionObserver16TMsvSessionEventEE6removeERKl 0x00036f94   Section      246  qmtmengine_symbian.o(t._ZN4QMapIlN19MMsvSessionObserver16TMsvSessionEventEE6removeERKl)
    t._ZN4QMapIlN19MMsvSessionObserver16TMsvSessionEventEE8freeDataEP8QMapData 0x0003708a   Section       48  qmtmengine_symbian.o(t._ZN4QMapIlN19MMsvSessionObserver16TMsvSessionEventEE8freeDataEP8QMapData)
    t._ZN4QMapIlN19MMsvSessionObserver16TMsvSessionEventEED1Ev 0x000370ba   Section       38  qmtmengine_symbian.o(t._ZN4QMapIlN19MMsvSessionObserver16TMsvSessionEventEED1Ev)
    t._ZN4QSetIiE5clearEv                    0x000370e0   Section       32  qmtmengine_symbian.o(t._ZN4QSetIiE5clearEv)
    t._ZN4QSetIiE5clearEv.clean              0x00037100   Section       10  qmtmengine_symbian.o(t._ZN4QSetIiE5clearEv.clean)
    t._ZN4QSetIiE6insertERKi                 0x0003710a   Section       46  qfsengine_symbian.o(t._ZN4QSetIiE6insertERKi)
    t._ZN4QSetIiEC1Ev                        0x00037138   Section       14  qmtmengine_symbian.o(t._ZN4QSetIiEC1Ev)
    t._ZN4TBufILi256EEC1ERK7TDesC16          0x00037146   Section       22  qmtmengine_symbian.o(t._ZN4TBufILi256EEC1ERK7TDesC16)
    t._ZN4TBufILi256EEC1Ev                   0x0003715c   Section       18  qmtmengine_symbian.o(t._ZN4TBufILi256EEC1Ev)
    t._ZN5QHashI7QStringN10QtMobility15QMessageAccountEE10createNodeEjRKS0_RKS2_PP9QHashNodeIS0_S2_E 0x0003716e   Section      100  qmtmengine_symbian.o(t._ZN5QHashI7QStringN10QtMobility15QMessageAccountEE10createNodeEjRKS0_RKS2_PP9QHashNodeIS0_S2_E)
    t._ZN5QHashI7QStringN10QtMobility15QMessageAccountEE10createNodeEjRKS0_RKS2_PP9QHashNodeIS0_S2_E.clean 0x000371d2   Section       14  qmtmengine_symbian.o(t._ZN5QHashI7QStringN10QtMobility15QMessageAccountEE10createNodeEjRKS0_RKS2_PP9QHashNodeIS0_S2_E.clean)
    t._ZN5QHashI7QStringN10QtMobility15QMessageAccountEE11deleteNode2EPN9QHashData4NodeE 0x000371e0   Section       36  qmtmengine_symbian.o(t._ZN5QHashI7QStringN10QtMobility15QMessageAccountEE11deleteNode2EPN9QHashData4NodeE)
    t._ZN5QHashI7QStringN10QtMobility15QMessageAccountEE11deleteNode2EPN9QHashData4NodeE.clean 0x00037204   Section       12  qmtmengine_symbian.o(t._ZN5QHashI7QStringN10QtMobility15QMessageAccountEE11deleteNode2EPN9QHashData4NodeE.clean)
    t._ZN5QHashI7QStringN10QtMobility15QMessageAccountEE13detach_helperEv 0x00037210   Section       60  qmtmengine_symbian.o(t._ZN5QHashI7QStringN10QtMobility15QMessageAccountEE13detach_helperEv)
    t._ZN5QHashI7QStringN10QtMobility15QMessageAccountEE13duplicateNodeEPN9QHashData4NodeEPv 0x0003724c   Section       46  qmtmengine_symbian.o(t._ZN5QHashI7QStringN10QtMobility15QMessageAccountEE13duplicateNodeEPN9QHashData4NodeEPv)
    t._ZN5QHashI7QStringN10QtMobility15QMessageAccountEE13duplicateNodeEPN9QHashData4NodeEPv.clean 0x0003727a   Section       14  qmtmengine_symbian.o(t._ZN5QHashI7QStringN10QtMobility15QMessageAccountEE13duplicateNodeEPN9QHashData4NodeEPv.clean)
    t._ZN5QHashI7QStringN10QtMobility15QMessageAccountEE14const_iteratorppEv 0x00037288   Section       16  qmtmengine_symbian.o(t._ZN5QHashI7QStringN10QtMobility15QMessageAccountEE14const_iteratorppEv)
    t._ZN5QHashI7QStringN10QtMobility15QMessageAccountEE6detachEv 0x00037298   Section       28  qmtmengine_symbian.o(t._ZN5QHashI7QStringN10QtMobility15QMessageAccountEE6detachEv)
    t._ZN5QHashI7QStringN10QtMobility15QMessageAccountEE6insertERKS0_RKS2_ 0x000372b4   Section      104  qmtmengine_symbian.o(t._ZN5QHashI7QStringN10QtMobility15QMessageAccountEE6insertERKS0_RKS2_)
    t._ZN5QHashI7QStringN10QtMobility15QMessageAccountEE6removeERKS0_ 0x0003731c   Section      248  qfsengine_symbian.o(t._ZN5QHashI7QStringN10QtMobility15QMessageAccountEE6removeERKS0_)
    t._ZN5QHashI7QStringN10QtMobility15QMessageAccountEE8freeDataEP9QHashData 0x00037414   Section       20  qmtmengine_symbian.o(t._ZN5QHashI7QStringN10QtMobility15QMessageAccountEE8freeDataEP9QHashData)
    t._ZN5QHashI7QStringN10QtMobility15QMessageAccountEED1Ev 0x00037428   Section       30  qmtmengine_symbian.o(t._ZN5QHashI7QStringN10QtMobility15QMessageAccountEED1Ev)
    t._ZN5QHashI7QStringN6QCacheIS0_N10QtMobility8QMessageEE4NodeEE11deleteNode2EPN9QHashData4NodeE 0x00037446   Section       24  maemohelpers.o(t._ZN5QHashI7QStringN6QCacheIS0_N10QtMobility8QMessageEE4NodeEE11deleteNode2EPN9QHashData4NodeE)
    t._ZN5QHashI7QStringN6QCacheIS0_N10QtMobility8QMessageEE4NodeEE13detach_helperEv 0x00037460   Section       60  maemohelpers.o(t._ZN5QHashI7QStringN6QCacheIS0_N10QtMobility8QMessageEE4NodeEE13detach_helperEv)
    t._ZN5QHashI7QStringN6QCacheIS0_N10QtMobility8QMessageEE4NodeEE13duplicateNodeEPN9QHashData4NodeEPv 0x0003749c   Section       46  maemohelpers.o(t._ZN5QHashI7QStringN6QCacheIS0_N10QtMobility8QMessageEE4NodeEE13duplicateNodeEPN9QHashData4NodeEPv)
    t._ZN5QHashI7QStringN6QCacheIS0_N10QtMobility8QMessageEE4NodeEE13duplicateNodeEPN9QHashData4NodeEPv.clean 0x000374ca   Section       14  maemohelpers.o(t._ZN5QHashI7QStringN6QCacheIS0_N10QtMobility8QMessageEE4NodeEE13duplicateNodeEPN9QHashData4NodeEPv.clean)
    t._ZN5QHashI7QStringN6QCacheIS0_N10QtMobility8QMessageEE4NodeEE4findERKS0_ 0x000374d8   Section       30  maemohelpers.o(t._ZN5QHashI7QStringN6QCacheIS0_N10QtMobility8QMessageEE4NodeEE4findERKS0_)
    t._ZN5QHashI7QStringN6QCacheIS0_N10QtMobility8QMessageEE4NodeEE6detachEv 0x000374f6   Section       28  maemohelpers.o(t._ZN5QHashI7QStringN6QCacheIS0_N10QtMobility8QMessageEE4NodeEE6detachEv)
    t._ZN5QHashI7QStringN6QCacheIS0_N10QtMobility8QMessageEE4NodeEE6insertERKS0_RKS5_ 0x00037512   Section      212  maemohelpers.o(t._ZN5QHashI7QStringN6QCacheIS0_N10QtMobility8QMessageEE4NodeEE6insertERKS0_RKS5_)
    t._ZN5QHashI7QStringN6QCacheIS0_N10QtMobility8QMessageEE4NodeEE6insertERKS0_RKS5_.clean 0x000375e6   Section       14  maemohelpers.o(t._ZN5QHashI7QStringN6QCacheIS0_N10QtMobility8QMessageEE4NodeEE6insertERKS0_RKS5_.clean)
    t._ZN5QHashI7QStringN6QCacheIS0_N10QtMobility8QMessageEE4NodeEE6removeERKS0_ 0x000375f4   Section      260  maemohelpers.o(t._ZN5QHashI7QStringN6QCacheIS0_N10QtMobility8QMessageEE4NodeEE6removeERKS0_)
    t._ZN5QHashI7QStringN6QCacheIS0_N10QtMobility8QMessageEE4NodeEE8freeDataEP9QHashData 0x000376f8   Section       20  maemohelpers.o(t._ZN5QHashI7QStringN6QCacheIS0_N10QtMobility8QMessageEE4NodeEE8freeDataEP9QHashData)
    t._ZN5QHashI7QStringN6QCacheIS0_N10QtMobility8QMessageEE4NodeEEC1Ev 0x0003770c   Section       28  maemohelpers.o(t._ZN5QHashI7QStringN6QCacheIS0_N10QtMobility8QMessageEE4NodeEEC1Ev)
    t._ZN5QHashI7QStringN6QCacheIS0_N10QtMobility8QMessageEE4NodeEED1Ev 0x00037728   Section       30  maemohelpers.o(t._ZN5QHashI7QStringN6QCacheIS0_N10QtMobility8QMessageEE4NodeEED1Ev)
    t._ZN5QHashIi15QHashDummyValueE11deleteNode2EPN9QHashData4NodeE 0x00037746   Section        6  qmessagemanager.o(t._ZN5QHashIi15QHashDummyValueE11deleteNode2EPN9QHashData4NodeE)
    t._ZN5QHashIi15QHashDummyValueE13detach_helperEv 0x0003774c   Section       60  qmessagemanager.o(t._ZN5QHashIi15QHashDummyValueE13detach_helperEv)
    t._ZN5QHashIi15QHashDummyValueE13duplicateNodeEPN9QHashData4NodeEPv 0x00037788   Section       34  qmtmengine_symbian.o(t._ZN5QHashIi15QHashDummyValueE13duplicateNodeEPN9QHashData4NodeEPv)
    t._ZN5QHashIi15QHashDummyValueE6detachEv 0x000377aa   Section       28  qmtmengine_symbian.o(t._ZN5QHashIi15QHashDummyValueE6detachEv)
    t._ZN5QHashIi15QHashDummyValueE6insertERKiRKS0_ 0x000377c6   Section      184  qfsengine_symbian.o(t._ZN5QHashIi15QHashDummyValueE6insertERKiRKS0_)
    t._ZN5QHashIi15QHashDummyValueE6insertERKiRKS0_.clean 0x0003787e   Section        4  qfsengine_symbian.o(t._ZN5QHashIi15QHashDummyValueE6insertERKiRKS0_.clean)
    t._ZN5QHashIi15QHashDummyValueE8freeDataEP9QHashData 0x00037884   Section       20  qmessagemanager.o(t._ZN5QHashIi15QHashDummyValueE8freeDataEP9QHashData)
    t._ZN5QHashIi15QHashDummyValueEC1Ev      0x00037898   Section       28  qmtmengine_symbian.o(t._ZN5QHashIi15QHashDummyValueEC1Ev)
    t._ZN5QHashIi15QHashDummyValueED1Ev      0x000378b4   Section       30  qmessagemanager.o(t._ZN5QHashIi15QHashDummyValueED1Ev)
    t._ZN5QHashIi15QHashDummyValueEaSERKS1_  0x000378d2   Section       70  qmtmengine_symbian.o(t._ZN5QHashIi15QHashDummyValueEaSERKS1_)
    t._ZN5QHashIjN10QtMobility8QMessage14StandardFolderEE11deleteNode2EPN9QHashData4NodeE 0x00037918   Section        6  qfsengine_symbian.o(t._ZN5QHashIjN10QtMobility8QMessage14StandardFolderEE11deleteNode2EPN9QHashData4NodeE)
    t._ZN5QHashIjN10QtMobility8QMessage14StandardFolderEE13detach_helperEv 0x00037920   Section       60  qfsengine_symbian.o(t._ZN5QHashIjN10QtMobility8QMessage14StandardFolderEE13detach_helperEv)
    t._ZN5QHashIjN10QtMobility8QMessage14StandardFolderEE13duplicateNodeEPN9QHashData4NodeEPv 0x0003795c   Section       42  qfsengine_symbian.o(t._ZN5QHashIjN10QtMobility8QMessage14StandardFolderEE13duplicateNodeEPN9QHashData4NodeEPv)
    t._ZN5QHashIjN10QtMobility8QMessage14StandardFolderEE6insertERKjRKS2_ 0x00037986   Section      196  qfsengine_symbian.o(t._ZN5QHashIjN10QtMobility8QMessage14StandardFolderEE6insertERKjRKS2_)
    t._ZN5QHashIjN10QtMobility8QMessage14StandardFolderEE6insertERKjRKS2_.clean 0x00037a4a   Section        4  qfsengine_symbian.o(t._ZN5QHashIjN10QtMobility8QMessage14StandardFolderEE6insertERKjRKS2_.clean)
    t._ZN5QHashIjN10QtMobility8QMessage14StandardFolderEE8freeDataEP9QHashData 0x00037a50   Section       20  qfsengine_symbian.o(t._ZN5QHashIjN10QtMobility8QMessage14StandardFolderEE8freeDataEP9QHashData)
    t._ZN5QHashIjN10QtMobility8QMessage14StandardFolderEED1Ev 0x00037a64   Section       30  qfsengine_symbian.o(t._ZN5QHashIjN10QtMobility8QMessage14StandardFolderEED1Ev)
    t._ZN5QListI10QByteArrayE13detach_helperEi 0x00037a82   Section       94  qmessagecontentcontainer_symbian.o(t._ZN5QListI10QByteArrayE13detach_helperEi)
    t._ZN5QListI10QByteArrayE13detach_helperEi.clean 0x00037ae0   Section        8  qmessagecontentcontainer_symbian.o(t._ZN5QListI10QByteArrayE13detach_helperEi.clean)
    t._ZN5QListI10QByteArrayE13detach_helperEv 0x00037ae8   Section       16  qmessage.o(t._ZN5QListI10QByteArrayE13detach_helperEv)
    t._ZN5QListI10QByteArrayE13node_destructEPNS1_4NodeES3_ 0x00037af8   Section       26  qmessagecontentcontainer_symbian.o(t._ZN5QListI10QByteArrayE13node_destructEPNS1_4NodeES3_)
    t._ZN5QListI10QByteArrayE14node_constructEPNS1_4NodeERKS0_ 0x00037b12   Section       36  qmessagecontentcontainer_symbian.o(t._ZN5QListI10QByteArrayE14node_constructEPNS1_4NodeERKS0_)
    t._ZN5QListI10QByteArrayE14node_constructEPNS1_4NodeERKS0_.clean 0x00037b36   Section       14  qmessagecontentcontainer_symbian.o(t._ZN5QListI10QByteArrayE14node_constructEPNS1_4NodeERKS0_.clean)
    t._ZN5QListI10QByteArrayE18detach_helper_growEii 0x00037b44   Section      208  qmessagecontentcontainer_symbian.o(t._ZN5QListI10QByteArrayE18detach_helper_growEii)
    t._ZN5QListI10QByteArrayE18detach_helper_growEii.clean 0x00037c14   Section       16  qmessagecontentcontainer_symbian.o(t._ZN5QListI10QByteArrayE18detach_helper_growEii.clean)
    t._ZN5QListI10QByteArrayE4freeEPN9QListData4DataE 0x00037c24   Section       52  qmessagecontentcontainer_symbian.o(t._ZN5QListI10QByteArrayE4freeEPN9QListData4DataE)
    t._ZN5QListI10QByteArrayE6appendERKS0_   0x00037c58   Section      120  qmessagecontentcontainer_symbian.o(t._ZN5QListI10QByteArrayE6appendERKS0_)
    t._ZN5QListI10QByteArrayE6appendERKS0_.clean 0x00037cd0   Section       14  qmessagecontentcontainer_symbian.o(t._ZN5QListI10QByteArrayE6appendERKS0_.clean)
    t._ZN5QListI10QByteArrayE7reserveEi      0x00037cde   Section       46  qmessagecontentcontainer_symbian.o(t._ZN5QListI10QByteArrayE7reserveEi)
    t._ZN5QListI10QByteArrayE9node_copyEPNS1_4NodeES3_S3_ 0x00037d0c   Section       82  qmessagecontentcontainer_symbian.o(t._ZN5QListI10QByteArrayE9node_copyEPNS1_4NodeES3_S3_)
    t._ZN5QListI10QByteArrayE9node_copyEPNS1_4NodeES3_S3_.clean 0x00037d5e   Section       22  qmessagecontentcontainer_symbian.o(t._ZN5QListI10QByteArrayE9node_copyEPNS1_4NodeES3_S3_.clean)
    t._ZN5QListI10QByteArrayEC1ERKS1_        0x00037d74   Section       36  qmessage.o(t._ZN5QListI10QByteArrayEC1ERKS1_)
    t._ZN5QListI10QByteArrayED1Ev            0x00037d98   Section       32  qmessage.o(t._ZN5QListI10QByteArrayED1Ev)
    t._ZN5QListI5QPairIN10QtMobility24QMessageSortOrderPrivate5FieldEN2Qt9SortOrderEEE13detach_helperEi 0x00037db8   Section       94  qmessagesortorder_symbian.o(t._ZN5QListI5QPairIN10QtMobility24QMessageSortOrderPrivate5FieldEN2Qt9SortOrderEEE13detach_helperEi)
    t._ZN5QListI5QPairIN10QtMobility24QMessageSortOrderPrivate5FieldEN2Qt9SortOrderEEE13detach_helperEi.clean 0x00037e16   Section        8  qmessagesortorder_symbian.o(t._ZN5QListI5QPairIN10QtMobility24QMessageSortOrderPrivate5FieldEN2Qt9SortOrderEEE13detach_helperEi.clean)
    t._ZN5QListI5QPairIN10QtMobility24QMessageSortOrderPrivate5FieldEN2Qt9SortOrderEEE13detach_helperEv 0x00037e1e   Section       16  qmessagesortorder_symbian.o(t._ZN5QListI5QPairIN10QtMobility24QMessageSortOrderPrivate5FieldEN2Qt9SortOrderEEE13detach_helperEv)
    t._ZN5QListI5QPairIN10QtMobility24QMessageSortOrderPrivate5FieldEN2Qt9SortOrderEEE13node_destructEPNS7_4NodeES9_ 0x00037e2e   Section       26  qmessagesortorder_symbian.o(t._ZN5QListI5QPairIN10QtMobility24QMessageSortOrderPrivate5FieldEN2Qt9SortOrderEEE13node_destructEPNS7_4NodeES9_)
    t._ZN5QListI5QPairIN10QtMobility24QMessageSortOrderPrivate5FieldEN2Qt9SortOrderEEE14node_constructEPNS7_4NodeERKS6_ 0x00037e48   Section       34  qmessagesortorder_symbian.o(t._ZN5QListI5QPairIN10QtMobility24QMessageSortOrderPrivate5FieldEN2Qt9SortOrderEEE14node_constructEPNS7_4NodeERKS6_)
    t._ZN5QListI5QPairIN10QtMobility24QMessageSortOrderPrivate5FieldEN2Qt9SortOrderEEE14node_constructEPNS7_4NodeERKS6_.clean 0x00037e6a   Section        4  qmessagesortorder_symbian.o(t._ZN5QListI5QPairIN10QtMobility24QMessageSortOrderPrivate5FieldEN2Qt9SortOrderEEE14node_constructEPNS7_4NodeERKS6_.clean)
    t._ZN5QListI5QPairIN10QtMobility24QMessageSortOrderPrivate5FieldEN2Qt9SortOrderEEE18detach_helper_growEii 0x00037e6e   Section      208  qmessagesortorder_symbian.o(t._ZN5QListI5QPairIN10QtMobility24QMessageSortOrderPrivate5FieldEN2Qt9SortOrderEEE18detach_helper_growEii)
    t._ZN5QListI5QPairIN10QtMobility24QMessageSortOrderPrivate5FieldEN2Qt9SortOrderEEE18detach_helper_growEii.clean 0x00037f3e   Section       16  qmessagesortorder_symbian.o(t._ZN5QListI5QPairIN10QtMobility24QMessageSortOrderPrivate5FieldEN2Qt9SortOrderEEE18detach_helper_growEii.clean)
    t._ZN5QListI5QPairIN10QtMobility24QMessageSortOrderPrivate5FieldEN2Qt9SortOrderEEE4freeEPN9QListData4DataE 0x00037f4e   Section       58  qmessagesortorder_symbian.o(t._ZN5QListI5QPairIN10QtMobility24QMessageSortOrderPrivate5FieldEN2Qt9SortOrderEEE4freeEPN9QListData4DataE)
    t._ZN5QListI5QPairIN10QtMobility24QMessageSortOrderPrivate5FieldEN2Qt9SortOrderEEE6appendERKS6_ 0x00037f88   Section      112  qmessagesortorder_symbian.o(t._ZN5QListI5QPairIN10QtMobility24QMessageSortOrderPrivate5FieldEN2Qt9SortOrderEEE6appendERKS6_)
    t._ZN5QListI5QPairIN10QtMobility24QMessageSortOrderPrivate5FieldEN2Qt9SortOrderEEE6appendERKS6_.clean 0x00037ff8   Section       14  qmessagesortorder_symbian.o(t._ZN5QListI5QPairIN10QtMobility24QMessageSortOrderPrivate5FieldEN2Qt9SortOrderEEE6appendERKS6_.clean)
    t._ZN5QListI5QPairIN10QtMobility24QMessageSortOrderPrivate5FieldEN2Qt9SortOrderEEE6detachEv 0x00038006   Section       24  qmessagesortorder_symbian.o(t._ZN5QListI5QPairIN10QtMobility24QMessageSortOrderPrivate5FieldEN2Qt9SortOrderEEE6detachEv)
    t._ZN5QListI5QPairIN10QtMobility24QMessageSortOrderPrivate5FieldEN2Qt9SortOrderEEE9node_copyEPNS7_4NodeES9_S9_ 0x0003801e   Section       80  qmessagesortorder_symbian.o(t._ZN5QListI5QPairIN10QtMobility24QMessageSortOrderPrivate5FieldEN2Qt9SortOrderEEE9node_copyEPNS7_4NodeES9_S9_)
    t._ZN5QListI5QPairIN10QtMobility24QMessageSortOrderPrivate5FieldEN2Qt9SortOrderEEE9node_copyEPNS7_4NodeES9_S9_.clean 0x0003806e   Section       22  qmessagesortorder_symbian.o(t._ZN5QListI5QPairIN10QtMobility24QMessageSortOrderPrivate5FieldEN2Qt9SortOrderEEE9node_copyEPNS7_4NodeES9_S9_.clean)
    t._ZN5QListI5QPairIN10QtMobility24QMessageSortOrderPrivate5FieldEN2Qt9SortOrderEEED1Ev 0x00038084   Section       32  qmessagesortorder_symbian.o(t._ZN5QListI5QPairIN10QtMobility24QMessageSortOrderPrivate5FieldEN2Qt9SortOrderEEED1Ev)
    t._ZN5QListI5QPairIN10QtMobility24QMessageSortOrderPrivate5FieldEN2Qt9SortOrderEEEaSERKS7_ 0x000380a4   Section       64  qmessagesortorder_symbian.o(t._ZN5QListI5QPairIN10QtMobility24QMessageSortOrderPrivate5FieldEN2Qt9SortOrderEEEaSERKS7_)
    t._ZN5QListI5QPairIN10QtMobility24QMessageSortOrderPrivate5FieldEN2Qt9SortOrderEEEpLERKS7_ 0x000380e4   Section      156  qmessagesortorder_symbian.o(t._ZN5QListI5QPairIN10QtMobility24QMessageSortOrderPrivate5FieldEN2Qt9SortOrderEEEpLERKS7_)
    t._ZN5QListI5QPairIN10QtMobility24QMessageSortOrderPrivate5FieldEN2Qt9SortOrderEEEpLERKS7_.clean 0x00038180   Section        8  qmessagesortorder_symbian.o(t._ZN5QListI5QPairIN10QtMobility24QMessageSortOrderPrivate5FieldEN2Qt9SortOrderEEEpLERKS7_.clean)
    t._ZN5QListI5QPairIN10QtMobility30QMessageFolderSortOrderPrivate5FieldEN2Qt9SortOrderEEE13detach_helperEi 0x00038188   Section       94  qmessagefoldersortorder_symbian.o(t._ZN5QListI5QPairIN10QtMobility30QMessageFolderSortOrderPrivate5FieldEN2Qt9SortOrderEEE13detach_helperEi)
    t._ZN5QListI5QPairIN10QtMobility30QMessageFolderSortOrderPrivate5FieldEN2Qt9SortOrderEEE13detach_helperEi.clean 0x000381e6   Section        8  qmessagefoldersortorder_symbian.o(t._ZN5QListI5QPairIN10QtMobility30QMessageFolderSortOrderPrivate5FieldEN2Qt9SortOrderEEE13detach_helperEi.clean)
    t._ZN5QListI5QPairIN10QtMobility30QMessageFolderSortOrderPrivate5FieldEN2Qt9SortOrderEEE13detach_helperEv 0x000381ee   Section       16  qmessagefoldersortorder_symbian.o(t._ZN5QListI5QPairIN10QtMobility30QMessageFolderSortOrderPrivate5FieldEN2Qt9SortOrderEEE13detach_helperEv)
    t._ZN5QListI5QPairIN10QtMobility30QMessageFolderSortOrderPrivate5FieldEN2Qt9SortOrderEEE13node_destructEPNS7_4NodeES9_ 0x000381fe   Section       26  qmessagefoldersortorder_symbian.o(t._ZN5QListI5QPairIN10QtMobility30QMessageFolderSortOrderPrivate5FieldEN2Qt9SortOrderEEE13node_destructEPNS7_4NodeES9_)
    t._ZN5QListI5QPairIN10QtMobility30QMessageFolderSortOrderPrivate5FieldEN2Qt9SortOrderEEE14node_constructEPNS7_4NodeERKS6_ 0x00038218   Section       34  qmessagefoldersortorder_symbian.o(t._ZN5QListI5QPairIN10QtMobility30QMessageFolderSortOrderPrivate5FieldEN2Qt9SortOrderEEE14node_constructEPNS7_4NodeERKS6_)
    t._ZN5QListI5QPairIN10QtMobility30QMessageFolderSortOrderPrivate5FieldEN2Qt9SortOrderEEE14node_constructEPNS7_4NodeERKS6_.clean 0x0003823a   Section        4  qmessagefoldersortorder_symbian.o(t._ZN5QListI5QPairIN10QtMobility30QMessageFolderSortOrderPrivate5FieldEN2Qt9SortOrderEEE14node_constructEPNS7_4NodeERKS6_.clean)
    t._ZN5QListI5QPairIN10QtMobility30QMessageFolderSortOrderPrivate5FieldEN2Qt9SortOrderEEE18detach_helper_growEii 0x0003823e   Section      208  qmessagefoldersortorder_symbian.o(t._ZN5QListI5QPairIN10QtMobility30QMessageFolderSortOrderPrivate5FieldEN2Qt9SortOrderEEE18detach_helper_growEii)
    t._ZN5QListI5QPairIN10QtMobility30QMessageFolderSortOrderPrivate5FieldEN2Qt9SortOrderEEE18detach_helper_growEii.clean 0x0003830e   Section       16  qmessagefoldersortorder_symbian.o(t._ZN5QListI5QPairIN10QtMobility30QMessageFolderSortOrderPrivate5FieldEN2Qt9SortOrderEEE18detach_helper_growEii.clean)
    t._ZN5QListI5QPairIN10QtMobility30QMessageFolderSortOrderPrivate5FieldEN2Qt9SortOrderEEE4freeEPN9QListData4DataE 0x0003831e   Section       58  qmessagefoldersortorder_symbian.o(t._ZN5QListI5QPairIN10QtMobility30QMessageFolderSortOrderPrivate5FieldEN2Qt9SortOrderEEE4freeEPN9QListData4DataE)
    t._ZN5QListI5QPairIN10QtMobility30QMessageFolderSortOrderPrivate5FieldEN2Qt9SortOrderEEE6appendERKS6_ 0x00038358   Section      112  qmessagefoldersortorder_symbian.o(t._ZN5QListI5QPairIN10QtMobility30QMessageFolderSortOrderPrivate5FieldEN2Qt9SortOrderEEE6appendERKS6_)
    t._ZN5QListI5QPairIN10QtMobility30QMessageFolderSortOrderPrivate5FieldEN2Qt9SortOrderEEE6appendERKS6_.clean 0x000383c8   Section       14  qmessagefoldersortorder_symbian.o(t._ZN5QListI5QPairIN10QtMobility30QMessageFolderSortOrderPrivate5FieldEN2Qt9SortOrderEEE6appendERKS6_.clean)
    t._ZN5QListI5QPairIN10QtMobility30QMessageFolderSortOrderPrivate5FieldEN2Qt9SortOrderEEE6detachEv 0x000383d6   Section       24  qmessagefoldersortorder_symbian.o(t._ZN5QListI5QPairIN10QtMobility30QMessageFolderSortOrderPrivate5FieldEN2Qt9SortOrderEEE6detachEv)
    t._ZN5QListI5QPairIN10QtMobility30QMessageFolderSortOrderPrivate5FieldEN2Qt9SortOrderEEE9node_copyEPNS7_4NodeES9_S9_ 0x000383ee   Section       80  qmessagefoldersortorder_symbian.o(t._ZN5QListI5QPairIN10QtMobility30QMessageFolderSortOrderPrivate5FieldEN2Qt9SortOrderEEE9node_copyEPNS7_4NodeES9_S9_)
    t._ZN5QListI5QPairIN10QtMobility30QMessageFolderSortOrderPrivate5FieldEN2Qt9SortOrderEEE9node_copyEPNS7_4NodeES9_S9_.clean 0x0003843e   Section       22  qmessagefoldersortorder_symbian.o(t._ZN5QListI5QPairIN10QtMobility30QMessageFolderSortOrderPrivate5FieldEN2Qt9SortOrderEEE9node_copyEPNS7_4NodeES9_S9_.clean)
    t._ZN5QListI5QPairIN10QtMobility30QMessageFolderSortOrderPrivate5FieldEN2Qt9SortOrderEEED1Ev 0x00038454   Section       32  qmessagefoldersortorder_symbian.o(t._ZN5QListI5QPairIN10QtMobility30QMessageFolderSortOrderPrivate5FieldEN2Qt9SortOrderEEED1Ev)
    t._ZN5QListI5QPairIN10QtMobility30QMessageFolderSortOrderPrivate5FieldEN2Qt9SortOrderEEEaSERKS7_ 0x00038474   Section       64  qmessagefoldersortorder_symbian.o(t._ZN5QListI5QPairIN10QtMobility30QMessageFolderSortOrderPrivate5FieldEN2Qt9SortOrderEEEaSERKS7_)
    t._ZN5QListI5QPairIN10QtMobility30QMessageFolderSortOrderPrivate5FieldEN2Qt9SortOrderEEEpLERKS7_ 0x000384b4   Section      160  qmessagefoldersortorder_symbian.o(t._ZN5QListI5QPairIN10QtMobility30QMessageFolderSortOrderPrivate5FieldEN2Qt9SortOrderEEEpLERKS7_)
    t._ZN5QListI5QPairIN10QtMobility30QMessageFolderSortOrderPrivate5FieldEN2Qt9SortOrderEEEpLERKS7_.clean 0x00038554   Section        8  qmessagefoldersortorder_symbian.o(t._ZN5QListI5QPairIN10QtMobility30QMessageFolderSortOrderPrivate5FieldEN2Qt9SortOrderEEEpLERKS7_.clean)
    t._ZN5QListI7QStringE13detach_helperEi   0x0003855c   Section       94  qmessage_symbian.o(t._ZN5QListI7QStringE13detach_helperEi)
    t._ZN5QListI7QStringE13detach_helperEi.clean 0x000385ba   Section        8  qmessage_symbian.o(t._ZN5QListI7QStringE13detach_helperEi.clean)
    t._ZN5QListI7QStringE13detach_helperEv   0x000385c2   Section       16  qmessage_symbian.o(t._ZN5QListI7QStringE13detach_helperEv)
    t._ZN5QListI7QStringE13node_destructEPNS1_4NodeES3_ 0x000385d2   Section       26  qmtmengine_symbian.o(t._ZN5QListI7QStringE13node_destructEPNS1_4NodeES3_)
    t._ZN5QListI7QStringE14node_constructEPNS1_4NodeERKS0_ 0x000385ec   Section       36  qmtmengine_symbian.o(t._ZN5QListI7QStringE14node_constructEPNS1_4NodeERKS0_)
    t._ZN5QListI7QStringE14node_constructEPNS1_4NodeERKS0_.clean 0x00038610   Section       14  qmtmengine_symbian.o(t._ZN5QListI7QStringE14node_constructEPNS1_4NodeERKS0_.clean)
    t._ZN5QListI7QStringE18detach_helper_growEii 0x0003861e   Section      208  qmtmengine_symbian.o(t._ZN5QListI7QStringE18detach_helper_growEii)
    t._ZN5QListI7QStringE18detach_helper_growEii.clean 0x000386ee   Section       16  qmtmengine_symbian.o(t._ZN5QListI7QStringE18detach_helper_growEii.clean)
    t._ZN5QListI7QStringE4freeEPN9QListData4DataE 0x000386fe   Section       52  qmtmengine_symbian.o(t._ZN5QListI7QStringE4freeEPN9QListData4DataE)
    t._ZN5QListI7QStringE6appendERKS0_       0x00038734   Section      120  qmtmengine_symbian.o(t._ZN5QListI7QStringE6appendERKS0_)
    t._ZN5QListI7QStringE6appendERKS0_.clean 0x000387ac   Section       14  qmtmengine_symbian.o(t._ZN5QListI7QStringE6appendERKS0_.clean)
    t._ZN5QListI7QStringE6detachEv           0x000387ba   Section       24  qfsengine_symbian.o(t._ZN5QListI7QStringE6detachEv)
    t._ZN5QListI7QStringE7reserveEi          0x000387d2   Section       46  maemohelpers.o(t._ZN5QListI7QStringE7reserveEi)
    t._ZN5QListI7QStringE9node_copyEPNS1_4NodeES3_S3_ 0x00038800   Section       82  qmtmengine_symbian.o(t._ZN5QListI7QStringE9node_copyEPNS1_4NodeES3_S3_)
    t._ZN5QListI7QStringE9node_copyEPNS1_4NodeES3_S3_.clean 0x00038852   Section       22  qmtmengine_symbian.o(t._ZN5QListI7QStringE9node_copyEPNS1_4NodeES3_S3_.clean)
    t._ZN5QListI7QStringE9removeOneERKS0_    0x00038868   Section      112  qfsengine_symbian.o(t._ZN5QListI7QStringE9removeOneERKS0_)
    t._ZN5QListI7QStringEC1Ev                0x000388d8   Section       24  qfsengine_symbian.o(t._ZN5QListI7QStringEC1Ev)
    t._ZN5QListI7QStringED1Ev                0x000388f0   Section       32  qmtmengine_symbian.o(t._ZN5QListI7QStringED1Ev)
    t._ZN5QListIN10QtMobility10QMessageIdEE13detach_helperEi 0x00038910   Section       94  qmtmengine_symbian.o(t._ZN5QListIN10QtMobility10QMessageIdEE13detach_helperEi)
    t._ZN5QListIN10QtMobility10QMessageIdEE13detach_helperEi.clean 0x0003896e   Section        8  qmtmengine_symbian.o(t._ZN5QListIN10QtMobility10QMessageIdEE13detach_helperEi.clean)
    t._ZN5QListIN10QtMobility10QMessageIdEE13detach_helperEv 0x00038976   Section       16  qmtmengine_symbian.o(t._ZN5QListIN10QtMobility10QMessageIdEE13detach_helperEv)
    t._ZN5QListIN10QtMobility10QMessageIdEE13node_destructEPNS2_4NodeE 0x00038986   Section       28  qmtmengine_symbian.o(t._ZN5QListIN10QtMobility10QMessageIdEE13node_destructEPNS2_4NodeE)
    t._ZN5QListIN10QtMobility10QMessageIdEE13node_destructEPNS2_4NodeES4_ 0x000389a2   Section       38  qmtmengine_symbian.o(t._ZN5QListIN10QtMobility10QMessageIdEE13node_destructEPNS2_4NodeES4_)
    t._ZN5QListIN10QtMobility10QMessageIdEE14node_constructEPNS2_4NodeERKS1_ 0x000389c8   Section       34  qmtmengine_symbian.o(t._ZN5QListIN10QtMobility10QMessageIdEE14node_constructEPNS2_4NodeERKS1_)
    t._ZN5QListIN10QtMobility10QMessageIdEE14node_constructEPNS2_4NodeERKS1_.clean 0x000389ea   Section       14  qmtmengine_symbian.o(t._ZN5QListIN10QtMobility10QMessageIdEE14node_constructEPNS2_4NodeERKS1_.clean)
    t._ZN5QListIN10QtMobility10QMessageIdEE18detach_helper_growEii 0x000389f8   Section      208  qmtmengine_symbian.o(t._ZN5QListIN10QtMobility10QMessageIdEE18detach_helper_growEii)
    t._ZN5QListIN10QtMobility10QMessageIdEE18detach_helper_growEii.clean 0x00038ac8   Section       16  qmtmengine_symbian.o(t._ZN5QListIN10QtMobility10QMessageIdEE18detach_helper_growEii.clean)
    t._ZN5QListIN10QtMobility10QMessageIdEE4freeEPN9QListData4DataE 0x00038ad8   Section       52  qmtmengine_symbian.o(t._ZN5QListIN10QtMobility10QMessageIdEE4freeEPN9QListData4DataE)
    t._ZN5QListIN10QtMobility10QMessageIdEE5beginEv 0x00038b0c   Section       26  maemohelpers.o(t._ZN5QListIN10QtMobility10QMessageIdEE5beginEv)
    t._ZN5QListIN10QtMobility10QMessageIdEE5clearEv 0x00038b26   Section       28  qmtmengine_symbian.o(t._ZN5QListIN10QtMobility10QMessageIdEE5clearEv)
    t._ZN5QListIN10QtMobility10QMessageIdEE5clearEv.clean 0x00038b42   Section       10  qmtmengine_symbian.o(t._ZN5QListIN10QtMobility10QMessageIdEE5clearEv.clean)
    t._ZN5QListIN10QtMobility10QMessageIdEE6appendERKS1_ 0x00038b4c   Section      112  qmtmengine_symbian.o(t._ZN5QListIN10QtMobility10QMessageIdEE6appendERKS1_)
    t._ZN5QListIN10QtMobility10QMessageIdEE6appendERKS1_.clean 0x00038bbc   Section       14  qmtmengine_symbian.o(t._ZN5QListIN10QtMobility10QMessageIdEE6appendERKS1_.clean)
    t._ZN5QListIN10QtMobility10QMessageIdEE6detachEv 0x00038bca   Section       24  qmtmengine_symbian.o(t._ZN5QListIN10QtMobility10QMessageIdEE6detachEv)
    t._ZN5QListIN10QtMobility10QMessageIdEE8removeAtEi 0x00038be2   Section       54  qmtmengine_symbian.o(t._ZN5QListIN10QtMobility10QMessageIdEE8removeAtEi)
    t._ZN5QListIN10QtMobility10QMessageIdEE9node_copyEPNS2_4NodeES4_S4_ 0x00038c18   Section       92  qmtmengine_symbian.o(t._ZN5QListIN10QtMobility10QMessageIdEE9node_copyEPNS2_4NodeES4_S4_)
    t._ZN5QListIN10QtMobility10QMessageIdEE9node_copyEPNS2_4NodeES4_S4_.clean 0x00038c74   Section       22  qmtmengine_symbian.o(t._ZN5QListIN10QtMobility10QMessageIdEE9node_copyEPNS2_4NodeES4_S4_.clean)
    t._ZN5QListIN10QtMobility10QMessageIdEEC1ERKS2_ 0x00038c8a   Section       36  qmtmengine_symbian.o(t._ZN5QListIN10QtMobility10QMessageIdEEC1ERKS2_)
    t._ZN5QListIN10QtMobility10QMessageIdEEC1Ev 0x00038cb0   Section       24  qmtmengine_symbian.o(t._ZN5QListIN10QtMobility10QMessageIdEEC1Ev)
    t._ZN5QListIN10QtMobility10QMessageIdEED1Ev 0x00038cc8   Section       32  qmtmengine_symbian.o(t._ZN5QListIN10QtMobility10QMessageIdEED1Ev)
    t._ZN5QListIN10QtMobility10QMessageIdEEaSERKS2_ 0x00038ce8   Section       64  qmtmengine_symbian.o(t._ZN5QListIN10QtMobility10QMessageIdEEaSERKS2_)
    t._ZN5QListIN10QtMobility10QMessageIdEEixEi 0x00038d28   Section       28  qmtmengine_symbian.o(t._ZN5QListIN10QtMobility10QMessageIdEEixEi)
    t._ZN5QListIN10QtMobility10QMessageIdEEpLERKS2_ 0x00038d44   Section      156  qmtmengine_symbian.o(t._ZN5QListIN10QtMobility10QMessageIdEEpLERKS2_)
    t._ZN5QListIN10QtMobility10QMessageIdEEpLERKS2_.clean 0x00038de0   Section        8  qmtmengine_symbian.o(t._ZN5QListIN10QtMobility10QMessageIdEEpLERKS2_.clean)
    t._ZN5QListIN10QtMobility11PendingSendEE13detach_helperEi 0x00038de8   Section       94  qmtmengine_symbian.o(t._ZN5QListIN10QtMobility11PendingSendEE13detach_helperEi)
    t._ZN5QListIN10QtMobility11PendingSendEE13detach_helperEi.clean 0x00038e46   Section        8  qmtmengine_symbian.o(t._ZN5QListIN10QtMobility11PendingSendEE13detach_helperEi.clean)
    t._ZN5QListIN10QtMobility11PendingSendEE13detach_helperEv 0x00038e4e   Section       16  qmtmengine_symbian.o(t._ZN5QListIN10QtMobility11PendingSendEE13detach_helperEv)
    t._ZN5QListIN10QtMobility11PendingSendEE13node_destructEPNS2_4NodeES4_ 0x00038e5e   Section       26  qmtmengine_symbian.o(t._ZN5QListIN10QtMobility11PendingSendEE13node_destructEPNS2_4NodeES4_)
    t._ZN5QListIN10QtMobility11PendingSendEE14node_constructEPNS2_4NodeERKS1_ 0x00038e78   Section       32  qmtmengine_symbian.o(t._ZN5QListIN10QtMobility11PendingSendEE14node_constructEPNS2_4NodeERKS1_)
    t._ZN5QListIN10QtMobility11PendingSendEE18detach_helper_growEii 0x00038e98   Section      208  qmtmengine_symbian.o(t._ZN5QListIN10QtMobility11PendingSendEE18detach_helper_growEii)
    t._ZN5QListIN10QtMobility11PendingSendEE18detach_helper_growEii.clean 0x00038f68   Section       16  qmtmengine_symbian.o(t._ZN5QListIN10QtMobility11PendingSendEE18detach_helper_growEii.clean)
    t._ZN5QListIN10QtMobility11PendingSendEE4freeEPN9QListData4DataE 0x00038f78   Section       52  qmtmengine_symbian.o(t._ZN5QListIN10QtMobility11PendingSendEE4freeEPN9QListData4DataE)
    t._ZN5QListIN10QtMobility11PendingSendEE6appendERKS1_ 0x00038fac   Section      112  qmtmengine_symbian.o(t._ZN5QListIN10QtMobility11PendingSendEE6appendERKS1_)
    t._ZN5QListIN10QtMobility11PendingSendEE6appendERKS1_.clean 0x0003901c   Section       14  qmtmengine_symbian.o(t._ZN5QListIN10QtMobility11PendingSendEE6appendERKS1_.clean)
    t._ZN5QListIN10QtMobility11PendingSendEE6detachEv 0x0003902a   Section       24  qmtmengine_symbian.o(t._ZN5QListIN10QtMobility11PendingSendEE6detachEv)
    t._ZN5QListIN10QtMobility11PendingSendEE8removeAtEi 0x00039042   Section       56  qmtmengine_symbian.o(t._ZN5QListIN10QtMobility11PendingSendEE8removeAtEi)
    t._ZN5QListIN10QtMobility11PendingSendEE9node_copyEPNS2_4NodeES4_S4_ 0x0003907a   Section       78  qmtmengine_symbian.o(t._ZN5QListIN10QtMobility11PendingSendEE9node_copyEPNS2_4NodeES4_S4_)
    t._ZN5QListIN10QtMobility11PendingSendEE9node_copyEPNS2_4NodeES4_S4_.clean 0x000390c8   Section        8  qmtmengine_symbian.o(t._ZN5QListIN10QtMobility11PendingSendEE9node_copyEPNS2_4NodeES4_S4_.clean)
    t._ZN5QListIN10QtMobility11PendingSendEED1Ev 0x000390d0   Section       32  qmtmengine_symbian.o(t._ZN5QListIN10QtMobility11PendingSendEED1Ev)
    t._ZN5QListIN10QtMobility11PendingSendEEixEi 0x000390f0   Section       28  qmtmengine_symbian.o(t._ZN5QListIN10QtMobility11PendingSendEEixEi)
    t._ZN5QListIN10QtMobility12MessageEventEE11removeFirstEv 0x0003910c   Section       56  qmtmengine_symbian.o(t._ZN5QListIN10QtMobility12MessageEventEE11removeFirstEv)
    t._ZN5QListIN10QtMobility12MessageEventEE13detach_helperEi 0x00039144   Section       94  qmtmengine_symbian.o(t._ZN5QListIN10QtMobility12MessageEventEE13detach_helperEi)
    t._ZN5QListIN10QtMobility12MessageEventEE13detach_helperEi.clean 0x000391a2   Section        8  qmtmengine_symbian.o(t._ZN5QListIN10QtMobility12MessageEventEE13detach_helperEi.clean)
    t._ZN5QListIN10QtMobility12MessageEventEE13detach_helperEv 0x000391aa   Section       16  qmtmengine_symbian.o(t._ZN5QListIN10QtMobility12MessageEventEE13detach_helperEv)
    t._ZN5QListIN10QtMobility12MessageEventEE13node_destructEPNS2_4NodeE 0x000391ba   Section       28  qmtmengine_symbian.o(t._ZN5QListIN10QtMobility12MessageEventEE13node_destructEPNS2_4NodeE)
    t._ZN5QListIN10QtMobility12MessageEventEE13node_destructEPNS2_4NodeES4_ 0x000391d6   Section       38  qmtmengine_symbian.o(t._ZN5QListIN10QtMobility12MessageEventEE13node_destructEPNS2_4NodeES4_)
    t._ZN5QListIN10QtMobility12MessageEventEE14node_constructEPNS2_4NodeERKS1_ 0x000391fc   Section       34  qmtmengine_symbian.o(t._ZN5QListIN10QtMobility12MessageEventEE14node_constructEPNS2_4NodeERKS1_)
    t._ZN5QListIN10QtMobility12MessageEventEE14node_constructEPNS2_4NodeERKS1_.clean 0x0003921e   Section       14  qmtmengine_symbian.o(t._ZN5QListIN10QtMobility12MessageEventEE14node_constructEPNS2_4NodeERKS1_.clean)
    t._ZN5QListIN10QtMobility12MessageEventEE18detach_helper_growEii 0x0003922c   Section      208  qmtmengine_symbian.o(t._ZN5QListIN10QtMobility12MessageEventEE18detach_helper_growEii)
    t._ZN5QListIN10QtMobility12MessageEventEE18detach_helper_growEii.clean 0x000392fc   Section       16  qmtmengine_symbian.o(t._ZN5QListIN10QtMobility12MessageEventEE18detach_helper_growEii.clean)
    t._ZN5QListIN10QtMobility12MessageEventEE4freeEPN9QListData4DataE 0x0003930c   Section       52  qmtmengine_symbian.o(t._ZN5QListIN10QtMobility12MessageEventEE4freeEPN9QListData4DataE)
    t._ZN5QListIN10QtMobility12MessageEventEE6appendERKS1_ 0x00039340   Section      112  qmtmengine_symbian.o(t._ZN5QListIN10QtMobility12MessageEventEE6appendERKS1_)
    t._ZN5QListIN10QtMobility12MessageEventEE6appendERKS1_.clean 0x000393b0   Section       14  qmtmengine_symbian.o(t._ZN5QListIN10QtMobility12MessageEventEE6appendERKS1_.clean)
    t._ZN5QListIN10QtMobility12MessageEventEE6detachEv 0x000393be   Section       24  qmtmengine_symbian.o(t._ZN5QListIN10QtMobility12MessageEventEE6detachEv)
    t._ZN5QListIN10QtMobility12MessageEventEE8removeAtEi 0x000393d6   Section       54  qmtmengine_symbian.o(t._ZN5QListIN10QtMobility12MessageEventEE8removeAtEi)
    t._ZN5QListIN10QtMobility12MessageEventEE9node_copyEPNS2_4NodeES4_S4_ 0x0003940c   Section       92  qmtmengine_symbian.o(t._ZN5QListIN10QtMobility12MessageEventEE9node_copyEPNS2_4NodeES4_S4_)
    t._ZN5QListIN10QtMobility12MessageEventEE9node_copyEPNS2_4NodeES4_S4_.clean 0x00039468   Section       22  qmtmengine_symbian.o(t._ZN5QListIN10QtMobility12MessageEventEE9node_copyEPNS2_4NodeES4_S4_.clean)
    t._ZN5QListIN10QtMobility12MessageEventEEC1Ev 0x00039480   Section       24  qmtmengine_symbian.o(t._ZN5QListIN10QtMobility12MessageEventEEC1Ev)
    t._ZN5QListIN10QtMobility12MessageEventEED1Ev 0x00039498   Section       32  qmtmengine_symbian.o(t._ZN5QListIN10QtMobility12MessageEventEED1Ev)
    t._ZN5QListIN10QtMobility12MessageEventEEixEi 0x000394b8   Section       28  qmtmengine_symbian.o(t._ZN5QListIN10QtMobility12MessageEventEEixEi)
    t._ZN5QListIN10QtMobility14QMessageFilterEE13detach_helperEi 0x000394d4   Section       94  qmtmengine_symbian.o(t._ZN5QListIN10QtMobility14QMessageFilterEE13detach_helperEi)
    t._ZN5QListIN10QtMobility14QMessageFilterEE13detach_helperEi.clean 0x00039532   Section        8  qmtmengine_symbian.o(t._ZN5QListIN10QtMobility14QMessageFilterEE13detach_helperEi.clean)
    t._ZN5QListIN10QtMobility14QMessageFilterEE13detach_helperEv 0x0003953a   Section       16  qmtmengine_symbian.o(t._ZN5QListIN10QtMobility14QMessageFilterEE13detach_helperEv)
    t._ZN5QListIN10QtMobility14QMessageFilterEE13node_destructEPNS2_4NodeE 0x0003954a   Section       26  qmtmengine_symbian.o(t._ZN5QListIN10QtMobility14QMessageFilterEE13node_destructEPNS2_4NodeE)
    t._ZN5QListIN10QtMobility14QMessageFilterEE13node_destructEPNS2_4NodeES4_ 0x00039564   Section       36  qmtmengine_symbian.o(t._ZN5QListIN10QtMobility14QMessageFilterEE13node_destructEPNS2_4NodeES4_)
    t._ZN5QListIN10QtMobility14QMessageFilterEE14node_constructEPNS2_4NodeERKS1_ 0x00039588   Section       34  qmtmengine_symbian.o(t._ZN5QListIN10QtMobility14QMessageFilterEE14node_constructEPNS2_4NodeERKS1_)
    t._ZN5QListIN10QtMobility14QMessageFilterEE14node_constructEPNS2_4NodeERKS1_.clean 0x000395aa   Section       14  qmtmengine_symbian.o(t._ZN5QListIN10QtMobility14QMessageFilterEE14node_constructEPNS2_4NodeERKS1_.clean)
    t._ZN5QListIN10QtMobility14QMessageFilterEE18detach_helper_growEii 0x000395b8   Section      208  qmtmengine_symbian.o(t._ZN5QListIN10QtMobility14QMessageFilterEE18detach_helper_growEii)
    t._ZN5QListIN10QtMobility14QMessageFilterEE18detach_helper_growEii.clean 0x00039688   Section       16  qmtmengine_symbian.o(t._ZN5QListIN10QtMobility14QMessageFilterEE18detach_helper_growEii.clean)
    t._ZN5QListIN10QtMobility14QMessageFilterEE3endEv 0x00039698   Section       26  qmtmengine_symbian.o(t._ZN5QListIN10QtMobility14QMessageFilterEE3endEv)
    t._ZN5QListIN10QtMobility14QMessageFilterEE4freeEPN9QListData4DataE 0x000396b2   Section       52  qmtmengine_symbian.o(t._ZN5QListIN10QtMobility14QMessageFilterEE4freeEPN9QListData4DataE)
    t._ZN5QListIN10QtMobility14QMessageFilterEE5beginEv 0x000396e6   Section       26  qmtmengine_symbian.o(t._ZN5QListIN10QtMobility14QMessageFilterEE5beginEv)
    t._ZN5QListIN10QtMobility14QMessageFilterEE5clearEv 0x00039700   Section       76  qmtmengine_symbian.o(t._ZN5QListIN10QtMobility14QMessageFilterEE5clearEv)
    t._ZN5QListIN10QtMobility14QMessageFilterEE5clearEv.clean 0x0003974c   Section       10  qmtmengine_symbian.o(t._ZN5QListIN10QtMobility14QMessageFilterEE5clearEv.clean)
    t._ZN5QListIN10QtMobility14QMessageFilterEE6appendERKS1_ 0x00039758   Section      112  qmtmengine_symbian.o(t._ZN5QListIN10QtMobility14QMessageFilterEE6appendERKS1_)
    t._ZN5QListIN10QtMobility14QMessageFilterEE6appendERKS1_.clean 0x000397c8   Section       14  qmtmengine_symbian.o(t._ZN5QListIN10QtMobility14QMessageFilterEE6appendERKS1_.clean)
    t._ZN5QListIN10QtMobility14QMessageFilterEE6detachEv 0x000397d6   Section       24  qmtmengine_symbian.o(t._ZN5QListIN10QtMobility14QMessageFilterEE6detachEv)
    t._ZN5QListIN10QtMobility14QMessageFilterEE8removeAtEi 0x000397ee   Section       54  qmtmengine_symbian.o(t._ZN5QListIN10QtMobility14QMessageFilterEE8removeAtEi)
    t._ZN5QListIN10QtMobility14QMessageFilterEE9node_copyEPNS2_4NodeES4_S4_ 0x00039824   Section       90  qmtmengine_symbian.o(t._ZN5QListIN10QtMobility14QMessageFilterEE9node_copyEPNS2_4NodeES4_S4_)
    t._ZN5QListIN10QtMobility14QMessageFilterEE9node_copyEPNS2_4NodeES4_S4_.clean 0x0003987e   Section       22  qmtmengine_symbian.o(t._ZN5QListIN10QtMobility14QMessageFilterEE9node_copyEPNS2_4NodeES4_S4_.clean)
    t._ZN5QListIN10QtMobility14QMessageFilterEEC1ERKS2_ 0x00039894   Section       36  qmtmengine_symbian.o(t._ZN5QListIN10QtMobility14QMessageFilterEEC1ERKS2_)
    t._ZN5QListIN10QtMobility14QMessageFilterEEC1Ev 0x000398b8   Section       24  qmtmengine_symbian.o(t._ZN5QListIN10QtMobility14QMessageFilterEEC1Ev)
    t._ZN5QListIN10QtMobility14QMessageFilterEED1Ev 0x000398d0   Section       32  qmtmengine_symbian.o(t._ZN5QListIN10QtMobility14QMessageFilterEED1Ev)
    t._ZN5QListIN10QtMobility14QMessageFilterEEixEi 0x000398f0   Section       28  qmtmengine_symbian.o(t._ZN5QListIN10QtMobility14QMessageFilterEEixEi)
    t._ZN5QListIN10QtMobility14QMessageFilterEElsERKS1_ 0x0003990c   Section       18  qmessagefilter_symbian.o(t._ZN5QListIN10QtMobility14QMessageFilterEElsERKS1_)
    t._ZN5QListIN10QtMobility14QMessageFilterEEpLERKS2_ 0x00039920   Section      204  qmessagefilter_symbian.o(t._ZN5QListIN10QtMobility14QMessageFilterEEpLERKS2_)
    t._ZN5QListIN10QtMobility14QMessageFilterEEpLERKS2_.clean 0x000399ec   Section        8  qmessagefilter_symbian.o(t._ZN5QListIN10QtMobility14QMessageFilterEEpLERKS2_.clean)
    t._ZN5QListIN10QtMobility15QMessageAccountEE13detach_helperEi 0x000399f4   Section       94  qfsengine_symbian.o(t._ZN5QListIN10QtMobility15QMessageAccountEE13detach_helperEi)
    t._ZN5QListIN10QtMobility15QMessageAccountEE13detach_helperEi.clean 0x00039a52   Section        8  qfsengine_symbian.o(t._ZN5QListIN10QtMobility15QMessageAccountEE13detach_helperEi.clean)
    t._ZN5QListIN10QtMobility15QMessageAccountEE13detach_helperEv 0x00039a5a   Section       16  qfsengine_symbian.o(t._ZN5QListIN10QtMobility15QMessageAccountEE13detach_helperEv)
    t._ZN5QListIN10QtMobility15QMessageAccountEE13node_destructEPNS2_4NodeES4_ 0x00039a6a   Section       36  qfsengine_symbian.o(t._ZN5QListIN10QtMobility15QMessageAccountEE13node_destructEPNS2_4NodeES4_)
    t._ZN5QListIN10QtMobility15QMessageAccountEE14node_constructEPNS2_4NodeERKS1_ 0x00039a8e   Section       34  qfsengine_symbian.o(t._ZN5QListIN10QtMobility15QMessageAccountEE14node_constructEPNS2_4NodeERKS1_)
    t._ZN5QListIN10QtMobility15QMessageAccountEE14node_constructEPNS2_4NodeERKS1_.clean 0x00039ab0   Section       14  qfsengine_symbian.o(t._ZN5QListIN10QtMobility15QMessageAccountEE14node_constructEPNS2_4NodeERKS1_.clean)
    t._ZN5QListIN10QtMobility15QMessageAccountEE18detach_helper_growEii 0x00039abe   Section      208  qfsengine_symbian.o(t._ZN5QListIN10QtMobility15QMessageAccountEE18detach_helper_growEii)
    t._ZN5QListIN10QtMobility15QMessageAccountEE18detach_helper_growEii.clean 0x00039b8e   Section       16  qfsengine_symbian.o(t._ZN5QListIN10QtMobility15QMessageAccountEE18detach_helper_growEii.clean)
    t._ZN5QListIN10QtMobility15QMessageAccountEE4freeEPN9QListData4DataE 0x00039b9e   Section       52  qfsengine_symbian.o(t._ZN5QListIN10QtMobility15QMessageAccountEE4freeEPN9QListData4DataE)
    t._ZN5QListIN10QtMobility15QMessageAccountEE6appendERKS1_ 0x00039bd4   Section      112  qfsengine_symbian.o(t._ZN5QListIN10QtMobility15QMessageAccountEE6appendERKS1_)
    t._ZN5QListIN10QtMobility15QMessageAccountEE6appendERKS1_.clean 0x00039c44   Section       14  qfsengine_symbian.o(t._ZN5QListIN10QtMobility15QMessageAccountEE6appendERKS1_.clean)
    t._ZN5QListIN10QtMobility15QMessageAccountEE7reserveEi 0x00039c52   Section       46  qfsengine_symbian.o(t._ZN5QListIN10QtMobility15QMessageAccountEE7reserveEi)
    t._ZN5QListIN10QtMobility15QMessageAccountEE9node_copyEPNS2_4NodeES4_S4_ 0x00039c80   Section       90  qfsengine_symbian.o(t._ZN5QListIN10QtMobility15QMessageAccountEE9node_copyEPNS2_4NodeES4_S4_)
    t._ZN5QListIN10QtMobility15QMessageAccountEE9node_copyEPNS2_4NodeES4_S4_.clean 0x00039cda   Section       22  qfsengine_symbian.o(t._ZN5QListIN10QtMobility15QMessageAccountEE9node_copyEPNS2_4NodeES4_S4_.clean)
    t._ZN5QListIN10QtMobility15QMessageAccountEED1Ev 0x00039cf0   Section       32  qfsengine_symbian.o(t._ZN5QListIN10QtMobility15QMessageAccountEED1Ev)
    t._ZN5QListIN10QtMobility15QMessageAddressEE13detach_helperEi 0x00039d10   Section       94  qmtmengine_symbian.o(t._ZN5QListIN10QtMobility15QMessageAddressEE13detach_helperEi)
    t._ZN5QListIN10QtMobility15QMessageAddressEE13detach_helperEi.clean 0x00039d6e   Section        8  qmtmengine_symbian.o(t._ZN5QListIN10QtMobility15QMessageAddressEE13detach_helperEi.clean)
    t._ZN5QListIN10QtMobility15QMessageAddressEE13detach_helperEv 0x00039d76   Section       16  qmtmengine_symbian.o(t._ZN5QListIN10QtMobility15QMessageAddressEE13detach_helperEv)
    t._ZN5QListIN10QtMobility15QMessageAddressEE13node_destructEPNS2_4NodeES4_ 0x00039d86   Section       36  qmtmengine_symbian.o(t._ZN5QListIN10QtMobility15QMessageAddressEE13node_destructEPNS2_4NodeES4_)
    t._ZN5QListIN10QtMobility15QMessageAddressEE14node_constructEPNS2_4NodeERKS1_ 0x00039daa   Section       34  qmtmengine_symbian.o(t._ZN5QListIN10QtMobility15QMessageAddressEE14node_constructEPNS2_4NodeERKS1_)
    t._ZN5QListIN10QtMobility15QMessageAddressEE14node_constructEPNS2_4NodeERKS1_.clean 0x00039dcc   Section       14  qmtmengine_symbian.o(t._ZN5QListIN10QtMobility15QMessageAddressEE14node_constructEPNS2_4NodeERKS1_.clean)
    t._ZN5QListIN10QtMobility15QMessageAddressEE18detach_helper_growEii 0x00039dda   Section      208  qmtmengine_symbian.o(t._ZN5QListIN10QtMobility15QMessageAddressEE18detach_helper_growEii)
    t._ZN5QListIN10QtMobility15QMessageAddressEE18detach_helper_growEii.clean 0x00039eaa   Section       16  qmtmengine_symbian.o(t._ZN5QListIN10QtMobility15QMessageAddressEE18detach_helper_growEii.clean)
    t._ZN5QListIN10QtMobility15QMessageAddressEE4freeEPN9QListData4DataE 0x00039eba   Section       52  qmtmengine_symbian.o(t._ZN5QListIN10QtMobility15QMessageAddressEE4freeEPN9QListData4DataE)
    t._ZN5QListIN10QtMobility15QMessageAddressEE6appendERKS1_ 0x00039ef0   Section      112  qmtmengine_symbian.o(t._ZN5QListIN10QtMobility15QMessageAddressEE6appendERKS1_)
    t._ZN5QListIN10QtMobility15QMessageAddressEE6appendERKS1_.clean 0x00039f60   Section       14  qmtmengine_symbian.o(t._ZN5QListIN10QtMobility15QMessageAddressEE6appendERKS1_.clean)
    t._ZN5QListIN10QtMobility15QMessageAddressEE9node_copyEPNS2_4NodeES4_S4_ 0x00039f6e   Section       90  qmtmengine_symbian.o(t._ZN5QListIN10QtMobility15QMessageAddressEE9node_copyEPNS2_4NodeES4_S4_)
    t._ZN5QListIN10QtMobility15QMessageAddressEE9node_copyEPNS2_4NodeES4_S4_.clean 0x00039fc8   Section       22  qmtmengine_symbian.o(t._ZN5QListIN10QtMobility15QMessageAddressEE9node_copyEPNS2_4NodeES4_S4_.clean)
    t._ZN5QListIN10QtMobility15QMessageAddressEEC1ERKS2_ 0x00039fde   Section       36  qmtmengine_symbian.o(t._ZN5QListIN10QtMobility15QMessageAddressEEC1ERKS2_)
    t._ZN5QListIN10QtMobility15QMessageAddressEEC1Ev 0x0003a004   Section       24  qmtmengine_symbian.o(t._ZN5QListIN10QtMobility15QMessageAddressEEC1Ev)
    t._ZN5QListIN10QtMobility15QMessageAddressEED1Ev 0x0003a01c   Section       32  qmtmengine_symbian.o(t._ZN5QListIN10QtMobility15QMessageAddressEED1Ev)
    t._ZN5QListIN10QtMobility15QMessageAddressEEaSERKS2_ 0x0003a03c   Section       64  qmessage_symbian.o(t._ZN5QListIN10QtMobility15QMessageAddressEEaSERKS2_)
    t._ZN5QListIN10QtMobility15QMessageAddressEEixEi 0x0003a07c   Section       42  qmessagefilter_symbian.o(t._ZN5QListIN10QtMobility15QMessageAddressEEixEi)
    t._ZN5QListIN10QtMobility15QMessageAddressEEpLERKS2_ 0x0003a0a8   Section      204  qmessagesortorder_symbian.o(t._ZN5QListIN10QtMobility15QMessageAddressEEpLERKS2_)
    t._ZN5QListIN10QtMobility15QMessageAddressEEpLERKS2_.clean 0x0003a174   Section        8  qmessagesortorder_symbian.o(t._ZN5QListIN10QtMobility15QMessageAddressEEpLERKS2_.clean)
    t._ZN5QListIN10QtMobility16MessageQueryInfoEE13detach_helperEi 0x0003a17c   Section       94  qmtmengine_symbian.o(t._ZN5QListIN10QtMobility16MessageQueryInfoEE13detach_helperEi)
    t._ZN5QListIN10QtMobility16MessageQueryInfoEE13detach_helperEi.clean 0x0003a1da   Section        8  qmtmengine_symbian.o(t._ZN5QListIN10QtMobility16MessageQueryInfoEE13detach_helperEi.clean)
    t._ZN5QListIN10QtMobility16MessageQueryInfoEE13detach_helperEv 0x0003a1e2   Section       16  qmtmengine_symbian.o(t._ZN5QListIN10QtMobility16MessageQueryInfoEE13detach_helperEv)
    t._ZN5QListIN10QtMobility16MessageQueryInfoEE13node_destructEPNS2_4NodeE 0x0003a1f2   Section       28  qmtmengine_symbian.o(t._ZN5QListIN10QtMobility16MessageQueryInfoEE13node_destructEPNS2_4NodeE)
    t._ZN5QListIN10QtMobility16MessageQueryInfoEE13node_destructEPNS2_4NodeES4_ 0x0003a20e   Section       38  qmtmengine_symbian.o(t._ZN5QListIN10QtMobility16MessageQueryInfoEE13node_destructEPNS2_4NodeES4_)
    t._ZN5QListIN10QtMobility16MessageQueryInfoEE14node_constructEPNS2_4NodeERKS1_ 0x0003a234   Section       34  qmtmengine_symbian.o(t._ZN5QListIN10QtMobility16MessageQueryInfoEE14node_constructEPNS2_4NodeERKS1_)
    t._ZN5QListIN10QtMobility16MessageQueryInfoEE14node_constructEPNS2_4NodeERKS1_.clean 0x0003a256   Section       14  qmtmengine_symbian.o(t._ZN5QListIN10QtMobility16MessageQueryInfoEE14node_constructEPNS2_4NodeERKS1_.clean)
    t._ZN5QListIN10QtMobility16MessageQueryInfoEE18detach_helper_growEii 0x0003a264   Section      208  qmtmengine_symbian.o(t._ZN5QListIN10QtMobility16MessageQueryInfoEE18detach_helper_growEii)
    t._ZN5QListIN10QtMobility16MessageQueryInfoEE18detach_helper_growEii.clean 0x0003a334   Section       16  qmtmengine_symbian.o(t._ZN5QListIN10QtMobility16MessageQueryInfoEE18detach_helper_growEii.clean)
    t._ZN5QListIN10QtMobility16MessageQueryInfoEE4freeEPN9QListData4DataE 0x0003a344   Section       52  qmtmengine_symbian.o(t._ZN5QListIN10QtMobility16MessageQueryInfoEE4freeEPN9QListData4DataE)
    t._ZN5QListIN10QtMobility16MessageQueryInfoEE6appendERKS1_ 0x0003a378   Section      112  qmtmengine_symbian.o(t._ZN5QListIN10QtMobility16MessageQueryInfoEE6appendERKS1_)
    t._ZN5QListIN10QtMobility16MessageQueryInfoEE6appendERKS1_.clean 0x0003a3e8   Section       14  qmtmengine_symbian.o(t._ZN5QListIN10QtMobility16MessageQueryInfoEE6appendERKS1_.clean)
    t._ZN5QListIN10QtMobility16MessageQueryInfoEE6detachEv 0x0003a3f6   Section       24  qmtmengine_symbian.o(t._ZN5QListIN10QtMobility16MessageQueryInfoEE6detachEv)
    t._ZN5QListIN10QtMobility16MessageQueryInfoEE8removeAtEi 0x0003a40e   Section       54  qmtmengine_symbian.o(t._ZN5QListIN10QtMobility16MessageQueryInfoEE8removeAtEi)
    t._ZN5QListIN10QtMobility16MessageQueryInfoEE9node_copyEPNS2_4NodeES4_S4_ 0x0003a444   Section       92  qmtmengine_symbian.o(t._ZN5QListIN10QtMobility16MessageQueryInfoEE9node_copyEPNS2_4NodeES4_S4_)
    t._ZN5QListIN10QtMobility16MessageQueryInfoEE9node_copyEPNS2_4NodeES4_S4_.clean 0x0003a4a0   Section       22  qmtmengine_symbian.o(t._ZN5QListIN10QtMobility16MessageQueryInfoEE9node_copyEPNS2_4NodeES4_S4_.clean)
    t._ZN5QListIN10QtMobility16MessageQueryInfoEED1Ev 0x0003a4b6   Section       32  qmtmengine_symbian.o(t._ZN5QListIN10QtMobility16MessageQueryInfoEED1Ev)
    t._ZN5QListIN10QtMobility16MessageQueryInfoEEixEi 0x0003a4d6   Section       28  qmtmengine_symbian.o(t._ZN5QListIN10QtMobility16MessageQueryInfoEEixEi)
    t._ZN5QListIN10QtMobility16QMessageFolderIdEE13detach_helperEi 0x0003a4f2   Section       94  qmtmengine_symbian.o(t._ZN5QListIN10QtMobility16QMessageFolderIdEE13detach_helperEi)
    t._ZN5QListIN10QtMobility16QMessageFolderIdEE13detach_helperEi.clean 0x0003a550   Section        8  qmtmengine_symbian.o(t._ZN5QListIN10QtMobility16QMessageFolderIdEE13detach_helperEi.clean)
    t._ZN5QListIN10QtMobility16QMessageFolderIdEE13detach_helperEv 0x0003a558   Section       16  qmtmengine_symbian.o(t._ZN5QListIN10QtMobility16QMessageFolderIdEE13detach_helperEv)
    t._ZN5QListIN10QtMobility16QMessageFolderIdEE13node_destructEPNS2_4NodeE 0x0003a568   Section       28  qmtmengine_symbian.o(t._ZN5QListIN10QtMobility16QMessageFolderIdEE13node_destructEPNS2_4NodeE)
    t._ZN5QListIN10QtMobility16QMessageFolderIdEE13node_destructEPNS2_4NodeES4_ 0x0003a584   Section       38  qmtmengine_symbian.o(t._ZN5QListIN10QtMobility16QMessageFolderIdEE13node_destructEPNS2_4NodeES4_)
    t._ZN5QListIN10QtMobility16QMessageFolderIdEE14node_constructEPNS2_4NodeERKS1_ 0x0003a5aa   Section       34  qmtmengine_symbian.o(t._ZN5QListIN10QtMobility16QMessageFolderIdEE14node_constructEPNS2_4NodeERKS1_)
    t._ZN5QListIN10QtMobility16QMessageFolderIdEE14node_constructEPNS2_4NodeERKS1_.clean 0x0003a5cc   Section       14  qmtmengine_symbian.o(t._ZN5QListIN10QtMobility16QMessageFolderIdEE14node_constructEPNS2_4NodeERKS1_.clean)
    t._ZN5QListIN10QtMobility16QMessageFolderIdEE18detach_helper_growEii 0x0003a5da   Section      208  qmtmengine_symbian.o(t._ZN5QListIN10QtMobility16QMessageFolderIdEE18detach_helper_growEii)
    t._ZN5QListIN10QtMobility16QMessageFolderIdEE18detach_helper_growEii.clean 0x0003a6aa   Section       16  qmtmengine_symbian.o(t._ZN5QListIN10QtMobility16QMessageFolderIdEE18detach_helper_growEii.clean)
    t._ZN5QListIN10QtMobility16QMessageFolderIdEE4freeEPN9QListData4DataE 0x0003a6ba   Section       52  qmtmengine_symbian.o(t._ZN5QListIN10QtMobility16QMessageFolderIdEE4freeEPN9QListData4DataE)
    t._ZN5QListIN10QtMobility16QMessageFolderIdEE5beginEv 0x0003a6ee   Section       26  qmtmengine_symbian.o(t._ZN5QListIN10QtMobility16QMessageFolderIdEE5beginEv)
    t._ZN5QListIN10QtMobility16QMessageFolderIdEE5clearEv 0x0003a708   Section       28  qmtmengine_symbian.o(t._ZN5QListIN10QtMobility16QMessageFolderIdEE5clearEv)
    t._ZN5QListIN10QtMobility16QMessageFolderIdEE5clearEv.clean 0x0003a724   Section       10  qmtmengine_symbian.o(t._ZN5QListIN10QtMobility16QMessageFolderIdEE5clearEv.clean)
    t._ZN5QListIN10QtMobility16QMessageFolderIdEE6appendERKS1_ 0x0003a730   Section      112  qmtmengine_symbian.o(t._ZN5QListIN10QtMobility16QMessageFolderIdEE6appendERKS1_)
    t._ZN5QListIN10QtMobility16QMessageFolderIdEE6appendERKS1_.clean 0x0003a7a0   Section       14  qmtmengine_symbian.o(t._ZN5QListIN10QtMobility16QMessageFolderIdEE6appendERKS1_.clean)
    t._ZN5QListIN10QtMobility16QMessageFolderIdEE6detachEv 0x0003a7ae   Section       24  qmtmengine_symbian.o(t._ZN5QListIN10QtMobility16QMessageFolderIdEE6detachEv)
    t._ZN5QListIN10QtMobility16QMessageFolderIdEE8removeAtEi 0x0003a7c6   Section       54  qmtmengine_symbian.o(t._ZN5QListIN10QtMobility16QMessageFolderIdEE8removeAtEi)
    t._ZN5QListIN10QtMobility16QMessageFolderIdEE9node_copyEPNS2_4NodeES4_S4_ 0x0003a7fc   Section       92  qmtmengine_symbian.o(t._ZN5QListIN10QtMobility16QMessageFolderIdEE9node_copyEPNS2_4NodeES4_S4_)
    t._ZN5QListIN10QtMobility16QMessageFolderIdEE9node_copyEPNS2_4NodeES4_S4_.clean 0x0003a858   Section       22  qmtmengine_symbian.o(t._ZN5QListIN10QtMobility16QMessageFolderIdEE9node_copyEPNS2_4NodeES4_S4_.clean)
    t._ZN5QListIN10QtMobility16QMessageFolderIdEE9removeOneERKS1_ 0x0003a870   Section       72  qmtmengine_symbian.o(t._ZN5QListIN10QtMobility16QMessageFolderIdEE9removeOneERKS1_)
    t._ZN5QListIN10QtMobility16QMessageFolderIdEEC1ERKS2_ 0x0003a8b8   Section       36  qfsengine_symbian.o(t._ZN5QListIN10QtMobility16QMessageFolderIdEEC1ERKS2_)
    t._ZN5QListIN10QtMobility16QMessageFolderIdEEC1Ev 0x0003a8dc   Section       24  qmtmengine_symbian.o(t._ZN5QListIN10QtMobility16QMessageFolderIdEEC1Ev)
    t._ZN5QListIN10QtMobility16QMessageFolderIdEED1Ev 0x0003a8f4   Section       32  qmtmengine_symbian.o(t._ZN5QListIN10QtMobility16QMessageFolderIdEED1Ev)
    t._ZN5QListIN10QtMobility16QMessageFolderIdEEaSERKS2_ 0x0003a914   Section       64  qmtmengine_symbian.o(t._ZN5QListIN10QtMobility16QMessageFolderIdEEaSERKS2_)
    t._ZN5QListIN10QtMobility16QMessageFolderIdEEixEi 0x0003a954   Section       28  qmtmengine_symbian.o(t._ZN5QListIN10QtMobility16QMessageFolderIdEEixEi)
    t._ZN5QListIN10QtMobility16QMessageFolderIdEEpLERKS2_ 0x0003a970   Section      156  qmtmengine_symbian.o(t._ZN5QListIN10QtMobility16QMessageFolderIdEEpLERKS2_)
    t._ZN5QListIN10QtMobility16QMessageFolderIdEEpLERKS2_.clean 0x0003aa0c   Section        8  qmtmengine_symbian.o(t._ZN5QListIN10QtMobility16QMessageFolderIdEEpLERKS2_.clean)
    t._ZN5QListIN10QtMobility17FSSearchOperationEE13detach_helperEi 0x0003aa14   Section       94  qfsengine_symbian.o(t._ZN5QListIN10QtMobility17FSSearchOperationEE13detach_helperEi)
    t._ZN5QListIN10QtMobility17FSSearchOperationEE13detach_helperEi.clean 0x0003aa72   Section        8  qfsengine_symbian.o(t._ZN5QListIN10QtMobility17FSSearchOperationEE13detach_helperEi.clean)
    t._ZN5QListIN10QtMobility17FSSearchOperationEE13detach_helperEv 0x0003aa7a   Section       16  qfsengine_symbian.o(t._ZN5QListIN10QtMobility17FSSearchOperationEE13detach_helperEv)
    t._ZN5QListIN10QtMobility17FSSearchOperationEE13node_destructEPNS2_4NodeES4_ 0x0003aa8a   Section       26  qfsengine_symbian.o(t._ZN5QListIN10QtMobility17FSSearchOperationEE13node_destructEPNS2_4NodeES4_)
    t._ZN5QListIN10QtMobility17FSSearchOperationEE14node_constructEPNS2_4NodeERKS1_ 0x0003aaa4   Section       34  qfsengine_symbian.o(t._ZN5QListIN10QtMobility17FSSearchOperationEE14node_constructEPNS2_4NodeERKS1_)
    t._ZN5QListIN10QtMobility17FSSearchOperationEE14node_constructEPNS2_4NodeERKS1_.clean 0x0003aac6   Section       14  qfsengine_symbian.o(t._ZN5QListIN10QtMobility17FSSearchOperationEE14node_constructEPNS2_4NodeERKS1_.clean)
    t._ZN5QListIN10QtMobility17FSSearchOperationEE18detach_helper_growEii 0x0003aad4   Section      208  qfsengine_symbian.o(t._ZN5QListIN10QtMobility17FSSearchOperationEE18detach_helper_growEii)
    t._ZN5QListIN10QtMobility17FSSearchOperationEE18detach_helper_growEii.clean 0x0003aba4   Section       16  qfsengine_symbian.o(t._ZN5QListIN10QtMobility17FSSearchOperationEE18detach_helper_growEii.clean)
    t._ZN5QListIN10QtMobility17FSSearchOperationEE4freeEPN9QListData4DataE 0x0003abb4   Section       52  qfsengine_symbian.o(t._ZN5QListIN10QtMobility17FSSearchOperationEE4freeEPN9QListData4DataE)
    t._ZN5QListIN10QtMobility17FSSearchOperationEE5beginEv 0x0003abe8   Section       40  qfsengine_symbian.o(t._ZN5QListIN10QtMobility17FSSearchOperationEE5beginEv)
    t._ZN5QListIN10QtMobility17FSSearchOperationEE5firstEv 0x0003ac10   Section       22  qfsengine_symbian.o(t._ZN5QListIN10QtMobility17FSSearchOperationEE5firstEv)
    t._ZN5QListIN10QtMobility17FSSearchOperationEE6appendERKS1_ 0x0003ac28   Section      112  qfsengine_symbian.o(t._ZN5QListIN10QtMobility17FSSearchOperationEE6appendERKS1_)
    t._ZN5QListIN10QtMobility17FSSearchOperationEE6appendERKS1_.clean 0x0003ac98   Section       14  qfsengine_symbian.o(t._ZN5QListIN10QtMobility17FSSearchOperationEE6appendERKS1_.clean)
    t._ZN5QListIN10QtMobility17FSSearchOperationEE9node_copyEPNS2_4NodeES4_S4_ 0x0003aca6   Section       80  qfsengine_symbian.o(t._ZN5QListIN10QtMobility17FSSearchOperationEE9node_copyEPNS2_4NodeES4_S4_)
    t._ZN5QListIN10QtMobility17FSSearchOperationEE9node_copyEPNS2_4NodeES4_S4_.clean 0x0003acf6   Section       22  qfsengine_symbian.o(t._ZN5QListIN10QtMobility17FSSearchOperationEE9node_copyEPNS2_4NodeES4_S4_.clean)
    t._ZN5QListIN10QtMobility17FSSearchOperationEED1Ev 0x0003ad0c   Section       32  qfsengine_symbian.o(t._ZN5QListIN10QtMobility17FSSearchOperationEED1Ev)
    t._ZN5QListIN10QtMobility17QMessageAccountIdEE13detach_helperEi 0x0003ad2c   Section       94  qmtmengine_symbian.o(t._ZN5QListIN10QtMobility17QMessageAccountIdEE13detach_helperEi)
    t._ZN5QListIN10QtMobility17QMessageAccountIdEE13detach_helperEi.clean 0x0003ad8a   Section        8  qmtmengine_symbian.o(t._ZN5QListIN10QtMobility17QMessageAccountIdEE13detach_helperEi.clean)
    t._ZN5QListIN10QtMobility17QMessageAccountIdEE13detach_helperEv 0x0003ad92   Section       16  qmtmengine_symbian.o(t._ZN5QListIN10QtMobility17QMessageAccountIdEE13detach_helperEv)
    t._ZN5QListIN10QtMobility17QMessageAccountIdEE13node_destructEPNS2_4NodeE 0x0003ada2   Section       28  qmtmengine_symbian.o(t._ZN5QListIN10QtMobility17QMessageAccountIdEE13node_destructEPNS2_4NodeE)
    t._ZN5QListIN10QtMobility17QMessageAccountIdEE13node_destructEPNS2_4NodeES4_ 0x0003adbe   Section       38  qmtmengine_symbian.o(t._ZN5QListIN10QtMobility17QMessageAccountIdEE13node_destructEPNS2_4NodeES4_)
    t._ZN5QListIN10QtMobility17QMessageAccountIdEE14node_constructEPNS2_4NodeERKS1_ 0x0003ade4   Section       34  qmtmengine_symbian.o(t._ZN5QListIN10QtMobility17QMessageAccountIdEE14node_constructEPNS2_4NodeERKS1_)
    t._ZN5QListIN10QtMobility17QMessageAccountIdEE14node_constructEPNS2_4NodeERKS1_.clean 0x0003ae06   Section       14  qmtmengine_symbian.o(t._ZN5QListIN10QtMobility17QMessageAccountIdEE14node_constructEPNS2_4NodeERKS1_.clean)
    t._ZN5QListIN10QtMobility17QMessageAccountIdEE18detach_helper_growEii 0x0003ae14   Section      208  qmtmengine_symbian.o(t._ZN5QListIN10QtMobility17QMessageAccountIdEE18detach_helper_growEii)
    t._ZN5QListIN10QtMobility17QMessageAccountIdEE18detach_helper_growEii.clean 0x0003aee4   Section       16  qmtmengine_symbian.o(t._ZN5QListIN10QtMobility17QMessageAccountIdEE18detach_helper_growEii.clean)
    t._ZN5QListIN10QtMobility17QMessageAccountIdEE4freeEPN9QListData4DataE 0x0003aef4   Section       52  qmtmengine_symbian.o(t._ZN5QListIN10QtMobility17QMessageAccountIdEE4freeEPN9QListData4DataE)
    t._ZN5QListIN10QtMobility17QMessageAccountIdEE5beginEv 0x0003af28   Section       26  qmtmengine_symbian.o(t._ZN5QListIN10QtMobility17QMessageAccountIdEE5beginEv)
    t._ZN5QListIN10QtMobility17QMessageAccountIdEE5clearEv 0x0003af42   Section       76  qmtmengine_symbian.o(t._ZN5QListIN10QtMobility17QMessageAccountIdEE5clearEv)
    t._ZN5QListIN10QtMobility17QMessageAccountIdEE5clearEv.clean 0x0003af8e   Section       10  qmtmengine_symbian.o(t._ZN5QListIN10QtMobility17QMessageAccountIdEE5clearEv.clean)
    t._ZN5QListIN10QtMobility17QMessageAccountIdEE6appendERKS1_ 0x0003af98   Section      112  qmtmengine_symbian.o(t._ZN5QListIN10QtMobility17QMessageAccountIdEE6appendERKS1_)
    t._ZN5QListIN10QtMobility17QMessageAccountIdEE6appendERKS1_.clean 0x0003b008   Section       14  qmtmengine_symbian.o(t._ZN5QListIN10QtMobility17QMessageAccountIdEE6appendERKS1_.clean)
    t._ZN5QListIN10QtMobility17QMessageAccountIdEE6detachEv 0x0003b016   Section       24  qmtmengine_symbian.o(t._ZN5QListIN10QtMobility17QMessageAccountIdEE6detachEv)
    t._ZN5QListIN10QtMobility17QMessageAccountIdEE8removeAtEi 0x0003b02e   Section       54  maemohelpers.o(t._ZN5QListIN10QtMobility17QMessageAccountIdEE8removeAtEi)
    t._ZN5QListIN10QtMobility17QMessageAccountIdEE9node_copyEPNS2_4NodeES4_S4_ 0x0003b064   Section       92  qmtmengine_symbian.o(t._ZN5QListIN10QtMobility17QMessageAccountIdEE9node_copyEPNS2_4NodeES4_S4_)
    t._ZN5QListIN10QtMobility17QMessageAccountIdEE9node_copyEPNS2_4NodeES4_S4_.clean 0x0003b0c0   Section       22  qmtmengine_symbian.o(t._ZN5QListIN10QtMobility17QMessageAccountIdEE9node_copyEPNS2_4NodeES4_S4_.clean)
    t._ZN5QListIN10QtMobility17QMessageAccountIdEEC1Ev 0x0003b0d8   Section       24  qmtmengine_symbian.o(t._ZN5QListIN10QtMobility17QMessageAccountIdEEC1Ev)
    t._ZN5QListIN10QtMobility17QMessageAccountIdEED1Ev 0x0003b0f0   Section       32  qmtmengine_symbian.o(t._ZN5QListIN10QtMobility17QMessageAccountIdEED1Ev)
    t._ZN5QListIN10QtMobility17QMessageAccountIdEEaSERKS2_ 0x0003b110   Section       64  qmessageaccountfilter_symbian.o(t._ZN5QListIN10QtMobility17QMessageAccountIdEEaSERKS2_)
    t._ZN5QListIN10QtMobility17QMessageAccountIdEEixEi 0x0003b150   Section       28  qmtmengine_symbian.o(t._ZN5QListIN10QtMobility17QMessageAccountIdEEixEi)
    t._ZN5QListIN10QtMobility17QMessageAccountIdEEpLERKS2_ 0x0003b16c   Section      212  qmessagestore_symbian.o(t._ZN5QListIN10QtMobility17QMessageAccountIdEEpLERKS2_)
    t._ZN5QListIN10QtMobility17QMessageAccountIdEEpLERKS2_.clean 0x0003b240   Section        8  qmessagestore_symbian.o(t._ZN5QListIN10QtMobility17QMessageAccountIdEEpLERKS2_.clean)
    t._ZN5QListIN10QtMobility17QMessageSortOrderEE13detach_helperEi 0x0003b248   Section      198  qmessagemanager.o(t._ZN5QListIN10QtMobility17QMessageSortOrderEE13detach_helperEi)
    t._ZN5QListIN10QtMobility17QMessageSortOrderEE13detach_helperEi.clean 0x0003b30e   Section       32  qmessagemanager.o(t._ZN5QListIN10QtMobility17QMessageSortOrderEE13detach_helperEi.clean)
    t._ZN5QListIN10QtMobility17QMessageSortOrderEE13detach_helperEv 0x0003b32e   Section       16  qmessagemanager.o(t._ZN5QListIN10QtMobility17QMessageSortOrderEE13detach_helperEv)
    t._ZN5QListIN10QtMobility17QMessageSortOrderEE4freeEPN9QListData4DataE 0x0003b33e   Section       80  qmessagemanager.o(t._ZN5QListIN10QtMobility17QMessageSortOrderEE4freeEPN9QListData4DataE)
    t._ZN5QListIN10QtMobility17QMessageSortOrderEED1Ev 0x0003b38e   Section       32  qmessagemanager.o(t._ZN5QListIN10QtMobility17QMessageSortOrderEED1Ev)
    t._ZN5QListIN10QtMobility18FSMessageQueryInfoEE13detach_helperEi 0x0003b3ae   Section       94  qfsengine_symbian.o(t._ZN5QListIN10QtMobility18FSMessageQueryInfoEE13detach_helperEi)
    t._ZN5QListIN10QtMobility18FSMessageQueryInfoEE13detach_helperEi.clean 0x0003b40c   Section        8  qfsengine_symbian.o(t._ZN5QListIN10QtMobility18FSMessageQueryInfoEE13detach_helperEi.clean)
    t._ZN5QListIN10QtMobility18FSMessageQueryInfoEE13detach_helperEv 0x0003b414   Section       16  qfsengine_symbian.o(t._ZN5QListIN10QtMobility18FSMessageQueryInfoEE13detach_helperEv)
    t._ZN5QListIN10QtMobility18FSMessageQueryInfoEE13node_destructEPNS2_4NodeE 0x0003b424   Section       28  qfsengine_symbian.o(t._ZN5QListIN10QtMobility18FSMessageQueryInfoEE13node_destructEPNS2_4NodeE)
    t._ZN5QListIN10QtMobility18FSMessageQueryInfoEE13node_destructEPNS2_4NodeES4_ 0x0003b440   Section       38  qfsengine_symbian.o(t._ZN5QListIN10QtMobility18FSMessageQueryInfoEE13node_destructEPNS2_4NodeES4_)
    t._ZN5QListIN10QtMobility18FSMessageQueryInfoEE14node_constructEPNS2_4NodeERKS1_ 0x0003b466   Section       34  qfsengine_symbian.o(t._ZN5QListIN10QtMobility18FSMessageQueryInfoEE14node_constructEPNS2_4NodeERKS1_)
    t._ZN5QListIN10QtMobility18FSMessageQueryInfoEE14node_constructEPNS2_4NodeERKS1_.clean 0x0003b488   Section       14  qfsengine_symbian.o(t._ZN5QListIN10QtMobility18FSMessageQueryInfoEE14node_constructEPNS2_4NodeERKS1_.clean)
    t._ZN5QListIN10QtMobility18FSMessageQueryInfoEE18detach_helper_growEii 0x0003b496   Section      208  qfsengine_symbian.o(t._ZN5QListIN10QtMobility18FSMessageQueryInfoEE18detach_helper_growEii)
    t._ZN5QListIN10QtMobility18FSMessageQueryInfoEE18detach_helper_growEii.clean 0x0003b566   Section       16  qfsengine_symbian.o(t._ZN5QListIN10QtMobility18FSMessageQueryInfoEE18detach_helper_growEii.clean)
    t._ZN5QListIN10QtMobility18FSMessageQueryInfoEE4freeEPN9QListData4DataE 0x0003b576   Section       52  qfsengine_symbian.o(t._ZN5QListIN10QtMobility18FSMessageQueryInfoEE4freeEPN9QListData4DataE)
    t._ZN5QListIN10QtMobility18FSMessageQueryInfoEE6appendERKS1_ 0x0003b5ac   Section      112  qfsengine_symbian.o(t._ZN5QListIN10QtMobility18FSMessageQueryInfoEE6appendERKS1_)
    t._ZN5QListIN10QtMobility18FSMessageQueryInfoEE6appendERKS1_.clean 0x0003b61c   Section       14  qfsengine_symbian.o(t._ZN5QListIN10QtMobility18FSMessageQueryInfoEE6appendERKS1_.clean)
    t._ZN5QListIN10QtMobility18FSMessageQueryInfoEE6detachEv 0x0003b62a   Section       24  qfsengine_symbian.o(t._ZN5QListIN10QtMobility18FSMessageQueryInfoEE6detachEv)
    t._ZN5QListIN10QtMobility18FSMessageQueryInfoEE8removeAtEi 0x0003b642   Section       54  qfsengine_symbian.o(t._ZN5QListIN10QtMobility18FSMessageQueryInfoEE8removeAtEi)
    t._ZN5QListIN10QtMobility18FSMessageQueryInfoEE9node_copyEPNS2_4NodeES4_S4_ 0x0003b678   Section       92  qfsengine_symbian.o(t._ZN5QListIN10QtMobility18FSMessageQueryInfoEE9node_copyEPNS2_4NodeES4_S4_)
    t._ZN5QListIN10QtMobility18FSMessageQueryInfoEE9node_copyEPNS2_4NodeES4_S4_.clean 0x0003b6d4   Section       22  qfsengine_symbian.o(t._ZN5QListIN10QtMobility18FSMessageQueryInfoEE9node_copyEPNS2_4NodeES4_S4_.clean)
    t._ZN5QListIN10QtMobility18FSMessageQueryInfoEED1Ev 0x0003b6ea   Section       32  qfsengine_symbian.o(t._ZN5QListIN10QtMobility18FSMessageQueryInfoEED1Ev)
    t._ZN5QListIN10QtMobility18FSMessageQueryInfoEEixEi 0x0003b70a   Section       28  qfsengine_symbian.o(t._ZN5QListIN10QtMobility18FSMessageQueryInfoEEixEi)
    t._ZN5QListIN10QtMobility20QMessageFolderFilterEE13detach_helperEi 0x0003b726   Section       94  qmtmengine_symbian.o(t._ZN5QListIN10QtMobility20QMessageFolderFilterEE13detach_helperEi)
    t._ZN5QListIN10QtMobility20QMessageFolderFilterEE13detach_helperEi.clean 0x0003b784   Section        8  qmtmengine_symbian.o(t._ZN5QListIN10QtMobility20QMessageFolderFilterEE13detach_helperEi.clean)
    t._ZN5QListIN10QtMobility20QMessageFolderFilterEE13detach_helperEv 0x0003b78c   Section       16  qmtmengine_symbian.o(t._ZN5QListIN10QtMobility20QMessageFolderFilterEE13detach_helperEv)
    t._ZN5QListIN10QtMobility20QMessageFolderFilterEE13node_destructEPNS2_4NodeE 0x0003b79c   Section       26  qmtmengine_symbian.o(t._ZN5QListIN10QtMobility20QMessageFolderFilterEE13node_destructEPNS2_4NodeE)
    t._ZN5QListIN10QtMobility20QMessageFolderFilterEE13node_destructEPNS2_4NodeES4_ 0x0003b7b6   Section       36  qmtmengine_symbian.o(t._ZN5QListIN10QtMobility20QMessageFolderFilterEE13node_destructEPNS2_4NodeES4_)
    t._ZN5QListIN10QtMobility20QMessageFolderFilterEE14node_constructEPNS2_4NodeERKS1_ 0x0003b7da   Section       34  qmtmengine_symbian.o(t._ZN5QListIN10QtMobility20QMessageFolderFilterEE14node_constructEPNS2_4NodeERKS1_)
    t._ZN5QListIN10QtMobility20QMessageFolderFilterEE14node_constructEPNS2_4NodeERKS1_.clean 0x0003b7fc   Section       14  qmtmengine_symbian.o(t._ZN5QListIN10QtMobility20QMessageFolderFilterEE14node_constructEPNS2_4NodeERKS1_.clean)
    t._ZN5QListIN10QtMobility20QMessageFolderFilterEE18detach_helper_growEii 0x0003b80a   Section      208  qmtmengine_symbian.o(t._ZN5QListIN10QtMobility20QMessageFolderFilterEE18detach_helper_growEii)
    t._ZN5QListIN10QtMobility20QMessageFolderFilterEE18detach_helper_growEii.clean 0x0003b8da   Section       16  qmtmengine_symbian.o(t._ZN5QListIN10QtMobility20QMessageFolderFilterEE18detach_helper_growEii.clean)
    t._ZN5QListIN10QtMobility20QMessageFolderFilterEE3endEv 0x0003b8ea   Section       26  qmtmengine_symbian.o(t._ZN5QListIN10QtMobility20QMessageFolderFilterEE3endEv)
    t._ZN5QListIN10QtMobility20QMessageFolderFilterEE4freeEPN9QListData4DataE 0x0003b904   Section       52  qmtmengine_symbian.o(t._ZN5QListIN10QtMobility20QMessageFolderFilterEE4freeEPN9QListData4DataE)
    t._ZN5QListIN10QtMobility20QMessageFolderFilterEE5beginEv 0x0003b938   Section       26  qmtmengine_symbian.o(t._ZN5QListIN10QtMobility20QMessageFolderFilterEE5beginEv)
    t._ZN5QListIN10QtMobility20QMessageFolderFilterEE6appendERKS1_ 0x0003b954   Section      112  qmtmengine_symbian.o(t._ZN5QListIN10QtMobility20QMessageFolderFilterEE6appendERKS1_)
    t._ZN5QListIN10QtMobility20QMessageFolderFilterEE6appendERKS1_.clean 0x0003b9c4   Section       14  qmtmengine_symbian.o(t._ZN5QListIN10QtMobility20QMessageFolderFilterEE6appendERKS1_.clean)
    t._ZN5QListIN10QtMobility20QMessageFolderFilterEE6detachEv 0x0003b9d2   Section       24  qmtmengine_symbian.o(t._ZN5QListIN10QtMobility20QMessageFolderFilterEE6detachEv)
    t._ZN5QListIN10QtMobility20QMessageFolderFilterEE9node_copyEPNS2_4NodeES4_S4_ 0x0003b9ea   Section       90  qmtmengine_symbian.o(t._ZN5QListIN10QtMobility20QMessageFolderFilterEE9node_copyEPNS2_4NodeES4_S4_)
    t._ZN5QListIN10QtMobility20QMessageFolderFilterEE9node_copyEPNS2_4NodeES4_S4_.clean 0x0003ba44   Section       22  qmtmengine_symbian.o(t._ZN5QListIN10QtMobility20QMessageFolderFilterEE9node_copyEPNS2_4NodeES4_S4_.clean)
    t._ZN5QListIN10QtMobility20QMessageFolderFilterEEC1ERKS2_ 0x0003ba5a   Section       36  qmtmengine_symbian.o(t._ZN5QListIN10QtMobility20QMessageFolderFilterEEC1ERKS2_)
    t._ZN5QListIN10QtMobility20QMessageFolderFilterEEC1Ev 0x0003ba80   Section       24  qmessagefolderfilter_symbian.o(t._ZN5QListIN10QtMobility20QMessageFolderFilterEEC1Ev)
    t._ZN5QListIN10QtMobility20QMessageFolderFilterEED1Ev 0x0003ba98   Section       32  qmtmengine_symbian.o(t._ZN5QListIN10QtMobility20QMessageFolderFilterEED1Ev)
    t._ZN5QListIN10QtMobility20QMessageFolderFilterEEixEi 0x0003bab8   Section       28  qmtmengine_symbian.o(t._ZN5QListIN10QtMobility20QMessageFolderFilterEEixEi)
    t._ZN5QListIN10QtMobility20QMessageFolderFilterEElsERKS1_ 0x0003bad4   Section       18  qmessagefolderfilter_symbian.o(t._ZN5QListIN10QtMobility20QMessageFolderFilterEElsERKS1_)
    t._ZN5QListIN10QtMobility20QMessageFolderFilterEEpLERKS2_ 0x0003bae8   Section      204  qmessagefolderfilter_symbian.o(t._ZN5QListIN10QtMobility20QMessageFolderFilterEEpLERKS2_)
    t._ZN5QListIN10QtMobility20QMessageFolderFilterEEpLERKS2_.clean 0x0003bbb4   Section        8  qmessagefolderfilter_symbian.o(t._ZN5QListIN10QtMobility20QMessageFolderFilterEEpLERKS2_.clean)
    t._ZN5QListIN10QtMobility21QMessageAccountFilterEE13detach_helperEi 0x0003bbbc   Section       94  qmessageaccountfilter_symbian.o(t._ZN5QListIN10QtMobility21QMessageAccountFilterEE13detach_helperEi)
    t._ZN5QListIN10QtMobility21QMessageAccountFilterEE13detach_helperEi.clean 0x0003bc1a   Section        8  qmessageaccountfilter_symbian.o(t._ZN5QListIN10QtMobility21QMessageAccountFilterEE13detach_helperEi.clean)
    t._ZN5QListIN10QtMobility21QMessageAccountFilterEE13detach_helperEv 0x0003bc22   Section       16  qmessageaccountfilter_symbian.o(t._ZN5QListIN10QtMobility21QMessageAccountFilterEE13detach_helperEv)
    t._ZN5QListIN10QtMobility21QMessageAccountFilterEE13node_destructEPNS2_4NodeES4_ 0x0003bc32   Section       36  qmessageaccountfilter_symbian.o(t._ZN5QListIN10QtMobility21QMessageAccountFilterEE13node_destructEPNS2_4NodeES4_)
    t._ZN5QListIN10QtMobility21QMessageAccountFilterEE14node_constructEPNS2_4NodeERKS1_ 0x0003bc56   Section       34  qmessageaccountfilter_symbian.o(t._ZN5QListIN10QtMobility21QMessageAccountFilterEE14node_constructEPNS2_4NodeERKS1_)
    t._ZN5QListIN10QtMobility21QMessageAccountFilterEE14node_constructEPNS2_4NodeERKS1_.clean 0x0003bc78   Section       14  qmessageaccountfilter_symbian.o(t._ZN5QListIN10QtMobility21QMessageAccountFilterEE14node_constructEPNS2_4NodeERKS1_.clean)
    t._ZN5QListIN10QtMobility21QMessageAccountFilterEE18detach_helper_growEii 0x0003bc86   Section      208  qmessageaccountfilter_symbian.o(t._ZN5QListIN10QtMobility21QMessageAccountFilterEE18detach_helper_growEii)
    t._ZN5QListIN10QtMobility21QMessageAccountFilterEE18detach_helper_growEii.clean 0x0003bd56   Section       16  qmessageaccountfilter_symbian.o(t._ZN5QListIN10QtMobility21QMessageAccountFilterEE18detach_helper_growEii.clean)
    t._ZN5QListIN10QtMobility21QMessageAccountFilterEE3endEv 0x0003bd66   Section       26  qmessageaccountfilter_symbian.o(t._ZN5QListIN10QtMobility21QMessageAccountFilterEE3endEv)
    t._ZN5QListIN10QtMobility21QMessageAccountFilterEE4freeEPN9QListData4DataE 0x0003bd80   Section       58  qmessageaccountfilter_symbian.o(t._ZN5QListIN10QtMobility21QMessageAccountFilterEE4freeEPN9QListData4DataE)
    t._ZN5QListIN10QtMobility21QMessageAccountFilterEE5beginEv 0x0003bdba   Section       26  qmessageaccountfilter_symbian.o(t._ZN5QListIN10QtMobility21QMessageAccountFilterEE5beginEv)
    t._ZN5QListIN10QtMobility21QMessageAccountFilterEE6appendERKS1_ 0x0003bdd4   Section      112  qmessageaccountfilter_symbian.o(t._ZN5QListIN10QtMobility21QMessageAccountFilterEE6appendERKS1_)
    t._ZN5QListIN10QtMobility21QMessageAccountFilterEE6appendERKS1_.clean 0x0003be44   Section       14  qmessageaccountfilter_symbian.o(t._ZN5QListIN10QtMobility21QMessageAccountFilterEE6appendERKS1_.clean)
    t._ZN5QListIN10QtMobility21QMessageAccountFilterEE6detachEv 0x0003be52   Section       24  qmessageaccountfilter_symbian.o(t._ZN5QListIN10QtMobility21QMessageAccountFilterEE6detachEv)
    t._ZN5QListIN10QtMobility21QMessageAccountFilterEE9node_copyEPNS2_4NodeES4_S4_ 0x0003be6a   Section       90  qmessageaccountfilter_symbian.o(t._ZN5QListIN10QtMobility21QMessageAccountFilterEE9node_copyEPNS2_4NodeES4_S4_)
    t._ZN5QListIN10QtMobility21QMessageAccountFilterEE9node_copyEPNS2_4NodeES4_S4_.clean 0x0003bec4   Section       22  qmessageaccountfilter_symbian.o(t._ZN5QListIN10QtMobility21QMessageAccountFilterEE9node_copyEPNS2_4NodeES4_S4_.clean)
    t._ZN5QListIN10QtMobility21QMessageAccountFilterEEC1ERKS2_ 0x0003beda   Section       36  qmessageaccountfilter_symbian.o(t._ZN5QListIN10QtMobility21QMessageAccountFilterEEC1ERKS2_)
    t._ZN5QListIN10QtMobility21QMessageAccountFilterEEC1Ev 0x0003bf00   Section       24  qmessageaccountfilter_symbian.o(t._ZN5QListIN10QtMobility21QMessageAccountFilterEEC1Ev)
    t._ZN5QListIN10QtMobility21QMessageAccountFilterEED1Ev 0x0003bf18   Section       32  qmessageaccountfilter_symbian.o(t._ZN5QListIN10QtMobility21QMessageAccountFilterEED1Ev)
    t._ZN5QListIN10QtMobility21QMessageAccountFilterEEixEi 0x0003bf38   Section       28  qmessageaccountfilter_symbian.o(t._ZN5QListIN10QtMobility21QMessageAccountFilterEEixEi)
    t._ZN5QListIN10QtMobility21QMessageAccountFilterEElsERKS1_ 0x0003bf54   Section       18  qmessageaccountfilter_symbian.o(t._ZN5QListIN10QtMobility21QMessageAccountFilterEElsERKS1_)
    t._ZN5QListIN10QtMobility21QMessageAccountFilterEEpLERKS2_ 0x0003bf68   Section      204  qmessageaccountfilter_symbian.o(t._ZN5QListIN10QtMobility21QMessageAccountFilterEEpLERKS2_)
    t._ZN5QListIN10QtMobility21QMessageAccountFilterEEpLERKS2_.clean 0x0003c034   Section        8  qmessageaccountfilter_symbian.o(t._ZN5QListIN10QtMobility21QMessageAccountFilterEEpLERKS2_.clean)
    t._ZN5QListIN10QtMobility23QMessageFolderSortOrderEE13detach_helperEi 0x0003c03c   Section      198  qmessagemanager.o(t._ZN5QListIN10QtMobility23QMessageFolderSortOrderEE13detach_helperEi)
    t._ZN5QListIN10QtMobility23QMessageFolderSortOrderEE13detach_helperEi.clean 0x0003c102   Section       32  qmessagemanager.o(t._ZN5QListIN10QtMobility23QMessageFolderSortOrderEE13detach_helperEi.clean)
    t._ZN5QListIN10QtMobility23QMessageFolderSortOrderEE13detach_helperEv 0x0003c122   Section       16  qmessagemanager.o(t._ZN5QListIN10QtMobility23QMessageFolderSortOrderEE13detach_helperEv)
    t._ZN5QListIN10QtMobility23QMessageFolderSortOrderEE4freeEPN9QListData4DataE 0x0003c132   Section       80  qmessagemanager.o(t._ZN5QListIN10QtMobility23QMessageFolderSortOrderEE4freeEPN9QListData4DataE)
    t._ZN5QListIN10QtMobility23QMessageFolderSortOrderEED1Ev 0x0003c182   Section       32  qmessagemanager.o(t._ZN5QListIN10QtMobility23QMessageFolderSortOrderEED1Ev)
    t._ZN5QListIN10QtMobility24QMessageContentContainerEE13detach_helperEi 0x0003c1a2   Section       94  qmessagecontentcontainer_symbian.o(t._ZN5QListIN10QtMobility24QMessageContentContainerEE13detach_helperEi)
    t._ZN5QListIN10QtMobility24QMessageContentContainerEE13detach_helperEi.clean 0x0003c200   Section        8  qmessagecontentcontainer_symbian.o(t._ZN5QListIN10QtMobility24QMessageContentContainerEE13detach_helperEi.clean)
    t._ZN5QListIN10QtMobility24QMessageContentContainerEE13detach_helperEv 0x0003c208   Section       16  qmessagecontentcontainer_symbian.o(t._ZN5QListIN10QtMobility24QMessageContentContainerEE13detach_helperEv)
    t._ZN5QListIN10QtMobility24QMessageContentContainerEE13node_destructEPNS2_4NodeES4_ 0x0003c218   Section       36  qmessagecontentcontainer_symbian.o(t._ZN5QListIN10QtMobility24QMessageContentContainerEE13node_destructEPNS2_4NodeES4_)
    t._ZN5QListIN10QtMobility24QMessageContentContainerEE14node_constructEPNS2_4NodeERKS1_ 0x0003c23c   Section       34  qmessagecontentcontainer_symbian.o(t._ZN5QListIN10QtMobility24QMessageContentContainerEE14node_constructEPNS2_4NodeERKS1_)
    t._ZN5QListIN10QtMobility24QMessageContentContainerEE14node_constructEPNS2_4NodeERKS1_.clean 0x0003c25e   Section       14  qmessagecontentcontainer_symbian.o(t._ZN5QListIN10QtMobility24QMessageContentContainerEE14node_constructEPNS2_4NodeERKS1_.clean)
    t._ZN5QListIN10QtMobility24QMessageContentContainerEE18detach_helper_growEii 0x0003c26c   Section      208  qmessagecontentcontainer_symbian.o(t._ZN5QListIN10QtMobility24QMessageContentContainerEE18detach_helper_growEii)
    t._ZN5QListIN10QtMobility24QMessageContentContainerEE18detach_helper_growEii.clean 0x0003c33c   Section       16  qmessagecontentcontainer_symbian.o(t._ZN5QListIN10QtMobility24QMessageContentContainerEE18detach_helper_growEii.clean)
    t._ZN5QListIN10QtMobility24QMessageContentContainerEE4freeEPN9QListData4DataE 0x0003c34c   Section       52  qmessagecontentcontainer_symbian.o(t._ZN5QListIN10QtMobility24QMessageContentContainerEE4freeEPN9QListData4DataE)
    t._ZN5QListIN10QtMobility24QMessageContentContainerEE5clearEv 0x0003c380   Section       28  qmessagecontentcontainer_symbian.o(t._ZN5QListIN10QtMobility24QMessageContentContainerEE5clearEv)
    t._ZN5QListIN10QtMobility24QMessageContentContainerEE5clearEv.clean 0x0003c39c   Section       10  qmessagecontentcontainer_symbian.o(t._ZN5QListIN10QtMobility24QMessageContentContainerEE5clearEv.clean)
    t._ZN5QListIN10QtMobility24QMessageContentContainerEE6appendERKS1_ 0x0003c3a8   Section      112  qmessagecontentcontainer_symbian.o(t._ZN5QListIN10QtMobility24QMessageContentContainerEE6appendERKS1_)
    t._ZN5QListIN10QtMobility24QMessageContentContainerEE6appendERKS1_.clean 0x0003c418   Section       14  qmessagecontentcontainer_symbian.o(t._ZN5QListIN10QtMobility24QMessageContentContainerEE6appendERKS1_.clean)
    t._ZN5QListIN10QtMobility24QMessageContentContainerEE9node_copyEPNS2_4NodeES4_S4_ 0x0003c426   Section       90  qmessagecontentcontainer_symbian.o(t._ZN5QListIN10QtMobility24QMessageContentContainerEE9node_copyEPNS2_4NodeES4_S4_)
    t._ZN5QListIN10QtMobility24QMessageContentContainerEE9node_copyEPNS2_4NodeES4_S4_.clean 0x0003c480   Section       22  qmessagecontentcontainer_symbian.o(t._ZN5QListIN10QtMobility24QMessageContentContainerEE9node_copyEPNS2_4NodeES4_S4_.clean)
    t._ZN5QListIN10QtMobility24QMessageContentContainerEEC1Ev 0x0003c498   Section       24  qmessagecontentcontainer_symbian.o(t._ZN5QListIN10QtMobility24QMessageContentContainerEEC1Ev)
    t._ZN5QListIN10QtMobility24QMessageContentContainerEED1Ev 0x0003c4b0   Section       32  qmessagecontentcontainer_symbian.o(t._ZN5QListIN10QtMobility24QMessageContentContainerEED1Ev)
    t._ZN5QListIN10QtMobility24QMessageContentContainerEEaSERKS2_ 0x0003c4d0   Section       64  qmessagecontentcontainer_symbian.o(t._ZN5QListIN10QtMobility24QMessageContentContainerEEaSERKS2_)
    t._ZN5QListIN10QtMobility24QMessageContentContainerEEixEi 0x0003c510   Section       52  qmessagecontentcontainer_symbian.o(t._ZN5QListIN10QtMobility24QMessageContentContainerEEixEi)
    t._ZN5QListIN10QtMobility26QMessageContentContainerIdEE13detach_helperEi 0x0003c544   Section       94  qmessage_symbian.o(t._ZN5QListIN10QtMobility26QMessageContentContainerIdEE13detach_helperEi)
    t._ZN5QListIN10QtMobility26QMessageContentContainerIdEE13detach_helperEi.clean 0x0003c5a2   Section        8  qmessage_symbian.o(t._ZN5QListIN10QtMobility26QMessageContentContainerIdEE13detach_helperEi.clean)
    t._ZN5QListIN10QtMobility26QMessageContentContainerIdEE13detach_helperEv 0x0003c5aa   Section       16  qmtmengine_symbian.o(t._ZN5QListIN10QtMobility26QMessageContentContainerIdEE13detach_helperEv)
    t._ZN5QListIN10QtMobility26QMessageContentContainerIdEE13node_destructEPNS2_4NodeES4_ 0x0003c5ba   Section       38  qmessagecontentcontainer_symbian.o(t._ZN5QListIN10QtMobility26QMessageContentContainerIdEE13node_destructEPNS2_4NodeES4_)
    t._ZN5QListIN10QtMobility26QMessageContentContainerIdEE14node_constructEPNS2_4NodeERKS1_ 0x0003c5e0   Section       34  qmessagecontentcontainer_symbian.o(t._ZN5QListIN10QtMobility26QMessageContentContainerIdEE14node_constructEPNS2_4NodeERKS1_)
    t._ZN5QListIN10QtMobility26QMessageContentContainerIdEE14node_constructEPNS2_4NodeERKS1_.clean 0x0003c602   Section       14  qmessagecontentcontainer_symbian.o(t._ZN5QListIN10QtMobility26QMessageContentContainerIdEE14node_constructEPNS2_4NodeERKS1_.clean)
    t._ZN5QListIN10QtMobility26QMessageContentContainerIdEE18detach_helper_growEii 0x0003c610   Section      208  qmessagecontentcontainer_symbian.o(t._ZN5QListIN10QtMobility26QMessageContentContainerIdEE18detach_helper_growEii)
    t._ZN5QListIN10QtMobility26QMessageContentContainerIdEE18detach_helper_growEii.clean 0x0003c6e0   Section       16  qmessagecontentcontainer_symbian.o(t._ZN5QListIN10QtMobility26QMessageContentContainerIdEE18detach_helper_growEii.clean)
    t._ZN5QListIN10QtMobility26QMessageContentContainerIdEE4freeEPN9QListData4DataE 0x0003c6f0   Section       52  qmessagecontentcontainer_symbian.o(t._ZN5QListIN10QtMobility26QMessageContentContainerIdEE4freeEPN9QListData4DataE)
    t._ZN5QListIN10QtMobility26QMessageContentContainerIdEE6appendERKS1_ 0x0003c724   Section      112  qmessagecontentcontainer_symbian.o(t._ZN5QListIN10QtMobility26QMessageContentContainerIdEE6appendERKS1_)
    t._ZN5QListIN10QtMobility26QMessageContentContainerIdEE6appendERKS1_.clean 0x0003c794   Section       14  qmessagecontentcontainer_symbian.o(t._ZN5QListIN10QtMobility26QMessageContentContainerIdEE6appendERKS1_.clean)
    t._ZN5QListIN10QtMobility26QMessageContentContainerIdEE9node_copyEPNS2_4NodeES4_S4_ 0x0003c7a2   Section       92  qmessagecontentcontainer_symbian.o(t._ZN5QListIN10QtMobility26QMessageContentContainerIdEE9node_copyEPNS2_4NodeES4_S4_)
    t._ZN5QListIN10QtMobility26QMessageContentContainerIdEE9node_copyEPNS2_4NodeES4_S4_.clean 0x0003c7fe   Section       22  qmessagecontentcontainer_symbian.o(t._ZN5QListIN10QtMobility26QMessageContentContainerIdEE9node_copyEPNS2_4NodeES4_S4_.clean)
    t._ZN5QListIN10QtMobility26QMessageContentContainerIdEED1Ev 0x0003c814   Section       32  qmtmengine_symbian.o(t._ZN5QListIN10QtMobility26QMessageContentContainerIdEED1Ev)
    t._ZN5QListIN10QtMobility8QMessageEE13detach_helperEi 0x0003c834   Section       94  qmtmengine_symbian.o(t._ZN5QListIN10QtMobility8QMessageEE13detach_helperEi)
    t._ZN5QListIN10QtMobility8QMessageEE13detach_helperEi.clean 0x0003c892   Section        8  qmtmengine_symbian.o(t._ZN5QListIN10QtMobility8QMessageEE13detach_helperEi.clean)
    t._ZN5QListIN10QtMobility8QMessageEE13detach_helperEv 0x0003c89a   Section       16  qmtmengine_symbian.o(t._ZN5QListIN10QtMobility8QMessageEE13detach_helperEv)
    t._ZN5QListIN10QtMobility8QMessageEE13node_destructEPNS2_4NodeES4_ 0x0003c8aa   Section       36  qmtmengine_symbian.o(t._ZN5QListIN10QtMobility8QMessageEE13node_destructEPNS2_4NodeES4_)
    t._ZN5QListIN10QtMobility8QMessageEE14node_constructEPNS2_4NodeERKS1_ 0x0003c8ce   Section       34  qmtmengine_symbian.o(t._ZN5QListIN10QtMobility8QMessageEE14node_constructEPNS2_4NodeERKS1_)
    t._ZN5QListIN10QtMobility8QMessageEE14node_constructEPNS2_4NodeERKS1_.clean 0x0003c8f0   Section       14  qmtmengine_symbian.o(t._ZN5QListIN10QtMobility8QMessageEE14node_constructEPNS2_4NodeERKS1_.clean)
    t._ZN5QListIN10QtMobility8QMessageEE18detach_helper_growEii 0x0003c8fe   Section      208  qmtmengine_symbian.o(t._ZN5QListIN10QtMobility8QMessageEE18detach_helper_growEii)
    t._ZN5QListIN10QtMobility8QMessageEE18detach_helper_growEii.clean 0x0003c9ce   Section       16  qmtmengine_symbian.o(t._ZN5QListIN10QtMobility8QMessageEE18detach_helper_growEii.clean)
    t._ZN5QListIN10QtMobility8QMessageEE4freeEPN9QListData4DataE 0x0003c9de   Section       52  qmtmengine_symbian.o(t._ZN5QListIN10QtMobility8QMessageEE4freeEPN9QListData4DataE)
    t._ZN5QListIN10QtMobility8QMessageEE6appendERKS1_ 0x0003ca14   Section      112  qmtmengine_symbian.o(t._ZN5QListIN10QtMobility8QMessageEE6appendERKS1_)
    t._ZN5QListIN10QtMobility8QMessageEE6appendERKS1_.clean 0x0003ca84   Section       14  qmtmengine_symbian.o(t._ZN5QListIN10QtMobility8QMessageEE6appendERKS1_.clean)
    t._ZN5QListIN10QtMobility8QMessageEE6detachEv 0x0003ca92   Section       24  qmtmengine_symbian.o(t._ZN5QListIN10QtMobility8QMessageEE6detachEv)
    t._ZN5QListIN10QtMobility8QMessageEE9node_copyEPNS2_4NodeES4_S4_ 0x0003caaa   Section       90  qmtmengine_symbian.o(t._ZN5QListIN10QtMobility8QMessageEE9node_copyEPNS2_4NodeES4_S4_)
    t._ZN5QListIN10QtMobility8QMessageEE9node_copyEPNS2_4NodeES4_S4_.clean 0x0003cb04   Section       22  qmtmengine_symbian.o(t._ZN5QListIN10QtMobility8QMessageEE9node_copyEPNS2_4NodeES4_S4_.clean)
    t._ZN5QListIN10QtMobility8QMessageEED1Ev 0x0003cb1a   Section       32  qmtmengine_symbian.o(t._ZN5QListIN10QtMobility8QMessageEED1Ev)
    t._ZN5QListIP10QTextCodecE13detach_helperEi 0x0003cb3a   Section       94  qmessage.o(t._ZN5QListIP10QTextCodecE13detach_helperEi)
    t._ZN5QListIP10QTextCodecE13detach_helperEi.clean 0x0003cb98   Section        8  qmessage.o(t._ZN5QListIP10QTextCodecE13detach_helperEi.clean)
    t._ZN5QListIP10QTextCodecE13detach_helperEv 0x0003cba0   Section       16  qmessage.o(t._ZN5QListIP10QTextCodecE13detach_helperEv)
    t._ZN5QListIP10QTextCodecE18detach_helper_growEii 0x0003cbb0   Section      204  qmessage.o(t._ZN5QListIP10QTextCodecE18detach_helper_growEii)
    t._ZN5QListIP10QTextCodecE18detach_helper_growEii.clean 0x0003cc7c   Section       16  qmessage.o(t._ZN5QListIP10QTextCodecE18detach_helper_growEii.clean)
    t._ZN5QListIP10QTextCodecE4freeEPN9QListData4DataE 0x0003cc8c   Section       58  qmessage.o(t._ZN5QListIP10QTextCodecE4freeEPN9QListData4DataE)
    t._ZN5QListIP10QTextCodecE5beginEv       0x0003ccc6   Section       40  qmessage.o(t._ZN5QListIP10QTextCodecE5beginEv)
    t._ZN5QListIP10QTextCodecE6appendERKS1_  0x0003ccf0   Section      100  qmessage.o(t._ZN5QListIP10QTextCodecE6appendERKS1_)
    t._ZN5QListIP10QTextCodecE6appendERKS1_.clean 0x0003cd54   Section       10  qmessage.o(t._ZN5QListIP10QTextCodecE6appendERKS1_.clean)
    t._ZN5QListIP10QTextCodecE9node_copyEPNS2_4NodeES4_S4_ 0x0003cd5e   Section       46  qmessage.o(t._ZN5QListIP10QTextCodecE9node_copyEPNS2_4NodeES4_S4_)
    t._ZN5QListIP10QTextCodecED1Ev           0x0003cd8c   Section       32  qmessage.o(t._ZN5QListIP10QTextCodecED1Ev)
    t._ZN5QListIS_IN10QtMobility14QMessageFilterEEE13detach_helperEi 0x0003cdac   Section       94  qmtmengine_symbian.o(t._ZN5QListIS_IN10QtMobility14QMessageFilterEEE13detach_helperEi)
    t._ZN5QListIS_IN10QtMobility14QMessageFilterEEE13detach_helperEi.clean 0x0003ce0a   Section        8  qmtmengine_symbian.o(t._ZN5QListIS_IN10QtMobility14QMessageFilterEEE13detach_helperEi.clean)
    t._ZN5QListIS_IN10QtMobility14QMessageFilterEEE13detach_helperEv 0x0003ce12   Section       16  qmtmengine_symbian.o(t._ZN5QListIS_IN10QtMobility14QMessageFilterEEE13detach_helperEv)
    t._ZN5QListIS_IN10QtMobility14QMessageFilterEEE13node_destructEPNS3_4NodeES5_ 0x0003ce22   Section       38  qmtmengine_symbian.o(t._ZN5QListIS_IN10QtMobility14QMessageFilterEEE13node_destructEPNS3_4NodeES5_)
    t._ZN5QListIS_IN10QtMobility14QMessageFilterEEE14node_constructEPNS3_4NodeERKS2_ 0x0003ce48   Section       34  qmtmengine_symbian.o(t._ZN5QListIS_IN10QtMobility14QMessageFilterEEE14node_constructEPNS3_4NodeERKS2_)
    t._ZN5QListIS_IN10QtMobility14QMessageFilterEEE14node_constructEPNS3_4NodeERKS2_.clean 0x0003ce6a   Section       14  qmtmengine_symbian.o(t._ZN5QListIS_IN10QtMobility14QMessageFilterEEE14node_constructEPNS3_4NodeERKS2_.clean)
    t._ZN5QListIS_IN10QtMobility14QMessageFilterEEE18detach_helper_growEii 0x0003ce78   Section      208  qmtmengine_symbian.o(t._ZN5QListIS_IN10QtMobility14QMessageFilterEEE18detach_helper_growEii)
    t._ZN5QListIS_IN10QtMobility14QMessageFilterEEE18detach_helper_growEii.clean 0x0003cf48   Section       16  qmtmengine_symbian.o(t._ZN5QListIS_IN10QtMobility14QMessageFilterEEE18detach_helper_growEii.clean)
    t._ZN5QListIS_IN10QtMobility14QMessageFilterEEE4freeEPN9QListData4DataE 0x0003cf58   Section       52  qmtmengine_symbian.o(t._ZN5QListIS_IN10QtMobility14QMessageFilterEEE4freeEPN9QListData4DataE)
    t._ZN5QListIS_IN10QtMobility14QMessageFilterEEE5clearEv 0x0003cf8c   Section       28  qmessagefilter_symbian.o(t._ZN5QListIS_IN10QtMobility14QMessageFilterEEE5clearEv)
    t._ZN5QListIS_IN10QtMobility14QMessageFilterEEE5clearEv.clean 0x0003cfa8   Section       10  qmessagefilter_symbian.o(t._ZN5QListIS_IN10QtMobility14QMessageFilterEEE5clearEv.clean)
    t._ZN5QListIS_IN10QtMobility14QMessageFilterEEE6appendERKS2_ 0x0003cfb4   Section      112  qmtmengine_symbian.o(t._ZN5QListIS_IN10QtMobility14QMessageFilterEEE6appendERKS2_)
    t._ZN5QListIS_IN10QtMobility14QMessageFilterEEE6appendERKS2_.clean 0x0003d024   Section       14  qmtmengine_symbian.o(t._ZN5QListIS_IN10QtMobility14QMessageFilterEEE6appendERKS2_.clean)
    t._ZN5QListIS_IN10QtMobility14QMessageFilterEEE9node_copyEPNS3_4NodeES5_S5_ 0x0003d032   Section       92  qmtmengine_symbian.o(t._ZN5QListIS_IN10QtMobility14QMessageFilterEEE9node_copyEPNS3_4NodeES5_S5_)
    t._ZN5QListIS_IN10QtMobility14QMessageFilterEEE9node_copyEPNS3_4NodeES5_S5_.clean 0x0003d08e   Section       22  qmtmengine_symbian.o(t._ZN5QListIS_IN10QtMobility14QMessageFilterEEE9node_copyEPNS3_4NodeES5_S5_.clean)
    t._ZN5QListIS_IN10QtMobility14QMessageFilterEEEC1Ev 0x0003d0a4   Section       24  qmessagefilter_symbian.o(t._ZN5QListIS_IN10QtMobility14QMessageFilterEEEC1Ev)
    t._ZN5QListIS_IN10QtMobility14QMessageFilterEEED1Ev 0x0003d0bc   Section       32  qmessagefilter_symbian.o(t._ZN5QListIS_IN10QtMobility14QMessageFilterEEED1Ev)
    t._ZN5QListIS_IN10QtMobility14QMessageFilterEEEaSERKS3_ 0x0003d0dc   Section       64  qmessagefilter_symbian.o(t._ZN5QListIS_IN10QtMobility14QMessageFilterEEEaSERKS3_)
    t._ZN5QListIS_IN10QtMobility14QMessageFilterEEEixEi 0x0003d11c   Section       42  qmtmengine_symbian.o(t._ZN5QListIS_IN10QtMobility14QMessageFilterEEEixEi)
    t._ZN5QListIS_IN10QtMobility14QMessageFilterEEEpLERKS3_ 0x0003d148   Section      156  qmessagefilter_symbian.o(t._ZN5QListIS_IN10QtMobility14QMessageFilterEEEpLERKS3_)
    t._ZN5QListIS_IN10QtMobility14QMessageFilterEEEpLERKS3_.clean 0x0003d1e4   Section        8  qmessagefilter_symbian.o(t._ZN5QListIS_IN10QtMobility14QMessageFilterEEEpLERKS3_.clean)
    t._ZN5QListIS_IN10QtMobility20QMessageFolderFilterEEE13detach_helperEi 0x0003d1ec   Section       94  qmtmengine_symbian.o(t._ZN5QListIS_IN10QtMobility20QMessageFolderFilterEEE13detach_helperEi)
    t._ZN5QListIS_IN10QtMobility20QMessageFolderFilterEEE13detach_helperEi.clean 0x0003d24a   Section        8  qmtmengine_symbian.o(t._ZN5QListIS_IN10QtMobility20QMessageFolderFilterEEE13detach_helperEi.clean)
    t._ZN5QListIS_IN10QtMobility20QMessageFolderFilterEEE13detach_helperEv 0x0003d252   Section       16  qmtmengine_symbian.o(t._ZN5QListIS_IN10QtMobility20QMessageFolderFilterEEE13detach_helperEv)
    t._ZN5QListIS_IN10QtMobility20QMessageFolderFilterEEE13node_destructEPNS3_4NodeES5_ 0x0003d262   Section       38  qmtmengine_symbian.o(t._ZN5QListIS_IN10QtMobility20QMessageFolderFilterEEE13node_destructEPNS3_4NodeES5_)
    t._ZN5QListIS_IN10QtMobility20QMessageFolderFilterEEE14node_constructEPNS3_4NodeERKS2_ 0x0003d288   Section       34  qmtmengine_symbian.o(t._ZN5QListIS_IN10QtMobility20QMessageFolderFilterEEE14node_constructEPNS3_4NodeERKS2_)
    t._ZN5QListIS_IN10QtMobility20QMessageFolderFilterEEE14node_constructEPNS3_4NodeERKS2_.clean 0x0003d2aa   Section       14  qmtmengine_symbian.o(t._ZN5QListIS_IN10QtMobility20QMessageFolderFilterEEE14node_constructEPNS3_4NodeERKS2_.clean)
    t._ZN5QListIS_IN10QtMobility20QMessageFolderFilterEEE18detach_helper_growEii 0x0003d2b8   Section      208  qmtmengine_symbian.o(t._ZN5QListIS_IN10QtMobility20QMessageFolderFilterEEE18detach_helper_growEii)
    t._ZN5QListIS_IN10QtMobility20QMessageFolderFilterEEE18detach_helper_growEii.clean 0x0003d388   Section       16  qmtmengine_symbian.o(t._ZN5QListIS_IN10QtMobility20QMessageFolderFilterEEE18detach_helper_growEii.clean)
    t._ZN5QListIS_IN10QtMobility20QMessageFolderFilterEEE4freeEPN9QListData4DataE 0x0003d398   Section       52  qmtmengine_symbian.o(t._ZN5QListIS_IN10QtMobility20QMessageFolderFilterEEE4freeEPN9QListData4DataE)
    t._ZN5QListIS_IN10QtMobility20QMessageFolderFilterEEE5clearEv 0x0003d3cc   Section       28  qmessagefolderfilter_symbian.o(t._ZN5QListIS_IN10QtMobility20QMessageFolderFilterEEE5clearEv)
    t._ZN5QListIS_IN10QtMobility20QMessageFolderFilterEEE5clearEv.clean 0x0003d3e8   Section       10  qmessagefolderfilter_symbian.o(t._ZN5QListIS_IN10QtMobility20QMessageFolderFilterEEE5clearEv.clean)
    t._ZN5QListIS_IN10QtMobility20QMessageFolderFilterEEE6appendERKS2_ 0x0003d3f4   Section      112  qmtmengine_symbian.o(t._ZN5QListIS_IN10QtMobility20QMessageFolderFilterEEE6appendERKS2_)
    t._ZN5QListIS_IN10QtMobility20QMessageFolderFilterEEE6appendERKS2_.clean 0x0003d464   Section       14  qmtmengine_symbian.o(t._ZN5QListIS_IN10QtMobility20QMessageFolderFilterEEE6appendERKS2_.clean)
    t._ZN5QListIS_IN10QtMobility20QMessageFolderFilterEEE9node_copyEPNS3_4NodeES5_S5_ 0x0003d472   Section       92  qmtmengine_symbian.o(t._ZN5QListIS_IN10QtMobility20QMessageFolderFilterEEE9node_copyEPNS3_4NodeES5_S5_)
    t._ZN5QListIS_IN10QtMobility20QMessageFolderFilterEEE9node_copyEPNS3_4NodeES5_S5_.clean 0x0003d4ce   Section       22  qmtmengine_symbian.o(t._ZN5QListIS_IN10QtMobility20QMessageFolderFilterEEE9node_copyEPNS3_4NodeES5_S5_.clean)
    t._ZN5QListIS_IN10QtMobility20QMessageFolderFilterEEEC1Ev 0x0003d4e4   Section       24  qmessagefolderfilter_symbian.o(t._ZN5QListIS_IN10QtMobility20QMessageFolderFilterEEEC1Ev)
    t._ZN5QListIS_IN10QtMobility20QMessageFolderFilterEEED1Ev 0x0003d4fc   Section       32  qmessagefolderfilter_symbian.o(t._ZN5QListIS_IN10QtMobility20QMessageFolderFilterEEED1Ev)
    t._ZN5QListIS_IN10QtMobility20QMessageFolderFilterEEEaSERKS3_ 0x0003d51c   Section       64  qmessagefolderfilter_symbian.o(t._ZN5QListIS_IN10QtMobility20QMessageFolderFilterEEEaSERKS3_)
    t._ZN5QListIS_IN10QtMobility20QMessageFolderFilterEEEixEi 0x0003d55c   Section       42  qmtmengine_symbian.o(t._ZN5QListIS_IN10QtMobility20QMessageFolderFilterEEEixEi)
    t._ZN5QListIS_IN10QtMobility20QMessageFolderFilterEEEpLERKS3_ 0x0003d588   Section      156  qmessagefolderfilter_symbian.o(t._ZN5QListIS_IN10QtMobility20QMessageFolderFilterEEEpLERKS3_)
    t._ZN5QListIS_IN10QtMobility20QMessageFolderFilterEEEpLERKS3_.clean 0x0003d624   Section        8  qmessagefolderfilter_symbian.o(t._ZN5QListIS_IN10QtMobility20QMessageFolderFilterEEEpLERKS3_.clean)
    t._ZN5QListIS_IN10QtMobility21QMessageAccountFilterEEE13detach_helperEi 0x0003d62c   Section       94  qmessageaccountfilter_symbian.o(t._ZN5QListIS_IN10QtMobility21QMessageAccountFilterEEE13detach_helperEi)
    t._ZN5QListIS_IN10QtMobility21QMessageAccountFilterEEE13detach_helperEi.clean 0x0003d68a   Section        8  qmessageaccountfilter_symbian.o(t._ZN5QListIS_IN10QtMobility21QMessageAccountFilterEEE13detach_helperEi.clean)
    t._ZN5QListIS_IN10QtMobility21QMessageAccountFilterEEE13detach_helperEv 0x0003d692   Section       16  qmessageaccountfilter_symbian.o(t._ZN5QListIS_IN10QtMobility21QMessageAccountFilterEEE13detach_helperEv)
    t._ZN5QListIS_IN10QtMobility21QMessageAccountFilterEEE13node_destructEPNS3_4NodeES5_ 0x0003d6a2   Section       38  qmessageaccountfilter_symbian.o(t._ZN5QListIS_IN10QtMobility21QMessageAccountFilterEEE13node_destructEPNS3_4NodeES5_)
    t._ZN5QListIS_IN10QtMobility21QMessageAccountFilterEEE14node_constructEPNS3_4NodeERKS2_ 0x0003d6c8   Section       34  qmessageaccountfilter_symbian.o(t._ZN5QListIS_IN10QtMobility21QMessageAccountFilterEEE14node_constructEPNS3_4NodeERKS2_)
    t._ZN5QListIS_IN10QtMobility21QMessageAccountFilterEEE14node_constructEPNS3_4NodeERKS2_.clean 0x0003d6ea   Section       14  qmessageaccountfilter_symbian.o(t._ZN5QListIS_IN10QtMobility21QMessageAccountFilterEEE14node_constructEPNS3_4NodeERKS2_.clean)
    t._ZN5QListIS_IN10QtMobility21QMessageAccountFilterEEE18detach_helper_growEii 0x0003d6f8   Section      208  qmessageaccountfilter_symbian.o(t._ZN5QListIS_IN10QtMobility21QMessageAccountFilterEEE18detach_helper_growEii)
    t._ZN5QListIS_IN10QtMobility21QMessageAccountFilterEEE18detach_helper_growEii.clean 0x0003d7c8   Section       16  qmessageaccountfilter_symbian.o(t._ZN5QListIS_IN10QtMobility21QMessageAccountFilterEEE18detach_helper_growEii.clean)
    t._ZN5QListIS_IN10QtMobility21QMessageAccountFilterEEE4freeEPN9QListData4DataE 0x0003d7d8   Section       58  qmessageaccountfilter_symbian.o(t._ZN5QListIS_IN10QtMobility21QMessageAccountFilterEEE4freeEPN9QListData4DataE)
    t._ZN5QListIS_IN10QtMobility21QMessageAccountFilterEEE5clearEv 0x0003d812   Section       28  qmessageaccountfilter_symbian.o(t._ZN5QListIS_IN10QtMobility21QMessageAccountFilterEEE5clearEv)
    t._ZN5QListIS_IN10QtMobility21QMessageAccountFilterEEE5clearEv.clean 0x0003d82e   Section       10  qmessageaccountfilter_symbian.o(t._ZN5QListIS_IN10QtMobility21QMessageAccountFilterEEE5clearEv.clean)
    t._ZN5QListIS_IN10QtMobility21QMessageAccountFilterEEE6appendERKS2_ 0x0003d838   Section      112  qmessageaccountfilter_symbian.o(t._ZN5QListIS_IN10QtMobility21QMessageAccountFilterEEE6appendERKS2_)
    t._ZN5QListIS_IN10QtMobility21QMessageAccountFilterEEE6appendERKS2_.clean 0x0003d8a8   Section       14  qmessageaccountfilter_symbian.o(t._ZN5QListIS_IN10QtMobility21QMessageAccountFilterEEE6appendERKS2_.clean)
    t._ZN5QListIS_IN10QtMobility21QMessageAccountFilterEEE9node_copyEPNS3_4NodeES5_S5_ 0x0003d8b6   Section       92  qmessageaccountfilter_symbian.o(t._ZN5QListIS_IN10QtMobility21QMessageAccountFilterEEE9node_copyEPNS3_4NodeES5_S5_)
    t._ZN5QListIS_IN10QtMobility21QMessageAccountFilterEEE9node_copyEPNS3_4NodeES5_S5_.clean 0x0003d912   Section       22  qmessageaccountfilter_symbian.o(t._ZN5QListIS_IN10QtMobility21QMessageAccountFilterEEE9node_copyEPNS3_4NodeES5_S5_.clean)
    t._ZN5QListIS_IN10QtMobility21QMessageAccountFilterEEEC1Ev 0x0003d928   Section       24  qmessageaccountfilter_symbian.o(t._ZN5QListIS_IN10QtMobility21QMessageAccountFilterEEEC1Ev)
    t._ZN5QListIS_IN10QtMobility21QMessageAccountFilterEEED1Ev 0x0003d940   Section       32  qmessageaccountfilter_symbian.o(t._ZN5QListIS_IN10QtMobility21QMessageAccountFilterEEED1Ev)
    t._ZN5QListIS_IN10QtMobility21QMessageAccountFilterEEEaSERKS3_ 0x0003d960   Section       64  qmessageaccountfilter_symbian.o(t._ZN5QListIS_IN10QtMobility21QMessageAccountFilterEEEaSERKS3_)
    t._ZN5QListIS_IN10QtMobility21QMessageAccountFilterEEEixEi 0x0003d9a0   Section       42  qmessageaccountfilter_symbian.o(t._ZN5QListIS_IN10QtMobility21QMessageAccountFilterEEEixEi)
    t._ZN5QListIS_IN10QtMobility21QMessageAccountFilterEEEpLERKS3_ 0x0003d9cc   Section      156  qmessageaccountfilter_symbian.o(t._ZN5QListIS_IN10QtMobility21QMessageAccountFilterEEEpLERKS3_)
    t._ZN5QListIS_IN10QtMobility21QMessageAccountFilterEEEpLERKS3_.clean 0x0003da68   Section        8  qmessageaccountfilter_symbian.o(t._ZN5QListIS_IN10QtMobility21QMessageAccountFilterEEEpLERKS3_.clean)
    t._ZN5TPckgI26TImImap4GetPartialMailInfoEC1ERKS0_ 0x0003da70   Section       22  qmtmengine_symbian.o(t._ZN5TPckgI26TImImap4GetPartialMailInfoEC1ERKS0_)
    t._ZN6QCacheI7QStringN10QtMobility8QMessageEE4trimEi 0x0003da86   Section       44  maemohelpers.o(t._ZN6QCacheI7QStringN10QtMobility8QMessageEE4trimEi)
    t._ZN6QCacheI7QStringN10QtMobility8QMessageEE5clearEv 0x0003dab2   Section      128  maemohelpers.o(t._ZN6QCacheI7QStringN10QtMobility8QMessageEE5clearEv)
    t._ZN6QCacheI7QStringN10QtMobility8QMessageEE5clearEv.clean 0x0003db32   Section       10  maemohelpers.o(t._ZN6QCacheI7QStringN10QtMobility8QMessageEE5clearEv.clean)
    t._ZN6QCacheI7QStringN10QtMobility8QMessageEE6insertERKS0_PS2_i 0x0003db3c   Section      158  maemohelpers.o(t._ZN6QCacheI7QStringN10QtMobility8QMessageEE6insertERKS0_PS2_i)
    t._ZN6QCacheI7QStringN10QtMobility8QMessageEE6removeERKS0_ 0x0003dbda   Section       76  maemohelpers.o(t._ZN6QCacheI7QStringN10QtMobility8QMessageEE6removeERKS0_)
    t._ZN6QCacheI7QStringN10QtMobility8QMessageEE6unlinkERNS3_4NodeE 0x0003dc26   Section       84  maemohelpers.o(t._ZN6QCacheI7QStringN10QtMobility8QMessageEE6unlinkERNS3_4NodeE)
    t._ZN6QCacheI7QStringN10QtMobility8QMessageEED1Ev 0x0003dc7a   Section       26  maemohelpers.o(t._ZN6QCacheI7QStringN10QtMobility8QMessageEED1Ev)
    t._ZN6QCacheI7QStringN10QtMobility8QMessageEED1Ev.clean 0x0003dc94   Section       12  maemohelpers.o(t._ZN6QCacheI7QStringN10QtMobility8QMessageEED1Ev.clean)
    t._ZN8TPckgBufIiEC1Ev                    0x0003dca0   Section       34  qmtmengine_symbian.o(t._ZN8TPckgBufIiEC1Ev)
    t._ZN9CArrayFixIlE2AtEi                  0x0003dcc2   Section       16  qmtmengine_symbian.o(t._ZN9CArrayFixIlE2AtEi)
    t._ZN9CArrayFixIlE7AppendLERKl           0x0003dcd2   Section       24  qmtmengine_symbian.o(t._ZN9CArrayFixIlE7AppendLERKl)
    t._ZN9CArrayFixIlEixEi                   0x0003dcea   Section       16  qmtmengine_symbian.o(t._ZN9CArrayFixIlEixEi)
    t._ZN9QHashNodeI7QStringN10QtMobility15QMessageAccountEEC1ERKS0_RKS2_ 0x0003dcfa   Section       40  qmtmengine_symbian.o(t._ZN9QHashNodeI7QStringN10QtMobility15QMessageAccountEEC1ERKS0_RKS2_)
    t._ZN9QHashNodeI7QStringN10QtMobility15QMessageAccountEEC1ERKS0_RKS2_.clean 0x0003dd22   Section       12  qmtmengine_symbian.o(t._ZN9QHashNodeI7QStringN10QtMobility15QMessageAccountEEC1ERKS0_RKS2_.clean)
    t._ZN9QHashNodeI7QStringN6QCacheIS0_N10QtMobility8QMessageEE4NodeEEC1ERKS0_RKS5_ 0x0003dd2e   Section       46  maemohelpers.o(t._ZN9QHashNodeI7QStringN6QCacheIS0_N10QtMobility8QMessageEE4NodeEEC1ERKS0_RKS5_)
    t._ZN9QHashNodeI7QStringN6QCacheIS0_N10QtMobility8QMessageEE4NodeEEC1ERKS0_RKS5_.clean 0x0003dd5c   Section        4  maemohelpers.o(t._ZN9QHashNodeI7QStringN6QCacheIS0_N10QtMobility8QMessageEE4NodeEEC1ERKS0_RKS5_.clean)
    t._ZN9QMultiMapI10QByteArray7QStringE4findERKS0_ 0x0003dd60   Section      132  qmessagecontentcontainer_symbian.o(t._ZN9QMultiMapI10QByteArray7QStringE4findERKS0_)
    t._ZNK13RPointerArrayI9CMsvEntryE5CountEv 0x0003dde4   Section       12  qmtmengine_symbian.o(t._ZNK13RPointerArrayI9CMsvEntryE5CountEv)
    t._ZNK13RPointerArrayIN14EmailInterface13MEmailAddressEE5CountEv 0x0003ddf0   Section       12  qfsengine_symbian.o(t._ZNK13RPointerArrayIN14EmailInterface13MEmailAddressEE5CountEv)
    t._ZNK17QForeachContainerI5QHashI7QStringN10QtMobility15QMessageAccountEEE9conditionEv 0x0003ddfc   Section       40  qmtmengine_symbian.o(t._ZNK17QForeachContainerI5QHashI7QStringN10QtMobility15QMessageAccountEEE9conditionEv)
    t._ZNK17QForeachContainerI5QListIN10QtMobility15QMessageAddressEEE9conditionEv 0x0003de24   Section       40  qmessage_symbian.o(t._ZNK17QForeachContainerI5QListIN10QtMobility15QMessageAddressEEE9conditionEv)
    t._ZNK17QForeachContainerI5QListIN10QtMobility17QMessageSortOrderEEE9conditionEv 0x0003de4c   Section       40  qmessagemanager.o(t._ZNK17QForeachContainerI5QListIN10QtMobility17QMessageSortOrderEEE9conditionEv)
    t._ZNK17QForeachContainerI5QListIN10QtMobility24QMessageContentContainerEEE9conditionEv 0x0003de74   Section       40  qmessagecontentcontainer_symbian.o(t._ZNK17QForeachContainerI5QListIN10QtMobility24QMessageContentContainerEEE9conditionEv)
    t._ZNK17QForeachContainerI5QListIN10QtMobility26QMessageContentContainerIdEEE9conditionEv 0x0003de9c   Section       40  qmtmengine_symbian.o(t._ZNK17QForeachContainerI5QListIN10QtMobility26QMessageContentContainerIdEEE9conditionEv)
    t._ZNK4QMapI10QByteArray7QStringE14const_iteratorneERKS3_ 0x0003dec4   Section       18  qmessagecontentcontainer_symbian.o(t._ZNK4QMapI10QByteArray7QStringE14const_iteratorneERKS3_)
    t._ZNK4QMapI10QByteArray7QStringE15mutableFindNodeEPPN8QMapData4NodeERKS0_ 0x0003ded6   Section      108  qmessagecontentcontainer_symbian.o(t._ZNK4QMapI10QByteArray7QStringE15mutableFindNodeEPPN8QMapData4NodeERKS0_)
    t._ZNK4QMapI10QByteArray7QStringE4keysEv 0x0003df44   Section      108  qmessagecontentcontainer_symbian.o(t._ZNK4QMapI10QByteArray7QStringE4keysEv)
    t._ZNK4QMapI10QByteArray7QStringE4keysEv.clean 0x0003dfb0   Section       10  qmessagecontentcontainer_symbian.o(t._ZNK4QMapI10QByteArray7QStringE4keysEv.clean)
    t._ZNK4QMapIPN10QtMobility22QMessageServicePrivateEPNS0_24CFSContentFetchOperationEE15mutableFindNodeEPPN8QMapData4NodeERKS2_ 0x0003dfba   Section      108  qfsengine_symbian.o(t._ZNK4QMapIPN10QtMobility22QMessageServicePrivateEPNS0_24CFSContentFetchOperationEE15mutableFindNodeEPPN8QMapData4NodeERKS2_)
    t._ZNK4QMapIiN10QtMobility14QMessageFilterEE14const_iteratorneERKS3_ 0x0003e026   Section       18  qmtmengine_symbian.o(t._ZNK4QMapIiN10QtMobility14QMessageFilterEE14const_iteratorneERKS3_)
    t._ZNK4QMapIiN10QtMobility14QMessageFilterEE15mutableFindNodeEPPN8QMapData4NodeERKi 0x0003e038   Section      108  qmtmengine_symbian.o(t._ZNK4QMapIiN10QtMobility14QMessageFilterEE15mutableFindNodeEPPN8QMapData4NodeERKi)
    t._ZNK4QMapIjPN14EmailInterface13MEmailMailboxEE15mutableFindNodeEPPN8QMapData4NodeERKj 0x0003e0a4   Section      108  qfsengine_symbian.o(t._ZNK4QMapIjPN14EmailInterface13MEmailMailboxEE15mutableFindNodeEPPN8QMapData4NodeERKj)
    t._ZNK4QMapIjPN14EmailInterface13MEmailMailboxEE5valueERKj 0x0003e110   Section      150  qfsengine_symbian.o(t._ZNK4QMapIjPN14EmailInterface13MEmailMailboxEE5valueERKj)
    t._ZNK4QMapIlN19MMsvSessionObserver16TMsvSessionEventEE15mutableFindNodeEPPN8QMapData4NodeERKl 0x0003e1a6   Section      108  qmtmengine_symbian.o(t._ZNK4QMapIlN19MMsvSessionObserver16TMsvSessionEventEE15mutableFindNodeEPPN8QMapData4NodeERKl)
    t._ZNK4QMapIlN19MMsvSessionObserver16TMsvSessionEventEE8containsERKl 0x0003e212   Section      122  qmtmengine_symbian.o(t._ZNK4QMapIlN19MMsvSessionObserver16TMsvSessionEventEE8containsERKl)
    t._ZNK5QHashI7QStringN10QtMobility15QMessageAccountEE14const_iteratorneERKS4_ 0x0003e28c   Section       18  qfsengine_symbian.o(t._ZNK5QHashI7QStringN10QtMobility15QMessageAccountEE14const_iteratorneERKS4_)
    t._ZNK5QHashI7QStringN10QtMobility15QMessageAccountEE4keysEv 0x0003e29e   Section       86  qfsengine_symbian.o(t._ZNK5QHashI7QStringN10QtMobility15QMessageAccountEE4keysEv)
    t._ZNK5QHashI7QStringN10QtMobility15QMessageAccountEE4keysEv.clean 0x0003e2f4   Section       10  qfsengine_symbian.o(t._ZNK5QHashI7QStringN10QtMobility15QMessageAccountEE4keysEv.clean)
    t._ZNK5QHashI7QStringN10QtMobility15QMessageAccountEE5beginEv 0x0003e2fe   Section       44  qfsengine_symbian.o(t._ZNK5QHashI7QStringN10QtMobility15QMessageAccountEE5beginEv)
    t._ZNK5QHashI7QStringN10QtMobility15QMessageAccountEE6valuesEv 0x0003e32c   Section       96  qfsengine_symbian.o(t._ZNK5QHashI7QStringN10QtMobility15QMessageAccountEE6valuesEv)
    t._ZNK5QHashI7QStringN10QtMobility15QMessageAccountEE6valuesEv.clean 0x0003e38c   Section       10  qfsengine_symbian.o(t._ZNK5QHashI7QStringN10QtMobility15QMessageAccountEE6valuesEv.clean)
    t._ZNK5QHashI7QStringN10QtMobility15QMessageAccountEE8containsERKS0_ 0x0003e396   Section       32  qfsengine_symbian.o(t._ZNK5QHashI7QStringN10QtMobility15QMessageAccountEE8containsERKS0_)
    t._ZNK5QHashI7QStringN10QtMobility15QMessageAccountEE8findNodeERKS0_Pj 0x0003e3b6   Section      116  qmtmengine_symbian.o(t._ZNK5QHashI7QStringN10QtMobility15QMessageAccountEE8findNodeERKS0_Pj)
    t._ZNK5QHashI7QStringN6QCacheIS0_N10QtMobility8QMessageEE4NodeEE14const_iteratoreqERKS7_ 0x0003e42a   Section       18  maemohelpers.o(t._ZNK5QHashI7QStringN6QCacheIS0_N10QtMobility8QMessageEE4NodeEE14const_iteratoreqERKS7_)
    t._ZNK5QHashI7QStringN6QCacheIS0_N10QtMobility8QMessageEE4NodeEE4keysEv 0x0003e43c   Section      152  maemohelpers.o(t._ZNK5QHashI7QStringN6QCacheIS0_N10QtMobility8QMessageEE4NodeEE4keysEv)
    t._ZNK5QHashI7QStringN6QCacheIS0_N10QtMobility8QMessageEE4NodeEE4keysEv.clean 0x0003e4d4   Section       10  maemohelpers.o(t._ZNK5QHashI7QStringN6QCacheIS0_N10QtMobility8QMessageEE4NodeEE4keysEv.clean)
    t._ZNK5QHashI7QStringN6QCacheIS0_N10QtMobility8QMessageEE4NodeEE8findNodeERKS0_Pj 0x0003e4de   Section      116  maemohelpers.o(t._ZNK5QHashI7QStringN6QCacheIS0_N10QtMobility8QMessageEE4NodeEE8findNodeERKS0_Pj)
    t._ZNK5QHashIi15QHashDummyValueE8findNodeERKiPj 0x0003e552   Section       94  qmtmengine_symbian.o(t._ZNK5QHashIi15QHashDummyValueE8findNodeERKiPj)
    t._ZNK5QHashIjN10QtMobility8QMessage14StandardFolderEE8findNodeERKjPj 0x0003e5b0   Section       94  qfsengine_symbian.o(t._ZNK5QHashIjN10QtMobility8QMessage14StandardFolderEE8findNodeERKjPj)
    t._ZNK5QListI5QPairIN10QtMobility24QMessageSortOrderPrivate5FieldEN2Qt9SortOrderEEEeqERKS7_ 0x0003e60e   Section      120  qmessagesortorder_symbian.o(t._ZNK5QListI5QPairIN10QtMobility24QMessageSortOrderPrivate5FieldEN2Qt9SortOrderEEEeqERKS7_)
    t._ZNK5QListI5QPairIN10QtMobility30QMessageFolderSortOrderPrivate5FieldEN2Qt9SortOrderEEE7isEmptyEv 0x0003e686   Section       24  qmessagefoldersortorder_symbian.o(t._ZNK5QListI5QPairIN10QtMobility30QMessageFolderSortOrderPrivate5FieldEN2Qt9SortOrderEEE7isEmptyEv)
    t._ZNK5QListI5QPairIN10QtMobility30QMessageFolderSortOrderPrivate5FieldEN2Qt9SortOrderEEEeqERKS7_ 0x0003e69e   Section      132  qmessagefoldersortorder_symbian.o(t._ZNK5QListI5QPairIN10QtMobility30QMessageFolderSortOrderPrivate5FieldEN2Qt9SortOrderEEEeqERKS7_)
    t._ZNK5QListI7QStringE7indexOfERKS0_i    0x0003e722   Section      120  qfsengine_symbian.o(t._ZNK5QListI7QStringE7indexOfERKS0_i)
    t._ZNK5QListIN10QtMobility10QMessageIdEE5countEv 0x0003e79a   Section       12  qmtmengine_symbian.o(t._ZNK5QListIN10QtMobility10QMessageIdEE5countEv)
    t._ZNK5QListIN10QtMobility10QMessageIdEE8containsERKS1_ 0x0003e7a6   Section       72  qmtmengine_symbian.o(t._ZNK5QListIN10QtMobility10QMessageIdEE8containsERKS1_)
    t._ZNK5QListIN10QtMobility10QMessageIdEE8iteratorltERKS3_ 0x0003e7ee   Section       18  maemohelpers.o(t._ZNK5QListIN10QtMobility10QMessageIdEE8iteratorltERKS3_)
    t._ZNK5QListIN10QtMobility10QMessageIdEEeqERKS2_ 0x0003e800   Section      110  qmessagefilter_symbian.o(t._ZNK5QListIN10QtMobility10QMessageIdEEeqERKS2_)
    t._ZNK5QListIN10QtMobility11PendingSendEE5countEv 0x0003e86e   Section       12  qmtmengine_symbian.o(t._ZNK5QListIN10QtMobility11PendingSendEE5countEv)
    t._ZNK5QListIN10QtMobility12MessageEventEE2atEi 0x0003e87a   Section       22  qmtmengine_symbian.o(t._ZNK5QListIN10QtMobility12MessageEventEE2atEi)
    t._ZNK5QListIN10QtMobility12MessageEventEE5countEv 0x0003e890   Section       12  qmtmengine_symbian.o(t._ZNK5QListIN10QtMobility12MessageEventEE5countEv)
    t._ZNK5QListIN10QtMobility14QMessageFilterEE5countEv 0x0003e89c   Section       12  qmtmengine_symbian.o(t._ZNK5QListIN10QtMobility14QMessageFilterEE5countEv)
    t._ZNK5QListIN10QtMobility14QMessageFilterEE8iteratorltERKS3_ 0x0003e8a8   Section       18  qmtmengine_symbian.o(t._ZNK5QListIN10QtMobility14QMessageFilterEE8iteratorltERKS3_)
    t._ZNK5QListIN10QtMobility14QMessageFilterEEixEi 0x0003e8ba   Section       22  qmtmengine_symbian.o(t._ZNK5QListIN10QtMobility14QMessageFilterEEixEi)
    t._ZNK5QListIN10QtMobility15QMessageAddressEE2atEi 0x0003e8d0   Section       22  qmtmengine_symbian.o(t._ZNK5QListIN10QtMobility15QMessageAddressEE2atEi)
    t._ZNK5QListIN10QtMobility15QMessageAddressEE4sizeEv 0x0003e8e6   Section       12  qmtmengine_symbian.o(t._ZNK5QListIN10QtMobility15QMessageAddressEE4sizeEv)
    t._ZNK5QListIN10QtMobility15QMessageAddressEE5countEv 0x0003e8f2   Section       12  qmtmengine_symbian.o(t._ZNK5QListIN10QtMobility15QMessageAddressEE5countEv)
    t._ZNK5QListIN10QtMobility15QMessageAddressEEplERKS2_ 0x0003e8fe   Section       28  qmessagesortorder_symbian.o(t._ZNK5QListIN10QtMobility15QMessageAddressEEplERKS2_)
    t._ZNK5QListIN10QtMobility15QMessageAddressEEplERKS2_.clean 0x0003e91a   Section       10  qmessagesortorder_symbian.o(t._ZNK5QListIN10QtMobility15QMessageAddressEEplERKS2_.clean)
    t._ZNK5QListIN10QtMobility16MessageQueryInfoEE5countEv 0x0003e924   Section       12  qmtmengine_symbian.o(t._ZNK5QListIN10QtMobility16MessageQueryInfoEE5countEv)
    t._ZNK5QListIN10QtMobility16QMessageFolderIdEE5countEv 0x0003e930   Section       12  qmtmengine_symbian.o(t._ZNK5QListIN10QtMobility16QMessageFolderIdEE5countEv)
    t._ZNK5QListIN10QtMobility16QMessageFolderIdEE7indexOfERKS1_i 0x0003e93c   Section      118  qmtmengine_symbian.o(t._ZNK5QListIN10QtMobility16QMessageFolderIdEE7indexOfERKS1_i)
    t._ZNK5QListIN10QtMobility16QMessageFolderIdEE8containsERKS1_ 0x0003e9b2   Section       72  qmtmengine_symbian.o(t._ZNK5QListIN10QtMobility16QMessageFolderIdEE8containsERKS1_)
    t._ZNK5QListIN10QtMobility16QMessageFolderIdEE8iteratorltERKS3_ 0x0003e9fa   Section       18  qmtmengine_symbian.o(t._ZNK5QListIN10QtMobility16QMessageFolderIdEE8iteratorltERKS3_)
    t._ZNK5QListIN10QtMobility16QMessageFolderIdEEeqERKS2_ 0x0003ea0c   Section      110  qmessagefolderfilter_symbian.o(t._ZNK5QListIN10QtMobility16QMessageFolderIdEEeqERKS2_)
    t._ZNK5QListIN10QtMobility17QMessageAccountIdEE5countEv 0x0003ea7a   Section       12  qmtmengine_symbian.o(t._ZNK5QListIN10QtMobility17QMessageAccountIdEE5countEv)
    t._ZNK5QListIN10QtMobility17QMessageAccountIdEE8containsERKS1_ 0x0003ea86   Section       72  qmessageaccountfilter_symbian.o(t._ZNK5QListIN10QtMobility17QMessageAccountIdEE8containsERKS1_)
    t._ZNK5QListIN10QtMobility17QMessageAccountIdEE8iteratorltERKS3_ 0x0003eace   Section       18  qmtmengine_symbian.o(t._ZNK5QListIN10QtMobility17QMessageAccountIdEE8iteratorltERKS3_)
    t._ZNK5QListIN10QtMobility17QMessageAccountIdEEeqERKS2_ 0x0003eae0   Section      110  qmessageaccountfilter_symbian.o(t._ZNK5QListIN10QtMobility17QMessageAccountIdEEeqERKS2_)
    t._ZNK5QListIN10QtMobility18FSMessageQueryInfoEE5countEv 0x0003eb4e   Section       12  qfsengine_symbian.o(t._ZNK5QListIN10QtMobility18FSMessageQueryInfoEE5countEv)
    t._ZNK5QListIN10QtMobility20QMessageFolderFilterEE5countEv 0x0003eb5a   Section       12  qmessagefolderfilter_symbian.o(t._ZNK5QListIN10QtMobility20QMessageFolderFilterEE5countEv)
    t._ZNK5QListIN10QtMobility20QMessageFolderFilterEE8iteratorltERKS3_ 0x0003eb66   Section       18  qmtmengine_symbian.o(t._ZNK5QListIN10QtMobility20QMessageFolderFilterEE8iteratorltERKS3_)
    t._ZNK5QListIN10QtMobility21QMessageAccountFilterEE5countEv 0x0003eb78   Section       12  qmessageaccountfilter_symbian.o(t._ZNK5QListIN10QtMobility21QMessageAccountFilterEE5countEv)
    t._ZNK5QListIN10QtMobility21QMessageAccountFilterEE8iteratorltERKS3_ 0x0003eb84   Section       18  qmessageaccountfilter_symbian.o(t._ZNK5QListIN10QtMobility21QMessageAccountFilterEE8iteratorltERKS3_)
    t._ZNK5QListIN10QtMobility24QMessageContentContainerEE5countEv 0x0003eb96   Section       16  qmessagecontentcontainer_symbian.o(t._ZNK5QListIN10QtMobility24QMessageContentContainerEE5countEv)
    t._ZNK5QListIN10QtMobility8QMessageEE8iteratorltERKS3_ 0x0003eba6   Section       18  qmtmengine_symbian.o(t._ZNK5QListIN10QtMobility8QMessageEE8iteratorltERKS3_)
    t._ZNK5QListIP10QTextCodecE7isEmptyEv    0x0003ebb8   Section       24  qmessage.o(t._ZNK5QListIP10QTextCodecE7isEmptyEv)
    t._ZNK5QListIS_IN10QtMobility14QMessageFilterEEE5countEv 0x0003ebd0   Section       12  qmtmengine_symbian.o(t._ZNK5QListIS_IN10QtMobility14QMessageFilterEEE5countEv)
    t._ZNK5QListIS_IN10QtMobility14QMessageFilterEEEixEi 0x0003ebdc   Section       22  qmessagefilter_symbian.o(t._ZNK5QListIS_IN10QtMobility14QMessageFilterEEEixEi)
    t._ZNK5QListIS_IN10QtMobility20QMessageFolderFilterEEE5countEv 0x0003ebf2   Section       12  qmtmengine_symbian.o(t._ZNK5QListIS_IN10QtMobility20QMessageFolderFilterEEE5countEv)
    t._ZNK5QListIS_IN10QtMobility20QMessageFolderFilterEEEixEi 0x0003ebfe   Section       22  qmessagefolderfilter_symbian.o(t._ZNK5QListIS_IN10QtMobility20QMessageFolderFilterEEEixEi)
    t._ZNK5QListIS_IN10QtMobility21QMessageAccountFilterEEE5countEv 0x0003ec14   Section       12  qmessageaccountfilter_symbian.o(t._ZNK5QListIS_IN10QtMobility21QMessageAccountFilterEEE5countEv)
    t._ZNK5QListIS_IN10QtMobility21QMessageAccountFilterEEEixEi 0x0003ec20   Section       22  qmessageaccountfilter_symbian.o(t._ZNK5QListIS_IN10QtMobility21QMessageAccountFilterEEEixEi)
    t._ZNK6QCacheI7QStringN10QtMobility8QMessageEE6objectERKS0_ 0x0003ec36   Section      126  maemohelpers.o(t._ZNK6QCacheI7QStringN10QtMobility8QMessageEE6objectERKS0_)
    t._ZNK6QFlagsIN10QtMobility22QMessageDataComparator9MatchFlagEEanES2_ 0x0003ecb4   Section       16  qmtmengine_symbian.o(t._ZNK6QFlagsIN10QtMobility22QMessageDataComparator9MatchFlagEEanES2_)
    t._ZNK6QFlagsIN10QtMobility8QMessage4TypeEEanES2_ 0x0003ecc4   Section       16  qmessageservice_symbian.o(t._ZNK6QFlagsIN10QtMobility8QMessage4TypeEEanES2_)
    t._ZNK6QFlagsIN10QtMobility8QMessage4TypeEEntEv 0x0003ecd4   Section       16  qmtmengine_symbian.o(t._ZNK6QFlagsIN10QtMobility8QMessage4TypeEEntEv)
    t._ZNK6QFlagsIN10QtMobility8QMessage6StatusEEorES2_ 0x0003ece4   Section       16  qmtmengine_symbian.o(t._ZNK6QFlagsIN10QtMobility8QMessage6StatusEEorES2_)
    t._ZNK6RArrayIN14EmailInterface10TMessageIdEE5CountEv 0x0003ecf4   Section       12  qfsengine_symbian.o(t._ZNK6RArrayIN14EmailInterface10TMessageIdEE5CountEv)
    t._ZNK6RArrayIN14EmailInterface10TMessageIdEEixEi 0x0003ed00   Section       16  qfsengine_symbian.o(t._ZNK6RArrayIN14EmailInterface10TMessageIdEEixEi)
    .extab._Z24qMetaTypeConstructHelperIN10QtMobility10QMessageIdEEPvPKT_ 0x0003ed10   Data           0  qmessageid.o(.ARM.extab)
    .extab._ZN10QtMobility13qParseMailboxER7QStringS1_S1_S1_RbS2_ 0x0003ed28   Data           0  addresshelper.o(.ARM.extab)
    .extab._ZN10QtMobility15QMessageAddressC1Ev 0x0003ed88   Data           0  qmessageaddress.o(.ARM.extab)
    .extab._ZN10QtMobility15QMessageAddressC1ENS0_4TypeERK7QString 0x0003ed98   Data           0  qmessageaddress.o(.ARM.extab)
    .extab._ZN10QtMobility15QMessageAddressC1ERKS0_ 0x0003eda8   Data           0  qmessageaddress.o(.ARM.extab)
    .extab._ZN10QtMobility15QMessageAddress17parseEmailAddressERK7QStringPS1_S4_S4_PbS5_ 0x0003edb8   Data           0  qmessageaddress.o(.ARM.extab)
    .extab._ZN10QtMobility8QMessage19preferredCharsetForERK7QString 0x0003edf8   Data           0  qmessage.o(.ARM.extab)
    .extab.__sti___12_qmessage_cpp           0x0003ee50   Data           0  qmessage.o(.ARM.extab)
    .extab._ZN5QListIP10QTextCodecE13detach_helperEi 0x0003ee60   Data           0  qmessage.o(.ARM.extab)
    .extab._ZN5QListIP10QTextCodecE18detach_helper_growEii 0x0003ee7c   Data           0  qmessage.o(.ARM.extab)
    .extab._ZN5QListIP10QTextCodecE6appendERKS1_ 0x0003eeac   Data           0  qmessage.o(.ARM.extab)
    .extab._ZN6QDebugD1Ev                    0x0003eec8   Data           0  qmessage.o(.ARM.extab)
    .extab._ZN10QtMobility15QMessageManagerC1EP7QObject 0x0003eeec   Data           0  qmessagemanager.o(.ARM.extab)
    .extab._ZNK10QtMobility15QMessageManager13queryMessagesERKNS_14QMessageFilterERK5QListINS_17QMessageSortOrderEEjj 0x0003eefc   Data           0  qmessagemanager.o(.ARM.extab)
    .extab._ZNK10QtMobility15QMessageManager13queryMessagesERKNS_14QMessageFilterERK7QString6QFlagsINS_22QMessageDataComparator9MatchFlagEERK5QListINS_17QMessageSortOrderEEjj 0x0003ef1c   Data           0  qmessagemanager.o(.ARM.extab)
    .extab._ZNK10QtMobility15QMessageManager12queryFoldersERKNS_20QMessageFolderFilterERK5QListINS_23QMessageFolderSortOrderEEjj 0x0003ef3c   Data           0  qmessagemanager.o(.ARM.extab)
    .extab._ZNK10QtMobility15QMessageManager13queryAccountsERKNS_21QMessageAccountFilterERK5QListINS_24QMessageAccountSortOrderEEjj 0x0003ef64   Data           0  qmessagemanager.o(.ARM.extab)
    .extab._Z24qMetaTypeConstructHelperI4QSetIiEEPvPKT_ 0x0003ef74   Data           0  qmessagemanager.o(.ARM.extab)
    .extab._ZN5QListIN10QtMobility17QMessageSortOrderEE13detach_helperEi 0x0003ef8c   Data           0  qmessagemanager.o(.ARM.extab)
    .extab._Z20qForeachContainerNewI5QListIN10QtMobility17QMessageSortOrderEEE17QForeachContainerIT_ERKS5_ 0x0003efd0   Data           0  qmessagemanager.o(.ARM.extab)
    .extab._ZN5QListIN10QtMobility23QMessageFolderSortOrderEE13detach_helperEi 0x0003efe0   Data           0  qmessagemanager.o(.ARM.extab)
    .extab._ZN10QtMobility14SymbianHelpers6idTypeERK7QString 0x0003f024   Data           0  messagingutil.o(.ARM.extab)
    .extab._ZN10QtMobility14SymbianHelpers6idTypeERKNS_10QMessageIdE 0x0003f03c   Data           0  messagingutil.o(.ARM.extab)
    .extab._ZN10QtMobility14SymbianHelpers6idTypeERKNS_17QMessageAccountIdE 0x0003f074   Data           0  messagingutil.o(.ARM.extab)
    .extab._ZN10QtMobility14SymbianHelpers6idTypeERKNS_16QMessageFolderIdE 0x0003f0ac   Data           0  messagingutil.o(.ARM.extab)
    .extab._ZN10QtMobility14SymbianHelpers11addIdPrefixERK7QStringRKNS0_10EngineTypeE 0x0003f0e4   Data           0  messagingutil.o(.ARM.extab)
    .extab._ZN10QtMobility14SymbianHelpers11addIdPrefixERKNS_17QMessageAccountIdERKNS0_10EngineTypeE 0x0003f0fc   Data           0  messagingutil.o(.ARM.extab)
    .extab._ZN10QtMobility14SymbianHelpers11addIdPrefixERKNS_16QMessageFolderIdERKNS0_10EngineTypeE 0x0003f154   Data           0  messagingutil.o(.ARM.extab)
    .extab._ZN10QtMobility14SymbianHelpers11addIdPrefixERKNS_10QMessageIdERKNS0_10EngineTypeE 0x0003f1ac   Data           0  messagingutil.o(.ARM.extab)
    .extab._ZN10QtMobility14SymbianHelpers13stripIdPrefixERK7QString 0x0003f1e4   Data           0  messagingutil.o(.ARM.extab)
    .extab._ZN10QtMobility14SymbianHelpers13stripIdPrefixERKNS_10QMessageIdE 0x0003f20c   Data           0  messagingutil.o(.ARM.extab)
    .extab._ZN10QtMobility14SymbianHelpers13stripIdPrefixERKNS_17QMessageAccountIdE 0x0003f2b4   Data           0  messagingutil.o(.ARM.extab)
    .extab._ZN10QtMobility14SymbianHelpers13stripIdPrefixERKNS_16QMessageFolderIdE 0x0003f35c   Data           0  messagingutil.o(.ARM.extab)
    .extab._ZN10QtMobility13MessagingUtil8idPrefixEv 0x0003f404   Data           0  messagingutil.o(.ARM.extab)
    .extab._ZN10QtMobility13MessagingUtil11addIdPrefixERK7QString 0x0003f41c   Data           0  messagingutil.o(.ARM.extab)
    .extab._ZN10QtMobility13MessagingUtil13stripIdPrefixERK7QString 0x0003f43c   Data           0  messagingutil.o(.ARM.extab)
    .extab._ZplRK7QStringS1_                 0x0003f45c   Data           0  messagingutil.o(.ARM.extab)
    .extab._ZplPKcRK7QString                 0x0003f46c   Data           0  messagingutil.o(.ARM.extab)
    .extab._Z8qWarningv                      0x0003f47c   Data           0  messagingutil.o(.ARM.extab)
    .extab._ZN6QDebuglsEPKc                  0x0003f494   Data           0  messagingutil.o(.ARM.extab)
    .extab._ZN10QtMobility10CMTMEngine17cleanupMTMBackendEv 0x0003f4a4   Data           0  qmtmengine_symbian.o(.ARM.extab)
    .extab._ZN10QtMobility10CMTMEngineC1Ev   0x0003f4d8   Data           0  qmtmengine_symbian.o(.ARM.extab)
    .extab._ZN10QtMobility9mtmEngineEv       0x0003f688   Data           0  qmtmengine_symbian.o(.ARM.extab)
    .extab._ZN10QtMobility10CMTMEngineD1Ev   0x0003f6a0   Data           0  qmtmengine_symbian.o(.ARM.extab)
    .extab._ZNK10QtMobility10CMTMEngine7accountERKNS_17QMessageAccountIdE 0x0003f718   Data           0  qmtmengine_symbian.o(.ARM.extab)
    .extab._ZN10QtMobility10CMTMEngine15accountLessThanENS_17QMessageAccountIdES1_ 0x0003f780   Data           0  qmtmengine_symbian.o(.ARM.extab)
    .extab._ZNK10QtMobility10CMTMEngine13queryAccountsERKNS_21QMessageAccountFilterERKNS_24QMessageAccountSortOrderEjj 0x0003f7a0   Data           0  qmtmengine_symbian.o(.ARM.extab)
    .extab._ZNK10QtMobility10CMTMEngine13countAccountsERKNS_21QMessageAccountFilterE 0x0003f870   Data           0  qmtmengine_symbian.o(.ARM.extab)
    .extab._ZNK10QtMobility10CMTMEngine14defaultAccountENS_8QMessage4TypeE 0x0003f890   Data           0  qmtmengine_symbian.o(.ARM.extab)
    .extab._ZNK10QtMobility10CMTMEngine20accountIdByServiceIdEl 0x0003f8e0   Data           0  qmtmengine_symbian.o(.ARM.extab)
    .extab._ZNK10QtMobility10CMTMEngine38retrieveCMsvEntryAndPushToCleanupStackEl 0x0003f930   Data           0  qmtmengine_symbian.o(.ARM.extab)
    .extab._ZNK10QtMobility10CMTMEngine34serviceEntryIdFromQMessageFolderIdERKNS_16QMessageFolderIdE 0x0003f988   Data           0  qmtmengine_symbian.o(.ARM.extab)
    .extab._ZNK10QtMobility10CMTMEngine28folderIdFromQMessageFolderIdERKNS_16QMessageFolderIdE 0x0003f9b8   Data           0  qmtmengine_symbian.o(.ARM.extab)
    .extab._ZNK10QtMobility10CMTMEngine7folderLERKNS_16QMessageFolderIdE 0x0003f9e8   Data           0  qmtmengine_symbian.o(.ARM.extab)
    .extab._ZNK10QtMobility10CMTMEngine6folderERKNS_16QMessageFolderIdE 0x0003fa48   Data           0  qmtmengine_symbian.o(.ARM.extab)
    .extab._ZN10QtMobility10CMTMEngine14folderLessThanENS_16QMessageFolderIdES1_ 0x0003fa90   Data           0  qmtmengine_symbian.o(.ARM.extab)
    .extab._ZNK10QtMobility10CMTMEngine22createQMessageFolderIdERKlS2_ 0x0003fab0   Data           0  qmtmengine_symbian.o(.ARM.extab)
    .extab._ZNK10QtMobility10CMTMEngine25folderIdsByServiceEntryIdERKlS2_ 0x0003fb40   Data           0  qmtmengine_symbian.o(.ARM.extab)
    .extab._ZNK10QtMobility10CMTMEngine20folderIdsByAccountIdERKNS_17QMessageAccountIdE 0x0003fbe0   Data           0  qmtmengine_symbian.o(.ARM.extab)
    .extab._ZNK10QtMobility10CMTMEngine10allFoldersEv 0x0003fc08   Data           0  qmtmengine_symbian.o(.ARM.extab)
    .extab._ZNK10QtMobility10CMTMEngine21filterMessageFoldersLERKNS_20QMessageFolderFilterERb 0x0003fc88   Data           0  qmtmengine_symbian.o(.ARM.extab)
    .extab._ZNK10QtMobility10CMTMEngine20filterMessageFoldersERKNS_20QMessageFolderFilterERb 0x0003fe90   Data           0  qmtmengine_symbian.o(.ARM.extab)
    .extab._ZNK10QtMobility10CMTMEngine35handleNestedFiltersFromFolderFilterERNS_20QMessageFolderFilterE 0x0003fed8   Data           0  qmtmengine_symbian.o(.ARM.extab)
    .extab._ZNK10QtMobility10CMTMEngine12queryFoldersERKNS_20QMessageFolderFilterERKNS_23QMessageFolderSortOrderEjj 0x0003ff80   Data           0  qmtmengine_symbian.o(.ARM.extab)
    .extab._ZNK10QtMobility10CMTMEngine12countFoldersERKNS_20QMessageFolderFilterE 0x0003ffe0   Data           0  qmtmengine_symbian.o(.ARM.extab)
    .extab._ZN10QtMobility8QMTMWaitD1Ev      0x00040000   Data           0  qmtmengine_symbian.o(.ARM.extab)
    .extab._ZN10QtMobility10CMTMEngine17privateFolderPathEv 0x00040018   Data           0  qmtmengine_symbian.o(.ARM.extab)
    .extab._ZN10QtMobility8QMTMWaitC1Ei      0x00040024   Data           0  qmtmengine_symbian.o(.ARM.extab)
    .extab._ZN10QtMobility10CMTMEngine11storeEmailLERNS_8QMessageE 0x0004003c   Data           0  qmtmengine_symbian.o(.ARM.extab)
    .extab._ZN10QtMobility10CMTMEngine10storeEmailERNS_8QMessageE 0x000403a0   Data           0  qmtmengine_symbian.o(.ARM.extab)
    .extab._ZN10QtMobility10CMTMEngine9storeMMSLERNS_8QMessageE 0x000403d0   Data           0  qmtmengine_symbian.o(.ARM.extab)
    .extab._ZN10QtMobility10CMTMEngine8storeMMSERNS_8QMessageE 0x000406dc   Data           0  qmtmengine_symbian.o(.ARM.extab)
    .extab._ZN10QtMobility10CMTMEngine9storeSMSLERNS_8QMessageE 0x0004070c   Data           0  qmtmengine_symbian.o(.ARM.extab)
    .extab._ZN10QtMobility10CMTMEngine8storeSMSERNS_8QMessageE 0x000407e4   Data           0  qmtmengine_symbian.o(.ARM.extab)
    .extab._ZN10QtMobility10CMTMEngine10addMessageEPNS_8QMessageE 0x00040814   Data           0  qmtmengine_symbian.o(.ARM.extab)
    .extab._ZN10QtMobility10CMTMEngine12updateEmailLERNS_8QMessageE 0x00040844   Data           0  qmtmengine_symbian.o(.ARM.extab)
    .extab._ZN10QtMobility10CMTMEngine10updateMMSLERNS_8QMessageE 0x00040bb4   Data           0  qmtmengine_symbian.o(.ARM.extab)
    .extab._ZN10QtMobility10CMTMEngine10updateSMSLERNS_8QMessageE 0x00040eb8   Data           0  qmtmengine_symbian.o(.ARM.extab)
    .extab._ZN10QtMobility10CMTMEngine13updateMessageEPNS_8QMessageE 0x00040f90   Data           0  qmtmengine_symbian.o(.ARM.extab)
    .extab._ZN10QtMobility10CMTMEngine14removeMessageLERKNS_10QMessageIdENS_15QMessageManager13RemovalOptionE 0x00041030   Data           0  qmtmengine_symbian.o(.ARM.extab)
    .extab._ZN10QtMobility10CMTMEngine13removeMessageERKNS_10QMessageIdENS_15QMessageManager13RemovalOptionE 0x00041060   Data           0  qmtmengine_symbian.o(.ARM.extab)
    .extab._ZN10QtMobility22CMessagesFindOperation15getAllMessagesLE21TMsvSelectionOrdering 0x00041090   Data           0  qmtmengine_symbian.o(.ARM.extab)
    .extab._ZNK10QtMobility10CMTMEngine14accountsByTypeENS_8QMessage4TypeE 0x000410b0   Data           0  qmtmengine_symbian.o(.ARM.extab)
    .extab._ZN10QtMobility22CMessagesFindOperation22filterAndOrderMessagesERK5QListINS_14QMessageFilterEERKNS_17QMessageSortOrderE7QString6QFlagsINS_22QMessageDataComparator9MatchFlagEE 0x000410f0   Data           0  qmtmengine_symbian.o(.ARM.extab)
    .extab._ZN10QtMobility22CMessagesFindOperation22filterAndOrderMessagesERKNS_14QMessageFilterERKNS_17QMessageSortOrderE7QString6QFlagsINS_22QMessageDataComparator9MatchFlagEE 0x00041318   Data           0  qmtmengine_symbian.o(.ARM.extab)
    .extab._ZNK10QtMobility10CMTMEngine36handleNestedFiltersFromMessageFilterERNS_14QMessageFilterE 0x00041328   Data           0  qmtmengine_symbian.o(.ARM.extab)
    .extab._ZN10QtMobility22CMessagesFindOperationC1ERNS_10CMTMEngineEP11CMsvSessioni 0x00041470   Data           0  qmtmengine_symbian.o(.ARM.extab)
    .extab._ZNK10QtMobility10CMTMEngine14queryMessagesLERNS_22QMessageServicePrivateERKNS_14QMessageFilterERKNS_17QMessageSortOrderEjj 0x00041490   Data           0  qmtmengine_symbian.o(.ARM.extab)
    .extab._ZNK10QtMobility10CMTMEngine13queryMessagesERNS_22QMessageServicePrivateERKNS_14QMessageFilterERKNS_17QMessageSortOrderEjj 0x000414d0   Data           0  qmtmengine_symbian.o(.ARM.extab)
    .extab._ZNK10QtMobility10CMTMEngine14queryMessagesLERNS_22QMessageServicePrivateERKNS_14QMessageFilterERK7QString6QFlagsINS_22QMessageDataComparator9MatchFlagEERKNS_17QMessageSortOrderEjj 0x00041500   Data           0  qmtmengine_symbian.o(.ARM.extab)
    .extab._ZNK10QtMobility10CMTMEngine13queryMessagesERNS_22QMessageServicePrivateERKNS_14QMessageFilterERK7QString6QFlagsINS_22QMessageDataComparator9MatchFlagEERKNS_17QMessageSortOrderEjj 0x00041540   Data           0  qmtmengine_symbian.o(.ARM.extab)
    .extab._ZN10QtMobility10CMTMEngine14countMessagesLERNS_22QMessageServicePrivateERKNS_14QMessageFilterE 0x00041570   Data           0  qmtmengine_symbian.o(.ARM.extab)
    .extab._ZN10QtMobility10CMTMEngine13countMessagesERNS_22QMessageServicePrivateERKNS_14QMessageFilterE 0x000415c0   Data           0  qmtmengine_symbian.o(.ARM.extab)
    .extab._ZN10QtMobility10CMTMEngine12showMessageLERKNS_10QMessageIdE 0x000415f0   Data           0  qmtmengine_symbian.o(.ARM.extab)
    .extab._ZN10QtMobility10CMTMEngine11showMessageERKNS_10QMessageIdE 0x00041618   Data           0  qmtmengine_symbian.o(.ARM.extab)
    .extab._ZN10QtMobility10CMTMEngine13composeEmailLERKNS_8QMessageE 0x00041648   Data           0  qmtmengine_symbian.o(.ARM.extab)
    .extab._ZN10QtMobility10CMTMEngine11composeMMSLERKNS_8QMessageE 0x000417d0   Data           0  qmtmengine_symbian.o(.ARM.extab)
    .extab._ZN10QtMobility10CMTMEngine11composeSMSLERKNS_8QMessageE 0x000418d8   Data           0  qmtmengine_symbian.o(.ARM.extab)
    .extab._ZN10QtMobility10CMTMEngine14composeMessageERKNS_8QMessageE 0x00041920   Data           0  qmtmengine_symbian.o(.ARM.extab)
    .extab._ZNK10QtMobility10CMTMEngine25appendAttachmentToMessageERNS_8QMessageERNS_24QMessageContentContainerE 0x00041a60   Data           0  qmtmengine_symbian.o(.ARM.extab)
    .extab._ZNK10QtMobility10CMTMEngine13emailMessageLER9CMsvEntrylb 0x00041b08   Data           0  qmtmengine_symbian.o(.ARM.extab)
    .extab._ZNK10QtMobility10CMTMEngine11mmsMessageLER9CMsvEntrylb 0x00041e48   Data           0  qmtmengine_symbian.o(.ARM.extab)
    .extab._ZNK10QtMobility10CMTMEngine11smsMessageLER9CMsvEntrylb 0x00042088   Data           0  qmtmengine_symbian.o(.ARM.extab)
    .extab._ZNK10QtMobility10CMTMEngine8messageLERKNS_10QMessageIdEb 0x00042198   Data           0  qmtmengine_symbian.o(.ARM.extab)
    .extab._ZNK10QtMobility10CMTMEngine7messageERKNS_10QMessageIdE 0x00042218   Data           0  qmtmengine_symbian.o(.ARM.extab)
    .extab._ZN10QtMobility10CMTMEngine8sendMMSLERNS_22QMessageServicePrivateERNS_8QMessageE 0x00042278   Data           0  qmtmengine_symbian.o(.ARM.extab)
    .extab._ZN10QtMobility10CMTMEngine7sendMMSERNS_22QMessageServicePrivateERNS_8QMessageE 0x000422b8   Data           0  qmtmengine_symbian.o(.ARM.extab)
    .extab._ZN10QtMobility10CMTMEngine10sendEmailLERNS_22QMessageServicePrivateERNS_8QMessageE 0x00042310   Data           0  qmtmengine_symbian.o(.ARM.extab)
    .extab._ZN10QtMobility10CMTMEngine9sendEmailERNS_22QMessageServicePrivateERNS_8QMessageE 0x000423b0   Data           0  qmtmengine_symbian.o(.ARM.extab)
    .extab._ZN10QtMobility10CMTMEngine8sendSMSLERNS_22QMessageServicePrivateERNS_8QMessageE 0x00042408   Data           0  qmtmengine_symbian.o(.ARM.extab)
    .extab._ZN10QtMobility10CMTMEngine7sendSMSERNS_22QMessageServicePrivateERNS_8QMessageE 0x00042448   Data           0  qmtmengine_symbian.o(.ARM.extab)
    .extab._ZN10QtMobility25CAsynchronousMTMOperation26retrieveMessageAttachmentsEl 0x000424a0   Data           0  qmtmengine_symbian.o(.ARM.extab)
    .extab._ZN10QtMobility25CAsynchronousMTMOperationC1ERNS_10CMTMEngineERNS_22QMessageServicePrivateEP8CBaseMtmli 0x000424d0   Data           0  qmtmengine_symbian.o(.ARM.extab)
    .extab._ZN10QtMobility10CMTMEngine30createAsynchronousMTMOperationERNS_22QMessageServicePrivateEP8CBaseMtml 0x000424e0   Data           0  qmtmengine_symbian.o(.ARM.extab)
    .extab._ZN10QtMobility10CMTMEngine9retrieveLERNS_22QMessageServicePrivateERKNS_10QMessageIdERKNS_26QMessageContentContainerIdE 0x000424f0   Data           0  qmtmengine_symbian.o(.ARM.extab)
    .extab._ZN10QtMobility10CMTMEngine8retrieveERNS_22QMessageServicePrivateERKNS_10QMessageIdERKNS_26QMessageContentContainerIdE 0x00042510   Data           0  qmtmengine_symbian.o(.ARM.extab)
    .extab._ZN10QtMobility25CAsynchronousMTMOperation19retrieveMessageBodyEl 0x00042540   Data           0  qmtmengine_symbian.o(.ARM.extab)
    .extab._ZN10QtMobility10CMTMEngine13retrieveBodyLERNS_22QMessageServicePrivateERKNS_10QMessageIdE 0x00042570   Data           0  qmtmengine_symbian.o(.ARM.extab)
    .extab._ZN10QtMobility10CMTMEngine12retrieveBodyERNS_22QMessageServicePrivateERKNS_10QMessageIdE 0x00042590   Data           0  qmtmengine_symbian.o(.ARM.extab)
    .extab._ZN10QtMobility25CAsynchronousMTMOperation21retrieveMessageHeaderEl 0x000425c0   Data           0  qmtmengine_symbian.o(.ARM.extab)
    .extab._ZN10QtMobility10CMTMEngine15retrieveHeaderLERNS_22QMessageServicePrivateERKNS_10QMessageIdE 0x000425f0   Data           0  qmtmengine_symbian.o(.ARM.extab)
    .extab._ZN10QtMobility10CMTMEngine14retrieveHeaderERNS_22QMessageServicePrivateERKNS_10QMessageIdE 0x00042610   Data           0  qmtmengine_symbian.o(.ARM.extab)
    .extab._ZN10QtMobility25CAsynchronousMTMOperation10doFullSyncEv 0x00042640   Data           0  qmtmengine_symbian.o(.ARM.extab)
    .extab._ZN10QtMobility10CMTMEngine14exportUpdatesLERNS_22QMessageServicePrivateERKNS_17QMessageAccountIdE 0x00042670   Data           0  qmtmengine_symbian.o(.ARM.extab)
    .extab._ZN10QtMobility10CMTMEngine13exportUpdatesERNS_22QMessageServicePrivateERKNS_17QMessageAccountIdE 0x00042680   Data           0  qmtmengine_symbian.o(.ARM.extab)
    .extab._ZN10QtMobility10CMTMEngine18attachmentContentLElj 0x000426b0   Data           0  qmtmengine_symbian.o(.ARM.extab)
    .extab._ZN10QtMobility10CMTMEngine17attachmentContentElj 0x000426e0   Data           0  qmtmengine_symbian.o(.ARM.extab)
    .extab._ZN10QtMobility10CMTMEngine21attachmentTextContentEljRK10QByteArray 0x00042728   Data           0  qmtmengine_symbian.o(.ARM.extab)
    .extab._ZN10QtMobility10CMTMEngine32tryToDeliverMessageNotificationsEv 0x00042758   Data           0  qmtmengine_symbian.o(.ARM.extab)
    .extab._ZN10QtMobility10CMTMEngine12notificationEN19MMsvSessionObserver16TMsvSessionEventE4TUidllP9CMsvEntry 0x00042898   Data           0  qmtmengine_symbian.o(.ARM.extab)
    .extab._ZN10QtMobility10CMTMEngine33handleMessageSendingNotificationsEN19MMsvSessionObserver16TMsvSessionEventE4TUidllj 0x00042a20   Data           0  qmtmengine_symbian.o(.ARM.extab)
    .extab._ZNK10QtMobility10CMTMEngine13orderMessagesER5QListINS_10QMessageIdEERKNS_17QMessageSortOrderE 0x00042a80   Data           0  qmtmengine_symbian.o(.ARM.extab)
    .extab._ZN10QtMobility10CMTMEngine27filterAndOrderMessagesReadyEbi5QListINS_10QMessageIdEEib 0x00042ab0   Data           0  qmtmengine_symbian.o(.ARM.extab)
    .extab._ZN10QtMobility10CMTMEngine20switchToMTMRootEntryENS0_7MTMTypeE 0x00042ad0   Data           0  qmtmengine_symbian.o(.ARM.extab)
    .extab._ZN10QtMobility10CMTMEngine33checkIfWaitingDiscardClearMessageEl 0x00042b00   Data           0  qmtmengine_symbian.o(.ARM.extab)
    .extab._ZN10QtMobility10CMTMEngine19HandleSessionEventLEN19MMsvSessionObserver16TMsvSessionEventEPvS3_S3_ 0x00042b58   Data           0  qmtmengine_symbian.o(.ARM.extab)
    .extab._ZThn36_N10QtMobility10CMTMEngine19HandleSessionEventLEN19MMsvSessionObserver16TMsvSessionEventEPvS3_S3_ 0x00042b88   Data           0  qmtmengine_symbian.o(.ARM.extab)
    .extab._ZN10QtMobility22CMessagesFindOperationD1Ev 0x00042bb8   Data           0  qmtmengine_symbian.o(.ARM.extab)
    .extab._ZN10QtMobility22CMessagesFindOperation4RunLEv 0x00042bd8   Data           0  qmtmengine_symbian.o(.ARM.extab)
    .extab._ZN10QtMobility25CAsynchronousMTMOperationD1Ev 0x00042c38   Data           0  qmtmengine_symbian.o(.ARM.extab)
    .extab._ZN10QtMobility25CAsynchronousMTMOperation4RunLEv 0x00042c48   Data           0  qmtmengine_symbian.o(.ARM.extab)
    .extab._Z5qSwapIN10QtMobility17QMessageAccountIdEEvRT_S3_ 0x00042c78   Data           0  qmtmengine_symbian.o(.ARM.extab)
    .extab._ZN18QAlgorithmsPrivate11qSortHelperIN5QListIN10QtMobility17QMessageAccountIdEE8iteratorES3_PFbS3_S3_EEEvT_S8_RKT0_T1_ 0x00042c88   Data           0  qmtmengine_symbian.o(.ARM.extab)
    .extab._Z5qSwapIN10QtMobility16QMessageFolderIdEEvRT_S3_ 0x00042d20   Data           0  qmtmengine_symbian.o(.ARM.extab)
    .extab._ZN18QAlgorithmsPrivate11qSortHelperIN5QListIN10QtMobility16QMessageFolderIdEE8iteratorES3_PFbS3_S3_EEEvT_S8_RKT0_T1_ 0x00042d30   Data           0  qmtmengine_symbian.o(.ARM.extab)
    .extab._Z5qSwapIN10QtMobility8QMessageEEvRT_S3_ 0x00042dc8   Data           0  qmtmengine_symbian.o(.ARM.extab)
    .extab._ZN9QHashNodeI7QStringN10QtMobility15QMessageAccountEEC1ERKS0_RKS2_ 0x00042dd8   Data           0  qmtmengine_symbian.o(.ARM.extab)
    .extab._Z20qForeachContainerNewI5QListIN10QtMobility26QMessageContentContainerIdEEE17QForeachContainerIT_ERKS5_ 0x00042de8   Data           0  qmtmengine_symbian.o(.ARM.extab)
    .extab._Z5qSwapIN10QtMobility14QMessageFilterEEvRT_S3_ 0x00042df8   Data           0  qmtmengine_symbian.o(.ARM.extab)
    .extab._ZN18QAlgorithmsPrivate11qSortHelperIN5QListIN10QtMobility14QMessageFilterEE8iteratorES3_PFbS3_S3_EEEvT_S8_RKT0_T1_ 0x00042e08   Data           0  qmtmengine_symbian.o(.ARM.extab)
    .extab._Z5qSwapIN10QtMobility20QMessageFolderFilterEEvRT_S3_ 0x00042ea0   Data           0  qmtmengine_symbian.o(.ARM.extab)
    .extab._ZN18QAlgorithmsPrivate11qSortHelperIN5QListIN10QtMobility20QMessageFolderFilterEE8iteratorES3_PFbS3_S3_EEEvT_S8_RKT0_T1_ 0x00042eb0   Data           0  qmtmengine_symbian.o(.ARM.extab)
    .extab._ZN5QListI7QStringE14node_constructEPNS1_4NodeERKS0_ 0x00042f48   Data           0  qmtmengine_symbian.o(.ARM.extab)
    .extab._ZN5QListI7QStringE9node_copyEPNS1_4NodeES3_S3_ 0x00042f58   Data           0  qmtmengine_symbian.o(.ARM.extab)
    .extab._ZN5QListI7QStringE18detach_helper_growEii 0x00042f7c   Data           0  qmtmengine_symbian.o(.ARM.extab)
    .extab._ZN5QListI7QStringE6appendERKS0_  0x00042fac   Data           0  qmtmengine_symbian.o(.ARM.extab)
    .extab._ZN4QSetIiE5clearEv               0x00042fdc   Data           0  qmtmengine_symbian.o(.ARM.extab)
    .extab._ZN5QListIN10QtMobility14QMessageFilterEE9node_copyEPNS2_4NodeES4_S4_ 0x00042fec   Data           0  qmtmengine_symbian.o(.ARM.extab)
    .extab._ZN5QListIN10QtMobility14QMessageFilterEE13detach_helperEi 0x00043010   Data           0  qmtmengine_symbian.o(.ARM.extab)
    .extab._ZN5QListIN10QtMobility14QMessageFilterEE5clearEv 0x0004302c   Data           0  qmtmengine_symbian.o(.ARM.extab)
    .extab._ZN5QListIN10QtMobility14QMessageFilterEE14node_constructEPNS2_4NodeERKS1_ 0x0004303c   Data           0  qmtmengine_symbian.o(.ARM.extab)
    .extab._ZN5QListIN10QtMobility14QMessageFilterEE18detach_helper_growEii 0x0004304c   Data           0  qmtmengine_symbian.o(.ARM.extab)
    .extab._ZN5QListIN10QtMobility14QMessageFilterEE6appendERKS1_ 0x0004307c   Data           0  qmtmengine_symbian.o(.ARM.extab)
    .extab._ZN5QListIN10QtMobility8QMessageEE9node_copyEPNS2_4NodeES4_S4_ 0x000430ac   Data           0  qmtmengine_symbian.o(.ARM.extab)
    .extab._ZN5QListIN10QtMobility8QMessageEE13detach_helperEi 0x000430d0   Data           0  qmtmengine_symbian.o(.ARM.extab)
    .extab._ZN5QListIN10QtMobility8QMessageEE14node_constructEPNS2_4NodeERKS1_ 0x000430ec   Data           0  qmtmengine_symbian.o(.ARM.extab)
    .extab._ZN5QListIN10QtMobility8QMessageEE18detach_helper_growEii 0x000430fc   Data           0  qmtmengine_symbian.o(.ARM.extab)
    .extab._ZN5QListIN10QtMobility8QMessageEE6appendERKS1_ 0x0004312c   Data           0  qmtmengine_symbian.o(.ARM.extab)
    .extab._ZN5QListIN10QtMobility20QMessageFolderFilterEE9node_copyEPNS2_4NodeES4_S4_ 0x0004315c   Data           0  qmtmengine_symbian.o(.ARM.extab)
    .extab._ZN5QListIN10QtMobility20QMessageFolderFilterEE13detach_helperEi 0x00043180   Data           0  qmtmengine_symbian.o(.ARM.extab)
    .extab._ZN5QListIN10QtMobility20QMessageFolderFilterEE14node_constructEPNS2_4NodeERKS1_ 0x0004319c   Data           0  qmtmengine_symbian.o(.ARM.extab)
    .extab._ZN5QListIN10QtMobility20QMessageFolderFilterEE18detach_helper_growEii 0x000431ac   Data           0  qmtmengine_symbian.o(.ARM.extab)
    .extab._ZN5QListIN10QtMobility20QMessageFolderFilterEE6appendERKS1_ 0x000431dc   Data           0  qmtmengine_symbian.o(.ARM.extab)
    .extab._ZN5QListIN10QtMobility10QMessageIdEE9node_copyEPNS2_4NodeES4_S4_ 0x0004320c   Data           0  qmtmengine_symbian.o(.ARM.extab)
    .extab._ZN5QListIN10QtMobility10QMessageIdEE13detach_helperEi 0x00043230   Data           0  qmtmengine_symbian.o(.ARM.extab)
    .extab._ZN5QListIN10QtMobility10QMessageIdEE5clearEv 0x0004324c   Data           0  qmtmengine_symbian.o(.ARM.extab)
    .extab._ZN5QListIN10QtMobility10QMessageIdEE14node_constructEPNS2_4NodeERKS1_ 0x0004325c   Data           0  qmtmengine_symbian.o(.ARM.extab)
    .extab._ZN5QListIN10QtMobility10QMessageIdEE18detach_helper_growEii 0x0004326c   Data           0  qmtmengine_symbian.o(.ARM.extab)
    .extab._ZN5QListIN10QtMobility10QMessageIdEE6appendERKS1_ 0x0004329c   Data           0  qmtmengine_symbian.o(.ARM.extab)
    .extab._ZN5QListIN10QtMobility10QMessageIdEEpLERKS2_ 0x000432cc   Data           0  qmtmengine_symbian.o(.ARM.extab)
    .extab._ZN5QListIS_IN10QtMobility14QMessageFilterEEE9node_copyEPNS3_4NodeES5_S5_ 0x000432e8   Data           0  qmtmengine_symbian.o(.ARM.extab)
    .extab._ZN5QListIS_IN10QtMobility14QMessageFilterEEE13detach_helperEi 0x0004330c   Data           0  qmtmengine_symbian.o(.ARM.extab)
    .extab._ZN5QListIS_IN10QtMobility14QMessageFilterEEE14node_constructEPNS3_4NodeERKS2_ 0x00043328   Data           0  qmtmengine_symbian.o(.ARM.extab)
    .extab._ZN5QListIS_IN10QtMobility14QMessageFilterEEE18detach_helper_growEii 0x00043338   Data           0  qmtmengine_symbian.o(.ARM.extab)
    .extab._ZN5QListIS_IN10QtMobility14QMessageFilterEEE6appendERKS2_ 0x00043368   Data           0  qmtmengine_symbian.o(.ARM.extab)
    .extab._ZN10QtMobility16MessageQueryInfoC1Ev 0x00043398   Data           0  qmtmengine_symbian.o(.ARM.extab)
    .extab._ZN10QtMobility16MessageQueryInfoC1ERKS0_ 0x000433b8   Data           0  qmtmengine_symbian.o(.ARM.extab)
    .extab._ZN10QtMobility16MessageQueryInfoD1Ev 0x000433d8   Data           0  qmtmengine_symbian.o(.ARM.extab)
    .extab._ZN5QHashI7QStringN10QtMobility15QMessageAccountEE10createNodeEjRKS0_RKS2_PP9QHashNodeIS0_S2_E 0x000433f8   Data           0  qmtmengine_symbian.o(.ARM.extab)
    .extab._ZN5QListIN10QtMobility17QMessageAccountIdEE9node_copyEPNS2_4NodeES4_S4_ 0x00043410   Data           0  qmtmengine_symbian.o(.ARM.extab)
    .extab._ZN5QListIN10QtMobility17QMessageAccountIdEE13detach_helperEi 0x00043434   Data           0  qmtmengine_symbian.o(.ARM.extab)
    .extab._ZN5QListIN10QtMobility17QMessageAccountIdEE5clearEv 0x00043450   Data           0  qmtmengine_symbian.o(.ARM.extab)
    .extab._ZN5QListIN10QtMobility17QMessageAccountIdEE14node_constructEPNS2_4NodeERKS1_ 0x00043460   Data           0  qmtmengine_symbian.o(.ARM.extab)
    .extab._ZN5QListIN10QtMobility17QMessageAccountIdEE18detach_helper_growEii 0x00043470   Data           0  qmtmengine_symbian.o(.ARM.extab)
    .extab._ZN5QListIN10QtMobility17QMessageAccountIdEE6appendERKS1_ 0x000434a0   Data           0  qmtmengine_symbian.o(.ARM.extab)
    .extab._ZN5QListIN10QtMobility16QMessageFolderIdEE9node_copyEPNS2_4NodeES4_S4_ 0x000434d0   Data           0  qmtmengine_symbian.o(.ARM.extab)
    .extab._ZN5QListIN10QtMobility16QMessageFolderIdEE13detach_helperEi 0x000434f4   Data           0  qmtmengine_symbian.o(.ARM.extab)
    .extab._ZN5QListIN10QtMobility16QMessageFolderIdEE5clearEv 0x00043510   Data           0  qmtmengine_symbian.o(.ARM.extab)
    .extab._ZN5QListIN10QtMobility16QMessageFolderIdEE18detach_helper_growEii 0x00043520   Data           0  qmtmengine_symbian.o(.ARM.extab)
    .extab._ZN5QListIN10QtMobility16QMessageFolderIdEEpLERKS2_ 0x00043550   Data           0  qmtmengine_symbian.o(.ARM.extab)
    .extab._ZN5QListIN10QtMobility16QMessageFolderIdEE14node_constructEPNS2_4NodeERKS1_ 0x0004356c   Data           0  qmtmengine_symbian.o(.ARM.extab)
    .extab._ZN5QListIN10QtMobility16QMessageFolderIdEE6appendERKS1_ 0x0004357c   Data           0  qmtmengine_symbian.o(.ARM.extab)
    .extab._ZN5QListIS_IN10QtMobility20QMessageFolderFilterEEE9node_copyEPNS3_4NodeES5_S5_ 0x000435ac   Data           0  qmtmengine_symbian.o(.ARM.extab)
    .extab._ZN5QListIS_IN10QtMobility20QMessageFolderFilterEEE13detach_helperEi 0x000435d0   Data           0  qmtmengine_symbian.o(.ARM.extab)
    .extab._ZN5QListIS_IN10QtMobility20QMessageFolderFilterEEE14node_constructEPNS3_4NodeERKS2_ 0x000435ec   Data           0  qmtmengine_symbian.o(.ARM.extab)
    .extab._ZN5QListIS_IN10QtMobility20QMessageFolderFilterEEE18detach_helper_growEii 0x000435fc   Data           0  qmtmengine_symbian.o(.ARM.extab)
    .extab._ZN5QListIS_IN10QtMobility20QMessageFolderFilterEEE6appendERKS2_ 0x0004362c   Data           0  qmtmengine_symbian.o(.ARM.extab)
    .extab._ZN5QListIN10QtMobility15QMessageAddressEE9node_copyEPNS2_4NodeES4_S4_ 0x0004365c   Data           0  qmtmengine_symbian.o(.ARM.extab)
    .extab._ZN5QListIN10QtMobility15QMessageAddressEE13detach_helperEi 0x00043680   Data           0  qmtmengine_symbian.o(.ARM.extab)
    .extab._ZN5QListIN10QtMobility16MessageQueryInfoEE9node_copyEPNS2_4NodeES4_S4_ 0x0004369c   Data           0  qmtmengine_symbian.o(.ARM.extab)
    .extab._ZN5QListIN10QtMobility16MessageQueryInfoEE13detach_helperEi 0x000436c0   Data           0  qmtmengine_symbian.o(.ARM.extab)
    .extab._ZN5QListIN10QtMobility16MessageQueryInfoEE14node_constructEPNS2_4NodeERKS1_ 0x000436dc   Data           0  qmtmengine_symbian.o(.ARM.extab)
    .extab._ZN5QListIN10QtMobility16MessageQueryInfoEE18detach_helper_growEii 0x000436ec   Data           0  qmtmengine_symbian.o(.ARM.extab)
    .extab._ZN5QListIN10QtMobility16MessageQueryInfoEE6appendERKS1_ 0x0004371c   Data           0  qmtmengine_symbian.o(.ARM.extab)
    .extab._ZN5QListIN10QtMobility15QMessageAddressEE14node_constructEPNS2_4NodeERKS1_ 0x0004374c   Data           0  qmtmengine_symbian.o(.ARM.extab)
    .extab._ZN5QListIN10QtMobility15QMessageAddressEE18detach_helper_growEii 0x0004375c   Data           0  qmtmengine_symbian.o(.ARM.extab)
    .extab._ZN5QListIN10QtMobility15QMessageAddressEE6appendERKS1_ 0x0004378c   Data           0  qmtmengine_symbian.o(.ARM.extab)
    .extab._ZN5QListIN10QtMobility11PendingSendEE9node_copyEPNS2_4NodeES4_S4_ 0x000437bc   Data           0  qmtmengine_symbian.o(.ARM.extab)
    .extab._ZN5QListIN10QtMobility11PendingSendEE13detach_helperEi 0x000437d8   Data           0  qmtmengine_symbian.o(.ARM.extab)
    .extab._ZN5QListIN10QtMobility11PendingSendEE18detach_helper_growEii 0x000437f4   Data           0  qmtmengine_symbian.o(.ARM.extab)
    .extab._ZN5QListIN10QtMobility11PendingSendEE6appendERKS1_ 0x00043824   Data           0  qmtmengine_symbian.o(.ARM.extab)
    .extab._ZN4QMapIiN10QtMobility14QMessageFilterEE11node_createEP8QMapDataPPNS3_4NodeERKiRKS1_ 0x00043854   Data           0  qmtmengine_symbian.o(.ARM.extab)
    .extab._ZN4QMapIiN10QtMobility14QMessageFilterEE13detach_helperEv 0x0004388c   Data           0  qmtmengine_symbian.o(.ARM.extab)
    .extab._ZN5QListIN10QtMobility12MessageEventEE9node_copyEPNS2_4NodeES4_S4_ 0x000438a8   Data           0  qmtmengine_symbian.o(.ARM.extab)
    .extab._ZN5QListIN10QtMobility12MessageEventEE13detach_helperEi 0x000438cc   Data           0  qmtmengine_symbian.o(.ARM.extab)
    .extab._ZN5QListIN10QtMobility12MessageEventEE14node_constructEPNS2_4NodeERKS1_ 0x000438e8   Data           0  qmtmengine_symbian.o(.ARM.extab)
    .extab._ZN5QListIN10QtMobility12MessageEventEE18detach_helper_growEii 0x000438f8   Data           0  qmtmengine_symbian.o(.ARM.extab)
    .extab._ZN5QListIN10QtMobility12MessageEventEE6appendERKS1_ 0x00043928   Data           0  qmtmengine_symbian.o(.ARM.extab)
    .extab._ZN4QMapIlN19MMsvSessionObserver16TMsvSessionEventEE13detach_helperEv 0x00043958   Data           0  qmtmengine_symbian.o(.ARM.extab)
    .extab._ZN5QHashI7QStringN10QtMobility15QMessageAccountEE11deleteNode2EPN9QHashData4NodeE 0x00043974   Data           0  qmtmengine_symbian.o(.ARM.extab)
    .extab._ZN5QHashI7QStringN10QtMobility15QMessageAccountEE13duplicateNodeEPN9QHashData4NodeEPv 0x00043984   Data           0  qmtmengine_symbian.o(.ARM.extab)
    .extab._ZN5CBasenwEj                     0x00043994   Data           0  qmtmengine_symbian.o(.ARM.extab)
    .extab._ZN10QtMobility10QMessageIdaSERKS0_ 0x000439a4   Data           0  qmessageid_symbian.o(.ARM.extab)
    .extab._ZN10QtMobility10QMessageIdC1ERK7QString 0x000439b4   Data           0  qmessageid_symbian.o(.ARM.extab)
    .extab._ZNK10QtMobility10QMessageId8toStringEv 0x000439c4   Data           0  qmessageid_symbian.o(.ARM.extab)
    .extab._ZN10QtMobility5qHashERKNS_10QMessageIdE 0x000439d4   Data           0  qmessageid_symbian.o(.ARM.extab)
    .extab._ZN10QtMobility26QMessageContentContainerIdC1Ev 0x000439e4   Data           0  qmessagecontentcontainerid_symbian.o(.ARM.extab)
    .extab._ZN10QtMobility26QMessageContentContainerIdC1ERKS0_ 0x000439f4   Data           0  qmessagecontentcontainerid_symbian.o(.ARM.extab)
    .extab._ZN10QtMobility26QMessageContentContainerIdC1ERK7QString 0x00043a04   Data           0  qmessagecontentcontainerid_symbian.o(.ARM.extab)
    .extab._ZN10QtMobility16QMessageFolderIdaSERKS0_ 0x00043a1c   Data           0  qmessagefolderid_symbian.o(.ARM.extab)
    .extab._ZN10QtMobility16QMessageFolderIdC1ERK7QString 0x00043a2c   Data           0  qmessagefolderid_symbian.o(.ARM.extab)
    .extab._ZNK10QtMobility16QMessageFolderIdltERKS0_ 0x00043a3c   Data           0  qmessagefolderid_symbian.o(.ARM.extab)
    .extab._ZN10QtMobility5qHashERKNS_16QMessageFolderIdE 0x00043a5c   Data           0  qmessagefolderid_symbian.o(.ARM.extab)
    .extab._ZN10QtMobility17QMessageAccountIdaSERKS0_ 0x00043a6c   Data           0  qmessageaccountid_symbian.o(.ARM.extab)
    .extab._ZN10QtMobility17QMessageAccountIdC1ERK7QString 0x00043a7c   Data           0  qmessageaccountid_symbian.o(.ARM.extab)
    .extab._ZNK10QtMobility17QMessageAccountIdltERKS0_ 0x00043a8c   Data           0  qmessageaccountid_symbian.o(.ARM.extab)
    .extab._ZN10QtMobility5qHashERKNS_17QMessageAccountIdE 0x00043aa4   Data           0  qmessageaccountid_symbian.o(.ARM.extab)
    .extab._ZN10QtMobility24QMessageContentContainerC1ERKS0_ 0x00043ab4   Data           0  qmessagecontentcontainer_symbian.o(.ARM.extab)
    .extab._ZN10QtMobility24QMessageContentContainerC1Ev 0x00043ac4   Data           0  qmessagecontentcontainer_symbian.o(.ARM.extab)
    .extab._ZNK10QtMobility24QMessageContentContainer11textContentEv 0x00043ad4   Data           0  qmessagecontentcontainer_symbian.o(.ARM.extab)
    .extab._ZNK10QtMobility24QMessageContentContainer7contentEv 0x00043afc   Data           0  qmessagecontentcontainer_symbian.o(.ARM.extab)
    .extab._ZNK10QtMobility24QMessageContentContainer16writeTextContentER11QTextStream 0x00043b14   Data           0  qmessagecontentcontainer_symbian.o(.ARM.extab)
    .extab._ZNK10QtMobility24QMessageContentContainer12writeContentER11QDataStream 0x00043b24   Data           0  qmessagecontentcontainer_symbian.o(.ARM.extab)
    .extab._ZNK10QtMobility24QMessageContentContainer10contentIdsEv 0x00043b3c   Data           0  qmessagecontentcontainer_symbian.o(.ARM.extab)
    .extab._ZN10QtMobility31QMessageContentContainerPrivate13bodyContentIdEv 0x00043b5c   Data           0  qmessagecontentcontainer_symbian.o(.ARM.extab)
    .extab._ZN10QtMobility31QMessageContentContainerPrivate10attachmentERKNS_26QMessageContentContainerIdE 0x00043b7c   Data           0  qmessagecontentcontainer_symbian.o(.ARM.extab)
    .extab._ZNK10QtMobility24QMessageContentContainer17headerFieldValuesERK10QByteArray 0x00043b9c   Data           0  qmessagecontentcontainer_symbian.o(.ARM.extab)
    .extab._ZN10QtMobility31QMessageContentContainerPrivate13clearContentsEv 0x00043bac   Data           0  qmessagecontentcontainer_symbian.o(.ARM.extab)
    .extab._ZNK10QtMobility31QMessageContentContainerPrivate10attachmentERKNS_26QMessageContentContainerIdE 0x00043bf4   Data           0  qmessagecontentcontainer_symbian.o(.ARM.extab)
    .extab._ZN10QtMobility31QMessageContentContainerPrivate14setHeaderFieldERK10QByteArrayS3_ 0x00043c14   Data           0  qmessagecontentcontainer_symbian.o(.ARM.extab)
    .extab._ZN10QtMobility31QMessageContentContainerPrivate16createAttachmentERK7QString 0x00043c24   Data           0  qmessagecontentcontainer_symbian.o(.ARM.extab)
    .extab._ZN10QtMobility31QMessageContentContainerPrivate13appendContentERNS_24QMessageContentContainerE 0x00043d3c   Data           0  qmessagecontentcontainer_symbian.o(.ARM.extab)
    .extab._ZN10QtMobility31QMessageContentContainerPrivate14prependContentERNS_24QMessageContentContainerE 0x00043d6c   Data           0  qmessagecontentcontainer_symbian.o(.ARM.extab)
    .extab._ZN10QtMobility31QMessageContentContainerPrivate4fromEljR10QByteArrayS2_S2_iN14EmailInterface17TMessageContentIdE 0x00043dc4   Data           0  qmessagecontentcontainer_symbian.o(.ARM.extab)
    .extab._ZN4QMapI10QByteArray7QStringE11node_createEP8QMapDataPPNS3_4NodeERKS0_RKS1_ 0x00043dd4   Data           0  qmessagecontentcontainer_symbian.o(.ARM.extab)
    .extab._ZN4QMapI10QByteArray7QStringE13detach_helperEv 0x00043e20   Data           0  qmessagecontentcontainer_symbian.o(.ARM.extab)
    .extab._ZN10QtMobility31QMessageContentContainerPrivateC1EPNS_24QMessageContentContainerE 0x00043e3c   Data           0  qmessagecontentcontainer_symbian.o(.ARM.extab)
    .extab._ZN5QListIN10QtMobility24QMessageContentContainerEE9node_copyEPNS2_4NodeES4_S4_ 0x00043e94   Data           0  qmessagecontentcontainer_symbian.o(.ARM.extab)
    .extab._ZN5QListIN10QtMobility24QMessageContentContainerEE13detach_helperEi 0x00043eb8   Data           0  qmessagecontentcontainer_symbian.o(.ARM.extab)
    .extab._Z20qForeachContainerNewI5QListIN10QtMobility24QMessageContentContainerEEE17QForeachContainerIT_ERKS5_ 0x00043ed4   Data           0  qmessagecontentcontainer_symbian.o(.ARM.extab)
    .extab._ZN5QListIN10QtMobility26QMessageContentContainerIdEE14node_constructEPNS2_4NodeERKS1_ 0x00043ee4   Data           0  qmessagecontentcontainer_symbian.o(.ARM.extab)
    .extab._ZN5QListIN10QtMobility26QMessageContentContainerIdEE9node_copyEPNS2_4NodeES4_S4_ 0x00043ef4   Data           0  qmessagecontentcontainer_symbian.o(.ARM.extab)
    .extab._ZN5QListIN10QtMobility26QMessageContentContainerIdEE18detach_helper_growEii 0x00043f18   Data           0  qmessagecontentcontainer_symbian.o(.ARM.extab)
    .extab._ZN5QListIN10QtMobility26QMessageContentContainerIdEE6appendERKS1_ 0x00043f48   Data           0  qmessagecontentcontainer_symbian.o(.ARM.extab)
    .extab._ZN5QListI10QByteArrayE9node_copyEPNS1_4NodeES3_S3_ 0x00043f78   Data           0  qmessagecontentcontainer_symbian.o(.ARM.extab)
    .extab._ZN5QListI10QByteArrayE13detach_helperEi 0x00043f9c   Data           0  qmessagecontentcontainer_symbian.o(.ARM.extab)
    .extab._ZN5QListI10QByteArrayE14node_constructEPNS1_4NodeERKS0_ 0x00043fb8   Data           0  qmessagecontentcontainer_symbian.o(.ARM.extab)
    .extab._ZN5QListI10QByteArrayE18detach_helper_growEii 0x00043fc8   Data           0  qmessagecontentcontainer_symbian.o(.ARM.extab)
    .extab._ZN5QListI10QByteArrayE6appendERKS0_ 0x00043ff8   Data           0  qmessagecontentcontainer_symbian.o(.ARM.extab)
    .extab._ZNK4QMapI10QByteArray7QStringE4keysEv 0x00044028   Data           0  qmessagecontentcontainer_symbian.o(.ARM.extab)
    .extab._ZN5QListIN10QtMobility24QMessageContentContainerEE5clearEv 0x00044038   Data           0  qmessagecontentcontainer_symbian.o(.ARM.extab)
    .extab._ZN5QListIN10QtMobility24QMessageContentContainerEE14node_constructEPNS2_4NodeERKS1_ 0x00044048   Data           0  qmessagecontentcontainer_symbian.o(.ARM.extab)
    .extab._ZN5QListIN10QtMobility24QMessageContentContainerEE18detach_helper_growEii 0x00044058   Data           0  qmessagecontentcontainer_symbian.o(.ARM.extab)
    .extab._ZN5QListIN10QtMobility24QMessageContentContainerEE6appendERKS1_ 0x00044088   Data           0  qmessagecontentcontainer_symbian.o(.ARM.extab)
    .extab._ZN10QtMobility31QMessageContentContainerPrivateD1Ev 0x000440b8   Data           0  qmessagecontentcontainer_symbian.o(.ARM.extab)
    .extab._ZN10QtMobility15QMessagePrivateC1EPNS_8QMessageE 0x00044110   Data           0  qmessage_symbian.o(.ARM.extab)
    .extab._ZN10QtMobility8QMessageC1Ev      0x00044178   Data           0  qmessage_symbian.o(.ARM.extab)
    .extab._ZN10QtMobility15QMessagePrivateD1Ev 0x00044198   Data           0  qmessage_symbian.o(.ARM.extab)
    .extab._ZN10QtMobility8QMessageD1Ev      0x00044200   Data           0  qmessage_symbian.o(.ARM.extab)
    .extab._ZN10QtMobility8QMessageC1ERKNS_10QMessageIdE 0x00044210   Data           0  qmessage_symbian.o(.ARM.extab)
    .extab._ZN10QtMobility8QMessageC1ERKS0_  0x00044250   Data           0  qmessage_symbian.o(.ARM.extab)
    .extab._ZNK10QtMobility8QMessage4sizeEv  0x00044270   Data           0  qmessage_symbian.o(.ARM.extab)
    .extab._ZN10QtMobility8QMessage7setBodyERK7QStringRK10QByteArray 0x00044288   Data           0  qmessage_symbian.o(.ARM.extab)
    .extab._ZN10QtMobility8QMessage7setBodyER11QTextStreamRK10QByteArray 0x000443f8   Data           0  qmessage_symbian.o(.ARM.extab)
    .extab._ZNK10QtMobility8QMessage13attachmentIdsEv 0x00044408   Data           0  qmessage_symbian.o(.ARM.extab)
    .extab._ZN10QtMobility8QMessage17appendAttachmentsERK11QStringList 0x00044458   Data           0  qmessage_symbian.o(.ARM.extab)
    .extab._ZNK10QtMobility8QMessage21createResponseMessageENS0_12ResponseTypeE 0x00044520   Data           0  qmessage_symbian.o(.ARM.extab)
    .extab._ZN5QListIN10QtMobility26QMessageContentContainerIdEE13detach_helperEi 0x00044740   Data           0  qmessage_symbian.o(.ARM.extab)
    .extab._ZN5QListI7QStringE13detach_helperEi 0x0004475c   Data           0  qmessage_symbian.o(.ARM.extab)
    .extab._Z20qForeachContainerNewI5QListIN10QtMobility15QMessageAddressEEE17QForeachContainerIT_ERKS5_ 0x00044778   Data           0  qmessage_symbian.o(.ARM.extab)
    .extab._ZN10QtMobility14QMessageFolderC1Ev 0x00044788   Data           0  qmessagefolder_symbian.o(.ARM.extab)
    .extab._ZN10QtMobility14QMessageFolderD1Ev 0x00044798   Data           0  qmessagefolder_symbian.o(.ARM.extab)
    .extab._ZN10QtMobility14QMessageFolderC1ERKNS_16QMessageFolderIdE 0x000447c0   Data           0  qmessagefolder_symbian.o(.ARM.extab)
    .extab._ZN10QtMobility14QMessageFolderC1ERKS0_ 0x000447e8   Data           0  qmessagefolder_symbian.o(.ARM.extab)
    .extab._ZN10QtMobility21QMessageFolderPrivate4fromERKNS_16QMessageFolderIdERKNS_17QMessageAccountIdES3_RK7QStringS9_ 0x000447f8   Data           0  qmessagefolder_symbian.o(.ARM.extab)
    .extab._ZN10QtMobility21QMessageFolderPrivateC1EPNS_14QMessageFolderE 0x00044808   Data           0  qmessagefolder_symbian.o(.ARM.extab)
    .extab._ZN10QtMobility15QMessageAccountC1Ev 0x00044830   Data           0  qmessageaccount_symbian.o(.ARM.extab)
    .extab._ZN10QtMobility15QMessageAccountD1Ev 0x00044840   Data           0  qmessageaccount_symbian.o(.ARM.extab)
    .extab._ZN10QtMobility15QMessageAccountC1ERKNS_17QMessageAccountIdE 0x00044850   Data           0  qmessageaccount_symbian.o(.ARM.extab)
    .extab._ZN10QtMobility15QMessageAccountC1ERKS0_ 0x00044878   Data           0  qmessageaccount_symbian.o(.ARM.extab)
    .extab._ZN10QtMobility15QMessageAccount14defaultAccountENS_8QMessage4TypeE 0x00044888   Data           0  qmessageaccount_symbian.o(.ARM.extab)
    .extab._ZN10QtMobility22QMessageAccountPrivate4fromERKNS_17QMessageAccountIdERK7QStringllRK6QFlagsINS_8QMessage4TypeEE 0x000448a0   Data           0  qmessageaccount_symbian.o(.ARM.extab)
    .extab._ZN10QtMobility22QMessageAccountPrivateC1EPNS_15QMessageAccountE 0x000448b0   Data           0  qmessageaccount_symbian.o(.ARM.extab)
    .extab._ZN10QtMobility28QMessageAccountFilterPrivateD1Ev 0x000448c0   Data           0  qmessageaccountfilter_symbian.o(.ARM.extab)
    .extab._ZN10QtMobility28QMessageAccountFilterPrivateC1EPNS_21QMessageAccountFilterE 0x000448d8   Data           0  qmessageaccountfilter_symbian.o(.ARM.extab)
    .extab._ZN10QtMobility21QMessageAccountFilterC1ERKS0_ 0x000448f0   Data           0  qmessageaccountfilter_symbian.o(.ARM.extab)
    .extab._ZN10QtMobility21QMessageAccountFilterC1Ev 0x00044900   Data           0  qmessageaccountfilter_symbian.o(.ARM.extab)
    .extab._ZN10QtMobility21QMessageAccountFilteraNERKS0_ 0x00044920   Data           0  qmessageaccountfilter_symbian.o(.ARM.extab)
    .extab._ZN10QtMobility21QMessageAccountFilteroRERKS0_ 0x00044990   Data           0  qmessageaccountfilter_symbian.o(.ARM.extab)
    .extab._ZN10QtMobility28QMessageAccountFilterPrivate26changeANDsAndORsToOppositeERNS_21QMessageAccountFilterE 0x000449c8   Data           0  qmessageaccountfilter_symbian.o(.ARM.extab)
    .extab._ZNK10QtMobility21QMessageAccountFiltercoEv 0x00044a08   Data           0  qmessageaccountfilter_symbian.o(.ARM.extab)
    .extab._ZNK10QtMobility21QMessageAccountFilteranERKS0_ 0x00044a18   Data           0  qmessageaccountfilter_symbian.o(.ARM.extab)
    .extab._ZNK10QtMobility21QMessageAccountFilterorERKS0_ 0x00044a28   Data           0  qmessageaccountfilter_symbian.o(.ARM.extab)
    .extab._ZN10QtMobility21QMessageAccountFilter4byIdERKNS_17QMessageAccountIdENS_22QMessageDataComparator18EqualityComparatorE 0x00044a38   Data           0  qmessageaccountfilter_symbian.o(.ARM.extab)
    .extab._ZN10QtMobility21QMessageAccountFilter4byIdERK5QListINS_17QMessageAccountIdEENS_22QMessageDataComparator19InclusionComparatorE 0x00044a68   Data           0  qmessageaccountfilter_symbian.o(.ARM.extab)
    .extab._ZN10QtMobility21QMessageAccountFilter4byIdERKS0_NS_22QMessageDataComparator19InclusionComparatorE 0x00044a78   Data           0  qmessageaccountfilter_symbian.o(.ARM.extab)
    .extab._ZN10QtMobility21QMessageAccountFilter6byNameERK7QStringNS_22QMessageDataComparator18EqualityComparatorE 0x00044a98   Data           0  qmessageaccountfilter_symbian.o(.ARM.extab)
    .extab._ZN10QtMobility21QMessageAccountFilter6byNameERK7QStringNS_22QMessageDataComparator19InclusionComparatorE 0x00044ab8   Data           0  qmessageaccountfilter_symbian.o(.ARM.extab)
    .extab._ZN10QtMobility28QMessageAccountFilterPrivate6filterERKNS_15QMessageAccountERKS0_ 0x00044ad8   Data           0  qmessageaccountfilter_symbian.o(.ARM.extab)
    .extab._ZN5QListIN10QtMobility21QMessageAccountFilterEE9node_copyEPNS2_4NodeES4_S4_ 0x00044ba0   Data           0  qmessageaccountfilter_symbian.o(.ARM.extab)
    .extab._ZN5QListIN10QtMobility21QMessageAccountFilterEE13detach_helperEi 0x00044bc4   Data           0  qmessageaccountfilter_symbian.o(.ARM.extab)
    .extab._ZN5QListIS_IN10QtMobility21QMessageAccountFilterEEE9node_copyEPNS3_4NodeES5_S5_ 0x00044be0   Data           0  qmessageaccountfilter_symbian.o(.ARM.extab)
    .extab._ZN5QListIS_IN10QtMobility21QMessageAccountFilterEEE13detach_helperEi 0x00044c04   Data           0  qmessageaccountfilter_symbian.o(.ARM.extab)
    .extab._Z5qSwapIN10QtMobility21QMessageAccountFilterEEvRT_S3_ 0x00044c20   Data           0  qmessageaccountfilter_symbian.o(.ARM.extab)
    .extab._ZN18QAlgorithmsPrivate11qSortHelperIN5QListIN10QtMobility21QMessageAccountFilterEE8iteratorES3_PFbS3_S3_EEEvT_S8_RKT0_T1_ 0x00044c30   Data           0  qmessageaccountfilter_symbian.o(.ARM.extab)
    .extab._ZN5QListIN10QtMobility21QMessageAccountFilterEE14node_constructEPNS2_4NodeERKS1_ 0x00044cc8   Data           0  qmessageaccountfilter_symbian.o(.ARM.extab)
    .extab._ZN5QListIN10QtMobility21QMessageAccountFilterEE18detach_helper_growEii 0x00044cd8   Data           0  qmessageaccountfilter_symbian.o(.ARM.extab)
    .extab._ZN5QListIN10QtMobility21QMessageAccountFilterEE6appendERKS1_ 0x00044d08   Data           0  qmessageaccountfilter_symbian.o(.ARM.extab)
    .extab._ZN5QListIN10QtMobility21QMessageAccountFilterEEpLERKS2_ 0x00044d38   Data           0  qmessageaccountfilter_symbian.o(.ARM.extab)
    .extab._ZN5QListIS_IN10QtMobility21QMessageAccountFilterEEE14node_constructEPNS3_4NodeERKS2_ 0x00044d54   Data           0  qmessageaccountfilter_symbian.o(.ARM.extab)
    .extab._ZN5QListIS_IN10QtMobility21QMessageAccountFilterEEE18detach_helper_growEii 0x00044d64   Data           0  qmessageaccountfilter_symbian.o(.ARM.extab)
    .extab._ZN5QListIS_IN10QtMobility21QMessageAccountFilterEEE6appendERKS2_ 0x00044d94   Data           0  qmessageaccountfilter_symbian.o(.ARM.extab)
    .extab._ZN5QListIS_IN10QtMobility21QMessageAccountFilterEEEpLERKS3_ 0x00044dc4   Data           0  qmessageaccountfilter_symbian.o(.ARM.extab)
    .extab._ZN5QListIS_IN10QtMobility21QMessageAccountFilterEEE5clearEv 0x00044de0   Data           0  qmessageaccountfilter_symbian.o(.ARM.extab)
    .extab._ZN10QtMobility24QMessageAccountSortOrderaSERKS0_ 0x00044df0   Data           0  qmessageaccountsortorder_symbian.o(.ARM.extab)
    .extab._ZN10QtMobility24QMessageAccountSortOrderC1ERKS0_ 0x00044e00   Data           0  qmessageaccountsortorder_symbian.o(.ARM.extab)
    .extab._ZN10QtMobility24QMessageAccountSortOrder6byNameEN2Qt9SortOrderE 0x00044e10   Data           0  qmessageaccountsortorder_symbian.o(.ARM.extab)
    .extab._ZN10QtMobility31QMessageAccountSortOrderPrivate8lessThanERKNS_24QMessageAccountSortOrderERKNS_15QMessageAccountES6_ 0x00044e28   Data           0  qmessageaccountsortorder_symbian.o(.ARM.extab)
    .extab._ZN10QtMobility27QMessageFolderFilterPrivateD1Ev 0x00044e60   Data           0  qmessagefolderfilter_symbian.o(.ARM.extab)
    .extab._ZN10QtMobility27QMessageFolderFilterPrivateC1EPNS_20QMessageFolderFilterE 0x00044e78   Data           0  qmessagefolderfilter_symbian.o(.ARM.extab)
    .extab._ZN10QtMobility20QMessageFolderFilterC1ERKS0_ 0x00044e90   Data           0  qmessagefolderfilter_symbian.o(.ARM.extab)
    .extab._ZN10QtMobility20QMessageFolderFilteraSERKS0_ 0x00044ea0   Data           0  qmessagefolderfilter_symbian.o(.ARM.extab)
    .extab._ZN10QtMobility20QMessageFolderFilterC1Ev 0x00044eb0   Data           0  qmessagefolderfilter_symbian.o(.ARM.extab)
    .extab._ZN10QtMobility20QMessageFolderFilteraNERKS0_ 0x00044ed0   Data           0  qmessagefolderfilter_symbian.o(.ARM.extab)
    .extab._ZN10QtMobility20QMessageFolderFilteroRERKS0_ 0x00044f40   Data           0  qmessagefolderfilter_symbian.o(.ARM.extab)
    .extab._ZN10QtMobility27QMessageFolderFilterPrivate26changeANDsAndORsToOppositeERNS_20QMessageFolderFilterE 0x00044f78   Data           0  qmessagefolderfilter_symbian.o(.ARM.extab)
    .extab._ZNK10QtMobility20QMessageFolderFiltercoEv 0x00044fb8   Data           0  qmessagefolderfilter_symbian.o(.ARM.extab)
    .extab._ZNK10QtMobility20QMessageFolderFilteranERKS0_ 0x00044fc8   Data           0  qmessagefolderfilter_symbian.o(.ARM.extab)
    .extab._ZNK10QtMobility20QMessageFolderFilterorERKS0_ 0x00044fd8   Data           0  qmessagefolderfilter_symbian.o(.ARM.extab)
    .extab._ZN10QtMobility20QMessageFolderFilter4byIdERKNS_16QMessageFolderIdENS_22QMessageDataComparator18EqualityComparatorE 0x00044fe8   Data           0  qmessagefolderfilter_symbian.o(.ARM.extab)
    .extab._ZN10QtMobility20QMessageFolderFilter4byIdERK5QListINS_16QMessageFolderIdEENS_22QMessageDataComparator19InclusionComparatorE 0x00045018   Data           0  qmessagefolderfilter_symbian.o(.ARM.extab)
    .extab._ZN10QtMobility20QMessageFolderFilter4byIdERKS0_NS_22QMessageDataComparator19InclusionComparatorE 0x00045028   Data           0  qmessagefolderfilter_symbian.o(.ARM.extab)
    .extab._ZN10QtMobility20QMessageFolderFilter6byNameERK7QStringNS_22QMessageDataComparator18EqualityComparatorE 0x00045048   Data           0  qmessagefolderfilter_symbian.o(.ARM.extab)
    .extab._ZN10QtMobility20QMessageFolderFilter6byNameERK7QStringNS_22QMessageDataComparator19InclusionComparatorE 0x00045068   Data           0  qmessagefolderfilter_symbian.o(.ARM.extab)
    .extab._ZN10QtMobility20QMessageFolderFilter6byPathERK7QStringNS_22QMessageDataComparator18EqualityComparatorE 0x00045088   Data           0  qmessagefolderfilter_symbian.o(.ARM.extab)
    .extab._ZN10QtMobility20QMessageFolderFilter6byPathERK7QStringNS_22QMessageDataComparator19InclusionComparatorE 0x000450a8   Data           0  qmessagefolderfilter_symbian.o(.ARM.extab)
    .extab._ZN10QtMobility20QMessageFolderFilter17byParentAccountIdERKNS_17QMessageAccountIdENS_22QMessageDataComparator18EqualityComparatorE 0x000450c8   Data           0  qmessagefolderfilter_symbian.o(.ARM.extab)
    .extab._ZN10QtMobility20QMessageFolderFilter17byParentAccountIdERKNS_21QMessageAccountFilterENS_22QMessageDataComparator19InclusionComparatorE 0x000450f8   Data           0  qmessagefolderfilter_symbian.o(.ARM.extab)
    .extab._ZN10QtMobility27QMessageFolderFilterPrivate6filterERKNS_14QMessageFolderERKS0_ 0x00045110   Data           0  qmessagefolderfilter_symbian.o(.ARM.extab)
    .extab._ZN5QListIN10QtMobility20QMessageFolderFilterEEpLERKS2_ 0x00045328   Data           0  qmessagefolderfilter_symbian.o(.ARM.extab)
    .extab._ZN5QListIS_IN10QtMobility20QMessageFolderFilterEEEpLERKS3_ 0x00045344   Data           0  qmessagefolderfilter_symbian.o(.ARM.extab)
    .extab._ZN5QListIS_IN10QtMobility20QMessageFolderFilterEEE5clearEv 0x00045360   Data           0  qmessagefolderfilter_symbian.o(.ARM.extab)
    .extab._ZN10QtMobility23QMessageFolderSortOrderC1Ev 0x00045370   Data           0  qmessagefoldersortorder_symbian.o(.ARM.extab)
    .extab._ZN10QtMobility23QMessageFolderSortOrderC1ERKS0_ 0x00045380   Data           0  qmessagefoldersortorder_symbian.o(.ARM.extab)
    .extab._ZNK10QtMobility23QMessageFolderSortOrderplERKS0_ 0x00045390   Data           0  qmessagefoldersortorder_symbian.o(.ARM.extab)
    .extab._ZN10QtMobility23QMessageFolderSortOrder6byNameEN2Qt9SortOrderE 0x000453b8   Data           0  qmessagefoldersortorder_symbian.o(.ARM.extab)
    .extab._ZN10QtMobility23QMessageFolderSortOrder6byPathEN2Qt9SortOrderE 0x000453c8   Data           0  qmessagefoldersortorder_symbian.o(.ARM.extab)
    .extab._ZN10QtMobility30QMessageFolderSortOrderPrivate8lessThanERKNS_23QMessageFolderSortOrderERKNS_14QMessageFolderES6_ 0x000453d8   Data           0  qmessagefoldersortorder_symbian.o(.ARM.extab)
    .extab._ZN5QListI5QPairIN10QtMobility30QMessageFolderSortOrderPrivate5FieldEN2Qt9SortOrderEEE9node_copyEPNS7_4NodeES9_S9_ 0x00045440   Data           0  qmessagefoldersortorder_symbian.o(.ARM.extab)
    .extab._ZN5QListI5QPairIN10QtMobility30QMessageFolderSortOrderPrivate5FieldEN2Qt9SortOrderEEE13detach_helperEi 0x00045464   Data           0  qmessagefoldersortorder_symbian.o(.ARM.extab)
    .extab._ZN5QListI5QPairIN10QtMobility30QMessageFolderSortOrderPrivate5FieldEN2Qt9SortOrderEEE18detach_helper_growEii 0x00045480   Data           0  qmessagefoldersortorder_symbian.o(.ARM.extab)
    .extab._ZN5QListI5QPairIN10QtMobility30QMessageFolderSortOrderPrivate5FieldEN2Qt9SortOrderEEEpLERKS7_ 0x000454b0   Data           0  qmessagefoldersortorder_symbian.o(.ARM.extab)
    .extab._ZN5QListI5QPairIN10QtMobility30QMessageFolderSortOrderPrivate5FieldEN2Qt9SortOrderEEE6appendERKS6_ 0x000454cc   Data           0  qmessagefoldersortorder_symbian.o(.ARM.extab)
    .extab._ZN10QtMobility21QMessageFilterPrivateD1Ev 0x000454fc   Data           0  qmessagefilter_symbian.o(.ARM.extab)
    .extab._ZN10QtMobility21QMessageFilterPrivateC1EPNS_14QMessageFilterE 0x00045514   Data           0  qmessagefilter_symbian.o(.ARM.extab)
    .extab._ZN10QtMobility14QMessageFilterC1ERKS0_ 0x0004552c   Data           0  qmessagefilter_symbian.o(.ARM.extab)
    .extab._ZN10QtMobility14QMessageFilteraSERKS0_ 0x0004553c   Data           0  qmessagefilter_symbian.o(.ARM.extab)
    .extab._ZN10QtMobility14QMessageFilterC1Ev 0x00045554   Data           0  qmessagefilter_symbian.o(.ARM.extab)
    .extab._ZN10QtMobility14QMessageFilteraNERKS0_ 0x00045574   Data           0  qmessagefilter_symbian.o(.ARM.extab)
    .extab._ZN10QtMobility14QMessageFilteroRERKS0_ 0x000455e4   Data           0  qmessagefilter_symbian.o(.ARM.extab)
    .extab._ZN10QtMobility21QMessageFilterPrivate26changeANDsAndORsToOppositeERNS_14QMessageFilterE 0x0004561c   Data           0  qmessagefilter_symbian.o(.ARM.extab)
    .extab._ZNK10QtMobility14QMessageFiltercoEv 0x0004565c   Data           0  qmessagefilter_symbian.o(.ARM.extab)
    .extab._ZNK10QtMobility14QMessageFilteranERKS0_ 0x0004566c   Data           0  qmessagefilter_symbian.o(.ARM.extab)
    .extab._ZNK10QtMobility14QMessageFilterorERKS0_ 0x0004567c   Data           0  qmessagefilter_symbian.o(.ARM.extab)
    .extab._ZN10QtMobility14QMessageFilter4byIdERKNS_10QMessageIdENS_22QMessageDataComparator18EqualityComparatorE 0x0004568c   Data           0  qmessagefilter_symbian.o(.ARM.extab)
    .extab._ZN10QtMobility14QMessageFilter4byIdERK5QListINS_10QMessageIdEENS_22QMessageDataComparator19InclusionComparatorE 0x000456bc   Data           0  qmessagefilter_symbian.o(.ARM.extab)
    .extab._ZN10QtMobility14QMessageFilter4byIdERKS0_NS_22QMessageDataComparator19InclusionComparatorE 0x000456cc   Data           0  qmessagefilter_symbian.o(.ARM.extab)
    .extab._ZN10QtMobility14QMessageFilter6byTypeENS_8QMessage4TypeENS_22QMessageDataComparator18EqualityComparatorE 0x000456ec   Data           0  qmessagefilter_symbian.o(.ARM.extab)
    .extab._ZN10QtMobility14QMessageFilter6byTypeE6QFlagsINS_8QMessage4TypeEENS_22QMessageDataComparator19InclusionComparatorE 0x0004570c   Data           0  qmessagefilter_symbian.o(.ARM.extab)
    .extab._ZN10QtMobility14QMessageFilter8bySenderERK7QStringNS_22QMessageDataComparator18EqualityComparatorE 0x0004572c   Data           0  qmessagefilter_symbian.o(.ARM.extab)
    .extab._ZN10QtMobility14QMessageFilter8bySenderERK7QStringNS_22QMessageDataComparator19InclusionComparatorE 0x0004574c   Data           0  qmessagefilter_symbian.o(.ARM.extab)
    .extab._ZN10QtMobility14QMessageFilter12byRecipientsERK7QStringNS_22QMessageDataComparator19InclusionComparatorE 0x0004576c   Data           0  qmessagefilter_symbian.o(.ARM.extab)
    .extab._ZN10QtMobility14QMessageFilter9bySubjectERK7QStringNS_22QMessageDataComparator18EqualityComparatorE 0x0004578c   Data           0  qmessagefilter_symbian.o(.ARM.extab)
    .extab._ZN10QtMobility14QMessageFilter9bySubjectERK7QStringNS_22QMessageDataComparator19InclusionComparatorE 0x000457ac   Data           0  qmessagefilter_symbian.o(.ARM.extab)
    .extab._ZN10QtMobility14QMessageFilter11byTimeStampERK9QDateTimeNS_22QMessageDataComparator18EqualityComparatorE 0x000457cc   Data           0  qmessagefilter_symbian.o(.ARM.extab)
    .extab._ZN10QtMobility14QMessageFilter11byTimeStampERK9QDateTimeNS_22QMessageDataComparator18RelationComparatorE 0x000457ec   Data           0  qmessagefilter_symbian.o(.ARM.extab)
    .extab._ZN10QtMobility14QMessageFilter20byReceptionTimeStampERK9QDateTimeNS_22QMessageDataComparator18EqualityComparatorE 0x0004580c   Data           0  qmessagefilter_symbian.o(.ARM.extab)
    .extab._ZN10QtMobility14QMessageFilter20byReceptionTimeStampERK9QDateTimeNS_22QMessageDataComparator18RelationComparatorE 0x0004582c   Data           0  qmessagefilter_symbian.o(.ARM.extab)
    .extab._ZN10QtMobility14QMessageFilter8byStatusENS_8QMessage6StatusENS_22QMessageDataComparator18EqualityComparatorE 0x0004584c   Data           0  qmessagefilter_symbian.o(.ARM.extab)
    .extab._ZN10QtMobility14QMessageFilter8byStatusE6QFlagsINS_8QMessage6StatusEENS_22QMessageDataComparator19InclusionComparatorE 0x0004586c   Data           0  qmessagefilter_symbian.o(.ARM.extab)
    .extab._ZN10QtMobility14QMessageFilter10byPriorityENS_8QMessage8PriorityENS_22QMessageDataComparator18EqualityComparatorE 0x0004588c   Data           0  qmessagefilter_symbian.o(.ARM.extab)
    .extab._ZN10QtMobility14QMessageFilter6bySizeEiNS_22QMessageDataComparator18EqualityComparatorE 0x000458ac   Data           0  qmessagefilter_symbian.o(.ARM.extab)
    .extab._ZN10QtMobility14QMessageFilter6bySizeEiNS_22QMessageDataComparator18RelationComparatorE 0x000458cc   Data           0  qmessagefilter_symbian.o(.ARM.extab)
    .extab._ZN10QtMobility14QMessageFilter17byParentAccountIdERKNS_17QMessageAccountIdENS_22QMessageDataComparator18EqualityComparatorE 0x000458ec   Data           0  qmessagefilter_symbian.o(.ARM.extab)
    .extab._ZN10QtMobility14QMessageFilter17byParentAccountIdERKNS_21QMessageAccountFilterENS_22QMessageDataComparator19InclusionComparatorE 0x0004591c   Data           0  qmessagefilter_symbian.o(.ARM.extab)
    .extab._ZN10QtMobility14QMessageFilter16byStandardFolderENS_8QMessage14StandardFolderENS_22QMessageDataComparator18EqualityComparatorE 0x00045934   Data           0  qmessagefilter_symbian.o(.ARM.extab)
    .extab._ZN10QtMobility14QMessageFilter16byParentFolderIdERKNS_16QMessageFolderIdENS_22QMessageDataComparator18EqualityComparatorE 0x00045954   Data           0  qmessagefilter_symbian.o(.ARM.extab)
    .extab._ZN10QtMobility14QMessageFilter16byParentFolderIdERKNS_20QMessageFolderFilterENS_22QMessageDataComparator19InclusionComparatorE 0x00045984   Data           0  qmessagefilter_symbian.o(.ARM.extab)
    .extab._ZN10QtMobility21QMessageFilterPrivate6filterERKNS_8QMessageERKS0_ 0x0004599c   Data           0  qmessagefilter_symbian.o(.ARM.extab)
    .extab._ZN5QListIN10QtMobility14QMessageFilterEEpLERKS2_ 0x00045d4c   Data           0  qmessagefilter_symbian.o(.ARM.extab)
    .extab._ZN5QListIS_IN10QtMobility14QMessageFilterEEEpLERKS3_ 0x00045d68   Data           0  qmessagefilter_symbian.o(.ARM.extab)
    .extab._ZN5QListIS_IN10QtMobility14QMessageFilterEEE5clearEv 0x00045d84   Data           0  qmessagefilter_symbian.o(.ARM.extab)
    .extab._ZN10QtMobility17QMessageSortOrderC1Ev 0x00045d94   Data           0  qmessagesortorder_symbian.o(.ARM.extab)
    .extab._ZN10QtMobility17QMessageSortOrderC1ERKS0_ 0x00045da4   Data           0  qmessagesortorder_symbian.o(.ARM.extab)
    .extab._ZNK10QtMobility17QMessageSortOrderplERKS0_ 0x00045db4   Data           0  qmessagesortorder_symbian.o(.ARM.extab)
    .extab._ZN10QtMobility24QMessageSortOrderPrivate4fromENS0_5FieldEN2Qt9SortOrderE 0x00045ddc   Data           0  qmessagesortorder_symbian.o(.ARM.extab)
    .extab._ZN10QtMobility17QMessageSortOrder6byTypeEN2Qt9SortOrderE 0x00045dec   Data           0  qmessagesortorder_symbian.o(.ARM.extab)
    .extab._ZN10QtMobility17QMessageSortOrder8bySenderEN2Qt9SortOrderE 0x00045dfc   Data           0  qmessagesortorder_symbian.o(.ARM.extab)
    .extab._ZN10QtMobility17QMessageSortOrder12byRecipientsEN2Qt9SortOrderE 0x00045e0c   Data           0  qmessagesortorder_symbian.o(.ARM.extab)
    .extab._ZN10QtMobility17QMessageSortOrder9bySubjectEN2Qt9SortOrderE 0x00045e1c   Data           0  qmessagesortorder_symbian.o(.ARM.extab)
    .extab._ZN10QtMobility17QMessageSortOrder11byTimeStampEN2Qt9SortOrderE 0x00045e2c   Data           0  qmessagesortorder_symbian.o(.ARM.extab)
    .extab._ZN10QtMobility17QMessageSortOrder20byReceptionTimeStampEN2Qt9SortOrderE 0x00045e3c   Data           0  qmessagesortorder_symbian.o(.ARM.extab)
    .extab._ZN10QtMobility17QMessageSortOrder8byStatusENS_8QMessage6StatusEN2Qt9SortOrderE 0x00045e4c   Data           0  qmessagesortorder_symbian.o(.ARM.extab)
    .extab._ZN10QtMobility17QMessageSortOrder10byPriorityEN2Qt9SortOrderE 0x00045e9c   Data           0  qmessagesortorder_symbian.o(.ARM.extab)
    .extab._ZN10QtMobility17QMessageSortOrder6bySizeEN2Qt9SortOrderE 0x00045eac   Data           0  qmessagesortorder_symbian.o(.ARM.extab)
    .extab._ZN10QtMobility24QMessageSortOrderPrivate8lessThanERKNS_17QMessageSortOrderERKNS_8QMessageES6_ 0x00045ebc   Data           0  qmessagesortorder_symbian.o(.ARM.extab)
    .extab._ZplRK7QStringPKc                 0x000460d4   Data           0  qmessagesortorder_symbian.o(.ARM.extab)
    .extab._ZN5QListI5QPairIN10QtMobility24QMessageSortOrderPrivate5FieldEN2Qt9SortOrderEEE9node_copyEPNS7_4NodeES9_S9_ 0x000460f4   Data           0  qmessagesortorder_symbian.o(.ARM.extab)
    .extab._ZN5QListI5QPairIN10QtMobility24QMessageSortOrderPrivate5FieldEN2Qt9SortOrderEEE13detach_helperEi 0x00046118   Data           0  qmessagesortorder_symbian.o(.ARM.extab)
    .extab._ZN5QListI5QPairIN10QtMobility24QMessageSortOrderPrivate5FieldEN2Qt9SortOrderEEE18detach_helper_growEii 0x00046134   Data           0  qmessagesortorder_symbian.o(.ARM.extab)
    .extab._ZN5QListI5QPairIN10QtMobility24QMessageSortOrderPrivate5FieldEN2Qt9SortOrderEEEpLERKS7_ 0x00046164   Data           0  qmessagesortorder_symbian.o(.ARM.extab)
    .extab._ZN5QListI5QPairIN10QtMobility24QMessageSortOrderPrivate5FieldEN2Qt9SortOrderEEE6appendERKS6_ 0x00046180   Data           0  qmessagesortorder_symbian.o(.ARM.extab)
    .extab._ZN5QListIN10QtMobility15QMessageAddressEEpLERKS2_ 0x000461b0   Data           0  qmessagesortorder_symbian.o(.ARM.extab)
    .extab._ZNK5QListIN10QtMobility15QMessageAddressEEplERKS2_ 0x000461cc   Data           0  qmessagesortorder_symbian.o(.ARM.extab)
    .extab._ZN10QtMobility20QMessageStorePrivateC1Ev 0x000461dc   Data           0  qmessagestore_symbian.o(.ARM.extab)
    .extab._ZN10QtMobility19messageStorePrivateEv 0x000461f4   Data           0  qmessagestore_symbian.o(.ARM.extab)
    .extab._ZNK10QtMobility20QMessageStorePrivate13queryMessagesERKNS_14QMessageFilterERKNS_17QMessageSortOrderEjj 0x0004620c   Data           0  qmessagestore_symbian.o(.ARM.extab)
    .extab._ZNK10QtMobility20QMessageStorePrivate13queryMessagesERKNS_14QMessageFilterERK7QString6QFlagsINS_22QMessageDataComparator9MatchFlagEERKNS_17QMessageSortOrderEjj 0x0004622c   Data           0  qmessagestore_symbian.o(.ARM.extab)
    .extab._ZNK10QtMobility20QMessageStorePrivate12queryFoldersERKNS_20QMessageFolderFilterERKNS_23QMessageFolderSortOrderEjj 0x0004624c   Data           0  qmessagestore_symbian.o(.ARM.extab)
    .extab._ZNK10QtMobility20QMessageStorePrivate13queryAccountsERKNS_21QMessageAccountFilterERKNS_24QMessageAccountSortOrderEjj 0x0004627c   Data           0  qmessagestore_symbian.o(.ARM.extab)
    .extab._ZNK10QtMobility20QMessageStorePrivate13countMessagesERKNS_14QMessageFilterE 0x000462ac   Data           0  qmessagestore_symbian.o(.ARM.extab)
    .extab._ZN10QtMobility20QMessageStorePrivate10addMessageEPNS_8QMessageE 0x000462bc   Data           0  qmessagestore_symbian.o(.ARM.extab)
    .extab._ZN10QtMobility20QMessageStorePrivate13updateMessageEPNS_8QMessageE 0x000462cc   Data           0  qmessagestore_symbian.o(.ARM.extab)
    .extab._ZN10QtMobility20QMessageStorePrivate14removeMessagesERKNS_14QMessageFilterENS_15QMessageManager13RemovalOptionE 0x000462dc   Data           0  qmessagestore_symbian.o(.ARM.extab)
    .extab._ZN10QtMobility13QMessageStoreC1EP7QObject 0x00046314   Data           0  qmessagestore_symbian.o(.ARM.extab)
    .extab._ZN10QtMobility13QMessageStore8instanceEv 0x00046324   Data           0  qmessagestore_symbian.o(.ARM.extab)
    .extab._ZN10QtMobility20QMessageStorePrivateD1Ev 0x00046334   Data           0  qmessagestore_symbian.o(.ARM.extab)
    .extab._ZN5QListIN10QtMobility17QMessageAccountIdEEpLERKS2_ 0x0004634c   Data           0  qmessagestore_symbian.o(.ARM.extab)
    .extab._ZN10QtMobility22QMessageServicePrivateC1EPNS_15QMessageServiceE 0x00046368   Data           0  qmessageservice_symbian.o(.ARM.extab)
    .extab._ZN10QtMobility15QMessageServiceC1EP7QObject 0x00046388   Data           0  qmessageservice_symbian.o(.ARM.extab)
    .extab._ZN10QtMobility15QMessageServiceD1Ev 0x000463a8   Data           0  qmessageservice_symbian.o(.ARM.extab)
    .extab._ZN10QtMobility22QMessageServicePrivate9sendEmailERNS_8QMessageE 0x000463b8   Data           0  qmessageservice_symbian.o(.ARM.extab)
    .extab._ZN10QtMobility15QMessageService4sendERNS_8QMessageE 0x000463c8   Data           0  qmessageservice_symbian.o(.ARM.extab)
    .extab._ZN10QtMobility22QMessageServicePrivate7composeERKNS_8QMessageE 0x00046498   Data           0  qmessageservice_symbian.o(.ARM.extab)
    .extab._ZN10QtMobility22QMessageServicePrivateD1Ev 0x000464a8   Data           0  qmessageservice_symbian.o(.ARM.extab)
    .extab._ZN10QtMobility22QMessageServicePrivate13messagesFoundERK5QListINS_10QMessageIdEEbb 0x000464c8   Data           0  qmessageservice_symbian.o(.ARM.extab)
    .extab._ZN10QtMobility12MessageCacheD1Ev 0x000464e0   Data           0  maemohelpers.o(.ARM.extab)
    .extab._ZN10QtMobility15messagingHelperEv 0x000464f0   Data           0  maemohelpers.o(.ARM.extab)
    .extab._ZN10QtMobility15MessagingHelper14filterAccountsER5QListINS_17QMessageAccountIdEERKNS_21QMessageAccountFilterE 0x00046508   Data           0  maemohelpers.o(.ARM.extab)
    .extab._ZN10QtMobility15MessagingHelper15accountLessThanENS_17QMessageAccountIdES1_ 0x00046518   Data           0  maemohelpers.o(.ARM.extab)
    .extab._ZN10QtMobility15MessagingHelper13filterFoldersER5QListINS_16QMessageFolderIdEERKNS_20QMessageFolderFilterE 0x00046538   Data           0  maemohelpers.o(.ARM.extab)
    .extab._ZN10QtMobility15MessagingHelper14folderLessThanENS_16QMessageFolderIdES1_ 0x00046548   Data           0  maemohelpers.o(.ARM.extab)
    .extab._ZN10QtMobility12MessageCache13messageObjectERKNS_10QMessageIdE 0x00046568   Data           0  maemohelpers.o(.ARM.extab)
    .extab._ZN10QtMobility12MessageCacheC1Ev 0x00046578   Data           0  maemohelpers.o(.ARM.extab)
    .extab._ZN10QtMobility12messageCacheEv   0x00046590   Data           0  maemohelpers.o(.ARM.extab)
    .extab._ZN10QtMobility15MessagingHelper14filterMessagesER5QListINS_10QMessageIdEERKNS_14QMessageFilterE 0x000465a8   Data           0  maemohelpers.o(.ARM.extab)
    .extab._ZN10QtMobility15MessagingHelper15messageLessThanENS_10QMessageIdES1_ 0x000465b8   Data           0  maemohelpers.o(.ARM.extab)
    .extab._ZN10QtMobility15MessagingHelper35handleNestedFiltersFromFolderFilterERNS_20QMessageFolderFilterE 0x000465e8   Data           0  maemohelpers.o(.ARM.extab)
    .extab._ZN10QtMobility15MessagingHelper36handleNestedFiltersFromMessageFilterERNS_14QMessageFilterE 0x00046690   Data           0  maemohelpers.o(.ARM.extab)
    .extab._ZN10QtMobility15MessagingHelper9preFilterERNS_14QMessageFilterENS_8QMessage4TypeE 0x000467d8   Data           0  maemohelpers.o(.ARM.extab)
    .extab._ZN10QtMobility15MessagingHelper22extractMIMEHeaderPartsERK10QByteArrayRS1_S4_S4_ 0x000467e8   Data           0  maemohelpers.o(.ARM.extab)
    .extab._ZN10QtMobility12MessageCache6insertERKNS_8QMessageE 0x000468a0   Data           0  maemohelpers.o(.ARM.extab)
    .extab._ZN10QtMobility12MessageCache6updateERKNS_8QMessageE 0x000468c8   Data           0  maemohelpers.o(.ARM.extab)
    .extab._ZN10QtMobility12MessageCache6removeERKNS_10QMessageIdE 0x00046908   Data           0  maemohelpers.o(.ARM.extab)
    .extab._ZN10QtMobility12MessageCache8containsERKNS_10QMessageIdE 0x00046918   Data           0  maemohelpers.o(.ARM.extab)
    .extab._ZN10QtMobility12MessageCache7messageERKNS_10QMessageIdE 0x00046928   Data           0  maemohelpers.o(.ARM.extab)
    .extab._ZN10QtMobility12MessageCache10messageIdsEv 0x00046948   Data           0  maemohelpers.o(.ARM.extab)
    .extab._ZN10QtMobility12MessageCache12insertObjectEPNS_8QMessageE 0x00046988   Data           0  maemohelpers.o(.ARM.extab)
    .extab._Z5qSwapIN10QtMobility10QMessageIdEEvRT_S3_ 0x000469a8   Data           0  maemohelpers.o(.ARM.extab)
    .extab._ZN18QAlgorithmsPrivate11qSortHelperIN5QListIN10QtMobility10QMessageIdEE8iteratorES3_PFbS3_S3_EEEvT_S8_RKT0_T1_ 0x000469b8   Data           0  maemohelpers.o(.ARM.extab)
    .extab._ZN7QStringaSEPKc                 0x00046a50   Data           0  maemohelpers.o(.ARM.extab)
    .extab._ZN6QCacheI7QStringN10QtMobility8QMessageEE5clearEv 0x00046a60   Data           0  maemohelpers.o(.ARM.extab)
    .extab._ZN5QHashI7QStringN6QCacheIS0_N10QtMobility8QMessageEE4NodeEE6removeERKS0_ 0x00046a70   Data           0  maemohelpers.o(.ARM.extab)
    .extab._ZNK5QHashI7QStringN6QCacheIS0_N10QtMobility8QMessageEE4NodeEE4keysEv 0x00046a84   Data           0  maemohelpers.o(.ARM.extab)
    .extab._ZN5QHashI7QStringN6QCacheIS0_N10QtMobility8QMessageEE4NodeEE13duplicateNodeEPN9QHashData4NodeEPv 0x00046a94   Data           0  maemohelpers.o(.ARM.extab)
    .extab._ZN6QCacheI7QStringN10QtMobility8QMessageEED1Ev 0x00046aa4   Data           0  maemohelpers.o(.ARM.extab)
    .extab._ZN5QHashI7QStringN6QCacheIS0_N10QtMobility8QMessageEE4NodeEE6insertERKS0_RKS5_ 0x00046ab4   Data           0  maemohelpers.o(.ARM.extab)
    .extab._ZN10QtMobility9CFSEngine25qMessageIdFromFsMessageIdEN14EmailInterface10TMessageIdE 0x00046acc   Data           0  qfsengine_symbian.o(.ARM.extab)
    .extab._ZN10QtMobility9CFSEngine14contentFetchedEPvb 0x00046b3c   Data           0  qfsengine_symbian.o(.ARM.extab)
    .extab._ZN10QtMobility9CFSEngine16cleanupFSBackendEv 0x00046b6c   Data           0  qfsengine_symbian.o(.ARM.extab)
    .extab._ZN10QtMobility21fsEngineThreadStorageEv 0x00046b94   Data           0  qfsengine_symbian.o(.ARM.extab)
    .extab._ZN10QtMobility9CFSEngine19setPluginObserversLEv 0x00046bac   Data           0  qfsengine_symbian.o(.ARM.extab)
    .extab._ZN10QtMobility25applicationThreadFsEngineEv 0x00046bdc   Data           0  qfsengine_symbian.o(.ARM.extab)
    .extab._ZN10QtMobility9CFSEngineC1Ev     0x00046bf4   Data           0  qfsengine_symbian.o(.ARM.extab)
    .extab._ZN10QtMobility9CFSEngine8instanceEv 0x00046cc4   Data           0  qfsengine_symbian.o(.ARM.extab)
    .extab._ZN10QtMobility9CFSEngineD1Ev     0x00046cd4   Data           0  qfsengine_symbian.o(.ARM.extab)
    .extab._ZN10QtMobility9CFSEngine32qMessageAccountIdFromFsMailboxIdEN14EmailInterface10TMailboxIdE 0x00046d34   Data           0  qfsengine_symbian.o(.ARM.extab)
    .extab._ZNK10QtMobility9CFSEngine20updateEmailAccountsLEv 0x00046d54   Data           0  qfsengine_symbian.o(.ARM.extab)
    .extab._ZNK10QtMobility9CFSEngine7accountERKNS_17QMessageAccountIdE 0x00046dcc   Data           0  qfsengine_symbian.o(.ARM.extab)
    .extab._ZN10QtMobility9CFSEngine15accountLessThanENS_17QMessageAccountIdES1_ 0x00046e2c   Data           0  qfsengine_symbian.o(.ARM.extab)
    .extab._ZNK10QtMobility9CFSEngine13queryAccountsERKNS_21QMessageAccountFilterERKNS_24QMessageAccountSortOrderEjj 0x00046e4c   Data           0  qfsengine_symbian.o(.ARM.extab)
    .extab._ZNK10QtMobility9CFSEngine13countAccountsERKNS_21QMessageAccountFilterE 0x00046f1c   Data           0  qfsengine_symbian.o(.ARM.extab)
    .extab._ZNK10QtMobility9CFSEngine14accountsByTypeENS_8QMessage4TypeE 0x00046f3c   Data           0  qfsengine_symbian.o(.ARM.extab)
    .extab._ZNK10QtMobility9CFSEngine14defaultAccountENS_8QMessage4TypeE 0x00046f7c   Data           0  qfsengine_symbian.o(.ARM.extab)
    .extab._ZN10QtMobility9CFSEngine30fsFolderIdFromQMessageFolderIdENS_16QMessageFolderIdE 0x00046fbc   Data           0  qfsengine_symbian.o(.ARM.extab)
    .extab._ZNK10QtMobility9CFSEngine7folderLERKNS_16QMessageFolderIdE 0x00046ff4   Data           0  qfsengine_symbian.o(.ARM.extab)
    .extab._ZNK10QtMobility9CFSEngine6folderERKNS_16QMessageFolderIdE 0x000470c4   Data           0  qfsengine_symbian.o(.ARM.extab)
    .extab._ZN10QtMobility9CFSEngine14folderLessThanENS_16QMessageFolderIdES1_ 0x0004710c   Data           0  qfsengine_symbian.o(.ARM.extab)
    .extab._ZN10QtMobility9CFSEngine30qMessageFolderIdFromFsFolderIdEN14EmailInterface9TFolderIdE 0x0004712c   Data           0  qfsengine_symbian.o(.ARM.extab)
    .extab._ZN10QtMobility9CFSEngine32fsMailboxIdFromQMessageAccountIdENS_17QMessageAccountIdE 0x0004717c   Data           0  qfsengine_symbian.o(.ARM.extab)
    .extab._ZNK10QtMobility9CFSEngine21folderIdsByAccountIdLERKNS_17QMessageAccountIdE 0x0004719c   Data           0  qfsengine_symbian.o(.ARM.extab)
    .extab._ZNK10QtMobility9CFSEngine20folderIdsByAccountIdERKNS_17QMessageAccountIdE 0x000471f4   Data           0  qfsengine_symbian.o(.ARM.extab)
    .extab._ZNK10QtMobility9CFSEngine10allFoldersEv 0x0004723c   Data           0  qfsengine_symbian.o(.ARM.extab)
    .extab._ZNK10QtMobility9CFSEngine9fsFolderLERKNS_16QMessageFolderIdERPN14EmailInterface13MEmailMailboxERPNS4_12MEmailFolderE 0x000472bc   Data           0  qfsengine_symbian.o(.ARM.extab)
    .extab._ZNK10QtMobility9CFSEngine21filterMessageFoldersLERKNS_20QMessageFolderFilterERb 0x0004731c   Data           0  qfsengine_symbian.o(.ARM.extab)
    .extab._ZNK10QtMobility9CFSEngine20filterMessageFoldersERKNS_20QMessageFolderFilterERb 0x000474e4   Data           0  qfsengine_symbian.o(.ARM.extab)
    .extab._ZNK10QtMobility9CFSEngine35handleNestedFiltersFromFolderFilterERNS_20QMessageFolderFilterE 0x0004752c   Data           0  qfsengine_symbian.o(.ARM.extab)
    .extab._ZNK10QtMobility9CFSEngine12queryFoldersERKNS_20QMessageFolderFilterERKNS_23QMessageFolderSortOrderEjj 0x000475d4   Data           0  qfsengine_symbian.o(.ARM.extab)
    .extab._ZNK10QtMobility9CFSEngine12countFoldersERKNS_20QMessageFolderFilterE 0x00047634   Data           0  qfsengine_symbian.o(.ARM.extab)
    .extab._ZN10QtMobility9CFSEngine16createFSMessageLERKNS_8QMessageEPKN14EmailInterface13MEmailMailboxE 0x00047654   Data           0  qfsengine_symbian.o(.ARM.extab)
    .extab._ZN10QtMobility9CFSEngine10addMessageEPNS_8QMessageE 0x000478dc   Data           0  qfsengine_symbian.o(.ARM.extab)
    .extab._ZN10QtMobility9CFSEngine25fsMessageIdFromQMessageIdENS_10QMessageIdE 0x0004793c   Data           0  qfsengine_symbian.o(.ARM.extab)
    .extab._ZN10QtMobility9CFSEngine14updateMessageLEPNS_8QMessageE 0x00047994   Data           0  qfsengine_symbian.o(.ARM.extab)
    .extab._ZN10QtMobility9CFSEngine13updateMessageEPNS_8QMessageE 0x00047bfc   Data           0  qfsengine_symbian.o(.ARM.extab)
    .extab._ZN10QtMobility9CFSEngine13removeMessageERKNS_10QMessageIdENS_15QMessageManager13RemovalOptionE 0x00047c2c   Data           0  qfsengine_symbian.o(.ARM.extab)
    .extab._ZN10QtMobility24CFSMessagesFindOperation27getAccountSpecificMessagesLERNS_15QMessageAccountERN14EmailInterface18TEmailSortCriteriaE 0x00047ccc   Data           0  qfsengine_symbian.o(.ARM.extab)
    .extab._ZN10QtMobility24CFSMessagesFindOperation15getAllMessagesLERN14EmailInterface18TEmailSortCriteriaE 0x00047cdc   Data           0  qfsengine_symbian.o(.ARM.extab)
    .extab._ZNK10QtMobility9CFSEngine15CreateQMessageLEPNS_8QMessageERKN14EmailInterface13MEmailMessageE 0x00047cec   Data           0  qfsengine_symbian.o(.ARM.extab)
    .extab._ZN10QtMobility24CFSMessagesFindOperation26getFolderSpecificMessagesLERN14EmailInterface12MEmailFolderENS1_18TEmailSortCriteriaE 0x00047dd4   Data           0  qfsengine_symbian.o(.ARM.extab)
    .extab._ZNK10QtMobility9CFSEngine7messageEPNS_8QMessageERKNS_10QMessageIdE 0x00047e24   Data           0  qfsengine_symbian.o(.ARM.extab)
    .extab._ZNK10QtMobility9CFSEngine7messageERKNS_10QMessageIdE 0x00047eac   Data           0  qfsengine_symbian.o(.ARM.extab)
    .extab._ZN10QtMobility24CFSMessagesFindOperation23filterAndOrderMessagesLERK5QListINS_14QMessageFilterEERKNS_17QMessageSortOrderE7QString6QFlagsINS_22QMessageDataComparator9MatchFlagEE 0x00047eec   Data           0  qfsengine_symbian.o(.ARM.extab)
    .extab._ZN10QtMobility24CFSMessagesFindOperation22filterAndOrderMessagesERK5QListINS_14QMessageFilterEERKNS_17QMessageSortOrderE7QString6QFlagsINS_22QMessageDataComparator9MatchFlagEE 0x000480fc   Data           0  qfsengine_symbian.o(.ARM.extab)
    .extab._ZN10QtMobility24CFSMessagesFindOperation22filterAndOrderMessagesERKNS_14QMessageFilterERKNS_17QMessageSortOrderE7QString6QFlagsINS_22QMessageDataComparator9MatchFlagEE 0x00048134   Data           0  qfsengine_symbian.o(.ARM.extab)
    .extab._ZNK10QtMobility9CFSEngine11doNextQueryEv 0x00048144   Data           0  qfsengine_symbian.o(.ARM.extab)
    .extab._ZNK10QtMobility9CFSEngine36handleNestedFiltersFromMessageFilterERNS_14QMessageFilterE 0x00048164   Data           0  qfsengine_symbian.o(.ARM.extab)
    .extab._ZN10QtMobility24CFSMessagesFindOperationC1ERNS_9CFSEngineEi 0x000482ac   Data           0  qfsengine_symbian.o(.ARM.extab)
    .extab._ZNK10QtMobility9CFSEngine14queryMessagesLERNS_22QMessageServicePrivateERKNS_14QMessageFilterERKNS_17QMessageSortOrderEjj 0x00048314   Data           0  qfsengine_symbian.o(.ARM.extab)
    .extab._ZNK10QtMobility9CFSEngine13queryMessagesERNS_22QMessageServicePrivateERKNS_14QMessageFilterERKNS_17QMessageSortOrderEjj 0x0004836c   Data           0  qfsengine_symbian.o(.ARM.extab)
    .extab._ZNK10QtMobility9CFSEngine14queryMessagesLERNS_22QMessageServicePrivateERKNS_14QMessageFilterERK7QString6QFlagsINS_22QMessageDataComparator9MatchFlagEERKNS_17QMessageSortOrderEjj 0x0004839c   Data           0  qfsengine_symbian.o(.ARM.extab)
    .extab._ZNK10QtMobility9CFSEngine13queryMessagesERNS_22QMessageServicePrivateERKNS_14QMessageFilterERK7QString6QFlagsINS_22QMessageDataComparator9MatchFlagEERKNS_17QMessageSortOrderEjj 0x000483e4   Data           0  qfsengine_symbian.o(.ARM.extab)
    .extab._ZN10QtMobility9CFSEngine14countMessagesLERNS_22QMessageServicePrivateERKNS_14QMessageFilterE 0x00048414   Data           0  qfsengine_symbian.o(.ARM.extab)
    .extab._ZN10QtMobility9CFSEngine13countMessagesERNS_22QMessageServicePrivateERKNS_14QMessageFilterE 0x0004847c   Data           0  qfsengine_symbian.o(.ARM.extab)
    .extab._ZN10QtMobility9CFSEngine11showMessageERKNS_10QMessageIdE 0x000484ac   Data           0  qfsengine_symbian.o(.ARM.extab)
    .extab._ZN10QtMobility9CFSEngine14composeMessageERKNS_8QMessageE 0x00048534   Data           0  qfsengine_symbian.o(.ARM.extab)
    .extab._ZN10QtMobility9CFSEngine9sendEmailERNS_8QMessageE 0x00048594   Data           0  qfsengine_symbian.o(.ARM.extab)
    .extab._ZN10QtMobility24CFSContentFetchOperation5fetchEv 0x000485f4   Data           0  qfsengine_symbian.o(.ARM.extab)
    .extab._ZNK10QtMobility9CFSEngine14attachmentByIdEN14EmailInterface17TMessageContentIdE 0x00048624   Data           0  qfsengine_symbian.o(.ARM.extab)
    .extab._ZN10QtMobility9CFSEngine8retrieveERNS_22QMessageServicePrivateERKNS_10QMessageIdERKNS_26QMessageContentContainerIdE 0x000486a4   Data           0  qfsengine_symbian.o(.ARM.extab)
    .extab._ZNK10QtMobility9CFSEngine15textContentByIdEN14EmailInterface17TMessageContentIdEPNS1_20MEmailMessageContentE 0x000486d4   Data           0  qfsengine_symbian.o(.ARM.extab)
    .extab._ZN10QtMobility9CFSEngine12retrieveBodyERNS_22QMessageServicePrivateERKNS_10QMessageIdE 0x0004872c   Data           0  qfsengine_symbian.o(.ARM.extab)
    .extab._ZN10QtMobility9CFSEngine14exportUpdatesLERKNS_17QMessageAccountIdE 0x00048814   Data           0  qfsengine_symbian.o(.ARM.extab)
    .extab._ZN10QtMobility9CFSEngine13exportUpdatesERKNS_17QMessageAccountIdE 0x00048824   Data           0  qfsengine_symbian.o(.ARM.extab)
    .extab._ZNK10QtMobility9CFSEngine13orderMessagesER5QListINS_10QMessageIdEERKNS_17QMessageSortOrderE 0x00048854   Data           0  qfsengine_symbian.o(.ARM.extab)
    .extab._ZN10QtMobility9CFSEngine27filterAndOrderMessagesReadyEbi5QListINS_10QMessageIdEEib 0x00048884   Data           0  qfsengine_symbian.o(.ARM.extab)
    .extab._ZNK10QtMobility9CFSEngine23addAttachmentToQMessageERNS_8QMessageERNS_24QMessageContentContainerE 0x000488b4   Data           0  qfsengine_symbian.o(.ARM.extab)
    .extab._ZNK10QtMobility9CFSEngine20addContentToQMessageERNS_8QMessageERKN14EmailInterface20MEmailMessageContentENS3_10TMessageIdE 0x0004895c   Data           0  qfsengine_symbian.o(.ARM.extab)
    .extab._ZNK10QtMobility9CFSEngine25addMessagePartsToQMessageERNS_8QMessageERN14EmailInterface13MEmailMessageE 0x00048b34   Data           0  qfsengine_symbian.o(.ARM.extab)
    .extab._ZNK10QtMobility9CFSEngine29retrieveMessageContentHeadersERNS_8QMessageE 0x00048c54   Data           0  qfsengine_symbian.o(.ARM.extab)
    .extab._ZNK10QtMobility9CFSEngine11bodyContentElN14EmailInterface17TMessageContentIdE 0x00048cdc   Data           0  qfsengine_symbian.o(.ARM.extab)
    .extab._ZNK10QtMobility9CFSEngine17attachmentContentElN14EmailInterface17TMessageContentIdE 0x00048dd4   Data           0  qfsengine_symbian.o(.ARM.extab)
    .extab._ZNK10QtMobility9CFSEngine21attachmentTextContentElN14EmailInterface17TMessageContentIdERK10QByteArray 0x00048e24   Data           0  qfsengine_symbian.o(.ARM.extab)
    .extab._ZN10QtMobility9CFSEngine13notificationLERKN14EmailInterface10TMailboxIdERKNS1_10TMessageIdERKNS1_9TFolderIdENS_20QMessageStorePrivate16NotificationTypeE 0x00048e64   Data           0  qfsengine_symbian.o(.ARM.extab)
    .extab._ZNK10QtMobility9CFSEngine29bodyContentFromMessageContentERKN14EmailInterface20MEmailMessageContentE 0x00048f50   Data           0  qfsengine_symbian.o(.ARM.extab)
    .extab._ZN10QtMobility24CFSContentFetchOperationD1Ev 0x00049028   Data           0  qfsengine_symbian.o(.ARM.extab)
    .extab._ZN10QtMobility24CFSMessagesFindOperation10filterBodyERNS_10QMessageIdE 0x00049038   Data           0  qfsengine_symbian.o(.ARM.extab)
    .extab._ZN10QtMobility24CFSMessagesFindOperation15SearchCompletedEv 0x00049078   Data           0  qfsengine_symbian.o(.ARM.extab)
    .extab._ZN10QtMobility24CFSMessagesFindOperation45getAccountSpecificMessagesFromAccountFoldersLERNS_17FSSearchOperationE 0x000490b8   Data           0  qfsengine_symbian.o(.ARM.extab)
    .extab._ZN10QtMobility24CFSMessagesFindOperation20searchAccountFoldersEv 0x00049130   Data           0  qfsengine_symbian.o(.ARM.extab)
    .extab._ZN10QtMobility24CFSMessagesFindOperationD1Ev 0x00049160   Data           0  qfsengine_symbian.o(.ARM.extab)
    .extab._ZN4QMapIPN10QtMobility22QMessageServicePrivateEPNS0_24CFSContentFetchOperationEE13detach_helperEv 0x000491b0   Data           0  qfsengine_symbian.o(.ARM.extab)
    .extab._ZN4QMapIjPN14EmailInterface13MEmailMailboxEE13detach_helperEv 0x000491cc   Data           0  qfsengine_symbian.o(.ARM.extab)
    .extab._Z20qForeachContainerNewI5QHashI7QStringN10QtMobility15QMessageAccountEEE17QForeachContainerIT_ERKS6_ 0x000491e8   Data           0  qfsengine_symbian.o(.ARM.extab)
    .extab._ZN5QListIN10QtMobility17FSSearchOperationEE9node_copyEPNS2_4NodeES4_S4_ 0x000491f8   Data           0  qfsengine_symbian.o(.ARM.extab)
    .extab._ZN5QListIN10QtMobility17FSSearchOperationEE13detach_helperEi 0x0004921c   Data           0  qfsengine_symbian.o(.ARM.extab)
    .extab._ZN5QListIN10QtMobility15QMessageAccountEE9node_copyEPNS2_4NodeES4_S4_ 0x00049238   Data           0  qfsengine_symbian.o(.ARM.extab)
    .extab._ZN5QListIN10QtMobility15QMessageAccountEE13detach_helperEi 0x0004925c   Data           0  qfsengine_symbian.o(.ARM.extab)
    .extab._ZN5QListIN10QtMobility15QMessageAccountEE14node_constructEPNS2_4NodeERKS1_ 0x00049278   Data           0  qfsengine_symbian.o(.ARM.extab)
    .extab._ZN5QListIN10QtMobility15QMessageAccountEE18detach_helper_growEii 0x00049288   Data           0  qfsengine_symbian.o(.ARM.extab)
    .extab._ZN5QListIN10QtMobility15QMessageAccountEE6appendERKS1_ 0x000492b8   Data           0  qfsengine_symbian.o(.ARM.extab)
    .extab._ZN10QtMobility18FSMessageQueryInfoC1Ev 0x000492e8   Data           0  qfsengine_symbian.o(.ARM.extab)
    .extab._ZN10QtMobility18FSMessageQueryInfoC1ERKS0_ 0x00049308   Data           0  qfsengine_symbian.o(.ARM.extab)
    .extab._ZN10QtMobility18FSMessageQueryInfoD1Ev 0x00049328   Data           0  qfsengine_symbian.o(.ARM.extab)
    .extab._ZN5QHashI7QStringN10QtMobility15QMessageAccountEE6removeERKS0_ 0x00049348   Data           0  qfsengine_symbian.o(.ARM.extab)
    .extab._ZNK5QHashI7QStringN10QtMobility15QMessageAccountEE4keysEv 0x0004935c   Data           0  qfsengine_symbian.o(.ARM.extab)
    .extab._ZN5QListIN10QtMobility18FSMessageQueryInfoEE9node_copyEPNS2_4NodeES4_S4_ 0x0004936c   Data           0  qfsengine_symbian.o(.ARM.extab)
    .extab._ZN5QListIN10QtMobility18FSMessageQueryInfoEE13detach_helperEi 0x00049390   Data           0  qfsengine_symbian.o(.ARM.extab)
    .extab._ZN5QListIN10QtMobility17FSSearchOperationEE14node_constructEPNS2_4NodeERKS1_ 0x000493ac   Data           0  qfsengine_symbian.o(.ARM.extab)
    .extab._ZN5QListIN10QtMobility17FSSearchOperationEE18detach_helper_growEii 0x000493bc   Data           0  qfsengine_symbian.o(.ARM.extab)
    .extab._ZN5QListIN10QtMobility17FSSearchOperationEE6appendERKS1_ 0x000493ec   Data           0  qfsengine_symbian.o(.ARM.extab)
    .extab._ZNK5QHashI7QStringN10QtMobility15QMessageAccountEE6valuesEv 0x0004941c   Data           0  qfsengine_symbian.o(.ARM.extab)
    .extab._ZN5QListIN10QtMobility18FSMessageQueryInfoEE14node_constructEPNS2_4NodeERKS1_ 0x0004942c   Data           0  qfsengine_symbian.o(.ARM.extab)
    .extab._ZN5QListIN10QtMobility18FSMessageQueryInfoEE18detach_helper_growEii 0x0004943c   Data           0  qfsengine_symbian.o(.ARM.extab)
    .extab._ZN5QListIN10QtMobility18FSMessageQueryInfoEE6appendERKS1_ 0x0004946c   Data           0  qfsengine_symbian.o(.ARM.extab)
    .extab._ZN5QHashIjN10QtMobility8QMessage14StandardFolderEE6insertERKjRKS2_ 0x0004949c   Data           0  qfsengine_symbian.o(.ARM.extab)
    .constdata$1                             0x000494ac   Data           0  qmessagemanager.o(.constdata)
    .constdata                               0x000494ac   Section      592  qmessagemanager.o(.constdata)
    QtMobility::qt_meta_data_QMessageManager 0x000494bc   Data         120  qmessagemanager.o(.constdata)
    QtMobility::qt_meta_stringdata_QMessageManager 0x00049534   Data         241  qmessagemanager.o(.constdata)
    .constdata$1                             0x000496fc   Data           0  qmessagestore.o(.constdata)
    .constdata                               0x000496fc   Section      375  qmessagestore.o(.constdata)
    QtMobility::qt_meta_data_QMessageStore   0x0004970c   Data         120  qmessagestore.o(.constdata)
    QtMobility::qt_meta_stringdata_QMessageStore 0x00049784   Data         239  qmessagestore.o(.constdata)
    .constdata$1                             0x00049874   Data           0  qmessageservice.o(.constdata)
    .constdata                               0x00049874   Section      349  qmessageservice.o(.constdata)
    QtMobility::qt_meta_data_QMessageService 0x00049884   Data         160  qmessageservice.o(.constdata)
    QtMobility::qt_meta_stringdata_QMessageService 0x00049924   Data         173  qmessageservice.o(.constdata)
    .constdata$1                             0x000499d4   Data           0  qmtmengine_symbian.o(.constdata)
    KNullDesC                                0x000499d4   Data           8  qmtmengine_symbian.o(.constdata)
    .constdata                               0x000499d4   Section      493  qmtmengine_symbian.o(.constdata)
    KMsvGlobalInBoxIndexEntryId              0x000499dc   Data           4  qmtmengine_symbian.o(.constdata)
    KMsvGlobalOutBoxIndexEntryId             0x000499e0   Data           4  qmtmengine_symbian.o(.constdata)
    KMsvDraftEntryId                         0x000499e4   Data           4  qmtmengine_symbian.o(.constdata)
    KMsvSentEntryId                          0x000499e8   Data           4  qmtmengine_symbian.o(.constdata)
    KMsvDeletedEntryFolderEntryId            0x000499ec   Data           4  qmtmengine_symbian.o(.constdata)
    KUidMsgTypeSMS                           0x000499f0   Data           4  qmtmengine_symbian.o(.constdata)
    KUidMsvFolderEntry                       0x000499f4   Data           4  qmtmengine_symbian.o(.constdata)
    KUidMsvMessageEntry                      0x000499f8   Data           4  qmtmengine_symbian.o(.constdata)
    KUidMsgTypeMultimedia                    0x000499fc   Data           4  qmtmengine_symbian.o(.constdata)
    KUidMsgTypeSMTP                          0x00049a00   Data           4  qmtmengine_symbian.o(.constdata)
    KUidMsgTypePOP3                          0x00049a04   Data           4  qmtmengine_symbian.o(.constdata)
    KUidMsgTypeIMAP4                         0x00049a08   Data           4  qmtmengine_symbian.o(.constdata)
    KImcvMultipart                           0x00049a0c   Data          16  qmtmengine_symbian.o(.constdata)
    KSenduiMtmSmtpUid                        0x00049a1c   Data           4  qmtmengine_symbian.o(.constdata)
    KSenduiMtmSmsUid                         0x00049a20   Data           4  qmtmengine_symbian.o(.constdata)
    KSenduiMtmMmsUid                         0x00049a24   Data           4  qmtmengine_symbian.o(.constdata)
    KSenduiMtmUniMessageUid                  0x00049a28   Data           4  qmtmengine_symbian.o(.constdata)
    QtMobility::KSMS0338UnicodeChars         0x00049a3c   Data         256  qmtmengine_symbian.o(.constdata)
    QtMobility::KEscapedSMS0338UnicodeChars  0x00049b3c   Data          20  qmtmengine_symbian.o(.constdata)
    QtMobility::qt_meta_data_CMTMEngine      0x00049b50   Data          80  qmtmengine_symbian.o(.constdata)
    QtMobility::qt_meta_stringdata_CMTMEngine 0x00049ba0   Data          33  qmtmengine_symbian.o(.constdata)
    .constdata$1                             0x00049bc4   Data           0  qmessagestore_symbian.o(.constdata)
    .constdata                               0x00049bc4   Section      259  qmessagestore_symbian.o(.constdata)
    QtMobility::qt_meta_data_QMessageStorePrivate 0x00049bd4   Data         120  qmessagestore_symbian.o(.constdata)
    QtMobility::qt_meta_stringdata_QMessageStorePrivate 0x00049c4c   Data         123  qmessagestore_symbian.o(.constdata)
    .constdata$1                             0x00049cc8   Data           0  qmessageservice_symbian.o(.constdata)
    .constdata                               0x00049cc8   Section      257  qmessageservice_symbian.o(.constdata)
    QtMobility::qt_meta_data_QMessageServicePrivate 0x00049cd8   Data         120  qmessageservice_symbian.o(.constdata)
    QtMobility::qt_meta_stringdata_QMessageServicePrivate 0x00049d50   Data         121  qmessageservice_symbian.o(.constdata)
    .constdata$1                             0x00049dcc   Data           0  qfsengine_symbian.o(.constdata)
    KNullDesC                                0x00049dcc   Data           8  qfsengine_symbian.o(.constdata)
    .constdata                               0x00049dcc   Section      488  qfsengine_symbian.o(.constdata)
    QtMobility::qt_meta_data_CFSEngine       0x00049e04   Data         100  qfsengine_symbian.o(.constdata)
    QtMobility::qt_meta_stringdata_CFSEngine 0x00049e68   Data          74  qfsengine_symbian.o(.constdata)
    QtMobility::qt_meta_data_CFSContentFetchOperation 0x00049eb4   Data          60  qfsengine_symbian.o(.constdata)
    QtMobility::qt_meta_stringdata_CFSContentFetchOperation 0x00049ef0   Data          26  qfsengine_symbian.o(.constdata)
    QtMobility::qt_meta_data_CFSMessagesFindOperation 0x00049f0c   Data         100  qfsengine_symbian.o(.constdata)
    QtMobility::qt_meta_stringdata_CFSMessagesFindOperation 0x00049f70   Data          68  qfsengine_symbian.o(.constdata)
    .constdata__ZN9stlp_priv15_Integer_limitsIaLan128ELa127ELin1ELb1EE6digitsE 0x00049fb4   Section        4  qmessageid.o(.constdata__ZN9stlp_priv15_Integer_limitsIaLan128ELa127ELin1ELb1EE6digitsE)
    .constdata__ZN9stlp_priv15_Integer_limitsIbLb0ELb1ELi1ELb0EE6digitsE 0x00049fb8   Section        4  qmessageid.o(.constdata__ZN9stlp_priv15_Integer_limitsIbLb0ELb1ELi1ELb0EE6digitsE)
    .constdata__ZN9stlp_priv15_Integer_limitsIcLc128ELc127ELin1ELb1EE6digitsE 0x00049fbc   Section        4  qmessageid.o(.constdata__ZN9stlp_priv15_Integer_limitsIcLc128ELc127ELin1ELb1EE6digitsE)
    .constdata__ZN9stlp_priv15_Integer_limitsIhLh0ELh255ELin1ELb1EE6digitsE 0x00049fc0   Section        4  qmessageid.o(.constdata__ZN9stlp_priv15_Integer_limitsIhLh0ELh255ELin1ELb1EE6digitsE)
    .constdata__ZN9stlp_priv15_Integer_limitsIiLin2147483648ELi2147483647ELin1ELb1EE6digitsE 0x00049fc4   Section        4  qmessageid.o(.constdata__ZN9stlp_priv15_Integer_limitsIiLin2147483648ELi2147483647ELin1ELb1EE6digitsE)
    .constdata__ZN9stlp_priv15_Integer_limitsIiLin2147483648ELi2147483647ELin1ELb1EE9is_signedE 0x00049fc8   Section        1  qmessageid.o(.constdata__ZN9stlp_priv15_Integer_limitsIiLin2147483648ELi2147483647ELin1ELb1EE9is_signedE)
    .constdata__ZN9stlp_priv15_Integer_limitsIjLj0ELj4294967295ELin1ELb1EE6digitsE 0x00049fcc   Section        4  qmessageid.o(.constdata__ZN9stlp_priv15_Integer_limitsIjLj0ELj4294967295ELin1ELb1EE6digitsE)
    .constdata__ZN9stlp_priv15_Integer_limitsIlLln2147483648ELl2147483647ELin1ELb1EE6digitsE 0x00049fd0   Section        4  qmessageid.o(.constdata__ZN9stlp_priv15_Integer_limitsIlLln2147483648ELl2147483647ELin1ELb1EE6digitsE)
    .constdata__ZN9stlp_priv15_Integer_limitsImLm0ELm4294967295ELin1ELb1EE6digitsE 0x00049fd4   Section        4  qmessageid.o(.constdata__ZN9stlp_priv15_Integer_limitsImLm0ELm4294967295ELin1ELb1EE6digitsE)
    .constdata__ZN9stlp_priv15_Integer_limitsIsLsn32768ELs32767ELin1ELb1EE6digitsE 0x00049fd8   Section        4  qmessageid.o(.constdata__ZN9stlp_priv15_Integer_limitsIsLsn32768ELs32767ELin1ELb1EE6digitsE)
    .constdata__ZN9stlp_priv15_Integer_limitsItLt0ELt65535ELin1ELb1EE6digitsE 0x00049fdc   Section        4  qmessageid.o(.constdata__ZN9stlp_priv15_Integer_limitsItLt0ELt65535ELin1ELb1EE6digitsE)
    .constdata__ZN9stlp_priv15_Integer_limitsIwLw0ELw65535ELin1ELb1EE6digitsE 0x00049fe0   Section        4  qmessageid.o(.constdata__ZN9stlp_priv15_Integer_limitsIwLw0ELw65535ELin1ELb1EE6digitsE)
    .constdata__ZN9stlp_priv15_Integer_limitsIxLxn9223372036854775808ELx9223372036854775807ELin1ELb1EE6digitsE 0x00049fe4   Section        4  qmessageid.o(.constdata__ZN9stlp_priv15_Integer_limitsIxLxn9223372036854775808ELx9223372036854775807ELin1ELb1EE6digitsE)
    .constdata__ZN9stlp_priv15_Integer_limitsIyLy0ELy18446744073709551615ELin1ELb1EE6digitsE 0x00049fe8   Section        4  qmessageid.o(.constdata__ZN9stlp_priv15_Integer_limitsIyLy0ELy18446744073709551615ELin1ELb1EE6digitsE)
    .constdata__ZTI19MMsvSessionObserver     0x00049fec   Section        8  qmtmengine_symbian.o(.constdata__ZTI19MMsvSessionObserver)
    .constdata__ZTIN10QtMobility10CMTMEngineE 0x00049ff4   Section       40  qmtmengine_symbian.o(.constdata__ZTIN10QtMobility10CMTMEngineE)
    .constdata__ZTIN10QtMobility13QMessageStoreE 0x0004a01c   Section       12  qmessagestore.o(.constdata__ZTIN10QtMobility13QMessageStoreE)
    .constdata__ZTIN10QtMobility14QMessageFilterE 0x0004a028   Section        8  qmessagefilter_symbian.o(.constdata__ZTIN10QtMobility14QMessageFilterE)
    .constdata__ZTIN10QtMobility14QMessageFolderE 0x0004a030   Section        8  qmessagefolder_symbian.o(.constdata__ZTIN10QtMobility14QMessageFolderE)
    .constdata__ZTIN10QtMobility15QMessageAccountE 0x0004a038   Section        8  qmessageaccount_symbian.o(.constdata__ZTIN10QtMobility15QMessageAccountE)
    .constdata__ZTIN10QtMobility15QMessageAddressE 0x0004a040   Section        8  qmessageaddress.o(.constdata__ZTIN10QtMobility15QMessageAddressE)
    .constdata__ZTIN10QtMobility15QMessageManagerE 0x0004a048   Section       12  qmessagemanager.o(.constdata__ZTIN10QtMobility15QMessageManagerE)
    .constdata__ZTIN10QtMobility15QMessageServiceE 0x0004a054   Section       12  qmessageservice.o(.constdata__ZTIN10QtMobility15QMessageServiceE)
    .constdata__ZTIN10QtMobility17QMessageSortOrderE 0x0004a060   Section        8  qmessagesortorder_symbian.o(.constdata__ZTIN10QtMobility17QMessageSortOrderE)
    .constdata__ZTIN10QtMobility20QMessageFolderFilterE 0x0004a068   Section        8  qmessagefolderfilter_symbian.o(.constdata__ZTIN10QtMobility20QMessageFolderFilterE)
    .constdata__ZTIN10QtMobility20QMessageStorePrivateE 0x0004a070   Section       12  qmessagestore_symbian.o(.constdata__ZTIN10QtMobility20QMessageStorePrivateE)
    .constdata__ZTIN10QtMobility21QMessageAccountFilterE 0x0004a07c   Section        8  qmessageaccountfilter_symbian.o(.constdata__ZTIN10QtMobility21QMessageAccountFilterE)
    .constdata__ZTIN10QtMobility22CMessagesFindOperationE 0x0004a084   Section       12  qmtmengine_symbian.o(.constdata__ZTIN10QtMobility22CMessagesFindOperationE)
    .constdata__ZTIN10QtMobility22QMessageServicePrivateE 0x0004a090   Section       12  qmessageservice_symbian.o(.constdata__ZTIN10QtMobility22QMessageServicePrivateE)
    .constdata__ZTIN10QtMobility23QMessageFolderSortOrderE 0x0004a09c   Section        8  qmessagefoldersortorder_symbian.o(.constdata__ZTIN10QtMobility23QMessageFolderSortOrderE)
    .constdata__ZTIN10QtMobility24CFSContentFetchOperationE 0x0004a0a4   Section       32  qfsengine_symbian.o(.constdata__ZTIN10QtMobility24CFSContentFetchOperationE)
    .constdata__ZTIN10QtMobility24CFSMessagesFindOperationE 0x0004a0c4   Section       12  qfsengine_symbian.o(.constdata__ZTIN10QtMobility24CFSMessagesFindOperationE)
    .constdata__ZTIN10QtMobility24QMessageAccountSortOrderE 0x0004a0d0   Section        8  qmessageaccountsortorder_symbian.o(.constdata__ZTIN10QtMobility24QMessageAccountSortOrderE)
    .constdata__ZTIN10QtMobility24QMessageContentContainerE 0x0004a0d8   Section        8  qmessagecontentcontainer_symbian.o(.constdata__ZTIN10QtMobility24QMessageContentContainerE)
    .constdata__ZTIN10QtMobility25CAsynchronousMTMOperationE 0x0004a0e0   Section       12  qmtmengine_symbian.o(.constdata__ZTIN10QtMobility25CAsynchronousMTMOperationE)
    .constdata__ZTIN10QtMobility8QMTMWaitE   0x0004a0ec   Section       12  qmtmengine_symbian.o(.constdata__ZTIN10QtMobility8QMTMWaitE)
    .constdata__ZTIN10QtMobility8QMessageE   0x0004a0f8   Section       12  qmessage_symbian.o(.constdata__ZTIN10QtMobility8QMessageE)
    .constdata__ZTIN10QtMobility9CFSEngineE  0x0004a104   Section       40  qfsengine_symbian.o(.constdata__ZTIN10QtMobility9CFSEngineE)
    .constdata__ZTIN14EmailInterface19MEmailFetchObserverE 0x0004a12c   Section        8  qfsengine_symbian.o(.constdata__ZTIN14EmailInterface19MEmailFetchObserverE)
    .constdata__ZTIN14EmailInterface20MMailboxSyncObserverE 0x0004a134   Section        8  qfsengine_symbian.o(.constdata__ZTIN14EmailInterface20MMailboxSyncObserverE)
    .constdata__ZTIN14EmailInterface23MMailboxContentObserverE 0x0004a13c   Section        8  qfsengine_symbian.o(.constdata__ZTIN14EmailInterface23MMailboxContentObserverE)
    .constdata__ZTS19MMsvSessionObserver     0x0004a144   Section       22  qmtmengine_symbian.o(.constdata__ZTS19MMsvSessionObserver)
    .constdata__ZTSN10QtMobility10CMTMEngineE 0x0004a15a   Section       27  qmtmengine_symbian.o(.constdata__ZTSN10QtMobility10CMTMEngineE)
    .constdata__ZTSN10QtMobility13QMessageStoreE 0x0004a175   Section       30  qmessagestore.o(.constdata__ZTSN10QtMobility13QMessageStoreE)
    .constdata__ZTSN10QtMobility14QMessageFilterE 0x0004a193   Section       31  qmessagefilter_symbian.o(.constdata__ZTSN10QtMobility14QMessageFilterE)
    .constdata__ZTSN10QtMobility14QMessageFolderE 0x0004a1b2   Section       31  qmessagefolder_symbian.o(.constdata__ZTSN10QtMobility14QMessageFolderE)
    .constdata__ZTSN10QtMobility15QMessageAccountE 0x0004a1d1   Section       32  qmessageaccount_symbian.o(.constdata__ZTSN10QtMobility15QMessageAccountE)
    .constdata__ZTSN10QtMobility15QMessageAddressE 0x0004a1f1   Section       32  qmessageaddress.o(.constdata__ZTSN10QtMobility15QMessageAddressE)
    .constdata__ZTSN10QtMobility15QMessageManagerE 0x0004a211   Section       32  qmessagemanager.o(.constdata__ZTSN10QtMobility15QMessageManagerE)
    .constdata__ZTSN10QtMobility15QMessageServiceE 0x0004a231   Section       32  qmessageservice.o(.constdata__ZTSN10QtMobility15QMessageServiceE)
    .constdata__ZTSN10QtMobility17QMessageSortOrderE 0x0004a251   Section       34  qmessagesortorder_symbian.o(.constdata__ZTSN10QtMobility17QMessageSortOrderE)
    .constdata__ZTSN10QtMobility20QMessageFolderFilterE 0x0004a273   Section       37  qmessagefolderfilter_symbian.o(.constdata__ZTSN10QtMobility20QMessageFolderFilterE)
    .constdata__ZTSN10QtMobility20QMessageStorePrivateE 0x0004a298   Section       37  qmessagestore_symbian.o(.constdata__ZTSN10QtMobility20QMessageStorePrivateE)
    .constdata__ZTSN10QtMobility21QMessageAccountFilterE 0x0004a2bd   Section       38  qmessageaccountfilter_symbian.o(.constdata__ZTSN10QtMobility21QMessageAccountFilterE)
    .constdata__ZTSN10QtMobility22CMessagesFindOperationE 0x0004a2e3   Section       39  qmtmengine_symbian.o(.constdata__ZTSN10QtMobility22CMessagesFindOperationE)
    .constdata__ZTSN10QtMobility22QMessageServicePrivateE 0x0004a30a   Section       39  qmessageservice_symbian.o(.constdata__ZTSN10QtMobility22QMessageServicePrivateE)
    .constdata__ZTSN10QtMobility23QMessageFolderSortOrderE 0x0004a331   Section       40  qmessagefoldersortorder_symbian.o(.constdata__ZTSN10QtMobility23QMessageFolderSortOrderE)
    .constdata__ZTSN10QtMobility24CFSContentFetchOperationE 0x0004a359   Section       41  qfsengine_symbian.o(.constdata__ZTSN10QtMobility24CFSContentFetchOperationE)
    .constdata__ZTSN10QtMobility24CFSMessagesFindOperationE 0x0004a382   Section       41  qfsengine_symbian.o(.constdata__ZTSN10QtMobility24CFSMessagesFindOperationE)
    .constdata__ZTSN10QtMobility24QMessageAccountSortOrderE 0x0004a3ab   Section       41  qmessageaccountsortorder_symbian.o(.constdata__ZTSN10QtMobility24QMessageAccountSortOrderE)
    .constdata__ZTSN10QtMobility24QMessageContentContainerE 0x0004a3d4   Section       41  qmessagecontentcontainer_symbian.o(.constdata__ZTSN10QtMobility24QMessageContentContainerE)
    .constdata__ZTSN10QtMobility25CAsynchronousMTMOperationE 0x0004a3fd   Section       42  qmtmengine_symbian.o(.constdata__ZTSN10QtMobility25CAsynchronousMTMOperationE)
    .constdata__ZTSN10QtMobility8QMTMWaitE   0x0004a427   Section       24  qmtmengine_symbian.o(.constdata__ZTSN10QtMobility8QMTMWaitE)
    .constdata__ZTSN10QtMobility8QMessageE   0x0004a43f   Section       24  qmessage_symbian.o(.constdata__ZTSN10QtMobility8QMessageE)
    .constdata__ZTSN10QtMobility9CFSEngineE  0x0004a457   Section       25  qfsengine_symbian.o(.constdata__ZTSN10QtMobility9CFSEngineE)
    .constdata__ZTSN14EmailInterface19MEmailFetchObserverE 0x0004a470   Section       40  qfsengine_symbian.o(.constdata__ZTSN14EmailInterface19MEmailFetchObserverE)
    .constdata__ZTSN14EmailInterface20MMailboxSyncObserverE 0x0004a498   Section       41  qfsengine_symbian.o(.constdata__ZTSN14EmailInterface20MMailboxSyncObserverE)
    .constdata__ZTSN14EmailInterface23MMailboxContentObserverE 0x0004a4c1   Section       44  qfsengine_symbian.o(.constdata__ZTSN14EmailInterface23MMailboxContentObserverE)
    .constdata__ZTV19MMsvSessionObserver     0x0004a4f0   Section       12  qmtmengine_symbian.o(.constdata__ZTV19MMsvSessionObserver)
    .constdata__ZTVN10QtMobility10CMTMEngineE 0x0004a4fc   Section      112  qmtmengine_symbian.o(.constdata__ZTVN10QtMobility10CMTMEngineE)
    .constdata__ZTVN10QtMobility13QMessageStoreE 0x0004a56c   Section       56  qmessagestore.o(.constdata__ZTVN10QtMobility13QMessageStoreE)
    .constdata__ZTVN10QtMobility14QMessageFilterE 0x0004a5a4   Section       16  qmessagefilter_symbian.o(.constdata__ZTVN10QtMobility14QMessageFilterE)
    .constdata__ZTVN10QtMobility14QMessageFolderE 0x0004a5b4   Section       16  qmessagefolder_symbian.o(.constdata__ZTVN10QtMobility14QMessageFolderE)
    .constdata__ZTVN10QtMobility15QMessageAccountE 0x0004a5c4   Section       16  qmessageaccount_symbian.o(.constdata__ZTVN10QtMobility15QMessageAccountE)
    .constdata__ZTVN10QtMobility15QMessageAddressE 0x0004a5d4   Section       16  qmessageaddress.o(.constdata__ZTVN10QtMobility15QMessageAddressE)
    .constdata__ZTVN10QtMobility15QMessageManagerE 0x0004a5e4   Section       56  qmessagemanager.o(.constdata__ZTVN10QtMobility15QMessageManagerE)
    .constdata__ZTVN10QtMobility15QMessageServiceE 0x0004a61c   Section       56  qmessageservice.o(.constdata__ZTVN10QtMobility15QMessageServiceE)
    .constdata__ZTVN10QtMobility17QMessageSortOrderE 0x0004a654   Section       16  qmessagesortorder_symbian.o(.constdata__ZTVN10QtMobility17QMessageSortOrderE)
    .constdata__ZTVN10QtMobility20QMessageFolderFilterE 0x0004a664   Section       16  qmessagefolderfilter_symbian.o(.constdata__ZTVN10QtMobility20QMessageFolderFilterE)
    .constdata__ZTVN10QtMobility20QMessageStorePrivateE 0x0004a674   Section       56  qmessagestore_symbian.o(.constdata__ZTVN10QtMobility20QMessageStorePrivateE)
    .constdata__ZTVN10QtMobility21QMessageAccountFilterE 0x0004a6ac   Section       16  qmessageaccountfilter_symbian.o(.constdata__ZTVN10QtMobility21QMessageAccountFilterE)
    .constdata__ZTVN10QtMobility22CMessagesFindOperationE 0x0004a6bc   Section       32  qmtmengine_symbian.o(.constdata__ZTVN10QtMobility22CMessagesFindOperationE)
    .constdata__ZTVN10QtMobility22QMessageServicePrivateE 0x0004a6dc   Section       56  qmessageservice_symbian.o(.constdata__ZTVN10QtMobility22QMessageServicePrivateE)
    .constdata__ZTVN10QtMobility23QMessageFolderSortOrderE 0x0004a714   Section       16  qmessagefoldersortorder_symbian.o(.constdata__ZTVN10QtMobility23QMessageFolderSortOrderE)
    .constdata__ZTVN10QtMobility24CFSContentFetchOperationE 0x0004a724   Section       72  qfsengine_symbian.o(.constdata__ZTVN10QtMobility24CFSContentFetchOperationE)
    .constdata__ZTVN10QtMobility24CFSMessagesFindOperationE 0x0004a76c   Section       56  qfsengine_symbian.o(.constdata__ZTVN10QtMobility24CFSMessagesFindOperationE)
    .constdata__ZTVN10QtMobility24QMessageAccountSortOrderE 0x0004a7a4   Section       16  qmessageaccountsortorder_symbian.o(.constdata__ZTVN10QtMobility24QMessageAccountSortOrderE)
    .constdata__ZTVN10QtMobility24QMessageContentContainerE 0x0004a7b4   Section       16  qmessagecontentcontainer_symbian.o(.constdata__ZTVN10QtMobility24QMessageContentContainerE)
    .constdata__ZTVN10QtMobility25CAsynchronousMTMOperationE 0x0004a7c4   Section       32  qmtmengine_symbian.o(.constdata__ZTVN10QtMobility25CAsynchronousMTMOperationE)
    .constdata__ZTVN10QtMobility8QMTMWaitE   0x0004a7e4   Section       32  qmtmengine_symbian.o(.constdata__ZTVN10QtMobility8QMTMWaitE)
    .constdata__ZTVN10QtMobility8QMessageE   0x0004a804   Section       16  qmessage_symbian.o(.constdata__ZTVN10QtMobility8QMessageE)
    .constdata__ZTVN10QtMobility9CFSEngineE  0x0004a814   Section      104  qfsengine_symbian.o(.constdata__ZTVN10QtMobility9CFSEngineE)
    .constdata__ZTVN14EmailInterface19MEmailFetchObserverE 0x0004a87c   Section       12  qfsengine_symbian.o(.constdata__ZTVN14EmailInterface19MEmailFetchObserverE)
    .constdata__ZTVN14EmailInterface20MMailboxSyncObserverE 0x0004a888   Section       12  qfsengine_symbian.o(.constdata__ZTVN14EmailInterface20MMailboxSyncObserverE)
    .constdata__ZTVN14EmailInterface23MMailboxContentObserverE 0x0004a894   Section       20  qfsengine_symbian.o(.constdata__ZTVN14EmailInterface23MMailboxContentObserverE)
    .constdata__ZZ5Panic10TSmcmPanicE10KSmcmPanic 0x0004a8a8   Section       16  qmtmengine_symbian.o(.constdata__ZZ5Panic10TSmcmPanicE10KSmcmPanic)
    .constdata___ARM__ZN14EmailInterface22CEmailInterfaceFactory4NewLEv_anon0 0x0004a8b8   Section        4  qfsengine_symbian.o(.constdata___ARM__ZN14EmailInterface22CEmailInterfaceFactory4NewLEv_anon0)
    .conststring$3                           0x0004a8bc   Data           0  messagingutil.o(.conststring)
    .conststring                             0x0004a8bc   Section        9  messagingutil.o(.conststring)
    .init_array                              0x0004a8c8   Section        4  qmessageid.o(.init_array)
    .init_array                              0x0004a8cc   Section        4  qmessage.o(.init_array)
    .init_array                              0x0004a8d0   Section        4  qmessagemanager.o(.init_array)
    .ARM.exidx                               0x0004a8d4   Section        8  ucppinit.o(.ARM.exidx)
    .data$0                                  0x00400000   Data           0  qmessageid.o(.data)
    QtMobility::registrationId               0x00400000   Data           4  qmessageid.o(.data)
    .data                                    0x00400000   Section        4  qmessageid.o(.data)
    .data$0                                  0x00400004   Data           0  qmessage.o(.data)
    .data                                    0x00400004   Section        4  qmessage.o(.data)
    .data$0                                  0x00400008   Data           0  qmessagemanager.o(.data)
    QtMobility::registrationId1              0x00400008   Data           4  qmessagemanager.o(.data)
    .data                                    0x00400008   Section        8  qmessagemanager.o(.data)
    QtMobility::registrationId2              0x0040000c   Data           4  qmessagemanager.o(.data)
    .data$0                                  0x00400010   Data           0  messagingutil.o(.data)
    QtMobility::SymbianHelpers::mtmPrefix    0x00400010   Data           4  messagingutil.o(.data)
    .data                                    0x00400010   Section       16  messagingutil.o(.data)
    QtMobility::SymbianHelpers::freestylePrefix 0x00400014   Data           4  messagingutil.o(.data)
    _ZGVprefix@_ZN10QtMobility13MessagingUtil8idPrefixEv_0 0x00400018   Data           4  messagingutil.o(.data)
    prefix@_ZN10QtMobility13MessagingUtil8idPrefixEv_1 0x0040001c   Data           4  messagingutil.o(.data)
    .data$0                                  0x00400020   Data           0  qmtmengine_symbian.o(.data)
    QtMobility::SymbianHelpers::mtmPrefix    0x00400020   Data           4  qmtmengine_symbian.o(.data)
    .data                                    0x00400020   Section       24  qmtmengine_symbian.o(.data)
    QtMobility::SymbianHelpers::freestylePrefix 0x00400024   Data           4  qmtmengine_symbian.o(.data)
    QtMobility::this_mtmEngine               0x00400028   Data           8  qmtmengine_symbian.o(.data)
    _ZGVcleanup@_ZN10QtMobility9mtmEngineEv_0 0x00400030   Data           4  qmtmengine_symbian.o(.data)
    cleanup@_ZN10QtMobility9mtmEngineEv_1    0x00400034   Data           4  qmtmengine_symbian.o(.data)
    .data$0                                  0x00400038   Data           0  qmessageid_symbian.o(.data)
    QtMobility::SymbianHelpers::mtmPrefix    0x00400038   Data           4  qmessageid_symbian.o(.data)
    .data                                    0x00400038   Section        8  qmessageid_symbian.o(.data)
    QtMobility::SymbianHelpers::freestylePrefix 0x0040003c   Data           4  qmessageid_symbian.o(.data)
    .data$0                                  0x00400040   Data           0  qmessagecontentcontainerid_symbian.o(.data)
    QtMobility::SymbianHelpers::mtmPrefix    0x00400040   Data           4  qmessagecontentcontainerid_symbian.o(.data)
    .data                                    0x00400040   Section        8  qmessagecontentcontainerid_symbian.o(.data)
    QtMobility::SymbianHelpers::freestylePrefix 0x00400044   Data           4  qmessagecontentcontainerid_symbian.o(.data)
    .data$0                                  0x00400048   Data           0  qmessagefolderid_symbian.o(.data)
    QtMobility::SymbianHelpers::mtmPrefix    0x00400048   Data           4  qmessagefolderid_symbian.o(.data)
    .data                                    0x00400048   Section        8  qmessagefolderid_symbian.o(.data)
    QtMobility::SymbianHelpers::freestylePrefix 0x0040004c   Data           4  qmessagefolderid_symbian.o(.data)
    .data$0                                  0x00400050   Data           0  qmessageaccountid_symbian.o(.data)
    QtMobility::SymbianHelpers::mtmPrefix    0x00400050   Data           4  qmessageaccountid_symbian.o(.data)
    .data                                    0x00400050   Section        8  qmessageaccountid_symbian.o(.data)
    QtMobility::SymbianHelpers::freestylePrefix 0x00400054   Data           4  qmessageaccountid_symbian.o(.data)
    .data$0                                  0x00400058   Data           0  qmessagecontentcontainer_symbian.o(.data)
    QtMobility::SymbianHelpers::mtmPrefix    0x00400058   Data           4  qmessagecontentcontainer_symbian.o(.data)
    .data                                    0x00400058   Section        8  qmessagecontentcontainer_symbian.o(.data)
    QtMobility::SymbianHelpers::freestylePrefix 0x0040005c   Data           4  qmessagecontentcontainer_symbian.o(.data)
    .data$0                                  0x00400060   Data           0  qmessagestore_symbian.o(.data)
    QtMobility::SymbianHelpers::mtmPrefix    0x00400060   Data           4  qmessagestore_symbian.o(.data)
    .data                                    0x00400060   Section       24  qmessagestore_symbian.o(.data)
    QtMobility::SymbianHelpers::freestylePrefix 0x00400064   Data           4  qmessagestore_symbian.o(.data)
    QtMobility::this_messageStorePrivate     0x00400068   Data           8  qmessagestore_symbian.o(.data)
    _ZGVcleanup@_ZN10QtMobility19messageStorePrivateEv_0 0x00400070   Data           4  qmessagestore_symbian.o(.data)
    cleanup@_ZN10QtMobility19messageStorePrivateEv_1 0x00400074   Data           4  qmessagestore_symbian.o(.data)
    .data$0                                  0x00400078   Data           0  qmessageservice_symbian.o(.data)
    QtMobility::SymbianHelpers::mtmPrefix    0x00400078   Data           4  qmessageservice_symbian.o(.data)
    .data                                    0x00400078   Section        8  qmessageservice_symbian.o(.data)
    QtMobility::SymbianHelpers::freestylePrefix 0x0040007c   Data           4  qmessageservice_symbian.o(.data)
    .data$0                                  0x00400080   Data           0  maemohelpers.o(.data)
    QtMobility::this_messageCache            0x00400080   Data           8  maemohelpers.o(.data)
    .data                                    0x00400080   Section       32  maemohelpers.o(.data)
    QtMobility::this_messagingHelper         0x00400088   Data           8  maemohelpers.o(.data)
    _ZGVcleanup@_ZN10QtMobility12messageCacheEv_0 0x00400090   Data           4  maemohelpers.o(.data)
    cleanup@_ZN10QtMobility12messageCacheEv_1 0x00400094   Data           4  maemohelpers.o(.data)
    _ZGVcleanup@_ZN10QtMobility15messagingHelperEv_0 0x00400098   Data           4  maemohelpers.o(.data)
    cleanup@_ZN10QtMobility15messagingHelperEv_1 0x0040009c   Data           4  maemohelpers.o(.data)
    .data$0                                  0x004000a0   Data           0  qfsengine_symbian.o(.data)
    QtMobility::SymbianHelpers::mtmPrefix    0x004000a0   Data           4  qfsengine_symbian.o(.data)
    .data                                    0x004000a0   Section       40  qfsengine_symbian.o(.data)
    QtMobility::SymbianHelpers::freestylePrefix 0x004000a4   Data           4  qfsengine_symbian.o(.data)
    QtMobility::this_applicationThreadFsEngine 0x004000a8   Data           8  qfsengine_symbian.o(.data)
    QtMobility::this_fsEngineThreadStorage   0x004000b0   Data           8  qfsengine_symbian.o(.data)
    _ZGVcleanup@_ZN10QtMobility25applicationThreadFsEngineEv_0 0x004000b8   Data           4  qfsengine_symbian.o(.data)
    cleanup@_ZN10QtMobility25applicationThreadFsEngineEv_1 0x004000bc   Data           4  qfsengine_symbian.o(.data)
    _ZGVcleanup@_ZN10QtMobility21fsEngineThreadStorageEv_0 0x004000c0   Data           4  qfsengine_symbian.o(.data)
    cleanup@_ZN10QtMobility21fsEngineThreadStorageEv_1 0x004000c4   Data           4  qfsengine_symbian.o(.data)
    .data$0                                  0x004000c8   Data           0  ucppfini.o(.data)
    .data                                    0x004000c8   Section        4  ucppfini.o(.data)
    .data__ZNSt19_Atomic_swap_structILi1EE12_S_swap_lockE 0x004000cc   Section       12  qmessageid.o(.data__ZNSt19_Atomic_swap_structILi1EE12_S_swap_lockE)
    .data__ZZN11QMetaTypeIdI4QSetIiEE14qt_metatype_idEvE11metatype_id 0x004000d8   Section        4  qmessagemanager.o(.data__ZZN11QMetaTypeIdI4QSetIiEE14qt_metatype_idEvE11metatype_id)
    .data__ZZN11QMetaTypeIdIN10QtMobility10QMessageIdEE14qt_metatype_idEvE11metatype_id 0x004000dc   Section        4  qmessageid.o(.data__ZZN11QMetaTypeIdIN10QtMobility10QMessageIdEE14qt_metatype_idEvE11metatype_id)
    .bss$5                                   0x004000e0   Data           0  ucppfini.o(.bss)
    .bss                                     0x004000e0   Section     2048  ucppfini.o(.bss)

    Global Symbols

    Symbol Name                              Value     Ov Type        Size  Object(Section)

    BuildAttributes$$THUMB_ISAv2$ARM_ISAv5$M$VFPv2$PE$A:L22$X:L11$S22$IEEE1$IW$USESV6$~STKCKD$USESV7$~SHL$OSPACE$ROPI$IEEEJ$EBA8$UX$FPIC$INDIRECT$REQ8$PRES8$EABIv2 0x00000000   Number         0  anon$$obj.o ABSOLUTE
    QtCore{00040703}[2001b2dc].dll           0x00000000   Data           0  anon$$obj.o ABSOLUTE
    QtGui{00040703}[2001b2dd].dll            0x00000000   Data           0  anon$$obj.o ABSOLUTE
    QtMessaging{00010103}[2002ac82].dll      0x00000000   Data           0  anon$$obj.o ABSOLUTE
    apgrfx{000a0000}[10003a3c].dll           0x00000000   Data           0  anon$$obj.o ABSOLUTE
    apmime{000a0000}[10003a1a].dll           0x00000000   Data           0  anon$$obj.o ABSOLUTE
    bafl{000a0000}[10003a0f].dll             0x00000000   Data           0  anon$$obj.o ABSOLUTE
    charconv{000a0000}[10003b11].dll         0x00000000   Data           0  anon$$obj.o ABSOLUTE
    drtaeabi{000a0000}.dll                   0x00000000   Data           0  anon$$obj.o ABSOLUTE
    ecom{000a0000}[10009d8e].dll             0x00000000   Data           0  anon$$obj.o ABSOLUTE
    efsrv{000a0000}[100039e4].dll            0x00000000   Data           0  anon$$obj.o ABSOLUTE
    etext{000a0000}[10003a1c].dll            0x00000000   Data           0  anon$$obj.o ABSOLUTE
    euser{000a0000}[100039e5].dll            0x00000000   Data           0  anon$$obj.o ABSOLUTE
    gsmu{000a0000}[10000849].dll             0x00000000   Data           0  anon$$obj.o ABSOLUTE
    imcm{000a0000}[10004839].dll             0x00000000   Data           0  anon$$obj.o ABSOLUTE
    libc{00010001}[10207369].dll             0x00000000   Data           0  anon$$obj.o ABSOLUTE
    msgs{000a0000}[10004e66].dll             0x00000000   Data           0  anon$$obj.o ABSOLUTE
    mtur{000a0000}[10004835].dll             0x00000000   Data           0  anon$$obj.o ABSOLUTE
    sendui{000a0000}[100058f0].dll           0x00000000   Data           0  anon$$obj.o ABSOLUTE
    smcm{000a0000}[1000483b].dll             0x00000000   Data           0  anon$$obj.o ABSOLUTE
    stdnew{000a0000}[20022178].dll           0x00000000   Data           0  anon$$obj.o ABSOLUTE
    qAddPostRoutine(void(*)())                - Undefined Reference
    _Z15qAddPostRoutinePFvvE@QtCore{00040703}[2001b2dc].dll  - Undefined Reference
    qt_message_output(QtMsgType, const char*)  - Undefined Reference
    _Z17qt_message_output9QtMsgTypePKc@QtCore{00040703}[2001b2dc].dll  - Undefined Reference
    qt_symbian_exception2Error(const std::exception&)  - Undefined Reference
    _Z26qt_symbian_exception2ErrorRKSt9exception@QtCore{00040703}[2001b2dc].dll  - Undefined Reference
    QBasicAtomicPointer_testAndSetOrdered(void*volatile *, void*, void*)  - Undefined Reference
    _Z37QBasicAtomicPointer_testAndSetOrderedPVPvS_S_@QtCore{00040703}[2001b2dc].dll  - Undefined Reference
    qFree(void*)                              - Undefined Reference
    _Z5qFreePv@QtCore{00040703}[2001b2dc].dll  - Undefined Reference
    qHash(const QString&)                     - Undefined Reference
    _Z5qHashRK7QString@QtCore{00040703}[2001b2dc].dll  - Undefined Reference
    qstrcmp(const QByteArray&, const char*)   - Undefined Reference
    _Z7qstrcmpRK10QByteArrayPKc@QtCore{00040703}[2001b2dc].dll  - Undefined Reference
    qstrcmp(const QByteArray&, const QByteArray&)  - Undefined Reference
    _Z7qstrcmpRK10QByteArrayS1_@QtCore{00040703}[2001b2dc].dll  - Undefined Reference
    CSmsHeader::SetSmsSettingsL(const CSmsMessageSettings&)  - Undefined Reference
    _ZN10CSmsHeader15SetSmsSettingsLERK19CSmsMessageSettings@smcm{000a0000}[1000483b].dll  - Undefined Reference
    CSmsNumber::SetAddressL(const TDesC16&)   - Undefined Reference
    _ZN10CSmsNumber11SetAddressLERK7TDesC16@smcm{000a0000}[1000483b].dll  - Undefined Reference
    CSmsNumber::NewL()                        - Undefined Reference
    _ZN10CSmsNumber4NewLEv@smcm{000a0000}[1000483b].dll  - Undefined Reference
    QByteArray::shared_null                   - Undefined Reference
    _ZN10QByteArray11shared_nullE@QtCore{00040703}[2001b2dc].dll  - Undefined Reference
    QByteArray::append(const char*)           - Undefined Reference
    _ZN10QByteArray6appendEPKc@QtCore{00040703}[2001b2dc].dll  - Undefined Reference
    QByteArray::append(const QByteArray&)     - Undefined Reference
    _ZN10QByteArray6appendERKS_@QtCore{00040703}[2001b2dc].dll  - Undefined Reference
    QByteArray::insert(int, const QByteArray&)  - Undefined Reference
    _ZN10QByteArray6insertEiRKS_@QtCore{00040703}[2001b2dc].dll  - Undefined Reference
    QByteArray::remove(int, int)              - Undefined Reference
    _ZN10QByteArray6removeEii@QtCore{00040703}[2001b2dc].dll  - Undefined Reference
    QByteArray::realloc(int)                  - Undefined Reference
    _ZN10QByteArray7reallocEi@QtCore{00040703}[2001b2dc].dll  - Undefined Reference
    QByteArray::replace(const QByteArray&, const QByteArray&)  - Undefined Reference
    _ZN10QByteArray7replaceERKS_S1_@QtCore{00040703}[2001b2dc].dll  - Undefined Reference
    QByteArray::QByteArray(const char*)       - Undefined Reference
    _ZN10QByteArrayC1EPKc@QtCore{00040703}[2001b2dc].dll  - Undefined Reference
    QByteArray::QByteArray(const char*, int)  - Undefined Reference
    _ZN10QByteArrayC1EPKci@QtCore{00040703}[2001b2dc].dll  - Undefined Reference
    QByteArray::operator =(const char*)       - Undefined Reference
    _ZN10QByteArrayaSEPKc@QtCore{00040703}[2001b2dc].dll  - Undefined Reference
    QByteArray::operator =(const QByteArray&)  - Undefined Reference
    _ZN10QByteArrayaSERKS_@QtCore{00040703}[2001b2dc].dll  - Undefined Reference
    QEventLoop::exec(QFlags<QEventLoop::ProcessEventsFlag>)  - Undefined Reference
    _ZN10QEventLoop4execE6QFlagsINS_17ProcessEventsFlagEE@QtCore{00040703}[2001b2dc].dll  - Undefined Reference
    QEventLoop::quit()                        - Undefined Reference
    _ZN10QEventLoop4quitEv@QtCore{00040703}[2001b2dc].dll  - Undefined Reference
    QEventLoop::QEventLoop(QObject*)          - Undefined Reference
    _ZN10QEventLoopC1EP7QObject@QtCore{00040703}[2001b2dc].dll  - Undefined Reference
    QEventLoop::~QEventLoop()                 - Undefined Reference
    _ZN10QEventLoopD1Ev@QtCore{00040703}[2001b2dc].dll  - Undefined Reference
    QTextCodec::codecForName(const QByteArray&)  - Undefined Reference
    _ZN10QTextCodec12codecForNameERK10QByteArray@QtCore{00040703}[2001b2dc].dll  - Undefined Reference
    QTextCodec::codecForLocale()              - Undefined Reference
    _ZN10QTextCodec14codecForLocaleEv@QtCore{00040703}[2001b2dc].dll  - Undefined Reference
    RArrayBase::Close()                       - Undefined Reference
    _ZN10RArrayBase5CloseEv@euser{000a0000}[100039e5].dll  - Undefined Reference
    RArrayBase::Append(const void*)           - Undefined Reference
    _ZN10RArrayBase6AppendEPKv@euser{000a0000}[100039e5].dll  - Undefined Reference
    RArrayBase::RArrayBase(int)               - Undefined Reference
    _ZN10RArrayBaseC1Ei@euser{000a0000}[100039e5].dll  - Undefined Reference
    TBufBase16::TBufBase16(const TDesC16&, int)  - Undefined Reference
    _ZN10TBufBase16C1ERK7TDesC16i@euser{000a0000}[100039e5].dll  - Undefined Reference
    TBufBase16::TBufBase16(int)               - Undefined Reference
    _ZN10TBufBase16C1Ei@euser{000a0000}[100039e5].dll  - Undefined Reference
    CMsvSession::GetChildIdsL(long, const CMsvEntryFilter&, CMsvEntrySelection&)  - Undefined Reference
    _ZN11CMsvSession12GetChildIdsLElRK15CMsvEntryFilterR18CMsvEntrySelection@msgs{000a0000}[10004e66].dll  - Undefined Reference
    CMsvSession::GetEntry(long, long&, TMsvEntry&)  - Undefined Reference
    _ZN11CMsvSession8GetEntryElRlR9TMsvEntry@msgs{000a0000}[10004e66].dll  - Undefined Reference
    CMsvSession::GetEntryL(long)              - Undefined Reference
    _ZN11CMsvSession9GetEntryLEl@msgs{000a0000}[10004e66].dll  - Undefined Reference
    CMsvSession::OpenSyncL(MMsvSessionObserver&)  - Undefined Reference
    _ZN11CMsvSession9OpenSyncLER19MMsvSessionObserver@msgs{000a0000}[10004e66].dll  - Undefined Reference
    QDataStream::writeRawData(const char*, int)  - Undefined Reference
    _ZN11QDataStream12writeRawDataEPKci@QtCore{00040703}[2001b2dc].dll  - Undefined Reference
    QMetaObject::invokeMethod(QObject*, const char*, Qt::ConnectionType, QGenericReturnArgument, QGenericArgument, QGenericArgument, QGenericArgument, QGenericArgument, QGenericArgument, QGenericArgument, QGenericArgument, QGenericArgument, QGenericArgument, QGenericArgument)  - Undefined Reference
    _ZN11QMetaObject12invokeMethodEP7QObjectPKcN2Qt14ConnectionTypeE22QGenericReturnArgument16QGenericArgumentS7_S7_S7_S7_S7_S7_S7_S7_S7_@QtCore{00040703}[2001b2dc].dll  - Undefined Reference
    QMetaObject::activate(QObject*, const QMetaObject*, int, void**)  - Undefined Reference
    _ZN11QMetaObject8activateEP7QObjectPKS_iPPv@QtCore{00040703}[2001b2dc].dll  - Undefined Reference
    QTextStream::readAll()                    - Undefined Reference
    _ZN11QTextStream7readAllEv@QtCore{00040703}[2001b2dc].dll  - Undefined Reference
    QTextStream::QTextStream(QString*, QFlags<QIODevice::OpenModeFlag>)  - Undefined Reference
    _ZN11QTextStreamC1EP7QString6QFlagsIN9QIODevice12OpenModeFlagEE@QtCore{00040703}[2001b2dc].dll  - Undefined Reference
    QTextStream::~QTextStream()               - Undefined Reference
    _ZN11QTextStreamD1Ev@QtCore{00040703}[2001b2dc].dll  - Undefined Reference
    QTextStream::operator <<(const QByteArray&)  - Undefined Reference
    _ZN11QTextStreamlsERK10QByteArray@QtCore{00040703}[2001b2dc].dll  - Undefined Reference
    QTextStream::operator <<(const QString&)  - Undefined Reference
    _ZN11QTextStreamlsERK7QString@QtCore{00040703}[2001b2dc].dll  - Undefined Reference
    QTextStream::operator <<(char)            - Undefined Reference
    _ZN11QTextStreamlsEc@QtCore{00040703}[2001b2dc].dll  - Undefined Reference
    RHandleBase::Close()                      - Undefined Reference
    _ZN11RHandleBase5CloseEv@euser{000a0000}[100039e5].dll  - Undefined Reference
    CDesC16Array::Reset()                     - Undefined Reference
    _ZN12CDesC16Array5ResetEv@bafl{000a0000}[10003a0f].dll  - Undefined Reference
    CDesC16Array::AppendL(const TDesC16&)     - Undefined Reference
    _ZN12CDesC16Array7AppendLERK7TDesC16@bafl{000a0000}[10003a0f].dll  - Undefined Reference
    CMessageData::SetSubjectL(const TDesC16*)  - Undefined Reference
    _ZN12CMessageData11SetSubjectLEPK7TDesC16@sendui{000a0000}[100058f0].dll  - Undefined Reference
    CMessageData::SetBodyTextL(const CRichText*)  - Undefined Reference
    _ZN12CMessageData12SetBodyTextLEPK9CRichText@sendui{000a0000}[100058f0].dll  - Undefined Reference
    CMessageData::AppendCcAddressL(const TDesC16&, const TDesC16&)  - Undefined Reference
    _ZN12CMessageData16AppendCcAddressLERK7TDesC16S2_@sendui{000a0000}[100058f0].dll  - Undefined Reference
    CMessageData::AppendToAddressL(const TDesC16&, const TDesC16&)  - Undefined Reference
    _ZN12CMessageData16AppendToAddressLERK7TDesC16S2_@sendui{000a0000}[100058f0].dll  - Undefined Reference
    CMessageData::AppendAttachmentL(const TDesC16&)  - Undefined Reference
    _ZN12CMessageData17AppendAttachmentLERK7TDesC16@sendui{000a0000}[100058f0].dll  - Undefined Reference
    CMessageData::AppendBccAddressL(const TDesC16&, const TDesC16&)  - Undefined Reference
    _ZN12CMessageData17AppendBccAddressLERK7TDesC16S2_@sendui{000a0000}[100058f0].dll  - Undefined Reference
    CMessageData::NewLC()                     - Undefined Reference
    _ZN12CMessageData5NewLCEv@sendui{000a0000}[100058f0].dll  - Undefined Reference
    CSmsSettings::NewL()                      - Undefined Reference
    _ZN12CSmsSettings4NewLEv@smcm{000a0000}[1000483b].dll  - Undefined Reference
    CSmsSettings::CopyL(const CSmsSettings&)  - Undefined Reference
    _ZN12CSmsSettings5CopyLERKS_@smcm{000a0000}[1000483b].dll  - Undefined Reference
    CleanupStack::PopAndDestroy(int)          - Undefined Reference
    _ZN12CleanupStack13PopAndDestroyEi@euser{000a0000}[100039e5].dll  - Undefined Reference
    CleanupStack::PopAndDestroy()             - Undefined Reference
    _ZN12CleanupStack13PopAndDestroyEv@euser{000a0000}[100039e5].dll  - Undefined Reference
    CleanupStack::Pop()                       - Undefined Reference
    _ZN12CleanupStack3PopEv@euser{000a0000}[100039e5].dll  - Undefined Reference
    CleanupStack::Check(void*)                - Undefined Reference
    _ZN12CleanupStack5CheckEPv@euser{000a0000}[100039e5].dll  - Undefined Reference
    CleanupStack::PushL(TCleanupItem)         - Undefined Reference
    _ZN12CleanupStack5PushLE12TCleanupItem@euser{000a0000}[100039e5].dll  - Undefined Reference
    CleanupStack::PushL(CBase*)               - Undefined Reference
    _ZN12CleanupStack5PushLEP5CBase@euser{000a0000}[100039e5].dll  - Undefined Reference
    CleanupStack::PushL(void*)                - Undefined Reference
    _ZN12CleanupStack5PushLEPv@euser{000a0000}[100039e5].dll  - Undefined Reference
    REComSession::ListImplementationsL(TUid, RPointerArray<CImplementationInformation>&)  - Undefined Reference
    _ZN12REComSession20ListImplementationsLE4TUidR13RPointerArrayI26CImplementationInformationE@ecom{000a0000}[10009d8e].dll  - Undefined Reference
    REComSession::CreateImplementationL(TUid, long)  - Undefined Reference
    _ZN12REComSession21CreateImplementationLE4TUidl@ecom{000a0000}[10009d8e].dll  - Undefined Reference
    CArrayFixBase::Delete(int)                - Undefined Reference
    _ZN13CArrayFixBase6DeleteEi@euser{000a0000}[100039e5].dll  - Undefined Reference
    CArrayFixBase::InsertL(int, const void*)  - Undefined Reference
    _ZN13CArrayFixBase7InsertLEiPKv@euser{000a0000}[100039e5].dll  - Undefined Reference
    CImMimeHeader::SetMimeCharset(unsigned)   - Undefined Reference
    _ZN13CImMimeHeader14SetMimeCharsetEj@imcm{000a0000}[10004839].dll  - Undefined Reference
    CImMimeHeader::SetContentTypeL(const TDesC8&)  - Undefined Reference
    _ZN13CImMimeHeader15SetContentTypeLERK6TDesC8@imcm{000a0000}[10004839].dll  - Undefined Reference
    CImMimeHeader::SetContentSubTypeL(const TDesC8&)  - Undefined Reference
    _ZN13CImMimeHeader18SetContentSubTypeLERK6TDesC8@imcm{000a0000}[10004839].dll  - Undefined Reference
    CImMimeHeader::Size()                     - Undefined Reference
    _ZN13CImMimeHeader4SizeEv@imcm{000a0000}[10004839].dll  - Undefined Reference
    CImMimeHeader::NewLC()                    - Undefined Reference
    _ZN13CImMimeHeader5NewLCEv@imcm{000a0000}[10004839].dll  - Undefined Reference
    CImMimeHeader::RestoreL(CMsvStore&)       - Undefined Reference
    _ZN13CImMimeHeader8RestoreLER9CMsvStore@imcm{000a0000}[10004839].dll  - Undefined Reference
    RApaLsSession::Close()                    - Undefined Reference
    _ZN13RApaLsSession5CloseEv@apgrfx{000a0000}[10003a3c].dll  - Undefined Reference
    RApaLsSession::Connect()                  - Undefined Reference
    _ZN13RApaLsSession7ConnectEv@apgrfx{000a0000}[10003a3c].dll  - Undefined Reference
    RApaLsSession::RApaLsSession()            - Undefined Reference
    _ZN13RApaLsSessionC1Ev@apgrfx{000a0000}[10003a3c].dll  - Undefined Reference
    CMsvAttachment::SetAttachmentNameL(const TDesC16&)  - Undefined Reference
    _ZN14CMsvAttachment18SetAttachmentNameLERK7TDesC16@msgs{000a0000}[10004e66].dll  - Undefined Reference
    CMsvAttachment::NewL(CMsvAttachment::TMsvAttachmentType)  - Undefined Reference
    _ZN14CMsvAttachment4NewLENS_18TMsvAttachmentTypeE@msgs{000a0000}[10004e66].dll  - Undefined Reference
    CMtmUiRegistry::NewL(CMsvSession&, TTimeIntervalMicroSeconds32)  - Undefined Reference
    _ZN14CMtmUiRegistry4NewLER11CMsvSession27TTimeIntervalMicroSeconds32@mtur{000a0000}[10004835].dll  - Undefined Reference
    CMtmUiRegistry::NewMtmUiL(CBaseMtm&)      - Undefined Reference
    _ZN14CMtmUiRegistry9NewMtmUiLER8CBaseMtm@mtur{000a0000}[10004835].dll  - Undefined Reference
    CImEmailMessage::GetBodyTextL(long, CImEmailMessage::TImEmailEntryType, CRichText&, CParaFormatLayer&, CCharFormatLayer&)  - Undefined Reference
    _ZN15CImEmailMessage12GetBodyTextLElNS_17TImEmailEntryTypeER9CRichTextR16CParaFormatLayerR16CCharFormatLayer@imcm{000a0000}[10004839].dll  - Undefined Reference
    CImEmailMessage::GetAttachmentsListL(long, CImEmailMessage::TImAttachmentType, CImEmailMessage::TImEmailEntryType)  - Undefined Reference
    _ZN15CImEmailMessage19GetAttachmentsListLElNS_17TImAttachmentTypeENS_17TImEmailEntryTypeE@imcm{000a0000}[10004839].dll  - Undefined Reference
    CImEmailMessage::StoreBodyTextWithMimeHeaderL(long, CRichText&, const CImMimeHeader&, TRequestStatus&)  - Undefined Reference
    _ZN15CImEmailMessage28StoreBodyTextWithMimeHeaderLElR9CRichTextRK13CImMimeHeaderR14TRequestStatus@imcm{000a0000}[10004839].dll  - Undefined Reference
    CImEmailMessage::NewL(CMsvEntry&)         - Undefined Reference
    _ZN15CImEmailMessage4NewLER9CMsvEntry@imcm{000a0000}[10004839].dll  - Undefined Reference
    CImEmailMessage::NewLC(CMsvEntry&)        - Undefined Reference
    _ZN15CImEmailMessage5NewLCER9CMsvEntry@imcm{000a0000}[10004839].dll  - Undefined Reference
    CMsvEntryFilter::NewLC()                  - Undefined Reference
    _ZN15CMsvEntryFilter5NewLCEv@msgs{000a0000}[10004e66].dll  - Undefined Reference
    CMsvMimeHeaders::SetSuggestedFilenameL(const TDesC16&)  - Undefined Reference
    _ZN15CMsvMimeHeaders21SetSuggestedFilenameLERK7TDesC16@msgs{000a0000}[10004e66].dll  - Undefined Reference
    CMsvMimeHeaders::NewL()                   - Undefined Reference
    _ZN15CMsvMimeHeaders4NewLEv@msgs{000a0000}[10004e66].dll  - Undefined Reference
    CnvUtfConverter::ConvertFromUnicodeToUtf8L(const TDesC16&)  - Undefined Reference
    _ZN15CnvUtfConverter25ConvertFromUnicodeToUtf8LERK7TDesC16@charconv{000a0000}[10003b11].dll  - Undefined Reference
    CnvUtfConverter::ConvertToUnicodeFromUtf8L(const TDesC8&)  - Undefined Reference
    _ZN15CnvUtfConverter25ConvertToUnicodeFromUtf8LERK6TDesC8@charconv{000a0000}[10003b11].dll  - Undefined Reference
    CActiveScheduler::Add(CActive*)           - Undefined Reference
    _ZN16CActiveScheduler3AddEP7CActive@euser{000a0000}[100039e5].dll  - Undefined Reference
    CCharFormatLayer::NewL()                  - Undefined Reference
    _ZN16CCharFormatLayer4NewLEv@etext{000a0000}[10003a1c].dll  - Undefined Reference
    CParaFormatLayer::NewL()                  - Undefined Reference
    _ZN16CParaFormatLayer4NewLEv@etext{000a0000}[10003a1c].dll  - Undefined Reference
    QCoreApplication::self                    - Undefined Reference
    _ZN16QCoreApplication4selfE@QtCore{00040703}[2001b2dc].dll  - Undefined Reference
    QDesktopServices::storageLocation(QDesktopServices::StandardLocation)  - Undefined Reference
    _ZN16QDesktopServices15storageLocationENS_16StandardLocationE@QtGui{00040703}[2001b2dd].dll  - Undefined Reference
    CImEmailOperation::CreateNewL(TRequestStatus&, CMsvSession&, long, long, unsigned, const unsigned&, TUid, int)  - Undefined Reference
    _ZN17CImEmailOperation10CreateNewLER14TRequestStatusR11CMsvSessionlljRKj4TUidi@imcm{000a0000}[10004839].dll  - Undefined Reference
    CMsvFindOperation::FindInSelectionL(CMsvSession&, const TDesC16&, const CMsvEntrySelection&, unsigned, TRequestStatus&)  - Undefined Reference
    _ZN17CMsvFindOperation16FindInSelectionLER11CMsvSessionRK7TDesC16RK18CMsvEntrySelectionjR14TRequestStatus@msgs{000a0000}[10004e66].dll  - Undefined Reference
    RPointerArrayBase::Close()                - Undefined Reference
    _ZN17RPointerArrayBase5CloseEv@euser{000a0000}[100039e5].dll  - Undefined Reference
    RPointerArrayBase::Reset()                - Undefined Reference
    _ZN17RPointerArrayBase5ResetEv@euser{000a0000}[100039e5].dll  - Undefined Reference
    RPointerArrayBase::Append(const void*)    - Undefined Reference
    _ZN17RPointerArrayBase6AppendEPKv@euser{000a0000}[100039e5].dll  - Undefined Reference
    RPointerArrayBase::Remove(int)            - Undefined Reference
    _ZN17RPointerArrayBase6RemoveEi@euser{000a0000}[100039e5].dll  - Undefined Reference
    RPointerArrayBase::RPointerArrayBase()    - Undefined Reference
    _ZN17RPointerArrayBaseC1Ev@euser{000a0000}[100039e5].dll  - Undefined Reference
    CClientMtmRegistry::NewL(CMsvSession&, TTimeIntervalMicroSeconds32)  - Undefined Reference
    _ZN18CClientMtmRegistry4NewLER11CMsvSession27TTimeIntervalMicroSeconds32@msgs{000a0000}[10004e66].dll  - Undefined Reference
    CClientMtmRegistry::NewMtmL(TUid)         - Undefined Reference
    _ZN18CClientMtmRegistry7NewMtmLE4TUid@msgs{000a0000}[10004e66].dll  - Undefined Reference
    CMsvEntrySelection::CMsvEntrySelection()  - Undefined Reference
    _ZN18CMsvEntrySelectionC1Ev@msgs{000a0000}[10004e66].dll  - Undefined Reference
    QThreadStorageData::set(void*)            - Undefined Reference
    _ZN18QThreadStorageData3setEPv@QtCore{00040703}[2001b2dc].dll  - Undefined Reference
    QThreadStorageData::QThreadStorageData(void(*)(void*))  - Undefined Reference
    _ZN18QThreadStorageDataC1EPFvPvE@QtCore{00040703}[2001b2dc].dll  - Undefined Reference
    QThreadStorageData::~QThreadStorageData()  - Undefined Reference
    _ZN18QThreadStorageDataD1Ev@QtCore{00040703}[2001b2dc].dll  - Undefined Reference
    TMsvSelectionOrdering::TMsvSelectionOrdering(int, TMsvSorting, int)  - Undefined Reference
    _ZN21TMsvSelectionOrderingC1Ei11TMsvSortingi@msgs{000a0000}[10004e66].dll  - Undefined Reference
    TMsvSelectionOrdering::TMsvSelectionOrdering()  - Undefined Reference
    _ZN21TMsvSelectionOrderingC1Ev@msgs{000a0000}[10004e66].dll  - Undefined Reference
    RFs::PrivatePath(TDes16&)                 - Undefined Reference
    _ZN3RFs11PrivatePathER6TDes16@efsrv{000a0000}[100039e4].dll  - Undefined Reference
    RFs::CreatePrivatePath(int)               - Undefined Reference
    _ZN3RFs17CreatePrivatePathEi@efsrv{000a0000}[100039e4].dll  - Undefined Reference
    RFs::Close()                              - Undefined Reference
    _ZN3RFs5CloseEv@efsrv{000a0000}[100039e4].dll  - Undefined Reference
    RFs::Connect(int)                         - Undefined Reference
    _ZN3RFs7ConnectEi@efsrv{000a0000}[100039e4].dll  - Undefined Reference
    RFs::MkDirAll(const TDesC16&)             - Undefined Reference
    _ZN3RFs8MkDirAllERK7TDesC16@efsrv{000a0000}[100039e4].dll  - Undefined Reference
    User::LeaveIfError(int)                   - Undefined Reference
    _ZN4User12LeaveIfErrorEi@euser{000a0000}[100039e5].dll  - Undefined Reference
    User::MarkCleanupStack()                  - Undefined Reference
    _ZN4User16MarkCleanupStackEv@euser{000a0000}[100039e5].dll  - Undefined Reference
    User::UnMarkCleanupStack(TTrapHandler*)   - Undefined Reference
    _ZN4User18UnMarkCleanupStackEP12TTrapHandler@euser{000a0000}[100039e5].dll  - Undefined Reference
    User::Leave(int)                          - Undefined Reference
    _ZN4User5LeaveEi@euser{000a0000}[100039e5].dll  - Undefined Reference
    User::Panic(const TDesC16&, int)          - Undefined Reference
    _ZN4User5PanicERK7TDesC16i@euser{000a0000}[100039e5].dll  - Undefined Reference
    User::AllocZ(int)                         - Undefined Reference
    _ZN4User6AllocZEi@euser{000a0000}[100039e5].dll  - Undefined Reference
    User::AllocZL(int)                        - Undefined Reference
    _ZN4User7AllocZLEi@euser{000a0000}[100039e5].dll  - Undefined Reference
    User::Invariant()                         - Undefined Reference
    _ZN4User9InvariantEv@euser{000a0000}[100039e5].dll  - Undefined Reference
    User::LockedDec(int&)                     - Undefined Reference
    _ZN4User9LockedDecERi@euser{000a0000}[100039e5].dll  - Undefined Reference
    User::LockedInc(int&)                     - Undefined Reference
    _ZN4User9LockedIncERi@euser{000a0000}[100039e5].dll  - Undefined Reference
    QChar::QChar(char)                        - Undefined Reference
    _ZN5QCharC1Ec@QtCore{00040703}[2001b2dc].dll  - Undefined Reference
    QDate::QDate(int, int, int)               - Undefined Reference
    _ZN5QDateC1Eiii@QtCore{00040703}[2001b2dc].dll  - Undefined Reference
    QFile::open(QFlags<QIODevice::OpenModeFlag>)  - Undefined Reference
    _ZN5QFile4openE6QFlagsIN9QIODevice12OpenModeFlagEE@QtCore{00040703}[2001b2dc].dll  - Undefined Reference
    QFile::close()                            - Undefined Reference
    _ZN5QFile5closeEv@QtCore{00040703}[2001b2dc].dll  - Undefined Reference
    QFile::exists(const QString&)             - Undefined Reference
    _ZN5QFile6existsERK7QString@QtCore{00040703}[2001b2dc].dll  - Undefined Reference
    QFile::QFile(const QString&)              - Undefined Reference
    _ZN5QFileC1ERK7QString@QtCore{00040703}[2001b2dc].dll  - Undefined Reference
    QFile::~QFile()                           - Undefined Reference
    _ZN5QFileD1Ev@QtCore{00040703}[2001b2dc].dll  - Undefined Reference
    QTime::QTime(int, int, int, int)          - Undefined Reference
    _ZN5QTimeC1Eiiii@QtCore{00040703}[2001b2dc].dll  - Undefined Reference
    RFile::Open(RFs&, const TDesC16&, unsigned)  - Undefined Reference
    _ZN5RFile4OpenER3RFsRK7TDesC16j@efsrv{000a0000}[100039e4].dll  - Undefined Reference
    RFile::Temp(RFs&, const TDesC16&, TBuf<(int)256>&, unsigned)  - Undefined Reference
    _ZN5RFile4TempER3RFsRK7TDesC16R4TBufILi256EEj@efsrv{000a0000}[100039e4].dll  - Undefined Reference
    RFile::Close()                            - Undefined Reference
    _ZN5RFile5CloseEv@efsrv{000a0000}[100039e4].dll  - Undefined Reference
    RFile::Write(const TDesC8&)               - Undefined Reference
    _ZN5RFile5WriteERK6TDesC8@efsrv{000a0000}[100039e4].dll  - Undefined Reference
    TDes8::Copy(const TDesC8&)                - Undefined Reference
    _ZN5TDes84CopyERK6TDesC8@euser{000a0000}[100039e5].dll  - Undefined Reference
    TPtr8::TPtr8(unsigned char*, int, int)    - Undefined Reference
    _ZN5TPtr8C1EPhii@euser{000a0000}[100039e5].dll  - Undefined Reference
    TTime::UniversalTime()                    - Undefined Reference
    _ZN5TTime13UniversalTimeEv@euser{000a0000}[100039e5].dll  - Undefined Reference
    TTime::TTime(const TDateTime&)            - Undefined Reference
    _ZN5TTimeC1ERK9TDateTime@euser{000a0000}[100039e5].dll  - Undefined Reference
    HBufC8::Des()                             - Undefined Reference
    _ZN6HBufC83DesEv@euser{000a0000}[100039e5].dll  - Undefined Reference
    HBufC8::NewL(int)                         - Undefined Reference
    _ZN6HBufC84NewLEi@euser{000a0000}[100039e5].dll  - Undefined Reference
    HBufC8::NewLC(int)                        - Undefined Reference
    _ZN6HBufC85NewLCEi@euser{000a0000}[100039e5].dll  - Undefined Reference
    QMutex::lock()                            - Undefined Reference
    _ZN6QMutex4lockEv@QtCore{00040703}[2001b2dc].dll  - Undefined Reference
    QMutex::unlock()                          - Undefined Reference
    _ZN6QMutex6unlockEv@QtCore{00040703}[2001b2dc].dll  - Undefined Reference
    QMutex::QMutex(QMutex::RecursionMode)     - Undefined Reference
    _ZN6QMutexC1ENS_13RecursionModeE@QtCore{00040703}[2001b2dc].dll  - Undefined Reference
    QMutex::~QMutex()                         - Undefined Reference
    _ZN6QMutexD1Ev@QtCore{00040703}[2001b2dc].dll  - Undefined Reference
    RTimer::CreateLocal()                     - Undefined Reference
    _ZN6RTimer11CreateLocalEv@euser{000a0000}[100039e5].dll  - Undefined Reference
    RTimer::After(TRequestStatus&, TTimeIntervalMicroSeconds32)  - Undefined Reference
    _ZN6RTimer5AfterER14TRequestStatus27TTimeIntervalMicroSeconds32@euser{000a0000}[100039e5].dll  - Undefined Reference
    RTimer::Cancel()                          - Undefined Reference
    _ZN6RTimer6CancelEv@euser{000a0000}[100039e5].dll  - Undefined Reference
    TDes16::Copy(const TDesC16&)              - Undefined Reference
    _ZN6TDes164CopyERK7TDesC16@euser{000a0000}[100039e5].dll  - Undefined Reference
    TDes16::Append(const TDesC16&)            - Undefined Reference
    _ZN6TDes166AppendERK7TDesC16@euser{000a0000}[100039e5].dll  - Undefined Reference
    TPtrC8::TPtrC8(const unsigned char*)      - Undefined Reference
    _ZN6TPtrC8C1EPKh@euser{000a0000}[100039e5].dll  - Undefined Reference
    TPtrC8::TPtrC8(const unsigned char*, int)  - Undefined Reference
    _ZN6TPtrC8C1EPKhi@euser{000a0000}[100039e5].dll  - Undefined Reference
    TPtrC8::TPtrC8(const TDesC8&)             - Undefined Reference
    _ZN6TPtrC8C1ERK6TDesC8@euser{000a0000}[100039e5].dll  - Undefined Reference
    CActive::Extension_(unsigned, void*&, void*)  - Undefined Reference
    _ZN7CActive10Extension_EjRPvS0_@euser{000a0000}[100039e5].dll  - Undefined Reference
    CActive::Cancel()                         - Undefined Reference
    _ZN7CActive6CancelEv@euser{000a0000}[100039e5].dll  - Undefined Reference
    CActive::RunError(int)                    - Undefined Reference
    _ZN7CActive8RunErrorEi@euser{000a0000}[100039e5].dll  - Undefined Reference
    CActive::SetActive()                      - Undefined Reference
    _ZN7CActive9SetActiveEv@euser{000a0000}[100039e5].dll  - Undefined Reference
    CActive::CActive__sub_object(int)         - Undefined Reference
    _ZN7CActiveC2Ei@euser{000a0000}[100039e5].dll  - Undefined Reference
    CActive::~CActive__sub_object()           - Undefined Reference
    _ZN7CActiveD2Ev@euser{000a0000}[100039e5].dll  - Undefined Reference
    CSendUi::CreateAndSendMessageL(TUid, const CMessageData*, TUid, int)  - Undefined Reference
    _ZN7CSendUi21CreateAndSendMessageLE4TUidPK12CMessageDataS0_i@sendui{000a0000}[100058f0].dll  - Undefined Reference
    CSendUi::NewL()                           - Undefined Reference
    _ZN7CSendUi4NewLEv@sendui{000a0000}[100058f0].dll  - Undefined Reference
    CSmsPDU::SetServiceCenterAddressL(const TDesC16&)  - Undefined Reference
    _ZN7CSmsPDU24SetServiceCenterAddressLERK7TDesC16@gsmu{000a0000}[10000849].dll  - Undefined Reference
    HBufC16::Des()                            - Undefined Reference
    _ZN7HBufC163DesEv@euser{000a0000}[100039e5].dll  - Undefined Reference
    HBufC16::NewLC(int)                       - Undefined Reference
    _ZN7HBufC165NewLCEi@euser{000a0000}[100039e5].dll  - Undefined Reference
    QObject::childEvent(QChildEvent*)         - Undefined Reference
    _ZN7QObject10childEventEP11QChildEvent@QtCore{00040703}[2001b2dc].dll  - Undefined Reference
    QObject::timerEvent(QTimerEvent*)         - Undefined Reference
    _ZN7QObject10timerEventEP11QTimerEvent@QtCore{00040703}[2001b2dc].dll  - Undefined Reference
    QObject::customEvent(QEvent*)             - Undefined Reference
    _ZN7QObject11customEventEP6QEvent@QtCore{00040703}[2001b2dc].dll  - Undefined Reference
    QObject::eventFilter(QObject*, QEvent*)   - Undefined Reference
    _ZN7QObject11eventFilterEPS_P6QEvent@QtCore{00040703}[2001b2dc].dll  - Undefined Reference
    QObject::qt_metacall(QMetaObject::Call, int, void**)  - Undefined Reference
    _ZN7QObject11qt_metacallEN11QMetaObject4CallEiPPv@QtCore{00040703}[2001b2dc].dll  - Undefined Reference
    QObject::qt_metacast(const char*)         - Undefined Reference
    _ZN7QObject11qt_metacastEPKc@QtCore{00040703}[2001b2dc].dll  - Undefined Reference
    QObject::connectNotify(const char*)       - Undefined Reference
    _ZN7QObject13connectNotifyEPKc@QtCore{00040703}[2001b2dc].dll  - Undefined Reference
    QObject::disconnectNotify(const char*)    - Undefined Reference
    _ZN7QObject16disconnectNotifyEPKc@QtCore{00040703}[2001b2dc].dll  - Undefined Reference
    QObject::staticMetaObject                 - Undefined Reference
    _ZN7QObject16staticMetaObjectE@QtCore{00040703}[2001b2dc].dll  - Undefined Reference
    QObject::event(QEvent*)                   - Undefined Reference
    _ZN7QObject5eventEP6QEvent@QtCore{00040703}[2001b2dc].dll  - Undefined Reference
    QObject::connect(const QObject*, const char*, const QObject*, const char*, Qt::ConnectionType)  - Undefined Reference
    _ZN7QObject7connectEPKS_PKcS1_S3_N2Qt14ConnectionTypeE@QtCore{00040703}[2001b2dc].dll  - Undefined Reference
    QObject::QObject(QObject*)                - Undefined Reference
    _ZN7QObjectC1EPS_@QtCore{00040703}[2001b2dc].dll  - Undefined Reference
    QObject::~QObject()                       - Undefined Reference
    _ZN7QObjectD1Ev@QtCore{00040703}[2001b2dc].dll  - Undefined Reference
    QRegExp::cap(int)                         - Undefined Reference
    _ZN7QRegExp3capEi@QtCore{00040703}[2001b2dc].dll  - Undefined Reference
    QRegExp::QRegExp(const QString&, Qt::CaseSensitivity, QRegExp::PatternSyntax)  - Undefined Reference
    _ZN7QRegExpC1ERK7QStringN2Qt15CaseSensitivityENS_13PatternSyntaxE@QtCore{00040703}[2001b2dc].dll  - Undefined Reference
    QRegExp::~QRegExp()                       - Undefined Reference
    _ZN7QRegExpD1Ev@QtCore{00040703}[2001b2dc].dll  - Undefined Reference
    QString::fromLatin1(const char*, int)     - Undefined Reference
    _ZN7QString10fromLatin1EPKci@QtCore{00040703}[2001b2dc].dll  - Undefined Reference
    QString::shared_null                      - Undefined Reference
    _ZN7QString11shared_nullE@QtCore{00040703}[2001b2dc].dll  - Undefined Reference
    QString::fromAscii_helper(const char*, int)  - Undefined Reference
    _ZN7QString16fromAscii_helperEPKci@QtCore{00040703}[2001b2dc].dll  - Undefined Reference
    QString::free(QString::Data*)             - Undefined Reference
    _ZN7QString4freeEPNS_4DataE@QtCore{00040703}[2001b2dc].dll  - Undefined Reference
    QString::append(const QString&)           - Undefined Reference
    _ZN7QString6appendERKS_@QtCore{00040703}[2001b2dc].dll  - Undefined Reference
    QString::insert(int, const QChar*, int)   - Undefined Reference
    _ZN7QString6insertEiPK5QChari@QtCore{00040703}[2001b2dc].dll  - Undefined Reference
    QString::number(int, int)                 - Undefined Reference
    _ZN7QString6numberEii@QtCore{00040703}[2001b2dc].dll  - Undefined Reference
    QString::number(unsigned, int)            - Undefined Reference
    _ZN7QString6numberEji@QtCore{00040703}[2001b2dc].dll  - Undefined Reference
    QString::number(long, int)                - Undefined Reference
    _ZN7QString6numberEli@QtCore{00040703}[2001b2dc].dll  - Undefined Reference
    QString::fromAscii(const char*, int)      - Undefined Reference
    _ZN7QString9fromAsciiEPKci@QtCore{00040703}[2001b2dc].dll  - Undefined Reference
    QString::fromUtf16(const unsigned short*, int)  - Undefined Reference
    _ZN7QString9fromUtf16EPKti@QtCore{00040703}[2001b2dc].dll  - Undefined Reference
    QString::operator =(const QString&)       - Undefined Reference
    _ZN7QStringaSERKS_@QtCore{00040703}[2001b2dc].dll  - Undefined Reference
    QThread::currentThread()                  - Undefined Reference
    _ZN7QThread13currentThreadEv@QtCore{00040703}[2001b2dc].dll  - Undefined Reference
    TPtrC16::TPtrC16(const unsigned short*)   - Undefined Reference
    _ZN7TPtrC16C1EPKt@euser{000a0000}[100039e5].dll  - Undefined Reference
    TPtrC16::TPtrC16(const unsigned short*, int)  - Undefined Reference
    _ZN7TPtrC16C1EPKti@euser{000a0000}[100039e5].dll  - Undefined Reference
    TPtrC16::TPtrC16(const TDesC16&)          - Undefined Reference
    _ZN7TPtrC16C1ERK7TDesC16@euser{000a0000}[100039e5].dll  - Undefined Reference
    CBaseMtm::SetCurrentEntryL(CMsvEntry*)    - Undefined Reference
    _ZN8CBaseMtm16SetCurrentEntryLEP9CMsvEntry@msgs{000a0000}[10004e66].dll  - Undefined Reference
    CBaseMtm::SwitchCurrentEntryL(long)       - Undefined Reference
    _ZN8CBaseMtm19SwitchCurrentEntryLEl@msgs{000a0000}[10004e66].dll  - Undefined Reference
    CBaseMtm::Body()                          - Undefined Reference
    _ZN8CBaseMtm4BodyEv@msgs{000a0000}[10004e66].dll  - Undefined Reference
    CBaseMtm::Session()                       - Undefined Reference
    _ZN8CBaseMtm7SessionEv@msgs{000a0000}[10004e66].dll  - Undefined Reference
    CFileMan::NewL(RFs&)                      - Undefined Reference
    _ZN8CFileMan4NewLER3RFs@efsrv{000a0000}[100039e4].dll  - Undefined Reference
    CFileMan::RmDir(const TDesC16&)           - Undefined Reference
    _ZN8CFileMan5RmDirERK7TDesC16@efsrv{000a0000}[100039e4].dll  - Undefined Reference
    QMapData::createData(int)                 - Undefined Reference
    _ZN8QMapData10createDataEi@QtCore{00040703}[2001b2dc].dll  - Undefined Reference
    QMapData::node_create(QMapData::Node**, int, int)  - Undefined Reference
    _ZN8QMapData11node_createEPPNS_4NodeEii@QtCore{00040703}[2001b2dc].dll  - Undefined Reference
    QMapData::node_delete(QMapData::Node**, int, QMapData::Node*)  - Undefined Reference
    _ZN8QMapData11node_deleteEPPNS_4NodeEiS1_@QtCore{00040703}[2001b2dc].dll  - Undefined Reference
    QMapData::shared_null                     - Undefined Reference
    _ZN8QMapData11shared_nullE@QtCore{00040703}[2001b2dc].dll  - Undefined Reference
    QMapData::continueFreeData(int)           - Undefined Reference
    _ZN8QMapData16continueFreeDataEi@QtCore{00040703}[2001b2dc].dll  - Undefined Reference
    QVariant::QVariant(const QString&)        - Undefined Reference
    _ZN8QVariantC1ERK7QString@QtCore{00040703}[2001b2dc].dll  - Undefined Reference
    QVariant::QVariant(const QDateTime&)      - Undefined Reference
    _ZN8QVariantC1ERK9QDateTime@QtCore{00040703}[2001b2dc].dll  - Undefined Reference
    QVariant::QVariant(int)                   - Undefined Reference
    _ZN8QVariantC1Ei@QtCore{00040703}[2001b2dc].dll  - Undefined Reference
    QVariant::QVariant(unsigned)              - Undefined Reference
    _ZN8QVariantC1Ej@QtCore{00040703}[2001b2dc].dll  - Undefined Reference
    QVariant::~QVariant()                     - Undefined Reference
    _ZN8QVariantD1Ev@QtCore{00040703}[2001b2dc].dll  - Undefined Reference
    QVariant::operator =(const QVariant&)     - Undefined Reference
    _ZN8QVariantaSERKS_@QtCore{00040703}[2001b2dc].dll  - Undefined Reference
    CImHeader::SetSubjectL(const TDesC16&)    - Undefined Reference
    _ZN9CImHeader11SetSubjectLERK7TDesC16@imcm{000a0000}[10004839].dll  - Undefined Reference
    CImHeader::NewLC()                        - Undefined Reference
    _ZN9CImHeader5NewLCEv@imcm{000a0000}[10004839].dll  - Undefined Reference
    CImHeader::DataSize()                     - Undefined Reference
    _ZN9CImHeader8DataSizeEv@imcm{000a0000}[10004839].dll  - Undefined Reference
    CImHeader::RestoreL(CMsvStore&)           - Undefined Reference
    _ZN9CImHeader8RestoreLER9CMsvStore@imcm{000a0000}[10004839].dll  - Undefined Reference
    CImHeader::SetFromL(const TDesC16&)       - Undefined Reference
    _ZN9CImHeader8SetFromLERK7TDesC16@imcm{000a0000}[10004839].dll  - Undefined Reference
    CMsvEntry::EditStoreL()                   - Undefined Reference
    _ZN9CMsvEntry10EditStoreLEv@msgs{000a0000}[10004e66].dll  - Undefined Reference
    CMsvEntry::ReadStoreL()                   - Undefined Reference
    _ZN9CMsvEntry10ReadStoreLEv@msgs{000a0000}[10004e66].dll  - Undefined Reference
    CMsvEntry::SetSortTypeL(const TMsvSelectionOrdering&)  - Undefined Reference
    _ZN9CMsvEntry12SetSortTypeLERK21TMsvSelectionOrdering@msgs{000a0000}[10004e66].dll  - Undefined Reference
    CMsvEntry::NewL(CMsvSession&, long, const TMsvSelectionOrdering&)  - Undefined Reference
    _ZN9CMsvEntry4NewLER11CMsvSessionlRK21TMsvSelectionOrdering@msgs{000a0000}[10004e66].dll  - Undefined Reference
    CMsvEntry::CopyL(long, long)              - Undefined Reference
    _ZN9CMsvEntry5CopyLEll@msgs{000a0000}[10004e66].dll  - Undefined Reference
    CMsvEntry::CopyL(long, long, TRequestStatus&)  - Undefined Reference
    _ZN9CMsvEntry5CopyLEllR14TRequestStatus@msgs{000a0000}[10004e66].dll  - Undefined Reference
    CMsvEntry::MoveL(long, long, TRequestStatus&)  - Undefined Reference
    _ZN9CMsvEntry5MoveLEllR14TRequestStatus@msgs{000a0000}[10004e66].dll  - Undefined Reference
    CMsvEntry::ChangeL(const TMsvEntry&)      - Undefined Reference
    _ZN9CMsvEntry7ChangeLERK9TMsvEntry@msgs{000a0000}[10004e66].dll  - Undefined Reference
    CMsvEntry::ChangeL(const TMsvEntry&, TRequestStatus&)  - Undefined Reference
    _ZN9CMsvEntry7ChangeLERK9TMsvEntryR14TRequestStatus@msgs{000a0000}[10004e66].dll  - Undefined Reference
    CMsvEntry::DeleteL(long)                  - Undefined Reference
    _ZN9CMsvEntry7DeleteLEl@msgs{000a0000}[10004e66].dll  - Undefined Reference
    CMsvEntry::DeleteL(long, TRequestStatus&)  - Undefined Reference
    _ZN9CMsvEntry7DeleteLElR14TRequestStatus@msgs{000a0000}[10004e66].dll  - Undefined Reference
    CMsvEntry::SetEntryL(long)                - Undefined Reference
    _ZN9CMsvEntry9SetEntryLEl@msgs{000a0000}[10004e66].dll  - Undefined Reference
    CMsvStore::StoreBodyTextL(const CRichText&)  - Undefined Reference
    _ZN9CMsvStore14StoreBodyTextLERK9CRichText@msgs{000a0000}[10004e66].dll  - Undefined Reference
    CMsvStore::RestoreBodyTextL(CRichText&)   - Undefined Reference
    _ZN9CMsvStore16RestoreBodyTextLER9CRichText@msgs{000a0000}[10004e66].dll  - Undefined Reference
    CMsvStore::AttachmentManagerL()           - Undefined Reference
    _ZN9CMsvStore18AttachmentManagerLEv@msgs{000a0000}[10004e66].dll  - Undefined Reference
    CMsvStore::CommitL()                      - Undefined Reference
    _ZN9CMsvStore7CommitLEv@msgs{000a0000}[10004e66].dll  - Undefined Reference
    CRichText::NewL(const CParaFormatLayer*, const CCharFormatLayer*, CEditableText::TDocumentStorage, int, CRichText::TParaType)  - Undefined Reference
    _ZN9CRichText4NewLEPK16CParaFormatLayerPK16CCharFormatLayerN13CEditableText16TDocumentStorageEiNS_9TParaTypeE@etext{000a0000}[10003a1c].dll  - Undefined Reference
    QDateTime::currentDateTime()              - Undefined Reference
    _ZN9QDateTime15currentDateTimeEv@QtCore{00040703}[2001b2dc].dll  - Undefined Reference
    QDateTime::QDateTime(const QDate&, const QTime&, Qt::TimeSpec)  - Undefined Reference
    _ZN9QDateTimeC1ERK5QDateRK5QTimeN2Qt8TimeSpecE@QtCore{00040703}[2001b2dc].dll  - Undefined Reference
    QDateTime::QDateTime(const QDateTime&)    - Undefined Reference
    _ZN9QDateTimeC1ERKS_@QtCore{00040703}[2001b2dc].dll  - Undefined Reference
    QDateTime::QDateTime()                    - Undefined Reference
    _ZN9QDateTimeC1Ev@QtCore{00040703}[2001b2dc].dll  - Undefined Reference
    QDateTime::~QDateTime()                   - Undefined Reference
    _ZN9QDateTimeD1Ev@QtCore{00040703}[2001b2dc].dll  - Undefined Reference
    QDateTime::operator =(const QDateTime&)   - Undefined Reference
    _ZN9QDateTimeaSERKS_@QtCore{00040703}[2001b2dc].dll  - Undefined Reference
    QFileInfo::QFileInfo(const QString&)      - Undefined Reference
    _ZN9QFileInfoC1ERK7QString@QtCore{00040703}[2001b2dc].dll  - Undefined Reference
    QFileInfo::~QFileInfo()                   - Undefined Reference
    _ZN9QFileInfoD1Ev@QtCore{00040703}[2001b2dc].dll  - Undefined Reference
    QHashData::free_helper(void(*)(QHashData::Node*))  - Undefined Reference
    _ZN9QHashData11free_helperEPFvPNS_4NodeEE@QtCore{00040703}[2001b2dc].dll  - Undefined Reference
    QHashData::shared_null                    - Undefined Reference
    _ZN9QHashData11shared_nullE@QtCore{00040703}[2001b2dc].dll  - Undefined Reference
    QHashData::allocateNode(int)              - Undefined Reference
    _ZN9QHashData12allocateNodeEi@QtCore{00040703}[2001b2dc].dll  - Undefined Reference
    QHashData::detach_helper2(void(*)(QHashData::Node*, void*), void(*)(QHashData::Node*), int, int)  - Undefined Reference
    _ZN9QHashData14detach_helper2EPFvPNS_4NodeEPvEPFvS1_Eii@QtCore{00040703}[2001b2dc].dll  - Undefined Reference
    QHashData::rehash(int)                    - Undefined Reference
    _ZN9QHashData6rehashEi@QtCore{00040703}[2001b2dc].dll  - Undefined Reference
    QHashData::freeNode(void*)                - Undefined Reference
    _ZN9QHashData8freeNodeEPv@QtCore{00040703}[2001b2dc].dll  - Undefined Reference
    QHashData::nextNode(QHashData::Node*)     - Undefined Reference
    _ZN9QHashData8nextNodeEPNS_4NodeE@QtCore{00040703}[2001b2dc].dll  - Undefined Reference
    QIODevice::readAll()                      - Undefined Reference
    _ZN9QIODevice7readAllEv@QtCore{00040703}[2001b2dc].dll  - Undefined Reference
    QListData::detach_grow(int*, int)         - Undefined Reference
    _ZN9QListData11detach_growEPii@QtCore{00040703}[2001b2dc].dll  - Undefined Reference
    QListData::shared_null                    - Undefined Reference
    _ZN9QListData11shared_nullE@QtCore{00040703}[2001b2dc].dll  - Undefined Reference
    QListData::erase(void**)                  - Undefined Reference
    _ZN9QListData5eraseEPPv@QtCore{00040703}[2001b2dc].dll  - Undefined Reference
    QListData::append()                       - Undefined Reference
    _ZN9QListData6appendEv@QtCore{00040703}[2001b2dc].dll  - Undefined Reference
    QListData::detach(int)                    - Undefined Reference
    _ZN9QListData6detachEi@QtCore{00040703}[2001b2dc].dll  - Undefined Reference
    QListData::insert(int)                    - Undefined Reference
    _ZN9QListData6insertEi@QtCore{00040703}[2001b2dc].dll  - Undefined Reference
    QListData::remove(int)                    - Undefined Reference
    _ZN9QListData6removeEi@QtCore{00040703}[2001b2dc].dll  - Undefined Reference
    QListData::append2(const QListData&)      - Undefined Reference
    _ZN9QListData7append2ERKS_@QtCore{00040703}[2001b2dc].dll  - Undefined Reference
    QListData::prepend()                      - Undefined Reference
    _ZN9QListData7prependEv@QtCore{00040703}[2001b2dc].dll  - Undefined Reference
    QListData::realloc(int)                   - Undefined Reference
    _ZN9QListData7reallocEi@QtCore{00040703}[2001b2dc].dll  - Undefined Reference
    QMetaType::registerType(const char*, void(*)(void*), void*(*)(const void*))  - Undefined Reference
    _ZN9QMetaType12registerTypeEPKcPFvPvEPFS2_PKvE@QtCore{00040703}[2001b2dc].dll  - Undefined Reference
    QMetaType::registerTypedef(const char*, int)  - Undefined Reference
    _ZN9QMetaType15registerTypedefEPKci@QtCore{00040703}[2001b2dc].dll  - Undefined Reference
    QtPrivate::QStringList_contains(const QStringList*, const QString&, Qt::CaseSensitivity)  - Undefined Reference
    _ZN9QtPrivate20QStringList_containsEPK11QStringListRK7QStringN2Qt15CaseSensitivityE@QtCore{00040703}[2001b2dc].dll  - Undefined Reference
    TBufBase8::TBufBase8(int)                 - Undefined Reference
    _ZN9TBufBase8C1Ei@euser{000a0000}[100039e5].dll  - Undefined Reference
    TBufBase8::TBufBase8(int, int)            - Undefined Reference
    _ZN9TBufBase8C1Eii@euser{000a0000}[100039e5].dll  - Undefined Reference
    TDataType::TDataType()                    - Undefined Reference
    _ZN9TDataTypeC1Ev@apmime{000a0000}[10003a1a].dll  - Undefined Reference
    TDateTime::SetMicroSecond(int)            - Undefined Reference
    _ZN9TDateTime14SetMicroSecondEi@euser{000a0000}[100039e5].dll  - Undefined Reference
    TDateTime::SetDay(int)                    - Undefined Reference
    _ZN9TDateTime6SetDayEi@euser{000a0000}[100039e5].dll  - Undefined Reference
    TDateTime::SetHour(int)                   - Undefined Reference
    _ZN9TDateTime7SetHourEi@euser{000a0000}[100039e5].dll  - Undefined Reference
    TDateTime::SetYear(int)                   - Undefined Reference
    _ZN9TDateTime7SetYearEi@euser{000a0000}[100039e5].dll  - Undefined Reference
    TDateTime::SetMonth(TMonth)               - Undefined Reference
    _ZN9TDateTime8SetMonthE6TMonth@euser{000a0000}[100039e5].dll  - Undefined Reference
    TDateTime::SetMinute(int)                 - Undefined Reference
    _ZN9TDateTime9SetMinuteEi@euser{000a0000}[100039e5].dll  - Undefined Reference
    TDateTime::SetSecond(int)                 - Undefined Reference
    _ZN9TDateTime9SetSecondEi@euser{000a0000}[100039e5].dll  - Undefined Reference
    TMsvEntry::SetPriority(TMsvPriority)      - Undefined Reference
    _ZN9TMsvEntry11SetPriorityE12TMsvPriority@msgs{000a0000}[10004e66].dll  - Undefined Reference
    TMsvEntry::TMsvEntry(const TMsvEntry&)    - Undefined Reference
    _ZN9TMsvEntryC1ERKS_@msgs{000a0000}[10004e66].dll  - Undefined Reference
    TMsvEntry::TMsvEntry()                    - Undefined Reference
    _ZN9TMsvEntryC1Ev@msgs{000a0000}[10004e66].dll  - Undefined Reference
    TMsvEntry::operator =(const TMsvEntry&)   - Undefined Reference
    _ZN9TMsvEntryaSERKS_@msgs{000a0000}[10004e66].dll  - Undefined Reference
    CBaseMtmUi::BaseMtm() const               - Undefined Reference
    _ZNK10CBaseMtmUi7BaseMtmEv@mtur{000a0000}[10004835].dll  - Undefined Reference
    CSmsNumber::Address() const               - Undefined Reference
    _ZNK10CSmsNumber7AddressEv@smcm{000a0000}[1000483b].dll  - Undefined Reference
    QByteArray::startsWith(char) const        - Undefined Reference
    _ZNK10QByteArray10startsWithEc@QtCore{00040703}[2001b2dc].dll  - Undefined Reference
    QByteArray::lastIndexOf(const char*, int) const  - Undefined Reference
    _ZNK10QByteArray11lastIndexOfEPKci@QtCore{00040703}[2001b2dc].dll  - Undefined Reference
    QByteArray::lastIndexOf(char, int) const  - Undefined Reference
    _ZNK10QByteArray11lastIndexOfEci@QtCore{00040703}[2001b2dc].dll  - Undefined Reference
    QByteArray::mid(int, int) const           - Undefined Reference
    _ZNK10QByteArray3midEii@QtCore{00040703}[2001b2dc].dll  - Undefined Reference
    QByteArray::left(int) const               - Undefined Reference
    _ZNK10QByteArray4leftEi@QtCore{00040703}[2001b2dc].dll  - Undefined Reference
    QByteArray::right(int) const              - Undefined Reference
    _ZNK10QByteArray5rightEi@QtCore{00040703}[2001b2dc].dll  - Undefined Reference
    QByteArray::indexOf(const char*, int) const  - Undefined Reference
    _ZNK10QByteArray7indexOfEPKci@QtCore{00040703}[2001b2dc].dll  - Undefined Reference
    QByteArray::toUpper() const               - Undefined Reference
    _ZNK10QByteArray7toUpperEv@QtCore{00040703}[2001b2dc].dll  - Undefined Reference
    QByteArray::trimmed() const               - Undefined Reference
    _ZNK10QByteArray7trimmedEv@QtCore{00040703}[2001b2dc].dll  - Undefined Reference
    QTextCodec::canEncode(QChar) const        - Undefined Reference
    _ZNK10QTextCodec9canEncodeE5QChar@QtCore{00040703}[2001b2dc].dll  - Undefined Reference
    QTextCodec::toUnicode(const QByteArray&) const  - Undefined Reference
    _ZNK10QTextCodec9toUnicodeERK10QByteArray@QtCore{00040703}[2001b2dc].dll  - Undefined Reference
    RArrayBase::At(int) const                 - Undefined Reference
    _ZNK10RArrayBase2AtEi@euser{000a0000}[100039e5].dll  - Undefined Reference
    RArrayBase::Count() const                 - Undefined Reference
    _ZNK10RArrayBase5CountEv@euser{000a0000}[100039e5].dll  - Undefined Reference
    CSmsSettings::GetServiceCenter(int) const  - Undefined Reference
    _ZNK12CSmsSettings16GetServiceCenterEi@smcm{000a0000}[1000483b].dll  - Undefined Reference
    CSmsSettings::ServiceCenterCount() const  - Undefined Reference
    _ZNK12CSmsSettings18ServiceCenterCountEv@smcm{000a0000}[1000483b].dll  - Undefined Reference
    CSmsSettings::DefaultServiceCenter() const  - Undefined Reference
    _ZNK12CSmsSettings20DefaultServiceCenterEv@smcm{000a0000}[1000483b].dll  - Undefined Reference
    CArrayFixBase::At(int) const              - Undefined Reference
    _ZNK13CArrayFixBase2AtEi@euser{000a0000}[100039e5].dll  - Undefined Reference
    CImMimeHeader::ContentType() const        - Undefined Reference
    _ZNK13CImMimeHeader11ContentTypeEv@imcm{000a0000}[10004839].dll  - Undefined Reference
    CImMimeHeader::MimeCharset() const        - Undefined Reference
    _ZNK13CImMimeHeader11MimeCharsetEv@imcm{000a0000}[10004839].dll  - Undefined Reference
    CImMimeHeader::ContentSubType() const     - Undefined Reference
    _ZNK13CImMimeHeader14ContentSubTypeEv@imcm{000a0000}[10004839].dll  - Undefined Reference
    CImMimeHeader::StoreL(CMsvStore&) const   - Undefined Reference
    _ZNK13CImMimeHeader6StoreLER9CMsvStore@imcm{000a0000}[10004839].dll  - Undefined Reference
    RApaLsSession::RecognizeData(const TDesC16&, const TDesC8&, TDataRecognitionResult&) const  - Undefined Reference
    _ZNK13RApaLsSession13RecognizeDataERK7TDesC16RK6TDesC8R22TDataRecognitionResult@apgrfx{000a0000}[10003a3c].dll  - Undefined Reference
    CMsvAttachment::AttachmentName() const    - Undefined Reference
    _ZNK14CMsvAttachment14AttachmentNameEv@msgs{000a0000}[10004e66].dll  - Undefined Reference
    CMsvAttachment::Id() const                - Undefined Reference
    _ZNK14CMsvAttachment2IdEv@msgs{000a0000}[10004e66].dll  - Undefined Reference
    CMsvAttachment::Size() const              - Undefined Reference
    _ZNK14CMsvAttachment4SizeEv@msgs{000a0000}[10004e66].dll  - Undefined Reference
    CMsvAttachment::FilePath() const          - Undefined Reference
    _ZNK14CMsvAttachment8FilePathEv@msgs{000a0000}[10004e66].dll  - Undefined Reference
    CMsvAttachment::MimeType() const          - Undefined Reference
    _ZNK14CMsvAttachment8MimeTypeEv@msgs{000a0000}[10004e66].dll  - Undefined Reference
    CImEmailMessage::AttachmentManager() const  - Undefined Reference
    _ZNK15CImEmailMessage17AttachmentManagerEv@imcm{000a0000}[10004839].dll  - Undefined Reference
    CImEmailMessage::Selection() const        - Undefined Reference
    _ZNK15CImEmailMessage9SelectionEv@imcm{000a0000}[10004839].dll  - Undefined Reference
    XLeaveException::GetReason() const        - Undefined Reference
    _ZNK15XLeaveException9GetReasonEv@euser{000a0000}[100039e5].dll  - Undefined Reference
    CMsvRecipientList::Type(int) const        - Undefined Reference
    _ZNK17CMsvRecipientList4TypeEi@msgs{000a0000}[10004e66].dll  - Undefined Reference
    CMsvRecipientList::Count() const          - Undefined Reference
    _ZNK17CMsvRecipientList5CountEv@msgs{000a0000}[10004e66].dll  - Undefined Reference
    CMsvRecipientList::operator [](int) const  - Undefined Reference
    _ZNK17CMsvRecipientListixEi@msgs{000a0000}[10004e66].dll  - Undefined Reference
    CSmsServiceCenter::Address() const        - Undefined Reference
    _ZNK17CSmsServiceCenter7AddressEv@smcm{000a0000}[1000483b].dll  - Undefined Reference
    RPointerArrayBase::At(int) const          - Undefined Reference
    _ZNK17RPointerArrayBase2AtEi@euser{000a0000}[100039e5].dll  - Undefined Reference
    RPointerArrayBase::Find(const void*) const  - Undefined Reference
    _ZNK17RPointerArrayBase4FindEPKv@euser{000a0000}[100039e5].dll  - Undefined Reference
    RPointerArrayBase::Count() const          - Undefined Reference
    _ZNK17RPointerArrayBase5CountEv@euser{000a0000}[100039e5].dll  - Undefined Reference
    QThreadStorageData::get() const           - Undefined Reference
    _ZNK18QThreadStorageData3getEv@QtCore{00040703}[2001b2dc].dll  - Undefined Reference
    TUid::operator ==(const TUid&) const      - Undefined Reference
    _ZNK4TUideqERKS_@euser{000a0000}[100039e5].dll  - Undefined Reference
    TUid::operator !=(const TUid&) const      - Undefined Reference
    _ZNK4TUidneERKS_@euser{000a0000}[100039e5].dll  - Undefined Reference
    QDate::day() const                        - Undefined Reference
    _ZNK5QDate3dayEv@QtCore{00040703}[2001b2dc].dll  - Undefined Reference
    QDate::year() const                       - Undefined Reference
    _ZNK5QDate4yearEv@QtCore{00040703}[2001b2dc].dll  - Undefined Reference
    QDate::month() const                      - Undefined Reference
    _ZNK5QDate5monthEv@QtCore{00040703}[2001b2dc].dll  - Undefined Reference
    QFile::size() const                       - Undefined Reference
    _ZNK5QFile4sizeEv@QtCore{00040703}[2001b2dc].dll  - Undefined Reference
    QTime::hour() const                       - Undefined Reference
    _ZNK5QTime4hourEv@QtCore{00040703}[2001b2dc].dll  - Undefined Reference
    QTime::msec() const                       - Undefined Reference
    _ZNK5QTime4msecEv@QtCore{00040703}[2001b2dc].dll  - Undefined Reference
    QTime::minute() const                     - Undefined Reference
    _ZNK5QTime6minuteEv@QtCore{00040703}[2001b2dc].dll  - Undefined Reference
    QTime::second() const                     - Undefined Reference
    _ZNK5QTime6secondEv@QtCore{00040703}[2001b2dc].dll  - Undefined Reference
    RFile::Name(TDes16&) const                - Undefined Reference
    _ZNK5RFile4NameER6TDes16@efsrv{000a0000}[100039e4].dll  - Undefined Reference
    RFile::Read(TDes8&) const                 - Undefined Reference
    _ZNK5RFile4ReadER5TDes8@efsrv{000a0000}[100039e4].dll  - Undefined Reference
    RFile::Read(int, TDes8&, int) const       - Undefined Reference
    _ZNK5RFile4ReadEiR5TDes8i@efsrv{000a0000}[100039e4].dll  - Undefined Reference
    RFile::Size(int&) const                   - Undefined Reference
    _ZNK5RFile4SizeERi@efsrv{000a0000}[100039e4].dll  - Undefined Reference
    TTime::DateTime() const                   - Undefined Reference
    _ZNK5TTime8DateTimeEv@euser{000a0000}[100039e5].dll  - Undefined Reference
    TDesC8::Ptr() const                       - Undefined Reference
    _ZNK6TDesC83PtrEv@euser{000a0000}[100039e5].dll  - Undefined Reference
    TDesC8::Compare(const TDesC8&) const      - Undefined Reference
    _ZNK6TDesC87CompareERKS_@euser{000a0000}[100039e5].dll  - Undefined Reference
    CSmsPDU::ToFromAddress() const            - Undefined Reference
    _ZNK7CSmsPDU13ToFromAddressEv@gsmu{000a0000}[10000849].dll  - Undefined Reference
    CSmsPDU::IndicationState() const          - Undefined Reference
    _ZNK7CSmsPDU15IndicationStateEv@gsmu{000a0000}[10000849].dll  - Undefined Reference
    CSmsPDU::ServiceCenterAddress() const     - Undefined Reference
    _ZNK7CSmsPDU20ServiceCenterAddressEv@gsmu{000a0000}[10000849].dll  - Undefined Reference
    CSmsPDU::Bits7To4() const                 - Undefined Reference
    _ZNK7CSmsPDU8Bits7To4Ev@gsmu{000a0000}[10000849].dll  - Undefined Reference
    QObject::thread() const                   - Undefined Reference
    _ZNK7QObject6threadEv@QtCore{00040703}[2001b2dc].dll  - Undefined Reference
    QRegExp::indexIn(const QString&, int, QRegExp::CaretMode) const  - Undefined Reference
    _ZNK7QRegExp7indexInERK7QStringiNS_9CaretModeE@QtCore{00040703}[2001b2dc].dll  - Undefined Reference
    QString::startsWith(const QString&, Qt::CaseSensitivity) const  - Undefined Reference
    _ZNK7QString10startsWithERKS_N2Qt15CaseSensitivityE@QtCore{00040703}[2001b2dc].dll  - Undefined Reference
    QString::toLocal8Bit() const              - Undefined Reference
    _ZNK7QString11toLocal8BitEv@QtCore{00040703}[2001b2dc].dll  - Undefined Reference
    QString::mid(int, int) const              - Undefined Reference
    _ZNK7QString3midEii@QtCore{00040703}[2001b2dc].dll  - Undefined Reference
    QString::left(int) const                  - Undefined Reference
    _ZNK7QString4leftEi@QtCore{00040703}[2001b2dc].dll  - Undefined Reference
    QString::right(int) const                 - Undefined Reference
    _ZNK7QString5rightEi@QtCore{00040703}[2001b2dc].dll  - Undefined Reference
    QString::utf16() const                    - Undefined Reference
    _ZNK7QString5utf16Ev@QtCore{00040703}[2001b2dc].dll  - Undefined Reference
    QString::toLong(bool*, int) const         - Undefined Reference
    _ZNK7QString6toLongEPbi@QtCore{00040703}[2001b2dc].dll  - Undefined Reference
    QString::toUInt(bool*, int) const         - Undefined Reference
    _ZNK7QString6toUIntEPbi@QtCore{00040703}[2001b2dc].dll  - Undefined Reference
    QString::compare(const QString&, Qt::CaseSensitivity) const  - Undefined Reference
    _ZNK7QString7compareERKS_N2Qt15CaseSensitivityE@QtCore{00040703}[2001b2dc].dll  - Undefined Reference
    QString::indexOf(QChar, int, Qt::CaseSensitivity) const  - Undefined Reference
    _ZNK7QString7indexOfE5QChariN2Qt15CaseSensitivityE@QtCore{00040703}[2001b2dc].dll  - Undefined Reference
    QString::indexOf(const QString&, int, Qt::CaseSensitivity) const  - Undefined Reference
    _ZNK7QString7indexOfERKS_iN2Qt15CaseSensitivityE@QtCore{00040703}[2001b2dc].dll  - Undefined Reference
    QString::toAscii() const                  - Undefined Reference
    _ZNK7QString7toAsciiEv@QtCore{00040703}[2001b2dc].dll  - Undefined Reference
    QString::trimmed() const                  - Undefined Reference
    _ZNK7QString7trimmedEv@QtCore{00040703}[2001b2dc].dll  - Undefined Reference
    QString::toLatin1() const                 - Undefined Reference
    _ZNK7QString8toLatin1Ev@QtCore{00040703}[2001b2dc].dll  - Undefined Reference
    QString::operator ==(const QString&) const  - Undefined Reference
    _ZNK7QStringeqERKS_@QtCore{00040703}[2001b2dc].dll  - Undefined Reference
    QString::operator <(const QString&) const  - Undefined Reference
    _ZNK7QStringltERKS_@QtCore{00040703}[2001b2dc].dll  - Undefined Reference
    TDesC16::AtC(int) const                   - Undefined Reference
    _ZNK7TDesC163AtCEi@euser{000a0000}[100039e5].dll  - Undefined Reference
    TDesC16::Ptr() const                      - Undefined Reference
    _ZNK7TDesC163PtrEv@euser{000a0000}[100039e5].dll  - Undefined Reference
    TDesC16::AllocLC() const                  - Undefined Reference
    _ZNK7TDesC167AllocLCEv@euser{000a0000}[100039e5].dll  - Undefined Reference
    CBaseMtm::AddresseeList() const           - Undefined Reference
    _ZNK8CBaseMtm13AddresseeListEv@msgs{000a0000}[10004e66].dll  - Undefined Reference
    CBaseMtm::Type() const                    - Undefined Reference
    _ZNK8CBaseMtm4TypeEv@msgs{000a0000}[10004e66].dll  - Undefined Reference
    CBaseMtm::Entry() const                   - Undefined Reference
    _ZNK8CBaseMtm5EntryEv@msgs{000a0000}[10004e66].dll  - Undefined Reference
    QVariant::toDateTime() const              - Undefined Reference
    _ZNK8QVariant10toDateTimeEv@QtCore{00040703}[2001b2dc].dll  - Undefined Reference
    QVariant::cmp(const QVariant&) const      - Undefined Reference
    _ZNK8QVariant3cmpERKS_@QtCore{00040703}[2001b2dc].dll  - Undefined Reference
    QVariant::toInt(bool*) const              - Undefined Reference
    _ZNK8QVariant5toIntEPb@QtCore{00040703}[2001b2dc].dll  - Undefined Reference
    QVariant::isNull() const                  - Undefined Reference
    _ZNK8QVariant6isNullEv@QtCore{00040703}[2001b2dc].dll  - Undefined Reference
    QVariant::toString() const                - Undefined Reference
    _ZNK8QVariant8toStringEv@QtCore{00040703}[2001b2dc].dll  - Undefined Reference
    CImHeader::From() const                   - Undefined Reference
    _ZNK9CImHeader4FromEv@imcm{000a0000}[10004839].dll  - Undefined Reference
    CImHeader::StoreL(CMsvStore&) const       - Undefined Reference
    _ZNK9CImHeader6StoreLER9CMsvStore@imcm{000a0000}[10004839].dll  - Undefined Reference
    CImHeader::Subject() const                - Undefined Reference
    _ZNK9CImHeader7SubjectEv@imcm{000a0000}[10004839].dll  - Undefined Reference
    CMsvEntry::ChildrenWithTypeL(TUid) const  - Undefined Reference
    _ZNK9CMsvEntry17ChildrenWithTypeLE4TUid@msgs{000a0000}[10004e66].dll  - Undefined Reference
    CMsvEntry::ChildrenL() const              - Undefined Reference
    _ZNK9CMsvEntry9ChildrenLEv@msgs{000a0000}[10004e66].dll  - Undefined Reference
    CMsvEntry::HasStoreL() const              - Undefined Reference
    _ZNK9CMsvEntry9HasStoreLEv@msgs{000a0000}[10004e66].dll  - Undefined Reference
    CMsvEntry::operator [](int) const         - Undefined Reference
    _ZNK9CMsvEntryixEi@msgs{000a0000}[10004e66].dll  - Undefined Reference
    CMsvStore::HasBodyTextL() const           - Undefined Reference
    _ZNK9CMsvStore12HasBodyTextLEv@msgs{000a0000}[10004e66].dll  - Undefined Reference
    QDateTime::date() const                   - Undefined Reference
    _ZNK9QDateTime4dateEv@QtCore{00040703}[2001b2dc].dll  - Undefined Reference
    QDateTime::time() const                   - Undefined Reference
    _ZNK9QDateTime4timeEv@QtCore{00040703}[2001b2dc].dll  - Undefined Reference
    QDateTime::isNull() const                 - Undefined Reference
    _ZNK9QDateTime6isNullEv@QtCore{00040703}[2001b2dc].dll  - Undefined Reference
    QDateTime::operator ==(const QDateTime&) const  - Undefined Reference
    _ZNK9QDateTimeeqERKS_@QtCore{00040703}[2001b2dc].dll  - Undefined Reference
    QDateTime::operator <(const QDateTime&) const  - Undefined Reference
    _ZNK9QDateTimeltERKS_@QtCore{00040703}[2001b2dc].dll  - Undefined Reference
    QFileInfo::suffix() const                 - Undefined Reference
    _ZNK9QFileInfo6suffixEv@QtCore{00040703}[2001b2dc].dll  - Undefined Reference
    QFileInfo::fileName() const               - Undefined Reference
    _ZNK9QFileInfo8fileNameEv@QtCore{00040703}[2001b2dc].dll  - Undefined Reference
    QFileInfo::filePath() const               - Undefined Reference
    _ZNK9QFileInfo8filePathEv@QtCore{00040703}[2001b2dc].dll  - Undefined Reference
    TDataType::Des8() const                   - Undefined Reference
    _ZNK9TDataType4Des8Ev@apmime{000a0000}[10003a1a].dll  - Undefined Reference
    TMsvEntry::Priority() const               - Undefined Reference
    _ZNK9TMsvEntry8PriorityEv@msgs{000a0000}[10004e66].dll  - Undefined Reference
    typeinfo for XLeaveException              - Undefined Reference
    _ZTI15XLeaveException@drtaeabi{000a0000}.dll  - Undefined Reference
    typeinfo for CActive                      - Undefined Reference
    _ZTI7CActive@euser{000a0000}[100039e5].dll  - Undefined Reference
    typeinfo for QObject                      - Undefined Reference
    _ZTI7QObject@QtCore{00040703}[2001b2dc].dll  - Undefined Reference
    typeinfo for std::bad_alloc               - Undefined Reference
    _ZTISt9bad_alloc@stdnew{000a0000}[20022178].dll  - Undefined Reference
    typeinfo for std::exception               - Undefined Reference
    _ZTISt9exception@stdnew{000a0000}[20022178].dll  - Undefined Reference
    vtable for __cxxabiv1::__class_type_info  - Undefined Reference
    _ZTVN10__cxxabiv117__class_type_infoE@drtaeabi{000a0000}.dll  - Undefined Reference
    vtable for __cxxabiv1::__si_class_type_info  - Undefined Reference
    _ZTVN10__cxxabiv120__si_class_type_infoE@drtaeabi{000a0000}.dll  - Undefined Reference
    vtable for __cxxabiv1::__vmi_class_type_info  - Undefined Reference
    _ZTVN10__cxxabiv121__vmi_class_type_infoE@drtaeabi{000a0000}.dll  - Undefined Reference
    operator delete (void*)                   - Undefined Reference
    _ZdlPv@stdnew{000a0000}[20022178].dll     - Undefined Reference
    operator new(unsigned)                    - Undefined Reference
    _Znwj@stdnew{000a0000}[20022178].dll      - Undefined Reference
    __aeabi_idivmod                           - Undefined Reference
    __aeabi_idivmod@drtaeabi{000a0000}.dll    - Undefined Reference
    __aeabi_memcpy4                           - Undefined Reference
    __aeabi_memcpy4@drtaeabi{000a0000}.dll    - Undefined Reference
    __aeabi_uidivmod                          - Undefined Reference
    __aeabi_uidivmod@drtaeabi{000a0000}.dll   - Undefined Reference
    __aeabi_unwind_cpp_pr0                    - Undefined Reference
    __aeabi_unwind_cpp_pr0@drtaeabi{000a0000}.dll  - Undefined Reference
    __aeabi_unwind_cpp_pr1                    - Undefined Reference
    __aeabi_unwind_cpp_pr1@drtaeabi{000a0000}.dll  - Undefined Reference
    __cxa_begin_catch                         - Undefined Reference
    __cxa_begin_catch@drtaeabi{000a0000}.dll  - Undefined Reference
    __cxa_call_unexpected                     - Undefined Reference
    __cxa_call_unexpected@drtaeabi{000a0000}.dll  - Undefined Reference
    __cxa_end_catch                           - Undefined Reference
    __cxa_end_catch@drtaeabi{000a0000}.dll    - Undefined Reference
    __cxa_end_cleanup                         - Undefined Reference
    __cxa_end_cleanup@drtaeabi{000a0000}.dll  - Undefined Reference
    __cxa_guard_abort                         - Undefined Reference
    __cxa_guard_abort@drtaeabi{000a0000}.dll  - Undefined Reference
    __cxa_guard_acquire                       - Undefined Reference
    __cxa_guard_acquire@drtaeabi{000a0000}.dll  - Undefined Reference
    __cxa_guard_release                       - Undefined Reference
    __cxa_guard_release@drtaeabi{000a0000}.dll  - Undefined Reference
    __cxa_pure_virtual                        - Undefined Reference
    __cxa_pure_virtual@drtaeabi{000a0000}.dll  - Undefined Reference
    __cxa_rethrow                             - Undefined Reference
    __cxa_rethrow@drtaeabi{000a0000}.dll      - Undefined Reference
    memcmp                                    - Undefined Reference
    memcmp@libc{00010001}[10207369].dll       - Undefined Reference
    strcmp                                    - Undefined Reference
    strcmp@libc{00010001}[10207369].dll       - Undefined Reference
    Image$$ER_RO$$Base                       0x00008000   Number         0  anon$$obj.o(linker$$defined$$symbols)
    _E32Dll                                  0x00008000   ARM Code      40  uc_dll_.o(.emb_text)
    Symbian$$CPP$$Exception$$Descriptor      0x00008014   Data           0  uc_dll_.o(.emb_text)
    __cpp_initialize__aeabi_                 0x00008028   ARM Code      52  ucppinit.o(.emb_text)
    std::nothrow                             0x0000805c   ARM Code       0  ucppinit.o(.emb_text)
    __PLT                                    0x0000805c   ARM Code       0  anon$$obj.o(.plt)
    QtMobility::QMessageId::operator !=(const QtMobility::QMessageId&) const 0x00008c85   Thumb Code    20  qmessageid.o(.text)
    QtMobility::QMessageContentContainerId::operator !=(const QtMobility::QMessageContentContainerId&) const 0x00008cad   Thumb Code    20  qmessagecontentcontainerid.o(.text)
    QtMobility::QMessageFolderId::operator !=(const QtMobility::QMessageFolderId&) const 0x00008cc1   Thumb Code    20  qmessagefolderid.o(.text)
    QtMobility::QMessageAccountId::operator !=(const QtMobility::QMessageAccountId&) const 0x00008cd5   Thumb Code    20  qmessageaccountid.o(.text)
    QtMobility::qParseMailbox(QString&, QString&, QString&, QString&, bool&, bool&) 0x00008de9   Thumb Code   408  addresshelper.o(.text)
    QtMobility::QMessageAddress::QMessageAddress() 0x00008f89   Thumb Code    44  qmessageaddress.o(.text)
    QtMobility::QMessageAddress::QMessageAddress__sub_object() 0x00008f89   Thumb Code     0  qmessageaddress.o(.text)
    QtMobility::QMessageAddress::QMessageAddress(QtMobility::QMessageAddress::Type, const QString&) 0x00008fb5   Thumb Code    64  qmessageaddress.o(.text)
    QtMobility::QMessageAddress::QMessageAddress__sub_object(QtMobility::QMessageAddress::Type, const QString&) 0x00008fb5   Thumb Code     0  qmessageaddress.o(.text)
    QtMobility::QMessageAddress::operator =(const QtMobility::QMessageAddress&) 0x00008ff5   Thumb Code    38  qmessageaddress.o(.text)
    QtMobility::QMessageAddress::QMessageAddress(const QtMobility::QMessageAddress&) 0x0000901b   Thumb Code    52  qmessageaddress.o(.text)
    QtMobility::QMessageAddress::QMessageAddress__sub_object(const QtMobility::QMessageAddress&) 0x0000901b   Thumb Code     0  qmessageaddress.o(.text)
    QtMobility::QMessageAddress::~QMessageAddress() 0x0000904f   Thumb Code    42  qmessageaddress.o(.text)
    QtMobility::QMessageAddress::~QMessageAddress__sub_object() 0x0000904f   Thumb Code     0  qmessageaddress.o(.text)
    QtMobility::QMessageAddress::~QMessageAddress__deallocating() 0x00009079   Thumb Code    22  qmessageaddress.o(.text)
    QtMobility::QMessageAddress::operator ==(const QtMobility::QMessageAddress&) const 0x0000908f   Thumb Code    46  qmessageaddress.o(.text)
    QtMobility::QMessageAddress::operator !=(const QtMobility::QMessageAddress&) const 0x000090bd   Thumb Code    20  qmessageaddress.o(.text)
    QtMobility::QMessageAddress::type() const 0x000090d1   Thumb Code     8  qmessageaddress.o(.text)
    QtMobility::QMessageAddress::setType(QtMobility::QMessageAddress::Type) 0x000090d9   Thumb Code     6  qmessageaddress.o(.text)
    QtMobility::QMessageAddress::addressee() const 0x000090df   Thumb Code    22  qmessageaddress.o(.text)
    QtMobility::QMessageAddress::setAddressee(const QString&) 0x000090f5   Thumb Code    20  qmessageaddress.o(.text)
    QtMobility::QMessageAddress::parseEmailAddress(const QString&, QString*, QString*, QString*, bool*, bool*) 0x00009109   Thumb Code   130  qmessageaddress.o(.text)
    QtMobility::QMessage::setPreferredCharsets(const QList<QByteArray>&) 0x00009191   Thumb Code    70  qmessage.o(.text)
    QtMobility::QMessage::preferredCharsets() 0x000091d7   Thumb Code    16  qmessage.o(.text)
    QtMobility::QMessage::preferredCharsetFor(const QString&) 0x000091e7   Thumb Code   686  qmessage.o(.text)
    QtMobility::QMessageAccountFilter::operator !=(const QtMobility::QMessageAccountFilter&) const 0x000094e5   Thumb Code    20  qmessageaccountfilter.o(.text)
    QtMobility::QMessageAccountSortOrder::operator !=(const QtMobility::QMessageAccountSortOrder&) const 0x000094f9   Thumb Code    20  qmessageaccountsortorder.o(.text)
    QtMobility::QMessageFolderFilter::operator !=(const QtMobility::QMessageFolderFilter&) const 0x0000950d   Thumb Code    20  qmessagefolderfilter.o(.text)
    QtMobility::QMessageFolderSortOrder::operator !=(const QtMobility::QMessageFolderSortOrder&) const 0x00009521   Thumb Code    20  qmessagefoldersortorder.o(.text)
    QtMobility::QMessageFilter::operator !=(const QtMobility::QMessageFilter&) const 0x00009535   Thumb Code    20  qmessagefilter.o(.text)
    QtMobility::QMessageManager::getStaticMetaObject() 0x00009549   Thumb Code     4  qmessagemanager.o(.text)
    QtMobility::QMessageManager::metaObject() const 0x0000954d   Thumb Code    28  qmessagemanager.o(.text)
    QtMobility::QMessageManager::qt_metacast(const char*) 0x00009569   Thumb Code    40  qmessagemanager.o(.text)
    QtMobility::QMessageManager::messageUpdated(const QtMobility::QMessageId&, const QSet<int>&) 0x00009591   Thumb Code    36  qmessagemanager.o(.text)
    QtMobility::QMessageManager::messageRemoved(const QtMobility::QMessageId&, const QSet<int>&) 0x000095b5   Thumb Code    36  qmessagemanager.o(.text)
    QtMobility::QMessageManager::messageAdded(const QtMobility::QMessageId&, const QSet<int>&) 0x000095d9   Thumb Code    34  qmessagemanager.o(.text)
    QtMobility::QMessageManager::qt_metacall(QMetaObject::Call, int, void**) 0x000095fb   Thumb Code    96  qmessagemanager.o(.text)
    QtMobility::QMessageManager::QMessageManager(QObject*) 0x0000965b   Thumb Code    82  qmessagemanager.o(.text)
    QtMobility::QMessageManager::QMessageManager__sub_object(QObject*) 0x0000965b   Thumb Code     0  qmessagemanager.o(.text)
    QtMobility::QMessageManager::~QMessageManager() 0x000096ad   Thumb Code    14  qmessagemanager.o(.text)
    QtMobility::QMessageManager::~QMessageManager__sub_object() 0x000096ad   Thumb Code     0  qmessagemanager.o(.text)
    QtMobility::QMessageManager::~QMessageManager__deallocating() 0x000096bb   Thumb Code    22  qmessagemanager.o(.text)
    QtMobility::QMessageManager::error() const 0x000096d1   Thumb Code    12  qmessagemanager.o(.text)
    QtMobility::QMessageManager::queryMessages(const QtMobility::QMessageFilter&, const QtMobility::QMessageSortOrder&, unsigned, unsigned) const 0x000096dd   Thumb Code    34  qmessagemanager.o(.text)
    QtMobility::QMessageManager::queryMessages(const QtMobility::QMessageFilter&, const QList<QtMobility::QMessageSortOrder>&, unsigned, unsigned) const 0x000096ff   Thumb Code   156  qmessagemanager.o(.text)
    QtMobility::QMessageManager::queryMessages(const QtMobility::QMessageFilter&, const QString&, QFlags<QtMobility::QMessageDataComparator::MatchFlag>, const QtMobility::QMessageSortOrder&, unsigned, unsigned) const 0x0000979b   Thumb Code    44  qmessagemanager.o(.text)
    QtMobility::QMessageManager::queryMessages(const QtMobility::QMessageFilter&, const QString&, QFlags<QtMobility::QMessageDataComparator::MatchFlag>, const QList<QtMobility::QMessageSortOrder>&, unsigned, unsigned) const 0x000097c7   Thumb Code   172  qmessagemanager.o(.text)
    QtMobility::QMessageManager::queryFolders(const QtMobility::QMessageFolderFilter&, const QtMobility::QMessageFolderSortOrder&, unsigned, unsigned) const 0x00009873   Thumb Code    34  qmessagemanager.o(.text)
    QtMobility::QMessageManager::queryFolders(const QtMobility::QMessageFolderFilter&, const QList<QtMobility::QMessageFolderSortOrder>&, unsigned, unsigned) const 0x00009895   Thumb Code   336  qmessagemanager.o(.text)
    QtMobility::QMessageManager::queryAccounts(const QtMobility::QMessageAccountFilter&, const QtMobility::QMessageAccountSortOrder&, unsigned, unsigned) const 0x000099e5   Thumb Code    34  qmessagemanager.o(.text)
    QtMobility::QMessageManager::queryAccounts(const QtMobility::QMessageAccountFilter&, const QList<QtMobility::QMessageAccountSortOrder>&, unsigned, unsigned) const 0x00009a07   Thumb Code   100  qmessagemanager.o(.text)
    QtMobility::QMessageManager::countMessages(const QtMobility::QMessageFilter&) const 0x00009a6b   Thumb Code    16  qmessagemanager.o(.text)
    QtMobility::QMessageManager::countFolders(const QtMobility::QMessageFolderFilter&) const 0x00009a7b   Thumb Code    16  qmessagemanager.o(.text)
    QtMobility::QMessageManager::countAccounts(const QtMobility::QMessageAccountFilter&) const 0x00009a8b   Thumb Code    16  qmessagemanager.o(.text)
    QtMobility::QMessageManager::addMessage(QtMobility::QMessage*) 0x00009a9b   Thumb Code    16  qmessagemanager.o(.text)
    QtMobility::QMessageManager::updateMessage(QtMobility::QMessage*) 0x00009aab   Thumb Code    16  qmessagemanager.o(.text)
    QtMobility::QMessageManager::removeMessage(const QtMobility::QMessageId&, QtMobility::QMessageManager::RemovalOption) 0x00009abb   Thumb Code    20  qmessagemanager.o(.text)
    QtMobility::QMessageManager::removeMessages(const QtMobility::QMessageFilter&, QtMobility::QMessageManager::RemovalOption) 0x00009acf   Thumb Code    20  qmessagemanager.o(.text)
    QtMobility::QMessageManager::message(const QtMobility::QMessageId&) const 0x00009ae3   Thumb Code    20  qmessagemanager.o(.text)
    QtMobility::QMessageManager::folder(const QtMobility::QMessageFolderId&) const 0x00009af7   Thumb Code    20  qmessagemanager.o(.text)
    QtMobility::QMessageManager::account(const QtMobility::QMessageAccountId&) const 0x00009b0b   Thumb Code    20  qmessagemanager.o(.text)
    QtMobility::QMessageManager::registerNotificationFilter(const QtMobility::QMessageFilter&) 0x00009b1f   Thumb Code    16  qmessagemanager.o(.text)
    QtMobility::QMessageManager::unregisterNotificationFilter(int) 0x00009b2f   Thumb Code    16  qmessagemanager.o(.text)
    QtMobility::QMessageSortOrder::operator !=(const QtMobility::QMessageSortOrder&) const 0x00009b65   Thumb Code    20  qmessagesortorder.o(.text)
    QtMobility::QMessageStore::getStaticMetaObject() 0x00009b79   Thumb Code     4  qmessagestore.o(.text)
    QtMobility::QMessageStore::metaObject() const 0x00009b7d   Thumb Code    28  qmessagestore.o(.text)
    QtMobility::QMessageStore::qt_metacast(const char*) 0x00009b99   Thumb Code    40  qmessagestore.o(.text)
    QtMobility::QMessageStore::messageUpdated(const QtMobility::QMessageId&, const QSet<int>&) 0x00009bc1   Thumb Code    36  qmessagestore.o(.text)
    QtMobility::QMessageStore::messageRemoved(const QtMobility::QMessageId&, const QSet<int>&) 0x00009be5   Thumb Code    36  qmessagestore.o(.text)
    QtMobility::QMessageStore::messageAdded(const QtMobility::QMessageId&, const QSet<int>&) 0x00009c09   Thumb Code    34  qmessagestore.o(.text)
    QtMobility::QMessageStore::qt_metacall(QMetaObject::Call, int, void**) 0x00009c2b   Thumb Code    96  qmessagestore.o(.text)
    QtMobility::QMessageService::getStaticMetaObject() 0x00009c95   Thumb Code     4  qmessageservice.o(.text)
    QtMobility::QMessageService::metaObject() const 0x00009c99   Thumb Code    28  qmessageservice.o(.text)
    QtMobility::QMessageService::qt_metacast(const char*) 0x00009cb5   Thumb Code    40  qmessageservice.o(.text)
    QtMobility::QMessageService::progressChanged(unsigned, unsigned) 0x00009cdd   Thumb Code    40  qmessageservice.o(.text)
    QtMobility::QMessageService::messagesCounted(int) 0x00009d05   Thumb Code    32  qmessageservice.o(.text)
    QtMobility::QMessageService::messagesFound(const QList<QtMobility::QMessageId>&) 0x00009d25   Thumb Code    30  qmessageservice.o(.text)
    QtMobility::QMessageService::stateChanged(QtMobility::QMessageService::State) 0x00009d43   Thumb Code    30  qmessageservice.o(.text)
    QtMobility::QMessageService::qt_metacall(QMetaObject::Call, int, void**) 0x00009d61   Thumb Code   118  qmessageservice.o(.text)
    QtMobility::SymbianHelpers::idType(const QString&) 0x00009de1   Thumb Code    86  messagingutil.o(.text)
    QtMobility::SymbianHelpers::idType(const QtMobility::QMessageId&) 0x00009e37   Thumb Code   118  messagingutil.o(.text)
    QtMobility::SymbianHelpers::idType(const QtMobility::QMessageAccountId&) 0x00009ead   Thumb Code   118  messagingutil.o(.text)
    QtMobility::SymbianHelpers::idType(const QtMobility::QMessageFolderId&) 0x00009f23   Thumb Code   118  messagingutil.o(.text)
    QtMobility::SymbianHelpers::addIdPrefix(const QString&, const QtMobility::SymbianHelpers::EngineType&) 0x00009f99   Thumb Code   102  messagingutil.o(.text)
    QtMobility::SymbianHelpers::addIdPrefix(const QtMobility::QMessageAccountId&, const QtMobility::SymbianHelpers::EngineType&) 0x00009fff   Thumb Code   162  messagingutil.o(.text)
    QtMobility::SymbianHelpers::addIdPrefix(const QtMobility::QMessageFolderId&, const QtMobility::SymbianHelpers::EngineType&) 0x0000a0a1   Thumb Code   162  messagingutil.o(.text)
    QtMobility::SymbianHelpers::addIdPrefix(const QtMobility::QMessageId&, const QtMobility::SymbianHelpers::EngineType&) 0x0000a143   Thumb Code   134  messagingutil.o(.text)
    QtMobility::SymbianHelpers::stripIdPrefix(const QString&) 0x0000a1c9   Thumb Code   180  messagingutil.o(.text)
    QtMobility::SymbianHelpers::stripIdPrefix(const QtMobility::QMessageId&) 0x0000a27d   Thumb Code   288  messagingutil.o(.text)
    QtMobility::SymbianHelpers::stripIdPrefix(const QtMobility::QMessageAccountId&) 0x0000a39d   Thumb Code   288  messagingutil.o(.text)
    QtMobility::SymbianHelpers::stripIdPrefix(const QtMobility::QMessageFolderId&) 0x0000a4bd   Thumb Code   294  messagingutil.o(.text)
    QtMobility::MessagingUtil::idPrefix()    0x0000a5e3   Thumb Code    66  messagingutil.o(.text)
    QtMobility::MessagingUtil::addIdPrefix(const QString&) 0x0000a625   Thumb Code    80  messagingutil.o(.text)
    QtMobility::MessagingUtil::stripIdPrefix(const QString&) 0x0000a675   Thumb Code    98  messagingutil.o(.text)
    QtMobility::CMTMEngine::getStaticMetaObject() 0x0000a709   Thumb Code     4  qmtmengine_symbian.o(.text)
    QtMobility::CMTMEngine::metaObject() const 0x0000a70d   Thumb Code    28  qmtmengine_symbian.o(.text)
    QtMobility::CMTMEngine::qt_metacast(const char*) 0x0000a729   Thumb Code    76  qmtmengine_symbian.o(.text)
    QtMobility::CMTMEngine::cleanupMTMBackend() 0x0000a775   Thumb Code   354  qmtmengine_symbian.o(.text)
    QtMobility::CMTMEngine::qt_metacall(QMetaObject::Call, int, void**) 0x0000a8d7   Thumb Code    58  qmtmengine_symbian.o(.text)
    QtMobility::CMTMEngine::updateEmailAccountsL() const 0x0000a911   Thumb Code     2  qmtmengine_symbian.o(.text)
    QtMobility::CMTMEngine::mtmServiceEntryIdL(QtMobility::CMTMEngine::MTMType) const 0x0000a913   Thumb Code   226  qmtmengine_symbian.o(.text)
    QtMobility::CMTMEngine::CMTMEngine()     0x0000a9f5   Thumb Code  1500  qmtmengine_symbian.o(.text)
    QtMobility::CMTMEngine::CMTMEngine__sub_object() 0x0000a9f5   Thumb Code     0  qmtmengine_symbian.o(.text)
    QtMobility::CMTMEngine::instance()       0x0000b07d   Thumb Code     8  qmtmengine_symbian.o(.text)
    QtMobility::CMTMEngine::~CMTMEngine()    0x0000b085   Thumb Code   236  qmtmengine_symbian.o(.text)
    QtMobility::CMTMEngine::~CMTMEngine__sub_object() 0x0000b085   Thumb Code     0  qmtmengine_symbian.o(.text)
    QtMobility::CMTMEngine::~CMTMEngine__deallocating() 0x0000b171   Thumb Code    22  qmtmengine_symbian.o(.text)
    thunk{-8} to QtMobility::CMTMEngine::~CMTMEngine__deallocating() 0x0000b187   Thumb Code    14  qmtmengine_symbian.o(.text)
    thunk{-8} to QtMobility::CMTMEngine::~CMTMEngine() 0x0000b195   Thumb Code    14  qmtmengine_symbian.o(.text)
    QtMobility::CMTMEngine::applyOffsetAndLimitToAccountIds(QList<QtMobility::QMessageAccountId>&, int, int) const 0x0000b1a3   Thumb Code   162  qmtmengine_symbian.o(.text)
    QtMobility::CMTMEngine::account(const QtMobility::QMessageAccountId&) const 0x0000b245   Thumb Code   258  qmtmengine_symbian.o(.text)
    QtMobility::CMTMEngine::accountLessThan(QtMobility::QMessageAccountId, QtMobility::QMessageAccountId) 0x0000b347   Thumb Code    86  qmtmengine_symbian.o(.text)
    QtMobility::CMTMEngine::orderAccounts(QList<QtMobility::QMessageAccountId>&, const QtMobility::QMessageAccountSortOrder&) const 0x0000b39d   Thumb Code   120  qmtmengine_symbian.o(.text)
    QtMobility::CMTMEngine::queryAccounts(const QtMobility::QMessageAccountFilter&, const QtMobility::QMessageAccountSortOrder&, unsigned, unsigned) const 0x0000b415   Thumb Code   564  qmtmengine_symbian.o(.text)
    QtMobility::CMTMEngine::countAccounts(const QtMobility::QMessageAccountFilter&) const 0x0000b649   Thumb Code    60  qmtmengine_symbian.o(.text)
    QtMobility::CMTMEngine::defaultAccount(QtMobility::QMessage::Type) const 0x0000b685   Thumb Code   268  qmtmengine_symbian.o(.text)
    QtMobility::CMTMEngine::applyOffsetAndLimitToMsgFolderIds(QList<QtMobility::QMessageFolderId>&, int, int) const 0x0000b791   Thumb Code   122  qmtmengine_symbian.o(.text)
    QtMobility::CMTMEngine::releaseCMsvEntryAndPopFromCleanupStack(CMsvEntry*) const 0x0000b80b   Thumb Code    80  qmtmengine_symbian.o(.text)
    QtMobility::CMTMEngine::accountIdByServiceId(long) const 0x0000b85b   Thumb Code   224  qmtmengine_symbian.o(.text)
    QtMobility::CMTMEngine::cmsvEntryCleanup(void*) 0x0000b93b   Thumb Code    76  qmtmengine_symbian.o(.text)
    QtMobility::CMTMEngine::retrieveCMsvEntryAndPushToCleanupStack(long) const 0x0000b987   Thumb Code   402  qmtmengine_symbian.o(.text)
    QtMobility::CMTMEngine::serviceEntryIdFromQMessageFolderId(const QtMobility::QMessageFolderId&) const 0x0000bb19   Thumb Code    68  qmtmengine_symbian.o(.text)
    QtMobility::CMTMEngine::folderIdFromQMessageFolderId(const QtMobility::QMessageFolderId&) const 0x0000bb5d   Thumb Code    68  qmtmengine_symbian.o(.text)
    QtMobility::CMTMEngine::folderL(const QtMobility::QMessageFolderId&) const 0x0000bba1   Thumb Code   210  qmtmengine_symbian.o(.text)
    QtMobility::CMTMEngine::folder(const QtMobility::QMessageFolderId&) const 0x0000bc73   Thumb Code   130  qmtmengine_symbian.o(.text)
    QtMobility::CMTMEngine::folderLessThan(QtMobility::QMessageFolderId, QtMobility::QMessageFolderId) 0x0000bcf5   Thumb Code    68  qmtmengine_symbian.o(.text)
    QtMobility::CMTMEngine::orderFolders(QList<QtMobility::QMessageFolderId>&, const QtMobility::QMessageFolderSortOrder&) const 0x0000bd39   Thumb Code   120  qmtmengine_symbian.o(.text)
    QtMobility::CMTMEngine::createQMessageFolderId(const long&, const long&) const 0x0000bdb1   Thumb Code   206  qmtmengine_symbian.o(.text)
    QtMobility::CMTMEngine::folderIdsByServiceEntryId(const long&, const long&) const 0x0000be7f   Thumb Code   638  qmtmengine_symbian.o(.text)
    QtMobility::CMTMEngine::folderIdsByAccountId(const QtMobility::QMessageAccountId&) const 0x0000c0fd   Thumb Code    86  qmtmengine_symbian.o(.text)
    QtMobility::CMTMEngine::allFolders() const 0x0000c153   Thumb Code   226  qmtmengine_symbian.o(.text)
    QtMobility::CMTMEngine::filterMessageFoldersL(const QtMobility::QMessageFolderFilter&, bool&) const 0x0000c235   Thumb Code  1706  qmtmengine_symbian.o(.text)
    QtMobility::CMTMEngine::filterMessageFolders(const QtMobility::QMessageFolderFilter&, bool&) const 0x0000c8df   Thumb Code   100  qmtmengine_symbian.o(.text)
    QtMobility::CMTMEngine::handleNestedFiltersFromFolderFilter(QtMobility::QMessageFolderFilter&) const 0x0000c943   Thumb Code  1236  qmtmengine_symbian.o(.text)
    QtMobility::CMTMEngine::queryFolders(const QtMobility::QMessageFolderFilter&, const QtMobility::QMessageFolderSortOrder&, unsigned, unsigned) const 0x0000ce17   Thumb Code   468  qmtmengine_symbian.o(.text)
    QtMobility::CMTMEngine::countFolders(const QtMobility::QMessageFolderFilter&) const 0x0000cfeb   Thumb Code    60  qmtmengine_symbian.o(.text)
    QtMobility::QMTMWait::~QMTMWait()        0x0000d027   Thumb Code    36  qmtmengine_symbian.o(.text)
    QtMobility::QMTMWait::~QMTMWait__sub_object() 0x0000d027   Thumb Code     0  qmtmengine_symbian.o(.text)
    QtMobility::QMTMWait::start()            0x0000d04b   Thumb Code    32  qmtmengine_symbian.o(.text)
    QtMobility::CMTMEngine::qDateTimeToSymbianTTime(const QDateTime&) const 0x0000d06b   Thumb Code   224  qmtmengine_symbian.o(.text)
    QtMobility::CMTMEngine::privateFolderPath() 0x0000d14b   Thumb Code   102  qmtmengine_symbian.o(.text)
    QtMobility::QMTMWait::QMTMWait(int)      0x0000d1b1   Thumb Code    44  qmtmengine_symbian.o(.text)
    QtMobility::QMTMWait::QMTMWait__sub_object(int) 0x0000d1b1   Thumb Code     0  qmtmengine_symbian.o(.text)
    QtMobility::CMTMEngine::standardFolderId(QtMobility::QMessage::StandardFolder) 0x0000d1dd   Thumb Code    50  qmtmengine_symbian.o(.text)
    QtMobility::CMTMEngine::storeEmailL(QtMobility::QMessage&) 0x0000d20f   Thumb Code  3110  qmtmengine_symbian.o(.text)
    QtMobility::CMTMEngine::storeEmail(QtMobility::QMessage&) 0x0000de35   Thumb Code    86  qmtmengine_symbian.o(.text)
    QtMobility::CMTMEngine::storeMMSL(QtMobility::QMessage&) 0x0000de8b   Thumb Code  2996  qmtmengine_symbian.o(.text)
    QtMobility::CMTMEngine::storeMMS(QtMobility::QMessage&) 0x0000ea3f   Thumb Code    86  qmtmengine_symbian.o(.text)
    QtMobility::CMTMEngine::storeSMSL(QtMobility::QMessage&) 0x0000ea95   Thumb Code   866  qmtmengine_symbian.o(.text)
    QtMobility::CMTMEngine::storeSMS(QtMobility::QMessage&) 0x0000edf7   Thumb Code    86  qmtmengine_symbian.o(.text)
    QtMobility::CMTMEngine::addMessage(QtMobility::QMessage*) 0x0000ee4d   Thumb Code   346  qmtmengine_symbian.o(.text)
    QtMobility::CMTMEngine::updateEmailL(QtMobility::QMessage&) 0x0000efa7   Thumb Code  2848  qmtmengine_symbian.o(.text)
    QtMobility::CMTMEngine::updateMMSL(QtMobility::QMessage&) 0x0000fac7   Thumb Code  2974  qmtmengine_symbian.o(.text)
    QtMobility::CMTMEngine::updateSMSL(QtMobility::QMessage&) 0x00010665   Thumb Code   932  qmtmengine_symbian.o(.text)
    QtMobility::CMTMEngine::updateMessage(QtMobility::QMessage*) 0x00010a09   Thumb Code   444  qmtmengine_symbian.o(.text)
    QtMobility::CMTMEngine::removeMessageL(const QtMobility::QMessageId&, QtMobility::QMessageManager::RemovalOption) 0x00010bc5   Thumb Code   600  qmtmengine_symbian.o(.text)
    QtMobility::CMTMEngine::removeMessage(const QtMobility::QMessageId&, QtMobility::QMessageManager::RemovalOption) 0x00010e1d   Thumb Code   108  qmtmengine_symbian.o(.text)
    QtMobility::CMTMEngine::removeMessages(const QtMobility::QMessageFilter&, QtMobility::QMessageManager::RemovalOption) 0x00010e89   Thumb Code     6  qmtmengine_symbian.o(.text)
    QtMobility::CMessagesFindOperation::getServiceSpecificMessagesFromFolderL(long, TMsvSelectionOrdering, long) 0x00010e8f   Thumb Code   444  qmtmengine_symbian.o(.text)
    QtMobility::CMessagesFindOperation::getServiceSpecificMessagesL(long, TMsvSelectionOrdering, QtMobility::QMessageFilterPrivate*) 0x0001104b   Thumb Code   496  qmtmengine_symbian.o(.text)
    QtMobility::CMessagesFindOperation::getAccountSpecificMessagesL(QtMobility::QMessageAccount&, TMsvSelectionOrdering, QtMobility::QMessageFilterPrivate*) 0x0001123b   Thumb Code   190  qmtmengine_symbian.o(.text)
    QtMobility::CMessagesFindOperation::getAllMessagesL(TMsvSelectionOrdering) 0x000112f9   Thumb Code   150  qmtmengine_symbian.o(.text)
    QtMobility::CMTMEngine::accountsByType(QtMobility::QMessage::Type) const 0x0001138f   Thumb Code   186  qmtmengine_symbian.o(.text)
    QtMobility::CMessagesFindOperation::filterAndOrderMessages(const QList<QtMobility::QMessageFilter>&, const QtMobility::QMessageSortOrder&, QString, QFlags<QtMobility::QMessageDataComparator::MatchFlag>) 0x00011449   Thumb Code  5350  qmtmengine_symbian.o(.text)
    QtMobility::CMessagesFindOperation::filterAndOrderMessages(const QtMobility::QMessageFilter&, const QtMobility::QMessageSortOrder&, QString, QFlags<QtMobility::QMessageDataComparator::MatchFlag>) 0x0001292f   Thumb Code    72  qmtmengine_symbian.o(.text)
    QtMobility::CMTMEngine::handleNestedFiltersFromMessageFilter(QtMobility::QMessageFilter&) const 0x00012977   Thumb Code  2242  qmtmengine_symbian.o(.text)
    QtMobility::CMessagesFindOperation::CMessagesFindOperation(QtMobility::CMTMEngine&, CMsvSession*, int) 0x00013239   Thumb Code   112  qmtmengine_symbian.o(.text)
    QtMobility::CMessagesFindOperation::CMessagesFindOperation__sub_object(QtMobility::CMTMEngine&, CMsvSession*, int) 0x00013239   Thumb Code     0  qmtmengine_symbian.o(.text)
    QtMobility::CMTMEngine::queryMessagesL(QtMobility::QMessageServicePrivate&, const QtMobility::QMessageFilter&, const QtMobility::QMessageSortOrder&, unsigned, unsigned) const 0x000132a9   Thumb Code   438  qmtmengine_symbian.o(.text)
    QtMobility::CMTMEngine::queryMessages(QtMobility::QMessageServicePrivate&, const QtMobility::QMessageFilter&, const QtMobility::QMessageSortOrder&, unsigned, unsigned) const 0x0001345f   Thumb Code    86  qmtmengine_symbian.o(.text)
    QtMobility::CMTMEngine::queryMessagesL(QtMobility::QMessageServicePrivate&, const QtMobility::QMessageFilter&, const QString&, QFlags<QtMobility::QMessageDataComparator::MatchFlag>, const QtMobility::QMessageSortOrder&, unsigned, unsigned) const 0x000134b5   Thumb Code   472  qmtmengine_symbian.o(.text)
    QtMobility::CMTMEngine::queryMessages(QtMobility::QMessageServicePrivate&, const QtMobility::QMessageFilter&, const QString&, QFlags<QtMobility::QMessageDataComparator::MatchFlag>, const QtMobility::QMessageSortOrder&, unsigned, unsigned) const 0x0001368d   Thumb Code    98  qmtmengine_symbian.o(.text)
    QtMobility::CMTMEngine::countMessagesL(QtMobility::QMessageServicePrivate&, const QtMobility::QMessageFilter&) 0x000136ef   Thumb Code   464  qmtmengine_symbian.o(.text)
    QtMobility::CMTMEngine::countMessages(QtMobility::QMessageServicePrivate&, const QtMobility::QMessageFilter&) 0x000138bf   Thumb Code    82  qmtmengine_symbian.o(.text)
    QtMobility::CMTMEngine::showMessageL(const QtMobility::QMessageId&) 0x00013911   Thumb Code   220  qmtmengine_symbian.o(.text)
    QtMobility::CMTMEngine::showMessage(const QtMobility::QMessageId&) 0x000139ed   Thumb Code    86  qmtmengine_symbian.o(.text)
    QtMobility::CMTMEngine::composeEmailL(const QtMobility::QMessage&) 0x00013a43   Thumb Code  1158  qmtmengine_symbian.o(.text)
    QtMobility::CMTMEngine::composeMMSL(const QtMobility::QMessage&) 0x00013ec9   Thumb Code   836  qmtmengine_symbian.o(.text)
    QtMobility::CMTMEngine::composeSMSL(const QtMobility::QMessage&) 0x0001420d   Thumb Code   362  qmtmengine_symbian.o(.text)
    QtMobility::CMTMEngine::composeMessage(const QtMobility::QMessage&) 0x00014377   Thumb Code   590  qmtmengine_symbian.o(.text)
    QtMobility::CMTMEngine::appendAttachmentToMessage(QtMobility::QMessage&, QtMobility::QMessageContentContainer&) const 0x000145c5   Thumb Code   356  qmtmengine_symbian.o(.text)
    QtMobility::CMTMEngine::symbianTTimetoQDateTime(const TTime&) const 0x00014729   Thumb Code   100  qmtmengine_symbian.o(.text)
    QtMobility::CMTMEngine::emailMessageL(CMsvEntry&, long, bool) const 0x0001478d   Thumb Code  2698  qmtmengine_symbian.o(.text)
    QtMobility::CMTMEngine::mmsMessageL(CMsvEntry&, long, bool) const 0x00015217   Thumb Code  1856  qmtmengine_symbian.o(.text)
    QtMobility::CMTMEngine::smsMessageL(CMsvEntry&, long, bool) const 0x00015957   Thumb Code  1034  qmtmengine_symbian.o(.text)
    QtMobility::CMTMEngine::messageL(const QtMobility::QMessageId&, bool) const 0x00015d61   Thumb Code   412  qmtmengine_symbian.o(.text)
    QtMobility::CMTMEngine::message(const QtMobility::QMessageId&) const 0x00015efd   Thumb Code   186  qmtmengine_symbian.o(.text)
    QtMobility::CMTMEngine::sendMMSL(QtMobility::QMessageServicePrivate&, QtMobility::QMessage&) 0x00015fb7   Thumb Code   382  qmtmengine_symbian.o(.text)
    QtMobility::CMTMEngine::sendMMS(QtMobility::QMessageServicePrivate&, QtMobility::QMessage&) 0x00016135   Thumb Code   220  qmtmengine_symbian.o(.text)
    QtMobility::CMTMEngine::sendEmailL(QtMobility::QMessageServicePrivate&, QtMobility::QMessage&) 0x00016211   Thumb Code   456  qmtmengine_symbian.o(.text)
    QtMobility::CMTMEngine::sendEmail(QtMobility::QMessageServicePrivate&, QtMobility::QMessage&) 0x000163d9   Thumb Code   200  qmtmengine_symbian.o(.text)
    QtMobility::CMTMEngine::validateSMS()    0x000164a1   Thumb Code    54  qmtmengine_symbian.o(.text)
    QtMobility::CMTMEngine::isGsm0338CompatibleUnicodeCharacter(unsigned short) 0x000164d7   Thumb Code    64  qmtmengine_symbian.o(.text)
    QtMobility::CMTMEngine::sendSMSL(QtMobility::QMessageServicePrivate&, QtMobility::QMessage&) 0x00016517   Thumb Code   846  qmtmengine_symbian.o(.text)
    QtMobility::CMTMEngine::sendSMS(QtMobility::QMessageServicePrivate&, QtMobility::QMessage&) 0x00016865   Thumb Code   200  qmtmengine_symbian.o(.text)
    QtMobility::CAsynchronousMTMOperation::retrieveMessageAttachments(long) 0x0001692d   Thumb Code   102  qmtmengine_symbian.o(.text)
    QtMobility::CAsynchronousMTMOperation::CAsynchronousMTMOperation(QtMobility::CMTMEngine&, QtMobility::QMessageServicePrivate&, CBaseMtm*, long, int) 0x00016993   Thumb Code    62  qmtmengine_symbian.o(.text)
    QtMobility::CAsynchronousMTMOperation::CAsynchronousMTMOperation__sub_object(QtMobility::CMTMEngine&, QtMobility::QMessageServicePrivate&, CBaseMtm*, long, int) 0x00016993   Thumb Code     0  qmtmengine_symbian.o(.text)
    QtMobility::CMTMEngine::createAsynchronousMTMOperation(QtMobility::QMessageServicePrivate&, CBaseMtm*, long) 0x000169d1   Thumb Code    86  qmtmengine_symbian.o(.text)
    QtMobility::CMTMEngine::retrieveL(QtMobility::QMessageServicePrivate&, const QtMobility::QMessageId&, const QtMobility::QMessageContentContainerId&) 0x00016a27   Thumb Code   198  qmtmengine_symbian.o(.text)
    QtMobility::CMTMEngine::retrieve(QtMobility::QMessageServicePrivate&, const QtMobility::QMessageId&, const QtMobility::QMessageContentContainerId&) 0x00016aed   Thumb Code    84  qmtmengine_symbian.o(.text)
    QtMobility::CAsynchronousMTMOperation::retrieveMessageBody(long) 0x00016b41   Thumb Code   120  qmtmengine_symbian.o(.text)
    QtMobility::CMTMEngine::retrieveBodyL(QtMobility::QMessageServicePrivate&, const QtMobility::QMessageId&) 0x00016bb9   Thumb Code   194  qmtmengine_symbian.o(.text)
    QtMobility::CMTMEngine::retrieveBody(QtMobility::QMessageServicePrivate&, const QtMobility::QMessageId&) 0x00016c7b   Thumb Code    82  qmtmengine_symbian.o(.text)
    QtMobility::CAsynchronousMTMOperation::retrieveMessageHeader(long) 0x00016ccd   Thumb Code   100  qmtmengine_symbian.o(.text)
    QtMobility::CMTMEngine::retrieveHeaderL(QtMobility::QMessageServicePrivate&, const QtMobility::QMessageId&) 0x00016d31   Thumb Code   194  qmtmengine_symbian.o(.text)
    QtMobility::CMTMEngine::retrieveHeader(QtMobility::QMessageServicePrivate&, const QtMobility::QMessageId&) 0x00016df3   Thumb Code    82  qmtmengine_symbian.o(.text)
    QtMobility::CAsynchronousMTMOperation::doFullSync() 0x00016e45   Thumb Code    96  qmtmengine_symbian.o(.text)
    QtMobility::CMTMEngine::exportUpdatesL(QtMobility::QMessageServicePrivate&, const QtMobility::QMessageAccountId&) 0x00016ea5   Thumb Code   110  qmtmengine_symbian.o(.text)
    QtMobility::CMTMEngine::exportUpdates(QtMobility::QMessageServicePrivate&, const QtMobility::QMessageAccountId&) 0x00016f13   Thumb Code    82  qmtmengine_symbian.o(.text)
    QtMobility::CMTMEngine::attachmentContentL(long, unsigned) 0x00016f65   Thumb Code   390  qmtmengine_symbian.o(.text)
    QtMobility::CMTMEngine::attachmentContent(long, unsigned) 0x000170eb   Thumb Code    94  qmtmengine_symbian.o(.text)
    QtMobility::CMTMEngine::attachmentTextContent(long, unsigned, const QByteArray&) 0x00017149   Thumb Code   108  qmtmengine_symbian.o(.text)
    QtMobility::CMTMEngine::registerNotificationFilter(QtMobility::QMessageStorePrivate&, const QtMobility::QMessageFilter&) 0x000171b5   Thumb Code   364  qmtmengine_symbian.o(.text)
    QtMobility::CMTMEngine::unregisterNotificationFilter(int) 0x00017321   Thumb Code    36  qmtmengine_symbian.o(.text)
    QtMobility::CMTMEngine::tryToDeliverMessageNotifications() 0x00017345   Thumb Code   842  qmtmengine_symbian.o(.text)
    QtMobility::CMTMEngine::notification(MMsvSessionObserver::TMsvSessionEvent, TUid, long, long, CMsvEntry*) 0x0001768f   Thumb Code  1568  qmtmengine_symbian.o(.text)
    QtMobility::CMTMEngine::handleMessageSendingNotifications(MMsvSessionObserver::TMsvSessionEvent, TUid, long, long, unsigned) 0x00017caf   Thumb Code   530  qmtmengine_symbian.o(.text)
    QtMobility::CMTMEngine::applyOffsetAndLimitToMsgIds(QList<QtMobility::QMessageId>&, int, int) const 0x00017ec1   Thumb Code   144  qmtmengine_symbian.o(.text)
    QtMobility::CMTMEngine::messageLessThan(const QtMobility::QMessage&, const QtMobility::QMessage&) 0x00017f51   Thumb Code    28  qmtmengine_symbian.o(.text)
    QtMobility::CMTMEngine::orderMessages(QList<QtMobility::QMessageId>&, const QtMobility::QMessageSortOrder&) const 0x00017f6d   Thumb Code   278  qmtmengine_symbian.o(.text)
    QtMobility::CMTMEngine::filterAndOrderMessagesReady(bool, int, QList<QtMobility::QMessageId>, int, bool) 0x00018083   Thumb Code  1436  qmtmengine_symbian.o(.text)
    QtMobility::CMTMEngine::cancel(QtMobility::QMessageServicePrivate&) 0x0001861f   Thumb Code    64  qmtmengine_symbian.o(.text)
    QtMobility::CMTMEngine::mtmByType(QtMobility::CMTMEngine::MTMType) 0x0001865f   Thumb Code    42  qmtmengine_symbian.o(.text)
    QtMobility::CMTMEngine::switchToMTMRootEntry(QtMobility::CMTMEngine::MTMType) 0x00018689   Thumb Code   120  qmtmengine_symbian.o(.text)
    QtMobility::CMTMEngine::mtmByUid(TUid)   0x00018701   Thumb Code    96  qmtmengine_symbian.o(.text)
    QtMobility::CMTMEngine::mtmUidByType(QtMobility::CMTMEngine::MTMType) 0x00018761   Thumb Code    64  qmtmengine_symbian.o(.text)
    QtMobility::CMTMEngine::copyMessageL(long, long) 0x000187a1   Thumb Code    96  qmtmengine_symbian.o(.text)
    QtMobility::CMTMEngine::deleteAsynchronousMTMOperation(QtMobility::CAsynchronousMTMOperation*) 0x00018801   Thumb Code    20  qmtmengine_symbian.o(.text)
    QtMobility::CMTMEngine::checkIfWaitingDiscardClearMessage(long) 0x00018815   Thumb Code   228  qmtmengine_symbian.o(.text)
    QtMobility::CMTMEngine::RunL()           0x000188f9   Thumb Code    12  qmtmengine_symbian.o(.text)
    thunk{-8} to QtMobility::CMTMEngine::RunL() 0x00018905   Thumb Code    14  qmtmengine_symbian.o(.text)
    QtMobility::CMTMEngine::DoCancel()       0x00018913   Thumb Code    16  qmtmengine_symbian.o(.text)
    thunk{-8} to QtMobility::CMTMEngine::DoCancel() 0x00018923   Thumb Code    14  qmtmengine_symbian.o(.text)
    QtMobility::CMTMEngine::HandleSessionEventL(MMsvSessionObserver::TMsvSessionEvent, void*, void*, void*) 0x00018931   Thumb Code   666  qmtmengine_symbian.o(.text)
    thunk{-36} to QtMobility::CMTMEngine::HandleSessionEventL(MMsvSessionObserver::TMsvSessionEvent, void*, void*, void*) 0x00018bcb   Thumb Code   622  qmtmengine_symbian.o(.text)
    QtMobility::CMessagesFindOperation::~CMessagesFindOperation() 0x00018e39   Thumb Code    88  qmtmengine_symbian.o(.text)
    QtMobility::CMessagesFindOperation::~CMessagesFindOperation__sub_object() 0x00018e39   Thumb Code     0  qmtmengine_symbian.o(.text)
    QtMobility::CMessagesFindOperation::~CMessagesFindOperation__deallocating() 0x00018e91   Thumb Code    22  qmtmengine_symbian.o(.text)
    QtMobility::CMessagesFindOperation::RunL() 0x00018ea7   Thumb Code   250  qmtmengine_symbian.o(.text)
    QtMobility::CMessagesFindOperation::DoCancel() 0x00018fa1   Thumb Code    12  qmtmengine_symbian.o(.text)
    QtMobility::QMTMWait::~QMTMWait__deallocating() 0x00018fad   Thumb Code    22  qmtmengine_symbian.o(.text)
    QtMobility::QMTMWait::RunL()             0x00018fc3   Thumb Code    14  qmtmengine_symbian.o(.text)
    QtMobility::QMTMWait::DoCancel()         0x00018fd1   Thumb Code    12  qmtmengine_symbian.o(.text)
    QtMobility::CAsynchronousMTMOperation::~CAsynchronousMTMOperation() 0x00018fdd   Thumb Code    28  qmtmengine_symbian.o(.text)
    QtMobility::CAsynchronousMTMOperation::~CAsynchronousMTMOperation__sub_object() 0x00018fdd   Thumb Code     0  qmtmengine_symbian.o(.text)
    QtMobility::CAsynchronousMTMOperation::~CAsynchronousMTMOperation__deallocating() 0x00018ff9   Thumb Code    22  qmtmengine_symbian.o(.text)
    QtMobility::CAsynchronousMTMOperation::RunL() 0x0001900f   Thumb Code  1318  qmtmengine_symbian.o(.text)
    QtMobility::CAsynchronousMTMOperation::DoCancel() 0x00019535   Thumb Code    12  qmtmengine_symbian.o(.text)
    QtMobility::QMessageId::QMessageId()     0x00019541   Thumb Code     6  qmessageid_symbian.o(.text)
    QtMobility::QMessageId::QMessageId__sub_object() 0x00019541   Thumb Code     0  qmessageid_symbian.o(.text)
    QtMobility::QMessageId::operator =(const QtMobility::QMessageId&) 0x00019547   Thumb Code    82  qmessageid_symbian.o(.text)
    QtMobility::QMessageId::QMessageId(const QtMobility::QMessageId&) 0x00019599   Thumb Code    22  qmessageid_symbian.o(.text)
    QtMobility::QMessageId::QMessageId__sub_object(const QtMobility::QMessageId&) 0x00019599   Thumb Code     0  qmessageid_symbian.o(.text)
    QtMobility::QMessageId::QMessageId(const QString&) 0x000195af   Thumb Code    40  qmessageid_symbian.o(.text)
    QtMobility::QMessageId::QMessageId__sub_object(const QString&) 0x000195af   Thumb Code     0  qmessageid_symbian.o(.text)
    QtMobility::QMessageId::~QMessageId()    0x000195d7   Thumb Code    28  qmessageid_symbian.o(.text)
    QtMobility::QMessageId::~QMessageId__sub_object() 0x000195d7   Thumb Code     0  qmessageid_symbian.o(.text)
    QtMobility::QMessageId::operator ==(const QtMobility::QMessageId&) const 0x000195f3   Thumb Code    48  qmessageid_symbian.o(.text)
    QtMobility::QMessageId::isValid() const  0x00019623   Thumb Code    16  qmessageid_symbian.o(.text)
    QtMobility::QMessageId::operator <(const QtMobility::QMessageId&) const 0x00019633   Thumb Code    68  qmessageid_symbian.o(.text)
    QtMobility::QMessageId::toString() const 0x00019677   Thumb Code    54  qmessageid_symbian.o(.text)
    QtMobility::qHash(const QtMobility::QMessageId&) 0x000196ad   Thumb Code    32  qmessageid_symbian.o(.text)
    QtMobility::QMessageContentContainerId::QMessageContentContainerId() 0x000196cd   Thumb Code    32  qmessagecontentcontainerid_symbian.o(.text)
    QtMobility::QMessageContentContainerId::QMessageContentContainerId__sub_object() 0x000196cd   Thumb Code     0  qmessagecontentcontainerid_symbian.o(.text)
    QtMobility::QMessageContentContainerId::operator =(const QtMobility::QMessageContentContainerId&) 0x000196ed   Thumb Code    22  qmessagecontentcontainerid_symbian.o(.text)
    QtMobility::QMessageContentContainerId::QMessageContentContainerId(const QtMobility::QMessageContentContainerId&) 0x00019703   Thumb Code    44  qmessagecontentcontainerid_symbian.o(.text)
    QtMobility::QMessageContentContainerId::QMessageContentContainerId__sub_object(const QtMobility::QMessageContentContainerId&) 0x00019703   Thumb Code     0  qmessagecontentcontainerid_symbian.o(.text)
    QtMobility::QMessageContentContainerId::QMessageContentContainerId(const QString&) 0x0001972f   Thumb Code    74  qmessagecontentcontainerid_symbian.o(.text)
    QtMobility::QMessageContentContainerId::QMessageContentContainerId__sub_object(const QString&) 0x0001972f   Thumb Code     0  qmessagecontentcontainerid_symbian.o(.text)
    QtMobility::QMessageContentContainerId::~QMessageContentContainerId() 0x00019779   Thumb Code    28  qmessagecontentcontainerid_symbian.o(.text)
    QtMobility::QMessageContentContainerId::~QMessageContentContainerId__sub_object() 0x00019779   Thumb Code     0  qmessagecontentcontainerid_symbian.o(.text)
    QtMobility::QMessageContentContainerId::operator ==(const QtMobility::QMessageContentContainerId&) const 0x00019795   Thumb Code    16  qmessagecontentcontainerid_symbian.o(.text)
    QtMobility::QMessageContentContainerId::isValid() const 0x000197a5   Thumb Code    16  qmessagecontentcontainerid_symbian.o(.text)
    QtMobility::QMessageContentContainerId::toString() const 0x000197b5   Thumb Code    44  qmessagecontentcontainerid_symbian.o(.text)
    QtMobility::QMessageFolderId::QMessageFolderId() 0x000197e1   Thumb Code     6  qmessagefolderid_symbian.o(.text)
    QtMobility::QMessageFolderId::QMessageFolderId__sub_object() 0x000197e1   Thumb Code     0  qmessagefolderid_symbian.o(.text)
    QtMobility::QMessageFolderId::isValid() const 0x000197e7   Thumb Code    38  qmessagefolderid_symbian.o(.text)
    QtMobility::QMessageFolderId::operator =(const QtMobility::QMessageFolderId&) 0x0001980d   Thumb Code    92  qmessagefolderid_symbian.o(.text)
    QtMobility::QMessageFolderId::QMessageFolderId(const QtMobility::QMessageFolderId&) 0x00019869   Thumb Code    22  qmessagefolderid_symbian.o(.text)
    QtMobility::QMessageFolderId::QMessageFolderId__sub_object(const QtMobility::QMessageFolderId&) 0x00019869   Thumb Code     0  qmessagefolderid_symbian.o(.text)
    QtMobility::QMessageFolderId::QMessageFolderId(const QString&) 0x0001987f   Thumb Code    50  qmessagefolderid_symbian.o(.text)
    QtMobility::QMessageFolderId::QMessageFolderId__sub_object(const QString&) 0x0001987f   Thumb Code     0  qmessagefolderid_symbian.o(.text)
    QtMobility::QMessageFolderId::~QMessageFolderId() 0x000198b1   Thumb Code    26  qmessagefolderid_symbian.o(.text)
    QtMobility::QMessageFolderId::~QMessageFolderId__sub_object() 0x000198b1   Thumb Code     0  qmessagefolderid_symbian.o(.text)
    QtMobility::QMessageFolderId::operator ==(const QtMobility::QMessageFolderId&) const 0x000198cb   Thumb Code    56  qmessagefolderid_symbian.o(.text)
    QtMobility::QMessageFolderId::operator <(const QtMobility::QMessageFolderId&) const 0x00019903   Thumb Code    96  qmessagefolderid_symbian.o(.text)
    QtMobility::QMessageFolderId::toString() const 0x00019963   Thumb Code    46  qmessagefolderid_symbian.o(.text)
    QtMobility::qHash(const QtMobility::QMessageFolderId&) 0x00019991   Thumb Code    32  qmessagefolderid_symbian.o(.text)
    QtMobility::QMessageAccountId::QMessageAccountId() 0x000199b5   Thumb Code     6  qmessageaccountid_symbian.o(.text)
    QtMobility::QMessageAccountId::QMessageAccountId__sub_object() 0x000199b5   Thumb Code     0  qmessageaccountid_symbian.o(.text)
    QtMobility::QMessageAccountId::isValid() const 0x000199bb   Thumb Code    38  qmessageaccountid_symbian.o(.text)
    QtMobility::QMessageAccountId::operator =(const QtMobility::QMessageAccountId&) 0x000199e1   Thumb Code    92  qmessageaccountid_symbian.o(.text)
    QtMobility::QMessageAccountId::QMessageAccountId(const QtMobility::QMessageAccountId&) 0x00019a3d   Thumb Code    22  qmessageaccountid_symbian.o(.text)
    QtMobility::QMessageAccountId::QMessageAccountId__sub_object(const QtMobility::QMessageAccountId&) 0x00019a3d   Thumb Code     0  qmessageaccountid_symbian.o(.text)
    QtMobility::QMessageAccountId::QMessageAccountId(const QString&) 0x00019a53   Thumb Code    50  qmessageaccountid_symbian.o(.text)
    QtMobility::QMessageAccountId::QMessageAccountId__sub_object(const QString&) 0x00019a53   Thumb Code     0  qmessageaccountid_symbian.o(.text)
    QtMobility::QMessageAccountId::~QMessageAccountId() 0x00019a85   Thumb Code    26  qmessageaccountid_symbian.o(.text)
    QtMobility::QMessageAccountId::~QMessageAccountId__sub_object() 0x00019a85   Thumb Code     0  qmessageaccountid_symbian.o(.text)
    QtMobility::QMessageAccountId::operator ==(const QtMobility::QMessageAccountId&) const 0x00019a9f   Thumb Code    56  qmessageaccountid_symbian.o(.text)
    QtMobility::QMessageAccountId::operator <(const QtMobility::QMessageAccountId&) const 0x00019ad7   Thumb Code   102  qmessageaccountid_symbian.o(.text)
    QtMobility::QMessageAccountId::toString() const 0x00019b3d   Thumb Code    46  qmessageaccountid_symbian.o(.text)
    QtMobility::qHash(const QtMobility::QMessageAccountId&) 0x00019b6b   Thumb Code    32  qmessageaccountid_symbian.o(.text)
    QtMobility::QMessageContentContainerPrivate::operator =(const QtMobility::QMessageContentContainerPrivate&) 0x00019b8d   Thumb Code   184  qmessagecontentcontainer_symbian.o(.text)
    QtMobility::QMessageContentContainer::operator =(const QtMobility::QMessageContentContainer&) 0x00019c45   Thumb Code    22  qmessagecontentcontainer_symbian.o(.text)
    QtMobility::QMessageContentContainer::QMessageContentContainer(const QtMobility::QMessageContentContainer&) 0x00019c5b   Thumb Code    52  qmessagecontentcontainer_symbian.o(.text)
    QtMobility::QMessageContentContainer::QMessageContentContainer__sub_object(const QtMobility::QMessageContentContainer&) 0x00019c5b   Thumb Code     0  qmessagecontentcontainer_symbian.o(.text)
    QtMobility::QMessageContentContainer::QMessageContentContainer() 0x00019c8f   Thumb Code    38  qmessagecontentcontainer_symbian.o(.text)
    QtMobility::QMessageContentContainer::QMessageContentContainer__sub_object() 0x00019c8f   Thumb Code     0  qmessagecontentcontainer_symbian.o(.text)
    QtMobility::QMessageContentContainer::~QMessageContentContainer() 0x00019cb5   Thumb Code    30  qmessagecontentcontainer_symbian.o(.text)
    QtMobility::QMessageContentContainer::~QMessageContentContainer__sub_object() 0x00019cb5   Thumb Code     0  qmessagecontentcontainer_symbian.o(.text)
    QtMobility::QMessageContentContainer::~QMessageContentContainer__deallocating() 0x00019cd3   Thumb Code    22  qmessagecontentcontainer_symbian.o(.text)
    QtMobility::QMessageContentContainer::contentType() const 0x00019ce9   Thumb Code    54  qmessagecontentcontainer_symbian.o(.text)
    QtMobility::QMessageContentContainer::contentSubType() const 0x00019d1f   Thumb Code    54  qmessagecontentcontainer_symbian.o(.text)
    QtMobility::QMessageContentContainer::contentCharset() const 0x00019d55   Thumb Code    54  qmessagecontentcontainer_symbian.o(.text)
    QtMobility::QMessageContentContainer::suggestedFileName() const 0x00019d8b   Thumb Code    54  qmessagecontentcontainer_symbian.o(.text)
    QtMobility::QMessageContentContainer::isContentAvailable() const 0x00019dc1   Thumb Code    42  qmessagecontentcontainer_symbian.o(.text)
    QtMobility::QMessageContentContainer::size() const 0x00019deb   Thumb Code    42  qmessagecontentcontainer_symbian.o(.text)
    QtMobility::QMessageContentContainer::textContent() const 0x00019e15   Thumb Code   412  qmessagecontentcontainer_symbian.o(.text)
    QtMobility::QMessageContentContainer::content() const 0x00019fb1   Thumb Code   196  qmessagecontentcontainer_symbian.o(.text)
    QtMobility::QMessageContentContainer::writeTextContent(QTextStream&) const 0x0001a075   Thumb Code    30  qmessagecontentcontainer_symbian.o(.text)
    QtMobility::QMessageContentContainer::writeContent(QDataStream&) const 0x0001a093   Thumb Code    60  qmessagecontentcontainer_symbian.o(.text)
    QtMobility::QMessageContentContainerPrivate::isMessage() const 0x0001a0cf   Thumb Code    16  qmessagecontentcontainer_symbian.o(.text)
    QtMobility::QMessageContentContainer::contentIds() const 0x0001a0df   Thumb Code   178  qmessagecontentcontainer_symbian.o(.text)
    QtMobility::QMessageContentContainerPrivate::bodyContentId() 0x0001a191   Thumb Code    52  qmessagecontentcontainer_symbian.o(.text)
    QtMobility::QMessageContentContainerPrivate::attachment(const QtMobility::QMessageContentContainerId&) 0x0001a1c5   Thumb Code   202  qmessagecontentcontainer_symbian.o(.text)
    QtMobility::QMessageContentContainer::find(const QtMobility::QMessageContentContainerId&) const 0x0001a28f   Thumb Code    78  qmessagecontentcontainer_symbian.o(.text)
    QtMobility::QMessageContentContainer::contains(const QtMobility::QMessageContentContainerId&) const 0x0001a2dd   Thumb Code    40  qmessagecontentcontainer_symbian.o(.text)
    QtMobility::QMessageContentContainer::headerFieldValue(const QByteArray&) const 0x0001a305   Thumb Code   126  qmessagecontentcontainer_symbian.o(.text)
    QtMobility::QMessageContentContainer::headerFieldValues(const QByteArray&) const 0x0001a383   Thumb Code   226  qmessagecontentcontainer_symbian.o(.text)
    QtMobility::QMessageContentContainer::headerFields() const 0x0001a465   Thumb Code    56  qmessagecontentcontainer_symbian.o(.text)
    QtMobility::QMessageContentContainerPrivate::setDerivedMessage(QtMobility::QMessage*) 0x0001a49d   Thumb Code     4  qmessagecontentcontainer_symbian.o(.text)
    QtMobility::QMessageContentContainer::setDerivedMessage(QtMobility::QMessage*) 0x0001a4a1   Thumb Code    16  qmessagecontentcontainer_symbian.o(.text)
    QtMobility::QMessageContentContainerPrivate::clearContents() 0x0001a4b1   Thumb Code   248  qmessagecontentcontainer_symbian.o(.text)
    QtMobility::QMessageContentContainerPrivate::attachment(const QtMobility::QMessageContentContainerId&) const 0x0001a5a9   Thumb Code   202  qmessagecontentcontainer_symbian.o(.text)
    QtMobility::QMessageContentContainerPrivate::setContentType(const QByteArray&, const QByteArray&, const QByteArray&) 0x0001a673   Thumb Code    48  qmessagecontentcontainer_symbian.o(.text)
    QtMobility::QMessageContentContainerPrivate::setContent(const QString&, const QByteArray&, const QByteArray&, const QByteArray&) 0x0001a6a3   Thumb Code    54  qmessagecontentcontainer_symbian.o(.text)
    QtMobility::QMessageContentContainerPrivate::setContent(const QByteArray&, const QByteArray&, const QByteArray&, const QByteArray&) 0x0001a6d9   Thumb Code    44  qmessagecontentcontainer_symbian.o(.text)
    QtMobility::QMessageContentContainerPrivate::setHeaderField(const QByteArray&, const QByteArray&) 0x0001a705   Thumb Code   144  qmessagecontentcontainer_symbian.o(.text)
    QtMobility::QMessageContentContainerPrivate::createAttachment(const QString&) 0x0001a795   Thumb Code   574  qmessagecontentcontainer_symbian.o(.text)
    QtMobility::QMessageContentContainerPrivate::appendContent(QtMobility::QMessageContentContainer&) 0x0001a9d3   Thumb Code   136  qmessagecontentcontainer_symbian.o(.text)
    QtMobility::QMessageContentContainerPrivate::prependContent(QtMobility::QMessageContentContainer&) 0x0001aa5b   Thumb Code   258  qmessagecontentcontainer_symbian.o(.text)
    QtMobility::QMessageContentContainerPrivate::attachmentFilename(const QtMobility::QMessageContentContainer&) 0x0001ab5d   Thumb Code    22  qmessagecontentcontainer_symbian.o(.text)
    QtMobility::QMessageContentContainerPrivate::from(long, unsigned, QByteArray&, QByteArray&, QByteArray&, int, EmailInterface::TMessageContentId) 0x0001ab73   Thumb Code   106  qmessagecontentcontainer_symbian.o(.text)
    QtMobility::QMessageContentContainerPrivate::implementation(const QtMobility::QMessageContentContainer&) 0x0001abdd   Thumb Code     6  qmessagecontentcontainer_symbian.o(.text)
    QtMobility::QMessagePrivate::QMessagePrivate(QtMobility::QMessage*) 0x0001abe9   Thumb Code   198  qmessage_symbian.o(.text)
    QtMobility::QMessagePrivate::QMessagePrivate__sub_object(QtMobility::QMessage*) 0x0001abe9   Thumb Code     0  qmessage_symbian.o(.text)
    QtMobility::QMessage::QMessage()         0x0001acaf   Thumb Code    68  qmessage_symbian.o(.text)
    QtMobility::QMessage::QMessage__sub_object() 0x0001acaf   Thumb Code     0  qmessage_symbian.o(.text)
    QtMobility::QMessagePrivate::~QMessagePrivate() 0x0001acf3   Thumb Code   160  qmessage_symbian.o(.text)
    QtMobility::QMessagePrivate::~QMessagePrivate__sub_object() 0x0001acf3   Thumb Code     0  qmessage_symbian.o(.text)
    QtMobility::QMessage::~QMessage()        0x0001ad93   Thumb Code    36  qmessage_symbian.o(.text)
    QtMobility::QMessage::~QMessage__sub_object() 0x0001ad93   Thumb Code     0  qmessage_symbian.o(.text)
    QtMobility::QMessage::operator =(const QtMobility::QMessage&) 0x0001adb7   Thumb Code    38  qmessage_symbian.o(.text)
    QtMobility::QMessage::QMessage(const QtMobility::QMessageId&) 0x0001addd   Thumb Code   102  qmessage_symbian.o(.text)
    QtMobility::QMessage::QMessage__sub_object(const QtMobility::QMessageId&) 0x0001addd   Thumb Code     0  qmessage_symbian.o(.text)
    QtMobility::QMessage::QMessage(const QtMobility::QMessage&) 0x0001ae43   Thumb Code    62  qmessage_symbian.o(.text)
    QtMobility::QMessage::QMessage__sub_object(const QtMobility::QMessage&) 0x0001ae43   Thumb Code     0  qmessage_symbian.o(.text)
    QtMobility::QMessage::~QMessage__deallocating() 0x0001ae81   Thumb Code    22  qmessage_symbian.o(.text)
    QtMobility::QMessage::id() const         0x0001ae97   Thumb Code    20  qmessage_symbian.o(.text)
    QtMobility::QMessage::type() const       0x0001aeab   Thumb Code     8  qmessage_symbian.o(.text)
    QtMobility::QMessage::setType(QtMobility::QMessage::Type) 0x0001aeb3   Thumb Code    14  qmessage_symbian.o(.text)
    QtMobility::QMessage::parentAccountId() const 0x0001aec1   Thumb Code    22  qmessage_symbian.o(.text)
    QtMobility::QMessage::setParentAccountId(const QtMobility::QMessageAccountId&) 0x0001aed7   Thumb Code    28  qmessage_symbian.o(.text)
    QtMobility::QMessage::parentFolderId() const 0x0001aef3   Thumb Code    22  qmessage_symbian.o(.text)
    QtMobility::QMessage::standardFolder() const 0x0001af09   Thumb Code     8  qmessage_symbian.o(.text)
    QtMobility::QMessage::from() const       0x0001af11   Thumb Code    22  qmessage_symbian.o(.text)
    QtMobility::QMessage::setFrom(const QtMobility::QMessageAddress&) 0x0001af27   Thumb Code    36  qmessage_symbian.o(.text)
    QtMobility::QMessage::subject() const    0x0001af4b   Thumb Code    22  qmessage_symbian.o(.text)
    QtMobility::QMessage::setSubject(const QString&) 0x0001af61   Thumb Code    36  qmessage_symbian.o(.text)
    QtMobility::QMessage::date() const       0x0001af85   Thumb Code    22  qmessage_symbian.o(.text)
    QtMobility::QMessage::setDate(const QDateTime&) 0x0001af9b   Thumb Code    36  qmessage_symbian.o(.text)
    QtMobility::QMessage::receivedDate() const 0x0001afbf   Thumb Code    22  qmessage_symbian.o(.text)
    QtMobility::QMessage::setReceivedDate(const QDateTime&) 0x0001afd5   Thumb Code    36  qmessage_symbian.o(.text)
    QtMobility::QMessage::to() const         0x0001aff9   Thumb Code    22  qmessage_symbian.o(.text)
    QtMobility::QMessage::setTo(const QList<QtMobility::QMessageAddress>&) 0x0001b00f   Thumb Code    36  qmessage_symbian.o(.text)
    QtMobility::QMessage::setTo(const QtMobility::QMessageAddress&) 0x0001b033   Thumb Code    46  qmessage_symbian.o(.text)
    QtMobility::QMessage::cc() const         0x0001b061   Thumb Code    22  qmessage_symbian.o(.text)
    QtMobility::QMessage::setCc(const QList<QtMobility::QMessageAddress>&) 0x0001b077   Thumb Code    36  qmessage_symbian.o(.text)
    QtMobility::QMessage::bcc() const        0x0001b09b   Thumb Code    22  qmessage_symbian.o(.text)
    QtMobility::QMessage::setBcc(const QList<QtMobility::QMessageAddress>&) 0x0001b0b1   Thumb Code    36  qmessage_symbian.o(.text)
    QtMobility::QMessage::status() const     0x0001b0d5   Thumb Code    14  qmessage_symbian.o(.text)
    QtMobility::QMessage::setStatus(QFlags<QtMobility::QMessage::Status>) 0x0001b0e3   Thumb Code    30  qmessage_symbian.o(.text)
    QtMobility::QMessage::setStatus(QtMobility::QMessage::Status, bool) 0x0001b101   Thumb Code    58  qmessage_symbian.o(.text)
    QtMobility::QMessage::priority() const   0x0001b13b   Thumb Code     8  qmessage_symbian.o(.text)
    QtMobility::QMessage::setPriority(QtMobility::QMessage::Priority) 0x0001b143   Thumb Code    20  qmessage_symbian.o(.text)
    QtMobility::QMessage::size() const       0x0001b157   Thumb Code   342  qmessage_symbian.o(.text)
    QtMobility::QMessage::bodyId() const     0x0001b2ad   Thumb Code    42  qmessage_symbian.o(.text)
    QtMobility::QMessage::setBody(const QString&, const QByteArray&) 0x0001b2d7   Thumb Code   668  qmessage_symbian.o(.text)
    QtMobility::QMessage::setBody(QTextStream&, const QByteArray&) 0x0001b573   Thumb Code    42  qmessage_symbian.o(.text)
    QtMobility::QMessage::attachmentIds() const 0x0001b59d   Thumb Code   232  qmessage_symbian.o(.text)
    QtMobility::QMessage::appendAttachments(const QStringList&) 0x0001b685   Thumb Code   716  qmessage_symbian.o(.text)
    QtMobility::QMessage::clearAttachments() 0x0001b951   Thumb Code    44  qmessage_symbian.o(.text)
    QtMobility::QMessage::isModified() const 0x0001b97d   Thumb Code    10  qmessage_symbian.o(.text)
    QtMobility::QMessage::createResponseMessage(QtMobility::QMessage::ResponseType) const 0x0001b987   Thumb Code  1172  qmessage_symbian.o(.text)
    QtMobility::QMessagePrivate::senderName(const QtMobility::QMessage&) 0x0001be1b   Thumb Code    22  qmessage_symbian.o(.text)
    QtMobility::QMessagePrivate::setSenderName(const QtMobility::QMessage&, const QString&) 0x0001be31   Thumb Code    20  qmessage_symbian.o(.text)
    QtMobility::QMessagePrivate::setSize(const QtMobility::QMessage&, int) 0x0001be45   Thumb Code     6  qmessage_symbian.o(.text)
    QtMobility::QMessagePrivate::setStandardFolder(QtMobility::QMessage&, QtMobility::QMessage::StandardFolder) 0x0001be4b   Thumb Code    14  qmessage_symbian.o(.text)
    QtMobility::QMessagePrivate::implementation(const QtMobility::QMessage&) 0x0001be59   Thumb Code     6  qmessage_symbian.o(.text)
    QtMobility::QMessagePrivate::containerImplementation(const QtMobility::QMessage&) 0x0001be5f   Thumb Code     6  qmessage_symbian.o(.text)
    QtMobility::QMessageFolder::QMessageFolder() 0x0001be75   Thumb Code    38  qmessagefolder_symbian.o(.text)
    QtMobility::QMessageFolder::QMessageFolder__sub_object() 0x0001be75   Thumb Code     0  qmessagefolder_symbian.o(.text)
    QtMobility::QMessageFolder::~QMessageFolder() 0x0001be9b   Thumb Code    86  qmessagefolder_symbian.o(.text)
    QtMobility::QMessageFolder::~QMessageFolder__sub_object() 0x0001be9b   Thumb Code     0  qmessagefolder_symbian.o(.text)
    QtMobility::QMessageFolder::operator =(const QtMobility::QMessageFolder&) 0x0001bef1   Thumb Code    82  qmessagefolder_symbian.o(.text)
    QtMobility::QMessageFolder::QMessageFolder(const QtMobility::QMessageFolderId&) 0x0001bf43   Thumb Code    86  qmessagefolder_symbian.o(.text)
    QtMobility::QMessageFolder::QMessageFolder__sub_object(const QtMobility::QMessageFolderId&) 0x0001bf43   Thumb Code     0  qmessagefolder_symbian.o(.text)
    QtMobility::QMessageFolder::QMessageFolder(const QtMobility::QMessageFolder&) 0x0001bf99   Thumb Code    52  qmessagefolder_symbian.o(.text)
    QtMobility::QMessageFolder::QMessageFolder__sub_object(const QtMobility::QMessageFolder&) 0x0001bf99   Thumb Code     0  qmessagefolder_symbian.o(.text)
    QtMobility::QMessageFolder::~QMessageFolder__deallocating() 0x0001bfcd   Thumb Code    22  qmessagefolder_symbian.o(.text)
    QtMobility::QMessageFolder::id() const   0x0001bfe3   Thumb Code    20  qmessagefolder_symbian.o(.text)
    QtMobility::QMessageFolder::parentAccountId() const 0x0001bff7   Thumb Code    22  qmessagefolder_symbian.o(.text)
    QtMobility::QMessageFolder::parentFolderId() const 0x0001c00d   Thumb Code    22  qmessagefolder_symbian.o(.text)
    QtMobility::QMessageFolder::name() const 0x0001c023   Thumb Code    22  qmessagefolder_symbian.o(.text)
    QtMobility::QMessageFolder::path() const 0x0001c039   Thumb Code    22  qmessagefolder_symbian.o(.text)
    QtMobility::QMessageFolderPrivate::from(const QtMobility::QMessageFolderId&, const QtMobility::QMessageAccountId&, const QtMobility::QMessageFolderId&, const QString&, const QString&) 0x0001c04f   Thumb Code    92  qmessagefolder_symbian.o(.text)
    QtMobility::QMessageAccount::QMessageAccount() 0x0001c0b1   Thumb Code    38  qmessageaccount_symbian.o(.text)
    QtMobility::QMessageAccount::QMessageAccount__sub_object() 0x0001c0b1   Thumb Code     0  qmessageaccount_symbian.o(.text)
    QtMobility::QMessageAccount::~QMessageAccount() 0x0001c0d7   Thumb Code    50  qmessageaccount_symbian.o(.text)
    QtMobility::QMessageAccount::~QMessageAccount__sub_object() 0x0001c0d7   Thumb Code     0  qmessageaccount_symbian.o(.text)
    QtMobility::QMessageAccount::operator =(const QtMobility::QMessageAccount&) 0x0001c109   Thumb Code    66  qmessageaccount_symbian.o(.text)
    QtMobility::QMessageAccount::QMessageAccount(const QtMobility::QMessageAccountId&) 0x0001c14b   Thumb Code    86  qmessageaccount_symbian.o(.text)
    QtMobility::QMessageAccount::QMessageAccount__sub_object(const QtMobility::QMessageAccountId&) 0x0001c14b   Thumb Code     0  qmessageaccount_symbian.o(.text)
    QtMobility::QMessageAccount::QMessageAccount(const QtMobility::QMessageAccount&) 0x0001c1a1   Thumb Code    52  qmessageaccount_symbian.o(.text)
    QtMobility::QMessageAccount::QMessageAccount__sub_object(const QtMobility::QMessageAccount&) 0x0001c1a1   Thumb Code     0  qmessageaccount_symbian.o(.text)
    QtMobility::QMessageAccount::~QMessageAccount__deallocating() 0x0001c1d5   Thumb Code    22  qmessageaccount_symbian.o(.text)
    QtMobility::QMessageAccount::id() const  0x0001c1eb   Thumb Code    20  qmessageaccount_symbian.o(.text)
    QtMobility::QMessageAccount::name() const 0x0001c1ff   Thumb Code    28  qmessageaccount_symbian.o(.text)
    QtMobility::QMessageAccount::messageTypes() const 0x0001c21b   Thumb Code    14  qmessageaccount_symbian.o(.text)
    QtMobility::QMessageAccount::defaultAccount(QtMobility::QMessage::Type) 0x0001c229   Thumb Code    96  qmessageaccount_symbian.o(.text)
    QtMobility::QMessageAccountPrivate::from(const QtMobility::QMessageAccountId&, const QString&, long, long, const QFlags<QtMobility::QMessage::Type>&) 0x0001c289   Thumb Code    76  qmessageaccount_symbian.o(.text)
    QtMobility::QMessageAccountFilterPrivate::~QMessageAccountFilterPrivate() 0x0001c2d9   Thumb Code    44  qmessageaccountfilter_symbian.o(.text)
    QtMobility::QMessageAccountFilterPrivate::~QMessageAccountFilterPrivate__sub_object() 0x0001c2d9   Thumb Code     0  qmessageaccountfilter_symbian.o(.text)
    QtMobility::QMessageAccountFilter::~QMessageAccountFilter() 0x0001c305   Thumb Code    30  qmessageaccountfilter_symbian.o(.text)
    QtMobility::QMessageAccountFilter::~QMessageAccountFilter__sub_object() 0x0001c305   Thumb Code     0  qmessageaccountfilter_symbian.o(.text)
    QtMobility::QMessageAccountFilterPrivate::QMessageAccountFilterPrivate(QtMobility::QMessageAccountFilter*) 0x0001c323   Thumb Code    56  qmessageaccountfilter_symbian.o(.text)
    QtMobility::QMessageAccountFilterPrivate::QMessageAccountFilterPrivate__sub_object(QtMobility::QMessageAccountFilter*) 0x0001c323   Thumb Code     0  qmessageaccountfilter_symbian.o(.text)
    QtMobility::QMessageAccountFilter::QMessageAccountFilter(const QtMobility::QMessageAccountFilter&) 0x0001c35b   Thumb Code    52  qmessageaccountfilter_symbian.o(.text)
    QtMobility::QMessageAccountFilter::QMessageAccountFilter__sub_object(const QtMobility::QMessageAccountFilter&) 0x0001c35b   Thumb Code     0  qmessageaccountfilter_symbian.o(.text)
    QtMobility::QMessageAccountFilter::operator =(const QtMobility::QMessageAccountFilter&) 0x0001c38f   Thumb Code   120  qmessageaccountfilter_symbian.o(.text)
    QtMobility::QMessageAccountFilter::QMessageAccountFilter() 0x0001c407   Thumb Code   138  qmessageaccountfilter_symbian.o(.text)
    QtMobility::QMessageAccountFilter::QMessageAccountFilter__sub_object() 0x0001c407   Thumb Code     0  qmessageaccountfilter_symbian.o(.text)
    QtMobility::QMessageAccountFilter::~QMessageAccountFilter__deallocating() 0x0001c491   Thumb Code    22  qmessageaccountfilter_symbian.o(.text)
    QtMobility::QMessageAccountFilter::setMatchFlags(QFlags<QtMobility::QMessageDataComparator::MatchFlag>) 0x0001c4a7   Thumb Code    12  qmessageaccountfilter_symbian.o(.text)
    QtMobility::QMessageAccountFilter::matchFlags() const 0x0001c4b3   Thumb Code    12  qmessageaccountfilter_symbian.o(.text)
    QtMobility::QMessageAccountFilter::isEmpty() const 0x0001c4bf   Thumb Code    42  qmessageaccountfilter_symbian.o(.text)
    QtMobility::QMessageAccountFilter::isSupported() const 0x0001c4e9   Thumb Code     8  qmessageaccountfilter_symbian.o(.text)
    QtMobility::QMessageAccountFilterPrivate::lessThan(QtMobility::QMessageAccountFilter, QtMobility::QMessageAccountFilter) 0x0001c4f1   Thumb Code    86  qmessageaccountfilter_symbian.o(.text)
    QtMobility::QMessageAccountFilter::operator &=(const QtMobility::QMessageAccountFilter&) 0x0001c547   Thumb Code   750  qmessageaccountfilter_symbian.o(.text)
    QtMobility::QMessageAccountFilter::operator |=(const QtMobility::QMessageAccountFilter&) 0x0001c835   Thumb Code   396  qmessageaccountfilter_symbian.o(.text)
    QtMobility::QMessageAccountFilterPrivate::changeANDsAndORsToOpposite(QtMobility::QMessageAccountFilter&) 0x0001c9c1   Thumb Code   430  qmessageaccountfilter_symbian.o(.text)
    QtMobility::QMessageAccountFilterPrivate::changeComparatorValuesToOpposite(QtMobility::QMessageAccountFilter&) 0x0001cb6f   Thumb Code   154  qmessageaccountfilter_symbian.o(.text)
    QtMobility::QMessageAccountFilterPrivate::applyNot(QtMobility::QMessageAccountFilter&) 0x0001cc09   Thumb Code    18  qmessageaccountfilter_symbian.o(.text)
    QtMobility::QMessageAccountFilter::operator ~() const 0x0001cc1b   Thumb Code    58  qmessageaccountfilter_symbian.o(.text)
    QtMobility::QMessageAccountFilter::operator &(const QtMobility::QMessageAccountFilter&) const 0x0001cc55   Thumb Code    28  qmessageaccountfilter_symbian.o(.text)
    QtMobility::QMessageAccountFilter::operator |(const QtMobility::QMessageAccountFilter&) const 0x0001cc71   Thumb Code    28  qmessageaccountfilter_symbian.o(.text)
    QtMobility::QMessageAccountFilter::operator ==(const QtMobility::QMessageAccountFilter&) const 0x0001cc8d   Thumb Code   344  qmessageaccountfilter_symbian.o(.text)
    QtMobility::QMessageAccountFilter::byId(const QtMobility::QMessageAccountId&, QtMobility::QMessageDataComparator::EqualityComparator) 0x0001cde5   Thumb Code    86  qmessageaccountfilter_symbian.o(.text)
    QtMobility::QMessageAccountFilter::byId(const QList<QtMobility::QMessageAccountId>&, QtMobility::QMessageDataComparator::InclusionComparator) 0x0001ce3b   Thumb Code    52  qmessageaccountfilter_symbian.o(.text)
    QtMobility::QMessageAccountFilter::byId(const QtMobility::QMessageAccountFilter&, QtMobility::QMessageDataComparator::InclusionComparator) 0x0001ce6f   Thumb Code   134  qmessageaccountfilter_symbian.o(.text)
    QtMobility::QMessageAccountFilter::byName(const QString&, QtMobility::QMessageDataComparator::EqualityComparator) 0x0001cef5   Thumb Code    72  qmessageaccountfilter_symbian.o(.text)
    QtMobility::QMessageAccountFilter::byName(const QString&, QtMobility::QMessageDataComparator::InclusionComparator) 0x0001cf3d   Thumb Code    72  qmessageaccountfilter_symbian.o(.text)
    QtMobility::QMessageAccountFilterPrivate::filter(const QtMobility::QMessageAccount&, const QtMobility::QMessageAccountFilterPrivate&) 0x0001cf85   Thumb Code   658  qmessageaccountfilter_symbian.o(.text)
    QtMobility::QMessageAccountFilterPrivate::filter(const QtMobility::QMessageAccount&) const 0x0001d217   Thumb Code   144  qmessageaccountfilter_symbian.o(.text)
    QtMobility::QMessageAccountFilterPrivate::implementation(const QtMobility::QMessageAccountFilter&) 0x0001d2a7   Thumb Code     6  qmessageaccountfilter_symbian.o(.text)
    QtMobility::QMessageAccountSortOrder::QMessageAccountSortOrder() 0x0001d2ad   Thumb Code    10  qmessageaccountsortorder_symbian.o(.text)
    QtMobility::QMessageAccountSortOrder::QMessageAccountSortOrder__sub_object() 0x0001d2ad   Thumb Code     0  qmessageaccountsortorder_symbian.o(.text)
    QtMobility::QMessageAccountSortOrderPrivate::QMessageAccountSortOrderPrivate(QtMobility::QMessageAccountSortOrder*) 0x0001d2b7   Thumb Code     4  qmessageaccountsortorder_symbian.o(.text)
    QtMobility::QMessageAccountSortOrderPrivate::QMessageAccountSortOrderPrivate__sub_object(QtMobility::QMessageAccountSortOrder*) 0x0001d2b7   Thumb Code     0  qmessageaccountsortorder_symbian.o(.text)
    QtMobility::QMessageAccountSortOrder::operator =(const QtMobility::QMessageAccountSortOrder&) 0x0001d2bb   Thumb Code    54  qmessageaccountsortorder_symbian.o(.text)
    QtMobility::QMessageAccountSortOrder::QMessageAccountSortOrder(const QtMobility::QMessageAccountSortOrder&) 0x0001d2f1   Thumb Code    52  qmessageaccountsortorder_symbian.o(.text)
    QtMobility::QMessageAccountSortOrder::QMessageAccountSortOrder__sub_object(const QtMobility::QMessageAccountSortOrder&) 0x0001d2f1   Thumb Code     0  qmessageaccountsortorder_symbian.o(.text)
    QtMobility::QMessageAccountSortOrder::~QMessageAccountSortOrder() 0x0001d325   Thumb Code    22  qmessageaccountsortorder_symbian.o(.text)
    QtMobility::QMessageAccountSortOrder::~QMessageAccountSortOrder__sub_object() 0x0001d325   Thumb Code     0  qmessageaccountsortorder_symbian.o(.text)
    QtMobility::QMessageAccountSortOrder::~QMessageAccountSortOrder__deallocating() 0x0001d33b   Thumb Code    22  qmessageaccountsortorder_symbian.o(.text)
    QtMobility::QMessageAccountSortOrder::isEmpty() const 0x0001d351   Thumb Code    16  qmessageaccountsortorder_symbian.o(.text)
    QtMobility::QMessageAccountSortOrder::isSupported() const 0x0001d361   Thumb Code     6  qmessageaccountsortorder_symbian.o(.text)
    QtMobility::QMessageAccountSortOrder::operator ==(const QtMobility::QMessageAccountSortOrder&) const 0x0001d367   Thumb Code    54  qmessageaccountsortorder_symbian.o(.text)
    QtMobility::QMessageAccountSortOrder::byName(Qt::SortOrder) 0x0001d39d   Thumb Code    44  qmessageaccountsortorder_symbian.o(.text)
    QtMobility::QMessageAccountSortOrderPrivate::lessThan(const QtMobility::QMessageAccountSortOrder&, const QtMobility::QMessageAccount&, const QtMobility::QMessageAccount&) 0x0001d3c9   Thumb Code   118  qmessageaccountsortorder_symbian.o(.text)
    QtMobility::QMessageFolderFilterPrivate::~QMessageFolderFilterPrivate() 0x0001d445   Thumb Code    44  qmessagefolderfilter_symbian.o(.text)
    QtMobility::QMessageFolderFilterPrivate::~QMessageFolderFilterPrivate__sub_object() 0x0001d445   Thumb Code     0  qmessagefolderfilter_symbian.o(.text)
    QtMobility::QMessageFolderFilter::~QMessageFolderFilter() 0x0001d471   Thumb Code    56  qmessagefolderfilter_symbian.o(.text)
    QtMobility::QMessageFolderFilter::~QMessageFolderFilter__sub_object() 0x0001d471   Thumb Code     0  qmessagefolderfilter_symbian.o(.text)
    QtMobility::QMessageFolderFilterPrivate::QMessageFolderFilterPrivate(QtMobility::QMessageFolderFilter*) 0x0001d4a9   Thumb Code    56  qmessagefolderfilter_symbian.o(.text)
    QtMobility::QMessageFolderFilterPrivate::QMessageFolderFilterPrivate__sub_object(QtMobility::QMessageFolderFilter*) 0x0001d4a9   Thumb Code     0  qmessagefolderfilter_symbian.o(.text)
    QtMobility::QMessageFolderFilter::QMessageFolderFilter(const QtMobility::QMessageFolderFilter&) 0x0001d4e1   Thumb Code    60  qmessagefolderfilter_symbian.o(.text)
    QtMobility::QMessageFolderFilter::QMessageFolderFilter__sub_object(const QtMobility::QMessageFolderFilter&) 0x0001d4e1   Thumb Code     0  qmessagefolderfilter_symbian.o(.text)
    QtMobility::QMessageFolderFilter::operator =(const QtMobility::QMessageFolderFilter&) 0x0001d51d   Thumb Code   186  qmessagefolderfilter_symbian.o(.text)
    QtMobility::QMessageFolderFilter::QMessageFolderFilter() 0x0001d5d7   Thumb Code   142  qmessagefolderfilter_symbian.o(.text)
    QtMobility::QMessageFolderFilter::QMessageFolderFilter__sub_object() 0x0001d5d7   Thumb Code     0  qmessagefolderfilter_symbian.o(.text)
    QtMobility::QMessageFolderFilter::~QMessageFolderFilter__deallocating() 0x0001d665   Thumb Code    22  qmessagefolderfilter_symbian.o(.text)
    QtMobility::QMessageFolderFilter::setMatchFlags(QFlags<QtMobility::QMessageDataComparator::MatchFlag>) 0x0001d67b   Thumb Code    12  qmessagefolderfilter_symbian.o(.text)
    QtMobility::QMessageFolderFilter::matchFlags() const 0x0001d687   Thumb Code    12  qmessagefolderfilter_symbian.o(.text)
    QtMobility::QMessageFolderFilter::isEmpty() const 0x0001d693   Thumb Code    42  qmessagefolderfilter_symbian.o(.text)
    QtMobility::QMessageFolderFilter::isSupported() const 0x0001d6bd   Thumb Code     8  qmessagefolderfilter_symbian.o(.text)
    QtMobility::QMessageFolderFilterPrivate::lessThan(QtMobility::QMessageFolderFilter, QtMobility::QMessageFolderFilter) 0x0001d6c5   Thumb Code    86  qmessagefolderfilter_symbian.o(.text)
    QtMobility::QMessageFolderFilter::operator &=(const QtMobility::QMessageFolderFilter&) 0x0001d71b   Thumb Code   752  qmessagefolderfilter_symbian.o(.text)
    QtMobility::QMessageFolderFilter::operator |=(const QtMobility::QMessageFolderFilter&) 0x0001da0b   Thumb Code   396  qmessagefolderfilter_symbian.o(.text)
    QtMobility::QMessageFolderFilterPrivate::changeANDsAndORsToOpposite(QtMobility::QMessageFolderFilter&) 0x0001db97   Thumb Code   430  qmessagefolderfilter_symbian.o(.text)
    QtMobility::QMessageFolderFilterPrivate::changeComparatorValuesToOpposite(QtMobility::QMessageFolderFilter&) 0x0001dd45   Thumb Code   156  qmessagefolderfilter_symbian.o(.text)
    QtMobility::QMessageFolderFilterPrivate::applyNot(QtMobility::QMessageFolderFilter&) 0x0001dde1   Thumb Code    18  qmessagefolderfilter_symbian.o(.text)
    QtMobility::QMessageFolderFilter::operator ~() const 0x0001ddf3   Thumb Code    58  qmessagefolderfilter_symbian.o(.text)
    QtMobility::QMessageFolderFilter::operator &(const QtMobility::QMessageFolderFilter&) const 0x0001de2d   Thumb Code    28  qmessagefolderfilter_symbian.o(.text)
    QtMobility::QMessageFolderFilter::operator |(const QtMobility::QMessageFolderFilter&) const 0x0001de49   Thumb Code    28  qmessagefolderfilter_symbian.o(.text)
    QtMobility::QMessageFolderFilter::operator ==(const QtMobility::QMessageFolderFilter&) const 0x0001de65   Thumb Code   408  qmessagefolderfilter_symbian.o(.text)
    QtMobility::QMessageFolderFilter::byId(const QtMobility::QMessageFolderId&, QtMobility::QMessageDataComparator::EqualityComparator) 0x0001dffd   Thumb Code    86  qmessagefolderfilter_symbian.o(.text)
    QtMobility::QMessageFolderFilter::byId(const QList<QtMobility::QMessageFolderId>&, QtMobility::QMessageDataComparator::InclusionComparator) 0x0001e053   Thumb Code    52  qmessagefolderfilter_symbian.o(.text)
    QtMobility::QMessageFolderFilter::byId(const QtMobility::QMessageFolderFilter&, QtMobility::QMessageDataComparator::InclusionComparator) 0x0001e087   Thumb Code   140  qmessagefolderfilter_symbian.o(.text)
    QtMobility::QMessageFolderFilter::byName(const QString&, QtMobility::QMessageDataComparator::EqualityComparator) 0x0001e113   Thumb Code    72  qmessagefolderfilter_symbian.o(.text)
    QtMobility::QMessageFolderFilter::byName(const QString&, QtMobility::QMessageDataComparator::InclusionComparator) 0x0001e15b   Thumb Code    72  qmessagefolderfilter_symbian.o(.text)
    QtMobility::QMessageFolderFilter::byPath(const QString&, QtMobility::QMessageDataComparator::EqualityComparator) 0x0001e1a3   Thumb Code    72  qmessagefolderfilter_symbian.o(.text)
    QtMobility::QMessageFolderFilter::byPath(const QString&, QtMobility::QMessageDataComparator::InclusionComparator) 0x0001e1eb   Thumb Code    72  qmessagefolderfilter_symbian.o(.text)
    QtMobility::QMessageFolderFilter::byParentAccountId(const QtMobility::QMessageAccountId&, QtMobility::QMessageDataComparator::EqualityComparator) 0x0001e233   Thumb Code    86  qmessagefolderfilter_symbian.o(.text)
    QtMobility::QMessageFolderFilter::byParentAccountId(const QtMobility::QMessageAccountFilter&, QtMobility::QMessageDataComparator::InclusionComparator) 0x0001e289   Thumb Code    66  qmessagefolderfilter_symbian.o(.text)
    QtMobility::QMessageFolderFilter::byParentFolderId(const QtMobility::QMessageFolderId&, QtMobility::QMessageDataComparator::EqualityComparator) 0x0001e2cb   Thumb Code    32  qmessagefolderfilter_symbian.o(.text)
    QtMobility::QMessageFolderFilter::byParentFolderId(const QtMobility::QMessageFolderFilter&, QtMobility::QMessageDataComparator::InclusionComparator) 0x0001e2eb   Thumb Code    32  qmessagefolderfilter_symbian.o(.text)
    QtMobility::QMessageFolderFilter::byAncestorFolderIds(const QtMobility::QMessageFolderId&, QtMobility::QMessageDataComparator::InclusionComparator) 0x0001e30b   Thumb Code    32  qmessagefolderfilter_symbian.o(.text)
    QtMobility::QMessageFolderFilter::byAncestorFolderIds(const QtMobility::QMessageFolderFilter&, QtMobility::QMessageDataComparator::InclusionComparator) 0x0001e32b   Thumb Code    32  qmessagefolderfilter_symbian.o(.text)
    QtMobility::QMessageFolderFilterPrivate::filter(const QtMobility::QMessageFolder&, const QtMobility::QMessageFolderFilterPrivate&) 0x0001e34b   Thumb Code  1462  qmessagefolderfilter_symbian.o(.text)
    QtMobility::QMessageFolderFilterPrivate::filter(const QtMobility::QMessageFolder&) const 0x0001e901   Thumb Code   144  qmessagefolderfilter_symbian.o(.text)
    QtMobility::QMessageFolderFilterPrivate::implementation(const QtMobility::QMessageFolderFilter&) 0x0001e991   Thumb Code     6  qmessagefolderfilter_symbian.o(.text)
    QtMobility::QMessageFolderSortOrder::QMessageFolderSortOrder() 0x0001e999   Thumb Code    38  qmessagefoldersortorder_symbian.o(.text)
    QtMobility::QMessageFolderSortOrder::QMessageFolderSortOrder__sub_object() 0x0001e999   Thumb Code     0  qmessagefoldersortorder_symbian.o(.text)
    QtMobility::QMessageFolderSortOrder::operator =(const QtMobility::QMessageFolderSortOrder&) 0x0001e9bf   Thumb Code    26  qmessagefoldersortorder_symbian.o(.text)
    QtMobility::QMessageFolderSortOrder::QMessageFolderSortOrder(const QtMobility::QMessageFolderSortOrder&) 0x0001e9d9   Thumb Code    52  qmessagefoldersortorder_symbian.o(.text)
    QtMobility::QMessageFolderSortOrder::QMessageFolderSortOrder__sub_object(const QtMobility::QMessageFolderSortOrder&) 0x0001e9d9   Thumb Code     0  qmessagefoldersortorder_symbian.o(.text)
    QtMobility::QMessageFolderSortOrder::~QMessageFolderSortOrder() 0x0001ea0d   Thumb Code    38  qmessagefoldersortorder_symbian.o(.text)
    QtMobility::QMessageFolderSortOrder::~QMessageFolderSortOrder__sub_object() 0x0001ea0d   Thumb Code     0  qmessagefoldersortorder_symbian.o(.text)
    QtMobility::QMessageFolderSortOrder::~QMessageFolderSortOrder__deallocating() 0x0001ea33   Thumb Code    22  qmessagefoldersortorder_symbian.o(.text)
    QtMobility::QMessageFolderSortOrder::isEmpty() const 0x0001ea49   Thumb Code    14  qmessagefoldersortorder_symbian.o(.text)
    QtMobility::QMessageFolderSortOrder::isSupported() const 0x0001ea57   Thumb Code     6  qmessagefoldersortorder_symbian.o(.text)
    QtMobility::QMessageFolderSortOrder::operator +(const QtMobility::QMessageFolderSortOrder&) const 0x0001ea5d   Thumb Code    98  qmessagefoldersortorder_symbian.o(.text)
    QtMobility::QMessageFolderSortOrder::operator +=(const QtMobility::QMessageFolderSortOrder&) 0x0001eabf   Thumb Code    30  qmessagefoldersortorder_symbian.o(.text)
    QtMobility::QMessageFolderSortOrder::operator ==(const QtMobility::QMessageFolderSortOrder&) const 0x0001eadd   Thumb Code    20  qmessagefoldersortorder_symbian.o(.text)
    QtMobility::QMessageFolderSortOrder::byName(Qt::SortOrder) 0x0001eaf1   Thumb Code    32  qmessagefoldersortorder_symbian.o(.text)
    QtMobility::QMessageFolderSortOrder::byPath(Qt::SortOrder) 0x0001eb11   Thumb Code    32  qmessagefoldersortorder_symbian.o(.text)
    QtMobility::QMessageFolderSortOrderPrivate::lessThan(const QtMobility::QMessageFolderSortOrder&, const QtMobility::QMessageFolder&, const QtMobility::QMessageFolder&) 0x0001eb31   Thumb Code   344  qmessagefoldersortorder_symbian.o(.text)
    QtMobility::QMessageFilterPrivate::~QMessageFilterPrivate() 0x0001ec8d   Thumb Code    44  qmessagefilter_symbian.o(.text)
    QtMobility::QMessageFilterPrivate::~QMessageFilterPrivate__sub_object() 0x0001ec8d   Thumb Code     0  qmessagefilter_symbian.o(.text)
    QtMobility::QMessageFilter::~QMessageFilter() 0x0001ecb9   Thumb Code    82  qmessagefilter_symbian.o(.text)
    QtMobility::QMessageFilter::~QMessageFilter__sub_object() 0x0001ecb9   Thumb Code     0  qmessagefilter_symbian.o(.text)
    QtMobility::QMessageFilterPrivate::QMessageFilterPrivate(QtMobility::QMessageFilter*) 0x0001ed0b   Thumb Code    68  qmessagefilter_symbian.o(.text)
    QtMobility::QMessageFilterPrivate::QMessageFilterPrivate__sub_object(QtMobility::QMessageFilter*) 0x0001ed0b   Thumb Code     0  qmessagefilter_symbian.o(.text)
    QtMobility::QMessageFilter::QMessageFilter(const QtMobility::QMessageFilter&) 0x0001ed4f   Thumb Code    66  qmessagefilter_symbian.o(.text)
    QtMobility::QMessageFilter::QMessageFilter__sub_object(const QtMobility::QMessageFilter&) 0x0001ed4f   Thumb Code     0  qmessagefilter_symbian.o(.text)
    QtMobility::QMessageFilter::operator =(const QtMobility::QMessageFilter&) 0x0001ed91   Thumb Code   260  qmessagefilter_symbian.o(.text)
    QtMobility::QMessageFilter::QMessageFilter() 0x0001ee95   Thumb Code   150  qmessagefilter_symbian.o(.text)
    QtMobility::QMessageFilter::QMessageFilter__sub_object() 0x0001ee95   Thumb Code     0  qmessagefilter_symbian.o(.text)
    QtMobility::QMessageFilter::~QMessageFilter__deallocating() 0x0001ef2b   Thumb Code    22  qmessagefilter_symbian.o(.text)
    QtMobility::QMessageFilter::setMatchFlags(QFlags<QtMobility::QMessageDataComparator::MatchFlag>) 0x0001ef41   Thumb Code    12  qmessagefilter_symbian.o(.text)
    QtMobility::QMessageFilter::matchFlags() const 0x0001ef4d   Thumb Code    12  qmessagefilter_symbian.o(.text)
    QtMobility::QMessageFilter::isEmpty() const 0x0001ef59   Thumb Code    42  qmessagefilter_symbian.o(.text)
    QtMobility::QMessageFilter::isSupported() const 0x0001ef83   Thumb Code     8  qmessagefilter_symbian.o(.text)
    QtMobility::QMessageFilterPrivate::lessThan(QtMobility::QMessageFilter, QtMobility::QMessageFilter) 0x0001ef8b   Thumb Code    86  qmessagefilter_symbian.o(.text)
    QtMobility::QMessageFilter::operator &=(const QtMobility::QMessageFilter&) 0x0001efe1   Thumb Code   768  qmessagefilter_symbian.o(.text)
    QtMobility::QMessageFilter::operator |=(const QtMobility::QMessageFilter&) 0x0001f2e1   Thumb Code   416  qmessagefilter_symbian.o(.text)
    QtMobility::QMessageFilterPrivate::changeANDsAndORsToOpposite(QtMobility::QMessageFilter&) 0x0001f481   Thumb Code   438  qmessagefilter_symbian.o(.text)
    QtMobility::QMessageFilterPrivate::changeComparatorValuesToOpposite(QtMobility::QMessageFilter&) 0x0001f637   Thumb Code   268  qmessagefilter_symbian.o(.text)
    QtMobility::QMessageFilterPrivate::applyNot(QtMobility::QMessageFilter&) 0x0001f743   Thumb Code    18  qmessagefilter_symbian.o(.text)
    QtMobility::QMessageFilter::operator ~() const 0x0001f755   Thumb Code    58  qmessagefilter_symbian.o(.text)
    QtMobility::QMessageFilter::operator &(const QtMobility::QMessageFilter&) const 0x0001f78f   Thumb Code    28  qmessagefilter_symbian.o(.text)
    QtMobility::QMessageFilter::operator |(const QtMobility::QMessageFilter&) const 0x0001f7ab   Thumb Code    28  qmessagefilter_symbian.o(.text)
    QtMobility::QMessageFilter::operator ==(const QtMobility::QMessageFilter&) const 0x0001f7c7   Thumb Code   494  qmessagefilter_symbian.o(.text)
    QtMobility::QMessageFilter::byId(const QtMobility::QMessageId&, QtMobility::QMessageDataComparator::EqualityComparator) 0x0001f9b5   Thumb Code    86  qmessagefilter_symbian.o(.text)
    QtMobility::QMessageFilter::byId(const QList<QtMobility::QMessageId>&, QtMobility::QMessageDataComparator::InclusionComparator) 0x0001fa0b   Thumb Code    52  qmessagefilter_symbian.o(.text)
    QtMobility::QMessageFilter::byId(const QtMobility::QMessageFilter&, QtMobility::QMessageDataComparator::InclusionComparator) 0x0001fa3f   Thumb Code   152  qmessagefilter_symbian.o(.text)
    QtMobility::QMessageFilter::byType(QtMobility::QMessage::Type, QtMobility::QMessageDataComparator::EqualityComparator) 0x0001fad7   Thumb Code    72  qmessagefilter_symbian.o(.text)
    QtMobility::QMessageFilter::byType(QFlags<QtMobility::QMessage::Type>, QtMobility::QMessageDataComparator::InclusionComparator) 0x0001fb1f   Thumb Code    86  qmessagefilter_symbian.o(.text)
    QtMobility::QMessageFilter::bySender(const QString&, QtMobility::QMessageDataComparator::EqualityComparator) 0x0001fb75   Thumb Code    72  qmessagefilter_symbian.o(.text)
    QtMobility::QMessageFilter::bySender(const QString&, QtMobility::QMessageDataComparator::InclusionComparator) 0x0001fbbd   Thumb Code    72  qmessagefilter_symbian.o(.text)
    QtMobility::QMessageFilter::byRecipients(const QString&, QtMobility::QMessageDataComparator::InclusionComparator) 0x0001fc05   Thumb Code    72  qmessagefilter_symbian.o(.text)
    QtMobility::QMessageFilter::bySubject(const QString&, QtMobility::QMessageDataComparator::EqualityComparator) 0x0001fc4d   Thumb Code    72  qmessagefilter_symbian.o(.text)
    QtMobility::QMessageFilter::bySubject(const QString&, QtMobility::QMessageDataComparator::InclusionComparator) 0x0001fc95   Thumb Code    72  qmessagefilter_symbian.o(.text)
    QtMobility::QMessageFilter::byTimeStamp(const QDateTime&, QtMobility::QMessageDataComparator::EqualityComparator) 0x0001fcdd   Thumb Code    72  qmessagefilter_symbian.o(.text)
    QtMobility::QMessageFilter::byTimeStamp(const QDateTime&, QtMobility::QMessageDataComparator::RelationComparator) 0x0001fd25   Thumb Code    72  qmessagefilter_symbian.o(.text)
    QtMobility::QMessageFilter::byReceptionTimeStamp(const QDateTime&, QtMobility::QMessageDataComparator::EqualityComparator) 0x0001fd6d   Thumb Code    72  qmessagefilter_symbian.o(.text)
    QtMobility::QMessageFilter::byReceptionTimeStamp(const QDateTime&, QtMobility::QMessageDataComparator::RelationComparator) 0x0001fdb5   Thumb Code    72  qmessagefilter_symbian.o(.text)
    QtMobility::QMessageFilter::byStatus(QtMobility::QMessage::Status, QtMobility::QMessageDataComparator::EqualityComparator) 0x0001fdfd   Thumb Code    72  qmessagefilter_symbian.o(.text)
    QtMobility::QMessageFilter::byStatus(QFlags<QtMobility::QMessage::Status>, QtMobility::QMessageDataComparator::InclusionComparator) 0x0001fe45   Thumb Code    86  qmessagefilter_symbian.o(.text)
    QtMobility::QMessageFilter::byPriority(QtMobility::QMessage::Priority, QtMobility::QMessageDataComparator::EqualityComparator) 0x0001fe9b   Thumb Code    72  qmessagefilter_symbian.o(.text)
    QtMobility::QMessageFilter::bySize(int, QtMobility::QMessageDataComparator::EqualityComparator) 0x0001fee3   Thumb Code    72  qmessagefilter_symbian.o(.text)
    QtMobility::QMessageFilter::bySize(int, QtMobility::QMessageDataComparator::RelationComparator) 0x0001ff2b   Thumb Code    72  qmessagefilter_symbian.o(.text)
    QtMobility::QMessageFilter::byParentAccountId(const QtMobility::QMessageAccountId&, QtMobility::QMessageDataComparator::EqualityComparator) 0x0001ff73   Thumb Code    86  qmessagefilter_symbian.o(.text)
    QtMobility::QMessageFilter::byParentAccountId(const QtMobility::QMessageAccountFilter&, QtMobility::QMessageDataComparator::InclusionComparator) 0x0001ffc9   Thumb Code    66  qmessagefilter_symbian.o(.text)
    QtMobility::QMessageFilter::byStandardFolder(QtMobility::QMessage::StandardFolder, QtMobility::QMessageDataComparator::EqualityComparator) 0x0002000b   Thumb Code    72  qmessagefilter_symbian.o(.text)
    QtMobility::QMessageFilter::byParentFolderId(const QtMobility::QMessageFolderId&, QtMobility::QMessageDataComparator::EqualityComparator) 0x00020053   Thumb Code    86  qmessagefilter_symbian.o(.text)
    QtMobility::QMessageFilter::byParentFolderId(const QtMobility::QMessageFolderFilter&, QtMobility::QMessageDataComparator::InclusionComparator) 0x000200a9   Thumb Code    66  qmessagefilter_symbian.o(.text)
    QtMobility::QMessageFilter::byAncestorFolderIds(const QtMobility::QMessageFolderId&, QtMobility::QMessageDataComparator::InclusionComparator) 0x000200eb   Thumb Code    32  qmessagefilter_symbian.o(.text)
    QtMobility::QMessageFilter::byAncestorFolderIds(const QtMobility::QMessageFolderFilter&, QtMobility::QMessageDataComparator::InclusionComparator) 0x0002010b   Thumb Code    32  qmessagefilter_symbian.o(.text)
    QtMobility::QMessageFilterPrivate::filter(const QtMobility::QMessage&, const QtMobility::QMessageFilterPrivate&) 0x0002012b   Thumb Code  3478  qmessagefilter_symbian.o(.text)
    QtMobility::QMessageFilterPrivate::filter(const QtMobility::QMessage&) const 0x00020ec1   Thumb Code   144  qmessagefilter_symbian.o(.text)
    QtMobility::QMessageFilterPrivate::implementation(const QtMobility::QMessageFilter&) 0x00020f51   Thumb Code     6  qmessagefilter_symbian.o(.text)
    QtMobility::QMessageSortOrderPrivate::QMessageSortOrderPrivate(QtMobility::QMessageSortOrder*) 0x00020f59   Thumb Code    34  qmessagesortorder_symbian.o(.text)
    QtMobility::QMessageSortOrderPrivate::QMessageSortOrderPrivate__sub_object(QtMobility::QMessageSortOrder*) 0x00020f59   Thumb Code     0  qmessagesortorder_symbian.o(.text)
    QtMobility::QMessageSortOrder::QMessageSortOrder() 0x00020f7b   Thumb Code    38  qmessagesortorder_symbian.o(.text)
    QtMobility::QMessageSortOrder::QMessageSortOrder__sub_object() 0x00020f7b   Thumb Code     0  qmessagesortorder_symbian.o(.text)
    QtMobility::QMessageSortOrder::operator =(const QtMobility::QMessageSortOrder&) 0x00020fa1   Thumb Code    38  qmessagesortorder_symbian.o(.text)
    QtMobility::QMessageSortOrder::QMessageSortOrder(const QtMobility::QMessageSortOrder&) 0x00020fc7   Thumb Code    52  qmessagesortorder_symbian.o(.text)
    QtMobility::QMessageSortOrder::QMessageSortOrder__sub_object(const QtMobility::QMessageSortOrder&) 0x00020fc7   Thumb Code     0  qmessagesortorder_symbian.o(.text)
    QtMobility::QMessageSortOrder::~QMessageSortOrder() 0x00020ffb   Thumb Code    42  qmessagesortorder_symbian.o(.text)
    QtMobility::QMessageSortOrder::~QMessageSortOrder__sub_object() 0x00020ffb   Thumb Code     0  qmessagesortorder_symbian.o(.text)
    QtMobility::QMessageSortOrder::~QMessageSortOrder__deallocating() 0x00021025   Thumb Code    22  qmessagesortorder_symbian.o(.text)
    QtMobility::QMessageSortOrder::isEmpty() const 0x0002103b   Thumb Code    18  qmessagesortorder_symbian.o(.text)
    QtMobility::QMessageSortOrder::isSupported() const 0x0002104d   Thumb Code     8  qmessagesortorder_symbian.o(.text)
    QtMobility::QMessageSortOrder::operator +(const QtMobility::QMessageSortOrder&) const 0x00021055   Thumb Code   102  qmessagesortorder_symbian.o(.text)
    QtMobility::QMessageSortOrder::operator +=(const QtMobility::QMessageSortOrder&) 0x000210bb   Thumb Code    34  qmessagesortorder_symbian.o(.text)
    QtMobility::QMessageSortOrder::operator ==(const QtMobility::QMessageSortOrder&) const 0x000210dd   Thumb Code    24  qmessagesortorder_symbian.o(.text)
    QtMobility::QMessageSortOrderPrivate::from(QtMobility::QMessageSortOrderPrivate::Field, Qt::SortOrder) 0x000210f5   Thumb Code    36  qmessagesortorder_symbian.o(.text)
    QtMobility::QMessageSortOrder::byType(Qt::SortOrder) 0x00021119   Thumb Code    34  qmessagesortorder_symbian.o(.text)
    QtMobility::QMessageSortOrder::bySender(Qt::SortOrder) 0x0002113b   Thumb Code    34  qmessagesortorder_symbian.o(.text)
    QtMobility::QMessageSortOrder::byRecipients(Qt::SortOrder) 0x0002115d   Thumb Code    34  qmessagesortorder_symbian.o(.text)
    QtMobility::QMessageSortOrder::bySubject(Qt::SortOrder) 0x0002117f   Thumb Code    34  qmessagesortorder_symbian.o(.text)
    QtMobility::QMessageSortOrder::byTimeStamp(Qt::SortOrder) 0x000211a1   Thumb Code    34  qmessagesortorder_symbian.o(.text)
    QtMobility::QMessageSortOrder::byReceptionTimeStamp(Qt::SortOrder) 0x000211c3   Thumb Code    34  qmessagesortorder_symbian.o(.text)
    QtMobility::QMessageSortOrder::byStatus(QtMobility::QMessage::Status, Qt::SortOrder) 0x000211e5   Thumb Code   150  qmessagesortorder_symbian.o(.text)
    QtMobility::QMessageSortOrder::byPriority(Qt::SortOrder) 0x0002127b   Thumb Code    34  qmessagesortorder_symbian.o(.text)
    QtMobility::QMessageSortOrder::bySize(Qt::SortOrder) 0x0002129d   Thumb Code    34  qmessagesortorder_symbian.o(.text)
    QtMobility::QMessageSortOrderPrivate::implementation(const QtMobility::QMessageSortOrder&) 0x000212bf   Thumb Code     6  qmessagesortorder_symbian.o(.text)
    QtMobility::QMessageSortOrderPrivate::lessThan(const QtMobility::QMessageSortOrder&, const QtMobility::QMessage&, const QtMobility::QMessage&) 0x000212c5   Thumb Code  1952  qmessagesortorder_symbian.o(.text)
    QtMobility::QMessageStore::error() const 0x00021a65   Thumb Code     6  qmessagestore_symbian.o(.text)
    QtMobility::QMessageStorePrivate::QMessageStorePrivate() 0x00021a6b   Thumb Code    56  qmessagestore_symbian.o(.text)
    QtMobility::QMessageStorePrivate::QMessageStorePrivate__sub_object() 0x00021a6b   Thumb Code     0  qmessagestore_symbian.o(.text)
    QtMobility::QMessageStorePrivate::queryMessages(const QtMobility::QMessageFilter&, const QtMobility::QMessageSortOrder&, unsigned, unsigned) const 0x00021b45   Thumb Code   144  qmessagestore_symbian.o(.text)
    QtMobility::QMessageStore::queryMessages(const QtMobility::QMessageFilter&, const QtMobility::QMessageSortOrder&, unsigned, unsigned) const 0x00021bd5   Thumb Code    38  qmessagestore_symbian.o(.text)
    QtMobility::QMessageStorePrivate::queryMessages(const QtMobility::QMessageFilter&, const QString&, QFlags<QtMobility::QMessageDataComparator::MatchFlag>, const QtMobility::QMessageSortOrder&, unsigned, unsigned) const 0x00021bfb   Thumb Code   156  qmessagestore_symbian.o(.text)
    QtMobility::QMessageStore::queryMessages(const QtMobility::QMessageFilter&, const QString&, QFlags<QtMobility::QMessageDataComparator::MatchFlag>, const QtMobility::QMessageSortOrder&, unsigned, unsigned) const 0x00021c97   Thumb Code    46  qmessagestore_symbian.o(.text)
    QtMobility::QMessageStorePrivate::queryFolders(const QtMobility::QMessageFolderFilter&, const QtMobility::QMessageFolderSortOrder&, unsigned, unsigned) const 0x00021cc5   Thumb Code   130  qmessagestore_symbian.o(.text)
    QtMobility::QMessageStore::queryFolders(const QtMobility::QMessageFolderFilter&, const QtMobility::QMessageFolderSortOrder&, unsigned, unsigned) const 0x00021d47   Thumb Code    38  qmessagestore_symbian.o(.text)
    QtMobility::QMessageStorePrivate::queryAccounts(const QtMobility::QMessageAccountFilter&, const QtMobility::QMessageAccountSortOrder&, unsigned, unsigned) const 0x00021d6d   Thumb Code   130  qmessagestore_symbian.o(.text)
    QtMobility::QMessageStore::queryAccounts(const QtMobility::QMessageAccountFilter&, const QtMobility::QMessageAccountSortOrder&, unsigned, unsigned) const 0x00021def   Thumb Code    38  qmessagestore_symbian.o(.text)
    QtMobility::QMessageStorePrivate::countMessages(const QtMobility::QMessageFilter&) const 0x00021e15   Thumb Code   366  qmessagestore_symbian.o(.text)
    QtMobility::QMessageStore::countMessages(const QtMobility::QMessageFilter&) const 0x00021f83   Thumb Code    20  qmessagestore_symbian.o(.text)
    QtMobility::QMessageStorePrivate::countFolders(const QtMobility::QMessageFolderFilter&) const 0x00021f97   Thumb Code    36  qmessagestore_symbian.o(.text)
    QtMobility::QMessageStore::countFolders(const QtMobility::QMessageFolderFilter&) const 0x00021fbb   Thumb Code    20  qmessagestore_symbian.o(.text)
    QtMobility::QMessageStorePrivate::countAccounts(const QtMobility::QMessageAccountFilter&) const 0x00021fcf   Thumb Code    36  qmessagestore_symbian.o(.text)
    QtMobility::QMessageStore::countAccounts(const QtMobility::QMessageAccountFilter&) const 0x00021ff3   Thumb Code    20  qmessagestore_symbian.o(.text)
    QtMobility::QMessageStorePrivate::addMessage(QtMobility::QMessage*) 0x00022007   Thumb Code    74  qmessagestore_symbian.o(.text)
    QtMobility::QMessageStore::addMessage(QtMobility::QMessage*) 0x00022051   Thumb Code    20  qmessagestore_symbian.o(.text)
    QtMobility::QMessageStorePrivate::updateMessage(QtMobility::QMessage*) 0x00022065   Thumb Code    74  qmessagestore_symbian.o(.text)
    QtMobility::QMessageStore::updateMessage(QtMobility::QMessage*) 0x000220af   Thumb Code    20  qmessagestore_symbian.o(.text)
    QtMobility::QMessageStorePrivate::removeMessage(const QtMobility::QMessageId&, QtMobility::QMessageManager::RemovalOption) 0x000220c3   Thumb Code    52  qmessagestore_symbian.o(.text)
    QtMobility::QMessageStore::removeMessage(const QtMobility::QMessageId&, QtMobility::QMessageManager::RemovalOption) 0x000220f7   Thumb Code    24  qmessagestore_symbian.o(.text)
    QtMobility::QMessageStorePrivate::removeMessages(const QtMobility::QMessageFilter&, QtMobility::QMessageManager::RemovalOption) 0x0002210f   Thumb Code   296  qmessagestore_symbian.o(.text)
    QtMobility::QMessageStore::removeMessages(const QtMobility::QMessageFilter&, QtMobility::QMessageManager::RemovalOption) 0x00022237   Thumb Code    24  qmessagestore_symbian.o(.text)
    QtMobility::QMessageStorePrivate::message(const QtMobility::QMessageId&) const 0x0002224f   Thumb Code    54  qmessagestore_symbian.o(.text)
    QtMobility::QMessageStore::message(const QtMobility::QMessageId&) const 0x00022285   Thumb Code    26  qmessagestore_symbian.o(.text)
    QtMobility::QMessageStorePrivate::folder(const QtMobility::QMessageFolderId&) const 0x0002229f   Thumb Code    54  qmessagestore_symbian.o(.text)
    QtMobility::QMessageStore::folder(const QtMobility::QMessageFolderId&) const 0x000222d5   Thumb Code    26  qmessagestore_symbian.o(.text)
    QtMobility::QMessageStorePrivate::account(const QtMobility::QMessageAccountId&) const 0x000222ef   Thumb Code    54  qmessagestore_symbian.o(.text)
    QtMobility::QMessageStore::account(const QtMobility::QMessageAccountId&) const 0x00022325   Thumb Code    26  qmessagestore_symbian.o(.text)
    QtMobility::QMessageStorePrivate::registerNotificationFilter(const QtMobility::QMessageFilter&) 0x0002233f   Thumb Code    36  qmessagestore_symbian.o(.text)
    QtMobility::QMessageStore::registerNotificationFilter(const QtMobility::QMessageFilter&) 0x00022363   Thumb Code    20  qmessagestore_symbian.o(.text)
    QtMobility::QMessageStorePrivate::unregisterNotificationFilter(int) 0x00022377   Thumb Code    28  qmessagestore_symbian.o(.text)
    QtMobility::QMessageStore::unregisterNotificationFilter(int) 0x00022393   Thumb Code    20  qmessagestore_symbian.o(.text)
    QtMobility::QMessageStorePrivate::initialize(QtMobility::QMessageStore*) 0x000223a7   Thumb Code    16  qmessagestore_symbian.o(.text)
    QtMobility::QMessageStore::QMessageStore(QObject*) 0x000223b7   Thumb Code    42  qmessagestore_symbian.o(.text)
    QtMobility::QMessageStore::QMessageStore__sub_object(QObject*) 0x000223b7   Thumb Code     0  qmessagestore_symbian.o(.text)
    QtMobility::QMessageStore::instance()    0x000223e1   Thumb Code    46  qmessagestore_symbian.o(.text)
    QtMobility::QMessageStore::~QMessageStore() 0x0002240f   Thumb Code    22  qmessagestore_symbian.o(.text)
    QtMobility::QMessageStore::~QMessageStore__sub_object() 0x0002240f   Thumb Code     0  qmessagestore_symbian.o(.text)
    QtMobility::QMessageStore::~QMessageStore__deallocating() 0x00022425   Thumb Code    22  qmessagestore_symbian.o(.text)
    QtMobility::QMessageStorePrivate::getStaticMetaObject() 0x0002243b   Thumb Code     4  qmessagestore_symbian.o(.text)
    QtMobility::QMessageStorePrivate::metaObject() const 0x0002243f   Thumb Code    28  qmessagestore_symbian.o(.text)
    QtMobility::QMessageStorePrivate::qt_metacast(const char*) 0x0002245b   Thumb Code    40  qmessagestore_symbian.o(.text)
    QtMobility::QMessageStorePrivate::messagesCounted(int) 0x00022483   Thumb Code    18  qmessagestore_symbian.o(.text)
    QtMobility::QMessageStorePrivate::messagesFound(const QList<QtMobility::QMessageId>&) 0x00022495   Thumb Code    26  qmessagestore_symbian.o(.text)
    QtMobility::QMessageStorePrivate::stateChanged(QtMobility::QMessageService::State) 0x000224af   Thumb Code    54  qmessagestore_symbian.o(.text)
    QtMobility::QMessageStorePrivate::qt_metacall(QMetaObject::Call, int, void**) 0x000224e5   Thumb Code    94  qmessagestore_symbian.o(.text)
    QtMobility::QMessageStorePrivate::~QMessageStorePrivate() 0x00022543   Thumb Code    42  qmessagestore_symbian.o(.text)
    QtMobility::QMessageStorePrivate::~QMessageStorePrivate__sub_object() 0x00022543   Thumb Code     0  qmessagestore_symbian.o(.text)
    QtMobility::QMessageStorePrivate::~QMessageStorePrivate__deallocating() 0x0002256d   Thumb Code    22  qmessagestore_symbian.o(.text)
    QtMobility::QMessageStorePrivate::messageNotification(QtMobility::QMessageStorePrivate::NotificationType, const QtMobility::QMessageId&, const QSet<int>&) 0x00022583   Thumb Code    62  qmessagestore_symbian.o(.text)
    QtMobility::QMessageServicePrivate::QMessageServicePrivate(QtMobility::QMessageService*) 0x000225c5   Thumb Code    70  qmessageservice_symbian.o(.text)
    QtMobility::QMessageServicePrivate::QMessageServicePrivate__sub_object(QtMobility::QMessageService*) 0x000225c5   Thumb Code     0  qmessageservice_symbian.o(.text)
    QtMobility::QMessageService::QMessageService(QObject*) 0x0002260b   Thumb Code   108  qmessageservice_symbian.o(.text)
    QtMobility::QMessageService::QMessageService__sub_object(QObject*) 0x0002260b   Thumb Code     0  qmessageservice_symbian.o(.text)
    QtMobility::QMessageServicePrivate::cancel() 0x00022677   Thumb Code    36  qmessageservice_symbian.o(.text)
    QtMobility::QMessageService::~QMessageService() 0x0002269b   Thumb Code    24  qmessageservice_symbian.o(.text)
    QtMobility::QMessageService::~QMessageService__sub_object() 0x0002269b   Thumb Code     0  qmessageservice_symbian.o(.text)
    QtMobility::QMessageService::~QMessageService__deallocating() 0x000226b3   Thumb Code    22  qmessageservice_symbian.o(.text)
    QtMobility::QMessageServicePrivate::setFinished(bool) 0x000226c9   Thumb Code    38  qmessageservice_symbian.o(.text)
    QtMobility::QMessageServicePrivate::queryMessages(const QtMobility::QMessageFilter&, const QtMobility::QMessageSortOrder&, unsigned, unsigned) const 0x000226ef   Thumb Code   150  qmessageservice_symbian.o(.text)
    QtMobility::QMessageService::queryMessages(const QtMobility::QMessageFilter&, const QtMobility::QMessageSortOrder&, unsigned, unsigned) 0x00022785   Thumb Code   104  qmessageservice_symbian.o(.text)
    QtMobility::QMessageServicePrivate::queryMessages(const QtMobility::QMessageFilter&, const QString&, QFlags<QtMobility::QMessageDataComparator::MatchFlag>, const QtMobility::QMessageSortOrder&, unsigned, unsigned) const 0x000227ed   Thumb Code   180  qmessageservice_symbian.o(.text)
    QtMobility::QMessageService::queryMessages(const QtMobility::QMessageFilter&, const QString&, QFlags<QtMobility::QMessageDataComparator::MatchFlag>, const QtMobility::QMessageSortOrder&, unsigned, unsigned) 0x000228a1   Thumb Code   114  qmessageservice_symbian.o(.text)
    QtMobility::QMessageServicePrivate::countMessages(const QtMobility::QMessageFilter&) 0x00022913   Thumb Code    72  qmessageservice_symbian.o(.text)
    QtMobility::QMessageService::countMessages(const QtMobility::QMessageFilter&) 0x0002295b   Thumb Code   194  qmessageservice_symbian.o(.text)
    QtMobility::QMessageServicePrivate::sendEmail(QtMobility::QMessage&) 0x00022a1d   Thumb Code    90  qmessageservice_symbian.o(.text)
    QtMobility::QMessageServicePrivate::sendMMS(QtMobility::QMessage&) 0x00022a77   Thumb Code    22  qmessageservice_symbian.o(.text)
    QtMobility::QMessageServicePrivate::sendSMS(QtMobility::QMessage&) 0x00022a8d   Thumb Code    22  qmessageservice_symbian.o(.text)
    QtMobility::QMessageService::send(QtMobility::QMessage&) 0x00022aa3   Thumb Code   816  qmessageservice_symbian.o(.text)
    QtMobility::QMessageServicePrivate::compose(const QtMobility::QMessage&) 0x00022dd3   Thumb Code    80  qmessageservice_symbian.o(.text)
    QtMobility::QMessageService::compose(const QtMobility::QMessage&) 0x00022e23   Thumb Code    70  qmessageservice_symbian.o(.text)
    QtMobility::QMessageServicePrivate::retrieveHeader(const QtMobility::QMessageId&) 0x00022e69   Thumb Code    54  qmessageservice_symbian.o(.text)
    QtMobility::QMessageService::retrieveHeader(const QtMobility::QMessageId&) 0x00022e9f   Thumb Code    94  qmessageservice_symbian.o(.text)
    QtMobility::QMessageServicePrivate::retrieveBody(const QtMobility::QMessageId&) 0x00022efd   Thumb Code    54  qmessageservice_symbian.o(.text)
    QtMobility::QMessageService::retrieveBody(const QtMobility::QMessageId&) 0x00022f33   Thumb Code    94  qmessageservice_symbian.o(.text)
    QtMobility::QMessageServicePrivate::retrieve(const QtMobility::QMessageId&, const QtMobility::QMessageContentContainerId&) 0x00022f91   Thumb Code    60  qmessageservice_symbian.o(.text)
    QtMobility::QMessageService::retrieve(const QtMobility::QMessageId&, const QtMobility::QMessageContentContainerId&) 0x00022fcd   Thumb Code   108  qmessageservice_symbian.o(.text)
    QtMobility::QMessageServicePrivate::show(const QtMobility::QMessageId&) 0x00023039   Thumb Code    50  qmessageservice_symbian.o(.text)
    QtMobility::QMessageService::show(const QtMobility::QMessageId&) 0x0002306b   Thumb Code    90  qmessageservice_symbian.o(.text)
    QtMobility::QMessageServicePrivate::exportUpdates(const QtMobility::QMessageAccountId&) 0x000230c5   Thumb Code    52  qmessageservice_symbian.o(.text)
    QtMobility::QMessageService::exportUpdates(const QtMobility::QMessageAccountId&) 0x000230f9   Thumb Code    94  qmessageservice_symbian.o(.text)
    QtMobility::QMessageService::state() const 0x00023157   Thumb Code     8  qmessageservice_symbian.o(.text)
    QtMobility::QMessageService::error() const 0x0002315f   Thumb Code     8  qmessageservice_symbian.o(.text)
    QtMobility::QMessageService::cancel()    0x00023167   Thumb Code    42  qmessageservice_symbian.o(.text)
    QtMobility::QMessageServicePrivate::getStaticMetaObject() 0x00023191   Thumb Code     4  qmessageservice_symbian.o(.text)
    QtMobility::QMessageServicePrivate::metaObject() const 0x00023195   Thumb Code    28  qmessageservice_symbian.o(.text)
    QtMobility::QMessageServicePrivate::qt_metacast(const char*) 0x000231b1   Thumb Code    40  qmessageservice_symbian.o(.text)
    QtMobility::QMessageServicePrivate::progressChanged(unsigned, unsigned) 0x000231d9   Thumb Code    40  qmessageservice_symbian.o(.text)
    QtMobility::QMessageServicePrivate::messagesFound(const QList<QtMobility::QMessageId>&) 0x00023201   Thumb Code    30  qmessageservice_symbian.o(.text)
    QtMobility::QMessageServicePrivate::stateChanged(QtMobility::QMessageService::State) 0x0002321f   Thumb Code    30  qmessageservice_symbian.o(.text)
    QtMobility::QMessageServicePrivate::qt_metacall(QMetaObject::Call, int, void**) 0x0002323d   Thumb Code    98  qmessageservice_symbian.o(.text)
    QtMobility::QMessageServicePrivate::~QMessageServicePrivate() 0x0002329f   Thumb Code    54  qmessageservice_symbian.o(.text)
    QtMobility::QMessageServicePrivate::~QMessageServicePrivate__sub_object() 0x0002329f   Thumb Code     0  qmessageservice_symbian.o(.text)
    QtMobility::QMessageServicePrivate::~QMessageServicePrivate__deallocating() 0x000232d5   Thumb Code    22  qmessageservice_symbian.o(.text)
    QtMobility::QMessageServicePrivate::messagesFound(const QList<QtMobility::QMessageId>&, bool, bool) 0x000232eb   Thumb Code   238  qmessageservice_symbian.o(.text)
    QtMobility::QMessageServicePrivate::messagesCounted(int) 0x000233d9   Thumb Code    46  qmessageservice_symbian.o(.text)
    QtMobility::MessageCache::~MessageCache() 0x00023415   Thumb Code    26  maemohelpers.o(.text)
    QtMobility::MessageCache::~MessageCache__sub_object() 0x00023415   Thumb Code     0  maemohelpers.o(.text)
    QtMobility::MessagingHelper::~MessagingHelper() 0x0002342f   Thumb Code     2  maemohelpers.o(.text)
    QtMobility::MessagingHelper::~MessagingHelper__sub_object() 0x0002342f   Thumb Code     0  maemohelpers.o(.text)
    QtMobility::MessagingHelper::MessagingHelper() 0x00023431   Thumb Code     2  maemohelpers.o(.text)
    QtMobility::MessagingHelper::MessagingHelper__sub_object() 0x00023431   Thumb Code     0  maemohelpers.o(.text)
    QtMobility::MessagingHelper::instance()  0x000234d9   Thumb Code     8  maemohelpers.o(.text)
    QtMobility::MessagingHelper::filterAccounts(QList<QtMobility::QMessageAccountId>&, const QtMobility::QMessageAccountFilter&) 0x000234e1   Thumb Code   154  maemohelpers.o(.text)
    QtMobility::MessagingHelper::accountLessThan(QtMobility::QMessageAccountId, QtMobility::QMessageAccountId) 0x0002357b   Thumb Code    70  maemohelpers.o(.text)
    QtMobility::MessagingHelper::orderAccounts(QList<QtMobility::QMessageAccountId>&, const QtMobility::QMessageAccountSortOrder&) 0x000235c1   Thumb Code   122  maemohelpers.o(.text)
    QtMobility::MessagingHelper::applyOffsetAndLimitToAccountIdList(QList<QtMobility::QMessageAccountId>&, int, int) 0x0002363b   Thumb Code   134  maemohelpers.o(.text)
    QtMobility::MessagingHelper::filterFolders(QList<QtMobility::QMessageFolderId>&, const QtMobility::QMessageFolderFilter&) 0x000236c1   Thumb Code   152  maemohelpers.o(.text)
    QtMobility::MessagingHelper::folderLessThan(QtMobility::QMessageFolderId, QtMobility::QMessageFolderId) 0x00023759   Thumb Code    70  maemohelpers.o(.text)
    QtMobility::MessagingHelper::orderFolders(QList<QtMobility::QMessageFolderId>&, const QtMobility::QMessageFolderSortOrder&) 0x0002379f   Thumb Code   142  maemohelpers.o(.text)
    QtMobility::MessagingHelper::applyOffsetAndLimitToFolderIdList(QList<QtMobility::QMessageFolderId>&, int, int) 0x0002382d   Thumb Code   134  maemohelpers.o(.text)
    QtMobility::MessageCache::unlock()       0x000238b3   Thumb Code    14  maemohelpers.o(.text)
    QtMobility::MessageCache::messageObject(const QtMobility::QMessageId&) 0x000238c1   Thumb Code    36  maemohelpers.o(.text)
    QtMobility::MessageCache::lock()         0x000238e5   Thumb Code    14  maemohelpers.o(.text)
    QtMobility::MessageCache::MessageCache() 0x000238f3   Thumb Code    74  maemohelpers.o(.text)
    QtMobility::MessageCache::MessageCache__sub_object() 0x000238f3   Thumb Code     0  maemohelpers.o(.text)
    QtMobility::MessageCache::instance()     0x000239e3   Thumb Code     8  maemohelpers.o(.text)
    QtMobility::MessagingHelper::filterMessages(QList<QtMobility::QMessageId>&, const QtMobility::QMessageFilter&) 0x000239eb   Thumb Code   226  maemohelpers.o(.text)
    QtMobility::MessagingHelper::messageLessThan(QtMobility::QMessageId, QtMobility::QMessageId) 0x00023acd   Thumb Code   260  maemohelpers.o(.text)
    QtMobility::MessagingHelper::orderMessages(QList<QtMobility::QMessageId>&, const QtMobility::QMessageSortOrder&) 0x00023bd1   Thumb Code   122  maemohelpers.o(.text)
    QtMobility::MessagingHelper::applyOffsetAndLimitToMessageIdList(QList<QtMobility::QMessageId>&, int, int) 0x00023c4b   Thumb Code   154  maemohelpers.o(.text)
    QtMobility::MessagingHelper::handleNestedFiltersFromFolderFilter(QtMobility::QMessageFolderFilter&) 0x00023ce5   Thumb Code  1248  maemohelpers.o(.text)
    QtMobility::MessagingHelper::handleNestedFiltersFromMessageFilter(QtMobility::QMessageFilter&) 0x000241c5   Thumb Code  2270  maemohelpers.o(.text)
    QtMobility::MessagingHelper::preFilter(QtMobility::QMessageFilter&, QtMobility::QMessage::Type) 0x00024aa3   Thumb Code   118  maemohelpers.o(.text)
    QtMobility::MessagingHelper::extractMIMEHeaderParts(const QByteArray&, QByteArray&, QByteArray&, QByteArray&) 0x00024b19   Thumb Code   376  maemohelpers.o(.text)
    QtMobility::MessageCache::insert(const QtMobility::QMessage&) 0x00024c91   Thumb Code   120  maemohelpers.o(.text)
    QtMobility::MessageCache::update(const QtMobility::QMessage&) 0x00024d09   Thumb Code   142  maemohelpers.o(.text)
    QtMobility::MessageCache::remove(const QtMobility::QMessageId&) 0x00024d97   Thumb Code    52  maemohelpers.o(.text)
    QtMobility::MessageCache::contains(const QtMobility::QMessageId&) 0x00024dcb   Thumb Code    78  maemohelpers.o(.text)
    QtMobility::MessageCache::message(const QtMobility::QMessageId&) 0x00024e19   Thumb Code    74  maemohelpers.o(.text)
    QtMobility::MessageCache::messageIds()   0x00024e63   Thumb Code   186  maemohelpers.o(.text)
    QtMobility::MessageCache::isFull() const 0x00024f1d   Thumb Code    26  maemohelpers.o(.text)
    QtMobility::MessageCache::count() const  0x00024f37   Thumb Code    14  maemohelpers.o(.text)
    QtMobility::MessageCache::insertObject(QtMobility::QMessage*) 0x00024f45   Thumb Code    70  maemohelpers.o(.text)
    QtMobility::MessageCache::clear()        0x00024f8b   Thumb Code    28  maemohelpers.o(.text)
    QtMobility::CFSEngine::getStaticMetaObject() 0x00024fad   Thumb Code     4  qfsengine_symbian.o(.text)
    QtMobility::CFSEngine::metaObject() const 0x00024fb1   Thumb Code    28  qfsengine_symbian.o(.text)
    QtMobility::CFSEngine::qt_metacast(const char*) 0x00024fcd   Thumb Code    76  qfsengine_symbian.o(.text)
    QtMobility::CFSEngine::qMessageIdFromFsMessageId(EmailInterface::TMessageId) 0x00025019   Thumb Code   156  qfsengine_symbian.o(.text)
    QtMobility::CFSEngine::contentFetched(void*, bool) 0x000250b5   Thumb Code   136  qfsengine_symbian.o(.text)
    QtMobility::CFSEngine::cleanupFSBackend() 0x0002513d   Thumb Code   758  qfsengine_symbian.o(.text)
    QtMobility::CFSEngine::qt_metacall(QMetaObject::Call, int, void**) 0x00025433   Thumb Code    80  qfsengine_symbian.o(.text)
    QtMobility::CFSEngine::setPluginObserversL() 0x00025533   Thumb Code   214  qfsengine_symbian.o(.text)
    QtMobility::CFSEngine::cleanup()         0x000256b5   Thumb Code    50  qfsengine_symbian.o(.text)
    QtMobility::CFSEngine::CFSEngine()       0x000256e7   Thumb Code   548  qfsengine_symbian.o(.text)
    QtMobility::CFSEngine::CFSEngine__sub_object() 0x000256e7   Thumb Code     0  qfsengine_symbian.o(.text)
    QtMobility::CFSEngine::instance()        0x0002590b   Thumb Code   150  qfsengine_symbian.o(.text)
    QtMobility::CFSEngine::~CFSEngine()      0x000259a1   Thumb Code   152  qfsengine_symbian.o(.text)
    QtMobility::CFSEngine::~CFSEngine__sub_object() 0x000259a1   Thumb Code     0  qfsengine_symbian.o(.text)
    QtMobility::CFSEngine::~CFSEngine__deallocating() 0x00025a39   Thumb Code    22  qfsengine_symbian.o(.text)
    QtMobility::CFSEngine::applyOffsetAndLimitToAccountIds(QList<QtMobility::QMessageAccountId>&, int, int) const 0x00025a4f   Thumb Code   162  qfsengine_symbian.o(.text)
    QtMobility::CFSEngine::qMessageAccountIdFromFsMailboxId(EmailInterface::TMailboxId) 0x00025af1   Thumb Code    56  qfsengine_symbian.o(.text)
    QtMobility::CFSEngine::updateEmailAccountsL() const 0x00025b29   Thumb Code   516  qfsengine_symbian.o(.text)
    QtMobility::CFSEngine::account(const QtMobility::QMessageAccountId&) const 0x00025d2d   Thumb Code   296  qfsengine_symbian.o(.text)
    QtMobility::CFSEngine::accountLessThan(QtMobility::QMessageAccountId, QtMobility::QMessageAccountId) 0x00025e55   Thumb Code    66  qfsengine_symbian.o(.text)
    QtMobility::CFSEngine::orderAccounts(QList<QtMobility::QMessageAccountId>&, const QtMobility::QMessageAccountSortOrder&) const 0x00025e97   Thumb Code   122  qfsengine_symbian.o(.text)
    QtMobility::CFSEngine::queryAccounts(const QtMobility::QMessageAccountFilter&, const QtMobility::QMessageAccountSortOrder&, unsigned, unsigned) const 0x00025f11   Thumb Code   552  qfsengine_symbian.o(.text)
    QtMobility::CFSEngine::countAccounts(const QtMobility::QMessageAccountFilter&) const 0x00026139   Thumb Code    60  qfsengine_symbian.o(.text)
    QtMobility::CFSEngine::accountsByType(QtMobility::QMessage::Type) const 0x00026175   Thumb Code   184  qfsengine_symbian.o(.text)
    QtMobility::CFSEngine::defaultAccount(QtMobility::QMessage::Type) const 0x0002622d   Thumb Code   148  qfsengine_symbian.o(.text)
    QtMobility::CFSEngine::applyOffsetAndLimitToMsgFolderIds(QList<QtMobility::QMessageFolderId>&, int, int) const 0x000262c1   Thumb Code   122  qfsengine_symbian.o(.text)
    QtMobility::CFSEngine::fsFolderIdFromQMessageFolderId(QtMobility::QMessageFolderId) 0x0002633b   Thumb Code   182  qfsengine_symbian.o(.text)
    QtMobility::CFSEngine::folderL(const QtMobility::QMessageFolderId&) const 0x000263f1   Thumb Code   432  qfsengine_symbian.o(.text)
    QtMobility::CFSEngine::folder(const QtMobility::QMessageFolderId&) const 0x000265a1   Thumb Code    98  qfsengine_symbian.o(.text)
    QtMobility::CFSEngine::folderLessThan(QtMobility::QMessageFolderId, QtMobility::QMessageFolderId) 0x00026603   Thumb Code    66  qfsengine_symbian.o(.text)
    QtMobility::CFSEngine::orderFolders(QList<QtMobility::QMessageFolderId>&, const QtMobility::QMessageFolderSortOrder&) const 0x00026645   Thumb Code   118  qfsengine_symbian.o(.text)
    QtMobility::CFSEngine::qMessageFolderIdFromFsFolderId(EmailInterface::TFolderId) 0x000266bb   Thumb Code   116  qfsengine_symbian.o(.text)
    QtMobility::CFSEngine::fsMailboxIdFromQMessageAccountId(QtMobility::QMessageAccountId) 0x0002672f   Thumb Code    66  qfsengine_symbian.o(.text)
    QtMobility::CFSEngine::folderIdsByAccountIdL(const QtMobility::QMessageAccountId&) const 0x00026771   Thumb Code   256  qfsengine_symbian.o(.text)
    QtMobility::CFSEngine::folderIdsByAccountId(const QtMobility::QMessageAccountId&) const 0x00026871   Thumb Code   156  qfsengine_symbian.o(.text)
    QtMobility::CFSEngine::allFolders() const 0x0002690d   Thumb Code   224  qfsengine_symbian.o(.text)
    QtMobility::CFSEngine::fsFolderL(const QtMobility::QMessageFolderId&, EmailInterface::MEmailMailbox*&, EmailInterface::MEmailFolder*&) const 0x000269ed   Thumb Code   200  qfsengine_symbian.o(.text)
    QtMobility::CFSEngine::filterMessageFoldersL(const QtMobility::QMessageFolderFilter&, bool&) const 0x00026ab5   Thumb Code  1540  qfsengine_symbian.o(.text)
    QtMobility::CFSEngine::filterMessageFolders(const QtMobility::QMessageFolderFilter&, bool&) const 0x000270b9   Thumb Code   100  qfsengine_symbian.o(.text)
    QtMobility::CFSEngine::handleNestedFiltersFromFolderFilter(QtMobility::QMessageFolderFilter&) const 0x0002711d   Thumb Code  1226  qfsengine_symbian.o(.text)
    QtMobility::CFSEngine::queryFolders(const QtMobility::QMessageFolderFilter&, const QtMobility::QMessageFolderSortOrder&, unsigned, unsigned) const 0x000275e7   Thumb Code   460  qfsengine_symbian.o(.text)
    QtMobility::CFSEngine::countFolders(const QtMobility::QMessageFolderFilter&) const 0x000277b3   Thumb Code    60  qfsengine_symbian.o(.text)
    QtMobility::CFSEngine::createFSMessageL(const QtMobility::QMessage&, const EmailInterface::MEmailMailbox*) 0x000277ef   Thumb Code  2228  qfsengine_symbian.o(.text)
    QtMobility::CFSEngine::addMessage(QtMobility::QMessage*) 0x000280a3   Thumb Code   308  qfsengine_symbian.o(.text)
    QtMobility::CFSEngine::fsMessageIdFromQMessageId(QtMobility::QMessageId) 0x000281d7   Thumb Code   274  qfsengine_symbian.o(.text)
    QtMobility::CFSEngine::updateMessageL(QtMobility::QMessage*) 0x000282e9   Thumb Code  2094  qfsengine_symbian.o(.text)
    QtMobility::CFSEngine::updateMessage(QtMobility::QMessage*) 0x00028b17   Thumb Code    76  qfsengine_symbian.o(.text)
    QtMobility::CFSEngine::removeMessage(const QtMobility::QMessageId&, QtMobility::QMessageManager::RemovalOption) 0x00028b63   Thumb Code   366  qfsengine_symbian.o(.text)
    QtMobility::CFSEngine::removeMessages(const QtMobility::QMessageFilter&, QtMobility::QMessageManager::RemovalOption) 0x00028cd1   Thumb Code     6  qfsengine_symbian.o(.text)
    QtMobility::CFSMessagesFindOperation::getAccountSpecificMessagesL(QtMobility::QMessageAccount&, EmailInterface::TEmailSortCriteria&) 0x00028cd7   Thumb Code   262  qfsengine_symbian.o(.text)
    QtMobility::CFSMessagesFindOperation::getAllMessagesL(EmailInterface::TEmailSortCriteria&) 0x00028ddd   Thumb Code   262  qfsengine_symbian.o(.text)
    QtMobility::CFSMessagesFindOperation::setPluginReferenceCount(EmailInterface::MEmailFolder*, unsigned) 0x00028ee3   Thumb Code    18  qfsengine_symbian.o(.text)
    QtMobility::CFSMessagesFindOperation::pluginReferenceCount(EmailInterface::MEmailFolder*) 0x00028ef5   Thumb Code    20  qfsengine_symbian.o(.text)
    QtMobility::CFSEngine::symbianTTimetoQDateTime(const TTime&) const 0x00028f09   Thumb Code   100  qfsengine_symbian.o(.text)
    QtMobility::CFSEngine::CreateQMessageL(QtMobility::QMessage*, const EmailInterface::MEmailMessage&) const 0x00028f6d   Thumb Code  1370  qfsengine_symbian.o(.text)
    QtMobility::CFSMessagesFindOperation::getFolderSpecificMessagesL(EmailInterface::MEmailFolder&, EmailInterface::TEmailSortCriteria) 0x000294c7   Thumb Code   310  qfsengine_symbian.o(.text)
    QtMobility::CFSEngine::standardFolderId(QtMobility::QMessage::StandardFolder) 0x000295fd   Thumb Code    42  qfsengine_symbian.o(.text)
    QtMobility::CFSEngine::message(QtMobility::QMessage*, const QtMobility::QMessageId&) const 0x00029627   Thumb Code   344  qfsengine_symbian.o(.text)
    QtMobility::CFSEngine::message(const QtMobility::QMessageId&) const 0x0002977f   Thumb Code   176  qfsengine_symbian.o(.text)
    QtMobility::CFSMessagesFindOperation::filterAndOrderMessagesL(const QList<QtMobility::QMessageFilter>&, const QtMobility::QMessageSortOrder&, QString, QFlags<QtMobility::QMessageDataComparator::MatchFlag>) 0x0002982f   Thumb Code  3416  qfsengine_symbian.o(.text)
    QtMobility::CFSMessagesFindOperation::filterAndOrderMessages(const QList<QtMobility::QMessageFilter>&, const QtMobility::QMessageSortOrder&, QString, QFlags<QtMobility::QMessageDataComparator::MatchFlag>) 0x0002a587   Thumb Code   100  qfsengine_symbian.o(.text)
    QtMobility::CFSMessagesFindOperation::filterAndOrderMessages(const QtMobility::QMessageFilter&, const QtMobility::QMessageSortOrder&, QString, QFlags<QtMobility::QMessageDataComparator::MatchFlag>) 0x0002a5eb   Thumb Code    76  qfsengine_symbian.o(.text)
    QtMobility::CFSEngine::doNextQuery() const 0x0002a637   Thumb Code   488  qfsengine_symbian.o(.text)
    QtMobility::CFSEngine::handleNestedFiltersFromMessageFilter(QtMobility::QMessageFilter&) const 0x0002a81f   Thumb Code  2252  qfsengine_symbian.o(.text)
    QtMobility::CFSMessagesFindOperation::CFSMessagesFindOperation(QtMobility::CFSEngine&, int) 0x0002b0eb   Thumb Code   200  qfsengine_symbian.o(.text)
    QtMobility::CFSMessagesFindOperation::CFSMessagesFindOperation__sub_object(QtMobility::CFSEngine&, int) 0x0002b0eb   Thumb Code     0  qfsengine_symbian.o(.text)
    QtMobility::CFSEngine::queryMessagesL(QtMobility::QMessageServicePrivate&, const QtMobility::QMessageFilter&, const QtMobility::QMessageSortOrder&, unsigned, unsigned) const 0x0002b1b3   Thumb Code   270  qfsengine_symbian.o(.text)
    QtMobility::CFSEngine::queryMessages(QtMobility::QMessageServicePrivate&, const QtMobility::QMessageFilter&, const QtMobility::QMessageSortOrder&, unsigned, unsigned) const 0x0002b2c1   Thumb Code    86  qfsengine_symbian.o(.text)
    QtMobility::CFSEngine::queryMessagesL(QtMobility::QMessageServicePrivate&, const QtMobility::QMessageFilter&, const QString&, QFlags<QtMobility::QMessageDataComparator::MatchFlag>, const QtMobility::QMessageSortOrder&, unsigned, unsigned) const 0x0002b317   Thumb Code   228  qfsengine_symbian.o(.text)
    QtMobility::CFSEngine::queryMessages(QtMobility::QMessageServicePrivate&, const QtMobility::QMessageFilter&, const QString&, QFlags<QtMobility::QMessageDataComparator::MatchFlag>, const QtMobility::QMessageSortOrder&, unsigned, unsigned) const 0x0002b3fb   Thumb Code    98  qfsengine_symbian.o(.text)
    QtMobility::CFSEngine::countMessagesL(QtMobility::QMessageServicePrivate&, const QtMobility::QMessageFilter&) 0x0002b45d   Thumb Code   262  qfsengine_symbian.o(.text)
    QtMobility::CFSEngine::countMessages(QtMobility::QMessageServicePrivate&, const QtMobility::QMessageFilter&) 0x0002b563   Thumb Code    82  qfsengine_symbian.o(.text)
    QtMobility::CFSEngine::showMessage(const QtMobility::QMessageId&) 0x0002b5b5   Thumb Code   266  qfsengine_symbian.o(.text)
    QtMobility::CFSEngine::composeMessage(const QtMobility::QMessage&) 0x0002b6bf   Thumb Code   186  qfsengine_symbian.o(.text)
    QtMobility::CFSEngine::sendEmail(QtMobility::QMessage&) 0x0002b779   Thumb Code   214  qfsengine_symbian.o(.text)
    QtMobility::CFSContentFetchOperation::fetch() 0x0002b84f   Thumb Code    78  qfsengine_symbian.o(.text)
    QtMobility::CFSContentFetchOperation::CFSContentFetchOperation(QtMobility::CFSEngine&, QtMobility::QMessageServicePrivate&, EmailInterface::MEmailMessageContent*, EmailInterface::MEmailMessage*) 0x0002b89d   Thumb Code    70  qfsengine_symbian.o(.text)
    QtMobility::CFSContentFetchOperation::CFSContentFetchOperation__sub_object(QtMobility::CFSEngine&, QtMobility::QMessageServicePrivate&, EmailInterface::MEmailMessageContent*, EmailInterface::MEmailMessage*) 0x0002b89d   Thumb Code     0  qfsengine_symbian.o(.text)
    QtMobility::CFSEngine::attachmentById(EmailInterface::TMessageContentId) const 0x0002b8e3   Thumb Code   368  qfsengine_symbian.o(.text)
    QtMobility::CFSEngine::retrieve(QtMobility::QMessageServicePrivate&, const QtMobility::QMessageId&, const QtMobility::QMessageContentContainerId&) 0x0002ba53   Thumb Code   212  qfsengine_symbian.o(.text)
    QtMobility::CFSEngine::textContentById(EmailInterface::TMessageContentId, EmailInterface::MEmailMessageContent*) const 0x0002bb27   Thumb Code   266  qfsengine_symbian.o(.text)
    QtMobility::CFSEngine::retrieveBody(QtMobility::QMessageServicePrivate&, const QtMobility::QMessageId&) 0x0002bc31   Thumb Code   516  qfsengine_symbian.o(.text)
