ARM Linker, RVCT2.2 [Build 686]

================================================================================

Image Symbol Table

    Local Symbols

    Symbol Name                              Value     Ov Type        Size  Object(Section)

    ../../unhosted.s                         0x00000000   Number         0  switch8.o ABSOLUTE
    M:\\epoc32\\build\\euser\\c_e18a23aea4fd210f\\edll_lib\\armv5\\udeb\\uc_dll_.cpp 0x00000000   Number         0  uc_dll_.o ABSOLUTE
    M:\\sf\\os\\kernelhwsrv\\kernel\\eka\\compsupp\\rvct\\ucppinit.cpp 0x00000000   Number         0  ucppinit.o ABSOLUTE
    M:\epoc32\build\euser\c_e18a23aea4fd210f\edll_lib\armv5\udeb\uc_dll_.cpp 0x00000000   Number         0  uc_dll_.o ABSOLUTE
    M:\sf\os\kernelhwsrv\kernel\eka\compsupp\rvct\dllexp.cpp 0x00000000   Number         0  dllexp.o ABSOLUTE
    M:\sf\os\kernelhwsrv\kernel\eka\compsupp\rvct\ucppfini.cpp 0x00000000   Number         0  ucppfini.o ABSOLUTE
    M:\sf\os\kernelhwsrv\kernel\eka\compsupp\rvct\ucppinit.cpp 0x00000000   Number         0  ucppinit.o ABSOLUTE
    M:\sf\os\kernelhwsrv\kernel\eka\euser\epoc\arm\uc_dll.cpp 0x00000000   Number         0  uc_dll.o ABSOLUTE
    S:\sf\mw\qtmobility\build\Release\QtMultimediaKit\moc\moc_qaudio_symbian_p.cpp 0x00000000   Number         0  moc_qaudio_symbian_p.o ABSOLUTE
    S:\sf\mw\qtmobility\src\multimedia\audio\qaudio.cpp 0x00000000   Number         0  qaudio.o ABSOLUTE
    S:\sf\mw\qtmobility\src\multimedia\audio\qaudio_symbian_p.cpp 0x00000000   Number         0  qaudio_symbian_p.o ABSOLUTE
    S:\sf\mw\qtmobility\src\multimedia\audio\qaudiodevicefactory.cpp 0x00000000   Number         0  qaudiodevicefactory.o ABSOLUTE
    S:\sf\mw\qtmobility\src\multimedia\audio\qaudiodeviceinfo.cpp 0x00000000   Number         0  qaudiodeviceinfo.o ABSOLUTE
    S:\sf\mw\qtmobility\src\multimedia\audio\qaudiodeviceinfo_symbian_p.cpp 0x00000000   Number         0  qaudiodeviceinfo_symbian_p.o ABSOLUTE
    S:\sf\mw\qtmobility\src\multimedia\audio\qaudioformat.cpp 0x00000000   Number         0  qaudioformat.o ABSOLUTE
    S:\sf\mw\qtmobility\src\multimedia\audio\qaudioinput.cpp 0x00000000   Number         0  qaudioinput.o ABSOLUTE
    S:\sf\mw\qtmobility\src\multimedia\audio\qaudioinput_symbian_p.cpp 0x00000000   Number         0  qaudioinput_symbian_p.o ABSOLUTE
    S:\sf\mw\qtmobility\src\multimedia\audio\qaudiooutput.cpp 0x00000000   Number         0  qaudiooutput.o ABSOLUTE
    S:\sf\mw\qtmobility\src\multimedia\audio\qaudiooutput_symbian_p.cpp 0x00000000   Number         0  qaudiooutput_symbian_p.o ABSOLUTE
    S:\sf\mw\qtmobility\src\multimedia\audio\qaudiopluginloader.cpp 0x00000000   Number         0  qaudiopluginloader.o ABSOLUTE
    S:\sf\mw\qtmobility\src\multimedia\audio\qaudiosystem.cpp 0x00000000   Number         0  qaudiosystem.o ABSOLUTE
    S:\sf\mw\qtmobility\src\multimedia\audio\qaudiosystemplugin.cpp 0x00000000   Number         0  qaudiosystemplugin.o ABSOLUTE
    S:\sf\mw\qtmobility\src\multimedia\effects\qsamplecache_p.cpp 0x00000000   Number         0  qsamplecache_p.o ABSOLUTE
    S:\sf\mw\qtmobility\src\multimedia\effects\qsoundeffect.cpp 0x00000000   Number         0  qsoundeffect.o ABSOLUTE
    S:\sf\mw\qtmobility\src\multimedia\effects\qsoundeffect_qsound_p.cpp 0x00000000   Number         0  qsoundeffect_qsound_p.o ABSOLUTE
    S:\sf\mw\qtmobility\src\multimedia\effects\qwavedecoder_p.cpp 0x00000000   Number         0  qwavedecoder_p.o ABSOLUTE
    S:\sf\mw\qtmobility\src\multimedia\qaudiocapturesource.cpp 0x00000000   Number         0  qaudiocapturesource.o ABSOLUTE
    S:\sf\mw\qtmobility\src\multimedia\qaudioencodercontrol.cpp 0x00000000   Number         0  qaudioencodercontrol.o ABSOLUTE
    S:\sf\mw\qtmobility\src\multimedia\qaudioendpointselector.cpp 0x00000000   Number         0  qaudioendpointselector.o ABSOLUTE
    S:\sf\mw\qtmobility\src\multimedia\qcamera.cpp 0x00000000   Number         0  qcamera.o ABSOLUTE
    S:\sf\mw\qtmobility\src\multimedia\qcameracontrol.cpp 0x00000000   Number         0  qcameracontrol.o ABSOLUTE
    S:\sf\mw\qtmobility\src\multimedia\qcameraexposure.cpp 0x00000000   Number         0  qcameraexposure.o ABSOLUTE
    S:\sf\mw\qtmobility\src\multimedia\qcameraexposurecontrol.cpp 0x00000000   Number         0  qcameraexposurecontrol.o ABSOLUTE
    S:\sf\mw\qtmobility\src\multimedia\qcameraflashcontrol.cpp 0x00000000   Number         0  qcameraflashcontrol.o ABSOLUTE
    S:\sf\mw\qtmobility\src\multimedia\qcamerafocus.cpp 0x00000000   Number         0  qcamerafocus.o ABSOLUTE
    S:\sf\mw\qtmobility\src\multimedia\qcamerafocuscontrol.cpp 0x00000000   Number         0  qcamerafocuscontrol.o ABSOLUTE
    S:\sf\mw\qtmobility\src\multimedia\qcameraimagecapture.cpp 0x00000000   Number         0  qcameraimagecapture.o ABSOLUTE
    S:\sf\mw\qtmobility\src\multimedia\qcameraimagecapturecontrol.cpp 0x00000000   Number         0  qcameraimagecapturecontrol.o ABSOLUTE
    S:\sf\mw\qtmobility\src\multimedia\qcameraimageprocessing.cpp 0x00000000   Number         0  qcameraimageprocessing.o ABSOLUTE
    S:\sf\mw\qtmobility\src\multimedia\qcameraimageprocessingcontrol.cpp 0x00000000   Number         0  qcameraimageprocessingcontrol.o ABSOLUTE
    S:\sf\mw\qtmobility\src\multimedia\qcameralockscontrol.cpp 0x00000000   Number         0  qcameralockscontrol.o ABSOLUTE
    S:\sf\mw\qtmobility\src\multimedia\qcameraviewfinder.cpp 0x00000000   Number         0  qcameraviewfinder.o ABSOLUTE
    S:\sf\mw\qtmobility\src\multimedia\qgraphicsvideoitem_symbian.cpp 0x00000000   Number         0  qgraphicsvideoitem_symbian.o ABSOLUTE
    S:\sf\mw\qtmobility\src\multimedia\qimageencodercontrol.cpp 0x00000000   Number         0  qimageencodercontrol.o ABSOLUTE
    S:\sf\mw\qtmobility\src\multimedia\qlocalmediaplaylistprovider.cpp 0x00000000   Number         0  qlocalmediaplaylistprovider.o ABSOLUTE
    S:\sf\mw\qtmobility\src\multimedia\qmediabindableinterface.cpp 0x00000000   Number         0  qmediabindableinterface.o ABSOLUTE
    S:\sf\mw\qtmobility\src\multimedia\qmediacontainercontrol.cpp 0x00000000   Number         0  qmediacontainercontrol.o ABSOLUTE
    S:\sf\mw\qtmobility\src\multimedia\qmediacontent.cpp 0x00000000   Number         0  qmediacontent.o ABSOLUTE
    S:\sf\mw\qtmobility\src\multimedia\qmediacontrol.cpp 0x00000000   Number         0  qmediacontrol.o ABSOLUTE
    S:\sf\mw\qtmobility\src\multimedia\qmediaencodersettings.cpp 0x00000000   Number         0  qmediaencodersettings.o ABSOLUTE
    S:\sf\mw\qtmobility\src\multimedia\qmediaimageviewer.cpp 0x00000000   Number         0  qmediaimageviewer.o ABSOLUTE
    S:\sf\mw\qtmobility\src\multimedia\qmediaimageviewerservice.cpp 0x00000000   Number         0  qmediaimageviewerservice.o ABSOLUTE
    S:\sf\mw\qtmobility\src\multimedia\qmediaobject.cpp 0x00000000   Number         0  qmediaobject.o ABSOLUTE
    S:\sf\mw\qtmobility\src\multimedia\qmediaplayer.cpp 0x00000000   Number         0  qmediaplayer.o ABSOLUTE
    S:\sf\mw\qtmobility\src\multimedia\qmediaplayercontrol.cpp 0x00000000   Number         0  qmediaplayercontrol.o ABSOLUTE
    S:\sf\mw\qtmobility\src\multimedia\qmediaplaylist.cpp 0x00000000   Number         0  qmediaplaylist.o ABSOLUTE
    S:\sf\mw\qtmobility\src\multimedia\qmediaplaylistcontrol.cpp 0x00000000   Number         0  qmediaplaylistcontrol.o ABSOLUTE
    S:\sf\mw\qtmobility\src\multimedia\qmediaplaylistioplugin.cpp 0x00000000   Number         0  qmediaplaylistioplugin.o ABSOLUTE
    S:\sf\mw\qtmobility\src\multimedia\qmediaplaylistnavigator.cpp 0x00000000   Number         0  qmediaplaylistnavigator.o ABSOLUTE
    S:\sf\mw\qtmobility\src\multimedia\qmediaplaylistprovider.cpp 0x00000000   Number         0  qmediaplaylistprovider.o ABSOLUTE
    S:\sf\mw\qtmobility\src\multimedia\qmediaplaylistsourcecontrol.cpp 0x00000000   Number         0  qmediaplaylistsourcecontrol.o ABSOLUTE
    S:\sf\mw\qtmobility\src\multimedia\qmediapluginloader.cpp 0x00000000   Number         0  qmediapluginloader.o ABSOLUTE
    S:\sf\mw\qtmobility\src\multimedia\qmediarecorder.cpp 0x00000000   Number         0  qmediarecorder.o ABSOLUTE
    S:\sf\mw\qtmobility\src\multimedia\qmediarecordercontrol.cpp 0x00000000   Number         0  qmediarecordercontrol.o ABSOLUTE
    S:\sf\mw\qtmobility\src\multimedia\qmediaresource.cpp 0x00000000   Number         0  qmediaresource.o ABSOLUTE
    S:\sf\mw\qtmobility\src\multimedia\qmediaservice.cpp 0x00000000   Number         0  qmediaservice.o ABSOLUTE
    S:\sf\mw\qtmobility\src\multimedia\qmediaserviceprovider.cpp 0x00000000   Number         0  qmediaserviceprovider.o ABSOLUTE
    S:\sf\mw\qtmobility\src\multimedia\qmediastreamscontrol.cpp 0x00000000   Number         0  qmediastreamscontrol.o ABSOLUTE
    S:\sf\mw\qtmobility\src\multimedia\qmediatimerange.cpp 0x00000000   Number         0  qmediatimerange.o ABSOLUTE
    S:\sf\mw\qtmobility\src\multimedia\qmetadatareadercontrol.cpp 0x00000000   Number         0  qmetadatareadercontrol.o ABSOLUTE
    S:\sf\mw\qtmobility\src\multimedia\qmetadatawritercontrol.cpp 0x00000000   Number         0  qmetadatawritercontrol.o ABSOLUTE
    S:\sf\mw\qtmobility\src\multimedia\qpaintervideosurface.cpp 0x00000000   Number         0  qpaintervideosurface.o ABSOLUTE
    S:\sf\mw\qtmobility\src\multimedia\qradiotuner.cpp 0x00000000   Number         0  qradiotuner.o ABSOLUTE
    S:\sf\mw\qtmobility\src\multimedia\qradiotunercontrol.cpp 0x00000000   Number         0  qradiotunercontrol.o ABSOLUTE
    S:\sf\mw\qtmobility\src\multimedia\qvideodevicecontrol.cpp 0x00000000   Number         0  qvideodevicecontrol.o ABSOLUTE
    S:\sf\mw\qtmobility\src\multimedia\qvideoencodercontrol.cpp 0x00000000   Number         0  qvideoencodercontrol.o ABSOLUTE
    S:\sf\mw\qtmobility\src\multimedia\qvideorenderercontrol.cpp 0x00000000   Number         0  qvideorenderercontrol.o ABSOLUTE
    S:\sf\mw\qtmobility\src\multimedia\qvideowidget.cpp 0x00000000   Number         0  qvideowidget.o ABSOLUTE
    S:\sf\mw\qtmobility\src\multimedia\qvideowidgetcontrol.cpp 0x00000000   Number         0  qvideowidgetcontrol.o ABSOLUTE
    S:\sf\mw\qtmobility\src\multimedia\qvideowindowcontrol.cpp 0x00000000   Number         0  qvideowindowcontrol.o ABSOLUTE
    S:\sf\mw\qtmobility\src\multimedia\video\qabstractvideobuffer.cpp 0x00000000   Number         0  qabstractvideobuffer.o ABSOLUTE
    S:\sf\mw\qtmobility\src\multimedia\video\qabstractvideosurface.cpp 0x00000000   Number         0  qabstractvideosurface.o ABSOLUTE
    S:\sf\mw\qtmobility\src\multimedia\video\qimagevideobuffer.cpp 0x00000000   Number         0  qimagevideobuffer.o ABSOLUTE
    S:\sf\mw\qtmobility\src\multimedia\video\qmemoryvideobuffer.cpp 0x00000000   Number         0  qmemoryvideobuffer.o ABSOLUTE
    S:\sf\mw\qtmobility\src\multimedia\video\qvideoframe.cpp 0x00000000   Number         0  qvideoframe.o ABSOLUTE
    S:\sf\mw\qtmobility\src\multimedia\video\qvideosurfaceformat.cpp 0x00000000   Number         0  qvideosurfaceformat.o ABSOLUTE
    .emb_text                                0x00008000   Section       40  uc_dll_.o(.emb_text)
    Symbian$$eit_base                        0x00008014   Data           4  uc_dll_.o(.emb_text)
    Symbian$$eit_limit                       0x00008018   Data           4  uc_dll_.o(.emb_text)
    Symbian$$code_seg_base                   0x0000801c   Data           4  uc_dll_.o(.emb_text)
    Symbian$$code_seg_limit                  0x00008020   Data           4  uc_dll_.o(.emb_text)
    Symbian$$reserved                        0x00008024   Data           4  uc_dll_.o(.emb_text)
    .emb_text                                0x00008028   Section       52  ucppinit.o(.emb_text)
    loop                                     0x0000803c   ARM Code       0  ucppinit.o(.emb_text)
    ret                                      0x00008044   ARM Code       0  ucppinit.o(.emb_text)
    base                                     0x00008054   Data           0  ucppinit.o(.emb_text)
    limit                                    0x00008058   Data           0  ucppinit.o(.emb_text)
    .text                                    0x00008c64   Section      308  moc_qaudio_symbian_p.o(.text)
    .text                                    0x00008d98   Section      268  qmediacontrol.o(.text)
    .text                                    0x00008ea4   Section     2892  qmediaobject.o(.text)
    .text                                    0x000099f0   Section      272  qmediaservice.o(.text)
    .text                                    0x00009b00   Section       24  qmediabindableinterface.o(.text)
    .text                                    0x00009b18   Section     1112  qlocalmediaplaylistprovider.o(.text)
    .text                                    0x00009f70   Section     2832  qmediaimageviewer.o(.text)
    |L1.940|                                 0x0000a31c   Data           0  qmediaimageviewer.o(.text)
    |L1.980|                                 0x0000a344   Data           0  qmediaimageviewer.o(.text)
    |L1.1016|                                0x0000a368   Data           0  qmediaimageviewer.o(.text)
    |L1.1040|                                0x0000a380   Data           0  qmediaimageviewer.o(.text)
    |L1.1056|                                0x0000a390   Data           0  qmediaimageviewer.o(.text)
    .text                                    0x0000aa80   Section     3844  qmediaimageviewerservice.o(.text)
    |L1.2204|                                0x0000b31c   Data           0  qmediaimageviewerservice.o(.text)
    playerService(QFlags<QMediaPlayer::Flag>, QMediaServiceProvider*) 0x0000b985   Thumb Code   224  qmediaplayer.o(.text)
    .text                                    0x0000b984   Section     5680  qmediaplayer.o(.text)
    |L1.1132|                                0x0000bdf0   Data           0  qmediaplayer.o(.text)
    |L1.1176|                                0x0000be1c   Data           0  qmediaplayer.o(.text)
    |L1.2580|                                0x0000c398   Data           0  qmediaplayer.o(.text)
    |L1.2592|                                0x0000c3a4   Data           0  qmediaplayer.o(.text)
    __sti___16_qmediaplayer_cpp              0x0000cf4b   Thumb Code    28  qmediaplayer.o(.text)
    .text                                    0x0000cfb4   Section      864  qmediaplayercontrol.o(.text)
    playlistIOLoader()                       0x0000d315   Thumb Code   218  qmediaplaylist.o(.text)
    .text                                    0x0000d314   Section     5324  qmediaplaylist.o(.text)
    |L1.3576|                                0x0000e10c   Data           0  qmediaplaylist.o(.text)
    .text                                    0x0000e7e0   Section      440  qmediaplaylistioplugin.o(.text)
    _q_nullMediaPlaylist()                   0x0000e999   Thumb Code   174  qmediaplaylistnavigator.o(.text)
    .text                                    0x0000e998   Section     3072  qmediaplaylistnavigator.o(.text)
    .text                                    0x0000f598   Section     1224  qmediaplaylistprovider.o(.text)
    .text                                    0x0000fa60   Section     5656  qmediarecorder.o(.text)
    |L1.2052|                                0x00010264   Data           0  qmediarecorder.o(.text)
    |L1.2092|                                0x0001028c   Data           0  qmediarecorder.o(.text)
    |L1.2132|                                0x000102b4   Data           0  qmediarecorder.o(.text)
    |L1.2152|                                0x000102c8   Data           0  qmediarecorder.o(.text)
    |L1.2180|                                0x000102e4   Data           0  qmediarecorder.o(.text)
    |L1.2204|                                0x000102fc   Data           0  qmediarecorder.o(.text)
    |L1.2224|                                0x00010310   Data           0  qmediarecorder.o(.text)
    |L1.2248|                                0x00010328   Data           0  qmediarecorder.o(.text)
    |L1.2264|                                0x00010338   Data           0  qmediarecorder.o(.text)
    |L1.2284|                                0x0001034c   Data           0  qmediarecorder.o(.text)
    |L1.2316|                                0x0001036c   Data           0  qmediarecorder.o(.text)
    |L1.2348|                                0x0001038c   Data           0  qmediarecorder.o(.text)
    __sti___18_qmediarecorder_cpp            0x0001102f   Thumb Code    20  qmediarecorder.o(.text)
    .text                                    0x00011078   Section     1900  qmediaencodersettings.o(.text)
    .text                                    0x000117e4   Section      440  qmediarecordercontrol.o(.text)
    .text                                    0x0001199c   Section      744  qmediacontent.o(.text)
    .text                                    0x00011c84   Section     2352  qmediaresource.o(.text)
    loader()                                 0x000125b5   Thumb Code   218  qmediaserviceprovider.o(.text)
    .text                                    0x000125b4   Section     1656  qmediaserviceprovider.o(.text)
    pluginProvider()                         0x0001268f   Thumb Code   222  qmediaserviceprovider.o(.text)
    |L1.956|                                 0x00012970   Data           0  qmediaserviceprovider.o(.text)
    .text                                    0x00012c2c   Section      296  qmetadatareadercontrol.o(.text)
    .text                                    0x00012d54   Section      344  qmetadatawritercontrol.o(.text)
    .text                                    0x00012eac   Section      276  qmediastreamscontrol.o(.text)
    .text                                    0x00012fc0   Section     2684  qradiotuner.o(.text)
    .text                                    0x00013a3c   Section      628  qradiotunercontrol.o(.text)
    .text                                    0x00013cb0   Section     8220  qvideowidget.o(.text)
    |L1.2220|                                0x0001455c   Data           0  qvideowidget.o(.text)
    |L1.2244|                                0x00014574   Data           0  qvideowidget.o(.text)
    |L1.3172|                                0x00014914   Data           0  qvideowidget.o(.text)
    |L1.3200|                                0x00014930   Data           0  qvideowidget.o(.text)
    |L1.3224|                                0x00014948   Data           0  qvideowidget.o(.text)
    |L1.3252|                                0x00014964   Data           0  qvideowidget.o(.text)
    |L1.3276|                                0x0001497c   Data           0  qvideowidget.o(.text)
    |L1.3296|                                0x00014990   Data           0  qvideowidget.o(.text)
    |L1.3316|                                0x000149a4   Data           0  qvideowidget.o(.text)
    |L1.3344|                                0x000149c0   Data           0  qvideowidget.o(.text)
    .text                                    0x00015ccc   Section      448  qvideowindowcontrol.o(.text)
    .text                                    0x00015e8c   Section      424  qvideowidgetcontrol.o(.text)
    .text                                    0x00016034   Section      180  qaudioencodercontrol.o(.text)
    .text                                    0x000160e8   Section      180  qvideoencodercontrol.o(.text)
    .text                                    0x0001619c   Section      180  qimageencodercontrol.o(.text)
    .text                                    0x00016250   Section     1050  qaudiocapturesource.o(.text)
    .text                                    0x0001666c   Section      180  qmediacontainercontrol.o(.text)
    .text                                    0x00016720   Section      388  qmediaplaylistcontrol.o(.text)
    .text                                    0x000168a4   Section      260  qmediaplaylistsourcecontrol.o(.text)
    .text                                    0x000169a8   Section      284  qaudioendpointselector.o(.text)
    .text                                    0x00016ac4   Section      332  qvideodevicecontrol.o(.text)
    staticMediaPlugins()                     0x00016c11   Thumb Code   172  qmediapluginloader.o(.text)
    .text                                    0x00016c10   Section     2228  qmediapluginloader.o(.text)
    .text                                    0x000174c4   Section     2284  qpaintervideosurface.o(.text)
    .text                                    0x00017db0   Section      180  qvideorenderercontrol.o(.text)
    .text                                    0x00017e64   Section     2658  qmediatimerange.o(.text)
    .text                                    0x000188c8   Section     5332  qcamera.o(.text)
    |L1.3336|                                0x000195d0   Data           0  qcamera.o(.text)
    |L1.3520|                                0x00019688   Data           0  qcamera.o(.text)
    |L1.4592|                                0x00019ab8   Data           0  qcamera.o(.text)
    __sti___11_qcamera_cpp                   0x00019cdd   Thumb Code    10  qcamera.o(.text)
    <unnamed>::CameraRegisterMetaTypes::CameraRegisterMetaTypes() 0x00019ce7   Thumb Code    56  qcamera.o(.text)
    <unnamed>::CameraRegisterMetaTypes::CameraRegisterMetaTypes__sub_object() 0x00019ce7   Thumb Code     0  qcamera.o(.text)
    .text                                    0x00019d9c   Section      440  qcameraviewfinder.o(.text)
    .text                                    0x00019f54   Section     4000  qcameraexposure.o(.text)
    __sti___19_qcameraexposure_cpp           0x0001ae77   Thumb Code    28  qcameraexposure.o(.text)
    qFuzzyCompare(float, float)              0x0001aef5   Thumb Code    84  qcamerafocus.o(.text)
    .text                                    0x0001aef4   Section     2904  qcamerafocus.o(.text)
    |L1.1076|                                0x0001b328   Data           0  qcamerafocus.o(.text)
    __sti___16_qcamerafocus_cpp              0x0001b8ff   Thumb Code   334  qcamerafocus.o(.text)
    .text                                    0x0001ba4c   Section     1592  qcameraimageprocessing.o(.text)
    .text                                    0x0001c084   Section     3108  qcameraimagecapture.o(.text)
    __sti___23_qcameraimagecapture_cpp       0x0001cc7f   Thumb Code    12  qcameraimagecapture.o(.text)
    .text                                    0x0001cca8   Section      460  qcameraimagecapturecontrol.o(.text)
    .text                                    0x0001ce74   Section      416  qcameracontrol.o(.text)
    .text                                    0x0001d014   Section      280  qcameralockscontrol.o(.text)
    .text                                    0x0001d12c   Section      360  qcameraexposurecontrol.o(.text)
    .text                                    0x0001d294   Section      428  qcamerafocuscontrol.o(.text)
    .text                                    0x0001d440   Section      260  qcameraflashcontrol.o(.text)
    .text                                    0x0001d544   Section      204  qcameraimageprocessingcontrol.o(.text)
    qFuzzyCompare(float, float)              0x0001d611   Thumb Code    84  qgraphicsvideoitem_symbian.o(.text)
    .text                                    0x0001d610   Section     6352  qgraphicsvideoitem_symbian.o(.text)
    __sti___30_qgraphicsvideoitem_symbian_cpp 0x0001eead   Thumb Code    16  qgraphicsvideoitem_symbian.o(.text)
    qFuzzyIsNull(float)                      0x0001eebd   Thumb Code    26  qgraphicsvideoitem_symbian.o(.text)
    __sti___10_qaudio_cpp                    0x0001eee1   Thumb Code    36  qaudio.o(.text)
    .text                                    0x0001eee0   Section       36  qaudio.o(.text)
    .text                                    0x0001ef04   Section      636  qaudioformat.o(.text)
    .text                                    0x0001f180   Section     3614  qaudiodeviceinfo.o(.text)
    .text                                    0x0001ffa0   Section      740  qaudiooutput.o(.text)
    .text                                    0x00020284   Section      740  qaudioinput.o(.text)
    .text                                    0x00020568   Section      400  qaudiosystemplugin.o(.text)
    .text                                    0x000206f8   Section      620  qaudiosystem.o(.text)
    audioLoader()                            0x00020965   Thumb Code   208  qaudiodevicefactory.o(.text)
    .text                                    0x00020964   Section     2306  qaudiodevicefactory.o(.text)
    |L1.1092|                                0x00020da8   Data           0  qaudiodevicefactory.o(.text)
    |L1.1100|                                0x00020db0   Data           0  qaudiodevicefactory.o(.text)
    .text                                    0x00021268   Section     1328  qaudiopluginloader.o(.text)
    .text                                    0x00021798   Section     2496  qaudio_symbian_p.o(.text)
    |L1.948|                                 0x00021b4c   Data           0  qaudio_symbian_p.o(.text)
    .text                                    0x00022158   Section     2280  qaudiodeviceinfo_symbian_p.o(.text)
    .text                                    0x00022a40   Section     3808  qaudioinput_symbian_p.o(.text)
    |L1.1036|                                0x00022e4c   Data           0  qaudioinput_symbian_p.o(.text)
    .text                                    0x00023920   Section     4184  qaudiooutput_symbian_p.o(.text)
    |L1.1012|                                0x00023d14   Data           0  qaudiooutput_symbian_p.o(.text)
    .text                                    0x00024978   Section     1196  qsoundeffect_qsound_p.o(.text)
    .text                                    0x00024e24   Section     1316  qsoundeffect.o(.text)
    .text                                    0x00025348   Section     1724  qwavedecoder_p.o(.text)
    |L1.992|                                 0x00025728   Data           0  qwavedecoder_p.o(.text)
    |L1.1024|                                0x00025748   Data           0  qwavedecoder_p.o(.text)
    |L1.1040|                                0x00025758   Data           0  qwavedecoder_p.o(.text)
    .text                                    0x00025a04   Section     2968  qsamplecache_p.o(.text)
    |L1.944|                                 0x00025db4   Data           0  qsamplecache_p.o(.text)
    .text                                    0x0002659c   Section      208  qabstractvideobuffer.o(.text)
    .text                                    0x0002666c   Section     1572  qabstractvideosurface.o(.text)
    |L1.1020|                                0x00026a68   Data           0  qabstractvideosurface.o(.text)
    |L1.1064|                                0x00026a94   Data           0  qabstractvideosurface.o(.text)
    |L1.1076|                                0x00026aa0   Data           0  qabstractvideosurface.o(.text)
    |L1.1088|                                0x00026aac   Data           0  qabstractvideosurface.o(.text)
    .text                                    0x00026c90   Section      276  qimagevideobuffer.o(.text)
    .text                                    0x00026da4   Section      308  qmemoryvideobuffer.o(.text)
    .text                                    0x00026ed8   Section     1438  qvideoframe.o(.text)
    .text                                    0x00027478   Section     5184  qvideosurfaceformat.o(.text)
    |L1.1068|                                0x000278a4   Data           0  qvideosurfaceformat.o(.text)
    |L1.1080|                                0x000278b0   Data           0  qvideosurfaceformat.o(.text)
    |L1.1092|                                0x000278bc   Data           0  qvideosurfaceformat.o(.text)
    |L1.1104|                                0x000278c8   Data           0  qvideosurfaceformat.o(.text)
    |L1.1116|                                0x000278d4   Data           0  qvideosurfaceformat.o(.text)
    |L1.1128|                                0x000278e0   Data           0  qvideosurfaceformat.o(.text)
    |L1.1140|                                0x000278ec   Data           0  qvideosurfaceformat.o(.text)
    |L1.1160|                                0x00027900   Data           0  qvideosurfaceformat.o(.text)
    |L1.1172|                                0x0002790c   Data           0  qvideosurfaceformat.o(.text)
    |L1.1192|                                0x00027920   Data           0  qvideosurfaceformat.o(.text)
    |L1.1204|                                0x0002792c   Data           0  qvideosurfaceformat.o(.text)
    .text                                    0x000288b8   Section       24  switch8.o(.text)
    .text                                    0x000288d0   Section       80  uc_dll.o(.text)
    .text                                    0x00028920   Section      180  ucppfini.o(.text)
    .text                                    0x000289d4   Section        4  dllexp.o(.text)
    .text.clean                              0x000289d8   Section       20  qmediacontrol.o(.text.clean)
    .text.clean                              0x000289ec   Section      226  qmediaobject.o(.text.clean)
    .text.clean                              0x00028ace   Section       20  qmediaservice.o(.text.clean)
    .text.clean                              0x00028ae2   Section       50  qlocalmediaplaylistprovider.o(.text.clean)
    .text.clean                              0x00028b14   Section      134  qmediaimageviewer.o(.text.clean)
    .text.clean                              0x00028b9a   Section      440  qmediaimageviewerservice.o(.text.clean)
    .text.clean                              0x00028d52   Section      222  qmediaplayer.o(.text.clean)
    .text.clean                              0x00028e30   Section       14  qmediaplayercontrol.o(.text.clean)
    .text.clean                              0x00028e40   Section      316  qmediaplaylist.o(.text.clean)
    .text.clean                              0x00028f7c   Section        8  qmediaplaylistioplugin.o(.text.clean)
    .text.clean                              0x00028f84   Section      184  qmediaplaylistnavigator.o(.text.clean)
    .text.clean                              0x0002903c   Section       40  qmediaplaylistprovider.o(.text.clean)
    .text.clean                              0x00029064   Section      484  qmediarecorder.o(.text.clean)
    .text.clean                              0x00029248   Section       50  qmediaencodersettings.o(.text.clean)
    .text.clean                              0x0002927a   Section      142  qmediacontent.o(.text.clean)
    .text.clean                              0x00029308   Section      354  qmediaresource.o(.text.clean)
    .text.clean                              0x0002946c   Section      132  qmediaserviceprovider.o(.text.clean)
    .text.clean                              0x000294f0   Section       14  qmetadatareadercontrol.o(.text.clean)
    .text.clean                              0x000294fe   Section       14  qmetadatawritercontrol.o(.text.clean)
    .text.clean                              0x0002950c   Section       14  qmediastreamscontrol.o(.text.clean)
    .text.clean                              0x0002951a   Section       38  qradiotuner.o(.text.clean)
    .text.clean                              0x00029540   Section       14  qradiotunercontrol.o(.text.clean)
    .text.clean                              0x0002954e   Section      284  qvideowidget.o(.text.clean)
    .text.clean                              0x0002966a   Section       62  qaudiocapturesource.o(.text.clean)
    .text.clean                              0x000296a8   Section       14  qmediaplaylistcontrol.o(.text.clean)
    .text.clean                              0x000296b6   Section       14  qmediaplaylistsourcecontrol.o(.text.clean)
    .text.clean                              0x000296c4   Section      272  qmediapluginloader.o(.text.clean)
    .text.clean                              0x000297d4   Section      122  qpaintervideosurface.o(.text.clean)
    .text.clean                              0x0002984e   Section      174  qmediatimerange.o(.text.clean)
    .text.clean                              0x000298fc   Section      276  qcamera.o(.text.clean)
    .text.clean                              0x00029a10   Section       18  qcameraviewfinder.o(.text.clean)
    .text.clean                              0x00029a22   Section      220  qcameraexposure.o(.text.clean)
    .text.clean                              0x00029afe   Section       82  qcamerafocus.o(.text.clean)
    .text.clean                              0x00029b50   Section      194  qcameraimageprocessing.o(.text.clean)
    .text.clean                              0x00029c12   Section      180  qcameraimagecapture.o(.text.clean)
    .text.clean                              0x00029cc6   Section       14  qcameracontrol.o(.text.clean)
    .text.clean                              0x00029cd4   Section       14  qcameralockscontrol.o(.text.clean)
    .text.clean                              0x00029ce2   Section       14  qcameraexposurecontrol.o(.text.clean)
    .text.clean                              0x00029cf0   Section       14  qcamerafocuscontrol.o(.text.clean)
    .text.clean                              0x00029cfe   Section       14  qcameraflashcontrol.o(.text.clean)
    .text.clean                              0x00029d0c   Section       14  qcameraimageprocessingcontrol.o(.text.clean)
    .text.clean                              0x00029d1a   Section      328  qgraphicsvideoitem_symbian.o(.text.clean)
    .text.clean                              0x00029e62   Section       14  qaudioformat.o(.text.clean)
    .text.clean                              0x00029e70   Section      476  qaudiodeviceinfo.o(.text.clean)
    .text.clean                              0x0002a04c   Section       30  qaudiooutput.o(.text.clean)
    .text.clean                              0x0002a06a   Section       30  qaudioinput.o(.text.clean)
    .text.clean                              0x0002a088   Section        8  qaudiosystemplugin.o(.text.clean)
    .text.clean                              0x0002a090   Section      416  qaudiodevicefactory.o(.text.clean)
    .text.clean                              0x0002a230   Section      258  qaudiopluginloader.o(.text.clean)
    .text.clean                              0x0002a332   Section      232  qaudio_symbian_p.o(.text.clean)
    .text.clean                              0x0002a41a   Section      208  qaudiodeviceinfo_symbian_p.o(.text.clean)
    .text.clean                              0x0002a4ea   Section      202  qaudioinput_symbian_p.o(.text.clean)
    .text.clean                              0x0002a5b4   Section      164  qaudiooutput_symbian_p.o(.text.clean)
    .text.clean                              0x0002a658   Section       94  qsoundeffect_qsound_p.o(.text.clean)
    .text.clean                              0x0002a6b6   Section       50  qsoundeffect.o(.text.clean)
    .text.clean                              0x0002a6e8   Section       42  qwavedecoder_p.o(.text.clean)
    .text.clean                              0x0002a712   Section      322  qsamplecache_p.o(.text.clean)
    .text.clean                              0x0002a854   Section        4  qabstractvideobuffer.o(.text.clean)
    .text.clean                              0x0002a858   Section      222  qabstractvideosurface.o(.text.clean)
    .text.clean                              0x0002a936   Section       24  qimagevideobuffer.o(.text.clean)
    .text.clean                              0x0002a94e   Section       24  qmemoryvideobuffer.o(.text.clean)
    .text.clean                              0x0002a966   Section      122  qvideoframe.o(.text.clean)
    .text.clean                              0x0002a9e0   Section      240  qvideosurfaceformat.o(.text.clean)
    i._Z20qvariant_cast_helperRK8QVariantNS_4TypeEPv 0x0002aad0   Section       32  qmediaresource.o(i._Z20qvariant_cast_helperRK8QVariantNS_4TypeEPv)
    i._Z6qRoundf                             0x0002aaf0   Section      156  qgraphicsvideoitem_symbian.o(i._Z6qRoundf)
    i._Z8qWarningv                           0x0002ab8c   Section       88  qaudiodevicefactory.o(i._Z8qWarningv)
    i._Z8qWarningv.clean                     0x0002abe4   Section       24  qaudiodevicefactory.o(i._Z8qWarningv.clean)
    i._Z8qstrncmpPKcS0_j                     0x0002abfc   Section       50  qwavedecoder_p.o(i._Z8qstrncmpPKcS0_j)
    i._ZN10QByteArray4dataEv                 0x0002ac2e   Section       44  qsamplecache_p.o(i._ZN10QByteArray4dataEv)
    i._ZN10QByteArrayC1ERKS_                 0x0002ac5a   Section       20  qmediaimageviewerservice.o(i._ZN10QByteArrayC1ERKS_)
    i._ZN10QByteArrayD1Ev                    0x0002ac6e   Section       24  qmediaobject.o(i._ZN10QByteArrayD1Ev)
    i._ZN11QBasicTimerD1Ev                   0x0002ac86   Section       20  qmediaimageviewer.o(i._ZN11QBasicTimerD1Ev)
    i._ZN11QStringListC1ERKS_                0x0002ac9a   Section       38  qmediarecorder.o(i._ZN11QStringListC1ERKS_)
    i._ZN11QStringListC1Ev                   0x0002acc0   Section       14  qmediapluginloader.o(i._ZN11QStringListC1Ev)
    i._ZN11QStringListD1Ev                   0x0002acce   Section       14  qmediaobject.o(i._ZN11QStringListD1Ev)
    i._ZN12QMapIteratorIiiED1Ev              0x0002acdc   Section       14  qaudiodeviceinfo.o(i._ZN12QMapIteratorIiiED1Ev)
    i._ZN12QMutexLockerC1EP6QMutex           0x0002acea   Section       34  qaudiopluginloader.o(i._ZN12QMutexLockerC1EP6QMutex)
    i._ZN12QMutexLockerD1Ev                  0x0002ad0c   Section       42  qaudiopluginloader.o(i._ZN12QMutexLockerD1Ev)
    i._ZN14QCameraPrivateC1Ev                0x0002ad38   Section      132  qcamera.o(i._ZN14QCameraPrivateC1Ev)
    i._ZN14QCameraPrivateC1Ev.clean          0x0002adbc   Section       10  qcamera.o(i._ZN14QCameraPrivateC1Ev.clean)
    i._ZN14QCameraPrivateD0Ev                0x0002adc6   Section       22  qcamera.o(i._ZN14QCameraPrivateD0Ev)
    i._ZN14QCameraPrivateD1Ev                0x0002addc   Section       36  qcamera.o(i._ZN14QCameraPrivateD1Ev)
    i._ZN14QCameraPrivateD1Ev.clean          0x0002ae00   Section       10  qcamera.o(i._ZN14QCameraPrivateD1Ev.clean)
    i._ZN14QMediaPlaylist2trEPKcS1_          0x0002ae0c   Section       28  qmediaplaylist.o(i._ZN14QMediaPlaylist2trEPKcS1_)
    i._ZN15QBasicAtomicInt3refEv             0x0002ae28   Section       24  qmediaobject.o(i._ZN15QBasicAtomicInt3refEv)
    i._ZN15QBasicAtomicInt5derefEv           0x0002ae40   Section       24  qmediaobject.o(i._ZN15QBasicAtomicInt5derefEv)
    i._ZN15QGraphicsObjectD2Ev               0x0002ae58   Section       26  qgraphicsvideoitem_symbian.o(i._ZN15QGraphicsObjectD2Ev)
    i._ZN15QGraphicsObjectD2Ev.clean         0x0002ae72   Section       10  qgraphicsvideoitem_symbian.o(i._ZN15QGraphicsObjectD2Ev.clean)
    i._ZN15QNullDeviceInfo15supportedCodecsEv 0x0002ae7c   Section       36  qaudiodevicefactory.o(i._ZN15QNullDeviceInfo15supportedCodecsEv)
    i._ZN15QNullDeviceInfo19supportedByteOrdersEv 0x0002aea0   Section       28  qaudiodevicefactory.o(i._ZN15QNullDeviceInfo19supportedByteOrdersEv)
    i._ZN15QNullDeviceInfo20supportedSampleRatesEv 0x0002aebc   Section       16  qaudiodevicefactory.o(i._ZN15QNullDeviceInfo20supportedSampleRatesEv)
    i._ZN15QNullDeviceInfo20supportedSampleSizesEv 0x0002aecc   Section       16  qaudiodevicefactory.o(i._ZN15QNullDeviceInfo20supportedSampleSizesEv)
    i._ZN15QNullDeviceInfo20supportedSampleTypesEv 0x0002aedc   Section       28  qaudiodevicefactory.o(i._ZN15QNullDeviceInfo20supportedSampleTypesEv)
    i._ZN15QNullDeviceInfo22supportedChannelCountsEv 0x0002aef8   Section       16  qaudiodevicefactory.o(i._ZN15QNullDeviceInfo22supportedChannelCountsEv)
    i._ZN15QNullDeviceInfoD0Ev               0x0002af08   Section       22  qaudiodevicefactory.o(i._ZN15QNullDeviceInfoD0Ev)
    i._ZN15QNullDeviceInfoD1Ev               0x0002af1e   Section       16  qaudiodevicefactory.o(i._ZN15QNullDeviceInfoD1Ev)
    i._ZN16QNullInputDevice13setBufferSizeEi 0x0002af2e   Section        2  qaudiodevicefactory.o(i._ZN16QNullInputDevice13setBufferSizeEi)
    i._ZN16QNullInputDevice17setNotifyIntervalEi 0x0002af30   Section        2  qaudiodevicefactory.o(i._ZN16QNullInputDevice17setNotifyIntervalEi)
    i._ZN16QNullInputDevice4stopEv           0x0002af32   Section        2  qaudiodevicefactory.o(i._ZN16QNullInputDevice4stopEv)
    i._ZN16QNullInputDevice5resetEv          0x0002af34   Section        2  qaudiodevicefactory.o(i._ZN16QNullInputDevice5resetEv)
    i._ZN16QNullInputDevice5startEP9QIODevice 0x0002af38   Section       68  qaudiodevicefactory.o(i._ZN16QNullInputDevice5startEP9QIODevice)
    i._ZN16QNullInputDevice5startEP9QIODevice.clean 0x0002af7c   Section       10  qaudiodevicefactory.o(i._ZN16QNullInputDevice5startEP9QIODevice.clean)
    i._ZN16QNullInputDevice5startEv          0x0002af88   Section       68  qaudiodevicefactory.o(i._ZN16QNullInputDevice5startEv)
    i._ZN16QNullInputDevice5startEv.clean    0x0002afcc   Section       10  qaudiodevicefactory.o(i._ZN16QNullInputDevice5startEv.clean)
    i._ZN16QNullInputDevice6resumeEv         0x0002afd6   Section        2  qaudiodevicefactory.o(i._ZN16QNullInputDevice6resumeEv)
    i._ZN16QNullInputDevice7suspendEv        0x0002afd8   Section        2  qaudiodevicefactory.o(i._ZN16QNullInputDevice7suspendEv)
    i._ZN16QNullInputDevice9setFormatERK12QAudioFormat 0x0002afda   Section        2  qaudiodevicefactory.o(i._ZN16QNullInputDevice9setFormatERK12QAudioFormat)
    i._ZN16QNullInputDeviceC1Ev              0x0002afdc   Section       40  qaudiodevicefactory.o(i._ZN16QNullInputDeviceC1Ev)
    i._ZN16QNullInputDeviceD0Ev              0x0002b004   Section       22  qaudiodevicefactory.o(i._ZN16QNullInputDeviceD0Ev)
    i._ZN16QNullInputDeviceD1Ev              0x0002b01a   Section       16  qaudiodevicefactory.o(i._ZN16QNullInputDeviceD1Ev)
    i._ZN17MDevSoundObserver17SendEventToClientERK9TMMFEvent 0x0002b02a   Section        2  moc_qaudio_symbian_p.o(i._ZN17MDevSoundObserver17SendEventToClientERK9TMMFEvent)
    i._ZN17QFactoryInterfaceD0Ev             0x0002b02c   Section       18  qmediaplaylistioplugin.o(i._ZN17QFactoryInterfaceD0Ev)
    i._ZN17QFactoryInterfaceD2Ev             0x0002b03e   Section        2  qmediaplaylistioplugin.o(i._ZN17QFactoryInterfaceD2Ev)
    i._ZN17QForeachContainerI11QStringListED1Ev 0x0002b040   Section       14  qmediaimageviewerservice.o(i._ZN17QForeachContainerI11QStringListED1Ev)
    i._ZN17QForeachContainerI4QSetIiEED1Ev   0x0002b04e   Section       14  qmediaobject.o(i._ZN17QForeachContainerI4QSetIiEED1Ev)
    i._ZN17QForeachContainerI5QListI10QByteArrayEED1Ev 0x0002b05c   Section       14  qmediaimageviewerservice.o(i._ZN17QForeachContainerI5QListI10QByteArrayEED1Ev)
    i._ZN17QForeachContainerI5QListI13QMediaContentEED1Ev 0x0002b06a   Section       14  qmediaplaylistprovider.o(i._ZN17QForeachContainerI5QListI13QMediaContentEED1Ev)
    i._ZN17QForeachContainerI5QListI18QMediaTimeIntervalEED1Ev 0x0002b078   Section       14  qmediatimerange.o(i._ZN17QForeachContainerI5QListI18QMediaTimeIntervalEED1Ev)
    i._ZN17QForeachContainerI5QListI7QStringEED1Ev 0x0002b086   Section       14  qaudiodeviceinfo.o(i._ZN17QForeachContainerI5QListI7QStringEED1Ev)
    i._ZN17QForeachContainerI5QListI8QPointerI7QObjectEEED1Ev 0x0002b094   Section       14  qgraphicsvideoitem_symbian.o(i._ZN17QForeachContainerI5QListI8QPointerI7QObjectEEED1Ev)
    i._ZN17QForeachContainerI5QListI8QVariantEED1Ev 0x0002b0a2   Section       14  qcameraexposure.o(i._ZN17QForeachContainerI5QListI8QVariantEED1Ev)
    i._ZN17QForeachContainerI5QListIN11QVideoFrame11PixelFormatEEED1Ev 0x0002b0b0   Section       14  qmediaimageviewerservice.o(i._ZN17QForeachContainerI5QListIN11QVideoFrame11PixelFormatEEED1Ev)
    i._ZN17QForeachContainerI5QListIN12QAudioFormat10SampleTypeEEED1Ev 0x0002b0be   Section       14  qaudiodeviceinfo.o(i._ZN17QForeachContainerI5QListIN12QAudioFormat10SampleTypeEEED1Ev)
    i._ZN17QForeachContainerI5QListIN12QAudioFormat6EndianEEED1Ev 0x0002b0cc   Section       14  qaudiodeviceinfo.o(i._ZN17QForeachContainerI5QListIN12QAudioFormat6EndianEEED1Ev)
    i._ZN17QForeachContainerI5QListIN7QCamera10LockStatusEEED1Ev 0x0002b0da   Section       14  qcamera.o(i._ZN17QForeachContainerI5QListIN7QCamera10LockStatusEEED1Ev)
    i._ZN17QForeachContainerI5QListIP13QGraphicsItemEED1Ev 0x0002b0e8   Section       14  qgraphicsvideoitem_symbian.o(i._ZN17QForeachContainerI5QListIP13QGraphicsItemEED1Ev)
    i._ZN17QForeachContainerI5QListIP18QGraphicsVideoItemEED1Ev 0x0002b0f6   Section       14  qgraphicsvideoitem_symbian.o(i._ZN17QForeachContainerI5QListIP18QGraphicsVideoItemEED1Ev)
    i._ZN17QForeachContainerI5QListIP27QMediaServiceProviderPluginEED1Ev 0x0002b104   Section       14  qmediaserviceprovider.o(i._ZN17QForeachContainerI5QListIP27QMediaServiceProviderPluginEED1Ev)
    i._ZN17QForeachContainerI5QListIP7QObjectEED1Ev 0x0002b112   Section       14  qmediaserviceprovider.o(i._ZN17QForeachContainerI5QListIP7QObjectEED1Ev)
    i._ZN17QForeachContainerI5QListIiEED1Ev  0x0002b120   Section       14  qmediaresource.o(i._ZN17QForeachContainerI5QListIiEED1Ev)
    i._ZN17QNullOutputDevice13setBufferSizeEi 0x0002b12e   Section        2  qaudiodevicefactory.o(i._ZN17QNullOutputDevice13setBufferSizeEi)
    i._ZN17QNullOutputDevice17setNotifyIntervalEi 0x0002b130   Section        2  qaudiodevicefactory.o(i._ZN17QNullOutputDevice17setNotifyIntervalEi)
    i._ZN17QNullOutputDevice4stopEv          0x0002b132   Section        2  qaudiodevicefactory.o(i._ZN17QNullOutputDevice4stopEv)
    i._ZN17QNullOutputDevice5resetEv         0x0002b134   Section        2  qaudiodevicefactory.o(i._ZN17QNullOutputDevice5resetEv)
    i._ZN17QNullOutputDevice5startEP9QIODevice 0x0002b138   Section       72  qaudiodevicefactory.o(i._ZN17QNullOutputDevice5startEP9QIODevice)
    i._ZN17QNullOutputDevice5startEP9QIODevice.clean 0x0002b180   Section       10  qaudiodevicefactory.o(i._ZN17QNullOutputDevice5startEP9QIODevice.clean)
    i._ZN17QNullOutputDevice5startEv         0x0002b18c   Section       72  qaudiodevicefactory.o(i._ZN17QNullOutputDevice5startEv)
    i._ZN17QNullOutputDevice5startEv.clean   0x0002b1d4   Section       10  qaudiodevicefactory.o(i._ZN17QNullOutputDevice5startEv.clean)
    i._ZN17QNullOutputDevice6resumeEv        0x0002b1de   Section        2  qaudiodevicefactory.o(i._ZN17QNullOutputDevice6resumeEv)
    i._ZN17QNullOutputDevice7suspendEv       0x0002b1e0   Section        2  qaudiodevicefactory.o(i._ZN17QNullOutputDevice7suspendEv)
    i._ZN17QNullOutputDevice9setFormatERK12QAudioFormat 0x0002b1e2   Section        2  qaudiodevicefactory.o(i._ZN17QNullOutputDevice9setFormatERK12QAudioFormat)
    i._ZN17QNullOutputDeviceC1Ev             0x0002b1e4   Section       40  qaudiodevicefactory.o(i._ZN17QNullOutputDeviceC1Ev)
    i._ZN17QNullOutputDeviceD0Ev             0x0002b20c   Section       22  qaudiodevicefactory.o(i._ZN17QNullOutputDeviceD0Ev)
    i._ZN17QNullOutputDeviceD1Ev             0x0002b222   Section       16  qaudiodevicefactory.o(i._ZN17QNullOutputDeviceD1Ev)
    i._ZN18QMediaPluginLoaderD1Ev            0x0002b232   Section       34  qmediaplaylist.o(i._ZN18QMediaPluginLoaderD1Ev)
    i._ZN18QMediaPluginLoaderD1Ev.clean      0x0002b254   Section       18  qmediaplaylist.o(i._ZN18QMediaPluginLoaderD1Ev.clean)
    i._ZN18QRadioTunerPrivateD0Ev            0x0002b266   Section       24  qradiotuner.o(i._ZN18QRadioTunerPrivateD0Ev)
    i._ZN18QRadioTunerPrivateD1Ev            0x0002b27e   Section       14  qradiotuner.o(i._ZN18QRadioTunerPrivateD1Ev)
    i._ZN18QVideoFramePrivateC1ERK5QSizeN11QVideoFrame11PixelFormatE 0x0002b28c   Section       68  qvideoframe.o(i._ZN18QVideoFramePrivateC1ERK5QSizeN11QVideoFrame11PixelFormatE)
    i._ZN18QVideoFramePrivateD1Ev            0x0002b2d0   Section       24  qvideoframe.o(i._ZN18QVideoFramePrivateD1Ev)
    i._ZN19QAbstractAudioInputD0Ev           0x0002b2e8   Section       24  qaudiosystem.o(i._ZN19QAbstractAudioInputD0Ev)
    i._ZN19QAbstractAudioInputD2Ev           0x0002b300   Section       14  qaudiosystem.o(i._ZN19QAbstractAudioInputD2Ev)
    i._ZN19QAudioFormatPrivateD1Ev           0x0002b30e   Section       16  qaudioformat.o(i._ZN19QAudioFormatPrivateD1Ev)
    i._ZN19QCameraFocusPrivateD0Ev           0x0002b31e   Section       24  qcamerafocus.o(i._ZN19QCameraFocusPrivateD0Ev)
    i._ZN19QCameraFocusPrivateD1Ev           0x0002b336   Section       14  qcamerafocus.o(i._ZN19QCameraFocusPrivateD1Ev)
    i._ZN19QMediaObjectPrivateD0Ev           0x0002b344   Section       22  qmediaobject.o(i._ZN19QMediaObjectPrivateD0Ev)
    i._ZN19QMediaObjectPrivateD1Ev           0x0002b35c   Section       28  qmediaobject.o(i._ZN19QMediaObjectPrivateD1Ev)
    i._ZN19QMediaPlayerPrivateC1Ev           0x0002b378   Section      116  qmediaplayer.o(i._ZN19QMediaPlayerPrivateC1Ev)
    i._ZN19QMediaPlayerPrivateC1Ev.clean     0x0002b3ec   Section       10  qmediaplayer.o(i._ZN19QMediaPlayerPrivateC1Ev.clean)
    i._ZN19QMediaPlayerPrivateD0Ev           0x0002b3f6   Section       22  qmediaplayer.o(i._ZN19QMediaPlayerPrivateD0Ev)
    i._ZN19QMediaPlayerPrivateD1Ev           0x0002b40c   Section       48  qmediaplayer.o(i._ZN19QMediaPlayerPrivateD1Ev)
    i._ZN19QMediaPlayerPrivateD1Ev.clean     0x0002b43c   Section       22  qmediaplayer.o(i._ZN19QMediaPlayerPrivateD1Ev.clean)
    i._ZN19QVideoWidgetBackendC2Ev           0x0002b454   Section       44  qvideowidget.o(i._ZN19QVideoWidgetBackendC2Ev)
    i._ZN19QVideoWidgetBackendC2Ev.clean     0x0002b480   Section        4  qvideowidget.o(i._ZN19QVideoWidgetBackendC2Ev.clean)
    i._ZN19QVideoWidgetBackendD0Ev           0x0002b484   Section       22  qvideowidget.o(i._ZN19QVideoWidgetBackendD0Ev)
    i._ZN19QVideoWidgetBackendD2Ev           0x0002b49a   Section       22  qvideowidget.o(i._ZN19QVideoWidgetBackendD2Ev)
    i._ZN19QVideoWidgetBackendD2Ev.clean     0x0002b4b0   Section        4  qvideowidget.o(i._ZN19QVideoWidgetBackendD2Ev.clean)
    i._ZN20QAbstractAudioOutputD0Ev          0x0002b4b4   Section       24  qaudiosystem.o(i._ZN20QAbstractAudioOutputD0Ev)
    i._ZN20QAbstractAudioOutputD2Ev          0x0002b4cc   Section       14  qaudiosystem.o(i._ZN20QAbstractAudioOutputD2Ev)
    i._ZN20QMediaContentPrivateC1Ev          0x0002b4da   Section       28  qmediacontent.o(i._ZN20QMediaContentPrivateC1Ev)
    i._ZN20QMediaContentPrivateD1Ev          0x0002b4f6   Section       16  qmediacontent.o(i._ZN20QMediaContentPrivateD1Ev)
    i._ZN20QMediaControlPrivateD0Ev          0x0002b506   Section       18  qmediacontrol.o(i._ZN20QMediaControlPrivateD0Ev)
    i._ZN20QMediaControlPrivateD1Ev          0x0002b518   Section        2  qmediacontrol.o(i._ZN20QMediaControlPrivateD1Ev)
    i._ZN20QMediaServicePrivateD0Ev          0x0002b51a   Section       18  qmediaservice.o(i._ZN20QMediaServicePrivateD0Ev)
    i._ZN20QMediaServicePrivateD1Ev          0x0002b52c   Section        2  qmediaservice.o(i._ZN20QMediaServicePrivateD1Ev)
    i._ZN20QVideoSurfacePainter17viewportDestroyedEv 0x0002b52e   Section        2  qpaintervideosurface.o(i._ZN20QVideoSurfacePainter17viewportDestroyedEv)
    i._ZN21QMediaPlaylistPrivateD0Ev         0x0002b530   Section       22  qmediaplaylist.o(i._ZN21QMediaPlaylistPrivateD0Ev)
    i._ZN21QMediaPlaylistPrivateD1Ev         0x0002b548   Section       28  qmediaplaylist.o(i._ZN21QMediaPlaylistPrivateD1Ev)
    i._ZN21QMediaServiceProviderD0Ev         0x0002b564   Section       22  qmediaserviceprovider.o(i._ZN21QMediaServiceProviderD0Ev)
    i._ZN21QMediaServiceProviderD2Ev         0x0002b57a   Section       14  qmediaserviceprovider.o(i._ZN21QMediaServiceProviderD2Ev)
    i._ZN22QMediaTimeRangePrivateD1Ev        0x0002b588   Section       16  qmediatimerange.o(i._ZN22QMediaTimeRangePrivateD1Ev)
    i._ZN22QPluginServiceProvider14releaseServiceEP13QMediaService 0x0002b598   Section       40  qmediaserviceprovider.o(i._ZN22QPluginServiceProvider14releaseServiceEP13QMediaService)
    i._ZN22QPluginServiceProvider14requestServiceERK10QByteArrayRK25QMediaServiceProviderHint 0x0002b5c0   Section     1340  qmediaserviceprovider.o(i._ZN22QPluginServiceProvider14requestServiceERK10QByteArrayRK25QMediaServiceProviderHint)
    i._ZN22QPluginServiceProvider14requestServiceERK10QByteArrayRK25QMediaServiceProviderHint.clean 0x0002bafc   Section      136  qmediaserviceprovider.o(i._ZN22QPluginServiceProvider14requestServiceERK10QByteArrayRK25QMediaServiceProviderHint.clean)
    i._ZN22QPluginServiceProvider17deviceDescriptionERK10QByteArrayS2_ 0x0002bb84   Section      280  qmediaserviceprovider.o(i._ZN22QPluginServiceProvider17deviceDescriptionERK10QByteArrayS2_)
    i._ZN22QPluginServiceProvider17deviceDescriptionERK10QByteArrayS2_.clean 0x0002bc9c   Section       30  qmediaserviceprovider.o(i._ZN22QPluginServiceProvider17deviceDescriptionERK10QByteArrayS2_.clean)
    i._ZN22QPluginServiceProviderD0Ev        0x0002bcba   Section       22  qmediaserviceprovider.o(i._ZN22QPluginServiceProviderD0Ev)
    i._ZN22QPluginServiceProviderD1Ev        0x0002bcd0   Section       36  qmediaserviceprovider.o(i._ZN22QPluginServiceProviderD1Ev)
    i._ZN22QPluginServiceProviderD1Ev.clean  0x0002bcf4   Section       10  qmediaserviceprovider.o(i._ZN22QPluginServiceProviderD1Ev.clean)
    i._ZN23QAudioDeviceInfoPrivateD1Ev       0x0002bcfe   Section       44  qaudiodeviceinfo.o(i._ZN23QAudioDeviceInfoPrivateD1Ev)
    i._ZN23QAudioDeviceInfoPrivateD1Ev.clean 0x0002bd2a   Section       22  qaudiodeviceinfo.o(i._ZN23QAudioDeviceInfoPrivateD1Ev.clean)
    i._ZN24QAbstractAudioDeviceInfoD0Ev      0x0002bd40   Section       24  qaudiosystem.o(i._ZN24QAbstractAudioDeviceInfoD0Ev)
    i._ZN24QAbstractAudioDeviceInfoD2Ev      0x0002bd58   Section       14  qaudiosystem.o(i._ZN24QAbstractAudioDeviceInfoD2Ev)
    i._ZN24QAudioDeviceInfoInternal12CapabilitiesC1Ev 0x0002bd68   Section       76  qaudiodeviceinfo_symbian_p.o(i._ZN24QAudioDeviceInfoInternal12CapabilitiesC1Ev)
    i._ZN24QAudioDeviceInfoInternal12CapabilitiesC1Ev.clean 0x0002bdb4   Section       42  qaudiodeviceinfo_symbian_p.o(i._ZN24QAudioDeviceInfoInternal12CapabilitiesC1Ev.clean)
    i._ZN24QAudioDeviceInfoInternal12CapabilitiesD1Ev 0x0002bdde   Section       58  qaudiodeviceinfo_symbian_p.o(i._ZN24QAudioDeviceInfoInternal12CapabilitiesD1Ev)
    i._ZN24QAudioDeviceInfoInternal12CapabilitiesD1Ev.clean 0x0002be18   Section       42  qaudiodeviceinfo_symbian_p.o(i._ZN24QAudioDeviceInfoInternal12CapabilitiesD1Ev.clean)
    i._ZN24QImageVideoBufferPrivateD0Ev      0x0002be42   Section       22  qimagevideobuffer.o(i._ZN24QImageVideoBufferPrivateD0Ev)
    i._ZN24QImageVideoBufferPrivateD1Ev      0x0002be58   Section       28  qimagevideobuffer.o(i._ZN24QImageVideoBufferPrivateD1Ev)
    i._ZN24QImageVideoBufferPrivateD1Ev.clean 0x0002be74   Section       10  qimagevideobuffer.o(i._ZN24QImageVideoBufferPrivateD1Ev.clean)
    i._ZN24QMediaImageViewerPrivateC1Ev      0x0002be80   Section      156  qmediaimageviewer.o(i._ZN24QMediaImageViewerPrivateC1Ev)
    i._ZN24QMediaImageViewerPrivateC1Ev.clean 0x0002bf1c   Section       34  qmediaimageviewer.o(i._ZN24QMediaImageViewerPrivateC1Ev.clean)
    i._ZN24QMediaImageViewerPrivateD0Ev      0x0002bf3e   Section       22  qmediaimageviewer.o(i._ZN24QMediaImageViewerPrivateD0Ev)
    i._ZN24QMediaImageViewerPrivateD1Ev      0x0002bf54   Section       60  qmediaimageviewer.o(i._ZN24QMediaImageViewerPrivateD1Ev)
    i._ZN24QMediaImageViewerPrivateD1Ev.clean 0x0002bf90   Section       34  qmediaimageviewer.o(i._ZN24QMediaImageViewerPrivateD1Ev.clean)
    i._ZN25QMediaPlaylistIOInterfaceD0Ev     0x0002bfb2   Section       18  qmediaplaylistioplugin.o(i._ZN25QMediaPlaylistIOInterfaceD0Ev)
    i._ZN25QMediaPlaylistIOInterfaceD2Ev     0x0002bfc4   Section        2  qmediaplaylistioplugin.o(i._ZN25QMediaPlaylistIOInterfaceD2Ev)
    i._ZN25QMemoryVideoBufferPrivateD0Ev     0x0002bfc6   Section       22  qmemoryvideobuffer.o(i._ZN25QMemoryVideoBufferPrivateD0Ev)
    i._ZN25QMemoryVideoBufferPrivateD1Ev     0x0002bfdc   Section       28  qmemoryvideobuffer.o(i._ZN25QMemoryVideoBufferPrivateD1Ev)
    i._ZN25QMemoryVideoBufferPrivateD1Ev.clean 0x0002bff8   Section       10  qmemoryvideobuffer.o(i._ZN25QMemoryVideoBufferPrivateD1Ev.clean)
    i._ZN26QAudioCaptureSourcePrivate12initControlsEv 0x0002c004   Section      324  qaudiocapturesource.o(i._ZN26QAudioCaptureSourcePrivate12initControlsEv)
    i._ZN26QAudioCaptureSourcePrivateD0Ev    0x0002c148   Section       24  qaudiocapturesource.o(i._ZN26QAudioCaptureSourcePrivateD0Ev)
    i._ZN26QAudioCaptureSourcePrivateD1Ev    0x0002c160   Section       14  qaudiocapturesource.o(i._ZN26QAudioCaptureSourcePrivateD1Ev)
    i._ZN26QCameraImageCapturePrivate10unsetErrorEv 0x0002c170   Section       64  qcameraimagecapture.o(i._ZN26QCameraImageCapturePrivate10unsetErrorEv)
    i._ZN26QCameraImageCapturePrivate10unsetErrorEv.clean 0x0002c1b0   Section       10  qcameraimagecapture.o(i._ZN26QCameraImageCapturePrivate10unsetErrorEv.clean)
    i._ZN26QLocalMediaPlaylistControl15setCurrentIndexEi 0x0002c1ba   Section       16  qmediaplaylist.o(i._ZN26QLocalMediaPlaylistControl15setCurrentIndexEi)
    i._ZN26QLocalMediaPlaylistControl15setPlaybackModeEN14QMediaPlaylist12PlaybackModeE 0x0002c1ca   Section       16  qmediaplaylist.o(i._ZN26QLocalMediaPlaylistControl15setPlaybackModeEN14QMediaPlaylist12PlaybackModeE)
    i._ZN26QLocalMediaPlaylistControl19setPlaylistProviderEP22QMediaPlaylistProvider 0x0002c1da   Section       24  qmediaplaylist.o(i._ZN26QLocalMediaPlaylistControl19setPlaylistProviderEP22QMediaPlaylistProvider)
    i._ZN26QLocalMediaPlaylistControl4nextEv 0x0002c1f2   Section       12  qmediaplaylist.o(i._ZN26QLocalMediaPlaylistControl4nextEv)
    i._ZN26QLocalMediaPlaylistControl8previousEv 0x0002c1fe   Section       12  qmediaplaylist.o(i._ZN26QLocalMediaPlaylistControl8previousEv)
    i._ZN26QLocalMediaPlaylistControlC1EP7QObject 0x0002c20c   Section      228  qmediaplaylist.o(i._ZN26QLocalMediaPlaylistControlC1EP7QObject)
    i._ZN26QLocalMediaPlaylistControlC1EP7QObject.clean 0x0002c2f0   Section       34  qmediaplaylist.o(i._ZN26QLocalMediaPlaylistControlC1EP7QObject.clean)
    i._ZN26QLocalMediaPlaylistControlD0Ev    0x0002c312   Section       28  qmediaplaylist.o(i._ZN26QLocalMediaPlaylistControlD0Ev)
    i._ZN26QLocalMediaPlaylistControlD1Ev    0x0002c32e   Section       14  qmediaplaylist.o(i._ZN26QLocalMediaPlaylistControlD1Ev)
    i._ZN26QMediaPlaylistNullProviderD0Ev    0x0002c33c   Section       28  qmediaplaylistnavigator.o(i._ZN26QMediaPlaylistNullProviderD0Ev)
    i._ZN26QMediaPlaylistNullProviderD1Ev    0x0002c358   Section       14  qmediaplaylistnavigator.o(i._ZN26QMediaPlaylistNullProviderD1Ev)
    i._ZN26QVideoSurfaceFormatPrivateC1ERKS_ 0x0002c366   Section      134  qvideosurfaceformat.o(i._ZN26QVideoSurfaceFormatPrivateC1ERKS_)
    i._ZN26QVideoSurfaceFormatPrivateC1ERKS_.clean 0x0002c3ec   Section       12  qvideosurfaceformat.o(i._ZN26QVideoSurfaceFormatPrivateC1ERKS_.clean)
    i._ZN26QVideoSurfaceFormatPrivateD1Ev    0x0002c3f8   Section       32  qvideosurfaceformat.o(i._ZN26QVideoSurfaceFormatPrivateD1Ev)
    i._ZN26QVideoSurfaceFormatPrivateD1Ev.clean 0x0002c418   Section       12  qvideosurfaceformat.o(i._ZN26QVideoSurfaceFormatPrivateD1Ev.clean)
    i._ZN26QVideoWidgetControlBackendD0Ev    0x0002c424   Section       22  qvideowidget.o(i._ZN26QVideoWidgetControlBackendD0Ev)
    i._ZN26QVideoWidgetControlBackendD1Ev    0x0002c43a   Section       22  qvideowidget.o(i._ZN26QVideoWidgetControlBackendD1Ev)
    i._ZN26QVideoWidgetControlBackendD1Ev.clean 0x0002c450   Section        4  qvideowidget.o(i._ZN26QVideoWidgetControlBackendD1Ev.clean)
    i._ZN27QAbstractVideoBufferPrivateD0Ev   0x0002c454   Section       18  qabstractvideobuffer.o(i._ZN27QAbstractVideoBufferPrivateD0Ev)
    i._ZN27QAbstractVideoBufferPrivateD1Ev   0x0002c466   Section        2  qabstractvideobuffer.o(i._ZN27QAbstractVideoBufferPrivateD1Ev)
    i._ZN27QMediaServiceProviderPluginD0Ev   0x0002c468   Section       22  qmediaserviceprovider.o(i._ZN27QMediaServiceProviderPluginD0Ev)
    i._ZN27QMediaServiceProviderPluginD2Ev   0x0002c47e   Section       22  qmediaserviceprovider.o(i._ZN27QMediaServiceProviderPluginD2Ev)
    i._ZN27QMediaServiceProviderPluginD2Ev.clean 0x0002c494   Section        4  qmediaserviceprovider.o(i._ZN27QMediaServiceProviderPluginD2Ev.clean)
    i._ZN27QVideoSurfaceGenericPainterD0Ev   0x0002c498   Section       22  qpaintervideosurface.o(i._ZN27QVideoSurfaceGenericPainterD0Ev)
    i._ZN27QVideoSurfaceGenericPainterD1Ev   0x0002c4b0   Section       44  qpaintervideosurface.o(i._ZN27QVideoSurfaceGenericPainterD1Ev)
    i._ZN27QVideoSurfaceGenericPainterD1Ev.clean 0x0002c4dc   Section       18  qpaintervideosurface.o(i._ZN27QVideoSurfaceGenericPainterD1Ev.clean)
    i._ZN28QAudioEncoderSettingsPrivateD1Ev  0x0002c4ee   Section       20  qmediaencodersettings.o(i._ZN28QAudioEncoderSettingsPrivateD1Ev)
    i._ZN28QAudioSystemFactoryInterfaceD0Ev  0x0002c502   Section       18  qaudiosystemplugin.o(i._ZN28QAudioSystemFactoryInterfaceD0Ev)
    i._ZN28QAudioSystemFactoryInterfaceD2Ev  0x0002c514   Section        2  qaudiosystemplugin.o(i._ZN28QAudioSystemFactoryInterfaceD2Ev)
    i._ZN28QImageEncoderSettingsPrivateD1Ev  0x0002c516   Section       20  qmediaencodersettings.o(i._ZN28QImageEncoderSettingsPrivateD1Ev)
    i._ZN28QVideoEncoderSettingsPrivateD1Ev  0x0002c52a   Section       20  qmediaencodersettings.o(i._ZN28QVideoEncoderSettingsPrivateD1Ev)
    i._ZN28QVideoWidgetControlInterfaceD0Ev  0x0002c53e   Section       18  qvideowidget.o(i._ZN28QVideoWidgetControlInterfaceD0Ev)
    i._ZN28QVideoWidgetControlInterfaceD2Ev  0x0002c550   Section        2  qvideowidget.o(i._ZN28QVideoWidgetControlInterfaceD2Ev)
    i._ZN29QCameraImageProcessingPrivateD0Ev 0x0002c552   Section       24  qcameraimageprocessing.o(i._ZN29QCameraImageProcessingPrivateD0Ev)
    i._ZN29QCameraImageProcessingPrivateD1Ev 0x0002c56a   Section       14  qcameraimageprocessing.o(i._ZN29QCameraImageProcessingPrivateD1Ev)
    i._ZN29QMediaPlaylistProviderPrivateD0Ev 0x0002c578   Section       18  qlocalmediaplaylistprovider.o(i._ZN29QMediaPlaylistProviderPrivateD0Ev)
    i._ZN29QMediaPlaylistProviderPrivateD1Ev 0x0002c58a   Section        2  qlocalmediaplaylistprovider.o(i._ZN29QMediaPlaylistProviderPrivateD1Ev)
    i._ZN31QMediaImageViewerControlPrivateC1Ev 0x0002c58c   Section      496  qmediaimageviewerservice.o(i._ZN31QMediaImageViewerControlPrivateC1Ev)
    i._ZN31QMediaImageViewerControlPrivateC1Ev.clean 0x0002c77c   Section      104  qmediaimageviewerservice.o(i._ZN31QMediaImageViewerControlPrivateC1Ev.clean)
    i._ZN31QMediaImageViewerControlPrivateD0Ev 0x0002c7e4   Section       22  qmediaimageviewerservice.o(i._ZN31QMediaImageViewerControlPrivateD0Ev)
    i._ZN31QMediaImageViewerControlPrivateD1Ev 0x0002c7fc   Section       64  qmediaimageviewerservice.o(i._ZN31QMediaImageViewerControlPrivateD1Ev)
    i._ZN31QMediaImageViewerControlPrivateD1Ev.clean 0x0002c83c   Section       46  qmediaimageviewerservice.o(i._ZN31QMediaImageViewerControlPrivateD1Ev.clean)
    i._ZN31QMediaImageViewerServicePrivateD0Ev 0x0002c86a   Section       22  qmediaimageviewerservice.o(i._ZN31QMediaImageViewerServicePrivateD0Ev)
    i._ZN31QMediaImageViewerServicePrivateD1Ev 0x0002c880   Section       28  qmediaimageviewerservice.o(i._ZN31QMediaImageViewerServicePrivateD1Ev)
    i._ZN31QMediaImageViewerServicePrivateD1Ev.clean 0x0002c89c   Section       10  qmediaimageviewerservice.o(i._ZN31QMediaImageViewerServicePrivateD1Ev.clean)
    i._ZN32QMediaServiceProviderHintPrivateC1EN25QMediaServiceProviderHint4TypeE 0x0002c8a8   Section       84  qmediaserviceprovider.o(i._ZN32QMediaServiceProviderHintPrivateC1EN25QMediaServiceProviderHint4TypeE)
    i._ZN32QMediaServiceProviderHintPrivateC1EN25QMediaServiceProviderHint4TypeE.clean 0x0002c8fc   Section       24  qmediaserviceprovider.o(i._ZN32QMediaServiceProviderHintPrivateC1EN25QMediaServiceProviderHint4TypeE.clean)
    i._ZN32QMediaServiceProviderHintPrivateD1Ev 0x0002c914   Section       44  qmediaserviceprovider.o(i._ZN32QMediaServiceProviderHintPrivateD1Ev)
    i._ZN32QMediaServiceProviderHintPrivateD1Ev.clean 0x0002c940   Section       24  qmediaserviceprovider.o(i._ZN32QMediaServiceProviderHintPrivateD1Ev.clean)
    i._ZN34QLocalMediaPlaylistProviderPrivateD0Ev 0x0002c958   Section       22  qlocalmediaplaylistprovider.o(i._ZN34QLocalMediaPlaylistProviderPrivateD0Ev)
    i._ZN34QLocalMediaPlaylistProviderPrivateD1Ev 0x0002c970   Section       24  qlocalmediaplaylistprovider.o(i._ZN34QLocalMediaPlaylistProviderPrivateD1Ev)
    i._ZN34QLocalMediaPlaylistProviderPrivateD1Ev.clean 0x0002c988   Section       10  qlocalmediaplaylistprovider.o(i._ZN34QLocalMediaPlaylistProviderPrivateD1Ev.clean)
    i._ZN4QSetI7QStringED1Ev                 0x0002c992   Section       14  qaudiopluginloader.o(i._ZN4QSetI7QStringED1Ev)
    i._ZN4QSetIiED1Ev                        0x0002c9a0   Section       14  qmediaobject.o(i._ZN4QSetIiED1Ev)
    i._ZN5QRectC1ERK6QPointRK5QSize          0x0002c9ae   Section       40  qgraphicsvideoitem_symbian.o(i._ZN5QRectC1ERK6QPointRK5QSize)
    i._ZN5QRectC1Eiiii                       0x0002c9d6   Section       22  qvideowidget.o(i._ZN5QRectC1Eiiii)
    i._ZN5QRectC1Ev                          0x0002c9ec   Section       14  qvideowidget.o(i._ZN5QRectC1Ev)
    i._ZN5QSizeC1Ev                          0x0002c9fa   Section       10  qgraphicsvideoitem_symbian.o(i._ZN5QSizeC1Ev)
    i._ZN6QDebug10maybeSpaceEv               0x0002ca04   Section       24  qmediaserviceprovider.o(i._ZN6QDebug10maybeSpaceEv)
    i._ZN6QDebugC1E9QtMsgType                0x0002ca1c   Section       92  qcamera.o(i._ZN6QDebugC1E9QtMsgType)
    i._ZN6QDebugC1E9QtMsgType.clean          0x0002ca78   Section       24  qcamera.o(i._ZN6QDebugC1E9QtMsgType.clean)
    i._ZN6QDebugC1ERKS_                      0x0002ca90   Section       16  qvideosurfaceformat.o(i._ZN6QDebugC1ERKS_)
    i._ZN6QDebugD1Ev                         0x0002caa0   Section      112  qsamplecache_p.o(i._ZN6QDebugD1Ev)
    i._ZN6QDebugD1Ev.clean                   0x0002cb10   Section       20  qsamplecache_p.o(i._ZN6QDebugD1Ev.clean)
    i._ZN6QDebuglsEPKc                       0x0002cb24   Section       44  qcamera.o(i._ZN6QDebuglsEPKc)
    i._ZN6QDebuglsEPKc.clean                 0x0002cb50   Section       10  qcamera.o(i._ZN6QDebuglsEPKc.clean)
    i._ZN6QDebuglsEx                         0x0002cb5a   Section       48  qsamplecache_p.o(i._ZN6QDebuglsEx)
    i._ZN6QDebuglsEx.clean                   0x0002cb8a   Section       10  qsamplecache_p.o(i._ZN6QDebuglsEx.clean)
    i._ZN6QRectFC1ERKS_                      0x0002cb94   Section       18  qcamerafocus.o(i._ZN6QRectFC1ERKS_)
    i._ZN6QSizeFC1ERK5QSize                  0x0002cba6   Section       34  qvideowidget.o(i._ZN6QSizeFC1ERK5QSize)
    i._ZN7QObject10disconnectEPKcPKS_S1_     0x0002cbc8   Section       24  qwavedecoder_p.o(i._ZN7QObject10disconnectEPKcPKS_S1_)
    i._ZN7QString5clearEv                    0x0002cbe0   Section       56  qmediaplaylist.o(i._ZN7QString5clearEv)
    i._ZN7QString5clearEv.clean              0x0002cc18   Section       10  qmediaplaylist.o(i._ZN7QString5clearEv.clean)
    i._ZN7QStringC1ERK10QByteArray           0x0002cc22   Section       70  qmediaserviceprovider.o(i._ZN7QStringC1ERK10QByteArray)
    i._ZN7QStringC1ERK13QLatin1String        0x0002cc68   Section       26  qaudiodevicefactory.o(i._ZN7QStringC1ERK13QLatin1String)
    i._ZN7QStringC1ERKS_                     0x0002cc82   Section       22  qmediaobject.o(i._ZN7QStringC1ERKS_)
    i._ZN7QStringC1Ev                        0x0002cc98   Section       24  qmediaplayer.o(i._ZN7QStringC1Ev)
    i._ZN7QStringD1Ev                        0x0002ccb0   Section       24  qmediaobject.o(i._ZN7QStringD1Ev)
    i._ZN7QStringaSERK13QLatin1String        0x0002ccc8   Section       42  qvideosurfaceformat.o(i._ZN7QStringaSERK13QLatin1String)
    i._ZN7QStringaSERK13QLatin1String.clean  0x0002ccf2   Section       10  qvideosurfaceformat.o(i._ZN7QStringaSERK13QLatin1String.clean)
    i._ZN8QVariant7PrivateC1Ev               0x0002ccfc   Section       36  qcameraexposure.o(i._ZN8QVariant7PrivateC1Ev)
    i._ZN8QVariantC1Ef                       0x0002cd20   Section       38  qcameraexposure.o(i._ZN8QVariantC1Ef)
    i._ZN8QVariantC1Ev                       0x0002cd46   Section       38  qmediaobject.o(i._ZN8QVariantC1Ev)
    i._ZNK11QBasicTimer8isActiveEv           0x0002cd6c   Section       16  qmediaimageviewer.o(i._ZNK11QBasicTimer8isActiveEv)
    i._ZNK15QBasicAtomicInteqEi              0x0002cd7c   Section       16  qmediaimageviewerservice.o(i._ZNK15QBasicAtomicInteqEi)
    i._ZNK15QBasicAtomicIntneEi              0x0002cd8c   Section       16  qmediaobject.o(i._ZNK15QBasicAtomicIntneEi)
    i._ZNK15QBasicAtomicIntntEv              0x0002cd9c   Section       16  qmediaplayer.o(i._ZNK15QBasicAtomicIntntEv)
    i._ZNK15QNullDeviceInfo10deviceNameEv    0x0002cdac   Section       16  qaudiodevicefactory.o(i._ZNK15QNullDeviceInfo10deviceNameEv)
    i._ZNK15QNullDeviceInfo15preferredFormatEv 0x0002cdbc   Section       76  qaudiodevicefactory.o(i._ZNK15QNullDeviceInfo15preferredFormatEv)
    i._ZNK15QNullDeviceInfo15preferredFormatEv.clean 0x0002ce08   Section       10  qaudiodevicefactory.o(i._ZNK15QNullDeviceInfo15preferredFormatEv.clean)
    i._ZNK15QNullDeviceInfo17isFormatSupportedERK12QAudioFormat 0x0002ce12   Section        6  qaudiodevicefactory.o(i._ZNK15QNullDeviceInfo17isFormatSupportedERK12QAudioFormat)
    i._ZNK16QNullInputDevice10bufferSizeEv   0x0002ce18   Section        6  qaudiodevicefactory.o(i._ZNK16QNullInputDevice10bufferSizeEv)
    i._ZNK16QNullInputDevice10bytesReadyEv   0x0002ce1e   Section        6  qaudiodevicefactory.o(i._ZNK16QNullInputDevice10bytesReadyEv)
    i._ZNK16QNullInputDevice10periodSizeEv   0x0002ce24   Section        6  qaudiodevicefactory.o(i._ZNK16QNullInputDevice10periodSizeEv)
    i._ZNK16QNullInputDevice12elapsedUSecsEv 0x0002ce2c   Section       16  qaudiodevicefactory.o(i._ZNK16QNullInputDevice12elapsedUSecsEv)
    i._ZNK16QNullInputDevice14notifyIntervalEv 0x0002ce3c   Section        6  qaudiodevicefactory.o(i._ZNK16QNullInputDevice14notifyIntervalEv)
    i._ZNK16QNullInputDevice14processedUSecsEv 0x0002ce44   Section       16  qaudiodevicefactory.o(i._ZNK16QNullInputDevice14processedUSecsEv)
    i._ZNK16QNullInputDevice5errorEv         0x0002ce54   Section        6  qaudiodevicefactory.o(i._ZNK16QNullInputDevice5errorEv)
    i._ZNK16QNullInputDevice5stateEv         0x0002ce5a   Section        6  qaudiodevicefactory.o(i._ZNK16QNullInputDevice5stateEv)
    i._ZNK16QNullInputDevice6formatEv        0x0002ce60   Section       16  qaudiodevicefactory.o(i._ZNK16QNullInputDevice6formatEv)
    i._ZNK17QNullOutputDevice10bufferSizeEv  0x0002ce70   Section        6  qaudiodevicefactory.o(i._ZNK17QNullOutputDevice10bufferSizeEv)
    i._ZNK17QNullOutputDevice10periodSizeEv  0x0002ce76   Section        6  qaudiodevicefactory.o(i._ZNK17QNullOutputDevice10periodSizeEv)
    i._ZNK17QNullOutputDevice12elapsedUSecsEv 0x0002ce7c   Section       16  qaudiodevicefactory.o(i._ZNK17QNullOutputDevice12elapsedUSecsEv)
    i._ZNK17QNullOutputDevice14notifyIntervalEv 0x0002ce8c   Section        6  qaudiodevicefactory.o(i._ZNK17QNullOutputDevice14notifyIntervalEv)
    i._ZNK17QNullOutputDevice14processedUSecsEv 0x0002ce94   Section       16  qaudiodevicefactory.o(i._ZNK17QNullOutputDevice14processedUSecsEv)
    i._ZNK17QNullOutputDevice5errorEv        0x0002cea4   Section        6  qaudiodevicefactory.o(i._ZNK17QNullOutputDevice5errorEv)
    i._ZNK17QNullOutputDevice5stateEv        0x0002ceaa   Section        6  qaudiodevicefactory.o(i._ZNK17QNullOutputDevice5stateEv)
    i._ZNK17QNullOutputDevice6formatEv       0x0002ceb0   Section       16  qaudiodevicefactory.o(i._ZNK17QNullOutputDevice6formatEv)
    i._ZNK17QNullOutputDevice9bytesFreeEv    0x0002cec0   Section        6  qaudiodevicefactory.o(i._ZNK17QNullOutputDevice9bytesFreeEv)
    i._ZNK21QMediaPlaylistPrivate8playlistEv 0x0002cec6   Section       16  qmediaplaylist.o(i._ZNK21QMediaPlaylistPrivate8playlistEv)
    i._ZNK22QPluginServiceProvider10hasSupportERK10QByteArrayRK7QStringRK11QStringListi 0x0002ced6   Section      386  qmediaserviceprovider.o(i._ZNK22QPluginServiceProvider10hasSupportERK10QByteArrayRK7QStringRK11QStringListi)
    i._ZNK22QPluginServiceProvider10hasSupportERK10QByteArrayRK7QStringRK11QStringListi.clean 0x0002d058   Section       24  qmediaserviceprovider.o(i._ZNK22QPluginServiceProvider10hasSupportERK10QByteArrayRK7QStringRK11QStringListi.clean)
    i._ZNK22QPluginServiceProvider18supportedMimeTypesERK10QByteArrayi 0x0002d070   Section      306  qmediaserviceprovider.o(i._ZNK22QPluginServiceProvider18supportedMimeTypesERK10QByteArrayi)
    i._ZNK22QPluginServiceProvider18supportedMimeTypesERK10QByteArrayi.clean 0x0002d1a2   Section       36  qmediaserviceprovider.o(i._ZNK22QPluginServiceProvider18supportedMimeTypesERK10QByteArrayi.clean)
    i._ZNK22QPluginServiceProvider7devicesERK10QByteArray 0x0002d1c6   Section      224  qmediaserviceprovider.o(i._ZNK22QPluginServiceProvider7devicesERK10QByteArray)
    i._ZNK22QPluginServiceProvider7devicesERK10QByteArray.clean 0x0002d2a6   Section       36  qmediaserviceprovider.o(i._ZNK22QPluginServiceProvider7devicesERK10QByteArray.clean)
    i._ZNK26QLocalMediaPlaylistControl12currentIndexEv 0x0002d2ca   Section       12  qmediaplaylist.o(i._ZNK26QLocalMediaPlaylistControl12currentIndexEv)
    i._ZNK26QLocalMediaPlaylistControl12playbackModeEv 0x0002d2d6   Section       12  qmediaplaylist.o(i._ZNK26QLocalMediaPlaylistControl12playbackModeEv)
    i._ZNK26QLocalMediaPlaylistControl13previousIndexEi 0x0002d2e2   Section       16  qmediaplaylist.o(i._ZNK26QLocalMediaPlaylistControl13previousIndexEi)
    i._ZNK26QLocalMediaPlaylistControl16playlistProviderEv 0x0002d2f2   Section       12  qmediaplaylist.o(i._ZNK26QLocalMediaPlaylistControl16playlistProviderEv)
    i._ZNK26QLocalMediaPlaylistControl9nextIndexEi 0x0002d2fe   Section       16  qmediaplaylist.o(i._ZNK26QLocalMediaPlaylistControl9nextIndexEi)
    i._ZNK26QMediaPlaylistNullProvider10mediaCountEv 0x0002d30e   Section        6  qmediaplaylistnavigator.o(i._ZNK26QMediaPlaylistNullProvider10mediaCountEv)
    i._ZNK26QMediaPlaylistNullProvider5mediaEi 0x0002d314   Section       18  qmediaplaylistnavigator.o(i._ZNK26QMediaPlaylistNullProvider5mediaEi)
    i._ZNK26QVideoSurfaceFormatPrivateeqERKS_ 0x0002d328   Section      396  qvideosurfaceformat.o(i._ZNK26QVideoSurfaceFormatPrivateeqERKS_)
    i._ZNK5QBoolcvPKvEv                      0x0002d4b4   Section       16  qaudiodeviceinfo.o(i._ZNK5QBoolcvPKvEv)
    i._ZNK5QRect4sizeEv                      0x0002d4c4   Section       38  qvideowidget.o(i._ZNK5QRect4sizeEv)
    i._ZNK5QSize7isEmptyEv                   0x0002d4ea   Section       22  qpaintervideosurface.o(i._ZNK5QSize7isEmptyEv)
    i._ZNK7QObject7connectEPKS_PKcS3_N2Qt14ConnectionTypeE 0x0002d500   Section       30  qmediaobject.o(i._ZNK7QObject7connectEPKS_PKcS3_N2Qt14ConnectionTypeE)
    i._ZNK7QString6isNullEv                  0x0002d520   Section       24  qmediaresource.o(i._ZNK7QString6isNullEv)
    i._ZNK7QString7isEmptyEv                 0x0002d538   Section       18  qmediaimageviewerservice.o(i._ZNK7QString7isEmptyEv)
    i._ZNK7QWidget13testAttributeEN2Qt15WidgetAttributeE 0x0002d54a   Section       40  qvideowidget.o(i._ZNK7QWidget13testAttributeEN2Qt15WidgetAttributeE)
    i._ZNK7QWidget4rectEv                    0x0002d572   Section       66  qvideowidget.o(i._ZNK7QWidget4rectEv)
    i._ZNK7TFourCCeqERKm                     0x0002d5b4   Section       18  qaudio_symbian_p.o(i._ZNK7TFourCCeqERKm)
    i._ZNK8QPalette6windowEv                 0x0002d5c6   Section       18  qvideowidget.o(i._ZNK8QPalette6windowEv)
    i._ZNK9QListData2atEi                    0x0002d5d8   Section       20  qlocalmediaplaylistprovider.o(i._ZNK9QListData2atEi)
    i._ZNK9QListData3endEv                   0x0002d5ec   Section       16  qmediaobject.o(i._ZNK9QListData3endEv)
    i._ZNK9QListData4sizeEv                  0x0002d5fc   Section       14  qlocalmediaplaylistprovider.o(i._ZNK9QListData4sizeEv)
    i._ZNK9QListData5beginEv                 0x0002d60a   Section       16  qmediaobject.o(i._ZNK9QListData5beginEv)
    i._ZNK9QListData7isEmptyEv               0x0002d61a   Section       22  qmediaserviceprovider.o(i._ZNK9QListData7isEmptyEv)
    i._ZThn8_N19QVideoWidgetBackendD0Ev      0x0002d630   Section       14  qvideowidget.o(i._ZThn8_N19QVideoWidgetBackendD0Ev)
    i._ZThn8_N19QVideoWidgetBackendD1Ev      0x0002d63e   Section       14  qvideowidget.o(i._ZThn8_N19QVideoWidgetBackendD1Ev)
    i._ZThn8_N26QVideoWidgetControlBackendD0Ev 0x0002d64c   Section       14  qvideowidget.o(i._ZThn8_N26QVideoWidgetControlBackendD0Ev)
    i._ZThn8_N26QVideoWidgetControlBackendD1Ev 0x0002d65a   Section       14  qvideowidget.o(i._ZThn8_N26QVideoWidgetControlBackendD1Ev)
    i._ZThn8_N27QMediaServiceProviderPluginD0Ev 0x0002d668   Section       14  qmediaserviceprovider.o(i._ZThn8_N27QMediaServiceProviderPluginD0Ev)
    i._ZThn8_N27QMediaServiceProviderPluginD1Ev 0x0002d676   Section       14  qmediaserviceprovider.o(i._ZThn8_N27QMediaServiceProviderPluginD1Ev)
    i._ZdlPvS_                               0x0002d684   Section        2  qmediaobject.o(i._ZdlPvS_)
    i._ZeqRK10QByteArrayS1_                  0x0002d686   Section       68  qmediaserviceprovider.o(i._ZeqRK10QByteArrayS1_)
    i._ZeqRK5QSizeS1_                        0x0002d6ca   Section       26  qmediaencodersettings.o(i._ZeqRK5QSizeS1_)
    i._ZneRK10QByteArrayPKc                  0x0002d6e4   Section       54  qvideosurfaceformat.o(i._ZneRK10QByteArrayPKc)
    i._ZnwjPv                                0x0002d71a   Section        6  qmediaobject.o(i._ZnwjPv)
    t._Z12appendUniqueIN12QAudioFormat10SampleTypeEEvR5QListIT_ERKS4_ 0x0002d720   Section      274  qaudiodeviceinfo_symbian_p.o(t._Z12appendUniqueIN12QAudioFormat10SampleTypeEEvR5QListIT_ERKS4_)
    t._Z12appendUniqueIN12QAudioFormat10SampleTypeEEvR5QListIT_ERKS4_.clean 0x0002d832   Section       20  qaudiodeviceinfo_symbian_p.o(t._Z12appendUniqueIN12QAudioFormat10SampleTypeEEvR5QListIT_ERKS4_.clean)
    t._Z12appendUniqueIN12QAudioFormat6EndianEEvR5QListIT_ERKS4_ 0x0002d846   Section      274  qaudiodeviceinfo_symbian_p.o(t._Z12appendUniqueIN12QAudioFormat6EndianEEvR5QListIT_ERKS4_)
    t._Z12appendUniqueIN12QAudioFormat6EndianEEvR5QListIT_ERKS4_.clean 0x0002d958   Section       20  qaudiodeviceinfo_symbian_p.o(t._Z12appendUniqueIN12QAudioFormat6EndianEEvR5QListIT_ERKS4_.clean)
    t._Z12appendUniqueIiEvR5QListIT_ERKS2_   0x0002d96c   Section      274  qaudiodeviceinfo_symbian_p.o(t._Z12appendUniqueIiEvR5QListIT_ERKS2_)
    t._Z12appendUniqueIiEvR5QListIT_ERKS2_.clean 0x0002da7e   Section       20  qaudiodeviceinfo_symbian_p.o(t._Z12appendUniqueIiEvR5QListIT_ERKS2_.clean)
    t._Z12qobject_castIP17QFactoryInterfaceET_P7QObject 0x0002da94   Section       28  qmediapluginloader.o(t._Z12qobject_castIP17QFactoryInterfaceET_P7QObject)
    t._Z12qobject_castIP18QAudioSystemPluginET_P7QObject 0x0002dab0   Section       32  qaudiopluginloader.o(t._Z12qobject_castIP18QAudioSystemPluginET_P7QObject)
    t._Z12qobject_castIP23QMediaBindableInterfaceET_P7QObject 0x0002dad0   Section       68  qmediaobject.o(t._Z12qobject_castIP23QMediaBindableInterfaceET_P7QObject)
    t._Z12qobject_castIP25QMediaPlaylistIOInterfaceET_P7QObject 0x0002db14   Section       28  qmediaplaylist.o(t._Z12qobject_castIP25QMediaPlaylistIOInterfaceET_P7QObject)
    t._Z12qobject_castIP28QAudioSystemFactoryInterfaceET_P7QObject 0x0002db30   Section       28  qaudiodevicefactory.o(t._Z12qobject_castIP28QAudioSystemFactoryInterfaceET_P7QObject)
    t._Z12qobject_castIP30QMediaServiceFeaturesInterfaceET_P7QObject 0x0002db4c   Section       28  qmediaserviceprovider.o(t._Z12qobject_castIP30QMediaServiceFeaturesInterfaceET_P7QObject)
    t._Z12qobject_castIP38QMediaServiceSupportedDevicesInterfaceET_P7QObject 0x0002db68   Section       80  qmediaserviceprovider.o(t._Z12qobject_castIP38QMediaServiceSupportedDevicesInterfaceET_P7QObject)
    t._Z12qobject_castIP38QMediaServiceSupportedFormatsInterfaceET_P7QObject 0x0002dbb8   Section       80  qmediaserviceprovider.o(t._Z12qobject_castIP38QMediaServiceSupportedFormatsInterfaceET_P7QObject)
    t._Z13qvariant_castI15QNetworkRequestET_RK8QVariant 0x0002dc08   Section      136  qmediaresource.o(t._Z13qvariant_castI15QNetworkRequestET_RK8QVariant)
    t._Z13qvariant_castI15QNetworkRequestET_RK8QVariant.clean 0x0002dc90   Section       26  qmediaresource.o(t._Z13qvariant_castI15QNetworkRequestET_RK8QVariant.clean)
    t._Z13qvariant_castI5QSizeET_RK8QVariant 0x0002dcaa   Section       94  qvideosurfaceformat.o(t._Z13qvariant_castI5QSizeET_RK8QVariant)
    t._Z13qvariant_castI7QStringET_RK8QVariant 0x0002dd08   Section      106  qmediaresource.o(t._Z13qvariant_castI7QStringET_RK8QVariant)
    t._Z13qvariant_castI7QStringET_RK8QVariant.clean 0x0002dd72   Section       10  qmediaresource.o(t._Z13qvariant_castI7QStringET_RK8QVariant.clean)
    t._Z13qvariant_castIiET_RK8QVariant      0x0002dd7c   Section       62  qmediaresource.o(t._Z13qvariant_castIiET_RK8QVariant)
    t._Z15qMapLessThanKeyI4QUrlEbRKT_S3_     0x0002ddba   Section       16  qsamplecache_p.o(t._Z15qMapLessThanKeyI4QUrlEbRKT_S3_)
    t._Z15qMapLessThanKeyI7QStringEbRKT_S3_  0x0002ddca   Section       16  qmediapluginloader.o(t._Z15qMapLessThanKeyI7QStringEbRKT_S3_)
    t._Z15qMapLessThanKeyIN7QCamera10LockStatusEEbRKT_S4_ 0x0002ddda   Section       18  qcamera.o(t._Z15qMapLessThanKeyIN7QCamera10LockStatusEEbRKT_S4_)
    t._Z15qMapLessThanKeyIP13QMediaServiceEbRKT_S4_ 0x0002ddec   Section       18  qmediaserviceprovider.o(t._Z15qMapLessThanKeyIP13QMediaServiceEbRKT_S4_)
    t._Z15qMapLessThanKeyIiEbRKT_S2_         0x0002ddfe   Section       18  qmediaresource.o(t._Z15qMapLessThanKeyIiEbRKT_S2_)
    t._Z17qRegisterMetaTypeI15QNetworkRequestEiPKcPT_ 0x0002de10   Section       64  qmediaresource.o(t._Z17qRegisterMetaTypeI15QNetworkRequestEiPKcPT_)
    t._Z17qRegisterMetaTypeI19QVideoSurfaceFormatEiPKcPT_ 0x0002de50   Section       64  qabstractvideosurface.o(t._Z17qRegisterMetaTypeI19QVideoSurfaceFormatEiPKcPT_)
    t._Z17qRegisterMetaTypeI6QFlagsIN12QCameraFocus9FocusModeEEEiPKcPT_ 0x0002de90   Section      140  qcamerafocus.o(t._Z17qRegisterMetaTypeI6QFlagsIN12QCameraFocus9FocusModeEEEiPKcPT_)
    t._Z17qRegisterMetaTypeI6QFlagsIN15QCameraExposure9FlashModeEEEiPKcPT_ 0x0002df1c   Section      140  qcameraexposure.o(t._Z17qRegisterMetaTypeI6QFlagsIN15QCameraExposure9FlashModeEEEiPKcPT_)
    t._Z17qRegisterMetaTypeIN11QVideoFrame11PixelFormatEEiPKcPT_ 0x0002dfa8   Section       64  qvideosurfaceformat.o(t._Z17qRegisterMetaTypeIN11QVideoFrame11PixelFormatEEiPKcPT_)
    t._Z17qRegisterMetaTypeIN12QCameraFocus14FocusPointModeEEiPKcPT_ 0x0002dfe8   Section      144  qcamerafocus.o(t._Z17qRegisterMetaTypeIN12QCameraFocus14FocusPointModeEEiPKcPT_)
    t._Z17qRegisterMetaTypeIN12QMediaPlayer11MediaStatusEEiPKcPT_ 0x0002e078   Section      140  qmediaplayer.o(t._Z17qRegisterMetaTypeIN12QMediaPlayer11MediaStatusEEiPKcPT_)
    t._Z17qRegisterMetaTypeIN12QMediaPlayer5ErrorEEiPKcPT_ 0x0002e104   Section      132  qmediaplayer.o(t._Z17qRegisterMetaTypeIN12QMediaPlayer5ErrorEEiPKcPT_)
    t._Z17qRegisterMetaTypeIN12QMediaPlayer5StateEEiPKcPT_ 0x0002e188   Section      132  qmediaplayer.o(t._Z17qRegisterMetaTypeIN12QMediaPlayer5StateEEiPKcPT_)
    t._Z17qRegisterMetaTypeIN14QMediaRecorder5ErrorEEiPKcPT_ 0x0002e20c   Section      136  qmediarecorder.o(t._Z17qRegisterMetaTypeIN14QMediaRecorder5ErrorEEiPKcPT_)
    t._Z17qRegisterMetaTypeIN14QMediaRecorder5StateEEiPKcPT_ 0x0002e294   Section      136  qmediarecorder.o(t._Z17qRegisterMetaTypeIN14QMediaRecorder5StateEEiPKcPT_)
    t._Z17qRegisterMetaTypeIN15QCameraExposure12ExposureModeEEiPKcPT_ 0x0002e31c   Section      144  qcameraexposure.o(t._Z17qRegisterMetaTypeIN15QCameraExposure12ExposureModeEEiPKcPT_)
    t._Z17qRegisterMetaTypeIN15QCameraExposure12MeteringModeEEiPKcPT_ 0x0002e3ac   Section      144  qcameraexposure.o(t._Z17qRegisterMetaTypeIN15QCameraExposure12MeteringModeEEiPKcPT_)
    t._Z17qRegisterMetaTypeIN19QCameraImageCapture5ErrorEEiPKcPT_ 0x0002e43c   Section      152  qcameraimagecapture.o(t._Z17qRegisterMetaTypeIN19QCameraImageCapture5ErrorEEiPKcPT_)
    t._Z17qRegisterMetaTypeIN19QVideoSurfaceFormat15YCbCrColorSpaceEEiPKcPT_ 0x0002e4d4   Section       64  qvideosurfaceformat.o(t._Z17qRegisterMetaTypeIN19QVideoSurfaceFormat15YCbCrColorSpaceEEiPKcPT_)
    t._Z17qRegisterMetaTypeIN19QVideoSurfaceFormat9DirectionEEiPKcPT_ 0x0002e514   Section       64  qvideosurfaceformat.o(t._Z17qRegisterMetaTypeIN19QVideoSurfaceFormat9DirectionEEiPKcPT_)
    t._Z17qRegisterMetaTypeIN20QAbstractVideoBuffer10HandleTypeEEiPKcPT_ 0x0002e554   Section       64  qvideosurfaceformat.o(t._Z17qRegisterMetaTypeIN20QAbstractVideoBuffer10HandleTypeEEiPKcPT_)
    t._Z17qRegisterMetaTypeIN21QAbstractVideoSurface5ErrorEEiPKcPT_ 0x0002e594   Section       64  qabstractvideosurface.o(t._Z17qRegisterMetaTypeIN21QAbstractVideoSurface5ErrorEEiPKcPT_)
    t._Z17qRegisterMetaTypeIN6QAudio4ModeEEiPKcPT_ 0x0002e5d4   Section       64  qaudio.o(t._Z17qRegisterMetaTypeIN6QAudio4ModeEEiPKcPT_)
    t._Z17qRegisterMetaTypeIN6QAudio5ErrorEEiPKcPT_ 0x0002e614   Section       64  qaudio.o(t._Z17qRegisterMetaTypeIN6QAudio5ErrorEEiPKcPT_)
    t._Z17qRegisterMetaTypeIN6QAudio5StateEEiPKcPT_ 0x0002e654   Section       64  qaudio.o(t._Z17qRegisterMetaTypeIN6QAudio5StateEEiPKcPT_)
    t._Z17qRegisterMetaTypeIN7QCamera10LockStatusEEiPKcPT_ 0x0002e694   Section      132  qcamera.o(t._Z17qRegisterMetaTypeIN7QCamera10LockStatusEEiPKcPT_)
    t._Z17qRegisterMetaTypeIN7QCamera16LockChangeReasonEEiPKcPT_ 0x0002e718   Section      140  qcamera.o(t._Z17qRegisterMetaTypeIN7QCamera16LockChangeReasonEEiPKcPT_)
    t._Z17qRegisterMetaTypeIN7QCamera5ErrorEEiPKcPT_ 0x0002e7a4   Section      128  qcamera.o(t._Z17qRegisterMetaTypeIN7QCamera5ErrorEEiPKcPT_)
    t._Z17qRegisterMetaTypeIN7QCamera5StateEEiPKcPT_ 0x0002e824   Section      128  qcamera.o(t._Z17qRegisterMetaTypeIN7QCamera5StateEEiPKcPT_)
    t._Z17qRegisterMetaTypeIN7QCamera6StatusEEiPKcPT_ 0x0002e8a4   Section      128  qcamera.o(t._Z17qRegisterMetaTypeIN7QCamera6StatusEEiPKcPT_)
    t._Z17qRegisterMetaTypeIN7QCamera8LockTypeEEiPKcPT_ 0x0002e924   Section      132  qcamera.o(t._Z17qRegisterMetaTypeIN7QCamera8LockTypeEEiPKcPT_)
    t._Z17qRegisterMetaTypeIP10CMMFBufferEiPKcPT_ 0x0002e9a8   Section       64  qaudioinput_symbian_p.o(t._Z17qRegisterMetaTypeIP10CMMFBufferEiPKcPT_)
    t._Z17qRegisterMetaTypeIP11CCoeControlEiPKcPT_ 0x0002e9e8   Section       64  qgraphicsvideoitem_symbian.o(t._Z17qRegisterMetaTypeIP11CCoeControlEiPKcPT_)
    t._Z17qVariantFromValueIN20QAbstractVideoBuffer10HandleTypeEE8QVariantRKT_ 0x0002ea28   Section       30  qvideosurfaceformat.o(t._Z17qVariantFromValueIN20QAbstractVideoBuffer10HandleTypeEE8QVariantRKT_)
    t._Z18qVariantCanConvertI5QSizeEbRK8QVariant 0x0002ea46   Section       24  qvideosurfaceformat.o(t._Z18qVariantCanConvertI5QSizeEbRK8QVariant)
    t._Z20qForeachContainerNewI11QStringListE17QForeachContainerIT_ERKS2_ 0x0002ea5e   Section      108  qmediapluginloader.o(t._Z20qForeachContainerNewI11QStringListE17QForeachContainerIT_ERKS2_)
    t._Z20qForeachContainerNewI11QStringListE17QForeachContainerIT_ERKS2_.clean 0x0002eaca   Section       10  qmediapluginloader.o(t._Z20qForeachContainerNewI11QStringListE17QForeachContainerIT_ERKS2_.clean)
    t._Z20qForeachContainerNewI5QListI10QByteArrayEE17QForeachContainerIT_ERKS4_ 0x0002ead4   Section      126  qaudiodevicefactory.o(t._Z20qForeachContainerNewI5QListI10QByteArrayEE17QForeachContainerIT_ERKS4_)
    t._Z20qForeachContainerNewI5QListI10QByteArrayEE17QForeachContainerIT_ERKS4_.clean 0x0002eb52   Section       10  qaudiodevicefactory.o(t._Z20qForeachContainerNewI5QListI10QByteArrayEE17QForeachContainerIT_ERKS4_.clean)
    t._Z20qForeachContainerNewI5QListI18QMediaTimeIntervalEE17QForeachContainerIT_ERKS4_ 0x0002eb5c   Section      102  qmediatimerange.o(t._Z20qForeachContainerNewI5QListI18QMediaTimeIntervalEE17QForeachContainerIT_ERKS4_)
    t._Z20qForeachContainerNewI5QListI18QMediaTimeIntervalEE17QForeachContainerIT_ERKS4_.clean 0x0002ebc2   Section       10  qmediatimerange.o(t._Z20qForeachContainerNewI5QListI18QMediaTimeIntervalEE17QForeachContainerIT_ERKS4_.clean)
    t._Z20qForeachContainerNewI5QListI8QPointerI7QObjectEEE17QForeachContainerIT_ERKS6_ 0x0002ebcc   Section      126  qgraphicsvideoitem_symbian.o(t._Z20qForeachContainerNewI5QListI8QPointerI7QObjectEEE17QForeachContainerIT_ERKS6_)
    t._Z20qForeachContainerNewI5QListI8QPointerI7QObjectEEE17QForeachContainerIT_ERKS6_.clean 0x0002ec4a   Section       10  qgraphicsvideoitem_symbian.o(t._Z20qForeachContainerNewI5QListI8QPointerI7QObjectEEE17QForeachContainerIT_ERKS6_.clean)
    t._Z20qForeachContainerNewI5QListI8QVariantEE17QForeachContainerIT_ERKS4_ 0x0002ec54   Section      126  qcameraexposure.o(t._Z20qForeachContainerNewI5QListI8QVariantEE17QForeachContainerIT_ERKS4_)
    t._Z20qForeachContainerNewI5QListI8QVariantEE17QForeachContainerIT_ERKS4_.clean 0x0002ecd2   Section       10  qcameraexposure.o(t._Z20qForeachContainerNewI5QListI8QVariantEE17QForeachContainerIT_ERKS4_.clean)
    t._Z20qForeachContainerNewI5QListIP27QMediaServiceProviderPluginEE17QForeachContainerIT_ERKS5_ 0x0002ecdc   Section      126  qmediaserviceprovider.o(t._Z20qForeachContainerNewI5QListIP27QMediaServiceProviderPluginEE17QForeachContainerIT_ERKS5_)
    t._Z20qForeachContainerNewI5QListIP27QMediaServiceProviderPluginEE17QForeachContainerIT_ERKS5_.clean 0x0002ed5a   Section       10  qmediaserviceprovider.o(t._Z20qForeachContainerNewI5QListIP27QMediaServiceProviderPluginEE17QForeachContainerIT_ERKS5_.clean)
    t._Z20qForeachContainerNewI5QListIP7QObjectEE17QForeachContainerIT_ERKS5_ 0x0002ed64   Section      126  qmediaserviceprovider.o(t._Z20qForeachContainerNewI5QListIP7QObjectEE17QForeachContainerIT_ERKS5_)
    t._Z20qForeachContainerNewI5QListIP7QObjectEE17QForeachContainerIT_ERKS5_.clean 0x0002ede2   Section       10  qmediaserviceprovider.o(t._Z20qForeachContainerNewI5QListIP7QObjectEE17QForeachContainerIT_ERKS5_.clean)
    t._Z20qForeachContainerNewI5QListIiEE17QForeachContainerIT_ERKS3_ 0x0002edec   Section      102  qaudiodeviceinfo.o(t._Z20qForeachContainerNewI5QListIiEE17QForeachContainerIT_ERKS3_)
    t._Z20qForeachContainerNewI5QListIiEE17QForeachContainerIT_ERKS3_.clean 0x0002ee52   Section       10  qaudiodeviceinfo.o(t._Z20qForeachContainerNewI5QListIiEE17QForeachContainerIT_ERKS3_.clean)
    t._Z21qMetaTypeDeleteHelperI15QNetworkRequestEvPT_ 0x0002ee5c   Section       22  qmediaresource.o(t._Z21qMetaTypeDeleteHelperI15QNetworkRequestEvPT_)
    t._Z21qMetaTypeDeleteHelperI19QVideoSurfaceFormatEvPT_ 0x0002ee72   Section       22  qabstractvideosurface.o(t._Z21qMetaTypeDeleteHelperI19QVideoSurfaceFormatEvPT_)
    t._Z21qMetaTypeDeleteHelperI6QFlagsIN12QCameraFocus9FocusModeEEEvPT_ 0x0002ee88   Section       12  qcamerafocus.o(t._Z21qMetaTypeDeleteHelperI6QFlagsIN12QCameraFocus9FocusModeEEEvPT_)
    t._Z21qMetaTypeDeleteHelperI6QFlagsIN15QCameraExposure9FlashModeEEEvPT_ 0x0002ee94   Section       12  qcameraexposure.o(t._Z21qMetaTypeDeleteHelperI6QFlagsIN15QCameraExposure9FlashModeEEEvPT_)
    t._Z21qMetaTypeDeleteHelperIN11QVideoFrame11PixelFormatEEvPT_ 0x0002eea0   Section       12  qvideosurfaceformat.o(t._Z21qMetaTypeDeleteHelperIN11QVideoFrame11PixelFormatEEvPT_)
    t._Z21qMetaTypeDeleteHelperIN12QCameraFocus14FocusPointModeEEvPT_ 0x0002eeac   Section       12  qcamerafocus.o(t._Z21qMetaTypeDeleteHelperIN12QCameraFocus14FocusPointModeEEvPT_)
    t._Z21qMetaTypeDeleteHelperIN12QMediaPlayer11MediaStatusEEvPT_ 0x0002eeb8   Section       12  qmediaplayer.o(t._Z21qMetaTypeDeleteHelperIN12QMediaPlayer11MediaStatusEEvPT_)
    t._Z21qMetaTypeDeleteHelperIN12QMediaPlayer5ErrorEEvPT_ 0x0002eec4   Section       12  qmediaplayer.o(t._Z21qMetaTypeDeleteHelperIN12QMediaPlayer5ErrorEEvPT_)
    t._Z21qMetaTypeDeleteHelperIN12QMediaPlayer5StateEEvPT_ 0x0002eed0   Section       12  qmediaplayer.o(t._Z21qMetaTypeDeleteHelperIN12QMediaPlayer5StateEEvPT_)
    t._Z21qMetaTypeDeleteHelperIN14QMediaRecorder5ErrorEEvPT_ 0x0002eedc   Section       12  qmediarecorder.o(t._Z21qMetaTypeDeleteHelperIN14QMediaRecorder5ErrorEEvPT_)
    t._Z21qMetaTypeDeleteHelperIN14QMediaRecorder5StateEEvPT_ 0x0002eee8   Section       12  qmediarecorder.o(t._Z21qMetaTypeDeleteHelperIN14QMediaRecorder5StateEEvPT_)
    t._Z21qMetaTypeDeleteHelperIN15QCameraExposure12ExposureModeEEvPT_ 0x0002eef4   Section       12  qcameraexposure.o(t._Z21qMetaTypeDeleteHelperIN15QCameraExposure12ExposureModeEEvPT_)
    t._Z21qMetaTypeDeleteHelperIN15QCameraExposure12MeteringModeEEvPT_ 0x0002ef00   Section       12  qcameraexposure.o(t._Z21qMetaTypeDeleteHelperIN15QCameraExposure12MeteringModeEEvPT_)
    t._Z21qMetaTypeDeleteHelperIN19QCameraImageCapture5ErrorEEvPT_ 0x0002ef0c   Section       12  qcameraimagecapture.o(t._Z21qMetaTypeDeleteHelperIN19QCameraImageCapture5ErrorEEvPT_)
    t._Z21qMetaTypeDeleteHelperIN19QVideoSurfaceFormat15YCbCrColorSpaceEEvPT_ 0x0002ef18   Section       12  qvideosurfaceformat.o(t._Z21qMetaTypeDeleteHelperIN19QVideoSurfaceFormat15YCbCrColorSpaceEEvPT_)
    t._Z21qMetaTypeDeleteHelperIN19QVideoSurfaceFormat9DirectionEEvPT_ 0x0002ef24   Section       12  qvideosurfaceformat.o(t._Z21qMetaTypeDeleteHelperIN19QVideoSurfaceFormat9DirectionEEvPT_)
    t._Z21qMetaTypeDeleteHelperIN20QAbstractVideoBuffer10HandleTypeEEvPT_ 0x0002ef30   Section       12  qvideosurfaceformat.o(t._Z21qMetaTypeDeleteHelperIN20QAbstractVideoBuffer10HandleTypeEEvPT_)
    t._Z21qMetaTypeDeleteHelperIN21QAbstractVideoSurface5ErrorEEvPT_ 0x0002ef3c   Section       12  qabstractvideosurface.o(t._Z21qMetaTypeDeleteHelperIN21QAbstractVideoSurface5ErrorEEvPT_)
    t._Z21qMetaTypeDeleteHelperIN6QAudio4ModeEEvPT_ 0x0002ef48   Section       12  qaudio.o(t._Z21qMetaTypeDeleteHelperIN6QAudio4ModeEEvPT_)
    t._Z21qMetaTypeDeleteHelperIN6QAudio5ErrorEEvPT_ 0x0002ef54   Section       12  qaudio.o(t._Z21qMetaTypeDeleteHelperIN6QAudio5ErrorEEvPT_)
    t._Z21qMetaTypeDeleteHelperIN6QAudio5StateEEvPT_ 0x0002ef60   Section       12  qaudio.o(t._Z21qMetaTypeDeleteHelperIN6QAudio5StateEEvPT_)
    t._Z21qMetaTypeDeleteHelperIN7QCamera10LockStatusEEvPT_ 0x0002ef6c   Section       12  qcamera.o(t._Z21qMetaTypeDeleteHelperIN7QCamera10LockStatusEEvPT_)
    t._Z21qMetaTypeDeleteHelperIN7QCamera16LockChangeReasonEEvPT_ 0x0002ef78   Section       12  qcamera.o(t._Z21qMetaTypeDeleteHelperIN7QCamera16LockChangeReasonEEvPT_)
    t._Z21qMetaTypeDeleteHelperIN7QCamera5ErrorEEvPT_ 0x0002ef84   Section       12  qcamera.o(t._Z21qMetaTypeDeleteHelperIN7QCamera5ErrorEEvPT_)
    t._Z21qMetaTypeDeleteHelperIN7QCamera5StateEEvPT_ 0x0002ef90   Section       12  qcamera.o(t._Z21qMetaTypeDeleteHelperIN7QCamera5StateEEvPT_)
    t._Z21qMetaTypeDeleteHelperIN7QCamera6StatusEEvPT_ 0x0002ef9c   Section       12  qcamera.o(t._Z21qMetaTypeDeleteHelperIN7QCamera6StatusEEvPT_)
    t._Z21qMetaTypeDeleteHelperIN7QCamera8LockTypeEEvPT_ 0x0002efa8   Section       12  qcamera.o(t._Z21qMetaTypeDeleteHelperIN7QCamera8LockTypeEEvPT_)
    t._Z21qMetaTypeDeleteHelperIP10CMMFBufferEvPT_ 0x0002efb4   Section       12  qaudioinput_symbian_p.o(t._Z21qMetaTypeDeleteHelperIP10CMMFBufferEvPT_)
    t._Z21qMetaTypeDeleteHelperIP11CCoeControlEvPT_ 0x0002efc0   Section       12  qgraphicsvideoitem_symbian.o(t._Z21qMetaTypeDeleteHelperIP11CCoeControlEvPT_)
    t._Z24qMetaTypeConstructHelperI15QNetworkRequestEPvPKT_ 0x0002efcc   Section      108  qmediaresource.o(t._Z24qMetaTypeConstructHelperI15QNetworkRequestEPvPKT_)
    t._Z24qMetaTypeConstructHelperI15QNetworkRequestEPvPKT_.clean 0x0002f038   Section       40  qmediaresource.o(t._Z24qMetaTypeConstructHelperI15QNetworkRequestEPvPKT_.clean)
    t._Z24qMetaTypeConstructHelperI19QVideoSurfaceFormatEPvPKT_ 0x0002f060   Section       80  qabstractvideosurface.o(t._Z24qMetaTypeConstructHelperI19QVideoSurfaceFormatEPvPKT_)
    t._Z24qMetaTypeConstructHelperI19QVideoSurfaceFormatEPvPKT_.clean 0x0002f0b0   Section       28  qabstractvideosurface.o(t._Z24qMetaTypeConstructHelperI19QVideoSurfaceFormatEPvPKT_.clean)
    t._Z24qMetaTypeConstructHelperI6QFlagsIN12QCameraFocus9FocusModeEEEPvPKT_ 0x0002f0cc   Section       80  qcamerafocus.o(t._Z24qMetaTypeConstructHelperI6QFlagsIN12QCameraFocus9FocusModeEEEPvPKT_)
    t._Z24qMetaTypeConstructHelperI6QFlagsIN12QCameraFocus9FocusModeEEEPvPKT_.clean 0x0002f11c   Section        4  qcamerafocus.o(t._Z24qMetaTypeConstructHelperI6QFlagsIN12QCameraFocus9FocusModeEEEPvPKT_.clean)
    t._Z24qMetaTypeConstructHelperI6QFlagsIN15QCameraExposure9FlashModeEEEPvPKT_ 0x0002f120   Section       80  qcameraexposure.o(t._Z24qMetaTypeConstructHelperI6QFlagsIN15QCameraExposure9FlashModeEEEPvPKT_)
    t._Z24qMetaTypeConstructHelperI6QFlagsIN15QCameraExposure9FlashModeEEEPvPKT_.clean 0x0002f170   Section        4  qcameraexposure.o(t._Z24qMetaTypeConstructHelperI6QFlagsIN15QCameraExposure9FlashModeEEEPvPKT_.clean)
    t._Z24qMetaTypeConstructHelperIN11QVideoFrame11PixelFormatEEPvPKT_ 0x0002f174   Section       50  qvideosurfaceformat.o(t._Z24qMetaTypeConstructHelperIN11QVideoFrame11PixelFormatEEPvPKT_)
    t._Z24qMetaTypeConstructHelperIN12QCameraFocus14FocusPointModeEEPvPKT_ 0x0002f1a6   Section       50  qcamerafocus.o(t._Z24qMetaTypeConstructHelperIN12QCameraFocus14FocusPointModeEEPvPKT_)
    t._Z24qMetaTypeConstructHelperIN12QMediaPlayer11MediaStatusEEPvPKT_ 0x0002f1d8   Section       50  qmediaplayer.o(t._Z24qMetaTypeConstructHelperIN12QMediaPlayer11MediaStatusEEPvPKT_)
    t._Z24qMetaTypeConstructHelperIN12QMediaPlayer5ErrorEEPvPKT_ 0x0002f20a   Section       50  qmediaplayer.o(t._Z24qMetaTypeConstructHelperIN12QMediaPlayer5ErrorEEPvPKT_)
    t._Z24qMetaTypeConstructHelperIN12QMediaPlayer5StateEEPvPKT_ 0x0002f23c   Section       50  qmediaplayer.o(t._Z24qMetaTypeConstructHelperIN12QMediaPlayer5StateEEPvPKT_)
    t._Z24qMetaTypeConstructHelperIN14QMediaRecorder5ErrorEEPvPKT_ 0x0002f26e   Section       50  qmediarecorder.o(t._Z24qMetaTypeConstructHelperIN14QMediaRecorder5ErrorEEPvPKT_)
    t._Z24qMetaTypeConstructHelperIN14QMediaRecorder5StateEEPvPKT_ 0x0002f2a0   Section       50  qmediarecorder.o(t._Z24qMetaTypeConstructHelperIN14QMediaRecorder5StateEEPvPKT_)
    t._Z24qMetaTypeConstructHelperIN15QCameraExposure12ExposureModeEEPvPKT_ 0x0002f2d2   Section       50  qcameraexposure.o(t._Z24qMetaTypeConstructHelperIN15QCameraExposure12ExposureModeEEPvPKT_)
    t._Z24qMetaTypeConstructHelperIN15QCameraExposure12MeteringModeEEPvPKT_ 0x0002f304   Section       50  qcameraexposure.o(t._Z24qMetaTypeConstructHelperIN15QCameraExposure12MeteringModeEEPvPKT_)
    t._Z24qMetaTypeConstructHelperIN19QCameraImageCapture5ErrorEEPvPKT_ 0x0002f336   Section       50  qcameraimagecapture.o(t._Z24qMetaTypeConstructHelperIN19QCameraImageCapture5ErrorEEPvPKT_)
    t._Z24qMetaTypeConstructHelperIN19QVideoSurfaceFormat15YCbCrColorSpaceEEPvPKT_ 0x0002f368   Section       50  qvideosurfaceformat.o(t._Z24qMetaTypeConstructHelperIN19QVideoSurfaceFormat15YCbCrColorSpaceEEPvPKT_)
    t._Z24qMetaTypeConstructHelperIN19QVideoSurfaceFormat9DirectionEEPvPKT_ 0x0002f39a   Section       50  qvideosurfaceformat.o(t._Z24qMetaTypeConstructHelperIN19QVideoSurfaceFormat9DirectionEEPvPKT_)
    t._Z24qMetaTypeConstructHelperIN20QAbstractVideoBuffer10HandleTypeEEPvPKT_ 0x0002f3cc   Section       50  qvideosurfaceformat.o(t._Z24qMetaTypeConstructHelperIN20QAbstractVideoBuffer10HandleTypeEEPvPKT_)
    t._Z24qMetaTypeConstructHelperIN21QAbstractVideoSurface5ErrorEEPvPKT_ 0x0002f3fe   Section       50  qabstractvideosurface.o(t._Z24qMetaTypeConstructHelperIN21QAbstractVideoSurface5ErrorEEPvPKT_)
    t._Z24qMetaTypeConstructHelperIN6QAudio4ModeEEPvPKT_ 0x0002f430   Section       50  qaudio.o(t._Z24qMetaTypeConstructHelperIN6QAudio4ModeEEPvPKT_)
    t._Z24qMetaTypeConstructHelperIN6QAudio5ErrorEEPvPKT_ 0x0002f462   Section       50  qaudio.o(t._Z24qMetaTypeConstructHelperIN6QAudio5ErrorEEPvPKT_)
    t._Z24qMetaTypeConstructHelperIN6QAudio5StateEEPvPKT_ 0x0002f494   Section       50  qaudio.o(t._Z24qMetaTypeConstructHelperIN6QAudio5StateEEPvPKT_)
    t._Z24qMetaTypeConstructHelperIN7QCamera10LockStatusEEPvPKT_ 0x0002f4c6   Section       50  qcamera.o(t._Z24qMetaTypeConstructHelperIN7QCamera10LockStatusEEPvPKT_)
    t._Z24qMetaTypeConstructHelperIN7QCamera16LockChangeReasonEEPvPKT_ 0x0002f4f8   Section       50  qcamera.o(t._Z24qMetaTypeConstructHelperIN7QCamera16LockChangeReasonEEPvPKT_)
    t._Z24qMetaTypeConstructHelperIN7QCamera5ErrorEEPvPKT_ 0x0002f52a   Section       50  qcamera.o(t._Z24qMetaTypeConstructHelperIN7QCamera5ErrorEEPvPKT_)
    t._Z24qMetaTypeConstructHelperIN7QCamera5StateEEPvPKT_ 0x0002f55c   Section       50  qcamera.o(t._Z24qMetaTypeConstructHelperIN7QCamera5StateEEPvPKT_)
    t._Z24qMetaTypeConstructHelperIN7QCamera6StatusEEPvPKT_ 0x0002f58e   Section       50  qcamera.o(t._Z24qMetaTypeConstructHelperIN7QCamera6StatusEEPvPKT_)
    t._Z24qMetaTypeConstructHelperIN7QCamera8LockTypeEEPvPKT_ 0x0002f5c0   Section       50  qcamera.o(t._Z24qMetaTypeConstructHelperIN7QCamera8LockTypeEEPvPKT_)
    t._Z24qMetaTypeConstructHelperIP10CMMFBufferEPvPKT_ 0x0002f5f2   Section       50  qaudioinput_symbian_p.o(t._Z24qMetaTypeConstructHelperIP10CMMFBufferEPvPKT_)
    t._Z24qMetaTypeConstructHelperIP11CCoeControlEPvPKT_ 0x0002f624   Section       50  qgraphicsvideoitem_symbian.o(t._Z24qMetaTypeConstructHelperIP11CCoeControlEPvPKT_)
    t._Z4qAbsIfET_RKS0_                      0x0002f656   Section       28  qmediaencodersettings.o(t._Z4qAbsIfET_RKS0_)
    t._Z4qMaxIiERKT_S2_S2_                   0x0002f672   Section       18  qmediaimageviewer.o(t._Z4qMaxIiERKT_S2_S2_)
    t._Z6qBoundIiERKT_S2_S2_S2_              0x0002f684   Section       38  qvideowidget.o(t._Z6qBoundIiERKT_S2_S2_S2_)
    t._Z9qMakePairIiiE5QPairIT_T0_ERKS1_RKS2_ 0x0002f6aa   Section       22  qradiotuner.o(t._Z9qMakePairIiiE5QPairIT_T0_ERKS1_RKS2_)
    t._ZN12QMapIteratorIiiEC1ERK4QMapIiiE    0x0002f6c0   Section       78  qaudiodeviceinfo.o(t._ZN12QMapIteratorIiiEC1ERK4QMapIiiE)
    t._ZN12QMapIteratorIiiEC1ERK4QMapIiiE.clean 0x0002f70e   Section        4  qaudiodeviceinfo.o(t._ZN12QMapIteratorIiiEC1ERK4QMapIiiE.clean)
    t._ZN12QMetaTypeId2I15QNetworkRequestE14qt_metatype_idEv 0x0002f714   Section       76  qmediaresource.o(t._ZN12QMetaTypeId2I15QNetworkRequestE14qt_metatype_idEv)
    t._ZN12QMetaTypeId2I19QVideoSurfaceFormatE14qt_metatype_idEv 0x0002f760   Section       68  qabstractvideosurface.o(t._ZN12QMetaTypeId2I19QVideoSurfaceFormatE14qt_metatype_idEv)
    t._ZN12QMetaTypeId2IN11QVideoFrame11PixelFormatEE14qt_metatype_idEv 0x0002f7a4   Section       76  qvideosurfaceformat.o(t._ZN12QMetaTypeId2IN11QVideoFrame11PixelFormatEE14qt_metatype_idEv)
    t._ZN12QMetaTypeId2IN19QVideoSurfaceFormat15YCbCrColorSpaceEE14qt_metatype_idEv 0x0002f7f0   Section       88  qvideosurfaceformat.o(t._ZN12QMetaTypeId2IN19QVideoSurfaceFormat15YCbCrColorSpaceEE14qt_metatype_idEv)
    t._ZN12QMetaTypeId2IN19QVideoSurfaceFormat9DirectionEE14qt_metatype_idEv 0x0002f848   Section       80  qvideosurfaceformat.o(t._ZN12QMetaTypeId2IN19QVideoSurfaceFormat9DirectionEE14qt_metatype_idEv)
    t._ZN12QMetaTypeId2IN20QAbstractVideoBuffer10HandleTypeEE14qt_metatype_idEv 0x0002f898   Section       84  qvideosurfaceformat.o(t._ZN12QMetaTypeId2IN20QAbstractVideoBuffer10HandleTypeEE14qt_metatype_idEv)
    t._ZN12QMetaTypeId2IN21QAbstractVideoSurface5ErrorEE14qt_metatype_idEv 0x0002f8ec   Section       80  qabstractvideosurface.o(t._ZN12QMetaTypeId2IN21QAbstractVideoSurface5ErrorEE14qt_metatype_idEv)
    t._ZN12QMetaTypeId2IN6QAudio4ModeEE14qt_metatype_idEv 0x0002f93c   Section       64  qaudio.o(t._ZN12QMetaTypeId2IN6QAudio4ModeEE14qt_metatype_idEv)
    t._ZN12QMetaTypeId2IN6QAudio5ErrorEE14qt_metatype_idEv 0x0002f97c   Section       64  qaudio.o(t._ZN12QMetaTypeId2IN6QAudio5ErrorEE14qt_metatype_idEv)
    t._ZN12QMetaTypeId2IN6QAudio5StateEE14qt_metatype_idEv 0x0002f9bc   Section       64  qaudio.o(t._ZN12QMetaTypeId2IN6QAudio5StateEE14qt_metatype_idEv)
    t._ZN12QMetaTypeId2IP11CCoeControlE14qt_metatype_idEv 0x0002f9fc   Section       64  qgraphicsvideoitem_symbian.o(t._ZN12QMetaTypeId2IP11CCoeControlE14qt_metatype_idEv)
    t._ZN12SymbianAudio5Utils12convertValueI14TMMFMonoStereoiEEbPKT_PKT0_iS3_RS6_ 0x0002fa3c   Section       44  qaudio_symbian_p.o(t._ZN12SymbianAudio5Utils12convertValueI14TMMFMonoStereoiEEbPKT_PKT0_iS3_RS6_)
    t._ZN12SymbianAudio5Utils12convertValueI14TMMFSampleRateiEEbPKT_PKT0_iS3_RS6_ 0x0002fa68   Section       44  qaudio_symbian_p.o(t._ZN12SymbianAudio5Utils12convertValueI14TMMFSampleRateiEEbPKT_PKT0_iS3_RS6_)
    t._ZN12SymbianAudio5Utils12convertValueIi14TMMFMonoStereoEEbPKT_PKT0_iS3_RS6_ 0x0002fa94   Section       44  qaudio_symbian_p.o(t._ZN12SymbianAudio5Utils12convertValueIi14TMMFMonoStereoEEbPKT_PKT0_iS3_RS6_)
    t._ZN12SymbianAudio5Utils12convertValueIi14TMMFSampleRateEEbPKT_PKT0_iS3_RS6_ 0x0002fac0   Section       44  qaudio_symbian_p.o(t._ZN12SymbianAudio5Utils12convertValueIi14TMMFSampleRateEEbPKT_PKT0_iS3_RS6_)
    t._ZN12SymbianAudio5Utils9findValueI14TMMFMonoStereoEEbPKT_iS3_Ri 0x0002faec   Section       34  qaudio_symbian_p.o(t._ZN12SymbianAudio5Utils9findValueI14TMMFMonoStereoEEbPKT_iS3_Ri)
    t._ZN12SymbianAudio5Utils9findValueI14TMMFSampleRateEEbPKT_iS3_Ri 0x0002fb0e   Section       34  qaudio_symbian_p.o(t._ZN12SymbianAudio5Utils9findValueI14TMMFSampleRateEEbPKT_iS3_Ri)
    t._ZN12SymbianAudio5Utils9findValueIiEEbPKT_iS2_Ri 0x0002fb30   Section       34  qaudio_symbian_p.o(t._ZN12SymbianAudio5Utils9findValueIiEEbPKT_iS2_Ri)
    t._ZN14QHashDummyNodeI7QString15QHashDummyValueEC1ERKS0_ 0x0002fb52   Section       24  qaudiopluginloader.o(t._ZN14QHashDummyNodeI7QString15QHashDummyValueEC1ERKS0_)
    t._ZN14QScopedPointerI6QTimer21QScopedPointerDeleterIS0_EED1Ev 0x0002fb6a   Section       28  qaudioinput_symbian_p.o(t._ZN14QScopedPointerI6QTimer21QScopedPointerDeleterIS0_EED1Ev)
    t._ZN14QScopedPointerIN12SymbianAudio15DevSoundWrapperE21QScopedPointerDeleterIS1_EED1Ev 0x0002fb86   Section       28  qaudiodeviceinfo_symbian_p.o(t._ZN14QScopedPointerIN12SymbianAudio15DevSoundWrapperE21QScopedPointerDeleterIS1_EED1Ev)
    t._ZN18QSharedDataPointerI19QAudioFormatPrivateE13detach_helperEv 0x0002fba2   Section      156  qaudioformat.o(t._ZN18QSharedDataPointerI19QAudioFormatPrivateE13detach_helperEv)
    t._ZN18QSharedDataPointerI19QAudioFormatPrivateE13detach_helperEv.clean 0x0002fc3e   Section       16  qaudioformat.o(t._ZN18QSharedDataPointerI19QAudioFormatPrivateE13detach_helperEv.clean)
    t._ZN18QSharedDataPointerI19QAudioFormatPrivateED1Ev 0x0002fc4e   Section       42  qaudioformat.o(t._ZN18QSharedDataPointerI19QAudioFormatPrivateED1Ev)
    t._ZN18QSharedDataPointerI19QAudioFormatPrivateEptEv 0x0002fc78   Section       40  qaudioformat.o(t._ZN18QSharedDataPointerI19QAudioFormatPrivateEptEv)
    t._ZN18QSharedDataPointerI20QCameraFocusZoneDataE13detach_helperEv 0x0002fca0   Section      112  qcamerafocus.o(t._ZN18QSharedDataPointerI20QCameraFocusZoneDataE13detach_helperEv)
    t._ZN18QSharedDataPointerI20QCameraFocusZoneDataE13detach_helperEv.clean 0x0002fd10   Section       16  qcamerafocus.o(t._ZN18QSharedDataPointerI20QCameraFocusZoneDataE13detach_helperEv.clean)
    t._ZN18QSharedDataPointerI20QCameraFocusZoneDataEC1EPS0_ 0x0002fd20   Section       24  qcamerafocus.o(t._ZN18QSharedDataPointerI20QCameraFocusZoneDataEC1EPS0_)
    t._ZN18QSharedDataPointerI20QCameraFocusZoneDataED1Ev 0x0002fd38   Section       30  qcamerafocus.o(t._ZN18QSharedDataPointerI20QCameraFocusZoneDataED1Ev)
    t._ZN18QSharedDataPointerI20QMediaContentPrivateE13detach_helperEv 0x0002fd56   Section      114  qmediacontent.o(t._ZN18QSharedDataPointerI20QMediaContentPrivateE13detach_helperEv)
    t._ZN18QSharedDataPointerI20QMediaContentPrivateE13detach_helperEv.clean 0x0002fdc8   Section       16  qmediacontent.o(t._ZN18QSharedDataPointerI20QMediaContentPrivateE13detach_helperEv.clean)
    t._ZN18QSharedDataPointerI20QMediaContentPrivateEC1EPS0_ 0x0002fdd8   Section       24  qmediacontent.o(t._ZN18QSharedDataPointerI20QMediaContentPrivateEC1EPS0_)
    t._ZN18QSharedDataPointerI20QMediaContentPrivateED1Ev 0x0002fdf0   Section       42  qmediacontent.o(t._ZN18QSharedDataPointerI20QMediaContentPrivateED1Ev)
    t._ZN18QSharedDataPointerI20QMediaContentPrivateEptEv 0x0002fe1a   Section       34  qmediacontent.o(t._ZN18QSharedDataPointerI20QMediaContentPrivateEptEv)
    t._ZN18QSharedDataPointerI22QMediaTimeRangePrivateE13detach_helperEv 0x0002fe3c   Section       82  qmediatimerange.o(t._ZN18QSharedDataPointerI22QMediaTimeRangePrivateE13detach_helperEv)
    t._ZN18QSharedDataPointerI22QMediaTimeRangePrivateE13detach_helperEv.clean 0x0002fe8e   Section       16  qmediatimerange.o(t._ZN18QSharedDataPointerI22QMediaTimeRangePrivateE13detach_helperEv.clean)
    t._ZN18QSharedDataPointerI22QMediaTimeRangePrivateEC1EPS0_ 0x0002fe9e   Section       24  qmediatimerange.o(t._ZN18QSharedDataPointerI22QMediaTimeRangePrivateEC1EPS0_)
    t._ZN18QSharedDataPointerI22QMediaTimeRangePrivateED1Ev 0x0002feb6   Section       42  qmediatimerange.o(t._ZN18QSharedDataPointerI22QMediaTimeRangePrivateED1Ev)
    t._ZN18QSharedDataPointerI22QMediaTimeRangePrivateEptEv 0x0002fee0   Section       34  qmediatimerange.o(t._ZN18QSharedDataPointerI22QMediaTimeRangePrivateEptEv)
    t._ZN18QSharedDataPointerI23QAudioDeviceInfoPrivateEC1EPS0_ 0x0002ff02   Section       24  qaudiodeviceinfo.o(t._ZN18QSharedDataPointerI23QAudioDeviceInfoPrivateEC1EPS0_)
    t._ZN18QSharedDataPointerI23QAudioDeviceInfoPrivateED1Ev 0x0002ff1a   Section       42  qaudiodeviceinfo.o(t._ZN18QSharedDataPointerI23QAudioDeviceInfoPrivateED1Ev)
    t._ZN18QSharedDataPointerI26QVideoSurfaceFormatPrivateE13detach_helperEv 0x0002ff44   Section       82  qvideosurfaceformat.o(t._ZN18QSharedDataPointerI26QVideoSurfaceFormatPrivateE13detach_helperEv)
    t._ZN18QSharedDataPointerI26QVideoSurfaceFormatPrivateE13detach_helperEv.clean 0x0002ff96   Section       16  qvideosurfaceformat.o(t._ZN18QSharedDataPointerI26QVideoSurfaceFormatPrivateE13detach_helperEv.clean)
    t._ZN18QSharedDataPointerI26QVideoSurfaceFormatPrivateEC1EPS0_ 0x0002ffa6   Section       24  qvideosurfaceformat.o(t._ZN18QSharedDataPointerI26QVideoSurfaceFormatPrivateEC1EPS0_)
    t._ZN18QSharedDataPointerI26QVideoSurfaceFormatPrivateED1Ev 0x0002ffbe   Section       42  qvideosurfaceformat.o(t._ZN18QSharedDataPointerI26QVideoSurfaceFormatPrivateED1Ev)
    t._ZN18QSharedDataPointerI26QVideoSurfaceFormatPrivateEptEv 0x0002ffe8   Section       34  qvideosurfaceformat.o(t._ZN18QSharedDataPointerI26QVideoSurfaceFormatPrivateEptEv)
    t._ZN18QSharedDataPointerI28QAudioEncoderSettingsPrivateE13detach_helperEv 0x0003000a   Section      164  qmediaencodersettings.o(t._ZN18QSharedDataPointerI28QAudioEncoderSettingsPrivateE13detach_helperEv)
    t._ZN18QSharedDataPointerI28QAudioEncoderSettingsPrivateE13detach_helperEv.clean 0x000300ae   Section       16  qmediaencodersettings.o(t._ZN18QSharedDataPointerI28QAudioEncoderSettingsPrivateE13detach_helperEv.clean)
    t._ZN18QSharedDataPointerI28QAudioEncoderSettingsPrivateED1Ev 0x000300be   Section       42  qmediaencodersettings.o(t._ZN18QSharedDataPointerI28QAudioEncoderSettingsPrivateED1Ev)
    t._ZN18QSharedDataPointerI28QAudioEncoderSettingsPrivateEptEv 0x000300e8   Section       34  qmediaencodersettings.o(t._ZN18QSharedDataPointerI28QAudioEncoderSettingsPrivateEptEv)
    t._ZN18QSharedDataPointerI28QImageEncoderSettingsPrivateE13detach_helperEv 0x0003010a   Section      156  qmediaencodersettings.o(t._ZN18QSharedDataPointerI28QImageEncoderSettingsPrivateE13detach_helperEv)
    t._ZN18QSharedDataPointerI28QImageEncoderSettingsPrivateE13detach_helperEv.clean 0x000301a6   Section       20  qmediaencodersettings.o(t._ZN18QSharedDataPointerI28QImageEncoderSettingsPrivateE13detach_helperEv.clean)
    t._ZN18QSharedDataPointerI28QImageEncoderSettingsPrivateED1Ev 0x000301ba   Section       42  qmediaencodersettings.o(t._ZN18QSharedDataPointerI28QImageEncoderSettingsPrivateED1Ev)
    t._ZN18QSharedDataPointerI28QImageEncoderSettingsPrivateEptEv 0x000301e4   Section       34  qmediaencodersettings.o(t._ZN18QSharedDataPointerI28QImageEncoderSettingsPrivateEptEv)
    t._ZN18QSharedDataPointerI28QVideoEncoderSettingsPrivateE13detach_helperEv 0x00030206   Section      180  qmediaencodersettings.o(t._ZN18QSharedDataPointerI28QVideoEncoderSettingsPrivateE13detach_helperEv)
    t._ZN18QSharedDataPointerI28QVideoEncoderSettingsPrivateE13detach_helperEv.clean 0x000302ba   Section       20  qmediaencodersettings.o(t._ZN18QSharedDataPointerI28QVideoEncoderSettingsPrivateE13detach_helperEv.clean)
    t._ZN18QSharedDataPointerI28QVideoEncoderSettingsPrivateED1Ev 0x000302ce   Section       42  qmediaencodersettings.o(t._ZN18QSharedDataPointerI28QVideoEncoderSettingsPrivateED1Ev)
    t._ZN18QSharedDataPointerI28QVideoEncoderSettingsPrivateEptEv 0x000302f8   Section       34  qmediaencodersettings.o(t._ZN18QSharedDataPointerI28QVideoEncoderSettingsPrivateEptEv)
    t._ZN18QSharedDataPointerI32QMediaServiceProviderHintPrivateE13detach_helperEv 0x0003031a   Section      174  qmediaserviceprovider.o(t._ZN18QSharedDataPointerI32QMediaServiceProviderHintPrivateE13detach_helperEv)
    t._ZN18QSharedDataPointerI32QMediaServiceProviderHintPrivateE13detach_helperEv.clean 0x000303c8   Section       40  qmediaserviceprovider.o(t._ZN18QSharedDataPointerI32QMediaServiceProviderHintPrivateE13detach_helperEv.clean)
    t._ZN18QSharedDataPointerI32QMediaServiceProviderHintPrivateEC1EPS0_ 0x000303f0   Section       24  qmediaserviceprovider.o(t._ZN18QSharedDataPointerI32QMediaServiceProviderHintPrivateEC1EPS0_)
    t._ZN18QSharedDataPointerI32QMediaServiceProviderHintPrivateED1Ev 0x00030408   Section       42  qmediaserviceprovider.o(t._ZN18QSharedDataPointerI32QMediaServiceProviderHintPrivateED1Ev)
    t._ZN18QSharedDataPointerI32QMediaServiceProviderHintPrivateEptEv 0x00030432   Section       34  qmediaserviceprovider.o(t._ZN18QSharedDataPointerI32QMediaServiceProviderHintPrivateEptEv)
    t._ZN20QGlobalStaticDeleterI18QAudioPluginLoaderED1Ev 0x00030454   Section       42  qaudiodevicefactory.o(t._ZN20QGlobalStaticDeleterI18QAudioPluginLoaderED1Ev)
    t._ZN20QGlobalStaticDeleterI18QMediaPluginLoaderED1Ev 0x0003047e   Section       42  qmediaplaylist.o(t._ZN20QGlobalStaticDeleterI18QMediaPluginLoaderED1Ev)
    t._ZN20QGlobalStaticDeleterI22QPluginServiceProviderED1Ev 0x000304a8   Section       38  qmediaserviceprovider.o(t._ZN20QGlobalStaticDeleterI22QPluginServiceProviderED1Ev)
    t._ZN20QGlobalStaticDeleterI26QMediaPlaylistNullProviderED1Ev 0x000304ce   Section       38  qmediaplaylistnavigator.o(t._ZN20QGlobalStaticDeleterI26QMediaPlaylistNullProviderED1Ev)
    t._ZN20QGlobalStaticDeleterI4QMapI7QString5QListIP7QObjectEEED1Ev 0x000304f4   Section       42  qmediapluginloader.o(t._ZN20QGlobalStaticDeleterI4QMapI7QString5QListIP7QObjectEEED1Ev)
    t._ZN28QExplicitlySharedDataPointerI18QVideoFramePrivateEC1EPS0_ 0x0003051e   Section       24  qvideoframe.o(t._ZN28QExplicitlySharedDataPointerI18QVideoFramePrivateEC1EPS0_)
    t._ZN28QExplicitlySharedDataPointerI18QVideoFramePrivateED1Ev 0x00030536   Section       42  qvideoframe.o(t._ZN28QExplicitlySharedDataPointerI18QVideoFramePrivateED1Ev)
    t._ZN4QMapI4QUrlP7QSampleE11node_createEP8QMapDataPPNS4_4NodeERKS0_RKS2_ 0x00030560   Section      118  qsamplecache_p.o(t._ZN4QMapI4QUrlP7QSampleE11node_createEP8QMapDataPPNS4_4NodeERKS0_RKS2_)
    t._ZN4QMapI4QUrlP7QSampleE11node_createEP8QMapDataPPNS4_4NodeERKS0_RKS2_.clean 0x000305d6   Section       20  qsamplecache_p.o(t._ZN4QMapI4QUrlP7QSampleE11node_createEP8QMapDataPPNS4_4NodeERKS0_RKS2_.clean)
    t._ZN4QMapI4QUrlP7QSampleE13detach_helperEv 0x000305ea   Section      146  qsamplecache_p.o(t._ZN4QMapI4QUrlP7QSampleE13detach_helperEv)
    t._ZN4QMapI4QUrlP7QSampleE13detach_helperEv.clean 0x0003067c   Section        8  qsamplecache_p.o(t._ZN4QMapI4QUrlP7QSampleE13detach_helperEv.clean)
    t._ZN4QMapI4QUrlP7QSampleE3endEv         0x00030684   Section       18  qsamplecache_p.o(t._ZN4QMapI4QUrlP7QSampleE3endEv)
    t._ZN4QMapI4QUrlP7QSampleE5beginEv       0x00030696   Section       20  qsamplecache_p.o(t._ZN4QMapI4QUrlP7QSampleE5beginEv)
    t._ZN4QMapI4QUrlP7QSampleE5eraseENS3_8iteratorE 0x000306aa   Section      246  qsamplecache_p.o(t._ZN4QMapI4QUrlP7QSampleE5eraseENS3_8iteratorE)
    t._ZN4QMapI4QUrlP7QSampleE6detachEv      0x000307a0   Section       28  qsamplecache_p.o(t._ZN4QMapI4QUrlP7QSampleE6detachEv)
    t._ZN4QMapI4QUrlP7QSampleE6removeERKS0_  0x000307bc   Section      254  qsamplecache_p.o(t._ZN4QMapI4QUrlP7QSampleE6removeERKS0_)
    t._ZN4QMapI4QUrlP7QSampleE8freeDataEP8QMapData 0x000308ba   Section       56  qsamplecache_p.o(t._ZN4QMapI4QUrlP7QSampleE8freeDataEP8QMapData)
    t._ZN4QMapI4QUrlP7QSampleED1Ev           0x000308f2   Section       38  qsamplecache_p.o(t._ZN4QMapI4QUrlP7QSampleED1Ev)
    t._ZN4QMapI7QString5QListIP7QObjectEE11node_createEP8QMapDataPPNS6_4NodeERKS0_RKS4_ 0x00030918   Section      140  qmediapluginloader.o(t._ZN4QMapI7QString5QListIP7QObjectEE11node_createEP8QMapDataPPNS6_4NodeERKS0_RKS4_)
    t._ZN4QMapI7QString5QListIP7QObjectEE11node_createEP8QMapDataPPNS6_4NodeERKS0_RKS4_.clean 0x000309a4   Section       38  qmediapluginloader.o(t._ZN4QMapI7QString5QListIP7QObjectEE11node_createEP8QMapDataPPNS6_4NodeERKS0_RKS4_.clean)
    t._ZN4QMapI7QString5QListIP7QObjectEE13detach_helperEv 0x000309ca   Section      146  qmediapluginloader.o(t._ZN4QMapI7QString5QListIP7QObjectEE13detach_helperEv)
    t._ZN4QMapI7QString5QListIP7QObjectEE13detach_helperEv.clean 0x00030a5c   Section        8  qmediapluginloader.o(t._ZN4QMapI7QString5QListIP7QObjectEE13detach_helperEv.clean)
    t._ZN4QMapI7QString5QListIP7QObjectEE8freeDataEP8QMapData 0x00030a64   Section       62  qmediapluginloader.o(t._ZN4QMapI7QString5QListIP7QObjectEE8freeDataEP8QMapData)
    t._ZN4QMapI7QString5QListIP7QObjectEED1Ev 0x00030aa2   Section       38  qmediapluginloader.o(t._ZN4QMapI7QString5QListIP7QObjectEED1Ev)
    t._ZN4QMapI7QStringN24QAudioDeviceInfoInternal12CapabilitiesEE11node_createEP8QMapDataPPNS4_4NodeERKS0_RKS2_ 0x00030ac8   Section      200  qaudiodeviceinfo_symbian_p.o(t._ZN4QMapI7QStringN24QAudioDeviceInfoInternal12CapabilitiesEE11node_createEP8QMapDataPPNS4_4NodeERKS0_RKS2_)
    t._ZN4QMapI7QStringN24QAudioDeviceInfoInternal12CapabilitiesEE11node_createEP8QMapDataPPNS4_4NodeERKS0_RKS2_.clean 0x00030b90   Section       84  qaudiodeviceinfo_symbian_p.o(t._ZN4QMapI7QStringN24QAudioDeviceInfoInternal12CapabilitiesEE11node_createEP8QMapDataPPNS4_4NodeERKS0_RKS2_.clean)
    t._ZN4QMapI7QStringN24QAudioDeviceInfoInternal12CapabilitiesEE13detach_helperEv 0x00030be4   Section      146  qaudiodeviceinfo_symbian_p.o(t._ZN4QMapI7QStringN24QAudioDeviceInfoInternal12CapabilitiesEE13detach_helperEv)
    t._ZN4QMapI7QStringN24QAudioDeviceInfoInternal12CapabilitiesEE13detach_helperEv.clean 0x00030c76   Section        8  qaudiodeviceinfo_symbian_p.o(t._ZN4QMapI7QStringN24QAudioDeviceInfoInternal12CapabilitiesEE13detach_helperEv.clean)
    t._ZN4QMapI7QStringN24QAudioDeviceInfoInternal12CapabilitiesEE8freeDataEP8QMapData 0x00030c7e   Section       62  qaudiodeviceinfo_symbian_p.o(t._ZN4QMapI7QStringN24QAudioDeviceInfoInternal12CapabilitiesEE8freeDataEP8QMapData)
    t._ZN4QMapI7QStringN24QAudioDeviceInfoInternal12CapabilitiesEED1Ev 0x00030cbc   Section       38  qaudiodeviceinfo_symbian_p.o(t._ZN4QMapI7QStringN24QAudioDeviceInfoInternal12CapabilitiesEED1Ev)
    t._ZN4QMapI7QStringN24QAudioDeviceInfoInternal12CapabilitiesEEixERKS0_ 0x00030ce2   Section      106  qaudiodeviceinfo_symbian_p.o(t._ZN4QMapI7QStringN24QAudioDeviceInfoInternal12CapabilitiesEEixERKS0_)
    t._ZN4QMapI7QStringN24QAudioDeviceInfoInternal12CapabilitiesEEixERKS0_.clean 0x00030d4c   Section       10  qaudiodeviceinfo_symbian_p.o(t._ZN4QMapI7QStringN24QAudioDeviceInfoInternal12CapabilitiesEEixERKS0_.clean)
    t._ZN4QMapI7QStringP7QObjectE11insertMultiERKS0_RKS2_ 0x00030d56   Section       68  qmediapluginloader.o(t._ZN4QMapI7QStringP7QObjectE11insertMultiERKS0_RKS2_)
    t._ZN4QMapI7QStringP7QObjectE11node_createEP8QMapDataPPNS4_4NodeERKS0_RKS2_ 0x00030d9a   Section      118  qmediapluginloader.o(t._ZN4QMapI7QStringP7QObjectE11node_createEP8QMapDataPPNS4_4NodeERKS0_RKS2_)
    t._ZN4QMapI7QStringP7QObjectE11node_createEP8QMapDataPPNS4_4NodeERKS0_RKS2_.clean 0x00030e10   Section       20  qmediapluginloader.o(t._ZN4QMapI7QStringP7QObjectE11node_createEP8QMapDataPPNS4_4NodeERKS0_RKS2_.clean)
    t._ZN4QMapI7QStringP7QObjectE13detach_helperEv 0x00030e24   Section      146  qmediapluginloader.o(t._ZN4QMapI7QStringP7QObjectE13detach_helperEv)
    t._ZN4QMapI7QStringP7QObjectE13detach_helperEv.clean 0x00030eb6   Section        8  qmediapluginloader.o(t._ZN4QMapI7QStringP7QObjectE13detach_helperEv.clean)
    t._ZN4QMapI7QStringP7QObjectE8freeDataEP8QMapData 0x00030ebe   Section       56  qmediaplaylist.o(t._ZN4QMapI7QStringP7QObjectE8freeDataEP8QMapData)
    t._ZN4QMapI7QStringP7QObjectED1Ev        0x00030ef6   Section       38  qmediaplaylist.o(t._ZN4QMapI7QStringP7QObjectED1Ev)
    t._ZN4QMapIN7QCamera10LockStatusEiE11node_createEP8QMapDataPPNS3_4NodeERKS1_RKi 0x00030f1c   Section       82  qcamera.o(t._ZN4QMapIN7QCamera10LockStatusEiE11node_createEP8QMapDataPPNS3_4NodeERKS1_RKi)
    t._ZN4QMapIN7QCamera10LockStatusEiE11node_createEP8QMapDataPPNS3_4NodeERKS1_RKi.clean 0x00030f6e   Section        4  qcamera.o(t._ZN4QMapIN7QCamera10LockStatusEiE11node_createEP8QMapDataPPNS3_4NodeERKS1_RKi.clean)
    t._ZN4QMapIN7QCamera10LockStatusEiE13detach_helperEv 0x00030f72   Section      146  qcamera.o(t._ZN4QMapIN7QCamera10LockStatusEiE13detach_helperEv)
    t._ZN4QMapIN7QCamera10LockStatusEiE13detach_helperEv.clean 0x00031004   Section        8  qcamera.o(t._ZN4QMapIN7QCamera10LockStatusEiE13detach_helperEv.clean)
    t._ZN4QMapIN7QCamera10LockStatusEiE6insertERKS1_RKi 0x0003100c   Section       92  qcamera.o(t._ZN4QMapIN7QCamera10LockStatusEiE6insertERKS1_RKi)
    t._ZN4QMapIN7QCamera10LockStatusEiE8freeDataEP8QMapData 0x00031068   Section       48  qcamera.o(t._ZN4QMapIN7QCamera10LockStatusEiE8freeDataEP8QMapData)
    t._ZN4QMapIN7QCamera10LockStatusEiED1Ev  0x00031098   Section       38  qcamera.o(t._ZN4QMapIN7QCamera10LockStatusEiED1Ev)
    t._ZN4QMapIP13QMediaServiceP27QMediaServiceProviderPluginE11node_createEP8QMapDataPPNS5_4NodeERKS1_RKS3_ 0x000310be   Section       82  qmediaserviceprovider.o(t._ZN4QMapIP13QMediaServiceP27QMediaServiceProviderPluginE11node_createEP8QMapDataPPNS5_4NodeERKS1_RKS3_)
    t._ZN4QMapIP13QMediaServiceP27QMediaServiceProviderPluginE11node_createEP8QMapDataPPNS5_4NodeERKS1_RKS3_.clean 0x00031110   Section        4  qmediaserviceprovider.o(t._ZN4QMapIP13QMediaServiceP27QMediaServiceProviderPluginE11node_createEP8QMapDataPPNS5_4NodeERKS1_RKS3_.clean)
    t._ZN4QMapIP13QMediaServiceP27QMediaServiceProviderPluginE13detach_helperEv 0x00031114   Section      146  qmediaserviceprovider.o(t._ZN4QMapIP13QMediaServiceP27QMediaServiceProviderPluginE13detach_helperEv)
    t._ZN4QMapIP13QMediaServiceP27QMediaServiceProviderPluginE13detach_helperEv.clean 0x000311a6   Section        8  qmediaserviceprovider.o(t._ZN4QMapIP13QMediaServiceP27QMediaServiceProviderPluginE13detach_helperEv.clean)
    t._ZN4QMapIP13QMediaServiceP27QMediaServiceProviderPluginE4takeERKS1_ 0x000311ae   Section      162  qmediaserviceprovider.o(t._ZN4QMapIP13QMediaServiceP27QMediaServiceProviderPluginE4takeERKS1_)
    t._ZN4QMapIP13QMediaServiceP27QMediaServiceProviderPluginE6detachEv 0x00031250   Section       28  qmediaserviceprovider.o(t._ZN4QMapIP13QMediaServiceP27QMediaServiceProviderPluginE6detachEv)
    t._ZN4QMapIP13QMediaServiceP27QMediaServiceProviderPluginE8freeDataEP8QMapData 0x0003126c   Section       24  qmediaserviceprovider.o(t._ZN4QMapIP13QMediaServiceP27QMediaServiceProviderPluginE8freeDataEP8QMapData)
    t._ZN4QMapIP13QMediaServiceP27QMediaServiceProviderPluginED1Ev 0x00031284   Section       38  qmediaserviceprovider.o(t._ZN4QMapIP13QMediaServiceP27QMediaServiceProviderPluginED1Ev)
    t._ZN4QMapIi8QVariantE11node_createEP8QMapDataPPNS2_4NodeERKiRKS0_ 0x000312aa   Section      132  qmediaresource.o(t._ZN4QMapIi8QVariantE11node_createEP8QMapDataPPNS2_4NodeERKiRKS0_)
    t._ZN4QMapIi8QVariantE11node_createEP8QMapDataPPNS2_4NodeERKiRKS0_.clean 0x0003132e   Section       28  qmediaresource.o(t._ZN4QMapIi8QVariantE11node_createEP8QMapDataPPNS2_4NodeERKiRKS0_.clean)
    t._ZN4QMapIi8QVariantE13detach_helperEv  0x0003134a   Section      148  qmediaresource.o(t._ZN4QMapIi8QVariantE13detach_helperEv)
    t._ZN4QMapIi8QVariantE13detach_helperEv.clean 0x000313de   Section        8  qmediaresource.o(t._ZN4QMapIi8QVariantE13detach_helperEv.clean)
    t._ZN4QMapIi8QVariantE6detachEv          0x000313e6   Section       28  qmediaresource.o(t._ZN4QMapIi8QVariantE6detachEv)
    t._ZN4QMapIi8QVariantE6insertERKiRKS0_   0x00031402   Section       82  qmediaresource.o(t._ZN4QMapIi8QVariantE6insertERKiRKS0_)
    t._ZN4QMapIi8QVariantE6removeERKi        0x00031454   Section      258  qmediaresource.o(t._ZN4QMapIi8QVariantE6removeERKi)
    t._ZN4QMapIi8QVariantE8freeDataEP8QMapData 0x00031556   Section       58  qmediaresource.o(t._ZN4QMapIi8QVariantE8freeDataEP8QMapData)
    t._ZN4QMapIi8QVariantEC1Ev               0x00031590   Section       28  qmediaresource.o(t._ZN4QMapIi8QVariantEC1Ev)
    t._ZN4QMapIi8QVariantED1Ev               0x000315ac   Section       38  qmediaresource.o(t._ZN4QMapIi8QVariantED1Ev)
    t._ZN4QMapIiiE11node_createEP8QMapDataPPNS1_4NodeERKiS7_ 0x000315d2   Section       82  qaudiodeviceinfo.o(t._ZN4QMapIiiE11node_createEP8QMapDataPPNS1_4NodeERKiS7_)
    t._ZN4QMapIiiE11node_createEP8QMapDataPPNS1_4NodeERKiS7_.clean 0x00031624   Section        4  qaudiodeviceinfo.o(t._ZN4QMapIiiE11node_createEP8QMapDataPPNS1_4NodeERKiS7_.clean)
    t._ZN4QMapIiiE13detach_helperEv          0x00031628   Section      146  qaudiodeviceinfo.o(t._ZN4QMapIiiE13detach_helperEv)
    t._ZN4QMapIiiE13detach_helperEv.clean    0x000316ba   Section        8  qaudiodeviceinfo.o(t._ZN4QMapIiiE13detach_helperEv.clean)
    t._ZN4QMapIiiE6detachEv                  0x000316c2   Section       28  qaudiodeviceinfo.o(t._ZN4QMapIiiE6detachEv)
    t._ZN4QMapIiiE6insertERKiS2_             0x000316de   Section       74  qaudiodeviceinfo.o(t._ZN4QMapIiiE6insertERKiS2_)
    t._ZN4QMapIiiE8freeDataEP8QMapData       0x00031728   Section       24  qaudiodeviceinfo.o(t._ZN4QMapIiiE8freeDataEP8QMapData)
    t._ZN4QMapIiiEC1Ev                       0x00031740   Section       28  qaudiodeviceinfo.o(t._ZN4QMapIiiEC1Ev)
    t._ZN4QMapIiiED1Ev                       0x0003175c   Section       38  qaudiodeviceinfo.o(t._ZN4QMapIiiED1Ev)
    t._ZN5QHashI7QString15QHashDummyValueE11deleteNode2EPN9QHashData4NodeE 0x00031782   Section       24  qaudiopluginloader.o(t._ZN5QHashI7QString15QHashDummyValueE11deleteNode2EPN9QHashData4NodeE)
    t._ZN5QHashI7QString15QHashDummyValueE13detach_helperEv 0x0003179c   Section       60  qaudiopluginloader.o(t._ZN5QHashI7QString15QHashDummyValueE13detach_helperEv)
    t._ZN5QHashI7QString15QHashDummyValueE13duplicateNodeEPN9QHashData4NodeEPv 0x000317d8   Section       44  qaudiopluginloader.o(t._ZN5QHashI7QString15QHashDummyValueE13duplicateNodeEPN9QHashData4NodeEPv)
    t._ZN5QHashI7QString15QHashDummyValueE13duplicateNodeEPN9QHashData4NodeEPv.clean 0x00031804   Section       12  qaudiopluginloader.o(t._ZN5QHashI7QString15QHashDummyValueE13duplicateNodeEPN9QHashData4NodeEPv.clean)
    t._ZN5QHashI7QString15QHashDummyValueE6insertERKS0_RKS1_ 0x00031810   Section      208  qaudiopluginloader.o(t._ZN5QHashI7QString15QHashDummyValueE6insertERKS0_RKS1_)
    t._ZN5QHashI7QString15QHashDummyValueE6insertERKS0_RKS1_.clean 0x000318e0   Section       12  qaudiopluginloader.o(t._ZN5QHashI7QString15QHashDummyValueE6insertERKS0_RKS1_.clean)
    t._ZN5QHashI7QString15QHashDummyValueE8freeDataEP9QHashData 0x000318ec   Section       20  qaudiopluginloader.o(t._ZN5QHashI7QString15QHashDummyValueE8freeDataEP9QHashData)
    t._ZN5QHashI7QString15QHashDummyValueED1Ev 0x00031900   Section       30  qaudiopluginloader.o(t._ZN5QHashI7QString15QHashDummyValueED1Ev)
    t._ZN5QHashIi15QHashDummyValueE11deleteNode2EPN9QHashData4NodeE 0x0003191e   Section        6  qmediaobject.o(t._ZN5QHashIi15QHashDummyValueE11deleteNode2EPN9QHashData4NodeE)
    t._ZN5QHashIi15QHashDummyValueE13detach_helperEv 0x00031924   Section       60  qmediaobject.o(t._ZN5QHashIi15QHashDummyValueE13detach_helperEv)
    t._ZN5QHashIi15QHashDummyValueE13duplicateNodeEPN9QHashData4NodeEPv 0x00031960   Section       34  qmediaobject.o(t._ZN5QHashIi15QHashDummyValueE13duplicateNodeEPN9QHashData4NodeEPv)
    t._ZN5QHashIi15QHashDummyValueE6detachEv 0x00031982   Section       28  qmediaobject.o(t._ZN5QHashIi15QHashDummyValueE6detachEv)
    t._ZN5QHashIi15QHashDummyValueE6insertERKiRKS0_ 0x0003199e   Section      188  qmediaobject.o(t._ZN5QHashIi15QHashDummyValueE6insertERKiRKS0_)
    t._ZN5QHashIi15QHashDummyValueE6insertERKiRKS0_.clean 0x00031a5a   Section        4  qmediaobject.o(t._ZN5QHashIi15QHashDummyValueE6insertERKiRKS0_.clean)
    t._ZN5QHashIi15QHashDummyValueE6removeERKi 0x00031a5e   Section      230  qmediaobject.o(t._ZN5QHashIi15QHashDummyValueE6removeERKi)
    t._ZN5QHashIi15QHashDummyValueE8freeDataEP9QHashData 0x00031b44   Section       20  qmediaobject.o(t._ZN5QHashIi15QHashDummyValueE8freeDataEP9QHashData)
    t._ZN5QHashIi15QHashDummyValueED1Ev      0x00031b58   Section       30  qmediaobject.o(t._ZN5QHashIi15QHashDummyValueED1Ev)
    t._ZN5QListI10QByteArrayE13detach_helperEi 0x00031b76   Section       94  qmediaserviceprovider.o(t._ZN5QListI10QByteArrayE13detach_helperEi)
    t._ZN5QListI10QByteArrayE13detach_helperEi.clean 0x00031bd4   Section        8  qmediaserviceprovider.o(t._ZN5QListI10QByteArrayE13detach_helperEi.clean)
    t._ZN5QListI10QByteArrayE13detach_helperEv 0x00031bdc   Section       16  qmediaimageviewerservice.o(t._ZN5QListI10QByteArrayE13detach_helperEv)
    t._ZN5QListI10QByteArrayE13node_destructEPNS1_4NodeES3_ 0x00031bec   Section       26  qmediaserviceprovider.o(t._ZN5QListI10QByteArrayE13node_destructEPNS1_4NodeES3_)
    t._ZN5QListI10QByteArrayE14node_constructEPNS1_4NodeERKS0_ 0x00031c06   Section       36  qaudiodeviceinfo_symbian_p.o(t._ZN5QListI10QByteArrayE14node_constructEPNS1_4NodeERKS0_)
    t._ZN5QListI10QByteArrayE14node_constructEPNS1_4NodeERKS0_.clean 0x00031c2a   Section       14  qaudiodeviceinfo_symbian_p.o(t._ZN5QListI10QByteArrayE14node_constructEPNS1_4NodeERKS0_.clean)
    t._ZN5QListI10QByteArrayE18detach_helper_growEii 0x00031c38   Section      208  qmediaserviceprovider.o(t._ZN5QListI10QByteArrayE18detach_helper_growEii)
    t._ZN5QListI10QByteArrayE18detach_helper_growEii.clean 0x00031d08   Section       16  qmediaserviceprovider.o(t._ZN5QListI10QByteArrayE18detach_helper_growEii.clean)
    t._ZN5QListI10QByteArrayE4freeEPN9QListData4DataE 0x00031d18   Section       52  qmediaserviceprovider.o(t._ZN5QListI10QByteArrayE4freeEPN9QListData4DataE)
    t._ZN5QListI10QByteArrayE6appendERKS0_   0x00031d4c   Section      120  qaudiodeviceinfo_symbian_p.o(t._ZN5QListI10QByteArrayE6appendERKS0_)
    t._ZN5QListI10QByteArrayE6appendERKS0_.clean 0x00031dc4   Section       14  qaudiodeviceinfo_symbian_p.o(t._ZN5QListI10QByteArrayE6appendERKS0_.clean)
    t._ZN5QListI10QByteArrayE9node_copyEPNS1_4NodeES3_S3_ 0x00031dd2   Section       82  qmediaserviceprovider.o(t._ZN5QListI10QByteArrayE9node_copyEPNS1_4NodeES3_S3_)
    t._ZN5QListI10QByteArrayE9node_copyEPNS1_4NodeES3_S3_.clean 0x00031e24   Section       22  qmediaserviceprovider.o(t._ZN5QListI10QByteArrayE9node_copyEPNS1_4NodeES3_S3_.clean)
    t._ZN5QListI10QByteArrayEC1ERKS1_        0x00031e3a   Section       36  qvideosurfaceformat.o(t._ZN5QListI10QByteArrayEC1ERKS1_)
    t._ZN5QListI10QByteArrayEC1Ev            0x00031e60   Section       24  qmediaserviceprovider.o(t._ZN5QListI10QByteArrayEC1Ev)
    t._ZN5QListI10QByteArrayED1Ev            0x00031e78   Section       32  qmediaimageviewerservice.o(t._ZN5QListI10QByteArrayED1Ev)
    t._ZN5QListI10QByteArrayElsERKS0_        0x00031e98   Section       18  qvideosurfaceformat.o(t._ZN5QListI10QByteArrayElsERKS0_)
    t._ZN5QListI10QByteArrayEpLERKS1_        0x00031eac   Section      200  qvideosurfaceformat.o(t._ZN5QListI10QByteArrayEpLERKS1_)
    t._ZN5QListI10QByteArrayEpLERKS1_.clean  0x00031f74   Section        8  qvideosurfaceformat.o(t._ZN5QListI10QByteArrayEpLERKS1_.clean)
    t._ZN5QListI13QMediaContentE13detach_helperEi 0x00031f7c   Section       94  qlocalmediaplaylistprovider.o(t._ZN5QListI13QMediaContentE13detach_helperEi)
    t._ZN5QListI13QMediaContentE13detach_helperEi.clean 0x00031fda   Section        8  qlocalmediaplaylistprovider.o(t._ZN5QListI13QMediaContentE13detach_helperEi.clean)
    t._ZN5QListI13QMediaContentE13detach_helperEv 0x00031fe2   Section       16  qlocalmediaplaylistprovider.o(t._ZN5QListI13QMediaContentE13detach_helperEv)
    t._ZN5QListI13QMediaContentE13node_destructEPNS1_4NodeE 0x00031ff2   Section       28  qlocalmediaplaylistprovider.o(t._ZN5QListI13QMediaContentE13node_destructEPNS1_4NodeE)
    t._ZN5QListI13QMediaContentE13node_destructEPNS1_4NodeES3_ 0x0003200e   Section       38  qlocalmediaplaylistprovider.o(t._ZN5QListI13QMediaContentE13node_destructEPNS1_4NodeES3_)
    t._ZN5QListI13QMediaContentE14node_constructEPNS1_4NodeERKS0_ 0x00032034   Section       34  qlocalmediaplaylistprovider.o(t._ZN5QListI13QMediaContentE14node_constructEPNS1_4NodeERKS0_)
    t._ZN5QListI13QMediaContentE14node_constructEPNS1_4NodeERKS0_.clean 0x00032056   Section       14  qlocalmediaplaylistprovider.o(t._ZN5QListI13QMediaContentE14node_constructEPNS1_4NodeERKS0_.clean)
    t._ZN5QListI13QMediaContentE18detach_helper_growEii 0x00032064   Section      208  qlocalmediaplaylistprovider.o(t._ZN5QListI13QMediaContentE18detach_helper_growEii)
    t._ZN5QListI13QMediaContentE18detach_helper_growEii.clean 0x00032134   Section       16  qlocalmediaplaylistprovider.o(t._ZN5QListI13QMediaContentE18detach_helper_growEii.clean)
    t._ZN5QListI13QMediaContentE4freeEPN9QListData4DataE 0x00032144   Section       58  qlocalmediaplaylistprovider.o(t._ZN5QListI13QMediaContentE4freeEPN9QListData4DataE)
    t._ZN5QListI13QMediaContentE5beginEv     0x0003217e   Section       26  qlocalmediaplaylistprovider.o(t._ZN5QListI13QMediaContentE5beginEv)
    t._ZN5QListI13QMediaContentE5clearEv     0x00032198   Section       28  qlocalmediaplaylistprovider.o(t._ZN5QListI13QMediaContentE5clearEv)
    t._ZN5QListI13QMediaContentE5clearEv.clean 0x000321b4   Section       10  qlocalmediaplaylistprovider.o(t._ZN5QListI13QMediaContentE5clearEv.clean)
    t._ZN5QListI13QMediaContentE5eraseENS1_8iteratorES2_ 0x000321be   Section      104  qlocalmediaplaylistprovider.o(t._ZN5QListI13QMediaContentE5eraseENS1_8iteratorES2_)
    t._ZN5QListI13QMediaContentE6appendERKS0_ 0x00032228   Section      112  qlocalmediaplaylistprovider.o(t._ZN5QListI13QMediaContentE6appendERKS0_)
    t._ZN5QListI13QMediaContentE6appendERKS0_.clean 0x00032298   Section       14  qlocalmediaplaylistprovider.o(t._ZN5QListI13QMediaContentE6appendERKS0_.clean)
    t._ZN5QListI13QMediaContentE6detachEv    0x000322a6   Section       24  qlocalmediaplaylistprovider.o(t._ZN5QListI13QMediaContentE6detachEv)
    t._ZN5QListI13QMediaContentE6insertEiRKS0_ 0x000322be   Section      106  qlocalmediaplaylistprovider.o(t._ZN5QListI13QMediaContentE6insertEiRKS0_)
    t._ZN5QListI13QMediaContentE6insertEiRKS0_.clean 0x00032328   Section       14  qlocalmediaplaylistprovider.o(t._ZN5QListI13QMediaContentE6insertEiRKS0_.clean)
    t._ZN5QListI13QMediaContentE9node_copyEPNS1_4NodeES3_S3_ 0x00032336   Section       92  qlocalmediaplaylistprovider.o(t._ZN5QListI13QMediaContentE9node_copyEPNS1_4NodeES3_S3_)
    t._ZN5QListI13QMediaContentE9node_copyEPNS1_4NodeES3_S3_.clean 0x00032392   Section       22  qlocalmediaplaylistprovider.o(t._ZN5QListI13QMediaContentE9node_copyEPNS1_4NodeES3_S3_.clean)
    t._ZN5QListI13QMediaContentEC1Ev         0x000323a8   Section       24  qlocalmediaplaylistprovider.o(t._ZN5QListI13QMediaContentEC1Ev)
    t._ZN5QListI13QMediaContentED1Ev         0x000323c0   Section       32  qlocalmediaplaylistprovider.o(t._ZN5QListI13QMediaContentED1Ev)
    t._ZN5QListI13QMediaContentEaSERKS1_     0x000323e0   Section       64  qlocalmediaplaylistprovider.o(t._ZN5QListI13QMediaContentEaSERKS1_)
    t._ZN5QListI13QMediaContentEpLERKS1_     0x00032420   Section      152  qlocalmediaplaylistprovider.o(t._ZN5QListI13QMediaContentEpLERKS1_)
    t._ZN5QListI13QMediaContentEpLERKS1_.clean 0x000324b8   Section        8  qlocalmediaplaylistprovider.o(t._ZN5QListI13QMediaContentEpLERKS1_.clean)
    t._ZN5QListI14QMediaResourceE13detach_helperEi 0x000324c0   Section       94  qmediacontent.o(t._ZN5QListI14QMediaResourceE13detach_helperEi)
    t._ZN5QListI14QMediaResourceE13detach_helperEi.clean 0x0003251e   Section        8  qmediacontent.o(t._ZN5QListI14QMediaResourceE13detach_helperEi.clean)
    t._ZN5QListI14QMediaResourceE13detach_helperEv 0x00032526   Section       16  qmediaimageviewerservice.o(t._ZN5QListI14QMediaResourceE13detach_helperEv)
    t._ZN5QListI14QMediaResourceE13node_destructEPNS1_4NodeES3_ 0x00032536   Section       38  qmediacontent.o(t._ZN5QListI14QMediaResourceE13node_destructEPNS1_4NodeES3_)
    t._ZN5QListI14QMediaResourceE14node_constructEPNS1_4NodeERKS0_ 0x0003255c   Section       34  qmediacontent.o(t._ZN5QListI14QMediaResourceE14node_constructEPNS1_4NodeERKS0_)
    t._ZN5QListI14QMediaResourceE14node_constructEPNS1_4NodeERKS0_.clean 0x0003257e   Section       14  qmediacontent.o(t._ZN5QListI14QMediaResourceE14node_constructEPNS1_4NodeERKS0_.clean)
    t._ZN5QListI14QMediaResourceE18detach_helper_growEii 0x0003258c   Section      208  qmediacontent.o(t._ZN5QListI14QMediaResourceE18detach_helper_growEii)
    t._ZN5QListI14QMediaResourceE18detach_helper_growEii.clean 0x0003265c   Section       16  qmediacontent.o(t._ZN5QListI14QMediaResourceE18detach_helper_growEii.clean)
    t._ZN5QListI14QMediaResourceE4freeEPN9QListData4DataE 0x0003266c   Section       58  qmediacontent.o(t._ZN5QListI14QMediaResourceE4freeEPN9QListData4DataE)
    t._ZN5QListI14QMediaResourceE5beginEv    0x000326a6   Section       40  qmediaimageviewerservice.o(t._ZN5QListI14QMediaResourceE5beginEv)
    t._ZN5QListI14QMediaResourceE5clearEv    0x000326ce   Section       28  qmediaimageviewerservice.o(t._ZN5QListI14QMediaResourceE5clearEv)
    t._ZN5QListI14QMediaResourceE5clearEv.clean 0x000326ea   Section       10  qmediaimageviewerservice.o(t._ZN5QListI14QMediaResourceE5clearEv.clean)
    t._ZN5QListI14QMediaResourceE6appendERKS0_ 0x000326f4   Section      112  qmediacontent.o(t._ZN5QListI14QMediaResourceE6appendERKS0_)
    t._ZN5QListI14QMediaResourceE6appendERKS0_.clean 0x00032764   Section       14  qmediacontent.o(t._ZN5QListI14QMediaResourceE6appendERKS0_.clean)
    t._ZN5QListI14QMediaResourceE9node_copyEPNS1_4NodeES3_S3_ 0x00032772   Section       92  qmediacontent.o(t._ZN5QListI14QMediaResourceE9node_copyEPNS1_4NodeES3_S3_)
    t._ZN5QListI14QMediaResourceE9node_copyEPNS1_4NodeES3_S3_.clean 0x000327ce   Section       22  qmediacontent.o(t._ZN5QListI14QMediaResourceE9node_copyEPNS1_4NodeES3_S3_.clean)
    t._ZN5QListI14QMediaResourceEC1ERKS1_    0x000327e4   Section       36  qmediacontent.o(t._ZN5QListI14QMediaResourceEC1ERKS1_)
    t._ZN5QListI14QMediaResourceEC1Ev        0x00032808   Section       24  qmediaimageviewerservice.o(t._ZN5QListI14QMediaResourceEC1Ev)
    t._ZN5QListI14QMediaResourceED1Ev        0x00032820   Section       32  qmediaimageviewerservice.o(t._ZN5QListI14QMediaResourceED1Ev)
    t._ZN5QListI14QMediaResourceEaSERKS1_    0x00032840   Section       64  qmediaimageviewerservice.o(t._ZN5QListI14QMediaResourceEaSERKS1_)
    t._ZN5QListI16QAudioDeviceInfoE13node_destructEPNS1_4NodeES3_ 0x00032880   Section       38  qaudiodevicefactory.o(t._ZN5QListI16QAudioDeviceInfoE13node_destructEPNS1_4NodeES3_)
    t._ZN5QListI16QAudioDeviceInfoE14node_constructEPNS1_4NodeERKS0_ 0x000328a6   Section       34  qaudiodevicefactory.o(t._ZN5QListI16QAudioDeviceInfoE14node_constructEPNS1_4NodeERKS0_)
    t._ZN5QListI16QAudioDeviceInfoE14node_constructEPNS1_4NodeERKS0_.clean 0x000328c8   Section       14  qaudiodevicefactory.o(t._ZN5QListI16QAudioDeviceInfoE14node_constructEPNS1_4NodeERKS0_.clean)
    t._ZN5QListI16QAudioDeviceInfoE18detach_helper_growEii 0x000328d6   Section      208  qaudiodevicefactory.o(t._ZN5QListI16QAudioDeviceInfoE18detach_helper_growEii)
    t._ZN5QListI16QAudioDeviceInfoE18detach_helper_growEii.clean 0x000329a6   Section       16  qaudiodevicefactory.o(t._ZN5QListI16QAudioDeviceInfoE18detach_helper_growEii.clean)
    t._ZN5QListI16QAudioDeviceInfoE4freeEPN9QListData4DataE 0x000329b6   Section       58  qaudiodevicefactory.o(t._ZN5QListI16QAudioDeviceInfoE4freeEPN9QListData4DataE)
    t._ZN5QListI16QAudioDeviceInfoE6appendERKS0_ 0x000329f0   Section      112  qaudiodevicefactory.o(t._ZN5QListI16QAudioDeviceInfoE6appendERKS0_)
    t._ZN5QListI16QAudioDeviceInfoE6appendERKS0_.clean 0x00032a60   Section       14  qaudiodevicefactory.o(t._ZN5QListI16QAudioDeviceInfoE6appendERKS0_.clean)
    t._ZN5QListI16QAudioDeviceInfoE9node_copyEPNS1_4NodeES3_S3_ 0x00032a6e   Section       92  qaudiodevicefactory.o(t._ZN5QListI16QAudioDeviceInfoE9node_copyEPNS1_4NodeES3_S3_)
    t._ZN5QListI16QAudioDeviceInfoE9node_copyEPNS1_4NodeES3_S3_.clean 0x00032aca   Section       22  qaudiodevicefactory.o(t._ZN5QListI16QAudioDeviceInfoE9node_copyEPNS1_4NodeES3_S3_.clean)
    t._ZN5QListI16QAudioDeviceInfoED1Ev      0x00032ae0   Section       32  qaudiodevicefactory.o(t._ZN5QListI16QAudioDeviceInfoED1Ev)
    t._ZN5QListI16QCameraFocusZoneE13detach_helperEi 0x00032b00   Section      206  qcamerafocus.o(t._ZN5QListI16QCameraFocusZoneE13detach_helperEi)
    t._ZN5QListI16QCameraFocusZoneE13detach_helperEi.clean 0x00032bce   Section       32  qcamerafocus.o(t._ZN5QListI16QCameraFocusZoneE13detach_helperEi.clean)
    t._ZN5QListI16QCameraFocusZoneE13detach_helperEv 0x00032bee   Section       16  qcamerafocus.o(t._ZN5QListI16QCameraFocusZoneE13detach_helperEv)
    t._ZN5QListI16QCameraFocusZoneE4freeEPN9QListData4DataE 0x00032bfe   Section       82  qcamerafocus.o(t._ZN5QListI16QCameraFocusZoneE4freeEPN9QListData4DataE)
    t._ZN5QListI16QCameraFocusZoneED1Ev      0x00032c50   Section       32  qcamerafocus.o(t._ZN5QListI16QCameraFocusZoneED1Ev)
    t._ZN5QListI18QMediaTimeIntervalE13detach_helperEi 0x00032c70   Section       94  qmediatimerange.o(t._ZN5QListI18QMediaTimeIntervalE13detach_helperEi)
    t._ZN5QListI18QMediaTimeIntervalE13detach_helperEi.clean 0x00032cce   Section        8  qmediatimerange.o(t._ZN5QListI18QMediaTimeIntervalE13detach_helperEi.clean)
    t._ZN5QListI18QMediaTimeIntervalE13detach_helperEv 0x00032cd6   Section       16  qmediatimerange.o(t._ZN5QListI18QMediaTimeIntervalE13detach_helperEv)
    t._ZN5QListI18QMediaTimeIntervalE13node_destructEPNS1_4NodeES3_ 0x00032ce6   Section       26  qmediatimerange.o(t._ZN5QListI18QMediaTimeIntervalE13node_destructEPNS1_4NodeES3_)
    t._ZN5QListI18QMediaTimeIntervalE14node_constructEPNS1_4NodeERKS0_ 0x00032d00   Section       34  qmediatimerange.o(t._ZN5QListI18QMediaTimeIntervalE14node_constructEPNS1_4NodeERKS0_)
    t._ZN5QListI18QMediaTimeIntervalE14node_constructEPNS1_4NodeERKS0_.clean 0x00032d22   Section       14  qmediatimerange.o(t._ZN5QListI18QMediaTimeIntervalE14node_constructEPNS1_4NodeERKS0_.clean)
    t._ZN5QListI18QMediaTimeIntervalE18detach_helper_growEii 0x00032d30   Section      208  qmediatimerange.o(t._ZN5QListI18QMediaTimeIntervalE18detach_helper_growEii)
    t._ZN5QListI18QMediaTimeIntervalE18detach_helper_growEii.clean 0x00032e00   Section       16  qmediatimerange.o(t._ZN5QListI18QMediaTimeIntervalE18detach_helper_growEii.clean)
    t._ZN5QListI18QMediaTimeIntervalE4freeEPN9QListData4DataE 0x00032e10   Section       58  qmediatimerange.o(t._ZN5QListI18QMediaTimeIntervalE4freeEPN9QListData4DataE)
    t._ZN5QListI18QMediaTimeIntervalE5clearEv 0x00032e4a   Section       76  qmediatimerange.o(t._ZN5QListI18QMediaTimeIntervalE5clearEv)
    t._ZN5QListI18QMediaTimeIntervalE5clearEv.clean 0x00032e96   Section       10  qmediatimerange.o(t._ZN5QListI18QMediaTimeIntervalE5clearEv.clean)
    t._ZN5QListI18QMediaTimeIntervalE6appendERKS0_ 0x00032ea0   Section      112  qmediatimerange.o(t._ZN5QListI18QMediaTimeIntervalE6appendERKS0_)
    t._ZN5QListI18QMediaTimeIntervalE6appendERKS0_.clean 0x00032f10   Section       14  qmediatimerange.o(t._ZN5QListI18QMediaTimeIntervalE6appendERKS0_.clean)
    t._ZN5QListI18QMediaTimeIntervalE6detachEv 0x00032f1e   Section       24  qmediatimerange.o(t._ZN5QListI18QMediaTimeIntervalE6detachEv)
    t._ZN5QListI18QMediaTimeIntervalE8removeAtEi 0x00032f36   Section       62  qmediatimerange.o(t._ZN5QListI18QMediaTimeIntervalE8removeAtEi)
    t._ZN5QListI18QMediaTimeIntervalE9node_copyEPNS1_4NodeES3_S3_ 0x00032f74   Section       80  qmediatimerange.o(t._ZN5QListI18QMediaTimeIntervalE9node_copyEPNS1_4NodeES3_S3_)
    t._ZN5QListI18QMediaTimeIntervalE9node_copyEPNS1_4NodeES3_S3_.clean 0x00032fc4   Section       22  qmediatimerange.o(t._ZN5QListI18QMediaTimeIntervalE9node_copyEPNS1_4NodeES3_S3_.clean)
    t._ZN5QListI18QMediaTimeIntervalEC1ERKS1_ 0x00032fda   Section       36  qmediatimerange.o(t._ZN5QListI18QMediaTimeIntervalEC1ERKS1_)
    t._ZN5QListI18QMediaTimeIntervalEC1Ev    0x00033000   Section       24  qmediatimerange.o(t._ZN5QListI18QMediaTimeIntervalEC1Ev)
    t._ZN5QListI18QMediaTimeIntervalED1Ev    0x00033018   Section       32  qmediatimerange.o(t._ZN5QListI18QMediaTimeIntervalED1Ev)
    t._ZN5QListI18QMediaTimeIntervalEixEi    0x00033038   Section       28  qmediatimerange.o(t._ZN5QListI18QMediaTimeIntervalEixEi)
    t._ZN5QListI5QSizeE13detach_helperEi     0x00033054   Section      192  qmediarecorder.o(t._ZN5QListI5QSizeE13detach_helperEi)
    t._ZN5QListI5QSizeE13detach_helperEi.clean 0x00033114   Section       20  qmediarecorder.o(t._ZN5QListI5QSizeE13detach_helperEi.clean)
    t._ZN5QListI5QSizeE13detach_helperEv     0x00033128   Section       16  qmediarecorder.o(t._ZN5QListI5QSizeE13detach_helperEv)
    t._ZN5QListI5QSizeE4freeEPN9QListData4DataE 0x00033138   Section       64  qmediarecorder.o(t._ZN5QListI5QSizeE4freeEPN9QListData4DataE)
    t._ZN5QListI5QSizeED1Ev                  0x00033178   Section       32  qmediarecorder.o(t._ZN5QListI5QSizeED1Ev)
    t._ZN5QListI7QStringE13detach_helperEi   0x00033198   Section       94  qmediaimageviewerservice.o(t._ZN5QListI7QStringE13detach_helperEi)
    t._ZN5QListI7QStringE13detach_helperEi.clean 0x000331f6   Section        8  qmediaimageviewerservice.o(t._ZN5QListI7QStringE13detach_helperEi.clean)
    t._ZN5QListI7QStringE13detach_helperEv   0x000331fe   Section       16  qmediaobject.o(t._ZN5QListI7QStringE13detach_helperEv)
    t._ZN5QListI7QStringE13node_destructEPNS1_4NodeES3_ 0x0003320e   Section       26  qmediaimageviewerservice.o(t._ZN5QListI7QStringE13node_destructEPNS1_4NodeES3_)
    t._ZN5QListI7QStringE14node_constructEPNS1_4NodeERKS0_ 0x00033228   Section       36  qmediaimageviewerservice.o(t._ZN5QListI7QStringE14node_constructEPNS1_4NodeERKS0_)
    t._ZN5QListI7QStringE14node_constructEPNS1_4NodeERKS0_.clean 0x0003324c   Section       14  qmediaimageviewerservice.o(t._ZN5QListI7QStringE14node_constructEPNS1_4NodeERKS0_.clean)
    t._ZN5QListI7QStringE18detach_helper_growEii 0x0003325a   Section      208  qmediaimageviewerservice.o(t._ZN5QListI7QStringE18detach_helper_growEii)
    t._ZN5QListI7QStringE18detach_helper_growEii.clean 0x0003332a   Section       16  qmediaimageviewerservice.o(t._ZN5QListI7QStringE18detach_helper_growEii.clean)
    t._ZN5QListI7QStringE4freeEPN9QListData4DataE 0x0003333a   Section       52  qmediaimageviewerservice.o(t._ZN5QListI7QStringE4freeEPN9QListData4DataE)
    t._ZN5QListI7QStringE6appendERKS0_       0x00033370   Section      120  qmediaimageviewerservice.o(t._ZN5QListI7QStringE6appendERKS0_)
    t._ZN5QListI7QStringE6appendERKS0_.clean 0x000333e8   Section       14  qmediaimageviewerservice.o(t._ZN5QListI7QStringE6appendERKS0_.clean)
    t._ZN5QListI7QStringE7reserveEi          0x000333f6   Section       46  qmediapluginloader.o(t._ZN5QListI7QStringE7reserveEi)
    t._ZN5QListI7QStringE9node_copyEPNS1_4NodeES3_S3_ 0x00033424   Section       82  qmediaimageviewerservice.o(t._ZN5QListI7QStringE9node_copyEPNS1_4NodeES3_S3_)
    t._ZN5QListI7QStringE9node_copyEPNS1_4NodeES3_S3_.clean 0x00033476   Section       22  qmediaimageviewerservice.o(t._ZN5QListI7QStringE9node_copyEPNS1_4NodeES3_S3_.clean)
    t._ZN5QListI7QStringE9removeAllERKS0_    0x0003348c   Section      140  qaudiodeviceinfo.o(t._ZN5QListI7QStringE9removeAllERKS0_)
    t._ZN5QListI7QStringE9removeAllERKS0_.clean 0x00033518   Section       10  qaudiodeviceinfo.o(t._ZN5QListI7QStringE9removeAllERKS0_.clean)
    t._ZN5QListI7QStringEC1ERKS1_            0x00033522   Section       36  qmediapluginloader.o(t._ZN5QListI7QStringEC1ERKS1_)
    t._ZN5QListI7QStringEC1Ev                0x00033548   Section       24  qmediapluginloader.o(t._ZN5QListI7QStringEC1Ev)
    t._ZN5QListI7QStringED1Ev                0x00033560   Section       32  qmediaobject.o(t._ZN5QListI7QStringED1Ev)
    t._ZN5QListI7QStringEaSERKS1_            0x00033580   Section       64  qmediaserviceprovider.o(t._ZN5QListI7QStringEaSERKS1_)
    t._ZN5QListI7QStringEpLERKS1_            0x000335c0   Section      156  qmediaserviceprovider.o(t._ZN5QListI7QStringEpLERKS1_)
    t._ZN5QListI7QStringEpLERKS1_.clean      0x0003365c   Section        8  qmediaserviceprovider.o(t._ZN5QListI7QStringEpLERKS1_.clean)
    t._ZN5QListI8QPointerI7QObjectEE13detach_helperEi 0x00033664   Section       94  qgraphicsvideoitem_symbian.o(t._ZN5QListI8QPointerI7QObjectEE13detach_helperEi)
    t._ZN5QListI8QPointerI7QObjectEE13detach_helperEi.clean 0x000336c2   Section        8  qgraphicsvideoitem_symbian.o(t._ZN5QListI8QPointerI7QObjectEE13detach_helperEi.clean)
    t._ZN5QListI8QPointerI7QObjectEE13detach_helperEv 0x000336ca   Section       16  qgraphicsvideoitem_symbian.o(t._ZN5QListI8QPointerI7QObjectEE13detach_helperEv)
    t._ZN5QListI8QPointerI7QObjectEE13node_destructEPNS3_4NodeES5_ 0x000336da   Section       38  qgraphicsvideoitem_symbian.o(t._ZN5QListI8QPointerI7QObjectEE13node_destructEPNS3_4NodeES5_)
    t._ZN5QListI8QPointerI7QObjectEE14node_constructEPNS3_4NodeERKS2_ 0x00033700   Section       34  qgraphicsvideoitem_symbian.o(t._ZN5QListI8QPointerI7QObjectEE14node_constructEPNS3_4NodeERKS2_)
    t._ZN5QListI8QPointerI7QObjectEE14node_constructEPNS3_4NodeERKS2_.clean 0x00033722   Section       14  qgraphicsvideoitem_symbian.o(t._ZN5QListI8QPointerI7QObjectEE14node_constructEPNS3_4NodeERKS2_.clean)
    t._ZN5QListI8QPointerI7QObjectEE18detach_helper_growEii 0x00033730   Section      208  qgraphicsvideoitem_symbian.o(t._ZN5QListI8QPointerI7QObjectEE18detach_helper_growEii)
    t._ZN5QListI8QPointerI7QObjectEE18detach_helper_growEii.clean 0x00033800   Section       16  qgraphicsvideoitem_symbian.o(t._ZN5QListI8QPointerI7QObjectEE18detach_helper_growEii.clean)
    t._ZN5QListI8QPointerI7QObjectEE4freeEPN9QListData4DataE 0x00033810   Section       52  qgraphicsvideoitem_symbian.o(t._ZN5QListI8QPointerI7QObjectEE4freeEPN9QListData4DataE)
    t._ZN5QListI8QPointerI7QObjectEE5clearEv 0x00033844   Section       76  qgraphicsvideoitem_symbian.o(t._ZN5QListI8QPointerI7QObjectEE5clearEv)
    t._ZN5QListI8QPointerI7QObjectEE5clearEv.clean 0x00033890   Section       10  qgraphicsvideoitem_symbian.o(t._ZN5QListI8QPointerI7QObjectEE5clearEv.clean)
    t._ZN5QListI8QPointerI7QObjectEE6appendERKS2_ 0x0003389c   Section      112  qgraphicsvideoitem_symbian.o(t._ZN5QListI8QPointerI7QObjectEE6appendERKS2_)
    t._ZN5QListI8QPointerI7QObjectEE6appendERKS2_.clean 0x0003390c   Section       14  qgraphicsvideoitem_symbian.o(t._ZN5QListI8QPointerI7QObjectEE6appendERKS2_.clean)
    t._ZN5QListI8QPointerI7QObjectEE9node_copyEPNS3_4NodeES5_S5_ 0x0003391a   Section       92  qgraphicsvideoitem_symbian.o(t._ZN5QListI8QPointerI7QObjectEE9node_copyEPNS3_4NodeES5_S5_)
    t._ZN5QListI8QPointerI7QObjectEE9node_copyEPNS3_4NodeES5_S5_.clean 0x00033976   Section       22  qgraphicsvideoitem_symbian.o(t._ZN5QListI8QPointerI7QObjectEE9node_copyEPNS3_4NodeES5_S5_.clean)
    t._ZN5QListI8QPointerI7QObjectEEC1Ev     0x0003398c   Section       24  qgraphicsvideoitem_symbian.o(t._ZN5QListI8QPointerI7QObjectEEC1Ev)
    t._ZN5QListI8QPointerI7QObjectEED1Ev     0x000339a4   Section       32  qgraphicsvideoitem_symbian.o(t._ZN5QListI8QPointerI7QObjectEED1Ev)
    t._ZN5QListI8QVariantE13detach_helperEi  0x000339c4   Section       94  qvideosurfaceformat.o(t._ZN5QListI8QVariantE13detach_helperEi)
    t._ZN5QListI8QVariantE13detach_helperEi.clean 0x00033a22   Section        8  qvideosurfaceformat.o(t._ZN5QListI8QVariantE13detach_helperEi.clean)
    t._ZN5QListI8QVariantE13detach_helperEv  0x00033a2a   Section       16  qcameraexposure.o(t._ZN5QListI8QVariantE13detach_helperEv)
    t._ZN5QListI8QVariantE13node_destructEPNS1_4NodeE 0x00033a3a   Section       28  qvideosurfaceformat.o(t._ZN5QListI8QVariantE13node_destructEPNS1_4NodeE)
    t._ZN5QListI8QVariantE13node_destructEPNS1_4NodeES3_ 0x00033a56   Section       38  qvideosurfaceformat.o(t._ZN5QListI8QVariantE13node_destructEPNS1_4NodeES3_)
    t._ZN5QListI8QVariantE14node_constructEPNS1_4NodeERKS0_ 0x00033a7c   Section       34  qvideosurfaceformat.o(t._ZN5QListI8QVariantE14node_constructEPNS1_4NodeERKS0_)
    t._ZN5QListI8QVariantE14node_constructEPNS1_4NodeERKS0_.clean 0x00033a9e   Section       14  qvideosurfaceformat.o(t._ZN5QListI8QVariantE14node_constructEPNS1_4NodeERKS0_.clean)
    t._ZN5QListI8QVariantE18detach_helper_growEii 0x00033aac   Section      208  qvideosurfaceformat.o(t._ZN5QListI8QVariantE18detach_helper_growEii)
    t._ZN5QListI8QVariantE18detach_helper_growEii.clean 0x00033b7c   Section       16  qvideosurfaceformat.o(t._ZN5QListI8QVariantE18detach_helper_growEii.clean)
    t._ZN5QListI8QVariantE4freeEPN9QListData4DataE 0x00033b8c   Section       58  qvideosurfaceformat.o(t._ZN5QListI8QVariantE4freeEPN9QListData4DataE)
    t._ZN5QListI8QVariantE6appendERKS0_      0x00033bc8   Section      112  qvideosurfaceformat.o(t._ZN5QListI8QVariantE6appendERKS0_)
    t._ZN5QListI8QVariantE6appendERKS0_.clean 0x00033c38   Section       14  qvideosurfaceformat.o(t._ZN5QListI8QVariantE6appendERKS0_.clean)
    t._ZN5QListI8QVariantE6detachEv          0x00033c46   Section       24  qvideosurfaceformat.o(t._ZN5QListI8QVariantE6detachEv)
    t._ZN5QListI8QVariantE9node_copyEPNS1_4NodeES3_S3_ 0x00033c5e   Section       92  qvideosurfaceformat.o(t._ZN5QListI8QVariantE9node_copyEPNS1_4NodeES3_S3_)
    t._ZN5QListI8QVariantE9node_copyEPNS1_4NodeES3_S3_.clean 0x00033cba   Section       22  qvideosurfaceformat.o(t._ZN5QListI8QVariantE9node_copyEPNS1_4NodeES3_S3_.clean)
    t._ZN5QListI8QVariantEC1Ev               0x00033cd0   Section       24  qvideosurfaceformat.o(t._ZN5QListI8QVariantEC1Ev)
    t._ZN5QListI8QVariantED1Ev               0x00033ce8   Section       32  qcameraexposure.o(t._ZN5QListI8QVariantED1Ev)
    t._ZN5QListIN11QVideoFrame11PixelFormatEE13detach_helperEi 0x00033d08   Section       94  qpaintervideosurface.o(t._ZN5QListIN11QVideoFrame11PixelFormatEE13detach_helperEi)
    t._ZN5QListIN11QVideoFrame11PixelFormatEE13detach_helperEi.clean 0x00033d66   Section        8  qpaintervideosurface.o(t._ZN5QListIN11QVideoFrame11PixelFormatEE13detach_helperEi.clean)
    t._ZN5QListIN11QVideoFrame11PixelFormatEE13detach_helperEv 0x00033d6e   Section       16  qmediaimageviewerservice.o(t._ZN5QListIN11QVideoFrame11PixelFormatEE13detach_helperEv)
    t._ZN5QListIN11QVideoFrame11PixelFormatEE13node_destructEPNS2_4NodeES4_ 0x00033d7e   Section       26  qpaintervideosurface.o(t._ZN5QListIN11QVideoFrame11PixelFormatEE13node_destructEPNS2_4NodeES4_)
    t._ZN5QListIN11QVideoFrame11PixelFormatEE14node_constructEPNS2_4NodeERKS1_ 0x00033d98   Section       30  qpaintervideosurface.o(t._ZN5QListIN11QVideoFrame11PixelFormatEE14node_constructEPNS2_4NodeERKS1_)
    t._ZN5QListIN11QVideoFrame11PixelFormatEE18detach_helper_growEii 0x00033db6   Section      208  qpaintervideosurface.o(t._ZN5QListIN11QVideoFrame11PixelFormatEE18detach_helper_growEii)
    t._ZN5QListIN11QVideoFrame11PixelFormatEE18detach_helper_growEii.clean 0x00033e86   Section       16  qpaintervideosurface.o(t._ZN5QListIN11QVideoFrame11PixelFormatEE18detach_helper_growEii.clean)
    t._ZN5QListIN11QVideoFrame11PixelFormatEE4freeEPN9QListData4DataE 0x00033e96   Section       58  qpaintervideosurface.o(t._ZN5QListIN11QVideoFrame11PixelFormatEE4freeEPN9QListData4DataE)
    t._ZN5QListIN11QVideoFrame11PixelFormatEE6appendERKS1_ 0x00033ed0   Section      116  qpaintervideosurface.o(t._ZN5QListIN11QVideoFrame11PixelFormatEE6appendERKS1_)
    t._ZN5QListIN11QVideoFrame11PixelFormatEE6appendERKS1_.clean 0x00033f44   Section       14  qpaintervideosurface.o(t._ZN5QListIN11QVideoFrame11PixelFormatEE6appendERKS1_.clean)
    t._ZN5QListIN11QVideoFrame11PixelFormatEE9node_copyEPNS2_4NodeES4_S4_ 0x00033f52   Section       78  qpaintervideosurface.o(t._ZN5QListIN11QVideoFrame11PixelFormatEE9node_copyEPNS2_4NodeES4_S4_)
    t._ZN5QListIN11QVideoFrame11PixelFormatEE9node_copyEPNS2_4NodeES4_S4_.clean 0x00033fa0   Section        8  qpaintervideosurface.o(t._ZN5QListIN11QVideoFrame11PixelFormatEE9node_copyEPNS2_4NodeES4_S4_.clean)
    t._ZN5QListIN11QVideoFrame11PixelFormatEEC1Ev 0x00033fa8   Section       24  qpaintervideosurface.o(t._ZN5QListIN11QVideoFrame11PixelFormatEEC1Ev)
    t._ZN5QListIN11QVideoFrame11PixelFormatEED1Ev 0x00033fc0   Section       32  qmediaimageviewerservice.o(t._ZN5QListIN11QVideoFrame11PixelFormatEED1Ev)
    t._ZN5QListIN12QAudioFormat10SampleTypeEE13detach_helperEi 0x00033fe0   Section       94  qaudiodeviceinfo.o(t._ZN5QListIN12QAudioFormat10SampleTypeEE13detach_helperEi)
    t._ZN5QListIN12QAudioFormat10SampleTypeEE13detach_helperEi.clean 0x0003403e   Section        8  qaudiodeviceinfo.o(t._ZN5QListIN12QAudioFormat10SampleTypeEE13detach_helperEi.clean)
    t._ZN5QListIN12QAudioFormat10SampleTypeEE13detach_helperEv 0x00034046   Section       16  qaudiodeviceinfo.o(t._ZN5QListIN12QAudioFormat10SampleTypeEE13detach_helperEv)
    t._ZN5QListIN12QAudioFormat10SampleTypeEE13node_destructEPNS2_4NodeES4_ 0x00034056   Section       26  qaudiodeviceinfo.o(t._ZN5QListIN12QAudioFormat10SampleTypeEE13node_destructEPNS2_4NodeES4_)
    t._ZN5QListIN12QAudioFormat10SampleTypeEE14node_constructEPNS2_4NodeERKS1_ 0x00034070   Section       30  qaudiodeviceinfo.o(t._ZN5QListIN12QAudioFormat10SampleTypeEE14node_constructEPNS2_4NodeERKS1_)
    t._ZN5QListIN12QAudioFormat10SampleTypeEE18detach_helper_growEii 0x0003408e   Section      208  qaudiodeviceinfo.o(t._ZN5QListIN12QAudioFormat10SampleTypeEE18detach_helper_growEii)
    t._ZN5QListIN12QAudioFormat10SampleTypeEE18detach_helper_growEii.clean 0x0003415e   Section       16  qaudiodeviceinfo.o(t._ZN5QListIN12QAudioFormat10SampleTypeEE18detach_helper_growEii.clean)
    t._ZN5QListIN12QAudioFormat10SampleTypeEE4freeEPN9QListData4DataE 0x0003416e   Section       52  qaudiodeviceinfo.o(t._ZN5QListIN12QAudioFormat10SampleTypeEE4freeEPN9QListData4DataE)
    t._ZN5QListIN12QAudioFormat10SampleTypeEE5clearEv 0x000341a2   Section       76  qaudio_symbian_p.o(t._ZN5QListIN12QAudioFormat10SampleTypeEE5clearEv)
    t._ZN5QListIN12QAudioFormat10SampleTypeEE5clearEv.clean 0x000341ee   Section       10  qaudio_symbian_p.o(t._ZN5QListIN12QAudioFormat10SampleTypeEE5clearEv.clean)
    t._ZN5QListIN12QAudioFormat10SampleTypeEE6appendERKS1_ 0x000341f8   Section      112  qaudiodeviceinfo.o(t._ZN5QListIN12QAudioFormat10SampleTypeEE6appendERKS1_)
    t._ZN5QListIN12QAudioFormat10SampleTypeEE6appendERKS1_.clean 0x00034268   Section       14  qaudiodeviceinfo.o(t._ZN5QListIN12QAudioFormat10SampleTypeEE6appendERKS1_.clean)
    t._ZN5QListIN12QAudioFormat10SampleTypeEE9node_copyEPNS2_4NodeES4_S4_ 0x00034276   Section       78  qaudiodeviceinfo.o(t._ZN5QListIN12QAudioFormat10SampleTypeEE9node_copyEPNS2_4NodeES4_S4_)
    t._ZN5QListIN12QAudioFormat10SampleTypeEE9node_copyEPNS2_4NodeES4_S4_.clean 0x000342c4   Section        8  qaudiodeviceinfo.o(t._ZN5QListIN12QAudioFormat10SampleTypeEE9node_copyEPNS2_4NodeES4_S4_.clean)
    t._ZN5QListIN12QAudioFormat10SampleTypeEEC1ERKS2_ 0x000342cc   Section       36  qaudiodeviceinfo.o(t._ZN5QListIN12QAudioFormat10SampleTypeEEC1ERKS2_)
    t._ZN5QListIN12QAudioFormat10SampleTypeEEC1Ev 0x000342f0   Section       24  qaudiodeviceinfo.o(t._ZN5QListIN12QAudioFormat10SampleTypeEEC1Ev)
    t._ZN5QListIN12QAudioFormat10SampleTypeEED1Ev 0x00034308   Section       32  qaudiodeviceinfo.o(t._ZN5QListIN12QAudioFormat10SampleTypeEED1Ev)
    t._ZN5QListIN12QAudioFormat6EndianEE13detach_helperEi 0x00034328   Section       94  qaudiodeviceinfo.o(t._ZN5QListIN12QAudioFormat6EndianEE13detach_helperEi)
    t._ZN5QListIN12QAudioFormat6EndianEE13detach_helperEi.clean 0x00034386   Section        8  qaudiodeviceinfo.o(t._ZN5QListIN12QAudioFormat6EndianEE13detach_helperEi.clean)
    t._ZN5QListIN12QAudioFormat6EndianEE13detach_helperEv 0x0003438e   Section       16  qaudiodeviceinfo.o(t._ZN5QListIN12QAudioFormat6EndianEE13detach_helperEv)
    t._ZN5QListIN12QAudioFormat6EndianEE13node_destructEPNS2_4NodeES4_ 0x0003439e   Section       26  qaudiodeviceinfo.o(t._ZN5QListIN12QAudioFormat6EndianEE13node_destructEPNS2_4NodeES4_)
    t._ZN5QListIN12QAudioFormat6EndianEE14node_constructEPNS2_4NodeERKS1_ 0x000343b8   Section       30  qaudiodeviceinfo.o(t._ZN5QListIN12QAudioFormat6EndianEE14node_constructEPNS2_4NodeERKS1_)
    t._ZN5QListIN12QAudioFormat6EndianEE18detach_helper_growEii 0x000343d6   Section      208  qaudiodeviceinfo.o(t._ZN5QListIN12QAudioFormat6EndianEE18detach_helper_growEii)
    t._ZN5QListIN12QAudioFormat6EndianEE18detach_helper_growEii.clean 0x000344a6   Section       16  qaudiodeviceinfo.o(t._ZN5QListIN12QAudioFormat6EndianEE18detach_helper_growEii.clean)
    t._ZN5QListIN12QAudioFormat6EndianEE4freeEPN9QListData4DataE 0x000344b6   Section       52  qaudiodeviceinfo.o(t._ZN5QListIN12QAudioFormat6EndianEE4freeEPN9QListData4DataE)
    t._ZN5QListIN12QAudioFormat6EndianEE5clearEv 0x000344ea   Section       76  qaudio_symbian_p.o(t._ZN5QListIN12QAudioFormat6EndianEE5clearEv)
    t._ZN5QListIN12QAudioFormat6EndianEE5clearEv.clean 0x00034536   Section       10  qaudio_symbian_p.o(t._ZN5QListIN12QAudioFormat6EndianEE5clearEv.clean)
    t._ZN5QListIN12QAudioFormat6EndianEE6appendERKS1_ 0x00034540   Section      112  qaudio_symbian_p.o(t._ZN5QListIN12QAudioFormat6EndianEE6appendERKS1_)
    t._ZN5QListIN12QAudioFormat6EndianEE6appendERKS1_.clean 0x000345b0   Section       14  qaudio_symbian_p.o(t._ZN5QListIN12QAudioFormat6EndianEE6appendERKS1_.clean)
    t._ZN5QListIN12QAudioFormat6EndianEE9node_copyEPNS2_4NodeES4_S4_ 0x000345be   Section       78  qaudiodeviceinfo.o(t._ZN5QListIN12QAudioFormat6EndianEE9node_copyEPNS2_4NodeES4_S4_)
    t._ZN5QListIN12QAudioFormat6EndianEE9node_copyEPNS2_4NodeES4_S4_.clean 0x0003460c   Section        8  qaudiodeviceinfo.o(t._ZN5QListIN12QAudioFormat6EndianEE9node_copyEPNS2_4NodeES4_S4_.clean)
    t._ZN5QListIN12QAudioFormat6EndianEE9removeAllERKS1_ 0x00034614   Section      120  qaudiodeviceinfo.o(t._ZN5QListIN12QAudioFormat6EndianEE9removeAllERKS1_)
    t._ZN5QListIN12QAudioFormat6EndianEEC1ERKS2_ 0x0003468c   Section       36  qaudiodeviceinfo.o(t._ZN5QListIN12QAudioFormat6EndianEEC1ERKS2_)
    t._ZN5QListIN12QAudioFormat6EndianEEC1Ev 0x000346b0   Section       24  qaudio_symbian_p.o(t._ZN5QListIN12QAudioFormat6EndianEEC1Ev)
    t._ZN5QListIN12QAudioFormat6EndianEED1Ev 0x000346c8   Section       32  qaudiodeviceinfo.o(t._ZN5QListIN12QAudioFormat6EndianEED1Ev)
    t._ZN5QListIN15QtMultimediaKit8MetaDataEE13detach_helperEi 0x000346e8   Section      184  qmediaobject.o(t._ZN5QListIN15QtMultimediaKit8MetaDataEE13detach_helperEi)
    t._ZN5QListIN15QtMultimediaKit8MetaDataEE13detach_helperEi.clean 0x000347a0   Section       16  qmediaobject.o(t._ZN5QListIN15QtMultimediaKit8MetaDataEE13detach_helperEi.clean)
    t._ZN5QListIN15QtMultimediaKit8MetaDataEE13detach_helperEv 0x000347b0   Section       16  qmediaobject.o(t._ZN5QListIN15QtMultimediaKit8MetaDataEE13detach_helperEv)
    t._ZN5QListIN15QtMultimediaKit8MetaDataEE4freeEPN9QListData4DataE 0x000347c0   Section       64  qmediarecorder.o(t._ZN5QListIN15QtMultimediaKit8MetaDataEE4freeEPN9QListData4DataE)
    t._ZN5QListIN15QtMultimediaKit8MetaDataEED1Ev 0x00034800   Section       32  qmediaobject.o(t._ZN5QListIN15QtMultimediaKit8MetaDataEED1Ev)
    t._ZN5QListIN7QCamera10LockStatusEE13detach_helperEi 0x00034820   Section       94  qcamera.o(t._ZN5QListIN7QCamera10LockStatusEE13detach_helperEi)
    t._ZN5QListIN7QCamera10LockStatusEE13detach_helperEi.clean 0x0003487e   Section        8  qcamera.o(t._ZN5QListIN7QCamera10LockStatusEE13detach_helperEi.clean)
    t._ZN5QListIN7QCamera10LockStatusEE13detach_helperEv 0x00034886   Section       16  qcamera.o(t._ZN5QListIN7QCamera10LockStatusEE13detach_helperEv)
    t._ZN5QListIN7QCamera10LockStatusEE13node_destructEPNS2_4NodeES4_ 0x00034896   Section       26  qcamera.o(t._ZN5QListIN7QCamera10LockStatusEE13node_destructEPNS2_4NodeES4_)
    t._ZN5QListIN7QCamera10LockStatusEE14node_constructEPNS2_4NodeERKS1_ 0x000348b0   Section       30  qcamera.o(t._ZN5QListIN7QCamera10LockStatusEE14node_constructEPNS2_4NodeERKS1_)
    t._ZN5QListIN7QCamera10LockStatusEE18detach_helper_growEii 0x000348ce   Section      208  qcamera.o(t._ZN5QListIN7QCamera10LockStatusEE18detach_helper_growEii)
    t._ZN5QListIN7QCamera10LockStatusEE18detach_helper_growEii.clean 0x0003499e   Section       16  qcamera.o(t._ZN5QListIN7QCamera10LockStatusEE18detach_helper_growEii.clean)
    t._ZN5QListIN7QCamera10LockStatusEE4freeEPN9QListData4DataE 0x000349ae   Section       58  qcamera.o(t._ZN5QListIN7QCamera10LockStatusEE4freeEPN9QListData4DataE)
    t._ZN5QListIN7QCamera10LockStatusEE6appendERKS1_ 0x000349e8   Section      112  qcamera.o(t._ZN5QListIN7QCamera10LockStatusEE6appendERKS1_)
    t._ZN5QListIN7QCamera10LockStatusEE6appendERKS1_.clean 0x00034a58   Section       14  qcamera.o(t._ZN5QListIN7QCamera10LockStatusEE6appendERKS1_.clean)
    t._ZN5QListIN7QCamera10LockStatusEE9node_copyEPNS2_4NodeES4_S4_ 0x00034a66   Section       78  qcamera.o(t._ZN5QListIN7QCamera10LockStatusEE9node_copyEPNS2_4NodeES4_S4_)
    t._ZN5QListIN7QCamera10LockStatusEE9node_copyEPNS2_4NodeES4_S4_.clean 0x00034ab4   Section        8  qcamera.o(t._ZN5QListIN7QCamera10LockStatusEE9node_copyEPNS2_4NodeES4_S4_.clean)
    t._ZN5QListIN7QCamera10LockStatusEED1Ev  0x00034abc   Section       32  qcamera.o(t._ZN5QListIN7QCamera10LockStatusEED1Ev)
    t._ZN5QListIP13QGraphicsItemE13detach_helperEi 0x00034adc   Section      128  qgraphicsvideoitem_symbian.o(t._ZN5QListIP13QGraphicsItemE13detach_helperEi)
    t._ZN5QListIP13QGraphicsItemE13detach_helperEi.clean 0x00034b5c   Section        8  qgraphicsvideoitem_symbian.o(t._ZN5QListIP13QGraphicsItemE13detach_helperEi.clean)
    t._ZN5QListIP13QGraphicsItemE13detach_helperEv 0x00034b64   Section       16  qgraphicsvideoitem_symbian.o(t._ZN5QListIP13QGraphicsItemE13detach_helperEv)
    t._ZN5QListIP13QGraphicsItemE4freeEPN9QListData4DataE 0x00034b74   Section       52  qgraphicsvideoitem_symbian.o(t._ZN5QListIP13QGraphicsItemE4freeEPN9QListData4DataE)
    t._ZN5QListIP13QGraphicsItemED1Ev        0x00034ba8   Section       32  qgraphicsvideoitem_symbian.o(t._ZN5QListIP13QGraphicsItemED1Ev)
    t._ZN5QListIP13QGraphicsViewE13detach_helperEi 0x00034bc8   Section      128  qgraphicsvideoitem_symbian.o(t._ZN5QListIP13QGraphicsViewE13detach_helperEi)
    t._ZN5QListIP13QGraphicsViewE13detach_helperEi.clean 0x00034c48   Section        8  qgraphicsvideoitem_symbian.o(t._ZN5QListIP13QGraphicsViewE13detach_helperEi.clean)
    t._ZN5QListIP13QGraphicsViewE13detach_helperEv 0x00034c50   Section       16  qgraphicsvideoitem_symbian.o(t._ZN5QListIP13QGraphicsViewE13detach_helperEv)
    t._ZN5QListIP13QGraphicsViewE4freeEPN9QListData4DataE 0x00034c60   Section       52  qgraphicsvideoitem_symbian.o(t._ZN5QListIP13QGraphicsViewE4freeEPN9QListData4DataE)
    t._ZN5QListIP13QGraphicsViewED1Ev        0x00034c94   Section       32  qgraphicsvideoitem_symbian.o(t._ZN5QListIP13QGraphicsViewED1Ev)
    t._ZN5QListIP13QPluginLoaderE18detach_helper_growEii 0x00034cb4   Section      204  qaudiopluginloader.o(t._ZN5QListIP13QPluginLoaderE18detach_helper_growEii)
    t._ZN5QListIP13QPluginLoaderE18detach_helper_growEii.clean 0x00034d80   Section       16  qaudiopluginloader.o(t._ZN5QListIP13QPluginLoaderE18detach_helper_growEii.clean)
    t._ZN5QListIP13QPluginLoaderE4freeEPN9QListData4DataE 0x00034d90   Section       58  qaudiopluginloader.o(t._ZN5QListIP13QPluginLoaderE4freeEPN9QListData4DataE)
    t._ZN5QListIP13QPluginLoaderE6appendERKS1_ 0x00034dcc   Section      100  qaudiopluginloader.o(t._ZN5QListIP13QPluginLoaderE6appendERKS1_)
    t._ZN5QListIP13QPluginLoaderE6appendERKS1_.clean 0x00034e30   Section       10  qaudiopluginloader.o(t._ZN5QListIP13QPluginLoaderE6appendERKS1_.clean)
    t._ZN5QListIP13QPluginLoaderE9node_copyEPNS2_4NodeES4_S4_ 0x00034e3a   Section       46  qaudiopluginloader.o(t._ZN5QListIP13QPluginLoaderE9node_copyEPNS2_4NodeES4_S4_)
    t._ZN5QListIP13QPluginLoaderED1Ev        0x00034e68   Section       32  qaudiopluginloader.o(t._ZN5QListIP13QPluginLoaderED1Ev)
    t._ZN5QListIP14CMMFDataBufferE13detach_helperEi 0x00034e88   Section       94  qaudioinput_symbian_p.o(t._ZN5QListIP14CMMFDataBufferE13detach_helperEi)
    t._ZN5QListIP14CMMFDataBufferE13detach_helperEi.clean 0x00034ee6   Section        8  qaudioinput_symbian_p.o(t._ZN5QListIP14CMMFDataBufferE13detach_helperEi.clean)
    t._ZN5QListIP14CMMFDataBufferE13detach_helperEv 0x00034eee   Section       16  qaudioinput_symbian_p.o(t._ZN5QListIP14CMMFDataBufferE13detach_helperEv)
    t._ZN5QListIP14CMMFDataBufferE18detach_helper_growEii 0x00034efe   Section      204  qaudioinput_symbian_p.o(t._ZN5QListIP14CMMFDataBufferE18detach_helper_growEii)
    t._ZN5QListIP14CMMFDataBufferE18detach_helper_growEii.clean 0x00034fca   Section       16  qaudioinput_symbian_p.o(t._ZN5QListIP14CMMFDataBufferE18detach_helper_growEii.clean)
    t._ZN5QListIP14CMMFDataBufferE4freeEPN9QListData4DataE 0x00034fda   Section       58  qaudioinput_symbian_p.o(t._ZN5QListIP14CMMFDataBufferE4freeEPN9QListData4DataE)
    t._ZN5QListIP14CMMFDataBufferE5beginEv   0x00035014   Section       40  qaudioinput_symbian_p.o(t._ZN5QListIP14CMMFDataBufferE5beginEv)
    t._ZN5QListIP14CMMFDataBufferE5clearEv   0x0003503c   Section       76  qaudioinput_symbian_p.o(t._ZN5QListIP14CMMFDataBufferE5clearEv)
    t._ZN5QListIP14CMMFDataBufferE5clearEv.clean 0x00035088   Section       10  qaudioinput_symbian_p.o(t._ZN5QListIP14CMMFDataBufferE5clearEv.clean)
    t._ZN5QListIP14CMMFDataBufferE6appendERKS1_ 0x00035094   Section      100  qaudioinput_symbian_p.o(t._ZN5QListIP14CMMFDataBufferE6appendERKS1_)
    t._ZN5QListIP14CMMFDataBufferE6appendERKS1_.clean 0x000350f8   Section       10  qaudioinput_symbian_p.o(t._ZN5QListIP14CMMFDataBufferE6appendERKS1_.clean)
    t._ZN5QListIP14CMMFDataBufferE9node_copyEPNS2_4NodeES4_S4_ 0x00035102   Section       46  qaudioinput_symbian_p.o(t._ZN5QListIP14CMMFDataBufferE9node_copyEPNS2_4NodeES4_S4_)
    t._ZN5QListIP14CMMFDataBufferEC1Ev       0x00035130   Section       24  qaudioinput_symbian_p.o(t._ZN5QListIP14CMMFDataBufferEC1Ev)
    t._ZN5QListIP14CMMFDataBufferED1Ev       0x00035148   Section       32  qaudioinput_symbian_p.o(t._ZN5QListIP14CMMFDataBufferED1Ev)
    t._ZN5QListIP18QGraphicsVideoItemE13detach_helperEi 0x00035168   Section       94  qgraphicsvideoitem_symbian.o(t._ZN5QListIP18QGraphicsVideoItemE13detach_helperEi)
    t._ZN5QListIP18QGraphicsVideoItemE13detach_helperEi.clean 0x000351c6   Section        8  qgraphicsvideoitem_symbian.o(t._ZN5QListIP18QGraphicsVideoItemE13detach_helperEi.clean)
    t._ZN5QListIP18QGraphicsVideoItemE13detach_helperEv 0x000351ce   Section       16  qgraphicsvideoitem_symbian.o(t._ZN5QListIP18QGraphicsVideoItemE13detach_helperEv)
    t._ZN5QListIP18QGraphicsVideoItemE18detach_helper_growEii 0x000351de   Section      204  qgraphicsvideoitem_symbian.o(t._ZN5QListIP18QGraphicsVideoItemE18detach_helper_growEii)
    t._ZN5QListIP18QGraphicsVideoItemE18detach_helper_growEii.clean 0x000352aa   Section       16  qgraphicsvideoitem_symbian.o(t._ZN5QListIP18QGraphicsVideoItemE18detach_helper_growEii.clean)
    t._ZN5QListIP18QGraphicsVideoItemE4freeEPN9QListData4DataE 0x000352ba   Section       52  qgraphicsvideoitem_symbian.o(t._ZN5QListIP18QGraphicsVideoItemE4freeEPN9QListData4DataE)
    t._ZN5QListIP18QGraphicsVideoItemE6appendERKS1_ 0x000352f0   Section      100  qgraphicsvideoitem_symbian.o(t._ZN5QListIP18QGraphicsVideoItemE6appendERKS1_)
    t._ZN5QListIP18QGraphicsVideoItemE6appendERKS1_.clean 0x00035354   Section       10  qgraphicsvideoitem_symbian.o(t._ZN5QListIP18QGraphicsVideoItemE6appendERKS1_.clean)
    t._ZN5QListIP18QGraphicsVideoItemE9node_copyEPNS2_4NodeES4_S4_ 0x0003535e   Section       46  qgraphicsvideoitem_symbian.o(t._ZN5QListIP18QGraphicsVideoItemE9node_copyEPNS2_4NodeES4_S4_)
    t._ZN5QListIP18QGraphicsVideoItemED1Ev   0x0003538c   Section       32  qgraphicsvideoitem_symbian.o(t._ZN5QListIP18QGraphicsVideoItemED1Ev)
    t._ZN5QListIP27QMediaServiceProviderPluginE13detach_helperEi 0x000353ac   Section       94  qmediaserviceprovider.o(t._ZN5QListIP27QMediaServiceProviderPluginE13detach_helperEi)
    t._ZN5QListIP27QMediaServiceProviderPluginE13detach_helperEi.clean 0x0003540a   Section        8  qmediaserviceprovider.o(t._ZN5QListIP27QMediaServiceProviderPluginE13detach_helperEi.clean)
    t._ZN5QListIP27QMediaServiceProviderPluginE13detach_helperEv 0x00035412   Section       16  qmediaserviceprovider.o(t._ZN5QListIP27QMediaServiceProviderPluginE13detach_helperEv)
    t._ZN5QListIP27QMediaServiceProviderPluginE18detach_helper_growEii 0x00035422   Section      204  qmediaserviceprovider.o(t._ZN5QListIP27QMediaServiceProviderPluginE18detach_helper_growEii)
    t._ZN5QListIP27QMediaServiceProviderPluginE18detach_helper_growEii.clean 0x000354ee   Section       16  qmediaserviceprovider.o(t._ZN5QListIP27QMediaServiceProviderPluginE18detach_helper_growEii.clean)
    t._ZN5QListIP27QMediaServiceProviderPluginE4freeEPN9QListData4DataE 0x000354fe   Section       52  qmediaserviceprovider.o(t._ZN5QListIP27QMediaServiceProviderPluginE4freeEPN9QListData4DataE)
    t._ZN5QListIP27QMediaServiceProviderPluginE6appendERKS1_ 0x00035534   Section      100  qmediaserviceprovider.o(t._ZN5QListIP27QMediaServiceProviderPluginE6appendERKS1_)
    t._ZN5QListIP27QMediaServiceProviderPluginE6appendERKS1_.clean 0x00035598   Section       10  qmediaserviceprovider.o(t._ZN5QListIP27QMediaServiceProviderPluginE6appendERKS1_.clean)
    t._ZN5QListIP27QMediaServiceProviderPluginE9node_copyEPNS2_4NodeES4_S4_ 0x000355a2   Section       46  qmediaserviceprovider.o(t._ZN5QListIP27QMediaServiceProviderPluginE9node_copyEPNS2_4NodeES4_S4_)
    t._ZN5QListIP27QMediaServiceProviderPluginED1Ev 0x000355d0   Section       32  qmediaserviceprovider.o(t._ZN5QListIP27QMediaServiceProviderPluginED1Ev)
    t._ZN5QListIP27QMediaServiceProviderPluginEixEi 0x000355f0   Section       52  qmediaserviceprovider.o(t._ZN5QListIP27QMediaServiceProviderPluginEixEi)
    t._ZN5QListIP7QObjectE13detach_helperEi  0x00035624   Section       94  qmediapluginloader.o(t._ZN5QListIP7QObjectE13detach_helperEi)
    t._ZN5QListIP7QObjectE13detach_helperEi.clean 0x00035682   Section        8  qmediapluginloader.o(t._ZN5QListIP7QObjectE13detach_helperEi.clean)
    t._ZN5QListIP7QObjectE13detach_helperEv  0x0003568a   Section       16  qmediaserviceprovider.o(t._ZN5QListIP7QObjectE13detach_helperEv)
    t._ZN5QListIP7QObjectE18detach_helper_growEii 0x0003569a   Section      204  qmediapluginloader.o(t._ZN5QListIP7QObjectE18detach_helper_growEii)
    t._ZN5QListIP7QObjectE18detach_helper_growEii.clean 0x00035766   Section       16  qmediapluginloader.o(t._ZN5QListIP7QObjectE18detach_helper_growEii.clean)
    t._ZN5QListIP7QObjectE4freeEPN9QListData4DataE 0x00035776   Section       52  qmediaserviceprovider.o(t._ZN5QListIP7QObjectE4freeEPN9QListData4DataE)
    t._ZN5QListIP7QObjectE6appendERKS1_      0x000357ac   Section      100  qmediapluginloader.o(t._ZN5QListIP7QObjectE6appendERKS1_)
    t._ZN5QListIP7QObjectE6appendERKS1_.clean 0x00035810   Section       10  qmediapluginloader.o(t._ZN5QListIP7QObjectE6appendERKS1_.clean)
    t._ZN5QListIP7QObjectE9node_copyEPNS2_4NodeES4_S4_ 0x0003581a   Section       46  qmediapluginloader.o(t._ZN5QListIP7QObjectE9node_copyEPNS2_4NodeES4_S4_)
    t._ZN5QListIP7QObjectEC1ERKS2_           0x00035848   Section       36  qmediapluginloader.o(t._ZN5QListIP7QObjectEC1ERKS2_)
    t._ZN5QListIP7QObjectEC1Ev               0x0003586c   Section       24  qmediapluginloader.o(t._ZN5QListIP7QObjectEC1Ev)
    t._ZN5QListIP7QObjectED1Ev               0x00035884   Section       32  qmediaserviceprovider.o(t._ZN5QListIP7QObjectED1Ev)
    t._ZN5QListIfE13detach_helperEi          0x000358a4   Section      128  qmediarecorder.o(t._ZN5QListIfE13detach_helperEi)
    t._ZN5QListIfE13detach_helperEi.clean    0x00035924   Section        8  qmediarecorder.o(t._ZN5QListIfE13detach_helperEi.clean)
    t._ZN5QListIfE13detach_helperEv          0x0003592c   Section       16  qmediarecorder.o(t._ZN5QListIfE13detach_helperEv)
    t._ZN5QListIfE18detach_helper_growEii    0x0003593c   Section      204  qcameraexposure.o(t._ZN5QListIfE18detach_helper_growEii)
    t._ZN5QListIfE18detach_helper_growEii.clean 0x00035a08   Section       16  qcameraexposure.o(t._ZN5QListIfE18detach_helper_growEii.clean)
    t._ZN5QListIfE4freeEPN9QListData4DataE   0x00035a18   Section       52  qmediarecorder.o(t._ZN5QListIfE4freeEPN9QListData4DataE)
    t._ZN5QListIfE6appendERKf                0x00035a4c   Section      100  qcameraexposure.o(t._ZN5QListIfE6appendERKf)
    t._ZN5QListIfE6appendERKf.clean          0x00035ab0   Section       10  qcameraexposure.o(t._ZN5QListIfE6appendERKf.clean)
    t._ZN5QListIfE9node_copyEPNS0_4NodeES2_S2_ 0x00035aba   Section       46  qcameraexposure.o(t._ZN5QListIfE9node_copyEPNS0_4NodeES2_S2_)
    t._ZN5QListIfEC1Ev                       0x00035ae8   Section       24  qcameraexposure.o(t._ZN5QListIfEC1Ev)
    t._ZN5QListIfED1Ev                       0x00035b00   Section       32  qmediarecorder.o(t._ZN5QListIfED1Ev)
    t._ZN5QListIiE13detach_helperEi          0x00035b20   Section       94  qmediaplaylistnavigator.o(t._ZN5QListIiE13detach_helperEi)
    t._ZN5QListIiE13detach_helperEi.clean    0x00035b7e   Section        8  qmediaplaylistnavigator.o(t._ZN5QListIiE13detach_helperEi.clean)
    t._ZN5QListIiE13detach_helperEv          0x00035b86   Section       16  qmediaplaylistnavigator.o(t._ZN5QListIiE13detach_helperEv)
    t._ZN5QListIiE18detach_helper_growEii    0x00035b96   Section      204  qmediaplaylistnavigator.o(t._ZN5QListIiE18detach_helper_growEii)
    t._ZN5QListIiE18detach_helper_growEii.clean 0x00035c62   Section       16  qmediaplaylistnavigator.o(t._ZN5QListIiE18detach_helper_growEii.clean)
    t._ZN5QListIiE4freeEPN9QListData4DataE   0x00035c72   Section       52  qmediarecorder.o(t._ZN5QListIiE4freeEPN9QListData4DataE)
    t._ZN5QListIiE5clearEv                   0x00035ca6   Section       76  qmediaplaylistnavigator.o(t._ZN5QListIiE5clearEv)
    t._ZN5QListIiE5clearEv.clean             0x00035cf2   Section       10  qmediaplaylistnavigator.o(t._ZN5QListIiE5clearEv.clean)
    t._ZN5QListIiE6appendERKi                0x00035cfc   Section      100  qmediaplaylistnavigator.o(t._ZN5QListIiE6appendERKi)
    t._ZN5QListIiE6appendERKi.clean          0x00035d60   Section       10  qmediaplaylistnavigator.o(t._ZN5QListIiE6appendERKi.clean)
    t._ZN5QListIiE7reserveEi                 0x00035d6a   Section       46  qmediaresource.o(t._ZN5QListIiE7reserveEi)
    t._ZN5QListIiE9node_copyEPNS0_4NodeES2_S2_ 0x00035d98   Section       46  qmediaplaylistnavigator.o(t._ZN5QListIiE9node_copyEPNS0_4NodeES2_S2_)
    t._ZN5QListIiE9removeAllERKi             0x00035dc8   Section      116  qaudiodeviceinfo.o(t._ZN5QListIiE9removeAllERKi)
    t._ZN5QListIiEC1ERKS0_                   0x00035e3c   Section       36  qaudiodeviceinfo.o(t._ZN5QListIiEC1ERKS0_)
    t._ZN5QListIiEC1Ev                       0x00035e60   Section       24  qmediaplaylistnavigator.o(t._ZN5QListIiEC1Ev)
    t._ZN5QListIiED1Ev                       0x00035e78   Section       32  qmediaplaylistnavigator.o(t._ZN5QListIiED1Ev)
    t._ZN5QListIiEaSERKS0_                   0x00035e98   Section       64  qaudiodeviceinfo_symbian_p.o(t._ZN5QListIiEaSERKS0_)
    t._ZN5QListIiEixEi                       0x00035ed8   Section       52  qmediaplaylistnavigator.o(t._ZN5QListIiEixEi)
    t._ZN5QListIiEpLERKi                     0x00035f0c   Section       18  qaudio_symbian_p.o(t._ZN5QListIiEpLERKi)
    t._ZN7QVectorI5QRectE13detach_helperEv   0x00035f1e   Section       18  qvideowidget.o(t._ZN7QVectorI5QRectE13detach_helperEv)
    t._ZN7QVectorI5QRectE4freeEP16QVectorTypedDataIS0_E 0x00035f30   Section       48  qvideowidget.o(t._ZN7QVectorI5QRectE4freeEP16QVectorTypedDataIS0_E)
    t._ZN7QVectorI5QRectE6detachEv           0x00035f60   Section       24  qvideowidget.o(t._ZN7QVectorI5QRectE6detachEv)
    t._ZN7QVectorI5QRectE6mallocEi           0x00035f78   Section       52  qvideowidget.o(t._ZN7QVectorI5QRectE6mallocEi)
    t._ZN7QVectorI5QRectE7reallocEii         0x00035fac   Section      614  qvideowidget.o(t._ZN7QVectorI5QRectE7reallocEii)
    t._ZN7QVectorI5QRectE7reallocEii.clean   0x00036212   Section       28  qvideowidget.o(t._ZN7QVectorI5QRectE7reallocEii.clean)
    t._ZN7QVectorI5QRectED1Ev                0x0003622e   Section       34  qvideowidget.o(t._ZN7QVectorI5QRectED1Ev)
    t._ZN8QPointerI12QMediaObjectEaSEPS0_    0x00036250   Section       24  qvideowidget.o(t._ZN8QPointerI12QMediaObjectEaSEPS0_)
    t._ZN8QPointerI13QGraphicsViewED1Ev      0x00036268   Section       14  qgraphicsvideoitem_symbian.o(t._ZN8QPointerI13QGraphicsViewED1Ev)
    t._ZN8QPointerI7QObjectEC1ERKS1_         0x00036276   Section       20  qgraphicsvideoitem_symbian.o(t._ZN8QPointerI7QObjectEC1ERKS1_)
    t._ZN8QPointerI7QObjectED1Ev             0x0003628a   Section       14  qmediaimageviewer.o(t._ZN8QPointerI7QObjectED1Ev)
    t._ZN8QPointerI7QObjectEaSEPS0_          0x00036298   Section       24  qmediaimageviewer.o(t._ZN8QPointerI7QObjectEaSEPS0_)
    t._ZN8QVariant9fromValueI19QVideoSurfaceFormatEES_RKT_ 0x000362b0   Section       34  qabstractvideosurface.o(t._ZN8QVariant9fromValueI19QVideoSurfaceFormatEES_RKT_)
    t._ZN8QVariant9fromValueIN21QAbstractVideoSurface5ErrorEEES_RKT_ 0x000362d2   Section       34  qabstractvideosurface.o(t._ZN8QVariant9fromValueIN21QAbstractVideoSurface5ErrorEEES_RKT_)
    t._ZNK12QMapIteratorIiiE7hasNextEv       0x000362f4   Section       30  qaudiodeviceinfo.o(t._ZNK12QMapIteratorIiiE7hasNextEv)
    t._ZNK17QForeachContainerI11QStringListE9conditionEv 0x00036312   Section       40  qmediaplaylist.o(t._ZNK17QForeachContainerI11QStringListE9conditionEv)
    t._ZNK17QForeachContainerI5QListI10QByteArrayEE9conditionEv 0x0003633a   Section       40  qaudiodevicefactory.o(t._ZNK17QForeachContainerI5QListI10QByteArrayEE9conditionEv)
    t._ZNK17QForeachContainerI5QListI18QMediaTimeIntervalEE9conditionEv 0x00036362   Section       40  qmediatimerange.o(t._ZNK17QForeachContainerI5QListI18QMediaTimeIntervalEE9conditionEv)
    t._ZNK17QForeachContainerI5QListI8QPointerI7QObjectEEE9conditionEv 0x0003638a   Section       40  qgraphicsvideoitem_symbian.o(t._ZNK17QForeachContainerI5QListI8QPointerI7QObjectEEE9conditionEv)
    t._ZNK17QForeachContainerI5QListI8QVariantEE9conditionEv 0x000363b2   Section       40  qcameraexposure.o(t._ZNK17QForeachContainerI5QListI8QVariantEE9conditionEv)
    t._ZNK17QForeachContainerI5QListIP27QMediaServiceProviderPluginEE9conditionEv 0x000363da   Section       40  qmediaserviceprovider.o(t._ZNK17QForeachContainerI5QListIP27QMediaServiceProviderPluginEE9conditionEv)
    t._ZNK17QForeachContainerI5QListIP7QObjectEE9conditionEv 0x00036402   Section       40  qmediaserviceprovider.o(t._ZNK17QForeachContainerI5QListIP7QObjectEE9conditionEv)
    t._ZNK17QForeachContainerI5QListIiEE9conditionEv 0x0003642a   Section       40  qaudiodeviceinfo.o(t._ZNK17QForeachContainerI5QListIiEE9conditionEv)
    t._ZNK4QMapI4QUrlP7QSampleE15mutableFindNodeEPPN8QMapData4NodeERKS0_ 0x00036452   Section      108  qsamplecache_p.o(t._ZNK4QMapI4QUrlP7QSampleE15mutableFindNodeEPPN8QMapData4NodeERKS0_)
    t._ZNK4QMapI4QUrlP7QSampleE8iteratoreqERKS4_ 0x000364be   Section       18  qsamplecache_p.o(t._ZNK4QMapI4QUrlP7QSampleE8iteratoreqERKS4_)
    t._ZNK4QMapI4QUrlP7QSampleE8iteratorneERKS4_ 0x000364d0   Section       18  qsamplecache_p.o(t._ZNK4QMapI4QUrlP7QSampleE8iteratorneERKS4_)
    t._ZNK4QMapI7QString5QListIP7QObjectEE15mutableFindNodeEPPN8QMapData4NodeERKS0_ 0x000364e2   Section      108  qmediapluginloader.o(t._ZNK4QMapI7QString5QListIP7QObjectEE15mutableFindNodeEPPN8QMapData4NodeERKS0_)
    t._ZNK4QMapI7QString5QListIP7QObjectEE8findNodeERKS0_ 0x0003654e   Section      104  qmediapluginloader.o(t._ZNK4QMapI7QString5QListIP7QObjectEE8findNodeERKS0_)
    t._ZNK4QMapI7QStringN24QAudioDeviceInfoInternal12CapabilitiesEE15mutableFindNodeEPPN8QMapData4NodeERKS0_ 0x000365b6   Section      108  qaudiodeviceinfo_symbian_p.o(t._ZNK4QMapI7QStringN24QAudioDeviceInfoInternal12CapabilitiesEE15mutableFindNodeEPPN8QMapData4NodeERKS0_)
    t._ZNK4QMapI7QStringN24QAudioDeviceInfoInternal12CapabilitiesEE4keysEv 0x00036624   Section      116  qaudiodeviceinfo_symbian_p.o(t._ZNK4QMapI7QStringN24QAudioDeviceInfoInternal12CapabilitiesEE4keysEv)
    t._ZNK4QMapI7QStringN24QAudioDeviceInfoInternal12CapabilitiesEE4keysEv.clean 0x00036698   Section       10  qaudiodeviceinfo_symbian_p.o(t._ZNK4QMapI7QStringN24QAudioDeviceInfoInternal12CapabilitiesEE4keysEv.clean)
    t._ZNK4QMapI7QStringN24QAudioDeviceInfoInternal12CapabilitiesEE8containsERKS0_ 0x000366a2   Section      122  qaudiodeviceinfo_symbian_p.o(t._ZNK4QMapI7QStringN24QAudioDeviceInfoInternal12CapabilitiesEE8containsERKS0_)
    t._ZNK4QMapI7QStringP7QObjectE15mutableFindNodeEPPN8QMapData4NodeERKS0_ 0x0003671c   Section      108  qmediapluginloader.o(t._ZNK4QMapI7QStringP7QObjectE15mutableFindNodeEPPN8QMapData4NodeERKS0_)
    t._ZNK4QMapI7QStringP7QObjectE4keysEv    0x00036788   Section      104  qmediapluginloader.o(t._ZNK4QMapI7QStringP7QObjectE4keysEv)
    t._ZNK4QMapI7QStringP7QObjectE4keysEv.clean 0x000367f0   Section       10  qmediapluginloader.o(t._ZNK4QMapI7QStringP7QObjectE4keysEv.clean)
    t._ZNK4QMapI7QStringP7QObjectE6valuesERKS0_ 0x000367fa   Section       82  qmediapluginloader.o(t._ZNK4QMapI7QStringP7QObjectE6valuesERKS0_)
    t._ZNK4QMapI7QStringP7QObjectE6valuesERKS0_.clean 0x0003684c   Section       10  qmediapluginloader.o(t._ZNK4QMapI7QStringP7QObjectE6valuesERKS0_.clean)
    t._ZNK4QMapI7QStringP7QObjectE8findNodeERKS0_ 0x00036856   Section      104  qmediapluginloader.o(t._ZNK4QMapI7QStringP7QObjectE8findNodeERKS0_)
    t._ZNK4QMapIN7QCamera10LockStatusEiE15mutableFindNodeEPPN8QMapData4NodeERKS1_ 0x000368be   Section      108  qcamera.o(t._ZNK4QMapIN7QCamera10LockStatusEiE15mutableFindNodeEPPN8QMapData4NodeERKS1_)
    t._ZNK4QMapIP13QMediaServiceP27QMediaServiceProviderPluginE15mutableFindNodeEPPN8QMapData4NodeERKS1_ 0x0003692a   Section      108  qmediaserviceprovider.o(t._ZNK4QMapIP13QMediaServiceP27QMediaServiceProviderPluginE15mutableFindNodeEPPN8QMapData4NodeERKS1_)
    t._ZNK4QMapIi8QVariantE15mutableFindNodeEPPN8QMapData4NodeERKi 0x00036996   Section      108  qmediaresource.o(t._ZNK4QMapIi8QVariantE15mutableFindNodeEPPN8QMapData4NodeERKi)
    t._ZNK4QMapIi8QVariantE4keysEv           0x00036a04   Section      116  qmediaresource.o(t._ZNK4QMapIi8QVariantE4keysEv)
    t._ZNK4QMapIi8QVariantE4keysEv.clean     0x00036a78   Section       10  qmediaresource.o(t._ZNK4QMapIi8QVariantE4keysEv.clean)
    t._ZNK4QMapIi8QVariantE5valueERKi        0x00036a82   Section       98  qmediaresource.o(t._ZNK4QMapIi8QVariantE5valueERKi)
    t._ZNK4QMapIi8QVariantE8findNodeERKi     0x00036ae4   Section      104  qmediaresource.o(t._ZNK4QMapIi8QVariantE8findNodeERKi)
    t._ZNK4QMapIiiE15mutableFindNodeEPPN8QMapData4NodeERKi 0x00036b4c   Section      108  qaudiodeviceinfo.o(t._ZNK4QMapIiiE15mutableFindNodeEPPN8QMapData4NodeERKi)
    t._ZNK5QHashI7QString15QHashDummyValueE8findNodeERKS0_Pj 0x00036bb8   Section      116  qaudiopluginloader.o(t._ZNK5QHashI7QString15QHashDummyValueE8findNodeERKS0_Pj)
    t._ZNK5QHashIi15QHashDummyValueE7isEmptyEv 0x00036c2c   Section       18  qmediaobject.o(t._ZNK5QHashIi15QHashDummyValueE7isEmptyEv)
    t._ZNK5QHashIi15QHashDummyValueE8findNodeERKiPj 0x00036c3e   Section       94  qmediaobject.o(t._ZNK5QHashIi15QHashDummyValueE8findNodeERKiPj)
    t._ZNK5QListI10QByteArrayE2atEi          0x00036c9c   Section       30  qaudiodevicefactory.o(t._ZNK5QListI10QByteArrayE2atEi)
    t._ZNK5QListI10QByteArrayE5countEv       0x00036cba   Section       12  qvideosurfaceformat.o(t._ZNK5QListI10QByteArrayE5countEv)
    t._ZNK5QListI10QByteArrayE7indexOfERKS0_i 0x00036cc6   Section      174  qvideosurfaceformat.o(t._ZNK5QListI10QByteArrayE7indexOfERKS0_i)
    t._ZNK5QListI10QByteArrayE7isEmptyEv     0x00036d74   Section       24  qvideosurfaceformat.o(t._ZNK5QListI10QByteArrayE7isEmptyEv)
    t._ZNK5QListI10QByteArrayE8containsERKS0_ 0x00036d8c   Section       74  qmediaserviceprovider.o(t._ZNK5QListI10QByteArrayE8containsERKS0_)
    t._ZNK5QListI13QMediaContentE5countEv    0x00036dd6   Section       12  qlocalmediaplaylistprovider.o(t._ZNK5QListI13QMediaContentE5countEv)
    t._ZNK5QListI13QMediaContentE5valueEi    0x00036de2   Section       58  qlocalmediaplaylistprovider.o(t._ZNK5QListI13QMediaContentE5valueEi)
    t._ZNK5QListI13QMediaContentE7isEmptyEv  0x00036e1c   Section       24  qlocalmediaplaylistprovider.o(t._ZNK5QListI13QMediaContentE7isEmptyEv)
    t._ZNK5QListI14QMediaResourceE5valueEi   0x00036e34   Section       72  qmediacontent.o(t._ZNK5QListI14QMediaResourceE5valueEi)
    t._ZNK5QListI14QMediaResourceEeqERKS1_   0x00036e7c   Section      124  qmediacontent.o(t._ZNK5QListI14QMediaResourceEeqERKS1_)
    t._ZNK5QListI18QMediaTimeIntervalE5countEv 0x00036ef8   Section       16  qmediatimerange.o(t._ZNK5QListI18QMediaTimeIntervalE5countEv)
    t._ZNK5QListI18QMediaTimeIntervalE7isEmptyEv 0x00036f08   Section       24  qmediatimerange.o(t._ZNK5QListI18QMediaTimeIntervalE7isEmptyEv)
    t._ZNK5QListI18QMediaTimeIntervalEixEi   0x00036f20   Section       22  qmediatimerange.o(t._ZNK5QListI18QMediaTimeIntervalEixEi)
    t._ZNK5QListI7QStringE2atEi              0x00036f36   Section       22  qaudiopluginloader.o(t._ZNK5QListI7QStringE2atEi)
    t._ZNK5QListI7QStringE7isEmptyEv         0x00036f4c   Section       24  qaudiocapturesource.o(t._ZNK5QListI7QStringE7isEmptyEv)
    t._ZNK5QListI7QStringE8containsERKS0_    0x00036f64   Section       74  qaudiodeviceinfo.o(t._ZNK5QListI7QStringE8containsERKS0_)
    t._ZNK5QListI7QStringEeqERKS1_           0x00036fae   Section      108  qmediaserviceprovider.o(t._ZNK5QListI7QStringEeqERKS1_)
    t._ZNK5QListI8QVariantE2atEi             0x0003701a   Section       22  qvideosurfaceformat.o(t._ZNK5QListI8QVariantE2atEi)
    t._ZNK5QListIN11QVideoFrame11PixelFormatEE8containsERKS1_ 0x00037030   Section       66  qpaintervideosurface.o(t._ZNK5QListIN11QVideoFrame11PixelFormatEE8containsERKS1_)
    t._ZNK5QListIN12QAudioFormat10SampleTypeEE8containsERKS1_ 0x00037072   Section       66  qaudiodeviceinfo.o(t._ZNK5QListIN12QAudioFormat10SampleTypeEE8containsERKS1_)
    t._ZNK5QListIN12QAudioFormat6EndianEE8containsERKS1_ 0x000370b4   Section       66  qaudio_symbian_p.o(t._ZNK5QListIN12QAudioFormat6EndianEE8containsERKS1_)
    t._ZNK5QListIP13QPluginLoaderE2atEi      0x000370f6   Section       22  qaudiopluginloader.o(t._ZNK5QListIP13QPluginLoaderE2atEi)
    t._ZNK5QListIP13QPluginLoaderE5countEv   0x0003710c   Section       16  qaudiopluginloader.o(t._ZNK5QListIP13QPluginLoaderE5countEv)
    t._ZNK5QListIP14CMMFDataBufferE5emptyEv  0x0003711c   Section       28  qaudioinput_symbian_p.o(t._ZNK5QListIP14CMMFDataBufferE5emptyEv)
    t._ZNK5QListIiE4sizeEv                   0x00037138   Section       16  qaudiodeviceinfo_symbian_p.o(t._ZNK5QListIiE4sizeEv)
    t._ZNK5QListIiE8containsERKi             0x00037148   Section       66  qaudiodeviceinfo.o(t._ZNK5QListIiE8containsERKi)
    t._ZNK6QFlagsIN25QMediaServiceProviderHint7FeatureEEntEv 0x0003718a   Section       16  qmediaserviceprovider.o(t._ZNK6QFlagsIN25QMediaServiceProviderHint7FeatureEEntEv)
    .extab._ZN13QMediaControlD1Ev            0x0003719c   Data           0  qmediacontrol.o(.ARM.extab)
    .extab._ZN13QMediaControlC1EP7QObject    0x000371ac   Data           0  qmediacontrol.o(.ARM.extab)
    .extab._ZN19QMediaObjectPrivate9_q_notifyEv 0x000371bc   Data           0  qmediaobject.o(.ARM.extab)
    .extab._ZN12QMediaObjectD1Ev             0x000371dc   Data           0  qmediaobject.o(.ARM.extab)
    .extab._ZN12QMediaObject6unbindEP7QObject 0x000371ec   Data           0  qmediaobject.o(.ARM.extab)
    .extab._ZNK12QMediaObject8metaDataEN15QtMultimediaKit8MetaDataE 0x00037214   Data           0  qmediaobject.o(.ARM.extab)
    .extab._ZNK12QMediaObject17availableMetaDataEv 0x00037234   Data           0  qmediaobject.o(.ARM.extab)
    .extab._ZNK12QMediaObject16extendedMetaDataERK7QString 0x00037254   Data           0  qmediaobject.o(.ARM.extab)
    .extab._ZNK12QMediaObject25availableExtendedMetaDataEv 0x00037274   Data           0  qmediaobject.o(.ARM.extab)
    .extab._ZN12QMediaObjectC1EP7QObjectP13QMediaService 0x00037294   Data           0  qmediaobject.o(.ARM.extab)
    .extab._ZN12QMediaObjectC1ER19QMediaObjectPrivateP7QObjectP13QMediaService 0x000372c4   Data           0  qmediaobject.o(.ARM.extab)
    .extab._ZN5QListIN15QtMultimediaKit8MetaDataEE13detach_helperEi 0x000372e4   Data           0  qmediaobject.o(.ARM.extab)
    .extab._ZN5QHashIi15QHashDummyValueE6removeERKi 0x00037320   Data           0  qmediaobject.o(.ARM.extab)
    .extab._ZN13QMediaServiceD2Ev            0x00037334   Data           0  qmediaservice.o(.ARM.extab)
    .extab._ZN13QMediaServiceC2EP7QObject    0x00037344   Data           0  qmediaservice.o(.ARM.extab)
    .extab._ZN27QLocalMediaPlaylistProviderC1EP7QObject 0x00037354   Data           0  qlocalmediaplaylistprovider.o(.ARM.extab)
    .extab._ZN27QLocalMediaPlaylistProvider7shuffleEv 0x0003736c   Data           0  qlocalmediaplaylistprovider.o(.ARM.extab)
    .extab._ZN5QListI13QMediaContentE14node_constructEPNS1_4NodeERKS0_ 0x00037394   Data           0  qlocalmediaplaylistprovider.o(.ARM.extab)
    .extab._ZN5QListI13QMediaContentE9node_copyEPNS1_4NodeES3_S3_ 0x000373a4   Data           0  qlocalmediaplaylistprovider.o(.ARM.extab)
    .extab._ZN5QListI13QMediaContentE18detach_helper_growEii 0x000373c8   Data           0  qlocalmediaplaylistprovider.o(.ARM.extab)
    .extab._ZN5QListI13QMediaContentE6appendERKS0_ 0x000373f8   Data           0  qlocalmediaplaylistprovider.o(.ARM.extab)
    .extab._ZN5QListI13QMediaContentE13detach_helperEi 0x00037428   Data           0  qlocalmediaplaylistprovider.o(.ARM.extab)
    .extab._ZN5QListI13QMediaContentEpLERKS1_ 0x00037444   Data           0  qlocalmediaplaylistprovider.o(.ARM.extab)
    .extab._ZN5QListI13QMediaContentE6insertEiRKS0_ 0x00037460   Data           0  qlocalmediaplaylistprovider.o(.ARM.extab)
    .extab._ZN5QListI13QMediaContentE5clearEv 0x00037490   Data           0  qlocalmediaplaylistprovider.o(.ARM.extab)
    .extab._ZN34QLocalMediaPlaylistProviderPrivateD1Ev 0x000374a0   Data           0  qlocalmediaplaylistprovider.o(.ARM.extab)
    .extab._ZN17QMediaImageViewer8setMediaERK13QMediaContent 0x000374b0   Data           0  qmediaimageviewer.o(.ARM.extab)
    .extab._ZN24QMediaImageViewerPrivate20_q_playlistDestroyedEv 0x000374c8   Data           0  qmediaimageviewer.o(.ARM.extab)
    .extab._ZN24QMediaImageViewerPrivate21_q_mediaStatusChangedEN17QMediaImageViewer11MediaStatusE 0x000374d8   Data           0  qmediaimageviewer.o(.ARM.extab)
    .extab._ZN17QMediaImageViewer4stopEv     0x000374e8   Data           0  qmediaimageviewer.o(.ARM.extab)
    .extab._ZN17QMediaImageViewer5pauseEv    0x000374f8   Data           0  qmediaimageviewer.o(.ARM.extab)
    .extab._ZN17QMediaImageViewer11setPlaylistEP14QMediaPlaylist 0x00037508   Data           0  qmediaimageviewer.o(.ARM.extab)
    .extab._ZN17QMediaImageViewer11qt_metacallEN11QMetaObject4CallEiPPv 0x00037520   Data           0  qmediaimageviewer.o(.ARM.extab)
    .extab._ZN17QMediaImageViewerC1EP7QObject 0x00037530   Data           0  qmediaimageviewer.o(.ARM.extab)
    .extab._ZN17QMediaImageViewerD1Ev        0x00037558   Data           0  qmediaimageviewer.o(.ARM.extab)
    .extab._ZN17QMediaImageViewer10timerEventEP11QTimerEvent 0x00037568   Data           0  qmediaimageviewer.o(.ARM.extab)
    .extab._ZN24QMediaImageViewerPrivateD1Ev 0x00037578   Data           0  qmediaimageviewer.o(.ARM.extab)
    .extab._ZN24QMediaImageViewerPrivateC1Ev 0x00037598   Data           0  qmediaimageviewer.o(.ARM.extab)
    .extab._ZN24QMediaImageViewerControlC1EP24QMediaImageViewerService 0x000375a8   Data           0  qmediaimageviewerservice.o(.ARM.extab)
    .extab._ZN24QMediaImageViewerServiceC1EP7QObject 0x000375b8   Data           0  qmediaimageviewerservice.o(.ARM.extab)
    .extab._ZN24QMediaImageViewerServiceD1Ev 0x000375d8   Data           0  qmediaimageviewerservice.o(.ARM.extab)
    .extab._ZN25QMediaImageViewerRenderer9showImageERK6QImage 0x000375e8   Data           0  qmediaimageviewerservice.o(.ARM.extab)
    .extab._ZN25QMediaImageViewerRendererC1EP7QObject 0x00037668   Data           0  qmediaimageviewerservice.o(.ARM.extab)
    .extab._ZN24QMediaImageViewerService14requestControlEPKc 0x00037678   Data           0  qmediaimageviewerservice.o(.ARM.extab)
    .extab._ZNK24QMediaImageViewerService14networkManagerEv 0x00037688   Data           0  qmediaimageviewerservice.o(.ARM.extab)
    .extab._ZNK31QMediaImageViewerControlPrivate11isImageTypeERK4QUrlRK7QString 0x00037698   Data           0  qmediaimageviewerservice.o(.ARM.extab)
    .extab._ZN31QMediaImageViewerControlPrivate9loadImageEv 0x000376d0   Data           0  qmediaimageviewerservice.o(.ARM.extab)
    .extab._ZN31QMediaImageViewerServicePrivate4loadEP9QIODevice 0x00037748   Data           0  qmediaimageviewerservice.o(.ARM.extab)
    .extab._ZN31QMediaImageViewerControlPrivate14_q_getFinishedEv 0x00037780   Data           0  qmediaimageviewerservice.o(.ARM.extab)
    .extab._ZN31QMediaImageViewerControlPrivate15_q_headFinishedEv 0x00037790   Data           0  qmediaimageviewerservice.o(.ARM.extab)
    .extab._ZN24QMediaImageViewerControlD1Ev 0x00037800   Data           0  qmediaimageviewerservice.o(.ARM.extab)
    .extab._ZN31QMediaImageViewerServicePrivate5clearEv 0x00037810   Data           0  qmediaimageviewerservice.o(.ARM.extab)
    .extab._ZN24QMediaImageViewerControl9showMediaERK13QMediaContent 0x00037820   Data           0  qmediaimageviewerservice.o(.ARM.extab)
    .extab._ZN25QMediaImageViewerRendererD1Ev 0x00037838   Data           0  qmediaimageviewerservice.o(.ARM.extab)
    .extab._ZN5QListI7QStringE9node_copyEPNS1_4NodeES3_S3_ 0x00037850   Data           0  qmediaimageviewerservice.o(.ARM.extab)
    .extab._ZN5QListI7QStringE13detach_helperEi 0x00037874   Data           0  qmediaimageviewerservice.o(.ARM.extab)
    .extab._ZN5QListI7QStringE14node_constructEPNS1_4NodeERKS0_ 0x00037890   Data           0  qmediaimageviewerservice.o(.ARM.extab)
    .extab._ZN5QListI7QStringE18detach_helper_growEii 0x000378a0   Data           0  qmediaimageviewerservice.o(.ARM.extab)
    .extab._ZN5QListI7QStringE6appendERKS0_  0x000378d0   Data           0  qmediaimageviewerservice.o(.ARM.extab)
    .extab._ZN5QListI14QMediaResourceE5clearEv 0x00037900   Data           0  qmediaimageviewerservice.o(.ARM.extab)
    .extab._ZN31QMediaImageViewerControlPrivateC1Ev 0x00037910   Data           0  qmediaimageviewerservice.o(.ARM.extab)
    .extab._ZN31QMediaImageViewerControlPrivateD1Ev 0x00037990   Data           0  qmediaimageviewerservice.o(.ARM.extab)
    .extab._ZN31QMediaImageViewerServicePrivateD1Ev 0x000379b8   Data           0  qmediaimageviewerservice.o(.ARM.extab)
    .extab._Z13playerService6QFlagsIN12QMediaPlayer4FlagEEP21QMediaServiceProvider 0x000379c8   Data           0  qmediaplayer.o(.ARM.extab)
    .extab._ZN12QMediaPlayer8setMediaERK13QMediaContentP9QIODevice 0x00037a00   Data           0  qmediaplayer.o(.ARM.extab)
    .extab._ZN12QMediaPlayer11setPlaylistEP14QMediaPlaylist 0x00037a10   Data           0  qmediaplayer.o(.ARM.extab)
    .extab._ZN19QMediaPlayerPrivate20_q_playlistDestroyedEv 0x00037a28   Data           0  qmediaplayer.o(.ARM.extab)
    .extab._ZN19QMediaPlayerPrivate14_q_updateMediaERK13QMediaContent 0x00037a38   Data           0  qmediaplayer.o(.ARM.extab)
    .extab._ZN19QMediaPlayerPrivate21_q_mediaStatusChangedEN12QMediaPlayer11MediaStatusE 0x00037a50   Data           0  qmediaplayer.o(.ARM.extab)
    .extab._ZN19QMediaPlayerPrivate15_q_stateChangedEN12QMediaPlayer5StateE 0x00037a68   Data           0  qmediaplayer.o(.ARM.extab)
    .extab._ZN12QMediaPlayer4playEv          0x00037a80   Data           0  qmediaplayer.o(.ARM.extab)
    .extab._ZN12QMediaPlayer11qt_metacallEN11QMetaObject4CallEiPPv 0x00037a98   Data           0  qmediaplayer.o(.ARM.extab)
    .extab._ZN12QMediaPlayerC1EP7QObject6QFlagsINS_4FlagEEP21QMediaServiceProvider 0x00037ab0   Data           0  qmediaplayer.o(.ARM.extab)
    .extab._ZN12QMediaPlayerD1Ev             0x00037ad8   Data           0  qmediaplayer.o(.ARM.extab)
    .extab._ZN12QMediaPlayer10hasSupportERK7QStringRK11QStringList6QFlagsINS_4FlagEE 0x00037ae8   Data           0  qmediaplayer.o(.ARM.extab)
    .extab._ZN12QMediaPlayer18supportedMimeTypesE6QFlagsINS_4FlagEE 0x00037af8   Data           0  qmediaplayer.o(.ARM.extab)
    .extab._ZN19QMediaPlayerPrivateD1Ev      0x00037b08   Data           0  qmediaplayer.o(.ARM.extab)
    .extab._ZN19QMediaPlayerPrivateC1Ev      0x00037b20   Data           0  qmediaplayer.o(.ARM.extab)
    .extab._ZN19QMediaPlayerControlC2EP7QObject 0x00037b30   Data           0  qmediaplayercontrol.o(.ARM.extab)
    .extab._Z16playlistIOLoaderv             0x00037b40   Data           0  qmediaplaylist.o(.ARM.extab)
    .extab._ZN14QMediaPlaylist11qt_metacallEN11QMetaObject4CallEiPPv 0x00037b68   Data           0  qmediaplaylist.o(.ARM.extab)
    .extab._ZN14QMediaPlaylistC1EP7QObject   0x00037b78   Data           0  qmediaplaylist.o(.ARM.extab)
    .extab._ZN14QMediaPlaylistD1Ev           0x00037ba8   Data           0  qmediaplaylist.o(.ARM.extab)
    .extab._ZN21QMediaPlaylistPrivate9readItemsEP20QMediaPlaylistReader 0x00037bc0   Data           0  qmediaplaylist.o(.ARM.extab)
    .extab._ZN14QMediaPlaylist4loadERK4QUrlPKc 0x00037bd0   Data           0  qmediaplaylist.o(.ARM.extab)
    .extab._ZN14QMediaPlaylist4loadEP9QIODevicePKc 0x00037c20   Data           0  qmediaplaylist.o(.ARM.extab)
    .extab._ZN21QMediaPlaylistPrivate10writeItemsEP20QMediaPlaylistWriter 0x00037c70   Data           0  qmediaplaylist.o(.ARM.extab)
    .extab._ZN14QMediaPlaylist4saveEP9QIODevicePKc 0x00037c80   Data           0  qmediaplaylist.o(.ARM.extab)
    .extab._ZN14QMediaPlaylist4saveERK4QUrlPKc 0x00037cc8   Data           0  qmediaplaylist.o(.ARM.extab)
    .extab._ZN18QMediaPluginLoaderD1Ev       0x00037cf8   Data           0  qmediaplaylist.o(.ARM.extab)
    .extab._ZN7QString5clearEv               0x00037d10   Data           0  qmediaplaylist.o(.ARM.extab)
    .extab._ZN26QLocalMediaPlaylistControlC1EP7QObject 0x00037d20   Data           0  qmediaplaylist.o(.ARM.extab)
    .extab._Z20_q_nullMediaPlaylistv         0x00037d50   Data           0  qmediaplaylistnavigator.o(.ARM.extab)
    .extab._ZN23QMediaPlaylistNavigator4jumpEi 0x00037d68   Data           0  qmediaplaylistnavigator.o(.ARM.extab)
    .extab._ZN30QMediaPlaylistNavigatorPrivate15_q_mediaChangedEii 0x00037da0   Data           0  qmediaplaylistnavigator.o(.ARM.extab)
    .extab._ZNK30QMediaPlaylistNavigatorPrivate15previousItemPosEi 0x00037db0   Data           0  qmediaplaylistnavigator.o(.ARM.extab)
    .extab._ZN23QMediaPlaylistNavigator11qt_metacallEN11QMetaObject4CallEiPPv 0x00037dcc   Data           0  qmediaplaylistnavigator.o(.ARM.extab)
    .extab._ZN23QMediaPlaylistNavigator11setPlaylistEP22QMediaPlaylistProvider 0x00037ddc   Data           0  qmediaplaylistnavigator.o(.ARM.extab)
    .extab._ZN23QMediaPlaylistNavigatorC1EP22QMediaPlaylistProviderP7QObject 0x00037dec   Data           0  qmediaplaylistnavigator.o(.ARM.extab)
    .extab._ZN23QMediaPlaylistNavigatorD1Ev  0x00037e14   Data           0  qmediaplaylistnavigator.o(.ARM.extab)
    .extab._ZN5QListIiE18detach_helper_growEii 0x00037e2c   Data           0  qmediaplaylistnavigator.o(.ARM.extab)
    .extab._ZN5QListIiE6appendERKi           0x00037e5c   Data           0  qmediaplaylistnavigator.o(.ARM.extab)
    .extab._ZN5QListIiE13detach_helperEi     0x00037e78   Data           0  qmediaplaylistnavigator.o(.ARM.extab)
    .extab._ZN5QListIiE5clearEv              0x00037e94   Data           0  qmediaplaylistnavigator.o(.ARM.extab)
    .extab._ZN22QMediaPlaylistProviderC2EP7QObject 0x00037ea4   Data           0  qmediaplaylistprovider.o(.ARM.extab)
    .extab._ZN22QMediaPlaylistProviderD2Ev   0x00037eb4   Data           0  qmediaplaylistprovider.o(.ARM.extab)
    .extab._ZN22QMediaPlaylistProvider8addMediaERK5QListI13QMediaContentE 0x00037ec4   Data           0  qmediaplaylistprovider.o(.ARM.extab)
    .extab._ZNK14QMediaRecorder14outputLocationEv 0x00037edc   Data           0  qmediarecorder.o(.ARM.extab)
    .extab._ZN14QMediaRecorder6recordEv      0x00037efc   Data           0  qmediarecorder.o(.ARM.extab)
    .extab._ZN14QMediaRecorder11qt_metacallEN11QMetaObject4CallEiPPv 0x00037f0c   Data           0  qmediarecorder.o(.ARM.extab)
    .extab._ZN14QMediaRecorderC1EP12QMediaObjectP7QObject 0x00037f1c   Data           0  qmediarecorder.o(.ARM.extab)
    .extab._ZN14QMediaRecorderD1Ev           0x00037f4c   Data           0  qmediarecorder.o(.ARM.extab)
    .extab._ZNK14QMediaRecorder19supportedContainersEv 0x00037f5c   Data           0  qmediarecorder.o(.ARM.extab)
    .extab._ZNK14QMediaRecorder20containerDescriptionERK7QString 0x00037f7c   Data           0  qmediarecorder.o(.ARM.extab)
    .extab._ZNK14QMediaRecorder20supportedAudioCodecsEv 0x00037f9c   Data           0  qmediarecorder.o(.ARM.extab)
    .extab._ZNK14QMediaRecorder21audioCodecDescriptionERK7QString 0x00037fbc   Data           0  qmediarecorder.o(.ARM.extab)
    .extab._ZNK14QMediaRecorder25supportedAudioSampleRatesERK21QAudioEncoderSettingsPb 0x00037fdc   Data           0  qmediarecorder.o(.ARM.extab)
    .extab._ZNK14QMediaRecorder20supportedVideoCodecsEv 0x00037ffc   Data           0  qmediarecorder.o(.ARM.extab)
    .extab._ZNK14QMediaRecorder21videoCodecDescriptionERK7QString 0x0003801c   Data           0  qmediarecorder.o(.ARM.extab)
    .extab._ZNK14QMediaRecorder20supportedResolutionsERK21QVideoEncoderSettingsPb 0x0003803c   Data           0  qmediarecorder.o(.ARM.extab)
    .extab._ZNK14QMediaRecorder19supportedFrameRatesERK21QVideoEncoderSettingsPb 0x0003805c   Data           0  qmediarecorder.o(.ARM.extab)
    .extab._ZNK14QMediaRecorder13audioSettingsEv 0x0003807c   Data           0  qmediarecorder.o(.ARM.extab)
    .extab._ZNK14QMediaRecorder13videoSettingsEv 0x0003809c   Data           0  qmediarecorder.o(.ARM.extab)
    .extab._ZNK14QMediaRecorder17containerMimeTypeEv 0x000380bc   Data           0  qmediarecorder.o(.ARM.extab)
    .extab._ZNK14QMediaRecorder8metaDataEN15QtMultimediaKit8MetaDataE 0x000380dc   Data           0  qmediarecorder.o(.ARM.extab)
    .extab._ZNK14QMediaRecorder17availableMetaDataEv 0x000380fc   Data           0  qmediarecorder.o(.ARM.extab)
    .extab._ZNK14QMediaRecorder16extendedMetaDataERK7QString 0x0003811c   Data           0  qmediarecorder.o(.ARM.extab)
    .extab._ZNK14QMediaRecorder25availableExtendedMetaDataEv 0x0003813c   Data           0  qmediarecorder.o(.ARM.extab)
    .extab._ZN5QListI5QSizeE13detach_helperEi 0x0003815c   Data           0  qmediarecorder.o(.ARM.extab)
    .extab._ZN5QListIfE13detach_helperEi     0x00038198   Data           0  qmediarecorder.o(.ARM.extab)
    .extab._ZN21QAudioEncoderSettingsC1Ev    0x000381b4   Data           0  qmediaencodersettings.o(.ARM.extab)
    .extab._ZN21QVideoEncoderSettingsC1Ev    0x000381c4   Data           0  qmediaencodersettings.o(.ARM.extab)
    .extab._ZN21QImageEncoderSettingsC1Ev    0x000381d4   Data           0  qmediaencodersettings.o(.ARM.extab)
    .extab._ZN18QSharedDataPointerI28QAudioEncoderSettingsPrivateE13detach_helperEv 0x000381e4   Data           0  qmediaencodersettings.o(.ARM.extab)
    .extab._ZN18QSharedDataPointerI28QVideoEncoderSettingsPrivateE13detach_helperEv 0x000381f4   Data           0  qmediaencodersettings.o(.ARM.extab)
    .extab._ZN18QSharedDataPointerI28QImageEncoderSettingsPrivateE13detach_helperEv 0x00038204   Data           0  qmediaencodersettings.o(.ARM.extab)
    .extab._ZN13QMediaContentC1ERK4QUrl      0x00038214   Data           0  qmediacontent.o(.ARM.extab)
    .extab._ZN13QMediaContentC1ERK15QNetworkRequest 0x0003823c   Data           0  qmediacontent.o(.ARM.extab)
    .extab._ZN13QMediaContentC1ERK14QMediaResource 0x00038264   Data           0  qmediacontent.o(.ARM.extab)
    .extab._ZN13QMediaContentC1ERK5QListI14QMediaResourceE 0x00038274   Data           0  qmediacontent.o(.ARM.extab)
    .extab._ZNK13QMediaContent17canonicalResourceEv 0x00038284   Data           0  qmediacontent.o(.ARM.extab)
    .extab._ZNK13QMediaContent12canonicalUrlEv 0x000382a4   Data           0  qmediacontent.o(.ARM.extab)
    .extab._ZNK13QMediaContent16canonicalRequestEv 0x000382b4   Data           0  qmediacontent.o(.ARM.extab)
    .extab._ZNK13QMediaContent9resourcesEv   0x000382c4   Data           0  qmediacontent.o(.ARM.extab)
    .extab._ZN5QListI14QMediaResourceE9node_copyEPNS1_4NodeES3_S3_ 0x000382d4   Data           0  qmediacontent.o(.ARM.extab)
    .extab._ZN5QListI14QMediaResourceE13detach_helperEi 0x000382f8   Data           0  qmediacontent.o(.ARM.extab)
    .extab._ZN5QListI14QMediaResourceE14node_constructEPNS1_4NodeERKS0_ 0x00038314   Data           0  qmediacontent.o(.ARM.extab)
    .extab._ZN5QListI14QMediaResourceE18detach_helper_growEii 0x00038324   Data           0  qmediacontent.o(.ARM.extab)
    .extab._ZN5QListI14QMediaResourceE6appendERKS0_ 0x00038354   Data           0  qmediacontent.o(.ARM.extab)
    .extab._ZN18QSharedDataPointerI20QMediaContentPrivateE13detach_helperEv 0x00038384   Data           0  qmediacontent.o(.ARM.extab)
    .extab._ZN14QMediaResourceC1ERK4QUrlRK7QString 0x00038394   Data           0  qmediaresource.o(.ARM.extab)
    .extab._ZN14QMediaResourceC1ERK15QNetworkRequestRK7QString 0x000383c4   Data           0  qmediaresource.o(.ARM.extab)
    .extab._ZNK14QMediaResource3urlEv        0x00038414   Data           0  qmediaresource.o(.ARM.extab)
    .extab._ZNK14QMediaResource7requestEv    0x0003842c   Data           0  qmediaresource.o(.ARM.extab)
    .extab._ZNK14QMediaResourceeqERKS_       0x00038444   Data           0  qmediaresource.o(.ARM.extab)
    .extab._ZNK14QMediaResource8mimeTypeEv   0x000384ac   Data           0  qmediaresource.o(.ARM.extab)
    .extab._ZNK14QMediaResource8languageEv   0x000384bc   Data           0  qmediaresource.o(.ARM.extab)
    .extab._ZN14QMediaResource11setLanguageERK7QString 0x000384cc   Data           0  qmediaresource.o(.ARM.extab)
    .extab._ZNK14QMediaResource10audioCodecEv 0x000384dc   Data           0  qmediaresource.o(.ARM.extab)
    .extab._ZN14QMediaResource13setAudioCodecERK7QString 0x000384ec   Data           0  qmediaresource.o(.ARM.extab)
    .extab._ZNK14QMediaResource10videoCodecEv 0x000384fc   Data           0  qmediaresource.o(.ARM.extab)
    .extab._ZN14QMediaResource13setVideoCodecERK7QString 0x0003850c   Data           0  qmediaresource.o(.ARM.extab)
    .extab._ZNK14QMediaResource8dataSizeEv   0x0003851c   Data           0  qmediaresource.o(.ARM.extab)
    .extab._ZN14QMediaResource11setDataSizeEx 0x0003852c   Data           0  qmediaresource.o(.ARM.extab)
    .extab._ZNK14QMediaResource12audioBitRateEv 0x0003853c   Data           0  qmediaresource.o(.ARM.extab)
    .extab._ZN14QMediaResource15setAudioBitRateEi 0x0003854c   Data           0  qmediaresource.o(.ARM.extab)
    .extab._ZNK14QMediaResource10sampleRateEv 0x0003855c   Data           0  qmediaresource.o(.ARM.extab)
    .extab._ZN14QMediaResource13setSampleRateEi 0x0003856c   Data           0  qmediaresource.o(.ARM.extab)
    .extab._ZNK14QMediaResource12channelCountEv 0x0003857c   Data           0  qmediaresource.o(.ARM.extab)
    .extab._ZN14QMediaResource15setChannelCountEi 0x0003858c   Data           0  qmediaresource.o(.ARM.extab)
    .extab._ZNK14QMediaResource12videoBitRateEv 0x0003859c   Data           0  qmediaresource.o(.ARM.extab)
    .extab._ZN14QMediaResource15setVideoBitRateEi 0x000385ac   Data           0  qmediaresource.o(.ARM.extab)
    .extab._ZNK14QMediaResource10resolutionEv 0x000385bc   Data           0  qmediaresource.o(.ARM.extab)
    .extab._ZN14QMediaResource13setResolutionERK5QSize 0x000385cc   Data           0  qmediaresource.o(.ARM.extab)
    .extab._ZN14QMediaResource13setResolutionEii 0x000385dc   Data           0  qmediaresource.o(.ARM.extab)
    .extab._Z24qMetaTypeConstructHelperI15QNetworkRequestEPvPKT_ 0x000385ec   Data           0  qmediaresource.o(.ARM.extab)
    .extab._Z13qvariant_castI7QStringET_RK8QVariant 0x00038614   Data           0  qmediaresource.o(.ARM.extab)
    .extab._ZN4QMapIi8QVariantE11node_createEP8QMapDataPPNS2_4NodeERKiRKS0_ 0x00038624   Data           0  qmediaresource.o(.ARM.extab)
    .extab._ZN4QMapIi8QVariantE13detach_helperEv 0x0003865c   Data           0  qmediaresource.o(.ARM.extab)
    .extab._ZNK4QMapIi8QVariantE4keysEv      0x00038678   Data           0  qmediaresource.o(.ARM.extab)
    .extab._Z13qvariant_castI15QNetworkRequestET_RK8QVariant 0x00038688   Data           0  qmediaresource.o(.ARM.extab)
    .extab._Z6loaderv                        0x000386a8   Data           0  qmediaserviceprovider.o(.ARM.extab)
    .extab._Z14pluginProviderv               0x000386d0   Data           0  qmediaserviceprovider.o(.ARM.extab)
    .extab._ZN25QMediaServiceProviderHintC1Ev 0x000386f0   Data           0  qmediaserviceprovider.o(.ARM.extab)
    .extab._ZN25QMediaServiceProviderHintC1ERK7QStringRK11QStringList 0x00038700   Data           0  qmediaserviceprovider.o(.ARM.extab)
    .extab._ZN25QMediaServiceProviderHintC1ERK10QByteArray 0x00038710   Data           0  qmediaserviceprovider.o(.ARM.extab)
    .extab._ZN25QMediaServiceProviderHintC1E6QFlagsINS_7FeatureEE 0x00038720   Data           0  qmediaserviceprovider.o(.ARM.extab)
    .extab._Z20qForeachContainerNewI5QListIP7QObjectEE17QForeachContainerIT_ERKS5_ 0x00038730   Data           0  qmediaserviceprovider.o(.ARM.extab)
    .extab._ZN5QListIP27QMediaServiceProviderPluginE13detach_helperEi 0x00038740   Data           0  qmediaserviceprovider.o(.ARM.extab)
    .extab._Z20qForeachContainerNewI5QListIP27QMediaServiceProviderPluginEE17QForeachContainerIT_ERKS5_ 0x0003875c   Data           0  qmediaserviceprovider.o(.ARM.extab)
    .extab._ZN5QListI7QStringEpLERKS1_       0x0003876c   Data           0  qmediaserviceprovider.o(.ARM.extab)
    .extab._ZN32QMediaServiceProviderHintPrivateD1Ev 0x00038788   Data           0  qmediaserviceprovider.o(.ARM.extab)
    .extab._ZN32QMediaServiceProviderHintPrivateC1EN25QMediaServiceProviderHint4TypeE 0x000387a0   Data           0  qmediaserviceprovider.o(.ARM.extab)
    .extab._ZN18QSharedDataPointerI32QMediaServiceProviderHintPrivateE13detach_helperEv 0x000387b8   Data           0  qmediaserviceprovider.o(.ARM.extab)
    .extab._ZN4QMapIP13QMediaServiceP27QMediaServiceProviderPluginE13detach_helperEv 0x000387d8   Data           0  qmediaserviceprovider.o(.ARM.extab)
    .extab._ZN5QListIP27QMediaServiceProviderPluginE18detach_helper_growEii 0x000387f4   Data           0  qmediaserviceprovider.o(.ARM.extab)
    .extab._ZN5QListIP27QMediaServiceProviderPluginE6appendERKS1_ 0x00038824   Data           0  qmediaserviceprovider.o(.ARM.extab)
    .extab._ZN5QListI10QByteArrayE9node_copyEPNS1_4NodeES3_S3_ 0x00038840   Data           0  qmediaserviceprovider.o(.ARM.extab)
    .extab._ZN5QListI10QByteArrayE18detach_helper_growEii 0x00038864   Data           0  qmediaserviceprovider.o(.ARM.extab)
    .extab._ZN5QListI10QByteArrayE13detach_helperEi 0x00038894   Data           0  qmediaserviceprovider.o(.ARM.extab)
    .extab._ZN22QPluginServiceProvider14requestServiceERK10QByteArrayRK25QMediaServiceProviderHint 0x000388b0   Data           0  qmediaserviceprovider.o(.ARM.extab)
    .extab._ZNK22QPluginServiceProvider10hasSupportERK10QByteArrayRK7QStringRK11QStringListi 0x000389b8   Data           0  qmediaserviceprovider.o(.ARM.extab)
    .extab._ZNK22QPluginServiceProvider18supportedMimeTypesERK10QByteArrayi 0x000389e8   Data           0  qmediaserviceprovider.o(.ARM.extab)
    .extab._ZNK22QPluginServiceProvider7devicesERK10QByteArray 0x00038a28   Data           0  qmediaserviceprovider.o(.ARM.extab)
    .extab._ZN22QPluginServiceProvider17deviceDescriptionERK10QByteArrayS2_ 0x00038a78   Data           0  qmediaserviceprovider.o(.ARM.extab)
    .extab._ZN22QPluginServiceProviderD1Ev   0x00038ab8   Data           0  qmediaserviceprovider.o(.ARM.extab)
    .extab._ZN22QMetaDataReaderControlC2EP7QObject 0x00038ac8   Data           0  qmetadatareadercontrol.o(.ARM.extab)
    .extab._ZN22QMetaDataWriterControlC2EP7QObject 0x00038ad8   Data           0  qmetadatawritercontrol.o(.ARM.extab)
    .extab._ZN20QMediaStreamsControlC2EP7QObject 0x00038ae8   Data           0  qmediastreamscontrol.o(.ARM.extab)
    .extab._ZN11QRadioTunerC1EP7QObjectP21QMediaServiceProvider 0x00038af8   Data           0  qradiotuner.o(.ARM.extab)
    .extab._ZN11QRadioTunerD1Ev              0x00038b28   Data           0  qradiotuner.o(.ARM.extab)
    .extab._ZN18QRadioTunerControlC2EP7QObject 0x00038b38   Data           0  qradiotunercontrol.o(.ARM.extab)
    .extab._ZN12QVideoWidgetC1EP7QWidget     0x00038b48   Data           0  qvideowidget.o(.ARM.extab)
    .extab._ZN12QVideoWidgetD1Ev             0x00038b60   Data           0  qvideowidget.o(.ARM.extab)
    .extab._ZN27QRendererVideoWidgetBackendC1EP13QMediaServiceP21QVideoRendererControlP7QWidget 0x00038b78   Data           0  qvideowidget.o(.ARM.extab)
    .extab._ZN19QVideoWidgetPrivate21createRendererBackendEv 0x00038b98   Data           0  qvideowidget.o(.ARM.extab)
    .extab._ZN12QVideoWidget10paintEventEP11QPaintEvent 0x00038ba8   Data           0  qvideowidget.o(.ARM.extab)
    .extab._ZN25QWindowVideoWidgetBackendC1EP13QMediaServiceP19QVideoWindowControlP7QWidget 0x00038bb8   Data           0  qvideowidget.o(.ARM.extab)
    .extab._ZN19QVideoWidgetPrivate19createWindowBackendEv 0x00038bc8   Data           0  qvideowidget.o(.ARM.extab)
    .extab._ZN26QVideoWidgetControlBackendC1EP13QMediaServiceP19QVideoWidgetControlP7QWidget 0x00038bd8   Data           0  qvideowidget.o(.ARM.extab)
    .extab._ZN19QVideoWidgetPrivate19createWidgetBackendEv 0x00038bf8   Data           0  qvideowidget.o(.ARM.extab)
    .extab._ZN12QVideoWidgetC1ER19QVideoWidgetPrivateP7QWidget 0x00038c08   Data           0  qvideowidget.o(.ARM.extab)
    .extab._ZN27QRendererVideoWidgetBackendD1Ev 0x00038c30   Data           0  qvideowidget.o(.ARM.extab)
    .extab._ZNK27QRendererVideoWidgetBackend8sizeHintEv 0x00038c40   Data           0  qvideowidget.o(.ARM.extab)
    .extab._ZN27QRendererVideoWidgetBackend10paintEventEP11QPaintEvent 0x00038c50   Data           0  qvideowidget.o(.ARM.extab)
    .extab._ZN25QWindowVideoWidgetBackend10paintEventEP11QPaintEvent 0x00038cb0   Data           0  qvideowidget.o(.ARM.extab)
    .extab._ZN7QVectorI5QRectE7reallocEii    0x00038cc0   Data           0  qvideowidget.o(.ARM.extab)
    .extab._ZN19QAudioCaptureSourceC1EP7QObjectP21QMediaServiceProvider 0x00038cf8   Data           0  qaudiocapturesource.o(.ARM.extab)
    .extab._ZN19QAudioCaptureSourceD1Ev      0x00038d28   Data           0  qaudiocapturesource.o(.ARM.extab)
    .extab._ZNK19QAudioCaptureSource11audioInputsEv 0x00038d38   Data           0  qaudiocapturesource.o(.ARM.extab)
    .extab._ZN21QMediaPlaylistControlC2EP7QObject 0x00038d58   Data           0  qmediaplaylistcontrol.o(.ARM.extab)
    .extab._ZN27QMediaPlaylistSourceControlC2EP7QObject 0x00038d68   Data           0  qmediaplaylistsourcecontrol.o(.ARM.extab)
    .extab._Z18staticMediaPluginsv           0x00038d78   Data           0  qmediapluginloader.o(.ARM.extab)
    .extab._ZN10DirChecker8checkDirERK4QDir  0x00038d90   Data           0  qmediapluginloader.o(.ARM.extab)
    .extab._ZNK18QMediaPluginLoader16availablePluginsEv 0x00038da8   Data           0  qmediapluginloader.o(.ARM.extab)
    .extab._ZN18QMediaPluginLoader4loadEv    0x00038e48   Data           0  qmediapluginloader.o(.ARM.extab)
    .extab._ZN18QMediaPluginLoaderC1EPKcRK7QStringN2Qt15CaseSensitivityE 0x00038ed8   Data           0  qmediapluginloader.o(.ARM.extab)
    .extab._ZNK18QMediaPluginLoader4keysEv   0x00038f18   Data           0  qmediapluginloader.o(.ARM.extab)
    .extab._ZN18QMediaPluginLoader16setStaticPluginsERK7QStringRK5QListIP7QObjectE 0x00038f28   Data           0  qmediapluginloader.o(.ARM.extab)
    .extab._Z20qForeachContainerNewI11QStringListE17QForeachContainerIT_ERKS2_ 0x00038f48   Data           0  qmediapluginloader.o(.ARM.extab)
    .extab._ZN5QListIP7QObjectE13detach_helperEi 0x00038f58   Data           0  qmediapluginloader.o(.ARM.extab)
    .extab._ZN5QListIP7QObjectE18detach_helper_growEii 0x00038f74   Data           0  qmediapluginloader.o(.ARM.extab)
    .extab._ZN5QListIP7QObjectE6appendERKS1_ 0x00038fa4   Data           0  qmediapluginloader.o(.ARM.extab)
    .extab._ZN4QMapI7QStringP7QObjectE11node_createEP8QMapDataPPNS4_4NodeERKS0_RKS2_ 0x00038fc0   Data           0  qmediapluginloader.o(.ARM.extab)
    .extab._ZN4QMapI7QStringP7QObjectE13detach_helperEv 0x00038fe4   Data           0  qmediapluginloader.o(.ARM.extab)
    .extab._ZNK4QMapI7QStringP7QObjectE4keysEv 0x00039000   Data           0  qmediapluginloader.o(.ARM.extab)
    .extab._ZNK4QMapI7QStringP7QObjectE6valuesERKS0_ 0x00039010   Data           0  qmediapluginloader.o(.ARM.extab)
    .extab._ZN4QMapI7QString5QListIP7QObjectEE11node_createEP8QMapDataPPNS6_4NodeERKS0_RKS4_ 0x00039020   Data           0  qmediapluginloader.o(.ARM.extab)
    .extab._ZN4QMapI7QString5QListIP7QObjectEE13detach_helperEv 0x0003906c   Data           0  qmediapluginloader.o(.ARM.extab)
    .extab._ZN20QPainterVideoSurfaceD1Ev     0x00039088   Data           0  qpaintervideosurface.o(.ARM.extab)
    .extab._ZN27QVideoSurfaceGenericPainterC1Ev 0x00039098   Data           0  qpaintervideosurface.o(.ARM.extab)
    .extab._ZN20QPainterVideoSurface13createPainterEv 0x000390b8   Data           0  qpaintervideosurface.o(.ARM.extab)
    .extab._ZN20QPainterVideoSurface5paintEP8QPainterRK6QRectFS4_ 0x000390c8   Data           0  qpaintervideosurface.o(.ARM.extab)
    .extab._ZN27QVideoSurfaceGenericPainter5startERK19QVideoSurfaceFormat 0x000390d8   Data           0  qpaintervideosurface.o(.ARM.extab)
    .extab._ZN27QVideoSurfaceGenericPainter4stopEv 0x000390e8   Data           0  qpaintervideosurface.o(.ARM.extab)
    .extab._ZN27QVideoSurfaceGenericPainter5paintERK6QRectFP8QPainterS2_ 0x000390f8   Data           0  qpaintervideosurface.o(.ARM.extab)
    .extab._ZN5QListIN11QVideoFrame11PixelFormatEE9node_copyEPNS2_4NodeES4_S4_ 0x00039128   Data           0  qpaintervideosurface.o(.ARM.extab)
    .extab._ZN5QListIN11QVideoFrame11PixelFormatEE18detach_helper_growEii 0x00039144   Data           0  qpaintervideosurface.o(.ARM.extab)
    .extab._ZN5QListIN11QVideoFrame11PixelFormatEE6appendERKS1_ 0x00039174   Data           0  qpaintervideosurface.o(.ARM.extab)
    .extab._ZN5QListIN11QVideoFrame11PixelFormatEE13detach_helperEi 0x000391a4   Data           0  qpaintervideosurface.o(.ARM.extab)
    .extab._ZN27QVideoSurfaceGenericPainterD1Ev 0x000391c0   Data           0  qpaintervideosurface.o(.ARM.extab)
    .extab._ZeqRK15QMediaTimeRangeS1_        0x000391d8   Data           0  qmediatimerange.o(.ARM.extab)
    .extab._ZN22QMediaTimeRangePrivate11addIntervalERK18QMediaTimeInterval 0x00039218   Data           0  qmediatimerange.o(.ARM.extab)
    .extab._ZN15QMediaTimeRange12addTimeRangeERKS_ 0x00039248   Data           0  qmediatimerange.o(.ARM.extab)
    .extab._ZplRK15QMediaTimeRangeS1_        0x00039260   Data           0  qmediatimerange.o(.ARM.extab)
    .extab._ZN15QMediaTimeRange15removeTimeRangeERKS_ 0x00039270   Data           0  qmediatimerange.o(.ARM.extab)
    .extab._ZmiRK15QMediaTimeRangeS1_        0x00039288   Data           0  qmediatimerange.o(.ARM.extab)
    .extab._ZN15QMediaTimeRangeC1Ev          0x00039298   Data           0  qmediatimerange.o(.ARM.extab)
    .extab._ZN22QMediaTimeRangePrivateC1ERK18QMediaTimeInterval 0x000392a8   Data           0  qmediatimerange.o(.ARM.extab)
    .extab._ZN15QMediaTimeRangeC1Exx         0x000392b8   Data           0  qmediatimerange.o(.ARM.extab)
    .extab._ZN15QMediaTimeRangeC1ERK18QMediaTimeInterval 0x000392c8   Data           0  qmediatimerange.o(.ARM.extab)
    .extab._ZN15QMediaTimeRangeaSERK18QMediaTimeInterval 0x000392d8   Data           0  qmediatimerange.o(.ARM.extab)
    .extab._ZN5QListI18QMediaTimeIntervalE9node_copyEPNS1_4NodeES3_S3_ 0x000392e8   Data           0  qmediatimerange.o(.ARM.extab)
    .extab._ZN5QListI18QMediaTimeIntervalE13detach_helperEi 0x0003930c   Data           0  qmediatimerange.o(.ARM.extab)
    .extab._Z20qForeachContainerNewI5QListI18QMediaTimeIntervalEE17QForeachContainerIT_ERKS4_ 0x00039328   Data           0  qmediatimerange.o(.ARM.extab)
    .extab._ZN18QSharedDataPointerI22QMediaTimeRangePrivateE13detach_helperEv 0x00039338   Data           0  qmediatimerange.o(.ARM.extab)
    .extab._ZN5QListI18QMediaTimeIntervalE14node_constructEPNS1_4NodeERKS0_ 0x00039348   Data           0  qmediatimerange.o(.ARM.extab)
    .extab._ZN5QListI18QMediaTimeIntervalE18detach_helper_growEii 0x00039358   Data           0  qmediatimerange.o(.ARM.extab)
    .extab._ZN5QListI18QMediaTimeIntervalE6appendERKS0_ 0x00039388   Data           0  qmediatimerange.o(.ARM.extab)
    .extab._ZN5QListI18QMediaTimeIntervalE5clearEv 0x000393b8   Data           0  qmediatimerange.o(.ARM.extab)
    .extab._ZN14QCameraPrivate14_q_updateStateEN7QCamera5StateE 0x000393c8   Data           0  qcamera.o(.ARM.extab)
    .extab._ZN14QCameraPrivate16updateLockStatusEv 0x000393d8   Data           0  qcamera.o(.ARM.extab)
    .extab._ZN14QCameraPrivate8_q_errorEiRK7QString 0x00039410   Data           0  qcamera.o(.ARM.extab)
    .extab._ZN14QCameraPrivate8setStateEN7QCamera5StateE 0x00039420   Data           0  qcamera.o(.ARM.extab)
    .extab._ZN14QCameraPrivate12initControlsEv 0x00039438   Data           0  qcamera.o(.ARM.extab)
    .extab._ZN7QCameraC1EP7QObjectP21QMediaServiceProvider 0x00039448   Data           0  qcamera.o(.ARM.extab)
    .extab._ZN7QCameraC1ERK10QByteArrayP7QObject 0x000394a0   Data           0  qcamera.o(.ARM.extab)
    .extab._ZN7QCameraD1Ev                   0x00039518   Data           0  qcamera.o(.ARM.extab)
    .extab._ZN7QCamera16availableDevicesEv   0x00039528   Data           0  qcamera.o(.ARM.extab)
    .extab._ZN7QCamera17deviceDescriptionERK10QByteArray 0x00039538   Data           0  qcamera.o(.ARM.extab)
    .extab._ZN6QDebugC1E9QtMsgType           0x00039548   Data           0  qcamera.o(.ARM.extab)
    .extab._ZN5QListIN7QCamera10LockStatusEE9node_copyEPNS2_4NodeES4_S4_ 0x00039560   Data           0  qcamera.o(.ARM.extab)
    .extab._ZN5QListIN7QCamera10LockStatusEE13detach_helperEi 0x0003957c   Data           0  qcamera.o(.ARM.extab)
    .extab._ZN6QDebuglsEPKc                  0x00039598   Data           0  qcamera.o(.ARM.extab)
    .extab._ZN5QListIN7QCamera10LockStatusEE18detach_helper_growEii 0x000395a8   Data           0  qcamera.o(.ARM.extab)
    .extab._ZN5QListIN7QCamera10LockStatusEE6appendERKS1_ 0x000395d8   Data           0  qcamera.o(.ARM.extab)
    .extab._ZN4QMapIN7QCamera10LockStatusEiE13detach_helperEv 0x00039608   Data           0  qcamera.o(.ARM.extab)
    .extab._ZN14QCameraPrivateC1Ev           0x00039624   Data           0  qcamera.o(.ARM.extab)
    .extab._ZN14QCameraPrivateD1Ev           0x00039634   Data           0  qcamera.o(.ARM.extab)
    .extab._ZN17QCameraViewfinderC1EP7QWidget 0x00039644   Data           0  qcameraviewfinder.o(.ARM.extab)
    .extab._ZN15QCameraExposure23setExposureCompensationEf 0x00039654   Data           0  qcameraexposure.o(.ARM.extab)
    .extab._ZNK15QCameraExposure20exposureCompensationEv 0x00039664   Data           0  qcameraexposure.o(.ARM.extab)
    .extab._ZNK15QCameraExposure14isoSensitivityEv 0x00039674   Data           0  qcameraexposure.o(.ARM.extab)
    .extab._ZNK15QCameraExposure12shutterSpeedEv 0x00039684   Data           0  qcameraexposure.o(.ARM.extab)
    .extab._ZNK15QCameraExposure8apertureEv  0x00039694   Data           0  qcameraexposure.o(.ARM.extab)
    .extab._ZN15QCameraExposure19setAutoShutterSpeedEv 0x000396a4   Data           0  qcameraexposure.o(.ARM.extab)
    .extab._ZN15QCameraExposure21setManualShutterSpeedEf 0x000396b4   Data           0  qcameraexposure.o(.ARM.extab)
    .extab._ZN15QCameraExposure15setAutoApertureEv 0x000396c4   Data           0  qcameraexposure.o(.ARM.extab)
    .extab._ZN15QCameraExposure17setManualApertureEf 0x000396d4   Data           0  qcameraexposure.o(.ARM.extab)
    .extab._ZN15QCameraExposure21setAutoIsoSensitivityEv 0x000396e4   Data           0  qcameraexposure.o(.ARM.extab)
    .extab._ZN15QCameraExposure23setManualIsoSensitivityEi 0x000396f4   Data           0  qcameraexposure.o(.ARM.extab)
    .extab._ZNK15QCameraExposure25supportedIsoSensitivitiesEPb 0x00039704   Data           0  qcameraexposure.o(.ARM.extab)
    .extab._ZNK15QCameraExposure18supportedAperturesEPb 0x00039744   Data           0  qcameraexposure.o(.ARM.extab)
    .extab._ZNK15QCameraExposure22supportedShutterSpeedsEPb 0x00039784   Data           0  qcameraexposure.o(.ARM.extab)
    .extab._ZN15QCameraExposureC1EP7QCamera  0x000397c4   Data           0  qcameraexposure.o(.ARM.extab)
    .extab._ZN15QCameraExposureD1Ev          0x000397d4   Data           0  qcameraexposure.o(.ARM.extab)
    .extab._Z20qForeachContainerNewI5QListI8QVariantEE17QForeachContainerIT_ERKS4_ 0x000397e4   Data           0  qcameraexposure.o(.ARM.extab)
    .extab._ZN5QListIfE18detach_helper_growEii 0x000397f4   Data           0  qcameraexposure.o(.ARM.extab)
    .extab._ZN5QListIfE6appendERKf           0x00039824   Data           0  qcameraexposure.o(.ARM.extab)
    .extab._ZN16QCameraFocusZoneC1Ev         0x00039840   Data           0  qcamerafocus.o(.ARM.extab)
    .extab._ZN16QCameraFocusZoneC1ERK6QRectFNS_15FocusZoneStatusE 0x00039850   Data           0  qcamerafocus.o(.ARM.extab)
    .extab._ZNK12QCameraFocus10focusZonesEv  0x00039860   Data           0  qcamerafocus.o(.ARM.extab)
    .extab._ZN12QCameraFocus11qt_metacallEN11QMetaObject4CallEiPPv 0x00039880   Data           0  qcamerafocus.o(.ARM.extab)
    .extab._ZN12QCameraFocusC1EP7QCamera     0x00039890   Data           0  qcamerafocus.o(.ARM.extab)
    .extab._ZN18QSharedDataPointerI20QCameraFocusZoneDataE13detach_helperEv 0x000398b0   Data           0  qcamerafocus.o(.ARM.extab)
    .extab._ZN5QListI16QCameraFocusZoneE13detach_helperEi 0x000398c0   Data           0  qcamerafocus.o(.ARM.extab)
    .extab._ZNK22QCameraImageProcessing18manualWhiteBalanceEv 0x00039904   Data           0  qcameraimageprocessing.o(.ARM.extab)
    .extab._ZN22QCameraImageProcessing21setManualWhiteBalanceEi 0x00039924   Data           0  qcameraimageprocessing.o(.ARM.extab)
    .extab._ZNK22QCameraImageProcessing8contrastEv 0x00039934   Data           0  qcameraimageprocessing.o(.ARM.extab)
    .extab._ZN22QCameraImageProcessing11setContrastEi 0x00039954   Data           0  qcameraimageprocessing.o(.ARM.extab)
    .extab._ZNK22QCameraImageProcessing10saturationEv 0x00039964   Data           0  qcameraimageprocessing.o(.ARM.extab)
    .extab._ZN22QCameraImageProcessing13setSaturationEi 0x00039984   Data           0  qcameraimageprocessing.o(.ARM.extab)
    .extab._ZNK22QCameraImageProcessing15sharpeningLevelEv 0x00039994   Data           0  qcameraimageprocessing.o(.ARM.extab)
    .extab._ZN22QCameraImageProcessing18setSharpeningLevelEi 0x000399bc   Data           0  qcameraimageprocessing.o(.ARM.extab)
    .extab._ZNK22QCameraImageProcessing14denoisingLevelEv 0x000399ec   Data           0  qcameraimageprocessing.o(.ARM.extab)
    .extab._ZN22QCameraImageProcessing17setDenoisingLevelEi 0x00039a14   Data           0  qcameraimageprocessing.o(.ARM.extab)
    .extab._ZN22QCameraImageProcessingC1EP7QCamera 0x00039a44   Data           0  qcameraimageprocessing.o(.ARM.extab)
    .extab._ZN19QCameraImageCapture13cancelCaptureEv 0x00039a64   Data           0  qcameraimagecapture.o(.ARM.extab)
    .extab._ZN19QCameraImageCapture7captureERK7QString 0x00039a74   Data           0  qcameraimagecapture.o(.ARM.extab)
    .extab._ZN19QCameraImageCapture11qt_metacallEN11QMetaObject4CallEiPPv 0x00039a84   Data           0  qcameraimagecapture.o(.ARM.extab)
    .extab._ZN19QCameraImageCaptureC1EP12QMediaObjectP7QObject 0x00039a94   Data           0  qcameraimagecapture.o(.ARM.extab)
    .extab._ZN19QCameraImageCaptureD1Ev      0x00039ab4   Data           0  qcameraimagecapture.o(.ARM.extab)
    .extab._ZNK19QCameraImageCapture20supportedImageCodecsEv 0x00039acc   Data           0  qcameraimagecapture.o(.ARM.extab)
    .extab._ZNK19QCameraImageCapture21imageCodecDescriptionERK7QString 0x00039aec   Data           0  qcameraimagecapture.o(.ARM.extab)
    .extab._ZNK19QCameraImageCapture20supportedResolutionsERK21QImageEncoderSettingsPb 0x00039b0c   Data           0  qcameraimagecapture.o(.ARM.extab)
    .extab._ZNK19QCameraImageCapture16encodingSettingsEv 0x00039b2c   Data           0  qcameraimagecapture.o(.ARM.extab)
    .extab._ZN26QCameraImageCapturePrivate10unsetErrorEv 0x00039b4c   Data           0  qcameraimagecapture.o(.ARM.extab)
    .extab._ZN14QCameraControlC2EP7QObject   0x00039b5c   Data           0  qcameracontrol.o(.ARM.extab)
    .extab._ZN19QCameraLocksControlC2EP7QObject 0x00039b6c   Data           0  qcameralockscontrol.o(.ARM.extab)
    .extab._ZN22QCameraExposureControlC2EP7QObject 0x00039b7c   Data           0  qcameraexposurecontrol.o(.ARM.extab)
    .extab._ZN19QCameraFocusControlC2EP7QObject 0x00039b8c   Data           0  qcamerafocuscontrol.o(.ARM.extab)
    .extab._ZN19QCameraFlashControlC2EP7QObject 0x00039b9c   Data           0  qcameraflashcontrol.o(.ARM.extab)
    .extab._ZN29QCameraImageProcessingControlC2EP7QObject 0x00039bac   Data           0  qcameraimageprocessingcontrol.o(.ARM.extab)
    .extab._ZN25QGraphicsVideoItemPrivate14updateGeometryEv 0x00039bbc   Data           0  qgraphicsvideoitem_symbian.o(.ARM.extab)
    .extab._ZN25QGraphicsVideoItemPrivate19_q_updateNativeSizeEv 0x00039bd4   Data           0  qgraphicsvideoitem_symbian.o(.ARM.extab)
    .extab._ZN25QGraphicsVideoItemPrivate19updateItemAncestorsEv 0x00039be4   Data           0  qgraphicsvideoitem_symbian.o(.ARM.extab)
    .extab._ZN25QGraphicsVideoItemPrivateC1EP18QGraphicsVideoItem 0x00039c0c   Data           0  qgraphicsvideoitem_symbian.o(.ARM.extab)
    .extab._ZN18QGraphicsVideoItemC1EP13QGraphicsItem 0x00039c2c   Data           0  qgraphicsvideoitem_symbian.o(.ARM.extab)
    .extab._ZN18QGraphicsVideoItemD1Ev       0x00039c4c   Data           0  qgraphicsvideoitem_symbian.o(.ARM.extab)
    .extab._ZN25QGraphicsVideoItemPrivate34updateViewportAncestorEventFiltersEv 0x00039c64   Data           0  qgraphicsvideoitem_symbian.o(.ARM.extab)
    .extab._ZN25QGraphicsVideoItemPrivate27updateWidgetOrdinalPositionEv 0x00039c8c   Data           0  qgraphicsvideoitem_symbian.o(.ARM.extab)
    .extab._ZN25QGraphicsVideoItemPrivate14updateTopWinIdEv 0x00039cec   Data           0  qgraphicsvideoitem_symbian.o(.ARM.extab)
    .extab._ZN18QGraphicsVideoItem5paintEP8QPainterPK24QStyleOptionGraphicsItemP7QWidget 0x00039cfc   Data           0  qgraphicsvideoitem_symbian.o(.ARM.extab)
    .extab._ZN25QGraphicsVideoItemPrivateD1Ev 0x00039d14   Data           0  qgraphicsvideoitem_symbian.o(.ARM.extab)
    .extab._ZN25QGraphicsVideoItemPrivate11eventFilterEP7QObjectP6QEvent 0x00039d3c   Data           0  qgraphicsvideoitem_symbian.o(.ARM.extab)
    .extab._ZN5QListI8QPointerI7QObjectEE9node_copyEPNS3_4NodeES5_S5_ 0x00039d5c   Data           0  qgraphicsvideoitem_symbian.o(.ARM.extab)
    .extab._ZN5QListI8QPointerI7QObjectEE13detach_helperEi 0x00039d80   Data           0  qgraphicsvideoitem_symbian.o(.ARM.extab)
    .extab._Z20qForeachContainerNewI5QListI8QPointerI7QObjectEEE17QForeachContainerIT_ERKS6_ 0x00039d9c   Data           0  qgraphicsvideoitem_symbian.o(.ARM.extab)
    .extab._ZN5QListIP13QGraphicsItemE13detach_helperEi 0x00039dac   Data           0  qgraphicsvideoitem_symbian.o(.ARM.extab)
    .extab._ZN5QListIP18QGraphicsVideoItemE13detach_helperEi 0x00039dc8   Data           0  qgraphicsvideoitem_symbian.o(.ARM.extab)
    .extab._ZN5QListI8QPointerI7QObjectEE14node_constructEPNS3_4NodeERKS2_ 0x00039de4   Data           0  qgraphicsvideoitem_symbian.o(.ARM.extab)
    .extab._ZN5QListI8QPointerI7QObjectEE18detach_helper_growEii 0x00039df4   Data           0  qgraphicsvideoitem_symbian.o(.ARM.extab)
    .extab._ZN5QListI8QPointerI7QObjectEE6appendERKS2_ 0x00039e24   Data           0  qgraphicsvideoitem_symbian.o(.ARM.extab)
    .extab._ZN5QListI8QPointerI7QObjectEE5clearEv 0x00039e54   Data           0  qgraphicsvideoitem_symbian.o(.ARM.extab)
    .extab._ZN5QListIP18QGraphicsVideoItemE18detach_helper_growEii 0x00039e64   Data           0  qgraphicsvideoitem_symbian.o(.ARM.extab)
    .extab._ZN5QListIP18QGraphicsVideoItemE6appendERKS1_ 0x00039e94   Data           0  qgraphicsvideoitem_symbian.o(.ARM.extab)
    .extab._ZN5QListIP13QGraphicsViewE13detach_helperEi 0x00039eb0   Data           0  qgraphicsvideoitem_symbian.o(.ARM.extab)
    .extab._ZN15QGraphicsObjectD2Ev          0x00039ecc   Data           0  qgraphicsvideoitem_symbian.o(.ARM.extab)
    .extab._ZN12QAudioFormatC1Ev             0x00039edc   Data           0  qaudioformat.o(.ARM.extab)
    .extab._ZN18QSharedDataPointerI19QAudioFormatPrivateE13detach_helperEv 0x00039eec   Data           0  qaudioformat.o(.ARM.extab)
    .extab._ZN16QAudioDeviceInfoC1Ev         0x00039efc   Data           0  qaudiodeviceinfo.o(.ARM.extab)
    .extab._ZNK16QAudioDeviceInfo10deviceNameEv 0x00039f14   Data           0  qaudiodeviceinfo.o(.ARM.extab)
    .extab._ZNK16QAudioDeviceInfo15preferredFormatEv 0x00039f34   Data           0  qaudiodeviceinfo.o(.ARM.extab)
    .extab._ZNK16QAudioDeviceInfo20supportedSampleSizesEv 0x00039f54   Data           0  qaudiodeviceinfo.o(.ARM.extab)
    .extab._ZNK16QAudioDeviceInfo20supportedFrequenciesEv 0x00039f74   Data           0  qaudiodeviceinfo.o(.ARM.extab)
    .extab._ZNK16QAudioDeviceInfo20supportedSampleTypesEv 0x00039f94   Data           0  qaudiodeviceinfo.o(.ARM.extab)
    .extab._ZNK16QAudioDeviceInfo19supportedByteOrdersEv 0x00039fb4   Data           0  qaudiodeviceinfo.o(.ARM.extab)
    .extab._ZNK16QAudioDeviceInfo17supportedChannelsEv 0x00039fd4   Data           0  qaudiodeviceinfo.o(.ARM.extab)
    .extab._ZNK16QAudioDeviceInfo15supportedCodecsEv 0x00039ff4   Data           0  qaudiodeviceinfo.o(.ARM.extab)
    .extab._ZNK16QAudioDeviceInfo13nearestFormatERK12QAudioFormat 0x0003a014   Data           0  qaudiodeviceinfo.o(.ARM.extab)
    .extab._ZN16QAudioDeviceInfoC1ERK7QStringRK10QByteArrayN6QAudio4ModeE 0x0003a2b0   Data           0  qaudiodeviceinfo.o(.ARM.extab)
    .extab._Z20qForeachContainerNewI5QListIiEE17QForeachContainerIT_ERKS3_ 0x0003a2d0   Data           0  qaudiodeviceinfo.o(.ARM.extab)
    .extab._ZN5QListIN12QAudioFormat6EndianEE9node_copyEPNS2_4NodeES4_S4_ 0x0003a2e0   Data           0  qaudiodeviceinfo.o(.ARM.extab)
    .extab._ZN5QListIN12QAudioFormat6EndianEE13detach_helperEi 0x0003a2fc   Data           0  qaudiodeviceinfo.o(.ARM.extab)
    .extab._ZN5QListIN12QAudioFormat10SampleTypeEE9node_copyEPNS2_4NodeES4_S4_ 0x0003a318   Data           0  qaudiodeviceinfo.o(.ARM.extab)
    .extab._ZN5QListIN12QAudioFormat10SampleTypeEE13detach_helperEi 0x0003a334   Data           0  qaudiodeviceinfo.o(.ARM.extab)
    .extab._ZN5QListI7QStringE9removeAllERKS0_ 0x0003a350   Data           0  qaudiodeviceinfo.o(.ARM.extab)
    .extab._ZN23QAudioDeviceInfoPrivateD1Ev  0x0003a360   Data           0  qaudiodeviceinfo.o(.ARM.extab)
    .extab._ZN4QMapIiiE13detach_helperEv     0x0003a378   Data           0  qaudiodeviceinfo.o(.ARM.extab)
    .extab._ZN5QListIN12QAudioFormat10SampleTypeEE18detach_helper_growEii 0x0003a394   Data           0  qaudiodeviceinfo.o(.ARM.extab)
    .extab._ZN5QListIN12QAudioFormat10SampleTypeEE6appendERKS1_ 0x0003a3c4   Data           0  qaudiodeviceinfo.o(.ARM.extab)
    .extab._ZN5QListIN12QAudioFormat6EndianEE18detach_helper_growEii 0x0003a3f4   Data           0  qaudiodeviceinfo.o(.ARM.extab)
    .extab._ZN12QAudioOutputC1ERK12QAudioFormatP7QObject 0x0003a424   Data           0  qaudiooutput.o(.ARM.extab)
    .extab._ZN12QAudioOutputC1ERK16QAudioDeviceInfoRK12QAudioFormatP7QObject 0x0003a434   Data           0  qaudiooutput.o(.ARM.extab)
    .extab._ZN12QAudioOutputD1Ev             0x0003a444   Data           0  qaudiooutput.o(.ARM.extab)
    .extab._ZN11QAudioInputC1ERK12QAudioFormatP7QObject 0x0003a454   Data           0  qaudioinput.o(.ARM.extab)
    .extab._ZN11QAudioInputC1ERK16QAudioDeviceInfoRK12QAudioFormatP7QObject 0x0003a464   Data           0  qaudioinput.o(.ARM.extab)
    .extab._ZN11QAudioInputD1Ev              0x0003a474   Data           0  qaudioinput.o(.ARM.extab)
    .extab._Z11audioLoaderv                  0x0003a484   Data           0  qaudiodevicefactory.o(.ARM.extab)
    .extab._ZN19QAudioDeviceFactory16availableDevicesEN6QAudio4ModeE 0x0003a4ac   Data           0  qaudiodevicefactory.o(.ARM.extab)
    .extab._ZN19QAudioDeviceFactory18defaultInputDeviceEv 0x0003a554   Data           0  qaudiodevicefactory.o(.ARM.extab)
    .extab._ZN19QAudioDeviceFactory19defaultOutputDeviceEv 0x0003a594   Data           0  qaudiodevicefactory.o(.ARM.extab)
    .extab._ZN19QAudioDeviceFactory15audioDeviceInfoERK7QStringRK10QByteArrayN6QAudio4ModeE 0x0003a5d4   Data           0  qaudiodevicefactory.o(.ARM.extab)
    .extab._ZN19QAudioDeviceFactory17createInputDeviceERK16QAudioDeviceInfoRK12QAudioFormat 0x0003a5fc   Data           0  qaudiodevicefactory.o(.ARM.extab)
    .extab._ZN19QAudioDeviceFactory24createDefaultInputDeviceERK12QAudioFormat 0x0003a644   Data           0  qaudiodevicefactory.o(.ARM.extab)
    .extab._ZN19QAudioDeviceFactory18createOutputDeviceERK16QAudioDeviceInfoRK12QAudioFormat 0x0003a654   Data           0  qaudiodevicefactory.o(.ARM.extab)
    .extab._ZN19QAudioDeviceFactory25createDefaultOutputDeviceERK12QAudioFormat 0x0003a69c   Data           0  qaudiodevicefactory.o(.ARM.extab)
    .extab._Z8qWarningv                      0x0003a6ac   Data           0  qaudiodevicefactory.o(.ARM.extab)
    .extab._Z20qForeachContainerNewI5QListI10QByteArrayEE17QForeachContainerIT_ERKS4_ 0x0003a6c4   Data           0  qaudiodevicefactory.o(.ARM.extab)
    .extab._ZN5QListI16QAudioDeviceInfoE14node_constructEPNS1_4NodeERKS0_ 0x0003a6d4   Data           0  qaudiodevicefactory.o(.ARM.extab)
    .extab._ZN5QListI16QAudioDeviceInfoE9node_copyEPNS1_4NodeES3_S3_ 0x0003a6e4   Data           0  qaudiodevicefactory.o(.ARM.extab)
    .extab._ZN5QListI16QAudioDeviceInfoE18detach_helper_growEii 0x0003a708   Data           0  qaudiodevicefactory.o(.ARM.extab)
    .extab._ZN5QListI16QAudioDeviceInfoE6appendERKS0_ 0x0003a738   Data           0  qaudiodevicefactory.o(.ARM.extab)
    .extab._ZNK15QNullDeviceInfo15preferredFormatEv 0x0003a768   Data           0  qaudiodevicefactory.o(.ARM.extab)
    .extab._ZN16QNullInputDevice5startEP9QIODevice 0x0003a778   Data           0  qaudiodevicefactory.o(.ARM.extab)
    .extab._ZN16QNullInputDevice5startEv     0x0003a788   Data           0  qaudiodevicefactory.o(.ARM.extab)
    .extab._ZN17QNullOutputDevice5startEP9QIODevice 0x0003a798   Data           0  qaudiodevicefactory.o(.ARM.extab)
    .extab._ZN17QNullOutputDevice5startEv    0x0003a7a8   Data           0  qaudiodevicefactory.o(.ARM.extab)
    .extab._ZNK18QAudioPluginLoader10pluginListEv 0x0003a7b8   Data           0  qaudiopluginloader.o(.ARM.extab)
    .extab._ZN18QAudioPluginLoader4loadEv    0x0003a838   Data           0  qaudiopluginloader.o(.ARM.extab)
    .extab._ZN18QAudioPluginLoaderC1EPKcRK7QStringN2Qt15CaseSensitivityE 0x0003a858   Data           0  qaudiopluginloader.o(.ARM.extab)
    .extab._ZN18QAudioPluginLoaderD1Ev       0x0003a8a8   Data           0  qaudiopluginloader.o(.ARM.extab)
    .extab._ZNK18QAudioPluginLoader4keysEv   0x0003a8d0   Data           0  qaudiopluginloader.o(.ARM.extab)
    .extab._ZN18QAudioPluginLoader8instanceERK7QString 0x0003a8f8   Data           0  qaudiopluginloader.o(.ARM.extab)
    .extab._ZN18QAudioPluginLoader9instancesERK7QString 0x0003a920   Data           0  qaudiopluginloader.o(.ARM.extab)
    .extab._ZN5QListIP13QPluginLoaderE18detach_helper_growEii 0x0003a948   Data           0  qaudiopluginloader.o(.ARM.extab)
    .extab._ZN5QListIP13QPluginLoaderE6appendERKS1_ 0x0003a978   Data           0  qaudiopluginloader.o(.ARM.extab)
    .extab._ZN5QHashI7QString15QHashDummyValueE13duplicateNodeEPN9QHashData4NodeEPv 0x0003a994   Data           0  qaudiopluginloader.o(.ARM.extab)
    .extab._ZN5QHashI7QString15QHashDummyValueE6insertERKS0_RKS1_ 0x0003a9a4   Data           0  qaudiopluginloader.o(.ARM.extab)
    .extab._ZN12SymbianAudio15DevSoundWrapper18getSupportedCodecsEv 0x0003a9b4   Data           0  qaudio_symbian_p.o(.ARM.extab)
    .extab._ZN12SymbianAudio15DevSoundWrapperC1EN6QAudio4ModeEP7QObject 0x0003a9c4   Data           0  qaudio_symbian_p.o(.ARM.extab)
    .extab._ZN12SymbianAudio15DevSoundWrapperD1Ev 0x0003aa34   Data           0  qaudio_symbian_p.o(.ARM.extab)
    .extab._ZN12SymbianAudio15DevSoundWrapper10initializeERK7QString 0x0003aa74   Data           0  qaudio_symbian_p.o(.ARM.extab)
    .extab._ZNK12SymbianAudio15DevSoundWrapper17isFormatSupportedERK12QAudioFormat 0x0003aaa4   Data           0  qaudio_symbian_p.o(.ARM.extab)
    .extab._ZN12SymbianAudio5Utils16formatQtToNativeERK12QAudioFormatRmR16TMMFCapabilities 0x0003aab4   Data           0  qaudio_symbian_p.o(.ARM.extab)
    .extab._ZN12SymbianAudio15DevSoundWrapper9setFormatERK12QAudioFormat 0x0003aac4   Data           0  qaudio_symbian_p.o(.ARM.extab)
    .extab._ZN12SymbianAudio15DevSoundWrapper5startEv 0x0003aaf4   Data           0  qaudio_symbian_p.o(.ARM.extab)
    .extab._ZN5QListIN12QAudioFormat6EndianEE6appendERKS1_ 0x0003ab4c   Data           0  qaudio_symbian_p.o(.ARM.extab)
    .extab._ZN5QListIN12QAudioFormat10SampleTypeEE5clearEv 0x0003ab7c   Data           0  qaudio_symbian_p.o(.ARM.extab)
    .extab._ZN5QListIN12QAudioFormat6EndianEE5clearEv 0x0003ab8c   Data           0  qaudio_symbian_p.o(.ARM.extab)
    .extab._ZN24QAudioDeviceInfoInternalC1E10QByteArrayN6QAudio4ModeE 0x0003ab9c   Data           0  qaudiodeviceinfo_symbian_p.o(.ARM.extab)
    .extab._ZN24QAudioDeviceInfoInternalD1Ev 0x0003abbc   Data           0  qaudiodeviceinfo_symbian_p.o(.ARM.extab)
    .extab._ZNK24QAudioDeviceInfoInternal15preferredFormatEv 0x0003abdc   Data           0  qaudiodeviceinfo_symbian_p.o(.ARM.extab)
    .extab._ZNK24QAudioDeviceInfoInternal19getSupportedFormatsEv 0x0003ac4c   Data           0  qaudiodeviceinfo_symbian_p.o(.ARM.extab)
    .extab._ZNK24QAudioDeviceInfoInternal17isFormatSupportedERK12QAudioFormat 0x0003ac74   Data           0  qaudiodeviceinfo_symbian_p.o(.ARM.extab)
    .extab._ZN24QAudioDeviceInfoInternal15supportedCodecsEv 0x0003ac8c   Data           0  qaudiodeviceinfo_symbian_p.o(.ARM.extab)
    .extab._ZN24QAudioDeviceInfoInternal16availableDevicesEN6QAudio4ModeE 0x0003ac9c   Data           0  qaudiodeviceinfo_symbian_p.o(.ARM.extab)
    .extab._Z12appendUniqueIiEvR5QListIT_ERKS2_ 0x0003acbc   Data           0  qaudiodeviceinfo_symbian_p.o(.ARM.extab)
    .extab._Z12appendUniqueIN12QAudioFormat6EndianEEvR5QListIT_ERKS4_ 0x0003acd4   Data           0  qaudiodeviceinfo_symbian_p.o(.ARM.extab)
    .extab._Z12appendUniqueIN12QAudioFormat10SampleTypeEEvR5QListIT_ERKS4_ 0x0003acec   Data           0  qaudiodeviceinfo_symbian_p.o(.ARM.extab)
    .extab._ZN24QAudioDeviceInfoInternal12CapabilitiesD1Ev 0x0003ad04   Data           0  qaudiodeviceinfo_symbian_p.o(.ARM.extab)
    .extab._ZN24QAudioDeviceInfoInternal12CapabilitiesC1Ev 0x0003ad2c   Data           0  qaudiodeviceinfo_symbian_p.o(.ARM.extab)
    .extab._ZN4QMapI7QStringN24QAudioDeviceInfoInternal12CapabilitiesEE11node_createEP8QMapDataPPNS4_4NodeERKS0_RKS2_ 0x0003ad54   Data           0  qaudiodeviceinfo_symbian_p.o(.ARM.extab)
    .extab._ZN4QMapI7QStringN24QAudioDeviceInfoInternal12CapabilitiesEE13detach_helperEv 0x0003adc0   Data           0  qaudiodeviceinfo_symbian_p.o(.ARM.extab)
    .extab._ZN4QMapI7QStringN24QAudioDeviceInfoInternal12CapabilitiesEEixERKS0_ 0x0003addc   Data           0  qaudiodeviceinfo_symbian_p.o(.ARM.extab)
    .extab._ZNK4QMapI7QStringN24QAudioDeviceInfoInternal12CapabilitiesEE4keysEv 0x0003adec   Data           0  qaudiodeviceinfo_symbian_p.o(.ARM.extab)
    .extab._ZN5QListI10QByteArrayE14node_constructEPNS1_4NodeERKS0_ 0x0003adfc   Data           0  qaudiodeviceinfo_symbian_p.o(.ARM.extab)
    .extab._ZN5QListI10QByteArrayE6appendERKS0_ 0x0003ae0c   Data           0  qaudiodeviceinfo_symbian_p.o(.ARM.extab)
    .extab._ZN18QAudioInputPrivateC1ERK10QByteArray 0x0003ae3c   Data           0  qaudioinput_symbian_p.o(.ARM.extab)
    .extab._ZN18QAudioInputPrivateD1Ev       0x0003ae84   Data           0  qaudioinput_symbian_p.o(.ARM.extab)
    .extab._ZN18QAudioInputPrivate4openEv    0x0003aebc   Data           0  qaudioinput_symbian_p.o(.ARM.extab)
    .extab._ZN18QAudioInputPrivate5startEv   0x0003aed4   Data           0  qaudioinput_symbian_p.o(.ARM.extab)
    .extab._ZN5QListIP14CMMFDataBufferE13detach_helperEi 0x0003aee4   Data           0  qaudioinput_symbian_p.o(.ARM.extab)
    .extab._ZN5QListIP14CMMFDataBufferE5clearEv 0x0003af00   Data           0  qaudioinput_symbian_p.o(.ARM.extab)
    .extab._ZN5QListIP14CMMFDataBufferE18detach_helper_growEii 0x0003af10   Data           0  qaudioinput_symbian_p.o(.ARM.extab)
    .extab._ZN5QListIP14CMMFDataBufferE6appendERKS1_ 0x0003af40   Data           0  qaudioinput_symbian_p.o(.ARM.extab)
    .extab._ZN19QAudioOutputPrivateC1ERK10QByteArray 0x0003af5c   Data           0  qaudiooutput_symbian_p.o(.ARM.extab)
    .extab._ZN19QAudioOutputPrivateD1Ev      0x0003af9c   Data           0  qaudiooutput_symbian_p.o(.ARM.extab)
    .extab._ZN19QAudioOutputPrivate4openEv   0x0003afcc   Data           0  qaudiooutput_symbian_p.o(.ARM.extab)
    .extab._ZN19QAudioOutputPrivate5startEv  0x0003afe4   Data           0  qaudiooutput_symbian_p.o(.ARM.extab)
    .extab._ZN19QSoundEffectPrivateC1EP7QObject 0x0003aff4   Data           0  qsoundeffect_qsound_p.o(.ARM.extab)
    .extab._ZN19QSoundEffectPrivateD1Ev      0x0003b00c   Data           0  qsoundeffect_qsound_p.o(.ARM.extab)
    .extab._ZN19QSoundEffectPrivate18supportedMimeTypesEv 0x0003b01c   Data           0  qsoundeffect_qsound_p.o(.ARM.extab)
    .extab._ZN19QSoundEffectPrivate9setSourceERK4QUrl 0x0003b04c   Data           0  qsoundeffect_qsound_p.o(.ARM.extab)
    .extab._ZN12QSoundEffect9setSourceERK4QUrl 0x0003b07c   Data           0  qsoundeffect.o(.ARM.extab)
    .extab._ZN12QSoundEffect11qt_metacallEN11QMetaObject4CallEiPPv 0x0003b08c   Data           0  qsoundeffect.o(.ARM.extab)
    .extab._ZN12QSoundEffectC1EP7QObject     0x0003b09c   Data           0  qsoundeffect.o(.ARM.extab)
    .extab._ZN12QSoundEffectD1Ev             0x0003b0bc   Data           0  qsoundeffect.o(.ARM.extab)
    .extab._ZN12QWaveDecoder10handleDataEv   0x0003b0cc   Data           0  qwavedecoder_p.o(.ARM.extab)
    .extab._ZN12QWaveDecoderC1EP9QIODeviceP7QObject 0x0003b0dc   Data           0  qwavedecoder_p.o(.ARM.extab)
    .extab._ZN12QWaveDecoderD1Ev             0x0003b0f4   Data           0  qwavedecoder_p.o(.ARM.extab)
    .extab._ZN7QSample7onReadyEv             0x0003b104   Data           0  qsamplecache_p.o(.ARM.extab)
    .extab._ZN12QSampleCache7refreshEx       0x0003b114   Data           0  qsamplecache_p.o(.ARM.extab)
    .extab._ZN12QSampleCache20networkAccessManagerEv 0x0003b14c   Data           0  qsamplecache_p.o(.ARM.extab)
    .extab._ZN7QSample4loadEv                0x0003b15c   Data           0  qsamplecache_p.o(.ARM.extab)
    .extab._ZN12QSampleCache20tryRemoveUnrefSampleERK4QUrl 0x0003b174   Data           0  qsamplecache_p.o(.ARM.extab)
    .extab._ZN7QSample7releaseEv             0x0003b184   Data           0  qsamplecache_p.o(.ARM.extab)
    .extab._ZN7QSampleC1ERK4QUrlP12QSampleCache 0x0003b194   Data           0  qsamplecache_p.o(.ARM.extab)
    .extab._ZN7QSampleD1Ev                   0x0003b1bc   Data           0  qsamplecache_p.o(.ARM.extab)
    .extab._ZN12QSampleCacheC1Ev             0x0003b1ec   Data           0  qsamplecache_p.o(.ARM.extab)
    .extab._ZN12QSampleCacheD1Ev             0x0003b20c   Data           0  qsamplecache_p.o(.ARM.extab)
    .extab._ZN12QSampleCache13requestSampleERK4QUrl 0x0003b234   Data           0  qsamplecache_p.o(.ARM.extab)
    .extab._ZN12QSampleCache11setCapacityEx  0x0003b254   Data           0  qsamplecache_p.o(.ARM.extab)
    .extab._ZN6QDebuglsEx                    0x0003b264   Data           0  qsamplecache_p.o(.ARM.extab)
    .extab._ZN4QMapI4QUrlP7QSampleE11node_createEP8QMapDataPPNS4_4NodeERKS0_RKS2_ 0x0003b274   Data           0  qsamplecache_p.o(.ARM.extab)
    .extab._ZN4QMapI4QUrlP7QSampleE13detach_helperEv 0x0003b298   Data           0  qsamplecache_p.o(.ARM.extab)
    .extab._ZN6QDebugD1Ev                    0x0003b2b4   Data           0  qsamplecache_p.o(.ARM.extab)
    .extab._ZNK21QAbstractVideoSurface16nativeResolutionEv 0x0003b2d8   Data           0  qabstractvideosurface.o(.ARM.extab)
    .extab._ZN21QAbstractVideoSurfaceC2EP7QObject 0x0003b2e8   Data           0  qabstractvideosurface.o(.ARM.extab)
    .extab._ZNK21QAbstractVideoSurface17isFormatSupportedERK19QVideoSurfaceFormat 0x0003b348   Data           0  qabstractvideosurface.o(.ARM.extab)
    .extab._ZNK21QAbstractVideoSurface13nearestFormatERK19QVideoSurfaceFormat 0x0003b358   Data           0  qabstractvideosurface.o(.ARM.extab)
    .extab._ZNK21QAbstractVideoSurface13surfaceFormatEv 0x0003b368   Data           0  qabstractvideosurface.o(.ARM.extab)
    .extab._ZN21QAbstractVideoSurface5startERK19QVideoSurfaceFormat 0x0003b380   Data           0  qabstractvideosurface.o(.ARM.extab)
    .extab._ZN21QAbstractVideoSurface4stopEv 0x0003b3a8   Data           0  qabstractvideosurface.o(.ARM.extab)
    .extab._ZNK21QAbstractVideoSurface8isActiveEv 0x0003b3e0   Data           0  qabstractvideosurface.o(.ARM.extab)
    .extab._ZNK21QAbstractVideoSurface5errorEv 0x0003b3f0   Data           0  qabstractvideosurface.o(.ARM.extab)
    .extab._ZN21QAbstractVideoSurface8setErrorENS_5ErrorE 0x0003b400   Data           0  qabstractvideosurface.o(.ARM.extab)
    .extab._ZN21QAbstractVideoSurface19setNativeResolutionERK5QSize 0x0003b410   Data           0  qabstractvideosurface.o(.ARM.extab)
    .extab._Z24qMetaTypeConstructHelperI19QVideoSurfaceFormatEPvPKT_ 0x0003b428   Data           0  qabstractvideosurface.o(.ARM.extab)
    .extab._ZN17QImageVideoBufferC1ERK6QImage 0x0003b440   Data           0  qimagevideobuffer.o(.ARM.extab)
    .extab._ZN24QImageVideoBufferPrivateD1Ev 0x0003b458   Data           0  qimagevideobuffer.o(.ARM.extab)
    .extab._ZN18QMemoryVideoBufferC1ERK10QByteArrayi 0x0003b468   Data           0  qmemoryvideobuffer.o(.ARM.extab)
    .extab._ZN25QMemoryVideoBufferPrivateD1Ev 0x0003b480   Data           0  qmemoryvideobuffer.o(.ARM.extab)
    .extab._ZN11QVideoFrameC1Ev              0x0003b490   Data           0  qvideoframe.o(.ARM.extab)
    .extab._ZN11QVideoFrameC1EP20QAbstractVideoBufferRK5QSizeNS_11PixelFormatE 0x0003b4a0   Data           0  qvideoframe.o(.ARM.extab)
    .extab._ZN11QVideoFrameC1EiRK5QSizeiNS_11PixelFormatE 0x0003b4b0   Data           0  qvideoframe.o(.ARM.extab)
    .extab._ZN11QVideoFrameC1ERK6QImage      0x0003b4d8   Data           0  qvideoframe.o(.ARM.extab)
    .extab._ZNK11QVideoFrame6handleEv        0x0003b4f0   Data           0  qvideoframe.o(.ARM.extab)
    .extab._ZNK19QVideoSurfaceFormat8propertyEPKc 0x0003b508   Data           0  qvideosurfaceformat.o(.ARM.extab)
    .extab._ZNK19QVideoSurfaceFormat13propertyNamesEv 0x0003b518   Data           0  qvideosurfaceformat.o(.ARM.extab)
    .extab._Zls6QDebugRK19QVideoSurfaceFormat 0x0003b5d0   Data           0  qvideosurfaceformat.o(.ARM.extab)
    .extab._ZN19QVideoSurfaceFormatC1Ev      0x0003b678   Data           0  qvideosurfaceformat.o(.ARM.extab)
    .extab._ZN19QVideoSurfaceFormatC1ERK5QSizeN11QVideoFrame11PixelFormatEN20QAbstractVideoBuffer10HandleTypeE 0x0003b690   Data           0  qvideosurfaceformat.o(.ARM.extab)
    .extab._ZN19QVideoSurfaceFormat11setPropertyEPKcRK8QVariant 0x0003b6a8   Data           0  qvideosurfaceformat.o(.ARM.extab)
    .extab._ZN5QListI10QByteArrayEpLERKS1_   0x0003b6b8   Data           0  qvideosurfaceformat.o(.ARM.extab)
    .extab._ZN7QStringaSERK13QLatin1String   0x0003b6d4   Data           0  qvideosurfaceformat.o(.ARM.extab)
    .extab._ZN5QListI8QVariantE9node_copyEPNS1_4NodeES3_S3_ 0x0003b6e4   Data           0  qvideosurfaceformat.o(.ARM.extab)
    .extab._ZN5QListI8QVariantE13detach_helperEi 0x0003b708   Data           0  qvideosurfaceformat.o(.ARM.extab)
    .extab._ZN18QSharedDataPointerI26QVideoSurfaceFormatPrivateE13detach_helperEv 0x0003b724   Data           0  qvideosurfaceformat.o(.ARM.extab)
    .extab._ZN5QListI8QVariantE14node_constructEPNS1_4NodeERKS0_ 0x0003b734   Data           0  qvideosurfaceformat.o(.ARM.extab)
    .extab._ZN5QListI8QVariantE18detach_helper_growEii 0x0003b744   Data           0  qvideosurfaceformat.o(.ARM.extab)
    .extab._ZN5QListI8QVariantE6appendERKS0_ 0x0003b774   Data           0  qvideosurfaceformat.o(.ARM.extab)
    .extab._ZN26QVideoSurfaceFormatPrivateD1Ev 0x0003b7a4   Data           0  qvideosurfaceformat.o(.ARM.extab)
    .extab._ZN26QVideoSurfaceFormatPrivateC1ERKS_ 0x0003b7b4   Data           0  qvideosurfaceformat.o(.ARM.extab)
    .constdata$1                             0x0003b7c4   Data           0  moc_qaudio_symbian_p.o(.constdata)
    qt_meta_data_SymbianAudio__DevSoundWrapper 0x0003b7c4   Data         120  moc_qaudio_symbian_p.o(.constdata)
    .constdata                               0x0003b7c4   Section      260  moc_qaudio_symbian_p.o(.constdata)
    qt_meta_stringdata_SymbianAudio__DevSoundWrapper 0x0003b83c   Data         123  moc_qaudio_symbian_p.o(.constdata)
    .constdata$1                             0x0003b8c8   Data           0  qmediacontrol.o(.constdata)
    qt_meta_data_QMediaControl               0x0003b8c8   Data          60  qmediacontrol.o(.constdata)
    .constdata                               0x0003b8c8   Section       92  qmediacontrol.o(.constdata)
    qt_meta_stringdata_QMediaControl         0x0003b904   Data          15  qmediacontrol.o(.constdata)
    .constdata$1                             0x0003b924   Data           0  qmediaobject.o(.constdata)
    qt_meta_data_QMediaObject                0x0003b924   Data         176  qmediaobject.o(.constdata)
    .constdata                               0x0003b924   Section      364  qmediaobject.o(.constdata)
    qt_meta_stringdata_QMediaObject          0x0003b9d4   Data         171  qmediaobject.o(.constdata)
    .constdata$1                             0x0003ba90   Data           0  qmediaservice.o(.constdata)
    qt_meta_data_QMediaService               0x0003ba90   Data          60  qmediaservice.o(.constdata)
    .constdata                               0x0003ba90   Section       92  qmediaservice.o(.constdata)
    qt_meta_stringdata_QMediaService         0x0003bacc   Data          15  qmediaservice.o(.constdata)
    .constdata$1                             0x0003baec   Data           0  qlocalmediaplaylistprovider.o(.constdata)
    qt_meta_data_QLocalMediaPlaylistProvider 0x0003baec   Data          80  qlocalmediaplaylistprovider.o(.constdata)
    .constdata                               0x0003baec   Section      136  qlocalmediaplaylistprovider.o(.constdata)
    qt_meta_stringdata_QLocalMediaPlaylistProvider 0x0003bb3c   Data          40  qlocalmediaplaylistprovider.o(.constdata)
    .constdata$1                             0x0003bb74   Data           0  qmediaimageviewer.o(.constdata)
    qt_meta_data_QMediaImageViewer           0x0003bb74   Data         488  qmediaimageviewer.o(.constdata)
    .constdata                               0x0003bb74   Section     1060  qmediaimageviewer.o(.constdata)
    qt_meta_stringdata_QMediaImageViewer     0x0003bd5c   Data         554  qmediaimageviewer.o(.constdata)
    .constdata$1                             0x0003bf98   Data           0  qmediaimageviewerservice.o(.constdata)
    qt_meta_data_QMediaImageViewerService    0x0003bf98   Data          60  qmediaimageviewerservice.o(.constdata)
    .constdata                               0x0003bf98   Section      600  qmediaimageviewerservice.o(.constdata)
    qt_meta_stringdata_QMediaImageViewerService 0x0003bfd4   Data          26  qmediaimageviewerservice.o(.constdata)
    qt_meta_data_QMediaImageViewerControl    0x0003bff0   Data         120  qmediaimageviewerservice.o(.constdata)
    qt_meta_stringdata_QMediaImageViewerControl 0x0003c068   Data         120  qmediaimageviewerservice.o(.constdata)
    qt_meta_data_QMediaImageViewerRenderer   0x0003c0e0   Data          80  qmediaimageviewerservice.o(.constdata)
    qt_meta_stringdata_QMediaImageViewerRenderer 0x0003c130   Data          75  qmediaimageviewerservice.o(.constdata)
    .constdata$1                             0x0003c1f0   Data           0  qmediaplayer.o(.constdata)
    qt_meta_data_QMediaPlayer                0x0003c1f0   Data         972  qmediaplayer.o(.constdata)
    .constdata                               0x0003c1f0   Section     2128  qmediaplayer.o(.constdata)
    qt_meta_stringdata_QMediaPlayer          0x0003c5bc   Data        1139  qmediaplayer.o(.constdata)
    .constdata$1                             0x0003ca40   Data           0  qmediaplayercontrol.o(.constdata)
    qt_meta_data_QMediaPlayerControl         0x0003ca40   Data         340  qmediaplayercontrol.o(.constdata)
    .constdata                               0x0003ca40   Section      892  qmediaplayercontrol.o(.constdata)
    qt_meta_stringdata_QMediaPlayerControl   0x0003cb94   Data         535  qmediaplayercontrol.o(.constdata)
    .constdata$1                             0x0003cdbc   Data           0  qmediaplaylist.o(.constdata)
    qt_meta_data_QMediaPlaylist              0x0003cdbc   Data         520  qmediaplaylist.o(.constdata)
    .constdata                               0x0003cdbc   Section     1315  qmediaplaylist.o(.constdata)
    qt_meta_stringdata_QMediaPlaylist        0x0003cfc4   Data         633  qmediaplaylist.o(.constdata)
    qt_meta_data_QLocalMediaPlaylistControl  0x0003d240   Data          60  qmediaplaylist.o(.constdata)
    qt_meta_stringdata_QLocalMediaPlaylistControl 0x0003d27c   Data          28  qmediaplaylist.o(.constdata)
    .constdata$1                             0x0003d2e0   Data           0  qmediaplaylistioplugin.o(.constdata)
    qt_meta_data_QMediaPlaylistIOPlugin      0x0003d2e0   Data          60  qmediaplaylistioplugin.o(.constdata)
    .constdata                               0x0003d2e0   Section      100  qmediaplaylistioplugin.o(.constdata)
    qt_meta_stringdata_QMediaPlaylistIOPlugin 0x0003d31c   Data          24  qmediaplaylistioplugin.o(.constdata)
    .constdata$1                             0x0003d344   Data           0  qmediaplaylistnavigator.o(.constdata)
    qt_meta_data_QMediaPlaylistNavigator     0x0003d344   Data         328  qmediaplaylistnavigator.o(.constdata)
    .constdata                               0x0003d344   Section      756  qmediaplaylistnavigator.o(.constdata)
    qt_meta_stringdata_QMediaPlaylistNavigator 0x0003d48c   Data         410  qmediaplaylistnavigator.o(.constdata)
    .constdata$1                             0x0003d638   Data           0  qmediaplaylistprovider.o(.constdata)
    qt_meta_data_QMediaPlaylistProvider      0x0003d638   Data         220  qmediaplaylistprovider.o(.constdata)
    .constdata                               0x0003d638   Section      476  qmediaplaylistprovider.o(.constdata)
    qt_meta_stringdata_QMediaPlaylistProvider 0x0003d714   Data         240  qmediaplaylistprovider.o(.constdata)
    .constdata$1                             0x0003d814   Data           0  qmediarecorder.o(.constdata)
    qt_meta_data_QMediaRecorder              0x0003d814   Data         540  qmediarecorder.o(.constdata)
    .constdata                               0x0003d814   Section     1124  qmediarecorder.o(.constdata)
    qt_meta_stringdata_QMediaRecorder        0x0003da30   Data         568  qmediarecorder.o(.constdata)
    .constdata$1                             0x0003dc78   Data           0  qmediarecordercontrol.o(.constdata)
    qt_meta_data_QMediaRecorderControl       0x0003dc78   Data         220  qmediarecordercontrol.o(.constdata)
    .constdata                               0x0003dc78   Section      436  qmediarecordercontrol.o(.constdata)
    qt_meta_stringdata_QMediaRecorderControl 0x0003dd54   Data         200  qmediarecordercontrol.o(.constdata)
    .constdata$1                             0x0003de2c   Data           0  qmediaserviceprovider.o(.constdata)
    qt_meta_data_QMediaServiceProvider       0x0003de2c   Data          60  qmediaserviceprovider.o(.constdata)
    .constdata                               0x0003de2c   Section      324  qmediaserviceprovider.o(.constdata)
    qt_meta_stringdata_QMediaServiceProvider 0x0003de68   Data          23  qmediaserviceprovider.o(.constdata)
    qt_meta_data_QMediaServiceProviderPlugin 0x0003de80   Data          60  qmediaserviceprovider.o(.constdata)
    qt_meta_stringdata_QMediaServiceProviderPlugin 0x0003debc   Data          29  qmediaserviceprovider.o(.constdata)
    .constdata$1                             0x0003df70   Data           0  qmetadatareadercontrol.o(.constdata)
    qt_meta_data_QMetaDataReaderControl      0x0003df70   Data         100  qmetadatareadercontrol.o(.constdata)
    .constdata                               0x0003df70   Section      200  qmetadatareadercontrol.o(.constdata)
    qt_meta_stringdata_QMetaDataReaderControl 0x0003dfd4   Data          84  qmetadatareadercontrol.o(.constdata)
    .constdata$1                             0x0003e038   Data           0  qmetadatawritercontrol.o(.constdata)
    qt_meta_data_QMetaDataWriterControl      0x0003e038   Data         120  qmetadatawritercontrol.o(.constdata)
    .constdata                               0x0003e038   Section      252  qmetadatawritercontrol.o(.constdata)
    qt_meta_stringdata_QMetaDataWriterControl 0x0003e0b0   Data         115  qmetadatawritercontrol.o(.constdata)
    .constdata$1                             0x0003e134   Data           0  qmediastreamscontrol.o(.constdata)
    qt_meta_data_QMediaStreamsControl        0x0003e134   Data         100  qmediastreamscontrol.o(.constdata)
    .constdata                               0x0003e134   Section      180  qmediastreamscontrol.o(.constdata)
    qt_meta_stringdata_QMediaStreamsControl  0x0003e198   Data          63  qmediastreamscontrol.o(.constdata)
    .constdata$1                             0x0003e1e8   Data           0  qradiotuner.o(.constdata)
    qt_meta_data_QRadioTuner                 0x0003e1e8   Data         740  qradiotuner.o(.constdata)
    .constdata                               0x0003e1e8   Section     1360  qradiotuner.o(.constdata)
    qt_meta_stringdata_QRadioTuner           0x0003e4cc   Data         601  qradiotuner.o(.constdata)
    .constdata$1                             0x0003e738   Data           0  qradiotunercontrol.o(.constdata)
    qt_meta_data_QRadioTunerControl          0x0003e738   Data         240  qradiotunercontrol.o(.constdata)
    .constdata                               0x0003e738   Section      564  qradiotunercontrol.o(.constdata)
    qt_meta_stringdata_QRadioTunerControl    0x0003e828   Data         307  qradiotunercontrol.o(.constdata)
    .constdata$1                             0x0003e96c   Data           0  qvideowidget.o(.constdata)
    qt_meta_data_QVideoWidget                0x0003e96c   Data         532  qvideowidget.o(.constdata)
    .constdata                               0x0003e96c   Section     1852  qvideowidget.o(.constdata)
    qt_meta_stringdata_QVideoWidget          0x0003eb80   Data         538  qvideowidget.o(.constdata)
    qt_meta_data_QVideoWidgetBackend         0x0003ed9c   Data          60  qvideowidget.o(.constdata)
    qt_meta_stringdata_QVideoWidgetBackend   0x0003edd8   Data          21  qvideowidget.o(.constdata)
    qt_meta_data_QVideoWidgetControlBackend  0x0003edf0   Data          60  qvideowidget.o(.constdata)
    qt_meta_stringdata_QVideoWidgetControlBackend 0x0003ee2c   Data          28  qvideowidget.o(.constdata)
    qt_meta_data_QRendererVideoWidgetBackend 0x0003ee48   Data         200  qvideowidget.o(.constdata)
    qt_meta_stringdata_QRendererVideoWidgetBackend 0x0003ef10   Data         240  qvideowidget.o(.constdata)
    qt_meta_data_QWindowVideoWidgetBackend   0x0003f000   Data          60  qvideowidget.o(.constdata)
    qt_meta_stringdata_QWindowVideoWidgetBackend 0x0003f03c   Data          27  qvideowidget.o(.constdata)
    .constdata$1                             0x0003f0a8   Data           0  qvideowindowcontrol.o(.constdata)
    qt_meta_data_QVideoWindowControl         0x0003f0a8   Data         180  qvideowindowcontrol.o(.constdata)
    .constdata                               0x0003f0a8   Section      392  qvideowindowcontrol.o(.constdata)
    qt_meta_stringdata_QVideoWindowControl   0x0003f15c   Data         195  qvideowindowcontrol.o(.constdata)
    .constdata$1                             0x0003f230   Data           0  qvideowidgetcontrol.o(.constdata)
    qt_meta_data_QVideoWidgetControl         0x0003f230   Data         160  qvideowidgetcontrol.o(.constdata)
    .constdata                               0x0003f230   Section      352  qvideowidgetcontrol.o(.constdata)
    qt_meta_stringdata_QVideoWidgetControl   0x0003f2d0   Data         175  qvideowidgetcontrol.o(.constdata)
    .constdata$1                             0x0003f390   Data           0  qaudioencodercontrol.o(.constdata)
    qt_meta_data_QAudioEncoderControl        0x0003f390   Data          60  qaudioencodercontrol.o(.constdata)
    .constdata                               0x0003f390   Section      100  qaudioencodercontrol.o(.constdata)
    qt_meta_stringdata_QAudioEncoderControl  0x0003f3cc   Data          22  qaudioencodercontrol.o(.constdata)
    .constdata$1                             0x0003f3f4   Data           0  qvideoencodercontrol.o(.constdata)
    qt_meta_data_QVideoEncoderControl        0x0003f3f4   Data          60  qvideoencodercontrol.o(.constdata)
    .constdata                               0x0003f3f4   Section      100  qvideoencodercontrol.o(.constdata)
    qt_meta_stringdata_QVideoEncoderControl  0x0003f430   Data          22  qvideoencodercontrol.o(.constdata)
    .constdata$1                             0x0003f458   Data           0  qimageencodercontrol.o(.constdata)
    qt_meta_data_QImageEncoderControl        0x0003f458   Data          60  qimageencodercontrol.o(.constdata)
    .constdata                               0x0003f458   Section      100  qimageencodercontrol.o(.constdata)
    qt_meta_stringdata_QImageEncoderControl  0x0003f494   Data          22  qimageencodercontrol.o(.constdata)
    .constdata$1                             0x0003f4bc   Data           0  qaudiocapturesource.o(.constdata)
    qt_meta_data_QAudioCaptureSource         0x0003f4bc   Data         140  qaudiocapturesource.o(.constdata)
    .constdata                               0x0003f4bc   Section      288  qaudiocapturesource.o(.constdata)
    qt_meta_stringdata_QAudioCaptureSource   0x0003f548   Data         129  qaudiocapturesource.o(.constdata)
    .constdata$1                             0x0003f5dc   Data           0  qmediacontainercontrol.o(.constdata)
    qt_meta_data_QMediaContainerControl      0x0003f5dc   Data          60  qmediacontainercontrol.o(.constdata)
    .constdata                               0x0003f5dc   Section      100  qmediacontainercontrol.o(.constdata)
    qt_meta_stringdata_QMediaContainerControl 0x0003f618   Data          24  qmediacontainercontrol.o(.constdata)
    .constdata$1                             0x0003f640   Data           0  qmediaplaylistcontrol.o(.constdata)
    qt_meta_data_QMediaPlaylistControl       0x0003f640   Data         140  qmediaplaylistcontrol.o(.constdata)
    .constdata                               0x0003f640   Section      332  qmediaplaylistcontrol.o(.constdata)
    qt_meta_stringdata_QMediaPlaylistControl 0x0003f6cc   Data         174  qmediaplaylistcontrol.o(.constdata)
    .constdata$1                             0x0003f78c   Data           0  qmediaplaylistsourcecontrol.o(.constdata)
    qt_meta_data_QMediaPlaylistSourceControl 0x0003f78c   Data          80  qmediaplaylistsourcecontrol.o(.constdata)
    .constdata                               0x0003f78c   Section      168  qmediaplaylistsourcecontrol.o(.constdata)
    qt_meta_stringdata_QMediaPlaylistSourceControl 0x0003f7dc   Data          72  qmediaplaylistsourcecontrol.o(.constdata)
    .constdata$1                             0x0003f834   Data           0  qaudioendpointselector.o(.constdata)
    qt_meta_data_QAudioEndpointSelector      0x0003f834   Data         120  qaudioendpointselector.o(.constdata)
    .constdata                               0x0003f834   Section      252  qaudioendpointselector.o(.constdata)
    qt_meta_stringdata_QAudioEndpointSelector 0x0003f8ac   Data         116  qaudioendpointselector.o(.constdata)
    .constdata$1                             0x0003f930   Data           0  qvideodevicecontrol.o(.constdata)
    qt_meta_data_QVideoDeviceControl         0x0003f930   Data         140  qvideodevicecontrol.o(.constdata)
    .constdata                               0x0003f930   Section      296  qvideodevicecontrol.o(.constdata)
    qt_meta_stringdata_QVideoDeviceControl   0x0003f9bc   Data         137  qvideodevicecontrol.o(.constdata)
    .constdata$1                             0x0003fa58   Data           0  qmediapluginloader.o(.constdata)
    .constdata                               0x0003fa58   Section       35  qmediapluginloader.o(.constdata)
    .constdata$1                             0x0003fa7c   Data           0  qpaintervideosurface.o(.constdata)
    qt_meta_data_QPainterVideoSurface        0x0003fa7c   Data         100  qpaintervideosurface.o(.constdata)
    .constdata                               0x0003fa7c   Section      176  qpaintervideosurface.o(.constdata)
    qt_meta_stringdata_QPainterVideoSurface  0x0003fae0   Data          58  qpaintervideosurface.o(.constdata)
    .constdata$1                             0x0003fb2c   Data           0  qvideorenderercontrol.o(.constdata)
    qt_meta_data_QVideoRendererControl       0x0003fb2c   Data          60  qvideorenderercontrol.o(.constdata)
    .constdata                               0x0003fb2c   Section      100  qvideorenderercontrol.o(.constdata)
    qt_meta_stringdata_QVideoRendererControl 0x0003fb68   Data          23  qvideorenderercontrol.o(.constdata)
    .constdata$1                             0x0003fb90   Data           0  qcamera.o(.constdata)
    qt_meta_data_QCamera                     0x0003fb90   Data         908  qcamera.o(.constdata)
    .constdata                               0x0003fb90   Section     2324  qcamera.o(.constdata)
    qt_meta_stringdata_QCamera               0x0003ff1c   Data        1228  qcamera.o(.constdata)
    .constdata$1                             0x000404a4   Data           0  qcameraviewfinder.o(.constdata)
    qt_meta_data_QCameraViewfinder           0x000404a4   Data          60  qcameraviewfinder.o(.constdata)
    .constdata                               0x000404a4   Section       96  qcameraviewfinder.o(.constdata)
    qt_meta_stringdata_QCameraViewfinder     0x000404e0   Data          19  qcameraviewfinder.o(.constdata)
    .constdata$1                             0x00040504   Data           0  qcameraexposure.o(.constdata)
    qt_meta_data_QCameraExposure             0x00040504   Data         808  qcameraexposure.o(.constdata)
    .constdata                               0x00040504   Section     1996  qcameraexposure.o(.constdata)
    qt_meta_stringdata_QCameraExposure       0x0004082c   Data        1171  qcameraexposure.o(.constdata)
    .constdata$1                             0x00040cd0   Data           0  qcamerafocus.o(.constdata)
    qt_meta_data_QCameraFocus                0x00040cd0   Data         368  qcamerafocus.o(.constdata)
    .constdata                               0x00040cd0   Section      828  qcamerafocus.o(.constdata)
    qt_meta_stringdata_QCameraFocus          0x00040e40   Data         442  qcamerafocus.o(.constdata)
    .constdata$1                             0x0004100c   Data           0  qcameraimageprocessing.o(.constdata)
    qt_meta_data_QCameraImageProcessing      0x0004100c   Data          60  qcameraimageprocessing.o(.constdata)
    .constdata                               0x0004100c   Section      100  qcameraimageprocessing.o(.constdata)
    qt_meta_stringdata_QCameraImageProcessing 0x00041048   Data          24  qcameraimageprocessing.o(.constdata)
    .constdata$1                             0x00041070   Data           0  qcameraimagecapture.o(.constdata)
    qt_meta_data_QCameraImageCapture         0x00041070   Data         340  qcameraimagecapture.o(.constdata)
    .constdata                               0x00041070   Section      792  qcameraimagecapture.o(.constdata)
    qt_meta_stringdata_QCameraImageCapture   0x000411c4   Data         435  qcameraimagecapture.o(.constdata)
    .constdata$1                             0x00041388   Data           0  qcameraimagecapturecontrol.o(.constdata)
    qt_meta_data_QCameraImageCaptureControl  0x00041388   Data         160  qcameraimagecapturecontrol.o(.constdata)
    .constdata                               0x00041388   Section      372  qcameraimagecapturecontrol.o(.constdata)
    qt_meta_stringdata_QCameraImageCaptureControl 0x00041428   Data         196  qcameraimagecapturecontrol.o(.constdata)
    .constdata$1                             0x000414fc   Data           0  qcameracontrol.o(.constdata)
    qt_meta_data_QCameraControl              0x000414fc   Data         140  qcameracontrol.o(.constdata)
    .constdata                               0x000414fc   Section      312  qcameracontrol.o(.constdata)
    qt_meta_stringdata_QCameraControl        0x00041588   Data         155  qcameracontrol.o(.constdata)
    .constdata$1                             0x00041634   Data           0  qcameralockscontrol.o(.constdata)
    qt_meta_data_QCameraLocksControl         0x00041634   Data          80  qcameralockscontrol.o(.constdata)
    .constdata                               0x00041634   Section      220  qcameralockscontrol.o(.constdata)
    qt_meta_stringdata_QCameraLocksControl   0x00041684   Data         124  qcameralockscontrol.o(.constdata)
    .constdata$1                             0x00041710   Data           0  qcameraexposurecontrol.o(.constdata)
    qt_meta_data_QCameraExposureControl      0x00041710   Data         200  qcameraexposurecontrol.o(.constdata)
    .constdata                               0x00041710   Section      472  qcameraexposurecontrol.o(.constdata)
    qt_meta_stringdata_QCameraExposureControl 0x000417d8   Data         254  qcameraexposurecontrol.o(.constdata)
    .constdata$1                             0x000418e8   Data           0  qcamerafocuscontrol.o(.constdata)
    qt_meta_data_QCameraFocusControl         0x000418e8   Data         160  qcamerafocuscontrol.o(.constdata)
    .constdata                               0x000418e8   Section      360  qcamerafocuscontrol.o(.constdata)
    qt_meta_stringdata_QCameraFocusControl   0x00041988   Data         184  qcamerafocuscontrol.o(.constdata)
    .constdata$1                             0x00041a50   Data           0  qcameraflashcontrol.o(.constdata)
    qt_meta_data_QCameraFlashControl         0x00041a50   Data          80  qcameraflashcontrol.o(.constdata)
    .constdata                               0x00041a50   Section      136  qcameraflashcontrol.o(.constdata)
    qt_meta_stringdata_QCameraFlashControl   0x00041aa0   Data          39  qcameraflashcontrol.o(.constdata)
    .constdata$1                             0x00041ad8   Data           0  qcameraimageprocessingcontrol.o(.constdata)
    qt_meta_data_QCameraImageProcessingControl 0x00041ad8   Data          60  qcameraimageprocessingcontrol.o(.constdata)
    .constdata                               0x00041ad8   Section      108  qcameraimageprocessingcontrol.o(.constdata)
    qt_meta_stringdata_QCameraImageProcessingControl 0x00041b14   Data          31  qcameraimageprocessingcontrol.o(.constdata)
    .constdata$1                             0x00041b44   Data           0  qgraphicsvideoitem_symbian.o(.constdata)
    qt_meta_data_QGraphicsVideoItemPrivate   0x00041b44   Data         100  qgraphicsvideoitem_symbian.o(.constdata)
    .constdata                               0x00041b44   Section      636  qgraphicsvideoitem_symbian.o(.constdata)
    qt_meta_stringdata_QGraphicsVideoItemPrivate 0x00041ba8   Data          80  qgraphicsvideoitem_symbian.o(.constdata)
    qt_meta_data_QGraphicsVideoItem          0x00041bf8   Data         220  qgraphicsvideoitem_symbian.o(.constdata)
    qt_meta_stringdata_QGraphicsVideoItem    0x00041cd4   Data         204  qgraphicsvideoitem_symbian.o(.constdata)
    .constdata$1                             0x00041dc0   Data           0  qaudiooutput.o(.constdata)
    qt_meta_data_QAudioOutput                0x00041dc0   Data         100  qaudiooutput.o(.constdata)
    .constdata                               0x00041dc0   Section      168  qaudiooutput.o(.constdata)
    qt_meta_stringdata_QAudioOutput          0x00041e24   Data          52  qaudiooutput.o(.constdata)
    .constdata$1                             0x00041e68   Data           0  qaudioinput.o(.constdata)
    qt_meta_data_QAudioInput                 0x00041e68   Data         100  qaudioinput.o(.constdata)
    .constdata                               0x00041e68   Section      168  qaudioinput.o(.constdata)
    qt_meta_stringdata_QAudioInput           0x00041ecc   Data          51  qaudioinput.o(.constdata)
    .constdata$1                             0x00041f10   Data           0  qaudiosystemplugin.o(.constdata)
    qt_meta_data_QAudioSystemPlugin          0x00041f10   Data          60  qaudiosystemplugin.o(.constdata)
    .constdata                               0x00041f10   Section       96  qaudiosystemplugin.o(.constdata)
    qt_meta_stringdata_QAudioSystemPlugin    0x00041f4c   Data          20  qaudiosystemplugin.o(.constdata)
    .constdata$1                             0x00041f70   Data           0  qaudiosystem.o(.constdata)
    qt_meta_data_QAbstractAudioDeviceInfo    0x00041f70   Data          60  qaudiosystem.o(.constdata)
    .constdata                               0x00041f70   Section      552  qaudiosystem.o(.constdata)
    qt_meta_stringdata_QAbstractAudioDeviceInfo 0x00041fac   Data          26  qaudiosystem.o(.constdata)
    qt_meta_data_QAbstractAudioOutput        0x00041fc8   Data         120  qaudiosystem.o(.constdata)
    qt_meta_stringdata_QAbstractAudioOutput  0x00042040   Data          88  qaudiosystem.o(.constdata)
    qt_meta_data_QAbstractAudioInput         0x00042098   Data         120  qaudiosystem.o(.constdata)
    qt_meta_stringdata_QAbstractAudioInput   0x00042110   Data          87  qaudiosystem.o(.constdata)
    .constdata$1                             0x00042198   Data           0  qaudiodevicefactory.o(.constdata)
    .constdata                               0x00042198   Section       42  qaudiodevicefactory.o(.constdata)
    .constdata$1                             0x000421c4   Data           0  qaudio_symbian_p.o(.constdata)
    SymbianAudio::Utils::SampleRateListNative 0x000421c4   Data          48  qaudio_symbian_p.o(.constdata)
    .constdata                               0x000421c4   Section      232  qaudio_symbian_p.o(.constdata)
    SymbianAudio::Utils::SampleRateListQt    0x000421f4   Data          48  qaudio_symbian_p.o(.constdata)
    SymbianAudio::Utils::ChannelsListNative  0x00042224   Data           8  qaudio_symbian_p.o(.constdata)
    SymbianAudio::Utils::ChannelsListQt      0x0004222c   Data           8  qaudio_symbian_p.o(.constdata)
    SymbianAudio::Utils::EncodingFourCC      0x00042234   Data          24  qaudio_symbian_p.o(.constdata)
    SymbianAudio::Utils::EncodingNative      0x0004224c   Data          24  qaudio_symbian_p.o(.constdata)
    SymbianAudio::Utils::EncodingSampleSize  0x00042264   Data          24  qaudio_symbian_p.o(.constdata)
    SymbianAudio::Utils::EncodingByteOrder   0x0004227c   Data          24  qaudio_symbian_p.o(.constdata)
    SymbianAudio::Utils::EncodingSampleType  0x00042294   Data          24  qaudio_symbian_p.o(.constdata)
    .constdata$1                             0x000422ac   Data           0  qaudiodeviceinfo_symbian_p.o(.constdata)
    qt_meta_data_QAudioDeviceInfoInternal    0x000422ac   Data          80  qaudiodeviceinfo_symbian_p.o(.constdata)
    .constdata                               0x000422ac   Section      160  qaudiodeviceinfo_symbian_p.o(.constdata)
    qt_meta_stringdata_QAudioDeviceInfoInternal 0x000422fc   Data          63  qaudiodeviceinfo_symbian_p.o(.constdata)
    .constdata$1                             0x0004234c   Data           0  qaudioinput_symbian_p.o(.constdata)
    qt_meta_data_SymbianAudioInputPrivate    0x0004234c   Data          60  qaudioinput_symbian_p.o(.constdata)
    .constdata                               0x0004234c   Section      464  qaudioinput_symbian_p.o(.constdata)
    qt_meta_stringdata_SymbianAudioInputPrivate 0x00042388   Data          26  qaudioinput_symbian_p.o(.constdata)
    qt_meta_data_QAudioInputPrivate          0x000423a4   Data         180  qaudioinput_symbian_p.o(.constdata)
    qt_meta_stringdata_QAudioInputPrivate    0x00042458   Data         161  qaudioinput_symbian_p.o(.constdata)
    .constdata$1                             0x0004251c   Data           0  qaudiooutput_symbian_p.o(.constdata)
    qt_meta_data_SymbianAudioOutputPrivate   0x0004251c   Data          60  qaudiooutput_symbian_p.o(.constdata)
    .constdata                               0x0004251c   Section      504  qaudiooutput_symbian_p.o(.constdata)
    qt_meta_stringdata_SymbianAudioOutputPrivate 0x00042558   Data          27  qaudiooutput_symbian_p.o(.constdata)
    qt_meta_data_QAudioOutputPrivate         0x00042574   Data         200  qaudiooutput_symbian_p.o(.constdata)
    qt_meta_stringdata_QAudioOutputPrivate   0x0004263c   Data         184  qaudiooutput_symbian_p.o(.constdata)
    .constdata$1                             0x00042714   Data           0  qsoundeffect_qsound_p.o(.constdata)
    qt_meta_data_QSoundEffectPrivate         0x00042714   Data         200  qsoundeffect_qsound_p.o(.constdata)
    .constdata                               0x00042714   Section      332  qsoundeffect_qsound_p.o(.constdata)
    qt_meta_stringdata_QSoundEffectPrivate   0x000427dc   Data         116  qsoundeffect_qsound_p.o(.constdata)
    .constdata$1                             0x00042860   Data           0  qsoundeffect.o(.constdata)
    qt_meta_data_QSoundEffect                0x00042860   Data         416  qsoundeffect.o(.constdata)
    .constdata                               0x00042860   Section      776  qsoundeffect.o(.constdata)
    qt_meta_stringdata_QSoundEffect          0x00042a00   Data         265  qsoundeffect.o(.constdata)
    .constdata$1                             0x00042b68   Data           0  qwavedecoder_p.o(.constdata)
    qt_meta_data_QWaveDecoder                0x00042b68   Data         120  qwavedecoder_p.o(.constdata)
    .constdata                               0x00042b68   Section      196  qwavedecoder_p.o(.constdata)
    qt_meta_stringdata_QWaveDecoder          0x00042be0   Data          58  qwavedecoder_p.o(.constdata)
    .constdata$1                             0x00042c2c   Data           0  qsamplecache_p.o(.constdata)
    qt_meta_data_QSample                     0x00042c2c   Data         180  qsamplecache_p.o(.constdata)
    .constdata                               0x00042c2c   Section      364  qsamplecache_p.o(.constdata)
    qt_meta_stringdata_QSample               0x00042ce0   Data          76  qsamplecache_p.o(.constdata)
    qt_meta_data_QSampleCache                0x00042d2c   Data          60  qsamplecache_p.o(.constdata)
    qt_meta_stringdata_QSampleCache          0x00042d68   Data          14  qsamplecache_p.o(.constdata)
    .constdata$1                             0x00042d98   Data           0  qabstractvideosurface.o(.constdata)
    qt_meta_data_QAbstractVideoSurface       0x00042d98   Data         156  qabstractvideosurface.o(.constdata)
    .constdata                               0x00042d98   Section      352  qabstractvideosurface.o(.constdata)
    qt_meta_stringdata_QAbstractVideoSurface 0x00042e34   Data         180  qabstractvideosurface.o(.constdata)
    .constdata__ZN9stlp_priv15_Integer_limitsIaLan128ELa127ELin1ELb1EE6digitsE 0x00042ef8   Section        4  moc_qaudio_symbian_p.o(.constdata__ZN9stlp_priv15_Integer_limitsIaLan128ELa127ELin1ELb1EE6digitsE)
    .constdata__ZN9stlp_priv15_Integer_limitsIbLb0ELb1ELi1ELb0EE6digitsE 0x00042efc   Section        4  moc_qaudio_symbian_p.o(.constdata__ZN9stlp_priv15_Integer_limitsIbLb0ELb1ELi1ELb0EE6digitsE)
    .constdata__ZN9stlp_priv15_Integer_limitsIcLc128ELc127ELin1ELb1EE6digitsE 0x00042f00   Section        4  moc_qaudio_symbian_p.o(.constdata__ZN9stlp_priv15_Integer_limitsIcLc128ELc127ELin1ELb1EE6digitsE)
    .constdata__ZN9stlp_priv15_Integer_limitsIhLh0ELh255ELin1ELb1EE6digitsE 0x00042f04   Section        4  moc_qaudio_symbian_p.o(.constdata__ZN9stlp_priv15_Integer_limitsIhLh0ELh255ELin1ELb1EE6digitsE)
    .constdata__ZN9stlp_priv15_Integer_limitsIiLin2147483648ELi2147483647ELin1ELb1EE6digitsE 0x00042f08   Section        4  moc_qaudio_symbian_p.o(.constdata__ZN9stlp_priv15_Integer_limitsIiLin2147483648ELi2147483647ELin1ELb1EE6digitsE)
    .constdata__ZN9stlp_priv15_Integer_limitsIiLin2147483648ELi2147483647ELin1ELb1EE9is_signedE 0x00042f0c   Section        1  moc_qaudio_symbian_p.o(.constdata__ZN9stlp_priv15_Integer_limitsIiLin2147483648ELi2147483647ELin1ELb1EE9is_signedE)
    .constdata__ZN9stlp_priv15_Integer_limitsIjLj0ELj4294967295ELin1ELb1EE6digitsE 0x00042f10   Section        4  moc_qaudio_symbian_p.o(.constdata__ZN9stlp_priv15_Integer_limitsIjLj0ELj4294967295ELin1ELb1EE6digitsE)
    .constdata__ZN9stlp_priv15_Integer_limitsIlLln2147483648ELl2147483647ELin1ELb1EE6digitsE 0x00042f14   Section        4  moc_qaudio_symbian_p.o(.constdata__ZN9stlp_priv15_Integer_limitsIlLln2147483648ELl2147483647ELin1ELb1EE6digitsE)
    .constdata__ZN9stlp_priv15_Integer_limitsImLm0ELm4294967295ELin1ELb1EE6digitsE 0x00042f18   Section        4  moc_qaudio_symbian_p.o(.constdata__ZN9stlp_priv15_Integer_limitsImLm0ELm4294967295ELin1ELb1EE6digitsE)
    .constdata__ZN9stlp_priv15_Integer_limitsIsLsn32768ELs32767ELin1ELb1EE6digitsE 0x00042f1c   Section        4  moc_qaudio_symbian_p.o(.constdata__ZN9stlp_priv15_Integer_limitsIsLsn32768ELs32767ELin1ELb1EE6digitsE)
    .constdata__ZN9stlp_priv15_Integer_limitsItLt0ELt65535ELin1ELb1EE6digitsE 0x00042f20   Section        4  moc_qaudio_symbian_p.o(.constdata__ZN9stlp_priv15_Integer_limitsItLt0ELt65535ELin1ELb1EE6digitsE)
    .constdata__ZN9stlp_priv15_Integer_limitsIwLw0ELw65535ELin1ELb1EE6digitsE 0x00042f24   Section        4  moc_qaudio_symbian_p.o(.constdata__ZN9stlp_priv15_Integer_limitsIwLw0ELw65535ELin1ELb1EE6digitsE)
    .constdata__ZN9stlp_priv15_Integer_limitsIxLxn9223372036854775808ELx9223372036854775807ELin1ELb1EE6digitsE 0x00042f28   Section        4  moc_qaudio_symbian_p.o(.constdata__ZN9stlp_priv15_Integer_limitsIxLxn9223372036854775808ELx9223372036854775807ELin1ELb1EE6digitsE)
    .constdata__ZN9stlp_priv15_Integer_limitsIyLy0ELy18446744073709551615ELin1ELb1EE6digitsE 0x00042f2c   Section        4  moc_qaudio_symbian_p.o(.constdata__ZN9stlp_priv15_Integer_limitsIyLy0ELy18446744073709551615ELin1ELb1EE6digitsE)
    .constdata__ZTI11QAudioInput             0x00042f30   Section       12  qaudioinput.o(.constdata__ZTI11QAudioInput)
    .constdata__ZTI11QRadioTuner             0x00042f3c   Section       12  qradiotuner.o(.constdata__ZTI11QRadioTuner)
    .constdata__ZTI12QAudioOutput            0x00042f48   Section       12  qaudiooutput.o(.constdata__ZTI12QAudioOutput)
    .constdata__ZTI12QCameraFocus            0x00042f54   Section       12  qcamerafocus.o(.constdata__ZTI12QCameraFocus)
    .constdata__ZTI12QMediaObject            0x00042f60   Section       12  qmediaobject.o(.constdata__ZTI12QMediaObject)
    .constdata__ZTI12QMediaPlayer            0x00042f6c   Section       12  qmediaplayer.o(.constdata__ZTI12QMediaPlayer)
    .constdata__ZTI12QSampleCache            0x00042f78   Section       24  qsamplecache_p.o(.constdata__ZTI12QSampleCache)
    .constdata__ZTI12QSoundEffect            0x00042f90   Section       12  qsoundeffect.o(.constdata__ZTI12QSoundEffect)
    .constdata__ZTI12QVideoWidget            0x00042f9c   Section       32  qvideowidget.o(.constdata__ZTI12QVideoWidget)
    .constdata__ZTI12QWaveDecoder            0x00042fbc   Section       12  qwavedecoder_p.o(.constdata__ZTI12QWaveDecoder)
    .constdata__ZTI13QMediaControl           0x00042fc8   Section       12  qmediacontrol.o(.constdata__ZTI13QMediaControl)
    .constdata__ZTI13QMediaService           0x00042fd4   Section       12  qmediaservice.o(.constdata__ZTI13QMediaService)
    .constdata__ZTI14QCameraControl          0x00042fe0   Section       12  qcameracontrol.o(.constdata__ZTI14QCameraControl)
    .constdata__ZTI14QCameraPrivate          0x00042fec   Section       12  qcamera.o(.constdata__ZTI14QCameraPrivate)
    .constdata__ZTI14QMediaPlaylist          0x00042ff8   Section       32  qmediaplaylist.o(.constdata__ZTI14QMediaPlaylist)
    .constdata__ZTI14QMediaRecorder          0x00043018   Section       32  qmediarecorder.o(.constdata__ZTI14QMediaRecorder)
    .constdata__ZTI15QCameraExposure         0x00043038   Section       12  qcameraexposure.o(.constdata__ZTI15QCameraExposure)
    .constdata__ZTI15QNullDeviceInfo         0x00043044   Section       12  qaudiodevicefactory.o(.constdata__ZTI15QNullDeviceInfo)
    .constdata__ZTI16QNullInputDevice        0x00043050   Section       12  qaudiodevicefactory.o(.constdata__ZTI16QNullInputDevice)
    .constdata__ZTI17MDevSoundObserver       0x0004305c   Section        8  moc_qaudio_symbian_p.o(.constdata__ZTI17MDevSoundObserver)
    .constdata__ZTI17QCameraViewfinder       0x00043064   Section       12  qcameraviewfinder.o(.constdata__ZTI17QCameraViewfinder)
    .constdata__ZTI17QFactoryInterface       0x00043070   Section        8  qmediaplaylistioplugin.o(.constdata__ZTI17QFactoryInterface)
    .constdata__ZTI17QImageVideoBuffer       0x00043078   Section       12  qimagevideobuffer.o(.constdata__ZTI17QImageVideoBuffer)
    .constdata__ZTI17QMediaImageViewer       0x00043084   Section       12  qmediaimageviewer.o(.constdata__ZTI17QMediaImageViewer)
    .constdata__ZTI17QNullOutputDevice       0x00043090   Section       12  qaudiodevicefactory.o(.constdata__ZTI17QNullOutputDevice)
    .constdata__ZTI18QAudioInputPrivate      0x0004309c   Section       12  qaudioinput_symbian_p.o(.constdata__ZTI18QAudioInputPrivate)
    .constdata__ZTI18QAudioSystemPlugin      0x000430a8   Section       32  qaudiosystemplugin.o(.constdata__ZTI18QAudioSystemPlugin)
    .constdata__ZTI18QGraphicsVideoItem      0x000430c8   Section       32  qgraphicsvideoitem_symbian.o(.constdata__ZTI18QGraphicsVideoItem)
    .constdata__ZTI18QMemoryVideoBuffer      0x000430e8   Section       12  qmemoryvideobuffer.o(.constdata__ZTI18QMemoryVideoBuffer)
    .constdata__ZTI18QRadioTunerControl      0x000430f4   Section       12  qradiotunercontrol.o(.constdata__ZTI18QRadioTunerControl)
    .constdata__ZTI18QRadioTunerPrivate      0x00043100   Section       12  qradiotuner.o(.constdata__ZTI18QRadioTunerPrivate)
    .constdata__ZTI19QAbstractAudioInput     0x0004310c   Section       12  qaudiosystem.o(.constdata__ZTI19QAbstractAudioInput)
    .constdata__ZTI19QAudioCaptureSource     0x00043118   Section       12  qaudiocapturesource.o(.constdata__ZTI19QAudioCaptureSource)
    .constdata__ZTI19QAudioOutputPrivate     0x00043124   Section       12  qaudiooutput_symbian_p.o(.constdata__ZTI19QAudioOutputPrivate)
    .constdata__ZTI19QCameraFlashControl     0x00043130   Section       12  qcameraflashcontrol.o(.constdata__ZTI19QCameraFlashControl)
    .constdata__ZTI19QCameraFocusControl     0x0004313c   Section       12  qcamerafocuscontrol.o(.constdata__ZTI19QCameraFocusControl)
    .constdata__ZTI19QCameraFocusPrivate     0x00043148   Section       12  qcamerafocus.o(.constdata__ZTI19QCameraFocusPrivate)
    .constdata__ZTI19QCameraImageCapture     0x00043154   Section       32  qcameraimagecapture.o(.constdata__ZTI19QCameraImageCapture)
    .constdata__ZTI19QCameraLocksControl     0x00043174   Section       12  qcameralockscontrol.o(.constdata__ZTI19QCameraLocksControl)
    .constdata__ZTI19QMediaObjectPrivate     0x00043180   Section        8  qmediaobject.o(.constdata__ZTI19QMediaObjectPrivate)
    .constdata__ZTI19QMediaPlayerControl     0x00043188   Section       12  qmediaplayercontrol.o(.constdata__ZTI19QMediaPlayerControl)
    .constdata__ZTI19QMediaPlayerPrivate     0x00043194   Section       12  qmediaplayer.o(.constdata__ZTI19QMediaPlayerPrivate)
    .constdata__ZTI19QSoundEffectPrivate     0x000431a0   Section       12  qsoundeffect_qsound_p.o(.constdata__ZTI19QSoundEffectPrivate)
    .constdata__ZTI19QVideoDeviceControl     0x000431ac   Section       12  qvideodevicecontrol.o(.constdata__ZTI19QVideoDeviceControl)
    .constdata__ZTI19QVideoWidgetBackend     0x000431b8   Section       32  qvideowidget.o(.constdata__ZTI19QVideoWidgetBackend)
    .constdata__ZTI19QVideoWidgetControl     0x000431d8   Section       12  qvideowidgetcontrol.o(.constdata__ZTI19QVideoWidgetControl)
    .constdata__ZTI19QVideoWindowControl     0x000431e4   Section       12  qvideowindowcontrol.o(.constdata__ZTI19QVideoWindowControl)
    .constdata__ZTI20QAbstractAudioOutput    0x000431f0   Section       12  qaudiosystem.o(.constdata__ZTI20QAbstractAudioOutput)
    .constdata__ZTI20QAbstractVideoBuffer    0x000431fc   Section        8  qabstractvideobuffer.o(.constdata__ZTI20QAbstractVideoBuffer)
    .constdata__ZTI20QAudioEncoderControl    0x00043204   Section       12  qaudioencodercontrol.o(.constdata__ZTI20QAudioEncoderControl)
    .constdata__ZTI20QImageEncoderControl    0x00043210   Section       12  qimageencodercontrol.o(.constdata__ZTI20QImageEncoderControl)
    .constdata__ZTI20QMediaControlPrivate    0x0004321c   Section        8  qmediacontrol.o(.constdata__ZTI20QMediaControlPrivate)
    .constdata__ZTI20QMediaPlaylistReader    0x00043224   Section        8  qmediaplaylistioplugin.o(.constdata__ZTI20QMediaPlaylistReader)
    .constdata__ZTI20QMediaPlaylistWriter    0x0004322c   Section        8  qmediaplaylistioplugin.o(.constdata__ZTI20QMediaPlaylistWriter)
    .constdata__ZTI20QMediaServicePrivate    0x00043234   Section        8  qmediaservice.o(.constdata__ZTI20QMediaServicePrivate)
    .constdata__ZTI20QMediaStreamsControl    0x0004323c   Section       12  qmediastreamscontrol.o(.constdata__ZTI20QMediaStreamsControl)
    .constdata__ZTI20QPainterVideoSurface    0x00043248   Section       12  qpaintervideosurface.o(.constdata__ZTI20QPainterVideoSurface)
    .constdata__ZTI20QVideoEncoderControl    0x00043254   Section       12  qvideoencodercontrol.o(.constdata__ZTI20QVideoEncoderControl)
    .constdata__ZTI20QVideoSurfacePainter    0x00043260   Section        8  qpaintervideosurface.o(.constdata__ZTI20QVideoSurfacePainter)
    .constdata__ZTI21QAbstractVideoSurface   0x00043268   Section       12  qabstractvideosurface.o(.constdata__ZTI21QAbstractVideoSurface)
    .constdata__ZTI21QMediaPlaylistControl   0x00043274   Section       12  qmediaplaylistcontrol.o(.constdata__ZTI21QMediaPlaylistControl)
    .constdata__ZTI21QMediaPlaylistPrivate   0x00043280   Section        8  qmediaplaylist.o(.constdata__ZTI21QMediaPlaylistPrivate)
    .constdata__ZTI21QMediaRecorderControl   0x00043288   Section       12  qmediarecordercontrol.o(.constdata__ZTI21QMediaRecorderControl)
    .constdata__ZTI21QMediaServiceProvider   0x00043294   Section       12  qmediaserviceprovider.o(.constdata__ZTI21QMediaServiceProvider)
    .constdata__ZTI21QVideoRendererControl   0x000432a0   Section       12  qvideorenderercontrol.o(.constdata__ZTI21QVideoRendererControl)
    .constdata__ZTI22QAudioEndpointSelector  0x000432ac   Section       12  qaudioendpointselector.o(.constdata__ZTI22QAudioEndpointSelector)
    .constdata__ZTI22QCameraExposureControl  0x000432b8   Section       12  qcameraexposurecontrol.o(.constdata__ZTI22QCameraExposureControl)
    .constdata__ZTI22QCameraImageProcessing  0x000432c4   Section       12  qcameraimageprocessing.o(.constdata__ZTI22QCameraImageProcessing)
    .constdata__ZTI22QMediaContainerControl  0x000432d0   Section       12  qmediacontainercontrol.o(.constdata__ZTI22QMediaContainerControl)
    .constdata__ZTI22QMediaPlaylistIOPlugin  0x000432dc   Section       32  qmediaplaylistioplugin.o(.constdata__ZTI22QMediaPlaylistIOPlugin)
    .constdata__ZTI22QMediaPlaylistProvider  0x000432fc   Section       12  qmediaplaylistprovider.o(.constdata__ZTI22QMediaPlaylistProvider)
    .constdata__ZTI22QMetaDataReaderControl  0x00043308   Section       12  qmetadatareadercontrol.o(.constdata__ZTI22QMetaDataReaderControl)
    .constdata__ZTI22QMetaDataWriterControl  0x00043314   Section       12  qmetadatawritercontrol.o(.constdata__ZTI22QMetaDataWriterControl)
    .constdata__ZTI22QPluginServiceProvider  0x00043320   Section       12  qmediaserviceprovider.o(.constdata__ZTI22QPluginServiceProvider)
    .constdata__ZTI23QMediaBindableInterface 0x0004332c   Section        8  qmediabindableinterface.o(.constdata__ZTI23QMediaBindableInterface)
    .constdata__ZTI23QMediaPlaylistNavigator 0x00043334   Section       12  qmediaplaylistnavigator.o(.constdata__ZTI23QMediaPlaylistNavigator)
    .constdata__ZTI24QAbstractAudioDeviceInfo 0x00043340   Section       12  qaudiosystem.o(.constdata__ZTI24QAbstractAudioDeviceInfo)
    .constdata__ZTI24QAudioDeviceInfoInternal 0x0004334c   Section       12  qaudiodeviceinfo_symbian_p.o(.constdata__ZTI24QAudioDeviceInfoInternal)
    .constdata__ZTI24QImageVideoBufferPrivate 0x00043358   Section       12  qimagevideobuffer.o(.constdata__ZTI24QImageVideoBufferPrivate)
    .constdata__ZTI24QMediaImageViewerControl 0x00043364   Section       12  qmediaimageviewerservice.o(.constdata__ZTI24QMediaImageViewerControl)
    .constdata__ZTI24QMediaImageViewerPrivate 0x00043370   Section       12  qmediaimageviewer.o(.constdata__ZTI24QMediaImageViewerPrivate)
    .constdata__ZTI24QMediaImageViewerService 0x0004337c   Section       12  qmediaimageviewerservice.o(.constdata__ZTI24QMediaImageViewerService)
    .constdata__ZTI24SymbianAudioInputPrivate 0x00043388   Section       12  qaudioinput_symbian_p.o(.constdata__ZTI24SymbianAudioInputPrivate)
    .constdata__ZTI25QGraphicsVideoItemPrivate 0x00043394   Section       12  qgraphicsvideoitem_symbian.o(.constdata__ZTI25QGraphicsVideoItemPrivate)
    .constdata__ZTI25QMediaImageViewerRenderer 0x000433a0   Section       12  qmediaimageviewerservice.o(.constdata__ZTI25QMediaImageViewerRenderer)
    .constdata__ZTI25QMediaPlaylistIOInterface 0x000433ac   Section       12  qmediaplaylistioplugin.o(.constdata__ZTI25QMediaPlaylistIOInterface)
    .constdata__ZTI25QMemoryVideoBufferPrivate 0x000433b8   Section       12  qmemoryvideobuffer.o(.constdata__ZTI25QMemoryVideoBufferPrivate)
    .constdata__ZTI25QWindowVideoWidgetBackend 0x000433c4   Section       12  qvideowidget.o(.constdata__ZTI25QWindowVideoWidgetBackend)
    .constdata__ZTI25SymbianAudioOutputPrivate 0x000433d0   Section       12  qaudiooutput_symbian_p.o(.constdata__ZTI25SymbianAudioOutputPrivate)
    .constdata__ZTI26QAudioCaptureSourcePrivate 0x000433dc   Section       12  qaudiocapturesource.o(.constdata__ZTI26QAudioCaptureSourcePrivate)
    .constdata__ZTI26QCameraImageCaptureControl 0x000433e8   Section       12  qcameraimagecapturecontrol.o(.constdata__ZTI26QCameraImageCaptureControl)
    .constdata__ZTI26QLocalMediaPlaylistControl 0x000433f4   Section       12  qmediaplaylist.o(.constdata__ZTI26QLocalMediaPlaylistControl)
    .constdata__ZTI26QMediaPlaylistNullProvider 0x00043400   Section       12  qmediaplaylistnavigator.o(.constdata__ZTI26QMediaPlaylistNullProvider)
    .constdata__ZTI26QVideoWidgetControlBackend 0x0004340c   Section       32  qvideowidget.o(.constdata__ZTI26QVideoWidgetControlBackend)
    .constdata__ZTI27QAbstractVideoBufferPrivate 0x0004342c   Section        8  qabstractvideobuffer.o(.constdata__ZTI27QAbstractVideoBufferPrivate)
    .constdata__ZTI27QLocalMediaPlaylistProvider 0x00043434   Section       12  qlocalmediaplaylistprovider.o(.constdata__ZTI27QLocalMediaPlaylistProvider)
    .constdata__ZTI27QMediaPlaylistSourceControl 0x00043440   Section       12  qmediaplaylistsourcecontrol.o(.constdata__ZTI27QMediaPlaylistSourceControl)
    .constdata__ZTI27QMediaServiceProviderPlugin 0x0004344c   Section       32  qmediaserviceprovider.o(.constdata__ZTI27QMediaServiceProviderPlugin)
    .constdata__ZTI27QRendererVideoWidgetBackend 0x0004346c   Section       12  qvideowidget.o(.constdata__ZTI27QRendererVideoWidgetBackend)
    .constdata__ZTI27QVideoSurfaceGenericPainter 0x00043478   Section       12  qpaintervideosurface.o(.constdata__ZTI27QVideoSurfaceGenericPainter)
    .constdata__ZTI28QAudioSystemFactoryInterface 0x00043484   Section       12  qaudiosystemplugin.o(.constdata__ZTI28QAudioSystemFactoryInterface)
    .constdata__ZTI28QVideoWidgetControlInterface 0x00043490   Section        8  qvideowidget.o(.constdata__ZTI28QVideoWidgetControlInterface)
    .constdata__ZTI29QCameraImageProcessingControl 0x00043498   Section       12  qcameraimageprocessingcontrol.o(.constdata__ZTI29QCameraImageProcessingControl)
    .constdata__ZTI29QCameraImageProcessingPrivate 0x000434a4   Section       12  qcameraimageprocessing.o(.constdata__ZTI29QCameraImageProcessingPrivate)
    .constdata__ZTI29QMediaPlaylistProviderPrivate 0x000434b0   Section        8  qlocalmediaplaylistprovider.o(.constdata__ZTI29QMediaPlaylistProviderPrivate)
    .constdata__ZTI31QMediaImageViewerControlPrivate 0x000434b8   Section       12  qmediaimageviewerservice.o(.constdata__ZTI31QMediaImageViewerControlPrivate)
    .constdata__ZTI31QMediaImageViewerServicePrivate 0x000434c4   Section       12  qmediaimageviewerservice.o(.constdata__ZTI31QMediaImageViewerServicePrivate)
    .constdata__ZTI34QLocalMediaPlaylistProviderPrivate 0x000434d0   Section       12  qlocalmediaplaylistprovider.o(.constdata__ZTI34QLocalMediaPlaylistProviderPrivate)
    .constdata__ZTI37QMediaServiceProviderFactoryInterface 0x000434dc   Section       12  qmediaserviceprovider.o(.constdata__ZTI37QMediaServiceProviderFactoryInterface)
    .constdata__ZTI7QCamera                  0x000434e8   Section       12  qcamera.o(.constdata__ZTI7QCamera)
    .constdata__ZTI7QSample                  0x000434f4   Section       12  qsamplecache_p.o(.constdata__ZTI7QSample)
    .constdata__ZTIN12SymbianAudio15DevSoundWrapperE 0x00043500   Section       32  moc_qaudio_symbian_p.o(.constdata__ZTIN12SymbianAudio15DevSoundWrapperE)
    .constdata__ZTS11QAudioInput             0x00043520   Section       14  qaudioinput.o(.constdata__ZTS11QAudioInput)
    .constdata__ZTS11QRadioTuner             0x0004352e   Section       14  qradiotuner.o(.constdata__ZTS11QRadioTuner)
    .constdata__ZTS12QAudioOutput            0x0004353c   Section       15  qaudiooutput.o(.constdata__ZTS12QAudioOutput)
    .constdata__ZTS12QCameraFocus            0x0004354b   Section       15  qcamerafocus.o(.constdata__ZTS12QCameraFocus)
    .constdata__ZTS12QMediaObject            0x0004355a   Section       15  qmediaobject.o(.constdata__ZTS12QMediaObject)
    .constdata__ZTS12QMediaPlayer            0x00043569   Section       15  qmediaplayer.o(.constdata__ZTS12QMediaPlayer)
    .constdata__ZTS12QSampleCache            0x00043578   Section       15  qsamplecache_p.o(.constdata__ZTS12QSampleCache)
    .constdata__ZTS12QSoundEffect            0x00043587   Section       15  qsoundeffect.o(.constdata__ZTS12QSoundEffect)
    .constdata__ZTS12QVideoWidget            0x00043596   Section       15  qvideowidget.o(.constdata__ZTS12QVideoWidget)
    .constdata__ZTS12QWaveDecoder            0x000435a5   Section       15  qwavedecoder_p.o(.constdata__ZTS12QWaveDecoder)
    .constdata__ZTS13QMediaControl           0x000435b4   Section       16  qmediacontrol.o(.constdata__ZTS13QMediaControl)
    .constdata__ZTS13QMediaService           0x000435c4   Section       16  qmediaservice.o(.constdata__ZTS13QMediaService)
    .constdata__ZTS14QCameraControl          0x000435d4   Section       17  qcameracontrol.o(.constdata__ZTS14QCameraControl)
    .constdata__ZTS14QCameraPrivate          0x000435e5   Section       17  qcamera.o(.constdata__ZTS14QCameraPrivate)
    .constdata__ZTS14QMediaPlaylist          0x000435f6   Section       17  qmediaplaylist.o(.constdata__ZTS14QMediaPlaylist)
    .constdata__ZTS14QMediaRecorder          0x00043607   Section       17  qmediarecorder.o(.constdata__ZTS14QMediaRecorder)
    .constdata__ZTS15QCameraExposure         0x00043618   Section       18  qcameraexposure.o(.constdata__ZTS15QCameraExposure)
    .constdata__ZTS15QNullDeviceInfo         0x0004362a   Section       18  qaudiodevicefactory.o(.constdata__ZTS15QNullDeviceInfo)
    .constdata__ZTS16QNullInputDevice        0x0004363c   Section       19  qaudiodevicefactory.o(.constdata__ZTS16QNullInputDevice)
    .constdata__ZTS17MDevSoundObserver       0x0004364f   Section       20  moc_qaudio_symbian_p.o(.constdata__ZTS17MDevSoundObserver)
    .constdata__ZTS17QCameraViewfinder       0x00043663   Section       20  qcameraviewfinder.o(.constdata__ZTS17QCameraViewfinder)
    .constdata__ZTS17QFactoryInterface       0x00043677   Section       20  qmediaplaylistioplugin.o(.constdata__ZTS17QFactoryInterface)
    .constdata__ZTS17QImageVideoBuffer       0x0004368b   Section       20  qimagevideobuffer.o(.constdata__ZTS17QImageVideoBuffer)
    .constdata__ZTS17QMediaImageViewer       0x0004369f   Section       20  qmediaimageviewer.o(.constdata__ZTS17QMediaImageViewer)
    .constdata__ZTS17QNullOutputDevice       0x000436b3   Section       20  qaudiodevicefactory.o(.constdata__ZTS17QNullOutputDevice)
    .constdata__ZTS18QAudioInputPrivate      0x000436c7   Section       21  qaudioinput_symbian_p.o(.constdata__ZTS18QAudioInputPrivate)
    .constdata__ZTS18QAudioSystemPlugin      0x000436dc   Section       21  qaudiosystemplugin.o(.constdata__ZTS18QAudioSystemPlugin)
    .constdata__ZTS18QGraphicsVideoItem      0x000436f1   Section       21  qgraphicsvideoitem_symbian.o(.constdata__ZTS18QGraphicsVideoItem)
    .constdata__ZTS18QMemoryVideoBuffer      0x00043706   Section       21  qmemoryvideobuffer.o(.constdata__ZTS18QMemoryVideoBuffer)
    .constdata__ZTS18QRadioTunerControl      0x0004371b   Section       21  qradiotunercontrol.o(.constdata__ZTS18QRadioTunerControl)
    .constdata__ZTS18QRadioTunerPrivate      0x00043730   Section       21  qradiotuner.o(.constdata__ZTS18QRadioTunerPrivate)
    .constdata__ZTS19QAbstractAudioInput     0x00043745   Section       22  qaudiosystem.o(.constdata__ZTS19QAbstractAudioInput)
    .constdata__ZTS19QAudioCaptureSource     0x0004375b   Section       22  qaudiocapturesource.o(.constdata__ZTS19QAudioCaptureSource)
    .constdata__ZTS19QAudioOutputPrivate     0x00043771   Section       22  qaudiooutput_symbian_p.o(.constdata__ZTS19QAudioOutputPrivate)
    .constdata__ZTS19QCameraFlashControl     0x00043787   Section       22  qcameraflashcontrol.o(.constdata__ZTS19QCameraFlashControl)
    .constdata__ZTS19QCameraFocusControl     0x0004379d   Section       22  qcamerafocuscontrol.o(.constdata__ZTS19QCameraFocusControl)
    .constdata__ZTS19QCameraFocusPrivate     0x000437b3   Section       22  qcamerafocus.o(.constdata__ZTS19QCameraFocusPrivate)
    .constdata__ZTS19QCameraImageCapture     0x000437c9   Section       22  qcameraimagecapture.o(.constdata__ZTS19QCameraImageCapture)
    .constdata__ZTS19QCameraLocksControl     0x000437df   Section       22  qcameralockscontrol.o(.constdata__ZTS19QCameraLocksControl)
    .constdata__ZTS19QMediaObjectPrivate     0x000437f5   Section       22  qmediaobject.o(.constdata__ZTS19QMediaObjectPrivate)
    .constdata__ZTS19QMediaPlayerControl     0x0004380b   Section       22  qmediaplayercontrol.o(.constdata__ZTS19QMediaPlayerControl)
    .constdata__ZTS19QMediaPlayerPrivate     0x00043821   Section       22  qmediaplayer.o(.constdata__ZTS19QMediaPlayerPrivate)
    .constdata__ZTS19QSoundEffectPrivate     0x00043837   Section       22  qsoundeffect_qsound_p.o(.constdata__ZTS19QSoundEffectPrivate)
    .constdata__ZTS19QVideoDeviceControl     0x0004384d   Section       22  qvideodevicecontrol.o(.constdata__ZTS19QVideoDeviceControl)
    .constdata__ZTS19QVideoWidgetBackend     0x00043863   Section       22  qvideowidget.o(.constdata__ZTS19QVideoWidgetBackend)
    .constdata__ZTS19QVideoWidgetControl     0x00043879   Section       22  qvideowidgetcontrol.o(.constdata__ZTS19QVideoWidgetControl)
    .constdata__ZTS19QVideoWindowControl     0x0004388f   Section       22  qvideowindowcontrol.o(.constdata__ZTS19QVideoWindowControl)
    .constdata__ZTS20QAbstractAudioOutput    0x000438a5   Section       23  qaudiosystem.o(.constdata__ZTS20QAbstractAudioOutput)
    .constdata__ZTS20QAbstractVideoBuffer    0x000438bc   Section       23  qabstractvideobuffer.o(.constdata__ZTS20QAbstractVideoBuffer)
    .constdata__ZTS20QAudioEncoderControl    0x000438d3   Section       23  qaudioencodercontrol.o(.constdata__ZTS20QAudioEncoderControl)
    .constdata__ZTS20QImageEncoderControl    0x000438ea   Section       23  qimageencodercontrol.o(.constdata__ZTS20QImageEncoderControl)
    .constdata__ZTS20QMediaControlPrivate    0x00043901   Section       23  qmediacontrol.o(.constdata__ZTS20QMediaControlPrivate)
    .constdata__ZTS20QMediaPlaylistReader    0x00043918   Section       23  qmediaplaylistioplugin.o(.constdata__ZTS20QMediaPlaylistReader)
    .constdata__ZTS20QMediaPlaylistWriter    0x0004392f   Section       23  qmediaplaylistioplugin.o(.constdata__ZTS20QMediaPlaylistWriter)
    .constdata__ZTS20QMediaServicePrivate    0x00043946   Section       23  qmediaservice.o(.constdata__ZTS20QMediaServicePrivate)
    .constdata__ZTS20QMediaStreamsControl    0x0004395d   Section       23  qmediastreamscontrol.o(.constdata__ZTS20QMediaStreamsControl)
    .constdata__ZTS20QPainterVideoSurface    0x00043974   Section       23  qpaintervideosurface.o(.constdata__ZTS20QPainterVideoSurface)
    .constdata__ZTS20QVideoEncoderControl    0x0004398b   Section       23  qvideoencodercontrol.o(.constdata__ZTS20QVideoEncoderControl)
    .constdata__ZTS20QVideoSurfacePainter    0x000439a2   Section       23  qpaintervideosurface.o(.constdata__ZTS20QVideoSurfacePainter)
    .constdata__ZTS21QAbstractVideoSurface   0x000439b9   Section       24  qabstractvideosurface.o(.constdata__ZTS21QAbstractVideoSurface)
    .constdata__ZTS21QMediaPlaylistControl   0x000439d1   Section       24  qmediaplaylistcontrol.o(.constdata__ZTS21QMediaPlaylistControl)
    .constdata__ZTS21QMediaPlaylistPrivate   0x000439e9   Section       24  qmediaplaylist.o(.constdata__ZTS21QMediaPlaylistPrivate)
    .constdata__ZTS21QMediaRecorderControl   0x00043a01   Section       24  qmediarecordercontrol.o(.constdata__ZTS21QMediaRecorderControl)
    .constdata__ZTS21QMediaServiceProvider   0x00043a19   Section       24  qmediaserviceprovider.o(.constdata__ZTS21QMediaServiceProvider)
    .constdata__ZTS21QVideoRendererControl   0x00043a31   Section       24  qvideorenderercontrol.o(.constdata__ZTS21QVideoRendererControl)
    .constdata__ZTS22QAudioEndpointSelector  0x00043a49   Section       25  qaudioendpointselector.o(.constdata__ZTS22QAudioEndpointSelector)
    .constdata__ZTS22QCameraExposureControl  0x00043a62   Section       25  qcameraexposurecontrol.o(.constdata__ZTS22QCameraExposureControl)
    .constdata__ZTS22QCameraImageProcessing  0x00043a7b   Section       25  qcameraimageprocessing.o(.constdata__ZTS22QCameraImageProcessing)
    .constdata__ZTS22QMediaContainerControl  0x00043a94   Section       25  qmediacontainercontrol.o(.constdata__ZTS22QMediaContainerControl)
    .constdata__ZTS22QMediaPlaylistIOPlugin  0x00043aad   Section       25  qmediaplaylistioplugin.o(.constdata__ZTS22QMediaPlaylistIOPlugin)
    .constdata__ZTS22QMediaPlaylistProvider  0x00043ac6   Section       25  qmediaplaylistprovider.o(.constdata__ZTS22QMediaPlaylistProvider)
    .constdata__ZTS22QMetaDataReaderControl  0x00043adf   Section       25  qmetadatareadercontrol.o(.constdata__ZTS22QMetaDataReaderControl)
    .constdata__ZTS22QMetaDataWriterControl  0x00043af8   Section       25  qmetadatawritercontrol.o(.constdata__ZTS22QMetaDataWriterControl)
    .constdata__ZTS22QPluginServiceProvider  0x00043b11   Section       25  qmediaserviceprovider.o(.constdata__ZTS22QPluginServiceProvider)
    .constdata__ZTS23QMediaBindableInterface 0x00043b2a   Section       26  qmediabindableinterface.o(.constdata__ZTS23QMediaBindableInterface)
    .constdata__ZTS23QMediaPlaylistNavigator 0x00043b44   Section       26  qmediaplaylistnavigator.o(.constdata__ZTS23QMediaPlaylistNavigator)
    .constdata__ZTS24QAbstractAudioDeviceInfo 0x00043b5e   Section       27  qaudiosystem.o(.constdata__ZTS24QAbstractAudioDeviceInfo)
    .constdata__ZTS24QAudioDeviceInfoInternal 0x00043b79   Section       27  qaudiodeviceinfo_symbian_p.o(.constdata__ZTS24QAudioDeviceInfoInternal)
    .constdata__ZTS24QImageVideoBufferPrivate 0x00043b94   Section       27  qimagevideobuffer.o(.constdata__ZTS24QImageVideoBufferPrivate)
    .constdata__ZTS24QMediaImageViewerControl 0x00043baf   Section       27  qmediaimageviewerservice.o(.constdata__ZTS24QMediaImageViewerControl)
    .constdata__ZTS24QMediaImageViewerPrivate 0x00043bca   Section       27  qmediaimageviewer.o(.constdata__ZTS24QMediaImageViewerPrivate)
    .constdata__ZTS24QMediaImageViewerService 0x00043be5   Section       27  qmediaimageviewerservice.o(.constdata__ZTS24QMediaImageViewerService)
    .constdata__ZTS24SymbianAudioInputPrivate 0x00043c00   Section       27  qaudioinput_symbian_p.o(.constdata__ZTS24SymbianAudioInputPrivate)
    .constdata__ZTS25QGraphicsVideoItemPrivate 0x00043c1b   Section       28  qgraphicsvideoitem_symbian.o(.constdata__ZTS25QGraphicsVideoItemPrivate)
    .constdata__ZTS25QMediaImageViewerRenderer 0x00043c37   Section       28  qmediaimageviewerservice.o(.constdata__ZTS25QMediaImageViewerRenderer)
    .constdata__ZTS25QMediaPlaylistIOInterface 0x00043c53   Section       28  qmediaplaylistioplugin.o(.constdata__ZTS25QMediaPlaylistIOInterface)
    .constdata__ZTS25QMemoryVideoBufferPrivate 0x00043c6f   Section       28  qmemoryvideobuffer.o(.constdata__ZTS25QMemoryVideoBufferPrivate)
    .constdata__ZTS25QWindowVideoWidgetBackend 0x00043c8b   Section       28  qvideowidget.o(.constdata__ZTS25QWindowVideoWidgetBackend)
    .constdata__ZTS25SymbianAudioOutputPrivate 0x00043ca7   Section       28  qaudiooutput_symbian_p.o(.constdata__ZTS25SymbianAudioOutputPrivate)
    .constdata__ZTS26QAudioCaptureSourcePrivate 0x00043cc3   Section       29  qaudiocapturesource.o(.constdata__ZTS26QAudioCaptureSourcePrivate)
    .constdata__ZTS26QCameraImageCaptureControl 0x00043ce0   Section       29  qcameraimagecapturecontrol.o(.constdata__ZTS26QCameraImageCaptureControl)
    .constdata__ZTS26QLocalMediaPlaylistControl 0x00043cfd   Section       29  qmediaplaylist.o(.constdata__ZTS26QLocalMediaPlaylistControl)
    .constdata__ZTS26QMediaPlaylistNullProvider 0x00043d1a   Section       29  qmediaplaylistnavigator.o(.constdata__ZTS26QMediaPlaylistNullProvider)
    .constdata__ZTS26QVideoWidgetControlBackend 0x00043d37   Section       29  qvideowidget.o(.constdata__ZTS26QVideoWidgetControlBackend)
    .constdata__ZTS27QAbstractVideoBufferPrivate 0x00043d54   Section       30  qabstractvideobuffer.o(.constdata__ZTS27QAbstractVideoBufferPrivate)
    .constdata__ZTS27QLocalMediaPlaylistProvider 0x00043d72   Section       30  qlocalmediaplaylistprovider.o(.constdata__ZTS27QLocalMediaPlaylistProvider)
    .constdata__ZTS27QMediaPlaylistSourceControl 0x00043d90   Section       30  qmediaplaylistsourcecontrol.o(.constdata__ZTS27QMediaPlaylistSourceControl)
    .constdata__ZTS27QMediaServiceProviderPlugin 0x00043dae   Section       30  qmediaserviceprovider.o(.constdata__ZTS27QMediaServiceProviderPlugin)
    .constdata__ZTS27QRendererVideoWidgetBackend 0x00043dcc   Section       30  qvideowidget.o(.constdata__ZTS27QRendererVideoWidgetBackend)
    .constdata__ZTS27QVideoSurfaceGenericPainter 0x00043dea   Section       30  qpaintervideosurface.o(.constdata__ZTS27QVideoSurfaceGenericPainter)
    .constdata__ZTS28QAudioSystemFactoryInterface 0x00043e08   Section       31  qaudiosystemplugin.o(.constdata__ZTS28QAudioSystemFactoryInterface)
    .constdata__ZTS28QVideoWidgetControlInterface 0x00043e27   Section       31  qvideowidget.o(.constdata__ZTS28QVideoWidgetControlInterface)
    .constdata__ZTS29QCameraImageProcessingControl 0x00043e46   Section       32  qcameraimageprocessingcontrol.o(.constdata__ZTS29QCameraImageProcessingControl)
    .constdata__ZTS29QCameraImageProcessingPrivate 0x00043e66   Section       32  qcameraimageprocessing.o(.constdata__ZTS29QCameraImageProcessingPrivate)
    .constdata__ZTS29QMediaPlaylistProviderPrivate 0x00043e86   Section       32  qlocalmediaplaylistprovider.o(.constdata__ZTS29QMediaPlaylistProviderPrivate)
    .constdata__ZTS31QMediaImageViewerControlPrivate 0x00043ea6   Section       34  qmediaimageviewerservice.o(.constdata__ZTS31QMediaImageViewerControlPrivate)
    .constdata__ZTS31QMediaImageViewerServicePrivate 0x00043ec8   Section       34  qmediaimageviewerservice.o(.constdata__ZTS31QMediaImageViewerServicePrivate)
    .constdata__ZTS34QLocalMediaPlaylistProviderPrivate 0x00043eea   Section       37  qlocalmediaplaylistprovider.o(.constdata__ZTS34QLocalMediaPlaylistProviderPrivate)
    .constdata__ZTS37QMediaServiceProviderFactoryInterface 0x00043f0f   Section       40  qmediaserviceprovider.o(.constdata__ZTS37QMediaServiceProviderFactoryInterface)
    .constdata__ZTS7QCamera                  0x00043f37   Section        9  qcamera.o(.constdata__ZTS7QCamera)
    .constdata__ZTS7QSample                  0x00043f40   Section        9  qsamplecache_p.o(.constdata__ZTS7QSample)
    .constdata__ZTSN12SymbianAudio15DevSoundWrapperE 0x00043f49   Section       34  moc_qaudio_symbian_p.o(.constdata__ZTSN12SymbianAudio15DevSoundWrapperE)
    .constdata__ZTV11QAudioInput             0x00043f6c   Section       56  qaudioinput.o(.constdata__ZTV11QAudioInput)
    .constdata__ZTV11QRadioTuner             0x00043fa4   Section       76  qradiotuner.o(.constdata__ZTV11QRadioTuner)
    .constdata__ZTV12QAudioOutput            0x00043ff0   Section       56  qaudiooutput.o(.constdata__ZTV12QAudioOutput)
    .constdata__ZTV12QCameraFocus            0x00044028   Section       56  qcamerafocus.o(.constdata__ZTV12QCameraFocus)
    .constdata__ZTV12QMediaObject            0x00044060   Section       76  qmediaobject.o(.constdata__ZTV12QMediaObject)
    .constdata__ZTV12QMediaPlayer            0x000440ac   Section       76  qmediaplayer.o(.constdata__ZTV12QMediaPlayer)
    .constdata__ZTV12QSampleCache            0x000440f8   Section       56  qsamplecache_p.o(.constdata__ZTV12QSampleCache)
    .constdata__ZTV12QSoundEffect            0x00044130   Section       56  qsoundeffect.o(.constdata__ZTV12QSoundEffect)
    .constdata__ZTV12QVideoWidget            0x00044168   Section      280  qvideowidget.o(.constdata__ZTV12QVideoWidget)
    .constdata__ZTV12QWaveDecoder            0x00044280   Section      120  qwavedecoder_p.o(.constdata__ZTV12QWaveDecoder)
    .constdata__ZTV13QMediaControl           0x000442f8   Section       56  qmediacontrol.o(.constdata__ZTV13QMediaControl)
    .constdata__ZTV13QMediaService           0x00044330   Section       64  qmediaservice.o(.constdata__ZTV13QMediaService)
    .constdata__ZTV14QCameraControl          0x00044370   Section       84  qcameracontrol.o(.constdata__ZTV14QCameraControl)
    .constdata__ZTV14QCameraPrivate          0x000443c4   Section       16  qcamera.o(.constdata__ZTV14QCameraPrivate)
    .constdata__ZTV14QMediaPlaylist          0x000443d4   Section       88  qmediaplaylist.o(.constdata__ZTV14QMediaPlaylist)
    .constdata__ZTV14QMediaRecorder          0x0004442c   Section       88  qmediarecorder.o(.constdata__ZTV14QMediaRecorder)
    .constdata__ZTV15QCameraExposure         0x00044484   Section       56  qcameraexposure.o(.constdata__ZTV15QCameraExposure)
    .constdata__ZTV15QNullDeviceInfo         0x000444bc   Section       92  qaudiodevicefactory.o(.constdata__ZTV15QNullDeviceInfo)
    .constdata__ZTV16QNullInputDevice        0x00044518   Section      128  qaudiodevicefactory.o(.constdata__ZTV16QNullInputDevice)
    .constdata__ZTV17MDevSoundObserver       0x00044598   Section       44  qaudio_symbian_p.o(.constdata__ZTV17MDevSoundObserver)
    .constdata__ZTV17QCameraViewfinder       0x000445c4   Section      280  qcameraviewfinder.o(.constdata__ZTV17QCameraViewfinder)
    .constdata__ZTV17QFactoryInterface       0x000446dc   Section       20  qmediaplaylistioplugin.o(.constdata__ZTV17QFactoryInterface)
    .constdata__ZTV17QImageVideoBuffer       0x000446f0   Section       32  qimagevideobuffer.o(.constdata__ZTV17QImageVideoBuffer)
    .constdata__ZTV17QMediaImageViewer       0x00044710   Section       76  qmediaimageviewer.o(.constdata__ZTV17QMediaImageViewer)
    .constdata__ZTV17QNullOutputDevice       0x0004475c   Section      128  qaudiodevicefactory.o(.constdata__ZTV17QNullOutputDevice)
    .constdata__ZTV18QAudioInputPrivate      0x000447dc   Section      128  qaudioinput_symbian_p.o(.constdata__ZTV18QAudioInputPrivate)
    .constdata__ZTV18QAudioSystemPlugin      0x0004485c   Section      112  qaudiosystemplugin.o(.constdata__ZTV18QAudioSystemPlugin)
    .constdata__ZTV18QGraphicsVideoItem      0x000448cc   Section      256  qgraphicsvideoitem_symbian.o(.constdata__ZTV18QGraphicsVideoItem)
    .constdata__ZTV18QMemoryVideoBuffer      0x000449cc   Section       32  qmemoryvideobuffer.o(.constdata__ZTV18QMemoryVideoBuffer)
    .constdata__ZTV18QRadioTunerControl      0x000449ec   Section      160  qradiotunercontrol.o(.constdata__ZTV18QRadioTunerControl)
    .constdata__ZTV18QRadioTunerPrivate      0x00044a8c   Section       16  qradiotuner.o(.constdata__ZTV18QRadioTunerPrivate)
    .constdata__ZTV19QAbstractAudioInput     0x00044a9c   Section      128  qaudiosystem.o(.constdata__ZTV19QAbstractAudioInput)
    .constdata__ZTV19QAudioCaptureSource     0x00044b1c   Section       76  qaudiocapturesource.o(.constdata__ZTV19QAudioCaptureSource)
    .constdata__ZTV19QAudioOutputPrivate     0x00044b68   Section      128  qaudiooutput_symbian_p.o(.constdata__ZTV19QAudioOutputPrivate)
    .constdata__ZTV19QCameraFlashControl     0x00044be8   Section       72  qcameraflashcontrol.o(.constdata__ZTV19QCameraFlashControl)
    .constdata__ZTV19QCameraFocusControl     0x00044c30   Section      112  qcamerafocuscontrol.o(.constdata__ZTV19QCameraFocusControl)
    .constdata__ZTV19QCameraFocusPrivate     0x00044ca0   Section       16  qcamerafocus.o(.constdata__ZTV19QCameraFocusPrivate)
    .constdata__ZTV19QCameraImageCapture     0x00044cb0   Section       88  qcameraimagecapture.o(.constdata__ZTV19QCameraImageCapture)
    .constdata__ZTV19QCameraLocksControl     0x00044d08   Section       72  qcameralockscontrol.o(.constdata__ZTV19QCameraLocksControl)
    .constdata__ZTV19QMediaObjectPrivate     0x00044d50   Section       16  qmediaobject.o(.constdata__ZTV19QMediaObjectPrivate)
    .constdata__ZTV19QMediaPlayerControl     0x00044d60   Section      144  qmediaplayercontrol.o(.constdata__ZTV19QMediaPlayerControl)
    .constdata__ZTV19QMediaPlayerPrivate     0x00044df0   Section       16  qmediaplayer.o(.constdata__ZTV19QMediaPlayerPrivate)
    .constdata__ZTV19QSoundEffectPrivate     0x00044e00   Section       56  qsoundeffect_qsound_p.o(.constdata__ZTV19QSoundEffectPrivate)
    .constdata__ZTV19QVideoDeviceControl     0x00044e38   Section       84  qvideodevicecontrol.o(.constdata__ZTV19QVideoDeviceControl)
    .constdata__ZTV19QVideoWidgetBackend     0x00044e8c   Section      124  qvideowidget.o(.constdata__ZTV19QVideoWidgetBackend)
    .constdata__ZTV19QVideoWidgetControl     0x00044f08   Section      108  qvideowidgetcontrol.o(.constdata__ZTV19QVideoWidgetControl)
    .constdata__ZTV19QVideoWindowControl     0x00044f74   Section      128  qvideowindowcontrol.o(.constdata__ZTV19QVideoWindowControl)
    .constdata__ZTV20QAbstractAudioOutput    0x00044ff4   Section      128  qaudiosystem.o(.constdata__ZTV20QAbstractAudioOutput)
    .constdata__ZTV20QAbstractVideoBuffer    0x00045074   Section       32  qabstractvideobuffer.o(.constdata__ZTV20QAbstractVideoBuffer)
    .constdata__ZTV20QAudioEncoderControl    0x00045094   Section       88  qaudioencodercontrol.o(.constdata__ZTV20QAudioEncoderControl)
    .constdata__ZTV20QImageEncoderControl    0x000450ec   Section       76  qimageencodercontrol.o(.constdata__ZTV20QImageEncoderControl)
    .constdata__ZTV20QMediaControlPrivate    0x00045138   Section       16  qmediacontrol.o(.constdata__ZTV20QMediaControlPrivate)
    .constdata__ZTV20QMediaPlaylistReader    0x00045148   Section       28  qmediaplaylistioplugin.o(.constdata__ZTV20QMediaPlaylistReader)
    .constdata__ZTV20QMediaPlaylistWriter    0x00045164   Section       24  qmediaplaylistioplugin.o(.constdata__ZTV20QMediaPlaylistWriter)
    .constdata__ZTV20QMediaServicePrivate    0x0004517c   Section       16  qmediaservice.o(.constdata__ZTV20QMediaServicePrivate)
    .constdata__ZTV20QMediaStreamsControl    0x0004518c   Section       76  qmediastreamscontrol.o(.constdata__ZTV20QMediaStreamsControl)
    .constdata__ZTV20QPainterVideoSurface    0x000451d8   Section       80  qpaintervideosurface.o(.constdata__ZTV20QPainterVideoSurface)
    .constdata__ZTV20QVideoEncoderControl    0x00045228   Section       92  qvideoencodercontrol.o(.constdata__ZTV20QVideoEncoderControl)
    .constdata__ZTV20QVideoSurfacePainter    0x00045284   Section       48  qpaintervideosurface.o(.constdata__ZTV20QVideoSurfacePainter)
    .constdata__ZTV21QAbstractVideoSurface   0x000452b4   Section       80  qabstractvideosurface.o(.constdata__ZTV21QAbstractVideoSurface)
    .constdata__ZTV21QMediaPlaylistControl   0x00045304   Section       96  qmediaplaylistcontrol.o(.constdata__ZTV21QMediaPlaylistControl)
    .constdata__ZTV21QMediaPlaylistPrivate   0x00045364   Section       16  qmediaplaylist.o(.constdata__ZTV21QMediaPlaylistPrivate)
    .constdata__ZTV21QMediaRecorderControl   0x00045374   Section       96  qmediarecordercontrol.o(.constdata__ZTV21QMediaRecorderControl)
    .constdata__ZTV21QMediaServiceProvider   0x000453d4   Section       80  qmediaserviceprovider.o(.constdata__ZTV21QMediaServiceProvider)
    .constdata__ZTV21QVideoRendererControl   0x00045424   Section       64  qvideorenderercontrol.o(.constdata__ZTV21QVideoRendererControl)
    .constdata__ZTV22QAudioEndpointSelector  0x00045464   Section       76  qaudioendpointselector.o(.constdata__ZTV22QAudioEndpointSelector)
    .constdata__ZTV22QCameraExposureControl  0x000454b0   Section      104  qcameraexposurecontrol.o(.constdata__ZTV22QCameraExposureControl)
    .constdata__ZTV22QCameraImageProcessing  0x00045518   Section       56  qcameraimageprocessing.o(.constdata__ZTV22QCameraImageProcessing)
    .constdata__ZTV22QMediaContainerControl  0x00045550   Section       72  qmediacontainercontrol.o(.constdata__ZTV22QMediaContainerControl)
    .constdata__ZTV22QMediaPlaylistIOPlugin  0x00045598   Section      128  qmediaplaylistioplugin.o(.constdata__ZTV22QMediaPlaylistIOPlugin)
    .constdata__ZTV22QMediaPlaylistProvider  0x00045618   Section      116  qmediaplaylistprovider.o(.constdata__ZTV22QMediaPlaylistProvider)
    .constdata__ZTV22QMetaDataReaderControl  0x0004568c   Section       76  qmetadatareadercontrol.o(.constdata__ZTV22QMetaDataReaderControl)
    .constdata__ZTV22QMetaDataWriterControl  0x000456d8   Section       88  qmetadatawritercontrol.o(.constdata__ZTV22QMetaDataWriterControl)
    .constdata__ZTV22QPluginServiceProvider  0x00045730   Section       80  qmediaserviceprovider.o(.constdata__ZTV22QPluginServiceProvider)
    .constdata__ZTV23QMediaBindableInterface 0x00045780   Section       24  qmediabindableinterface.o(.constdata__ZTV23QMediaBindableInterface)
    .constdata__ZTV23QMediaPlaylistNavigator 0x00045798   Section       56  qmediaplaylistnavigator.o(.constdata__ZTV23QMediaPlaylistNavigator)
    .constdata__ZTV24QAbstractAudioDeviceInfo 0x000457d0   Section       92  qaudiosystem.o(.constdata__ZTV24QAbstractAudioDeviceInfo)
    .constdata__ZTV24QAudioDeviceInfoInternal 0x0004582c   Section       92  qaudiodeviceinfo_symbian_p.o(.constdata__ZTV24QAudioDeviceInfoInternal)
    .constdata__ZTV24QImageVideoBufferPrivate 0x00045888   Section       16  qimagevideobuffer.o(.constdata__ZTV24QImageVideoBufferPrivate)
    .constdata__ZTV24QMediaImageViewerControl 0x00045898   Section       56  qmediaimageviewerservice.o(.constdata__ZTV24QMediaImageViewerControl)
    .constdata__ZTV24QMediaImageViewerPrivate 0x000458d0   Section       16  qmediaimageviewer.o(.constdata__ZTV24QMediaImageViewerPrivate)
    .constdata__ZTV24QMediaImageViewerService 0x000458e0   Section       64  qmediaimageviewerservice.o(.constdata__ZTV24QMediaImageViewerService)
    .constdata__ZTV24SymbianAudioInputPrivate 0x00045920   Section      120  qaudioinput_symbian_p.o(.constdata__ZTV24SymbianAudioInputPrivate)
    .constdata__ZTV25QGraphicsVideoItemPrivate 0x00045998   Section       56  qgraphicsvideoitem_symbian.o(.constdata__ZTV25QGraphicsVideoItemPrivate)
    .constdata__ZTV25QMediaImageViewerRenderer 0x000459d0   Section       64  qmediaimageviewerservice.o(.constdata__ZTV25QMediaImageViewerRenderer)
    .constdata__ZTV25QMediaPlaylistIOInterface 0x00045a10   Section       44  qmediaplaylistioplugin.o(.constdata__ZTV25QMediaPlaylistIOInterface)
    .constdata__ZTV25QMemoryVideoBufferPrivate 0x00045a3c   Section       16  qmemoryvideobuffer.o(.constdata__ZTV25QMemoryVideoBufferPrivate)
    .constdata__ZTV25QWindowVideoWidgetBackend 0x00045a4c   Section      152  qvideowidget.o(.constdata__ZTV25QWindowVideoWidgetBackend)
    .constdata__ZTV25SymbianAudioOutputPrivate 0x00045ae4   Section      120  qaudiooutput_symbian_p.o(.constdata__ZTV25SymbianAudioOutputPrivate)
    .constdata__ZTV26QAudioCaptureSourcePrivate 0x00045b5c   Section       16  qaudiocapturesource.o(.constdata__ZTV26QAudioCaptureSourcePrivate)
    .constdata__ZTV26QCameraImageCaptureControl 0x00045b6c   Section       76  qcameraimagecapturecontrol.o(.constdata__ZTV26QCameraImageCaptureControl)
    .constdata__ZTV26QLocalMediaPlaylistControl 0x00045bb8   Section       96  qmediaplaylist.o(.constdata__ZTV26QLocalMediaPlaylistControl)
    .constdata__ZTV26QMediaPlaylistNullProvider 0x00045c18   Section      116  qmediaplaylistnavigator.o(.constdata__ZTV26QMediaPlaylistNullProvider)
    .constdata__ZTV26QVideoWidgetControlBackend 0x00045c8c   Section      128  qvideowidget.o(.constdata__ZTV26QVideoWidgetControlBackend)
    .constdata__ZTV27QAbstractVideoBufferPrivate 0x00045d0c   Section       16  qabstractvideobuffer.o(.constdata__ZTV27QAbstractVideoBufferPrivate)
    .constdata__ZTV27QLocalMediaPlaylistProvider 0x00045d1c   Section      116  qlocalmediaplaylistprovider.o(.constdata__ZTV27QLocalMediaPlaylistProvider)
    .constdata__ZTV27QMediaPlaylistSourceControl 0x00045d90   Section       64  qmediaplaylistsourcecontrol.o(.constdata__ZTV27QMediaPlaylistSourceControl)
    .constdata__ZTV27QMediaServiceProviderPlugin 0x00045dd0   Section       96  qmediaserviceprovider.o(.constdata__ZTV27QMediaServiceProviderPlugin)
    .constdata__ZTV27QRendererVideoWidgetBackend 0x00045e30   Section      152  qvideowidget.o(.constdata__ZTV27QRendererVideoWidgetBackend)
    .constdata__ZTV27QVideoSurfaceGenericPainter 0x00045ec8   Section       48  qpaintervideosurface.o(.constdata__ZTV27QVideoSurfaceGenericPainter)
    .constdata__ZTV28QAudioSystemFactoryInterface 0x00045ef8   Section       36  qaudiosystemplugin.o(.constdata__ZTV28QAudioSystemFactoryInterface)
    .constdata__ZTV28QVideoWidgetControlInterface 0x00045f1c   Section       44  qvideowidget.o(.constdata__ZTV28QVideoWidgetControlInterface)
    .constdata__ZTV29QCameraImageProcessingControl 0x00045f48   Section       80  qcameraimageprocessingcontrol.o(.constdata__ZTV29QCameraImageProcessingControl)
    .constdata__ZTV29QCameraImageProcessingPrivate 0x00045f98   Section       16  qcameraimageprocessing.o(.constdata__ZTV29QCameraImageProcessingPrivate)
    .constdata__ZTV29QMediaPlaylistProviderPrivate 0x00045fa8   Section       16  qlocalmediaplaylistprovider.o(.constdata__ZTV29QMediaPlaylistProviderPrivate)
    .constdata__ZTV31QMediaImageViewerControlPrivate 0x00045fb8   Section       16  qmediaimageviewerservice.o(.constdata__ZTV31QMediaImageViewerControlPrivate)
    .constdata__ZTV31QMediaImageViewerServicePrivate 0x00045fc8   Section       16  qmediaimageviewerservice.o(.constdata__ZTV31QMediaImageViewerServicePrivate)
    .constdata__ZTV34QLocalMediaPlaylistProviderPrivate 0x00045fd8   Section       16  qlocalmediaplaylistprovider.o(.constdata__ZTV34QLocalMediaPlaylistProviderPrivate)
    .constdata__ZTV7QCamera                  0x00045fe8   Section       76  qcamera.o(.constdata__ZTV7QCamera)
    .constdata__ZTV7QSample                  0x00046034   Section       56  qsamplecache_p.o(.constdata__ZTV7QSample)
    .constdata__ZTVN12SymbianAudio15DevSoundWrapperE 0x0004606c   Section      132  moc_qaudio_symbian_p.o(.constdata__ZTVN12SymbianAudio15DevSoundWrapperE)
    .init_array                              0x000460f0   Section        4  qmediaplayer.o(.init_array)
    .init_array                              0x000460f4   Section        4  qmediarecorder.o(.init_array)
    .init_array                              0x000460f8   Section        4  qcamera.o(.init_array)
    .init_array                              0x000460fc   Section        4  qcameraexposure.o(.init_array)
    .init_array                              0x00046100   Section        4  qcamerafocus.o(.init_array)
    .init_array                              0x00046104   Section        4  qcameraimagecapture.o(.init_array)
    .init_array                              0x00046108   Section        4  qgraphicsvideoitem_symbian.o(.init_array)
    .init_array                              0x0004610c   Section        4  qaudio.o(.init_array)
    .ARM.exidx                               0x00046110   Section        8  ucppinit.o(.ARM.exidx)
    .data$0                                  0x00400000   Data           0  qmediaplayer.o(.data)
    .data                                    0x00400000   Section        1  qmediaplayer.o(.data)
    .data$0                                  0x00400004   Data           0  qmediaplaylist.o(.data)
    this_playlistIOLoader                    0x00400004   Data           8  qmediaplaylist.o(.data)
    .data                                    0x00400004   Section       16  qmediaplaylist.o(.data)
    _ZGVcleanup@_Z16playlistIOLoaderv_0      0x0040000c   Data           4  qmediaplaylist.o(.data)
    cleanup@_Z16playlistIOLoaderv_1          0x00400010   Data           4  qmediaplaylist.o(.data)
    .data$0                                  0x00400014   Data           0  qmediaplaylistnavigator.o(.data)
    this__q_nullMediaPlaylist                0x00400014   Data           8  qmediaplaylistnavigator.o(.data)
    .data                                    0x00400014   Section       16  qmediaplaylistnavigator.o(.data)
    _ZGVcleanup@_Z20_q_nullMediaPlaylistv_0  0x0040001c   Data           4  qmediaplaylistnavigator.o(.data)
    cleanup@_Z20_q_nullMediaPlaylistv_1      0x00400020   Data           4  qmediaplaylistnavigator.o(.data)
    .data$0                                  0x00400024   Data           0  qmediarecorder.o(.data)
    .data                                    0x00400024   Section        1  qmediarecorder.o(.data)
    .data$0                                  0x00400028   Data           0  qmediaserviceprovider.o(.data)
    this_loader                              0x00400028   Data           8  qmediaserviceprovider.o(.data)
    .data                                    0x00400028   Section       32  qmediaserviceprovider.o(.data)
    this_pluginProvider                      0x00400030   Data           8  qmediaserviceprovider.o(.data)
    _ZGVcleanup@_Z6loaderv_0                 0x00400038   Data           4  qmediaserviceprovider.o(.data)
    cleanup@_Z6loaderv_1                     0x0040003c   Data           4  qmediaserviceprovider.o(.data)
    _ZGVcleanup@_Z14pluginProviderv_0        0x00400040   Data           4  qmediaserviceprovider.o(.data)
    cleanup@_Z14pluginProviderv_1            0x00400044   Data           4  qmediaserviceprovider.o(.data)
    .data$0                                  0x00400048   Data           0  qmediapluginloader.o(.data)
    this_staticMediaPlugins                  0x00400048   Data           8  qmediapluginloader.o(.data)
    .data                                    0x00400048   Section       16  qmediapluginloader.o(.data)
    _ZGVcleanup@_Z18staticMediaPluginsv_0    0x00400050   Data           4  qmediapluginloader.o(.data)
    cleanup@_Z18staticMediaPluginsv_1        0x00400054   Data           4  qmediapluginloader.o(.data)
    .data$0                                  0x00400058   Data           0  qcamera.o(.data)
    .data                                    0x00400058   Section        1  qcamera.o(.data)
    .data$0                                  0x00400059   Data           0  qcameraexposure.o(.data)
    .data                                    0x00400059   Section        1  qcameraexposure.o(.data)
    .data$0                                  0x0040005a   Data           0  qcamerafocus.o(.data)
    .data                                    0x0040005a   Section        1  qcamerafocus.o(.data)
    .data$0                                  0x0040005b   Data           0  qcameraimagecapture.o(.data)
    .data                                    0x0040005b   Section        1  qcameraimagecapture.o(.data)
    .data$0                                  0x0040005c   Data           0  qgraphicsvideoitem_symbian.o(.data)
    _ZGVsizeFudgeFactor@_ZN25QGraphicsVideoItemPrivate14updateGeometryEv_0 0x0040005c   Data           4  qgraphicsvideoitem_symbian.o(.data)
    .data                                    0x0040005c   Section       28  qgraphicsvideoitem_symbian.o(.data)
    _ZGVpositionFudgeFactor@_ZN25QGraphicsVideoItemPrivate14updateGeometryEv_1 0x00400060   Data           4  qgraphicsvideoitem_symbian.o(.data)
    positionFudgeFactor@_ZN25QGraphicsVideoItemPrivate14updateGeometryEv_2 0x00400064   Data           8  qgraphicsvideoitem_symbian.o(.data)
    sizeFudgeFactor@_ZN25QGraphicsVideoItemPrivate14updateGeometryEv_3 0x0040006c   Data           8  qgraphicsvideoitem_symbian.o(.data)
    UpdateViewportTransparencyEvent          0x00400074   Data           4  qgraphicsvideoitem_symbian.o(.data)
    .data$0                                  0x00400078   Data           0  qaudio.o(.data)
    .data                                    0x00400078   Section        1  qaudio.o(.data)
    .data$0                                  0x0040007c   Data           0  qaudiodevicefactory.o(.data)
    this_audioLoader                         0x0040007c   Data           8  qaudiodevicefactory.o(.data)
    .data                                    0x0040007c   Section       16  qaudiodevicefactory.o(.data)
    _ZGVcleanup@_Z11audioLoaderv_0           0x00400084   Data           4  qaudiodevicefactory.o(.data)
    cleanup@_Z11audioLoaderv_1               0x00400088   Data           4  qaudiodevicefactory.o(.data)
    .data$0                                  0x0040008c   Data           0  ucppfini.o(.data)
    .data                                    0x0040008c   Section        4  ucppfini.o(.data)
    .data__ZNSt19_Atomic_swap_structILi1EE12_S_swap_lockE 0x00400090   Section       12  moc_qaudio_symbian_p.o(.data__ZNSt19_Atomic_swap_structILi1EE12_S_swap_lockE)
    .data__ZZN11QMetaTypeIdI15QNetworkRequestE14qt_metatype_idEvE11metatype_id 0x0040009c   Section        4  qmediaresource.o(.data__ZZN11QMetaTypeIdI15QNetworkRequestE14qt_metatype_idEvE11metatype_id)
    .data__ZZN11QMetaTypeIdI19QVideoSurfaceFormatE14qt_metatype_idEvE11metatype_id 0x004000a0   Section        4  qabstractvideosurface.o(.data__ZZN11QMetaTypeIdI19QVideoSurfaceFormatE14qt_metatype_idEvE11metatype_id)
    .data__ZZN11QMetaTypeIdI6QFlagsIN12QCameraFocus9FocusModeEEE14qt_metatype_idEvE11metatype_id 0x004000a4   Section        4  qcamerafocus.o(.data__ZZN11QMetaTypeIdI6QFlagsIN12QCameraFocus9FocusModeEEE14qt_metatype_idEvE11metatype_id)
    .data__ZZN11QMetaTypeIdI6QFlagsIN15QCameraExposure9FlashModeEEE14qt_metatype_idEvE11metatype_id 0x004000a8   Section        4  qcameraexposure.o(.data__ZZN11QMetaTypeIdI6QFlagsIN15QCameraExposure9FlashModeEEE14qt_metatype_idEvE11metatype_id)
    .data__ZZN11QMetaTypeIdIN11QVideoFrame11PixelFormatEE14qt_metatype_idEvE11metatype_id 0x004000ac   Section        4  qvideosurfaceformat.o(.data__ZZN11QMetaTypeIdIN11QVideoFrame11PixelFormatEE14qt_metatype_idEvE11metatype_id)
    .data__ZZN11QMetaTypeIdIN12QCameraFocus14FocusPointModeEE14qt_metatype_idEvE11metatype_id 0x004000b0   Section        4  qcamerafocus.o(.data__ZZN11QMetaTypeIdIN12QCameraFocus14FocusPointModeEE14qt_metatype_idEvE11metatype_id)
    .data__ZZN11QMetaTypeIdIN12QMediaPlayer11MediaStatusEE14qt_metatype_idEvE11metatype_id 0x004000b4   Section        4  qmediaplayer.o(.data__ZZN11QMetaTypeIdIN12QMediaPlayer11MediaStatusEE14qt_metatype_idEvE11metatype_id)
    .data__ZZN11QMetaTypeIdIN12QMediaPlayer5ErrorEE14qt_metatype_idEvE11metatype_id 0x004000b8   Section        4  qmediaplayer.o(.data__ZZN11QMetaTypeIdIN12QMediaPlayer5ErrorEE14qt_metatype_idEvE11metatype_id)
    .data__ZZN11QMetaTypeIdIN12QMediaPlayer5StateEE14qt_metatype_idEvE11metatype_id 0x004000bc   Section        4  qmediaplayer.o(.data__ZZN11QMetaTypeIdIN12QMediaPlayer5StateEE14qt_metatype_idEvE11metatype_id)
    .data__ZZN11QMetaTypeIdIN14QMediaRecorder5ErrorEE14qt_metatype_idEvE11metatype_id 0x004000c0   Section        4  qmediarecorder.o(.data__ZZN11QMetaTypeIdIN14QMediaRecorder5ErrorEE14qt_metatype_idEvE11metatype_id)
    .data__ZZN11QMetaTypeIdIN14QMediaRecorder5StateEE14qt_metatype_idEvE11metatype_id 0x004000c4   Section        4  qmediarecorder.o(.data__ZZN11QMetaTypeIdIN14QMediaRecorder5StateEE14qt_metatype_idEvE11metatype_id)
    .data__ZZN11QMetaTypeIdIN15QCameraExposure12ExposureModeEE14qt_metatype_idEvE11metatype_id 0x004000c8   Section        4  qcameraexposure.o(.data__ZZN11QMetaTypeIdIN15QCameraExposure12ExposureModeEE14qt_metatype_idEvE11metatype_id)
    .data__ZZN11QMetaTypeIdIN15QCameraExposure12MeteringModeEE14qt_metatype_idEvE11metatype_id 0x004000cc   Section        4  qcameraexposure.o(.data__ZZN11QMetaTypeIdIN15QCameraExposure12MeteringModeEE14qt_metatype_idEvE11metatype_id)
    .data__ZZN11QMetaTypeIdIN19QCameraImageCapture5ErrorEE14qt_metatype_idEvE11metatype_id 0x004000d0   Section        4  qcameraimagecapture.o(.data__ZZN11QMetaTypeIdIN19QCameraImageCapture5ErrorEE14qt_metatype_idEvE11metatype_id)
    .data__ZZN11QMetaTypeIdIN19QVideoSurfaceFormat15YCbCrColorSpaceEE14qt_metatype_idEvE11metatype_id 0x004000d4   Section        4  qvideosurfaceformat.o(.data__ZZN11QMetaTypeIdIN19QVideoSurfaceFormat15YCbCrColorSpaceEE14qt_metatype_idEvE11metatype_id)
    .data__ZZN11QMetaTypeIdIN19QVideoSurfaceFormat9DirectionEE14qt_metatype_idEvE11metatype_id 0x004000d8   Section        4  qvideosurfaceformat.o(.data__ZZN11QMetaTypeIdIN19QVideoSurfaceFormat9DirectionEE14qt_metatype_idEvE11metatype_id)
    .data__ZZN11QMetaTypeIdIN20QAbstractVideoBuffer10HandleTypeEE14qt_metatype_idEvE11metatype_id 0x004000dc   Section        4  qvideosurfaceformat.o(.data__ZZN11QMetaTypeIdIN20QAbstractVideoBuffer10HandleTypeEE14qt_metatype_idEvE11metatype_id)
    .data__ZZN11QMetaTypeIdIN21QAbstractVideoSurface5ErrorEE14qt_metatype_idEvE11metatype_id 0x004000e0   Section        4  qabstractvideosurface.o(.data__ZZN11QMetaTypeIdIN21QAbstractVideoSurface5ErrorEE14qt_metatype_idEvE11metatype_id)
    .data__ZZN11QMetaTypeIdIN6QAudio4ModeEE14qt_metatype_idEvE11metatype_id 0x004000e4   Section        4  qaudio.o(.data__ZZN11QMetaTypeIdIN6QAudio4ModeEE14qt_metatype_idEvE11metatype_id)
    .data__ZZN11QMetaTypeIdIN6QAudio5ErrorEE14qt_metatype_idEvE11metatype_id 0x004000e8   Section        4  qaudio.o(.data__ZZN11QMetaTypeIdIN6QAudio5ErrorEE14qt_metatype_idEvE11metatype_id)
    .data__ZZN11QMetaTypeIdIN6QAudio5StateEE14qt_metatype_idEvE11metatype_id 0x004000ec   Section        4  qaudio.o(.data__ZZN11QMetaTypeIdIN6QAudio5StateEE14qt_metatype_idEvE11metatype_id)
    .data__ZZN11QMetaTypeIdIN7QCamera10LockStatusEE14qt_metatype_idEvE11metatype_id 0x004000f0   Section        4  qcamera.o(.data__ZZN11QMetaTypeIdIN7QCamera10LockStatusEE14qt_metatype_idEvE11metatype_id)
    .data__ZZN11QMetaTypeIdIN7QCamera16LockChangeReasonEE14qt_metatype_idEvE11metatype_id 0x004000f4   Section        4  qcamera.o(.data__ZZN11QMetaTypeIdIN7QCamera16LockChangeReasonEE14qt_metatype_idEvE11metatype_id)
    .data__ZZN11QMetaTypeIdIN7QCamera5ErrorEE14qt_metatype_idEvE11metatype_id 0x004000f8   Section        4  qcamera.o(.data__ZZN11QMetaTypeIdIN7QCamera5ErrorEE14qt_metatype_idEvE11metatype_id)
    .data__ZZN11QMetaTypeIdIN7QCamera5StateEE14qt_metatype_idEvE11metatype_id 0x004000fc   Section        4  qcamera.o(.data__ZZN11QMetaTypeIdIN7QCamera5StateEE14qt_metatype_idEvE11metatype_id)
    .data__ZZN11QMetaTypeIdIN7QCamera6StatusEE14qt_metatype_idEvE11metatype_id 0x00400100   Section        4  qcamera.o(.data__ZZN11QMetaTypeIdIN7QCamera6StatusEE14qt_metatype_idEvE11metatype_id)
    .data__ZZN11QMetaTypeIdIN7QCamera8LockTypeEE14qt_metatype_idEvE11metatype_id 0x00400104   Section        4  qcamera.o(.data__ZZN11QMetaTypeIdIN7QCamera8LockTypeEE14qt_metatype_idEvE11metatype_id)
    .data__ZZN11QMetaTypeIdIP11CCoeControlE14qt_metatype_idEvE11metatype_id 0x00400108   Section        4  qgraphicsvideoitem_symbian.o(.data__ZZN11QMetaTypeIdIP11CCoeControlE14qt_metatype_idEvE11metatype_id)
    .bss$5                                   0x0040010c   Data           0  ucppfini.o(.bss)
    .bss                                     0x0040010c   Section     2048  ucppfini.o(.bss)

    Global Symbols

    Symbol Name                              Value     Ov Type        Size  Object(Section)

    BuildAttributes$$THUMB_ISAv2$ARM_ISAv5$M$VFPv2$PE$A:L22$X:L11$S22$IEEE1$IW$USESV6$~STKCKD$USESV7$~SHL$OSPACE$ROPI$IEEEJ$EBA8$UX$FPIC$INDIRECT$REQ8$PRES8$EABIv2 0x00000000   Number         0  anon$$obj.o ABSOLUTE
    QtCore{00040703}[2001b2dc].dll           0x00000000   Data           0  anon$$obj.o ABSOLUTE
    QtGui{00040703}[2001b2dd].dll            0x00000000   Data           0  anon$$obj.o ABSOLUTE
    QtMultimediaKit{00010103}[2002ac77].dll  0x00000000   Data           0  anon$$obj.o ABSOLUTE
    QtNetwork{00040703}[2001b2de].dll        0x00000000   Data           0  anon$$obj.o ABSOLUTE
    dfpaeabi{000a0000}.dll                   0x00000000   Data           0  anon$$obj.o ABSOLUTE
    drtaeabi{000a0000}.dll                   0x00000000   Data           0  anon$$obj.o ABSOLUTE
    drtrvct2_2{000a0000}.dll                 0x00000000   Data           0  anon$$obj.o ABSOLUTE
    efsrv{000a0000}[100039e4].dll            0x00000000   Data           0  anon$$obj.o ABSOLUTE
    euser{000a0000}[100039e5].dll            0x00000000   Data           0  anon$$obj.o ABSOLUTE
    libc{00010001}[10207369].dll             0x00000000   Data           0  anon$$obj.o ABSOLUTE
    mmfdevsound{000a0000}[100058cc].dll      0x00000000   Data           0  anon$$obj.o ABSOLUTE
    stdnew{000a0000}[20022178].dll           0x00000000   Data           0  anon$$obj.o ABSOLUTE
    qt_message_output(QtMsgType, const char*)  - Undefined Reference
    _Z17qt_message_output9QtMsgTypePKc@QtCore{00040703}[2001b2dc].dll  - Undefined Reference
    qt_symbian_throwIfError(int)              - Undefined Reference
    _Z23qt_symbian_throwIfErrori@QtCore{00040703}[2001b2dc].dll  - Undefined Reference
    QBasicAtomicPointer_testAndSetOrdered(void*volatile *, void*, void*)  - Undefined Reference
    _Z37QBasicAtomicPointer_testAndSetOrderedPVPvS_S_@QtCore{00040703}[2001b2dc].dll  - Undefined Reference
    qFree(void*)                              - Undefined Reference
    _Z5qFreePv@QtCore{00040703}[2001b2dc].dll  - Undefined Reference
    qHash(const QString&)                     - Undefined Reference
    _Z5qHashRK7QString@QtCore{00040703}[2001b2dc].dll  - Undefined Reference
    qrand()                                   - Undefined Reference
    _Z5qrandv@QtCore{00040703}[2001b2dc].dll  - Undefined Reference
    qstrcmp(const char*, const char*)         - Undefined Reference
    _Z7qstrcmpPKcS0_@QtCore{00040703}[2001b2dc].dll  - Undefined Reference
    qstrcmp(const QByteArray&, const char*)   - Undefined Reference
    _Z7qstrcmpRK10QByteArrayPKc@QtCore{00040703}[2001b2dc].dll  - Undefined Reference
    qWarning(const char*, ...)                - Undefined Reference
    _Z8qWarningPKcz@QtCore{00040703}[2001b2dc].dll  - Undefined Reference
    qBadAlloc()                               - Undefined Reference
    _Z9qBadAllocv@QtCore{00040703}[2001b2dc].dll  - Undefined Reference
    QBoxLayout::setSpacing(int)               - Undefined Reference
    _ZN10QBoxLayout10setSpacingEi@QtGui{00040703}[2001b2dd].dll  - Undefined Reference
    QBoxLayout::addWidget(QWidget*, int, QFlags<Qt::AlignmentFlag>)  - Undefined Reference
    _ZN10QBoxLayout9addWidgetEP7QWidgeti6QFlagsIN2Qt13AlignmentFlagEE@QtGui{00040703}[2001b2dd].dll  - Undefined Reference
    QByteArray::shared_null                   - Undefined Reference
    _ZN10QByteArray11shared_nullE@QtCore{00040703}[2001b2dc].dll  - Undefined Reference
    QByteArray::resize(int)                   - Undefined Reference
    _ZN10QByteArray6resizeEi@QtCore{00040703}[2001b2dc].dll  - Undefined Reference
    QByteArray::realloc(int)                  - Undefined Reference
    _ZN10QByteArray7reallocEi@QtCore{00040703}[2001b2dc].dll  - Undefined Reference
    QByteArray::QByteArray(const char*)       - Undefined Reference
    _ZN10QByteArrayC1EPKc@QtCore{00040703}[2001b2dc].dll  - Undefined Reference
    QByteArray::operator =(const QByteArray&)  - Undefined Reference
    _ZN10QByteArrayaSERKS_@QtCore{00040703}[2001b2dc].dll  - Undefined Reference
    QTransform::QTransform()                  - Undefined Reference
    _ZN10QTransformC1Ev@QtGui{00040703}[2001b2dd].dll  - Undefined Reference
    QTransform::operator =(const QTransform&)  - Undefined Reference
    _ZN10QTransformaSERKS_@QtGui{00040703}[2001b2dd].dll  - Undefined Reference
    QBasicTimer::stop()                       - Undefined Reference
    _ZN11QBasicTimer4stopEv@QtCore{00040703}[2001b2dc].dll  - Undefined Reference
    QBasicTimer::start(int, QObject*)         - Undefined Reference
    _ZN11QBasicTimer5startEiP7QObject@QtCore{00040703}[2001b2dc].dll  - Undefined Reference
    QMetaObject::changeGuard(QObject**, QObject*)  - Undefined Reference
    _ZN11QMetaObject11changeGuardEPP7QObjectS1_@QtCore{00040703}[2001b2dc].dll  - Undefined Reference
    QMetaObject::removeGuard(QObject**)       - Undefined Reference
    _ZN11QMetaObject11removeGuardEPP7QObject@QtCore{00040703}[2001b2dc].dll  - Undefined Reference
    QMetaObject::invokeMethod(QObject*, const char*, Qt::ConnectionType, QGenericReturnArgument, QGenericArgument, QGenericArgument, QGenericArgument, QGenericArgument, QGenericArgument, QGenericArgument, QGenericArgument, QGenericArgument, QGenericArgument, QGenericArgument)  - Undefined Reference
    _ZN11QMetaObject12invokeMethodEP7QObjectPKcN2Qt14ConnectionTypeE22QGenericReturnArgument16QGenericArgumentS7_S7_S7_S7_S7_S7_S7_S7_S7_@QtCore{00040703}[2001b2dc].dll  - Undefined Reference
    QMetaObject::activate(QObject*, const QMetaObject*, int, void**)  - Undefined Reference
    _ZN11QMetaObject8activateEP7QObjectPKS_iPPv@QtCore{00040703}[2001b2dc].dll  - Undefined Reference
    QMetaObject::addGuard(QObject**)          - Undefined Reference
    _ZN11QMetaObject8addGuardEPP7QObject@QtCore{00040703}[2001b2dc].dll  - Undefined Reference
    QTextStream::QTextStream(QString*, QFlags<QIODevice::OpenModeFlag>)  - Undefined Reference
    _ZN11QTextStreamC1EP7QString6QFlagsIN9QIODevice12OpenModeFlagEE@QtCore{00040703}[2001b2dc].dll  - Undefined Reference
    QTextStream::~QTextStream()               - Undefined Reference
    _ZN11QTextStreamD1Ev@QtCore{00040703}[2001b2dc].dll  - Undefined Reference
    QTextStream::operator <<(const QString&)  - Undefined Reference
    _ZN11QTextStreamlsERK7QString@QtCore{00040703}[2001b2dc].dll  - Undefined Reference
    QTextStream::operator <<(char)            - Undefined Reference
    _ZN11QTextStreamlsEc@QtCore{00040703}[2001b2dc].dll  - Undefined Reference
    QTextStream::operator <<(int)             - Undefined Reference
    _ZN11QTextStreamlsEi@QtCore{00040703}[2001b2dc].dll  - Undefined Reference
    QVBoxLayout::QVBoxLayout()                - Undefined Reference
    _ZN11QVBoxLayoutC1Ev@QtGui{00040703}[2001b2dd].dll  - Undefined Reference
    QVectorData::reallocate(QVectorData*, int, int, int)  - Undefined Reference
    _ZN11QVectorData10reallocateEPS_iii@QtCore{00040703}[2001b2dc].dll  - Undefined Reference
    QVectorData::free(QVectorData*, int)      - Undefined Reference
    _ZN11QVectorData4freeEPS_i@QtCore{00040703}[2001b2dc].dll  - Undefined Reference
    QVectorData::allocate(int, int)           - Undefined Reference
    _ZN11QVectorData8allocateEii@QtCore{00040703}[2001b2dc].dll  - Undefined Reference
    CMMFDevSound::RecordData()                - Undefined Reference
    _ZN12CMMFDevSound10RecordDataEv@mmfdevsound{000a0000}[100058cc].dll  - Undefined Reference
    CMMFDevSound::SetConfigL(const TMMFCapabilities&)  - Undefined Reference
    _ZN12CMMFDevSound10SetConfigLERK16TMMFCapabilities@mmfdevsound{000a0000}[100058cc].dll  - Undefined Reference
    CMMFDevSound::InitializeL(MDevSoundObserver&, TFourCC, TMMFState)  - Undefined Reference
    _ZN12CMMFDevSound11InitializeLER17MDevSoundObserver7TFourCC9TMMFState@mmfdevsound{000a0000}[100058cc].dll  - Undefined Reference
    CMMFDevSound::RecordInitL()               - Undefined Reference
    _ZN12CMMFDevSound11RecordInitLEv@mmfdevsound{000a0000}[100058cc].dll  - Undefined Reference
    CMMFDevSound::Capabilities()              - Undefined Reference
    _ZN12CMMFDevSound12CapabilitiesEv@mmfdevsound{000a0000}[100058cc].dll  - Undefined Reference
    CMMFDevSound::SamplesPlayed()             - Undefined Reference
    _ZN12CMMFDevSound13SamplesPlayedEv@mmfdevsound{000a0000}[100058cc].dll  - Undefined Reference
    CMMFDevSound::SamplesRecorded()           - Undefined Reference
    _ZN12CMMFDevSound15SamplesRecordedEv@mmfdevsound{000a0000}[100058cc].dll  - Undefined Reference
    CMMFDevSound::NewL()                      - Undefined Reference
    _ZN12CMMFDevSound4NewLEv@mmfdevsound{000a0000}[100058cc].dll  - Undefined Reference
    CMMFDevSound::Stop()                      - Undefined Reference
    _ZN12CMMFDevSound4StopEv@mmfdevsound{000a0000}[100058cc].dll  - Undefined Reference
    CMMFDevSound::Pause()                     - Undefined Reference
    _ZN12CMMFDevSound5PauseEv@mmfdevsound{000a0000}[100058cc].dll  - Undefined Reference
    CMMFDevSound::PlayData()                  - Undefined Reference
    _ZN12CMMFDevSound8PlayDataEv@mmfdevsound{000a0000}[100058cc].dll  - Undefined Reference
    CMMFDevSound::PlayInitL()                 - Undefined Reference
    _ZN12CMMFDevSound9PlayInitLEv@mmfdevsound{000a0000}[100058cc].dll  - Undefined Reference
    QImageReader::supportedImageFormats()     - Undefined Reference
    _ZN12QImageReader21supportedImageFormatsEv@QtGui{00040703}[2001b2dd].dll  - Undefined Reference
    QImageReader::read()                      - Undefined Reference
    _ZN12QImageReader4readEv@QtGui{00040703}[2001b2dd].dll  - Undefined Reference
    QImageReader::QImageReader(QIODevice*, const QByteArray&)  - Undefined Reference
    _ZN12QImageReaderC1EP9QIODeviceRK10QByteArray@QtGui{00040703}[2001b2dd].dll  - Undefined Reference
    QImageReader::~QImageReader()             - Undefined Reference
    _ZN12QImageReaderD1Ev@QtGui{00040703}[2001b2dd].dll  - Undefined Reference
    QGraphicsItem::itemChange(QGraphicsItem::GraphicsItemChange, const QVariant&)  - Undefined Reference
    _ZN13QGraphicsItem10itemChangeENS_18GraphicsItemChangeERK8QVariant@QtGui{00040703}[2001b2dd].dll  - Undefined Reference
    QGraphicsItem::sceneEvent(QEvent*)        - Undefined Reference
    _ZN13QGraphicsItem10sceneEventEP6QEvent@QtGui{00040703}[2001b2dd].dll  - Undefined Reference
    QGraphicsItem::wheelEvent(QGraphicsSceneWheelEvent*)  - Undefined Reference
    _ZN13QGraphicsItem10wheelEventEP24QGraphicsSceneWheelEvent@QtGui{00040703}[2001b2dd].dll  - Undefined Reference
    QGraphicsItem::focusInEvent(QFocusEvent*)  - Undefined Reference
    _ZN13QGraphicsItem12focusInEventEP11QFocusEvent@QtGui{00040703}[2001b2dd].dll  - Undefined Reference
    QGraphicsItem::setCacheMode(QGraphicsItem::CacheMode, const QSize&)  - Undefined Reference
    _ZN13QGraphicsItem12setCacheModeENS_9CacheModeERK5QSize@QtGui{00040703}[2001b2dd].dll  - Undefined Reference
    QGraphicsItem::setExtension(QGraphicsItem::Extension, const QVariant&)  - Undefined Reference
    _ZN13QGraphicsItem12setExtensionENS_9ExtensionERK8QVariant@QtGui{00040703}[2001b2dd].dll  - Undefined Reference
    QGraphicsItem::dragMoveEvent(QGraphicsSceneDragDropEvent*)  - Undefined Reference
    _ZN13QGraphicsItem13dragMoveEventEP27QGraphicsSceneDragDropEvent@QtGui{00040703}[2001b2dd].dll  - Undefined Reference
    QGraphicsItem::focusOutEvent(QFocusEvent*)  - Undefined Reference
    _ZN13QGraphicsItem13focusOutEventEP11QFocusEvent@QtGui{00040703}[2001b2dd].dll  - Undefined Reference
    QGraphicsItem::keyPressEvent(QKeyEvent*)  - Undefined Reference
    _ZN13QGraphicsItem13keyPressEventEP9QKeyEvent@QtGui{00040703}[2001b2dd].dll  - Undefined Reference
    QGraphicsItem::dragEnterEvent(QGraphicsSceneDragDropEvent*)  - Undefined Reference
    _ZN13QGraphicsItem14dragEnterEventEP27QGraphicsSceneDragDropEvent@QtGui{00040703}[2001b2dd].dll  - Undefined Reference
    QGraphicsItem::dragLeaveEvent(QGraphicsSceneDragDropEvent*)  - Undefined Reference
    _ZN13QGraphicsItem14dragLeaveEventEP27QGraphicsSceneDragDropEvent@QtGui{00040703}[2001b2dd].dll  - Undefined Reference
    QGraphicsItem::hoverMoveEvent(QGraphicsSceneHoverEvent*)  - Undefined Reference
    _ZN13QGraphicsItem14hoverMoveEventEP24QGraphicsSceneHoverEvent@QtGui{00040703}[2001b2dd].dll  - Undefined Reference
    QGraphicsItem::mouseMoveEvent(QGraphicsSceneMouseEvent*)  - Undefined Reference
    _ZN13QGraphicsItem14mouseMoveEventEP24QGraphicsSceneMouseEvent@QtGui{00040703}[2001b2dd].dll  - Undefined Reference
    QGraphicsItem::hoverEnterEvent(QGraphicsSceneHoverEvent*)  - Undefined Reference
    _ZN13QGraphicsItem15hoverEnterEventEP24QGraphicsSceneHoverEvent@QtGui{00040703}[2001b2dd].dll  - Undefined Reference
    QGraphicsItem::hoverLeaveEvent(QGraphicsSceneHoverEvent*)  - Undefined Reference
    _ZN13QGraphicsItem15hoverLeaveEventEP24QGraphicsSceneHoverEvent@QtGui{00040703}[2001b2dd].dll  - Undefined Reference
    QGraphicsItem::keyReleaseEvent(QKeyEvent*)  - Undefined Reference
    _ZN13QGraphicsItem15keyReleaseEventEP9QKeyEvent@QtGui{00040703}[2001b2dd].dll  - Undefined Reference
    QGraphicsItem::mousePressEvent(QGraphicsSceneMouseEvent*)  - Undefined Reference
    _ZN13QGraphicsItem15mousePressEventEP24QGraphicsSceneMouseEvent@QtGui{00040703}[2001b2dd].dll  - Undefined Reference
    QGraphicsItem::contextMenuEvent(QGraphicsSceneContextMenuEvent*)  - Undefined Reference
    _ZN13QGraphicsItem16contextMenuEventEP30QGraphicsSceneContextMenuEvent@QtGui{00040703}[2001b2dd].dll  - Undefined Reference
    QGraphicsItem::inputMethodEvent(QInputMethodEvent*)  - Undefined Reference
    _ZN13QGraphicsItem16inputMethodEventEP17QInputMethodEvent@QtGui{00040703}[2001b2dd].dll  - Undefined Reference
    QGraphicsItem::sceneEventFilter(QGraphicsItem*, QEvent*)  - Undefined Reference
    _ZN13QGraphicsItem16sceneEventFilterEPS_P6QEvent@QtGui{00040703}[2001b2dd].dll  - Undefined Reference
    QGraphicsItem::toGraphicsObject()         - Undefined Reference
    _ZN13QGraphicsItem16toGraphicsObjectEv@QtGui{00040703}[2001b2dd].dll  - Undefined Reference
    QGraphicsItem::mouseReleaseEvent(QGraphicsSceneMouseEvent*)  - Undefined Reference
    _ZN13QGraphicsItem17mouseReleaseEventEP24QGraphicsSceneMouseEvent@QtGui{00040703}[2001b2dd].dll  - Undefined Reference
    QGraphicsItem::mouseDoubleClickEvent(QGraphicsSceneMouseEvent*)  - Undefined Reference
    _ZN13QGraphicsItem21mouseDoubleClickEventEP24QGraphicsSceneMouseEvent@QtGui{00040703}[2001b2dd].dll  - Undefined Reference
    QGraphicsItem::prepareGeometryChange()    - Undefined Reference
    _ZN13QGraphicsItem21prepareGeometryChangeEv@QtGui{00040703}[2001b2dd].dll  - Undefined Reference
    QGraphicsItem::update(const QRectF&)      - Undefined Reference
    _ZN13QGraphicsItem6updateERK6QRectF@QtGui{00040703}[2001b2dd].dll  - Undefined Reference
    QGraphicsItem::advance(int)               - Undefined Reference
    _ZN13QGraphicsItem7advanceEi@QtGui{00040703}[2001b2dd].dll  - Undefined Reference
    QGraphicsItem::setFlag(QGraphicsItem::GraphicsItemFlag, bool)  - Undefined Reference
    _ZN13QGraphicsItem7setFlagENS_16GraphicsItemFlagEb@QtGui{00040703}[2001b2dd].dll  - Undefined Reference
    QGraphicsItem::dropEvent(QGraphicsSceneDragDropEvent*)  - Undefined Reference
    _ZN13QGraphicsItem9dropEventEP27QGraphicsSceneDragDropEvent@QtGui{00040703}[2001b2dd].dll  - Undefined Reference
    QGraphicsItem::~QGraphicsItem__sub_object()  - Undefined Reference
    _ZN13QGraphicsItemD2Ev@QtGui{00040703}[2001b2dd].dll  - Undefined Reference
    QGraphicsView::setViewportUpdateMode(QGraphicsView::ViewportUpdateMode)  - Undefined Reference
    _ZN13QGraphicsView21setViewportUpdateModeENS_18ViewportUpdateModeE@QtGui{00040703}[2001b2dd].dll  - Undefined Reference
    QPluginLoader::instance()                 - Undefined Reference
    _ZN13QPluginLoader8instanceEv@QtCore{00040703}[2001b2dc].dll  - Undefined Reference
    QPluginLoader::QPluginLoader(const QString&, QObject*)  - Undefined Reference
    _ZN13QPluginLoaderC1ERK7QStringP7QObject@QtCore{00040703}[2001b2dc].dll  - Undefined Reference
    QPluginLoader::~QPluginLoader()           - Undefined Reference
    _ZN13QPluginLoaderD1Ev@QtCore{00040703}[2001b2dc].dll  - Undefined Reference
    QGraphicsScene::setItemIndexMethod(QGraphicsScene::ItemIndexMethod)  - Undefined Reference
    _ZN14QGraphicsScene18setItemIndexMethodENS_15ItemIndexMethodE@QtGui{00040703}[2001b2dd].dll  - Undefined Reference
    QGraphicsObject::qt_metacall(QMetaObject::Call, int, void**)  - Undefined Reference
    _ZN15QGraphicsObject11qt_metacallEN11QMetaObject4CallEiPPv@QtGui{00040703}[2001b2dd].dll  - Undefined Reference
    QGraphicsObject::qt_metacast(const char*)  - Undefined Reference
    _ZN15QGraphicsObject11qt_metacastEPKc@QtGui{00040703}[2001b2dd].dll  - Undefined Reference
    QGraphicsObject::staticMetaObject         - Undefined Reference
    _ZN15QGraphicsObject16staticMetaObjectE@QtGui{00040703}[2001b2dd].dll  - Undefined Reference
    QGraphicsObject::QGraphicsObject__sub_object(QGraphicsItem*)  - Undefined Reference
    _ZN15QGraphicsObjectC2EP13QGraphicsItem@QtGui{00040703}[2001b2dd].dll  - Undefined Reference
    QNetworkRequest::QNetworkRequest(const QUrl&)  - Undefined Reference
    _ZN15QNetworkRequestC1ERK4QUrl@QtNetwork{00040703}[2001b2de].dll  - Undefined Reference
    QNetworkRequest::QNetworkRequest(const QNetworkRequest&)  - Undefined Reference
    _ZN15QNetworkRequestC1ERKS_@QtNetwork{00040703}[2001b2de].dll  - Undefined Reference
    QNetworkRequest::~QNetworkRequest()       - Undefined Reference
    _ZN15QNetworkRequestD1Ev@QtNetwork{00040703}[2001b2de].dll  - Undefined Reference
    QCoreApplication::libraryPaths()          - Undefined Reference
    _ZN16QCoreApplication12libraryPathsEv@QtCore{00040703}[2001b2dc].dll  - Undefined Reference
    QCoreApplication::processEvents(QFlags<QEventLoop::ProcessEventsFlag>)  - Undefined Reference
    _ZN16QCoreApplication13processEventsE6QFlagsIN10QEventLoop17ProcessEventsFlagEE@QtCore{00040703}[2001b2dc].dll  - Undefined Reference
    QCoreApplication::postEvent(QObject*, QEvent*)  - Undefined Reference
    _ZN16QCoreApplication9postEventEP7QObjectP6QEvent@QtCore{00040703}[2001b2dc].dll  - Undefined Reference
    QNetworkAccessManager::get(const QNetworkRequest&)  - Undefined Reference
    _ZN21QNetworkAccessManager3getERK15QNetworkRequest@QtNetwork{00040703}[2001b2de].dll  - Undefined Reference
    QNetworkAccessManager::head(const QNetworkRequest&)  - Undefined Reference
    _ZN21QNetworkAccessManager4headERK15QNetworkRequest@QtNetwork{00040703}[2001b2de].dll  - Undefined Reference
    QNetworkAccessManager::QNetworkAccessManager(QObject*)  - Undefined Reference
    _ZN21QNetworkAccessManagerC1EP7QObject@QtNetwork{00040703}[2001b2de].dll  - Undefined Reference
    RFs::Close()                              - Undefined Reference
    _ZN3RFs5CloseEv@efsrv{000a0000}[100039e4].dll  - Undefined Reference
    RFs::Connect(int)                         - Undefined Reference
    _ZN3RFs7ConnectEi@efsrv{000a0000}[100039e4].dll  - Undefined Reference
    QDir::toNativeSeparators(const QString&)  - Undefined Reference
    _ZN4QDir18toNativeSeparatorsERK7QString@QtCore{00040703}[2001b2dc].dll  - Undefined Reference
    QDir::QDir(const QString&)                - Undefined Reference
    _ZN4QDirC1ERK7QString@QtCore{00040703}[2001b2dc].dll  - Undefined Reference
    QDir::~QDir()                             - Undefined Reference
    _ZN4QDirD1Ev@QtCore{00040703}[2001b2dc].dll  - Undefined Reference
    QUrl::QUrl(const QUrl&)                   - Undefined Reference
    _ZN4QUrlC1ERKS_@QtCore{00040703}[2001b2dc].dll  - Undefined Reference
    QUrl::QUrl()                              - Undefined Reference
    _ZN4QUrlC1Ev@QtCore{00040703}[2001b2dc].dll  - Undefined Reference
    QUrl::~QUrl()                             - Undefined Reference
    _ZN4QUrlD1Ev@QtCore{00040703}[2001b2dc].dll  - Undefined Reference
    QUrl::operator =(const QUrl&)             - Undefined Reference
    _ZN4QUrlaSERKS_@QtCore{00040703}[2001b2dc].dll  - Undefined Reference
    User::MarkCleanupStack()                  - Undefined Reference
    _ZN4User16MarkCleanupStackEv@euser{000a0000}[100039e5].dll  - Undefined Reference
    User::UnMarkCleanupStack(TTrapHandler*)   - Undefined Reference
    _ZN4User18UnMarkCleanupStackEP12TTrapHandler@euser{000a0000}[100039e5].dll  - Undefined Reference
    User::Invariant()                         - Undefined Reference
    _ZN4User9InvariantEv@euser{000a0000}[100039e5].dll  - Undefined Reference
    User::LockedDec(int&)                     - Undefined Reference
    _ZN4User9LockedDecERi@euser{000a0000}[100039e5].dll  - Undefined Reference
    User::LockedInc(int&)                     - Undefined Reference
    _ZN4User9LockedIncERi@euser{000a0000}[100039e5].dll  - Undefined Reference
    QFile::open(QFlags<QIODevice::OpenModeFlag>)  - Undefined Reference
    _ZN5QFile4openE6QFlagsIN9QIODevice12OpenModeFlagEE@QtCore{00040703}[2001b2dc].dll  - Undefined Reference
    QFile::QFile(const QString&)              - Undefined Reference
    _ZN5QFileC1ERK7QString@QtCore{00040703}[2001b2dc].dll  - Undefined Reference
    QFile::~QFile()                           - Undefined Reference
    _ZN5QFileD1Ev@QtCore{00040703}[2001b2dc].dll  - Undefined Reference
    QRect::moveCenter(const QPoint&)          - Undefined Reference
    _ZN5QRect10moveCenterERK6QPoint@QtCore{00040703}[2001b2dc].dll  - Undefined Reference
    QSize::scale(const QSize&, Qt::AspectRatioMode)  - Undefined Reference
    _ZN5QSize5scaleERKS_N2Qt15AspectRatioModeE@QtCore{00040703}[2001b2dc].dll  - Undefined Reference
    QTime::start()                            - Undefined Reference
    _ZN5QTime5startEv@QtCore{00040703}[2001b2dc].dll  - Undefined Reference
    QTime::restart()                          - Undefined Reference
    _ZN5QTime7restartEv@QtCore{00040703}[2001b2dc].dll  - Undefined Reference
    TDes8::Append(const unsigned char*, int)  - Undefined Reference
    _ZN5TDes86AppendEPKhi@euser{000a0000}[100039e5].dll  - Undefined Reference
    TDes8::SetLength(int)                     - Undefined Reference
    _ZN5TDes89SetLengthEi@euser{000a0000}[100039e5].dll  - Undefined Reference
    QBrush::QBrush(Qt::GlobalColor, Qt::BrushStyle)  - Undefined Reference
    _ZN6QBrushC1EN2Qt11GlobalColorENS0_10BrushStyleE@QtGui{00040703}[2001b2dd].dll  - Undefined Reference
    QBrush::QBrush(const QColor&, Qt::BrushStyle)  - Undefined Reference
    _ZN6QBrushC1ERK6QColorN2Qt10BrushStyleE@QtGui{00040703}[2001b2dd].dll  - Undefined Reference
    QBrush::QBrush(const QBrush&)             - Undefined Reference
    _ZN6QBrushC1ERKS_@QtGui{00040703}[2001b2dd].dll  - Undefined Reference
    QBrush::~QBrush()                         - Undefined Reference
    _ZN6QBrushD1Ev@QtGui{00040703}[2001b2dd].dll  - Undefined Reference
    QColor::QColor(Qt::GlobalColor)           - Undefined Reference
    _ZN6QColorC1EN2Qt11GlobalColorE@QtGui{00040703}[2001b2dd].dll  - Undefined Reference
    QEvent::registerEventType(int)            - Undefined Reference
    _ZN6QEvent17registerEventTypeEi@QtCore{00040703}[2001b2dc].dll  - Undefined Reference
    QEvent::QEvent(QEvent::Type)              - Undefined Reference
    _ZN6QEventC1ENS_4TypeE@QtCore{00040703}[2001b2dc].dll  - Undefined Reference
    QImage::bits()                            - Undefined Reference
    _ZN6QImage4bitsEv@QtGui{00040703}[2001b2dd].dll  - Undefined Reference
    QImage::QImage(unsigned char*, int, int, int, QImage::Format)  - Undefined Reference
    _ZN6QImageC1EPhiiiNS_6FormatE@QtGui{00040703}[2001b2dd].dll  - Undefined Reference
    QImage::QImage()                          - Undefined Reference
    _ZN6QImageC1Ev@QtGui{00040703}[2001b2dd].dll  - Undefined Reference
    QImage::~QImage()                         - Undefined Reference
    _ZN6QImageD1Ev@QtGui{00040703}[2001b2dd].dll  - Undefined Reference
    QImage::operator =(const QImage&)         - Undefined Reference
    _ZN6QImageaSERKS_@QtGui{00040703}[2001b2dd].dll  - Undefined Reference
    QMutex::lock()                            - Undefined Reference
    _ZN6QMutex4lockEv@QtCore{00040703}[2001b2dc].dll  - Undefined Reference
    QMutex::unlock()                          - Undefined Reference
    _ZN6QMutex6unlockEv@QtCore{00040703}[2001b2dc].dll  - Undefined Reference
    QMutex::QMutex(QMutex::RecursionMode)     - Undefined Reference
    _ZN6QMutexC1ENS_13RecursionModeE@QtCore{00040703}[2001b2dc].dll  - Undefined Reference
    QMutex::~QMutex()                         - Undefined Reference
    _ZN6QMutexD1Ev@QtCore{00040703}[2001b2dc].dll  - Undefined Reference
    QSizeF::scale(const QSizeF&, Qt::AspectRatioMode)  - Undefined Reference
    _ZN6QSizeF5scaleERKS_N2Qt15AspectRatioModeE@QtCore{00040703}[2001b2dc].dll  - Undefined Reference
    QSound::isAvailable()                     - Undefined Reference
    _ZN6QSound11isAvailableEv@QtGui{00040703}[2001b2dd].dll  - Undefined Reference
    QSound::play()                            - Undefined Reference
    _ZN6QSound4playEv@QtGui{00040703}[2001b2dd].dll  - Undefined Reference
    QSound::stop()                            - Undefined Reference
    _ZN6QSound4stopEv@QtGui{00040703}[2001b2dd].dll  - Undefined Reference
    QSound::setLoops(int)                     - Undefined Reference
    _ZN6QSound8setLoopsEi@QtGui{00040703}[2001b2dd].dll  - Undefined Reference
    QSound::QSound(const QString&, QObject*)  - Undefined Reference
    _ZN6QSoundC1ERK7QStringP7QObject@QtGui{00040703}[2001b2dd].dll  - Undefined Reference
    QTimer::singleShot(int, QObject*, const char*)  - Undefined Reference
    _ZN6QTimer10singleShotEiP7QObjectPKc@QtCore{00040703}[2001b2dc].dll  - Undefined Reference
    QTimer::setInterval(int)                  - Undefined Reference
    _ZN6QTimer11setIntervalEi@QtCore{00040703}[2001b2dc].dll  - Undefined Reference
    QTimer::stop()                            - Undefined Reference
    _ZN6QTimer4stopEv@QtCore{00040703}[2001b2dc].dll  - Undefined Reference
    QTimer::start(int)                        - Undefined Reference
    _ZN6QTimer5startEi@QtCore{00040703}[2001b2dc].dll  - Undefined Reference
    QTimer::start()                           - Undefined Reference
    _ZN6QTimer5startEv@QtCore{00040703}[2001b2dc].dll  - Undefined Reference
    QTimer::QTimer(QObject*)                  - Undefined Reference
    _ZN6QTimerC1EP7QObject@QtCore{00040703}[2001b2dc].dll  - Undefined Reference
    QLayout::setMargin(int)                   - Undefined Reference
    _ZN7QLayout9setMarginEi@QtGui{00040703}[2001b2dd].dll  - Undefined Reference
    QMatrix::QMatrix(const QMatrix&)          - Undefined Reference
    _ZN7QMatrixC1ERKS_@QtGui{00040703}[2001b2dd].dll  - Undefined Reference
    QObject::childEvent(QChildEvent*)         - Undefined Reference
    _ZN7QObject10childEventEP11QChildEvent@QtCore{00040703}[2001b2dc].dll  - Undefined Reference
    QObject::disconnect(const QObject*, const char*, const QObject*, const char*)  - Undefined Reference
    _ZN7QObject10disconnectEPKS_PKcS1_S3_@QtCore{00040703}[2001b2dc].dll  - Undefined Reference
    QObject::startTimer(int)                  - Undefined Reference
    _ZN7QObject10startTimerEi@QtCore{00040703}[2001b2dc].dll  - Undefined Reference
    QObject::timerEvent(QTimerEvent*)         - Undefined Reference
    _ZN7QObject10timerEventEP11QTimerEvent@QtCore{00040703}[2001b2dc].dll  - Undefined Reference
    QObject::customEvent(QEvent*)             - Undefined Reference
    _ZN7QObject11customEventEP6QEvent@QtCore{00040703}[2001b2dc].dll  - Undefined Reference
    QObject::deleteLater()                    - Undefined Reference
    _ZN7QObject11deleteLaterEv@QtCore{00040703}[2001b2dc].dll  - Undefined Reference
    QObject::eventFilter(QObject*, QEvent*)   - Undefined Reference
    _ZN7QObject11eventFilterEPS_P6QEvent@QtCore{00040703}[2001b2dc].dll  - Undefined Reference
    QObject::qt_metacall(QMetaObject::Call, int, void**)  - Undefined Reference
    _ZN7QObject11qt_metacallEN11QMetaObject4CallEiPPv@QtCore{00040703}[2001b2dc].dll  - Undefined Reference
    QObject::qt_metacast(const char*)         - Undefined Reference
    _ZN7QObject11qt_metacastEPKc@QtCore{00040703}[2001b2dc].dll  - Undefined Reference
    QObject::setProperty(const char*, const QVariant&)  - Undefined Reference
    _ZN7QObject11setPropertyEPKcRK8QVariant@QtCore{00040703}[2001b2dc].dll  - Undefined Reference
    QObject::moveToThread(QThread*)           - Undefined Reference
    _ZN7QObject12moveToThreadEP7QThread@QtCore{00040703}[2001b2dc].dll  - Undefined Reference
    QObject::connectNotify(const char*)       - Undefined Reference
    _ZN7QObject13connectNotifyEPKc@QtCore{00040703}[2001b2dc].dll  - Undefined Reference
    QObject::disconnectNotify(const char*)    - Undefined Reference
    _ZN7QObject16disconnectNotifyEPKc@QtCore{00040703}[2001b2dc].dll  - Undefined Reference
    QObject::staticMetaObject                 - Undefined Reference
    _ZN7QObject16staticMetaObjectE@QtCore{00040703}[2001b2dc].dll  - Undefined Reference
    QObject::removeEventFilter(QObject*)      - Undefined Reference
    _ZN7QObject17removeEventFilterEPS_@QtCore{00040703}[2001b2dc].dll  - Undefined Reference
    QObject::installEventFilter(QObject*)     - Undefined Reference
    _ZN7QObject18installEventFilterEPS_@QtCore{00040703}[2001b2dc].dll  - Undefined Reference
    QObject::event(QEvent*)                   - Undefined Reference
    _ZN7QObject5eventEP6QEvent@QtCore{00040703}[2001b2dc].dll  - Undefined Reference
    QObject::connect(const QObject*, const char*, const QObject*, const char*, Qt::ConnectionType)  - Undefined Reference
    _ZN7QObject7connectEPKS_PKcS1_S3_N2Qt14ConnectionTypeE@QtCore{00040703}[2001b2dc].dll  - Undefined Reference
    QObject::killTimer(int)                   - Undefined Reference
    _ZN7QObject9killTimerEi@QtCore{00040703}[2001b2dc].dll  - Undefined Reference
    QObject::QObject(QObject*)                - Undefined Reference
    _ZN7QObjectC1EPS_@QtCore{00040703}[2001b2dc].dll  - Undefined Reference
    QObject::~QObject()                       - Undefined Reference
    _ZN7QObjectD1Ev@QtCore{00040703}[2001b2dc].dll  - Undefined Reference
    QPixmap::QPixmap(const QPixmap&)          - Undefined Reference
    _ZN7QPixmapC1ERKS_@QtGui{00040703}[2001b2dd].dll  - Undefined Reference
    QPixmap::QPixmap()                        - Undefined Reference
    _ZN7QPixmapC1Ev@QtGui{00040703}[2001b2dd].dll  - Undefined Reference
    QPixmap::~QPixmap()                       - Undefined Reference
    _ZN7QPixmapD1Ev@QtGui{00040703}[2001b2dd].dll  - Undefined Reference
    QRegion::QRegion(const QRect&, QRegion::RegionType)  - Undefined Reference
    _ZN7QRegionC1ERK5QRectNS_10RegionTypeE@QtGui{00040703}[2001b2dd].dll  - Undefined Reference
    QRegion::QRegion(const QRegion&)          - Undefined Reference
    _ZN7QRegionC1ERKS_@QtGui{00040703}[2001b2dd].dll  - Undefined Reference
    QRegion::~QRegion()                       - Undefined Reference
    _ZN7QRegionD1Ev@QtGui{00040703}[2001b2dd].dll  - Undefined Reference
    QRegion::operator =(const QRegion&)       - Undefined Reference
    _ZN7QRegionaSERKS_@QtGui{00040703}[2001b2dd].dll  - Undefined Reference
    QString::fromLatin1(const char*, int)     - Undefined Reference
    _ZN7QString10fromLatin1EPKci@QtCore{00040703}[2001b2dc].dll  - Undefined Reference
    QString::shared_null                      - Undefined Reference
    _ZN7QString11shared_nullE@QtCore{00040703}[2001b2dc].dll  - Undefined Reference
    QString::fromAscii_helper(const char*, int)  - Undefined Reference
    _ZN7QString16fromAscii_helperEPKci@QtCore{00040703}[2001b2dc].dll  - Undefined Reference
    QString::fromLatin1_helper(const char*, int)  - Undefined Reference
    _ZN7QString17fromLatin1_helperEPKci@QtCore{00040703}[2001b2dc].dll  - Undefined Reference
    QString::free(QString::Data*)             - Undefined Reference
    _ZN7QString4freeEPNS_4DataE@QtCore{00040703}[2001b2dc].dll  - Undefined Reference
    QString::append(const QString&)           - Undefined Reference
    _ZN7QString6appendERKS_@QtCore{00040703}[2001b2dc].dll  - Undefined Reference
    QString::number(long long, int)           - Undefined Reference
    _ZN7QString6numberExi@QtCore{00040703}[2001b2dc].dll  - Undefined Reference
    QString::fromAscii(const char*, int)      - Undefined Reference
    _ZN7QString9fromAsciiEPKci@QtCore{00040703}[2001b2dc].dll  - Undefined Reference
    QString::QString(QChar)                   - Undefined Reference
    _ZN7QStringC1E5QChar@QtCore{00040703}[2001b2dc].dll  - Undefined Reference
    QString::operator =(const QString&)       - Undefined Reference
    _ZN7QStringaSERKS_@QtCore{00040703}[2001b2dc].dll  - Undefined Reference
    QThread::quit()                           - Undefined Reference
    _ZN7QThread4quitEv@QtCore{00040703}[2001b2dc].dll  - Undefined Reference
    QThread::wait(unsigned long)              - Undefined Reference
    _ZN7QThread4waitEm@QtCore{00040703}[2001b2dc].dll  - Undefined Reference
    QThread::start(QThread::Priority)         - Undefined Reference
    _ZN7QThread5startENS_8PriorityE@QtCore{00040703}[2001b2dc].dll  - Undefined Reference
    QThread::QThread(QObject*)                - Undefined Reference
    _ZN7QThreadC1EP7QObject@QtCore{00040703}[2001b2dc].dll  - Undefined Reference
    QThread::~QThread()                       - Undefined Reference
    _ZN7QThreadD1Ev@QtCore{00040703}[2001b2dc].dll  - Undefined Reference
    QWidget::closeEvent(QCloseEvent*)         - Undefined Reference
    _ZN7QWidget10closeEventEP11QCloseEvent@QtGui{00040703}[2001b2dd].dll  - Undefined Reference
    QWidget::enterEvent(QEvent*)              - Undefined Reference
    _ZN7QWidget10enterEventEP6QEvent@QtGui{00040703}[2001b2dd].dll  - Undefined Reference
    QWidget::fontChange(const QFont&)         - Undefined Reference
    _ZN7QWidget10fontChangeERK5QFont@QtGui{00040703}[2001b2dd].dll  - Undefined Reference
    QWidget::leaveEvent(QEvent*)              - Undefined Reference
    _ZN7QWidget10leaveEventEP6QEvent@QtGui{00040703}[2001b2dd].dll  - Undefined Reference
    QWidget::setPalette(const QPalette&)      - Undefined Reference
    _ZN7QWidget10setPaletteERK8QPalette@QtGui{00040703}[2001b2dd].dll  - Undefined Reference
    QWidget::setVisible(bool)                 - Undefined Reference
    _ZN7QWidget10setVisibleEb@QtGui{00040703}[2001b2dd].dll  - Undefined Reference
    QWidget::showNormal()                     - Undefined Reference
    _ZN7QWidget10showNormalEv@QtGui{00040703}[2001b2dd].dll  - Undefined Reference
    QWidget::wheelEvent(QWheelEvent*)         - Undefined Reference
    _ZN7QWidget10wheelEventEP11QWheelEvent@QtGui{00040703}[2001b2dd].dll  - Undefined Reference
    QWidget::actionEvent(QActionEvent*)       - Undefined Reference
    _ZN7QWidget11actionEventEP12QActionEvent@QtGui{00040703}[2001b2dd].dll  - Undefined Reference
    QWidget::changeEvent(QEvent*)             - Undefined Reference
    _ZN7QWidget11changeEventEP6QEvent@QtGui{00040703}[2001b2dd].dll  - Undefined Reference
    QWidget::qt_metacall(QMetaObject::Call, int, void**)  - Undefined Reference
    _ZN7QWidget11qt_metacallEN11QMetaObject4CallEiPPv@QtGui{00040703}[2001b2dd].dll  - Undefined Reference
    QWidget::qt_metacast(const char*)         - Undefined Reference
    _ZN7QWidget11qt_metacastEPKc@QtGui{00040703}[2001b2dd].dll  - Undefined Reference
    QWidget::resizeEvent(QResizeEvent*)       - Undefined Reference
    _ZN7QWidget11resizeEventEP12QResizeEvent@QtGui{00040703}[2001b2dd].dll  - Undefined Reference
    QWidget::setGeometry(const QRect&)        - Undefined Reference
    _ZN7QWidget11setGeometryERK5QRect@QtGui{00040703}[2001b2dd].dll  - Undefined Reference
    QWidget::styleChange(QStyle&)             - Undefined Reference
    _ZN7QWidget11styleChangeER6QStyle@QtGui{00040703}[2001b2dd].dll  - Undefined Reference
    QWidget::tabletEvent(QTabletEvent*)       - Undefined Reference
    _ZN7QWidget11tabletEventEP12QTabletEvent@QtGui{00040703}[2001b2dd].dll  - Undefined Reference
    QWidget::focusInEvent(QFocusEvent*)       - Undefined Reference
    _ZN7QWidget12focusInEventEP11QFocusEvent@QtGui{00040703}[2001b2dd].dll  - Undefined Reference
    QWidget::setAttribute(Qt::WidgetAttribute, bool)  - Undefined Reference
    _ZN7QWidget12setAttributeEN2Qt15WidgetAttributeEb@QtGui{00040703}[2001b2dd].dll  - Undefined Reference
    QWidget::dragMoveEvent(QDragMoveEvent*)   - Undefined Reference
    _ZN7QWidget13dragMoveEventEP14QDragMoveEvent@QtGui{00040703}[2001b2dd].dll  - Undefined Reference
    QWidget::enabledChange(bool)              - Undefined Reference
    _ZN7QWidget13enabledChangeEb@QtGui{00040703}[2001b2dd].dll  - Undefined Reference
    QWidget::focusOutEvent(QFocusEvent*)      - Undefined Reference
    _ZN7QWidget13focusOutEventEP11QFocusEvent@QtGui{00040703}[2001b2dd].dll  - Undefined Reference
    QWidget::keyPressEvent(QKeyEvent*)        - Undefined Reference
    _ZN7QWidget13keyPressEventEP9QKeyEvent@QtGui{00040703}[2001b2dd].dll  - Undefined Reference
    QWidget::paletteChange(const QPalette&)   - Undefined Reference
    _ZN7QWidget13paletteChangeERK8QPalette@QtGui{00040703}[2001b2dd].dll  - Undefined Reference
    QWidget::dragEnterEvent(QDragEnterEvent*)  - Undefined Reference
    _ZN7QWidget14dragEnterEventEP15QDragEnterEvent@QtGui{00040703}[2001b2dd].dll  - Undefined Reference
    QWidget::dragLeaveEvent(QDragLeaveEvent*)  - Undefined Reference
    _ZN7QWidget14dragLeaveEventEP15QDragLeaveEvent@QtGui{00040703}[2001b2dd].dll  - Undefined Reference
    QWidget::languageChange()                 - Undefined Reference
    _ZN7QWidget14languageChangeEv@QtGui{00040703}[2001b2dd].dll  - Undefined Reference
    QWidget::mouseMoveEvent(QMouseEvent*)     - Undefined Reference
    _ZN7QWidget14mouseMoveEventEP11QMouseEvent@QtGui{00040703}[2001b2dd].dll  - Undefined Reference
    QWidget::setWindowFlags(QFlags<Qt::WindowType>)  - Undefined Reference
    _ZN7QWidget14setWindowFlagsE6QFlagsIN2Qt10WindowTypeEE@QtGui{00040703}[2001b2dd].dll  - Undefined Reference
    QWidget::showFullScreen()                 - Undefined Reference
    _ZN7QWidget14showFullScreenEv@QtGui{00040703}[2001b2dd].dll  - Undefined Reference
    QWidget::updateGeometry()                 - Undefined Reference
    _ZN7QWidget14updateGeometryEv@QtGui{00040703}[2001b2dd].dll  - Undefined Reference
    QWidget::keyReleaseEvent(QKeyEvent*)      - Undefined Reference
    _ZN7QWidget15keyReleaseEventEP9QKeyEvent@QtGui{00040703}[2001b2dd].dll  - Undefined Reference
    QWidget::mousePressEvent(QMouseEvent*)    - Undefined Reference
    _ZN7QWidget15mousePressEventEP11QMouseEvent@QtGui{00040703}[2001b2dd].dll  - Undefined Reference
    QWidget::contextMenuEvent(QContextMenuEvent*)  - Undefined Reference
    _ZN7QWidget16contextMenuEventEP17QContextMenuEvent@QtGui{00040703}[2001b2dd].dll  - Undefined Reference
    QWidget::inputMethodEvent(QInputMethodEvent*)  - Undefined Reference
    _ZN7QWidget16inputMethodEventEP17QInputMethodEvent@QtGui{00040703}[2001b2dd].dll  - Undefined Reference
    QWidget::staticMetaObject                 - Undefined Reference
    _ZN7QWidget16staticMetaObjectE@QtGui{00040703}[2001b2dd].dll  - Undefined Reference
    QWidget::mouseReleaseEvent(QMouseEvent*)  - Undefined Reference
    _ZN7QWidget17mouseReleaseEventEP11QMouseEvent@QtGui{00040703}[2001b2dd].dll  - Undefined Reference
    QWidget::focusNextPrevChild(bool)         - Undefined Reference
    _ZN7QWidget18focusNextPrevChildEb@QtGui{00040703}[2001b2dd].dll  - Undefined Reference
    QWidget::mouseDoubleClickEvent(QMouseEvent*)  - Undefined Reference
    _ZN7QWidget21mouseDoubleClickEventEP11QMouseEvent@QtGui{00040703}[2001b2dd].dll  - Undefined Reference
    QWidget::windowActivationChange(bool)     - Undefined Reference
    _ZN7QWidget22windowActivationChangeEb@QtGui{00040703}[2001b2dd].dll  - Undefined Reference
    QWidget::event(QEvent*)                   - Undefined Reference
    _ZN7QWidget5eventEP6QEvent@QtGui{00040703}[2001b2dd].dll  - Undefined Reference
    QWidget::update(const QRect&)             - Undefined Reference
    _ZN7QWidget6updateERK5QRect@QtGui{00040703}[2001b2dd].dll  - Undefined Reference
    QWidget::update()                         - Undefined Reference
    _ZN7QWidget6updateEv@QtGui{00040703}[2001b2dd].dll  - Undefined Reference
    QWidget::dropEvent(QDropEvent*)           - Undefined Reference
    _ZN7QWidget9dropEventEP10QDropEvent@QtGui{00040703}[2001b2dd].dll  - Undefined Reference
    QWidget::hideEvent(QHideEvent*)           - Undefined Reference
    _ZN7QWidget9hideEventEP10QHideEvent@QtGui{00040703}[2001b2dd].dll  - Undefined Reference
    QWidget::setLayout(QLayout*)              - Undefined Reference
    _ZN7QWidget9setLayoutEP7QLayout@QtGui{00040703}[2001b2dd].dll  - Undefined Reference
    QWidget::setParent(QWidget*)              - Undefined Reference
    _ZN7QWidget9setParentEPS_@QtGui{00040703}[2001b2dd].dll  - Undefined Reference
    QWidget::showEvent(QShowEvent*)           - Undefined Reference
    _ZN7QWidget9showEventEP10QShowEvent@QtGui{00040703}[2001b2dd].dll  - Undefined Reference
    QWidget::QWidget(QWidget*, QFlags<Qt::WindowType>)  - Undefined Reference
    _ZN7QWidgetC1EPS_6QFlagsIN2Qt10WindowTypeEE@QtGui{00040703}[2001b2dd].dll  - Undefined Reference
    QWidget::~QWidget()                       - Undefined Reference
    _ZN7QWidgetD1Ev@QtGui{00040703}[2001b2dd].dll  - Undefined Reference
    TPtrC16::TPtrC16(const unsigned short*, int)  - Undefined Reference
    _ZN7TPtrC16C1EPKti@euser{000a0000}[100039e5].dll  - Undefined Reference
    QMapData::createData(int)                 - Undefined Reference
    _ZN8QMapData10createDataEi@QtCore{00040703}[2001b2dc].dll  - Undefined Reference
    QMapData::node_create(QMapData::Node**, int, int)  - Undefined Reference
    _ZN8QMapData11node_createEPPNS_4NodeEii@QtCore{00040703}[2001b2dc].dll  - Undefined Reference
    QMapData::node_delete(QMapData::Node**, int, QMapData::Node*)  - Undefined Reference
    _ZN8QMapData11node_deleteEPPNS_4NodeEiS1_@QtCore{00040703}[2001b2dc].dll  - Undefined Reference
    QMapData::shared_null                     - Undefined Reference
    _ZN8QMapData11shared_nullE@QtCore{00040703}[2001b2dc].dll  - Undefined Reference
    QMapData::continueFreeData(int)           - Undefined Reference
    _ZN8QMapData16continueFreeDataEi@QtCore{00040703}[2001b2dc].dll  - Undefined Reference
    QPainter::drawPixmap(const QRectF&, const QPixmap&, const QRectF&)  - Undefined Reference
    _ZN8QPainter10drawPixmapERK6QRectFRK7QPixmapS2_@QtGui{00040703}[2001b2dd].dll  - Undefined Reference
    QPainter::setTransform(const QTransform&, bool)  - Undefined Reference
    _ZN8QPainter12setTransformERK10QTransformb@QtGui{00040703}[2001b2dd].dll  - Undefined Reference
    QPainter::setCompositionMode(QPainter::CompositionMode)  - Undefined Reference
    _ZN8QPainter18setCompositionModeENS_15CompositionModeE@QtGui{00040703}[2001b2dd].dll  - Undefined Reference
    QPainter::scale(float, float)             - Undefined Reference
    _ZN8QPainter5scaleEff@QtGui{00040703}[2001b2dd].dll  - Undefined Reference
    QPainter::fillRect(const QRect&, const QBrush&)  - Undefined Reference
    _ZN8QPainter8fillRectERK5QRectRK6QBrush@QtGui{00040703}[2001b2dd].dll  - Undefined Reference
    QPainter::fillRect(const QRectF&, const QBrush&)  - Undefined Reference
    _ZN8QPainter8fillRectERK6QRectFRK6QBrush@QtGui{00040703}[2001b2dd].dll  - Undefined Reference
    QPainter::fillRect(const QRectF&, const QColor&)  - Undefined Reference
    _ZN8QPainter8fillRectERK6QRectFRK6QColor@QtGui{00040703}[2001b2dd].dll  - Undefined Reference
    QPainter::drawImage(const QRectF&, const QImage&, const QRectF&, QFlags<Qt::ImageConversionFlag>)  - Undefined Reference
    _ZN8QPainter9drawImageERK6QRectFRK6QImageS2_6QFlagsIN2Qt19ImageConversionFlagEE@QtGui{00040703}[2001b2dd].dll  - Undefined Reference
    QPainter::translate(const QPointF&)       - Undefined Reference
    _ZN8QPainter9translateERK7QPointF@QtGui{00040703}[2001b2dd].dll  - Undefined Reference
    QPainter::QPainter(QPaintDevice*)         - Undefined Reference
    _ZN8QPainterC1EP12QPaintDevice@QtGui{00040703}[2001b2dd].dll  - Undefined Reference
    QPainter::~QPainter()                     - Undefined Reference
    _ZN8QPainterD1Ev@QtGui{00040703}[2001b2dd].dll  - Undefined Reference
    QPalette::setBrush(QPalette::ColorGroup, QPalette::ColorRole, const QBrush&)  - Undefined Reference
    _ZN8QPalette8setBrushENS_10ColorGroupENS_9ColorRoleERK6QBrush@QtGui{00040703}[2001b2dd].dll  - Undefined Reference
    QPalette::QPalette(const QPalette&)       - Undefined Reference
    _ZN8QPaletteC1ERKS_@QtGui{00040703}[2001b2dd].dll  - Undefined Reference
    QPalette::~QPalette()                     - Undefined Reference
    _ZN8QPaletteD1Ev@QtGui{00040703}[2001b2dd].dll  - Undefined Reference
    QVariant::data()                          - Undefined Reference
    _ZN8QVariant4dataEv@QtCore{00040703}[2001b2dc].dll  - Undefined Reference
    QVariant::handler                         - Undefined Reference
    _ZN8QVariant7handlerE@QtCore{00040703}[2001b2dc].dll  - Undefined Reference
    QVariant::QVariant(const QUrl&)           - Undefined Reference
    _ZN8QVariantC1ERK4QUrl@QtCore{00040703}[2001b2dc].dll  - Undefined Reference
    QVariant::QVariant(const QRect&)          - Undefined Reference
    _ZN8QVariantC1ERK5QRect@QtCore{00040703}[2001b2dc].dll  - Undefined Reference
    QVariant::QVariant(const QSize&)          - Undefined Reference
    _ZN8QVariantC1ERK5QSize@QtCore{00040703}[2001b2dc].dll  - Undefined Reference
    QVariant::QVariant(const QString&)        - Undefined Reference
    _ZN8QVariantC1ERK7QString@QtCore{00040703}[2001b2dc].dll  - Undefined Reference
    QVariant::QVariant(const QVariant&)       - Undefined Reference
    _ZN8QVariantC1ERKS_@QtCore{00040703}[2001b2dc].dll  - Undefined Reference
    QVariant::QVariant(bool)                  - Undefined Reference
    _ZN8QVariantC1Eb@QtCore{00040703}[2001b2dc].dll  - Undefined Reference
    QVariant::QVariant(int)                   - Undefined Reference
    _ZN8QVariantC1Ei@QtCore{00040703}[2001b2dc].dll  - Undefined Reference
    QVariant::QVariant(int, const void*, unsigned)  - Undefined Reference
    _ZN8QVariantC1EiPKvj@QtCore{00040703}[2001b2dc].dll  - Undefined Reference
    QVariant::QVariant(long long)             - Undefined Reference
    _ZN8QVariantC1Ex@QtCore{00040703}[2001b2dc].dll  - Undefined Reference
    QVariant::~QVariant()                     - Undefined Reference
    _ZN8QVariantD1Ev@QtCore{00040703}[2001b2dc].dll  - Undefined Reference
    QVariant::operator =(const QVariant&)     - Undefined Reference
    _ZN8QVariantaSERKS_@QtCore{00040703}[2001b2dc].dll  - Undefined Reference
    QHashData::free_helper(void(*)(QHashData::Node*))  - Undefined Reference
    _ZN9QHashData11free_helperEPFvPNS_4NodeEE@QtCore{00040703}[2001b2dc].dll  - Undefined Reference
    QHashData::shared_null                    - Undefined Reference
    _ZN9QHashData11shared_nullE@QtCore{00040703}[2001b2dc].dll  - Undefined Reference
    QHashData::allocateNode(int)              - Undefined Reference
    _ZN9QHashData12allocateNodeEi@QtCore{00040703}[2001b2dc].dll  - Undefined Reference
    QHashData::detach_helper2(void(*)(QHashData::Node*, void*), void(*)(QHashData::Node*), int, int)  - Undefined Reference
    _ZN9QHashData14detach_helper2EPFvPNS_4NodeEPvEPFvS1_Eii@QtCore{00040703}[2001b2dc].dll  - Undefined Reference
    QHashData::rehash(int)                    - Undefined Reference
    _ZN9QHashData6rehashEi@QtCore{00040703}[2001b2dc].dll  - Undefined Reference
    QHashData::freeNode(void*)                - Undefined Reference
    _ZN9QHashData8freeNodeEPv@QtCore{00040703}[2001b2dc].dll  - Undefined Reference
    QHashData::nextNode(QHashData::Node*)     - Undefined Reference
    _ZN9QHashData8nextNodeEPNS_4NodeE@QtCore{00040703}[2001b2dc].dll  - Undefined Reference
    QIODevice::qt_metacall(QMetaObject::Call, int, void**)  - Undefined Reference
    _ZN9QIODevice11qt_metacallEN11QMetaObject4CallEiPPv@QtCore{00040703}[2001b2dc].dll  - Undefined Reference
    QIODevice::qt_metacast(const char*)       - Undefined Reference
    _ZN9QIODevice11qt_metacastEPKc@QtCore{00040703}[2001b2dc].dll  - Undefined Reference
    QIODevice::readLineData(char*, long long)  - Undefined Reference
    _ZN9QIODevice12readLineDataEPcx@QtCore{00040703}[2001b2dc].dll  - Undefined Reference
    QIODevice::staticMetaObject               - Undefined Reference
    _ZN9QIODevice16staticMetaObjectE@QtCore{00040703}[2001b2dc].dll  - Undefined Reference
    QIODevice::waitForReadyRead(int)          - Undefined Reference
    _ZN9QIODevice16waitForReadyReadEi@QtCore{00040703}[2001b2dc].dll  - Undefined Reference
    QIODevice::waitForBytesWritten(int)       - Undefined Reference
    _ZN9QIODevice19waitForBytesWrittenEi@QtCore{00040703}[2001b2dc].dll  - Undefined Reference
    QIODevice::open(QFlags<QIODevice::OpenModeFlag>)  - Undefined Reference
    _ZN9QIODevice4openE6QFlagsINS_12OpenModeFlagEE@QtCore{00040703}[2001b2dc].dll  - Undefined Reference
    QIODevice::peek(char*, long long)         - Undefined Reference
    _ZN9QIODevice4peekEPcx@QtCore{00040703}[2001b2dc].dll  - Undefined Reference
    QIODevice::read(char*, long long)         - Undefined Reference
    _ZN9QIODevice4readEPcx@QtCore{00040703}[2001b2dc].dll  - Undefined Reference
    QIODevice::read(long long)                - Undefined Reference
    _ZN9QIODevice4readEx@QtCore{00040703}[2001b2dc].dll  - Undefined Reference
    QIODevice::seek(long long)                - Undefined Reference
    _ZN9QIODevice4seekEx@QtCore{00040703}[2001b2dc].dll  - Undefined Reference
    QIODevice::close()                        - Undefined Reference
    _ZN9QIODevice5closeEv@QtCore{00040703}[2001b2dc].dll  - Undefined Reference
    QIODevice::reset()                        - Undefined Reference
    _ZN9QIODevice5resetEv@QtCore{00040703}[2001b2dc].dll  - Undefined Reference
    QIODevice::write(const char*, long long)  - Undefined Reference
    _ZN9QIODevice5writeEPKcx@QtCore{00040703}[2001b2dc].dll  - Undefined Reference
    QIODevice::readyRead()                    - Undefined Reference
    _ZN9QIODevice9readyReadEv@QtCore{00040703}[2001b2dc].dll  - Undefined Reference
    QIODevice::QIODevice__sub_object(QObject*)  - Undefined Reference
    _ZN9QIODeviceC2EP7QObject@QtCore{00040703}[2001b2dc].dll  - Undefined Reference
    QIODevice::QIODevice__sub_object()        - Undefined Reference
    _ZN9QIODeviceC2Ev@QtCore{00040703}[2001b2dc].dll  - Undefined Reference
    QIODevice::~QIODevice__sub_object()       - Undefined Reference
    _ZN9QIODeviceD2Ev@QtCore{00040703}[2001b2dc].dll  - Undefined Reference
    QListData::detach_grow(int*, int)         - Undefined Reference
    _ZN9QListData11detach_growEPii@QtCore{00040703}[2001b2dc].dll  - Undefined Reference
    QListData::shared_null                    - Undefined Reference
    _ZN9QListData11shared_nullE@QtCore{00040703}[2001b2dc].dll  - Undefined Reference
    QListData::erase(void**)                  - Undefined Reference
    _ZN9QListData5eraseEPPv@QtCore{00040703}[2001b2dc].dll  - Undefined Reference
    QListData::append()                       - Undefined Reference
    _ZN9QListData6appendEv@QtCore{00040703}[2001b2dc].dll  - Undefined Reference
    QListData::detach(int)                    - Undefined Reference
    _ZN9QListData6detachEi@QtCore{00040703}[2001b2dc].dll  - Undefined Reference
    QListData::insert(int)                    - Undefined Reference
    _ZN9QListData6insertEi@QtCore{00040703}[2001b2dc].dll  - Undefined Reference
    QListData::remove(int)                    - Undefined Reference
    _ZN9QListData6removeEi@QtCore{00040703}[2001b2dc].dll  - Undefined Reference
    QListData::remove(int, int)               - Undefined Reference
    _ZN9QListData6removeEii@QtCore{00040703}[2001b2dc].dll  - Undefined Reference
    QListData::append2(const QListData&)      - Undefined Reference
    _ZN9QListData7append2ERKS_@QtCore{00040703}[2001b2dc].dll  - Undefined Reference
    QListData::prepend()                      - Undefined Reference
    _ZN9QListData7prependEv@QtCore{00040703}[2001b2dc].dll  - Undefined Reference
    QListData::realloc(int)                   - Undefined Reference
    _ZN9QListData7reallocEi@QtCore{00040703}[2001b2dc].dll  - Undefined Reference
    QMetaType::registerType(const char*, void(*)(void*), void*(*)(const void*))  - Undefined Reference
    _ZN9QMetaType12registerTypeEPKcPFvPvEPFS2_PKvE@QtCore{00040703}[2001b2dc].dll  - Undefined Reference
    QMetaType::registerTypedef(const char*, int)  - Undefined Reference
    _ZN9QMetaType15registerTypedefEPKci@QtCore{00040703}[2001b2dc].dll  - Undefined Reference
    QMetaType::typeName(int)                  - Undefined Reference
    _ZN9QMetaType8typeNameEi@QtCore{00040703}[2001b2dc].dll  - Undefined Reference
    QtPrivate::QStringList_contains(const QStringList*, const QString&, Qt::CaseSensitivity)  - Undefined Reference
    _ZN9QtPrivate20QStringList_containsEPK11QStringListRK7QStringN2Qt15CaseSensitivityE@QtCore{00040703}[2001b2dc].dll  - Undefined Reference
    QtPrivate::QStringList_removeDuplicates(QStringList*)  - Undefined Reference
    _ZN9QtPrivate28QStringList_removeDuplicatesEP11QStringList@QtCore{00040703}[2001b2dc].dll  - Undefined Reference
    QTransform::map(const QLineF&) const      - Undefined Reference
    _ZNK10QTransform3mapERK6QLineF@QtGui{00040703}[2001b2dd].dll  - Undefined Reference
    QTransform::mapRect(const QRectF&) const  - Undefined Reference
    _ZNK10QTransform7mapRectERK6QRectF@QtGui{00040703}[2001b2dd].dll  - Undefined Reference
    QTransform::operator !=(const QTransform&) const  - Undefined Reference
    _ZNK10QTransformneERKS_@QtGui{00040703}[2001b2dd].dll  - Undefined Reference
    QMetaMethod::invoke(QObject*, Qt::ConnectionType, QGenericReturnArgument, QGenericArgument, QGenericArgument, QGenericArgument, QGenericArgument, QGenericArgument, QGenericArgument, QGenericArgument, QGenericArgument, QGenericArgument, QGenericArgument) const  - Undefined Reference
    _ZNK11QMetaMethod6invokeEP7QObjectN2Qt14ConnectionTypeE22QGenericReturnArgument16QGenericArgumentS5_S5_S5_S5_S5_S5_S5_S5_S5_@QtCore{00040703}[2001b2dc].dll  - Undefined Reference
    QMetaObject::indexOfProperty(const char*) const  - Undefined Reference
    _ZNK11QMetaObject15indexOfPropertyEPKc@QtCore{00040703}[2001b2dc].dll  - Undefined Reference
    QMetaObject::tr(const char*, const char*) const  - Undefined Reference
    _ZNK11QMetaObject2trEPKcS1_@QtCore{00040703}[2001b2dc].dll  - Undefined Reference
    QMetaObject::cast(QObject*) const         - Undefined Reference
    _ZNK11QMetaObject4castEP7QObject@QtCore{00040703}[2001b2dc].dll  - Undefined Reference
    QMetaObject::property(int) const          - Undefined Reference
    _ZNK11QMetaObject8propertyEi@QtCore{00040703}[2001b2dc].dll  - Undefined Reference
    CMMFDevSound::Config() const              - Undefined Reference
    _ZNK12CMMFDevSound6ConfigEv@mmfdevsound{000a0000}[100058cc].dll  - Undefined Reference
    QImageReader::canRead() const             - Undefined Reference
    _ZNK12QImageReader7canReadEv@QtGui{00040703}[2001b2dd].dll  - Undefined Reference
    QGraphicsItem::opaqueArea() const         - Undefined Reference
    _ZNK13QGraphicsItem10opaqueAreaEv@QtGui{00040703}[2001b2dd].dll  - Undefined Reference
    QGraphicsItem::parentItem() const         - Undefined Reference
    _ZNK13QGraphicsItem10parentItemEv@QtGui{00040703}[2001b2dd].dll  - Undefined Reference
    QGraphicsItem::isObscuredBy(const QGraphicsItem*) const  - Undefined Reference
    _ZNK13QGraphicsItem12isObscuredByEPKS_@QtGui{00040703}[2001b2dd].dll  - Undefined Reference
    QGraphicsItem::collidesWithItem(const QGraphicsItem*, Qt::ItemSelectionMode) const  - Undefined Reference
    _ZNK13QGraphicsItem16collidesWithItemEPKS_N2Qt17ItemSelectionModeE@QtGui{00040703}[2001b2dd].dll  - Undefined Reference
    QGraphicsItem::collidesWithPath(const QPainterPath&, Qt::ItemSelectionMode) const  - Undefined Reference
    _ZNK13QGraphicsItem16collidesWithPathERK12QPainterPathN2Qt17ItemSelectionModeE@QtGui{00040703}[2001b2dd].dll  - Undefined Reference
    QGraphicsItem::inputMethodQuery(Qt::InputMethodQuery) const  - Undefined Reference
    _ZNK13QGraphicsItem16inputMethodQueryEN2Qt16InputMethodQueryE@QtGui{00040703}[2001b2dd].dll  - Undefined Reference
    QGraphicsItem::supportsExtension(QGraphicsItem::Extension) const  - Undefined Reference
    _ZNK13QGraphicsItem17supportsExtensionENS_9ExtensionE@QtGui{00040703}[2001b2dd].dll  - Undefined Reference
    QGraphicsItem::type() const               - Undefined Reference
    _ZNK13QGraphicsItem4typeEv@QtGui{00040703}[2001b2dd].dll  - Undefined Reference
    QGraphicsItem::scene() const              - Undefined Reference
    _ZNK13QGraphicsItem5sceneEv@QtGui{00040703}[2001b2dd].dll  - Undefined Reference
    QGraphicsItem::shape() const              - Undefined Reference
    _ZNK13QGraphicsItem5shapeEv@QtGui{00040703}[2001b2dd].dll  - Undefined Reference
    QGraphicsItem::contains(const QPointF&) const  - Undefined Reference
    _ZNK13QGraphicsItem8containsERK7QPointF@QtGui{00040703}[2001b2dd].dll  - Undefined Reference
    QGraphicsItem::extension(const QVariant&) const  - Undefined Reference
    _ZNK13QGraphicsItem9extensionERK8QVariant@QtGui{00040703}[2001b2dd].dll  - Undefined Reference
    QGraphicsView::viewportUpdateMode() const  - Undefined Reference
    _ZNK13QGraphicsView18viewportUpdateModeEv@QtGui{00040703}[2001b2dd].dll  - Undefined Reference
    QGraphicsView::items() const              - Undefined Reference
    _ZNK13QGraphicsView5itemsEv@QtGui{00040703}[2001b2dd].dll  - Undefined Reference
    QGraphicsView::scene() const              - Undefined Reference
    _ZNK13QGraphicsView5sceneEv@QtGui{00040703}[2001b2dd].dll  - Undefined Reference
    QMetaProperty::notifySignal() const       - Undefined Reference
    _ZNK13QMetaProperty12notifySignalEv@QtCore{00040703}[2001b2dc].dll  - Undefined Reference
    QMetaProperty::hasNotifySignal() const    - Undefined Reference
    _ZNK13QMetaProperty15hasNotifySignalEv@QtCore{00040703}[2001b2dc].dll  - Undefined Reference
    QMetaProperty::read(const QObject*) const  - Undefined Reference
    _ZNK13QMetaProperty4readEPK7QObject@QtCore{00040703}[2001b2dc].dll  - Undefined Reference
    QMetaProperty::userType() const           - Undefined Reference
    _ZNK13QMetaProperty8userTypeEv@QtCore{00040703}[2001b2dc].dll  - Undefined Reference
    QNetworkReply::url() const                - Undefined Reference
    _ZNK13QNetworkReply3urlEv@QtNetwork{00040703}[2001b2de].dll  - Undefined Reference
    QNetworkReply::header(QNetworkRequest::KnownHeaders) const  - Undefined Reference
    _ZNK13QNetworkReply6headerEN15QNetworkRequest12KnownHeadersE@QtNetwork{00040703}[2001b2de].dll  - Undefined Reference
    QNetworkReply::request() const            - Undefined Reference
    _ZNK13QNetworkReply7requestEv@QtNetwork{00040703}[2001b2de].dll  - Undefined Reference
    QGraphicsScene::itemIndexMethod() const   - Undefined Reference
    _ZNK14QGraphicsScene15itemIndexMethodEv@QtGui{00040703}[2001b2dd].dll  - Undefined Reference
    QGraphicsScene::views() const             - Undefined Reference
    _ZNK14QGraphicsScene5viewsEv@QtGui{00040703}[2001b2dd].dll  - Undefined Reference
    QNetworkRequest::url() const              - Undefined Reference
    _ZNK15QNetworkRequest3urlEv@QtNetwork{00040703}[2001b2de].dll  - Undefined Reference
    QNetworkRequest::operator ==(const QNetworkRequest&) const  - Undefined Reference
    _ZNK15QNetworkRequesteqERKS_@QtNetwork{00040703}[2001b2de].dll  - Undefined Reference
    XLeaveException::GetReason() const        - Undefined Reference
    _ZNK15XLeaveException9GetReasonEv@euser{000a0000}[100039e5].dll  - Undefined Reference
    QAbstractScrollArea::viewport() const     - Undefined Reference
    _ZNK19QAbstractScrollArea8viewportEv@QtGui{00040703}[2001b2dd].dll  - Undefined Reference
    RFs::Att(const TDesC16&, unsigned&) const  - Undefined Reference
    _ZNK3RFs3AttERK7TDesC16Rj@efsrv{000a0000}[100039e4].dll  - Undefined Reference
    QDir::absolutePath() const                - Undefined Reference
    _ZNK4QDir12absolutePathEv@QtCore{00040703}[2001b2dc].dll  - Undefined Reference
    QDir::absoluteFilePath(const QString&) const  - Undefined Reference
    _ZNK4QDir16absoluteFilePathERK7QString@QtCore{00040703}[2001b2dc].dll  - Undefined Reference
    QDir::exists() const                      - Undefined Reference
    _ZNK4QDir6existsEv@QtCore{00040703}[2001b2dc].dll  - Undefined Reference
    QDir::entryList(QFlags<QDir::Filter>, QFlags<QDir::SortFlag>) const  - Undefined Reference
    _ZNK4QDir9entryListE6QFlagsINS_6FilterEES0_INS_8SortFlagEE@QtCore{00040703}[2001b2dc].dll  - Undefined Reference
    QUrl::toLocalFile() const                 - Undefined Reference
    _ZNK4QUrl11toLocalFileEv@QtCore{00040703}[2001b2dc].dll  - Undefined Reference
    QUrl::path() const                        - Undefined Reference
    _ZNK4QUrl4pathEv@QtCore{00040703}[2001b2dc].dll  - Undefined Reference
    QUrl::scheme() const                      - Undefined Reference
    _ZNK4QUrl6schemeEv@QtCore{00040703}[2001b2dc].dll  - Undefined Reference
    QUrl::isEmpty() const                     - Undefined Reference
    _ZNK4QUrl7isEmptyEv@QtCore{00040703}[2001b2dc].dll  - Undefined Reference
    QUrl::operator ==(const QUrl&) const      - Undefined Reference
    _ZNK4QUrleqERKS_@QtCore{00040703}[2001b2dc].dll  - Undefined Reference
    QUrl::operator <(const QUrl&) const       - Undefined Reference
    _ZNK4QUrlltERKS_@QtCore{00040703}[2001b2dc].dll  - Undefined Reference
    QRect::intersects(const QRect&) const     - Undefined Reference
    _ZNK5QRect10intersectsERKS_@QtCore{00040703}[2001b2dc].dll  - Undefined Reference
    QRect::operator &(const QRect&) const     - Undefined Reference
    _ZNK5QRectanERKS_@QtCore{00040703}[2001b2dc].dll  - Undefined Reference
    QTime::elapsed() const                    - Undefined Reference
    _ZNK5QTime7elapsedEv@QtCore{00040703}[2001b2dc].dll  - Undefined Reference
    QImage::bytesPerLine() const              - Undefined Reference
    _ZNK6QImage12bytesPerLineEv@QtGui{00040703}[2001b2dd].dll  - Undefined Reference
    QImage::convertToFormat(QImage::Format, QFlags<Qt::ImageConversionFlag>) const  - Undefined Reference
    _ZNK6QImage15convertToFormatENS_6FormatE6QFlagsIN2Qt19ImageConversionFlagEE@QtGui{00040703}[2001b2dd].dll  - Undefined Reference
    QImage::size() const                      - Undefined Reference
    _ZNK6QImage4sizeEv@QtGui{00040703}[2001b2dd].dll  - Undefined Reference
    QImage::format() const                    - Undefined Reference
    _ZNK6QImage6formatEv@QtGui{00040703}[2001b2dd].dll  - Undefined Reference
    QImage::isNull() const                    - Undefined Reference
    _ZNK6QImage6isNullEv@QtGui{00040703}[2001b2dd].dll  - Undefined Reference
    QImage::byteCount() const                 - Undefined Reference
    _ZNK6QImage9byteCountEv@QtGui{00040703}[2001b2dd].dll  - Undefined Reference
    QLineF::angle() const                     - Undefined Reference
    _ZNK6QLineF5angleEv@QtCore{00040703}[2001b2dc].dll  - Undefined Reference
    QRectF::operator &(const QRectF&) const   - Undefined Reference
    _ZNK6QRectFanERKS_@QtCore{00040703}[2001b2dc].dll  - Undefined Reference
    QSound::isFinished() const                - Undefined Reference
    _ZNK6QSound10isFinishedEv@QtGui{00040703}[2001b2dd].dll  - Undefined Reference
    TDesC8::Ptr() const                       - Undefined Reference
    _ZNK6TDesC83PtrEv@euser{000a0000}[100039e5].dll  - Undefined Reference
    QObject::sender() const                   - Undefined Reference
    _ZNK7QObject6senderEv@QtCore{00040703}[2001b2dc].dll  - Undefined Reference
    QObject::property(const char*) const      - Undefined Reference
    _ZNK7QObject8propertyEPKc@QtCore{00040703}[2001b2dc].dll  - Undefined Reference
    QRegion::rects() const                    - Undefined Reference
    _ZNK7QRegion5rectsEv@QtGui{00040703}[2001b2dd].dll  - Undefined Reference
    QRegion::subtract(const QRegion&) const   - Undefined Reference
    _ZNK7QRegion8subtractERKS_@QtGui{00040703}[2001b2dd].dll  - Undefined Reference
    QString::startsWith(const QLatin1String&, Qt::CaseSensitivity) const  - Undefined Reference
    _ZNK7QString10startsWithERK13QLatin1StringN2Qt15CaseSensitivityE@QtCore{00040703}[2001b2dc].dll  - Undefined Reference
    QString::toLocal8Bit() const              - Undefined Reference
    _ZNK7QString11toLocal8BitEv@QtCore{00040703}[2001b2dc].dll  - Undefined Reference
    QString::arg(const QString&, int, const QChar&) const  - Undefined Reference
    _ZNK7QString3argERKS_iRK5QChar@QtCore{00040703}[2001b2dc].dll  - Undefined Reference
    QString::arg(long long, int, int, const QChar&) const  - Undefined Reference
    _ZNK7QString3argExiiRK5QChar@QtCore{00040703}[2001b2dc].dll  - Undefined Reference
    QString::utf16() const                    - Undefined Reference
    _ZNK7QString5utf16Ev@QtCore{00040703}[2001b2dc].dll  - Undefined Reference
    QString::section(const QString&, int, int, QFlags<QString::SectionFlag>) const  - Undefined Reference
    _ZNK7QString7sectionERKS_ii6QFlagsINS_11SectionFlagEE@QtCore{00040703}[2001b2dc].dll  - Undefined Reference
    QString::endsWith(const QLatin1String&, Qt::CaseSensitivity) const  - Undefined Reference
    _ZNK7QString8endsWithERK13QLatin1StringN2Qt15CaseSensitivityE@QtCore{00040703}[2001b2dc].dll  - Undefined Reference
    QString::endsWith(const QString&, Qt::CaseSensitivity) const  - Undefined Reference
    _ZNK7QString8endsWithERKS_N2Qt15CaseSensitivityE@QtCore{00040703}[2001b2dc].dll  - Undefined Reference
    QString::operator ==(const QLatin1String&) const  - Undefined Reference
    _ZNK7QStringeqERK13QLatin1String@QtCore{00040703}[2001b2dc].dll  - Undefined Reference
    QString::operator ==(const QString&) const  - Undefined Reference
    _ZNK7QStringeqERKS_@QtCore{00040703}[2001b2dc].dll  - Undefined Reference
    QString::operator <(const QString&) const  - Undefined Reference
    _ZNK7QStringltERKS_@QtCore{00040703}[2001b2dc].dll  - Undefined Reference
    QThread::isRunning() const                - Undefined Reference
    _ZNK7QThread9isRunningEv@QtCore{00040703}[2001b2dc].dll  - Undefined Reference
    QWidget::mapToGlobal(const QPoint&) const  - Undefined Reference
    _ZNK7QWidget11mapToGlobalERK6QPoint@QtGui{00040703}[2001b2dd].dll  - Undefined Reference
    QWidget::paintEngine() const              - Undefined Reference
    _ZNK7QWidget11paintEngineEv@QtGui{00040703}[2001b2dd].dll  - Undefined Reference
    QWidget::windowState() const              - Undefined Reference
    _ZNK7QWidget11windowStateEv@QtGui{00040703}[2001b2dd].dll  - Undefined Reference
    QWidget::isFullScreen() const             - Undefined Reference
    _ZNK7QWidget12isFullScreenEv@QtGui{00040703}[2001b2dd].dll  - Undefined Reference
    QWidget::effectiveWinId() const           - Undefined Reference
    _ZNK7QWidget14effectiveWinIdEv@QtGui{00040703}[2001b2dd].dll  - Undefined Reference
    QWidget::heightForWidth(int) const        - Undefined Reference
    _ZNK7QWidget14heightForWidthEi@QtGui{00040703}[2001b2dd].dll  - Undefined Reference
    QWidget::minimumSizeHint() const          - Undefined Reference
    _ZNK7QWidget15minimumSizeHintEv@QtGui{00040703}[2001b2dd].dll  - Undefined Reference
    QWidget::inputMethodQuery(Qt::InputMethodQuery) const  - Undefined Reference
    _ZNK7QWidget16inputMethodQueryEN2Qt16InputMethodQueryE@QtGui{00040703}[2001b2dd].dll  - Undefined Reference
    QWidget::testAttribute_helper(Qt::WidgetAttribute) const  - Undefined Reference
    _ZNK7QWidget20testAttribute_helperEN2Qt15WidgetAttributeE@QtGui{00040703}[2001b2dd].dll  - Undefined Reference
    QWidget::winId() const                    - Undefined Reference
    _ZNK7QWidget5winIdEv@QtGui{00040703}[2001b2dd].dll  - Undefined Reference
    QWidget::layout() const                   - Undefined Reference
    _ZNK7QWidget6layoutEv@QtGui{00040703}[2001b2dd].dll  - Undefined Reference
    QWidget::metric(QPaintDevice::PaintDeviceMetric) const  - Undefined Reference
    _ZNK7QWidget6metricEN12QPaintDevice17PaintDeviceMetricE@QtGui{00040703}[2001b2dd].dll  - Undefined Reference
    QWidget::window() const                   - Undefined Reference
    _ZNK7QWidget6windowEv@QtGui{00040703}[2001b2dd].dll  - Undefined Reference
    QWidget::devType() const                  - Undefined Reference
    _ZNK7QWidget7devTypeEv@QtGui{00040703}[2001b2dd].dll  - Undefined Reference
    QWidget::palette() const                  - Undefined Reference
    _ZNK7QWidget7paletteEv@QtGui{00040703}[2001b2dd].dll  - Undefined Reference
    QWidget::sizeHint() const                 - Undefined Reference
    _ZNK7QWidget8sizeHintEv@QtGui{00040703}[2001b2dd].dll  - Undefined Reference
    QPainter::compositionMode() const         - Undefined Reference
    _ZNK8QPainter15compositionModeEv@QtGui{00040703}[2001b2dd].dll  - Undefined Reference
    QPainter::combinedTransform() const       - Undefined Reference
    _ZNK8QPainter17combinedTransformEv@QtGui{00040703}[2001b2dd].dll  - Undefined Reference
    QPainter::transform() const               - Undefined Reference
    _ZNK8QPainter9transformEv@QtGui{00040703}[2001b2dd].dll  - Undefined Reference
    QPalette::brush(QPalette::ColorGroup, QPalette::ColorRole) const  - Undefined Reference
    _ZNK8QPalette5brushENS_10ColorGroupENS_9ColorRoleE@QtGui{00040703}[2001b2dd].dll  - Undefined Reference
    QVariant::canConvert(QVariant::Type) const  - Undefined Reference
    _ZNK8QVariant10canConvertENS_4TypeE@QtCore{00040703}[2001b2dc].dll  - Undefined Reference
    QVariant::cmp(const QVariant&) const      - Undefined Reference
    _ZNK8QVariant3cmpERKS_@QtCore{00040703}[2001b2dc].dll  - Undefined Reference
    QVariant::toInt(bool*) const              - Undefined Reference
    _ZNK8QVariant5toIntEPb@QtCore{00040703}[2001b2dc].dll  - Undefined Reference
    QVariant::isNull() const                  - Undefined Reference
    _ZNK8QVariant6isNullEv@QtCore{00040703}[2001b2dc].dll  - Undefined Reference
    QVariant::toBool() const                  - Undefined Reference
    _ZNK8QVariant6toBoolEv@QtCore{00040703}[2001b2dc].dll  - Undefined Reference
    QVariant::toReal(bool*) const             - Undefined Reference
    _ZNK8QVariant6toRealEPb@QtCore{00040703}[2001b2dc].dll  - Undefined Reference
    QVariant::toSize() const                  - Undefined Reference
    _ZNK8QVariant6toSizeEv@QtCore{00040703}[2001b2dc].dll  - Undefined Reference
    QVariant::toString() const                - Undefined Reference
    _ZNK8QVariant8toStringEv@QtCore{00040703}[2001b2dc].dll  - Undefined Reference
    QVariant::userType() const                - Undefined Reference
    _ZNK8QVariant8userTypeEv@QtCore{00040703}[2001b2dc].dll  - Undefined Reference
    QVariant::constData() const               - Undefined Reference
    _ZNK8QVariant9constDataEv@QtCore{00040703}[2001b2dc].dll  - Undefined Reference
    QIODevice::canReadLine() const            - Undefined Reference
    _ZNK9QIODevice11canReadLineEv@QtCore{00040703}[2001b2dc].dll  - Undefined Reference
    QIODevice::bytesToWrite() const           - Undefined Reference
    _ZNK9QIODevice12bytesToWriteEv@QtCore{00040703}[2001b2dc].dll  - Undefined Reference
    QIODevice::isSequential() const           - Undefined Reference
    _ZNK9QIODevice12isSequentialEv@QtCore{00040703}[2001b2dc].dll  - Undefined Reference
    QIODevice::bytesAvailable() const         - Undefined Reference
    _ZNK9QIODevice14bytesAvailableEv@QtCore{00040703}[2001b2dc].dll  - Undefined Reference
    QIODevice::pos() const                    - Undefined Reference
    _ZNK9QIODevice3posEv@QtCore{00040703}[2001b2dc].dll  - Undefined Reference
    QIODevice::size() const                   - Undefined Reference
    _ZNK9QIODevice4sizeEv@QtCore{00040703}[2001b2dc].dll  - Undefined Reference
    QIODevice::atEnd() const                  - Undefined Reference
    _ZNK9QIODevice5atEndEv@QtCore{00040703}[2001b2dc].dll  - Undefined Reference
    typeinfo for QGraphicsObject              - Undefined Reference
    _ZTI15QGraphicsObject@QtGui{00040703}[2001b2dd].dll  - Undefined Reference
    typeinfo for XLeaveException              - Undefined Reference
    _ZTI15XLeaveException@drtaeabi{000a0000}.dll  - Undefined Reference
    typeinfo for QObject                      - Undefined Reference
    _ZTI7QObject@QtCore{00040703}[2001b2dc].dll  - Undefined Reference
    typeinfo for QWidget                      - Undefined Reference
    _ZTI7QWidget@QtGui{00040703}[2001b2dd].dll  - Undefined Reference
    typeinfo for QIODevice                    - Undefined Reference
    _ZTI9QIODevice@QtCore{00040703}[2001b2dc].dll  - Undefined Reference
    typeinfo for std::bad_alloc               - Undefined Reference
    _ZTISt9bad_alloc@stdnew{000a0000}[20022178].dll  - Undefined Reference
    vtable for __cxxabiv1::__class_type_info  - Undefined Reference
    _ZTVN10__cxxabiv117__class_type_infoE@drtaeabi{000a0000}.dll  - Undefined Reference
    vtable for __cxxabiv1::__si_class_type_info  - Undefined Reference
    _ZTVN10__cxxabiv120__si_class_type_infoE@drtaeabi{000a0000}.dll  - Undefined Reference
    vtable for __cxxabiv1::__vmi_class_type_info  - Undefined Reference
    _ZTVN10__cxxabiv121__vmi_class_type_infoE@drtaeabi{000a0000}.dll  - Undefined Reference
    thunk{-8} to QWidget::paintEngine() const  - Undefined Reference
    _ZThn8_NK7QWidget11paintEngineEv@QtGui{00040703}[2001b2dd].dll  - Undefined Reference
    thunk{-8} to QWidget::metric(QPaintDevice::PaintDeviceMetric) const  - Undefined Reference
    _ZThn8_NK7QWidget6metricEN12QPaintDevice17PaintDeviceMetricE@QtGui{00040703}[2001b2dd].dll  - Undefined Reference
    thunk{-8} to QWidget::devType() const     - Undefined Reference
    _ZThn8_NK7QWidget7devTypeEv@QtGui{00040703}[2001b2dd].dll  - Undefined Reference
    operator delete (void*)                   - Undefined Reference
    _ZdlPv@stdnew{000a0000}[20022178].dll     - Undefined Reference
    operator <<(QDebug, const QRect&)         - Undefined Reference
    _Zls6QDebugRK5QRect@QtCore{00040703}[2001b2dc].dll  - Undefined Reference
    operator <<(QDebug, const QSize&)         - Undefined Reference
    _Zls6QDebugRK5QSize@QtCore{00040703}[2001b2dc].dll  - Undefined Reference
    operator <<(QDebug, const QVariant&)      - Undefined Reference
    _Zls6QDebugRK8QVariant@QtCore{00040703}[2001b2dc].dll  - Undefined Reference
    operator new(unsigned)                    - Undefined Reference
    _Znwj@stdnew{000a0000}[20022178].dll      - Undefined Reference
    __ARM_ll_addls                            - Undefined Reference
    __ARM_ll_addls@drtrvct2_2{000a0000}.dll   - Undefined Reference
    __ARM_ll_addlu                            - Undefined Reference
    __ARM_ll_addlu@drtrvct2_2{000a0000}.dll   - Undefined Reference
    __ARM_ll_cmpge                            - Undefined Reference
    __ARM_ll_cmpge@drtrvct2_2{000a0000}.dll   - Undefined Reference
    __ARM_ll_cmple                            - Undefined Reference
    __ARM_ll_cmple@drtrvct2_2{000a0000}.dll   - Undefined Reference
    __ARM_ll_cmpu                             - Undefined Reference
    __ARM_ll_cmpu@drtrvct2_2{000a0000}.dll    - Undefined Reference
    __ARM_ll_mulls                            - Undefined Reference
    __ARM_ll_mulls@drtrvct2_2{000a0000}.dll   - Undefined Reference
    __ARM_ll_mullu                            - Undefined Reference
    __ARM_ll_mullu@drtrvct2_2{000a0000}.dll   - Undefined Reference
    __ARM_ll_muluu                            - Undefined Reference
    __ARM_ll_muluu@drtrvct2_2{000a0000}.dll   - Undefined Reference
    __ARM_ll_rsbls                            - Undefined Reference
    __ARM_ll_rsbls@drtrvct2_2{000a0000}.dll   - Undefined Reference
    __ARM_ll_rsblu                            - Undefined Reference
    __ARM_ll_rsblu@drtrvct2_2{000a0000}.dll   - Undefined Reference
    __ARM_ll_subls                            - Undefined Reference
    __ARM_ll_subls@drtrvct2_2{000a0000}.dll   - Undefined Reference
    __ARM_ll_sublu                            - Undefined Reference
    __ARM_ll_sublu@drtrvct2_2{000a0000}.dll   - Undefined Reference
    __aeabi_cdcmple                           - Undefined Reference
    __aeabi_cdcmple@dfpaeabi{000a0000}.dll    - Undefined Reference
    __aeabi_cdrcmple                          - Undefined Reference
    __aeabi_cdrcmple@dfpaeabi{000a0000}.dll   - Undefined Reference
    __aeabi_cfcmple                           - Undefined Reference
    __aeabi_cfcmple@dfpaeabi{000a0000}.dll    - Undefined Reference
    __aeabi_cfrcmple                          - Undefined Reference
    __aeabi_cfrcmple@dfpaeabi{000a0000}.dll   - Undefined Reference
    __aeabi_d2f                               - Undefined Reference
    __aeabi_d2f@dfpaeabi{000a0000}.dll        - Undefined Reference
    __aeabi_d2iz                              - Undefined Reference
    __aeabi_d2iz@dfpaeabi{000a0000}.dll       - Undefined Reference
    __aeabi_dadd                              - Undefined Reference
    __aeabi_dadd@dfpaeabi{000a0000}.dll       - Undefined Reference
    __aeabi_dmul                              - Undefined Reference
    __aeabi_dmul@dfpaeabi{000a0000}.dll       - Undefined Reference
    __aeabi_f2d                               - Undefined Reference
    __aeabi_f2d@dfpaeabi{000a0000}.dll        - Undefined Reference
    __aeabi_f2iz                              - Undefined Reference
    __aeabi_f2iz@dfpaeabi{000a0000}.dll       - Undefined Reference
    __aeabi_fadd                              - Undefined Reference
    __aeabi_fadd@dfpaeabi{000a0000}.dll       - Undefined Reference
    __aeabi_fdiv                              - Undefined Reference
    __aeabi_fdiv@dfpaeabi{000a0000}.dll       - Undefined Reference
    __aeabi_fmul                              - Undefined Reference
    __aeabi_fmul@dfpaeabi{000a0000}.dll       - Undefined Reference
    __aeabi_frsub                             - Undefined Reference
    __aeabi_frsub@dfpaeabi{000a0000}.dll      - Undefined Reference
    __aeabi_fsub                              - Undefined Reference
    __aeabi_fsub@dfpaeabi{000a0000}.dll       - Undefined Reference
    __aeabi_i2f                               - Undefined Reference
    __aeabi_i2f@dfpaeabi{000a0000}.dll        - Undefined Reference
    __aeabi_idivmod                           - Undefined Reference
    __aeabi_idivmod@drtaeabi{000a0000}.dll    - Undefined Reference
    __aeabi_ldivmod                           - Undefined Reference
    __aeabi_ldivmod@drtaeabi{000a0000}.dll    - Undefined Reference
    __aeabi_memclr4                           - Undefined Reference
    __aeabi_memclr4@drtaeabi{000a0000}.dll    - Undefined Reference
    __aeabi_memcpy                            - Undefined Reference
    __aeabi_memcpy4                           - Undefined Reference
    __aeabi_memcpy4@drtaeabi{000a0000}.dll    - Undefined Reference
    __aeabi_memcpy@drtaeabi{000a0000}.dll     - Undefined Reference
    __aeabi_uidivmod                          - Undefined Reference
    __aeabi_uidivmod@drtaeabi{000a0000}.dll   - Undefined Reference
    __aeabi_unwind_cpp_pr0                    - Undefined Reference
    __aeabi_unwind_cpp_pr0@drtaeabi{000a0000}.dll  - Undefined Reference
    __cxa_begin_catch                         - Undefined Reference
    __cxa_begin_catch@drtaeabi{000a0000}.dll  - Undefined Reference
    __cxa_end_catch                           - Undefined Reference
    __cxa_end_catch@drtaeabi{000a0000}.dll    - Undefined Reference
    __cxa_end_cleanup                         - Undefined Reference
    __cxa_end_cleanup@drtaeabi{000a0000}.dll  - Undefined Reference
    __cxa_guard_abort                         - Undefined Reference
    __cxa_guard_abort@drtaeabi{000a0000}.dll  - Undefined Reference
    __cxa_guard_acquire                       - Undefined Reference
    __cxa_guard_acquire@drtaeabi{000a0000}.dll  - Undefined Reference
    __cxa_guard_release                       - Undefined Reference
    __cxa_guard_release@drtaeabi{000a0000}.dll  - Undefined Reference
    __cxa_pure_virtual                        - Undefined Reference
    __cxa_pure_virtual@drtaeabi{000a0000}.dll  - Undefined Reference
    __cxa_rethrow                             - Undefined Reference
    __cxa_rethrow@drtaeabi{000a0000}.dll      - Undefined Reference
    memclr                                    - Undefined Reference
    memclr@euser{000a0000}[100039e5].dll      - Undefined Reference
    memcmp                                    - Undefined Reference
    memcmp@libc{00010001}[10207369].dll       - Undefined Reference
    strcmp                                    - Undefined Reference
    strcmp@libc{00010001}[10207369].dll       - Undefined Reference
    strncmp                                   - Undefined Reference
    strncmp@libc{00010001}[10207369].dll      - Undefined Reference
    Image$$ER_RO$$Base                       0x00008000   Number         0  anon$$obj.o(linker$$defined$$symbols)
    _E32Dll                                  0x00008000   ARM Code      40  uc_dll_.o(.emb_text)
    Symbian$$CPP$$Exception$$Descriptor      0x00008014   Data           0  uc_dll_.o(.emb_text)
    __cpp_initialize__aeabi_                 0x00008028   ARM Code      52  ucppinit.o(.emb_text)
    std::nothrow                             0x0000805c   ARM Code       0  ucppinit.o(.emb_text)
    __PLT                                    0x0000805c   ARM Code       0  anon$$obj.o(.plt)
    SymbianAudio::DevSoundWrapper::getStaticMetaObject() 0x00008c65   Thumb Code     4  moc_qaudio_symbian_p.o(.text)
    SymbianAudio::DevSoundWrapper::metaObject() const 0x00008c69   Thumb Code    28  moc_qaudio_symbian_p.o(.text)
    SymbianAudio::DevSoundWrapper::qt_metacast(const char*) 0x00008c85   Thumb Code    58  moc_qaudio_symbian_p.o(.text)
    SymbianAudio::DevSoundWrapper::processingError(int) 0x00008cbf   Thumb Code    32  moc_qaudio_symbian_p.o(.text)
    SymbianAudio::DevSoundWrapper::bufferToBeProcessed(CMMFBuffer*) 0x00008cdf   Thumb Code    32  moc_qaudio_symbian_p.o(.text)
    SymbianAudio::DevSoundWrapper::initializeComplete(int) 0x00008cff   Thumb Code    30  moc_qaudio_symbian_p.o(.text)
    SymbianAudio::DevSoundWrapper::qt_metacall(QMetaObject::Call, int, void**) 0x00008d1d   Thumb Code    96  moc_qaudio_symbian_p.o(.text)
    QMediaControl::getStaticMetaObject()     0x00008d99   Thumb Code     4  qmediacontrol.o(.text)
    QMediaControl::metaObject() const        0x00008d9d   Thumb Code    28  qmediacontrol.o(.text)
    QMediaControl::qt_metacast(const char*)  0x00008db9   Thumb Code    40  qmediacontrol.o(.text)
    QMediaControl::qt_metacall(QMetaObject::Call, int, void**) 0x00008de1   Thumb Code    36  qmediacontrol.o(.text)
    QMediaControl::~QMediaControl()          0x00008e05   Thumb Code    34  qmediacontrol.o(.text)
    QMediaControl::~QMediaControl__sub_object() 0x00008e05   Thumb Code     0  qmediacontrol.o(.text)
    QMediaControl::~QMediaControl__deallocating() 0x00008e27   Thumb Code    22  qmediacontrol.o(.text)
    QMediaControl::QMediaControl(QObject*)   0x00008e3d   Thumb Code    56  qmediacontrol.o(.text)
    QMediaControl::QMediaControl__sub_object(QObject*) 0x00008e3d   Thumb Code     0  qmediacontrol.o(.text)
    QMediaControl::QMediaControl(QMediaControlPrivate&, QObject*) 0x00008e75   Thumb Code    32  qmediacontrol.o(.text)
    QMediaControl::QMediaControl__sub_object(QMediaControlPrivate&, QObject*) 0x00008e75   Thumb Code     0  qmediacontrol.o(.text)
    QMediaObject::getStaticMetaObject()      0x00008ea5   Thumb Code     4  qmediaobject.o(.text)
    QMediaObject::metaObject() const         0x00008ea9   Thumb Code    28  qmediaobject.o(.text)
    QMediaObject::qt_metacast(const char*)   0x00008ec5   Thumb Code    40  qmediaobject.o(.text)
    QMediaObject::notifyIntervalChanged(int) 0x00008eed   Thumb Code    30  qmediaobject.o(.text)
    QMediaObject::setNotifyInterval(int)     0x00008f0b   Thumb Code    42  qmediaobject.o(.text)
    QMediaObject::notifyInterval() const     0x00008f35   Thumb Code    16  qmediaobject.o(.text)
    QMediaObjectPrivate::_q_notify()         0x00008f45   Thumb Code   686  qmediaobject.o(.text)
    QMediaObject::availabilityChanged(bool)  0x000091f3   Thumb Code    32  qmediaobject.o(.text)
    QMediaObject::metaDataChanged()          0x00009213   Thumb Code    18  qmediaobject.o(.text)
    QMediaObject::metaDataAvailableChanged(bool) 0x00009225   Thumb Code    40  qmediaobject.o(.text)
    QMediaObject::qt_metacall(QMetaObject::Call, int, void**) 0x0000924d   Thumb Code   224  qmediaobject.o(.text)
    QMediaObject::~QMediaObject()            0x0000932d   Thumb Code    34  qmediaobject.o(.text)
    QMediaObject::~QMediaObject__sub_object() 0x0000932d   Thumb Code     0  qmediaobject.o(.text)
    QMediaObject::~QMediaObject__deallocating() 0x0000934f   Thumb Code    22  qmediaobject.o(.text)
    QMediaObject::isAvailable() const        0x00009365   Thumb Code    24  qmediaobject.o(.text)
    QMediaObject::availabilityError() const  0x0000937d   Thumb Code    24  qmediaobject.o(.text)
    QMediaObject::service() const            0x00009395   Thumb Code    14  qmediaobject.o(.text)
    QMediaObject::bind(QObject*)             0x000093a3   Thumb Code    66  qmediaobject.o(.text)
    QMediaObject::unbind(QObject*)           0x000093e5   Thumb Code   220  qmediaobject.o(.text)
    QMediaObject::isMetaDataAvailable() const 0x000094c1   Thumb Code    36  qmediaobject.o(.text)
    QMediaObject::metaData(QtMultimediaKit::MetaData) const 0x000094e5   Thumb Code    92  qmediaobject.o(.text)
    QMediaObject::availableMetaData() const  0x00009541   Thumb Code   122  qmediaobject.o(.text)
    QMediaObject::extendedMetaData(const QString&) const 0x000095bb   Thumb Code    92  qmediaobject.o(.text)
    QMediaObject::availableExtendedMetaData() const 0x00009617   Thumb Code   152  qmediaobject.o(.text)
    QMediaObject::setupMetaData()            0x000096af   Thumb Code   266  qmediaobject.o(.text)
    QMediaObject::QMediaObject(QObject*, QMediaService*) 0x000097b9   Thumb Code   184  qmediaobject.o(.text)
    QMediaObject::QMediaObject__sub_object(QObject*, QMediaService*) 0x000097b9   Thumb Code     0  qmediaobject.o(.text)
    QMediaObject::QMediaObject(QMediaObjectPrivate&, QObject*, QMediaService*) 0x00009871   Thumb Code   108  qmediaobject.o(.text)
    QMediaObject::QMediaObject__sub_object(QMediaObjectPrivate&, QObject*, QMediaService*) 0x00009871   Thumb Code     0  qmediaobject.o(.text)
    QMediaObject::addPropertyWatch(const QByteArray&) 0x000098dd   Thumb Code   146  qmediaobject.o(.text)
    QMediaObject::removePropertyWatch(const QByteArray&) 0x0000996f   Thumb Code    90  qmediaobject.o(.text)
    QMediaService::getStaticMetaObject()     0x000099f1   Thumb Code     4  qmediaservice.o(.text)
    QMediaService::metaObject() const        0x000099f5   Thumb Code    28  qmediaservice.o(.text)
    QMediaService::qt_metacast(const char*)  0x00009a11   Thumb Code    40  qmediaservice.o(.text)
    QMediaService::qt_metacall(QMetaObject::Call, int, void**) 0x00009a39   Thumb Code    36  qmediaservice.o(.text)
    QMediaService::~QMediaService()          0x00009a5d   Thumb Code     0  qmediaservice.o(.text)
    QMediaService::~QMediaService__sub_object() 0x00009a5d   Thumb Code    34  qmediaservice.o(.text)
    QMediaService::~QMediaService__deallocating() 0x00009a7f   Thumb Code    22  qmediaservice.o(.text)
    QMediaService::QMediaService__sub_object(QObject*) 0x00009a95   Thumb Code    60  qmediaservice.o(.text)
    QMediaService::QMediaService__sub_object(QMediaServicePrivate&, QObject*) 0x00009ad1   Thumb Code    32  qmediaservice.o(.text)
    QMediaBindableInterface::~QMediaBindableInterface() 0x00009b01   Thumb Code     0  qmediabindableinterface.o(.text)
    QMediaBindableInterface::~QMediaBindableInterface__sub_object() 0x00009b01   Thumb Code     2  qmediabindableinterface.o(.text)
    QMediaBindableInterface::~QMediaBindableInterface__deallocating() 0x00009b03   Thumb Code    22  qmediabindableinterface.o(.text)
    QLocalMediaPlaylistProvider::getStaticMetaObject() 0x00009b19   Thumb Code     4  qlocalmediaplaylistprovider.o(.text)
    QLocalMediaPlaylistProvider::metaObject() const 0x00009b1d   Thumb Code    28  qlocalmediaplaylistprovider.o(.text)
    QLocalMediaPlaylistProvider::qt_metacast(const char*) 0x00009b39   Thumb Code    40  qlocalmediaplaylistprovider.o(.text)
    QLocalMediaPlaylistProvider::qt_metacall(QMetaObject::Call, int, void**) 0x00009b61   Thumb Code    60  qlocalmediaplaylistprovider.o(.text)
    QLocalMediaPlaylistProvider::QLocalMediaPlaylistProvider(QObject*) 0x00009b9d   Thumb Code    70  qlocalmediaplaylistprovider.o(.text)
    QLocalMediaPlaylistProvider::QLocalMediaPlaylistProvider__sub_object(QObject*) 0x00009b9d   Thumb Code     0  qlocalmediaplaylistprovider.o(.text)
    QLocalMediaPlaylistProvider::~QLocalMediaPlaylistProvider() 0x00009be3   Thumb Code    14  qlocalmediaplaylistprovider.o(.text)
    QLocalMediaPlaylistProvider::~QLocalMediaPlaylistProvider__sub_object() 0x00009be3   Thumb Code     0  qlocalmediaplaylistprovider.o(.text)
    QLocalMediaPlaylistProvider::~QLocalMediaPlaylistProvider__deallocating() 0x00009bf1   Thumb Code    22  qlocalmediaplaylistprovider.o(.text)
    QLocalMediaPlaylistProvider::mediaCount() const 0x00009c07   Thumb Code    22  qlocalmediaplaylistprovider.o(.text)
    QLocalMediaPlaylistProvider::media(int) const 0x00009c1d   Thumb Code    30  qlocalmediaplaylistprovider.o(.text)
    QLocalMediaPlaylistProvider::isReadOnly() const 0x00009c3b   Thumb Code     6  qlocalmediaplaylistprovider.o(.text)
    QLocalMediaPlaylistProvider::addMedia(const QMediaContent&) 0x00009c41   Thumb Code    56  qlocalmediaplaylistprovider.o(.text)
    QLocalMediaPlaylistProvider::addMedia(const QList<QMediaContent>&) 0x00009c79   Thumb Code    86  qlocalmediaplaylistprovider.o(.text)
    QLocalMediaPlaylistProvider::insertMedia(int, const QMediaContent&) 0x00009ccf   Thumb Code    52  qlocalmediaplaylistprovider.o(.text)
    QLocalMediaPlaylistProvider::insertMedia(int, const QList<QMediaContent>&) 0x00009d03   Thumb Code   118  qlocalmediaplaylistprovider.o(.text)
    QLocalMediaPlaylistProvider::removeMedia(int) 0x00009d79   Thumb Code    88  qlocalmediaplaylistprovider.o(.text)
    QLocalMediaPlaylistProvider::removeMedia(int, int) 0x00009dd1   Thumb Code   142  qlocalmediaplaylistprovider.o(.text)
    QLocalMediaPlaylistProvider::clear()     0x00009e5f   Thumb Code    66  qlocalmediaplaylistprovider.o(.text)
    QLocalMediaPlaylistProvider::shuffle()   0x00009ea1   Thumb Code   208  qlocalmediaplaylistprovider.o(.text)
    QMediaImageViewer::getStaticMetaObject() 0x00009f71   Thumb Code     4  qmediaimageviewer.o(.text)
    QMediaImageViewer::metaObject() const    0x00009f75   Thumb Code    28  qmediaimageviewer.o(.text)
    QMediaImageViewer::qt_metacast(const char*) 0x00009f91   Thumb Code    40  qmediaimageviewer.o(.text)
    QMediaImageViewer::setTimeout(int)       0x00009fb9   Thumb Code    94  qmediaimageviewer.o(.text)
    QMediaImageViewer::mediaChanged(const QMediaContent&) 0x0000a017   Thumb Code    30  qmediaimageviewer.o(.text)
    QMediaImageViewer::stateChanged(QMediaImageViewer::State) 0x0000a035   Thumb Code    30  qmediaimageviewer.o(.text)
    QMediaImageViewer::elapsedTimeChanged(int) 0x0000a053   Thumb Code    32  qmediaimageviewer.o(.text)
    QMediaImageViewer::setMedia(const QMediaContent&) 0x0000a073   Thumb Code   208  qmediaimageviewer.o(.text)
    QMediaImageViewer::elapsedTime() const   0x0000a143   Thumb Code    42  qmediaimageviewer.o(.text)
    QMediaImageViewer::timeout() const       0x0000a16d   Thumb Code    14  qmediaimageviewer.o(.text)
    QMediaImageViewer::media() const         0x0000a17b   Thumb Code    30  qmediaimageviewer.o(.text)
    QMediaImageViewer::mediaStatus() const   0x0000a199   Thumb Code    22  qmediaimageviewer.o(.text)
    QMediaImageViewer::state() const         0x0000a1af   Thumb Code    14  qmediaimageviewer.o(.text)
    QMediaImageViewerPrivate::_q_playlistDestroyed() 0x0000a1bd   Thumb Code    66  qmediaimageviewer.o(.text)
    QMediaImageViewerPrivate::_q_playlistMediaChanged(const QMediaContent&) 0x0000a1ff   Thumb Code    46  qmediaimageviewer.o(.text)
    QMediaImageViewer::mediaStatusChanged(QMediaImageViewer::MediaStatus) 0x0000a22d   Thumb Code    32  qmediaimageviewer.o(.text)
    QMediaImageViewerPrivate::_q_mediaStatusChanged(QMediaImageViewer::MediaStatus) 0x0000a24d   Thumb Code   336  qmediaimageviewer.o(.text)
    QMediaImageViewer::stop()                0x0000a39d   Thumb Code    98  qmediaimageviewer.o(.text)
    QMediaImageViewer::pause()               0x0000a3ff   Thumb Code   104  qmediaimageviewer.o(.text)
    QMediaImageViewer::play()                0x0000a467   Thumb Code   158  qmediaimageviewer.o(.text)
    QMediaImageViewer::setPlaylist(QMediaPlaylist*) 0x0000a505   Thumb Code   152  qmediaimageviewer.o(.text)
    QMediaImageViewer::qt_metacall(QMetaObject::Call, int, void**) 0x0000a59d   Thumb Code   504  qmediaimageviewer.o(.text)
    QMediaImageViewer::QMediaImageViewer(QObject*) 0x0000a795   Thumb Code   136  qmediaimageviewer.o(.text)
    QMediaImageViewer::QMediaImageViewer__sub_object(QObject*) 0x0000a795   Thumb Code     0  qmediaimageviewer.o(.text)
    QMediaImageViewer::~QMediaImageViewer()  0x0000a81d   Thumb Code    44  qmediaimageviewer.o(.text)
    QMediaImageViewer::~QMediaImageViewer__sub_object() 0x0000a81d   Thumb Code     0  qmediaimageviewer.o(.text)
    QMediaImageViewer::~QMediaImageViewer__deallocating() 0x0000a849   Thumb Code    22  qmediaimageviewer.o(.text)
    QMediaImageViewer::playlist() const      0x0000a85f   Thumb Code    14  qmediaimageviewer.o(.text)
    QMediaImageViewer::setVideoOutput(QVideoWidget*) 0x0000a86d   Thumb Code    74  qmediaimageviewer.o(.text)
    QMediaImageViewer::setVideoOutput(QGraphicsVideoItem*) 0x0000a8b7   Thumb Code    74  qmediaimageviewer.o(.text)
    QMediaImageViewer::bind(QObject*)        0x0000a901   Thumb Code    56  qmediaimageviewer.o(.text)
    QMediaImageViewer::unbind(QObject*)      0x0000a939   Thumb Code    40  qmediaimageviewer.o(.text)
    QMediaImageViewer::timerEvent(QTimerEvent*) 0x0000a961   Thumb Code   120  qmediaimageviewer.o(.text)
    QMediaImageViewerService::getStaticMetaObject() 0x0000aa81   Thumb Code     4  qmediaimageviewerservice.o(.text)
    QMediaImageViewerService::metaObject() const 0x0000aa85   Thumb Code    28  qmediaimageviewerservice.o(.text)
    QMediaImageViewerService::qt_metacast(const char*) 0x0000aaa1   Thumb Code    40  qmediaimageviewerservice.o(.text)
    QMediaImageViewerService::qt_metacall(QMetaObject::Call, int, void**) 0x0000aac9   Thumb Code    36  qmediaimageviewerservice.o(.text)
    QMediaImageViewerControl::QMediaImageViewerControl(QMediaImageViewerService*) 0x0000aaed   Thumb Code    58  qmediaimageviewerservice.o(.text)
    QMediaImageViewerControl::QMediaImageViewerControl__sub_object(QMediaImageViewerService*) 0x0000aaed   Thumb Code     0  qmediaimageviewerservice.o(.text)
    QMediaImageViewerService::QMediaImageViewerService(QObject*) 0x0000ab27   Thumb Code   138  qmediaimageviewerservice.o(.text)
    QMediaImageViewerService::QMediaImageViewerService__sub_object(QObject*) 0x0000ab27   Thumb Code     0  qmediaimageviewerservice.o(.text)
    QMediaImageViewerService::~QMediaImageViewerService() 0x0000abb1   Thumb Code    60  qmediaimageviewerservice.o(.text)
    QMediaImageViewerService::~QMediaImageViewerService__sub_object() 0x0000abb1   Thumb Code     0  qmediaimageviewerservice.o(.text)
    QMediaImageViewerService::~QMediaImageViewerService__deallocating() 0x0000abed   Thumb Code    22  qmediaimageviewerservice.o(.text)
    QMediaImageViewerRenderer::showImage(const QImage&) 0x0000ac03   Thumb Code   658  qmediaimageviewerservice.o(.text)
    QMediaImageViewerRenderer::QMediaImageViewerRenderer(QObject*) 0x0000ae95   Thumb Code    40  qmediaimageviewerservice.o(.text)
    QMediaImageViewerRenderer::QMediaImageViewerRenderer__sub_object(QObject*) 0x0000ae95   Thumb Code     0  qmediaimageviewerservice.o(.text)
    QMediaImageViewerService::requestControl(const char*) 0x0000aebd   Thumb Code   100  qmediaimageviewerservice.o(.text)
    QMediaImageViewerService::releaseControl(QMediaControl*) 0x0000af21   Thumb Code    56  qmediaimageviewerservice.o(.text)
    QMediaImageViewerService::networkManager() const 0x0000af59   Thumb Code    72  qmediaimageviewerservice.o(.text)
    QMediaImageViewerService::setNetworkManager(QNetworkAccessManager*) 0x0000afa1   Thumb Code    12  qmediaimageviewerservice.o(.text)
    QMediaImageViewerControl::getStaticMetaObject() 0x0000afad   Thumb Code     4  qmediaimageviewerservice.o(.text)
    QMediaImageViewerControl::metaObject() const 0x0000afb1   Thumb Code    28  qmediaimageviewerservice.o(.text)
    QMediaImageViewerControl::qt_metacast(const char*) 0x0000afcd   Thumb Code    40  qmediaimageviewerservice.o(.text)
    QMediaImageViewerControl::mediaStatusChanged(QMediaImageViewer::MediaStatus) 0x0000aff5   Thumb Code    30  qmediaimageviewerservice.o(.text)
    QMediaImageViewerControlPrivate::isImageType(const QUrl&, const QString&) const 0x0000b013   Thumb Code   428  qmediaimageviewerservice.o(.text)
    QMediaImageViewerControlPrivate::cancelRequests() 0x0000b1bf   Thumb Code    58  qmediaimageviewerservice.o(.text)
    QMediaImageViewerControlPrivate::loadImage() 0x0000b1f9   Thumb Code   662  qmediaimageviewerservice.o(.text)
    QMediaImageViewerServicePrivate::load(QIODevice*) 0x0000b48f   Thumb Code   144  qmediaimageviewerservice.o(.text)
    QMediaImageViewerControlPrivate::_q_getFinished() 0x0000b51f   Thumb Code    88  qmediaimageviewerservice.o(.text)
    QMediaImageViewerControlPrivate::_q_headFinished() 0x0000b577   Thumb Code   298  qmediaimageviewerservice.o(.text)
    QMediaImageViewerControl::qt_metacall(QMetaObject::Call, int, void**) 0x0000b6a1   Thumb Code   172  qmediaimageviewerservice.o(.text)
    QMediaImageViewerControl::~QMediaImageViewerControl() 0x0000b74d   Thumb Code    44  qmediaimageviewerservice.o(.text)
    QMediaImageViewerControl::~QMediaImageViewerControl__sub_object() 0x0000b74d   Thumb Code     0  qmediaimageviewerservice.o(.text)
    QMediaImageViewerControl::~QMediaImageViewerControl__deallocating() 0x0000b779   Thumb Code    22  qmediaimageviewerservice.o(.text)
    QMediaImageViewerControl::mediaStatus() const 0x0000b78f   Thumb Code    14  qmediaimageviewerservice.o(.text)
    QMediaImageViewerServicePrivate::clear() 0x0000b79d   Thumb Code    46  qmediaimageviewerservice.o(.text)
    QMediaImageViewerControl::showMedia(const QMediaContent&) 0x0000b7cb   Thumb Code   134  qmediaimageviewerservice.o(.text)
    QMediaImageViewerRenderer::getStaticMetaObject() 0x0000b851   Thumb Code     4  qmediaimageviewerservice.o(.text)
    QMediaImageViewerRenderer::metaObject() const 0x0000b855   Thumb Code    28  qmediaimageviewerservice.o(.text)
    QMediaImageViewerRenderer::qt_metacast(const char*) 0x0000b871   Thumb Code    40  qmediaimageviewerservice.o(.text)
    QMediaImageViewerRenderer::surfaceChanged(QAbstractVideoSurface*) 0x0000b899   Thumb Code    30  qmediaimageviewerservice.o(.text)
    QMediaImageViewerRenderer::qt_metacall(QMetaObject::Call, int, void**) 0x0000b8b7   Thumb Code    62  qmediaimageviewerservice.o(.text)
    QMediaImageViewerRenderer::~QMediaImageViewerRenderer() 0x0000b8f5   Thumb Code    46  qmediaimageviewerservice.o(.text)
    QMediaImageViewerRenderer::~QMediaImageViewerRenderer__sub_object() 0x0000b8f5   Thumb Code     0  qmediaimageviewerservice.o(.text)
    QMediaImageViewerRenderer::~QMediaImageViewerRenderer__deallocating() 0x0000b923   Thumb Code    22  qmediaimageviewerservice.o(.text)
    QMediaImageViewerRenderer::surface() const 0x0000b939   Thumb Code     6  qmediaimageviewerservice.o(.text)
    QMediaImageViewerRenderer::setSurface(QAbstractVideoSurface*) 0x0000b93f   Thumb Code    54  qmediaimageviewerservice.o(.text)
    QMediaPlayer::getStaticMetaObject()      0x0000ba65   Thumb Code     4  qmediaplayer.o(.text)
    QMediaPlayer::metaObject() const         0x0000ba69   Thumb Code    28  qmediaplayer.o(.text)
    QMediaPlayer::qt_metacast(const char*)   0x0000ba85   Thumb Code    40  qmediaplayer.o(.text)
    QMediaPlayer::setPlaybackRate(float)     0x0000baad   Thumb Code    36  qmediaplayer.o(.text)
    QMediaPlayer::isMuted() const            0x0000bad1   Thumb Code    36  qmediaplayer.o(.text)
    QMediaPlayer::setMuted(bool)             0x0000baf5   Thumb Code    48  qmediaplayer.o(.text)
    QMediaPlayer::volume() const             0x0000bb25   Thumb Code    36  qmediaplayer.o(.text)
    QMediaPlayer::setVolume(int)             0x0000bb49   Thumb Code    94  qmediaplayer.o(.text)
    QMediaPlayer::duration() const           0x0000bba7   Thumb Code    42  qmediaplayer.o(.text)
    QMediaPlayer::isSeekable() const         0x0000bbd1   Thumb Code    36  qmediaplayer.o(.text)
    QMediaPlayer::setPosition(long long)     0x0000bbf5   Thumb Code   120  qmediaplayer.o(.text)
    QMediaPlayer::playlist() const           0x0000bc6d   Thumb Code    48  qmediaplayer.o(.text)
    QMediaPlayer::setMedia(const QMediaContent&, QIODevice*) 0x0000bc9d   Thumb Code   122  qmediaplayer.o(.text)
    QMediaPlayer::setPlaylist(QMediaPlaylist*) 0x0000bd17   Thumb Code   378  qmediaplayer.o(.text)
    QMediaPlayer::errorString() const        0x0000be91   Thumb Code    34  qmediaplayer.o(.text)
    QMediaPlayer::mediaStatus() const        0x0000beb3   Thumb Code    36  qmediaplayer.o(.text)
    QMediaPlayer::state() const              0x0000bed7   Thumb Code    14  qmediaplayer.o(.text)
    QMediaPlayer::playbackRate() const       0x0000bee5   Thumb Code    36  qmediaplayer.o(.text)
    QMediaPlayer::isVideoAvailable() const   0x0000bf09   Thumb Code    36  qmediaplayer.o(.text)
    QMediaPlayer::isAudioAvailable() const   0x0000bf2d   Thumb Code    36  qmediaplayer.o(.text)
    QMediaPlayer::bufferStatus() const       0x0000bf51   Thumb Code    36  qmediaplayer.o(.text)
    QMediaPlayer::position() const           0x0000bf75   Thumb Code    42  qmediaplayer.o(.text)
    QMediaPlayer::media() const              0x0000bf9f   Thumb Code    46  qmediaplayer.o(.text)
    QMediaPlayerPrivate::_q_playlistDestroyed() 0x0000bfcd   Thumb Code    64  qmediaplayer.o(.text)
    QMediaPlayer::stateChanged(QMediaPlayer::State) 0x0000c00d   Thumb Code    32  qmediaplayer.o(.text)
    QMediaPlayerPrivate::_q_updateMedia(const QMediaContent&) 0x0000c02d   Thumb Code   184  qmediaplayer.o(.text)
    QMediaPlayer::error(QMediaPlayer::Error) 0x0000c0e5   Thumb Code    32  qmediaplayer.o(.text)
    QMediaPlayerPrivate::_q_error(int, const QString&) 0x0000c105   Thumb Code    36  qmediaplayer.o(.text)
    QMediaPlayer::mediaStatusChanged(QMediaPlayer::MediaStatus) 0x0000c129   Thumb Code    32  qmediaplayer.o(.text)
    QMediaPlayerPrivate::_q_mediaStatusChanged(QMediaPlayer::MediaStatus) 0x0000c149   Thumb Code   100  qmediaplayer.o(.text)
    QMediaPlayerPrivate::_q_stateChanged(QMediaPlayer::State) 0x0000c1ad   Thumb Code   158  qmediaplayer.o(.text)
    QMediaPlayer::stop()                     0x0000c24b   Thumb Code    34  qmediaplayer.o(.text)
    QMediaPlayer::pause()                    0x0000c26d   Thumb Code    34  qmediaplayer.o(.text)
    QMediaPlayer::play()                     0x0000c28f   Thumb Code   542  qmediaplayer.o(.text)
    QMediaPlayer::playbackRateChanged(float) 0x0000c4ad   Thumb Code    32  qmediaplayer.o(.text)
    QMediaPlayer::seekableChanged(bool)      0x0000c4cd   Thumb Code    32  qmediaplayer.o(.text)
    QMediaPlayer::bufferStatusChanged(int)   0x0000c4ed   Thumb Code    32  qmediaplayer.o(.text)
    QMediaPlayer::videoAvailableChanged(bool) 0x0000c50d   Thumb Code    32  qmediaplayer.o(.text)
    QMediaPlayer::audioAvailableChanged(bool) 0x0000c52d   Thumb Code    32  qmediaplayer.o(.text)
    QMediaPlayer::mutedChanged(bool)         0x0000c54d   Thumb Code    32  qmediaplayer.o(.text)
    QMediaPlayer::volumeChanged(int)         0x0000c56d   Thumb Code    32  qmediaplayer.o(.text)
    QMediaPlayer::positionChanged(long long) 0x0000c58d   Thumb Code    34  qmediaplayer.o(.text)
    QMediaPlayer::durationChanged(long long) 0x0000c5af   Thumb Code    34  qmediaplayer.o(.text)
    QMediaPlayer::mediaChanged(const QMediaContent&) 0x0000c5d1   Thumb Code    30  qmediaplayer.o(.text)
    QMediaPlayer::qt_metacall(QMetaObject::Call, int, void**) 0x0000c5ef   Thumb Code   928  qmediaplayer.o(.text)
    QMediaPlayer::QMediaPlayer(QObject*, QFlags<QMediaPlayer::Flag>, QMediaServiceProvider*) 0x0000c98f   Thumb Code  1034  qmediaplayer.o(.text)
    QMediaPlayer::QMediaPlayer__sub_object(QObject*, QFlags<QMediaPlayer::Flag>, QMediaServiceProvider*) 0x0000c98f   Thumb Code     0  qmediaplayer.o(.text)
    QMediaPlayer::~QMediaPlayer()            0x0000cd99   Thumb Code    64  qmediaplayer.o(.text)
    QMediaPlayer::~QMediaPlayer__sub_object() 0x0000cd99   Thumb Code     0  qmediaplayer.o(.text)
    QMediaPlayer::~QMediaPlayer__deallocating() 0x0000cdd9   Thumb Code    22  qmediaplayer.o(.text)
    QMediaPlayer::hasSupport(const QString&, const QStringList&, QFlags<QMediaPlayer::Flag>) 0x0000cdef   Thumb Code    60  qmediaplayer.o(.text)
    QMediaPlayer::supportedMimeTypes(QFlags<QMediaPlayer::Flag>) 0x0000ce2b   Thumb Code    50  qmediaplayer.o(.text)
    QMediaPlayer::setVideoOutput(QVideoWidget*) 0x0000ce5d   Thumb Code    78  qmediaplayer.o(.text)
    QMediaPlayer::setVideoOutput(QGraphicsVideoItem*) 0x0000ceab   Thumb Code    78  qmediaplayer.o(.text)
    QMediaPlayer::mediaStream() const        0x0000cef9   Thumb Code    36  qmediaplayer.o(.text)
    QMediaPlayer::error() const              0x0000cf1d   Thumb Code    14  qmediaplayer.o(.text)
    QMediaPlayer::bind(QObject*)             0x0000cf2b   Thumb Code    16  qmediaplayer.o(.text)
    QMediaPlayer::unbind(QObject*)           0x0000cf3b   Thumb Code    16  qmediaplayer.o(.text)
    QMediaPlayerControl::getStaticMetaObject() 0x0000cfb5   Thumb Code     4  qmediaplayercontrol.o(.text)
    QMediaPlayerControl::metaObject() const  0x0000cfb9   Thumb Code    28  qmediaplayercontrol.o(.text)
    QMediaPlayerControl::qt_metacast(const char*) 0x0000cfd5   Thumb Code    40  qmediaplayercontrol.o(.text)
    QMediaPlayerControl::error(int, const QString&) 0x0000cffd   Thumb Code    40  qmediaplayercontrol.o(.text)
    QMediaPlayerControl::playbackRateChanged(float) 0x0000d025   Thumb Code    32  qmediaplayercontrol.o(.text)
    QMediaPlayerControl::availablePlaybackRangesChanged(const QMediaTimeRange&) 0x0000d045   Thumb Code    30  qmediaplayercontrol.o(.text)
    QMediaPlayerControl::seekableChanged(bool) 0x0000d063   Thumb Code    32  qmediaplayercontrol.o(.text)
    QMediaPlayerControl::bufferStatusChanged(int) 0x0000d083   Thumb Code    32  qmediaplayercontrol.o(.text)
    QMediaPlayerControl::videoAvailableChanged(bool) 0x0000d0a3   Thumb Code    32  qmediaplayercontrol.o(.text)
    QMediaPlayerControl::audioAvailableChanged(bool) 0x0000d0c3   Thumb Code    32  qmediaplayercontrol.o(.text)
    QMediaPlayerControl::mutedChanged(bool)  0x0000d0e3   Thumb Code    32  qmediaplayercontrol.o(.text)
    QMediaPlayerControl::volumeChanged(int)  0x0000d103   Thumb Code    32  qmediaplayercontrol.o(.text)
    QMediaPlayerControl::mediaStatusChanged(QMediaPlayer::MediaStatus) 0x0000d123   Thumb Code    32  qmediaplayercontrol.o(.text)
    QMediaPlayerControl::stateChanged(QMediaPlayer::State) 0x0000d143   Thumb Code    32  qmediaplayercontrol.o(.text)
    QMediaPlayerControl::positionChanged(long long) 0x0000d163   Thumb Code    34  qmediaplayercontrol.o(.text)
    QMediaPlayerControl::durationChanged(long long) 0x0000d185   Thumb Code    34  qmediaplayercontrol.o(.text)
    QMediaPlayerControl::mediaChanged(const QMediaContent&) 0x0000d1a7   Thumb Code    30  qmediaplayercontrol.o(.text)
    QMediaPlayerControl::qt_metacall(QMetaObject::Call, int, void**) 0x0000d1c5   Thumb Code   238  qmediaplayercontrol.o(.text)
    QMediaPlayerControl::~QMediaPlayerControl() 0x0000d2b3   Thumb Code     0  qmediaplayercontrol.o(.text)
    QMediaPlayerControl::~QMediaPlayerControl__sub_object() 0x0000d2b3   Thumb Code    14  qmediaplayercontrol.o(.text)
    QMediaPlayerControl::~QMediaPlayerControl__deallocating() 0x0000d2c1   Thumb Code    22  qmediaplayercontrol.o(.text)
    QMediaPlayerControl::QMediaPlayerControl__sub_object(QObject*) 0x0000d2d7   Thumb Code    44  qmediaplayercontrol.o(.text)
    QMediaPlaylist::getStaticMetaObject()    0x0000d3ef   Thumb Code     4  qmediaplaylist.o(.text)
    QMediaPlaylist::metaObject() const       0x0000d3f3   Thumb Code    28  qmediaplaylist.o(.text)
    QMediaPlaylist::qt_metacast(const char*) 0x0000d40f   Thumb Code    76  qmediaplaylist.o(.text)
    QMediaPlaylist::setCurrentIndex(int)     0x0000d45b   Thumb Code    28  qmediaplaylist.o(.text)
    QMediaPlaylist::setPlaybackMode(QMediaPlaylist::PlaybackMode) 0x0000d477   Thumb Code    30  qmediaplaylist.o(.text)
    QMediaPlaylist::currentIndex() const     0x0000d495   Thumb Code    24  qmediaplaylist.o(.text)
    QMediaPlaylist::currentMedia() const     0x0000d4ad   Thumb Code    44  qmediaplaylist.o(.text)
    QMediaPlaylist::playbackMode() const     0x0000d4d9   Thumb Code    24  qmediaplaylist.o(.text)
    QMediaPlaylist::loadFailed()             0x0000d4f1   Thumb Code    18  qmediaplaylist.o(.text)
    QMediaPlaylist::previous()               0x0000d503   Thumb Code    24  qmediaplaylist.o(.text)
    QMediaPlaylist::next()                   0x0000d51b   Thumb Code    24  qmediaplaylist.o(.text)
    QMediaPlaylist::shuffle()                0x0000d533   Thumb Code    30  qmediaplaylist.o(.text)
    QMediaPlaylist::loaded()                 0x0000d551   Thumb Code    18  qmediaplaylist.o(.text)
    QMediaPlaylist::mediaChanged(int, int)   0x0000d563   Thumb Code    40  qmediaplaylist.o(.text)
    QMediaPlaylist::mediaRemoved(int, int)   0x0000d58b   Thumb Code    40  qmediaplaylist.o(.text)
    QMediaPlaylist::mediaAboutToBeRemoved(int, int) 0x0000d5b3   Thumb Code    40  qmediaplaylist.o(.text)
    QMediaPlaylist::mediaInserted(int, int)  0x0000d5db   Thumb Code    40  qmediaplaylist.o(.text)
    QMediaPlaylist::mediaAboutToBeInserted(int, int) 0x0000d603   Thumb Code    40  qmediaplaylist.o(.text)
    QMediaPlaylist::currentMediaChanged(const QMediaContent&) 0x0000d62b   Thumb Code    30  qmediaplaylist.o(.text)
    QMediaPlaylist::playbackModeChanged(QMediaPlaylist::PlaybackMode) 0x0000d649   Thumb Code    32  qmediaplaylist.o(.text)
    QMediaPlaylist::currentIndexChanged(int) 0x0000d669   Thumb Code    30  qmediaplaylist.o(.text)
    QMediaPlaylist::qt_metacall(QMetaObject::Call, int, void**) 0x0000d687   Thumb Code   654  qmediaplaylist.o(.text)
    QMediaPlaylist::setMediaObject(QMediaObject*) 0x0000d915   Thumb Code   996  qmediaplaylist.o(.text)
    QMediaPlaylist::QMediaPlaylist(QObject*) 0x0000dcf9   Thumb Code   164  qmediaplaylist.o(.text)
    QMediaPlaylist::QMediaPlaylist__sub_object(QObject*) 0x0000dcf9   Thumb Code     0  qmediaplaylist.o(.text)
    QMediaPlaylist::~QMediaPlaylist()        0x0000dd9d   Thumb Code    78  qmediaplaylist.o(.text)
    QMediaPlaylist::~QMediaPlaylist__sub_object() 0x0000dd9d   Thumb Code     0  qmediaplaylist.o(.text)
    QMediaPlaylist::~QMediaPlaylist__deallocating() 0x0000ddeb   Thumb Code    22  qmediaplaylist.o(.text)
    thunk{-8} to QMediaPlaylist::~QMediaPlaylist__deallocating() 0x0000de01   Thumb Code    14  qmediaplaylist.o(.text)
    thunk{-8} to QMediaPlaylist::~QMediaPlaylist() 0x0000de0f   Thumb Code    14  qmediaplaylist.o(.text)
    QMediaPlaylist::mediaObject() const      0x0000de1d   Thumb Code    14  qmediaplaylist.o(.text)
    thunk{-8} to QMediaPlaylist::mediaObject() const 0x0000de2b   Thumb Code    14  qmediaplaylist.o(.text)
    QMediaPlaylist::nextIndex(int) const     0x0000de39   Thumb Code    28  qmediaplaylist.o(.text)
    QMediaPlaylist::previousIndex(int) const 0x0000de55   Thumb Code    28  qmediaplaylist.o(.text)
    QMediaPlaylist::media(int) const         0x0000de71   Thumb Code    36  qmediaplaylist.o(.text)
    QMediaPlaylist::mediaCount() const       0x0000de95   Thumb Code    30  qmediaplaylist.o(.text)
    QMediaPlaylist::isEmpty() const          0x0000deb3   Thumb Code    22  qmediaplaylist.o(.text)
    QMediaPlaylist::isReadOnly() const       0x0000dec9   Thumb Code    30  qmediaplaylist.o(.text)
    QMediaPlaylist::addMedia(const QMediaContent&) 0x0000dee7   Thumb Code    38  qmediaplaylist.o(.text)
    QMediaPlaylist::addMedia(const QList<QMediaContent>&) 0x0000df0d   Thumb Code    38  qmediaplaylist.o(.text)
    QMediaPlaylist::insertMedia(int, const QMediaContent&) 0x0000df33   Thumb Code    38  qmediaplaylist.o(.text)
    QMediaPlaylist::insertMedia(int, const QList<QMediaContent>&) 0x0000df59   Thumb Code    38  qmediaplaylist.o(.text)
    QMediaPlaylist::removeMedia(int)         0x0000df7f   Thumb Code    36  qmediaplaylist.o(.text)
    QMediaPlaylist::removeMedia(int, int)    0x0000dfa3   Thumb Code    40  qmediaplaylist.o(.text)
    QMediaPlaylist::clear()                  0x0000dfcb   Thumb Code    32  qmediaplaylist.o(.text)
    QMediaPlaylistPrivate::readItems(QMediaPlaylistReader*) 0x0000dfeb   Thumb Code    60  qmediaplaylist.o(.text)
    QMediaPlaylist::load(const QUrl&, const char*) 0x0000e027   Thumb Code   526  qmediaplaylist.o(.text)
    QMediaPlaylist::load(QIODevice*, const char*) 0x0000e235   Thumb Code   466  qmediaplaylist.o(.text)
    QMediaPlaylistPrivate::writeItems(QMediaPlaylistWriter*) 0x0000e407   Thumb Code    98  qmediaplaylist.o(.text)
    QMediaPlaylist::save(QIODevice*, const char*) 0x0000e469   Thumb Code   488  qmediaplaylist.o(.text)
    QMediaPlaylist::save(const QUrl&, const char*) 0x0000e651   Thumb Code   190  qmediaplaylist.o(.text)
    QMediaPlaylist::error() const            0x0000e70f   Thumb Code    14  qmediaplaylist.o(.text)
    QMediaPlaylist::errorString() const      0x0000e71d   Thumb Code    30  qmediaplaylist.o(.text)
    thunk{-8} to QMediaPlaylist::setMediaObject(QMediaObject*) 0x0000e73b   Thumb Code    18  qmediaplaylist.o(.text)
    QLocalMediaPlaylistControl::getStaticMetaObject() 0x0000e74d   Thumb Code     4  qmediaplaylist.o(.text)
    QLocalMediaPlaylistControl::metaObject() const 0x0000e751   Thumb Code    28  qmediaplaylist.o(.text)
    QLocalMediaPlaylistControl::qt_metacast(const char*) 0x0000e76d   Thumb Code    40  qmediaplaylist.o(.text)
    QLocalMediaPlaylistControl::qt_metacall(QMetaObject::Call, int, void**) 0x0000e795   Thumb Code    36  qmediaplaylist.o(.text)
    QMediaPlaylistReader::~QMediaPlaylistReader() 0x0000e7e1   Thumb Code     0  qmediaplaylistioplugin.o(.text)
    QMediaPlaylistReader::~QMediaPlaylistReader__sub_object() 0x0000e7e1   Thumb Code     2  qmediaplaylistioplugin.o(.text)
    QMediaPlaylistReader::~QMediaPlaylistReader__deallocating() 0x0000e7e3   Thumb Code    22  qmediaplaylistioplugin.o(.text)
    QMediaPlaylistWriter::~QMediaPlaylistWriter() 0x0000e7f9   Thumb Code     0  qmediaplaylistioplugin.o(.text)
    QMediaPlaylistWriter::~QMediaPlaylistWriter__sub_object() 0x0000e7f9   Thumb Code     2  qmediaplaylistioplugin.o(.text)
    QMediaPlaylistWriter::~QMediaPlaylistWriter__deallocating() 0x0000e7fb   Thumb Code    22  qmediaplaylistioplugin.o(.text)
    QMediaPlaylistIOPlugin::getStaticMetaObject() 0x0000e811   Thumb Code     4  qmediaplaylistioplugin.o(.text)
    QMediaPlaylistIOPlugin::metaObject() const 0x0000e815   Thumb Code    28  qmediaplaylistioplugin.o(.text)
    QMediaPlaylistIOPlugin::qt_metacast(const char*) 0x0000e831   Thumb Code    94  qmediaplaylistioplugin.o(.text)
    QMediaPlaylistIOPlugin::qt_metacall(QMetaObject::Call, int, void**) 0x0000e88f   Thumb Code    36  qmediaplaylistioplugin.o(.text)
    QMediaPlaylistIOPlugin::QMediaPlaylistIOPlugin__sub_object(QObject*) 0x0000e8b3   Thumb Code    34  qmediaplaylistioplugin.o(.text)
    QMediaPlaylistIOPlugin::~QMediaPlaylistIOPlugin() 0x0000e8d5   Thumb Code     0  qmediaplaylistioplugin.o(.text)
    QMediaPlaylistIOPlugin::~QMediaPlaylistIOPlugin__sub_object() 0x0000e8d5   Thumb Code    22  qmediaplaylistioplugin.o(.text)
    QMediaPlaylistIOPlugin::~QMediaPlaylistIOPlugin__deallocating() 0x0000e8eb   Thumb Code    22  qmediaplaylistioplugin.o(.text)
    thunk{-8} to QMediaPlaylistIOPlugin::~QMediaPlaylistIOPlugin__deallocating() 0x0000e901   Thumb Code    14  qmediaplaylistioplugin.o(.text)
    thunk{-8} to QMediaPlaylistIOPlugin::~QMediaPlaylistIOPlugin() 0x0000e90f   Thumb Code    14  qmediaplaylistioplugin.o(.text)
    QMediaPlaylistNavigator::getStaticMetaObject() 0x0000ea47   Thumb Code     4  qmediaplaylistnavigator.o(.text)
    QMediaPlaylistNavigator::metaObject() const 0x0000ea4b   Thumb Code    28  qmediaplaylistnavigator.o(.text)
    QMediaPlaylistNavigator::qt_metacast(const char*) 0x0000ea67   Thumb Code    40  qmediaplaylistnavigator.o(.text)
    QMediaPlaylistNavigator::activated(const QMediaContent&) 0x0000ea8f   Thumb Code    30  qmediaplaylistnavigator.o(.text)
    QMediaPlaylistNavigator::surroundingItemsChanged() 0x0000eaad   Thumb Code    18  qmediaplaylistnavigator.o(.text)
    QMediaPlaylistNavigator::currentIndexChanged(int) 0x0000eabf   Thumb Code    32  qmediaplaylistnavigator.o(.text)
    QMediaPlaylistNavigator::playbackMode() const 0x0000eadf   Thumb Code    14  qmediaplaylistnavigator.o(.text)
    QMediaPlaylistNavigator::jump(int)       0x0000eaed   Thumb Code   378  qmediaplaylistnavigator.o(.text)
    QMediaPlaylistNavigator::playbackModeChanged(QMediaPlaylist::PlaybackMode) 0x0000ec67   Thumb Code    32  qmediaplaylistnavigator.o(.text)
    QMediaPlaylistNavigator::setPlaybackMode(QMediaPlaylist::PlaybackMode) 0x0000ec87   Thumb Code    80  qmediaplaylistnavigator.o(.text)
    QMediaPlaylistNavigator::itemAt(int) const 0x0000ecd7   Thumb Code    32  qmediaplaylistnavigator.o(.text)
    QMediaPlaylistNavigator::currentItem() const 0x0000ecf7   Thumb Code    28  qmediaplaylistnavigator.o(.text)
    QMediaPlaylistNavigator::currentIndex() const 0x0000ed13   Thumb Code    14  qmediaplaylistnavigator.o(.text)
    QMediaPlaylistNavigatorPrivate::_q_mediaChanged(int, int) 0x0000ed21   Thumb Code   172  qmediaplaylistnavigator.o(.text)
    QMediaPlaylistNavigatorPrivate::_q_mediaRemoved(int, int) 0x0000edcd   Thumb Code   100  qmediaplaylistnavigator.o(.text)
    QMediaPlaylistNavigatorPrivate::_q_mediaInserted(int, int) 0x0000ee31   Thumb Code    42  qmediaplaylistnavigator.o(.text)
    QMediaPlaylistNavigatorPrivate::previousItemPos(int) const 0x0000ee5b   Thumb Code   348  qmediaplaylistnavigator.o(.text)
    QMediaPlaylistNavigator::previous()      0x0000efb7   Thumb Code    50  qmediaplaylistnavigator.o(.text)
    QMediaPlaylistNavigatorPrivate::nextItemPos(int) const 0x0000efe9   Thumb Code   266  qmediaplaylistnavigator.o(.text)
    QMediaPlaylistNavigator::next()          0x0000f0f3   Thumb Code    50  qmediaplaylistnavigator.o(.text)
    QMediaPlaylistNavigator::qt_metacall(QMetaObject::Call, int, void**) 0x0000f125   Thumb Code   458  qmediaplaylistnavigator.o(.text)
    QMediaPlaylistNavigator::setPlaylist(QMediaPlaylistProvider*) 0x0000f2ef   Thumb Code   192  qmediaplaylistnavigator.o(.text)
    QMediaPlaylistNavigator::QMediaPlaylistNavigator(QMediaPlaylistProvider*, QObject*) 0x0000f3af   Thumb Code   128  qmediaplaylistnavigator.o(.text)
    QMediaPlaylistNavigator::QMediaPlaylistNavigator__sub_object(QMediaPlaylistProvider*, QObject*) 0x0000f3af   Thumb Code     0  qmediaplaylistnavigator.o(.text)
    QMediaPlaylistNavigator::~QMediaPlaylistNavigator() 0x0000f42f   Thumb Code    56  qmediaplaylistnavigator.o(.text)
    QMediaPlaylistNavigator::~QMediaPlaylistNavigator__sub_object() 0x0000f42f   Thumb Code     0  qmediaplaylistnavigator.o(.text)
    QMediaPlaylistNavigator::~QMediaPlaylistNavigator__deallocating() 0x0000f467   Thumb Code    22  qmediaplaylistnavigator.o(.text)
    QMediaPlaylistNavigator::playlist() const 0x0000f47d   Thumb Code    14  qmediaplaylistnavigator.o(.text)
    QMediaPlaylistNavigator::nextIndex(int) const 0x0000f48b   Thumb Code    24  qmediaplaylistnavigator.o(.text)
    QMediaPlaylistNavigator::nextItem(int) const 0x0000f4a3   Thumb Code    30  qmediaplaylistnavigator.o(.text)
    QMediaPlaylistNavigator::previousIndex(int) const 0x0000f4c1   Thumb Code    24  qmediaplaylistnavigator.o(.text)
    QMediaPlaylistNavigator::previousItem(int) const 0x0000f4d9   Thumb Code    30  qmediaplaylistnavigator.o(.text)
    QMediaPlaylistProvider::getStaticMetaObject() 0x0000f599   Thumb Code     4  qmediaplaylistprovider.o(.text)
    QMediaPlaylistProvider::metaObject() const 0x0000f59d   Thumb Code    28  qmediaplaylistprovider.o(.text)
    QMediaPlaylistProvider::qt_metacast(const char*) 0x0000f5b9   Thumb Code    40  qmediaplaylistprovider.o(.text)
    QMediaPlaylistProvider::loadFailed(QMediaPlaylist::Error, const QString&) 0x0000f5e1   Thumb Code    40  qmediaplaylistprovider.o(.text)
    QMediaPlaylistProvider::loaded()         0x0000f609   Thumb Code    18  qmediaplaylistprovider.o(.text)
    QMediaPlaylistProvider::mediaChanged(int, int) 0x0000f61b   Thumb Code    40  qmediaplaylistprovider.o(.text)
    QMediaPlaylistProvider::mediaRemoved(int, int) 0x0000f643   Thumb Code    40  qmediaplaylistprovider.o(.text)
    QMediaPlaylistProvider::mediaAboutToBeRemoved(int, int) 0x0000f66b   Thumb Code    40  qmediaplaylistprovider.o(.text)
    QMediaPlaylistProvider::mediaInserted(int, int) 0x0000f693   Thumb Code    40  qmediaplaylistprovider.o(.text)
    QMediaPlaylistProvider::mediaAboutToBeInserted(int, int) 0x0000f6bb   Thumb Code    38  qmediaplaylistprovider.o(.text)
    QMediaPlaylistProvider::qt_metacall(QMetaObject::Call, int, void**) 0x0000f6e1   Thumb Code   174  qmediaplaylistprovider.o(.text)
    QMediaPlaylistProvider::QMediaPlaylistProvider__sub_object(QObject*) 0x0000f78f   Thumb Code    50  qmediaplaylistprovider.o(.text)
    QMediaPlaylistProvider::~QMediaPlaylistProvider() 0x0000f7c1   Thumb Code     0  qmediaplaylistprovider.o(.text)
    QMediaPlaylistProvider::~QMediaPlaylistProvider__sub_object() 0x0000f7c1   Thumb Code    34  qmediaplaylistprovider.o(.text)
    QMediaPlaylistProvider::~QMediaPlaylistProvider__deallocating() 0x0000f7e3   Thumb Code    22  qmediaplaylistprovider.o(.text)
    QMediaPlaylistProvider::load(const QUrl&, const char*) 0x0000f7f9   Thumb Code    14  qmediaplaylistprovider.o(.text)
    QMediaPlaylistProvider::load(QIODevice*, const char*) 0x0000f807   Thumb Code    14  qmediaplaylistprovider.o(.text)
    QMediaPlaylistProvider::save(const QUrl&, const char*) 0x0000f815   Thumb Code    14  qmediaplaylistprovider.o(.text)
    QMediaPlaylistProvider::save(QIODevice*, const char*) 0x0000f823   Thumb Code    14  qmediaplaylistprovider.o(.text)
    QMediaPlaylistProvider::isReadOnly() const 0x0000f831   Thumb Code     6  qmediaplaylistprovider.o(.text)
    QMediaPlaylistProvider::addMedia(const QMediaContent&) 0x0000f837   Thumb Code    10  qmediaplaylistprovider.o(.text)
    QMediaPlaylistProvider::addMedia(const QList<QMediaContent>&) 0x0000f841   Thumb Code   332  qmediaplaylistprovider.o(.text)
    QMediaPlaylistProvider::insertMedia(int, const QMediaContent&) 0x0000f98d   Thumb Code    14  qmediaplaylistprovider.o(.text)
    QMediaPlaylistProvider::insertMedia(int, const QList<QMediaContent>&) 0x0000f99b   Thumb Code    86  qmediaplaylistprovider.o(.text)
    QMediaPlaylistProvider::removeMedia(int) 0x0000f9f1   Thumb Code    10  qmediaplaylistprovider.o(.text)
    QMediaPlaylistProvider::removeMedia(int, int) 0x0000f9fb   Thumb Code    38  qmediaplaylistprovider.o(.text)
    QMediaPlaylistProvider::clear()          0x0000fa21   Thumb Code    28  qmediaplaylistprovider.o(.text)
    QMediaPlaylistProvider::shuffle()        0x0000fa3d   Thumb Code     2  qmediaplaylistprovider.o(.text)
    QMediaPlaylistProvider::QMediaPlaylistProvider__sub_object(QMediaPlaylistProviderPrivate&, QObject*) 0x0000fa3f   Thumb Code    28  qmediaplaylistprovider.o(.text)
    QMediaRecorder::getStaticMetaObject()    0x0000fa61   Thumb Code     4  qmediarecorder.o(.text)
    QMediaRecorder::metaObject() const       0x0000fa65   Thumb Code    28  qmediarecorder.o(.text)
    QMediaRecorder::qt_metacast(const char*) 0x0000fa81   Thumb Code    76  qmediarecorder.o(.text)
    QMediaRecorder::setMuted(bool)           0x0000facd   Thumb Code    36  qmediarecorder.o(.text)
    QMediaRecorder::setOutputLocation(const QUrl&) 0x0000faf1   Thumb Code    40  qmediarecorder.o(.text)
    QMediaRecorder::isMetaDataWritable() const 0x0000fb19   Thumb Code    36  qmediarecorder.o(.text)
    QMediaRecorder::isMetaDataAvailable() const 0x0000fb3d   Thumb Code    36  qmediarecorder.o(.text)
    QMediaRecorder::isMuted() const          0x0000fb61   Thumb Code    40  qmediarecorder.o(.text)
    QMediaRecorder::outputLocation() const   0x0000fb89   Thumb Code    96  qmediarecorder.o(.text)
    QMediaRecorder::duration() const         0x0000fbe9   Thumb Code    54  qmediarecorder.o(.text)
    QMediaRecorderPrivate::_q_updateNotifyInterval(int) 0x0000fc1f   Thumb Code    16  qmediarecorder.o(.text)
    QMediaRecorder::durationChanged(long long) 0x0000fc2f   Thumb Code    34  qmediarecorder.o(.text)
    QMediaRecorderPrivate::_q_notify()       0x0000fc51   Thumb Code    32  qmediarecorder.o(.text)
    QMediaRecorderPrivate::_q_serviceDestroyed() 0x0000fc71   Thumb Code    22  qmediarecorder.o(.text)
    QMediaRecorder::error(QMediaRecorder::Error) 0x0000fc87   Thumb Code    32  qmediarecorder.o(.text)
    QMediaRecorderPrivate::_q_error(int, const QString&) 0x0000fca7   Thumb Code    36  qmediarecorder.o(.text)
    QMediaRecorder::stateChanged(QMediaRecorder::State) 0x0000fccb   Thumb Code    30  qmediarecorder.o(.text)
    QMediaRecorderPrivate::_q_stateChanged(QMediaRecorder::State) 0x0000fce9   Thumb Code    48  qmediarecorder.o(.text)
    QMediaRecorder::stop()                   0x0000fd19   Thumb Code    32  qmediarecorder.o(.text)
    QMediaRecorder::pause()                  0x0000fd39   Thumb Code    32  qmediarecorder.o(.text)
    QMediaRecorder::record()                 0x0000fd59   Thumb Code    60  qmediarecorder.o(.text)
    QMediaRecorder::metaDataChanged()        0x0000fd95   Thumb Code    18  qmediarecorder.o(.text)
    QMediaRecorder::metaDataWritableChanged(bool) 0x0000fda7   Thumb Code    32  qmediarecorder.o(.text)
    QMediaRecorder::metaDataAvailableChanged(bool) 0x0000fdc7   Thumb Code    32  qmediarecorder.o(.text)
    QMediaRecorder::mutedChanged(bool)       0x0000fde7   Thumb Code   118  qmediarecorder.o(.text)
    QMediaRecorder::qt_metacall(QMetaObject::Call, int, void**) 0x0000fe5d   Thumb Code   552  qmediarecorder.o(.text)
    QMediaRecorder::setMediaObject(QMediaObject*) 0x00010085   Thumb Code  1164  qmediarecorder.o(.text)
    QMediaRecorderPrivate::QMediaRecorderPrivate() 0x00010511   Thumb Code    40  qmediarecorder.o(.text)
    QMediaRecorderPrivate::QMediaRecorderPrivate__sub_object() 0x00010511   Thumb Code     0  qmediarecorder.o(.text)
    QMediaRecorder::QMediaRecorder(QMediaObject*, QObject*) 0x00010539   Thumb Code   176  qmediarecorder.o(.text)
    QMediaRecorder::QMediaRecorder__sub_object(QMediaObject*, QObject*) 0x00010539   Thumb Code     0  qmediarecorder.o(.text)
    QMediaRecorder::~QMediaRecorder()        0x000105e9   Thumb Code    26  qmediarecorder.o(.text)
    QMediaRecorder::~QMediaRecorder__sub_object() 0x000105e9   Thumb Code     0  qmediarecorder.o(.text)
    QMediaRecorder::~QMediaRecorder__deallocating() 0x00010603   Thumb Code    22  qmediarecorder.o(.text)
    thunk{-8} to QMediaRecorder::~QMediaRecorder__deallocating() 0x00010619   Thumb Code    14  qmediarecorder.o(.text)
    thunk{-8} to QMediaRecorder::~QMediaRecorder() 0x00010627   Thumb Code    14  qmediarecorder.o(.text)
    QMediaRecorder::mediaObject() const      0x00010635   Thumb Code    14  qmediarecorder.o(.text)
    thunk{-8} to QMediaRecorder::mediaObject() const 0x00010643   Thumb Code    14  qmediarecorder.o(.text)
    QMediaRecorder::isAvailable() const      0x00010651   Thumb Code    24  qmediarecorder.o(.text)
    QMediaRecorder::availabilityError() const 0x00010669   Thumb Code    24  qmediarecorder.o(.text)
    QMediaRecorder::state() const            0x00010681   Thumb Code    40  qmediarecorder.o(.text)
    QMediaRecorder::error() const            0x000106a9   Thumb Code    14  qmediarecorder.o(.text)
    QMediaRecorder::errorString() const      0x000106b7   Thumb Code    30  qmediarecorder.o(.text)
    QMediaRecorder::supportedContainers() const 0x000106d5   Thumb Code    96  qmediarecorder.o(.text)
    QMediaRecorder::containerDescription(const QString&) const 0x00010735   Thumb Code    98  qmediarecorder.o(.text)
    QMediaRecorder::supportedAudioCodecs() const 0x00010797   Thumb Code    96  qmediarecorder.o(.text)
    QMediaRecorder::audioCodecDescription(const QString&) const 0x000107f7   Thumb Code   242  qmediarecorder.o(.text)
    QMediaRecorder::supportedAudioSampleRates(const QAudioEncoderSettings&, bool*) const 0x000108e9   Thumb Code   144  qmediarecorder.o(.text)
    QMediaRecorder::supportedVideoCodecs() const 0x00010979   Thumb Code    96  qmediarecorder.o(.text)
    QMediaRecorder::videoCodecDescription(const QString&) const 0x000109d9   Thumb Code    98  qmediarecorder.o(.text)
    QMediaRecorder::supportedResolutions(const QVideoEncoderSettings&, bool*) const 0x00010a3b   Thumb Code   144  qmediarecorder.o(.text)
    QMediaRecorder::supportedFrameRates(const QVideoEncoderSettings&, bool*) const 0x00010acb   Thumb Code   144  qmediarecorder.o(.text)
    QMediaRecorder::audioSettings() const    0x00010b5b   Thumb Code    96  qmediarecorder.o(.text)
    QMediaRecorder::videoSettings() const    0x00010bbb   Thumb Code    96  qmediarecorder.o(.text)
    QMediaRecorder::containerMimeType() const 0x00010c1b   Thumb Code    96  qmediarecorder.o(.text)
    QMediaRecorder::setEncodingSettings(const QAudioEncoderSettings&, const QVideoEncoderSettings&, const QString&) 0x00010c7b   Thumb Code   454  qmediarecorder.o(.text)
    QMediaRecorder::metaData(QtMultimediaKit::MetaData) const 0x00010e41   Thumb Code    92  qmediarecorder.o(.text)
    QMediaRecorder::setMetaData(QtMultimediaKit::MetaData, const QVariant&) 0x00010e9d   Thumb Code    40  qmediarecorder.o(.text)
    QMediaRecorder::availableMetaData() const 0x00010ec5   Thumb Code   122  qmediarecorder.o(.text)
    QMediaRecorder::extendedMetaData(const QString&) const 0x00010f3f   Thumb Code    92  qmediarecorder.o(.text)
    QMediaRecorder::setExtendedMetaData(const QString&, const QVariant&) 0x00010f9b   Thumb Code    40  qmediarecorder.o(.text)
    QMediaRecorder::availableExtendedMetaData() const 0x00010fc3   Thumb Code    90  qmediarecorder.o(.text)
    thunk{-8} to QMediaRecorder::setMediaObject(QMediaObject*) 0x0001101d   Thumb Code    18  qmediarecorder.o(.text)
    QAudioEncoderSettings::QAudioEncoderSettings() 0x00011079   Thumb Code    84  qmediaencodersettings.o(.text)
    QAudioEncoderSettings::QAudioEncoderSettings__sub_object() 0x00011079   Thumb Code     0  qmediaencodersettings.o(.text)
    QAudioEncoderSettings::QAudioEncoderSettings(const QAudioEncoderSettings&) 0x000110cd   Thumb Code    28  qmediaencodersettings.o(.text)
    QAudioEncoderSettings::QAudioEncoderSettings__sub_object(const QAudioEncoderSettings&) 0x000110cd   Thumb Code     0  qmediaencodersettings.o(.text)
    QAudioEncoderSettings::~QAudioEncoderSettings() 0x000110e9   Thumb Code    14  qmediaencodersettings.o(.text)
    QAudioEncoderSettings::~QAudioEncoderSettings__sub_object() 0x000110e9   Thumb Code     0  qmediaencodersettings.o(.text)
    QAudioEncoderSettings::operator =(const QAudioEncoderSettings&) 0x000110f7   Thumb Code    72  qmediaencodersettings.o(.text)
    QAudioEncoderSettings::operator ==(const QAudioEncoderSettings&) const 0x0001113f   Thumb Code   142  qmediaencodersettings.o(.text)
    QAudioEncoderSettings::operator !=(const QAudioEncoderSettings&) const 0x000111cd   Thumb Code    20  qmediaencodersettings.o(.text)
    QAudioEncoderSettings::isNull() const    0x000111e1   Thumb Code    10  qmediaencodersettings.o(.text)
    QAudioEncoderSettings::encodingMode() const 0x000111eb   Thumb Code    10  qmediaencodersettings.o(.text)
    QAudioEncoderSettings::setEncodingMode(QtMultimediaKit::EncodingMode) 0x000111f5   Thumb Code    16  qmediaencodersettings.o(.text)
    QAudioEncoderSettings::codec() const     0x00011205   Thumb Code    26  qmediaencodersettings.o(.text)
    QAudioEncoderSettings::setCodec(const QString&) 0x0001121f   Thumb Code    36  qmediaencodersettings.o(.text)
    QAudioEncoderSettings::bitRate() const   0x00011243   Thumb Code    10  qmediaencodersettings.o(.text)
    QAudioEncoderSettings::setBitRate(int)   0x0001124d   Thumb Code    26  qmediaencodersettings.o(.text)
    QAudioEncoderSettings::channelCount() const 0x00011267   Thumb Code    10  qmediaencodersettings.o(.text)
    QAudioEncoderSettings::setChannelCount(int) 0x00011271   Thumb Code    26  qmediaencodersettings.o(.text)
    QAudioEncoderSettings::sampleRate() const 0x0001128b   Thumb Code    10  qmediaencodersettings.o(.text)
    QAudioEncoderSettings::setSampleRate(int) 0x00011295   Thumb Code    26  qmediaencodersettings.o(.text)
    QAudioEncoderSettings::quality() const   0x000112af   Thumb Code    10  qmediaencodersettings.o(.text)
    QAudioEncoderSettings::setQuality(QtMultimediaKit::EncodingQuality) 0x000112b9   Thumb Code    26  qmediaencodersettings.o(.text)
    QVideoEncoderSettings::QVideoEncoderSettings() 0x000112d3   Thumb Code    98  qmediaencodersettings.o(.text)
    QVideoEncoderSettings::QVideoEncoderSettings__sub_object() 0x000112d3   Thumb Code     0  qmediaencodersettings.o(.text)
    QVideoEncoderSettings::QVideoEncoderSettings(const QVideoEncoderSettings&) 0x00011335   Thumb Code    28  qmediaencodersettings.o(.text)
    QVideoEncoderSettings::QVideoEncoderSettings__sub_object(const QVideoEncoderSettings&) 0x00011335   Thumb Code     0  qmediaencodersettings.o(.text)
    QVideoEncoderSettings::~QVideoEncoderSettings() 0x00011351   Thumb Code    14  qmediaencodersettings.o(.text)
    QVideoEncoderSettings::~QVideoEncoderSettings__sub_object() 0x00011351   Thumb Code     0  qmediaencodersettings.o(.text)
    QVideoEncoderSettings::operator =(const QVideoEncoderSettings&) 0x0001135f   Thumb Code    72  qmediaencodersettings.o(.text)
    QVideoEncoderSettings::operator ==(const QVideoEncoderSettings&) const 0x000113a7   Thumb Code   234  qmediaencodersettings.o(.text)
    QVideoEncoderSettings::operator !=(const QVideoEncoderSettings&) const 0x00011491   Thumb Code    20  qmediaencodersettings.o(.text)
    QVideoEncoderSettings::isNull() const    0x000114a5   Thumb Code    10  qmediaencodersettings.o(.text)
    QVideoEncoderSettings::encodingMode() const 0x000114af   Thumb Code    10  qmediaencodersettings.o(.text)
    QVideoEncoderSettings::setEncodingMode(QtMultimediaKit::EncodingMode) 0x000114b9   Thumb Code    26  qmediaencodersettings.o(.text)
    QVideoEncoderSettings::codec() const     0x000114d3   Thumb Code    26  qmediaencodersettings.o(.text)
    QVideoEncoderSettings::setCodec(const QString&) 0x000114ed   Thumb Code    36  qmediaencodersettings.o(.text)
    QVideoEncoderSettings::resolution() const 0x00011511   Thumb Code    14  qmediaencodersettings.o(.text)
    QVideoEncoderSettings::setResolution(const QSize&) 0x0001151f   Thumb Code    32  qmediaencodersettings.o(.text)
    QVideoEncoderSettings::setResolution(int, int) 0x0001153f   Thumb Code    40  qmediaencodersettings.o(.text)
    QVideoEncoderSettings::frameRate() const 0x00011567   Thumb Code    10  qmediaencodersettings.o(.text)
    QVideoEncoderSettings::setFrameRate(float) 0x00011571   Thumb Code    26  qmediaencodersettings.o(.text)
    QVideoEncoderSettings::bitRate() const   0x0001158b   Thumb Code    10  qmediaencodersettings.o(.text)
    QVideoEncoderSettings::setBitRate(int)   0x00011595   Thumb Code    26  qmediaencodersettings.o(.text)
    QVideoEncoderSettings::quality() const   0x000115af   Thumb Code    10  qmediaencodersettings.o(.text)
    QVideoEncoderSettings::setQuality(QtMultimediaKit::EncodingQuality) 0x000115b9   Thumb Code    26  qmediaencodersettings.o(.text)
    QImageEncoderSettings::QImageEncoderSettings() 0x000115d3   Thumb Code    86  qmediaencodersettings.o(.text)
    QImageEncoderSettings::QImageEncoderSettings__sub_object() 0x000115d3   Thumb Code     0  qmediaencodersettings.o(.text)
    QImageEncoderSettings::QImageEncoderSettings(const QImageEncoderSettings&) 0x00011629   Thumb Code    28  qmediaencodersettings.o(.text)
    QImageEncoderSettings::QImageEncoderSettings__sub_object(const QImageEncoderSettings&) 0x00011629   Thumb Code     0  qmediaencodersettings.o(.text)
    QImageEncoderSettings::~QImageEncoderSettings() 0x00011645   Thumb Code    14  qmediaencodersettings.o(.text)
    QImageEncoderSettings::~QImageEncoderSettings__sub_object() 0x00011645   Thumb Code     0  qmediaencodersettings.o(.text)
    QImageEncoderSettings::operator =(const QImageEncoderSettings&) 0x00011653   Thumb Code    72  qmediaencodersettings.o(.text)
    QImageEncoderSettings::operator ==(const QImageEncoderSettings&) const 0x0001169b   Thumb Code   110  qmediaencodersettings.o(.text)
    QImageEncoderSettings::operator !=(const QImageEncoderSettings&) const 0x00011709   Thumb Code    20  qmediaencodersettings.o(.text)
    QImageEncoderSettings::isNull() const    0x0001171d   Thumb Code    10  qmediaencodersettings.o(.text)
    QImageEncoderSettings::codec() const     0x00011727   Thumb Code    26  qmediaencodersettings.o(.text)
    QImageEncoderSettings::setCodec(const QString&) 0x00011741   Thumb Code    36  qmediaencodersettings.o(.text)
    QImageEncoderSettings::resolution() const 0x00011765   Thumb Code    14  qmediaencodersettings.o(.text)
    QImageEncoderSettings::setResolution(const QSize&) 0x00011773   Thumb Code    32  qmediaencodersettings.o(.text)
    QImageEncoderSettings::setResolution(int, int) 0x00011793   Thumb Code    40  qmediaencodersettings.o(.text)
    QImageEncoderSettings::quality() const   0x000117bb   Thumb Code    10  qmediaencodersettings.o(.text)
    QImageEncoderSettings::setQuality(QtMultimediaKit::EncodingQuality) 0x000117c5   Thumb Code    26  qmediaencodersettings.o(.text)
    QMediaRecorderControl::getStaticMetaObject() 0x000117e5   Thumb Code     4  qmediarecordercontrol.o(.text)
    QMediaRecorderControl::metaObject() const 0x000117e9   Thumb Code    28  qmediarecordercontrol.o(.text)
    QMediaRecorderControl::qt_metacast(const char*) 0x00011805   Thumb Code    40  qmediarecordercontrol.o(.text)
    QMediaRecorderControl::error(int, const QString&) 0x0001182d   Thumb Code    40  qmediarecordercontrol.o(.text)
    QMediaRecorderControl::mutedChanged(bool) 0x00011855   Thumb Code    32  qmediarecordercontrol.o(.text)
    QMediaRecorderControl::durationChanged(long long) 0x00011875   Thumb Code    34  qmediarecordercontrol.o(.text)
    QMediaRecorderControl::stateChanged(QMediaRecorder::State) 0x00011897   Thumb Code    30  qmediarecordercontrol.o(.text)
    QMediaRecorderControl::qt_metacall(QMetaObject::Call, int, void**) 0x000118b5   Thumb Code   158  qmediarecordercontrol.o(.text)
    QMediaRecorderControl::~QMediaRecorderControl() 0x00011953   Thumb Code     0  qmediarecordercontrol.o(.text)
    QMediaRecorderControl::~QMediaRecorderControl__sub_object() 0x00011953   Thumb Code    14  qmediarecordercontrol.o(.text)
    QMediaRecorderControl::~QMediaRecorderControl__deallocating() 0x00011961   Thumb Code    22  qmediarecordercontrol.o(.text)
    QMediaRecorderControl::QMediaRecorderControl__sub_object(QObject*) 0x00011977   Thumb Code    24  qmediarecordercontrol.o(.text)
    QMediaContent::QMediaContent()           0x0001199d   Thumb Code     8  qmediacontent.o(.text)
    QMediaContent::QMediaContent__sub_object() 0x0001199d   Thumb Code     0  qmediacontent.o(.text)
    QMediaContent::QMediaContent(const QUrl&) 0x000119a5   Thumb Code    96  qmediacontent.o(.text)
    QMediaContent::QMediaContent__sub_object(const QUrl&) 0x000119a5   Thumb Code     0  qmediacontent.o(.text)
    QMediaContent::QMediaContent(const QNetworkRequest&) 0x00011a05   Thumb Code    96  qmediacontent.o(.text)
    QMediaContent::QMediaContent__sub_object(const QNetworkRequest&) 0x00011a05   Thumb Code     0  qmediacontent.o(.text)
    QMediaContent::QMediaContent(const QMediaResource&) 0x00011a65   Thumb Code    58  qmediacontent.o(.text)
    QMediaContent::QMediaContent__sub_object(const QMediaResource&) 0x00011a65   Thumb Code     0  qmediacontent.o(.text)
    QMediaContent::QMediaContent(const QList<QMediaResource>&) 0x00011a9f   Thumb Code    64  qmediacontent.o(.text)
    QMediaContent::QMediaContent__sub_object(const QList<QMediaResource>&) 0x00011a9f   Thumb Code     0  qmediacontent.o(.text)
    QMediaContent::QMediaContent(const QMediaContent&) 0x00011adf   Thumb Code    28  qmediacontent.o(.text)
    QMediaContent::QMediaContent__sub_object(const QMediaContent&) 0x00011adf   Thumb Code     0  qmediacontent.o(.text)
    QMediaContent::~QMediaContent()          0x00011afb   Thumb Code    14  qmediacontent.o(.text)
    QMediaContent::~QMediaContent__sub_object() 0x00011afb   Thumb Code     0  qmediacontent.o(.text)
    QMediaContent::operator =(const QMediaContent&) 0x00011b09   Thumb Code    72  qmediacontent.o(.text)
    QMediaContent::operator ==(const QMediaContent&) const 0x00011b51   Thumb Code    66  qmediacontent.o(.text)
    QMediaContent::operator !=(const QMediaContent&) const 0x00011b93   Thumb Code    20  qmediacontent.o(.text)
    QMediaContent::isNull() const            0x00011ba7   Thumb Code    18  qmediacontent.o(.text)
    QMediaContent::canonicalResource() const 0x00011bb9   Thumb Code    86  qmediacontent.o(.text)
    QMediaContent::canonicalUrl() const      0x00011c0f   Thumb Code    30  qmediacontent.o(.text)
    QMediaContent::canonicalRequest() const  0x00011c2d   Thumb Code    30  qmediacontent.o(.text)
    QMediaContent::resources() const         0x00011c4b   Thumb Code    58  qmediacontent.o(.text)
    QMediaResource::QMediaResource()         0x00011c85   Thumb Code    14  qmediaresource.o(.text)
    QMediaResource::QMediaResource__sub_object() 0x00011c85   Thumb Code     0  qmediaresource.o(.text)
    QMediaResource::QMediaResource(const QUrl&, const QString&) 0x00011c93   Thumb Code    88  qmediaresource.o(.text)
    QMediaResource::QMediaResource__sub_object(const QUrl&, const QString&) 0x00011c93   Thumb Code     0  qmediaresource.o(.text)
    QMediaResource::QMediaResource(const QNetworkRequest&, const QString&) 0x00011ceb   Thumb Code   156  qmediaresource.o(.text)
    QMediaResource::QMediaResource__sub_object(const QNetworkRequest&, const QString&) 0x00011ceb   Thumb Code     0  qmediaresource.o(.text)
    QMediaResource::QMediaResource(const QMediaResource&) 0x00011d87   Thumb Code    42  qmediaresource.o(.text)
    QMediaResource::QMediaResource__sub_object(const QMediaResource&) 0x00011d87   Thumb Code     0  qmediaresource.o(.text)
    QMediaResource::operator =(const QMediaResource&) 0x00011db1   Thumb Code    74  qmediaresource.o(.text)
    QMediaResource::~QMediaResource()        0x00011dfb   Thumb Code    14  qmediaresource.o(.text)
    QMediaResource::~QMediaResource__sub_object() 0x00011dfb   Thumb Code     0  qmediaresource.o(.text)
    QMediaResource::isNull() const           0x00011e09   Thumb Code    20  qmediaresource.o(.text)
    QMediaResource::url() const              0x00011e1d   Thumb Code   134  qmediaresource.o(.text)
    QMediaResource::request() const          0x00011ea3   Thumb Code    94  qmediaresource.o(.text)
    QMediaResource::operator ==(const QMediaResource&) const 0x00011f01   Thumb Code   414  qmediaresource.o(.text)
    QMediaResource::operator !=(const QMediaResource&) const 0x0001209f   Thumb Code    20  qmediaresource.o(.text)
    QMediaResource::mimeType() const         0x000120b3   Thumb Code    40  qmediaresource.o(.text)
    QMediaResource::language() const         0x000120db   Thumb Code    40  qmediaresource.o(.text)
    QMediaResource::setLanguage(const QString&) 0x00012103   Thumb Code    70  qmediaresource.o(.text)
    QMediaResource::audioCodec() const       0x00012149   Thumb Code    40  qmediaresource.o(.text)
    QMediaResource::setAudioCodec(const QString&) 0x00012171   Thumb Code    70  qmediaresource.o(.text)
    QMediaResource::videoCodec() const       0x000121b7   Thumb Code    40  qmediaresource.o(.text)
    QMediaResource::setVideoCodec(const QString&) 0x000121df   Thumb Code    70  qmediaresource.o(.text)
    QMediaResource::dataSize() const         0x00012225   Thumb Code   110  qmediaresource.o(.text)
    QMediaResource::setDataSize(long long)   0x00012293   Thumb Code    74  qmediaresource.o(.text)
    QMediaResource::audioBitRate() const     0x000122dd   Thumb Code    44  qmediaresource.o(.text)
    QMediaResource::setAudioBitRate(int)     0x00012309   Thumb Code    64  qmediaresource.o(.text)
    QMediaResource::sampleRate() const       0x00012349   Thumb Code    42  qmediaresource.o(.text)
    QMediaResource::setSampleRate(int)       0x00012373   Thumb Code    64  qmediaresource.o(.text)
    QMediaResource::channelCount() const     0x000123b3   Thumb Code    42  qmediaresource.o(.text)
    QMediaResource::setChannelCount(int)     0x000123dd   Thumb Code    64  qmediaresource.o(.text)
    QMediaResource::videoBitRate() const     0x0001241d   Thumb Code    44  qmediaresource.o(.text)
    QMediaResource::setVideoBitRate(int)     0x00012449   Thumb Code    64  qmediaresource.o(.text)
    QMediaResource::resolution() const       0x00012489   Thumb Code   138  qmediaresource.o(.text)
    QMediaResource::setResolution(const QSize&) 0x00012513   Thumb Code    76  qmediaresource.o(.text)
    QMediaResource::setResolution(int, int)  0x0001255f   Thumb Code    78  qmediaresource.o(.text)
    QMediaServiceProviderHint::QMediaServiceProviderHint() 0x0001276d   Thumb Code    38  qmediaserviceprovider.o(.text)
    QMediaServiceProviderHint::QMediaServiceProviderHint__sub_object() 0x0001276d   Thumb Code     0  qmediaserviceprovider.o(.text)
    QMediaServiceProviderHint::QMediaServiceProviderHint(const QString&, const QStringList&) 0x00012793   Thumb Code    82  qmediaserviceprovider.o(.text)
    QMediaServiceProviderHint::QMediaServiceProviderHint__sub_object(const QString&, const QStringList&) 0x00012793   Thumb Code     0  qmediaserviceprovider.o(.text)
    QMediaServiceProviderHint::QMediaServiceProviderHint(const QByteArray&) 0x000127e5   Thumb Code    60  qmediaserviceprovider.o(.text)
    QMediaServiceProviderHint::QMediaServiceProviderHint__sub_object(const QByteArray&) 0x000127e5   Thumb Code     0  qmediaserviceprovider.o(.text)
    QMediaServiceProviderHint::QMediaServiceProviderHint(QFlags<QMediaServiceProviderHint::Feature>) 0x00012821   Thumb Code    58  qmediaserviceprovider.o(.text)
    QMediaServiceProviderHint::QMediaServiceProviderHint__sub_object(QFlags<QMediaServiceProviderHint::Feature>) 0x00012821   Thumb Code     0  qmediaserviceprovider.o(.text)
    QMediaServiceProviderHint::QMediaServiceProviderHint(const QMediaServiceProviderHint&) 0x0001285b   Thumb Code    28  qmediaserviceprovider.o(.text)
    QMediaServiceProviderHint::QMediaServiceProviderHint__sub_object(const QMediaServiceProviderHint&) 0x0001285b   Thumb Code     0  qmediaserviceprovider.o(.text)
    QMediaServiceProviderHint::~QMediaServiceProviderHint() 0x00012877   Thumb Code    14  qmediaserviceprovider.o(.text)
    QMediaServiceProviderHint::~QMediaServiceProviderHint__sub_object() 0x00012877   Thumb Code     0  qmediaserviceprovider.o(.text)
    QMediaServiceProviderHint::operator =(const QMediaServiceProviderHint&) 0x00012885   Thumb Code    72  qmediaserviceprovider.o(.text)
    QMediaServiceProviderHint::operator ==(const QMediaServiceProviderHint&) const 0x000128cd   Thumb Code   244  qmediaserviceprovider.o(.text)
    QMediaServiceProviderHint::operator !=(const QMediaServiceProviderHint&) const 0x000129c1   Thumb Code    20  qmediaserviceprovider.o(.text)
    QMediaServiceProviderHint::isNull() const 0x000129d5   Thumb Code    20  qmediaserviceprovider.o(.text)
    QMediaServiceProviderHint::type() const  0x000129e9   Thumb Code    10  qmediaserviceprovider.o(.text)
    QMediaServiceProviderHint::mimeType() const 0x000129f3   Thumb Code    26  qmediaserviceprovider.o(.text)
    QMediaServiceProviderHint::codecs() const 0x00012a0d   Thumb Code    26  qmediaserviceprovider.o(.text)
    QMediaServiceProviderHint::device() const 0x00012a27   Thumb Code    26  qmediaserviceprovider.o(.text)
    QMediaServiceProviderHint::features() const 0x00012a41   Thumb Code    16  qmediaserviceprovider.o(.text)
    QMediaServiceProvider::getStaticMetaObject() 0x00012a51   Thumb Code     4  qmediaserviceprovider.o(.text)
    QMediaServiceProvider::metaObject() const 0x00012a55   Thumb Code    28  qmediaserviceprovider.o(.text)
    QMediaServiceProvider::qt_metacast(const char*) 0x00012a71   Thumb Code    40  qmediaserviceprovider.o(.text)
    QMediaServiceProvider::qt_metacall(QMetaObject::Call, int, void**) 0x00012a99   Thumb Code    36  qmediaserviceprovider.o(.text)
    QMediaServiceProvider::hasSupport(const QByteArray&, const QString&, const QStringList&, int) const 0x00012abd   Thumb Code    26  qmediaserviceprovider.o(.text)
    QMediaServiceProvider::supportedMimeTypes(const QByteArray&, int) const 0x00012ad7   Thumb Code    28  qmediaserviceprovider.o(.text)
    QMediaServiceProvider::devices(const QByteArray&) const 0x00012af3   Thumb Code    22  qmediaserviceprovider.o(.text)
    QMediaServiceProvider::deviceDescription(const QByteArray&, const QByteArray&) 0x00012b09   Thumb Code    28  qmediaserviceprovider.o(.text)
    QMediaServiceProvider::defaultServiceProvider() 0x00012b25   Thumb Code     8  qmediaserviceprovider.o(.text)
    QMediaServiceProviderPlugin::getStaticMetaObject() 0x00012b2d   Thumb Code     4  qmediaserviceprovider.o(.text)
    QMediaServiceProviderPlugin::metaObject() const 0x00012b31   Thumb Code    28  qmediaserviceprovider.o(.text)
    QMediaServiceProviderPlugin::qt_metacast(const char*) 0x00012b4d   Thumb Code    96  qmediaserviceprovider.o(.text)
    QMediaServiceProviderPlugin::qt_metacall(QMetaObject::Call, int, void**) 0x00012bad   Thumb Code    36  qmediaserviceprovider.o(.text)
    QMetaDataReaderControl::getStaticMetaObject() 0x00012c2d   Thumb Code     4  qmetadatareadercontrol.o(.text)
    QMetaDataReaderControl::metaObject() const 0x00012c31   Thumb Code    28  qmetadatareadercontrol.o(.text)
    QMetaDataReaderControl::qt_metacast(const char*) 0x00012c4d   Thumb Code    40  qmetadatareadercontrol.o(.text)
    QMetaDataReaderControl::metaDataAvailableChanged(bool) 0x00012c75   Thumb Code    32  qmetadatareadercontrol.o(.text)
    QMetaDataReaderControl::metaDataChanged() 0x00012c95   Thumb Code    18  qmetadatareadercontrol.o(.text)
    QMetaDataReaderControl::qt_metacall(QMetaObject::Call, int, void**) 0x00012ca7   Thumb Code    76  qmetadatareadercontrol.o(.text)
    QMetaDataReaderControl::~QMetaDataReaderControl() 0x00012cf3   Thumb Code     0  qmetadatareadercontrol.o(.text)
    QMetaDataReaderControl::~QMetaDataReaderControl__sub_object() 0x00012cf3   Thumb Code    14  qmetadatareadercontrol.o(.text)
    QMetaDataReaderControl::~QMetaDataReaderControl__deallocating() 0x00012d01   Thumb Code    22  qmetadatareadercontrol.o(.text)
    QMetaDataReaderControl::QMetaDataReaderControl__sub_object(QObject*) 0x00012d17   Thumb Code    44  qmetadatareadercontrol.o(.text)
    QMetaDataWriterControl::getStaticMetaObject() 0x00012d55   Thumb Code     4  qmetadatawritercontrol.o(.text)
    QMetaDataWriterControl::metaObject() const 0x00012d59   Thumb Code    28  qmetadatawritercontrol.o(.text)
    QMetaDataWriterControl::qt_metacast(const char*) 0x00012d75   Thumb Code    40  qmetadatawritercontrol.o(.text)
    QMetaDataWriterControl::metaDataAvailableChanged(bool) 0x00012d9d   Thumb Code    32  qmetadatawritercontrol.o(.text)
    QMetaDataWriterControl::writableChanged(bool) 0x00012dbd   Thumb Code    32  qmetadatawritercontrol.o(.text)
    QMetaDataWriterControl::metaDataChanged() 0x00012ddd   Thumb Code    18  qmetadatawritercontrol.o(.text)
    QMetaDataWriterControl::qt_metacall(QMetaObject::Call, int, void**) 0x00012def   Thumb Code    92  qmetadatawritercontrol.o(.text)
    QMetaDataWriterControl::~QMetaDataWriterControl() 0x00012e4b   Thumb Code     0  qmetadatawritercontrol.o(.text)
    QMetaDataWriterControl::~QMetaDataWriterControl__sub_object() 0x00012e4b   Thumb Code    14  qmetadatawritercontrol.o(.text)
    QMetaDataWriterControl::~QMetaDataWriterControl__deallocating() 0x00012e59   Thumb Code    22  qmetadatawritercontrol.o(.text)
    QMetaDataWriterControl::QMetaDataWriterControl__sub_object(QObject*) 0x00012e6f   Thumb Code    44  qmetadatawritercontrol.o(.text)
    QMediaStreamsControl::getStaticMetaObject() 0x00012ead   Thumb Code     4  qmediastreamscontrol.o(.text)
    QMediaStreamsControl::metaObject() const 0x00012eb1   Thumb Code    28  qmediastreamscontrol.o(.text)
    QMediaStreamsControl::qt_metacast(const char*) 0x00012ecd   Thumb Code    40  qmediastreamscontrol.o(.text)
    QMediaStreamsControl::activeStreamsChanged() 0x00012ef5   Thumb Code    18  qmediastreamscontrol.o(.text)
    QMediaStreamsControl::streamsChanged()   0x00012f07   Thumb Code    18  qmediastreamscontrol.o(.text)
    QMediaStreamsControl::qt_metacall(QMetaObject::Call, int, void**) 0x00012f19   Thumb Code    72  qmediastreamscontrol.o(.text)
    QMediaStreamsControl::~QMediaStreamsControl() 0x00012f61   Thumb Code     0  qmediastreamscontrol.o(.text)
    QMediaStreamsControl::~QMediaStreamsControl__sub_object() 0x00012f61   Thumb Code    14  qmediastreamscontrol.o(.text)
    QMediaStreamsControl::~QMediaStreamsControl__deallocating() 0x00012f6f   Thumb Code    22  qmediastreamscontrol.o(.text)
    QMediaStreamsControl::QMediaStreamsControl__sub_object(QObject*) 0x00012f85   Thumb Code    44  qmediastreamscontrol.o(.text)
    QRadioTuner::getStaticMetaObject()       0x00012fc1   Thumb Code     4  qradiotuner.o(.text)
    QRadioTuner::metaObject() const          0x00012fc5   Thumb Code    28  qradiotuner.o(.text)
    QRadioTuner::qt_metacast(const char*)    0x00012fe1   Thumb Code    40  qradiotuner.o(.text)
    QRadioTuner::setMuted(bool)              0x00013009   Thumb Code    36  qradiotuner.o(.text)
    QRadioTuner::setVolume(int)              0x0001302d   Thumb Code    36  qradiotuner.o(.text)
    QRadioTuner::setStereoMode(QRadioTuner::StereoMode) 0x00013051   Thumb Code    38  qradiotuner.o(.text)
    QRadioTuner::setFrequency(int)           0x00013077   Thumb Code    36  qradiotuner.o(.text)
    QRadioTuner::setBand(QRadioTuner::Band)  0x0001309b   Thumb Code    36  qradiotuner.o(.text)
    QRadioTuner::isSearching() const         0x000130bf   Thumb Code    36  qradiotuner.o(.text)
    QRadioTuner::isMuted() const             0x000130e3   Thumb Code    36  qradiotuner.o(.text)
    QRadioTuner::volume() const              0x00013107   Thumb Code    36  qradiotuner.o(.text)
    QRadioTuner::signalStrength() const      0x0001312b   Thumb Code    36  qradiotuner.o(.text)
    QRadioTuner::stereoMode() const          0x0001314f   Thumb Code    36  qradiotuner.o(.text)
    QRadioTuner::isStereo() const            0x00013173   Thumb Code    36  qradiotuner.o(.text)
    QRadioTuner::frequency() const           0x00013197   Thumb Code    36  qradiotuner.o(.text)
    QRadioTuner::band() const                0x000131bb   Thumb Code    36  qradiotuner.o(.text)
    QRadioTuner::state() const               0x000131df   Thumb Code    40  qradiotuner.o(.text)
    QRadioTuner::stop()                      0x00013207   Thumb Code    34  qradiotuner.o(.text)
    QRadioTuner::start()                     0x00013229   Thumb Code    34  qradiotuner.o(.text)
    QRadioTuner::cancelSearch()              0x0001324b   Thumb Code    34  qradiotuner.o(.text)
    QRadioTuner::searchBackward()            0x0001326d   Thumb Code    34  qradiotuner.o(.text)
    QRadioTuner::searchForward()             0x0001328f   Thumb Code    32  qradiotuner.o(.text)
    QRadioTuner::error(QRadioTuner::Error)   0x000132af   Thumb Code    32  qradiotuner.o(.text)
    QRadioTuner::mutedChanged(bool)          0x000132cf   Thumb Code    32  qradiotuner.o(.text)
    QRadioTuner::volumeChanged(int)          0x000132ef   Thumb Code    32  qradiotuner.o(.text)
    QRadioTuner::signalStrengthChanged(int)  0x0001330f   Thumb Code    32  qradiotuner.o(.text)
    QRadioTuner::searchingChanged(bool)      0x0001332f   Thumb Code    32  qradiotuner.o(.text)
    QRadioTuner::stereoStatusChanged(bool)   0x0001334f   Thumb Code    42  qradiotuner.o(.text)
    QRadioTuner::frequencyChanged(int)       0x00013379   Thumb Code    32  qradiotuner.o(.text)
    QRadioTuner::bandChanged(QRadioTuner::Band) 0x00013399   Thumb Code    32  qradiotuner.o(.text)
    QRadioTuner::stateChanged(QRadioTuner::State) 0x000133b9   Thumb Code    30  qradiotuner.o(.text)
    QRadioTuner::qt_metacall(QMetaObject::Call, int, void**) 0x000133d7   Thumb Code   518  qradiotuner.o(.text)
    QRadioTuner::QRadioTuner(QObject*, QMediaServiceProvider*) 0x000135dd   Thumb Code   712  qradiotuner.o(.text)
    QRadioTuner::QRadioTuner__sub_object(QObject*, QMediaServiceProvider*) 0x000135dd   Thumb Code     0  qradiotuner.o(.text)
    QRadioTuner::~QRadioTuner()              0x000138a5   Thumb Code    64  qradiotuner.o(.text)
    QRadioTuner::~QRadioTuner__sub_object()  0x000138a5   Thumb Code     0  qradiotuner.o(.text)
    QRadioTuner::~QRadioTuner__deallocating() 0x000138e5   Thumb Code    22  qradiotuner.o(.text)
    QRadioTuner::isAvailable() const         0x000138fb   Thumb Code    42  qradiotuner.o(.text)
    QRadioTuner::availabilityError() const   0x00013925   Thumb Code    42  qradiotuner.o(.text)
    QRadioTuner::isBandSupported(QRadioTuner::Band) const 0x0001394f   Thumb Code    40  qradiotuner.o(.text)
    QRadioTuner::frequencyStep(QRadioTuner::Band) const 0x00013977   Thumb Code    40  qradiotuner.o(.text)
    QRadioTuner::frequencyRange(QRadioTuner::Band) const 0x0001399f   Thumb Code    58  qradiotuner.o(.text)
    QRadioTuner::error() const               0x000139d9   Thumb Code    38  qradiotuner.o(.text)
    QRadioTuner::errorString() const         0x000139ff   Thumb Code    54  qradiotuner.o(.text)
    QRadioTunerControl::getStaticMetaObject() 0x00013a3d   Thumb Code     4  qradiotunercontrol.o(.text)
    QRadioTunerControl::metaObject() const   0x00013a41   Thumb Code    28  qradiotunercontrol.o(.text)
    QRadioTunerControl::qt_metacast(const char*) 0x00013a5d   Thumb Code    40  qradiotunercontrol.o(.text)
    QRadioTunerControl::error(QRadioTuner::Error) 0x00013a85   Thumb Code    32  qradiotunercontrol.o(.text)
    QRadioTunerControl::mutedChanged(bool)   0x00013aa5   Thumb Code    32  qradiotunercontrol.o(.text)
    QRadioTunerControl::volumeChanged(int)   0x00013ac5   Thumb Code    32  qradiotunercontrol.o(.text)
    QRadioTunerControl::signalStrengthChanged(int) 0x00013ae5   Thumb Code    32  qradiotunercontrol.o(.text)
    QRadioTunerControl::searchingChanged(bool) 0x00013b05   Thumb Code    32  qradiotunercontrol.o(.text)
    QRadioTunerControl::stereoStatusChanged(bool) 0x00013b25   Thumb Code    32  qradiotunercontrol.o(.text)
    QRadioTunerControl::frequencyChanged(int) 0x00013b45   Thumb Code    32  qradiotunercontrol.o(.text)
    QRadioTunerControl::bandChanged(QRadioTuner::Band) 0x00013b65   Thumb Code    32  qradiotunercontrol.o(.text)
    QRadioTunerControl::stateChanged(QRadioTuner::State) 0x00013b85   Thumb Code    30  qradiotunercontrol.o(.text)
    QRadioTunerControl::qt_metacall(QMetaObject::Call, int, void**) 0x00013ba3   Thumb Code   172  qradiotunercontrol.o(.text)
    QRadioTunerControl::~QRadioTunerControl() 0x00013c4f   Thumb Code     0  qradiotunercontrol.o(.text)
    QRadioTunerControl::~QRadioTunerControl__sub_object() 0x00013c4f   Thumb Code    14  qradiotunercontrol.o(.text)
    QRadioTunerControl::~QRadioTunerControl__deallocating() 0x00013c5d   Thumb Code    22  qradiotunercontrol.o(.text)
    QRadioTunerControl::QRadioTunerControl__sub_object(QObject*) 0x00013c73   Thumb Code    44  qradiotunercontrol.o(.text)
    QVideoWidget::getStaticMetaObject()      0x00013cb1   Thumb Code     4  qvideowidget.o(.text)
    QVideoWidget::metaObject() const         0x00013cb5   Thumb Code    28  qvideowidget.o(.text)
    QVideoWidget::qt_metacast(const char*)   0x00013cd1   Thumb Code    76  qvideowidget.o(.text)
    QVideoWidget::saturationChanged(int)     0x00013d1d   Thumb Code    32  qvideowidget.o(.text)
    QVideoWidget::setSaturation(int)         0x00013d3d   Thumb Code    76  qvideowidget.o(.text)
    QVideoWidget::hueChanged(int)            0x00013d89   Thumb Code    32  qvideowidget.o(.text)
    QVideoWidget::setHue(int)                0x00013da9   Thumb Code    76  qvideowidget.o(.text)
    QVideoWidget::contrastChanged(int)       0x00013df5   Thumb Code    32  qvideowidget.o(.text)
    QVideoWidget::setContrast(int)           0x00013e15   Thumb Code    76  qvideowidget.o(.text)
    QVideoWidget::brightnessChanged(int)     0x00013e61   Thumb Code    32  qvideowidget.o(.text)
    QVideoWidget::setBrightness(int)         0x00013e81   Thumb Code    76  qvideowidget.o(.text)
    QVideoWidget::setAspectRatioMode(Qt::AspectRatioMode) 0x00013ecd   Thumb Code    52  qvideowidget.o(.text)
    QVideoWidget::setFullScreen(bool)        0x00013f01   Thumb Code   172  qvideowidget.o(.text)
    QVideoWidget::saturation() const         0x00013fad   Thumb Code    14  qvideowidget.o(.text)
    QVideoWidget::hue() const                0x00013fbb   Thumb Code    14  qvideowidget.o(.text)
    QVideoWidget::contrast() const           0x00013fc9   Thumb Code    14  qvideowidget.o(.text)
    QVideoWidget::brightness() const         0x00013fd7   Thumb Code    14  qvideowidget.o(.text)
    QVideoWidget::aspectRatioMode() const    0x00013fe5   Thumb Code    14  qvideowidget.o(.text)
    QVideoWidgetPrivate::_q_dimensionsChanged() 0x00013ff3   Thumb Code    26  qvideowidget.o(.text)
    QVideoWidgetPrivate::_q_fullScreenChanged(bool) 0x0001400d   Thumb Code    34  qvideowidget.o(.text)
    QVideoWidgetPrivate::_q_saturationChanged(int) 0x0001402f   Thumb Code    28  qvideowidget.o(.text)
    QVideoWidgetPrivate::_q_hueChanged(int)  0x0001404b   Thumb Code   106  qvideowidget.o(.text)
    QVideoWidgetPrivate::_q_contrastChanged(int) 0x000140b5   Thumb Code    28  qvideowidget.o(.text)
    QVideoWidgetPrivate::_q_brightnessChanged(int) 0x000140d1   Thumb Code    28  qvideowidget.o(.text)
    QVideoWidgetPrivate::_q_serviceDestroyed() 0x000140ed   Thumb Code    96  qvideowidget.o(.text)
    QVideoWidget::fullScreenChanged(bool)    0x0001414d   Thumb Code    30  qvideowidget.o(.text)
    QVideoWidget::qt_metacall(QMetaObject::Call, int, void**) 0x0001416b   Thumb Code   620  qvideowidget.o(.text)
    QVideoWidget::QVideoWidget(QWidget*)     0x000143d7   Thumb Code   162  qvideowidget.o(.text)
    QVideoWidget::QVideoWidget__sub_object(QWidget*) 0x000143d7   Thumb Code     0  qvideowidget.o(.text)
    QWindowVideoWidgetBackend::releaseControl() 0x00014479   Thumb Code    18  qvideowidget.o(.text)
    QRendererVideoWidgetBackend::releaseControl() 0x0001448b   Thumb Code    18  qvideowidget.o(.text)
    QRendererVideoWidgetBackend::clearSurface() 0x0001449d   Thumb Code    18  qvideowidget.o(.text)
    QVideoWidgetControlBackend::releaseControl() 0x000144af   Thumb Code    18  qvideowidget.o(.text)
    QVideoWidgetPrivate::clearService()      0x000144c1   Thumb Code   274  qvideowidget.o(.text)
    QVideoWidget::~QVideoWidget()            0x000145d3   Thumb Code    68  qvideowidget.o(.text)
    QVideoWidget::~QVideoWidget__sub_object() 0x000145d3   Thumb Code     0  qvideowidget.o(.text)
    QVideoWidget::~QVideoWidget__deallocating() 0x00014617   Thumb Code    22  qvideowidget.o(.text)
    thunk{-20} to QVideoWidget::~QVideoWidget__deallocating() 0x0001462d   Thumb Code    14  qvideowidget.o(.text)
    thunk{-8} to QVideoWidget::~QVideoWidget__deallocating() 0x0001463b   Thumb Code    14  qvideowidget.o(.text)
    thunk{-20} to QVideoWidget::~QVideoWidget() 0x00014649   Thumb Code    14  qvideowidget.o(.text)
    thunk{-8} to QVideoWidget::~QVideoWidget() 0x00014657   Thumb Code    14  qvideowidget.o(.text)
    QVideoWidget::mediaObject() const        0x00014665   Thumb Code    16  qvideowidget.o(.text)
    thunk{-20} to QVideoWidget::mediaObject() const 0x00014675   Thumb Code    14  qvideowidget.o(.text)
    QVideoWidget::sizeHint() const           0x00014683   Thumb Code    46  qvideowidget.o(.text)
    QVideoWidget::event(QEvent*)             0x000146b1   Thumb Code   276  qvideowidget.o(.text)
    QVideoWidgetPrivate::setCurrentControl(QVideoWidgetControlInterface*) 0x000147c5   Thumb Code    76  qvideowidget.o(.text)
    QRendererVideoWidgetBackend::QRendererVideoWidgetBackend(QMediaService*, QVideoRendererControl*, QWidget*) 0x00014811   Thumb Code   568  qvideowidget.o(.text)
    QRendererVideoWidgetBackend::QRendererVideoWidgetBackend__sub_object(QMediaService*, QVideoRendererControl*, QWidget*) 0x00014811   Thumb Code     0  qvideowidget.o(.text)
    QVideoWidgetPrivate::createRendererBackend() 0x00014a49   Thumb Code   150  qvideowidget.o(.text)
    QVideoWidget::showEvent(QShowEvent*)     0x00014adf   Thumb Code    98  qvideowidget.o(.text)
    QVideoWidget::hideEvent(QHideEvent*)     0x00014b41   Thumb Code    44  qvideowidget.o(.text)
    QVideoWidget::resizeEvent(QResizeEvent*) 0x00014b6d   Thumb Code    44  qvideowidget.o(.text)
    QVideoWidget::moveEvent(QMoveEvent*)     0x00014b99   Thumb Code    36  qvideowidget.o(.text)
    QVideoWidget::paintEvent(QPaintEvent*)   0x00014bbd   Thumb Code   100  qvideowidget.o(.text)
    QWindowVideoWidgetBackend::QWindowVideoWidgetBackend(QMediaService*, QVideoWindowControl*, QWidget*) 0x00014c21   Thumb Code   200  qvideowidget.o(.text)
    QWindowVideoWidgetBackend::QWindowVideoWidgetBackend__sub_object(QMediaService*, QVideoWindowControl*, QWidget*) 0x00014c21   Thumb Code     0  qvideowidget.o(.text)
    QVideoWidgetPrivate::createWindowBackend() 0x00014ce9   Thumb Code   150  qvideowidget.o(.text)
    QVideoWidgetControlBackend::QVideoWidgetControlBackend(QMediaService*, QVideoWidgetControl*, QWidget*) 0x00014d7f   Thumb Code   466  qvideowidget.o(.text)
    QVideoWidgetControlBackend::QVideoWidgetControlBackend__sub_object(QMediaService*, QVideoWidgetControl*, QWidget*) 0x00014d7f   Thumb Code     0  qvideowidget.o(.text)
    QVideoWidgetPrivate::createWidgetBackend() 0x00014f51   Thumb Code   142  qvideowidget.o(.text)
    QVideoWidget::setMediaObject(QMediaObject*) 0x00014fdf   Thumb Code   254  qvideowidget.o(.text)
    thunk{-20} to QVideoWidget::setMediaObject(QMediaObject*) 0x000150dd   Thumb Code    18  qvideowidget.o(.text)
    QVideoWidget::QVideoWidget(QVideoWidgetPrivate&, QWidget*) 0x000150ef   Thumb Code   134  qvideowidget.o(.text)
    QVideoWidget::QVideoWidget__sub_object(QVideoWidgetPrivate&, QWidget*) 0x000150ef   Thumb Code     0  qvideowidget.o(.text)
    QVideoWidgetBackend::getStaticMetaObject() 0x00015175   Thumb Code     4  qvideowidget.o(.text)
    QVideoWidgetBackend::metaObject() const  0x00015179   Thumb Code    28  qvideowidget.o(.text)
    QVideoWidgetBackend::qt_metacast(const char*) 0x00015195   Thumb Code    58  qvideowidget.o(.text)
    QVideoWidgetBackend::qt_metacall(QMetaObject::Call, int, void**) 0x000151cf   Thumb Code    36  qvideowidget.o(.text)
    QVideoWidgetControlBackend::getStaticMetaObject() 0x000151f3   Thumb Code     4  qvideowidget.o(.text)
    QVideoWidgetControlBackend::metaObject() const 0x000151f7   Thumb Code    28  qvideowidget.o(.text)
    QVideoWidgetControlBackend::qt_metacast(const char*) 0x00015213   Thumb Code    60  qvideowidget.o(.text)
    QVideoWidgetControlBackend::qt_metacall(QMetaObject::Call, int, void**) 0x0001524f   Thumb Code    36  qvideowidget.o(.text)
    QVideoWidgetControlBackend::setBrightness(int) 0x00015273   Thumb Code    20  qvideowidget.o(.text)
    thunk{-8} to QVideoWidgetControlBackend::setBrightness(int) 0x00015287   Thumb Code    18  qvideowidget.o(.text)
    QVideoWidgetControlBackend::setContrast(int) 0x00015299   Thumb Code    20  qvideowidget.o(.text)
    thunk{-8} to QVideoWidgetControlBackend::setContrast(int) 0x000152ad   Thumb Code    18  qvideowidget.o(.text)
    QVideoWidgetControlBackend::setHue(int)  0x000152bf   Thumb Code    20  qvideowidget.o(.text)
    thunk{-8} to QVideoWidgetControlBackend::setHue(int) 0x000152d3   Thumb Code    18  qvideowidget.o(.text)
    QVideoWidgetControlBackend::setSaturation(int) 0x000152e5   Thumb Code   124  qvideowidget.o(.text)
    thunk{-8} to QVideoWidgetControlBackend::setSaturation(int) 0x00015361   Thumb Code    18  qvideowidget.o(.text)
    QVideoWidgetControlBackend::setFullScreen(bool) 0x00015373   Thumb Code    20  qvideowidget.o(.text)
    thunk{-8} to QVideoWidgetControlBackend::setFullScreen(bool) 0x00015387   Thumb Code    18  qvideowidget.o(.text)
    QVideoWidgetControlBackend::aspectRatioMode() const 0x00015399   Thumb Code    16  qvideowidget.o(.text)
    thunk{-8} to QVideoWidgetControlBackend::aspectRatioMode() const 0x000153a9   Thumb Code    14  qvideowidget.o(.text)
    QVideoWidgetControlBackend::setAspectRatioMode(Qt::AspectRatioMode) 0x000153b7   Thumb Code    20  qvideowidget.o(.text)
    thunk{-8} to QVideoWidgetControlBackend::setAspectRatioMode(Qt::AspectRatioMode) 0x000153cb   Thumb Code    18  qvideowidget.o(.text)
    QRendererVideoWidgetBackend::getStaticMetaObject() 0x000153dd   Thumb Code     4  qvideowidget.o(.text)
    QRendererVideoWidgetBackend::metaObject() const 0x000153e1   Thumb Code    28  qvideowidget.o(.text)
    QRendererVideoWidgetBackend::qt_metacast(const char*) 0x000153fd   Thumb Code    40  qvideowidget.o(.text)
    QRendererVideoWidgetBackend::frameChanged() 0x00015425   Thumb Code    16  qvideowidget.o(.text)
    QRendererVideoWidgetBackend::updateRects() 0x00015435   Thumb Code   442  qvideowidget.o(.text)
    QRendererVideoWidgetBackend::formatChanged(const QVideoSurfaceFormat&) 0x000155ef   Thumb Code    36  qvideowidget.o(.text)
    QRendererVideoWidgetBackend::saturationChanged(int) 0x00015613   Thumb Code    32  qvideowidget.o(.text)
    QRendererVideoWidgetBackend::hueChanged(int) 0x00015633   Thumb Code    32  qvideowidget.o(.text)
    QRendererVideoWidgetBackend::contrastChanged(int) 0x00015653   Thumb Code    32  qvideowidget.o(.text)
    QRendererVideoWidgetBackend::brightnessChanged(int) 0x00015673   Thumb Code    32  qvideowidget.o(.text)
    QRendererVideoWidgetBackend::fullScreenChanged(bool) 0x00015693   Thumb Code    30  qvideowidget.o(.text)
    QRendererVideoWidgetBackend::qt_metacall(QMetaObject::Call, int, void**) 0x000156b1   Thumb Code   140  qvideowidget.o(.text)
    QRendererVideoWidgetBackend::~QRendererVideoWidgetBackend() 0x0001573d   Thumb Code    38  qvideowidget.o(.text)
    QRendererVideoWidgetBackend::~QRendererVideoWidgetBackend__sub_object() 0x0001573d   Thumb Code     0  qvideowidget.o(.text)
    QRendererVideoWidgetBackend::~QRendererVideoWidgetBackend__deallocating() 0x00015763   Thumb Code    22  qvideowidget.o(.text)
    thunk{-8} to QRendererVideoWidgetBackend::~QRendererVideoWidgetBackend__deallocating() 0x00015779   Thumb Code    28  qvideowidget.o(.text)
    thunk{-8} to QRendererVideoWidgetBackend::~QRendererVideoWidgetBackend() 0x00015795   Thumb Code    14  qvideowidget.o(.text)
    QRendererVideoWidgetBackend::setBrightness(int) 0x000157a3   Thumb Code    24  qvideowidget.o(.text)
    thunk{-8} to QRendererVideoWidgetBackend::setBrightness(int) 0x000157bb   Thumb Code    18  qvideowidget.o(.text)
    QRendererVideoWidgetBackend::setContrast(int) 0x000157cd   Thumb Code    24  qvideowidget.o(.text)
    thunk{-8} to QRendererVideoWidgetBackend::setContrast(int) 0x000157e5   Thumb Code    18  qvideowidget.o(.text)
    QRendererVideoWidgetBackend::setHue(int) 0x000157f7   Thumb Code    24  qvideowidget.o(.text)
    thunk{-8} to QRendererVideoWidgetBackend::setHue(int) 0x0001580f   Thumb Code    18  qvideowidget.o(.text)
    QRendererVideoWidgetBackend::setSaturation(int) 0x00015821   Thumb Code    24  qvideowidget.o(.text)
    thunk{-8} to QRendererVideoWidgetBackend::setSaturation(int) 0x00015839   Thumb Code    18  qvideowidget.o(.text)
    QRendererVideoWidgetBackend::setFullScreen(bool) 0x0001584b   Thumb Code     2  qvideowidget.o(.text)
    thunk{-8} to QRendererVideoWidgetBackend::setFullScreen(bool) 0x0001584d   Thumb Code    18  qvideowidget.o(.text)
    QRendererVideoWidgetBackend::aspectRatioMode() const 0x0001585f   Thumb Code     6  qvideowidget.o(.text)
    thunk{-8} to QRendererVideoWidgetBackend::aspectRatioMode() const 0x00015865   Thumb Code    14  qvideowidget.o(.text)
    QRendererVideoWidgetBackend::setAspectRatioMode(Qt::AspectRatioMode) 0x00015873   Thumb Code    16  qvideowidget.o(.text)
    thunk{-8} to QRendererVideoWidgetBackend::setAspectRatioMode(Qt::AspectRatioMode) 0x00015883   Thumb Code    18  qvideowidget.o(.text)
    QRendererVideoWidgetBackend::sizeHint() const 0x00015895   Thumb Code    48  qvideowidget.o(.text)
    QRendererVideoWidgetBackend::showEvent() 0x000158c5   Thumb Code     2  qvideowidget.o(.text)
    QRendererVideoWidgetBackend::hideEvent(QHideEvent*) 0x000158c7   Thumb Code     2  qvideowidget.o(.text)
    QRendererVideoWidgetBackend::resizeEvent(QResizeEvent*) 0x000158c9   Thumb Code    14  qvideowidget.o(.text)
    QRendererVideoWidgetBackend::moveEvent(QMoveEvent*) 0x000158d7   Thumb Code     2  qvideowidget.o(.text)
    QRendererVideoWidgetBackend::paintEvent(QPaintEvent*) 0x000158d9   Thumb Code   338  qvideowidget.o(.text)
    QWindowVideoWidgetBackend::getStaticMetaObject() 0x00015a2b   Thumb Code     4  qvideowidget.o(.text)
    QWindowVideoWidgetBackend::metaObject() const 0x00015a2f   Thumb Code    28  qvideowidget.o(.text)
    QWindowVideoWidgetBackend::qt_metacast(const char*) 0x00015a4b   Thumb Code    40  qvideowidget.o(.text)
    QWindowVideoWidgetBackend::qt_metacall(QMetaObject::Call, int, void**) 0x00015a73   Thumb Code    36  qvideowidget.o(.text)
    QWindowVideoWidgetBackend::~QWindowVideoWidgetBackend() 0x00015a97   Thumb Code    14  qvideowidget.o(.text)
    QWindowVideoWidgetBackend::~QWindowVideoWidgetBackend__sub_object() 0x00015a97   Thumb Code     0  qvideowidget.o(.text)
    QWindowVideoWidgetBackend::~QWindowVideoWidgetBackend__deallocating() 0x00015aa5   Thumb Code    22  qvideowidget.o(.text)
    thunk{-8} to QWindowVideoWidgetBackend::~QWindowVideoWidgetBackend__deallocating() 0x00015abb   Thumb Code    14  qvideowidget.o(.text)
    thunk{-8} to QWindowVideoWidgetBackend::~QWindowVideoWidgetBackend() 0x00015ac9   Thumb Code    14  qvideowidget.o(.text)
    QWindowVideoWidgetBackend::setBrightness(int) 0x00015ad7   Thumb Code    20  qvideowidget.o(.text)
    thunk{-8} to QWindowVideoWidgetBackend::setBrightness(int) 0x00015aeb   Thumb Code    18  qvideowidget.o(.text)
    QWindowVideoWidgetBackend::setContrast(int) 0x00015afd   Thumb Code    20  qvideowidget.o(.text)
    thunk{-8} to QWindowVideoWidgetBackend::setContrast(int) 0x00015b11   Thumb Code    18  qvideowidget.o(.text)
    QWindowVideoWidgetBackend::setHue(int)   0x00015b23   Thumb Code    20  qvideowidget.o(.text)
    thunk{-8} to QWindowVideoWidgetBackend::setHue(int) 0x00015b37   Thumb Code    18  qvideowidget.o(.text)
    QWindowVideoWidgetBackend::setSaturation(int) 0x00015b49   Thumb Code    20  qvideowidget.o(.text)
    thunk{-8} to QWindowVideoWidgetBackend::setSaturation(int) 0x00015b5d   Thumb Code    18  qvideowidget.o(.text)
    QWindowVideoWidgetBackend::setFullScreen(bool) 0x00015b6f   Thumb Code    20  qvideowidget.o(.text)
    thunk{-8} to QWindowVideoWidgetBackend::setFullScreen(bool) 0x00015b83   Thumb Code    18  qvideowidget.o(.text)
    QWindowVideoWidgetBackend::aspectRatioMode() const 0x00015b95   Thumb Code    16  qvideowidget.o(.text)
    thunk{-8} to QWindowVideoWidgetBackend::aspectRatioMode() const 0x00015ba5   Thumb Code    14  qvideowidget.o(.text)
    QWindowVideoWidgetBackend::setAspectRatioMode(Qt::AspectRatioMode) 0x00015bb3   Thumb Code    20  qvideowidget.o(.text)
    thunk{-8} to QWindowVideoWidgetBackend::setAspectRatioMode(Qt::AspectRatioMode) 0x00015bc7   Thumb Code    18  qvideowidget.o(.text)
    QWindowVideoWidgetBackend::sizeHint() const 0x00015bd9   Thumb Code    20  qvideowidget.o(.text)
    QWindowVideoWidgetBackend::showEvent()   0x00015bed   Thumb Code    50  qvideowidget.o(.text)
    QWindowVideoWidgetBackend::hideEvent(QHideEvent*) 0x00015c1f   Thumb Code     2  qvideowidget.o(.text)
    QWindowVideoWidgetBackend::resizeEvent(QResizeEvent*) 0x00015c21   Thumb Code    28  qvideowidget.o(.text)
    QWindowVideoWidgetBackend::moveEvent(QMoveEvent*) 0x00015c3d   Thumb Code    28  qvideowidget.o(.text)
    QWindowVideoWidgetBackend::paintEvent(QPaintEvent*) 0x00015c59   Thumb Code   108  qvideowidget.o(.text)
    QVideoWindowControl::getStaticMetaObject() 0x00015ccd   Thumb Code     4  qvideowindowcontrol.o(.text)
    QVideoWindowControl::metaObject() const  0x00015cd1   Thumb Code    28  qvideowindowcontrol.o(.text)
    QVideoWindowControl::qt_metacast(const char*) 0x00015ced   Thumb Code    40  qvideowindowcontrol.o(.text)
    QVideoWindowControl::nativeSizeChanged() 0x00015d15   Thumb Code    18  qvideowindowcontrol.o(.text)
    QVideoWindowControl::saturationChanged(int) 0x00015d27   Thumb Code    32  qvideowindowcontrol.o(.text)
    QVideoWindowControl::hueChanged(int)     0x00015d47   Thumb Code    32  qvideowindowcontrol.o(.text)
    QVideoWindowControl::contrastChanged(int) 0x00015d67   Thumb Code    32  qvideowindowcontrol.o(.text)
    QVideoWindowControl::brightnessChanged(int) 0x00015d87   Thumb Code    32  qvideowindowcontrol.o(.text)
    QVideoWindowControl::fullScreenChanged(bool) 0x00015da7   Thumb Code    30  qvideowindowcontrol.o(.text)
    QVideoWindowControl::qt_metacall(QMetaObject::Call, int, void**) 0x00015dc5   Thumb Code   128  qvideowindowcontrol.o(.text)
    QVideoWindowControl::~QVideoWindowControl() 0x00015e45   Thumb Code     0  qvideowindowcontrol.o(.text)
    QVideoWindowControl::~QVideoWindowControl__sub_object() 0x00015e45   Thumb Code    14  qvideowindowcontrol.o(.text)
    QVideoWindowControl::~QVideoWindowControl__deallocating() 0x00015e53   Thumb Code    22  qvideowindowcontrol.o(.text)
    QVideoWindowControl::QVideoWindowControl__sub_object(QObject*) 0x00015e69   Thumb Code    24  qvideowindowcontrol.o(.text)
    QVideoWidgetControl::getStaticMetaObject() 0x00015e8d   Thumb Code     4  qvideowidgetcontrol.o(.text)
    QVideoWidgetControl::metaObject() const  0x00015e91   Thumb Code    28  qvideowidgetcontrol.o(.text)
    QVideoWidgetControl::qt_metacast(const char*) 0x00015ead   Thumb Code    40  qvideowidgetcontrol.o(.text)
    QVideoWidgetControl::saturationChanged(int) 0x00015ed5   Thumb Code    32  qvideowidgetcontrol.o(.text)
    QVideoWidgetControl::hueChanged(int)     0x00015ef5   Thumb Code    32  qvideowidgetcontrol.o(.text)
    QVideoWidgetControl::contrastChanged(int) 0x00015f15   Thumb Code    32  qvideowidgetcontrol.o(.text)
    QVideoWidgetControl::brightnessChanged(int) 0x00015f35   Thumb Code    32  qvideowidgetcontrol.o(.text)
    QVideoWidgetControl::fullScreenChanged(bool) 0x00015f55   Thumb Code    30  qvideowidgetcontrol.o(.text)
    QVideoWidgetControl::qt_metacall(QMetaObject::Call, int, void**) 0x00015f73   Thumb Code   120  qvideowidgetcontrol.o(.text)
    QVideoWidgetControl::~QVideoWidgetControl() 0x00015feb   Thumb Code     0  qvideowidgetcontrol.o(.text)
    QVideoWidgetControl::~QVideoWidgetControl__sub_object() 0x00015feb   Thumb Code    14  qvideowidgetcontrol.o(.text)
    QVideoWidgetControl::~QVideoWidgetControl__deallocating() 0x00015ff9   Thumb Code    22  qvideowidgetcontrol.o(.text)
    QVideoWidgetControl::QVideoWidgetControl__sub_object(QObject*) 0x0001600f   Thumb Code    24  qvideowidgetcontrol.o(.text)
    QAudioEncoderControl::getStaticMetaObject() 0x00016035   Thumb Code     4  qaudioencodercontrol.o(.text)
    QAudioEncoderControl::metaObject() const 0x00016039   Thumb Code    28  qaudioencodercontrol.o(.text)
    QAudioEncoderControl::qt_metacast(const char*) 0x00016055   Thumb Code    40  qaudioencodercontrol.o(.text)
    QAudioEncoderControl::qt_metacall(QMetaObject::Call, int, void**) 0x0001607d   Thumb Code    36  qaudioencodercontrol.o(.text)
    QAudioEncoderControl::~QAudioEncoderControl() 0x000160a1   Thumb Code     0  qaudioencodercontrol.o(.text)
    QAudioEncoderControl::~QAudioEncoderControl__sub_object() 0x000160a1   Thumb Code    14  qaudioencodercontrol.o(.text)
    QAudioEncoderControl::~QAudioEncoderControl__deallocating() 0x000160af   Thumb Code    22  qaudioencodercontrol.o(.text)
    QAudioEncoderControl::QAudioEncoderControl__sub_object(QObject*) 0x000160c5   Thumb Code    24  qaudioencodercontrol.o(.text)
    QVideoEncoderControl::getStaticMetaObject() 0x000160e9   Thumb Code     4  qvideoencodercontrol.o(.text)
    QVideoEncoderControl::metaObject() const 0x000160ed   Thumb Code    28  qvideoencodercontrol.o(.text)
    QVideoEncoderControl::qt_metacast(const char*) 0x00016109   Thumb Code    40  qvideoencodercontrol.o(.text)
    QVideoEncoderControl::qt_metacall(QMetaObject::Call, int, void**) 0x00016131   Thumb Code    36  qvideoencodercontrol.o(.text)
    QVideoEncoderControl::~QVideoEncoderControl() 0x00016155   Thumb Code     0  qvideoencodercontrol.o(.text)
    QVideoEncoderControl::~QVideoEncoderControl__sub_object() 0x00016155   Thumb Code    14  qvideoencodercontrol.o(.text)
    QVideoEncoderControl::~QVideoEncoderControl__deallocating() 0x00016163   Thumb Code    22  qvideoencodercontrol.o(.text)
    QVideoEncoderControl::QVideoEncoderControl__sub_object(QObject*) 0x00016179   Thumb Code    24  qvideoencodercontrol.o(.text)
    QImageEncoderControl::getStaticMetaObject() 0x0001619d   Thumb Code     4  qimageencodercontrol.o(.text)
    QImageEncoderControl::metaObject() const 0x000161a1   Thumb Code    28  qimageencodercontrol.o(.text)
    QImageEncoderControl::qt_metacast(const char*) 0x000161bd   Thumb Code    40  qimageencodercontrol.o(.text)
    QImageEncoderControl::qt_metacall(QMetaObject::Call, int, void**) 0x000161e5   Thumb Code    36  qimageencodercontrol.o(.text)
    QImageEncoderControl::~QImageEncoderControl() 0x00016209   Thumb Code     0  qimageencodercontrol.o(.text)
    QImageEncoderControl::~QImageEncoderControl__sub_object() 0x00016209   Thumb Code    14  qimageencodercontrol.o(.text)
    QImageEncoderControl::~QImageEncoderControl__deallocating() 0x00016217   Thumb Code    22  qimageencodercontrol.o(.text)
    QImageEncoderControl::QImageEncoderControl__sub_object(QObject*) 0x0001622d   Thumb Code    24  qimageencodercontrol.o(.text)
    QAudioCaptureSource::getStaticMetaObject() 0x00016251   Thumb Code     4  qaudiocapturesource.o(.text)
    QAudioCaptureSource::metaObject() const  0x00016255   Thumb Code    28  qaudiocapturesource.o(.text)
    QAudioCaptureSource::qt_metacast(const char*) 0x00016271   Thumb Code    40  qaudiocapturesource.o(.text)
    QAudioCaptureSource::statusChanged()     0x00016299   Thumb Code   110  qaudiocapturesource.o(.text)
    QAudioCaptureSource::setAudioInput(const QString&) 0x00016307   Thumb Code    38  qaudiocapturesource.o(.text)
    QAudioCaptureSource::availableAudioInputsChanged() 0x0001632d   Thumb Code    18  qaudiocapturesource.o(.text)
    QAudioCaptureSource::activeAudioInputChanged(const QString&) 0x0001633f   Thumb Code    30  qaudiocapturesource.o(.text)
    QAudioCaptureSource::qt_metacall(QMetaObject::Call, int, void**) 0x0001635d   Thumb Code   100  qaudiocapturesource.o(.text)
    QAudioCaptureSource::QAudioCaptureSource(QObject*, QMediaServiceProvider*) 0x000163c1   Thumb Code   212  qaudiocapturesource.o(.text)
    QAudioCaptureSource::QAudioCaptureSource__sub_object(QObject*, QMediaServiceProvider*) 0x000163c1   Thumb Code     0  qaudiocapturesource.o(.text)
    QAudioCaptureSource::~QAudioCaptureSource() 0x00016495   Thumb Code    70  qaudiocapturesource.o(.text)
    QAudioCaptureSource::~QAudioCaptureSource__sub_object() 0x00016495   Thumb Code     0  qaudiocapturesource.o(.text)
    QAudioCaptureSource::~QAudioCaptureSource__deallocating() 0x000164db   Thumb Code    22  qaudiocapturesource.o(.text)
    QAudioCaptureSource::isAvailable() const 0x000164f1   Thumb Code    92  qaudiocapturesource.o(.text)
    QAudioCaptureSource::availabilityError() const 0x0001654d   Thumb Code    16  qaudiocapturesource.o(.text)
    QAudioCaptureSource::audioInputs() const 0x0001655d   Thumb Code    72  qaudiocapturesource.o(.text)
    QAudioCaptureSource::audioDescription(const QString&) const 0x000165a5   Thumb Code    50  qaudiocapturesource.o(.text)
    QAudioCaptureSource::defaultAudioInput() const 0x000165d7   Thumb Code   102  qaudiocapturesource.o(.text)
    QAudioCaptureSource::activeAudioInput() const 0x0001663d   Thumb Code    46  qaudiocapturesource.o(.text)
    QMediaContainerControl::getStaticMetaObject() 0x0001666d   Thumb Code     4  qmediacontainercontrol.o(.text)
    QMediaContainerControl::metaObject() const 0x00016671   Thumb Code    28  qmediacontainercontrol.o(.text)
    QMediaContainerControl::qt_metacast(const char*) 0x0001668d   Thumb Code    40  qmediacontainercontrol.o(.text)
    QMediaContainerControl::qt_metacall(QMetaObject::Call, int, void**) 0x000166b5   Thumb Code    36  qmediacontainercontrol.o(.text)
    QMediaContainerControl::~QMediaContainerControl() 0x000166d9   Thumb Code     0  qmediacontainercontrol.o(.text)
    QMediaContainerControl::~QMediaContainerControl__sub_object() 0x000166d9   Thumb Code    14  qmediacontainercontrol.o(.text)
    QMediaContainerControl::~QMediaContainerControl__deallocating() 0x000166e7   Thumb Code    22  qmediacontainercontrol.o(.text)
    QMediaContainerControl::QMediaContainerControl__sub_object(QObject*) 0x000166fd   Thumb Code    24  qmediacontainercontrol.o(.text)
    QMediaPlaylistControl::getStaticMetaObject() 0x00016721   Thumb Code     4  qmediaplaylistcontrol.o(.text)
    QMediaPlaylistControl::metaObject() const 0x00016725   Thumb Code    28  qmediaplaylistcontrol.o(.text)
    QMediaPlaylistControl::qt_metacast(const char*) 0x00016741   Thumb Code    40  qmediaplaylistcontrol.o(.text)
    QMediaPlaylistControl::playbackModeChanged(QMediaPlaylist::PlaybackMode) 0x00016769   Thumb Code    32  qmediaplaylistcontrol.o(.text)
    QMediaPlaylistControl::currentMediaChanged(const QMediaContent&) 0x00016789   Thumb Code    30  qmediaplaylistcontrol.o(.text)
    QMediaPlaylistControl::currentIndexChanged(int) 0x000167a7   Thumb Code    32  qmediaplaylistcontrol.o(.text)
    QMediaPlaylistControl::playlistProviderChanged() 0x000167c7   Thumb Code    18  qmediaplaylistcontrol.o(.text)
    QMediaPlaylistControl::qt_metacall(QMetaObject::Call, int, void**) 0x000167d9   Thumb Code   106  qmediaplaylistcontrol.o(.text)
    QMediaPlaylistControl::~QMediaPlaylistControl() 0x00016843   Thumb Code     0  qmediaplaylistcontrol.o(.text)
    QMediaPlaylistControl::~QMediaPlaylistControl__sub_object() 0x00016843   Thumb Code    14  qmediaplaylistcontrol.o(.text)
    QMediaPlaylistControl::~QMediaPlaylistControl__deallocating() 0x00016851   Thumb Code    22  qmediaplaylistcontrol.o(.text)
    QMediaPlaylistControl::QMediaPlaylistControl__sub_object(QObject*) 0x00016867   Thumb Code    44  qmediaplaylistcontrol.o(.text)
    QMediaPlaylistSourceControl::getStaticMetaObject() 0x000168a5   Thumb Code     4  qmediaplaylistsourcecontrol.o(.text)
    QMediaPlaylistSourceControl::metaObject() const 0x000168a9   Thumb Code    28  qmediaplaylistsourcecontrol.o(.text)
    QMediaPlaylistSourceControl::qt_metacast(const char*) 0x000168c5   Thumb Code    40  qmediaplaylistsourcecontrol.o(.text)
    QMediaPlaylistSourceControl::playlistChanged(QMediaPlaylist*) 0x000168ed   Thumb Code    30  qmediaplaylistsourcecontrol.o(.text)
    QMediaPlaylistSourceControl::qt_metacall(QMetaObject::Call, int, void**) 0x0001690b   Thumb Code    62  qmediaplaylistsourcecontrol.o(.text)
    QMediaPlaylistSourceControl::~QMediaPlaylistSourceControl() 0x00016949   Thumb Code     0  qmediaplaylistsourcecontrol.o(.text)
    QMediaPlaylistSourceControl::~QMediaPlaylistSourceControl__sub_object() 0x00016949   Thumb Code    14  qmediaplaylistsourcecontrol.o(.text)
    QMediaPlaylistSourceControl::~QMediaPlaylistSourceControl__deallocating() 0x00016957   Thumb Code    22  qmediaplaylistsourcecontrol.o(.text)
    QMediaPlaylistSourceControl::QMediaPlaylistSourceControl__sub_object(QObject*) 0x0001696d   Thumb Code    44  qmediaplaylistsourcecontrol.o(.text)
    QAudioEndpointSelector::getStaticMetaObject() 0x000169a9   Thumb Code     4  qaudioendpointselector.o(.text)
    QAudioEndpointSelector::metaObject() const 0x000169ad   Thumb Code    28  qaudioendpointselector.o(.text)
    QAudioEndpointSelector::qt_metacast(const char*) 0x000169c9   Thumb Code    40  qaudioendpointselector.o(.text)
    QAudioEndpointSelector::availableEndpointsChanged() 0x000169f1   Thumb Code    18  qaudioendpointselector.o(.text)
    QAudioEndpointSelector::activeEndpointChanged(const QString&) 0x00016a03   Thumb Code    30  qaudioendpointselector.o(.text)
    QAudioEndpointSelector::qt_metacall(QMetaObject::Call, int, void**) 0x00016a21   Thumb Code    90  qaudioendpointselector.o(.text)
    QAudioEndpointSelector::~QAudioEndpointSelector() 0x00016a7b   Thumb Code     0  qaudioendpointselector.o(.text)
    QAudioEndpointSelector::~QAudioEndpointSelector__sub_object() 0x00016a7b   Thumb Code    14  qaudioendpointselector.o(.text)
    QAudioEndpointSelector::~QAudioEndpointSelector__deallocating() 0x00016a89   Thumb Code    22  qaudioendpointselector.o(.text)
    QAudioEndpointSelector::QAudioEndpointSelector__sub_object(QObject*) 0x00016a9f   Thumb Code    24  qaudioendpointselector.o(.text)
    QVideoDeviceControl::getStaticMetaObject() 0x00016ac5   Thumb Code     4  qvideodevicecontrol.o(.text)
    QVideoDeviceControl::metaObject() const  0x00016ac9   Thumb Code    28  qvideodevicecontrol.o(.text)
    QVideoDeviceControl::qt_metacast(const char*) 0x00016ae5   Thumb Code    40  qvideodevicecontrol.o(.text)
    QVideoDeviceControl::devicesChanged()    0x00016b0d   Thumb Code    18  qvideodevicecontrol.o(.text)
    QVideoDeviceControl::selectedDeviceChanged(const QString&) 0x00016b1f   Thumb Code    30  qvideodevicecontrol.o(.text)
    QVideoDeviceControl::selectedDeviceChanged(int) 0x00016b3d   Thumb Code    30  qvideodevicecontrol.o(.text)
    QVideoDeviceControl::qt_metacall(QMetaObject::Call, int, void**) 0x00016b5b   Thumb Code   108  qvideodevicecontrol.o(.text)
    QVideoDeviceControl::~QVideoDeviceControl() 0x00016bc7   Thumb Code     0  qvideodevicecontrol.o(.text)
    QVideoDeviceControl::~QVideoDeviceControl__sub_object() 0x00016bc7   Thumb Code    14  qvideodevicecontrol.o(.text)
    QVideoDeviceControl::~QVideoDeviceControl__deallocating() 0x00016bd5   Thumb Code    22  qvideodevicecontrol.o(.text)
    QVideoDeviceControl::QVideoDeviceControl__sub_object(QObject*) 0x00016beb   Thumb Code    24  qvideodevicecontrol.o(.text)
    DirChecker::~DirChecker()                0x00016cbd   Thumb Code    14  qmediapluginloader.o(.text)
    DirChecker::~DirChecker__sub_object()    0x00016cbd   Thumb Code     0  qmediapluginloader.o(.text)
    DirChecker::checkDir(const QDir&)        0x00016ccb   Thumb Code    86  qmediapluginloader.o(.text)
    DirChecker::DirChecker()                 0x00016d21   Thumb Code    34  qmediapluginloader.o(.text)
    DirChecker::DirChecker__sub_object()     0x00016d21   Thumb Code     0  qmediapluginloader.o(.text)
    QMediaPluginLoader::availablePlugins() const 0x00016d43   Thumb Code   440  qmediapluginloader.o(.text)
    QMediaPluginLoader::load()               0x00016efb   Thumb Code   998  qmediapluginloader.o(.text)
    QMediaPluginLoader::QMediaPluginLoader(const char*, const QString&, Qt::CaseSensitivity) 0x000172e1   Thumb Code   136  qmediapluginloader.o(.text)
    QMediaPluginLoader::QMediaPluginLoader__sub_object(const char*, const QString&, Qt::CaseSensitivity) 0x000172e1   Thumb Code     0  qmediapluginloader.o(.text)
    QMediaPluginLoader::keys() const         0x00017369   Thumb Code    38  qmediapluginloader.o(.text)
    QMediaPluginLoader::instance(const QString&) 0x0001738f   Thumb Code    50  qmediapluginloader.o(.text)
    QMediaPluginLoader::instances(const QString&) 0x000173c1   Thumb Code    22  qmediapluginloader.o(.text)
    QMediaPluginLoader::setStaticPlugins(const QString&, const QList<QObject*>&) 0x000173d7   Thumb Code   226  qmediapluginloader.o(.text)
    QVideoSurfacePainter::~QVideoSurfacePainter() 0x000174c5   Thumb Code     0  qpaintervideosurface.o(.text)
    QVideoSurfacePainter::~QVideoSurfacePainter__sub_object() 0x000174c5   Thumb Code     2  qpaintervideosurface.o(.text)
    QVideoSurfacePainter::~QVideoSurfacePainter__deallocating() 0x000174c7   Thumb Code    22  qpaintervideosurface.o(.text)
    QPainterVideoSurface::getStaticMetaObject() 0x000174dd   Thumb Code     4  qpaintervideosurface.o(.text)
    QPainterVideoSurface::metaObject() const 0x000174e1   Thumb Code    28  qpaintervideosurface.o(.text)
    QPainterVideoSurface::qt_metacast(const char*) 0x000174fd   Thumb Code    40  qpaintervideosurface.o(.text)
    QPainterVideoSurface::viewportDestroyed() 0x00017525   Thumb Code    58  qpaintervideosurface.o(.text)
    QPainterVideoSurface::frameChanged()     0x0001755f   Thumb Code    18  qpaintervideosurface.o(.text)
    QPainterVideoSurface::qt_metacall(QMetaObject::Call, int, void**) 0x00017571   Thumb Code    72  qpaintervideosurface.o(.text)
    QPainterVideoSurface::QPainterVideoSurface(QObject*) 0x000175b9   Thumb Code    86  qpaintervideosurface.o(.text)
    QPainterVideoSurface::QPainterVideoSurface__sub_object(QObject*) 0x000175b9   Thumb Code     0  qpaintervideosurface.o(.text)
    QPainterVideoSurface::~QPainterVideoSurface() 0x0001760f   Thumb Code    54  qpaintervideosurface.o(.text)
    QPainterVideoSurface::~QPainterVideoSurface__sub_object() 0x0001760f   Thumb Code     0  qpaintervideosurface.o(.text)
    QPainterVideoSurface::~QPainterVideoSurface__deallocating() 0x00017645   Thumb Code    22  qpaintervideosurface.o(.text)
    QVideoSurfaceGenericPainter::QVideoSurfaceGenericPainter() 0x0001765b   Thumb Code   106  qpaintervideosurface.o(.text)
    QVideoSurfaceGenericPainter::QVideoSurfaceGenericPainter__sub_object() 0x0001765b   Thumb Code     0  qpaintervideosurface.o(.text)
    QPainterVideoSurface::createPainter()    0x000176c5   Thumb Code    30  qpaintervideosurface.o(.text)
    QPainterVideoSurface::supportedPixelFormats(QAbstractVideoBuffer::HandleType) const 0x000176e3   Thumb Code    36  qpaintervideosurface.o(.text)
    QPainterVideoSurface::isFormatSupported(const QVideoSurfaceFormat&, QVideoSurfaceFormat*) const 0x00017707   Thumb Code    36  qpaintervideosurface.o(.text)
    QPainterVideoSurface::start(const QVideoSurfaceFormat&) 0x0001772b   Thumb Code   154  qpaintervideosurface.o(.text)
    QPainterVideoSurface::stop()             0x000177c5   Thumb Code    38  qpaintervideosurface.o(.text)
    QPainterVideoSurface::present(const QVideoFrame&) 0x000177eb   Thumb Code   190  qpaintervideosurface.o(.text)
    QPainterVideoSurface::brightness() const 0x000178a9   Thumb Code     6  qpaintervideosurface.o(.text)
    QPainterVideoSurface::setBrightness(int) 0x000178af   Thumb Code    10  qpaintervideosurface.o(.text)
    QPainterVideoSurface::contrast() const   0x000178b9   Thumb Code     6  qpaintervideosurface.o(.text)
    QPainterVideoSurface::setContrast(int)   0x000178bf   Thumb Code    10  qpaintervideosurface.o(.text)
    QPainterVideoSurface::hue() const        0x000178c9   Thumb Code     6  qpaintervideosurface.o(.text)
    QPainterVideoSurface::setHue(int)        0x000178cf   Thumb Code    10  qpaintervideosurface.o(.text)
    QPainterVideoSurface::saturation() const 0x000178d9   Thumb Code     6  qpaintervideosurface.o(.text)
    QPainterVideoSurface::setSaturation(int) 0x000178df   Thumb Code    10  qpaintervideosurface.o(.text)
    QPainterVideoSurface::isReady() const    0x000178e9   Thumb Code     8  qpaintervideosurface.o(.text)
    QPainterVideoSurface::setReady(bool)     0x000178f1   Thumb Code     6  qpaintervideosurface.o(.text)
    QPainterVideoSurface::paint(QPainter*, const QRectF&, const QRectF&) 0x000178f7   Thumb Code   320  qpaintervideosurface.o(.text)
    QVideoSurfaceGenericPainter::supportedPixelFormats(QAbstractVideoBuffer::HandleType) const 0x00017a37   Thumb Code    64  qpaintervideosurface.o(.text)
    QVideoSurfaceGenericPainter::isFormatSupported(const QVideoSurfaceFormat&, QVideoSurfaceFormat*) const 0x00017a77   Thumb Code   104  qpaintervideosurface.o(.text)
    QVideoSurfaceGenericPainter::start(const QVideoSurfaceFormat&) 0x00017adf   Thumb Code   116  qpaintervideosurface.o(.text)
    QVideoSurfaceGenericPainter::stop()      0x00017b53   Thumb Code    30  qpaintervideosurface.o(.text)
    QVideoSurfaceGenericPainter::setCurrentFrame(const QVideoFrame&) 0x00017b71   Thumb Code    20  qpaintervideosurface.o(.text)
    QVideoSurfaceGenericPainter::paint(const QRectF&, QPainter*, const QRectF&) 0x00017b85   Thumb Code   540  qpaintervideosurface.o(.text)
    QVideoSurfaceGenericPainter::updateColors(int, int, int, int) 0x00017da1   Thumb Code     6  qpaintervideosurface.o(.text)
    QVideoRendererControl::getStaticMetaObject() 0x00017db1   Thumb Code     4  qvideorenderercontrol.o(.text)
    QVideoRendererControl::metaObject() const 0x00017db5   Thumb Code    28  qvideorenderercontrol.o(.text)
    QVideoRendererControl::qt_metacast(const char*) 0x00017dd1   Thumb Code    40  qvideorenderercontrol.o(.text)
    QVideoRendererControl::qt_metacall(QMetaObject::Call, int, void**) 0x00017df9   Thumb Code    36  qvideorenderercontrol.o(.text)
    QVideoRendererControl::~QVideoRendererControl() 0x00017e1d   Thumb Code     0  qvideorenderercontrol.o(.text)
    QVideoRendererControl::~QVideoRendererControl__sub_object() 0x00017e1d   Thumb Code    14  qvideorenderercontrol.o(.text)
    QVideoRendererControl::~QVideoRendererControl__deallocating() 0x00017e2b   Thumb Code    22  qvideorenderercontrol.o(.text)
    QVideoRendererControl::QVideoRendererControl__sub_object(QObject*) 0x00017e41   Thumb Code    24  qvideorenderercontrol.o(.text)
    QMediaTimeInterval::end() const          0x00017e65   Thumb Code     8  qmediatimerange.o(.text)
    QMediaTimeInterval::start() const        0x00017e6d   Thumb Code     8  qmediatimerange.o(.text)
    operator ==(const QMediaTimeInterval&, const QMediaTimeInterval&) 0x00017e75   Thumb Code    78  qmediatimerange.o(.text)
    operator !=(const QMediaTimeInterval&, const QMediaTimeInterval&) 0x00017ec3   Thumb Code    78  qmediatimerange.o(.text)
    QMediaTimeInterval::QMediaTimeInterval(const QMediaTimeInterval&) 0x00017f11   Thumb Code    18  qmediatimerange.o(.text)
    QMediaTimeInterval::QMediaTimeInterval__sub_object(const QMediaTimeInterval&) 0x00017f11   Thumb Code     0  qmediatimerange.o(.text)
    QMediaTimeRange::intervals() const       0x00017f23   Thumb Code    24  qmediatimerange.o(.text)
    operator ==(const QMediaTimeRange&, const QMediaTimeRange&) 0x00017f3b   Thumb Code   178  qmediatimerange.o(.text)
    operator !=(const QMediaTimeRange&, const QMediaTimeRange&) 0x00017fed   Thumb Code    20  qmediatimerange.o(.text)
    QMediaTimeRange::~QMediaTimeRange()      0x00018001   Thumb Code    14  qmediatimerange.o(.text)
    QMediaTimeRange::~QMediaTimeRange__sub_object() 0x00018001   Thumb Code     0  qmediatimerange.o(.text)
    QMediaTimeRange::QMediaTimeRange(const QMediaTimeRange&) 0x0001800f   Thumb Code    28  qmediatimerange.o(.text)
    QMediaTimeRange::QMediaTimeRange__sub_object(const QMediaTimeRange&) 0x0001800f   Thumb Code     0  qmediatimerange.o(.text)
    QMediaTimeRangePrivate::QMediaTimeRangePrivate(const QMediaTimeRangePrivate&) 0x0001802b   Thumb Code    32  qmediatimerange.o(.text)
    QMediaTimeRangePrivate::QMediaTimeRangePrivate__sub_object(const QMediaTimeRangePrivate&) 0x0001802b   Thumb Code     0  qmediatimerange.o(.text)
    QMediaTimeInterval::isNormal() const     0x0001804b   Thumb Code    22  qmediatimerange.o(.text)
    QMediaTimeRangePrivate::addInterval(const QMediaTimeInterval&) 0x00018061   Thumb Code   366  qmediatimerange.o(.text)
    QMediaTimeRange::addTimeRange(const QMediaTimeRange&) 0x000181cf   Thumb Code   152  qmediatimerange.o(.text)
    QMediaTimeRange::operator +=(const QMediaTimeRange&) 0x00018267   Thumb Code    18  qmediatimerange.o(.text)
    operator +(const QMediaTimeRange&, const QMediaTimeRange&) 0x00018279   Thumb Code    44  qmediatimerange.o(.text)
    QMediaTimeInterval::QMediaTimeInterval(long long, long long) 0x000182a5   Thumb Code    22  qmediatimerange.o(.text)
    QMediaTimeInterval::QMediaTimeInterval__sub_object(long long, long long) 0x000182a5   Thumb Code     0  qmediatimerange.o(.text)
    QMediaTimeRangePrivate::removeInterval(const QMediaTimeInterval&) 0x000182bb   Thumb Code   282  qmediatimerange.o(.text)
    QMediaTimeRange::removeTimeRange(const QMediaTimeRange&) 0x000183d5   Thumb Code   152  qmediatimerange.o(.text)
    QMediaTimeRange::operator -=(const QMediaTimeRange&) 0x0001846d   Thumb Code    18  qmediatimerange.o(.text)
    operator -(const QMediaTimeRange&, const QMediaTimeRange&) 0x0001847f   Thumb Code    44  qmediatimerange.o(.text)
    QMediaTimeInterval::QMediaTimeInterval() 0x000184ab   Thumb Code    18  qmediatimerange.o(.text)
    QMediaTimeInterval::QMediaTimeInterval__sub_object() 0x000184ab   Thumb Code     0  qmediatimerange.o(.text)
    QMediaTimeInterval::contains(long long) const 0x000184bd   Thumb Code    88  qmediatimerange.o(.text)
    QMediaTimeInterval::normalized() const   0x00018515   Thumb Code    50  qmediatimerange.o(.text)
    QMediaTimeInterval::translated(long long) const 0x00018547   Thumb Code    64  qmediatimerange.o(.text)
    QMediaTimeRangePrivate::QMediaTimeRangePrivate() 0x00018587   Thumb Code    28  qmediatimerange.o(.text)
    QMediaTimeRangePrivate::QMediaTimeRangePrivate__sub_object() 0x00018587   Thumb Code     0  qmediatimerange.o(.text)
    QMediaTimeRange::QMediaTimeRange()       0x000185a3   Thumb Code    36  qmediatimerange.o(.text)
    QMediaTimeRange::QMediaTimeRange__sub_object() 0x000185a3   Thumb Code     0  qmediatimerange.o(.text)
    QMediaTimeRangePrivate::QMediaTimeRangePrivate(const QMediaTimeInterval&) 0x000185c7   Thumb Code    54  qmediatimerange.o(.text)
    QMediaTimeRangePrivate::QMediaTimeRangePrivate__sub_object(const QMediaTimeInterval&) 0x000185c7   Thumb Code     0  qmediatimerange.o(.text)
    QMediaTimeRange::QMediaTimeRange(long long, long long) 0x000185fd   Thumb Code    66  qmediatimerange.o(.text)
    QMediaTimeRange::QMediaTimeRange__sub_object(long long, long long) 0x000185fd   Thumb Code     0  qmediatimerange.o(.text)
    QMediaTimeRange::QMediaTimeRange(const QMediaTimeInterval&) 0x0001863f   Thumb Code    40  qmediatimerange.o(.text)
    QMediaTimeRange::QMediaTimeRange__sub_object(const QMediaTimeInterval&) 0x0001863f   Thumb Code     0  qmediatimerange.o(.text)
    QMediaTimeRange::operator =(const QMediaTimeRange&) 0x00018667   Thumb Code    72  qmediatimerange.o(.text)
    QMediaTimeRange::operator =(const QMediaTimeInterval&) 0x000186af   Thumb Code    92  qmediatimerange.o(.text)
    QMediaTimeRange::earliestTime() const    0x0001870b   Thumb Code    48  qmediatimerange.o(.text)
    QMediaTimeRange::latestTime() const      0x0001873b   Thumb Code    60  qmediatimerange.o(.text)
    QMediaTimeRange::isEmpty() const         0x00018777   Thumb Code    18  qmediatimerange.o(.text)
    QMediaTimeRange::isContinuous() const    0x00018789   Thumb Code    28  qmediatimerange.o(.text)
    QMediaTimeRange::contains(long long) const 0x000187a5   Thumb Code    94  qmediatimerange.o(.text)
    QMediaTimeRange::addInterval(long long, long long) 0x00018803   Thumb Code    44  qmediatimerange.o(.text)
    QMediaTimeRange::addInterval(const QMediaTimeInterval&) 0x0001882f   Thumb Code    22  qmediatimerange.o(.text)
    QMediaTimeRange::removeInterval(long long, long long) 0x00018845   Thumb Code    52  qmediatimerange.o(.text)
    QMediaTimeRange::removeInterval(const QMediaTimeInterval&) 0x00018879   Thumb Code    22  qmediatimerange.o(.text)
    QMediaTimeRange::operator +=(const QMediaTimeInterval&) 0x0001888f   Thumb Code    18  qmediatimerange.o(.text)
    QMediaTimeRange::operator -=(const QMediaTimeInterval&) 0x000188a1   Thumb Code    18  qmediatimerange.o(.text)
    QMediaTimeRange::clear()                 0x000188b3   Thumb Code    20  qmediatimerange.o(.text)
    QCamera::getStaticMetaObject()           0x000188c9   Thumb Code     4  qcamera.o(.text)
    QCamera::metaObject() const              0x000188cd   Thumb Code    28  qcamera.o(.text)
    QCamera::qt_metacast(const char*)        0x000188e9   Thumb Code    40  qcamera.o(.text)
    QCameraPrivate::_q_preparePropertyChange(int) 0x00018911   Thumb Code   338  qcamera.o(.text)
    QCamera::captureMode() const             0x00018a63   Thumb Code    40  qcamera.o(.text)
    QCamera::setCaptureMode(QCamera::CaptureMode) 0x00018a8b   Thumb Code    54  qcamera.o(.text)
    QCamera::lockStatus() const              0x00018ac1   Thumb Code    14  qcamera.o(.text)
    QCamera::status() const                  0x00018acf   Thumb Code    42  qcamera.o(.text)
    QCamera::state() const                   0x00018af9   Thumb Code    14  qcamera.o(.text)
    QCamera::stateChanged(QCamera::State)    0x00018b07   Thumb Code    30  qcamera.o(.text)
    QCameraPrivate::_q_updateState(QCamera::State) 0x00018b25   Thumb Code    88  qcamera.o(.text)
    QCamera::lockStatusChanged(QCamera::LockType, QCamera::LockStatus, QCamera::LockChangeReason) 0x00018b7d   Thumb Code    44  qcamera.o(.text)
    QCamera::lockFailed()                    0x00018ba9   Thumb Code    18  qcamera.o(.text)
    QCamera::locked()                        0x00018bbb   Thumb Code    18  qcamera.o(.text)
    QCamera::lockStatusChanged(QCamera::LockStatus, QCamera::LockChangeReason) 0x00018bcd   Thumb Code    40  qcamera.o(.text)
    QCamera::lockStatus(QCamera::LockType) const 0x00018bf5   Thumb Code    80  qcamera.o(.text)
    QCameraPrivate::updateLockStatus()       0x00018c45   Thumb Code   834  qcamera.o(.text)
    QCameraPrivate::_q_updateLockStatus(QCamera::LockType, QCamera::LockStatus, QCamera::LockChangeReason) 0x00018f87   Thumb Code    44  qcamera.o(.text)
    QCamera::error(QCamera::Error)           0x00018fb3   Thumb Code    32  qcamera.o(.text)
    QCameraPrivate::_q_error(int, const QString&) 0x00018fd3   Thumb Code   104  qcamera.o(.text)
    QCameraPrivate::_q_restartCamera()       0x0001903b   Thumb Code    32  qcamera.o(.text)
    QCamera::unlock(QFlags<QCamera::LockType>) 0x0001905b   Thumb Code   150  qcamera.o(.text)
    QCamera::searchAndLock(QFlags<QCamera::LockType>) 0x000190f1   Thumb Code   112  qcamera.o(.text)
    QCamera::unlock()                        0x00019161   Thumb Code    34  qcamera.o(.text)
    QCamera::searchAndLock()                 0x00019183   Thumb Code    64  qcamera.o(.text)
    QCameraPrivate::setState(QCamera::State) 0x000191c3   Thumb Code   146  qcamera.o(.text)
    QCamera::stop()                          0x00019255   Thumb Code    24  qcamera.o(.text)
    QCamera::start()                         0x0001926d   Thumb Code    24  qcamera.o(.text)
    QCamera::unload()                        0x00019285   Thumb Code    24  qcamera.o(.text)
    QCamera::load()                          0x0001929d   Thumb Code    24  qcamera.o(.text)
    QCamera::statusChanged(QCamera::Status)  0x000192b5   Thumb Code    32  qcamera.o(.text)
    QCamera::captureModeChanged(QCamera::CaptureMode) 0x000192d5   Thumb Code    32  qcamera.o(.text)
    QCamera::qt_metacall(QMetaObject::Call, int, void**) 0x000192f5   Thumb Code   590  qcamera.o(.text)
    QCameraPrivate::initControls()           0x00019543   Thumb Code   502  qcamera.o(.text)
    QCamera::QCamera(QObject*, QMediaServiceProvider*) 0x00019739   Thumb Code   222  qcamera.o(.text)
    QCamera::QCamera__sub_object(QObject*, QMediaServiceProvider*) 0x00019739   Thumb Code     0  qcamera.o(.text)
    QCamera::QCamera(const QByteArray&, QObject*) 0x00019817   Thumb Code   426  qcamera.o(.text)
    QCamera::QCamera__sub_object(const QByteArray&, QObject*) 0x00019817   Thumb Code     0  qcamera.o(.text)
    QCamera::~QCamera()                      0x000199c1   Thumb Code   316  qcamera.o(.text)
    QCamera::~QCamera__sub_object()          0x000199c1   Thumb Code     0  qcamera.o(.text)
    QCamera::~QCamera__deallocating()        0x00019afd   Thumb Code    22  qcamera.o(.text)
    QCamera::availableDevices()              0x00019b13   Thumb Code    40  qcamera.o(.text)
    QCamera::deviceDescription(const QByteArray&) 0x00019b3b   Thumb Code    44  qcamera.o(.text)
    QCamera::isAvailable() const             0x00019b67   Thumb Code    24  qcamera.o(.text)
    QCamera::availabilityError() const       0x00019b7f   Thumb Code    40  qcamera.o(.text)
    QCamera::isCaptureModeSupported(QCamera::CaptureMode) const 0x00019ba7   Thumb Code    44  qcamera.o(.text)
    QCamera::exposure() const                0x00019bd3   Thumb Code    14  qcamera.o(.text)
    QCamera::focus() const                   0x00019be1   Thumb Code    14  qcamera.o(.text)
    QCamera::imageProcessing() const         0x00019bef   Thumb Code    14  qcamera.o(.text)
    QCamera::setViewfinder(QVideoWidget*)    0x00019bfd   Thumb Code    68  qcamera.o(.text)
    QCamera::setViewfinder(QGraphicsVideoItem*) 0x00019c41   Thumb Code    68  qcamera.o(.text)
    QCamera::error() const                   0x00019c85   Thumb Code    14  qcamera.o(.text)
    QCamera::errorString() const             0x00019c93   Thumb Code    34  qcamera.o(.text)
    QCamera::supportedLocks() const          0x00019cb5   Thumb Code    20  qcamera.o(.text)
    QCamera::requestedLocks() const          0x00019cc9   Thumb Code    20  qcamera.o(.text)
    QCameraViewfinder::getStaticMetaObject() 0x00019d9d   Thumb Code     4  qcameraviewfinder.o(.text)
    QCameraViewfinder::metaObject() const    0x00019da1   Thumb Code    28  qcameraviewfinder.o(.text)
    QCameraViewfinder::qt_metacast(const char*) 0x00019dbd   Thumb Code    40  qcameraviewfinder.o(.text)
    QCameraViewfinder::qt_metacall(QMetaObject::Call, int, void**) 0x00019de5   Thumb Code    36  qcameraviewfinder.o(.text)
    QCameraViewfinder::QCameraViewfinder(QWidget*) 0x00019e09   Thumb Code   156  qcameraviewfinder.o(.text)
    QCameraViewfinder::QCameraViewfinder__sub_object(QWidget*) 0x00019e09   Thumb Code     0  qcameraviewfinder.o(.text)
    QCameraViewfinder::~QCameraViewfinder()  0x00019ea5   Thumb Code    14  qcameraviewfinder.o(.text)
    QCameraViewfinder::~QCameraViewfinder__sub_object() 0x00019ea5   Thumb Code     0  qcameraviewfinder.o(.text)
    QCameraViewfinder::~QCameraViewfinder__deallocating() 0x00019eb3   Thumb Code    22  qcameraviewfinder.o(.text)
    thunk{-20} to QCameraViewfinder::~QCameraViewfinder__deallocating() 0x00019ec9   Thumb Code    14  qcameraviewfinder.o(.text)
    thunk{-8} to QCameraViewfinder::~QCameraViewfinder__deallocating() 0x00019ed7   Thumb Code    14  qcameraviewfinder.o(.text)
    thunk{-20} to QCameraViewfinder::~QCameraViewfinder() 0x00019ee5   Thumb Code    14  qcameraviewfinder.o(.text)
    thunk{-8} to QCameraViewfinder::~QCameraViewfinder() 0x00019ef3   Thumb Code    14  qcameraviewfinder.o(.text)
    QCameraViewfinder::mediaObject() const   0x00019f01   Thumb Code    12  qcameraviewfinder.o(.text)
    thunk{-20} to QCameraViewfinder::mediaObject() const 0x00019f0d   Thumb Code    14  qcameraviewfinder.o(.text)
    QCameraViewfinder::setMediaObject(QMediaObject*) 0x00019f1b   Thumb Code    26  qcameraviewfinder.o(.text)
    thunk{-20} to QCameraViewfinder::setMediaObject(QMediaObject*) 0x00019f35   Thumb Code    18  qcameraviewfinder.o(.text)
    QCameraExposure::getStaticMetaObject()   0x00019f55   Thumb Code     4  qcameraexposure.o(.text)
    QCameraExposure::metaObject() const      0x00019f59   Thumb Code    28  qcameraexposure.o(.text)
    QCameraExposure::qt_metacast(const char*) 0x00019f75   Thumb Code    40  qcameraexposure.o(.text)
    QCameraExposure::setMeteringMode(QCameraExposure::MeteringMode) 0x00019f9d   Thumb Code    42  qcameraexposure.o(.text)
    QCameraExposure::setExposureMode(QCameraExposure::ExposureMode) 0x00019fc7   Thumb Code    42  qcameraexposure.o(.text)
    QCameraExposure::setFlashMode(QFlags<QCameraExposure::FlashMode>) 0x00019ff1   Thumb Code    52  qcameraexposure.o(.text)
    QCameraExposure::setExposureCompensation(float) 0x0001a025   Thumb Code    66  qcameraexposure.o(.text)
    QCameraExposure::meteringMode() const    0x0001a067   Thumb Code    40  qcameraexposure.o(.text)
    QCameraExposure::exposureMode() const    0x0001a08f   Thumb Code    40  qcameraexposure.o(.text)
    QCameraExposure::flashMode() const       0x0001a0b7   Thumb Code    60  qcameraexposure.o(.text)
    QCameraExposure::isFlashReady() const    0x0001a0f3   Thumb Code    40  qcameraexposure.o(.text)
    QCameraExposure::exposureCompensation() const 0x0001a11b   Thumb Code    70  qcameraexposure.o(.text)
    QCameraExposure::isoSensitivity() const  0x0001a161   Thumb Code    72  qcameraexposure.o(.text)
    QCameraExposure::shutterSpeed() const    0x0001a1a9   Thumb Code    70  qcameraexposure.o(.text)
    QCameraExposure::aperture() const        0x0001a1ef   Thumb Code    70  qcameraexposure.o(.text)
    QCameraExposure::shutterSpeedRangeChanged() 0x0001a235   Thumb Code    18  qcameraexposure.o(.text)
    QCameraExposure::apertureRangeChanged()  0x0001a247   Thumb Code    18  qcameraexposure.o(.text)
    QCameraExposurePrivate::_q_exposureParameterRangeChanged(int) 0x0001a259   Thumb Code    42  qcameraexposure.o(.text)
    QCameraExposure::exposureCompensationChanged(float) 0x0001a283   Thumb Code    32  qcameraexposure.o(.text)
    QCameraExposure::shutterSpeedChanged(float) 0x0001a2a3   Thumb Code    32  qcameraexposure.o(.text)
    QCameraExposure::apertureChanged(float)  0x0001a2c3   Thumb Code    32  qcameraexposure.o(.text)
    QCameraExposure::isoSensitivityChanged(int) 0x0001a2e3   Thumb Code    46  qcameraexposure.o(.text)
    QCameraExposurePrivate::_q_exposureParameterChanged(int) 0x0001a311   Thumb Code   106  qcameraexposure.o(.text)
    QCameraExposure::setAutoShutterSpeed()   0x0001a37b   Thumb Code    66  qcameraexposure.o(.text)
    QCameraExposure::setManualShutterSpeed(float) 0x0001a3bd   Thumb Code    66  qcameraexposure.o(.text)
    QCameraExposure::setAutoAperture()       0x0001a3ff   Thumb Code    66  qcameraexposure.o(.text)
    QCameraExposure::setManualAperture(float) 0x0001a441   Thumb Code    66  qcameraexposure.o(.text)
    QCameraExposure::setAutoIsoSensitivity() 0x0001a483   Thumb Code    66  qcameraexposure.o(.text)
    QCameraExposure::setManualIsoSensitivity(int) 0x0001a4c5   Thumb Code    66  qcameraexposure.o(.text)
    QCameraExposure::flashReady(bool)        0x0001a507   Thumb Code    30  qcameraexposure.o(.text)
    QCameraExposure::qt_metacall(QMetaObject::Call, int, void**) 0x0001a525   Thumb Code   638  qcameraexposure.o(.text)
    QCameraExposure::isAvailable() const     0x0001a7a3   Thumb Code    24  qcameraexposure.o(.text)
    QCameraExposure::isFlashModeSupported(QFlags<QCameraExposure::FlashMode>) const 0x0001a7bb   Thumb Code    52  qcameraexposure.o(.text)
    QCameraExposure::isExposureModeSupported(QCameraExposure::ExposureMode) const 0x0001a7ef   Thumb Code    44  qcameraexposure.o(.text)
    QCameraExposure::isMeteringModeSupported(QCameraExposure::MeteringMode) const 0x0001a81b   Thumb Code    44  qcameraexposure.o(.text)
    QCameraExposure::supportedIsoSensitivities(bool*) const 0x0001a847   Thumb Code   356  qcameraexposure.o(.text)
    QCameraExposure::supportedApertures(bool*) const 0x0001a9ab   Thumb Code   286  qcameraexposure.o(.text)
    QCameraExposure::supportedShutterSpeeds(bool*) const 0x0001aac9   Thumb Code   286  qcameraexposure.o(.text)
    QCameraExposurePrivate::initControls()   0x0001abe7   Thumb Code   526  qcameraexposure.o(.text)
    QCameraExposure::QCameraExposure(QCamera*) 0x0001adf5   Thumb Code    52  qcameraexposure.o(.text)
    QCameraExposure::QCameraExposure__sub_object(QCamera*) 0x0001adf5   Thumb Code     0  qcameraexposure.o(.text)
    QCameraExposure::~QCameraExposure()      0x0001ae29   Thumb Code    56  qcameraexposure.o(.text)
    QCameraExposure::~QCameraExposure__sub_object() 0x0001ae29   Thumb Code     0  qcameraexposure.o(.text)
    QCameraExposure::~QCameraExposure__deallocating() 0x0001ae61   Thumb Code    22  qcameraexposure.o(.text)
    QCameraFocusZone::QCameraFocusZone()     0x0001af49   Thumb Code    64  qcamerafocus.o(.text)
    QCameraFocusZone::QCameraFocusZone__sub_object() 0x0001af49   Thumb Code     0  qcamerafocus.o(.text)
    QCameraFocusZone::QCameraFocusZone(const QRectF&, QCameraFocusZone::FocusZoneStatus) 0x0001af89   Thumb Code    74  qcamerafocus.o(.text)
    QCameraFocusZone::QCameraFocusZone__sub_object(const QRectF&, QCameraFocusZone::FocusZoneStatus) 0x0001af89   Thumb Code     0  qcamerafocus.o(.text)
    QCameraFocusZone::QCameraFocusZone(const QCameraFocusZone&) 0x0001afd3   Thumb Code    28  qcamerafocus.o(.text)
    QCameraFocusZone::QCameraFocusZone__sub_object(const QCameraFocusZone&) 0x0001afd3   Thumb Code     0  qcamerafocus.o(.text)
    QCameraFocusZone::operator =(const QCameraFocusZone&) 0x0001afef   Thumb Code    62  qcamerafocus.o(.text)
    QCameraFocusZone::operator ==(const QCameraFocusZone&) const 0x0001b02d   Thumb Code   116  qcamerafocus.o(.text)
    QCameraFocusZone::operator !=(const QCameraFocusZone&) const 0x0001b0a1   Thumb Code    20  qcamerafocus.o(.text)
    QCameraFocusZone::~QCameraFocusZone()    0x0001b0b5   Thumb Code    14  qcamerafocus.o(.text)
    QCameraFocusZone::~QCameraFocusZone__sub_object() 0x0001b0b5   Thumb Code     0  qcamerafocus.o(.text)
    QCameraFocusZone::isValid() const        0x0001b0c3   Thumb Code    84  qcamerafocus.o(.text)
    QCameraFocusZone::area() const           0x0001b117   Thumb Code    18  qcamerafocus.o(.text)
    QCameraFocusZone::status() const         0x0001b129   Thumb Code    10  qcamerafocus.o(.text)
    QCameraFocusZone::setStatus(QCameraFocusZone::FocusZoneStatus) 0x0001b133   Thumb Code    46  qcamerafocus.o(.text)
    QCameraFocus::getStaticMetaObject()      0x0001b161   Thumb Code     4  qcamerafocus.o(.text)
    QCameraFocus::metaObject() const         0x0001b165   Thumb Code    28  qcamerafocus.o(.text)
    QCameraFocus::qt_metacast(const char*)   0x0001b181   Thumb Code    40  qcamerafocus.o(.text)
    QCameraFocus::setCustomFocusPoint(const QPointF&) 0x0001b1a9   Thumb Code    50  qcamerafocus.o(.text)
    QCameraFocus::setFocusPointMode(QCameraFocus::FocusPointMode) 0x0001b1db   Thumb Code    50  qcamerafocus.o(.text)
    QCameraFocus::setFocusMode(QCameraFocus::FocusMode) 0x0001b20d   Thumb Code    42  qcamerafocus.o(.text)
    QCameraFocus::digitalZoom() const        0x0001b237   Thumb Code    66  qcamerafocus.o(.text)
    QCameraFocus::opticalZoom() const        0x0001b279   Thumb Code   184  qcamerafocus.o(.text)
    QCameraFocus::focusZones() const         0x0001b331   Thumb Code   126  qcamerafocus.o(.text)
    QCameraFocus::customFocusPoint() const   0x0001b3af   Thumb Code    58  qcamerafocus.o(.text)
    QCameraFocus::focusPointMode() const     0x0001b3e9   Thumb Code    40  qcamerafocus.o(.text)
    QCameraFocus::focusMode() const          0x0001b411   Thumb Code    40  qcamerafocus.o(.text)
    QCameraFocus::maximumDigitalZoomChanged(float) 0x0001b439   Thumb Code    32  qcamerafocus.o(.text)
    QCameraFocus::maximumOpticalZoomChanged(float) 0x0001b459   Thumb Code    32  qcamerafocus.o(.text)
    QCameraFocus::focusZonesChanged()        0x0001b479   Thumb Code    18  qcamerafocus.o(.text)
    QCameraFocus::digitalZoomChanged(float)  0x0001b48b   Thumb Code    32  qcamerafocus.o(.text)
    QCameraFocus::opticalZoomChanged(float)  0x0001b4ab   Thumb Code    30  qcamerafocus.o(.text)
    QCameraFocus::qt_metacall(QMetaObject::Call, int, void**) 0x0001b4c9   Thumb Code   442  qcamerafocus.o(.text)
    QCameraFocus::isAvailable() const        0x0001b683   Thumb Code    24  qcamerafocus.o(.text)
    QCameraFocus::isFocusModeSupported(QCameraFocus::FocusMode) const 0x0001b69b   Thumb Code    44  qcamerafocus.o(.text)
    QCameraFocus::isFocusPointModeSupported(QCameraFocus::FocusPointMode) const 0x0001b6c7   Thumb Code    44  qcamerafocus.o(.text)
    QCameraFocus::maximumOpticalZoom() const 0x0001b6f3   Thumb Code    78  qcamerafocus.o(.text)
    QCameraFocus::maximumDigitalZoom() const 0x0001b741   Thumb Code    66  qcamerafocus.o(.text)
    QCameraFocus::zoomTo(float, float)       0x0001b783   Thumb Code    54  qcamerafocus.o(.text)
    QCameraFocusPrivate::initControls()      0x0001b7b9   Thumb Code   152  qcamerafocus.o(.text)
    QCameraFocus::QCameraFocus(QCamera*)     0x0001b851   Thumb Code   138  qcamerafocus.o(.text)
    QCameraFocus::QCameraFocus__sub_object(QCamera*) 0x0001b851   Thumb Code     0  qcamerafocus.o(.text)
    QCameraFocus::~QCameraFocus()            0x0001b8db   Thumb Code    14  qcamerafocus.o(.text)
    QCameraFocus::~QCameraFocus__sub_object() 0x0001b8db   Thumb Code     0  qcamerafocus.o(.text)
    QCameraFocus::~QCameraFocus__deallocating() 0x0001b8e9   Thumb Code    22  qcamerafocus.o(.text)
    QCameraImageProcessing::getStaticMetaObject() 0x0001ba4d   Thumb Code     4  qcameraimageprocessing.o(.text)
    QCameraImageProcessing::metaObject() const 0x0001ba51   Thumb Code    28  qcameraimageprocessing.o(.text)
    QCameraImageProcessing::qt_metacast(const char*) 0x0001ba6d   Thumb Code    40  qcameraimageprocessing.o(.text)
    QCameraImageProcessing::qt_metacall(QMetaObject::Call, int, void**) 0x0001ba95   Thumb Code    36  qcameraimageprocessing.o(.text)
    QCameraImageProcessing::isAvailable() const 0x0001bab9   Thumb Code    24  qcameraimageprocessing.o(.text)
    QCameraImageProcessing::whiteBalanceMode() const 0x0001bad1   Thumb Code    40  qcameraimageprocessing.o(.text)
    QCameraImageProcessing::setWhiteBalanceMode(QCameraImageProcessing::WhiteBalanceMode) 0x0001baf9   Thumb Code    42  qcameraimageprocessing.o(.text)
    QCameraImageProcessing::isWhiteBalanceModeSupported(QCameraImageProcessing::WhiteBalanceMode) const 0x0001bb23   Thumb Code    44  qcameraimageprocessing.o(.text)
    QCameraImageProcessing::manualWhiteBalance() const 0x0001bb4f   Thumb Code    86  qcameraimageprocessing.o(.text)
    QCameraImageProcessing::setManualWhiteBalance(int) 0x0001bba5   Thumb Code    66  qcameraimageprocessing.o(.text)
    QCameraImageProcessing::contrast() const 0x0001bbe7   Thumb Code    86  qcameraimageprocessing.o(.text)
    QCameraImageProcessing::setContrast(int) 0x0001bc3d   Thumb Code    66  qcameraimageprocessing.o(.text)
    QCameraImageProcessing::saturation() const 0x0001bc7f   Thumb Code    86  qcameraimageprocessing.o(.text)
    QCameraImageProcessing::setSaturation(int) 0x0001bcd5   Thumb Code    66  qcameraimageprocessing.o(.text)
    QCameraImageProcessing::isSharpeningSupported() const 0x0001bd17   Thumb Code    44  qcameraimageprocessing.o(.text)
    QCameraImageProcessing::sharpeningLevel() const 0x0001bd43   Thumb Code   108  qcameraimageprocessing.o(.text)
    QCameraImageProcessing::setSharpeningLevel(int) 0x0001bdaf   Thumb Code   134  qcameraimageprocessing.o(.text)
    QCameraImageProcessing::isDenoisingSupported() const 0x0001be35   Thumb Code    44  qcameraimageprocessing.o(.text)
    QCameraImageProcessing::denoisingLevel() const 0x0001be61   Thumb Code   108  qcameraimageprocessing.o(.text)
    QCameraImageProcessing::setDenoisingLevel(int) 0x0001becd   Thumb Code   124  qcameraimageprocessing.o(.text)
    QCameraImageProcessingPrivate::initControls() 0x0001bf49   Thumb Code    60  qcameraimageprocessing.o(.text)
    QCameraImageProcessing::QCameraImageProcessing(QCamera*) 0x0001bf85   Thumb Code   152  qcameraimageprocessing.o(.text)
    QCameraImageProcessing::QCameraImageProcessing__sub_object(QCamera*) 0x0001bf85   Thumb Code     0  qcameraimageprocessing.o(.text)
    QCameraImageProcessing::~QCameraImageProcessing() 0x0001c01d   Thumb Code    14  qcameraimageprocessing.o(.text)
    QCameraImageProcessing::~QCameraImageProcessing__sub_object() 0x0001c01d   Thumb Code     0  qcameraimageprocessing.o(.text)
    QCameraImageProcessing::~QCameraImageProcessing__deallocating() 0x0001c02b   Thumb Code    22  qcameraimageprocessing.o(.text)
    QCameraImageCapture::getStaticMetaObject() 0x0001c085   Thumb Code     4  qcameraimagecapture.o(.text)
    QCameraImageCapture::metaObject() const  0x0001c089   Thumb Code    28  qcameraimagecapture.o(.text)
    QCameraImageCapture::qt_metacast(const char*) 0x0001c0a5   Thumb Code    76  qcameraimagecapture.o(.text)
    QCameraImageCapture::isReadyForCapture() const 0x0001c0f1   Thumb Code    42  qcameraimagecapture.o(.text)
    QCameraImageCapture::readyForCaptureChanged(bool) 0x0001c11b   Thumb Code    32  qcameraimagecapture.o(.text)
    QCameraImageCapturePrivate::_q_readyChanged(bool) 0x0001c13b   Thumb Code    22  qcameraimagecapture.o(.text)
    QCameraImageCapture::error(int, QCameraImageCapture::Error, const QString&) 0x0001c151   Thumb Code    42  qcameraimagecapture.o(.text)
    QCameraImageCapturePrivate::_q_error(int, int, const QString&) 0x0001c17b   Thumb Code    50  qcameraimagecapture.o(.text)
    QCameraImageCapture::cancelCapture()     0x0001c1ad   Thumb Code    94  qcameraimagecapture.o(.text)
    QCameraImageCapture::capture(const QString&) 0x0001c20b   Thumb Code   106  qcameraimagecapture.o(.text)
    QCameraImageCapture::imageSaved(int, const QString&) 0x0001c275   Thumb Code    40  qcameraimagecapture.o(.text)
    QCameraImageCapture::imageCaptured(int, const QImage&) 0x0001c29d   Thumb Code    40  qcameraimagecapture.o(.text)
    QCameraImageCapture::imageExposed(int)   0x0001c2c5   Thumb Code    32  qcameraimagecapture.o(.text)
    QCameraImageCapture::qt_metacall(QMetaObject::Call, int, void**) 0x0001c2e5   Thumb Code   542  qcameraimagecapture.o(.text)
    QCameraImageCapturePrivate::QCameraImageCapturePrivate() 0x0001c503   Thumb Code    30  qcameraimagecapture.o(.text)
    QCameraImageCapturePrivate::QCameraImageCapturePrivate__sub_object() 0x0001c503   Thumb Code     0  qcameraimagecapture.o(.text)
    QCameraImageCapture::QCameraImageCapture(QMediaObject*, QObject*) 0x0001c521   Thumb Code   102  qcameraimagecapture.o(.text)
    QCameraImageCapture::QCameraImageCapture__sub_object(QMediaObject*, QObject*) 0x0001c521   Thumb Code     0  qcameraimagecapture.o(.text)
    QCameraImageCapture::~QCameraImageCapture() 0x0001c587   Thumb Code    62  qcameraimagecapture.o(.text)
    QCameraImageCapture::~QCameraImageCapture__sub_object() 0x0001c587   Thumb Code     0  qcameraimagecapture.o(.text)
    QCameraImageCapture::~QCameraImageCapture__deallocating() 0x0001c5c5   Thumb Code    22  qcameraimagecapture.o(.text)
    thunk{-8} to QCameraImageCapture::~QCameraImageCapture__deallocating() 0x0001c5db   Thumb Code    14  qcameraimagecapture.o(.text)
    thunk{-8} to QCameraImageCapture::~QCameraImageCapture() 0x0001c5e9   Thumb Code    14  qcameraimagecapture.o(.text)
    QCameraImageCapture::isAvailable() const 0x0001c5f7   Thumb Code    24  qcameraimagecapture.o(.text)
    QCameraImageCapture::availabilityError() const 0x0001c60f   Thumb Code    24  qcameraimagecapture.o(.text)
    QCameraImageCapture::mediaObject() const 0x0001c627   Thumb Code    14  qcameraimagecapture.o(.text)
    thunk{-8} to QCameraImageCapture::mediaObject() const 0x0001c635   Thumb Code    14  qcameraimagecapture.o(.text)
    QCameraImageCapture::error() const       0x0001c643   Thumb Code    14  qcameraimagecapture.o(.text)
    QCameraImageCapture::errorString() const 0x0001c651   Thumb Code    30  qcameraimagecapture.o(.text)
    QCameraImageCapture::supportedImageCodecs() const 0x0001c66f   Thumb Code   154  qcameraimagecapture.o(.text)
    QCameraImageCapture::imageCodecDescription(const QString&) const 0x0001c709   Thumb Code    98  qcameraimagecapture.o(.text)
    QCameraImageCapture::supportedResolutions(const QImageEncoderSettings&, bool*) const 0x0001c76b   Thumb Code   144  qcameraimagecapture.o(.text)
    QCameraImageCapture::encodingSettings() const 0x0001c7fb   Thumb Code    96  qcameraimagecapture.o(.text)
    QCameraImageCapture::setEncodingSettings(const QImageEncoderSettings&) 0x0001c85b   Thumb Code   412  qcameraimagecapture.o(.text)
    QCameraImageCapture::setMediaObject(QMediaObject*) 0x0001c9f7   Thumb Code   630  qcameraimagecapture.o(.text)
    thunk{-8} to QCameraImageCapture::setMediaObject(QMediaObject*) 0x0001cc6d   Thumb Code    18  qcameraimagecapture.o(.text)
    QCameraImageCaptureControl::getStaticMetaObject() 0x0001cca9   Thumb Code     4  qcameraimagecapturecontrol.o(.text)
    QCameraImageCaptureControl::metaObject() const 0x0001ccad   Thumb Code    28  qcameraimagecapturecontrol.o(.text)
    QCameraImageCaptureControl::qt_metacast(const char*) 0x0001ccc9   Thumb Code    40  qcameraimagecapturecontrol.o(.text)
    QCameraImageCaptureControl::error(int, int, const QString&) 0x0001ccf1   Thumb Code    44  qcameraimagecapturecontrol.o(.text)
    QCameraImageCaptureControl::imageSaved(int, const QString&) 0x0001cd1d   Thumb Code    40  qcameraimagecapturecontrol.o(.text)
    QCameraImageCaptureControl::imageCaptured(int, const QImage&) 0x0001cd45   Thumb Code    40  qcameraimagecapturecontrol.o(.text)
    QCameraImageCaptureControl::imageExposed(int) 0x0001cd6d   Thumb Code    32  qcameraimagecapturecontrol.o(.text)
    QCameraImageCaptureControl::readyForCaptureChanged(bool) 0x0001cd8d   Thumb Code    30  qcameraimagecapturecontrol.o(.text)
    QCameraImageCaptureControl::qt_metacall(QMetaObject::Call, int, void**) 0x0001cdab   Thumb Code   130  qcameraimagecapturecontrol.o(.text)
    QCameraImageCaptureControl::~QCameraImageCaptureControl() 0x0001ce2d   Thumb Code     0  qcameraimagecapturecontrol.o(.text)
    QCameraImageCaptureControl::~QCameraImageCaptureControl__sub_object() 0x0001ce2d   Thumb Code    14  qcameraimagecapturecontrol.o(.text)
    QCameraImageCaptureControl::~QCameraImageCaptureControl__deallocating() 0x0001ce3b   Thumb Code    22  qcameraimagecapturecontrol.o(.text)
    QCameraImageCaptureControl::QCameraImageCaptureControl__sub_object(QObject*) 0x0001ce51   Thumb Code    24  qcameraimagecapturecontrol.o(.text)
    QCameraControl::getStaticMetaObject()    0x0001ce75   Thumb Code     4  qcameracontrol.o(.text)
    QCameraControl::metaObject() const       0x0001ce79   Thumb Code    28  qcameracontrol.o(.text)
    QCameraControl::qt_metacast(const char*) 0x0001ce95   Thumb Code    40  qcameracontrol.o(.text)
    QCameraControl::captureModeChanged(QCamera::CaptureMode) 0x0001cebd   Thumb Code    32  qcameracontrol.o(.text)
    QCameraControl::error(int, const QString&) 0x0001cedd   Thumb Code    40  qcameracontrol.o(.text)
    QCameraControl::statusChanged(QCamera::Status) 0x0001cf05   Thumb Code    32  qcameracontrol.o(.text)
    QCameraControl::stateChanged(QCamera::State) 0x0001cf25   Thumb Code    30  qcameracontrol.o(.text)
    QCameraControl::qt_metacall(QMetaObject::Call, int, void**) 0x0001cf43   Thumb Code   114  qcameracontrol.o(.text)
    QCameraControl::~QCameraControl()        0x0001cfb5   Thumb Code     0  qcameracontrol.o(.text)
    QCameraControl::~QCameraControl__sub_object() 0x0001cfb5   Thumb Code    14  qcameracontrol.o(.text)
    QCameraControl::~QCameraControl__deallocating() 0x0001cfc3   Thumb Code    22  qcameracontrol.o(.text)
    QCameraControl::QCameraControl__sub_object(QObject*) 0x0001cfd9   Thumb Code    44  qcameracontrol.o(.text)
    QCameraLocksControl::getStaticMetaObject() 0x0001d015   Thumb Code     4  qcameralockscontrol.o(.text)
    QCameraLocksControl::metaObject() const  0x0001d019   Thumb Code    28  qcameralockscontrol.o(.text)
    QCameraLocksControl::qt_metacast(const char*) 0x0001d035   Thumb Code    40  qcameralockscontrol.o(.text)
    QCameraLocksControl::lockStatusChanged(QCamera::LockType, QCamera::LockStatus, QCamera::LockChangeReason) 0x0001d05d   Thumb Code    42  qcameralockscontrol.o(.text)
    QCameraLocksControl::qt_metacall(QMetaObject::Call, int, void**) 0x0001d087   Thumb Code    70  qcameralockscontrol.o(.text)
    QCameraLocksControl::~QCameraLocksControl() 0x0001d0cd   Thumb Code     0  qcameralockscontrol.o(.text)
    QCameraLocksControl::~QCameraLocksControl__sub_object() 0x0001d0cd   Thumb Code    14  qcameralockscontrol.o(.text)
    QCameraLocksControl::~QCameraLocksControl__deallocating() 0x0001d0db   Thumb Code    22  qcameralockscontrol.o(.text)
    QCameraLocksControl::QCameraLocksControl__sub_object(QObject*) 0x0001d0f1   Thumb Code    44  qcameralockscontrol.o(.text)
    QCameraExposureControl::getStaticMetaObject() 0x0001d12d   Thumb Code     4  qcameraexposurecontrol.o(.text)
    QCameraExposureControl::metaObject() const 0x0001d131   Thumb Code    28  qcameraexposurecontrol.o(.text)
    QCameraExposureControl::qt_metacast(const char*) 0x0001d14d   Thumb Code    40  qcameraexposurecontrol.o(.text)
    QCameraExposureControl::exposureParameterRangeChanged(int) 0x0001d175   Thumb Code    32  qcameraexposurecontrol.o(.text)
    QCameraExposureControl::exposureParameterChanged(int) 0x0001d195   Thumb Code    32  qcameraexposurecontrol.o(.text)
    QCameraExposureControl::flashReady(bool) 0x0001d1b5   Thumb Code    30  qcameraexposurecontrol.o(.text)
    QCameraExposureControl::qt_metacall(QMetaObject::Call, int, void**) 0x0001d1d3   Thumb Code    96  qcameraexposurecontrol.o(.text)
    QCameraExposureControl::~QCameraExposureControl() 0x0001d233   Thumb Code     0  qcameraexposurecontrol.o(.text)
    QCameraExposureControl::~QCameraExposureControl__sub_object() 0x0001d233   Thumb Code    14  qcameraexposurecontrol.o(.text)
    QCameraExposureControl::~QCameraExposureControl__deallocating() 0x0001d241   Thumb Code    22  qcameraexposurecontrol.o(.text)
    QCameraExposureControl::QCameraExposureControl__sub_object(QObject*) 0x0001d257   Thumb Code    44  qcameraexposurecontrol.o(.text)
    QCameraFocusControl::getStaticMetaObject() 0x0001d295   Thumb Code     4  qcamerafocuscontrol.o(.text)
    QCameraFocusControl::metaObject() const  0x0001d299   Thumb Code    28  qcamerafocuscontrol.o(.text)
    QCameraFocusControl::qt_metacast(const char*) 0x0001d2b5   Thumb Code    40  qcamerafocuscontrol.o(.text)
    QCameraFocusControl::maximumDigitalZoomChanged(float) 0x0001d2dd   Thumb Code    32  qcamerafocuscontrol.o(.text)
    QCameraFocusControl::maximumOpticalZoomChanged(float) 0x0001d2fd   Thumb Code    32  qcamerafocuscontrol.o(.text)
    QCameraFocusControl::focusZonesChanged() 0x0001d31d   Thumb Code    18  qcamerafocuscontrol.o(.text)
    QCameraFocusControl::digitalZoomChanged(float) 0x0001d32f   Thumb Code    32  qcamerafocuscontrol.o(.text)
    QCameraFocusControl::opticalZoomChanged(float) 0x0001d34f   Thumb Code    30  qcamerafocuscontrol.o(.text)
    QCameraFocusControl::qt_metacall(QMetaObject::Call, int, void**) 0x0001d36d   Thumb Code   116  qcamerafocuscontrol.o(.text)
    QCameraFocusControl::~QCameraFocusControl() 0x0001d3e1   Thumb Code     0  qcamerafocuscontrol.o(.text)
    QCameraFocusControl::~QCameraFocusControl__sub_object() 0x0001d3e1   Thumb Code    14  qcamerafocuscontrol.o(.text)
    QCameraFocusControl::~QCameraFocusControl__deallocating() 0x0001d3ef   Thumb Code    22  qcamerafocuscontrol.o(.text)
    QCameraFocusControl::QCameraFocusControl__sub_object(QObject*) 0x0001d405   Thumb Code    44  qcamerafocuscontrol.o(.text)
    QCameraFlashControl::getStaticMetaObject() 0x0001d441   Thumb Code     4  qcameraflashcontrol.o(.text)
    QCameraFlashControl::metaObject() const  0x0001d445   Thumb Code    28  qcameraflashcontrol.o(.text)
    QCameraFlashControl::qt_metacast(const char*) 0x0001d461   Thumb Code    40  qcameraflashcontrol.o(.text)
    QCameraFlashControl::flashReady(bool)    0x0001d489   Thumb Code    30  qcameraflashcontrol.o(.text)
    QCameraFlashControl::qt_metacall(QMetaObject::Call, int, void**) 0x0001d4a7   Thumb Code    62  qcameraflashcontrol.o(.text)
    QCameraFlashControl::~QCameraFlashControl() 0x0001d4e5   Thumb Code     0  qcameraflashcontrol.o(.text)
    QCameraFlashControl::~QCameraFlashControl__sub_object() 0x0001d4e5   Thumb Code    14  qcameraflashcontrol.o(.text)
    QCameraFlashControl::~QCameraFlashControl__deallocating() 0x0001d4f3   Thumb Code    22  qcameraflashcontrol.o(.text)
    QCameraFlashControl::QCameraFlashControl__sub_object(QObject*) 0x0001d509   Thumb Code    44  qcameraflashcontrol.o(.text)
    QCameraImageProcessingControl::getStaticMetaObject() 0x0001d545   Thumb Code     4  qcameraimageprocessingcontrol.o(.text)
    QCameraImageProcessingControl::metaObject() const 0x0001d549   Thumb Code    28  qcameraimageprocessingcontrol.o(.text)
    QCameraImageProcessingControl::qt_metacast(const char*) 0x0001d565   Thumb Code    40  qcameraimageprocessingcontrol.o(.text)
    QCameraImageProcessingControl::qt_metacall(QMetaObject::Call, int, void**) 0x0001d58d   Thumb Code    36  qcameraimageprocessingcontrol.o(.text)
    QCameraImageProcessingControl::~QCameraImageProcessingControl() 0x0001d5b1   Thumb Code     0  qcameraimageprocessingcontrol.o(.text)
    QCameraImageProcessingControl::~QCameraImageProcessingControl__sub_object() 0x0001d5b1   Thumb Code    14  qcameraimageprocessingcontrol.o(.text)
    QCameraImageProcessingControl::~QCameraImageProcessingControl__deallocating() 0x0001d5bf   Thumb Code    22  qcameraimageprocessingcontrol.o(.text)
    QCameraImageProcessingControl::QCameraImageProcessingControl__sub_object(QObject*) 0x0001d5d5   Thumb Code    44  qcameraimageprocessingcontrol.o(.text)
    QGraphicsVideoItem::getStaticMetaObject() 0x0001d665   Thumb Code     4  qgraphicsvideoitem_symbian.o(.text)
    QGraphicsVideoItem::metaObject() const   0x0001d669   Thumb Code    28  qgraphicsvideoitem_symbian.o(.text)
    QGraphicsVideoItem::qt_metacast(const char*) 0x0001d685   Thumb Code    76  qgraphicsvideoitem_symbian.o(.text)
    QGraphicsVideoItemPrivate::videoWidget() const 0x0001d6d1   Thumb Code    26  qgraphicsvideoitem_symbian.o(.text)
    QGraphicsVideoItemPrivate::updateWidgetVisibility() 0x0001d6eb   Thumb Code    50  qgraphicsvideoitem_symbian.o(.text)
    QGraphicsVideoItemPrivate::setWithinViewBounds(bool) 0x0001d71d   Thumb Code    26  qgraphicsvideoitem_symbian.o(.text)
    QGraphicsVideoItemPrivate::updateGeometry() 0x0001d737   Thumb Code  1142  qgraphicsvideoitem_symbian.o(.text)
    QGraphicsVideoItemPrivate::setSize(const QSizeF&) 0x0001dbad   Thumb Code   156  qgraphicsvideoitem_symbian.o(.text)
    QGraphicsVideoItem::setSize(const QSizeF&) 0x0001dc49   Thumb Code    24  qgraphicsvideoitem_symbian.o(.text)
    QGraphicsVideoItemPrivate::setOffset(const QPointF&) 0x0001dc61   Thumb Code    70  qgraphicsvideoitem_symbian.o(.text)
    QGraphicsVideoItem::setOffset(const QPointF&) 0x0001dca7   Thumb Code    24  qgraphicsvideoitem_symbian.o(.text)
    QGraphicsVideoItemPrivate::setAspectRatioMode(Qt::AspectRatioMode) 0x0001dcbf   Thumb Code    22  qgraphicsvideoitem_symbian.o(.text)
    QGraphicsVideoItem::setAspectRatioMode(Qt::AspectRatioMode) 0x0001dcd5   Thumb Code    24  qgraphicsvideoitem_symbian.o(.text)
    QGraphicsVideoItemPrivate::nativeSize() const 0x0001dced   Thumb Code    10  qgraphicsvideoitem_symbian.o(.text)
    QGraphicsVideoItem::nativeSize() const   0x0001dcf7   Thumb Code    40  qgraphicsvideoitem_symbian.o(.text)
    QGraphicsVideoItemPrivate::size() const  0x0001dd1f   Thumb Code    24  qgraphicsvideoitem_symbian.o(.text)
    QGraphicsVideoItem::size() const         0x0001dd37   Thumb Code    26  qgraphicsvideoitem_symbian.o(.text)
    QGraphicsVideoItemPrivate::offset() const 0x0001dd51   Thumb Code    24  qgraphicsvideoitem_symbian.o(.text)
    QGraphicsVideoItem::offset() const       0x0001dd69   Thumb Code    26  qgraphicsvideoitem_symbian.o(.text)
    QGraphicsVideoItemPrivate::aspectRatioMode() const 0x0001dd83   Thumb Code     6  qgraphicsvideoitem_symbian.o(.text)
    QGraphicsVideoItem::aspectRatioMode() const 0x0001dd89   Thumb Code    20  qgraphicsvideoitem_symbian.o(.text)
    QGraphicsVideoItemPrivate::_q_serviceDestroyed() 0x0001dd9d   Thumb Code     8  qgraphicsvideoitem_symbian.o(.text)
    QGraphicsVideoItem::nativeSizeChanged(const QSizeF&) 0x0001dda5   Thumb Code    30  qgraphicsvideoitem_symbian.o(.text)
    QGraphicsVideoItemPrivate::_q_updateNativeSize() 0x0001ddc3   Thumb Code   198  qgraphicsvideoitem_symbian.o(.text)
    QGraphicsVideoItemPrivate::_q_present()  0x0001de89   Thumb Code     2  qgraphicsvideoitem_symbian.o(.text)
    QGraphicsVideoItem::qt_metacall(QMetaObject::Call, int, void**) 0x0001de8b   Thumb Code   386  qgraphicsvideoitem_symbian.o(.text)
    QGraphicsVideoItemPrivate::updateItemAncestors() 0x0001e00d   Thumb Code   308  qgraphicsvideoitem_symbian.o(.text)
    QGraphicsVideoItemPrivate::QGraphicsVideoItemPrivate(QGraphicsVideoItem*) 0x0001e141   Thumb Code   178  qgraphicsvideoitem_symbian.o(.text)
    QGraphicsVideoItemPrivate::QGraphicsVideoItemPrivate__sub_object(QGraphicsVideoItem*) 0x0001e141   Thumb Code     0  qgraphicsvideoitem_symbian.o(.text)
    QGraphicsVideoItem::QGraphicsVideoItem(QGraphicsItem*) 0x0001e1f3   Thumb Code   140  qgraphicsvideoitem_symbian.o(.text)
    QGraphicsVideoItem::QGraphicsVideoItem__sub_object(QGraphicsItem*) 0x0001e1f3   Thumb Code     0  qgraphicsvideoitem_symbian.o(.text)
    QGraphicsVideoItem::~QGraphicsVideoItem() 0x0001e27f   Thumb Code    54  qgraphicsvideoitem_symbian.o(.text)
    QGraphicsVideoItem::~QGraphicsVideoItem__sub_object() 0x0001e27f   Thumb Code     0  qgraphicsvideoitem_symbian.o(.text)
    QGraphicsVideoItem::~QGraphicsVideoItem__deallocating() 0x0001e2b5   Thumb Code    22  qgraphicsvideoitem_symbian.o(.text)
    thunk{-16} to QGraphicsVideoItem::~QGraphicsVideoItem__deallocating() 0x0001e2cb   Thumb Code    14  qgraphicsvideoitem_symbian.o(.text)
    thunk{-8} to QGraphicsVideoItem::~QGraphicsVideoItem__deallocating() 0x0001e2d9   Thumb Code    14  qgraphicsvideoitem_symbian.o(.text)
    thunk{-16} to QGraphicsVideoItem::~QGraphicsVideoItem() 0x0001e2e7   Thumb Code    14  qgraphicsvideoitem_symbian.o(.text)
    thunk{-8} to QGraphicsVideoItem::~QGraphicsVideoItem() 0x0001e2f5   Thumb Code    14  qgraphicsvideoitem_symbian.o(.text)
    QGraphicsVideoItemPrivate::mediaObject() const 0x0001e303   Thumb Code     6  qgraphicsvideoitem_symbian.o(.text)
    QGraphicsVideoItem::mediaObject() const  0x0001e309   Thumb Code    20  qgraphicsvideoitem_symbian.o(.text)
    thunk{-16} to QGraphicsVideoItem::mediaObject() const 0x0001e31d   Thumb Code    14  qgraphicsvideoitem_symbian.o(.text)
    QGraphicsVideoItemPrivate::boundingRect() const 0x0001e32b   Thumb Code    16  qgraphicsvideoitem_symbian.o(.text)
    QGraphicsVideoItem::boundingRect() const 0x0001e33b   Thumb Code    26  qgraphicsvideoitem_symbian.o(.text)
    thunk{-8} to QGraphicsVideoItem::boundingRect() const 0x0001e355   Thumb Code    18  qgraphicsvideoitem_symbian.o(.text)
    QGraphicsVideoItemPrivate::setTransform(const QTransform&) 0x0001e367   Thumb Code    38  qgraphicsvideoitem_symbian.o(.text)
    QGraphicsVideoItemPrivate::updateViewportAncestorEventFilters() 0x0001e38d   Thumb Code   328  qgraphicsvideoitem_symbian.o(.text)
    QGraphicsVideoItemPrivate::updateWidgetOrdinalPosition() 0x0001e4d5   Thumb Code   678  qgraphicsvideoitem_symbian.o(.text)
    QGraphicsVideoItemPrivate::updateTopWinId() 0x0001e77b   Thumb Code    88  qgraphicsvideoitem_symbian.o(.text)
    QGraphicsVideoItemPrivate::setCurrentView(QGraphicsView*) 0x0001e7d3   Thumb Code   124  qgraphicsvideoitem_symbian.o(.text)
    QGraphicsVideoItem::paint(QPainter*, const QStyleOptionGraphicsItem*, QWidget*) 0x0001e84f   Thumb Code   402  qgraphicsvideoitem_symbian.o(.text)
    thunk{-8} to QGraphicsVideoItem::paint(QPainter*, const QStyleOptionGraphicsItem*, QWidget*) 0x0001e9e1   Thumb Code    26  qgraphicsvideoitem_symbian.o(.text)
    QGraphicsVideoItem::timerEvent(QTimerEvent*) 0x0001e9fb   Thumb Code    16  qgraphicsvideoitem_symbian.o(.text)
    QGraphicsVideoItemPrivate::setVisible(bool) 0x0001ea0b   Thumb Code    26  qgraphicsvideoitem_symbian.o(.text)
    QGraphicsVideoItem::itemChange(QGraphicsItem::GraphicsItemChange, const QVariant&) 0x0001ea25   Thumb Code   110  qgraphicsvideoitem_symbian.o(.text)
    thunk{-8} to QGraphicsVideoItem::itemChange(QGraphicsItem::GraphicsItemChange, const QVariant&) 0x0001ea93   Thumb Code    26  qgraphicsvideoitem_symbian.o(.text)
    QGraphicsVideoItemPrivate::clearService() 0x0001eaad   Thumb Code    54  qgraphicsvideoitem_symbian.o(.text)
    QGraphicsVideoItemPrivate::setMediaObject(QMediaObject*) 0x0001eae3   Thumb Code   162  qgraphicsvideoitem_symbian.o(.text)
    QGraphicsVideoItem::setMediaObject(QMediaObject*) 0x0001eb85   Thumb Code    24  qgraphicsvideoitem_symbian.o(.text)
    thunk{-16} to QGraphicsVideoItem::setMediaObject(QMediaObject*) 0x0001eb9d   Thumb Code    18  qgraphicsvideoitem_symbian.o(.text)
    QGraphicsVideoItemPrivate::getStaticMetaObject() 0x0001ebaf   Thumb Code     4  qgraphicsvideoitem_symbian.o(.text)
    QGraphicsVideoItemPrivate::metaObject() const 0x0001ebb3   Thumb Code    28  qgraphicsvideoitem_symbian.o(.text)
    QGraphicsVideoItemPrivate::qt_metacast(const char*) 0x0001ebcf   Thumb Code    40  qgraphicsvideoitem_symbian.o(.text)
    QGraphicsVideoItemPrivate::qt_metacall(QMetaObject::Call, int, void**) 0x0001ebf7   Thumb Code    72  qgraphicsvideoitem_symbian.o(.text)
    QGraphicsVideoItemPrivate::~QGraphicsVideoItemPrivate() 0x0001ec3f   Thumb Code    82  qgraphicsvideoitem_symbian.o(.text)
    QGraphicsVideoItemPrivate::~QGraphicsVideoItemPrivate__sub_object() 0x0001ec3f   Thumb Code     0  qgraphicsvideoitem_symbian.o(.text)
    QGraphicsVideoItemPrivate::~QGraphicsVideoItemPrivate__deallocating() 0x0001ec91   Thumb Code    22  qgraphicsvideoitem_symbian.o(.text)
    QGraphicsVideoItemPrivate::rect() const  0x0001eca7   Thumb Code    16  qgraphicsvideoitem_symbian.o(.text)
    QGraphicsVideoItemPrivate::eventFilter(QObject*, QEvent*) 0x0001ecb7   Thumb Code   416  qgraphicsvideoitem_symbian.o(.text)
    QGraphicsVideoItemPrivate::customEvent(QEvent*) 0x0001ee57   Thumb Code    70  qgraphicsvideoitem_symbian.o(.text)
    QGraphicsVideoItemPrivate::_q_mediaObjectDestroyed() 0x0001ee9d   Thumb Code    16  qgraphicsvideoitem_symbian.o(.text)
    QAudioFormat::QAudioFormat()             0x0001ef05   Thumb Code    90  qaudioformat.o(.text)
    QAudioFormat::QAudioFormat__sub_object() 0x0001ef05   Thumb Code     0  qaudioformat.o(.text)
    QAudioFormat::QAudioFormat(const QAudioFormat&) 0x0001ef5f   Thumb Code    28  qaudioformat.o(.text)
    QAudioFormat::QAudioFormat__sub_object(const QAudioFormat&) 0x0001ef5f   Thumb Code     0  qaudioformat.o(.text)
    QAudioFormat::~QAudioFormat()            0x0001ef7b   Thumb Code    14  qaudioformat.o(.text)
    QAudioFormat::~QAudioFormat__sub_object() 0x0001ef7b   Thumb Code     0  qaudioformat.o(.text)
    QAudioFormat::operator =(const QAudioFormat&) 0x0001ef89   Thumb Code    72  qaudioformat.o(.text)
    QAudioFormat::operator ==(const QAudioFormat&) const 0x0001efd1   Thumb Code   104  qaudioformat.o(.text)
    QAudioFormat::operator !=(const QAudioFormat&) const 0x0001f039   Thumb Code    20  qaudioformat.o(.text)
    QAudioFormat::isValid() const            0x0001f04d   Thumb Code    74  qaudioformat.o(.text)
    QAudioFormat::setFrequency(int)          0x0001f097   Thumb Code    16  qaudioformat.o(.text)
    QAudioFormat::frequency() const          0x0001f0a7   Thumb Code    10  qaudioformat.o(.text)
    QAudioFormat::setSampleRate(int)         0x0001f0b1   Thumb Code    16  qaudioformat.o(.text)
    QAudioFormat::sampleRate() const         0x0001f0c1   Thumb Code    10  qaudioformat.o(.text)
    QAudioFormat::setChannels(int)           0x0001f0cb   Thumb Code    16  qaudioformat.o(.text)
    QAudioFormat::channels() const           0x0001f0db   Thumb Code    10  qaudioformat.o(.text)
    QAudioFormat::setChannelCount(int)       0x0001f0e5   Thumb Code    16  qaudioformat.o(.text)
    QAudioFormat::channelCount() const       0x0001f0f5   Thumb Code    10  qaudioformat.o(.text)
    QAudioFormat::setSampleSize(int)         0x0001f0ff   Thumb Code    16  qaudioformat.o(.text)
    QAudioFormat::sampleSize() const         0x0001f10f   Thumb Code    10  qaudioformat.o(.text)
    QAudioFormat::setCodec(const QString&)   0x0001f119   Thumb Code    24  qaudioformat.o(.text)
    QAudioFormat::codec() const              0x0001f131   Thumb Code    24  qaudioformat.o(.text)
    QAudioFormat::setByteOrder(QAudioFormat::Endian) 0x0001f149   Thumb Code    16  qaudioformat.o(.text)
    QAudioFormat::byteOrder() const          0x0001f159   Thumb Code    10  qaudioformat.o(.text)
    QAudioFormat::setSampleType(QAudioFormat::SampleType) 0x0001f163   Thumb Code    16  qaudioformat.o(.text)
    QAudioFormat::sampleType() const         0x0001f173   Thumb Code    10  qaudioformat.o(.text)
    QAudioDeviceInfo::QAudioDeviceInfo()     0x0001f181   Thumb Code    84  qaudiodeviceinfo.o(.text)
    QAudioDeviceInfo::QAudioDeviceInfo__sub_object() 0x0001f181   Thumb Code     0  qaudiodeviceinfo.o(.text)
    QAudioDeviceInfo::QAudioDeviceInfo(const QAudioDeviceInfo&) 0x0001f1d5   Thumb Code    28  qaudiodeviceinfo.o(.text)
    QAudioDeviceInfo::QAudioDeviceInfo__sub_object(const QAudioDeviceInfo&) 0x0001f1d5   Thumb Code     0  qaudiodeviceinfo.o(.text)
    QAudioDeviceInfo::~QAudioDeviceInfo()    0x0001f1f1   Thumb Code    14  qaudiodeviceinfo.o(.text)
    QAudioDeviceInfo::~QAudioDeviceInfo__sub_object() 0x0001f1f1   Thumb Code     0  qaudiodeviceinfo.o(.text)
    QAudioDeviceInfo::operator =(const QAudioDeviceInfo&) 0x0001f1ff   Thumb Code    72  qaudiodeviceinfo.o(.text)
    QAudioDeviceInfo::isNull() const         0x0001f247   Thumb Code    20  qaudiodeviceinfo.o(.text)
    QAudioDeviceInfo::deviceName() const     0x0001f25b   Thumb Code    86  qaudiodeviceinfo.o(.text)
    QAudioDeviceInfo::isFormatSupported(const QAudioFormat&) const 0x0001f2b1   Thumb Code    36  qaudiodeviceinfo.o(.text)
    QAudioDeviceInfo::preferredFormat() const 0x0001f2d5   Thumb Code    86  qaudiodeviceinfo.o(.text)
    QAudioDeviceInfo::supportedSampleSizes() const 0x0001f32b   Thumb Code    86  qaudiodeviceinfo.o(.text)
    QAudioDeviceInfo::supportedFrequencies() const 0x0001f381   Thumb Code    86  qaudiodeviceinfo.o(.text)
    QAudioDeviceInfo::supportedSampleTypes() const 0x0001f3d7   Thumb Code    86  qaudiodeviceinfo.o(.text)
    QAudioDeviceInfo::supportedByteOrders() const 0x0001f42d   Thumb Code    90  qaudiodeviceinfo.o(.text)
    QAudioDeviceInfo::supportedChannels() const 0x0001f487   Thumb Code    86  qaudiodeviceinfo.o(.text)
    QAudioDeviceInfo::supportedCodecs() const 0x0001f4dd   Thumb Code   128  qaudiodeviceinfo.o(.text)
    QAudioDeviceInfo::nearestFormat(const QAudioFormat&) const 0x0001f55d   Thumb Code  2358  qaudiodeviceinfo.o(.text)
    QAudioDeviceInfo::supportedSampleRates() const 0x0001fe93   Thumb Code    16  qaudiodeviceinfo.o(.text)
    QAudioDeviceInfo::supportedChannelCounts() const 0x0001fea3   Thumb Code    16  qaudiodeviceinfo.o(.text)
    QAudioDeviceInfo::defaultInputDevice()   0x0001feb3   Thumb Code    12  qaudiodeviceinfo.o(.text)
    QAudioDeviceInfo::defaultOutputDevice()  0x0001febf   Thumb Code    12  qaudiodeviceinfo.o(.text)
    QAudioDeviceInfo::availableDevices(QAudio::Mode) 0x0001fecb   Thumb Code    16  qaudiodeviceinfo.o(.text)
    QAudioDeviceInfo::QAudioDeviceInfo(const QString&, const QByteArray&, QAudio::Mode) 0x0001fedb   Thumb Code   136  qaudiodeviceinfo.o(.text)
    QAudioDeviceInfo::QAudioDeviceInfo__sub_object(const QString&, const QByteArray&, QAudio::Mode) 0x0001fedb   Thumb Code     0  qaudiodeviceinfo.o(.text)
    QAudioDeviceInfo::realm() const          0x0001ff63   Thumb Code    24  qaudiodeviceinfo.o(.text)
    QAudioDeviceInfo::handle() const         0x0001ff7b   Thumb Code    26  qaudiodeviceinfo.o(.text)
    QAudioDeviceInfo::mode() const           0x0001ff95   Thumb Code    10  qaudiodeviceinfo.o(.text)
    QAudioOutput::getStaticMetaObject()      0x0001ffa1   Thumb Code     4  qaudiooutput.o(.text)
    QAudioOutput::metaObject() const         0x0001ffa5   Thumb Code    28  qaudiooutput.o(.text)
    QAudioOutput::qt_metacast(const char*)   0x0001ffc1   Thumb Code    40  qaudiooutput.o(.text)
    QAudioOutput::notify()                   0x0001ffe9   Thumb Code    18  qaudiooutput.o(.text)
    QAudioOutput::stateChanged(QAudio::State) 0x0001fffb   Thumb Code    30  qaudiooutput.o(.text)
    QAudioOutput::qt_metacall(QMetaObject::Call, int, void**) 0x00020019   Thumb Code    76  qaudiooutput.o(.text)
    QAudioOutput::QAudioOutput(const QAudioFormat&, QObject*) 0x00020065   Thumb Code    66  qaudiooutput.o(.text)
    QAudioOutput::QAudioOutput__sub_object(const QAudioFormat&, QObject*) 0x00020065   Thumb Code     0  qaudiooutput.o(.text)
    QAudioOutput::QAudioOutput(const QAudioDeviceInfo&, const QAudioFormat&, QObject*) 0x000200a7   Thumb Code    70  qaudiooutput.o(.text)
    QAudioOutput::QAudioOutput__sub_object(const QAudioDeviceInfo&, const QAudioFormat&, QObject*) 0x000200a7   Thumb Code     0  qaudiooutput.o(.text)
    QAudioOutput::~QAudioOutput()            0x000200ed   Thumb Code    34  qaudiooutput.o(.text)
    QAudioOutput::~QAudioOutput__sub_object() 0x000200ed   Thumb Code     0  qaudiooutput.o(.text)
    QAudioOutput::~QAudioOutput__deallocating() 0x0002010f   Thumb Code    22  qaudiooutput.o(.text)
    QAudioOutput::format() const             0x00020125   Thumb Code    20  qaudiooutput.o(.text)
    QAudioOutput::start(QIODevice*)          0x00020139   Thumb Code    20  qaudiooutput.o(.text)
    QAudioOutput::start()                    0x0002014d   Thumb Code    16  qaudiooutput.o(.text)
    QAudioOutput::stop()                     0x0002015d   Thumb Code    16  qaudiooutput.o(.text)
    QAudioOutput::reset()                    0x0002016d   Thumb Code    16  qaudiooutput.o(.text)
    QAudioOutput::suspend()                  0x0002017d   Thumb Code    16  qaudiooutput.o(.text)
    QAudioOutput::resume()                   0x0002018d   Thumb Code    16  qaudiooutput.o(.text)
    QAudioOutput::setBufferSize(int)         0x0002019d   Thumb Code    20  qaudiooutput.o(.text)
    QAudioOutput::bufferSize() const         0x000201b1   Thumb Code    16  qaudiooutput.o(.text)
    QAudioOutput::bytesFree() const          0x000201c1   Thumb Code    16  qaudiooutput.o(.text)
    QAudioOutput::periodSize() const         0x000201d1   Thumb Code    16  qaudiooutput.o(.text)
    QAudioOutput::setNotifyInterval(int)     0x000201e1   Thumb Code    20  qaudiooutput.o(.text)
    QAudioOutput::notifyInterval() const     0x000201f5   Thumb Code    16  qaudiooutput.o(.text)
    QAudioOutput::processedUSecs() const     0x00020205   Thumb Code    20  qaudiooutput.o(.text)
    QAudioOutput::elapsedUSecs() const       0x00020219   Thumb Code    20  qaudiooutput.o(.text)
    QAudioOutput::error() const              0x0002022d   Thumb Code    16  qaudiooutput.o(.text)
    QAudioOutput::state() const              0x0002023d   Thumb Code    16  qaudiooutput.o(.text)
    QAudioInput::getStaticMetaObject()       0x00020285   Thumb Code     4  qaudioinput.o(.text)
    QAudioInput::metaObject() const          0x00020289   Thumb Code    28  qaudioinput.o(.text)
    QAudioInput::qt_metacast(const char*)    0x000202a5   Thumb Code    40  qaudioinput.o(.text)
    QAudioInput::notify()                    0x000202cd   Thumb Code    18  qaudioinput.o(.text)
    QAudioInput::stateChanged(QAudio::State) 0x000202df   Thumb Code    30  qaudioinput.o(.text)
    QAudioInput::qt_metacall(QMetaObject::Call, int, void**) 0x000202fd   Thumb Code    76  qaudioinput.o(.text)
    QAudioInput::QAudioInput(const QAudioFormat&, QObject*) 0x00020349   Thumb Code    66  qaudioinput.o(.text)
    QAudioInput::QAudioInput__sub_object(const QAudioFormat&, QObject*) 0x00020349   Thumb Code     0  qaudioinput.o(.text)
    QAudioInput::QAudioInput(const QAudioDeviceInfo&, const QAudioFormat&, QObject*) 0x0002038b   Thumb Code    70  qaudioinput.o(.text)
    QAudioInput::QAudioInput__sub_object(const QAudioDeviceInfo&, const QAudioFormat&, QObject*) 0x0002038b   Thumb Code     0  qaudioinput.o(.text)
    QAudioInput::~QAudioInput()              0x000203d1   Thumb Code    34  qaudioinput.o(.text)
    QAudioInput::~QAudioInput__sub_object()  0x000203d1   Thumb Code     0  qaudioinput.o(.text)
    QAudioInput::~QAudioInput__deallocating() 0x000203f3   Thumb Code    22  qaudioinput.o(.text)
    QAudioInput::format() const              0x00020409   Thumb Code    20  qaudioinput.o(.text)
    QAudioInput::start(QIODevice*)           0x0002041d   Thumb Code    20  qaudioinput.o(.text)
    QAudioInput::start()                     0x00020431   Thumb Code    16  qaudioinput.o(.text)
    QAudioInput::stop()                      0x00020441   Thumb Code    16  qaudioinput.o(.text)
    QAudioInput::reset()                     0x00020451   Thumb Code    16  qaudioinput.o(.text)
    QAudioInput::suspend()                   0x00020461   Thumb Code    16  qaudioinput.o(.text)
    QAudioInput::resume()                    0x00020471   Thumb Code    16  qaudioinput.o(.text)
    QAudioInput::setBufferSize(int)          0x00020481   Thumb Code    20  qaudioinput.o(.text)
    QAudioInput::bufferSize() const          0x00020495   Thumb Code    16  qaudioinput.o(.text)
    QAudioInput::bytesReady() const          0x000204a5   Thumb Code    16  qaudioinput.o(.text)
    QAudioInput::periodSize() const          0x000204b5   Thumb Code    16  qaudioinput.o(.text)
    QAudioInput::setNotifyInterval(int)      0x000204c5   Thumb Code    20  qaudioinput.o(.text)
    QAudioInput::notifyInterval() const      0x000204d9   Thumb Code    16  qaudioinput.o(.text)
    QAudioInput::processedUSecs() const      0x000204e9   Thumb Code    20  qaudioinput.o(.text)
    QAudioInput::elapsedUSecs() const        0x000204fd   Thumb Code    20  qaudioinput.o(.text)
    QAudioInput::error() const               0x00020511   Thumb Code    16  qaudioinput.o(.text)
    QAudioInput::state() const               0x00020521   Thumb Code    16  qaudioinput.o(.text)
    QAudioSystemPlugin::getStaticMetaObject() 0x00020569   Thumb Code     4  qaudiosystemplugin.o(.text)
    QAudioSystemPlugin::metaObject() const   0x0002056d   Thumb Code    28  qaudiosystemplugin.o(.text)
    QAudioSystemPlugin::qt_metacast(const char*) 0x00020589   Thumb Code    94  qaudiosystemplugin.o(.text)
    QAudioSystemPlugin::qt_metacall(QMetaObject::Call, int, void**) 0x000205e7   Thumb Code    36  qaudiosystemplugin.o(.text)
    QAudioSystemPlugin::QAudioSystemPlugin__sub_object(QObject*) 0x0002060b   Thumb Code    34  qaudiosystemplugin.o(.text)
    QAudioSystemPlugin::~QAudioSystemPlugin() 0x0002062d   Thumb Code     0  qaudiosystemplugin.o(.text)
    QAudioSystemPlugin::~QAudioSystemPlugin__sub_object() 0x0002062d   Thumb Code    22  qaudiosystemplugin.o(.text)
    QAudioSystemPlugin::~QAudioSystemPlugin__deallocating() 0x00020643   Thumb Code    22  qaudiosystemplugin.o(.text)
    thunk{-8} to QAudioSystemPlugin::~QAudioSystemPlugin__deallocating() 0x00020659   Thumb Code    14  qaudiosystemplugin.o(.text)
    thunk{-8} to QAudioSystemPlugin::~QAudioSystemPlugin() 0x00020667   Thumb Code    14  qaudiosystemplugin.o(.text)
    QAbstractAudioDeviceInfo::getStaticMetaObject() 0x000206f9   Thumb Code     4  qaudiosystem.o(.text)
    QAbstractAudioDeviceInfo::metaObject() const 0x000206fd   Thumb Code    28  qaudiosystem.o(.text)
    QAbstractAudioDeviceInfo::qt_metacast(const char*) 0x00020719   Thumb Code    40  qaudiosystem.o(.text)
    QAbstractAudioDeviceInfo::qt_metacall(QMetaObject::Call, int, void**) 0x00020741   Thumb Code    36  qaudiosystem.o(.text)
    QAbstractAudioOutput::getStaticMetaObject() 0x00020765   Thumb Code     4  qaudiosystem.o(.text)
    QAbstractAudioOutput::metaObject() const 0x00020769   Thumb Code    28  qaudiosystem.o(.text)
    QAbstractAudioOutput::qt_metacast(const char*) 0x00020785   Thumb Code    42  qaudiosystem.o(.text)
    QAbstractAudioOutput::notify()           0x000207af   Thumb Code    18  qaudiosystem.o(.text)
    QAbstractAudioOutput::stateChanged(QAudio::State) 0x000207c1   Thumb Code    32  qaudiosystem.o(.text)
    QAbstractAudioOutput::errorChanged(QAudio::Error) 0x000207e1   Thumb Code    30  qaudiosystem.o(.text)
    QAbstractAudioOutput::qt_metacall(QMetaObject::Call, int, void**) 0x000207ff   Thumb Code    92  qaudiosystem.o(.text)
    QAbstractAudioInput::getStaticMetaObject() 0x0002085b   Thumb Code     4  qaudiosystem.o(.text)
    QAbstractAudioInput::metaObject() const  0x0002085f   Thumb Code    28  qaudiosystem.o(.text)
    QAbstractAudioInput::qt_metacast(const char*) 0x0002087b   Thumb Code    40  qaudiosystem.o(.text)
    QAbstractAudioInput::notify()            0x000208a3   Thumb Code    18  qaudiosystem.o(.text)
    QAbstractAudioInput::stateChanged(QAudio::State) 0x000208b5   Thumb Code    32  qaudiosystem.o(.text)
    QAbstractAudioInput::errorChanged(QAudio::Error) 0x000208d5   Thumb Code    30  qaudiosystem.o(.text)
    QAbstractAudioInput::qt_metacall(QMetaObject::Call, int, void**) 0x000208f3   Thumb Code    92  qaudiosystem.o(.text)
    QAudioDeviceFactory::availableDevices(QAudio::Mode) 0x00020a35   Thumb Code   704  qaudiodevicefactory.o(.text)
    QAudioDeviceFactory::defaultInputDevice() 0x00020cf5   Thumb Code   286  qaudiodevicefactory.o(.text)
    QAudioDeviceFactory::defaultOutputDevice() 0x00020e13   Thumb Code   198  qaudiodevicefactory.o(.text)
    QAudioDeviceFactory::audioDeviceInfo(const QString&, const QByteArray&, QAudio::Mode) 0x00020ed9   Thumb Code   206  qaudiodevicefactory.o(.text)
    QAudioDeviceFactory::createInputDevice(const QAudioDeviceInfo&, const QAudioFormat&) 0x00020fa7   Thumb Code   310  qaudiodevicefactory.o(.text)
    QAudioDeviceFactory::createDefaultInputDevice(const QAudioFormat&) 0x000210dd   Thumb Code    32  qaudiodevicefactory.o(.text)
    QAudioDeviceFactory::createOutputDevice(const QAudioDeviceInfo&, const QAudioFormat&) 0x000210fd   Thumb Code   330  qaudiodevicefactory.o(.text)
    QAudioDeviceFactory::createDefaultOutputDevice(const QAudioFormat&) 0x00021247   Thumb Code    32  qaudiodevicefactory.o(.text)
    QAudioPluginLoader::pluginList() const   0x00021269   Thumb Code   374  qaudiopluginloader.o(.text)
    QAudioPluginLoader::load()               0x000213df   Thumb Code   198  qaudiopluginloader.o(.text)
    QAudioPluginLoader::QAudioPluginLoader(const char*, const QString&, Qt::CaseSensitivity) 0x000214a5   Thumb Code   152  qaudiopluginloader.o(.text)
    QAudioPluginLoader::QAudioPluginLoader__sub_object(const char*, const QString&, Qt::CaseSensitivity) 0x000214a5   Thumb Code     0  qaudiopluginloader.o(.text)
    QAudioPluginLoader::~QAudioPluginLoader() 0x0002153d   Thumb Code    88  qaudiopluginloader.o(.text)
    QAudioPluginLoader::~QAudioPluginLoader__sub_object() 0x0002153d   Thumb Code     0  qaudiopluginloader.o(.text)
    QAudioPluginLoader::keys() const         0x00021595   Thumb Code   106  qaudiopluginloader.o(.text)
    QAudioPluginLoader::instance(const QString&) 0x000215ff   Thumb Code   202  qaudiopluginloader.o(.text)
    QAudioPluginLoader::instances(const QString&) 0x000216c9   Thumb Code   204  qaudiopluginloader.o(.text)
    SymbianAudio::DevSoundWrapper::getSupportedCodecs() 0x00021799   Thumb Code    50  qaudio_symbian_p.o(.text)
    SymbianAudio::DevSoundWrapper::DevSoundWrapper(QAudio::Mode, QObject*) 0x000217cb   Thumb Code   230  qaudio_symbian_p.o(.text)
    SymbianAudio::DevSoundWrapper::DevSoundWrapper__sub_object(QAudio::Mode, QObject*) 0x000217cb   Thumb Code     0  qaudio_symbian_p.o(.text)
    SymbianAudio::DevSoundWrapper::~DevSoundWrapper() 0x000218b1   Thumb Code   110  qaudio_symbian_p.o(.text)
    SymbianAudio::DevSoundWrapper::~DevSoundWrapper__sub_object() 0x000218b1   Thumb Code     0  qaudio_symbian_p.o(.text)
    SymbianAudio::DevSoundWrapper::~DevSoundWrapper__deallocating() 0x0002191f   Thumb Code    22  qaudio_symbian_p.o(.text)
    SymbianAudio::DevSoundWrapper::supportedCodecs() const 0x00021935   Thumb Code     8  qaudio_symbian_p.o(.text)
    SymbianAudio::DevSoundWrapper::initialize(const QString&) 0x0002193d   Thumb Code   138  qaudio_symbian_p.o(.text)
    SymbianAudio::DevSoundWrapper::supportedFrequencies() const 0x000219c7   Thumb Code    10  qaudio_symbian_p.o(.text)
    SymbianAudio::DevSoundWrapper::supportedChannels() const 0x000219d1   Thumb Code    10  qaudio_symbian_p.o(.text)
    SymbianAudio::DevSoundWrapper::supportedSampleSizes() const 0x000219db   Thumb Code    10  qaudio_symbian_p.o(.text)
    SymbianAudio::DevSoundWrapper::supportedByteOrders() const 0x000219e5   Thumb Code    10  qaudio_symbian_p.o(.text)
    SymbianAudio::DevSoundWrapper::supportedSampleTypes() const 0x000219ef   Thumb Code    10  qaudio_symbian_p.o(.text)
    SymbianAudio::DevSoundWrapper::isFormatSupported(const QAudioFormat&) const 0x000219f9   Thumb Code   212  qaudio_symbian_p.o(.text)
    SymbianAudio::DevSoundWrapper::samplesProcessed() const 0x00021acd   Thumb Code    50  qaudio_symbian_p.o(.text)
    SymbianAudio::Utils::sampleInfoQtToNative(int, QAudioFormat::Endian, QAudioFormat::SampleType, unsigned long&, TMMFSoundEncoding&) 0x00021aff   Thumb Code   110  qaudio_symbian_p.o(.text)
    SymbianAudio::Utils::channelsQtToNative(int, TMMFMonoStereo&) 0x00021b6d   Thumb Code    24  qaudio_symbian_p.o(.text)
    SymbianAudio::Utils::sampleRateQtToNative(int, TMMFSampleRate&) 0x00021b85   Thumb Code    26  qaudio_symbian_p.o(.text)
    SymbianAudio::Utils::formatQtToNative(const QAudioFormat&, unsigned long&, TMMFCapabilities&) 0x00021b9f   Thumb Code   158  qaudio_symbian_p.o(.text)
    SymbianAudio::DevSoundWrapper::setFormat(const QAudioFormat&) 0x00021c3d   Thumb Code   118  qaudio_symbian_p.o(.text)
    SymbianAudio::DevSoundWrapper::start()   0x00021cb3   Thumb Code   166  qaudio_symbian_p.o(.text)
    SymbianAudio::DevSoundWrapper::stop()    0x00021d59   Thumb Code    12  qaudio_symbian_p.o(.text)
    SymbianAudio::DevSoundWrapper::isResumeSupported() const 0x00021d65   Thumb Code     6  qaudio_symbian_p.o(.text)
    SymbianAudio::DevSoundWrapper::pause()   0x00021d6b   Thumb Code    36  qaudio_symbian_p.o(.text)
    SymbianAudio::DevSoundWrapper::resume()  0x00021d8f   Thumb Code     6  qaudio_symbian_p.o(.text)
    SymbianAudio::DevSoundWrapper::bufferProcessed() 0x00021d95   Thumb Code    36  qaudio_symbian_p.o(.text)
    SymbianAudio::DevSoundWrapper::populateCapabilities() 0x00021db9   Thumb Code   222  qaudio_symbian_p.o(.text)
    SymbianAudio::DevSoundWrapper::InitializeComplete(int) 0x00021e97   Thumb Code    38  qaudio_symbian_p.o(.text)
    thunk{-8} to SymbianAudio::DevSoundWrapper::InitializeComplete(int) 0x00021ebd   Thumb Code    18  qaudio_symbian_p.o(.text)
    SymbianAudio::DevSoundWrapper::ToneFinished(int) 0x00021ecf   Thumb Code     8  qaudio_symbian_p.o(.text)
    thunk{-8} to SymbianAudio::DevSoundWrapper::ToneFinished(int) 0x00021ed7   Thumb Code    18  qaudio_symbian_p.o(.text)
    SymbianAudio::DevSoundWrapper::BufferToBeFilled(CMMFBuffer*) 0x00021ee9   Thumb Code    18  qaudio_symbian_p.o(.text)
    thunk{-8} to SymbianAudio::DevSoundWrapper::BufferToBeFilled(CMMFBuffer*) 0x00021efb   Thumb Code    18  qaudio_symbian_p.o(.text)
    SymbianAudio::DevSoundWrapper::PlayError(int) 0x00021f0d   Thumb Code    28  qaudio_symbian_p.o(.text)
    thunk{-8} to SymbianAudio::DevSoundWrapper::PlayError(int) 0x00021f29   Thumb Code    18  qaudio_symbian_p.o(.text)
    SymbianAudio::DevSoundWrapper::BufferToBeEmptied(CMMFBuffer*) 0x00021f3b   Thumb Code    18  qaudio_symbian_p.o(.text)
    thunk{-8} to SymbianAudio::DevSoundWrapper::BufferToBeEmptied(CMMFBuffer*) 0x00021f4d   Thumb Code    18  qaudio_symbian_p.o(.text)
    SymbianAudio::DevSoundWrapper::RecordError(int) 0x00021f5f   Thumb Code    18  qaudio_symbian_p.o(.text)
    thunk{-8} to SymbianAudio::DevSoundWrapper::RecordError(int) 0x00021f71   Thumb Code    18  qaudio_symbian_p.o(.text)
    SymbianAudio::DevSoundWrapper::ConvertError(int) 0x00021f83   Thumb Code     8  qaudio_symbian_p.o(.text)
    thunk{-8} to SymbianAudio::DevSoundWrapper::ConvertError(int) 0x00021f8b   Thumb Code    18  qaudio_symbian_p.o(.text)
    SymbianAudio::DevSoundWrapper::DeviceMessage(TUid, const TDesC8&) 0x00021f9d   Thumb Code    12  qaudio_symbian_p.o(.text)
    thunk{-8} to SymbianAudio::DevSoundWrapper::DeviceMessage(TUid, const TDesC8&) 0x00021fa9   Thumb Code    20  qaudio_symbian_p.o(.text)
    SymbianAudio::Utils::sampleRateNativeToQt(TMMFSampleRate, int&) 0x00021fbd   Thumb Code    24  qaudio_symbian_p.o(.text)
    SymbianAudio::Utils::channelsNativeToQt(TMMFMonoStereo, int&) 0x00021fd5   Thumb Code    26  qaudio_symbian_p.o(.text)
    SymbianAudio::Utils::capabilitiesNativeToQt(const TMMFCapabilities&, const TFourCC&, QList<int>&, QList<int>&, QList<int>&, QList<QAudioFormat::Endian>&, QList<QAudioFormat::SampleType>&) 0x00021fef   Thumb Code   202  qaudio_symbian_p.o(.text)
    SymbianAudio::Utils::stateNativeToQt(SymbianAudio::State) 0x000220b9   Thumb Code    46  qaudio_symbian_p.o(.text)
    SymbianAudio::Utils::bytesToSamples(const QAudioFormat&, long long) 0x000220e7   Thumb Code    54  qaudio_symbian_p.o(.text)
    SymbianAudio::Utils::samplesToBytes(const QAudioFormat&, long long) 0x0002211d   Thumb Code    56  qaudio_symbian_p.o(.text)
    QAudioDeviceInfoInternal::getStaticMetaObject() 0x00022159   Thumb Code     4  qaudiodeviceinfo_symbian_p.o(.text)
    QAudioDeviceInfoInternal::metaObject() const 0x0002215d   Thumb Code    28  qaudiodeviceinfo_symbian_p.o(.text)
    QAudioDeviceInfoInternal::qt_metacast(const char*) 0x00022179   Thumb Code    40  qaudiodeviceinfo_symbian_p.o(.text)
    QAudioDeviceInfoInternal::devsoundInitializeComplete(int) 0x000221a1   Thumb Code     8  qaudiodeviceinfo_symbian_p.o(.text)
    QAudioDeviceInfoInternal::qt_metacall(QMetaObject::Call, int, void**) 0x000221a9   Thumb Code    62  qaudiodeviceinfo_symbian_p.o(.text)
    QAudioDeviceInfoInternal::QAudioDeviceInfoInternal(QByteArray, QAudio::Mode) 0x000221e7   Thumb Code   104  qaudiodeviceinfo_symbian_p.o(.text)
    QAudioDeviceInfoInternal::QAudioDeviceInfoInternal__sub_object(QByteArray, QAudio::Mode) 0x000221e7   Thumb Code     0  qaudiodeviceinfo_symbian_p.o(.text)
    QAudioDeviceInfoInternal::~QAudioDeviceInfoInternal() 0x0002224f   Thumb Code    56  qaudiodeviceinfo_symbian_p.o(.text)
    QAudioDeviceInfoInternal::~QAudioDeviceInfoInternal__sub_object() 0x0002224f   Thumb Code     0  qaudiodeviceinfo_symbian_p.o(.text)
    QAudioDeviceInfoInternal::~QAudioDeviceInfoInternal__deallocating() 0x00022287   Thumb Code    22  qaudiodeviceinfo_symbian_p.o(.text)
    QAudioDeviceInfoInternal::preferredFormat() const 0x0002229d   Thumb Code   560  qaudiodeviceinfo_symbian_p.o(.text)
    QAudioDeviceInfoInternal::getSupportedFormats() const 0x000224cd   Thumb Code   866  qaudiodeviceinfo_symbian_p.o(.text)
    QAudioDeviceInfoInternal::isFormatSupported(const QAudioFormat&) const 0x0002282f   Thumb Code   236  qaudiodeviceinfo_symbian_p.o(.text)
    QAudioDeviceInfoInternal::deviceName() const 0x0002291b   Thumb Code    20  qaudiodeviceinfo_symbian_p.o(.text)
    QAudioDeviceInfoInternal::supportedCodecs() 0x0002292f   Thumb Code    44  qaudiodeviceinfo_symbian_p.o(.text)
    QAudioDeviceInfoInternal::supportedSampleRates() 0x0002295b   Thumb Code    26  qaudiodeviceinfo_symbian_p.o(.text)
    QAudioDeviceInfoInternal::supportedChannelCounts() 0x00022975   Thumb Code    26  qaudiodeviceinfo_symbian_p.o(.text)
    QAudioDeviceInfoInternal::supportedSampleSizes() 0x0002298f   Thumb Code    26  qaudiodeviceinfo_symbian_p.o(.text)
    QAudioDeviceInfoInternal::supportedByteOrders() 0x000229a9   Thumb Code    32  qaudiodeviceinfo_symbian_p.o(.text)
    QAudioDeviceInfoInternal::supportedSampleTypes() 0x000229c9   Thumb Code    26  qaudiodeviceinfo_symbian_p.o(.text)
    QAudioDeviceInfoInternal::defaultInputDevice() 0x000229e3   Thumb Code    16  qaudiodeviceinfo_symbian_p.o(.text)
    QAudioDeviceInfoInternal::defaultOutputDevice() 0x000229f3   Thumb Code    16  qaudiodeviceinfo_symbian_p.o(.text)
    QAudioDeviceInfoInternal::availableDevices(QAudio::Mode) 0x00022a03   Thumb Code    48  qaudiodeviceinfo_symbian_p.o(.text)
    SymbianAudioInputPrivate::getStaticMetaObject() 0x00022a41   Thumb Code     4  qaudioinput_symbian_p.o(.text)
    SymbianAudioInputPrivate::metaObject() const 0x00022a45   Thumb Code    28  qaudioinput_symbian_p.o(.text)
    SymbianAudioInputPrivate::qt_metacast(const char*) 0x00022a61   Thumb Code    40  qaudioinput_symbian_p.o(.text)
    SymbianAudioInputPrivate::qt_metacall(QMetaObject::Call, int, void**) 0x00022a89   Thumb Code    36  qaudioinput_symbian_p.o(.text)
    SymbianAudioInputPrivate::SymbianAudioInputPrivate(QAudioInputPrivate*) 0x00022aad   Thumb Code    24  qaudioinput_symbian_p.o(.text)
    SymbianAudioInputPrivate::SymbianAudioInputPrivate__sub_object(QAudioInputPrivate*) 0x00022aad   Thumb Code     0  qaudioinput_symbian_p.o(.text)
    SymbianAudioInputPrivate::~SymbianAudioInputPrivate() 0x00022ac5   Thumb Code    14  qaudioinput_symbian_p.o(.text)
    SymbianAudioInputPrivate::~SymbianAudioInputPrivate__sub_object() 0x00022ac5   Thumb Code     0  qaudioinput_symbian_p.o(.text)
    SymbianAudioInputPrivate::~SymbianAudioInputPrivate__deallocating() 0x00022ad3   Thumb Code    22  qaudioinput_symbian_p.o(.text)
    QAudioInputPrivate::currentBuffer() const 0x00022ae9   Thumb Code    68  qaudioinput_symbian_p.o(.text)
    QAudioInputPrivate::setState(SymbianAudio::State) 0x00022b2d   Thumb Code    58  qaudioinput_symbian_p.o(.text)
    QAudioInputPrivate::setError(QAudio::Error) 0x00022b67   Thumb Code   294  qaudioinput_symbian_p.o(.text)
    QAudioInputPrivate::bufferEmptied()      0x00022c8d   Thumb Code   178  qaudioinput_symbian_p.o(.text)
    QAudioInputPrivate::read(char*, long long) 0x00022d3f   Thumb Code   278  qaudioinput_symbian_p.o(.text)
    SymbianAudioInputPrivate::readData(char*, long long) 0x00022e55   Thumb Code   142  qaudioinput_symbian_p.o(.text)
    SymbianAudioInputPrivate::writeData(const char*, long long) 0x00022ee3   Thumb Code    22  qaudioinput_symbian_p.o(.text)
    SymbianAudioInputPrivate::dataReady()    0x00022ef9   Thumb Code    12  qaudioinput_symbian_p.o(.text)
    QAudioInputPrivate::getStaticMetaObject() 0x00022f05   Thumb Code     4  qaudioinput_symbian_p.o(.text)
    QAudioInputPrivate::metaObject() const   0x00022f09   Thumb Code    28  qaudioinput_symbian_p.o(.text)
    QAudioInputPrivate::qt_metacast(const char*) 0x00022f25   Thumb Code    40  qaudioinput_symbian_p.o(.text)
    QAudioInputPrivate::close()              0x00022f4d   Thumb Code   130  qaudioinput_symbian_p.o(.text)
    QAudioInputPrivate::devsoundRecordError(int) 0x00022fcf   Thumb Code    20  qaudioinput_symbian_p.o(.text)
    QAudioInputPrivate::pushData()           0x00022fe3   Thumb Code    38  qaudioinput_symbian_p.o(.text)
    QAudioInputPrivate::devsoundBufferToBeEmptied(CMMFBuffer*) 0x00023009   Thumb Code   114  qaudioinput_symbian_p.o(.text)
    QAudioInputPrivate::startDataTransfer()  0x0002307b   Thumb Code   106  qaudioinput_symbian_p.o(.text)
    QAudioInputPrivate::startRecording()     0x000230e5   Thumb Code    66  qaudioinput_symbian_p.o(.text)
    QAudioInputPrivate::devsoundInitializeComplete(int) 0x00023127   Thumb Code    44  qaudioinput_symbian_p.o(.text)
    QAudioInputPrivate::pullData()           0x00023153   Thumb Code   186  qaudioinput_symbian_p.o(.text)
    QAudioInputPrivate::notifyTimerExpired() 0x0002320d   Thumb Code   118  qaudioinput_symbian_p.o(.text)
    QAudioInputPrivate::qt_metacall(QMetaObject::Call, int, void**) 0x00023283   Thumb Code   120  qaudioinput_symbian_p.o(.text)
    QAudioInputPrivate::QAudioInputPrivate(const QByteArray&) 0x000232fb   Thumb Code   336  qaudioinput_symbian_p.o(.text)
    QAudioInputPrivate::QAudioInputPrivate__sub_object(const QByteArray&) 0x000232fb   Thumb Code     0  qaudioinput_symbian_p.o(.text)
    QAudioInputPrivate::~QAudioInputPrivate() 0x0002344b   Thumb Code    86  qaudioinput_symbian_p.o(.text)
    QAudioInputPrivate::~QAudioInputPrivate__sub_object() 0x0002344b   Thumb Code     0  qaudioinput_symbian_p.o(.text)
    QAudioInputPrivate::~QAudioInputPrivate__deallocating() 0x000234a1   Thumb Code    22  qaudioinput_symbian_p.o(.text)
    QAudioInputPrivate::open()               0x000234b7   Thumb Code   402  qaudioinput_symbian_p.o(.text)
    QAudioInputPrivate::start(QIODevice*)    0x00023649   Thumb Code    44  qaudioinput_symbian_p.o(.text)
    QAudioInputPrivate::start()              0x00023675   Thumb Code   116  qaudioinput_symbian_p.o(.text)
    QAudioInputPrivate::stop()               0x000236e9   Thumb Code    12  qaudioinput_symbian_p.o(.text)
    QAudioInputPrivate::getSamplesRecorded() const 0x000236f5   Thumb Code    36  qaudioinput_symbian_p.o(.text)
    QAudioInputPrivate::reset()              0x00023719   Thumb Code    40  qaudioinput_symbian_p.o(.text)
    QAudioInputPrivate::suspend()            0x00023741   Thumb Code   130  qaudioinput_symbian_p.o(.text)
    QAudioInputPrivate::resume()             0x000237c3   Thumb Code    38  qaudioinput_symbian_p.o(.text)
    QAudioInputPrivate::bytesReady() const   0x000237e9   Thumb Code    22  qaudioinput_symbian_p.o(.text)
    QAudioInputPrivate::periodSize() const   0x000237ff   Thumb Code    14  qaudioinput_symbian_p.o(.text)
    QAudioInputPrivate::setBufferSize(int)   0x0002380d   Thumb Code     8  qaudioinput_symbian_p.o(.text)
    QAudioInputPrivate::bufferSize() const   0x00023815   Thumb Code    16  qaudioinput_symbian_p.o(.text)
    QAudioInputPrivate::setNotifyInterval(int) 0x00023825   Thumb Code    60  qaudioinput_symbian_p.o(.text)
    QAudioInputPrivate::notifyInterval() const 0x00023861   Thumb Code     6  qaudioinput_symbian_p.o(.text)
    QAudioInputPrivate::processedUSecs() const 0x00023867   Thumb Code    82  qaudioinput_symbian_p.o(.text)
    QAudioInputPrivate::elapsedUSecs() const 0x000238b9   Thumb Code    46  qaudioinput_symbian_p.o(.text)
    QAudioInputPrivate::error() const        0x000238e7   Thumb Code     6  qaudioinput_symbian_p.o(.text)
    QAudioInputPrivate::state() const        0x000238ed   Thumb Code     6  qaudioinput_symbian_p.o(.text)
    QAudioInputPrivate::format() const       0x000238f3   Thumb Code    20  qaudioinput_symbian_p.o(.text)
    QAudioInputPrivate::setFormat(const QAudioFormat&) 0x00023907   Thumb Code    18  qaudioinput_symbian_p.o(.text)
    SymbianAudioOutputPrivate::getStaticMetaObject() 0x00023921   Thumb Code     4  qaudiooutput_symbian_p.o(.text)
    SymbianAudioOutputPrivate::metaObject() const 0x00023925   Thumb Code    28  qaudiooutput_symbian_p.o(.text)
    SymbianAudioOutputPrivate::qt_metacast(const char*) 0x00023941   Thumb Code    40  qaudiooutput_symbian_p.o(.text)
    SymbianAudioOutputPrivate::qt_metacall(QMetaObject::Call, int, void**) 0x00023969   Thumb Code    36  qaudiooutput_symbian_p.o(.text)
    SymbianAudioOutputPrivate::SymbianAudioOutputPrivate(QAudioOutputPrivate*) 0x0002398d   Thumb Code    24  qaudiooutput_symbian_p.o(.text)
    SymbianAudioOutputPrivate::SymbianAudioOutputPrivate__sub_object(QAudioOutputPrivate*) 0x0002398d   Thumb Code     0  qaudiooutput_symbian_p.o(.text)
    SymbianAudioOutputPrivate::~SymbianAudioOutputPrivate() 0x000239a5   Thumb Code    14  qaudiooutput_symbian_p.o(.text)
    SymbianAudioOutputPrivate::~SymbianAudioOutputPrivate__sub_object() 0x000239a5   Thumb Code     0  qaudiooutput_symbian_p.o(.text)
    SymbianAudioOutputPrivate::~SymbianAudioOutputPrivate__deallocating() 0x000239b3   Thumb Code    22  qaudiooutput_symbian_p.o(.text)
    SymbianAudioOutputPrivate::readData(char*, long long) 0x000239c9   Thumb Code    22  qaudiooutput_symbian_p.o(.text)
    QAudioOutputPrivate::setState(SymbianAudio::State) 0x000239df   Thumb Code    58  qaudiooutput_symbian_p.o(.text)
    QAudioOutputPrivate::getSamplesPlayed() const 0x00023a19   Thumb Code   106  qaudiooutput_symbian_p.o(.text)
    QAudioOutputPrivate::bufferFilled()      0x00023a83   Thumb Code    78  qaudiooutput_symbian_p.o(.text)
    QAudioOutputPrivate::pushData(const char*, long long) 0x00023ad1   Thumb Code   222  qaudiooutput_symbian_p.o(.text)
    SymbianAudioOutputPrivate::writeData(const char*, long long) 0x00023baf   Thumb Code   142  qaudiooutput_symbian_p.o(.text)
    QAudioOutputPrivate::getStaticMetaObject() 0x00023c3d   Thumb Code     4  qaudiooutput_symbian_p.o(.text)
    QAudioOutputPrivate::metaObject() const  0x00023c41   Thumb Code    28  qaudiooutput_symbian_p.o(.text)
    QAudioOutputPrivate::qt_metacast(const char*) 0x00023c5d   Thumb Code    42  qaudiooutput_symbian_p.o(.text)
    QAudioOutputPrivate::close()             0x00023c87   Thumb Code   154  qaudiooutput_symbian_p.o(.text)
    QAudioOutputPrivate::setError(QAudio::Error) 0x00023d21   Thumb Code   294  qaudiooutput_symbian_p.o(.text)
    QAudioOutputPrivate::devsoundPlayError(int) 0x00023e47   Thumb Code    74  qaudiooutput_symbian_p.o(.text)
    QAudioOutputPrivate::lastBufferFilled()  0x00023e91   Thumb Code    26  qaudiooutput_symbian_p.o(.text)
    QAudioOutputPrivate::pullData()          0x00023eab   Thumb Code   256  qaudiooutput_symbian_p.o(.text)
    QAudioOutputPrivate::isDataReady() const 0x00023fab   Thumb Code    58  qaudiooutput_symbian_p.o(.text)
    QAudioOutputPrivate::writePaddingData()  0x00023fe5   Thumb Code   222  qaudiooutput_symbian_p.o(.text)
    QAudioOutputPrivate::devsoundBufferToBeFilled(CMMFBuffer*) 0x000240c3   Thumb Code    82  qaudiooutput_symbian_p.o(.text)
    QAudioOutputPrivate::dataReady()         0x00024115   Thumb Code    20  qaudiooutput_symbian_p.o(.text)
    QAudioOutputPrivate::startPlayback()     0x00024129   Thumb Code   158  qaudiooutput_symbian_p.o(.text)
    QAudioOutputPrivate::devsoundInitializeComplete(int) 0x000241c7   Thumb Code    44  qaudiooutput_symbian_p.o(.text)
    QAudioOutputPrivate::underflowTimerExpired() 0x000241f3   Thumb Code    54  qaudiooutput_symbian_p.o(.text)
    QAudioOutputPrivate::notifyTimerExpired() 0x00024229   Thumb Code   118  qaudiooutput_symbian_p.o(.text)
    QAudioOutputPrivate::qt_metacall(QMetaObject::Call, int, void**) 0x0002429f   Thumb Code   130  qaudiooutput_symbian_p.o(.text)
    QAudioOutputPrivate::QAudioOutputPrivate(const QByteArray&) 0x00024321   Thumb Code   352  qaudiooutput_symbian_p.o(.text)
    QAudioOutputPrivate::QAudioOutputPrivate__sub_object(const QByteArray&) 0x00024321   Thumb Code     0  qaudiooutput_symbian_p.o(.text)
    QAudioOutputPrivate::~QAudioOutputPrivate() 0x00024481   Thumb Code    74  qaudiooutput_symbian_p.o(.text)
    QAudioOutputPrivate::~QAudioOutputPrivate__sub_object() 0x00024481   Thumb Code     0  qaudiooutput_symbian_p.o(.text)
    QAudioOutputPrivate::~QAudioOutputPrivate__deallocating() 0x000244cb   Thumb Code    22  qaudiooutput_symbian_p.o(.text)
    QAudioOutputPrivate::open()              0x000244e1   Thumb Code   392  qaudiooutput_symbian_p.o(.text)
    QAudioOutputPrivate::start(QIODevice*)   0x00024669   Thumb Code    60  qaudiooutput_symbian_p.o(.text)
    QAudioOutputPrivate::start()             0x000246a5   Thumb Code   116  qaudiooutput_symbian_p.o(.text)
    QAudioOutputPrivate::stop()              0x00024719   Thumb Code    12  qaudiooutput_symbian_p.o(.text)
    QAudioOutputPrivate::reset()             0x00024725   Thumb Code    44  qaudiooutput_symbian_p.o(.text)
    QAudioOutputPrivate::suspend()           0x00024751   Thumb Code   158  qaudiooutput_symbian_p.o(.text)
    QAudioOutputPrivate::resume()            0x000247ef   Thumb Code    32  qaudiooutput_symbian_p.o(.text)
    QAudioOutputPrivate::bytesFree() const   0x0002480f   Thumb Code    44  qaudiooutput_symbian_p.o(.text)
    QAudioOutputPrivate::periodSize() const  0x0002483b   Thumb Code    14  qaudiooutput_symbian_p.o(.text)
    QAudioOutputPrivate::setBufferSize(int)  0x00024849   Thumb Code     8  qaudiooutput_symbian_p.o(.text)
    QAudioOutputPrivate::bufferSize() const  0x00024851   Thumb Code    16  qaudiooutput_symbian_p.o(.text)
    QAudioOutputPrivate::setNotifyInterval(int) 0x00024861   Thumb Code    60  qaudiooutput_symbian_p.o(.text)
    QAudioOutputPrivate::notifyInterval() const 0x0002489d   Thumb Code     6  qaudiooutput_symbian_p.o(.text)
    QAudioOutputPrivate::processedUSecs() const 0x000248a3   Thumb Code    82  qaudiooutput_symbian_p.o(.text)
    QAudioOutputPrivate::elapsedUSecs() const 0x000248f5   Thumb Code    46  qaudiooutput_symbian_p.o(.text)
    QAudioOutputPrivate::error() const       0x00024923   Thumb Code     6  qaudiooutput_symbian_p.o(.text)
    QAudioOutputPrivate::state() const       0x00024929   Thumb Code     6  qaudiooutput_symbian_p.o(.text)
    QAudioOutputPrivate::format() const      0x0002492f   Thumb Code    20  qaudiooutput_symbian_p.o(.text)
    QAudioOutputPrivate::setFormat(const QAudioFormat&) 0x00024943   Thumb Code    18  qaudiooutput_symbian_p.o(.text)
    QSoundEffectPrivate::getStaticMetaObject() 0x00024979   Thumb Code     4  qsoundeffect_qsound_p.o(.text)
    QSoundEffectPrivate::metaObject() const  0x0002497d   Thumb Code    28  qsoundeffect_qsound_p.o(.text)
    QSoundEffectPrivate::qt_metacast(const char*) 0x00024999   Thumb Code    40  qsoundeffect_qsound_p.o(.text)
    QSoundEffectPrivate::playingChanged()    0x000249c1   Thumb Code    18  qsoundeffect_qsound_p.o(.text)
    QSoundEffectPrivate::setPlaying(bool)    0x000249d3   Thumb Code    24  qsoundeffect_qsound_p.o(.text)
    QSoundEffectPrivate::stop()              0x000249eb   Thumb Code    38  qsoundeffect_qsound_p.o(.text)
    QSoundEffectPrivate::play()              0x00024a11   Thumb Code    60  qsoundeffect_qsound_p.o(.text)
    QSoundEffectPrivate::statusChanged()     0x00024a4d   Thumb Code    18  qsoundeffect_qsound_p.o(.text)
    QSoundEffectPrivate::loadedChanged()     0x00024a5f   Thumb Code    18  qsoundeffect_qsound_p.o(.text)
    QSoundEffectPrivate::mutedChanged()      0x00024a71   Thumb Code    18  qsoundeffect_qsound_p.o(.text)
    QSoundEffectPrivate::volumeChanged()     0x00024a83   Thumb Code    18  qsoundeffect_qsound_p.o(.text)
    QSoundEffectPrivate::qt_metacall(QMetaObject::Call, int, void**) 0x00024a95   Thumb Code   118  qsoundeffect_qsound_p.o(.text)
    QSoundEffectPrivate::QSoundEffectPrivate(QObject*) 0x00024b0b   Thumb Code    72  qsoundeffect_qsound_p.o(.text)
    QSoundEffectPrivate::QSoundEffectPrivate__sub_object(QObject*) 0x00024b0b   Thumb Code     0  qsoundeffect_qsound_p.o(.text)
    QSoundEffectPrivate::~QSoundEffectPrivate() 0x00024b53   Thumb Code    30  qsoundeffect_qsound_p.o(.text)
    QSoundEffectPrivate::~QSoundEffectPrivate__sub_object() 0x00024b53   Thumb Code     0  qsoundeffect_qsound_p.o(.text)
    QSoundEffectPrivate::~QSoundEffectPrivate__deallocating() 0x00024b71   Thumb Code    22  qsoundeffect_qsound_p.o(.text)
    QSoundEffectPrivate::supportedMimeTypes() 0x00024b87   Thumb Code    98  qsoundeffect_qsound_p.o(.text)
    QSoundEffectPrivate::source() const      0x00024be9   Thumb Code    20  qsoundeffect_qsound_p.o(.text)
    QSoundEffectPrivate::isLoaded() const    0x00024bfd   Thumb Code    16  qsoundeffect_qsound_p.o(.text)
    QSoundEffectPrivate::setStatus(QSoundEffect::Status) 0x00024c0d   Thumb Code    48  qsoundeffect_qsound_p.o(.text)
    QSoundEffectPrivate::setSource(const QUrl&) 0x00024c3d   Thumb Code   320  qsoundeffect_qsound_p.o(.text)
    QSoundEffectPrivate::loopCount() const   0x00024d7d   Thumb Code     6  qsoundeffect_qsound_p.o(.text)
    QSoundEffectPrivate::setLoopCount(int)   0x00024d83   Thumb Code    24  qsoundeffect_qsound_p.o(.text)
    QSoundEffectPrivate::volume() const      0x00024d9b   Thumb Code     6  qsoundeffect_qsound_p.o(.text)
    QSoundEffectPrivate::setVolume(int)      0x00024da1   Thumb Code     4  qsoundeffect_qsound_p.o(.text)
    QSoundEffectPrivate::isMuted() const     0x00024da5   Thumb Code     6  qsoundeffect_qsound_p.o(.text)
    QSoundEffectPrivate::setMuted(bool)      0x00024dab   Thumb Code     4  qsoundeffect_qsound_p.o(.text)
    QSoundEffectPrivate::isPlaying()         0x00024daf   Thumb Code    56  qsoundeffect_qsound_p.o(.text)
    QSoundEffectPrivate::status() const      0x00024de7   Thumb Code     6  qsoundeffect_qsound_p.o(.text)
    QSoundEffectPrivate::timerEvent(QTimerEvent*) 0x00024ded   Thumb Code    56  qsoundeffect_qsound_p.o(.text)
    QSoundEffect::getStaticMetaObject()      0x00024e25   Thumb Code     4  qsoundeffect.o(.text)
    QSoundEffect::metaObject() const         0x00024e29   Thumb Code    28  qsoundeffect.o(.text)
    QSoundEffect::qt_metacast(const char*)   0x00024e45   Thumb Code    40  qsoundeffect.o(.text)
    QSoundEffect::setMuted(bool)             0x00024e6d   Thumb Code    28  qsoundeffect.o(.text)
    QSoundEffect::setVolume(float)           0x00024e89   Thumb Code    74  qsoundeffect.o(.text)
    QSoundEffect::loopCountChanged()         0x00024ed3   Thumb Code    18  qsoundeffect.o(.text)
    QSoundEffect::setLoopCount(int)          0x00024ee5   Thumb Code    56  qsoundeffect.o(.text)
    QSoundEffect::sourceChanged()            0x00024f1d   Thumb Code    18  qsoundeffect.o(.text)
    QSoundEffect::setSource(const QUrl&)     0x00024f2f   Thumb Code    52  qsoundeffect.o(.text)
    QSoundEffect::status() const             0x00024f63   Thumb Code    12  qsoundeffect.o(.text)
    QSoundEffect::isPlaying() const          0x00024f6f   Thumb Code    12  qsoundeffect.o(.text)
    QSoundEffect::isMuted() const            0x00024f7b   Thumb Code    12  qsoundeffect.o(.text)
    QSoundEffect::volume() const             0x00024f87   Thumb Code    26  qsoundeffect.o(.text)
    QSoundEffect::loopCount() const          0x00024fa1   Thumb Code    12  qsoundeffect.o(.text)
    QSoundEffect::source() const             0x00024fad   Thumb Code    16  qsoundeffect.o(.text)
    QSoundEffect::stop()                     0x00024fbd   Thumb Code    12  qsoundeffect.o(.text)
    QSoundEffect::play()                     0x00024fc9   Thumb Code    12  qsoundeffect.o(.text)
    QSoundEffect::statusChanged()            0x00024fd5   Thumb Code    18  qsoundeffect.o(.text)
    QSoundEffect::playingChanged()           0x00024fe7   Thumb Code    18  qsoundeffect.o(.text)
    QSoundEffect::loadedChanged()            0x00024ff9   Thumb Code    18  qsoundeffect.o(.text)
    QSoundEffect::mutedChanged()             0x0002500b   Thumb Code    18  qsoundeffect.o(.text)
    QSoundEffect::volumeChanged()            0x0002501d   Thumb Code    18  qsoundeffect.o(.text)
    QSoundEffect::qt_metacall(QMetaObject::Call, int, void**) 0x0002502f   Thumb Code   494  qsoundeffect.o(.text)
    QSoundEffect::QSoundEffect(QObject*)     0x0002521d   Thumb Code   128  qsoundeffect.o(.text)
    QSoundEffect::QSoundEffect__sub_object(QObject*) 0x0002521d   Thumb Code     0  qsoundeffect.o(.text)
    QSoundEffect::~QSoundEffect()            0x0002529d   Thumb Code    24  qsoundeffect.o(.text)
    QSoundEffect::~QSoundEffect__sub_object() 0x0002529d   Thumb Code     0  qsoundeffect.o(.text)
    QSoundEffect::~QSoundEffect__deallocating() 0x000252b5   Thumb Code    22  qsoundeffect.o(.text)
    QSoundEffect::supportedMimeTypes()       0x000252cb   Thumb Code    12  qsoundeffect.o(.text)
    QSoundEffect::isLoaded() const           0x000252d7   Thumb Code    12  qsoundeffect.o(.text)
    QWaveDecoder::getStaticMetaObject()      0x00025349   Thumb Code     4  qwavedecoder_p.o(.text)
    QWaveDecoder::metaObject() const         0x0002534d   Thumb Code    28  qwavedecoder_p.o(.text)
    QWaveDecoder::qt_metacast(const char*)   0x00025369   Thumb Code    40  qwavedecoder_p.o(.text)
    QWaveDecoder::invalidFormat()            0x00025391   Thumb Code    18  qwavedecoder_p.o(.text)
    QWaveDecoder::formatKnown()              0x000253a3   Thumb Code    18  qwavedecoder_p.o(.text)
    QWaveDecoder::discardBytes(long long)    0x000253b5   Thumb Code    96  qwavedecoder_p.o(.text)
    QWaveDecoder::findChunk(const char*)     0x00025415   Thumb Code   166  qwavedecoder_p.o(.text)
    QWaveDecoder::handleData()               0x000254bb   Thumb Code   528  qwavedecoder_p.o(.text)
    QWaveDecoder::qt_metacall(QMetaObject::Call, int, void**) 0x000256cb   Thumb Code   194  qwavedecoder_p.o(.text)
    QWaveDecoder::enoughDataAvailable()      0x0002578d   Thumb Code    96  qwavedecoder_p.o(.text)
    QWaveDecoder::QWaveDecoder(QIODevice*, QObject*) 0x000257ed   Thumb Code   146  qwavedecoder_p.o(.text)
    QWaveDecoder::QWaveDecoder__sub_object(QIODevice*, QObject*) 0x000257ed   Thumb Code     0  qwavedecoder_p.o(.text)
    QWaveDecoder::~QWaveDecoder()            0x0002587f   Thumb Code    30  qwavedecoder_p.o(.text)
    QWaveDecoder::~QWaveDecoder__sub_object() 0x0002587f   Thumb Code     0  qwavedecoder_p.o(.text)
    QWaveDecoder::~QWaveDecoder__deallocating() 0x0002589d   Thumb Code    22  qwavedecoder_p.o(.text)
    QWaveDecoder::audioFormat() const        0x000258b3   Thumb Code    20  qwavedecoder_p.o(.text)
    QWaveDecoder::duration() const           0x000258c7   Thumb Code   122  qwavedecoder_p.o(.text)
    QWaveDecoder::size() const               0x00025941   Thumb Code    36  qwavedecoder_p.o(.text)
    QWaveDecoder::isSequential() const       0x00025965   Thumb Code    16  qwavedecoder_p.o(.text)
    QWaveDecoder::bytesAvailable() const     0x00025975   Thumb Code    40  qwavedecoder_p.o(.text)
    QWaveDecoder::readData(char*, long long) 0x0002599d   Thumb Code    48  qwavedecoder_p.o(.text)
    QWaveDecoder::writeData(const char*, long long) 0x000259cd   Thumb Code    22  qwavedecoder_p.o(.text)
    QSample::getStaticMetaObject()           0x00025a05   Thumb Code     4  qsamplecache_p.o(.text)
    QSample::metaObject() const              0x00025a09   Thumb Code    28  qsamplecache_p.o(.text)
    QSample::qt_metacast(const char*)        0x00025a25   Thumb Code    40  qsamplecache_p.o(.text)
    QSample::ready()                         0x00025a4d   Thumb Code    18  qsamplecache_p.o(.text)
    QSample::cleanup()                       0x00025a5f   Thumb Code    38  qsamplecache_p.o(.text)
    QSample::onReady()                       0x00025a85   Thumb Code    46  qsamplecache_p.o(.text)
    QSampleCache::refresh(long long)         0x00025ab3   Thumb Code   394  qsamplecache_p.o(.text)
    QSample::decoderReady()                  0x00025c3d   Thumb Code   164  qsamplecache_p.o(.text)
    QSample::readSample()                    0x00025ce1   Thumb Code   164  qsamplecache_p.o(.text)
    QSample::error()                         0x00025d85   Thumb Code    18  qsamplecache_p.o(.text)
    QSample::decoderError()                  0x00025d97   Thumb Code    86  qsamplecache_p.o(.text)
    QSampleCache::networkAccessManager()     0x00025ded   Thumb Code    42  qsamplecache_p.o(.text)
    QSample::load()                          0x00025e17   Thumb Code   130  qsamplecache_p.o(.text)
    QSample::qt_metacall(QMetaObject::Call, int, void**) 0x00025e99   Thumb Code   108  qsamplecache_p.o(.text)
    QSample::state() const                   0x00025f05   Thumb Code     6  qsamplecache_p.o(.text)
    QSampleCache::tryRemoveUnrefSample(const QUrl&) 0x00025f0b   Thumb Code    60  qsamplecache_p.o(.text)
    QSample::release()                       0x00025f47   Thumb Code    54  qsamplecache_p.o(.text)
    QSample::QSample(const QUrl&, QSampleCache*) 0x00025f7d   Thumb Code   106  qsamplecache_p.o(.text)
    QSample::QSample__sub_object(const QUrl&, QSampleCache*) 0x00025f7d   Thumb Code     0  qsamplecache_p.o(.text)
    QSample::addRef()                        0x00025fe7   Thumb Code     8  qsamplecache_p.o(.text)
    QSample::~QSample()                      0x00025fef   Thumb Code    72  qsamplecache_p.o(.text)
    QSample::~QSample__sub_object()          0x00025fef   Thumb Code     0  qsamplecache_p.o(.text)
    QSample::~QSample__deallocating()        0x00026037   Thumb Code    22  qsamplecache_p.o(.text)
    QSampleCache::getStaticMetaObject()      0x0002604d   Thumb Code     4  qsamplecache_p.o(.text)
    QSampleCache::metaObject() const         0x00026051   Thumb Code    28  qsamplecache_p.o(.text)
    QSampleCache::qt_metacast(const char*)   0x0002606d   Thumb Code    40  qsamplecache_p.o(.text)
    QSampleCache::qt_metacall(QMetaObject::Call, int, void**) 0x00026095   Thumb Code    36  qsamplecache_p.o(.text)
    QSampleCache::QSampleCache()             0x000260b9   Thumb Code    92  qsamplecache_p.o(.text)
    QSampleCache::QSampleCache__sub_object() 0x000260b9   Thumb Code     0  qsamplecache_p.o(.text)
    QSampleCache::~QSampleCache()            0x00026115   Thumb Code   152  qsamplecache_p.o(.text)
    QSampleCache::~QSampleCache__sub_object() 0x00026115   Thumb Code     0  qsamplecache_p.o(.text)
    QSampleCache::~QSampleCache__deallocating() 0x000261ad   Thumb Code   188  qsamplecache_p.o(.text)
    QSampleCache::requestSample(const QUrl&) 0x00026269   Thumb Code   614  qsamplecache_p.o(.text)
    QSampleCache::setCapacity(long long)     0x000264cf   Thumb Code   192  qsamplecache_p.o(.text)
    QAbstractVideoBuffer::QAbstractVideoBuffer__sub_object(QAbstractVideoBuffer::HandleType) 0x0002659d   Thumb Code    58  qabstractvideobuffer.o(.text)
    QAbstractVideoBuffer::~QAbstractVideoBuffer() 0x000265d7   Thumb Code     0  qabstractvideobuffer.o(.text)
    QAbstractVideoBuffer::~QAbstractVideoBuffer__sub_object() 0x000265d7   Thumb Code    28  qabstractvideobuffer.o(.text)
    QAbstractVideoBuffer::~QAbstractVideoBuffer__deallocating() 0x000265f3   Thumb Code    22  qabstractvideobuffer.o(.text)
    QAbstractVideoBuffer::handleType() const 0x00026609   Thumb Code    14  qabstractvideobuffer.o(.text)
    QAbstractVideoBuffer::handle() const     0x00026617   Thumb Code    54  qabstractvideobuffer.o(.text)
    QAbstractVideoBuffer::QAbstractVideoBuffer__sub_object(QAbstractVideoBufferPrivate&, QAbstractVideoBuffer::HandleType) 0x0002664d   Thumb Code    22  qabstractvideobuffer.o(.text)
    QAbstractVideoSurface::getStaticMetaObject() 0x0002666d   Thumb Code     4  qabstractvideosurface.o(.text)
    QAbstractVideoSurface::metaObject() const 0x00026671   Thumb Code    28  qabstractvideosurface.o(.text)
    QAbstractVideoSurface::qt_metacast(const char*) 0x0002668d   Thumb Code    40  qabstractvideosurface.o(.text)
    QAbstractVideoSurface::nativeResolution() const 0x000266b5   Thumb Code    50  qabstractvideosurface.o(.text)
    QAbstractVideoSurface::nativeResolutionChanged(const QSize&) 0x000266e7   Thumb Code    30  qabstractvideosurface.o(.text)
    QAbstractVideoSurface::supportedFormatsChanged() 0x00026705   Thumb Code    18  qabstractvideosurface.o(.text)
    QAbstractVideoSurface::surfaceFormatChanged(const QVideoSurfaceFormat&) 0x00026717   Thumb Code    30  qabstractvideosurface.o(.text)
    QAbstractVideoSurface::activeChanged(bool) 0x00026735   Thumb Code    30  qabstractvideosurface.o(.text)
    QAbstractVideoSurface::qt_metacall(QMetaObject::Call, int, void**) 0x00026753   Thumb Code   188  qabstractvideosurface.o(.text)
    QAbstractVideoSurface::QAbstractVideoSurface__sub_object(QObject*) 0x0002680f   Thumb Code   160  qabstractvideosurface.o(.text)
    QAbstractVideoSurface::~QAbstractVideoSurface() 0x000268af   Thumb Code     0  qabstractvideosurface.o(.text)
    QAbstractVideoSurface::~QAbstractVideoSurface__sub_object() 0x000268af   Thumb Code    14  qabstractvideosurface.o(.text)
    QAbstractVideoSurface::~QAbstractVideoSurface__deallocating() 0x000268bd   Thumb Code    22  qabstractvideosurface.o(.text)
    QAbstractVideoSurface::isFormatSupported(const QVideoSurfaceFormat&) const 0x000268d3   Thumb Code    86  qabstractvideosurface.o(.text)
    QAbstractVideoSurface::nearestFormat(const QVideoSurfaceFormat&) const 0x00026929   Thumb Code    64  qabstractvideosurface.o(.text)
    QAbstractVideoSurface::surfaceFormat() const 0x00026969   Thumb Code   134  qabstractvideosurface.o(.text)
    QAbstractVideoSurface::start(const QVideoSurfaceFormat&) 0x000269ef   Thumb Code   228  qabstractvideosurface.o(.text)
    QAbstractVideoSurface::stop()            0x00026ad3   Thumb Code   134  qabstractvideosurface.o(.text)
    QAbstractVideoSurface::isActive() const  0x00026b59   Thumb Code    36  qabstractvideosurface.o(.text)
    QAbstractVideoSurface::error() const     0x00026b7d   Thumb Code    94  qabstractvideosurface.o(.text)
    QAbstractVideoSurface::QAbstractVideoSurface__sub_object(QAbstractVideoSurfacePrivate&, QObject*) 0x00026bdb   Thumb Code    26  qabstractvideosurface.o(.text)
    QAbstractVideoSurface::setError(QAbstractVideoSurface::Error) 0x00026bf5   Thumb Code    34  qabstractvideosurface.o(.text)
    QAbstractVideoSurface::setNativeResolution(const QSize&) 0x00026c17   Thumb Code   100  qabstractvideosurface.o(.text)
    QImageVideoBuffer::QImageVideoBuffer(const QImage&) 0x00026c91   Thumb Code   106  qimagevideobuffer.o(.text)
    QImageVideoBuffer::QImageVideoBuffer__sub_object(const QImage&) 0x00026c91   Thumb Code     0  qimagevideobuffer.o(.text)
    QImageVideoBuffer::~QImageVideoBuffer()  0x00026cfb   Thumb Code    14  qimagevideobuffer.o(.text)
    QImageVideoBuffer::~QImageVideoBuffer__sub_object() 0x00026cfb   Thumb Code     0  qimagevideobuffer.o(.text)
    QImageVideoBuffer::~QImageVideoBuffer__deallocating() 0x00026d09   Thumb Code    22  qimagevideobuffer.o(.text)
    QImageVideoBuffer::mapMode() const       0x00026d1f   Thumb Code    14  qimagevideobuffer.o(.text)
    QImageVideoBuffer::map(QAbstractVideoBuffer::MapMode, int*, int*) 0x00026d2d   Thumb Code    90  qimagevideobuffer.o(.text)
    QImageVideoBuffer::unmap()               0x00026d87   Thumb Code    16  qimagevideobuffer.o(.text)
    QMemoryVideoBuffer::QMemoryVideoBuffer(const QByteArray&, int) 0x00026da5   Thumb Code   142  qmemoryvideobuffer.o(.text)
    QMemoryVideoBuffer::QMemoryVideoBuffer__sub_object(const QByteArray&, int) 0x00026da5   Thumb Code     0  qmemoryvideobuffer.o(.text)
    QMemoryVideoBuffer::~QMemoryVideoBuffer() 0x00026e33   Thumb Code    14  qmemoryvideobuffer.o(.text)
    QMemoryVideoBuffer::~QMemoryVideoBuffer__sub_object() 0x00026e33   Thumb Code     0  qmemoryvideobuffer.o(.text)
    QMemoryVideoBuffer::~QMemoryVideoBuffer__deallocating() 0x00026e41   Thumb Code    22  qmemoryvideobuffer.o(.text)
    QMemoryVideoBuffer::mapMode() const      0x00026e57   Thumb Code    14  qmemoryvideobuffer.o(.text)
    QMemoryVideoBuffer::map(QAbstractVideoBuffer::MapMode, int*, int*) 0x00026e65   Thumb Code    84  qmemoryvideobuffer.o(.text)
    QMemoryVideoBuffer::unmap()              0x00026eb9   Thumb Code    14  qmemoryvideobuffer.o(.text)
    QVideoFrame::QVideoFrame()               0x00026ed9   Thumb Code    88  qvideoframe.o(.text)
    QVideoFrame::QVideoFrame__sub_object()   0x00026ed9   Thumb Code     0  qvideoframe.o(.text)
    QVideoFrame::QVideoFrame(QAbstractVideoBuffer*, const QSize&, QVideoFrame::PixelFormat) 0x00026f31   Thumb Code    58  qvideoframe.o(.text)
    QVideoFrame::QVideoFrame__sub_object(QAbstractVideoBuffer*, const QSize&, QVideoFrame::PixelFormat) 0x00026f31   Thumb Code     0  qvideoframe.o(.text)
    QVideoFrame::QVideoFrame(int, const QSize&, int, QVideoFrame::PixelFormat) 0x00026f6b   Thumb Code   134  qvideoframe.o(.text)
    QVideoFrame::QVideoFrame__sub_object(int, const QSize&, int, QVideoFrame::PixelFormat) 0x00026f6b   Thumb Code     0  qvideoframe.o(.text)
    QVideoFrame::pixelFormatFromImageFormat(QImage::Format) 0x00026ff1   Thumb Code    92  qvideoframe.o(.text)
    QVideoFrame::QVideoFrame(const QImage&)  0x0002704d   Thumb Code   110  qvideoframe.o(.text)
    QVideoFrame::QVideoFrame__sub_object(const QImage&) 0x0002704d   Thumb Code     0  qvideoframe.o(.text)
    QVideoFrame::QVideoFrame(const QVideoFrame&) 0x000270bb   Thumb Code    28  qvideoframe.o(.text)
    QVideoFrame::QVideoFrame__sub_object(const QVideoFrame&) 0x000270bb   Thumb Code     0  qvideoframe.o(.text)
    QVideoFrame::~QVideoFrame()              0x000270d7   Thumb Code    14  qvideoframe.o(.text)
    QVideoFrame::~QVideoFrame__sub_object()  0x000270d7   Thumb Code     0  qvideoframe.o(.text)
    QVideoFrame::operator =(const QVideoFrame&) 0x000270e5   Thumb Code    72  qvideoframe.o(.text)
    QVideoFrame::isValid() const             0x0002712d   Thumb Code    20  qvideoframe.o(.text)
    QVideoFrame::pixelFormat() const         0x00027141   Thumb Code    10  qvideoframe.o(.text)
    QVideoFrame::handleType() const          0x0002714b   Thumb Code    32  qvideoframe.o(.text)
    QVideoFrame::size() const                0x0002716b   Thumb Code    14  qvideoframe.o(.text)
    QVideoFrame::width() const               0x00027179   Thumb Code    12  qvideoframe.o(.text)
    QVideoFrame::height() const              0x00027185   Thumb Code    12  qvideoframe.o(.text)
    QVideoFrame::fieldType() const           0x00027191   Thumb Code    10  qvideoframe.o(.text)
    QVideoFrame::setFieldType(QVideoFrame::FieldType) 0x0002719b   Thumb Code     8  qvideoframe.o(.text)
    QVideoFrame::isMapped() const            0x000271a3   Thumb Code    40  qvideoframe.o(.text)
    QVideoFrame::isReadable() const          0x000271cb   Thumb Code    42  qvideoframe.o(.text)
    QVideoFrame::isWritable() const          0x000271f5   Thumb Code    42  qvideoframe.o(.text)
    QVideoFrame::mapMode() const             0x0002721f   Thumb Code    32  qvideoframe.o(.text)
    QVideoFrame::map(QAbstractVideoBuffer::MapMode) 0x0002723f   Thumb Code   114  qvideoframe.o(.text)
    QVideoFrame::unmap()                     0x000272b1   Thumb Code    52  qvideoframe.o(.text)
    QVideoFrame::bytesPerLine() const        0x000272e5   Thumb Code    10  qvideoframe.o(.text)
    QVideoFrame::bits()                      0x000272ef   Thumb Code    10  qvideoframe.o(.text)
    QVideoFrame::bits() const                0x000272f9   Thumb Code    10  qvideoframe.o(.text)
    QVideoFrame::mappedBytes() const         0x00027303   Thumb Code    10  qvideoframe.o(.text)
    QVideoFrame::handle() const              0x0002730d   Thumb Code   122  qvideoframe.o(.text)
    QVideoFrame::startTime() const           0x00027387   Thumb Code    12  qvideoframe.o(.text)
    QVideoFrame::setStartTime(long long)     0x00027393   Thumb Code    16  qvideoframe.o(.text)
    QVideoFrame::endTime() const             0x000273a3   Thumb Code    12  qvideoframe.o(.text)
    QVideoFrame::setEndTime(long long)       0x000273af   Thumb Code    16  qvideoframe.o(.text)
    QVideoFrame::imageFormatFromPixelFormat(QVideoFrame::PixelFormat) 0x000273bf   Thumb Code   184  qvideoframe.o(.text)
    QVideoSurfaceFormat::sizeHint() const    0x00027479   Thumb Code   118  qvideosurfaceformat.o(.text)
    QVideoSurfaceFormat::property(const char*) const 0x000274ef   Thumb Code   656  qvideosurfaceformat.o(.text)
    QVideoSurfaceFormat::propertyNames() const 0x0002777f   Thumb Code   446  qvideosurfaceformat.o(.text)
    QVideoSurfaceFormat::pixelAspectRatio() const 0x0002793d   Thumb Code    14  qvideosurfaceformat.o(.text)
    QVideoSurfaceFormat::viewport() const    0x0002794b   Thumb Code    18  qvideosurfaceformat.o(.text)
    QVideoSurfaceFormat::frameSize() const   0x0002795d   Thumb Code    14  qvideosurfaceformat.o(.text)
    QVideoSurfaceFormat::pixelFormat() const 0x0002796b   Thumb Code    10  qvideosurfaceformat.o(.text)
    operator <<(QDebug, const QVideoSurfaceFormat&) 0x00027975   Thumb Code  1986  qvideosurfaceformat.o(.text)
    QVideoSurfaceFormat::QVideoSurfaceFormat() 0x00028137   Thumb Code   126  qvideosurfaceformat.o(.text)
    QVideoSurfaceFormat::QVideoSurfaceFormat__sub_object() 0x00028137   Thumb Code     0  qvideosurfaceformat.o(.text)
    QVideoSurfaceFormat::QVideoSurfaceFormat(const QSize&, QVideoFrame::PixelFormat, QAbstractVideoBuffer::HandleType) 0x000281b5   Thumb Code   162  qvideosurfaceformat.o(.text)
    QVideoSurfaceFormat::QVideoSurfaceFormat__sub_object(const QSize&, QVideoFrame::PixelFormat, QAbstractVideoBuffer::HandleType) 0x000281b5   Thumb Code     0  qvideosurfaceformat.o(.text)
    QVideoSurfaceFormat::QVideoSurfaceFormat(const QVideoSurfaceFormat&) 0x00028257   Thumb Code    28  qvideosurfaceformat.o(.text)
    QVideoSurfaceFormat::QVideoSurfaceFormat__sub_object(const QVideoSurfaceFormat&) 0x00028257   Thumb Code     0  qvideosurfaceformat.o(.text)
    QVideoSurfaceFormat::~QVideoSurfaceFormat() 0x00028273   Thumb Code    14  qvideosurfaceformat.o(.text)
    QVideoSurfaceFormat::~QVideoSurfaceFormat__sub_object() 0x00028273   Thumb Code     0  qvideosurfaceformat.o(.text)
    QVideoSurfaceFormat::operator =(const QVideoSurfaceFormat&) 0x00028281   Thumb Code    72  qvideosurfaceformat.o(.text)
    QVideoSurfaceFormat::operator ==(const QVideoSurfaceFormat&) const 0x000282c9   Thumb Code    52  qvideosurfaceformat.o(.text)
    QVideoSurfaceFormat::operator !=(const QVideoSurfaceFormat&) const 0x000282fd   Thumb Code    54  qvideosurfaceformat.o(.text)
    QVideoSurfaceFormat::isValid() const     0x00028333   Thumb Code    48  qvideosurfaceformat.o(.text)
    QVideoSurfaceFormat::handleType() const  0x00028363   Thumb Code    10  qvideosurfaceformat.o(.text)
    QVideoSurfaceFormat::setFrameSize(const QSize&) 0x0002836d   Thumb Code    62  qvideosurfaceformat.o(.text)
    QVideoSurfaceFormat::setFrameSize(int, int) 0x000283ab   Thumb Code    70  qvideosurfaceformat.o(.text)
    QVideoSurfaceFormat::frameWidth() const  0x000283f1   Thumb Code    28  qvideosurfaceformat.o(.text)
    QVideoSurfaceFormat::frameHeight() const 0x0002840d   Thumb Code    14  qvideosurfaceformat.o(.text)
    QVideoSurfaceFormat::setViewport(const QRect&) 0x0002841b   Thumb Code    22  qvideosurfaceformat.o(.text)
    QVideoSurfaceFormat::scanLineDirection() const 0x00028431   Thumb Code    10  qvideosurfaceformat.o(.text)
    QVideoSurfaceFormat::setScanLineDirection(QVideoSurfaceFormat::Direction) 0x0002843b   Thumb Code    16  qvideosurfaceformat.o(.text)
    QVideoSurfaceFormat::frameRate() const   0x0002844b   Thumb Code    10  qvideosurfaceformat.o(.text)
    QVideoSurfaceFormat::setFrameRate(float) 0x00028455   Thumb Code    16  qvideosurfaceformat.o(.text)
    QVideoSurfaceFormat::setPixelAspectRatio(const QSize&) 0x00028465   Thumb Code    22  qvideosurfaceformat.o(.text)
    QVideoSurfaceFormat::setPixelAspectRatio(int, int) 0x0002847b   Thumb Code    30  qvideosurfaceformat.o(.text)
    QVideoSurfaceFormat::yCbCrColorSpace() const 0x00028499   Thumb Code    10  qvideosurfaceformat.o(.text)
    QVideoSurfaceFormat::setYCbCrColorSpace(QVideoSurfaceFormat::YCbCrColorSpace) 0x000284a3   Thumb Code    16  qvideosurfaceformat.o(.text)
    QVideoSurfaceFormat::setProperty(const char*, const QVariant&) 0x000284b3   Thumb Code  1030  qvideosurfaceformat.o(.text)
    __ARM_switch8                            0x000288b8   ARM Code      24  switch8.o(.text)
    __rt_switch8                             0x000288b8   ARM Code       0  switch8.o(.text)
    _E32Dll_Body                             0x000288d0   ARM Code      76  uc_dll.o(.text)
    __aeabi_atexit                           0x00028920   ARM Code      40  ucppfini.o(.text)
    __cxa_atexit                             0x00028948   ARM Code      64  ucppfini.o(.text)
    __cxa_finalize                           0x00028988   ARM Code      48  ucppfini.o(.text)
    run_static_dtors                         0x000289b8   ARM Code      16  ucppfini.o(.text)
    __DLL_Export_Table__                     0x000289d4   ARM Code       4  dllexp.o(.text)
    qvariant_cast_helper(const QVariant&, QVariant::Type, void*) 0x0002aad1   Thumb Code    26  qmediaresource.o(i._Z20qvariant_cast_helperRK8QVariantNS_4TypeEPv)
    qRound(float)                            0x0002aaf1   Thumb Code   140  qgraphicsvideoitem_symbian.o(i._Z6qRoundf)
    qWarning()                               0x0002ab8d   Thumb Code    88  qaudiodevicefactory.o(i._Z8qWarningv)
    qstrncmp(const char*, const char*, unsigned) 0x0002abfd   Thumb Code    50  qwavedecoder_p.o(i._Z8qstrncmpPKcS0_j)
    QByteArray::data()                       0x0002ac2f   Thumb Code    44  qsamplecache_p.o(i._ZN10QByteArray4dataEv)
    QByteArray::QByteArray(const QByteArray&) 0x0002ac5b   Thumb Code    20  qmediaimageviewerservice.o(i._ZN10QByteArrayC1ERKS_)
    QByteArray::QByteArray__sub_object(const QByteArray&) 0x0002ac5b   Thumb Code     0  qmediaimageviewerservice.o(i._ZN10QByteArrayC1ERKS_)
    QByteArray::~QByteArray()                0x0002ac6f   Thumb Code    24  qmediaobject.o(i._ZN10QByteArrayD1Ev)
    QByteArray::~QByteArray__sub_object()    0x0002ac6f   Thumb Code     0  qmediaobject.o(i._ZN10QByteArrayD1Ev)
    QBasicTimer::~QBasicTimer()              0x0002ac87   Thumb Code    20  qmediaimageviewer.o(i._ZN11QBasicTimerD1Ev)
    QBasicTimer::~QBasicTimer__sub_object()  0x0002ac87   Thumb Code     0  qmediaimageviewer.o(i._ZN11QBasicTimerD1Ev)
    QStringList::QStringList(const QStringList&) 0x0002ac9b   Thumb Code    38  qmediarecorder.o(i._ZN11QStringListC1ERKS_)
    QStringList::QStringList__sub_object(const QStringList&) 0x0002ac9b   Thumb Code     0  qmediarecorder.o(i._ZN11QStringListC1ERKS_)
    QStringList::QStringList()               0x0002acc1   Thumb Code    14  qmediapluginloader.o(i._ZN11QStringListC1Ev)
    QStringList::QStringList__sub_object()   0x0002acc1   Thumb Code     0  qmediapluginloader.o(i._ZN11QStringListC1Ev)
    QStringList::~QStringList()              0x0002accf   Thumb Code    14  qmediaobject.o(i._ZN11QStringListD1Ev)
    QStringList::~QStringList__sub_object()  0x0002accf   Thumb Code     0  qmediaobject.o(i._ZN11QStringListD1Ev)
    QMapIterator<int, int>::~QMapIterator()  0x0002acdd   Thumb Code    14  qaudiodeviceinfo.o(i._ZN12QMapIteratorIiiED1Ev)
    QMapIterator<int, int>::~QMapIterator__sub_object() 0x0002acdd   Thumb Code     0  qaudiodeviceinfo.o(i._ZN12QMapIteratorIiiED1Ev)
    QMutexLocker::QMutexLocker(QMutex*)      0x0002aceb   Thumb Code    34  qaudiopluginloader.o(i._ZN12QMutexLockerC1EP6QMutex)
    QMutexLocker::QMutexLocker__sub_object(QMutex*) 0x0002aceb   Thumb Code     0  qaudiopluginloader.o(i._ZN12QMutexLockerC1EP6QMutex)
    QMutexLocker::~QMutexLocker()            0x0002ad0d   Thumb Code    42  qaudiopluginloader.o(i._ZN12QMutexLockerD1Ev)
    QMutexLocker::~QMutexLocker__sub_object() 0x0002ad0d   Thumb Code     0  qaudiopluginloader.o(i._ZN12QMutexLockerD1Ev)
    QCameraPrivate::QCameraPrivate()         0x0002ad39   Thumb Code   120  qcamera.o(i._ZN14QCameraPrivateC1Ev)
    QCameraPrivate::QCameraPrivate__sub_object() 0x0002ad39   Thumb Code     0  qcamera.o(i._ZN14QCameraPrivateC1Ev)
    QCameraPrivate::~QCameraPrivate__deallocating() 0x0002adc7   Thumb Code    22  qcamera.o(i._ZN14QCameraPrivateD0Ev)
    QCameraPrivate::~QCameraPrivate()        0x0002addd   Thumb Code    30  qcamera.o(i._ZN14QCameraPrivateD1Ev)
    QCameraPrivate::~QCameraPrivate__sub_object() 0x0002addd   Thumb Code     0  qcamera.o(i._ZN14QCameraPrivateD1Ev)
    QMediaPlaylist::tr(const char*, const char*) 0x0002ae0d   Thumb Code    22  qmediaplaylist.o(i._ZN14QMediaPlaylist2trEPKcS1_)
    QBasicAtomicInt::ref()                   0x0002ae29   Thumb Code    24  qmediaobject.o(i._ZN15QBasicAtomicInt3refEv)
    QBasicAtomicInt::deref()                 0x0002ae41   Thumb Code    24  qmediaobject.o(i._ZN15QBasicAtomicInt5derefEv)
    QGraphicsObject::~QGraphicsObject()      0x0002ae59   Thumb Code     0  qgraphicsvideoitem_symbian.o(i._ZN15QGraphicsObjectD2Ev)
    QGraphicsObject::~QGraphicsObject__sub_object() 0x0002ae59   Thumb Code    26  qgraphicsvideoitem_symbian.o(i._ZN15QGraphicsObjectD2Ev)
    QNullDeviceInfo::supportedCodecs()       0x0002ae7d   Thumb Code    30  qaudiodevicefactory.o(i._ZN15QNullDeviceInfo15supportedCodecsEv)
    QNullDeviceInfo::supportedByteOrders()   0x0002aea1   Thumb Code    22  qaudiodevicefactory.o(i._ZN15QNullDeviceInfo19supportedByteOrdersEv)
    QNullDeviceInfo::supportedSampleRates()  0x0002aebd   Thumb Code    16  qaudiodevicefactory.o(i._ZN15QNullDeviceInfo20supportedSampleRatesEv)
    QNullDeviceInfo::supportedSampleSizes()  0x0002aecd   Thumb Code    16  qaudiodevicefactory.o(i._ZN15QNullDeviceInfo20supportedSampleSizesEv)
    QNullDeviceInfo::supportedSampleTypes()  0x0002aedd   Thumb Code    22  qaudiodevicefactory.o(i._ZN15QNullDeviceInfo20supportedSampleTypesEv)
    QNullDeviceInfo::supportedChannelCounts() 0x0002aef9   Thumb Code    16  qaudiodevicefactory.o(i._ZN15QNullDeviceInfo22supportedChannelCountsEv)
    QNullDeviceInfo::~QNullDeviceInfo__deallocating() 0x0002af09   Thumb Code    22  qaudiodevicefactory.o(i._ZN15QNullDeviceInfoD0Ev)
    QNullDeviceInfo::~QNullDeviceInfo()      0x0002af1f   Thumb Code    16  qaudiodevicefactory.o(i._ZN15QNullDeviceInfoD1Ev)
    QNullDeviceInfo::~QNullDeviceInfo__sub_object() 0x0002af1f   Thumb Code     0  qaudiodevicefactory.o(i._ZN15QNullDeviceInfoD1Ev)
    QNullInputDevice::setBufferSize(int)     0x0002af2f   Thumb Code     2  qaudiodevicefactory.o(i._ZN16QNullInputDevice13setBufferSizeEi)
    QNullInputDevice::setNotifyInterval(int) 0x0002af31   Thumb Code     2  qaudiodevicefactory.o(i._ZN16QNullInputDevice17setNotifyIntervalEi)
    QNullInputDevice::stop()                 0x0002af33   Thumb Code     2  qaudiodevicefactory.o(i._ZN16QNullInputDevice4stopEv)
    QNullInputDevice::reset()                0x0002af35   Thumb Code     2  qaudiodevicefactory.o(i._ZN16QNullInputDevice5resetEv)
    QNullInputDevice::start(QIODevice*)      0x0002af39   Thumb Code    28  qaudiodevicefactory.o(i._ZN16QNullInputDevice5startEP9QIODevice)
    QNullInputDevice::start()                0x0002af89   Thumb Code    28  qaudiodevicefactory.o(i._ZN16QNullInputDevice5startEv)
    QNullInputDevice::resume()               0x0002afd7   Thumb Code     2  qaudiodevicefactory.o(i._ZN16QNullInputDevice6resumeEv)
    QNullInputDevice::suspend()              0x0002afd9   Thumb Code     2  qaudiodevicefactory.o(i._ZN16QNullInputDevice7suspendEv)
    QNullInputDevice::setFormat(const QAudioFormat&) 0x0002afdb   Thumb Code     2  qaudiodevicefactory.o(i._ZN16QNullInputDevice9setFormatERK12QAudioFormat)
    QNullInputDevice::QNullInputDevice()     0x0002afdd   Thumb Code    30  qaudiodevicefactory.o(i._ZN16QNullInputDeviceC1Ev)
    QNullInputDevice::QNullInputDevice__sub_object() 0x0002afdd   Thumb Code     0  qaudiodevicefactory.o(i._ZN16QNullInputDeviceC1Ev)
    QNullInputDevice::~QNullInputDevice__deallocating() 0x0002b005   Thumb Code    22  qaudiodevicefactory.o(i._ZN16QNullInputDeviceD0Ev)
    QNullInputDevice::~QNullInputDevice()    0x0002b01b   Thumb Code    16  qaudiodevicefactory.o(i._ZN16QNullInputDeviceD1Ev)
    QNullInputDevice::~QNullInputDevice__sub_object() 0x0002b01b   Thumb Code     0  qaudiodevicefactory.o(i._ZN16QNullInputDeviceD1Ev)
    MDevSoundObserver::SendEventToClient(const TMMFEvent&) 0x0002b02b   Thumb Code     2  moc_qaudio_symbian_p.o(i._ZN17MDevSoundObserver17SendEventToClientERK9TMMFEvent)
    QFactoryInterface::~QFactoryInterface__deallocating() 0x0002b02d   Thumb Code    18  qmediaplaylistioplugin.o(i._ZN17QFactoryInterfaceD0Ev)
    QFactoryInterface::~QFactoryInterface()  0x0002b03f   Thumb Code     0  qmediaplaylistioplugin.o(i._ZN17QFactoryInterfaceD2Ev)
    QFactoryInterface::~QFactoryInterface__sub_object() 0x0002b03f   Thumb Code     2  qmediaplaylistioplugin.o(i._ZN17QFactoryInterfaceD2Ev)
    QForeachContainer<QStringList>::~QForeachContainer() 0x0002b041   Thumb Code    14  qmediaimageviewerservice.o(i._ZN17QForeachContainerI11QStringListED1Ev)
    QForeachContainer<QStringList>::~QForeachContainer__sub_object() 0x0002b041   Thumb Code     0  qmediaimageviewerservice.o(i._ZN17QForeachContainerI11QStringListED1Ev)
    QForeachContainer<QSet<int>>::~QForeachContainer() 0x0002b04f   Thumb Code    14  qmediaobject.o(i._ZN17QForeachContainerI4QSetIiEED1Ev)
    QForeachContainer<QSet<int>>::~QForeachContainer__sub_object() 0x0002b04f   Thumb Code     0  qmediaobject.o(i._ZN17QForeachContainerI4QSetIiEED1Ev)
    QForeachContainer<QList<QByteArray>>::~QForeachContainer() 0x0002b05d   Thumb Code    14  qmediaimageviewerservice.o(i._ZN17QForeachContainerI5QListI10QByteArrayEED1Ev)
    QForeachContainer<QList<QByteArray>>::~QForeachContainer__sub_object() 0x0002b05d   Thumb Code     0  qmediaimageviewerservice.o(i._ZN17QForeachContainerI5QListI10QByteArrayEED1Ev)
    QForeachContainer<QList<QMediaContent>>::~QForeachContainer() 0x0002b06b   Thumb Code    14  qmediaplaylistprovider.o(i._ZN17QForeachContainerI5QListI13QMediaContentEED1Ev)
    QForeachContainer<QList<QMediaContent>>::~QForeachContainer__sub_object() 0x0002b06b   Thumb Code     0  qmediaplaylistprovider.o(i._ZN17QForeachContainerI5QListI13QMediaContentEED1Ev)
    QForeachContainer<QList<QMediaTimeInterval>>::~QForeachContainer() 0x0002b079   Thumb Code    14  qmediatimerange.o(i._ZN17QForeachContainerI5QListI18QMediaTimeIntervalEED1Ev)
    QForeachContainer<QList<QMediaTimeInterval>>::~QForeachContainer__sub_object() 0x0002b079   Thumb Code     0  qmediatimerange.o(i._ZN17QForeachContainerI5QListI18QMediaTimeIntervalEED1Ev)
    QForeachContainer<QList<QString>>::~QForeachContainer() 0x0002b087   Thumb Code    14  qaudiodeviceinfo.o(i._ZN17QForeachContainerI5QListI7QStringEED1Ev)
    QForeachContainer<QList<QString>>::~QForeachContainer__sub_object() 0x0002b087   Thumb Code     0  qaudiodeviceinfo.o(i._ZN17QForeachContainerI5QListI7QStringEED1Ev)
    QForeachContainer<QList<QPointer<QObject>>>::~QForeachContainer() 0x0002b095   Thumb Code    14  qgraphicsvideoitem_symbian.o(i._ZN17QForeachContainerI5QListI8QPointerI7QObjectEEED1Ev)
    QForeachContainer<QList<QPointer<QObject>>>::~QForeachContainer__sub_object() 0x0002b095   Thumb Code     0  qgraphicsvideoitem_symbian.o(i._ZN17QForeachContainerI5QListI8QPointerI7QObjectEEED1Ev)
    QForeachContainer<QList<QVariant>>::~QForeachContainer() 0x0002b0a3   Thumb Code    14  qcameraexposure.o(i._ZN17QForeachContainerI5QListI8QVariantEED1Ev)
    QForeachContainer<QList<QVariant>>::~QForeachContainer__sub_object() 0x0002b0a3   Thumb Code     0  qcameraexposure.o(i._ZN17QForeachContainerI5QListI8QVariantEED1Ev)
    QForeachContainer<QList<QVideoFrame::PixelFormat>>::~QForeachContainer() 0x0002b0b1   Thumb Code    14  qmediaimageviewerservice.o(i._ZN17QForeachContainerI5QListIN11QVideoFrame11PixelFormatEEED1Ev)
    QForeachContainer<QList<QVideoFrame::PixelFormat>>::~QForeachContainer__sub_object() 0x0002b0b1   Thumb Code     0  qmediaimageviewerservice.o(i._ZN17QForeachContainerI5QListIN11QVideoFrame11PixelFormatEEED1Ev)
    QForeachContainer<QList<QAudioFormat::SampleType>>::~QForeachContainer() 0x0002b0bf   Thumb Code    14  qaudiodeviceinfo.o(i._ZN17QForeachContainerI5QListIN12QAudioFormat10SampleTypeEEED1Ev)
    QForeachContainer<QList<QAudioFormat::SampleType>>::~QForeachContainer__sub_object() 0x0002b0bf   Thumb Code     0  qaudiodeviceinfo.o(i._ZN17QForeachContainerI5QListIN12QAudioFormat10SampleTypeEEED1Ev)
    QForeachContainer<QList<QAudioFormat::Endian>>::~QForeachContainer() 0x0002b0cd   Thumb Code    14  qaudiodeviceinfo.o(i._ZN17QForeachContainerI5QListIN12QAudioFormat6EndianEEED1Ev)
    QForeachContainer<QList<QAudioFormat::Endian>>::~QForeachContainer__sub_object() 0x0002b0cd   Thumb Code     0  qaudiodeviceinfo.o(i._ZN17QForeachContainerI5QListIN12QAudioFormat6EndianEEED1Ev)
    QForeachContainer<QList<QCamera::LockStatus>>::~QForeachContainer() 0x0002b0db   Thumb Code    14  qcamera.o(i._ZN17QForeachContainerI5QListIN7QCamera10LockStatusEEED1Ev)
    QForeachContainer<QList<QCamera::LockStatus>>::~QForeachContainer__sub_object() 0x0002b0db   Thumb Code     0  qcamera.o(i._ZN17QForeachContainerI5QListIN7QCamera10LockStatusEEED1Ev)
    QForeachContainer<QList<QGraphicsItem*>>::~QForeachContainer() 0x0002b0e9   Thumb Code    14  qgraphicsvideoitem_symbian.o(i._ZN17QForeachContainerI5QListIP13QGraphicsItemEED1Ev)
    QForeachContainer<QList<QGraphicsItem*>>::~QForeachContainer__sub_object() 0x0002b0e9   Thumb Code     0  qgraphicsvideoitem_symbian.o(i._ZN17QForeachContainerI5QListIP13QGraphicsItemEED1Ev)
    QForeachContainer<QList<QGraphicsVideoItem*>>::~QForeachContainer() 0x0002b0f7   Thumb Code    14  qgraphicsvideoitem_symbian.o(i._ZN17QForeachContainerI5QListIP18QGraphicsVideoItemEED1Ev)
    QForeachContainer<QList<QGraphicsVideoItem*>>::~QForeachContainer__sub_object() 0x0002b0f7   Thumb Code     0  qgraphicsvideoitem_symbian.o(i._ZN17QForeachContainerI5QListIP18QGraphicsVideoItemEED1Ev)
    QForeachContainer<QList<QMediaServiceProviderPlugin*>>::~QForeachContainer() 0x0002b105   Thumb Code    14  qmediaserviceprovider.o(i._ZN17QForeachContainerI5QListIP27QMediaServiceProviderPluginEED1Ev)
    QForeachContainer<QList<QMediaServiceProviderPlugin*>>::~QForeachContainer__sub_object() 0x0002b105   Thumb Code     0  qmediaserviceprovider.o(i._ZN17QForeachContainerI5QListIP27QMediaServiceProviderPluginEED1Ev)
    QForeachContainer<QList<QObject*>>::~QForeachContainer() 0x0002b113   Thumb Code    14  qmediaserviceprovider.o(i._ZN17QForeachContainerI5QListIP7QObjectEED1Ev)
    QForeachContainer<QList<QObject*>>::~QForeachContainer__sub_object() 0x0002b113   Thumb Code     0  qmediaserviceprovider.o(i._ZN17QForeachContainerI5QListIP7QObjectEED1Ev)
    QForeachContainer<QList<int>>::~QForeachContainer() 0x0002b121   Thumb Code    14  qmediaresource.o(i._ZN17QForeachContainerI5QListIiEED1Ev)
    QForeachContainer<QList<int>>::~QForeachContainer__sub_object() 0x0002b121   Thumb Code     0  qmediaresource.o(i._ZN17QForeachContainerI5QListIiEED1Ev)
    QNullOutputDevice::setBufferSize(int)    0x0002b12f   Thumb Code     2  qaudiodevicefactory.o(i._ZN17QNullOutputDevice13setBufferSizeEi)
    QNullOutputDevice::setNotifyInterval(int) 0x0002b131   Thumb Code     2  qaudiodevicefactory.o(i._ZN17QNullOutputDevice17setNotifyIntervalEi)
    QNullOutputDevice::stop()                0x0002b133   Thumb Code     2  qaudiodevicefactory.o(i._ZN17QNullOutputDevice4stopEv)
    QNullOutputDevice::reset()               0x0002b135   Thumb Code     2  qaudiodevicefactory.o(i._ZN17QNullOutputDevice5resetEv)
    QNullOutputDevice::start(QIODevice*)     0x0002b139   Thumb Code    28  qaudiodevicefactory.o(i._ZN17QNullOutputDevice5startEP9QIODevice)
    QNullOutputDevice::start()               0x0002b18d   Thumb Code    28  qaudiodevicefactory.o(i._ZN17QNullOutputDevice5startEv)
    QNullOutputDevice::resume()              0x0002b1df   Thumb Code     2  qaudiodevicefactory.o(i._ZN17QNullOutputDevice6resumeEv)
    QNullOutputDevice::suspend()             0x0002b1e1   Thumb Code     2  qaudiodevicefactory.o(i._ZN17QNullOutputDevice7suspendEv)
    QNullOutputDevice::setFormat(const QAudioFormat&) 0x0002b1e3   Thumb Code     2  qaudiodevicefactory.o(i._ZN17QNullOutputDevice9setFormatERK12QAudioFormat)
    QNullOutputDevice::QNullOutputDevice()   0x0002b1e5   Thumb Code    30  qaudiodevicefactory.o(i._ZN17QNullOutputDeviceC1Ev)
    QNullOutputDevice::QNullOutputDevice__sub_object() 0x0002b1e5   Thumb Code     0  qaudiodevicefactory.o(i._ZN17QNullOutputDeviceC1Ev)
    QNullOutputDevice::~QNullOutputDevice__deallocating() 0x0002b20d   Thumb Code    22  qaudiodevicefactory.o(i._ZN17QNullOutputDeviceD0Ev)
    QNullOutputDevice::~QNullOutputDevice()  0x0002b223   Thumb Code    16  qaudiodevicefactory.o(i._ZN17QNullOutputDeviceD1Ev)
    QNullOutputDevice::~QNullOutputDevice__sub_object() 0x0002b223   Thumb Code     0  qaudiodevicefactory.o(i._ZN17QNullOutputDeviceD1Ev)
    QMediaPluginLoader::~QMediaPluginLoader() 0x0002b233   Thumb Code    34  qmediaplaylist.o(i._ZN18QMediaPluginLoaderD1Ev)
    QMediaPluginLoader::~QMediaPluginLoader__sub_object() 0x0002b233   Thumb Code     0  qmediaplaylist.o(i._ZN18QMediaPluginLoaderD1Ev)
    QRadioTunerPrivate::~QRadioTunerPrivate__deallocating() 0x0002b267   Thumb Code    24  qradiotuner.o(i._ZN18QRadioTunerPrivateD0Ev)
    QRadioTunerPrivate::~QRadioTunerPrivate() 0x0002b27f   Thumb Code    14  qradiotuner.o(i._ZN18QRadioTunerPrivateD1Ev)
    QRadioTunerPrivate::~QRadioTunerPrivate__sub_object() 0x0002b27f   Thumb Code     0  qradiotuner.o(i._ZN18QRadioTunerPrivateD1Ev)
    QVideoFramePrivate::QVideoFramePrivate(const QSize&, QVideoFrame::PixelFormat) 0x0002b28d   Thumb Code    58  qvideoframe.o(i._ZN18QVideoFramePrivateC1ERK5QSizeN11QVideoFrame11PixelFormatE)
    QVideoFramePrivate::QVideoFramePrivate__sub_object(const QSize&, QVideoFrame::PixelFormat) 0x0002b28d   Thumb Code     0  qvideoframe.o(i._ZN18QVideoFramePrivateC1ERK5QSizeN11QVideoFrame11PixelFormatE)
    QVideoFramePrivate::~QVideoFramePrivate() 0x0002b2d1   Thumb Code    24  qvideoframe.o(i._ZN18QVideoFramePrivateD1Ev)
    QVideoFramePrivate::~QVideoFramePrivate__sub_object() 0x0002b2d1   Thumb Code     0  qvideoframe.o(i._ZN18QVideoFramePrivateD1Ev)
    QAbstractAudioInput::~QAbstractAudioInput__deallocating() 0x0002b2e9   Thumb Code    24  qaudiosystem.o(i._ZN19QAbstractAudioInputD0Ev)
    QAbstractAudioInput::~QAbstractAudioInput() 0x0002b301   Thumb Code     0  qaudiosystem.o(i._ZN19QAbstractAudioInputD2Ev)
    QAbstractAudioInput::~QAbstractAudioInput__sub_object() 0x0002b301   Thumb Code    14  qaudiosystem.o(i._ZN19QAbstractAudioInputD2Ev)
    QAudioFormatPrivate::~QAudioFormatPrivate() 0x0002b30f   Thumb Code    16  qaudioformat.o(i._ZN19QAudioFormatPrivateD1Ev)
    QAudioFormatPrivate::~QAudioFormatPrivate__sub_object() 0x0002b30f   Thumb Code     0  qaudioformat.o(i._ZN19QAudioFormatPrivateD1Ev)
    QCameraFocusPrivate::~QCameraFocusPrivate__deallocating() 0x0002b31f   Thumb Code    24  qcamerafocus.o(i._ZN19QCameraFocusPrivateD0Ev)
    QCameraFocusPrivate::~QCameraFocusPrivate() 0x0002b337   Thumb Code    14  qcamerafocus.o(i._ZN19QCameraFocusPrivateD1Ev)
    QCameraFocusPrivate::~QCameraFocusPrivate__sub_object() 0x0002b337   Thumb Code     0  qcamerafocus.o(i._ZN19QCameraFocusPrivateD1Ev)
    QMediaObjectPrivate::~QMediaObjectPrivate__deallocating() 0x0002b345   Thumb Code    22  qmediaobject.o(i._ZN19QMediaObjectPrivateD0Ev)
    QMediaObjectPrivate::~QMediaObjectPrivate() 0x0002b35d   Thumb Code    24  qmediaobject.o(i._ZN19QMediaObjectPrivateD1Ev)
    QMediaObjectPrivate::~QMediaObjectPrivate__sub_object() 0x0002b35d   Thumb Code     0  qmediaobject.o(i._ZN19QMediaObjectPrivateD1Ev)
    QMediaPlayerPrivate::QMediaPlayerPrivate() 0x0002b379   Thumb Code   102  qmediaplayer.o(i._ZN19QMediaPlayerPrivateC1Ev)
    QMediaPlayerPrivate::QMediaPlayerPrivate__sub_object() 0x0002b379   Thumb Code     0  qmediaplayer.o(i._ZN19QMediaPlayerPrivateC1Ev)
    QMediaPlayerPrivate::~QMediaPlayerPrivate__deallocating() 0x0002b3f7   Thumb Code    22  qmediaplayer.o(i._ZN19QMediaPlayerPrivateD0Ev)
    QMediaPlayerPrivate::~QMediaPlayerPrivate() 0x0002b40d   Thumb Code    44  qmediaplayer.o(i._ZN19QMediaPlayerPrivateD1Ev)
    QMediaPlayerPrivate::~QMediaPlayerPrivate__sub_object() 0x0002b40d   Thumb Code     0  qmediaplayer.o(i._ZN19QMediaPlayerPrivateD1Ev)
    QVideoWidgetBackend::QVideoWidgetBackend__sub_object() 0x0002b455   Thumb Code    34  qvideowidget.o(i._ZN19QVideoWidgetBackendC2Ev)
    QVideoWidgetBackend::~QVideoWidgetBackend__deallocating() 0x0002b485   Thumb Code    22  qvideowidget.o(i._ZN19QVideoWidgetBackendD0Ev)
    QVideoWidgetBackend::~QVideoWidgetBackend() 0x0002b49b   Thumb Code     0  qvideowidget.o(i._ZN19QVideoWidgetBackendD2Ev)
    QVideoWidgetBackend::~QVideoWidgetBackend__sub_object() 0x0002b49b   Thumb Code    22  qvideowidget.o(i._ZN19QVideoWidgetBackendD2Ev)
    QAbstractAudioOutput::~QAbstractAudioOutput__deallocating() 0x0002b4b5   Thumb Code    24  qaudiosystem.o(i._ZN20QAbstractAudioOutputD0Ev)
    QAbstractAudioOutput::~QAbstractAudioOutput() 0x0002b4cd   Thumb Code     0  qaudiosystem.o(i._ZN20QAbstractAudioOutputD2Ev)
    QAbstractAudioOutput::~QAbstractAudioOutput__sub_object() 0x0002b4cd   Thumb Code    14  qaudiosystem.o(i._ZN20QAbstractAudioOutputD2Ev)
    QMediaContentPrivate::QMediaContentPrivate() 0x0002b4db   Thumb Code    28  qmediacontent.o(i._ZN20QMediaContentPrivateC1Ev)
    QMediaContentPrivate::QMediaContentPrivate__sub_object() 0x0002b4db   Thumb Code     0  qmediacontent.o(i._ZN20QMediaContentPrivateC1Ev)
    QMediaContentPrivate::~QMediaContentPrivate() 0x0002b4f7   Thumb Code    16  qmediacontent.o(i._ZN20QMediaContentPrivateD1Ev)
    QMediaContentPrivate::~QMediaContentPrivate__sub_object() 0x0002b4f7   Thumb Code     0  qmediacontent.o(i._ZN20QMediaContentPrivateD1Ev)
    QMediaControlPrivate::~QMediaControlPrivate__deallocating() 0x0002b507   Thumb Code    18  qmediacontrol.o(i._ZN20QMediaControlPrivateD0Ev)
    QMediaControlPrivate::~QMediaControlPrivate() 0x0002b519   Thumb Code     2  qmediacontrol.o(i._ZN20QMediaControlPrivateD1Ev)
    QMediaControlPrivate::~QMediaControlPrivate__sub_object() 0x0002b519   Thumb Code     0  qmediacontrol.o(i._ZN20QMediaControlPrivateD1Ev)
    QMediaServicePrivate::~QMediaServicePrivate__deallocating() 0x0002b51b   Thumb Code    18  qmediaservice.o(i._ZN20QMediaServicePrivateD0Ev)
    QMediaServicePrivate::~QMediaServicePrivate() 0x0002b52d   Thumb Code     2  qmediaservice.o(i._ZN20QMediaServicePrivateD1Ev)
    QMediaServicePrivate::~QMediaServicePrivate__sub_object() 0x0002b52d   Thumb Code     0  qmediaservice.o(i._ZN20QMediaServicePrivateD1Ev)
    QVideoSurfacePainter::viewportDestroyed() 0x0002b52f   Thumb Code     2  qpaintervideosurface.o(i._ZN20QVideoSurfacePainter17viewportDestroyedEv)
    QMediaPlaylistPrivate::~QMediaPlaylistPrivate__deallocating() 0x0002b531   Thumb Code    22  qmediaplaylist.o(i._ZN21QMediaPlaylistPrivateD0Ev)
    QMediaPlaylistPrivate::~QMediaPlaylistPrivate() 0x0002b549   Thumb Code    24  qmediaplaylist.o(i._ZN21QMediaPlaylistPrivateD1Ev)
    QMediaPlaylistPrivate::~QMediaPlaylistPrivate__sub_object() 0x0002b549   Thumb Code     0  qmediaplaylist.o(i._ZN21QMediaPlaylistPrivateD1Ev)
    QMediaServiceProvider::~QMediaServiceProvider__deallocating() 0x0002b565   Thumb Code    22  qmediaserviceprovider.o(i._ZN21QMediaServiceProviderD0Ev)
    QMediaServiceProvider::~QMediaServiceProvider() 0x0002b57b   Thumb Code     0  qmediaserviceprovider.o(i._ZN21QMediaServiceProviderD2Ev)
    QMediaServiceProvider::~QMediaServiceProvider__sub_object() 0x0002b57b   Thumb Code    14  qmediaserviceprovider.o(i._ZN21QMediaServiceProviderD2Ev)
    QMediaTimeRangePrivate::~QMediaTimeRangePrivate() 0x0002b589   Thumb Code    16  qmediatimerange.o(i._ZN22QMediaTimeRangePrivateD1Ev)
    QMediaTimeRangePrivate::~QMediaTimeRangePrivate__sub_object() 0x0002b589   Thumb Code     0  qmediatimerange.o(i._ZN22QMediaTimeRangePrivateD1Ev)
    QPluginServiceProvider::releaseService(QMediaService*) 0x0002b599   Thumb Code    40  qmediaserviceprovider.o(i._ZN22QPluginServiceProvider14releaseServiceEP13QMediaService)
    QPluginServiceProvider::requestService(const QByteArray&, const QMediaServiceProviderHint&) 0x0002b5c1   Thumb Code  1336  qmediaserviceprovider.o(i._ZN22QPluginServiceProvider14requestServiceERK10QByteArrayRK25QMediaServiceProviderHint)
    QPluginServiceProvider::deviceDescription(const QByteArray&, const QByteArray&) 0x0002bb85   Thumb Code   280  qmediaserviceprovider.o(i._ZN22QPluginServiceProvider17deviceDescriptionERK10QByteArrayS2_)
    QPluginServiceProvider::~QPluginServiceProvider__deallocating() 0x0002bcbb   Thumb Code    22  qmediaserviceprovider.o(i._ZN22QPluginServiceProviderD0Ev)
    QPluginServiceProvider::~QPluginServiceProvider() 0x0002bcd1   Thumb Code    30  qmediaserviceprovider.o(i._ZN22QPluginServiceProviderD1Ev)
    QPluginServiceProvider::~QPluginServiceProvider__sub_object() 0x0002bcd1   Thumb Code     0  qmediaserviceprovider.o(i._ZN22QPluginServiceProviderD1Ev)
    QAudioDeviceInfoPrivate::~QAudioDeviceInfoPrivate() 0x0002bcff   Thumb Code    44  qaudiodeviceinfo.o(i._ZN23QAudioDeviceInfoPrivateD1Ev)
    QAudioDeviceInfoPrivate::~QAudioDeviceInfoPrivate__sub_object() 0x0002bcff   Thumb Code     0  qaudiodeviceinfo.o(i._ZN23QAudioDeviceInfoPrivateD1Ev)
    QAbstractAudioDeviceInfo::~QAbstractAudioDeviceInfo__deallocating() 0x0002bd41   Thumb Code    24  qaudiosystem.o(i._ZN24QAbstractAudioDeviceInfoD0Ev)
    QAbstractAudioDeviceInfo::~QAbstractAudioDeviceInfo() 0x0002bd59   Thumb Code     0  qaudiosystem.o(i._ZN24QAbstractAudioDeviceInfoD2Ev)
    QAbstractAudioDeviceInfo::~QAbstractAudioDeviceInfo__sub_object() 0x0002bd59   Thumb Code    14  qaudiosystem.o(i._ZN24QAbstractAudioDeviceInfoD2Ev)
    QAudioDeviceInfoInternal::Capabilities::Capabilities() 0x0002bd69   Thumb Code    72  qaudiodeviceinfo_symbian_p.o(i._ZN24QAudioDeviceInfoInternal12CapabilitiesC1Ev)
    QAudioDeviceInfoInternal::Capabilities::Capabilities__sub_object() 0x0002bd69   Thumb Code     0  qaudiodeviceinfo_symbian_p.o(i._ZN24QAudioDeviceInfoInternal12CapabilitiesC1Ev)
    QAudioDeviceInfoInternal::Capabilities::~Capabilities() 0x0002bddf   Thumb Code    58  qaudiodeviceinfo_symbian_p.o(i._ZN24QAudioDeviceInfoInternal12CapabilitiesD1Ev)
    QAudioDeviceInfoInternal::Capabilities::~Capabilities__sub_object() 0x0002bddf   Thumb Code     0  qaudiodeviceinfo_symbian_p.o(i._ZN24QAudioDeviceInfoInternal12CapabilitiesD1Ev)
    QImageVideoBufferPrivate::~QImageVideoBufferPrivate__deallocating() 0x0002be43   Thumb Code    22  qimagevideobuffer.o(i._ZN24QImageVideoBufferPrivateD0Ev)
    QImageVideoBufferPrivate::~QImageVideoBufferPrivate() 0x0002be59   Thumb Code    24  qimagevideobuffer.o(i._ZN24QImageVideoBufferPrivateD1Ev)
    QImageVideoBufferPrivate::~QImageVideoBufferPrivate__sub_object() 0x0002be59   Thumb Code     0  qimagevideobuffer.o(i._ZN24QImageVideoBufferPrivateD1Ev)
    QMediaImageViewerPrivate::QMediaImageViewerPrivate() 0x0002be81   Thumb Code   138  qmediaimageviewer.o(i._ZN24QMediaImageViewerPrivateC1Ev)
    QMediaImageViewerPrivate::QMediaImageViewerPrivate__sub_object() 0x0002be81   Thumb Code     0  qmediaimageviewer.o(i._ZN24QMediaImageViewerPrivateC1Ev)
    QMediaImageViewerPrivate::~QMediaImageViewerPrivate__deallocating() 0x0002bf3f   Thumb Code    22  qmediaimageviewer.o(i._ZN24QMediaImageViewerPrivateD0Ev)
    QMediaImageViewerPrivate::~QMediaImageViewerPrivate() 0x0002bf55   Thumb Code    56  qmediaimageviewer.o(i._ZN24QMediaImageViewerPrivateD1Ev)
    QMediaImageViewerPrivate::~QMediaImageViewerPrivate__sub_object() 0x0002bf55   Thumb Code     0  qmediaimageviewer.o(i._ZN24QMediaImageViewerPrivateD1Ev)
    QMediaPlaylistIOInterface::~QMediaPlaylistIOInterface__deallocating() 0x0002bfb3   Thumb Code    18  qmediaplaylistioplugin.o(i._ZN25QMediaPlaylistIOInterfaceD0Ev)
    QMediaPlaylistIOInterface::~QMediaPlaylistIOInterface() 0x0002bfc5   Thumb Code     0  qmediaplaylistioplugin.o(i._ZN25QMediaPlaylistIOInterfaceD2Ev)
    QMediaPlaylistIOInterface::~QMediaPlaylistIOInterface__sub_object() 0x0002bfc5   Thumb Code     2  qmediaplaylistioplugin.o(i._ZN25QMediaPlaylistIOInterfaceD2Ev)
    QMemoryVideoBufferPrivate::~QMemoryVideoBufferPrivate__deallocating() 0x0002bfc7   Thumb Code    22  qmemoryvideobuffer.o(i._ZN25QMemoryVideoBufferPrivateD0Ev)
    QMemoryVideoBufferPrivate::~QMemoryVideoBufferPrivate() 0x0002bfdd   Thumb Code    24  qmemoryvideobuffer.o(i._ZN25QMemoryVideoBufferPrivateD1Ev)
    QMemoryVideoBufferPrivate::~QMemoryVideoBufferPrivate__sub_object() 0x0002bfdd   Thumb Code     0  qmemoryvideobuffer.o(i._ZN25QMemoryVideoBufferPrivateD1Ev)
    QAudioCaptureSourcePrivate::initControls() 0x0002c005   Thumb Code   112  qaudiocapturesource.o(i._ZN26QAudioCaptureSourcePrivate12initControlsEv)
    QAudioCaptureSourcePrivate::~QAudioCaptureSourcePrivate__deallocating() 0x0002c149   Thumb Code    24  qaudiocapturesource.o(i._ZN26QAudioCaptureSourcePrivateD0Ev)
    QAudioCaptureSourcePrivate::~QAudioCaptureSourcePrivate() 0x0002c161   Thumb Code    14  qaudiocapturesource.o(i._ZN26QAudioCaptureSourcePrivateD1Ev)
    QAudioCaptureSourcePrivate::~QAudioCaptureSourcePrivate__sub_object() 0x0002c161   Thumb Code     0  qaudiocapturesource.o(i._ZN26QAudioCaptureSourcePrivateD1Ev)
    QCameraImageCapturePrivate::unsetError() 0x0002c171   Thumb Code    58  qcameraimagecapture.o(i._ZN26QCameraImageCapturePrivate10unsetErrorEv)
    QLocalMediaPlaylistControl::setCurrentIndex(int) 0x0002c1bb   Thumb Code    16  qmediaplaylist.o(i._ZN26QLocalMediaPlaylistControl15setCurrentIndexEi)
    QLocalMediaPlaylistControl::setPlaybackMode(QMediaPlaylist::PlaybackMode) 0x0002c1cb   Thumb Code    16  qmediaplaylist.o(i._ZN26QLocalMediaPlaylistControl15setPlaybackModeEN14QMediaPlaylist12PlaybackModeE)
    QLocalMediaPlaylistControl::setPlaylistProvider(QMediaPlaylistProvider*) 0x0002c1db   Thumb Code    24  qmediaplaylist.o(i._ZN26QLocalMediaPlaylistControl19setPlaylistProviderEP22QMediaPlaylistProvider)
    QLocalMediaPlaylistControl::next()       0x0002c1f3   Thumb Code    12  qmediaplaylist.o(i._ZN26QLocalMediaPlaylistControl4nextEv)
    QLocalMediaPlaylistControl::previous()   0x0002c1ff   Thumb Code    12  qmediaplaylist.o(i._ZN26QLocalMediaPlaylistControl8previousEv)
    QLocalMediaPlaylistControl::QLocalMediaPlaylistControl(QObject*) 0x0002c20d   Thumb Code   130  qmediaplaylist.o(i._ZN26QLocalMediaPlaylistControlC1EP7QObject)
    QLocalMediaPlaylistControl::QLocalMediaPlaylistControl__sub_object(QObject*) 0x0002c20d   Thumb Code     0  qmediaplaylist.o(i._ZN26QLocalMediaPlaylistControlC1EP7QObject)
    QLocalMediaPlaylistControl::~QLocalMediaPlaylistControl__deallocating() 0x0002c313   Thumb Code    28  qmediaplaylist.o(i._ZN26QLocalMediaPlaylistControlD0Ev)
    QLocalMediaPlaylistControl::~QLocalMediaPlaylistControl() 0x0002c32f   Thumb Code    14  qmediaplaylist.o(i._ZN26QLocalMediaPlaylistControlD1Ev)
    QLocalMediaPlaylistControl::~QLocalMediaPlaylistControl__sub_object() 0x0002c32f   Thumb Code     0  qmediaplaylist.o(i._ZN26QLocalMediaPlaylistControlD1Ev)
    QMediaPlaylistNullProvider::~QMediaPlaylistNullProvider__deallocating() 0x0002c33d   Thumb Code    28  qmediaplaylistnavigator.o(i._ZN26QMediaPlaylistNullProviderD0Ev)
    QMediaPlaylistNullProvider::~QMediaPlaylistNullProvider() 0x0002c359   Thumb Code    14  qmediaplaylistnavigator.o(i._ZN26QMediaPlaylistNullProviderD1Ev)
    QMediaPlaylistNullProvider::~QMediaPlaylistNullProvider__sub_object() 0x0002c359   Thumb Code     0  qmediaplaylistnavigator.o(i._ZN26QMediaPlaylistNullProviderD1Ev)
    QVideoSurfaceFormatPrivate::QVideoSurfaceFormatPrivate(const QVideoSurfaceFormatPrivate&) 0x0002c367   Thumb Code   134  qvideosurfaceformat.o(i._ZN26QVideoSurfaceFormatPrivateC1ERKS_)
    QVideoSurfaceFormatPrivate::QVideoSurfaceFormatPrivate__sub_object(const QVideoSurfaceFormatPrivate&) 0x0002c367   Thumb Code     0  qvideosurfaceformat.o(i._ZN26QVideoSurfaceFormatPrivateC1ERKS_)
    QVideoSurfaceFormatPrivate::~QVideoSurfaceFormatPrivate() 0x0002c3f9   Thumb Code    32  qvideosurfaceformat.o(i._ZN26QVideoSurfaceFormatPrivateD1Ev)
    QVideoSurfaceFormatPrivate::~QVideoSurfaceFormatPrivate__sub_object() 0x0002c3f9   Thumb Code     0  qvideosurfaceformat.o(i._ZN26QVideoSurfaceFormatPrivateD1Ev)
    QVideoWidgetControlBackend::~QVideoWidgetControlBackend__deallocating() 0x0002c425   Thumb Code    22  qvideowidget.o(i._ZN26QVideoWidgetControlBackendD0Ev)
    QVideoWidgetControlBackend::~QVideoWidgetControlBackend() 0x0002c43b   Thumb Code    22  qvideowidget.o(i._ZN26QVideoWidgetControlBackendD1Ev)
    QVideoWidgetControlBackend::~QVideoWidgetControlBackend__sub_object() 0x0002c43b   Thumb Code     0  qvideowidget.o(i._ZN26QVideoWidgetControlBackendD1Ev)
    QAbstractVideoBufferPrivate::~QAbstractVideoBufferPrivate__deallocating() 0x0002c455   Thumb Code    18  qabstractvideobuffer.o(i._ZN27QAbstractVideoBufferPrivateD0Ev)
    QAbstractVideoBufferPrivate::~QAbstractVideoBufferPrivate() 0x0002c467   Thumb Code     2  qabstractvideobuffer.o(i._ZN27QAbstractVideoBufferPrivateD1Ev)
    QAbstractVideoBufferPrivate::~QAbstractVideoBufferPrivate__sub_object() 0x0002c467   Thumb Code     0  qabstractvideobuffer.o(i._ZN27QAbstractVideoBufferPrivateD1Ev)
    QMediaServiceProviderPlugin::~QMediaServiceProviderPlugin__deallocating() 0x0002c469   Thumb Code    22  qmediaserviceprovider.o(i._ZN27QMediaServiceProviderPluginD0Ev)
    QMediaServiceProviderPlugin::~QMediaServiceProviderPlugin() 0x0002c47f   Thumb Code     0  qmediaserviceprovider.o(i._ZN27QMediaServiceProviderPluginD2Ev)
    QMediaServiceProviderPlugin::~QMediaServiceProviderPlugin__sub_object() 0x0002c47f   Thumb Code    22  qmediaserviceprovider.o(i._ZN27QMediaServiceProviderPluginD2Ev)
    QVideoSurfaceGenericPainter::~QVideoSurfaceGenericPainter__deallocating() 0x0002c499   Thumb Code    22  qpaintervideosurface.o(i._ZN27QVideoSurfaceGenericPainterD0Ev)
    QVideoSurfaceGenericPainter::~QVideoSurfaceGenericPainter() 0x0002c4b1   Thumb Code    38  qpaintervideosurface.o(i._ZN27QVideoSurfaceGenericPainterD1Ev)
    QVideoSurfaceGenericPainter::~QVideoSurfaceGenericPainter__sub_object() 0x0002c4b1   Thumb Code     0  qpaintervideosurface.o(i._ZN27QVideoSurfaceGenericPainterD1Ev)
    QAudioEncoderSettingsPrivate::~QAudioEncoderSettingsPrivate() 0x0002c4ef   Thumb Code    20  qmediaencodersettings.o(i._ZN28QAudioEncoderSettingsPrivateD1Ev)
    QAudioEncoderSettingsPrivate::~QAudioEncoderSettingsPrivate__sub_object() 0x0002c4ef   Thumb Code     0  qmediaencodersettings.o(i._ZN28QAudioEncoderSettingsPrivateD1Ev)
    QAudioSystemFactoryInterface::~QAudioSystemFactoryInterface__deallocating() 0x0002c503   Thumb Code    18  qaudiosystemplugin.o(i._ZN28QAudioSystemFactoryInterfaceD0Ev)
    QAudioSystemFactoryInterface::~QAudioSystemFactoryInterface() 0x0002c515   Thumb Code     0  qaudiosystemplugin.o(i._ZN28QAudioSystemFactoryInterfaceD2Ev)
    QAudioSystemFactoryInterface::~QAudioSystemFactoryInterface__sub_object() 0x0002c515   Thumb Code     2  qaudiosystemplugin.o(i._ZN28QAudioSystemFactoryInterfaceD2Ev)
    QImageEncoderSettingsPrivate::~QImageEncoderSettingsPrivate() 0x0002c517   Thumb Code    20  qmediaencodersettings.o(i._ZN28QImageEncoderSettingsPrivateD1Ev)
    QImageEncoderSettingsPrivate::~QImageEncoderSettingsPrivate__sub_object() 0x0002c517   Thumb Code     0  qmediaencodersettings.o(i._ZN28QImageEncoderSettingsPrivateD1Ev)
    QVideoEncoderSettingsPrivate::~QVideoEncoderSettingsPrivate() 0x0002c52b   Thumb Code    20  qmediaencodersettings.o(i._ZN28QVideoEncoderSettingsPrivateD1Ev)
    QVideoEncoderSettingsPrivate::~QVideoEncoderSettingsPrivate__sub_object() 0x0002c52b   Thumb Code     0  qmediaencodersettings.o(i._ZN28QVideoEncoderSettingsPrivateD1Ev)
    QVideoWidgetControlInterface::~QVideoWidgetControlInterface__deallocating() 0x0002c53f   Thumb Code    18  qvideowidget.o(i._ZN28QVideoWidgetControlInterfaceD0Ev)
    QVideoWidgetControlInterface::~QVideoWidgetControlInterface() 0x0002c551   Thumb Code     0  qvideowidget.o(i._ZN28QVideoWidgetControlInterfaceD2Ev)
    QVideoWidgetControlInterface::~QVideoWidgetControlInterface__sub_object() 0x0002c551   Thumb Code     2  qvideowidget.o(i._ZN28QVideoWidgetControlInterfaceD2Ev)
    QCameraImageProcessingPrivate::~QCameraImageProcessingPrivate__deallocating() 0x0002c553   Thumb Code    24  qcameraimageprocessing.o(i._ZN29QCameraImageProcessingPrivateD0Ev)
    QCameraImageProcessingPrivate::~QCameraImageProcessingPrivate() 0x0002c56b   Thumb Code    14  qcameraimageprocessing.o(i._ZN29QCameraImageProcessingPrivateD1Ev)
    QCameraImageProcessingPrivate::~QCameraImageProcessingPrivate__sub_object() 0x0002c56b   Thumb Code     0  qcameraimageprocessing.o(i._ZN29QCameraImageProcessingPrivateD1Ev)
    QMediaPlaylistProviderPrivate::~QMediaPlaylistProviderPrivate__deallocating() 0x0002c579   Thumb Code    18  qlocalmediaplaylistprovider.o(i._ZN29QMediaPlaylistProviderPrivateD0Ev)
    QMediaPlaylistProviderPrivate::~QMediaPlaylistProviderPrivate() 0x0002c58b   Thumb Code     2  qlocalmediaplaylistprovider.o(i._ZN29QMediaPlaylistProviderPrivateD1Ev)
    QMediaPlaylistProviderPrivate::~QMediaPlaylistProviderPrivate__sub_object() 0x0002c58b   Thumb Code     0  qlocalmediaplaylistprovider.o(i._ZN29QMediaPlaylistProviderPrivateD1Ev)
    QMediaImageViewerControlPrivate::QMediaImageViewerControlPrivate() 0x0002c58d   Thumb Code   482  qmediaimageviewerservice.o(i._ZN31QMediaImageViewerControlPrivateC1Ev)
    QMediaImageViewerControlPrivate::QMediaImageViewerControlPrivate__sub_object() 0x0002c58d   Thumb Code     0  qmediaimageviewerservice.o(i._ZN31QMediaImageViewerControlPrivateC1Ev)
    QMediaImageViewerControlPrivate::~QMediaImageViewerControlPrivate__deallocating() 0x0002c7e5   Thumb Code    22  qmediaimageviewerservice.o(i._ZN31QMediaImageViewerControlPrivateD0Ev)
    QMediaImageViewerControlPrivate::~QMediaImageViewerControlPrivate() 0x0002c7fd   Thumb Code    60  qmediaimageviewerservice.o(i._ZN31QMediaImageViewerControlPrivateD1Ev)
    QMediaImageViewerControlPrivate::~QMediaImageViewerControlPrivate__sub_object() 0x0002c7fd   Thumb Code     0  qmediaimageviewerservice.o(i._ZN31QMediaImageViewerControlPrivateD1Ev)
    QMediaImageViewerServicePrivate::~QMediaImageViewerServicePrivate__deallocating() 0x0002c86b   Thumb Code    22  qmediaimageviewerservice.o(i._ZN31QMediaImageViewerServicePrivateD0Ev)
    QMediaImageViewerServicePrivate::~QMediaImageViewerServicePrivate() 0x0002c881   Thumb Code    24  qmediaimageviewerservice.o(i._ZN31QMediaImageViewerServicePrivateD1Ev)
    QMediaImageViewerServicePrivate::~QMediaImageViewerServicePrivate__sub_object() 0x0002c881   Thumb Code     0  qmediaimageviewerservice.o(i._ZN31QMediaImageViewerServicePrivateD1Ev)
    QMediaServiceProviderHintPrivate::QMediaServiceProviderHintPrivate(QMediaServiceProviderHint::Type) 0x0002c8a9   Thumb Code    78  qmediaserviceprovider.o(i._ZN32QMediaServiceProviderHintPrivateC1EN25QMediaServiceProviderHint4TypeE)
    QMediaServiceProviderHintPrivate::QMediaServiceProviderHintPrivate__sub_object(QMediaServiceProviderHint::Type) 0x0002c8a9   Thumb Code     0  qmediaserviceprovider.o(i._ZN32QMediaServiceProviderHintPrivateC1EN25QMediaServiceProviderHint4TypeE)
    QMediaServiceProviderHintPrivate::~QMediaServiceProviderHintPrivate() 0x0002c915   Thumb Code    44  qmediaserviceprovider.o(i._ZN32QMediaServiceProviderHintPrivateD1Ev)
    QMediaServiceProviderHintPrivate::~QMediaServiceProviderHintPrivate__sub_object() 0x0002c915   Thumb Code     0  qmediaserviceprovider.o(i._ZN32QMediaServiceProviderHintPrivateD1Ev)
    QLocalMediaPlaylistProviderPrivate::~QLocalMediaPlaylistProviderPrivate__deallocating() 0x0002c959   Thumb Code    22  qlocalmediaplaylistprovider.o(i._ZN34QLocalMediaPlaylistProviderPrivateD0Ev)
    QLocalMediaPlaylistProviderPrivate::~QLocalMediaPlaylistProviderPrivate() 0x0002c971   Thumb Code    20  qlocalmediaplaylistprovider.o(i._ZN34QLocalMediaPlaylistProviderPrivateD1Ev)
    QLocalMediaPlaylistProviderPrivate::~QLocalMediaPlaylistProviderPrivate__sub_object() 0x0002c971   Thumb Code     0  qlocalmediaplaylistprovider.o(i._ZN34QLocalMediaPlaylistProviderPrivateD1Ev)
    QSet<QString>::~QSet()                   0x0002c993   Thumb Code    14  qaudiopluginloader.o(i._ZN4QSetI7QStringED1Ev)
    QSet<QString>::~QSet__sub_object()       0x0002c993   Thumb Code     0  qaudiopluginloader.o(i._ZN4QSetI7QStringED1Ev)
    QSet<int>::~QSet()                       0x0002c9a1   Thumb Code    14  qmediaobject.o(i._ZN4QSetIiED1Ev)
    QSet<int>::~QSet__sub_object()           0x0002c9a1   Thumb Code     0  qmediaobject.o(i._ZN4QSetIiED1Ev)
    QRect::QRect(const QPoint&, const QSize&) 0x0002c9af   Thumb Code    40  qgraphicsvideoitem_symbian.o(i._ZN5QRectC1ERK6QPointRK5QSize)
    QRect::QRect__sub_object(const QPoint&, const QSize&) 0x0002c9af   Thumb Code     0  qgraphicsvideoitem_symbian.o(i._ZN5QRectC1ERK6QPointRK5QSize)
    QRect::QRect(int, int, int, int)         0x0002c9d7   Thumb Code    22  qvideowidget.o(i._ZN5QRectC1Eiiii)
    QRect::QRect__sub_object(int, int, int, int) 0x0002c9d7   Thumb Code     0  qvideowidget.o(i._ZN5QRectC1Eiiii)
    QRect::QRect()                           0x0002c9ed   Thumb Code    14  qvideowidget.o(i._ZN5QRectC1Ev)
    QRect::QRect__sub_object()               0x0002c9ed   Thumb Code     0  qvideowidget.o(i._ZN5QRectC1Ev)
    QSize::QSize()                           0x0002c9fb   Thumb Code    10  qgraphicsvideoitem_symbian.o(i._ZN5QSizeC1Ev)
    QSize::QSize__sub_object()               0x0002c9fb   Thumb Code     0  qgraphicsvideoitem_symbian.o(i._ZN5QSizeC1Ev)
    QDebug::maybeSpace()                     0x0002ca05   Thumb Code    24  qmediaserviceprovider.o(i._ZN6QDebug10maybeSpaceEv)
    QDebug::QDebug(QtMsgType)                0x0002ca1d   Thumb Code    92  qcamera.o(i._ZN6QDebugC1E9QtMsgType)
    QDebug::QDebug__sub_object(QtMsgType)    0x0002ca1d   Thumb Code     0  qcamera.o(i._ZN6QDebugC1E9QtMsgType)
    QDebug::QDebug(const QDebug&)            0x0002ca91   Thumb Code    16  qvideosurfaceformat.o(i._ZN6QDebugC1ERKS_)
    QDebug::QDebug__sub_object(const QDebug&) 0x0002ca91   Thumb Code     0  qvideosurfaceformat.o(i._ZN6QDebugC1ERKS_)
    QDebug::~QDebug()                        0x0002caa1   Thumb Code   112  qsamplecache_p.o(i._ZN6QDebugD1Ev)
    QDebug::~QDebug__sub_object()            0x0002caa1   Thumb Code     0  qsamplecache_p.o(i._ZN6QDebugD1Ev)
    QDebug::operator <<(const char*)         0x0002cb25   Thumb Code    44  qcamera.o(i._ZN6QDebuglsEPKc)
    QDebug::operator <<(long long)           0x0002cb5b   Thumb Code    48  qsamplecache_p.o(i._ZN6QDebuglsEx)
    QRectF::QRectF(const QRectF&)            0x0002cb95   Thumb Code    18  qcamerafocus.o(i._ZN6QRectFC1ERKS_)
    QRectF::QRectF__sub_object(const QRectF&) 0x0002cb95   Thumb Code     0  qcamerafocus.o(i._ZN6QRectFC1ERKS_)
    QSizeF::QSizeF(const QSize&)             0x0002cba7   Thumb Code    34  qvideowidget.o(i._ZN6QSizeFC1ERK5QSize)
    QSizeF::QSizeF__sub_object(const QSize&) 0x0002cba7   Thumb Code     0  qvideowidget.o(i._ZN6QSizeFC1ERK5QSize)
    QObject::disconnect(const char*, const QObject*, const char*) 0x0002cbc9   Thumb Code    24  qwavedecoder_p.o(i._ZN7QObject10disconnectEPKcPKS_S1_)
    QString::clear()                         0x0002cbe1   Thumb Code    50  qmediaplaylist.o(i._ZN7QString5clearEv)
    QString::QString(const QByteArray&)      0x0002cc23   Thumb Code    70  qmediaserviceprovider.o(i._ZN7QStringC1ERK10QByteArray)
    QString::QString__sub_object(const QByteArray&) 0x0002cc23   Thumb Code     0  qmediaserviceprovider.o(i._ZN7QStringC1ERK10QByteArray)
    QString::QString(const QLatin1String&)   0x0002cc69   Thumb Code    26  qaudiodevicefactory.o(i._ZN7QStringC1ERK13QLatin1String)
    QString::QString__sub_object(const QLatin1String&) 0x0002cc69   Thumb Code     0  qaudiodevicefactory.o(i._ZN7QStringC1ERK13QLatin1String)
    QString::QString(const QString&)         0x0002cc83   Thumb Code    22  qmediaobject.o(i._ZN7QStringC1ERKS_)
    QString::QString__sub_object(const QString&) 0x0002cc83   Thumb Code     0  qmediaobject.o(i._ZN7QStringC1ERKS_)
    QString::QString()                       0x0002cc99   Thumb Code    18  qmediaplayer.o(i._ZN7QStringC1Ev)
    QString::QString__sub_object()           0x0002cc99   Thumb Code     0  qmediaplayer.o(i._ZN7QStringC1Ev)
    QString::~QString()                      0x0002ccb1   Thumb Code    24  qmediaobject.o(i._ZN7QStringD1Ev)
    QString::~QString__sub_object()          0x0002ccb1   Thumb Code     0  qmediaobject.o(i._ZN7QStringD1Ev)
    QString::operator =(const QLatin1String&) 0x0002ccc9   Thumb Code    42  qvideosurfaceformat.o(i._ZN7QStringaSERK13QLatin1String)
    QVariant::Private::Private()             0x0002ccfd   Thumb Code    36  qcameraexposure.o(i._ZN8QVariant7PrivateC1Ev)
    QVariant::Private::Private__sub_object() 0x0002ccfd   Thumb Code     0  qcameraexposure.o(i._ZN8QVariant7PrivateC1Ev)
    QVariant::QVariant(float)                0x0002cd21   Thumb Code    38  qcameraexposure.o(i._ZN8QVariantC1Ef)
    QVariant::QVariant__sub_object(float)    0x0002cd21   Thumb Code     0  qcameraexposure.o(i._ZN8QVariantC1Ef)
    QVariant::QVariant()                     0x0002cd47   Thumb Code    38  qmediaobject.o(i._ZN8QVariantC1Ev)
    QVariant::QVariant__sub_object()         0x0002cd47   Thumb Code     0  qmediaobject.o(i._ZN8QVariantC1Ev)
    QBasicTimer::isActive() const            0x0002cd6d   Thumb Code    16  qmediaimageviewer.o(i._ZNK11QBasicTimer8isActiveEv)
    QBasicAtomicInt::operator ==(int) const  0x0002cd7d   Thumb Code    16  qmediaimageviewerservice.o(i._ZNK15QBasicAtomicInteqEi)
    QBasicAtomicInt::operator !=(int) const  0x0002cd8d   Thumb Code    16  qmediaobject.o(i._ZNK15QBasicAtomicIntneEi)
    QBasicAtomicInt::operator !() const      0x0002cd9d   Thumb Code    16  qmediaplayer.o(i._ZNK15QBasicAtomicIntntEv)
    QNullDeviceInfo::deviceName() const      0x0002cdad   Thumb Code    16  qaudiodevicefactory.o(i._ZNK15QNullDeviceInfo10deviceNameEv)
    QNullDeviceInfo::preferredFormat() const 0x0002cdbd   Thumb Code    36  qaudiodevicefactory.o(i._ZNK15QNullDeviceInfo15preferredFormatEv)
    QNullDeviceInfo::isFormatSupported(const QAudioFormat&) const 0x0002ce13   Thumb Code     6  qaudiodevicefactory.o(i._ZNK15QNullDeviceInfo17isFormatSupportedERK12QAudioFormat)
    QNullInputDevice::bufferSize() const     0x0002ce19   Thumb Code     6  qaudiodevicefactory.o(i._ZNK16QNullInputDevice10bufferSizeEv)
    QNullInputDevice::bytesReady() const     0x0002ce1f   Thumb Code     6  qaudiodevicefactory.o(i._ZNK16QNullInputDevice10bytesReadyEv)
    QNullInputDevice::periodSize() const     0x0002ce25   Thumb Code     6  qaudiodevicefactory.o(i._ZNK16QNullInputDevice10periodSizeEv)
    QNullInputDevice::elapsedUSecs() const   0x0002ce2d   Thumb Code     8  qaudiodevicefactory.o(i._ZNK16QNullInputDevice12elapsedUSecsEv)
    QNullInputDevice::notifyInterval() const 0x0002ce3d   Thumb Code     6  qaudiodevicefactory.o(i._ZNK16QNullInputDevice14notifyIntervalEv)
    QNullInputDevice::processedUSecs() const 0x0002ce45   Thumb Code     8  qaudiodevicefactory.o(i._ZNK16QNullInputDevice14processedUSecsEv)
    QNullInputDevice::error() const          0x0002ce55   Thumb Code     6  qaudiodevicefactory.o(i._ZNK16QNullInputDevice5errorEv)
    QNullInputDevice::state() const          0x0002ce5b   Thumb Code     6  qaudiodevicefactory.o(i._ZNK16QNullInputDevice5stateEv)
    QNullInputDevice::format() const         0x0002ce61   Thumb Code    16  qaudiodevicefactory.o(i._ZNK16QNullInputDevice6formatEv)
    QNullOutputDevice::bufferSize() const    0x0002ce71   Thumb Code     6  qaudiodevicefactory.o(i._ZNK17QNullOutputDevice10bufferSizeEv)
    QNullOutputDevice::periodSize() const    0x0002ce77   Thumb Code     6  qaudiodevicefactory.o(i._ZNK17QNullOutputDevice10periodSizeEv)
    QNullOutputDevice::elapsedUSecs() const  0x0002ce7d   Thumb Code     8  qaudiodevicefactory.o(i._ZNK17QNullOutputDevice12elapsedUSecsEv)
    QNullOutputDevice::notifyInterval() const 0x0002ce8d   Thumb Code     6  qaudiodevicefactory.o(i._ZNK17QNullOutputDevice14notifyIntervalEv)
    QNullOutputDevice::processedUSecs() const 0x0002ce95   Thumb Code     8  qaudiodevicefactory.o(i._ZNK17QNullOutputDevice14processedUSecsEv)
    QNullOutputDevice::error() const         0x0002cea5   Thumb Code     6  qaudiodevicefactory.o(i._ZNK17QNullOutputDevice5errorEv)
    QNullOutputDevice::state() const         0x0002ceab   Thumb Code     6  qaudiodevicefactory.o(i._ZNK17QNullOutputDevice5stateEv)
    QNullOutputDevice::format() const        0x0002ceb1   Thumb Code    16  qaudiodevicefactory.o(i._ZNK17QNullOutputDevice6formatEv)
    QNullOutputDevice::bytesFree() const     0x0002cec1   Thumb Code     6  qaudiodevicefactory.o(i._ZNK17QNullOutputDevice9bytesFreeEv)
    QMediaPlaylistPrivate::playlist() const  0x0002cec7   Thumb Code    16  qmediaplaylist.o(i._ZNK21QMediaPlaylistPrivate8playlistEv)
    QPluginServiceProvider::hasSupport(const QByteArray&, const QString&, const QStringList&, int) const 0x0002ced7   Thumb Code   386  qmediaserviceprovider.o(i._ZNK22QPluginServiceProvider10hasSupportERK10QByteArrayRK7QStringRK11QStringListi)
    QPluginServiceProvider::supportedMimeTypes(const QByteArray&, int) const 0x0002d071   Thumb Code   306  qmediaserviceprovider.o(i._ZNK22QPluginServiceProvider18supportedMimeTypesERK10QByteArrayi)
    QPluginServiceProvider::devices(const QByteArray&) const 0x0002d1c7   Thumb Code   224  qmediaserviceprovider.o(i._ZNK22QPluginServiceProvider7devicesERK10QByteArray)
    QLocalMediaPlaylistControl::currentIndex() const 0x0002d2cb   Thumb Code    12  qmediaplaylist.o(i._ZNK26QLocalMediaPlaylistControl12currentIndexEv)
    QLocalMediaPlaylistControl::playbackMode() const 0x0002d2d7   Thumb Code    12  qmediaplaylist.o(i._ZNK26QLocalMediaPlaylistControl12playbackModeEv)
    QLocalMediaPlaylistControl::previousIndex(int) const 0x0002d2e3   Thumb Code    16  qmediaplaylist.o(i._ZNK26QLocalMediaPlaylistControl13previousIndexEi)
    QLocalMediaPlaylistControl::playlistProvider() const 0x0002d2f3   Thumb Code    12  qmediaplaylist.o(i._ZNK26QLocalMediaPlaylistControl16playlistProviderEv)
    QLocalMediaPlaylistControl::nextIndex(int) const 0x0002d2ff   Thumb Code    16  qmediaplaylist.o(i._ZNK26QLocalMediaPlaylistControl9nextIndexEi)
    QMediaPlaylistNullProvider::mediaCount() const 0x0002d30f   Thumb Code     6  qmediaplaylistnavigator.o(i._ZNK26QMediaPlaylistNullProvider10mediaCountEv)
    QMediaPlaylistNullProvider::media(int) const 0x0002d315   Thumb Code    18  qmediaplaylistnavigator.o(i._ZNK26QMediaPlaylistNullProvider5mediaEi)
    QVideoSurfaceFormatPrivate::operator ==(const QVideoSurfaceFormatPrivate&) const 0x0002d329   Thumb Code   386  qvideosurfaceformat.o(i._ZNK26QVideoSurfaceFormatPrivateeqERKS_)
    QBool::operator const void*() const      0x0002d4b5   Thumb Code    16  qaudiodeviceinfo.o(i._ZNK5QBoolcvPKvEv)
    QRect::size() const                      0x0002d4c5   Thumb Code    38  qvideowidget.o(i._ZNK5QRect4sizeEv)
    QSize::isEmpty() const                   0x0002d4eb   Thumb Code    22  qpaintervideosurface.o(i._ZNK5QSize7isEmptyEv)
    QObject::connect(const QObject*, const char*, const char*, Qt::ConnectionType) const 0x0002d501   Thumb Code    30  qmediaobject.o(i._ZNK7QObject7connectEPKS_PKcS3_N2Qt14ConnectionTypeE)
    QString::isNull() const                  0x0002d521   Thumb Code    18  qmediaresource.o(i._ZNK7QString6isNullEv)
    QString::isEmpty() const                 0x0002d539   Thumb Code    18  qmediaimageviewerservice.o(i._ZNK7QString7isEmptyEv)
    QWidget::testAttribute(Qt::WidgetAttribute) const 0x0002d54b   Thumb Code    40  qvideowidget.o(i._ZNK7QWidget13testAttributeEN2Qt15WidgetAttributeE)
    QWidget::rect() const                    0x0002d573   Thumb Code    66  qvideowidget.o(i._ZNK7QWidget4rectEv)
    TFourCC::operator ==(const unsigned long&) const 0x0002d5b5   Thumb Code    18  qaudio_symbian_p.o(i._ZNK7TFourCCeqERKm)
    QPalette::window() const                 0x0002d5c7   Thumb Code    18  qvideowidget.o(i._ZNK8QPalette6windowEv)
    QListData::at(int) const                 0x0002d5d9   Thumb Code    20  qlocalmediaplaylistprovider.o(i._ZNK9QListData2atEi)
    QListData::end() const                   0x0002d5ed   Thumb Code    16  qmediaobject.o(i._ZNK9QListData3endEv)
    QListData::size() const                  0x0002d5fd   Thumb Code    14  qlocalmediaplaylistprovider.o(i._ZNK9QListData4sizeEv)
    QListData::begin() const                 0x0002d60b   Thumb Code    16  qmediaobject.o(i._ZNK9QListData5beginEv)
    QListData::isEmpty() const               0x0002d61b   Thumb Code    22  qmediaserviceprovider.o(i._ZNK9QListData7isEmptyEv)
    thunk{-8} to QVideoWidgetBackend::~QVideoWidgetBackend__deallocating() 0x0002d631   Thumb Code    14  qvideowidget.o(i._ZThn8_N19QVideoWidgetBackendD0Ev)
    thunk{-8} to QVideoWidgetBackend::~QVideoWidgetBackend() 0x0002d63f   Thumb Code    14  qvideowidget.o(i._ZThn8_N19QVideoWidgetBackendD1Ev)
    thunk{-8} to QVideoWidgetControlBackend::~QVideoWidgetControlBackend__deallocating() 0x0002d64d   Thumb Code    14  qvideowidget.o(i._ZThn8_N26QVideoWidgetControlBackendD0Ev)
    thunk{-8} to QVideoWidgetControlBackend::~QVideoWidgetControlBackend() 0x0002d65b   Thumb Code    14  qvideowidget.o(i._ZThn8_N26QVideoWidgetControlBackendD1Ev)
    thunk{-8} to QMediaServiceProviderPlugin::~QMediaServiceProviderPlugin__deallocating() 0x0002d669   Thumb Code    14  qmediaserviceprovider.o(i._ZThn8_N27QMediaServiceProviderPluginD0Ev)
    thunk{-8} to QMediaServiceProviderPlugin::~QMediaServiceProviderPlugin() 0x0002d677   Thumb Code    14  qmediaserviceprovider.o(i._ZThn8_N27QMediaServiceProviderPluginD1Ev)
    operator delete (void*, void*)           0x0002d685   Thumb Code     2  qmediaobject.o(i._ZdlPvS_)
    operator ==(const QByteArray&, const QByteArray&) 0x0002d687   Thumb Code    68  qmediaserviceprovider.o(i._ZeqRK10QByteArrayS1_)
    operator ==(const QSize&, const QSize&)  0x0002d6cb   Thumb Code    26  qmediaencodersettings.o(i._ZeqRK5QSizeS1_)
    operator !=(const QByteArray&, const char*) 0x0002d6e5   Thumb Code    54  qvideosurfaceformat.o(i._ZneRK10QByteArrayPKc)
    operator new(unsigned, void*)            0x0002d71b   Thumb Code     6  qmediaobject.o(i._ZnwjPv)
    appendUnique<QAudioFormat::SampleType>(QList<T1>&, const QList<T1>&) 0x0002d721   Thumb Code   274  qaudiodeviceinfo_symbian_p.o(t._Z12appendUniqueIN12QAudioFormat10SampleTypeEEvR5QListIT_ERKS4_)
    appendUnique<QAudioFormat::Endian>(QList<T1>&, const QList<T1>&) 0x0002d847   Thumb Code   274  qaudiodeviceinfo_symbian_p.o(t._Z12appendUniqueIN12QAudioFormat6EndianEEvR5QListIT_ERKS4_)
    appendUnique<int>(QList<T1>&, const QList<T1>&) 0x0002d96d   Thumb Code   274  qaudiodeviceinfo_symbian_p.o(t._Z12appendUniqueIiEvR5QListIT_ERKS2_)
    qobject_cast<QFactoryInterface*>(QObject*) 0x0002da95   Thumb Code    24  qmediapluginloader.o(t._Z12qobject_castIP17QFactoryInterfaceET_P7QObject)
    qobject_cast<QAudioSystemPlugin*>(QObject*) 0x0002dab1   Thumb Code    26  qaudiopluginloader.o(t._Z12qobject_castIP18QAudioSystemPluginET_P7QObject)
    qobject_cast<QMediaBindableInterface*>(QObject*) 0x0002dad1   Thumb Code    24  qmediaobject.o(t._Z12qobject_castIP23QMediaBindableInterfaceET_P7QObject)
    qobject_cast<QMediaPlaylistIOInterface*>(QObject*) 0x0002db15   Thumb Code    24  qmediaplaylist.o(t._Z12qobject_castIP25QMediaPlaylistIOInterfaceET_P7QObject)
    qobject_cast<QAudioSystemFactoryInterface*>(QObject*) 0x0002db31   Thumb Code    24  qaudiodevicefactory.o(t._Z12qobject_castIP28QAudioSystemFactoryInterfaceET_P7QObject)
    qobject_cast<QMediaServiceFeaturesInterface*>(QObject*) 0x0002db4d   Thumb Code    24  qmediaserviceprovider.o(t._Z12qobject_castIP30QMediaServiceFeaturesInterfaceET_P7QObject)
    qobject_cast<QMediaServiceSupportedDevicesInterface*>(QObject*) 0x0002db69   Thumb Code    24  qmediaserviceprovider.o(t._Z12qobject_castIP38QMediaServiceSupportedDevicesInterfaceET_P7QObject)
    qobject_cast<QMediaServiceSupportedFormatsInterface*>(QObject*) 0x0002dbb9   Thumb Code    24  qmediaserviceprovider.o(t._Z12qobject_castIP38QMediaServiceSupportedFormatsInterfaceET_P7QObject)
    qvariant_cast<QNetworkRequest>(const QVariant&) 0x0002dc09   Thumb Code   136  qmediaresource.o(t._Z13qvariant_castI15QNetworkRequestET_RK8QVariant)
    qvariant_cast<QSize>(const QVariant&)    0x0002dcab   Thumb Code    94  qvideosurfaceformat.o(t._Z13qvariant_castI5QSizeET_RK8QVariant)
    qvariant_cast<QString>(const QVariant&)  0x0002dd09   Thumb Code   106  qmediaresource.o(t._Z13qvariant_castI7QStringET_RK8QVariant)
    qvariant_cast<int>(const QVariant&)      0x0002dd7d   Thumb Code    62  qmediaresource.o(t._Z13qvariant_castIiET_RK8QVariant)
    qMapLessThanKey<QUrl>(const T1&, const T1&) 0x0002ddbb   Thumb Code    16  qsamplecache_p.o(t._Z15qMapLessThanKeyI4QUrlEbRKT_S3_)
    qMapLessThanKey<QString>(const T1&, const T1&) 0x0002ddcb   Thumb Code    16  qmediapluginloader.o(t._Z15qMapLessThanKeyI7QStringEbRKT_S3_)
    qMapLessThanKey<QCamera::LockStatus>(const T1&, const T1&) 0x0002dddb   Thumb Code    18  qcamera.o(t._Z15qMapLessThanKeyIN7QCamera10LockStatusEEbRKT_S4_)
    qMapLessThanKey<QMediaService*>(const T1&, const T1&) 0x0002dded   Thumb Code    18  qmediaserviceprovider.o(t._Z15qMapLessThanKeyIP13QMediaServiceEbRKT_S4_)
    qMapLessThanKey<int>(const T1&, const T1&) 0x0002ddff   Thumb Code    18  qmediaresource.o(t._Z15qMapLessThanKeyIiEbRKT_S2_)
    qRegisterMetaType<QNetworkRequest>(const char*, T1*) 0x0002de11   Thumb Code    56  qmediaresource.o(t._Z17qRegisterMetaTypeI15QNetworkRequestEiPKcPT_)
    qRegisterMetaType<QVideoSurfaceFormat>(const char*, T1*) 0x0002de51   Thumb Code    56  qabstractvideosurface.o(t._Z17qRegisterMetaTypeI19QVideoSurfaceFormatEiPKcPT_)
    qRegisterMetaType<QFlags<QCameraFocus::FocusMode>>(const char*, T1*) 0x0002de91   Thumb Code   100  qcamerafocus.o(t._Z17qRegisterMetaTypeI6QFlagsIN12QCameraFocus9FocusModeEEEiPKcPT_)
    qRegisterMetaType<QFlags<QCameraExposure::FlashMode>>(const char*, T1*) 0x0002df1d   Thumb Code   100  qcameraexposure.o(t._Z17qRegisterMetaTypeI6QFlagsIN15QCameraExposure9FlashModeEEEiPKcPT_)
    qRegisterMetaType<QVideoFrame::PixelFormat>(const char*, T1*) 0x0002dfa9   Thumb Code    56  qvideosurfaceformat.o(t._Z17qRegisterMetaTypeIN11QVideoFrame11PixelFormatEEiPKcPT_)
    qRegisterMetaType<QCameraFocus::FocusPointMode>(const char*, T1*) 0x0002dfe9   Thumb Code   100  qcamerafocus.o(t._Z17qRegisterMetaTypeIN12QCameraFocus14FocusPointModeEEiPKcPT_)
    qRegisterMetaType<QMediaPlayer::MediaStatus>(const char*, T1*) 0x0002e079   Thumb Code   100  qmediaplayer.o(t._Z17qRegisterMetaTypeIN12QMediaPlayer11MediaStatusEEiPKcPT_)
    qRegisterMetaType<QMediaPlayer::Error>(const char*, T1*) 0x0002e105   Thumb Code   100  qmediaplayer.o(t._Z17qRegisterMetaTypeIN12QMediaPlayer5ErrorEEiPKcPT_)
    qRegisterMetaType<QMediaPlayer::State>(const char*, T1*) 0x0002e189   Thumb Code   100  qmediaplayer.o(t._Z17qRegisterMetaTypeIN12QMediaPlayer5StateEEiPKcPT_)
    qRegisterMetaType<QMediaRecorder::Error>(const char*, T1*) 0x0002e20d   Thumb Code   100  qmediarecorder.o(t._Z17qRegisterMetaTypeIN14QMediaRecorder5ErrorEEiPKcPT_)
    qRegisterMetaType<QMediaRecorder::State>(const char*, T1*) 0x0002e295   Thumb Code   100  qmediarecorder.o(t._Z17qRegisterMetaTypeIN14QMediaRecorder5StateEEiPKcPT_)
    qRegisterMetaType<QCameraExposure::ExposureMode>(const char*, T1*) 0x0002e31d   Thumb Code   100  qcameraexposure.o(t._Z17qRegisterMetaTypeIN15QCameraExposure12ExposureModeEEiPKcPT_)
    qRegisterMetaType<QCameraExposure::MeteringMode>(const char*, T1*) 0x0002e3ad   Thumb Code   100  qcameraexposure.o(t._Z17qRegisterMetaTypeIN15QCameraExposure12MeteringModeEEiPKcPT_)
    qRegisterMetaType<QCameraImageCapture::Error>(const char*, T1*) 0x0002e43d   Thumb Code   110  qcameraimagecapture.o(t._Z17qRegisterMetaTypeIN19QCameraImageCapture5ErrorEEiPKcPT_)
    qRegisterMetaType<QVideoSurfaceFormat::YCbCrColorSpace>(const char*, T1*) 0x0002e4d5   Thumb Code    56  qvideosurfaceformat.o(t._Z17qRegisterMetaTypeIN19QVideoSurfaceFormat15YCbCrColorSpaceEEiPKcPT_)
    qRegisterMetaType<QVideoSurfaceFormat::Direction>(const char*, T1*) 0x0002e515   Thumb Code    56  qvideosurfaceformat.o(t._Z17qRegisterMetaTypeIN19QVideoSurfaceFormat9DirectionEEiPKcPT_)
    qRegisterMetaType<QAbstractVideoBuffer::HandleType>(const char*, T1*) 0x0002e555   Thumb Code    56  qvideosurfaceformat.o(t._Z17qRegisterMetaTypeIN20QAbstractVideoBuffer10HandleTypeEEiPKcPT_)
    qRegisterMetaType<QAbstractVideoSurface::Error>(const char*, T1*) 0x0002e595   Thumb Code    56  qabstractvideosurface.o(t._Z17qRegisterMetaTypeIN21QAbstractVideoSurface5ErrorEEiPKcPT_)
    qRegisterMetaType<QAudio::Mode>(const char*, T1*) 0x0002e5d5   Thumb Code    56  qaudio.o(t._Z17qRegisterMetaTypeIN6QAudio4ModeEEiPKcPT_)
    qRegisterMetaType<QAudio::Error>(const char*, T1*) 0x0002e615   Thumb Code    56  qaudio.o(t._Z17qRegisterMetaTypeIN6QAudio5ErrorEEiPKcPT_)
    qRegisterMetaType<QAudio::State>(const char*, T1*) 0x0002e655   Thumb Code    56  qaudio.o(t._Z17qRegisterMetaTypeIN6QAudio5StateEEiPKcPT_)
    qRegisterMetaType<QCamera::LockStatus>(const char*, T1*) 0x0002e695   Thumb Code   100  qcamera.o(t._Z17qRegisterMetaTypeIN7QCamera10LockStatusEEiPKcPT_)
    qRegisterMetaType<QCamera::LockChangeReason>(const char*, T1*) 0x0002e719   Thumb Code   100  qcamera.o(t._Z17qRegisterMetaTypeIN7QCamera16LockChangeReasonEEiPKcPT_)
    qRegisterMetaType<QCamera::Error>(const char*, T1*) 0x0002e7a5   Thumb Code   100  qcamera.o(t._Z17qRegisterMetaTypeIN7QCamera5ErrorEEiPKcPT_)
    qRegisterMetaType<QCamera::State>(const char*, T1*) 0x0002e825   Thumb Code   100  qcamera.o(t._Z17qRegisterMetaTypeIN7QCamera5StateEEiPKcPT_)
    qRegisterMetaType<QCamera::Status>(const char*, T1*) 0x0002e8a5   Thumb Code   100  qcamera.o(t._Z17qRegisterMetaTypeIN7QCamera6StatusEEiPKcPT_)
    qRegisterMetaType<QCamera::LockType>(const char*, T1*) 0x0002e925   Thumb Code   100  qcamera.o(t._Z17qRegisterMetaTypeIN7QCamera8LockTypeEEiPKcPT_)
    qRegisterMetaType<CMMFBuffer*>(const char*, T1*) 0x0002e9a9   Thumb Code    56  qaudioinput_symbian_p.o(t._Z17qRegisterMetaTypeIP10CMMFBufferEiPKcPT_)
    qRegisterMetaType<CCoeControl*>(const char*, T1*) 0x0002e9e9   Thumb Code    56  qgraphicsvideoitem_symbian.o(t._Z17qRegisterMetaTypeIP11CCoeControlEiPKcPT_)
    qVariantFromValue<QAbstractVideoBuffer::HandleType>(const T1&) 0x0002ea29   Thumb Code    30  qvideosurfaceformat.o(t._Z17qVariantFromValueIN20QAbstractVideoBuffer10HandleTypeEE8QVariantRKT_)
    qVariantCanConvert<QSize>(const QVariant&) 0x0002ea47   Thumb Code    24  qvideosurfaceformat.o(t._Z18qVariantCanConvertI5QSizeEbRK8QVariant)
    qForeachContainerNew<QStringList>(const T1&) 0x0002ea5f   Thumb Code   108  qmediapluginloader.o(t._Z20qForeachContainerNewI11QStringListE17QForeachContainerIT_ERKS2_)
    qForeachContainerNew<QList<QByteArray>>(const T1&) 0x0002ead5   Thumb Code   126  qaudiodevicefactory.o(t._Z20qForeachContainerNewI5QListI10QByteArrayEE17QForeachContainerIT_ERKS4_)
    qForeachContainerNew<QList<QMediaTimeInterval>>(const T1&) 0x0002eb5d   Thumb Code   102  qmediatimerange.o(t._Z20qForeachContainerNewI5QListI18QMediaTimeIntervalEE17QForeachContainerIT_ERKS4_)
    qForeachContainerNew<QList<QPointer<QObject>>>(const T1&) 0x0002ebcd   Thumb Code   126  qgraphicsvideoitem_symbian.o(t._Z20qForeachContainerNewI5QListI8QPointerI7QObjectEEE17QForeachContainerIT_ERKS6_)
    qForeachContainerNew<QList<QVariant>>(const T1&) 0x0002ec55   Thumb Code   126  qcameraexposure.o(t._Z20qForeachContainerNewI5QListI8QVariantEE17QForeachContainerIT_ERKS4_)
    qForeachContainerNew<QList<QMediaServiceProviderPlugin*>>(const T1&) 0x0002ecdd   Thumb Code   126  qmediaserviceprovider.o(t._Z20qForeachContainerNewI5QListIP27QMediaServiceProviderPluginEE17QForeachContainerIT_ERKS5_)
    qForeachContainerNew<QList<QObject*>>(const T1&) 0x0002ed65   Thumb Code   126  qmediaserviceprovider.o(t._Z20qForeachContainerNewI5QListIP7QObjectEE17QForeachContainerIT_ERKS5_)
    qForeachContainerNew<QList<int>>(const T1&) 0x0002eded   Thumb Code   102  qaudiodeviceinfo.o(t._Z20qForeachContainerNewI5QListIiEE17QForeachContainerIT_ERKS3_)
    qMetaTypeDeleteHelper<QNetworkRequest>(T1*) 0x0002ee5d   Thumb Code    22  qmediaresource.o(t._Z21qMetaTypeDeleteHelperI15QNetworkRequestEvPT_)
    qMetaTypeDeleteHelper<QVideoSurfaceFormat>(T1*) 0x0002ee73   Thumb Code    22  qabstractvideosurface.o(t._Z21qMetaTypeDeleteHelperI19QVideoSurfaceFormatEvPT_)
    qMetaTypeDeleteHelper<QFlags<QCameraFocus::FocusMode>>(T1*) 0x0002ee89   Thumb Code    12  qcamerafocus.o(t._Z21qMetaTypeDeleteHelperI6QFlagsIN12QCameraFocus9FocusModeEEEvPT_)
    qMetaTypeDeleteHelper<QFlags<QCameraExposure::FlashMode>>(T1*) 0x0002ee95   Thumb Code    12  qcameraexposure.o(t._Z21qMetaTypeDeleteHelperI6QFlagsIN15QCameraExposure9FlashModeEEEvPT_)
    qMetaTypeDeleteHelper<QVideoFrame::PixelFormat>(T1*) 0x0002eea1   Thumb Code    12  qvideosurfaceformat.o(t._Z21qMetaTypeDeleteHelperIN11QVideoFrame11PixelFormatEEvPT_)
    qMetaTypeDeleteHelper<QCameraFocus::FocusPointMode>(T1*) 0x0002eead   Thumb Code    12  qcamerafocus.o(t._Z21qMetaTypeDeleteHelperIN12QCameraFocus14FocusPointModeEEvPT_)
    qMetaTypeDeleteHelper<QMediaPlayer::MediaStatus>(T1*) 0x0002eeb9   Thumb Code    12  qmediaplayer.o(t._Z21qMetaTypeDeleteHelperIN12QMediaPlayer11MediaStatusEEvPT_)
    qMetaTypeDeleteHelper<QMediaPlayer::Error>(T1*) 0x0002eec5   Thumb Code    12  qmediaplayer.o(t._Z21qMetaTypeDeleteHelperIN12QMediaPlayer5ErrorEEvPT_)
    qMetaTypeDeleteHelper<QMediaPlayer::State>(T1*) 0x0002eed1   Thumb Code    12  qmediaplayer.o(t._Z21qMetaTypeDeleteHelperIN12QMediaPlayer5StateEEvPT_)
    qMetaTypeDeleteHelper<QMediaRecorder::Error>(T1*) 0x0002eedd   Thumb Code    12  qmediarecorder.o(t._Z21qMetaTypeDeleteHelperIN14QMediaRecorder5ErrorEEvPT_)
    qMetaTypeDeleteHelper<QMediaRecorder::State>(T1*) 0x0002eee9   Thumb Code    12  qmediarecorder.o(t._Z21qMetaTypeDeleteHelperIN14QMediaRecorder5StateEEvPT_)
    qMetaTypeDeleteHelper<QCameraExposure::ExposureMode>(T1*) 0x0002eef5   Thumb Code    12  qcameraexposure.o(t._Z21qMetaTypeDeleteHelperIN15QCameraExposure12ExposureModeEEvPT_)
    qMetaTypeDeleteHelper<QCameraExposure::MeteringMode>(T1*) 0x0002ef01   Thumb Code    12  qcameraexposure.o(t._Z21qMetaTypeDeleteHelperIN15QCameraExposure12MeteringModeEEvPT_)
    qMetaTypeDeleteHelper<QCameraImageCapture::Error>(T1*) 0x0002ef0d   Thumb Code    12  qcameraimagecapture.o(t._Z21qMetaTypeDeleteHelperIN19QCameraImageCapture5ErrorEEvPT_)
    qMetaTypeDeleteHelper<QVideoSurfaceFormat::YCbCrColorSpace>(T1*) 0x0002ef19   Thumb Code    12  qvideosurfaceformat.o(t._Z21qMetaTypeDeleteHelperIN19QVideoSurfaceFormat15YCbCrColorSpaceEEvPT_)
    qMetaTypeDeleteHelper<QVideoSurfaceFormat::Direction>(T1*) 0x0002ef25   Thumb Code    12  qvideosurfaceformat.o(t._Z21qMetaTypeDeleteHelperIN19QVideoSurfaceFormat9DirectionEEvPT_)
    qMetaTypeDeleteHelper<QAbstractVideoBuffer::HandleType>(T1*) 0x0002ef31   Thumb Code    12  qvideosurfaceformat.o(t._Z21qMetaTypeDeleteHelperIN20QAbstractVideoBuffer10HandleTypeEEvPT_)
    qMetaTypeDeleteHelper<QAbstractVideoSurface::Error>(T1*) 0x0002ef3d   Thumb Code    12  qabstractvideosurface.o(t._Z21qMetaTypeDeleteHelperIN21QAbstractVideoSurface5ErrorEEvPT_)
    qMetaTypeDeleteHelper<QAudio::Mode>(T1*) 0x0002ef49   Thumb Code    12  qaudio.o(t._Z21qMetaTypeDeleteHelperIN6QAudio4ModeEEvPT_)
    qMetaTypeDeleteHelper<QAudio::Error>(T1*) 0x0002ef55   Thumb Code    12  qaudio.o(t._Z21qMetaTypeDeleteHelperIN6QAudio5ErrorEEvPT_)
    qMetaTypeDeleteHelper<QAudio::State>(T1*) 0x0002ef61   Thumb Code    12  qaudio.o(t._Z21qMetaTypeDeleteHelperIN6QAudio5StateEEvPT_)
    qMetaTypeDeleteHelper<QCamera::LockStatus>(T1*) 0x0002ef6d   Thumb Code    12  qcamera.o(t._Z21qMetaTypeDeleteHelperIN7QCamera10LockStatusEEvPT_)
    qMetaTypeDeleteHelper<QCamera::LockChangeReason>(T1*) 0x0002ef79   Thumb Code    12  qcamera.o(t._Z21qMetaTypeDeleteHelperIN7QCamera16LockChangeReasonEEvPT_)
    qMetaTypeDeleteHelper<QCamera::Error>(T1*) 0x0002ef85   Thumb Code    12  qcamera.o(t._Z21qMetaTypeDeleteHelperIN7QCamera5ErrorEEvPT_)
    qMetaTypeDeleteHelper<QCamera::State>(T1*) 0x0002ef91   Thumb Code    12  qcamera.o(t._Z21qMetaTypeDeleteHelperIN7QCamera5StateEEvPT_)
    qMetaTypeDeleteHelper<QCamera::Status>(T1*) 0x0002ef9d   Thumb Code    12  qcamera.o(t._Z21qMetaTypeDeleteHelperIN7QCamera6StatusEEvPT_)
    qMetaTypeDeleteHelper<QCamera::LockType>(T1*) 0x0002efa9   Thumb Code    12  qcamera.o(t._Z21qMetaTypeDeleteHelperIN7QCamera8LockTypeEEvPT_)
    qMetaTypeDeleteHelper<CMMFBuffer*>(T1*)  0x0002efb5   Thumb Code    12  qaudioinput_symbian_p.o(t._Z21qMetaTypeDeleteHelperIP10CMMFBufferEvPT_)
    qMetaTypeDeleteHelper<CCoeControl*>(T1*) 0x0002efc1   Thumb Code    12  qgraphicsvideoitem_symbian.o(t._Z21qMetaTypeDeleteHelperIP11CCoeControlEvPT_)
    qMetaTypeConstructHelper<QNetworkRequest>(const T1*) 0x0002efcd   Thumb Code   108  qmediaresource.o(t._Z24qMetaTypeConstructHelperI15QNetworkRequestEPvPKT_)
    qMetaTypeConstructHelper<QVideoSurfaceFormat>(const T1*) 0x0002f061   Thumb Code    80  qabstractvideosurface.o(t._Z24qMetaTypeConstructHelperI19QVideoSurfaceFormatEPvPKT_)
    qMetaTypeConstructHelper<QFlags<QCameraFocus::FocusMode>>(const T1*) 0x0002f0cd   Thumb Code    80  qcamerafocus.o(t._Z24qMetaTypeConstructHelperI6QFlagsIN12QCameraFocus9FocusModeEEEPvPKT_)
    qMetaTypeConstructHelper<QFlags<QCameraExposure::FlashMode>>(const T1*) 0x0002f121   Thumb Code    80  qcameraexposure.o(t._Z24qMetaTypeConstructHelperI6QFlagsIN15QCameraExposure9FlashModeEEEPvPKT_)
    qMetaTypeConstructHelper<QVideoFrame::PixelFormat>(const T1*) 0x0002f175   Thumb Code    50  qvideosurfaceformat.o(t._Z24qMetaTypeConstructHelperIN11QVideoFrame11PixelFormatEEPvPKT_)
    qMetaTypeConstructHelper<QCameraFocus::FocusPointMode>(const T1*) 0x0002f1a7   Thumb Code    50  qcamerafocus.o(t._Z24qMetaTypeConstructHelperIN12QCameraFocus14FocusPointModeEEPvPKT_)
    qMetaTypeConstructHelper<QMediaPlayer::MediaStatus>(const T1*) 0x0002f1d9   Thumb Code    50  qmediaplayer.o(t._Z24qMetaTypeConstructHelperIN12QMediaPlayer11MediaStatusEEPvPKT_)
    qMetaTypeConstructHelper<QMediaPlayer::Error>(const T1*) 0x0002f20b   Thumb Code    50  qmediaplayer.o(t._Z24qMetaTypeConstructHelperIN12QMediaPlayer5ErrorEEPvPKT_)
    qMetaTypeConstructHelper<QMediaPlayer::State>(const T1*) 0x0002f23d   Thumb Code    50  qmediaplayer.o(t._Z24qMetaTypeConstructHelperIN12QMediaPlayer5StateEEPvPKT_)
    qMetaTypeConstructHelper<QMediaRecorder::Error>(const T1*) 0x0002f26f   Thumb Code    50  qmediarecorder.o(t._Z24qMetaTypeConstructHelperIN14QMediaRecorder5ErrorEEPvPKT_)
    qMetaTypeConstructHelper<QMediaRecorder::State>(const T1*) 0x0002f2a1   Thumb Code    50  qmediarecorder.o(t._Z24qMetaTypeConstructHelperIN14QMediaRecorder5StateEEPvPKT_)
    qMetaTypeConstructHelper<QCameraExposure::ExposureMode>(const T1*) 0x0002f2d3   Thumb Code    50  qcameraexposure.o(t._Z24qMetaTypeConstructHelperIN15QCameraExposure12ExposureModeEEPvPKT_)
    qMetaTypeConstructHelper<QCameraExposure::MeteringMode>(const T1*) 0x0002f305   Thumb Code    50  qcameraexposure.o(t._Z24qMetaTypeConstructHelperIN15QCameraExposure12MeteringModeEEPvPKT_)
    qMetaTypeConstructHelper<QCameraImageCapture::Error>(const T1*) 0x0002f337   Thumb Code    50  qcameraimagecapture.o(t._Z24qMetaTypeConstructHelperIN19QCameraImageCapture5ErrorEEPvPKT_)
    qMetaTypeConstructHelper<QVideoSurfaceFormat::YCbCrColorSpace>(const T1*) 0x0002f369   Thumb Code    50  qvideosurfaceformat.o(t._Z24qMetaTypeConstructHelperIN19QVideoSurfaceFormat15YCbCrColorSpaceEEPvPKT_)
    qMetaTypeConstructHelper<QVideoSurfaceFormat::Direction>(const T1*) 0x0002f39b   Thumb Code    50  qvideosurfaceformat.o(t._Z24qMetaTypeConstructHelperIN19QVideoSurfaceFormat9DirectionEEPvPKT_)
    qMetaTypeConstructHelper<QAbstractVideoBuffer::HandleType>(const T1*) 0x0002f3cd   Thumb Code    50  qvideosurfaceformat.o(t._Z24qMetaTypeConstructHelperIN20QAbstractVideoBuffer10HandleTypeEEPvPKT_)
    qMetaTypeConstructHelper<QAbstractVideoSurface::Error>(const T1*) 0x0002f3ff   Thumb Code    50  qabstractvideosurface.o(t._Z24qMetaTypeConstructHelperIN21QAbstractVideoSurface5ErrorEEPvPKT_)
    qMetaTypeConstructHelper<QAudio::Mode>(const T1*) 0x0002f431   Thumb Code    50  qaudio.o(t._Z24qMetaTypeConstructHelperIN6QAudio4ModeEEPvPKT_)
    qMetaTypeConstructHelper<QAudio::Error>(const T1*) 0x0002f463   Thumb Code    50  qaudio.o(t._Z24qMetaTypeConstructHelperIN6QAudio5ErrorEEPvPKT_)
    qMetaTypeConstructHelper<QAudio::State>(const T1*) 0x0002f495   Thumb Code    50  qaudio.o(t._Z24qMetaTypeConstructHelperIN6QAudio5StateEEPvPKT_)
    qMetaTypeConstructHelper<QCamera::LockStatus>(const T1*) 0x0002f4c7   Thumb Code    50  qcamera.o(t._Z24qMetaTypeConstructHelperIN7QCamera10LockStatusEEPvPKT_)
    qMetaTypeConstructHelper<QCamera::LockChangeReason>(const T1*) 0x0002f4f9   Thumb Code    50  qcamera.o(t._Z24qMetaTypeConstructHelperIN7QCamera16LockChangeReasonEEPvPKT_)
    qMetaTypeConstructHelper<QCamera::Error>(const T1*) 0x0002f52b   Thumb Code    50  qcamera.o(t._Z24qMetaTypeConstructHelperIN7QCamera5ErrorEEPvPKT_)
    qMetaTypeConstructHelper<QCamera::State>(const T1*) 0x0002f55d   Thumb Code    50  qcamera.o(t._Z24qMetaTypeConstructHelperIN7QCamera5StateEEPvPKT_)
    qMetaTypeConstructHelper<QCamera::Status>(const T1*) 0x0002f58f   Thumb Code    50  qcamera.o(t._Z24qMetaTypeConstructHelperIN7QCamera6StatusEEPvPKT_)
    qMetaTypeConstructHelper<QCamera::LockType>(const T1*) 0x0002f5c1   Thumb Code    50  qcamera.o(t._Z24qMetaTypeConstructHelperIN7QCamera8LockTypeEEPvPKT_)
    qMetaTypeConstructHelper<CMMFBuffer*>(const T1*) 0x0002f5f3   Thumb Code    50  qaudioinput_symbian_p.o(t._Z24qMetaTypeConstructHelperIP10CMMFBufferEPvPKT_)
    qMetaTypeConstructHelper<CCoeControl*>(const T1*) 0x0002f625   Thumb Code    50  qgraphicsvideoitem_symbian.o(t._Z24qMetaTypeConstructHelperIP11CCoeControlEPvPKT_)
    qAbs<float>(const T1&)                   0x0002f657   Thumb Code    28  qmediaencodersettings.o(t._Z4qAbsIfET_RKS0_)
    qMax<int>(const T1&, const T1&)          0x0002f673   Thumb Code    18  qmediaimageviewer.o(t._Z4qMaxIiERKT_S2_S2_)
    qBound<int>(const T1&, const T1&, const T1&) 0x0002f685   Thumb Code    38  qvideowidget.o(t._Z6qBoundIiERKT_S2_S2_S2_)
    qMakePair<int, int>(const T1&, const T2&) 0x0002f6ab   Thumb Code    22  qradiotuner.o(t._Z9qMakePairIiiE5QPairIT_T0_ERKS1_RKS2_)
    QMapIterator<int, int>::QMapIterator(const QMap<int, int>&) 0x0002f6c1   Thumb Code    78  qaudiodeviceinfo.o(t._ZN12QMapIteratorIiiEC1ERK4QMapIiiE)
    QMapIterator<int, int>::QMapIterator__sub_object(const QMap<int, int>&) 0x0002f6c1   Thumb Code     0  qaudiodeviceinfo.o(t._ZN12QMapIteratorIiiEC1ERK4QMapIiiE)
    QMetaTypeId2<QNetworkRequest>::qt_metatype_id() 0x0002f715   Thumb Code    54  qmediaresource.o(t._ZN12QMetaTypeId2I15QNetworkRequestE14qt_metatype_idEv)
    QMetaTypeId2<QVideoSurfaceFormat>::qt_metatype_id() 0x0002f761   Thumb Code    44  qabstractvideosurface.o(t._ZN12QMetaTypeId2I19QVideoSurfaceFormatE14qt_metatype_idEv)
    QMetaTypeId2<QVideoFrame::PixelFormat>::qt_metatype_id() 0x0002f7a5   Thumb Code    44  qvideosurfaceformat.o(t._ZN12QMetaTypeId2IN11QVideoFrame11PixelFormatEE14qt_metatype_idEv)
    QMetaTypeId2<QVideoSurfaceFormat::YCbCrColorSpace>::qt_metatype_id() 0x0002f7f1   Thumb Code    44  qvideosurfaceformat.o(t._ZN12QMetaTypeId2IN19QVideoSurfaceFormat15YCbCrColorSpaceEE14qt_metatype_idEv)
    QMetaTypeId2<QVideoSurfaceFormat::Direction>::qt_metatype_id() 0x0002f849   Thumb Code    44  qvideosurfaceformat.o(t._ZN12QMetaTypeId2IN19QVideoSurfaceFormat9DirectionEE14qt_metatype_idEv)
    QMetaTypeId2<QAbstractVideoBuffer::HandleType>::qt_metatype_id() 0x0002f899   Thumb Code    44  qvideosurfaceformat.o(t._ZN12QMetaTypeId2IN20QAbstractVideoBuffer10HandleTypeEE14qt_metatype_idEv)
    QMetaTypeId2<QAbstractVideoSurface::Error>::qt_metatype_id() 0x0002f8ed   Thumb Code    44  qabstractvideosurface.o(t._ZN12QMetaTypeId2IN21QAbstractVideoSurface5ErrorEE14qt_metatype_idEv)
    QMetaTypeId2<QAudio::Mode>::qt_metatype_id() 0x0002f93d   Thumb Code    44  qaudio.o(t._ZN12QMetaTypeId2IN6QAudio4ModeEE14qt_metatype_idEv)
    QMetaTypeId2<QAudio::Error>::qt_metatype_id() 0x0002f97d   Thumb Code    44  qaudio.o(t._ZN12QMetaTypeId2IN6QAudio5ErrorEE14qt_metatype_idEv)
    QMetaTypeId2<QAudio::State>::qt_metatype_id() 0x0002f9bd   Thumb Code    44  qaudio.o(t._ZN12QMetaTypeId2IN6QAudio5StateEE14qt_metatype_idEv)
    QMetaTypeId2<CCoeControl*>::qt_metatype_id() 0x0002f9fd   Thumb Code    54  qgraphicsvideoitem_symbian.o(t._ZN12QMetaTypeId2IP11CCoeControlE14qt_metatype_idEv)
    SymbianAudio::Utils::convertValue<TMMFMonoStereo, int>(const T1*, const T2*, int, T1, T2&) 0x0002fa3d   Thumb Code    44  qaudio_symbian_p.o(t._ZN12SymbianAudio5Utils12convertValueI14TMMFMonoStereoiEEbPKT_PKT0_iS3_RS6_)
    SymbianAudio::Utils::convertValue<TMMFSampleRate, int>(const T1*, const T2*, int, T1, T2&) 0x0002fa69   Thumb Code    44  qaudio_symbian_p.o(t._ZN12SymbianAudio5Utils12convertValueI14TMMFSampleRateiEEbPKT_PKT0_iS3_RS6_)
    SymbianAudio::Utils::convertValue<int, TMMFMonoStereo>(const T1*, const T2*, int, T1, T2&) 0x0002fa95   Thumb Code    44  qaudio_symbian_p.o(t._ZN12SymbianAudio5Utils12convertValueIi14TMMFMonoStereoEEbPKT_PKT0_iS3_RS6_)
    SymbianAudio::Utils::convertValue<int, TMMFSampleRate>(const T1*, const T2*, int, T1, T2&) 0x0002fac1   Thumb Code    44  qaudio_symbian_p.o(t._ZN12SymbianAudio5Utils12convertValueIi14TMMFSampleRateEEbPKT_PKT0_iS3_RS6_)
    SymbianAudio::Utils::findValue<TMMFMonoStereo>(const T1*, int, T1, int&) 0x0002faed   Thumb Code    34  qaudio_symbian_p.o(t._ZN12SymbianAudio5Utils9findValueI14TMMFMonoStereoEEbPKT_iS3_Ri)
    SymbianAudio::Utils::findValue<TMMFSampleRate>(const T1*, int, T1, int&) 0x0002fb0f   Thumb Code    34  qaudio_symbian_p.o(t._ZN12SymbianAudio5Utils9findValueI14TMMFSampleRateEEbPKT_iS3_Ri)
    SymbianAudio::Utils::findValue<int>(const T1*, int, T1, int&) 0x0002fb31   Thumb Code    34  qaudio_symbian_p.o(t._ZN12SymbianAudio5Utils9findValueIiEEbPKT_iS2_Ri)
    QHashDummyNode<QString, QHashDummyValue>::QHashDummyNode(const QString&) 0x0002fb53   Thumb Code    24  qaudiopluginloader.o(t._ZN14QHashDummyNodeI7QString15QHashDummyValueEC1ERKS0_)
    QHashDummyNode<QString, QHashDummyValue>::QHashDummyNode__sub_object(const QString&) 0x0002fb53   Thumb Code     0  qaudiopluginloader.o(t._ZN14QHashDummyNodeI7QString15QHashDummyValueEC1ERKS0_)
    QScopedPointer<QTimer, QScopedPointerDeleter<QTimer>>::~QScopedPointer() 0x0002fb6b   Thumb Code    28  qaudioinput_symbian_p.o(t._ZN14QScopedPointerI6QTimer21QScopedPointerDeleterIS0_EED1Ev)
    QScopedPointer<QTimer, QScopedPointerDeleter<QTimer>>::~QScopedPointer__sub_object() 0x0002fb6b   Thumb Code     0  qaudioinput_symbian_p.o(t._ZN14QScopedPointerI6QTimer21QScopedPointerDeleterIS0_EED1Ev)
    QScopedPointer<SymbianAudio::DevSoundWrapper, QScopedPointerDeleter<SymbianAudio::DevSoundWrapper>>::~QScopedPointer() 0x0002fb87   Thumb Code    28  qaudiodeviceinfo_symbian_p.o(t._ZN14QScopedPointerIN12SymbianAudio15DevSoundWrapperE21QScopedPointerDeleterIS1_EED1Ev)
    QScopedPointer<SymbianAudio::DevSoundWrapper, QScopedPointerDeleter<SymbianAudio::DevSoundWrapper>>::~QScopedPointer__sub_object() 0x0002fb87   Thumb Code     0  qaudiodeviceinfo_symbian_p.o(t._ZN14QScopedPointerIN12SymbianAudio15DevSoundWrapperE21QScopedPointerDeleterIS1_EED1Ev)
    QSharedDataPointer<QAudioFormatPrivate>::detach_helper() 0x0002fba3   Thumb Code   156  qaudioformat.o(t._ZN18QSharedDataPointerI19QAudioFormatPrivateE13detach_helperEv)
    QSharedDataPointer<QAudioFormatPrivate>::~QSharedDataPointer() 0x0002fc4f   Thumb Code    42  qaudioformat.o(t._ZN18QSharedDataPointerI19QAudioFormatPrivateED1Ev)
    QSharedDataPointer<QAudioFormatPrivate>::~QSharedDataPointer__sub_object() 0x0002fc4f   Thumb Code     0  qaudioformat.o(t._ZN18QSharedDataPointerI19QAudioFormatPrivateED1Ev)
    QSharedDataPointer<QAudioFormatPrivate>::operator ->() 0x0002fc79   Thumb Code    40  qaudioformat.o(t._ZN18QSharedDataPointerI19QAudioFormatPrivateEptEv)
    QSharedDataPointer<QCameraFocusZoneData>::detach_helper() 0x0002fca1   Thumb Code   112  qcamerafocus.o(t._ZN18QSharedDataPointerI20QCameraFocusZoneDataE13detach_helperEv)
    QSharedDataPointer<QCameraFocusZoneData>::QSharedDataPointer(QCameraFocusZoneData*) 0x0002fd21   Thumb Code    24  qcamerafocus.o(t._ZN18QSharedDataPointerI20QCameraFocusZoneDataEC1EPS0_)
    QSharedDataPointer<QCameraFocusZoneData>::QSharedDataPointer__sub_object(QCameraFocusZoneData*) 0x0002fd21   Thumb Code     0  qcamerafocus.o(t._ZN18QSharedDataPointerI20QCameraFocusZoneDataEC1EPS0_)
    QSharedDataPointer<QCameraFocusZoneData>::~QSharedDataPointer() 0x0002fd39   Thumb Code    30  qcamerafocus.o(t._ZN18QSharedDataPointerI20QCameraFocusZoneDataED1Ev)
    QSharedDataPointer<QCameraFocusZoneData>::~QSharedDataPointer__sub_object() 0x0002fd39   Thumb Code     0  qcamerafocus.o(t._ZN18QSharedDataPointerI20QCameraFocusZoneDataED1Ev)
    QSharedDataPointer<QMediaContentPrivate>::detach_helper() 0x0002fd57   Thumb Code   114  qmediacontent.o(t._ZN18QSharedDataPointerI20QMediaContentPrivateE13detach_helperEv)
    QSharedDataPointer<QMediaContentPrivate>::QSharedDataPointer(QMediaContentPrivate*) 0x0002fdd9   Thumb Code    24  qmediacontent.o(t._ZN18QSharedDataPointerI20QMediaContentPrivateEC1EPS0_)
    QSharedDataPointer<QMediaContentPrivate>::QSharedDataPointer__sub_object(QMediaContentPrivate*) 0x0002fdd9   Thumb Code     0  qmediacontent.o(t._ZN18QSharedDataPointerI20QMediaContentPrivateEC1EPS0_)
    QSharedDataPointer<QMediaContentPrivate>::~QSharedDataPointer() 0x0002fdf1   Thumb Code    42  qmediacontent.o(t._ZN18QSharedDataPointerI20QMediaContentPrivateED1Ev)
    QSharedDataPointer<QMediaContentPrivate>::~QSharedDataPointer__sub_object() 0x0002fdf1   Thumb Code     0  qmediacontent.o(t._ZN18QSharedDataPointerI20QMediaContentPrivateED1Ev)
    QSharedDataPointer<QMediaContentPrivate>::operator ->() 0x0002fe1b   Thumb Code    34  qmediacontent.o(t._ZN18QSharedDataPointerI20QMediaContentPrivateEptEv)
    QSharedDataPointer<QMediaTimeRangePrivate>::detach_helper() 0x0002fe3d   Thumb Code    82  qmediatimerange.o(t._ZN18QSharedDataPointerI22QMediaTimeRangePrivateE13detach_helperEv)
    QSharedDataPointer<QMediaTimeRangePrivate>::QSharedDataPointer(QMediaTimeRangePrivate*) 0x0002fe9f   Thumb Code    24  qmediatimerange.o(t._ZN18QSharedDataPointerI22QMediaTimeRangePrivateEC1EPS0_)
    QSharedDataPointer<QMediaTimeRangePrivate>::QSharedDataPointer__sub_object(QMediaTimeRangePrivate*) 0x0002fe9f   Thumb Code     0  qmediatimerange.o(t._ZN18QSharedDataPointerI22QMediaTimeRangePrivateEC1EPS0_)
    QSharedDataPointer<QMediaTimeRangePrivate>::~QSharedDataPointer() 0x0002feb7   Thumb Code    42  qmediatimerange.o(t._ZN18QSharedDataPointerI22QMediaTimeRangePrivateED1Ev)
    QSharedDataPointer<QMediaTimeRangePrivate>::~QSharedDataPointer__sub_object() 0x0002feb7   Thumb Code     0  qmediatimerange.o(t._ZN18QSharedDataPointerI22QMediaTimeRangePrivateED1Ev)
    QSharedDataPointer<QMediaTimeRangePrivate>::operator ->() 0x0002fee1   Thumb Code    34  qmediatimerange.o(t._ZN18QSharedDataPointerI22QMediaTimeRangePrivateEptEv)
    QSharedDataPointer<QAudioDeviceInfoPrivate>::QSharedDataPointer(QAudioDeviceInfoPrivate*) 0x0002ff03   Thumb Code    24  qaudiodeviceinfo.o(t._ZN18QSharedDataPointerI23QAudioDeviceInfoPrivateEC1EPS0_)
    QSharedDataPointer<QAudioDeviceInfoPrivate>::QSharedDataPointer__sub_object(QAudioDeviceInfoPrivate*) 0x0002ff03   Thumb Code     0  qaudiodeviceinfo.o(t._ZN18QSharedDataPointerI23QAudioDeviceInfoPrivateEC1EPS0_)
    QSharedDataPointer<QAudioDeviceInfoPrivate>::~QSharedDataPointer() 0x0002ff1b   Thumb Code    42  qaudiodeviceinfo.o(t._ZN18QSharedDataPointerI23QAudioDeviceInfoPrivateED1Ev)
    QSharedDataPointer<QAudioDeviceInfoPrivate>::~QSharedDataPointer__sub_object() 0x0002ff1b   Thumb Code     0  qaudiodeviceinfo.o(t._ZN18QSharedDataPointerI23QAudioDeviceInfoPrivateED1Ev)
    QSharedDataPointer<QVideoSurfaceFormatPrivate>::detach_helper() 0x0002ff45   Thumb Code    82  qvideosurfaceformat.o(t._ZN18QSharedDataPointerI26QVideoSurfaceFormatPrivateE13detach_helperEv)
    QSharedDataPointer<QVideoSurfaceFormatPrivate>::QSharedDataPointer(QVideoSurfaceFormatPrivate*) 0x0002ffa7   Thumb Code    24  qvideosurfaceformat.o(t._ZN18QSharedDataPointerI26QVideoSurfaceFormatPrivateEC1EPS0_)
    QSharedDataPointer<QVideoSurfaceFormatPrivate>::QSharedDataPointer__sub_object(QVideoSurfaceFormatPrivate*) 0x0002ffa7   Thumb Code     0  qvideosurfaceformat.o(t._ZN18QSharedDataPointerI26QVideoSurfaceFormatPrivateEC1EPS0_)
    QSharedDataPointer<QVideoSurfaceFormatPrivate>::~QSharedDataPointer() 0x0002ffbf   Thumb Code    42  qvideosurfaceformat.o(t._ZN18QSharedDataPointerI26QVideoSurfaceFormatPrivateED1Ev)
    QSharedDataPointer<QVideoSurfaceFormatPrivate>::~QSharedDataPointer__sub_object() 0x0002ffbf   Thumb Code     0  qvideosurfaceformat.o(t._ZN18QSharedDataPointerI26QVideoSurfaceFormatPrivateED1Ev)
    QSharedDataPointer<QVideoSurfaceFormatPrivate>::operator ->() 0x0002ffe9   Thumb Code    34  qvideosurfaceformat.o(t._ZN18QSharedDataPointerI26QVideoSurfaceFormatPrivateEptEv)
    QSharedDataPointer<QAudioEncoderSettingsPrivate>::detach_helper() 0x0003000b   Thumb Code   164  qmediaencodersettings.o(t._ZN18QSharedDataPointerI28QAudioEncoderSettingsPrivateE13detach_helperEv)
    QSharedDataPointer<QAudioEncoderSettingsPrivate>::~QSharedDataPointer() 0x000300bf   Thumb Code    42  qmediaencodersettings.o(t._ZN18QSharedDataPointerI28QAudioEncoderSettingsPrivateED1Ev)
    QSharedDataPointer<QAudioEncoderSettingsPrivate>::~QSharedDataPointer__sub_object() 0x000300bf   Thumb Code     0  qmediaencodersettings.o(t._ZN18QSharedDataPointerI28QAudioEncoderSettingsPrivateED1Ev)
    QSharedDataPointer<QAudioEncoderSettingsPrivate>::operator ->() 0x000300e9   Thumb Code    34  qmediaencodersettings.o(t._ZN18QSharedDataPointerI28QAudioEncoderSettingsPrivateEptEv)
    QSharedDataPointer<QImageEncoderSettingsPrivate>::detach_helper() 0x0003010b   Thumb Code   156  qmediaencodersettings.o(t._ZN18QSharedDataPointerI28QImageEncoderSettingsPrivateE13detach_helperEv)
    QSharedDataPointer<QImageEncoderSettingsPrivate>::~QSharedDataPointer() 0x000301bb   Thumb Code    42  qmediaencodersettings.o(t._ZN18QSharedDataPointerI28QImageEncoderSettingsPrivateED1Ev)
    QSharedDataPointer<QImageEncoderSettingsPrivate>::~QSharedDataPointer__sub_object() 0x000301bb   Thumb Code     0  qmediaencodersettings.o(t._ZN18QSharedDataPointerI28QImageEncoderSettingsPrivateED1Ev)
    QSharedDataPointer<QImageEncoderSettingsPrivate>::operator ->() 0x000301e5   Thumb Code    34  qmediaencodersettings.o(t._ZN18QSharedDataPointerI28QImageEncoderSettingsPrivateEptEv)
    QSharedDataPointer<QVideoEncoderSettingsPrivate>::detach_helper() 0x00030207   Thumb Code   180  qmediaencodersettings.o(t._ZN18QSharedDataPointerI28QVideoEncoderSettingsPrivateE13detach_helperEv)
    QSharedDataPointer<QVideoEncoderSettingsPrivate>::~QSharedDataPointer() 0x000302cf   Thumb Code    42  qmediaencodersettings.o(t._ZN18QSharedDataPointerI28QVideoEncoderSettingsPrivateED1Ev)
    QSharedDataPointer<QVideoEncoderSettingsPrivate>::~QSharedDataPointer__sub_object() 0x000302cf   Thumb Code     0  qmediaencodersettings.o(t._ZN18QSharedDataPointerI28QVideoEncoderSettingsPrivateED1Ev)
    QSharedDataPointer<QVideoEncoderSettingsPrivate>::operator ->() 0x000302f9   Thumb Code    34  qmediaencodersettings.o(t._ZN18QSharedDataPointerI28QVideoEncoderSettingsPrivateEptEv)
    QSharedDataPointer<QMediaServiceProviderHintPrivate>::detach_helper() 0x0003031b   Thumb Code   174  qmediaserviceprovider.o(t._ZN18QSharedDataPointerI32QMediaServiceProviderHintPrivateE13detach_helperEv)
    QSharedDataPointer<QMediaServiceProviderHintPrivate>::QSharedDataPointer(QMediaServiceProviderHintPrivate*) 0x000303f1   Thumb Code    24  qmediaserviceprovider.o(t._ZN18QSharedDataPointerI32QMediaServiceProviderHintPrivateEC1EPS0_)
    QSharedDataPointer<QMediaServiceProviderHintPrivate>::QSharedDataPointer__sub_object(QMediaServiceProviderHintPrivate*) 0x000303f1   Thumb Code     0  qmediaserviceprovider.o(t._ZN18QSharedDataPointerI32QMediaServiceProviderHintPrivateEC1EPS0_)
    QSharedDataPointer<QMediaServiceProviderHintPrivate>::~QSharedDataPointer() 0x00030409   Thumb Code    42  qmediaserviceprovider.o(t._ZN18QSharedDataPointerI32QMediaServiceProviderHintPrivateED1Ev)
    QSharedDataPointer<QMediaServiceProviderHintPrivate>::~QSharedDataPointer__sub_object() 0x00030409   Thumb Code     0  qmediaserviceprovider.o(t._ZN18QSharedDataPointerI32QMediaServiceProviderHintPrivateED1Ev)
    QSharedDataPointer<QMediaServiceProviderHintPrivate>::operator ->() 0x00030433   Thumb Code    34  qmediaserviceprovider.o(t._ZN18QSharedDataPointerI32QMediaServiceProviderHintPrivateEptEv)
    QGlobalStaticDeleter<QAudioPluginLoader>::~QGlobalStaticDeleter() 0x00030455   Thumb Code    42  qaudiodevicefactory.o(t._ZN20QGlobalStaticDeleterI18QAudioPluginLoaderED1Ev)
    QGlobalStaticDeleter<QAudioPluginLoader>::~QGlobalStaticDeleter__sub_object() 0x00030455   Thumb Code     0  qaudiodevicefactory.o(t._ZN20QGlobalStaticDeleterI18QAudioPluginLoaderED1Ev)
    QGlobalStaticDeleter<QMediaPluginLoader>::~QGlobalStaticDeleter() 0x0003047f   Thumb Code    42  qmediaplaylist.o(t._ZN20QGlobalStaticDeleterI18QMediaPluginLoaderED1Ev)
    QGlobalStaticDeleter<QMediaPluginLoader>::~QGlobalStaticDeleter__sub_object() 0x0003047f   Thumb Code     0  qmediaplaylist.o(t._ZN20QGlobalStaticDeleterI18QMediaPluginLoaderED1Ev)
    QGlobalStaticDeleter<QPluginServiceProvider>::~QGlobalStaticDeleter() 0x000304a9   Thumb Code    38  qmediaserviceprovider.o(t._ZN20QGlobalStaticDeleterI22QPluginServiceProviderED1Ev)
    QGlobalStaticDeleter<QPluginServiceProvider>::~QGlobalStaticDeleter__sub_object() 0x000304a9   Thumb Code     0  qmediaserviceprovider.o(t._ZN20QGlobalStaticDeleterI22QPluginServiceProviderED1Ev)
    QGlobalStaticDeleter<QMediaPlaylistNullProvider>::~QGlobalStaticDeleter() 0x000304cf   Thumb Code    38  qmediaplaylistnavigator.o(t._ZN20QGlobalStaticDeleterI26QMediaPlaylistNullProviderED1Ev)
    QGlobalStaticDeleter<QMediaPlaylistNullProvider>::~QGlobalStaticDeleter__sub_object() 0x000304cf   Thumb Code     0  qmediaplaylistnavigator.o(t._ZN20QGlobalStaticDeleterI26QMediaPlaylistNullProviderED1Ev)
    QGlobalStaticDeleter<QMap<QString, QList<QObject*>>>::~QGlobalStaticDeleter() 0x000304f5   Thumb Code    42  qmediapluginloader.o(t._ZN20QGlobalStaticDeleterI4QMapI7QString5QListIP7QObjectEEED1Ev)
    QGlobalStaticDeleter<QMap<QString, QList<QObject*>>>::~QGlobalStaticDeleter__sub_object() 0x000304f5   Thumb Code     0  qmediapluginloader.o(t._ZN20QGlobalStaticDeleterI4QMapI7QString5QListIP7QObjectEEED1Ev)
    QExplicitlySharedDataPointer<QVideoFramePrivate>::QExplicitlySharedDataPointer(QVideoFramePrivate*) 0x0003051f   Thumb Code    24  qvideoframe.o(t._ZN28QExplicitlySharedDataPointerI18QVideoFramePrivateEC1EPS0_)
    QExplicitlySharedDataPointer<QVideoFramePrivate>::QExplicitlySharedDataPointer__sub_object(QVideoFramePrivate*) 0x0003051f   Thumb Code     0  qvideoframe.o(t._ZN28QExplicitlySharedDataPointerI18QVideoFramePrivateEC1EPS0_)
    QExplicitlySharedDataPointer<QVideoFramePrivate>::~QExplicitlySharedDataPointer() 0x00030537   Thumb Code    42  qvideoframe.o(t._ZN28QExplicitlySharedDataPointerI18QVideoFramePrivateED1Ev)
    QExplicitlySharedDataPointer<QVideoFramePrivate>::~QExplicitlySharedDataPointer__sub_object() 0x00030537   Thumb Code     0  qvideoframe.o(t._ZN28QExplicitlySharedDataPointerI18QVideoFramePrivateED1Ev)
    QMap<QUrl, QSample*>::node_create(QMapData*, QMapData::Node**, const QUrl&, QSample*const &) 0x00030561   Thumb Code   118  qsamplecache_p.o(t._ZN4QMapI4QUrlP7QSampleE11node_createEP8QMapDataPPNS4_4NodeERKS0_RKS2_)
    QMap<QUrl, QSample*>::detach_helper()    0x000305eb   Thumb Code   146  qsamplecache_p.o(t._ZN4QMapI4QUrlP7QSampleE13detach_helperEv)
    QMap<QUrl, QSample*>::end()              0x00030685   Thumb Code    18  qsamplecache_p.o(t._ZN4QMapI4QUrlP7QSampleE3endEv)
    QMap<QUrl, QSample*>::begin()            0x00030697   Thumb Code    20  qsamplecache_p.o(t._ZN4QMapI4QUrlP7QSampleE5beginEv)
    QMap<QUrl, QSample*>::erase(QMap<QUrl, QSample*>::iterator) 0x000306ab   Thumb Code   246  qsamplecache_p.o(t._ZN4QMapI4QUrlP7QSampleE5eraseENS3_8iteratorE)
    QMap<QUrl, QSample*>::detach()           0x000307a1   Thumb Code    28  qsamplecache_p.o(t._ZN4QMapI4QUrlP7QSampleE6detachEv)
    QMap<QUrl, QSample*>::remove(const QUrl&) 0x000307bd   Thumb Code   254  qsamplecache_p.o(t._ZN4QMapI4QUrlP7QSampleE6removeERKS0_)
    QMap<QUrl, QSample*>::freeData(QMapData*) 0x000308bb   Thumb Code    56  qsamplecache_p.o(t._ZN4QMapI4QUrlP7QSampleE8freeDataEP8QMapData)
    QMap<QUrl, QSample*>::~QMap()            0x000308f3   Thumb Code    38  qsamplecache_p.o(t._ZN4QMapI4QUrlP7QSampleED1Ev)
    QMap<QUrl, QSample*>::~QMap__sub_object() 0x000308f3   Thumb Code     0  qsamplecache_p.o(t._ZN4QMapI4QUrlP7QSampleED1Ev)
    QMap<QString, QList<QObject*>>::node_create(QMapData*, QMapData::Node**, const QString&, const QList<QObject*>&) 0x00030919   Thumb Code   140  qmediapluginloader.o(t._ZN4QMapI7QString5QListIP7QObjectEE11node_createEP8QMapDataPPNS6_4NodeERKS0_RKS4_)
    QMap<QString, QList<QObject*>>::detach_helper() 0x000309cb   Thumb Code   146  qmediapluginloader.o(t._ZN4QMapI7QString5QListIP7QObjectEE13detach_helperEv)
    QMap<QString, QList<QObject*>>::freeData(QMapData*) 0x00030a65   Thumb Code    62  qmediapluginloader.o(t._ZN4QMapI7QString5QListIP7QObjectEE8freeDataEP8QMapData)
    QMap<QString, QList<QObject*>>::~QMap()  0x00030aa3   Thumb Code    38  qmediapluginloader.o(t._ZN4QMapI7QString5QListIP7QObjectEED1Ev)
    QMap<QString, QList<QObject*>>::~QMap__sub_object() 0x00030aa3   Thumb Code     0  qmediapluginloader.o(t._ZN4QMapI7QString5QListIP7QObjectEED1Ev)
    QMap<QString, QAudioDeviceInfoInternal::Capabilities>::node_create(QMapData*, QMapData::Node**, const QString&, const QAudioDeviceInfoInternal::Capabilities&) 0x00030ac9   Thumb Code   200  qaudiodeviceinfo_symbian_p.o(t._ZN4QMapI7QStringN24QAudioDeviceInfoInternal12CapabilitiesEE11node_createEP8QMapDataPPNS4_4NodeERKS0_RKS2_)
    QMap<QString, QAudioDeviceInfoInternal::Capabilities>::detach_helper() 0x00030be5   Thumb Code   146  qaudiodeviceinfo_symbian_p.o(t._ZN4QMapI7QStringN24QAudioDeviceInfoInternal12CapabilitiesEE13detach_helperEv)
    QMap<QString, QAudioDeviceInfoInternal::Capabilities>::freeData(QMapData*) 0x00030c7f   Thumb Code    62  qaudiodeviceinfo_symbian_p.o(t._ZN4QMapI7QStringN24QAudioDeviceInfoInternal12CapabilitiesEE8freeDataEP8QMapData)
    QMap<QString, QAudioDeviceInfoInternal::Capabilities>::~QMap() 0x00030cbd   Thumb Code    38  qaudiodeviceinfo_symbian_p.o(t._ZN4QMapI7QStringN24QAudioDeviceInfoInternal12CapabilitiesEED1Ev)
    QMap<QString, QAudioDeviceInfoInternal::Capabilities>::~QMap__sub_object() 0x00030cbd   Thumb Code     0  qaudiodeviceinfo_symbian_p.o(t._ZN4QMapI7QStringN24QAudioDeviceInfoInternal12CapabilitiesEED1Ev)
    QMap<QString, QAudioDeviceInfoInternal::Capabilities>::operator [](const QString&) 0x00030ce3   Thumb Code   106  qaudiodeviceinfo_symbian_p.o(t._ZN4QMapI7QStringN24QAudioDeviceInfoInternal12CapabilitiesEEixERKS0_)
    QMap<QString, QObject*>::insertMulti(const QString&, QObject*const &) 0x00030d57   Thumb Code    68  qmediapluginloader.o(t._ZN4QMapI7QStringP7QObjectE11insertMultiERKS0_RKS2_)
    QMap<QString, QObject*>::node_create(QMapData*, QMapData::Node**, const QString&, QObject*const &) 0x00030d9b   Thumb Code   118  qmediapluginloader.o(t._ZN4QMapI7QStringP7QObjectE11node_createEP8QMapDataPPNS4_4NodeERKS0_RKS2_)
    QMap<QString, QObject*>::detach_helper() 0x00030e25   Thumb Code   146  qmediapluginloader.o(t._ZN4QMapI7QStringP7QObjectE13detach_helperEv)
    QMap<QString, QObject*>::freeData(QMapData*) 0x00030ebf   Thumb Code    56  qmediaplaylist.o(t._ZN4QMapI7QStringP7QObjectE8freeDataEP8QMapData)
    QMap<QString, QObject*>::~QMap()         0x00030ef7   Thumb Code    38  qmediaplaylist.o(t._ZN4QMapI7QStringP7QObjectED1Ev)
    QMap<QString, QObject*>::~QMap__sub_object() 0x00030ef7   Thumb Code     0  qmediaplaylist.o(t._ZN4QMapI7QStringP7QObjectED1Ev)
    QMap<QCamera::LockStatus, int>::node_create(QMapData*, QMapData::Node**, const QCamera::LockStatus&, const int&) 0x00030f1d   Thumb Code    82  qcamera.o(t._ZN4QMapIN7QCamera10LockStatusEiE11node_createEP8QMapDataPPNS3_4NodeERKS1_RKi)
    QMap<QCamera::LockStatus, int>::detach_helper() 0x00030f73   Thumb Code   146  qcamera.o(t._ZN4QMapIN7QCamera10LockStatusEiE13detach_helperEv)
    QMap<QCamera::LockStatus, int>::insert(const QCamera::LockStatus&, const int&) 0x0003100d   Thumb Code    92  qcamera.o(t._ZN4QMapIN7QCamera10LockStatusEiE6insertERKS1_RKi)
    QMap<QCamera::LockStatus, int>::freeData(QMapData*) 0x00031069   Thumb Code    48  qcamera.o(t._ZN4QMapIN7QCamera10LockStatusEiE8freeDataEP8QMapData)
    QMap<QCamera::LockStatus, int>::~QMap()  0x00031099   Thumb Code    38  qcamera.o(t._ZN4QMapIN7QCamera10LockStatusEiED1Ev)
    QMap<QCamera::LockStatus, int>::~QMap__sub_object() 0x00031099   Thumb Code     0  qcamera.o(t._ZN4QMapIN7QCamera10LockStatusEiED1Ev)
    QMap<QMediaService*, QMediaServiceProviderPlugin*>::node_create(QMapData*, QMapData::Node**, QMediaService*const &, QMediaServiceProviderPlugin*const &) 0x000310bf   Thumb Code    82  qmediaserviceprovider.o(t._ZN4QMapIP13QMediaServiceP27QMediaServiceProviderPluginE11node_createEP8QMapDataPPNS5_4NodeERKS1_RKS3_)
    QMap<QMediaService*, QMediaServiceProviderPlugin*>::detach_helper() 0x00031115   Thumb Code   146  qmediaserviceprovider.o(t._ZN4QMapIP13QMediaServiceP27QMediaServiceProviderPluginE13detach_helperEv)
    QMap<QMediaService*, QMediaServiceProviderPlugin*>::take(QMediaService*const &) 0x000311af   Thumb Code   162  qmediaserviceprovider.o(t._ZN4QMapIP13QMediaServiceP27QMediaServiceProviderPluginE4takeERKS1_)
    QMap<QMediaService*, QMediaServiceProviderPlugin*>::detach() 0x00031251   Thumb Code    28  qmediaserviceprovider.o(t._ZN4QMapIP13QMediaServiceP27QMediaServiceProviderPluginE6detachEv)
    QMap<QMediaService*, QMediaServiceProviderPlugin*>::freeData(QMapData*) 0x0003126d   Thumb Code    24  qmediaserviceprovider.o(t._ZN4QMapIP13QMediaServiceP27QMediaServiceProviderPluginE8freeDataEP8QMapData)
    QMap<QMediaService*, QMediaServiceProviderPlugin*>::~QMap() 0x00031285   Thumb Code    38  qmediaserviceprovider.o(t._ZN4QMapIP13QMediaServiceP27QMediaServiceProviderPluginED1Ev)
    QMap<QMediaService*, QMediaServiceProviderPlugin*>::~QMap__sub_object() 0x00031285   Thumb Code     0  qmediaserviceprovider.o(t._ZN4QMapIP13QMediaServiceP27QMediaServiceProviderPluginED1Ev)
    QMap<int, QVariant>::node_create(QMapData*, QMapData::Node**, const int&, const QVariant&) 0x000312ab   Thumb Code   132  qmediaresource.o(t._ZN4QMapIi8QVariantE11node_createEP8QMapDataPPNS2_4NodeERKiRKS0_)
    QMap<int, QVariant>::detach_helper()     0x0003134b   Thumb Code   148  qmediaresource.o(t._ZN4QMapIi8QVariantE13detach_helperEv)
    QMap<int, QVariant>::detach()            0x000313e7   Thumb Code    28  qmediaresource.o(t._ZN4QMapIi8QVariantE6detachEv)
    QMap<int, QVariant>::insert(const int&, const QVariant&) 0x00031403   Thumb Code    82  qmediaresource.o(t._ZN4QMapIi8QVariantE6insertERKiRKS0_)
    QMap<int, QVariant>::remove(const int&)  0x00031455   Thumb Code   258  qmediaresource.o(t._ZN4QMapIi8QVariantE6removeERKi)
    QMap<int, QVariant>::freeData(QMapData*) 0x00031557   Thumb Code    58  qmediaresource.o(t._ZN4QMapIi8QVariantE8freeDataEP8QMapData)
    QMap<int, QVariant>::QMap()              0x00031591   Thumb Code    22  qmediaresource.o(t._ZN4QMapIi8QVariantEC1Ev)
    QMap<int, QVariant>::QMap__sub_object()  0x00031591   Thumb Code     0  qmediaresource.o(t._ZN4QMapIi8QVariantEC1Ev)
    QMap<int, QVariant>::~QMap()             0x000315ad   Thumb Code    38  qmediaresource.o(t._ZN4QMapIi8QVariantED1Ev)
    QMap<int, QVariant>::~QMap__sub_object() 0x000315ad   Thumb Code     0  qmediaresource.o(t._ZN4QMapIi8QVariantED1Ev)
    QMap<int, int>::node_create(QMapData*, QMapData::Node**, const int&, const int&) 0x000315d3   Thumb Code    82  qaudiodeviceinfo.o(t._ZN4QMapIiiE11node_createEP8QMapDataPPNS1_4NodeERKiS7_)
    QMap<int, int>::detach_helper()          0x00031629   Thumb Code   146  qaudiodeviceinfo.o(t._ZN4QMapIiiE13detach_helperEv)
    QMap<int, int>::detach()                 0x000316c3   Thumb Code    28  qaudiodeviceinfo.o(t._ZN4QMapIiiE6detachEv)
    QMap<int, int>::insert(const int&, const int&) 0x000316df   Thumb Code    74  qaudiodeviceinfo.o(t._ZN4QMapIiiE6insertERKiS2_)
    QMap<int, int>::freeData(QMapData*)      0x00031729   Thumb Code    24  qaudiodeviceinfo.o(t._ZN4QMapIiiE8freeDataEP8QMapData)
    QMap<int, int>::QMap()                   0x00031741   Thumb Code    22  qaudiodeviceinfo.o(t._ZN4QMapIiiEC1Ev)
    QMap<int, int>::QMap__sub_object()       0x00031741   Thumb Code     0  qaudiodeviceinfo.o(t._ZN4QMapIiiEC1Ev)
    QMap<int, int>::~QMap()                  0x0003175d   Thumb Code    38  qaudiodeviceinfo.o(t._ZN4QMapIiiED1Ev)
    QMap<int, int>::~QMap__sub_object()      0x0003175d   Thumb Code     0  qaudiodeviceinfo.o(t._ZN4QMapIiiED1Ev)
    QHash<QString, QHashDummyValue>::deleteNode2(QHashData::Node*) 0x00031783   Thumb Code    24  qaudiopluginloader.o(t._ZN5QHashI7QString15QHashDummyValueE11deleteNode2EPN9QHashData4NodeE)
    QHash<QString, QHashDummyValue>::detach_helper() 0x0003179d   Thumb Code    52  qaudiopluginloader.o(t._ZN5QHashI7QString15QHashDummyValueE13detach_helperEv)
    QHash<QString, QHashDummyValue>::duplicateNode(QHashData::Node*, void*) 0x000317d9   Thumb Code    44  qaudiopluginloader.o(t._ZN5QHashI7QString15QHashDummyValueE13duplicateNodeEPN9QHashData4NodeEPv)
    QHash<QString, QHashDummyValue>::insert(const QString&, const QHashDummyValue&) 0x00031811   Thumb Code   208  qaudiopluginloader.o(t._ZN5QHashI7QString15QHashDummyValueE6insertERKS0_RKS1_)
    QHash<QString, QHashDummyValue>::freeData(QHashData*) 0x000318ed   Thumb Code    16  qaudiopluginloader.o(t._ZN5QHashI7QString15QHashDummyValueE8freeDataEP9QHashData)
    QHash<QString, QHashDummyValue>::~QHash() 0x00031901   Thumb Code    30  qaudiopluginloader.o(t._ZN5QHashI7QString15QHashDummyValueED1Ev)
    QHash<QString, QHashDummyValue>::~QHash__sub_object() 0x00031901   Thumb Code     0  qaudiopluginloader.o(t._ZN5QHashI7QString15QHashDummyValueED1Ev)
    QHash<int, QHashDummyValue>::deleteNode2(QHashData::Node*) 0x0003191f   Thumb Code     6  qmediaobject.o(t._ZN5QHashIi15QHashDummyValueE11deleteNode2EPN9QHashData4NodeE)
    QHash<int, QHashDummyValue>::detach_helper() 0x00031925   Thumb Code    52  qmediaobject.o(t._ZN5QHashIi15QHashDummyValueE13detach_helperEv)
    QHash<int, QHashDummyValue>::duplicateNode(QHashData::Node*, void*) 0x00031961   Thumb Code    34  qmediaobject.o(t._ZN5QHashIi15QHashDummyValueE13duplicateNodeEPN9QHashData4NodeEPv)
    QHash<int, QHashDummyValue>::detach()    0x00031983   Thumb Code    28  qmediaobject.o(t._ZN5QHashIi15QHashDummyValueE6detachEv)
    QHash<int, QHashDummyValue>::insert(const int&, const QHashDummyValue&) 0x0003199f   Thumb Code   188  qmediaobject.o(t._ZN5QHashIi15QHashDummyValueE6insertERKiRKS0_)
    QHash<int, QHashDummyValue>::remove(const int&) 0x00031a5f   Thumb Code   230  qmediaobject.o(t._ZN5QHashIi15QHashDummyValueE6removeERKi)
    QHash<int, QHashDummyValue>::freeData(QHashData*) 0x00031b45   Thumb Code    16  qmediaobject.o(t._ZN5QHashIi15QHashDummyValueE8freeDataEP9QHashData)
    QHash<int, QHashDummyValue>::~QHash()    0x00031b59   Thumb Code    30  qmediaobject.o(t._ZN5QHashIi15QHashDummyValueED1Ev)
    QHash<int, QHashDummyValue>::~QHash__sub_object() 0x00031b59   Thumb Code     0  qmediaobject.o(t._ZN5QHashIi15QHashDummyValueED1Ev)
    QList<QByteArray>::detach_helper(int)    0x00031b77   Thumb Code    94  qmediaserviceprovider.o(t._ZN5QListI10QByteArrayE13detach_helperEi)
    QList<QByteArray>::detach_helper()       0x00031bdd   Thumb Code    16  qmediaimageviewerservice.o(t._ZN5QListI10QByteArrayE13detach_helperEv)
    QList<QByteArray>::node_destruct(QList<QByteArray>::Node*, QList<QByteArray>::Node*) 0x00031bed   Thumb Code    26  qmediaserviceprovider.o(t._ZN5QListI10QByteArrayE13node_destructEPNS1_4NodeES3_)
    QList<QByteArray>::node_construct(QList<QByteArray>::Node*, const QByteArray&) 0x00031c07   Thumb Code    36  qaudiodeviceinfo_symbian_p.o(t._ZN5QListI10QByteArrayE14node_constructEPNS1_4NodeERKS0_)
    QList<QByteArray>::detach_helper_grow(int, int) 0x00031c39   Thumb Code   208  qmediaserviceprovider.o(t._ZN5QListI10QByteArrayE18detach_helper_growEii)
    QList<QByteArray>::free(QListData::Data*) 0x00031d19   Thumb Code    52  qmediaserviceprovider.o(t._ZN5QListI10QByteArrayE4freeEPN9QListData4DataE)
    QList<QByteArray>::append(const QByteArray&) 0x00031d4d   Thumb Code   114  qaudiodeviceinfo_symbian_p.o(t._ZN5QListI10QByteArrayE6appendERKS0_)
    QList<QByteArray>::node_copy(QList<QByteArray>::Node*, QList<QByteArray>::Node*, QList<QByteArray>::Node*) 0x00031dd3   Thumb Code    82  qmediaserviceprovider.o(t._ZN5QListI10QByteArrayE9node_copyEPNS1_4NodeES3_S3_)
    QList<QByteArray>::QList(const QList<QByteArray>&) 0x00031e3b   Thumb Code    36  qvideosurfaceformat.o(t._ZN5QListI10QByteArrayEC1ERKS1_)
    QList<QByteArray>::QList__sub_object(const QList<QByteArray>&) 0x00031e3b   Thumb Code     0  qvideosurfaceformat.o(t._ZN5QListI10QByteArrayEC1ERKS1_)
    QList<QByteArray>::QList()               0x00031e61   Thumb Code    18  qmediaserviceprovider.o(t._ZN5QListI10QByteArrayEC1Ev)
    QList<QByteArray>::QList__sub_object()   0x00031e61   Thumb Code     0  qmediaserviceprovider.o(t._ZN5QListI10QByteArrayEC1Ev)
    QList<QByteArray>::~QList()              0x00031e79   Thumb Code    32  qmediaimageviewerservice.o(t._ZN5QListI10QByteArrayED1Ev)
    QList<QByteArray>::~QList__sub_object()  0x00031e79   Thumb Code     0  qmediaimageviewerservice.o(t._ZN5QListI10QByteArrayED1Ev)
    QList<QByteArray>::operator <<(const QByteArray&) 0x00031e99   Thumb Code    18  qvideosurfaceformat.o(t._ZN5QListI10QByteArrayElsERKS0_)
    QList<QByteArray>::operator +=(const QList<QByteArray>&) 0x00031ead   Thumb Code   196  qvideosurfaceformat.o(t._ZN5QListI10QByteArrayEpLERKS1_)
    QList<QMediaContent>::detach_helper(int) 0x00031f7d   Thumb Code    94  qlocalmediaplaylistprovider.o(t._ZN5QListI13QMediaContentE13detach_helperEi)
    QList<QMediaContent>::detach_helper()    0x00031fe3   Thumb Code    16  qlocalmediaplaylistprovider.o(t._ZN5QListI13QMediaContentE13detach_helperEv)
    QList<QMediaContent>::node_destruct(QList<QMediaContent>::Node*) 0x00031ff3   Thumb Code    28  qlocalmediaplaylistprovider.o(t._ZN5QListI13QMediaContentE13node_destructEPNS1_4NodeE)
    QList<QMediaContent>::node_destruct(QList<QMediaContent>::Node*, QList<QMediaContent>::Node*) 0x0003200f   Thumb Code    38  qlocalmediaplaylistprovider.o(t._ZN5QListI13QMediaContentE13node_destructEPNS1_4NodeES3_)
    QList<QMediaContent>::node_construct(QList<QMediaContent>::Node*, const QMediaContent&) 0x00032035   Thumb Code    34  qlocalmediaplaylistprovider.o(t._ZN5QListI13QMediaContentE14node_constructEPNS1_4NodeERKS0_)
    QList<QMediaContent>::detach_helper_grow(int, int) 0x00032065   Thumb Code   208  qlocalmediaplaylistprovider.o(t._ZN5QListI13QMediaContentE18detach_helper_growEii)
    QList<QMediaContent>::free(QListData::Data*) 0x00032145   Thumb Code    58  qlocalmediaplaylistprovider.o(t._ZN5QListI13QMediaContentE4freeEPN9QListData4DataE)
    QList<QMediaContent>::begin()            0x0003217f   Thumb Code    26  qlocalmediaplaylistprovider.o(t._ZN5QListI13QMediaContentE5beginEv)
    QList<QMediaContent>::clear()            0x00032199   Thumb Code    28  qlocalmediaplaylistprovider.o(t._ZN5QListI13QMediaContentE5clearEv)
    QList<QMediaContent>::erase(QList<QMediaContent>::iterator, QList<QMediaContent>::iterator) 0x000321bf   Thumb Code   104  qlocalmediaplaylistprovider.o(t._ZN5QListI13QMediaContentE5eraseENS1_8iteratorES2_)
    QList<QMediaContent>::append(const QMediaContent&) 0x00032229   Thumb Code   106  qlocalmediaplaylistprovider.o(t._ZN5QListI13QMediaContentE6appendERKS0_)
    QList<QMediaContent>::detach()           0x000322a7   Thumb Code    24  qlocalmediaplaylistprovider.o(t._ZN5QListI13QMediaContentE6detachEv)
    QList<QMediaContent>::insert(int, const QMediaContent&) 0x000322bf   Thumb Code   106  qlocalmediaplaylistprovider.o(t._ZN5QListI13QMediaContentE6insertEiRKS0_)
    QList<QMediaContent>::node_copy(QList<QMediaContent>::Node*, QList<QMediaContent>::Node*, QList<QMediaContent>::Node*) 0x00032337   Thumb Code    92  qlocalmediaplaylistprovider.o(t._ZN5QListI13QMediaContentE9node_copyEPNS1_4NodeES3_S3_)
    QList<QMediaContent>::QList()            0x000323a9   Thumb Code    18  qlocalmediaplaylistprovider.o(t._ZN5QListI13QMediaContentEC1Ev)
    QList<QMediaContent>::QList__sub_object() 0x000323a9   Thumb Code     0  qlocalmediaplaylistprovider.o(t._ZN5QListI13QMediaContentEC1Ev)
    QList<QMediaContent>::~QList()           0x000323c1   Thumb Code    32  qlocalmediaplaylistprovider.o(t._ZN5QListI13QMediaContentED1Ev)
    QList<QMediaContent>::~QList__sub_object() 0x000323c1   Thumb Code     0  qlocalmediaplaylistprovider.o(t._ZN5QListI13QMediaContentED1Ev)
    QList<QMediaContent>::operator =(const QList<QMediaContent>&) 0x000323e1   Thumb Code    64  qlocalmediaplaylistprovider.o(t._ZN5QListI13QMediaContentEaSERKS1_)
    QList<QMediaContent>::operator +=(const QList<QMediaContent>&) 0x00032421   Thumb Code   146  qlocalmediaplaylistprovider.o(t._ZN5QListI13QMediaContentEpLERKS1_)
    QList<QMediaResource>::detach_helper(int) 0x000324c1   Thumb Code    94  qmediacontent.o(t._ZN5QListI14QMediaResourceE13detach_helperEi)
    QList<QMediaResource>::detach_helper()   0x00032527   Thumb Code    16  qmediaimageviewerservice.o(t._ZN5QListI14QMediaResourceE13detach_helperEv)
    QList<QMediaResource>::node_destruct(QList<QMediaResource>::Node*, QList<QMediaResource>::Node*) 0x00032537   Thumb Code    38  qmediacontent.o(t._ZN5QListI14QMediaResourceE13node_destructEPNS1_4NodeES3_)
    QList<QMediaResource>::node_construct(QList<QMediaResource>::Node*, const QMediaResource&) 0x0003255d   Thumb Code    34  qmediacontent.o(t._ZN5QListI14QMediaResourceE14node_constructEPNS1_4NodeERKS0_)
    QList<QMediaResource>::detach_helper_grow(int, int) 0x0003258d   Thumb Code   208  qmediacontent.o(t._ZN5QListI14QMediaResourceE18detach_helper_growEii)
    QList<QMediaResource>::free(QListData::Data*) 0x0003266d   Thumb Code    58  qmediacontent.o(t._ZN5QListI14QMediaResourceE4freeEPN9QListData4DataE)
    QList<QMediaResource>::begin()           0x000326a7   Thumb Code    40  qmediaimageviewerservice.o(t._ZN5QListI14QMediaResourceE5beginEv)
    QList<QMediaResource>::clear()           0x000326cf   Thumb Code    28  qmediaimageviewerservice.o(t._ZN5QListI14QMediaResourceE5clearEv)
    QList<QMediaResource>::append(const QMediaResource&) 0x000326f5   Thumb Code   106  qmediacontent.o(t._ZN5QListI14QMediaResourceE6appendERKS0_)
    QList<QMediaResource>::node_copy(QList<QMediaResource>::Node*, QList<QMediaResource>::Node*, QList<QMediaResource>::Node*) 0x00032773   Thumb Code    92  qmediacontent.o(t._ZN5QListI14QMediaResourceE9node_copyEPNS1_4NodeES3_S3_)
    QList<QMediaResource>::QList(const QList<QMediaResource>&) 0x000327e5   Thumb Code    36  qmediacontent.o(t._ZN5QListI14QMediaResourceEC1ERKS1_)
    QList<QMediaResource>::QList__sub_object(const QList<QMediaResource>&) 0x000327e5   Thumb Code     0  qmediacontent.o(t._ZN5QListI14QMediaResourceEC1ERKS1_)
    QList<QMediaResource>::QList()           0x00032809   Thumb Code    18  qmediaimageviewerservice.o(t._ZN5QListI14QMediaResourceEC1Ev)
    QList<QMediaResource>::QList__sub_object() 0x00032809   Thumb Code     0  qmediaimageviewerservice.o(t._ZN5QListI14QMediaResourceEC1Ev)
    QList<QMediaResource>::~QList()          0x00032821   Thumb Code    32  qmediaimageviewerservice.o(t._ZN5QListI14QMediaResourceED1Ev)
    QList<QMediaResource>::~QList__sub_object() 0x00032821   Thumb Code     0  qmediaimageviewerservice.o(t._ZN5QListI14QMediaResourceED1Ev)
    QList<QMediaResource>::operator =(const QList<QMediaResource>&) 0x00032841   Thumb Code    64  qmediaimageviewerservice.o(t._ZN5QListI14QMediaResourceEaSERKS1_)
    QList<QAudioDeviceInfo>::node_destruct(QList<QAudioDeviceInfo>::Node*, QList<QAudioDeviceInfo>::Node*) 0x00032881   Thumb Code    38  qaudiodevicefactory.o(t._ZN5QListI16QAudioDeviceInfoE13node_destructEPNS1_4NodeES3_)
    QList<QAudioDeviceInfo>::node_construct(QList<QAudioDeviceInfo>::Node*, const QAudioDeviceInfo&) 0x000328a7   Thumb Code    34  qaudiodevicefactory.o(t._ZN5QListI16QAudioDeviceInfoE14node_constructEPNS1_4NodeERKS0_)
    QList<QAudioDeviceInfo>::detach_helper_grow(int, int) 0x000328d7   Thumb Code   208  qaudiodevicefactory.o(t._ZN5QListI16QAudioDeviceInfoE18detach_helper_growEii)
    QList<QAudioDeviceInfo>::free(QListData::Data*) 0x000329b7   Thumb Code    58  qaudiodevicefactory.o(t._ZN5QListI16QAudioDeviceInfoE4freeEPN9QListData4DataE)
    QList<QAudioDeviceInfo>::append(const QAudioDeviceInfo&) 0x000329f1   Thumb Code   106  qaudiodevicefactory.o(t._ZN5QListI16QAudioDeviceInfoE6appendERKS0_)
    QList<QAudioDeviceInfo>::node_copy(QList<QAudioDeviceInfo>::Node*, QList<QAudioDeviceInfo>::Node*, QList<QAudioDeviceInfo>::Node*) 0x00032a6f   Thumb Code    92  qaudiodevicefactory.o(t._ZN5QListI16QAudioDeviceInfoE9node_copyEPNS1_4NodeES3_S3_)
    QList<QAudioDeviceInfo>::~QList()        0x00032ae1   Thumb Code    32  qaudiodevicefactory.o(t._ZN5QListI16QAudioDeviceInfoED1Ev)
    QList<QAudioDeviceInfo>::~QList__sub_object() 0x00032ae1   Thumb Code     0  qaudiodevicefactory.o(t._ZN5QListI16QAudioDeviceInfoED1Ev)
    QList<QCameraFocusZone>::detach_helper(int) 0x00032b01   Thumb Code   206  qcamerafocus.o(t._ZN5QListI16QCameraFocusZoneE13detach_helperEi)
    QList<QCameraFocusZone>::detach_helper() 0x00032bef   Thumb Code    16  qcamerafocus.o(t._ZN5QListI16QCameraFocusZoneE13detach_helperEv)
    QList<QCameraFocusZone>::free(QListData::Data*) 0x00032bff   Thumb Code    82  qcamerafocus.o(t._ZN5QListI16QCameraFocusZoneE4freeEPN9QListData4DataE)
    QList<QCameraFocusZone>::~QList()        0x00032c51   Thumb Code    32  qcamerafocus.o(t._ZN5QListI16QCameraFocusZoneED1Ev)
    QList<QCameraFocusZone>::~QList__sub_object() 0x00032c51   Thumb Code     0  qcamerafocus.o(t._ZN5QListI16QCameraFocusZoneED1Ev)
    QList<QMediaTimeInterval>::detach_helper(int) 0x00032c71   Thumb Code    94  qmediatimerange.o(t._ZN5QListI18QMediaTimeIntervalE13detach_helperEi)
    QList<QMediaTimeInterval>::detach_helper() 0x00032cd7   Thumb Code    16  qmediatimerange.o(t._ZN5QListI18QMediaTimeIntervalE13detach_helperEv)
    QList<QMediaTimeInterval>::node_destruct(QList<QMediaTimeInterval>::Node*, QList<QMediaTimeInterval>::Node*) 0x00032ce7   Thumb Code    26  qmediatimerange.o(t._ZN5QListI18QMediaTimeIntervalE13node_destructEPNS1_4NodeES3_)
    QList<QMediaTimeInterval>::node_construct(QList<QMediaTimeInterval>::Node*, const QMediaTimeInterval&) 0x00032d01   Thumb Code    34  qmediatimerange.o(t._ZN5QListI18QMediaTimeIntervalE14node_constructEPNS1_4NodeERKS0_)
    QList<QMediaTimeInterval>::detach_helper_grow(int, int) 0x00032d31   Thumb Code   208  qmediatimerange.o(t._ZN5QListI18QMediaTimeIntervalE18detach_helper_growEii)
    QList<QMediaTimeInterval>::free(QListData::Data*) 0x00032e11   Thumb Code    58  qmediatimerange.o(t._ZN5QListI18QMediaTimeIntervalE4freeEPN9QListData4DataE)
    QList<QMediaTimeInterval>::clear()       0x00032e4b   Thumb Code    76  qmediatimerange.o(t._ZN5QListI18QMediaTimeIntervalE5clearEv)
    QList<QMediaTimeInterval>::append(const QMediaTimeInterval&) 0x00032ea1   Thumb Code   106  qmediatimerange.o(t._ZN5QListI18QMediaTimeIntervalE6appendERKS0_)
    QList<QMediaTimeInterval>::detach()      0x00032f1f   Thumb Code    24  qmediatimerange.o(t._ZN5QListI18QMediaTimeIntervalE6detachEv)
    QList<QMediaTimeInterval>::removeAt(int) 0x00032f37   Thumb Code    62  qmediatimerange.o(t._ZN5QListI18QMediaTimeIntervalE8removeAtEi)
    QList<QMediaTimeInterval>::node_copy(QList<QMediaTimeInterval>::Node*, QList<QMediaTimeInterval>::Node*, QList<QMediaTimeInterval>::Node*) 0x00032f75   Thumb Code    80  qmediatimerange.o(t._ZN5QListI18QMediaTimeIntervalE9node_copyEPNS1_4NodeES3_S3_)
    QList<QMediaTimeInterval>::QList(const QList<QMediaTimeInterval>&) 0x00032fdb   Thumb Code    36  qmediatimerange.o(t._ZN5QListI18QMediaTimeIntervalEC1ERKS1_)
    QList<QMediaTimeInterval>::QList__sub_object(const QList<QMediaTimeInterval>&) 0x00032fdb   Thumb Code     0  qmediatimerange.o(t._ZN5QListI18QMediaTimeIntervalEC1ERKS1_)
    QList<QMediaTimeInterval>::QList()       0x00033001   Thumb Code    18  qmediatimerange.o(t._ZN5QListI18QMediaTimeIntervalEC1Ev)
    QList<QMediaTimeInterval>::QList__sub_object() 0x00033001   Thumb Code     0  qmediatimerange.o(t._ZN5QListI18QMediaTimeIntervalEC1Ev)
    QList<QMediaTimeInterval>::~QList()      0x00033019   Thumb Code    32  qmediatimerange.o(t._ZN5QListI18QMediaTimeIntervalED1Ev)
    QList<QMediaTimeInterval>::~QList__sub_object() 0x00033019   Thumb Code     0  qmediatimerange.o(t._ZN5QListI18QMediaTimeIntervalED1Ev)
    QList<QMediaTimeInterval>::operator [](int) 0x00033039   Thumb Code    28  qmediatimerange.o(t._ZN5QListI18QMediaTimeIntervalEixEi)
    QList<QSize>::detach_helper(int)         0x00033055   Thumb Code   192  qmediarecorder.o(t._ZN5QListI5QSizeE13detach_helperEi)
    QList<QSize>::detach_helper()            0x00033129   Thumb Code    16  qmediarecorder.o(t._ZN5QListI5QSizeE13detach_helperEv)
    QList<QSize>::free(QListData::Data*)     0x00033139   Thumb Code    64  qmediarecorder.o(t._ZN5QListI5QSizeE4freeEPN9QListData4DataE)
    QList<QSize>::~QList()                   0x00033179   Thumb Code    32  qmediarecorder.o(t._ZN5QListI5QSizeED1Ev)
    QList<QSize>::~QList__sub_object()       0x00033179   Thumb Code     0  qmediarecorder.o(t._ZN5QListI5QSizeED1Ev)
    QList<QString>::detach_helper(int)       0x00033199   Thumb Code    94  qmediaimageviewerservice.o(t._ZN5QListI7QStringE13detach_helperEi)
    QList<QString>::detach_helper()          0x000331ff   Thumb Code    16  qmediaobject.o(t._ZN5QListI7QStringE13detach_helperEv)
    QList<QString>::node_destruct(QList<QString>::Node*, QList<QString>::Node*) 0x0003320f   Thumb Code    26  qmediaimageviewerservice.o(t._ZN5QListI7QStringE13node_destructEPNS1_4NodeES3_)
    QList<QString>::node_construct(QList<QString>::Node*, const QString&) 0x00033229   Thumb Code    36  qmediaimageviewerservice.o(t._ZN5QListI7QStringE14node_constructEPNS1_4NodeERKS0_)
    QList<QString>::detach_helper_grow(int, int) 0x0003325b   Thumb Code   208  qmediaimageviewerservice.o(t._ZN5QListI7QStringE18detach_helper_growEii)
    QList<QString>::free(QListData::Data*)   0x0003333b   Thumb Code    52  qmediaimageviewerservice.o(t._ZN5QListI7QStringE4freeEPN9QListData4DataE)
    QList<QString>::append(const QString&)   0x00033371   Thumb Code   114  qmediaimageviewerservice.o(t._ZN5QListI7QStringE6appendERKS0_)
    QList<QString>::reserve(int)             0x000333f7   Thumb Code    46  qmediapluginloader.o(t._ZN5QListI7QStringE7reserveEi)
    QList<QString>::node_copy(QList<QString>::Node*, QList<QString>::Node*, QList<QString>::Node*) 0x00033425   Thumb Code    82  qmediaimageviewerservice.o(t._ZN5QListI7QStringE9node_copyEPNS1_4NodeES3_S3_)
    QList<QString>::removeAll(const QString&) 0x0003348d   Thumb Code   134  qaudiodeviceinfo.o(t._ZN5QListI7QStringE9removeAllERKS0_)
    QList<QString>::QList(const QList<QString>&) 0x00033523   Thumb Code    36  qmediapluginloader.o(t._ZN5QListI7QStringEC1ERKS1_)
    QList<QString>::QList__sub_object(const QList<QString>&) 0x00033523   Thumb Code     0  qmediapluginloader.o(t._ZN5QListI7QStringEC1ERKS1_)
    QList<QString>::QList()                  0x00033549   Thumb Code    18  qmediapluginloader.o(t._ZN5QListI7QStringEC1Ev)
    QList<QString>::QList__sub_object()      0x00033549   Thumb Code     0  qmediapluginloader.o(t._ZN5QListI7QStringEC1Ev)
    QList<QString>::~QList()                 0x00033561   Thumb Code    32  qmediaobject.o(t._ZN5QListI7QStringED1Ev)
    QList<QString>::~QList__sub_object()     0x00033561   Thumb Code     0  qmediaobject.o(t._ZN5QListI7QStringED1Ev)
    QList<QString>::operator =(const QList<QString>&) 0x00033581   Thumb Code    64  qmediaserviceprovider.o(t._ZN5QListI7QStringEaSERKS1_)
    QList<QString>::operator +=(const QList<QString>&) 0x000335c1   Thumb Code   150  qmediaserviceprovider.o(t._ZN5QListI7QStringEpLERKS1_)
    QList<QPointer<QObject>>::detach_helper(int) 0x00033665   Thumb Code    94  qgraphicsvideoitem_symbian.o(t._ZN5QListI8QPointerI7QObjectEE13detach_helperEi)
    QList<QPointer<QObject>>::detach_helper() 0x000336cb   Thumb Code    16  qgraphicsvideoitem_symbian.o(t._ZN5QListI8QPointerI7QObjectEE13detach_helperEv)
    QList<QPointer<QObject>>::node_destruct(QList<QPointer<QObject>>::Node*, QList<QPointer<QObject>>::Node*) 0x000336db   Thumb Code    38  qgraphicsvideoitem_symbian.o(t._ZN5QListI8QPointerI7QObjectEE13node_destructEPNS3_4NodeES5_)
    QList<QPointer<QObject>>::node_construct(QList<QPointer<QObject>>::Node*, const QPointer<QObject>&) 0x00033701   Thumb Code    34  qgraphicsvideoitem_symbian.o(t._ZN5QListI8QPointerI7QObjectEE14node_constructEPNS3_4NodeERKS2_)
    QList<QPointer<QObject>>::detach_helper_grow(int, int) 0x00033731   Thumb Code   208  qgraphicsvideoitem_symbian.o(t._ZN5QListI8QPointerI7QObjectEE18detach_helper_growEii)
    QList<QPointer<QObject>>::free(QListData::Data*) 0x00033811   Thumb Code    52  qgraphicsvideoitem_symbian.o(t._ZN5QListI8QPointerI7QObjectEE4freeEPN9QListData4DataE)
    QList<QPointer<QObject>>::clear()        0x00033845   Thumb Code    76  qgraphicsvideoitem_symbian.o(t._ZN5QListI8QPointerI7QObjectEE5clearEv)
    QList<QPointer<QObject>>::append(const QPointer<QObject>&) 0x0003389d   Thumb Code   106  qgraphicsvideoitem_symbian.o(t._ZN5QListI8QPointerI7QObjectEE6appendERKS2_)
    QList<QPointer<QObject>>::node_copy(QList<QPointer<QObject>>::Node*, QList<QPointer<QObject>>::Node*, QList<QPointer<QObject>>::Node*) 0x0003391b   Thumb Code    92  qgraphicsvideoitem_symbian.o(t._ZN5QListI8QPointerI7QObjectEE9node_copyEPNS3_4NodeES5_S5_)
    QList<QPointer<QObject>>::QList()        0x0003398d   Thumb Code    18  qgraphicsvideoitem_symbian.o(t._ZN5QListI8QPointerI7QObjectEEC1Ev)
    QList<QPointer<QObject>>::QList__sub_object() 0x0003398d   Thumb Code     0  qgraphicsvideoitem_symbian.o(t._ZN5QListI8QPointerI7QObjectEEC1Ev)
    QList<QPointer<QObject>>::~QList()       0x000339a5   Thumb Code    32  qgraphicsvideoitem_symbian.o(t._ZN5QListI8QPointerI7QObjectEED1Ev)
    QList<QPointer<QObject>>::~QList__sub_object() 0x000339a5   Thumb Code     0  qgraphicsvideoitem_symbian.o(t._ZN5QListI8QPointerI7QObjectEED1Ev)
    QList<QVariant>::detach_helper(int)      0x000339c5   Thumb Code    94  qvideosurfaceformat.o(t._ZN5QListI8QVariantE13detach_helperEi)
    QList<QVariant>::detach_helper()         0x00033a2b   Thumb Code    16  qcameraexposure.o(t._ZN5QListI8QVariantE13detach_helperEv)
    QList<QVariant>::node_destruct(QList<QVariant>::Node*) 0x00033a3b   Thumb Code    28  qvideosurfaceformat.o(t._ZN5QListI8QVariantE13node_destructEPNS1_4NodeE)
    QList<QVariant>::node_destruct(QList<QVariant>::Node*, QList<QVariant>::Node*) 0x00033a57   Thumb Code    38  qvideosurfaceformat.o(t._ZN5QListI8QVariantE13node_destructEPNS1_4NodeES3_)
    QList<QVariant>::node_construct(QList<QVariant>::Node*, const QVariant&) 0x00033a7d   Thumb Code    34  qvideosurfaceformat.o(t._ZN5QListI8QVariantE14node_constructEPNS1_4NodeERKS0_)
    QList<QVariant>::detach_helper_grow(int, int) 0x00033aad   Thumb Code   208  qvideosurfaceformat.o(t._ZN5QListI8QVariantE18detach_helper_growEii)
    QList<QVariant>::free(QListData::Data*)  0x00033b8d   Thumb Code    58  qvideosurfaceformat.o(t._ZN5QListI8QVariantE4freeEPN9QListData4DataE)
    QList<QVariant>::append(const QVariant&) 0x00033bc9   Thumb Code   106  qvideosurfaceformat.o(t._ZN5QListI8QVariantE6appendERKS0_)
    QList<QVariant>::detach()                0x00033c47   Thumb Code    24  qvideosurfaceformat.o(t._ZN5QListI8QVariantE6detachEv)
    QList<QVariant>::node_copy(QList<QVariant>::Node*, QList<QVariant>::Node*, QList<QVariant>::Node*) 0x00033c5f   Thumb Code    92  qvideosurfaceformat.o(t._ZN5QListI8QVariantE9node_copyEPNS1_4NodeES3_S3_)
    QList<QVariant>::QList()                 0x00033cd1   Thumb Code    18  qvideosurfaceformat.o(t._ZN5QListI8QVariantEC1Ev)
    QList<QVariant>::QList__sub_object()     0x00033cd1   Thumb Code     0  qvideosurfaceformat.o(t._ZN5QListI8QVariantEC1Ev)
    QList<QVariant>::~QList()                0x00033ce9   Thumb Code    32  qcameraexposure.o(t._ZN5QListI8QVariantED1Ev)
    QList<QVariant>::~QList__sub_object()    0x00033ce9   Thumb Code     0  qcameraexposure.o(t._ZN5QListI8QVariantED1Ev)
    QList<QVideoFrame::PixelFormat>::detach_helper(int) 0x00033d09   Thumb Code    94  qpaintervideosurface.o(t._ZN5QListIN11QVideoFrame11PixelFormatEE13detach_helperEi)
    QList<QVideoFrame::PixelFormat>::detach_helper() 0x00033d6f   Thumb Code    16  qmediaimageviewerservice.o(t._ZN5QListIN11QVideoFrame11PixelFormatEE13detach_helperEv)
    QList<QVideoFrame::PixelFormat>::node_destruct(QList<QVideoFrame::PixelFormat>::Node*, QList<QVideoFrame::PixelFormat>::Node*) 0x00033d7f   Thumb Code    26  qpaintervideosurface.o(t._ZN5QListIN11QVideoFrame11PixelFormatEE13node_destructEPNS2_4NodeES4_)
    QList<QVideoFrame::PixelFormat>::node_construct(QList<QVideoFrame::PixelFormat>::Node*, const QVideoFrame::PixelFormat&) 0x00033d99   Thumb Code    30  qpaintervideosurface.o(t._ZN5QListIN11QVideoFrame11PixelFormatEE14node_constructEPNS2_4NodeERKS1_)
    QList<QVideoFrame::PixelFormat>::detach_helper_grow(int, int) 0x00033db7   Thumb Code   208  qpaintervideosurface.o(t._ZN5QListIN11QVideoFrame11PixelFormatEE18detach_helper_growEii)
    QList<QVideoFrame::PixelFormat>::free(QListData::Data*) 0x00033e97   Thumb Code    58  qpaintervideosurface.o(t._ZN5QListIN11QVideoFrame11PixelFormatEE4freeEPN9QListData4DataE)
    QList<QVideoFrame::PixelFormat>::append(const QVideoFrame::PixelFormat&) 0x00033ed1   Thumb Code   112  qpaintervideosurface.o(t._ZN5QListIN11QVideoFrame11PixelFormatEE6appendERKS1_)
    QList<QVideoFrame::PixelFormat>::node_copy(QList<QVideoFrame::PixelFormat>::Node*, QList<QVideoFrame::PixelFormat>::Node*, QList<QVideoFrame::PixelFormat>::Node*) 0x00033f53   Thumb Code    78  qpaintervideosurface.o(t._ZN5QListIN11QVideoFrame11PixelFormatEE9node_copyEPNS2_4NodeES4_S4_)
    QList<QVideoFrame::PixelFormat>::QList() 0x00033fa9   Thumb Code    18  qpaintervideosurface.o(t._ZN5QListIN11QVideoFrame11PixelFormatEEC1Ev)
    QList<QVideoFrame::PixelFormat>::QList__sub_object() 0x00033fa9   Thumb Code     0  qpaintervideosurface.o(t._ZN5QListIN11QVideoFrame11PixelFormatEEC1Ev)
    QList<QVideoFrame::PixelFormat>::~QList() 0x00033fc1   Thumb Code    32  qmediaimageviewerservice.o(t._ZN5QListIN11QVideoFrame11PixelFormatEED1Ev)
    QList<QVideoFrame::PixelFormat>::~QList__sub_object() 0x00033fc1   Thumb Code     0  qmediaimageviewerservice.o(t._ZN5QListIN11QVideoFrame11PixelFormatEED1Ev)
    QList<QAudioFormat::SampleType>::detach_helper(int) 0x00033fe1   Thumb Code    94  qaudiodeviceinfo.o(t._ZN5QListIN12QAudioFormat10SampleTypeEE13detach_helperEi)
    QList<QAudioFormat::SampleType>::detach_helper() 0x00034047   Thumb Code    16  qaudiodeviceinfo.o(t._ZN5QListIN12QAudioFormat10SampleTypeEE13detach_helperEv)
    QList<QAudioFormat::SampleType>::node_destruct(QList<QAudioFormat::SampleType>::Node*, QList<QAudioFormat::SampleType>::Node*) 0x00034057   Thumb Code    26  qaudiodeviceinfo.o(t._ZN5QListIN12QAudioFormat10SampleTypeEE13node_destructEPNS2_4NodeES4_)
    QList<QAudioFormat::SampleType>::node_construct(QList<QAudioFormat::SampleType>::Node*, const QAudioFormat::SampleType&) 0x00034071   Thumb Code    30  qaudiodeviceinfo.o(t._ZN5QListIN12QAudioFormat10SampleTypeEE14node_constructEPNS2_4NodeERKS1_)
    QList<QAudioFormat::SampleType>::detach_helper_grow(int, int) 0x0003408f   Thumb Code   208  qaudiodeviceinfo.o(t._ZN5QListIN12QAudioFormat10SampleTypeEE18detach_helper_growEii)
    QList<QAudioFormat::SampleType>::free(QListData::Data*) 0x0003416f   Thumb Code    52  qaudiodeviceinfo.o(t._ZN5QListIN12QAudioFormat10SampleTypeEE4freeEPN9QListData4DataE)
    QList<QAudioFormat::SampleType>::clear() 0x000341a3   Thumb Code    76  qaudio_symbian_p.o(t._ZN5QListIN12QAudioFormat10SampleTypeEE5clearEv)
    QList<QAudioFormat::SampleType>::append(const QAudioFormat::SampleType&) 0x000341f9   Thumb Code   106  qaudiodeviceinfo.o(t._ZN5QListIN12QAudioFormat10SampleTypeEE6appendERKS1_)
    QList<QAudioFormat::SampleType>::node_copy(QList<QAudioFormat::SampleType>::Node*, QList<QAudioFormat::SampleType>::Node*, QList<QAudioFormat::SampleType>::Node*) 0x00034277   Thumb Code    78  qaudiodeviceinfo.o(t._ZN5QListIN12QAudioFormat10SampleTypeEE9node_copyEPNS2_4NodeES4_S4_)
    QList<QAudioFormat::SampleType>::QList(const QList<QAudioFormat::SampleType>&) 0x000342cd   Thumb Code    36  qaudiodeviceinfo.o(t._ZN5QListIN12QAudioFormat10SampleTypeEEC1ERKS2_)
    QList<QAudioFormat::SampleType>::QList__sub_object(const QList<QAudioFormat::SampleType>&) 0x000342cd   Thumb Code     0  qaudiodeviceinfo.o(t._ZN5QListIN12QAudioFormat10SampleTypeEEC1ERKS2_)
    QList<QAudioFormat::SampleType>::QList() 0x000342f1   Thumb Code    18  qaudiodeviceinfo.o(t._ZN5QListIN12QAudioFormat10SampleTypeEEC1Ev)
    QList<QAudioFormat::SampleType>::QList__sub_object() 0x000342f1   Thumb Code     0  qaudiodeviceinfo.o(t._ZN5QListIN12QAudioFormat10SampleTypeEEC1Ev)
    QList<QAudioFormat::SampleType>::~QList() 0x00034309   Thumb Code    32  qaudiodeviceinfo.o(t._ZN5QListIN12QAudioFormat10SampleTypeEED1Ev)
    QList<QAudioFormat::SampleType>::~QList__sub_object() 0x00034309   Thumb Code     0  qaudiodeviceinfo.o(t._ZN5QListIN12QAudioFormat10SampleTypeEED1Ev)
    QList<QAudioFormat::Endian>::detach_helper(int) 0x00034329   Thumb Code    94  qaudiodeviceinfo.o(t._ZN5QListIN12QAudioFormat6EndianEE13detach_helperEi)
    QList<QAudioFormat::Endian>::detach_helper() 0x0003438f   Thumb Code    16  qaudiodeviceinfo.o(t._ZN5QListIN12QAudioFormat6EndianEE13detach_helperEv)
    QList<QAudioFormat::Endian>::node_destruct(QList<QAudioFormat::Endian>::Node*, QList<QAudioFormat::Endian>::Node*) 0x0003439f   Thumb Code    26  qaudiodeviceinfo.o(t._ZN5QListIN12QAudioFormat6EndianEE13node_destructEPNS2_4NodeES4_)
    QList<QAudioFormat::Endian>::node_construct(QList<QAudioFormat::Endian>::Node*, const QAudioFormat::Endian&) 0x000343b9   Thumb Code    30  qaudiodeviceinfo.o(t._ZN5QListIN12QAudioFormat6EndianEE14node_constructEPNS2_4NodeERKS1_)
    QList<QAudioFormat::Endian>::detach_helper_grow(int, int) 0x000343d7   Thumb Code   208  qaudiodeviceinfo.o(t._ZN5QListIN12QAudioFormat6EndianEE18detach_helper_growEii)
    QList<QAudioFormat::Endian>::free(QListData::Data*) 0x000344b7   Thumb Code    52  qaudiodeviceinfo.o(t._ZN5QListIN12QAudioFormat6EndianEE4freeEPN9QListData4DataE)
    QList<QAudioFormat::Endian>::clear()     0x000344eb   Thumb Code    76  qaudio_symbian_p.o(t._ZN5QListIN12QAudioFormat6EndianEE5clearEv)
    QList<QAudioFormat::Endian>::append(const QAudioFormat::Endian&) 0x00034541   Thumb Code   106  qaudio_symbian_p.o(t._ZN5QListIN12QAudioFormat6EndianEE6appendERKS1_)
    QList<QAudioFormat::Endian>::node_copy(QList<QAudioFormat::Endian>::Node*, QList<QAudioFormat::Endian>::Node*, QList<QAudioFormat::Endian>::Node*) 0x000345bf   Thumb Code    78  qaudiodeviceinfo.o(t._ZN5QListIN12QAudioFormat6EndianEE9node_copyEPNS2_4NodeES4_S4_)
    QList<QAudioFormat::Endian>::removeAll(const QAudioFormat::Endian&) 0x00034615   Thumb Code   116  qaudiodeviceinfo.o(t._ZN5QListIN12QAudioFormat6EndianEE9removeAllERKS1_)
    QList<QAudioFormat::Endian>::QList(const QList<QAudioFormat::Endian>&) 0x0003468d   Thumb Code    36  qaudiodeviceinfo.o(t._ZN5QListIN12QAudioFormat6EndianEEC1ERKS2_)
    QList<QAudioFormat::Endian>::QList__sub_object(const QList<QAudioFormat::Endian>&) 0x0003468d   Thumb Code     0  qaudiodeviceinfo.o(t._ZN5QListIN12QAudioFormat6EndianEEC1ERKS2_)
    QList<QAudioFormat::Endian>::QList()     0x000346b1   Thumb Code    18  qaudio_symbian_p.o(t._ZN5QListIN12QAudioFormat6EndianEEC1Ev)
    QList<QAudioFormat::Endian>::QList__sub_object() 0x000346b1   Thumb Code     0  qaudio_symbian_p.o(t._ZN5QListIN12QAudioFormat6EndianEEC1Ev)
    QList<QAudioFormat::Endian>::~QList()    0x000346c9   Thumb Code    32  qaudiodeviceinfo.o(t._ZN5QListIN12QAudioFormat6EndianEED1Ev)
    QList<QAudioFormat::Endian>::~QList__sub_object() 0x000346c9   Thumb Code     0  qaudiodeviceinfo.o(t._ZN5QListIN12QAudioFormat6EndianEED1Ev)
    QList<QtMultimediaKit::MetaData>::detach_helper(int) 0x000346e9   Thumb Code   184  qmediaobject.o(t._ZN5QListIN15QtMultimediaKit8MetaDataEE13detach_helperEi)
    QList<QtMultimediaKit::MetaData>::detach_helper() 0x000347b1   Thumb Code    16  qmediaobject.o(t._ZN5QListIN15QtMultimediaKit8MetaDataEE13detach_helperEv)
    QList<QtMultimediaKit::MetaData>::free(QListData::Data*) 0x000347c1   Thumb Code    64  qmediarecorder.o(t._ZN5QListIN15QtMultimediaKit8MetaDataEE4freeEPN9QListData4DataE)
    QList<QtMultimediaKit::MetaData>::~QList() 0x00034801   Thumb Code    32  qmediaobject.o(t._ZN5QListIN15QtMultimediaKit8MetaDataEED1Ev)
    QList<QtMultimediaKit::MetaData>::~QList__sub_object() 0x00034801   Thumb Code     0  qmediaobject.o(t._ZN5QListIN15QtMultimediaKit8MetaDataEED1Ev)
    QList<QCamera::LockStatus>::detach_helper(int) 0x00034821   Thumb Code    94  qcamera.o(t._ZN5QListIN7QCamera10LockStatusEE13detach_helperEi)
    QList<QCamera::LockStatus>::detach_helper() 0x00034887   Thumb Code    16  qcamera.o(t._ZN5QListIN7QCamera10LockStatusEE13detach_helperEv)
    QList<QCamera::LockStatus>::node_destruct(QList<QCamera::LockStatus>::Node*, QList<QCamera::LockStatus>::Node*) 0x00034897   Thumb Code    26  qcamera.o(t._ZN5QListIN7QCamera10LockStatusEE13node_destructEPNS2_4NodeES4_)
    QList<QCamera::LockStatus>::node_construct(QList<QCamera::LockStatus>::Node*, const QCamera::LockStatus&) 0x000348b1   Thumb Code    30  qcamera.o(t._ZN5QListIN7QCamera10LockStatusEE14node_constructEPNS2_4NodeERKS1_)
    QList<QCamera::LockStatus>::detach_helper_grow(int, int) 0x000348cf   Thumb Code   208  qcamera.o(t._ZN5QListIN7QCamera10LockStatusEE18detach_helper_growEii)
    QList<QCamera::LockStatus>::free(QListData::Data*) 0x000349af   Thumb Code    58  qcamera.o(t._ZN5QListIN7QCamera10LockStatusEE4freeEPN9QListData4DataE)
    QList<QCamera::LockStatus>::append(const QCamera::LockStatus&) 0x000349e9   Thumb Code   106  qcamera.o(t._ZN5QListIN7QCamera10LockStatusEE6appendERKS1_)
    QList<QCamera::LockStatus>::node_copy(QList<QCamera::LockStatus>::Node*, QList<QCamera::LockStatus>::Node*, QList<QCamera::LockStatus>::Node*) 0x00034a67   Thumb Code    78  qcamera.o(t._ZN5QListIN7QCamera10LockStatusEE9node_copyEPNS2_4NodeES4_S4_)
    QList<QCamera::LockStatus>::~QList()     0x00034abd   Thumb Code    32  qcamera.o(t._ZN5QListIN7QCamera10LockStatusEED1Ev)
    QList<QCamera::LockStatus>::~QList__sub_object() 0x00034abd   Thumb Code     0  qcamera.o(t._ZN5QListIN7QCamera10LockStatusEED1Ev)
    QList<QGraphicsItem*>::detach_helper(int) 0x00034add   Thumb Code   128  qgraphicsvideoitem_symbian.o(t._ZN5QListIP13QGraphicsItemE13detach_helperEi)
    QList<QGraphicsItem*>::detach_helper()   0x00034b65   Thumb Code    16  qgraphicsvideoitem_symbian.o(t._ZN5QListIP13QGraphicsItemE13detach_helperEv)
    QList<QGraphicsItem*>::free(QListData::Data*) 0x00034b75   Thumb Code    52  qgraphicsvideoitem_symbian.o(t._ZN5QListIP13QGraphicsItemE4freeEPN9QListData4DataE)
    QList<QGraphicsItem*>::~QList()          0x00034ba9   Thumb Code    32  qgraphicsvideoitem_symbian.o(t._ZN5QListIP13QGraphicsItemED1Ev)
    QList<QGraphicsItem*>::~QList__sub_object() 0x00034ba9   Thumb Code     0  qgraphicsvideoitem_symbian.o(t._ZN5QListIP13QGraphicsItemED1Ev)
    QList<QGraphicsView*>::detach_helper(int) 0x00034bc9   Thumb Code   128  qgraphicsvideoitem_symbian.o(t._ZN5QListIP13QGraphicsViewE13detach_helperEi)
    QList<QGraphicsView*>::detach_helper()   0x00034c51   Thumb Code    16  qgraphicsvideoitem_symbian.o(t._ZN5QListIP13QGraphicsViewE13detach_helperEv)
    QList<QGraphicsView*>::free(QListData::Data*) 0x00034c61   Thumb Code    52  qgraphicsvideoitem_symbian.o(t._ZN5QListIP13QGraphicsViewE4freeEPN9QListData4DataE)
    QList<QGraphicsView*>::~QList()          0x00034c95   Thumb Code    32  qgraphicsvideoitem_symbian.o(t._ZN5QListIP13QGraphicsViewED1Ev)
    QList<QGraphicsView*>::~QList__sub_object() 0x00034c95   Thumb Code     0  qgraphicsvideoitem_symbian.o(t._ZN5QListIP13QGraphicsViewED1Ev)
    QList<QPluginLoader*>::detach_helper_grow(int, int) 0x00034cb5   Thumb Code   204  qaudiopluginloader.o(t._ZN5QListIP13QPluginLoaderE18detach_helper_growEii)
    QList<QPluginLoader*>::free(QListData::Data*) 0x00034d91   Thumb Code    58  qaudiopluginloader.o(t._ZN5QListIP13QPluginLoaderE4freeEPN9QListData4DataE)
    QList<QPluginLoader*>::append(QPluginLoader*const &) 0x00034dcd   Thumb Code    94  qaudiopluginloader.o(t._ZN5QListIP13QPluginLoaderE6appendERKS1_)
    QList<QPluginLoader*>::node_copy(QList<QPluginLoader*>::Node*, QList<QPluginLoader*>::Node*, QList<QPluginLoader*>::Node*) 0x00034e3b   Thumb Code    46  qaudiopluginloader.o(t._ZN5QListIP13QPluginLoaderE9node_copyEPNS2_4NodeES4_S4_)
    QList<QPluginLoader*>::~QList()          0x00034e69   Thumb Code    32  qaudiopluginloader.o(t._ZN5QListIP13QPluginLoaderED1Ev)
    QList<QPluginLoader*>::~QList__sub_object() 0x00034e69   Thumb Code     0  qaudiopluginloader.o(t._ZN5QListIP13QPluginLoaderED1Ev)
    QList<CMMFDataBuffer*>::detach_helper(int) 0x00034e89   Thumb Code    94  qaudioinput_symbian_p.o(t._ZN5QListIP14CMMFDataBufferE13detach_helperEi)
    QList<CMMFDataBuffer*>::detach_helper()  0x00034eef   Thumb Code    16  qaudioinput_symbian_p.o(t._ZN5QListIP14CMMFDataBufferE13detach_helperEv)
    QList<CMMFDataBuffer*>::detach_helper_grow(int, int) 0x00034eff   Thumb Code   204  qaudioinput_symbian_p.o(t._ZN5QListIP14CMMFDataBufferE18detach_helper_growEii)
    QList<CMMFDataBuffer*>::free(QListData::Data*) 0x00034fdb   Thumb Code    58  qaudioinput_symbian_p.o(t._ZN5QListIP14CMMFDataBufferE4freeEPN9QListData4DataE)
    QList<CMMFDataBuffer*>::begin()          0x00035015   Thumb Code    40  qaudioinput_symbian_p.o(t._ZN5QListIP14CMMFDataBufferE5beginEv)
    QList<CMMFDataBuffer*>::clear()          0x0003503d   Thumb Code    76  qaudioinput_symbian_p.o(t._ZN5QListIP14CMMFDataBufferE5clearEv)
    QList<CMMFDataBuffer*>::append(CMMFDataBuffer*const &) 0x00035095   Thumb Code    94  qaudioinput_symbian_p.o(t._ZN5QListIP14CMMFDataBufferE6appendERKS1_)
    QList<CMMFDataBuffer*>::node_copy(QList<CMMFDataBuffer*>::Node*, QList<CMMFDataBuffer*>::Node*, QList<CMMFDataBuffer*>::Node*) 0x00035103   Thumb Code    46  qaudioinput_symbian_p.o(t._ZN5QListIP14CMMFDataBufferE9node_copyEPNS2_4NodeES4_S4_)
    QList<CMMFDataBuffer*>::QList()          0x00035131   Thumb Code    18  qaudioinput_symbian_p.o(t._ZN5QListIP14CMMFDataBufferEC1Ev)
    QList<CMMFDataBuffer*>::QList__sub_object() 0x00035131   Thumb Code     0  qaudioinput_symbian_p.o(t._ZN5QListIP14CMMFDataBufferEC1Ev)
    QList<CMMFDataBuffer*>::~QList()         0x00035149   Thumb Code    32  qaudioinput_symbian_p.o(t._ZN5QListIP14CMMFDataBufferED1Ev)
    QList<CMMFDataBuffer*>::~QList__sub_object() 0x00035149   Thumb Code     0  qaudioinput_symbian_p.o(t._ZN5QListIP14CMMFDataBufferED1Ev)
    QList<QGraphicsVideoItem*>::detach_helper(int) 0x00035169   Thumb Code    94  qgraphicsvideoitem_symbian.o(t._ZN5QListIP18QGraphicsVideoItemE13detach_helperEi)
    QList<QGraphicsVideoItem*>::detach_helper() 0x000351cf   Thumb Code    16  qgraphicsvideoitem_symbian.o(t._ZN5QListIP18QGraphicsVideoItemE13detach_helperEv)
    QList<QGraphicsVideoItem*>::detach_helper_grow(int, int) 0x000351df   Thumb Code   204  qgraphicsvideoitem_symbian.o(t._ZN5QListIP18QGraphicsVideoItemE18detach_helper_growEii)
    QList<QGraphicsVideoItem*>::free(QListData::Data*) 0x000352bb   Thumb Code    52  qgraphicsvideoitem_symbian.o(t._ZN5QListIP18QGraphicsVideoItemE4freeEPN9QListData4DataE)
    QList<QGraphicsVideoItem*>::append(QGraphicsVideoItem*const &) 0x000352f1   Thumb Code    94  qgraphicsvideoitem_symbian.o(t._ZN5QListIP18QGraphicsVideoItemE6appendERKS1_)
    QList<QGraphicsVideoItem*>::node_copy(QList<QGraphicsVideoItem*>::Node*, QList<QGraphicsVideoItem*>::Node*, QList<QGraphicsVideoItem*>::Node*) 0x0003535f   Thumb Code    46  qgraphicsvideoitem_symbian.o(t._ZN5QListIP18QGraphicsVideoItemE9node_copyEPNS2_4NodeES4_S4_)
    QList<QGraphicsVideoItem*>::~QList()     0x0003538d   Thumb Code    32  qgraphicsvideoitem_symbian.o(t._ZN5QListIP18QGraphicsVideoItemED1Ev)
    QList<QGraphicsVideoItem*>::~QList__sub_object() 0x0003538d   Thumb Code     0  qgraphicsvideoitem_symbian.o(t._ZN5QListIP18QGraphicsVideoItemED1Ev)
    QList<QMediaServiceProviderPlugin*>::detach_helper(int) 0x000353ad   Thumb Code    94  qmediaserviceprovider.o(t._ZN5QListIP27QMediaServiceProviderPluginE13detach_helperEi)
    QList<QMediaServiceProviderPlugin*>::detach_helper() 0x00035413   Thumb Code    16  qmediaserviceprovider.o(t._ZN5QListIP27QMediaServiceProviderPluginE13detach_helperEv)
    QList<QMediaServiceProviderPlugin*>::detach_helper_grow(int, int) 0x00035423   Thumb Code   204  qmediaserviceprovider.o(t._ZN5QListIP27QMediaServiceProviderPluginE18detach_helper_growEii)
    QList<QMediaServiceProviderPlugin*>::free(QListData::Data*) 0x000354ff   Thumb Code    52  qmediaserviceprovider.o(t._ZN5QListIP27QMediaServiceProviderPluginE4freeEPN9QListData4DataE)
    QList<QMediaServiceProviderPlugin*>::append(QMediaServiceProviderPlugin*const &) 0x00035535   Thumb Code    94  qmediaserviceprovider.o(t._ZN5QListIP27QMediaServiceProviderPluginE6appendERKS1_)
    QList<QMediaServiceProviderPlugin*>::node_copy(QList<QMediaServiceProviderPlugin*>::Node*, QList<QMediaServiceProviderPlugin*>::Node*, QList<QMediaServiceProviderPlugin*>::Node*) 0x000355a3   Thumb Code    46  qmediaserviceprovider.o(t._ZN5QListIP27QMediaServiceProviderPluginE9node_copyEPNS2_4NodeES4_S4_)
    QList<QMediaServiceProviderPlugin*>::~QList() 0x000355d1   Thumb Code    32  qmediaserviceprovider.o(t._ZN5QListIP27QMediaServiceProviderPluginED1Ev)
    QList<QMediaServiceProviderPlugin*>::~QList__sub_object() 0x000355d1   Thumb Code     0  qmediaserviceprovider.o(t._ZN5QListIP27QMediaServiceProviderPluginED1Ev)
    QList<QMediaServiceProviderPlugin*>::operator [](int) 0x000355f1   Thumb Code    52  qmediaserviceprovider.o(t._ZN5QListIP27QMediaServiceProviderPluginEixEi)
    QList<QObject*>::detach_helper(int)      0x00035625   Thumb Code    94  qmediapluginloader.o(t._ZN5QListIP7QObjectE13detach_helperEi)
    QList<QObject*>::detach_helper()         0x0003568b   Thumb Code    16  qmediaserviceprovider.o(t._ZN5QListIP7QObjectE13detach_helperEv)
    QList<QObject*>::detach_helper_grow(int, int) 0x0003569b   Thumb Code   204  qmediapluginloader.o(t._ZN5QListIP7QObjectE18detach_helper_growEii)
    QList<QObject*>::free(QListData::Data*)  0x00035777   Thumb Code    52  qmediaserviceprovider.o(t._ZN5QListIP7QObjectE4freeEPN9QListData4DataE)
    QList<QObject*>::append(QObject*const &) 0x000357ad   Thumb Code    94  qmediapluginloader.o(t._ZN5QListIP7QObjectE6appendERKS1_)
    QList<QObject*>::node_copy(QList<QObject*>::Node*, QList<QObject*>::Node*, QList<QObject*>::Node*) 0x0003581b   Thumb Code    46  qmediapluginloader.o(t._ZN5QListIP7QObjectE9node_copyEPNS2_4NodeES4_S4_)
    QList<QObject*>::QList(const QList<QObject*>&) 0x00035849   Thumb Code    36  qmediapluginloader.o(t._ZN5QListIP7QObjectEC1ERKS2_)
    QList<QObject*>::QList__sub_object(const QList<QObject*>&) 0x00035849   Thumb Code     0  qmediapluginloader.o(t._ZN5QListIP7QObjectEC1ERKS2_)
    QList<QObject*>::QList()                 0x0003586d   Thumb Code    18  qmediapluginloader.o(t._ZN5QListIP7QObjectEC1Ev)
    QList<QObject*>::QList__sub_object()     0x0003586d   Thumb Code     0  qmediapluginloader.o(t._ZN5QListIP7QObjectEC1Ev)
    QList<QObject*>::~QList()                0x00035885   Thumb Code    32  qmediaserviceprovider.o(t._ZN5QListIP7QObjectED1Ev)
    QList<QObject*>::~QList__sub_object()    0x00035885   Thumb Code     0  qmediaserviceprovider.o(t._ZN5QListIP7QObjectED1Ev)
    QList<float>::detach_helper(int)         0x000358a5   Thumb Code   128  qmediarecorder.o(t._ZN5QListIfE13detach_helperEi)
    QList<float>::detach_helper()            0x0003592d   Thumb Code    16  qmediarecorder.o(t._ZN5QListIfE13detach_helperEv)
    QList<float>::detach_helper_grow(int, int) 0x0003593d   Thumb Code   204  qcameraexposure.o(t._ZN5QListIfE18detach_helper_growEii)
    QList<float>::free(QListData::Data*)     0x00035a19   Thumb Code    52  qmediarecorder.o(t._ZN5QListIfE4freeEPN9QListData4DataE)
    QList<float>::append(const float&)       0x00035a4d   Thumb Code    94  qcameraexposure.o(t._ZN5QListIfE6appendERKf)
    QList<float>::node_copy(QList<float>::Node*, QList<float>::Node*, QList<float>::Node*) 0x00035abb   Thumb Code    46  qcameraexposure.o(t._ZN5QListIfE9node_copyEPNS0_4NodeES2_S2_)
    QList<float>::QList()                    0x00035ae9   Thumb Code    18  qcameraexposure.o(t._ZN5QListIfEC1Ev)
    QList<float>::QList__sub_object()        0x00035ae9   Thumb Code     0  qcameraexposure.o(t._ZN5QListIfEC1Ev)
    QList<float>::~QList()                   0x00035b01   Thumb Code    32  qmediarecorder.o(t._ZN5QListIfED1Ev)
    QList<float>::~QList__sub_object()       0x00035b01   Thumb Code     0  qmediarecorder.o(t._ZN5QListIfED1Ev)
    QList<int>::detach_helper(int)           0x00035b21   Thumb Code    94  qmediaplaylistnavigator.o(t._ZN5QListIiE13detach_helperEi)
    QList<int>::detach_helper()              0x00035b87   Thumb Code    16  qmediaplaylistnavigator.o(t._ZN5QListIiE13detach_helperEv)
    QList<int>::detach_helper_grow(int, int) 0x00035b97   Thumb Code   204  qmediaplaylistnavigator.o(t._ZN5QListIiE18detach_helper_growEii)
    QList<int>::free(QListData::Data*)       0x00035c73   Thumb Code    52  qmediarecorder.o(t._ZN5QListIiE4freeEPN9QListData4DataE)
    QList<int>::clear()                      0x00035ca7   Thumb Code    76  qmediaplaylistnavigator.o(t._ZN5QListIiE5clearEv)
    QList<int>::append(const int&)           0x00035cfd   Thumb Code    94  qmediaplaylistnavigator.o(t._ZN5QListIiE6appendERKi)
    QList<int>::reserve(int)                 0x00035d6b   Thumb Code    46  qmediaresource.o(t._ZN5QListIiE7reserveEi)
    QList<int>::node_copy(QList<int>::Node*, QList<int>::Node*, QList<int>::Node*) 0x00035d99   Thumb Code    46  qmediaplaylistnavigator.o(t._ZN5QListIiE9node_copyEPNS0_4NodeES2_S2_)
    QList<int>::removeAll(const int&)        0x00035dc9   Thumb Code   112  qaudiodeviceinfo.o(t._ZN5QListIiE9removeAllERKi)
    QList<int>::QList(const QList<int>&)     0x00035e3d   Thumb Code    36  qaudiodeviceinfo.o(t._ZN5QListIiEC1ERKS0_)
    QList<int>::QList__sub_object(const QList<int>&) 0x00035e3d   Thumb Code     0  qaudiodeviceinfo.o(t._ZN5QListIiEC1ERKS0_)
    QList<int>::QList()                      0x00035e61   Thumb Code    18  qmediaplaylistnavigator.o(t._ZN5QListIiEC1Ev)
    QList<int>::QList__sub_object()          0x00035e61   Thumb Code     0  qmediaplaylistnavigator.o(t._ZN5QListIiEC1Ev)
    QList<int>::~QList()                     0x00035e79   Thumb Code    32  qmediaplaylistnavigator.o(t._ZN5QListIiED1Ev)
    QList<int>::~QList__sub_object()         0x00035e79   Thumb Code     0  qmediaplaylistnavigator.o(t._ZN5QListIiED1Ev)
    QList<int>::operator =(const QList<int>&) 0x00035e99   Thumb Code    64  qaudiodeviceinfo_symbian_p.o(t._ZN5QListIiEaSERKS0_)
    QList<int>::operator [](int)             0x00035ed9   Thumb Code    52  qmediaplaylistnavigator.o(t._ZN5QListIiEixEi)
    QList<int>::operator +=(const int&)      0x00035f0d   Thumb Code    18  qaudio_symbian_p.o(t._ZN5QListIiEpLERKi)
    QVector<QRect>::detach_helper()          0x00035f1f   Thumb Code    18  qvideowidget.o(t._ZN7QVectorI5QRectE13detach_helperEv)
    QVector<QRect>::free(QVectorTypedData<QRect>*) 0x00035f31   Thumb Code    48  qvideowidget.o(t._ZN7QVectorI5QRectE4freeEP16QVectorTypedDataIS0_E)
    QVector<QRect>::detach()                 0x00035f61   Thumb Code    24  qvideowidget.o(t._ZN7QVectorI5QRectE6detachEv)
    QVector<QRect>::malloc(int)              0x00035f79   Thumb Code    52  qvideowidget.o(t._ZN7QVectorI5QRectE6mallocEi)
    QVector<QRect>::realloc(int, int)        0x00035fad   Thumb Code   614  qvideowidget.o(t._ZN7QVectorI5QRectE7reallocEii)
    QVector<QRect>::~QVector()               0x0003622f   Thumb Code    34  qvideowidget.o(t._ZN7QVectorI5QRectED1Ev)
    QVector<QRect>::~QVector__sub_object()   0x0003622f   Thumb Code     0  qvideowidget.o(t._ZN7QVectorI5QRectED1Ev)
    QPointer<QMediaObject>::operator =(QMediaObject*) 0x00036251   Thumb Code    24  qvideowidget.o(t._ZN8QPointerI12QMediaObjectEaSEPS0_)
    QPointer<QGraphicsView>::~QPointer()     0x00036269   Thumb Code    14  qgraphicsvideoitem_symbian.o(t._ZN8QPointerI13QGraphicsViewED1Ev)
    QPointer<QGraphicsView>::~QPointer__sub_object() 0x00036269   Thumb Code     0  qgraphicsvideoitem_symbian.o(t._ZN8QPointerI13QGraphicsViewED1Ev)
    QPointer<QObject>::QPointer(const QPointer<QObject>&) 0x00036277   Thumb Code    20  qgraphicsvideoitem_symbian.o(t._ZN8QPointerI7QObjectEC1ERKS1_)
    QPointer<QObject>::QPointer__sub_object(const QPointer<QObject>&) 0x00036277   Thumb Code     0  qgraphicsvideoitem_symbian.o(t._ZN8QPointerI7QObjectEC1ERKS1_)
    QPointer<QObject>::~QPointer()           0x0003628b   Thumb Code    14  qmediaimageviewer.o(t._ZN8QPointerI7QObjectED1Ev)
    QPointer<QObject>::~QPointer__sub_object() 0x0003628b   Thumb Code     0  qmediaimageviewer.o(t._ZN8QPointerI7QObjectED1Ev)
    QPointer<QObject>::operator =(QObject*)  0x00036299   Thumb Code    24  qmediaimageviewer.o(t._ZN8QPointerI7QObjectEaSEPS0_)
    QVariant::fromValue<QVideoSurfaceFormat>(const T1&) 0x000362b1   Thumb Code    34  qabstractvideosurface.o(t._ZN8QVariant9fromValueI19QVideoSurfaceFormatEES_RKT_)
    QVariant::fromValue<QAbstractVideoSurface::Error>(const T1&) 0x000362d3   Thumb Code    34  qabstractvideosurface.o(t._ZN8QVariant9fromValueIN21QAbstractVideoSurface5ErrorEEES_RKT_)
    QMapIterator<int, int>::hasNext() const  0x000362f5   Thumb Code    30  qaudiodeviceinfo.o(t._ZNK12QMapIteratorIiiE7hasNextEv)
    QForeachContainer<QStringList>::condition() const 0x00036313   Thumb Code    40  qmediaplaylist.o(t._ZNK17QForeachContainerI11QStringListE9conditionEv)
    QForeachContainer<QList<QByteArray>>::condition() const 0x0003633b   Thumb Code    40  qaudiodevicefactory.o(t._ZNK17QForeachContainerI5QListI10QByteArrayEE9conditionEv)
    QForeachContainer<QList<QMediaTimeInterval>>::condition() const 0x00036363   Thumb Code    40  qmediatimerange.o(t._ZNK17QForeachContainerI5QListI18QMediaTimeIntervalEE9conditionEv)
    QForeachContainer<QList<QPointer<QObject>>>::condition() const 0x0003638b   Thumb Code    40  qgraphicsvideoitem_symbian.o(t._ZNK17QForeachContainerI5QListI8QPointerI7QObjectEEE9conditionEv)
    QForeachContainer<QList<QVariant>>::condition() const 0x000363b3   Thumb Code    40  qcameraexposure.o(t._ZNK17QForeachContainerI5QListI8QVariantEE9conditionEv)
    QForeachContainer<QList<QMediaServiceProviderPlugin*>>::condition() const 0x000363db   Thumb Code    40  qmediaserviceprovider.o(t._ZNK17QForeachContainerI5QListIP27QMediaServiceProviderPluginEE9conditionEv)
    QForeachContainer<QList<QObject*>>::condition() const 0x00036403   Thumb Code    40  qmediaserviceprovider.o(t._ZNK17QForeachContainerI5QListIP7QObjectEE9conditionEv)
    QForeachContainer<QList<int>>::condition() const 0x0003642b   Thumb Code    40  qaudiodeviceinfo.o(t._ZNK17QForeachContainerI5QListIiEE9conditionEv)
    QMap<QUrl, QSample*>::mutableFindNode(QMapData::Node**, const QUrl&) const 0x00036453   Thumb Code   108  qsamplecache_p.o(t._ZNK4QMapI4QUrlP7QSampleE15mutableFindNodeEPPN8QMapData4NodeERKS0_)
    QMap<QUrl, QSample*>::iterator::operator ==(const QMap<QUrl, QSample*>::iterator&) const 0x000364bf   Thumb Code    18  qsamplecache_p.o(t._ZNK4QMapI4QUrlP7QSampleE8iteratoreqERKS4_)
    QMap<QUrl, QSample*>::iterator::operator !=(const QMap<QUrl, QSample*>::iterator&) const 0x000364d1   Thumb Code    18  qsamplecache_p.o(t._ZNK4QMapI4QUrlP7QSampleE8iteratorneERKS4_)
    QMap<QString, QList<QObject*>>::mutableFindNode(QMapData::Node**, const QString&) const 0x000364e3   Thumb Code   108  qmediapluginloader.o(t._ZNK4QMapI7QString5QListIP7QObjectEE15mutableFindNodeEPPN8QMapData4NodeERKS0_)
    QMap<QString, QList<QObject*>>::findNode(const QString&) const 0x0003654f   Thumb Code   104  qmediapluginloader.o(t._ZNK4QMapI7QString5QListIP7QObjectEE8findNodeERKS0_)
    QMap<QString, QAudioDeviceInfoInternal::Capabilities>::mutableFindNode(QMapData::Node**, const QString&) const 0x000365b7   Thumb Code   108  qaudiodeviceinfo_symbian_p.o(t._ZNK4QMapI7QStringN24QAudioDeviceInfoInternal12CapabilitiesEE15mutableFindNodeEPPN8QMapData4NodeERKS0_)
    QMap<QString, QAudioDeviceInfoInternal::Capabilities>::keys() const 0x00036625   Thumb Code   110  qaudiodeviceinfo_symbian_p.o(t._ZNK4QMapI7QStringN24QAudioDeviceInfoInternal12CapabilitiesEE4keysEv)
    QMap<QString, QAudioDeviceInfoInternal::Capabilities>::contains(const QString&) const 0x000366a3   Thumb Code   122  qaudiodeviceinfo_symbian_p.o(t._ZNK4QMapI7QStringN24QAudioDeviceInfoInternal12CapabilitiesEE8containsERKS0_)
    QMap<QString, QObject*>::mutableFindNode(QMapData::Node**, const QString&) const 0x0003671d   Thumb Code   108  qmediapluginloader.o(t._ZNK4QMapI7QStringP7QObjectE15mutableFindNodeEPPN8QMapData4NodeERKS0_)
    QMap<QString, QObject*>::keys() const    0x00036789   Thumb Code   104  qmediapluginloader.o(t._ZNK4QMapI7QStringP7QObjectE4keysEv)
    QMap<QString, QObject*>::values(const QString&) const 0x000367fb   Thumb Code    82  qmediapluginloader.o(t._ZNK4QMapI7QStringP7QObjectE6valuesERKS0_)
    QMap<QString, QObject*>::findNode(const QString&) const 0x00036857   Thumb Code   104  qmediapluginloader.o(t._ZNK4QMapI7QStringP7QObjectE8findNodeERKS0_)
    QMap<QCamera::LockStatus, int>::mutableFindNode(QMapData::Node**, const QCamera::LockStatus&) const 0x000368bf   Thumb Code   108  qcamera.o(t._ZNK4QMapIN7QCamera10LockStatusEiE15mutableFindNodeEPPN8QMapData4NodeERKS1_)
    QMap<QMediaService*, QMediaServiceProviderPlugin*>::mutableFindNode(QMapData::Node**, QMediaService*const &) const 0x0003692b   Thumb Code   108  qmediaserviceprovider.o(t._ZNK4QMapIP13QMediaServiceP27QMediaServiceProviderPluginE15mutableFindNodeEPPN8QMapData4NodeERKS1_)
    QMap<int, QVariant>::mutableFindNode(QMapData::Node**, const int&) const 0x00036997   Thumb Code   108  qmediaresource.o(t._ZNK4QMapIi8QVariantE15mutableFindNodeEPPN8QMapData4NodeERKi)
    QMap<int, QVariant>::keys() const        0x00036a05   Thumb Code   110  qmediaresource.o(t._ZNK4QMapIi8QVariantE4keysEv)
    QMap<int, QVariant>::value(const int&) const 0x00036a83   Thumb Code    98  qmediaresource.o(t._ZNK4QMapIi8QVariantE5valueERKi)
    QMap<int, QVariant>::findNode(const int&) const 0x00036ae5   Thumb Code   104  qmediaresource.o(t._ZNK4QMapIi8QVariantE8findNodeERKi)
    QMap<int, int>::mutableFindNode(QMapData::Node**, const int&) const 0x00036b4d   Thumb Code   108  qaudiodeviceinfo.o(t._ZNK4QMapIiiE15mutableFindNodeEPPN8QMapData4NodeERKi)
    QHash<QString, QHashDummyValue>::findNode(const QString&, unsigned*) const 0x00036bb9   Thumb Code   116  qaudiopluginloader.o(t._ZNK5QHashI7QString15QHashDummyValueE8findNodeERKS0_Pj)
    QHash<int, QHashDummyValue>::isEmpty() const 0x00036c2d   Thumb Code    18  qmediaobject.o(t._ZNK5QHashIi15QHashDummyValueE7isEmptyEv)
    QHash<int, QHashDummyValue>::findNode(const int&, unsigned*) const 0x00036c3f   Thumb Code    94  qmediaobject.o(t._ZNK5QHashIi15QHashDummyValueE8findNodeERKiPj)
    QList<QByteArray>::at(int) const         0x00036c9d   Thumb Code    30  qaudiodevicefactory.o(t._ZNK5QListI10QByteArrayE2atEi)
    QList<QByteArray>::count() const         0x00036cbb   Thumb Code    12  qvideosurfaceformat.o(t._ZNK5QListI10QByteArrayE5countEv)
    QList<QByteArray>::indexOf(const QByteArray&, int) const 0x00036cc7   Thumb Code   174  qvideosurfaceformat.o(t._ZNK5QListI10QByteArrayE7indexOfERKS0_i)
    QList<QByteArray>::isEmpty() const       0x00036d75   Thumb Code    24  qvideosurfaceformat.o(t._ZNK5QListI10QByteArrayE7isEmptyEv)
    QList<QByteArray>::contains(const QByteArray&) const 0x00036d8d   Thumb Code    74  qmediaserviceprovider.o(t._ZNK5QListI10QByteArrayE8containsERKS0_)
    QList<QMediaContent>::count() const      0x00036dd7   Thumb Code    12  qlocalmediaplaylistprovider.o(t._ZNK5QListI13QMediaContentE5countEv)
    QList<QMediaContent>::value(int) const   0x00036de3   Thumb Code    58  qlocalmediaplaylistprovider.o(t._ZNK5QListI13QMediaContentE5valueEi)
    QList<QMediaContent>::isEmpty() const    0x00036e1d   Thumb Code    24  qlocalmediaplaylistprovider.o(t._ZNK5QListI13QMediaContentE7isEmptyEv)
    QList<QMediaResource>::value(int) const  0x00036e35   Thumb Code    72  qmediacontent.o(t._ZNK5QListI14QMediaResourceE5valueEi)
    QList<QMediaResource>::operator ==(const QList<QMediaResource>&) const 0x00036e7d   Thumb Code   124  qmediacontent.o(t._ZNK5QListI14QMediaResourceEeqERKS1_)
    QList<QMediaTimeInterval>::count() const 0x00036ef9   Thumb Code    16  qmediatimerange.o(t._ZNK5QListI18QMediaTimeIntervalE5countEv)
    QList<QMediaTimeInterval>::isEmpty() const 0x00036f09   Thumb Code    24  qmediatimerange.o(t._ZNK5QListI18QMediaTimeIntervalE7isEmptyEv)
    QList<QMediaTimeInterval>::operator [](int) const 0x00036f21   Thumb Code    22  qmediatimerange.o(t._ZNK5QListI18QMediaTimeIntervalEixEi)
    QList<QString>::at(int) const            0x00036f37   Thumb Code    22  qaudiopluginloader.o(t._ZNK5QListI7QStringE2atEi)
    QList<QString>::isEmpty() const          0x00036f4d   Thumb Code    24  qaudiocapturesource.o(t._ZNK5QListI7QStringE7isEmptyEv)
    QList<QString>::contains(const QString&) const 0x00036f65   Thumb Code    74  qaudiodeviceinfo.o(t._ZNK5QListI7QStringE8containsERKS0_)
    QList<QString>::operator ==(const QList<QString>&) const 0x00036faf   Thumb Code   108  qmediaserviceprovider.o(t._ZNK5QListI7QStringEeqERKS1_)
    QList<QVariant>::at(int) const           0x0003701b   Thumb Code    22  qvideosurfaceformat.o(t._ZNK5QListI8QVariantE2atEi)
    QList<QVideoFrame::PixelFormat>::contains(const QVideoFrame::PixelFormat&) const 0x00037031   Thumb Code    66  qpaintervideosurface.o(t._ZNK5QListIN11QVideoFrame11PixelFormatEE8containsERKS1_)
    QList<QAudioFormat::SampleType>::contains(const QAudioFormat::SampleType&) const 0x00037073   Thumb Code    66  qaudiodeviceinfo.o(t._ZNK5QListIN12QAudioFormat10SampleTypeEE8containsERKS1_)
    QList<QAudioFormat::Endian>::contains(const QAudioFormat::Endian&) const 0x000370b5   Thumb Code    66  qaudio_symbian_p.o(t._ZNK5QListIN12QAudioFormat6EndianEE8containsERKS1_)
    QList<QPluginLoader*>::at(int) const     0x000370f7   Thumb Code    22  qaudiopluginloader.o(t._ZNK5QListIP13QPluginLoaderE2atEi)
    QList<QPluginLoader*>::count() const     0x0003710d   Thumb Code    16  qaudiopluginloader.o(t._ZNK5QListIP13QPluginLoaderE5countEv)
    QList<CMMFDataBuffer*>::empty() const    0x0003711d   Thumb Code    28  qaudioinput_symbian_p.o(t._ZNK5QListIP14CMMFDataBufferE5emptyEv)
    QList<int>::size() const                 0x00037139   Thumb Code    16  qaudiodeviceinfo_symbian_p.o(t._ZNK5QListIiE4sizeEv)
    QList<int>::contains(const int&) const   0x00037149   Thumb Code    66  qaudiodeviceinfo.o(t._ZNK5QListIiE8containsERKi)
    QFlags<QMediaServiceProviderHint::Feature>::operator !() const 0x0003718b   Thumb Code    16  qmediaserviceprovider.o(t._ZNK6QFlagsIN25QMediaServiceProviderHint7FeatureEEntEv)
    SymbianAudio::DevSoundWrapper::staticMetaObject 0x0003b8b8   Data          16  moc_qaudio_symbian_p.o(.constdata)
    QMediaControl::staticMetaObject          0x0003b914   Data          16  qmediacontrol.o(.constdata)
    QMediaObject::staticMetaObject           0x0003ba80   Data          16  qmediaobject.o(.constdata)
    QMediaService::staticMetaObject          0x0003badc   Data          16  qmediaservice.o(.constdata)
    QLocalMediaPlaylistProvider::staticMetaObject 0x0003bb64   Data          16  qlocalmediaplaylistprovider.o(.constdata)
    QMediaImageViewer::staticMetaObject      0x0003bf88   Data          16  qmediaimageviewer.o(.constdata)
    QMediaImageViewerService::staticMetaObject 0x0003c17c   Data          16  qmediaimageviewerservice.o(.constdata)
    QMediaImageViewerControl::staticMetaObject 0x0003c18c   Data          16  qmediaimageviewerservice.o(.constdata)
    QMediaImageViewerRenderer::staticMetaObject 0x0003c19c   Data          16  qmediaimageviewerservice.o(.constdata)
    QMediaPlayer::staticMetaObject           0x0003ca30   Data          16  qmediaplayer.o(.constdata)
    QMediaPlayerControl::staticMetaObject    0x0003cdac   Data          16  qmediaplayercontrol.o(.constdata)
    QMediaPlaylist::staticMetaObject         0x0003d298   Data          16  qmediaplaylist.o(.constdata)
    QLocalMediaPlaylistControl::staticMetaObject 0x0003d2a8   Data          16  qmediaplaylist.o(.constdata)
    QMediaPlaylistIOPlugin::staticMetaObject 0x0003d334   Data          16  qmediaplaylistioplugin.o(.constdata)
    QMediaPlaylistNavigator::staticMetaObject 0x0003d628   Data          16  qmediaplaylistnavigator.o(.constdata)
    QMediaPlaylistProvider::staticMetaObject 0x0003d804   Data          16  qmediaplaylistprovider.o(.constdata)
    QMediaRecorder::staticMetaObject         0x0003dc68   Data          16  qmediarecorder.o(.constdata)
    QMediaRecorderControl::staticMetaObject  0x0003de1c   Data          16  qmediarecordercontrol.o(.constdata)
    QMediaServiceProvider::staticMetaObject  0x0003dedc   Data          16  qmediaserviceprovider.o(.constdata)
    QMediaServiceProviderPlugin::staticMetaObject 0x0003deec   Data          16  qmediaserviceprovider.o(.constdata)
    QMetaDataReaderControl::staticMetaObject 0x0003e028   Data          16  qmetadatareadercontrol.o(.constdata)
    QMetaDataWriterControl::staticMetaObject 0x0003e124   Data          16  qmetadatawritercontrol.o(.constdata)
    QMediaStreamsControl::staticMetaObject   0x0003e1d8   Data          16  qmediastreamscontrol.o(.constdata)
    QRadioTuner::staticMetaObject            0x0003e728   Data          16  qradiotuner.o(.constdata)
    QRadioTunerControl::staticMetaObject     0x0003e95c   Data          16  qradiotunercontrol.o(.constdata)
    QVideoWidget::staticMetaObject           0x0003f058   Data          16  qvideowidget.o(.constdata)
    QVideoWidgetBackend::staticMetaObject    0x0003f068   Data          16  qvideowidget.o(.constdata)
    QVideoWidgetControlBackend::staticMetaObject 0x0003f078   Data          16  qvideowidget.o(.constdata)
    QRendererVideoWidgetBackend::staticMetaObject 0x0003f088   Data          16  qvideowidget.o(.constdata)
    QWindowVideoWidgetBackend::staticMetaObject 0x0003f098   Data          16  qvideowidget.o(.constdata)
    QVideoWindowControl::staticMetaObject    0x0003f220   Data          16  qvideowindowcontrol.o(.constdata)
    QVideoWidgetControl::staticMetaObject    0x0003f380   Data          16  qvideowidgetcontrol.o(.constdata)
    QAudioEncoderControl::staticMetaObject   0x0003f3e4   Data          16  qaudioencodercontrol.o(.constdata)
    QVideoEncoderControl::staticMetaObject   0x0003f448   Data          16  qvideoencodercontrol.o(.constdata)
    QImageEncoderControl::staticMetaObject   0x0003f4ac   Data          16  qimageencodercontrol.o(.constdata)
    QAudioCaptureSource::staticMetaObject    0x0003f5cc   Data          16  qaudiocapturesource.o(.constdata)
    QMediaContainerControl::staticMetaObject 0x0003f630   Data          16  qmediacontainercontrol.o(.constdata)
    QMediaPlaylistControl::staticMetaObject  0x0003f77c   Data          16  qmediaplaylistcontrol.o(.constdata)
    QMediaPlaylistSourceControl::staticMetaObject 0x0003f824   Data          16  qmediaplaylistsourcecontrol.o(.constdata)
    QAudioEndpointSelector::staticMetaObject 0x0003f920   Data          16  qaudioendpointselector.o(.constdata)
    QVideoDeviceControl::staticMetaObject    0x0003fa48   Data          16  qvideodevicecontrol.o(.constdata)
    QPainterVideoSurface::staticMetaObject   0x0003fb1c   Data          16  qpaintervideosurface.o(.constdata)
    QVideoRendererControl::staticMetaObject  0x0003fb80   Data          16  qvideorenderercontrol.o(.constdata)
    QCamera::staticMetaObject                0x000403e8   Data          16  qcamera.o(.constdata)
    QCameraViewfinder::staticMetaObject      0x000404f4   Data          16  qcameraviewfinder.o(.constdata)
    QCameraExposure::staticMetaObject        0x00040cc0   Data          16  qcameraexposure.o(.constdata)
    QCameraFocus::staticMetaObject           0x00040ffc   Data          16  qcamerafocus.o(.constdata)
    QCameraImageProcessing::staticMetaObject 0x00041060   Data          16  qcameraimageprocessing.o(.constdata)
    QCameraImageCapture::staticMetaObject    0x00041378   Data          16  qcameraimagecapture.o(.constdata)
    QCameraImageCaptureControl::staticMetaObject 0x000414ec   Data          16  qcameraimagecapturecontrol.o(.constdata)
    QCameraControl::staticMetaObject         0x00041624   Data          16  qcameracontrol.o(.constdata)
    QCameraLocksControl::staticMetaObject    0x00041700   Data          16  qcameralockscontrol.o(.constdata)
    QCameraExposureControl::staticMetaObject 0x000418d8   Data          16  qcameraexposurecontrol.o(.constdata)
    QCameraFocusControl::staticMetaObject    0x00041a40   Data          16  qcamerafocuscontrol.o(.constdata)
    QCameraFlashControl::staticMetaObject    0x00041ac8   Data          16  qcameraflashcontrol.o(.constdata)
    QCameraImageProcessingControl::staticMetaObject 0x00041b34   Data          16  qcameraimageprocessingcontrol.o(.constdata)
    QGraphicsVideoItem::staticMetaObject     0x00041da0   Data          16  qgraphicsvideoitem_symbian.o(.constdata)
    QGraphicsVideoItemPrivate::staticMetaObject 0x00041db0   Data          16  qgraphicsvideoitem_symbian.o(.constdata)
    QAudioOutput::staticMetaObject           0x00041e58   Data          16  qaudiooutput.o(.constdata)
    QAudioInput::staticMetaObject            0x00041f00   Data          16  qaudioinput.o(.constdata)
    QAudioSystemPlugin::staticMetaObject     0x00041f60   Data          16  qaudiosystemplugin.o(.constdata)
    QAbstractAudioDeviceInfo::staticMetaObject 0x00042168   Data          16  qaudiosystem.o(.constdata)
    QAbstractAudioOutput::staticMetaObject   0x00042178   Data          16  qaudiosystem.o(.constdata)
    QAbstractAudioInput::staticMetaObject    0x00042188   Data          16  qaudiosystem.o(.constdata)
    QAudioDeviceInfoInternal::staticMetaObject 0x0004233c   Data          16  qaudiodeviceinfo_symbian_p.o(.constdata)
    SymbianAudioInputPrivate::staticMetaObject 0x000424fc   Data          16  qaudioinput_symbian_p.o(.constdata)
    QAudioInputPrivate::staticMetaObject     0x0004250c   Data          16  qaudioinput_symbian_p.o(.constdata)
    SymbianAudioOutputPrivate::staticMetaObject 0x000426f4   Data          16  qaudiooutput_symbian_p.o(.constdata)
    QAudioOutputPrivate::staticMetaObject    0x00042704   Data          16  qaudiooutput_symbian_p.o(.constdata)
    QSoundEffectPrivate::staticMetaObject    0x00042850   Data          16  qsoundeffect_qsound_p.o(.constdata)
    QSoundEffect::staticMetaObject           0x00042b0c   Data          16  qsoundeffect.o(.constdata)
    QWaveDecoder::staticMetaObject           0x00042c1c   Data          16  qwavedecoder_p.o(.constdata)
    QSample::staticMetaObject                0x00042d78   Data          16  qsamplecache_p.o(.constdata)
    QSampleCache::staticMetaObject           0x00042d88   Data          16  qsamplecache_p.o(.constdata)
    QAbstractVideoSurface::staticMetaObject  0x00042ee8   Data          16  qabstractvideosurface.o(.constdata)
    stlp_priv::_Integer_limits<signed char, (signed char)-128, (signed char)127, (int)-1, (bool)1>::digits 0x00042ef8   Data           4  moc_qaudio_symbian_p.o(.constdata__ZN9stlp_priv15_Integer_limitsIaLan128ELa127ELin1ELb1EE6digitsE)
    stlp_priv::_Integer_limits<bool, (bool)0, (bool)1, (int)1, (bool)0>::digits 0x00042efc   Data           4  moc_qaudio_symbian_p.o(.constdata__ZN9stlp_priv15_Integer_limitsIbLb0ELb1ELi1ELb0EE6digitsE)
    stlp_priv::_Integer_limits<char, (char)128, (char)127, (int)-1, (bool)1>::digits 0x00042f00   Data           4  moc_qaudio_symbian_p.o(.constdata__ZN9stlp_priv15_Integer_limitsIcLc128ELc127ELin1ELb1EE6digitsE)
    stlp_priv::_Integer_limits<unsigned char, (unsigned char)0, (unsigned char)255, (int)-1, (bool)1>::digits 0x00042f04   Data           4  moc_qaudio_symbian_p.o(.constdata__ZN9stlp_priv15_Integer_limitsIhLh0ELh255ELin1ELb1EE6digitsE)
    stlp_priv::_Integer_limits<int, (int)-2147483648, (int)2147483647, (int)-1, (bool)1>::digits 0x00042f08   Data           4  moc_qaudio_symbian_p.o(.constdata__ZN9stlp_priv15_Integer_limitsIiLin2147483648ELi2147483647ELin1ELb1EE6digitsE)
    stlp_priv::_Integer_limits<int, (int)-2147483648, (int)2147483647, (int)-1, (bool)1>::is_signed 0x00042f0c   Data           1  moc_qaudio_symbian_p.o(.constdata__ZN9stlp_priv15_Integer_limitsIiLin2147483648ELi2147483647ELin1ELb1EE9is_signedE)
    stlp_priv::_Integer_limits<unsigned, (unsigned)0, (unsigned)4294967295, (int)-1, (bool)1>::digits 0x00042f10   Data           4  moc_qaudio_symbian_p.o(.constdata__ZN9stlp_priv15_Integer_limitsIjLj0ELj4294967295ELin1ELb1EE6digitsE)
    stlp_priv::_Integer_limits<long, (long)-2147483648, (long)2147483647, (int)-1, (bool)1>::digits 0x00042f14   Data           4  moc_qaudio_symbian_p.o(.constdata__ZN9stlp_priv15_Integer_limitsIlLln2147483648ELl2147483647ELin1ELb1EE6digitsE)
    stlp_priv::_Integer_limits<unsigned long, (unsigned long)0, (unsigned long)4294967295, (int)-1, (bool)1>::digits 0x00042f18   Data           4  moc_qaudio_symbian_p.o(.constdata__ZN9stlp_priv15_Integer_limitsImLm0ELm4294967295ELin1ELb1EE6digitsE)
    stlp_priv::_Integer_limits<short, (short)-32768, (short)32767, (int)-1, (bool)1>::digits 0x00042f1c   Data           4  moc_qaudio_symbian_p.o(.constdata__ZN9stlp_priv15_Integer_limitsIsLsn32768ELs32767ELin1ELb1EE6digitsE)
    stlp_priv::_Integer_limits<unsigned short, (unsigned short)0, (unsigned short)65535, (int)-1, (bool)1>::digits 0x00042f20   Data           4  moc_qaudio_symbian_p.o(.constdata__ZN9stlp_priv15_Integer_limitsItLt0ELt65535ELin1ELb1EE6digitsE)
    stlp_priv::_Integer_limits<wchar_t, (wchar_t)0, (wchar_t)65535, (int)-1, (bool)1>::digits 0x00042f24   Data           4  moc_qaudio_symbian_p.o(.constdata__ZN9stlp_priv15_Integer_limitsIwLw0ELw65535ELin1ELb1EE6digitsE)
    stlp_priv::_Integer_limits<long long, (long long)-9223372036854775808, (long long)9223372036854775807, (int)-1, (bool)1>::digits 0x00042f28   Data           4  moc_qaudio_symbian_p.o(.constdata__ZN9stlp_priv15_Integer_limitsIxLxn9223372036854775808ELx9223372036854775807ELin1ELb1EE6digitsE)
    stlp_priv::_Integer_limits<unsigned long long, (unsigned long long)0, (unsigned long long)18446744073709551615, (int)-1, (bool)1>::digits 0x00042f2c   Data           4  moc_qaudio_symbian_p.o(.constdata__ZN9stlp_priv15_Integer_limitsIyLy0ELy18446744073709551615ELin1ELb1EE6digitsE)
    typeinfo for QAudioInput                 0x00042f30   Data          12  qaudioinput.o(.constdata__ZTI11QAudioInput)
    typeinfo for QRadioTuner                 0x00042f3c   Data          12  qradiotuner.o(.constdata__ZTI11QRadioTuner)
    typeinfo for QAudioOutput                0x00042f48   Data          12  qaudiooutput.o(.constdata__ZTI12QAudioOutput)
    typeinfo for QCameraFocus                0x00042f54   Data          12  qcamerafocus.o(.constdata__ZTI12QCameraFocus)
    typeinfo for QMediaObject                0x00042f60   Data          12  qmediaobject.o(.constdata__ZTI12QMediaObject)
    typeinfo for QMediaPlayer                0x00042f6c   Data          12  qmediaplayer.o(.constdata__ZTI12QMediaPlayer)
    typeinfo for QSampleCache                0x00042f78   Data          24  qsamplecache_p.o(.constdata__ZTI12QSampleCache)
    typeinfo for QSoundEffect                0x00042f90   Data          12  qsoundeffect.o(.constdata__ZTI12QSoundEffect)
    typeinfo for QVideoWidget                0x00042f9c   Data          32  qvideowidget.o(.constdata__ZTI12QVideoWidget)
    typeinfo for QWaveDecoder                0x00042fbc   Data          12  qwavedecoder_p.o(.constdata__ZTI12QWaveDecoder)
    typeinfo for QMediaControl               0x00042fc8   Data          12  qmediacontrol.o(.constdata__ZTI13QMediaControl)
    typeinfo for QMediaService               0x00042fd4   Data          12  qmediaservice.o(.constdata__ZTI13QMediaService)
    typeinfo for QCameraControl              0x00042fe0   Data          12  qcameracontrol.o(.constdata__ZTI14QCameraControl)
    typeinfo for QCameraPrivate              0x00042fec   Data          12  qcamera.o(.constdata__ZTI14QCameraPrivate)
    typeinfo for QMediaPlaylist              0x00042ff8   Data          32  qmediaplaylist.o(.constdata__ZTI14QMediaPlaylist)
    typeinfo for QMediaRecorder              0x00043018   Data          32  qmediarecorder.o(.constdata__ZTI14QMediaRecorder)
    typeinfo for QCameraExposure             0x00043038   Data          12  qcameraexposure.o(.constdata__ZTI15QCameraExposure)
    typeinfo for QNullDeviceInfo             0x00043044   Data          12  qaudiodevicefactory.o(.constdata__ZTI15QNullDeviceInfo)
    typeinfo for QNullInputDevice            0x00043050   Data          12  qaudiodevicefactory.o(.constdata__ZTI16QNullInputDevice)
    typeinfo for MDevSoundObserver           0x0004305c   Data           8  moc_qaudio_symbian_p.o(.constdata__ZTI17MDevSoundObserver)
    typeinfo for QCameraViewfinder           0x00043064   Data          12  qcameraviewfinder.o(.constdata__ZTI17QCameraViewfinder)
    typeinfo for QFactoryInterface           0x00043070   Data           8  qmediaplaylistioplugin.o(.constdata__ZTI17QFactoryInterface)
    typeinfo for QImageVideoBuffer           0x00043078   Data          12  qimagevideobuffer.o(.constdata__ZTI17QImageVideoBuffer)
    typeinfo for QMediaImageViewer           0x00043084   Data          12  qmediaimageviewer.o(.constdata__ZTI17QMediaImageViewer)
    typeinfo for QNullOutputDevice           0x00043090   Data          12  qaudiodevicefactory.o(.constdata__ZTI17QNullOutputDevice)
    typeinfo for QAudioInputPrivate          0x0004309c   Data          12  qaudioinput_symbian_p.o(.constdata__ZTI18QAudioInputPrivate)
    typeinfo for QAudioSystemPlugin          0x000430a8   Data          32  qaudiosystemplugin.o(.constdata__ZTI18QAudioSystemPlugin)
    typeinfo for QGraphicsVideoItem          0x000430c8   Data          32  qgraphicsvideoitem_symbian.o(.constdata__ZTI18QGraphicsVideoItem)
    typeinfo for QMemoryVideoBuffer          0x000430e8   Data          12  qmemoryvideobuffer.o(.constdata__ZTI18QMemoryVideoBuffer)
    typeinfo for QRadioTunerControl          0x000430f4   Data          12  qradiotunercontrol.o(.constdata__ZTI18QRadioTunerControl)
    typeinfo for QRadioTunerPrivate          0x00043100   Data          12  qradiotuner.o(.constdata__ZTI18QRadioTunerPrivate)
    typeinfo for QAbstractAudioInput         0x0004310c   Data          12  qaudiosystem.o(.constdata__ZTI19QAbstractAudioInput)
    typeinfo for QAudioCaptureSource         0x00043118   Data          12  qaudiocapturesource.o(.constdata__ZTI19QAudioCaptureSource)
    typeinfo for QAudioOutputPrivate         0x00043124   Data          12  qaudiooutput_symbian_p.o(.constdata__ZTI19QAudioOutputPrivate)
    typeinfo for QCameraFlashControl         0x00043130   Data          12  qcameraflashcontrol.o(.constdata__ZTI19QCameraFlashControl)
    typeinfo for QCameraFocusControl         0x0004313c   Data          12  qcamerafocuscontrol.o(.constdata__ZTI19QCameraFocusControl)
    typeinfo for QCameraFocusPrivate         0x00043148   Data          12  qcamerafocus.o(.constdata__ZTI19QCameraFocusPrivate)
    typeinfo for QCameraImageCapture         0x00043154   Data          32  qcameraimagecapture.o(.constdata__ZTI19QCameraImageCapture)
    typeinfo for QCameraLocksControl         0x00043174   Data          12  qcameralockscontrol.o(.constdata__ZTI19QCameraLocksControl)
    typeinfo for QMediaObjectPrivate         0x00043180   Data           8  qmediaobject.o(.constdata__ZTI19QMediaObjectPrivate)
    typeinfo for QMediaPlayerControl         0x00043188   Data          12  qmediaplayercontrol.o(.constdata__ZTI19QMediaPlayerControl)
    typeinfo for QMediaPlayerPrivate         0x00043194   Data          12  qmediaplayer.o(.constdata__ZTI19QMediaPlayerPrivate)
    typeinfo for QSoundEffectPrivate         0x000431a0   Data          12  qsoundeffect_qsound_p.o(.constdata__ZTI19QSoundEffectPrivate)
    typeinfo for QVideoDeviceControl         0x000431ac   Data          12  qvideodevicecontrol.o(.constdata__ZTI19QVideoDeviceControl)
    typeinfo for QVideoWidgetBackend         0x000431b8   Data          32  qvideowidget.o(.constdata__ZTI19QVideoWidgetBackend)
    typeinfo for QVideoWidgetControl         0x000431d8   Data          12  qvideowidgetcontrol.o(.constdata__ZTI19QVideoWidgetControl)
    typeinfo for QVideoWindowControl         0x000431e4   Data          12  qvideowindowcontrol.o(.constdata__ZTI19QVideoWindowControl)
    typeinfo for QAbstractAudioOutput        0x000431f0   Data          12  qaudiosystem.o(.constdata__ZTI20QAbstractAudioOutput)
    typeinfo for QAbstractVideoBuffer        0x000431fc   Data           8  qabstractvideobuffer.o(.constdata__ZTI20QAbstractVideoBuffer)
    typeinfo for QAudioEncoderControl        0x00043204   Data          12  qaudioencodercontrol.o(.constdata__ZTI20QAudioEncoderControl)
    typeinfo for QImageEncoderControl        0x00043210   Data          12  qimageencodercontrol.o(.constdata__ZTI20QImageEncoderControl)
    typeinfo for QMediaControlPrivate        0x0004321c   Data           8  qmediacontrol.o(.constdata__ZTI20QMediaControlPrivate)
    typeinfo for QMediaPlaylistReader        0x00043224   Data           8  qmediaplaylistioplugin.o(.constdata__ZTI20QMediaPlaylistReader)
    typeinfo for QMediaPlaylistWriter        0x0004322c   Data           8  qmediaplaylistioplugin.o(.constdata__ZTI20QMediaPlaylistWriter)
    typeinfo for QMediaServicePrivate        0x00043234   Data           8  qmediaservice.o(.constdata__ZTI20QMediaServicePrivate)
    typeinfo for QMediaStreamsControl        0x0004323c   Data          12  qmediastreamscontrol.o(.constdata__ZTI20QMediaStreamsControl)
    typeinfo for QPainterVideoSurface        0x00043248   Data          12  qpaintervideosurface.o(.constdata__ZTI20QPainterVideoSurface)
    typeinfo for QVideoEncoderControl        0x00043254   Data          12  qvideoencodercontrol.o(.constdata__ZTI20QVideoEncoderControl)
    typeinfo for QVideoSurfacePainter        0x00043260   Data           8  qpaintervideosurface.o(.constdata__ZTI20QVideoSurfacePainter)
    typeinfo for QAbstractVideoSurface       0x00043268   Data          12  qabstractvideosurface.o(.constdata__ZTI21QAbstractVideoSurface)
    typeinfo for QMediaPlaylistControl       0x00043274   Data          12  qmediaplaylistcontrol.o(.constdata__ZTI21QMediaPlaylistControl)
    typeinfo for QMediaPlaylistPrivate       0x00043280   Data           8  qmediaplaylist.o(.constdata__ZTI21QMediaPlaylistPrivate)
    typeinfo for QMediaRecorderControl       0x00043288   Data          12  qmediarecordercontrol.o(.constdata__ZTI21QMediaRecorderControl)
    typeinfo for QMediaServiceProvider       0x00043294   Data          12  qmediaserviceprovider.o(.constdata__ZTI21QMediaServiceProvider)
    typeinfo for QVideoRendererControl       0x000432a0   Data          12  qvideorenderercontrol.o(.constdata__ZTI21QVideoRendererControl)
    typeinfo for QAudioEndpointSelector      0x000432ac   Data          12  qaudioendpointselector.o(.constdata__ZTI22QAudioEndpointSelector)
    typeinfo for QCameraExposureControl      0x000432b8   Data          12  qcameraexposurecontrol.o(.constdata__ZTI22QCameraExposureControl)
    typeinfo for QCameraImageProcessing      0x000432c4   Data          12  qcameraimageprocessing.o(.constdata__ZTI22QCameraImageProcessing)
    typeinfo for QMediaContainerControl      0x000432d0   Data          12  qmediacontainercontrol.o(.constdata__ZTI22QMediaContainerControl)
    typeinfo for QMediaPlaylistIOPlugin      0x000432dc   Data          32  qmediaplaylistioplugin.o(.constdata__ZTI22QMediaPlaylistIOPlugin)
    typeinfo for QMediaPlaylistProvider      0x000432fc   Data          12  qmediaplaylistprovider.o(.constdata__ZTI22QMediaPlaylistProvider)
    typeinfo for QMetaDataReaderControl      0x00043308   Data          12  qmetadatareadercontrol.o(.constdata__ZTI22QMetaDataReaderControl)
    typeinfo for QMetaDataWriterControl      0x00043314   Data          12  qmetadatawritercontrol.o(.constdata__ZTI22QMetaDataWriterControl)
    typeinfo for QPluginServiceProvider      0x00043320   Data          12  qmediaserviceprovider.o(.constdata__ZTI22QPluginServiceProvider)
    typeinfo for QMediaBindableInterface     0x0004332c   Data           8  qmediabindableinterface.o(.constdata__ZTI23QMediaBindableInterface)
    typeinfo for QMediaPlaylistNavigator     0x00043334   Data          12  qmediaplaylistnavigator.o(.constdata__ZTI23QMediaPlaylistNavigator)
    typeinfo for QAbstractAudioDeviceInfo    0x00043340   Data          12  qaudiosystem.o(.constdata__ZTI24QAbstractAudioDeviceInfo)
    typeinfo for QAudioDeviceInfoInternal    0x0004334c   Data          12  qaudiodeviceinfo_symbian_p.o(.constdata__ZTI24QAudioDeviceInfoInternal)
    typeinfo for QImageVideoBufferPrivate    0x00043358   Data          12  qimagevideobuffer.o(.constdata__ZTI24QImageVideoBufferPrivate)
    typeinfo for QMediaImageViewerControl    0x00043364   Data          12  qmediaimageviewerservice.o(.constdata__ZTI24QMediaImageViewerControl)
    typeinfo for QMediaImageViewerPrivate    0x00043370   Data          12  qmediaimageviewer.o(.constdata__ZTI24QMediaImageViewerPrivate)
    typeinfo for QMediaImageViewerService    0x0004337c   Data          12  qmediaimageviewerservice.o(.constdata__ZTI24QMediaImageViewerService)
    typeinfo for SymbianAudioInputPrivate    0x00043388   Data          12  qaudioinput_symbian_p.o(.constdata__ZTI24SymbianAudioInputPrivate)
    typeinfo for QGraphicsVideoItemPrivate   0x00043394   Data          12  qgraphicsvideoitem_symbian.o(.constdata__ZTI25QGraphicsVideoItemPrivate)
    typeinfo for QMediaImageViewerRenderer   0x000433a0   Data          12  qmediaimageviewerservice.o(.constdata__ZTI25QMediaImageViewerRenderer)
    typeinfo for QMediaPlaylistIOInterface   0x000433ac   Data          12  qmediaplaylistioplugin.o(.constdata__ZTI25QMediaPlaylistIOInterface)
    typeinfo for QMemoryVideoBufferPrivate   0x000433b8   Data          12  qmemoryvideobuffer.o(.constdata__ZTI25QMemoryVideoBufferPrivate)
    typeinfo for QWindowVideoWidgetBackend   0x000433c4   Data          12  qvideowidget.o(.constdata__ZTI25QWindowVideoWidgetBackend)
    typeinfo for SymbianAudioOutputPrivate   0x000433d0   Data          12  qaudiooutput_symbian_p.o(.constdata__ZTI25SymbianAudioOutputPrivate)
    typeinfo for QAudioCaptureSourcePrivate  0x000433dc   Data          12  qaudiocapturesource.o(.constdata__ZTI26QAudioCaptureSourcePrivate)
    typeinfo for QCameraImageCaptureControl  0x000433e8   Data          12  qcameraimagecapturecontrol.o(.constdata__ZTI26QCameraImageCaptureControl)
    typeinfo for QLocalMediaPlaylistControl  0x000433f4   Data          12  qmediaplaylist.o(.constdata__ZTI26QLocalMediaPlaylistControl)
    typeinfo for QMediaPlaylistNullProvider  0x00043400   Data          12  qmediaplaylistnavigator.o(.constdata__ZTI26QMediaPlaylistNullProvider)
    typeinfo for QVideoWidgetControlBackend  0x0004340c   Data          32  qvideowidget.o(.constdata__ZTI26QVideoWidgetControlBackend)
    typeinfo for QAbstractVideoBufferPrivate 0x0004342c   Data           8  qabstractvideobuffer.o(.constdata__ZTI27QAbstractVideoBufferPrivate)
    typeinfo for QLocalMediaPlaylistProvider 0x00043434   Data          12  qlocalmediaplaylistprovider.o(.constdata__ZTI27QLocalMediaPlaylistProvider)
    typeinfo for QMediaPlaylistSourceControl 0x00043440   Data          12  qmediaplaylistsourcecontrol.o(.constdata__ZTI27QMediaPlaylistSourceControl)
    typeinfo for QMediaServiceProviderPlugin 0x0004344c   Data          32  qmediaserviceprovider.o(.constdata__ZTI27QMediaServiceProviderPlugin)
    typeinfo for QRendererVideoWidgetBackend 0x0004346c   Data          12  qvideowidget.o(.constdata__ZTI27QRendererVideoWidgetBackend)
    typeinfo for QVideoSurfaceGenericPainter 0x00043478   Data          12  qpaintervideosurface.o(.constdata__ZTI27QVideoSurfaceGenericPainter)
    typeinfo for QAudioSystemFactoryInterface 0x00043484   Data          12  qaudiosystemplugin.o(.constdata__ZTI28QAudioSystemFactoryInterface)
    typeinfo for QVideoWidgetControlInterface 0x00043490   Data           8  qvideowidget.o(.constdata__ZTI28QVideoWidgetControlInterface)
    typeinfo for QCameraImageProcessingControl 0x00043498   Data          12  qcameraimageprocessingcontrol.o(.constdata__ZTI29QCameraImageProcessingControl)
    typeinfo for QCameraImageProcessingPrivate 0x000434a4   Data          12  qcameraimageprocessing.o(.constdata__ZTI29QCameraImageProcessingPrivate)
    typeinfo for QMediaPlaylistProviderPrivate 0x000434b0   Data           8  qlocalmediaplaylistprovider.o(.constdata__ZTI29QMediaPlaylistProviderPrivate)
    typeinfo for QMediaImageViewerControlPrivate 0x000434b8   Data          12  qmediaimageviewerservice.o(.constdata__ZTI31QMediaImageViewerControlPrivate)
    typeinfo for QMediaImageViewerServicePrivate 0x000434c4   Data          12  qmediaimageviewerservice.o(.constdata__ZTI31QMediaImageViewerServicePrivate)
    typeinfo for QLocalMediaPlaylistProviderPrivate 0x000434d0   Data          12  qlocalmediaplaylistprovider.o(.constdata__ZTI34QLocalMediaPlaylistProviderPrivate)
    typeinfo for QMediaServiceProviderFactoryInterface 0x000434dc   Data          12  qmediaserviceprovider.o(.constdata__ZTI37QMediaServiceProviderFactoryInterface)
    typeinfo for QCamera                     0x000434e8   Data          12  qcamera.o(.constdata__ZTI7QCamera)
    typeinfo for QSample                     0x000434f4   Data          12  qsamplecache_p.o(.constdata__ZTI7QSample)
    typeinfo for SymbianAudio::DevSoundWrapper 0x00043500   Data          32  moc_qaudio_symbian_p.o(.constdata__ZTIN12SymbianAudio15DevSoundWrapperE)
    typeinfo name for QAudioInput            0x00043520   Data          14  qaudioinput.o(.constdata__ZTS11QAudioInput)
    typeinfo name for QRadioTuner            0x0004352e   Data          14  qradiotuner.o(.constdata__ZTS11QRadioTuner)
    typeinfo name for QAudioOutput           0x0004353c   Data          15  qaudiooutput.o(.constdata__ZTS12QAudioOutput)
    typeinfo name for QCameraFocus           0x0004354b   Data          15  qcamerafocus.o(.constdata__ZTS12QCameraFocus)
    typeinfo name for QMediaObject           0x0004355a   Data          15  qmediaobject.o(.constdata__ZTS12QMediaObject)
    typeinfo name for QMediaPlayer           0x00043569   Data          15  qmediaplayer.o(.constdata__ZTS12QMediaPlayer)
    typeinfo name for QSampleCache           0x00043578   Data          15  qsamplecache_p.o(.constdata__ZTS12QSampleCache)
    typeinfo name for QSoundEffect           0x00043587   Data          15  qsoundeffect.o(.constdata__ZTS12QSoundEffect)
    typeinfo name for QVideoWidget           0x00043596   Data          15  qvideowidget.o(.constdata__ZTS12QVideoWidget)
    typeinfo name for QWaveDecoder           0x000435a5   Data          15  qwavedecoder_p.o(.constdata__ZTS12QWaveDecoder)
    typeinfo name for QMediaControl          0x000435b4   Data          16  qmediacontrol.o(.constdata__ZTS13QMediaControl)
    typeinfo name for QMediaService          0x000435c4   Data          16  qmediaservice.o(.constdata__ZTS13QMediaService)
    typeinfo name for QCameraControl         0x000435d4   Data          17  qcameracontrol.o(.constdata__ZTS14QCameraControl)
    typeinfo name for QCameraPrivate         0x000435e5   Data          17  qcamera.o(.constdata__ZTS14QCameraPrivate)
    typeinfo name for QMediaPlaylist         0x000435f6   Data          17  qmediaplaylist.o(.constdata__ZTS14QMediaPlaylist)
    typeinfo name for QMediaRecorder         0x00043607   Data          17  qmediarecorder.o(.constdata__ZTS14QMediaRecorder)
    typeinfo name for QCameraExposure        0x00043618   Data          18  qcameraexposure.o(.constdata__ZTS15QCameraExposure)
    typeinfo name for QNullDeviceInfo        0x0004362a   Data          18  qaudiodevicefactory.o(.constdata__ZTS15QNullDeviceInfo)
    typeinfo name for QNullInputDevice       0x0004363c   Data          19  qaudiodevicefactory.o(.constdata__ZTS16QNullInputDevice)
    typeinfo name for MDevSoundObserver      0x0004364f   Data          20  moc_qaudio_symbian_p.o(.constdata__ZTS17MDevSoundObserver)
    typeinfo name for QCameraViewfinder      0x00043663   Data          20  qcameraviewfinder.o(.constdata__ZTS17QCameraViewfinder)
    typeinfo name for QFactoryInterface      0x00043677   Data          20  qmediaplaylistioplugin.o(.constdata__ZTS17QFactoryInterface)
    typeinfo name for QImageVideoBuffer      0x0004368b   Data          20  qimagevideobuffer.o(.constdata__ZTS17QImageVideoBuffer)
    typeinfo name for QMediaImageViewer      0x0004369f   Data          20  qmediaimageviewer.o(.constdata__ZTS17QMediaImageViewer)
    typeinfo name for QNullOutputDevice      0x000436b3   Data          20  qaudiodevicefactory.o(.constdata__ZTS17QNullOutputDevice)
    typeinfo name for QAudioInputPrivate     0x000436c7   Data          21  qaudioinput_symbian_p.o(.constdata__ZTS18QAudioInputPrivate)
    typeinfo name for QAudioSystemPlugin     0x000436dc   Data          21  qaudiosystemplugin.o(.constdata__ZTS18QAudioSystemPlugin)
    typeinfo name for QGraphicsVideoItem     0x000436f1   Data          21  qgraphicsvideoitem_symbian.o(.constdata__ZTS18QGraphicsVideoItem)
    typeinfo name for QMemoryVideoBuffer     0x00043706   Data          21  qmemoryvideobuffer.o(.constdata__ZTS18QMemoryVideoBuffer)
    typeinfo name for QRadioTunerControl     0x0004371b   Data          21  qradiotunercontrol.o(.constdata__ZTS18QRadioTunerControl)
    typeinfo name for QRadioTunerPrivate     0x00043730   Data          21  qradiotuner.o(.constdata__ZTS18QRadioTunerPrivate)
    typeinfo name for QAbstractAudioInput    0x00043745   Data          22  qaudiosystem.o(.constdata__ZTS19QAbstractAudioInput)
    typeinfo name for QAudioCaptureSource    0x0004375b   Data          22  qaudiocapturesource.o(.constdata__ZTS19QAudioCaptureSource)
    typeinfo name for QAudioOutputPrivate    0x00043771   Data          22  qaudiooutput_symbian_p.o(.constdata__ZTS19QAudioOutputPrivate)
    typeinfo name for QCameraFlashControl    0x00043787   Data          22  qcameraflashcontrol.o(.constdata__ZTS19QCameraFlashControl)
    typeinfo name for QCameraFocusControl    0x0004379d   Data          22  qcamerafocuscontrol.o(.constdata__ZTS19QCameraFocusControl)
    typeinfo name for QCameraFocusPrivate    0x000437b3   Data          22  qcamerafocus.o(.constdata__ZTS19QCameraFocusPrivate)
    typeinfo name for QCameraImageCapture    0x000437c9   Data          22  qcameraimagecapture.o(.constdata__ZTS19QCameraImageCapture)
    typeinfo name for QCameraLocksControl    0x000437df   Data          22  qcameralockscontrol.o(.constdata__ZTS19QCameraLocksControl)
    typeinfo name for QMediaObjectPrivate    0x000437f5   Data          22  qmediaobject.o(.constdata__ZTS19QMediaObjectPrivate)
    typeinfo name for QMediaPlayerControl    0x0004380b   Data          22  qmediaplayercontrol.o(.constdata__ZTS19QMediaPlayerControl)
    typeinfo name for QMediaPlayerPrivate    0x00043821   Data          22  qmediaplayer.o(.constdata__ZTS19QMediaPlayerPrivate)
    typeinfo name for QSoundEffectPrivate    0x00043837   Data          22  qsoundeffect_qsound_p.o(.constdata__ZTS19QSoundEffectPrivate)
    typeinfo name for QVideoDeviceControl    0x0004384d   Data          22  qvideodevicecontrol.o(.constdata__ZTS19QVideoDeviceControl)
    typeinfo name for QVideoWidgetBackend    0x00043863   Data          22  qvideowidget.o(.constdata__ZTS19QVideoWidgetBackend)
    typeinfo name for QVideoWidgetControl    0x00043879   Data          22  qvideowidgetcontrol.o(.constdata__ZTS19QVideoWidgetControl)
    typeinfo name for QVideoWindowControl    0x0004388f   Data          22  qvideowindowcontrol.o(.constdata__ZTS19QVideoWindowControl)
    typeinfo name for QAbstractAudioOutput   0x000438a5   Data          23  qaudiosystem.o(.constdata__ZTS20QAbstractAudioOutput)
    typeinfo name for QAbstractVideoBuffer   0x000438bc   Data          23  qabstractvideobuffer.o(.constdata__ZTS20QAbstractVideoBuffer)
    typeinfo name for QAudioEncoderControl   0x000438d3   Data          23  qaudioencodercontrol.o(.constdata__ZTS20QAudioEncoderControl)
    typeinfo name for QImageEncoderControl   0x000438ea   Data          23  qimageencodercontrol.o(.constdata__ZTS20QImageEncoderControl)
    typeinfo name for QMediaControlPrivate   0x00043901   Data          23  qmediacontrol.o(.constdata__ZTS20QMediaControlPrivate)
    typeinfo name for QMediaPlaylistReader   0x00043918   Data          23  qmediaplaylistioplugin.o(.constdata__ZTS20QMediaPlaylistReader)
    typeinfo name for QMediaPlaylistWriter   0x0004392f   Data          23  qmediaplaylistioplugin.o(.constdata__ZTS20QMediaPlaylistWriter)
    typeinfo name for QMediaServicePrivate   0x00043946   Data          23  qmediaservice.o(.constdata__ZTS20QMediaServicePrivate)
    typeinfo name for QMediaStreamsControl   0x0004395d   Data          23  qmediastreamscontrol.o(.constdata__ZTS20QMediaStreamsControl)
    typeinfo name for QPainterVideoSurface   0x00043974   Data          23  qpaintervideosurface.o(.constdata__ZTS20QPainterVideoSurface)
    typeinfo name for QVideoEncoderControl   0x0004398b   Data          23  qvideoencodercontrol.o(.constdata__ZTS20QVideoEncoderControl)
    typeinfo name for QVideoSurfacePainter   0x000439a2   Data          23  qpaintervideosurface.o(.constdata__ZTS20QVideoSurfacePainter)
    typeinfo name for QAbstractVideoSurface  0x000439b9   Data          24  qabstractvideosurface.o(.constdata__ZTS21QAbstractVideoSurface)
    typeinfo name for QMediaPlaylistControl  0x000439d1   Data          24  qmediaplaylistcontrol.o(.constdata__ZTS21QMediaPlaylistControl)
    typeinfo name for QMediaPlaylistPrivate  0x000439e9   Data          24  qmediaplaylist.o(.constdata__ZTS21QMediaPlaylistPrivate)
    typeinfo name for QMediaRecorderControl  0x00043a01   Data          24  qmediarecordercontrol.o(.constdata__ZTS21QMediaRecorderControl)
    typeinfo name for QMediaServiceProvider  0x00043a19   Data          24  qmediaserviceprovider.o(.constdata__ZTS21QMediaServiceProvider)
    typeinfo name for QVideoRendererControl  0x00043a31   Data          24  qvideorenderercontrol.o(.constdata__ZTS21QVideoRendererControl)
    typeinfo name for QAudioEndpointSelector 0x00043a49   Data          25  qaudioendpointselector.o(.constdata__ZTS22QAudioEndpointSelector)
    typeinfo name for QCameraExposureControl 0x00043a62   Data          25  qcameraexposurecontrol.o(.constdata__ZTS22QCameraExposureControl)
    typeinfo name for QCameraImageProcessing 0x00043a7b   Data          25  qcameraimageprocessing.o(.constdata__ZTS22QCameraImageProcessing)
    typeinfo name for QMediaContainerControl 0x00043a94   Data          25  qmediacontainercontrol.o(.constdata__ZTS22QMediaContainerControl)
    typeinfo name for QMediaPlaylistIOPlugin 0x00043aad   Data          25  qmediaplaylistioplugin.o(.constdata__ZTS22QMediaPlaylistIOPlugin)
    typeinfo name for QMediaPlaylistProvider 0x00043ac6   Data          25  qmediaplaylistprovider.o(.constdata__ZTS22QMediaPlaylistProvider)
    typeinfo name for QMetaDataReaderControl 0x00043adf   Data          25  qmetadatareadercontrol.o(.constdata__ZTS22QMetaDataReaderControl)
    typeinfo name for QMetaDataWriterControl 0x00043af8   Data          25  qmetadatawritercontrol.o(.constdata__ZTS22QMetaDataWriterControl)
    typeinfo name for QPluginServiceProvider 0x00043b11   Data          25  qmediaserviceprovider.o(.constdata__ZTS22QPluginServiceProvider)
    typeinfo name for QMediaBindableInterface 0x00043b2a   Data          26  qmediabindableinterface.o(.constdata__ZTS23QMediaBindableInterface)
    typeinfo name for QMediaPlaylistNavigator 0x00043b44   Data          26  qmediaplaylistnavigator.o(.constdata__ZTS23QMediaPlaylistNavigator)
    typeinfo name for QAbstractAudioDeviceInfo 0x00043b5e   Data          27  qaudiosystem.o(.constdata__ZTS24QAbstractAudioDeviceInfo)
    typeinfo name for QAudioDeviceInfoInternal 0x00043b79   Data          27  qaudiodeviceinfo_symbian_p.o(.constdata__ZTS24QAudioDeviceInfoInternal)
    typeinfo name for QImageVideoBufferPrivate 0x00043b94   Data          27  qimagevideobuffer.o(.constdata__ZTS24QImageVideoBufferPrivate)
    typeinfo name for QMediaImageViewerControl 0x00043baf   Data          27  qmediaimageviewerservice.o(.constdata__ZTS24QMediaImageViewerControl)
    typeinfo name for QMediaImageViewerPrivate 0x00043bca   Data          27  qmediaimageviewer.o(.constdata__ZTS24QMediaImageViewerPrivate)
    typeinfo name for QMediaImageViewerService 0x00043be5   Data          27  qmediaimageviewerservice.o(.constdata__ZTS24QMediaImageViewerService)
    typeinfo name for SymbianAudioInputPrivate 0x00043c00   Data          27  qaudioinput_symbian_p.o(.constdata__ZTS24SymbianAudioInputPrivate)
    typeinfo name for QGraphicsVideoItemPrivate 0x00043c1b   Data          28  qgraphicsvideoitem_symbian.o(.constdata__ZTS25QGraphicsVideoItemPrivate)
    typeinfo name for QMediaImageViewerRenderer 0x00043c37   Data          28  qmediaimageviewerservice.o(.constdata__ZTS25QMediaImageViewerRenderer)
    typeinfo name for QMediaPlaylistIOInterface 0x00043c53   Data          28  qmediaplaylistioplugin.o(.constdata__ZTS25QMediaPlaylistIOInterface)
    typeinfo name for QMemoryVideoBufferPrivate 0x00043c6f   Data          28  qmemoryvideobuffer.o(.constdata__ZTS25QMemoryVideoBufferPrivate)
    typeinfo name for QWindowVideoWidgetBackend 0x00043c8b   Data          28  qvideowidget.o(.constdata__ZTS25QWindowVideoWidgetBackend)
    typeinfo name for SymbianAudioOutputPrivate 0x00043ca7   Data          28  qaudiooutput_symbian_p.o(.constdata__ZTS25SymbianAudioOutputPrivate)
    typeinfo name for QAudioCaptureSourcePrivate 0x00043cc3   Data          29  qaudiocapturesource.o(.constdata__ZTS26QAudioCaptureSourcePrivate)
    typeinfo name for QCameraImageCaptureControl 0x00043ce0   Data          29  qcameraimagecapturecontrol.o(.constdata__ZTS26QCameraImageCaptureControl)
    typeinfo name for QLocalMediaPlaylistControl 0x00043cfd   Data          29  qmediaplaylist.o(.constdata__ZTS26QLocalMediaPlaylistControl)
    typeinfo name for QMediaPlaylistNullProvider 0x00043d1a   Data          29  qmediaplaylistnavigator.o(.constdata__ZTS26QMediaPlaylistNullProvider)
    typeinfo name for QVideoWidgetControlBackend 0x00043d37   Data          29  qvideowidget.o(.constdata__ZTS26QVideoWidgetControlBackend)
    typeinfo name for QAbstractVideoBufferPrivate 0x00043d54   Data          30  qabstractvideobuffer.o(.constdata__ZTS27QAbstractVideoBufferPrivate)
    typeinfo name for QLocalMediaPlaylistProvider 0x00043d72   Data          30  qlocalmediaplaylistprovider.o(.constdata__ZTS27QLocalMediaPlaylistProvider)
    typeinfo name for QMediaPlaylistSourceControl 0x00043d90   Data          30  qmediaplaylistsourcecontrol.o(.constdata__ZTS27QMediaPlaylistSourceControl)
    typeinfo name for QMediaServiceProviderPlugin 0x00043dae   Data          30  qmediaserviceprovider.o(.constdata__ZTS27QMediaServiceProviderPlugin)
    typeinfo name for QRendererVideoWidgetBackend 0x00043dcc   Data          30  qvideowidget.o(.constdata__ZTS27QRendererVideoWidgetBackend)
    typeinfo name for QVideoSurfaceGenericPainter 0x00043dea   Data          30  qpaintervideosurface.o(.constdata__ZTS27QVideoSurfaceGenericPainter)
    typeinfo name for QAudioSystemFactoryInterface 0x00043e08   Data          31  qaudiosystemplugin.o(.constdata__ZTS28QAudioSystemFactoryInterface)
    typeinfo name for QVideoWidgetControlInterface 0x00043e27   Data          31  qvideowidget.o(.constdata__ZTS28QVideoWidgetControlInterface)
    typeinfo name for QCameraImageProcessingControl 0x00043e46   Data          32  qcameraimageprocessingcontrol.o(.constdata__ZTS29QCameraImageProcessingControl)
    typeinfo name for QCameraImageProcessingPrivate 0x00043e66   Data          32  qcameraimageprocessing.o(.constdata__ZTS29QCameraImageProcessingPrivate)
    typeinfo name for QMediaPlaylistProviderPrivate 0x00043e86   Data          32  qlocalmediaplaylistprovider.o(.constdata__ZTS29QMediaPlaylistProviderPrivate)
    typeinfo name for QMediaImageViewerControlPrivate 0x00043ea6   Data          34  qmediaimageviewerservice.o(.constdata__ZTS31QMediaImageViewerControlPrivate)
    typeinfo name for QMediaImageViewerServicePrivate 0x00043ec8   Data          34  qmediaimageviewerservice.o(.constdata__ZTS31QMediaImageViewerServicePrivate)
    typeinfo name for QLocalMediaPlaylistProviderPrivate 0x00043eea   Data          37  qlocalmediaplaylistprovider.o(.constdata__ZTS34QLocalMediaPlaylistProviderPrivate)
    typeinfo name for QMediaServiceProviderFactoryInterface 0x00043f0f   Data          40  qmediaserviceprovider.o(.constdata__ZTS37QMediaServiceProviderFactoryInterface)
    typeinfo name for QCamera                0x00043f37   Data           9  qcamera.o(.constdata__ZTS7QCamera)
    typeinfo name for QSample                0x00043f40   Data           9  qsamplecache_p.o(.constdata__ZTS7QSample)
    typeinfo name for SymbianAudio::DevSoundWrapper 0x00043f49   Data          34  moc_qaudio_symbian_p.o(.constdata__ZTSN12SymbianAudio15DevSoundWrapperE)
    vtable for QAudioInput                   0x00043f6c   Data          56  qaudioinput.o(.constdata__ZTV11QAudioInput)
    vtable for QRadioTuner                   0x00043fa4   Data          76  qradiotuner.o(.constdata__ZTV11QRadioTuner)
    vtable for QAudioOutput                  0x00043ff0   Data          56  qaudiooutput.o(.constdata__ZTV12QAudioOutput)
    vtable for QCameraFocus                  0x00044028   Data          56  qcamerafocus.o(.constdata__ZTV12QCameraFocus)
    vtable for QMediaObject                  0x00044060   Data          76  qmediaobject.o(.constdata__ZTV12QMediaObject)
    vtable for QMediaPlayer                  0x000440ac   Data          76  qmediaplayer.o(.constdata__ZTV12QMediaPlayer)
    vtable for QSampleCache                  0x000440f8   Data          56  qsamplecache_p.o(.constdata__ZTV12QSampleCache)
    vtable for QSoundEffect                  0x00044130   Data          56  qsoundeffect.o(.constdata__ZTV12QSoundEffect)
    vtable for QVideoWidget                  0x00044168   Data         280  qvideowidget.o(.constdata__ZTV12QVideoWidget)
    vtable for QWaveDecoder                  0x00044280   Data         120  qwavedecoder_p.o(.constdata__ZTV12QWaveDecoder)
    vtable for QMediaControl                 0x000442f8   Data          56  qmediacontrol.o(.constdata__ZTV13QMediaControl)
    vtable for QMediaService                 0x00044330   Data          64  qmediaservice.o(.constdata__ZTV13QMediaService)
    vtable for QCameraControl                0x00044370   Data          84  qcameracontrol.o(.constdata__ZTV14QCameraControl)
    vtable for QCameraPrivate                0x000443c4   Data          16  qcamera.o(.constdata__ZTV14QCameraPrivate)
    vtable for QMediaPlaylist                0x000443d4   Data          88  qmediaplaylist.o(.constdata__ZTV14QMediaPlaylist)
    vtable for QMediaRecorder                0x0004442c   Data          88  qmediarecorder.o(.constdata__ZTV14QMediaRecorder)
    vtable for QCameraExposure               0x00044484   Data          56  qcameraexposure.o(.constdata__ZTV15QCameraExposure)
    vtable for QNullDeviceInfo               0x000444bc   Data          92  qaudiodevicefactory.o(.constdata__ZTV15QNullDeviceInfo)
    vtable for QNullInputDevice              0x00044518   Data         128  qaudiodevicefactory.o(.constdata__ZTV16QNullInputDevice)
    vtable for MDevSoundObserver             0x00044598   Data          44  qaudio_symbian_p.o(.constdata__ZTV17MDevSoundObserver)
    vtable for QCameraViewfinder             0x000445c4   Data         280  qcameraviewfinder.o(.constdata__ZTV17QCameraViewfinder)
    vtable for QFactoryInterface             0x000446dc   Data          20  qmediaplaylistioplugin.o(.constdata__ZTV17QFactoryInterface)
    vtable for QImageVideoBuffer             0x000446f0   Data          32  qimagevideobuffer.o(.constdata__ZTV17QImageVideoBuffer)
    vtable for QMediaImageViewer             0x00044710   Data          76  qmediaimageviewer.o(.constdata__ZTV17QMediaImageViewer)
    vtable for QNullOutputDevice             0x0004475c   Data         128  qaudiodevicefactory.o(.constdata__ZTV17QNullOutputDevice)
    vtable for QAudioInputPrivate            0x000447dc   Data         128  qaudioinput_symbian_p.o(.constdata__ZTV18QAudioInputPrivate)
    vtable for QAudioSystemPlugin            0x0004485c   Data         112  qaudiosystemplugin.o(.constdata__ZTV18QAudioSystemPlugin)
    vtable for QGraphicsVideoItem            0x000448cc   Data         256  qgraphicsvideoitem_symbian.o(.constdata__ZTV18QGraphicsVideoItem)
    vtable for QMemoryVideoBuffer            0x000449cc   Data          32  qmemoryvideobuffer.o(.constdata__ZTV18QMemoryVideoBuffer)
    vtable for QRadioTunerControl            0x000449ec   Data         160  qradiotunercontrol.o(.constdata__ZTV18QRadioTunerControl)
    vtable for QRadioTunerPrivate            0x00044a8c   Data          16  qradiotuner.o(.constdata__ZTV18QRadioTunerPrivate)
    vtable for QAbstractAudioInput           0x00044a9c   Data         128  qaudiosystem.o(.constdata__ZTV19QAbstractAudioInput)
    vtable for QAudioCaptureSource           0x00044b1c   Data          76  qaudiocapturesource.o(.constdata__ZTV19QAudioCaptureSource)
    vtable for QAudioOutputPrivate           0x00044b68   Data         128  qaudiooutput_symbian_p.o(.constdata__ZTV19QAudioOutputPrivate)
    vtable for QCameraFlashControl           0x00044be8   Data          72  qcameraflashcontrol.o(.constdata__ZTV19QCameraFlashControl)
    vtable for QCameraFocusControl           0x00044c30   Data         112  qcamerafocuscontrol.o(.constdata__ZTV19QCameraFocusControl)
    vtable for QCameraFocusPrivate           0x00044ca0   Data          16  qcamerafocus.o(.constdata__ZTV19QCameraFocusPrivate)
    vtable for QCameraImageCapture           0x00044cb0   Data          88  qcameraimagecapture.o(.constdata__ZTV19QCameraImageCapture)
    vtable for QCameraLocksControl           0x00044d08   Data          72  qcameralockscontrol.o(.constdata__ZTV19QCameraLocksControl)
    vtable for QMediaObjectPrivate           0x00044d50   Data          16  qmediaobject.o(.constdata__ZTV19QMediaObjectPrivate)
    vtable for QMediaPlayerControl           0x00044d60   Data         144  qmediaplayercontrol.o(.constdata__ZTV19QMediaPlayerControl)
    vtable for QMediaPlayerPrivate           0x00044df0   Data          16  qmediaplayer.o(.constdata__ZTV19QMediaPlayerPrivate)
    vtable for QSoundEffectPrivate           0x00044e00   Data          56  qsoundeffect_qsound_p.o(.constdata__ZTV19QSoundEffectPrivate)
    vtable for QVideoDeviceControl           0x00044e38   Data          84  qvideodevicecontrol.o(.constdata__ZTV19QVideoDeviceControl)
    vtable for QVideoWidgetBackend           0x00044e8c   Data         124  qvideowidget.o(.constdata__ZTV19QVideoWidgetBackend)
    vtable for QVideoWidgetControl           0x00044f08   Data         108  qvideowidgetcontrol.o(.constdata__ZTV19QVideoWidgetControl)
    vtable for QVideoWindowControl           0x00044f74   Data         128  qvideowindowcontrol.o(.constdata__ZTV19QVideoWindowControl)
    vtable for QAbstractAudioOutput          0x00044ff4   Data         128  qaudiosystem.o(.constdata__ZTV20QAbstractAudioOutput)
    vtable for QAbstractVideoBuffer          0x00045074   Data          32  qabstractvideobuffer.o(.constdata__ZTV20QAbstractVideoBuffer)
    vtable for QAudioEncoderControl          0x00045094   Data          88  qaudioencodercontrol.o(.constdata__ZTV20QAudioEncoderControl)
    vtable for QImageEncoderControl          0x000450ec   Data          76  qimageencodercontrol.o(.constdata__ZTV20QImageEncoderControl)
    vtable for QMediaControlPrivate          0x00045138   Data          16  qmediacontrol.o(.constdata__ZTV20QMediaControlPrivate)
    vtable for QMediaPlaylistReader          0x00045148   Data          28  qmediaplaylistioplugin.o(.constdata__ZTV20QMediaPlaylistReader)
    vtable for QMediaPlaylistWriter          0x00045164   Data          24  qmediaplaylistioplugin.o(.constdata__ZTV20QMediaPlaylistWriter)
    vtable for QMediaServicePrivate          0x0004517c   Data          16  qmediaservice.o(.constdata__ZTV20QMediaServicePrivate)
    vtable for QMediaStreamsControl          0x0004518c   Data          76  qmediastreamscontrol.o(.constdata__ZTV20QMediaStreamsControl)
    vtable for QPainterVideoSurface          0x000451d8   Data          80  qpaintervideosurface.o(.constdata__ZTV20QPainterVideoSurface)
    vtable for QVideoEncoderControl          0x00045228   Data          92  qvideoencodercontrol.o(.constdata__ZTV20QVideoEncoderControl)
    vtable for QVideoSurfacePainter          0x00045284   Data          48  qpaintervideosurface.o(.constdata__ZTV20QVideoSurfacePainter)
    vtable for QAbstractVideoSurface         0x000452b4   Data          80  qabstractvideosurface.o(.constdata__ZTV21QAbstractVideoSurface)
    vtable for QMediaPlaylistControl         0x00045304   Data          96  qmediaplaylistcontrol.o(.constdata__ZTV21QMediaPlaylistControl)
    vtable for QMediaPlaylistPrivate         0x00045364   Data          16  qmediaplaylist.o(.constdata__ZTV21QMediaPlaylistPrivate)
    vtable for QMediaRecorderControl         0x00045374   Data          96  qmediarecordercontrol.o(.constdata__ZTV21QMediaRecorderControl)
    vtable for QMediaServiceProvider         0x000453d4   Data          80  qmediaserviceprovider.o(.constdata__ZTV21QMediaServiceProvider)
    vtable for QVideoRendererControl         0x00045424   Data          64  qvideorenderercontrol.o(.constdata__ZTV21QVideoRendererControl)
    vtable for QAudioEndpointSelector        0x00045464   Data          76  qaudioendpointselector.o(.constdata__ZTV22QAudioEndpointSelector)
    vtable for QCameraExposureControl        0x000454b0   Data         104  qcameraexposurecontrol.o(.constdata__ZTV22QCameraExposureControl)
    vtable for QCameraImageProcessing        0x00045518   Data          56  qcameraimageprocessing.o(.constdata__ZTV22QCameraImageProcessing)
    vtable for QMediaContainerControl        0x00045550   Data          72  qmediacontainercontrol.o(.constdata__ZTV22QMediaContainerControl)
    vtable for QMediaPlaylistIOPlugin        0x00045598   Data         128  qmediaplaylistioplugin.o(.constdata__ZTV22QMediaPlaylistIOPlugin)
    vtable for QMediaPlaylistProvider        0x00045618   Data         116  qmediaplaylistprovider.o(.constdata__ZTV22QMediaPlaylistProvider)
    vtable for QMetaDataReaderControl        0x0004568c   Data          76  qmetadatareadercontrol.o(.constdata__ZTV22QMetaDataReaderControl)
    vtable for QMetaDataWriterControl        0x000456d8   Data          88  qmetadatawritercontrol.o(.constdata__ZTV22QMetaDataWriterControl)
    vtable for QPluginServiceProvider        0x00045730   Data          80  qmediaserviceprovider.o(.constdata__ZTV22QPluginServiceProvider)
    vtable for QMediaBindableInterface       0x00045780   Data          24  qmediabindableinterface.o(.constdata__ZTV23QMediaBindableInterface)
    vtable for QMediaPlaylistNavigator       0x00045798   Data          56  qmediaplaylistnavigator.o(.constdata__ZTV23QMediaPlaylistNavigator)
    vtable for QAbstractAudioDeviceInfo      0x000457d0   Data          92  qaudiosystem.o(.constdata__ZTV24QAbstractAudioDeviceInfo)
    vtable for QAudioDeviceInfoInternal      0x0004582c   Data          92  qaudiodeviceinfo_symbian_p.o(.constdata__ZTV24QAudioDeviceInfoInternal)
    vtable for QImageVideoBufferPrivate      0x00045888   Data          16  qimagevideobuffer.o(.constdata__ZTV24QImageVideoBufferPrivate)
    vtable for QMediaImageViewerControl      0x00045898   Data          56  qmediaimageviewerservice.o(.constdata__ZTV24QMediaImageViewerControl)
    vtable for QMediaImageViewerPrivate      0x000458d0   Data          16  qmediaimageviewer.o(.constdata__ZTV24QMediaImageViewerPrivate)
    vtable for QMediaImageViewerService      0x000458e0   Data          64  qmediaimageviewerservice.o(.constdata__ZTV24QMediaImageViewerService)
    vtable for SymbianAudioInputPrivate      0x00045920   Data         120  qaudioinput_symbian_p.o(.constdata__ZTV24SymbianAudioInputPrivate)
    vtable for QGraphicsVideoItemPrivate     0x00045998   Data          56  qgraphicsvideoitem_symbian.o(.constdata__ZTV25QGraphicsVideoItemPrivate)
    vtable for QMediaImageViewerRenderer     0x000459d0   Data          64  qmediaimageviewerservice.o(.constdata__ZTV25QMediaImageViewerRenderer)
    vtable for QMediaPlaylistIOInterface     0x00045a10   Data          44  qmediaplaylistioplugin.o(.constdata__ZTV25QMediaPlaylistIOInterface)
    vtable for QMemoryVideoBufferPrivate     0x00045a3c   Data          16  qmemoryvideobuffer.o(.constdata__ZTV25QMemoryVideoBufferPrivate)
    vtable for QWindowVideoWidgetBackend     0x00045a4c   Data         152  qvideowidget.o(.constdata__ZTV25QWindowVideoWidgetBackend)
    vtable for SymbianAudioOutputPrivate     0x00045ae4   Data         120  qaudiooutput_symbian_p.o(.constdata__ZTV25SymbianAudioOutputPrivate)
    vtable for QAudioCaptureSourcePrivate    0x00045b5c   Data          16  qaudiocapturesource.o(.constdata__ZTV26QAudioCaptureSourcePrivate)
    vtable for QCameraImageCaptureControl    0x00045b6c   Data          76  qcameraimagecapturecontrol.o(.constdata__ZTV26QCameraImageCaptureControl)
    vtable for QLocalMediaPlaylistControl    0x00045bb8   Data          96  qmediaplaylist.o(.constdata__ZTV26QLocalMediaPlaylistControl)
    vtable for QMediaPlaylistNullProvider    0x00045c18   Data         116  qmediaplaylistnavigator.o(.constdata__ZTV26QMediaPlaylistNullProvider)
    vtable for QVideoWidgetControlBackend    0x00045c8c   Data         128  qvideowidget.o(.constdata__ZTV26QVideoWidgetControlBackend)
    vtable for QAbstractVideoBufferPrivate   0x00045d0c   Data          16  qabstractvideobuffer.o(.constdata__ZTV27QAbstractVideoBufferPrivate)
    vtable for QLocalMediaPlaylistProvider   0x00045d1c   Data         116  qlocalmediaplaylistprovider.o(.constdata__ZTV27QLocalMediaPlaylistProvider)
    vtable for QMediaPlaylistSourceControl   0x00045d90   Data          64  qmediaplaylistsourcecontrol.o(.constdata__ZTV27QMediaPlaylistSourceControl)
    vtable for QMediaServiceProviderPlugin   0x00045dd0   Data          96  qmediaserviceprovider.o(.constdata__ZTV27QMediaServiceProviderPlugin)
    vtable for QRendererVideoWidgetBackend   0x00045e30   Data         152  qvideowidget.o(.constdata__ZTV27QRendererVideoWidgetBackend)
    vtable for QVideoSurfaceGenericPainter   0x00045ec8   Data          48  qpaintervideosurface.o(.constdata__ZTV27QVideoSurfaceGenericPainter)
    vtable for QAudioSystemFactoryInterface  0x00045ef8   Data          36  qaudiosystemplugin.o(.constdata__ZTV28QAudioSystemFactoryInterface)
    vtable for QVideoWidgetControlInterface  0x00045f1c   Data          44  qvideowidget.o(.constdata__ZTV28QVideoWidgetControlInterface)
    vtable for QCameraImageProcessingControl 0x00045f48   Data          80  qcameraimageprocessingcontrol.o(.constdata__ZTV29QCameraImageProcessingControl)
    vtable for QCameraImageProcessingPrivate 0x00045f98   Data          16  qcameraimageprocessing.o(.constdata__ZTV29QCameraImageProcessingPrivate)
    vtable for QMediaPlaylistProviderPrivate 0x00045fa8   Data          16  qlocalmediaplaylistprovider.o(.constdata__ZTV29QMediaPlaylistProviderPrivate)
    vtable for QMediaImageViewerControlPrivate 0x00045fb8   Data          16  qmediaimageviewerservice.o(.constdata__ZTV31QMediaImageViewerControlPrivate)
    vtable for QMediaImageViewerServicePrivate 0x00045fc8   Data          16  qmediaimageviewerservice.o(.constdata__ZTV31QMediaImageViewerServicePrivate)
    vtable for QLocalMediaPlaylistProviderPrivate 0x00045fd8   Data          16  qlocalmediaplaylistprovider.o(.constdata__ZTV34QLocalMediaPlaylistProviderPrivate)
    vtable for QCamera                       0x00045fe8   Data          76  qcamera.o(.constdata__ZTV7QCamera)
    vtable for QSample                       0x00046034   Data          56  qsamplecache_p.o(.constdata__ZTV7QSample)
    vtable for SymbianAudio::DevSoundWrapper 0x0004606c   Data         132  moc_qaudio_symbian_p.o(.constdata__ZTVN12SymbianAudio15DevSoundWrapperE)
    SHT$$INIT_ARRAY$$Base                    0x000460f0   Number         0  qmediaplayer.o(.init_array)
    .ARM.exidx$$Base                         0x00046110   Number         0  ucppinit.o(.ARM.exidx)
    SHT$$INIT_ARRAY$$Limit                   0x00046110   Data           0  qaudio.o(.init_array)
    .ARM.exidx$$Limit                        0x00049a08   Number         0  qmediaserviceprovider.o(.ARM.exidx)
    Image$$ER_RO$$Limit                      0x00049a08   Number         0  anon$$obj.o(linker$$defined$$symbols)
    <unnamed>::_registerPlayerMetaTypes      0x00400000   Data           1  qmediaplayer.o(.data)
    <unnamed>::_registerRecorderMetaTypes    0x00400024   Data           1  qmediarecorder.o(.data)
    <unnamed>::_registerCameraMetaTypes      0x00400058   Data           1  qcamera.o(.data)
    <unnamed>::_registerCameraExposureMetaTypes 0x00400059   Data           1  qcameraexposure.o(.data)
    <unnamed>::_registerCameraFocusMetaTypes 0x0040005a   Data           1  qcamerafocus.o(.data)
    <unnamed>::_registerRecorderMetaTypes    0x0040005b   Data           1  qcameraimagecapture.o(.data)
    QAudio::_register                        0x00400078   Data           1  qaudio.o(.data)
    __dso_handle                             0x0040008c   Data           4  ucppfini.o(.data)
    std::_Atomic_swap_struct<(int)1>::_S_swap_lock 0x00400090   Data          12  moc_qaudio_symbian_p.o(.data__ZNSt19_Atomic_swap_structILi1EE12_S_swap_lockE)
    QMetaTypeId<QNetworkRequest>::qt_metatype_id()::metatype_id 0x0040009c   Data           4  qmediaresource.o(.data__ZZN11QMetaTypeIdI15QNetworkRequestE14qt_metatype_idEvE11metatype_id)
    QMetaTypeId<QVideoSurfaceFormat>::qt_metatype_id()::metatype_id 0x004000a0   Data           4  qabstractvideosurface.o(.data__ZZN11QMetaTypeIdI19QVideoSurfaceFormatE14qt_metatype_idEvE11metatype_id)
    QMetaTypeId<QFlags<QCameraFocus::FocusMode>>::qt_metatype_id()::metatype_id 0x004000a4   Data           4  qcamerafocus.o(.data__ZZN11QMetaTypeIdI6QFlagsIN12QCameraFocus9FocusModeEEE14qt_metatype_idEvE11metatype_id)
    QMetaTypeId<QFlags<QCameraExposure::FlashMode>>::qt_metatype_id()::metatype_id 0x004000a8   Data           4  qcameraexposure.o(.data__ZZN11QMetaTypeIdI6QFlagsIN15QCameraExposure9FlashModeEEE14qt_metatype_idEvE11metatype_id)
    QMetaTypeId<QVideoFrame::PixelFormat>::qt_metatype_id()::metatype_id 0x004000ac   Data           4  qvideosurfaceformat.o(.data__ZZN11QMetaTypeIdIN11QVideoFrame11PixelFormatEE14qt_metatype_idEvE11metatype_id)
    QMetaTypeId<QCameraFocus::FocusPointMode>::qt_metatype_id()::metatype_id 0x004000b0   Data           4  qcamerafocus.o(.data__ZZN11QMetaTypeIdIN12QCameraFocus14FocusPointModeEE14qt_metatype_idEvE11metatype_id)
    QMetaTypeId<QMediaPlayer::MediaStatus>::qt_metatype_id()::metatype_id 0x004000b4   Data           4  qmediaplayer.o(.data__ZZN11QMetaTypeIdIN12QMediaPlayer11MediaStatusEE14qt_metatype_idEvE11metatype_id)
    QMetaTypeId<QMediaPlayer::Error>::qt_metatype_id()::metatype_id 0x004000b8   Data           4  qmediaplayer.o(.data__ZZN11QMetaTypeIdIN12QMediaPlayer5ErrorEE14qt_metatype_idEvE11metatype_id)
    QMetaTypeId<QMediaPlayer::State>::qt_metatype_id()::metatype_id 0x004000bc   Data           4  qmediaplayer.o(.data__ZZN11QMetaTypeIdIN12QMediaPlayer5StateEE14qt_metatype_idEvE11metatype_id)
    QMetaTypeId<QMediaRecorder::Error>::qt_metatype_id()::metatype_id 0x004000c0   Data           4  qmediarecorder.o(.data__ZZN11QMetaTypeIdIN14QMediaRecorder5ErrorEE14qt_metatype_idEvE11metatype_id)
    QMetaTypeId<QMediaRecorder::State>::qt_metatype_id()::metatype_id 0x004000c4   Data           4  qmediarecorder.o(.data__ZZN11QMetaTypeIdIN14QMediaRecorder5StateEE14qt_metatype_idEvE11metatype_id)
    QMetaTypeId<QCameraExposure::ExposureMode>::qt_metatype_id()::metatype_id 0x004000c8   Data           4  qcameraexposure.o(.data__ZZN11QMetaTypeIdIN15QCameraExposure12ExposureModeEE14qt_metatype_idEvE11metatype_id)
    QMetaTypeId<QCameraExposure::MeteringMode>::qt_metatype_id()::metatype_id 0x004000cc   Data           4  qcameraexposure.o(.data__ZZN11QMetaTypeIdIN15QCameraExposure12MeteringModeEE14qt_metatype_idEvE11metatype_id)
    QMetaTypeId<QCameraImageCapture::Error>::qt_metatype_id()::metatype_id 0x004000d0   Data           4  qcameraimagecapture.o(.data__ZZN11QMetaTypeIdIN19QCameraImageCapture5ErrorEE14qt_metatype_idEvE11metatype_id)
    QMetaTypeId<QVideoSurfaceFormat::YCbCrColorSpace>::qt_metatype_id()::metatype_id 0x004000d4   Data           4  qvideosurfaceformat.o(.data__ZZN11QMetaTypeIdIN19QVideoSurfaceFormat15YCbCrColorSpaceEE14qt_metatype_idEvE11metatype_id)
    QMetaTypeId<QVideoSurfaceFormat::Direction>::qt_metatype_id()::metatype_id 0x004000d8   Data           4  qvideosurfaceformat.o(.data__ZZN11QMetaTypeIdIN19QVideoSurfaceFormat9DirectionEE14qt_metatype_idEvE11metatype_id)
    QMetaTypeId<QAbstractVideoBuffer::HandleType>::qt_metatype_id()::metatype_id 0x004000dc   Data           4  qvideosurfaceformat.o(.data__ZZN11QMetaTypeIdIN20QAbstractVideoBuffer10HandleTypeEE14qt_metatype_idEvE11metatype_id)
    QMetaTypeId<QAbstractVideoSurface::Error>::qt_metatype_id()::metatype_id 0x004000e0   Data           4  qabstractvideosurface.o(.data__ZZN11QMetaTypeIdIN21QAbstractVideoSurface5ErrorEE14qt_metatype_idEvE11metatype_id)
    QMetaTypeId<QAudio::Mode>::qt_metatype_id()::metatype_id 0x004000e4   Data           4  qaudio.o(.data__ZZN11QMetaTypeIdIN6QAudio4ModeEE14qt_metatype_idEvE11metatype_id)
    QMetaTypeId<QAudio::Error>::qt_metatype_id()::metatype_id 0x004000e8   Data           4  qaudio.o(.data__ZZN11QMetaTypeIdIN6QAudio5ErrorEE14qt_metatype_idEvE11metatype_id)
    QMetaTypeId<QAudio::State>::qt_metatype_id()::metatype_id 0x004000ec   Data           4  qaudio.o(.data__ZZN11QMetaTypeIdIN6QAudio5StateEE14qt_metatype_idEvE11metatype_id)
    QMetaTypeId<QCamera::LockStatus>::qt_metatype_id()::metatype_id 0x004000f0   Data           4  qcamera.o(.data__ZZN11QMetaTypeIdIN7QCamera10LockStatusEE14qt_metatype_idEvE11metatype_id)
    QMetaTypeId<QCamera::LockChangeReason>::qt_metatype_id()::metatype_id 0x004000f4   Data           4  qcamera.o(.data__ZZN11QMetaTypeIdIN7QCamera16LockChangeReasonEE14qt_metatype_idEvE11metatype_id)
    QMetaTypeId<QCamera::Error>::qt_metatype_id()::metatype_id 0x004000f8   Data           4  qcamera.o(.data__ZZN11QMetaTypeIdIN7QCamera5ErrorEE14qt_metatype_idEvE11metatype_id)
    QMetaTypeId<QCamera::State>::qt_metatype_id()::metatype_id 0x004000fc   Data           4  qcamera.o(.data__ZZN11QMetaTypeIdIN7QCamera5StateEE14qt_metatype_idEvE11metatype_id)
    QMetaTypeId<QCamera::Status>::qt_metatype_id()::metatype_id 0x00400100   Data           4  qcamera.o(.data__ZZN11QMetaTypeIdIN7QCamera6StatusEE14qt_metatype_idEvE11metatype_id)
    QMetaTypeId<QCamera::LockType>::qt_metatype_id()::metatype_id 0x00400104   Data           4  qcamera.o(.data__ZZN11QMetaTypeIdIN7QCamera8LockTypeEE14qt_metatype_idEvE11metatype_id)
    QMetaTypeId<CCoeControl*>::qt_metatype_id()::metatype_id 0x00400108   Data           4  qgraphicsvideoitem_symbian.o(.data__ZZN11QMetaTypeIdIP11CCoeControlE14qt_metatype_idEvE11metatype_id)
    dtor_rec                                 0x0040010c   Data        2048  ucppfini.o(.bss)

