ARM Linker, RVCT2.2 [Build 686]

================================================================================

Image Symbol Table

    Local Symbols

    Symbol Name                              Value     Ov Type        Size  Object(Section)

    ../../unhosted.s                         0x00000000   Number         0  switch8.o ABSOLUTE
    M:\\epoc32\\build\\euser\\c_e18a23aea4fd210f\\edll_lib\\armv5\\udeb\\uc_dll_.cpp 0x00000000   Number         0  uc_dll_.o ABSOLUTE
    M:\\sf\\os\\kernelhwsrv\\kernel\\eka\\compsupp\\rvct\\ucppinit.cpp 0x00000000   Number         0  ucppinit.o ABSOLUTE
    M:\epoc32\build\euser\c_e18a23aea4fd210f\edll_lib\armv5\udeb\uc_dll_.cpp 0x00000000   Number         0  uc_dll_.o ABSOLUTE
    M:\sf\os\kernelhwsrv\kernel\eka\compsupp\rvct\dllexp.cpp 0x00000000   Number         0  dllexp.o ABSOLUTE
    M:\sf\os\kernelhwsrv\kernel\eka\compsupp\rvct\ucppfini.cpp 0x00000000   Number         0  ucppfini.o ABSOLUTE
    M:\sf\os\kernelhwsrv\kernel\eka\compsupp\rvct\ucppinit.cpp 0x00000000   Number         0  ucppinit.o ABSOLUTE
    M:\sf\os\kernelhwsrv\kernel\eka\euser\epoc\arm\uc_dll.cpp 0x00000000   Number         0  uc_dll.o ABSOLUTE
    S:\sf\mw\qtmobility\build\Release\qtmultimediakit_ecamengine\moc\moc_s60audioencodercontrol.cpp 0x00000000   Number         0  moc_s60audioencodercontrol.o ABSOLUTE
    S:\sf\mw\qtmobility\build\Release\qtmultimediakit_ecamengine\moc\moc_s60cameracontrol.cpp 0x00000000   Number         0  moc_s60cameracontrol.o ABSOLUTE
    S:\sf\mw\qtmobility\build\Release\qtmultimediakit_ecamengine\moc\moc_s60cameraexposurecontrol.cpp 0x00000000   Number         0  moc_s60cameraexposurecontrol.o ABSOLUTE
    S:\sf\mw\qtmobility\build\Release\qtmultimediakit_ecamengine\moc\moc_s60cameraflashcontrol.cpp 0x00000000   Number         0  moc_s60cameraflashcontrol.o ABSOLUTE
    S:\sf\mw\qtmobility\build\Release\qtmultimediakit_ecamengine\moc\moc_s60camerafocuscontrol.cpp 0x00000000   Number         0  moc_s60camerafocuscontrol.o ABSOLUTE
    S:\sf\mw\qtmobility\build\Release\qtmultimediakit_ecamengine\moc\moc_s60cameraimagecapturecontrol.cpp 0x00000000   Number         0  moc_s60cameraimagecapturecontrol.o ABSOLUTE
    S:\sf\mw\qtmobility\build\Release\qtmultimediakit_ecamengine\moc\moc_s60cameraimageprocessingcontrol.cpp 0x00000000   Number         0  moc_s60cameraimageprocessingcontrol.o ABSOLUTE
    S:\sf\mw\qtmobility\build\Release\qtmultimediakit_ecamengine\moc\moc_s60cameralockscontrol.cpp 0x00000000   Number         0  moc_s60cameralockscontrol.o ABSOLUTE
    S:\sf\mw\qtmobility\build\Release\qtmultimediakit_ecamengine\moc\moc_s60cameraservice.cpp 0x00000000   Number         0  moc_s60cameraservice.o ABSOLUTE
    S:\sf\mw\qtmobility\build\Release\qtmultimediakit_ecamengine\moc\moc_s60cameraserviceplugin.cpp 0x00000000   Number         0  moc_s60cameraserviceplugin.o ABSOLUTE
    S:\sf\mw\qtmobility\build\Release\qtmultimediakit_ecamengine\moc\moc_s60camerasettings.cpp 0x00000000   Number         0  moc_s60camerasettings.o ABSOLUTE
    S:\sf\mw\qtmobility\build\Release\qtmultimediakit_ecamengine\moc\moc_s60cameraviewfinderengine.cpp 0x00000000   Number         0  moc_s60cameraviewfinderengine.o ABSOLUTE
    S:\sf\mw\qtmobility\build\Release\qtmultimediakit_ecamengine\moc\moc_s60imagecapturesession.cpp 0x00000000   Number         0  moc_s60imagecapturesession.o ABSOLUTE
    S:\sf\mw\qtmobility\build\Release\qtmultimediakit_ecamengine\moc\moc_s60imageencodercontrol.cpp 0x00000000   Number         0  moc_s60imageencodercontrol.o ABSOLUTE
    S:\sf\mw\qtmobility\build\Release\qtmultimediakit_ecamengine\moc\moc_s60mediacontainercontrol.cpp 0x00000000   Number         0  moc_s60mediacontainercontrol.o ABSOLUTE
    S:\sf\mw\qtmobility\build\Release\qtmultimediakit_ecamengine\moc\moc_s60mediarecordercontrol.cpp 0x00000000   Number         0  moc_s60mediarecordercontrol.o ABSOLUTE
    S:\sf\mw\qtmobility\build\Release\qtmultimediakit_ecamengine\moc\moc_s60videocapturesession.cpp 0x00000000   Number         0  moc_s60videocapturesession.o ABSOLUTE
    S:\sf\mw\qtmobility\build\Release\qtmultimediakit_ecamengine\moc\moc_s60videodevicecontrol.cpp 0x00000000   Number         0  moc_s60videodevicecontrol.o ABSOLUTE
    S:\sf\mw\qtmobility\build\Release\qtmultimediakit_ecamengine\moc\moc_s60videodisplay.cpp 0x00000000   Number         0  moc_s60videodisplay.o ABSOLUTE
    S:\sf\mw\qtmobility\build\Release\qtmultimediakit_ecamengine\moc\moc_s60videoencodercontrol.cpp 0x00000000   Number         0  moc_s60videoencodercontrol.o ABSOLUTE
    S:\sf\mw\qtmobility\build\Release\qtmultimediakit_ecamengine\moc\moc_s60videorenderercontrol.cpp 0x00000000   Number         0  moc_s60videorenderercontrol.o ABSOLUTE
    S:\sf\mw\qtmobility\build\Release\qtmultimediakit_ecamengine\moc\moc_s60videowidget.cpp 0x00000000   Number         0  moc_s60videowidget.o ABSOLUTE
    S:\sf\mw\qtmobility\build\Release\qtmultimediakit_ecamengine\moc\moc_s60videowidgetcontrol.cpp 0x00000000   Number         0  moc_s60videowidgetcontrol.o ABSOLUTE
    S:\sf\mw\qtmobility\build\Release\qtmultimediakit_ecamengine\moc\moc_s60videowidgetdisplay.cpp 0x00000000   Number         0  moc_s60videowidgetdisplay.o ABSOLUTE
    S:\sf\mw\qtmobility\build\Release\qtmultimediakit_ecamengine\moc\moc_s60videowindowcontrol.cpp 0x00000000   Number         0  moc_s60videowindowcontrol.o ABSOLUTE
    S:\sf\mw\qtmobility\plugins\multimedia\symbian\ecam\s60audioencodercontrol.cpp 0x00000000   Number         0  s60audioencodercontrol.o ABSOLUTE
    S:\sf\mw\qtmobility\plugins\multimedia\symbian\ecam\s60cameracontrol.cpp 0x00000000   Number         0  s60cameracontrol.o ABSOLUTE
    S:\sf\mw\qtmobility\plugins\multimedia\symbian\ecam\s60cameraengine.cpp 0x00000000   Number         0  s60cameraengine.o ABSOLUTE
    S:\sf\mw\qtmobility\plugins\multimedia\symbian\ecam\s60cameraexposurecontrol.cpp 0x00000000   Number         0  s60cameraexposurecontrol.o ABSOLUTE
    S:\sf\mw\qtmobility\plugins\multimedia\symbian\ecam\s60cameraflashcontrol.cpp 0x00000000   Number         0  s60cameraflashcontrol.o ABSOLUTE
    S:\sf\mw\qtmobility\plugins\multimedia\symbian\ecam\s60camerafocuscontrol.cpp 0x00000000   Number         0  s60camerafocuscontrol.o ABSOLUTE
    S:\sf\mw\qtmobility\plugins\multimedia\symbian\ecam\s60cameraimagecapturecontrol.cpp 0x00000000   Number         0  s60cameraimagecapturecontrol.o ABSOLUTE
    S:\sf\mw\qtmobility\plugins\multimedia\symbian\ecam\s60cameraimageprocessingcontrol.cpp 0x00000000   Number         0  s60cameraimageprocessingcontrol.o ABSOLUTE
    S:\sf\mw\qtmobility\plugins\multimedia\symbian\ecam\s60cameralockscontrol.cpp 0x00000000   Number         0  s60cameralockscontrol.o ABSOLUTE
    S:\sf\mw\qtmobility\plugins\multimedia\symbian\ecam\s60cameraservice.cpp 0x00000000   Number         0  s60cameraservice.o ABSOLUTE
    S:\sf\mw\qtmobility\plugins\multimedia\symbian\ecam\s60cameraserviceplugin.cpp 0x00000000   Number         0  s60cameraserviceplugin.o ABSOLUTE
    S:\sf\mw\qtmobility\plugins\multimedia\symbian\ecam\s60camerasettings.cpp 0x00000000   Number         0  s60camerasettings.o ABSOLUTE
    S:\sf\mw\qtmobility\plugins\multimedia\symbian\ecam\s60cameraviewfinderengine.cpp 0x00000000   Number         0  s60cameraviewfinderengine.o ABSOLUTE
    S:\sf\mw\qtmobility\plugins\multimedia\symbian\ecam\s60imagecapturesession.cpp 0x00000000   Number         0  s60imagecapturesession.o ABSOLUTE
    S:\sf\mw\qtmobility\plugins\multimedia\symbian\ecam\s60imageencodercontrol.cpp 0x00000000   Number         0  s60imageencodercontrol.o ABSOLUTE
    S:\sf\mw\qtmobility\plugins\multimedia\symbian\ecam\s60mediacontainercontrol.cpp 0x00000000   Number         0  s60mediacontainercontrol.o ABSOLUTE
    S:\sf\mw\qtmobility\plugins\multimedia\symbian\ecam\s60mediarecordercontrol.cpp 0x00000000   Number         0  s60mediarecordercontrol.o ABSOLUTE
    S:\sf\mw\qtmobility\plugins\multimedia\symbian\ecam\s60videocapturesession.cpp 0x00000000   Number         0  s60videocapturesession.o ABSOLUTE
    S:\sf\mw\qtmobility\plugins\multimedia\symbian\ecam\s60videodevicecontrol.cpp 0x00000000   Number         0  s60videodevicecontrol.o ABSOLUTE
    S:\sf\mw\qtmobility\plugins\multimedia\symbian\ecam\s60videoencodercontrol.cpp 0x00000000   Number         0  s60videoencodercontrol.o ABSOLUTE
    S:\sf\mw\qtmobility\plugins\multimedia\symbian\ecam\s60videorenderercontrol.cpp 0x00000000   Number         0  s60videorenderercontrol.o ABSOLUTE
    S:\sf\mw\qtmobility\plugins\multimedia\symbian\videooutput\s60videodisplay.cpp 0x00000000   Number         0  s60videodisplay.o ABSOLUTE
    S:\sf\mw\qtmobility\plugins\multimedia\symbian\videooutput\s60videooutpututils.cpp 0x00000000   Number         0  s60videooutpututils.o ABSOLUTE
    S:\sf\mw\qtmobility\plugins\multimedia\symbian\videooutput\s60videowidget.cpp 0x00000000   Number         0  s60videowidget.o ABSOLUTE
    S:\sf\mw\qtmobility\plugins\multimedia\symbian\videooutput\s60videowidgetcontrol.cpp 0x00000000   Number         0  s60videowidgetcontrol.o ABSOLUTE
    S:\sf\mw\qtmobility\plugins\multimedia\symbian\videooutput\s60videowidgetdisplay.cpp 0x00000000   Number         0  s60videowidgetdisplay.o ABSOLUTE
    S:\sf\mw\qtmobility\plugins\multimedia\symbian\videooutput\s60videowindowcontrol.cpp 0x00000000   Number         0  s60videowindowcontrol.o ABSOLUTE
    S:\sf\mw\qtmobility\plugins\multimedia\symbian\videooutput\s60videowindowdisplay.cpp 0x00000000   Number         0  s60videowindowdisplay.o ABSOLUTE
    .emb_text                                0x00008000   Section       40  uc_dll_.o(.emb_text)
    Symbian$$eit_base                        0x00008014   Data           4  uc_dll_.o(.emb_text)
    Symbian$$eit_limit                       0x00008018   Data           4  uc_dll_.o(.emb_text)
    Symbian$$code_seg_base                   0x0000801c   Data           4  uc_dll_.o(.emb_text)
    Symbian$$code_seg_limit                  0x00008020   Data           4  uc_dll_.o(.emb_text)
    Symbian$$reserved                        0x00008024   Data           4  uc_dll_.o(.emb_text)
    .emb_text                                0x00008028   Section       52  ucppinit.o(.emb_text)
    loop                                     0x0000803c   ARM Code       0  ucppinit.o(.emb_text)
    ret                                      0x00008044   ARM Code       0  ucppinit.o(.emb_text)
    base                                     0x00008054   Data           0  ucppinit.o(.emb_text)
    limit                                    0x00008058   Data           0  ucppinit.o(.emb_text)
    .text                                    0x00008f9c   Section      676  moc_s60videodisplay.o(.text)
    .text                                    0x00009240   Section      272  moc_s60videowidget.o(.text)
    .text                                    0x00009350   Section      356  moc_s60videowidgetcontrol.o(.text)
    .text                                    0x000094b4   Section      116  moc_s60videowidgetdisplay.o(.text)
    .text                                    0x00009528   Section      240  moc_s60videowindowcontrol.o(.text)
    .text                                    0x00009618   Section      180  moc_s60cameralockscontrol.o(.text)
    .text                                    0x000096cc   Section      140  moc_s60camerafocuscontrol.o(.text)
    .text                                    0x00009758   Section      188  moc_s60cameraexposurecontrol.o(.text)
    .text                                    0x00009814   Section      140  moc_s60cameraflashcontrol.o(.text)
    DevVideoPanic(int)                       0x000098a1   Thumb Code    22  moc_s60cameracontrol.o(.text)
    .text                                    0x000098a0   Section      316  moc_s60cameracontrol.o(.text)
    DevVideoPanic(int)                       0x000099dd   Thumb Code    22  moc_s60mediarecordercontrol.o(.text)
    .text                                    0x000099dc   Section      220  moc_s60mediarecordercontrol.o(.text)
    DevVideoPanic(int)                       0x00009ab9   Thumb Code    22  moc_s60videocapturesession.o(.text)
    .text                                    0x00009ab8   Section      512  moc_s60videocapturesession.o(.text)
    .text                                    0x00009cb8   Section      688  moc_s60imagecapturesession.o(.text)
    .text                                    0x00009f68   Section      116  moc_s60mediacontainercontrol.o(.text)
    .text                                    0x00009fdc   Section      116  moc_s60videoencodercontrol.o(.text)
    .text                                    0x0000a050   Section      116  moc_s60audioencodercontrol.o(.text)
    .text                                    0x0000a0c4   Section      116  moc_s60cameraservice.o(.text)
    .text                                    0x0000a138   Section      140  moc_s60cameraimageprocessingcontrol.o(.text)
    .text                                    0x0000a1c4   Section      116  moc_s60cameraimagecapturecontrol.o(.text)
    .text                                    0x0000a238   Section      144  moc_s60videodevicecontrol.o(.text)
    .text                                    0x0000a2c8   Section      116  moc_s60imageencodercontrol.o(.text)
    .text                                    0x0000a33c   Section      528  moc_s60camerasettings.o(.text)
    .text                                    0x0000a54c   Section      368  moc_s60cameraviewfinderengine.o(.text)
    .text                                    0x0000a6bc   Section      156  moc_s60videorenderercontrol.o(.text)
    .text                                    0x0000a758   Section      248  moc_s60cameraserviceplugin.o(.text)
    .text                                    0x0000a850   Section      952  s60cameralockscontrol.o(.text)
    .text                                    0x0000ac08   Section     1136  s60camerafocuscontrol.o(.text)
    .text                                    0x0000b078   Section     4200  s60cameraexposurecontrol.o(.text)
    |L1.232|                                 0x0000b160   Data           0  s60cameraexposurecontrol.o(.text)
    |L1.252|                                 0x0000b174   Data           0  s60cameraexposurecontrol.o(.text)
    |L1.272|                                 0x0000b188   Data           0  s60cameraexposurecontrol.o(.text)
    |L1.296|                                 0x0000b1a0   Data           0  s60cameraexposurecontrol.o(.text)
    |L1.320|                                 0x0000b1b8   Data           0  s60cameraexposurecontrol.o(.text)
    |L1.344|                                 0x0000b1d0   Data           0  s60cameraexposurecontrol.o(.text)
    |L1.368|                                 0x0000b1e8   Data           0  s60cameraexposurecontrol.o(.text)
    |L1.396|                                 0x0000b204   Data           0  s60cameraexposurecontrol.o(.text)
    |L1.424|                                 0x0000b220   Data           0  s60cameraexposurecontrol.o(.text)
    |L1.440|                                 0x0000b230   Data           0  s60cameraexposurecontrol.o(.text)
    .text                                    0x0000c0e0   Section      552  s60cameraflashcontrol.o(.text)
    DevVideoPanic(int)                       0x0000c309   Thumb Code    22  s60cameracontrol.o(.text)
    .text                                    0x0000c308   Section     6000  s60cameracontrol.o(.text)
    |L1.1100|                                0x0000c754   Data           0  s60cameracontrol.o(.text)
    |L1.1128|                                0x0000c770   Data           0  s60cameracontrol.o(.text)
    |L1.1976|                                0x0000cac0   Data           0  s60cameracontrol.o(.text)
    |L1.2208|                                0x0000cba8   Data           0  s60cameracontrol.o(.text)
    |L1.3336|                                0x0000d010   Data           0  s60cameracontrol.o(.text)
    |L1.3404|                                0x0000d054   Data           0  s60cameracontrol.o(.text)
    |L1.4336|                                0x0000d3f8   Data           0  s60cameracontrol.o(.text)
    |L1.4404|                                0x0000d43c   Data           0  s60cameracontrol.o(.text)
    |L1.4448|                                0x0000d468   Data           0  s60cameracontrol.o(.text)
    |L1.4548|                                0x0000d4cc   Data           0  s60cameracontrol.o(.text)
    DevVideoPanic(int)                       0x0000da79   Thumb Code    22  s60mediarecordercontrol.o(.text)
    .text                                    0x0000da78   Section      864  s60mediarecordercontrol.o(.text)
    DevVideoPanic(int)                       0x0000ddd9   Thumb Code    22  s60videocapturesession.o(.text)
    .text                                    0x0000ddd8   Section    30676  s60videocapturesession.o(.text)
    |L1.160|                                 0x0000de78   Data           0  s60videocapturesession.o(.text)
    |L1.180|                                 0x0000de8c   Data           0  s60videocapturesession.o(.text)
    |L1.208|                                 0x0000dea8   Data           0  s60videocapturesession.o(.text)
    |L1.248|                                 0x0000ded0   Data           0  s60videocapturesession.o(.text)
    |L1.288|                                 0x0000def8   Data           0  s60videocapturesession.o(.text)
    |L1.332|                                 0x0000df24   Data           0  s60videocapturesession.o(.text)
    |L1.372|                                 0x0000df4c   Data           0  s60videocapturesession.o(.text)
    |L1.544|                                 0x0000dff8   Data           0  s60videocapturesession.o(.text)
    |L1.588|                                 0x0000e024   Data           0  s60videocapturesession.o(.text)
    |L1.616|                                 0x0000e040   Data           0  s60videocapturesession.o(.text)
    |L1.632|                                 0x0000e050   Data           0  s60videocapturesession.o(.text)
    |L1.668|                                 0x0000e074   Data           0  s60videocapturesession.o(.text)
    |L1.704|                                 0x0000e098   Data           0  s60videocapturesession.o(.text)
    |L1.744|                                 0x0000e0c0   Data           0  s60videocapturesession.o(.text)
    |L1.780|                                 0x0000e0e4   Data           0  s60videocapturesession.o(.text)
    |L1.964|                                 0x0000e19c   Data           0  s60videocapturesession.o(.text)
    |L1.1004|                                0x0000e1c4   Data           0  s60videocapturesession.o(.text)
    |L1.1044|                                0x0000e1ec   Data           0  s60videocapturesession.o(.text)
    |L1.1080|                                0x0000e210   Data           0  s60videocapturesession.o(.text)
    |L1.1092|                                0x0000e21c   Data           0  s60videocapturesession.o(.text)
    |L1.1128|                                0x0000e240   Data           0  s60videocapturesession.o(.text)
    |L1.1164|                                0x0000e264   Data           0  s60videocapturesession.o(.text)
    |L1.1200|                                0x0000e288   Data           0  s60videocapturesession.o(.text)
    |L1.1236|                                0x0000e2ac   Data           0  s60videocapturesession.o(.text)
    |L1.1272|                                0x0000e2d0   Data           0  s60videocapturesession.o(.text)
    |L1.1432|                                0x0000e370   Data           0  s60videocapturesession.o(.text)
    |L1.1468|                                0x0000e394   Data           0  s60videocapturesession.o(.text)
    |L1.1504|                                0x0000e3b8   Data           0  s60videocapturesession.o(.text)
    |L1.1544|                                0x0000e3e0   Data           0  s60videocapturesession.o(.text)
    |L1.1580|                                0x0000e404   Data           0  s60videocapturesession.o(.text)
    |L1.1616|                                0x0000e428   Data           0  s60videocapturesession.o(.text)
    |L1.1656|                                0x0000e450   Data           0  s60videocapturesession.o(.text)
    |L1.1692|                                0x0000e474   Data           0  s60videocapturesession.o(.text)
    |L1.1728|                                0x0000e498   Data           0  s60videocapturesession.o(.text)
    |L1.1892|                                0x0000e53c   Data           0  s60videocapturesession.o(.text)
    |L1.1928|                                0x0000e560   Data           0  s60videocapturesession.o(.text)
    |L1.1964|                                0x0000e584   Data           0  s60videocapturesession.o(.text)
    |L1.2004|                                0x0000e5ac   Data           0  s60videocapturesession.o(.text)
    |L1.2040|                                0x0000e5d0   Data           0  s60videocapturesession.o(.text)
    |L1.2076|                                0x0000e5f4   Data           0  s60videocapturesession.o(.text)
    |L1.2116|                                0x0000e61c   Data           0  s60videocapturesession.o(.text)
    |L1.2152|                                0x0000e640   Data           0  s60videocapturesession.o(.text)
    |L1.2188|                                0x0000e664   Data           0  s60videocapturesession.o(.text)
    |L1.2352|                                0x0000e708   Data           0  s60videocapturesession.o(.text)
    |L1.2388|                                0x0000e72c   Data           0  s60videocapturesession.o(.text)
    |L1.2424|                                0x0000e750   Data           0  s60videocapturesession.o(.text)
    |L1.2464|                                0x0000e778   Data           0  s60videocapturesession.o(.text)
    |L1.2500|                                0x0000e79c   Data           0  s60videocapturesession.o(.text)
    |L1.2536|                                0x0000e7c0   Data           0  s60videocapturesession.o(.text)
    |L1.2576|                                0x0000e7e8   Data           0  s60videocapturesession.o(.text)
    |L1.2612|                                0x0000e80c   Data           0  s60videocapturesession.o(.text)
    |L1.2648|                                0x0000e830   Data           0  s60videocapturesession.o(.text)
    |L1.3632|                                0x0000ec08   Data           0  s60videocapturesession.o(.text)
    |L1.3668|                                0x0000ec2c   Data           0  s60videocapturesession.o(.text)
    |L1.3704|                                0x0000ec50   Data           0  s60videocapturesession.o(.text)
    |L1.3744|                                0x0000ec78   Data           0  s60videocapturesession.o(.text)
    |L1.3752|                                0x0000ec80   Data           0  s60videocapturesession.o(.text)
    |L1.3764|                                0x0000ec8c   Data           0  s60videocapturesession.o(.text)
    |L1.3776|                                0x0000ec98   Data           0  s60videocapturesession.o(.text)
    |L1.6388|                                0x0000f6cc   Data           0  s60videocapturesession.o(.text)
    |L1.6436|                                0x0000f6fc   Data           0  s60videocapturesession.o(.text)
    |L1.6484|                                0x0000f72c   Data           0  s60videocapturesession.o(.text)
    |L1.9420|                                0x000102a4   Data           0  s60videocapturesession.o(.text)
    |L1.9480|                                0x000102e0   Data           0  s60videocapturesession.o(.text)
    |L1.10656|                               0x00010778   Data           0  s60videocapturesession.o(.text)
    |L1.11412|                               0x00010a6c   Data           0  s60videocapturesession.o(.text)
    |L1.12660|                               0x00010f4c   Data           0  s60videocapturesession.o(.text)
    |L1.13720|                               0x00011370   Data           0  s60videocapturesession.o(.text)
    |L1.16200|                               0x00011d20   Data           0  s60videocapturesession.o(.text)
    |L1.20872|                               0x00012f60   Data           0  s60videocapturesession.o(.text)
    |L1.20880|                               0x00012f68   Data           0  s60videocapturesession.o(.text)
    |L1.25864|                               0x000142e0   Data           0  s60videocapturesession.o(.text)
    qFuzzyCompare(float, float)              0x000155ad   Thumb Code    84  s60imagecapturesession.o(.text)
    .text                                    0x000155ac   Section    14016  s60imagecapturesession.o(.text)
    |L1.1052|                                0x000159c8   Data           0  s60imagecapturesession.o(.text)
    |L1.2264|                                0x00015e84   Data           0  s60imagecapturesession.o(.text)
    |L1.2300|                                0x00015ea8   Data           0  s60imagecapturesession.o(.text)
    |L1.2336|                                0x00015ecc   Data           0  s60imagecapturesession.o(.text)
    |L1.4360|                                0x000166b4   Data           0  s60imagecapturesession.o(.text)
    |L1.4372|                                0x000166c0   Data           0  s60imagecapturesession.o(.text)
    |L1.5532|                                0x00016b48   Data           0  s60imagecapturesession.o(.text)
    |L1.9500|                                0x00017ac8   Data           0  s60imagecapturesession.o(.text)
    DevVideoPanic(int)                       0x00018c6d   Thumb Code    22  s60mediacontainercontrol.o(.text)
    .text                                    0x00018c6c   Section      648  s60mediacontainercontrol.o(.text)
    DevVideoPanic(int)                       0x00018ef5   Thumb Code    22  s60videoencodercontrol.o(.text)
    .text                                    0x00018ef4   Section     2148  s60videoencodercontrol.o(.text)
    DevVideoPanic(int)                       0x00019759   Thumb Code    22  s60audioencodercontrol.o(.text)
    .text                                    0x00019758   Section     1112  s60audioencodercontrol.o(.text)
    DevVideoPanic(int)                       0x00019bb1   Thumb Code    22  s60cameraservice.o(.text)
    .text                                    0x00019bb0   Section     2288  s60cameraservice.o(.text)
    .text                                    0x0001a4a0   Section     1206  s60cameraimageprocessingcontrol.o(.text)
    DevVideoPanic(int)                       0x0001a959   Thumb Code    22  s60cameraimagecapturecontrol.o(.text)
    .text                                    0x0001a958   Section      828  s60cameraimagecapturecontrol.o(.text)
    DevVideoPanic(int)                       0x0001ac95   Thumb Code    22  s60videodevicecontrol.o(.text)
    .text                                    0x0001ac94   Section      324  s60videodevicecontrol.o(.text)
    .text                                    0x0001add8   Section      660  s60imageencodercontrol.o(.text)
    .text                                    0x0001b06c   Section     6896  s60camerasettings.o(.text)
    |L1.1248|                                0x0001b54c   Data           0  s60camerasettings.o(.text)
    |L1.1276|                                0x0001b568   Data           0  s60camerasettings.o(.text)
    |L1.2348|                                0x0001b998   Data           0  s60camerasettings.o(.text)
    .text                                    0x0001cb5c   Section     2970  s60cameraengine.o(.text)
    DevVideoPanic(int)                       0x0001d6f9   Thumb Code    22  s60cameraviewfinderengine.o(.text)
    .text                                    0x0001d6f8   Section     5644  s60cameraviewfinderengine.o(.text)
    |L1.1104|                                0x0001db48   Data           0  s60cameraviewfinderengine.o(.text)
    |L1.1176|                                0x0001db90   Data           0  s60cameraviewfinderengine.o(.text)
    |L1.1220|                                0x0001dbbc   Data           0  s60cameraviewfinderengine.o(.text)
    |L1.2256|                                0x0001dfc8   Data           0  s60cameraviewfinderengine.o(.text)
    |L1.2284|                                0x0001dfe4   Data           0  s60cameraviewfinderengine.o(.text)
    |L1.2360|                                0x0001e030   Data           0  s60cameraviewfinderengine.o(.text)
    |L1.2388|                                0x0001e04c   Data           0  s60cameraviewfinderengine.o(.text)
    |L1.2420|                                0x0001e06c   Data           0  s60cameraviewfinderengine.o(.text)
    |L1.2452|                                0x0001e08c   Data           0  s60cameraviewfinderengine.o(.text)
    |L1.2496|                                0x0001e0b8   Data           0  s60cameraviewfinderengine.o(.text)
    |L1.2528|                                0x0001e0d8   Data           0  s60cameraviewfinderengine.o(.text)
    |L1.2556|                                0x0001e0f4   Data           0  s60cameraviewfinderengine.o(.text)
    |L1.2580|                                0x0001e10c   Data           0  s60cameraviewfinderengine.o(.text)
    |L1.2616|                                0x0001e130   Data           0  s60cameraviewfinderengine.o(.text)
    |L1.2648|                                0x0001e150   Data           0  s60cameraviewfinderengine.o(.text)
    |L1.3748|                                0x0001e59c   Data           0  s60cameraviewfinderengine.o(.text)
    .text                                    0x0001ed04   Section      152  s60videorenderercontrol.o(.text)
    .text                                    0x0001ed9c   Section      840  s60cameraserviceplugin.o(.text)
    .text                                    0x0001f0e4   Section      896  s60videodisplay.o(.text)
    .text                                    0x0001f464   Section      168  s60videooutpututils.o(.text)
    .text                                    0x0001f50c   Section     1508  s60videowidget.o(.text)
    .text                                    0x0001faf0   Section      416  s60videowidgetcontrol.o(.text)
    .text                                    0x0001fc90   Section     1040  s60videowidgetdisplay.o(.text)
    .text                                    0x000200a0   Section      484  s60videowindowcontrol.o(.text)
    .text                                    0x00020284   Section      736  s60videowindowdisplay.o(.text)
    .text                                    0x00020564   Section       24  switch8.o(.text)
    .text                                    0x0002057c   Section       80  uc_dll.o(.text)
    .text                                    0x000205cc   Section      180  ucppfini.o(.text)
    .text                                    0x00020680   Section        4  dllexp.o(.text)
    .text.clean                              0x00020684   Section       10  s60cameralockscontrol.o(.text.clean)
    .text.clean                              0x0002068e   Section       78  s60camerafocuscontrol.o(.text.clean)
    .text.clean                              0x000206dc   Section      244  s60cameraexposurecontrol.o(.text.clean)
    .text.clean                              0x000207d0   Section       24  s60cameraflashcontrol.o(.text.clean)
    .text.clean                              0x000207e8   Section      406  s60cameracontrol.o(.text.clean)
    .text.clean                              0x0002097e   Section       30  s60mediarecordercontrol.o(.text.clean)
    .text.clean                              0x0002099c   Section     2456  s60videocapturesession.o(.text.clean)
    .text.clean                              0x00021334   Section     1340  s60imagecapturesession.o(.text.clean)
    .text.clean                              0x00021870   Section      130  s60mediacontainercontrol.o(.text.clean)
    .text.clean                              0x000218f2   Section      190  s60videoencodercontrol.o(.text.clean)
    .text.clean                              0x000219b0   Section       74  s60audioencodercontrol.o(.text.clean)
    .text.clean                              0x000219fa   Section      266  s60cameraservice.o(.text.clean)
    .text.clean                              0x00021b04   Section       60  s60cameraimageprocessingcontrol.o(.text.clean)
    .text.clean                              0x00021b40   Section       36  s60cameraimagecapturecontrol.o(.text.clean)
    .text.clean                              0x00021b64   Section       20  s60videodevicecontrol.o(.text.clean)
    .text.clean                              0x00021b78   Section       54  s60imageencodercontrol.o(.text.clean)
    .text.clean                              0x00021bae   Section      654  s60camerasettings.o(.text.clean)
    .text.clean                              0x00021e3c   Section       72  s60cameraengine.o(.text.clean)
    .text.clean                              0x00021e84   Section      270  s60cameraviewfinderengine.o(.text.clean)
    .text.clean                              0x00021f92   Section       10  s60videorenderercontrol.o(.text.clean)
    .text.clean                              0x00021f9c   Section       84  s60cameraserviceplugin.o(.text.clean)
    .text.clean                              0x00021ff0   Section       10  s60videodisplay.o(.text.clean)
    .text.clean                              0x00021ffa   Section       50  s60videowidget.o(.text.clean)
    .text.clean                              0x0002202c   Section       20  s60videowidgetcontrol.o(.text.clean)
    .text.clean                              0x00022040   Section       82  s60videowidgetdisplay.o(.text.clean)
    .text.clean                              0x00022092   Section       20  s60videowindowcontrol.o(.text.clean)
    .text.clean                              0x000220a6   Section       16  s60videowindowdisplay.o(.text.clean)
    i._Z23qStringComparisonHelperRK7QStringPKc 0x000220b8   Section       76  s60videocapturesession.o(i._Z23qStringComparisonHelperRK7QStringPKc)
    i._Z23qStringComparisonHelperRK7QStringPKc.clean 0x00022104   Section       10  s60videocapturesession.o(i._Z23qStringComparisonHelperRK7QStringPKc.clean)
    i._Z3absf                                0x0002210e   Section       12  s60cameraexposurecontrol.o(i._Z3absf)
    i._Z8qWarningv                           0x0002211c   Section      128  s60videowidget.o(i._Z8qWarningv)
    i._Z8qWarningv.clean                     0x0002219c   Section       24  s60videowidget.o(i._Z8qWarningv.clean)
    i._ZN10QByteArrayC1ERKS_                 0x000221b4   Section       20  s60cameraserviceplugin.o(i._ZN10QByteArrayC1ERKS_)
    i._ZN10QByteArrayD1Ev                    0x000221c8   Section       24  moc_s60cameraserviceplugin.o(i._ZN10QByteArrayD1Ev)
    i._ZN11QMetaObject12invokeMethodEP7QObjectPKcN2Qt14ConnectionTypeE16QGenericArgumentS6_S6_S6_S6_S6_S6_S6_S6_S6_ 0x000221e0   Section      130  s60videowidget.o(i._ZN11QMetaObject12invokeMethodEP7QObjectPKcN2Qt14ConnectionTypeE16QGenericArgumentS6_S6_S6_S6_S6_S6_S6_S6_S6_)
    i._ZN11QStringListC1ERKS_                0x00022262   Section       18  s60videocapturesession.o(i._ZN11QStringListC1ERKS_)
    i._ZN11QStringListC1Ev                   0x00022274   Section       14  s60videocapturesession.o(i._ZN11QStringListC1Ev)
    i._ZN11QStringListD1Ev                   0x00022282   Section       14  s60videocapturesession.o(i._ZN11QStringListD1Ev)
    i._ZN11TCameraInfoC1Ev                   0x00022290   Section       24  s60cameraengine.o(i._ZN11TCameraInfoC1Ev)
    i._ZN12CleanupStack13PopAndDestroyEPv    0x000222a8   Section       16  s60videocapturesession.o(i._ZN12CleanupStack13PopAndDestroyEPv)
    i._ZN12CleanupStack3PopEPv               0x000222b8   Section       16  s60imagecapturesession.o(i._ZN12CleanupStack3PopEPv)
    i._ZN13CCameraEngine16FrameBufferReadyEP12MFrameBufferi 0x000222c8   Section        2  s60cameraengine.o(i._ZN13CCameraEngine16FrameBufferReadyEP12MFrameBufferi)
    i._ZN13CCameraEngine16VideoBufferReadyER13MCameraBufferi 0x000222ca   Section        2  s60cameraengine.o(i._ZN13CCameraEngine16VideoBufferReadyER13MCameraBufferi)
    i._ZN15QBasicAtomicInt3refEv             0x000222cc   Section       24  s60cameraexposurecontrol.o(i._ZN15QBasicAtomicInt3refEv)
    i._ZN15QBasicAtomicInt5derefEv           0x000222e4   Section       24  moc_s60cameraserviceplugin.o(i._ZN15QBasicAtomicInt5derefEv)
    i._ZN16S60CameraControl2trEPKcS1_        0x000222fc   Section       28  s60cameracontrol.o(i._ZN16S60CameraControl2trEPKcS1_)
    i._ZN17QFactoryInterfaceD0Ev             0x00022318   Section       18  s60cameraserviceplugin.o(i._ZN17QFactoryInterfaceD0Ev)
    i._ZN17QFactoryInterfaceD2Ev             0x0002232a   Section        2  s60cameraserviceplugin.o(i._ZN17QFactoryInterfaceD2Ev)
    i._ZN17QForeachContainerI5QHashI7QString7TFourCCEED1Ev 0x0002232c   Section       14  s60videocapturesession.o(i._ZN17QForeachContainerI5QHashI7QString7TFourCCEED1Ev)
    i._ZN17QForeachContainerI5QHashIiN22S60VideoCaptureSession15VideoFormatDataEEED1Ev 0x0002233a   Section       14  s60videocapturesession.o(i._ZN17QForeachContainerI5QHashIiN22S60VideoCaptureSession15VideoFormatDataEEED1Ev)
    i._ZN17QForeachContainerI5QListIN22S60VideoCaptureSession26MaxResolutionRatesAndTypesEEED1Ev 0x00022348   Section       14  s60videocapturesession.o(i._ZN17QForeachContainerI5QListIN22S60VideoCaptureSession26MaxResolutionRatesAndTypesEEED1Ev)
    i._ZN17QForeachContainerI5QListIN22S60VideoCaptureSession29SupportedFrameRatePictureSizeEEED1Ev 0x00022356   Section       14  s60videocapturesession.o(i._ZN17QForeachContainerI5QListIN22S60VideoCaptureSession29SupportedFrameRatePictureSizeEEED1Ev)
    i._ZN17QForeachContainerI5QListIfEED1Ev  0x00022364   Section       14  s60cameraexposurecontrol.o(i._ZN17QForeachContainerI5QListIfEED1Ev)
    i._ZN17QForeachContainerI5QListIiEED1Ev  0x00022372   Section       14  s60cameraexposurecontrol.o(i._ZN17QForeachContainerI5QListIiEED1Ev)
    i._ZN17S60CameraSettings2trEPKcS1_       0x00022380   Section       28  s60camerasettings.o(i._ZN17S60CameraSettings2trEPKcS1_)
    i._ZN21S60CameraFocusControl2trEPKcS1_   0x0002239c   Section       28  s60camerafocuscontrol.o(i._ZN21S60CameraFocusControl2trEPKcS1_)
    i._ZN22QGraphicsEffectPrivateD1Ev        0x000223b8   Section       14  s60videooutpututils.o(i._ZN22QGraphicsEffectPrivateD1Ev)
    i._ZN22S60CameraServicePluginC1Ev        0x000223c8   Section      100  s60cameraserviceplugin.o(i._ZN22S60CameraServicePluginC1Ev)
    i._ZN22S60CameraServicePluginC1Ev.clean  0x0002242c   Section       38  s60cameraserviceplugin.o(i._ZN22S60CameraServicePluginC1Ev.clean)
    i._ZN22S60CameraServicePluginD0Ev        0x00022452   Section       22  moc_s60cameraserviceplugin.o(i._ZN22S60CameraServicePluginD0Ev)
    i._ZN22S60CameraServicePluginD1Ev        0x00022468   Section       64  moc_s60cameraserviceplugin.o(i._ZN22S60CameraServicePluginD1Ev)
    i._ZN22S60CameraServicePluginD1Ev.clean  0x000224a8   Section       34  moc_s60cameraserviceplugin.o(i._ZN22S60CameraServicePluginD1Ev.clean)
    i._ZN22S60ImageCaptureSession2trEPKcS1_  0x000224cc   Section       28  s60imagecapturesession.o(i._ZN22S60ImageCaptureSession2trEPKcS1_)
    i._ZN22S60VideoCaptureSession15VideoFormatDataC1ERKS0_ 0x000224e8   Section       30  s60videocapturesession.o(i._ZN22S60VideoCaptureSession15VideoFormatDataC1ERKS0_)
    i._ZN22S60VideoCaptureSession15VideoFormatDataC1ERKS0_.clean 0x00022506   Section       10  s60videocapturesession.o(i._ZN22S60VideoCaptureSession15VideoFormatDataC1ERKS0_.clean)
    i._ZN22S60VideoCaptureSession15VideoFormatDataC1Ev 0x00022510   Section       24  s60videocapturesession.o(i._ZN22S60VideoCaptureSession15VideoFormatDataC1Ev)
    i._ZN22S60VideoCaptureSession15VideoFormatDataC1Ev.clean 0x00022528   Section       10  s60videocapturesession.o(i._ZN22S60VideoCaptureSession15VideoFormatDataC1Ev.clean)
    i._ZN22S60VideoCaptureSession15VideoFormatDataD1Ev 0x00022532   Section       22  s60videocapturesession.o(i._ZN22S60VideoCaptureSession15VideoFormatDataD1Ev)
    i._ZN22S60VideoCaptureSession15VideoFormatDataD1Ev.clean 0x00022548   Section       10  s60videocapturesession.o(i._ZN22S60VideoCaptureSession15VideoFormatDataD1Ev.clean)
    i._ZN22S60VideoCaptureSession26MaxResolutionRatesAndTypesC1ERKS0_ 0x00022552   Section       34  s60videocapturesession.o(i._ZN22S60VideoCaptureSession26MaxResolutionRatesAndTypesC1ERKS0_)
    i._ZN22S60VideoCaptureSession26MaxResolutionRatesAndTypesC1ERKS0_.clean 0x00022574   Section       10  s60videocapturesession.o(i._ZN22S60VideoCaptureSession26MaxResolutionRatesAndTypesC1ERKS0_.clean)
    i._ZN22S60VideoCaptureSession26MaxResolutionRatesAndTypesD1Ev 0x0002257e   Section       22  s60videocapturesession.o(i._ZN22S60VideoCaptureSession26MaxResolutionRatesAndTypesD1Ev)
    i._ZN22S60VideoCaptureSession26MaxResolutionRatesAndTypesD1Ev.clean 0x00022594   Section       10  s60videocapturesession.o(i._ZN22S60VideoCaptureSession26MaxResolutionRatesAndTypesD1Ev.clean)
    i._ZN22S60VideoCaptureSession29SupportedFrameRatePictureSizeC1ERKS0_ 0x0002259e   Section       14  s60videocapturesession.o(i._ZN22S60VideoCaptureSession29SupportedFrameRatePictureSizeC1ERKS0_)
    i._ZN22S60VideoCaptureSession2trEPKcS1_  0x000225ac   Section       28  s60videocapturesession.o(i._ZN22S60VideoCaptureSession2trEPKcS1_)
    i._ZN25S60CameraViewfinderEngine2trEPKcS1_ 0x000225c8   Section       28  s60cameraviewfinderengine.o(i._ZN25S60CameraViewfinderEngine2trEPKcS1_)
    i._ZN26QGraphicsBlurEffectPrivateD0Ev    0x000225e4   Section       22  s60videooutpututils.o(i._ZN26QGraphicsBlurEffectPrivateD0Ev)
    i._ZN26QGraphicsBlurEffectPrivateD1Ev    0x000225fc   Section       40  s60videooutpututils.o(i._ZN26QGraphicsBlurEffectPrivateD1Ev)
    i._ZN26QGraphicsBlurEffectPrivateD1Ev.clean 0x00022624   Section       10  s60videooutpututils.o(i._ZN26QGraphicsBlurEffectPrivateD1Ev.clean)
    i._ZN27QMediaServiceProviderPluginD2Ev   0x0002262e   Section       22  moc_s60cameraserviceplugin.o(i._ZN27QMediaServiceProviderPluginD2Ev)
    i._ZN27QMediaServiceProviderPluginD2Ev.clean 0x00022644   Section        4  moc_s60cameraserviceplugin.o(i._ZN27QMediaServiceProviderPluginD2Ev.clean)
    i._ZN30QGraphicsColorizeEffectPrivateD0Ev 0x00022648   Section       22  s60videooutpututils.o(i._ZN30QGraphicsColorizeEffectPrivateD0Ev)
    i._ZN30QGraphicsColorizeEffectPrivateD1Ev 0x00022660   Section       40  s60videooutpututils.o(i._ZN30QGraphicsColorizeEffectPrivateD1Ev)
    i._ZN30QGraphicsColorizeEffectPrivateD1Ev.clean 0x00022688   Section       10  s60videooutpututils.o(i._ZN30QGraphicsColorizeEffectPrivateD1Ev.clean)
    i._ZN31S60CameraImageProcessingControl2trEPKcS1_ 0x00022694   Section       28  s60cameraimageprocessingcontrol.o(i._ZN31S60CameraImageProcessingControl2trEPKcS1_)
    i._ZN32QGraphicsDropShadowEffectPrivateD0Ev 0x000226b0   Section       22  s60videooutpututils.o(i._ZN32QGraphicsDropShadowEffectPrivateD0Ev)
    i._ZN32QGraphicsDropShadowEffectPrivateD1Ev 0x000226c8   Section       40  s60videooutpututils.o(i._ZN32QGraphicsDropShadowEffectPrivateD1Ev)
    i._ZN32QGraphicsDropShadowEffectPrivateD1Ev.clean 0x000226f0   Section       10  s60videooutpututils.o(i._ZN32QGraphicsDropShadowEffectPrivateD1Ev.clean)
    i._ZN33MCameraEngineImageCaptureObserver20MceoHandleOtherEventERK10TECAMEvent 0x000226fa   Section        2  moc_s60imagecapturesession.o(i._ZN33MCameraEngineImageCaptureObserver20MceoHandleOtherEventERK10TECAMEvent)
    i._ZN37QMediaServiceProviderFactoryInterfaceD0Ev 0x000226fc   Section       18  s60cameraserviceplugin.o(i._ZN37QMediaServiceProviderFactoryInterfaceD0Ev)
    i._ZN37QMediaServiceProviderFactoryInterfaceD2Ev 0x0002270e   Section        2  s60cameraserviceplugin.o(i._ZN37QMediaServiceProviderFactoryInterfaceD2Ev)
    i._ZN38QMediaServiceSupportedDevicesInterfaceD0Ev 0x00022710   Section       18  s60cameraserviceplugin.o(i._ZN38QMediaServiceSupportedDevicesInterfaceD0Ev)
    i._ZN38QMediaServiceSupportedDevicesInterfaceD2Ev 0x00022722   Section        2  moc_s60cameraserviceplugin.o(i._ZN38QMediaServiceSupportedDevicesInterfaceD2Ev)
    i._ZN5CBasenwEj                          0x00022724   Section       16  s60imagecapturesession.o(i._ZN5CBasenwEj)
    i._ZN5QRectC1Eiiii                       0x00022734   Section       22  s60cameraviewfinderengine.o(i._ZN5QRectC1Eiiii)
    i._ZN5QRectC1Ev                          0x0002274a   Section       14  s60videodisplay.o(i._ZN5QRectC1Ev)
    i._ZN5QSizeC1ERKS_                       0x00022758   Section       10  s60videocapturesession.o(i._ZN5QSizeC1ERKS_)
    i._ZN5TSizeC1Ev                          0x00022762   Section        8  s60imagecapturesession.o(i._ZN5TSizeC1Ev)
    i._ZN6QDebugD1Ev                         0x0002276a   Section      160  s60videowidget.o(i._ZN6QDebugD1Ev)
    i._ZN6QDebugD1Ev.clean                   0x0002280a   Section       20  s60videowidget.o(i._ZN6QDebugD1Ev.clean)
    i._ZN6RArrayIiEC1Ev                      0x0002281e   Section       14  s60camerasettings.o(i._ZN6RArrayIiEC1Ev)
    i._ZN6RArrayIiEixEi                      0x0002282c   Section       16  s60camerasettings.o(i._ZN6RArrayIiEixEi)
    i._ZN7QObject10disconnectEPKS_PKc        0x0002283c   Section       22  s60cameraviewfinderengine.o(i._ZN7QObject10disconnectEPKS_PKc)
    i._ZN7QString6appendEPKc                 0x00022852   Section       40  s60videocapturesession.o(i._ZN7QString6appendEPKc)
    i._ZN7QString6appendEPKc.clean           0x0002287a   Section       10  s60videocapturesession.o(i._ZN7QString6appendEPKc.clean)
    i._ZN7QStringC1EPKc                      0x00022884   Section       22  s60videocapturesession.o(i._ZN7QStringC1EPKc)
    i._ZN7QStringC1ERK13QLatin1String        0x0002289a   Section       26  s60cameraexposurecontrol.o(i._ZN7QStringC1ERK13QLatin1String)
    i._ZN7QStringC1ERKS_                     0x000228b4   Section       22  s60videocapturesession.o(i._ZN7QStringC1ERKS_)
    i._ZN7QStringC1Ev                        0x000228cc   Section       24  s60videocapturesession.o(i._ZN7QStringC1Ev)
    i._ZN7QStringD1Ev                        0x000228e4   Section       24  moc_s60cameraserviceplugin.o(i._ZN7QStringD1Ev)
    i._ZN7QStringaSERK13QLatin1String        0x000228fc   Section       42  s60videocapturesession.o(i._ZN7QStringaSERK13QLatin1String)
    i._ZN7QStringaSERK13QLatin1String.clean  0x00022926   Section       10  s60videocapturesession.o(i._ZN7QStringaSERK13QLatin1String.clean)
    i._ZN8QVariant7PrivateC1Ev               0x00022930   Section       36  s60cameraexposurecontrol.o(i._ZN8QVariant7PrivateC1Ev)
    i._ZN8QVariantC1Ef                       0x00022954   Section       38  s60cameraexposurecontrol.o(i._ZN8QVariantC1Ef)
    i._ZN9QHashData8willGrowEv               0x0002297a   Section       32  s60videocapturesession.o(i._ZN9QHashData8willGrowEv)
    i._ZN9QHashData9firstNodeEv              0x0002299a   Section       36  s60videocapturesession.o(i._ZN9QHashData9firstNodeEv)
    i._ZNK11QStringList8containsERK7QStringN2Qt15CaseSensitivityE 0x000229be   Section       22  s60videocapturesession.o(i._ZNK11QStringList8containsERK7QStringN2Qt15CaseSensitivityE)
    i._ZNK15QBasicAtomicInteqEi              0x000229d4   Section       16  s60videocapturesession.o(i._ZNK15QBasicAtomicInteqEi)
    i._ZNK15QBasicAtomicIntneEi              0x000229e4   Section       16  s60cameraexposurecontrol.o(i._ZNK15QBasicAtomicIntneEi)
    i._ZNK5QBoolcvPKvEv                      0x000229f4   Section       16  s60videocapturesession.o(i._ZNK5QBoolcvPKvEv)
    i._ZNK5QRect4sizeEv                      0x00022a04   Section       38  s60cameraviewfinderengine.o(i._ZNK5QRect4sizeEv)
    i._ZNK6RArrayIiE5CountEv                 0x00022a2a   Section       12  s60camerasettings.o(i._ZNK6RArrayIiE5CountEv)
    i._ZNK7QString7isEmptyEv                 0x00022a36   Section       18  s60videocapturesession.o(i._ZNK7QString7isEmptyEv)
    i._ZNK7QString8containsERKS_N2Qt15CaseSensitivityE 0x00022a48   Section       38  s60videocapturesession.o(i._ZNK7QString8containsERKS_N2Qt15CaseSensitivityE)
    i._ZNK7QStringeqEPKc                     0x00022a6e   Section       16  s60videocapturesession.o(i._ZNK7QStringeqEPKc)
    i._ZNK7TFourCCeqERKS_                    0x00022a7e   Section       18  s60videocapturesession.o(i._ZNK7TFourCCeqERKS_)
    i._ZNK8QVariant10isDetachedEv            0x00022a90   Section       34  s60videoencodercontrol.o(i._ZNK8QVariant10isDetachedEv)
    i._ZNK9QListData2atEi                    0x00022ab2   Section       20  s60cameraexposurecontrol.o(i._ZNK9QListData2atEi)
    i._ZNK9QListData3endEv                   0x00022ac6   Section       16  s60cameraexposurecontrol.o(i._ZNK9QListData3endEv)
    i._ZNK9QListData4sizeEv                  0x00022ad6   Section       14  s60cameraexposurecontrol.o(i._ZNK9QListData4sizeEv)
    i._ZNK9QListData5beginEv                 0x00022ae4   Section       16  s60cameraexposurecontrol.o(i._ZNK9QListData5beginEv)
    i._ZThn12_N22S60CameraServicePluginD0Ev  0x00022af4   Section       14  moc_s60cameraserviceplugin.o(i._ZThn12_N22S60CameraServicePluginD0Ev)
    i._ZThn12_N22S60CameraServicePluginD1Ev  0x00022b02   Section       14  moc_s60cameraserviceplugin.o(i._ZThn12_N22S60CameraServicePluginD1Ev)
    i._ZThn4_N13CCameraEngine16FrameBufferReadyEP12MFrameBufferi 0x00022b10   Section        4  s60cameraengine.o(i._ZThn4_N13CCameraEngine16FrameBufferReadyEP12MFrameBufferi)
    i._ZThn8_N13CCameraEngine16VideoBufferReadyER13MCameraBufferi 0x00022b14   Section        4  s60cameraengine.o(i._ZThn8_N13CCameraEngine16VideoBufferReadyER13MCameraBufferi)
    i._ZThn8_N22S60CameraServicePluginD0Ev   0x00022b18   Section       14  moc_s60cameraserviceplugin.o(i._ZThn8_N22S60CameraServicePluginD0Ev)
    i._ZThn8_N22S60CameraServicePluginD1Ev   0x00022b26   Section       14  moc_s60cameraserviceplugin.o(i._ZThn8_N22S60CameraServicePluginD1Ev)
    i._ZdlPvS_                               0x00022b34   Section        2  s60videocapturesession.o(i._ZdlPvS_)
    i._ZeqRK10QByteArrayPKc                  0x00022b36   Section       50  s60cameraserviceplugin.o(i._ZeqRK10QByteArrayPKc)
    i._ZeqRK5QSizeS1_                        0x00022b68   Section       26  s60videoencodercontrol.o(i._ZeqRK5QSizeS1_)
    i._ZneRK5QSizeS1_                        0x00022b82   Section       26  s60videoencodercontrol.o(i._ZneRK5QSizeS1_)
    i._ZnwjPv                                0x00022b9c   Section        6  s60videocapturesession.o(i._ZnwjPv)
    t._Z12qobject_castIP23S60VideoRendererControlET_P7QObject 0x00022ba4   Section       32  s60cameraviewfinderengine.o(t._Z12qobject_castIP23S60VideoRendererControlET_P7QObject)
    t._Z15qMapLessThanKeyI7QStringEbRKT_S3_  0x00022bc4   Section       16  s60imagecapturesession.o(t._Z15qMapLessThanKeyI7QStringEbRKT_S3_)
    t._Z16qVariantSetValueI5QSizeEvR8QVariantRKT_ 0x00022bd4   Section      162  s60videoencodercontrol.o(t._Z16qVariantSetValueI5QSizeEvR8QVariantRKT_)
    t._Z16qVariantSetValueI5QSizeEvR8QVariantRKT_.clean 0x00022c76   Section       12  s60videoencodercontrol.o(t._Z16qVariantSetValueI5QSizeEvR8QVariantRKT_.clean)
    t._Z16qVariantSetValueIiEvR8QVariantRKT_ 0x00022c82   Section      158  s60videoencodercontrol.o(t._Z16qVariantSetValueIiEvR8QVariantRKT_)
    t._Z16qVariantSetValueIiEvR8QVariantRKT_.clean 0x00022d20   Section       10  s60videoencodercontrol.o(t._Z16qVariantSetValueIiEvR8QVariantRKT_.clean)
    t._Z17CleanupClosePushLI6RArrayI4TUidEEvRT_ 0x00022d2c   Section       28  s60videocapturesession.o(t._Z17CleanupClosePushLI6RArrayI4TUidEEvRT_)
    t._Z17CleanupClosePushLI6RArrayIiEEvRT_  0x00022d48   Section       28  s60camerasettings.o(t._Z17CleanupClosePushLI6RArrayIiEEvRT_)
    t._Z20qForeachContainerNewI5QHashIiN22S60VideoCaptureSession15VideoFormatDataEEE17QForeachContainerIT_ERKS5_ 0x00022d64   Section       78  s60videocapturesession.o(t._Z20qForeachContainerNewI5QHashIiN22S60VideoCaptureSession15VideoFormatDataEEE17QForeachContainerIT_ERKS5_)
    t._Z20qForeachContainerNewI5QHashIiN22S60VideoCaptureSession15VideoFormatDataEEE17QForeachContainerIT_ERKS5_.clean 0x00022db2   Section       10  s60videocapturesession.o(t._Z20qForeachContainerNewI5QHashIiN22S60VideoCaptureSession15VideoFormatDataEEE17QForeachContainerIT_ERKS5_.clean)
    t._Z20qForeachContainerNewI5QListIN22S60VideoCaptureSession26MaxResolutionRatesAndTypesEEE17QForeachContainerIT_ERKS5_ 0x00022dbc   Section      102  s60videocapturesession.o(t._Z20qForeachContainerNewI5QListIN22S60VideoCaptureSession26MaxResolutionRatesAndTypesEEE17QForeachContainerIT_ERKS5_)
    t._Z20qForeachContainerNewI5QListIN22S60VideoCaptureSession26MaxResolutionRatesAndTypesEEE17QForeachContainerIT_ERKS5_.clean 0x00022e22   Section       10  s60videocapturesession.o(t._Z20qForeachContainerNewI5QListIN22S60VideoCaptureSession26MaxResolutionRatesAndTypesEEE17QForeachContainerIT_ERKS5_.clean)
    t._Z20qForeachContainerNewI5QListIN22S60VideoCaptureSession29SupportedFrameRatePictureSizeEEE17QForeachContainerIT_ERKS5_ 0x00022e2c   Section      102  s60videocapturesession.o(t._Z20qForeachContainerNewI5QListIN22S60VideoCaptureSession29SupportedFrameRatePictureSizeEEE17QForeachContainerIT_ERKS5_)
    t._Z20qForeachContainerNewI5QListIN22S60VideoCaptureSession29SupportedFrameRatePictureSizeEEE17QForeachContainerIT_ERKS5_.clean 0x00022e92   Section       10  s60videocapturesession.o(t._Z20qForeachContainerNewI5QListIN22S60VideoCaptureSession29SupportedFrameRatePictureSizeEEE17QForeachContainerIT_ERKS5_.clean)
    t._Z20qForeachContainerNewI5QListIfEE17QForeachContainerIT_ERKS3_ 0x00022e9c   Section      126  s60cameraexposurecontrol.o(t._Z20qForeachContainerNewI5QListIfEE17QForeachContainerIT_ERKS3_)
    t._Z20qForeachContainerNewI5QListIfEE17QForeachContainerIT_ERKS3_.clean 0x00022f1a   Section       10  s60cameraexposurecontrol.o(t._Z20qForeachContainerNewI5QListIfEE17QForeachContainerIT_ERKS3_.clean)
    t._Z4qAbsIfET_RKS0_                      0x00022f24   Section       28  s60imagecapturesession.o(t._Z4qAbsIfET_RKS0_)
    t._ZN12CleanupCloseI3RFsE5CloseEPv       0x00022f40   Section       12  s60imagecapturesession.o(t._ZN12CleanupCloseI3RFsE5CloseEPv)
    t._ZN12CleanupCloseI5RFileE5CloseEPv     0x00022f4c   Section       12  s60imagecapturesession.o(t._ZN12CleanupCloseI5RFileE5CloseEPv)
    t._ZN12CleanupCloseI6RArrayI4TUidEE5CloseEPv 0x00022f58   Section       14  s60videocapturesession.o(t._ZN12CleanupCloseI6RArrayI4TUidEE5CloseEPv)
    t._ZN12CleanupCloseI6RArrayI7TFourCCEE5CloseEPv 0x00022f66   Section       14  s60videocapturesession.o(t._ZN12CleanupCloseI6RArrayI7TFourCCEE5CloseEPv)
    t._ZN12CleanupCloseI6RArrayIiEE5CloseEPv 0x00022f74   Section       14  s60camerasettings.o(t._ZN12CleanupCloseI6RArrayIiEE5CloseEPv)
    t._ZN12CleanupCloseI6RArrayIjEE5CloseEPv 0x00022f82   Section       14  s60videocapturesession.o(t._ZN12CleanupCloseI6RArrayIjEE5CloseEPv)
    t._ZN13RPointerArrayI39CMMFControllerImplementationInformationE15ResetAndDestroyEv 0x00022f90   Section       64  s60videocapturesession.o(t._ZN13RPointerArrayI39CMMFControllerImplementationInformationE15ResetAndDestroyEv)
    t._ZN14QScopedPointerI7QWidget21QScopedPointerDeleterIS0_EED1Ev 0x00022fd0   Section       28  s60videowidgetdisplay.o(t._ZN14QScopedPointerI7QWidget21QScopedPointerDeleterIS0_EED1Ev)
    t._ZN22CleanupResetAndDestroyI13RPointerArrayI39CMMFControllerImplementationInformationEE15ResetAndDestroyEPv 0x00022fec   Section       12  s60videocapturesession.o(t._ZN22CleanupResetAndDestroyI13RPointerArrayI39CMMFControllerImplementationInformationEE15ResetAndDestroyEPv)
    t._ZN4QMapI7QStringS0_E11node_createEP8QMapDataPPNS2_4NodeERKS0_S8_ 0x00022ff8   Section      140  s60imagecapturesession.o(t._ZN4QMapI7QStringS0_E11node_createEP8QMapDataPPNS2_4NodeERKS0_S8_)
    t._ZN4QMapI7QStringS0_E11node_createEP8QMapDataPPNS2_4NodeERKS0_S8_.clean 0x00023084   Section       38  s60imagecapturesession.o(t._ZN4QMapI7QStringS0_E11node_createEP8QMapDataPPNS2_4NodeERKS0_S8_.clean)
    t._ZN4QMapI7QStringS0_E13detach_helperEv 0x000230aa   Section      146  s60imagecapturesession.o(t._ZN4QMapI7QStringS0_E13detach_helperEv)
    t._ZN4QMapI7QStringS0_E13detach_helperEv.clean 0x0002313c   Section        8  s60imagecapturesession.o(t._ZN4QMapI7QStringS0_E13detach_helperEv.clean)
    t._ZN4QMapI7QStringS0_E8freeDataEP8QMapData 0x00023144   Section       62  s60imagecapturesession.o(t._ZN4QMapI7QStringS0_E8freeDataEP8QMapData)
    t._ZN4QMapI7QStringS0_EC1Ev              0x00023184   Section       28  s60mediacontainercontrol.o(t._ZN4QMapI7QStringS0_EC1Ev)
    t._ZN4QMapI7QStringS0_ED1Ev              0x000231a0   Section       38  s60imagecapturesession.o(t._ZN4QMapI7QStringS0_ED1Ev)
    t._ZN4QMapI7QStringiE11node_createEP8QMapDataPPNS2_4NodeERKS0_RKi 0x000231c6   Section      118  s60imagecapturesession.o(t._ZN4QMapI7QStringiE11node_createEP8QMapDataPPNS2_4NodeERKS0_RKi)
    t._ZN4QMapI7QStringiE11node_createEP8QMapDataPPNS2_4NodeERKS0_RKi.clean 0x0002323c   Section       20  s60imagecapturesession.o(t._ZN4QMapI7QStringiE11node_createEP8QMapDataPPNS2_4NodeERKS0_RKi.clean)
    t._ZN4QMapI7QStringiE13detach_helperEv   0x00023250   Section      146  s60imagecapturesession.o(t._ZN4QMapI7QStringiE13detach_helperEv)
    t._ZN4QMapI7QStringiE13detach_helperEv.clean 0x000232e2   Section        8  s60imagecapturesession.o(t._ZN4QMapI7QStringiE13detach_helperEv.clean)
    t._ZN4QMapI7QStringiE6insertERKS0_RKi    0x000232ea   Section       92  s60imagecapturesession.o(t._ZN4QMapI7QStringiE6insertERKS0_RKi)
    t._ZN4QMapI7QStringiE8freeDataEP8QMapData 0x00023346   Section       56  s60imagecapturesession.o(t._ZN4QMapI7QStringiE8freeDataEP8QMapData)
    t._ZN4QMapI7QStringiED1Ev                0x0002337e   Section       38  s60imagecapturesession.o(t._ZN4QMapI7QStringiED1Ev)
    t._ZN5QHashI7QString7TFourCCE10createNodeEjRKS0_RKS1_PP9QHashNodeIS0_S1_E 0x000233a4   Section      100  s60videocapturesession.o(t._ZN5QHashI7QString7TFourCCE10createNodeEjRKS0_RKS1_PP9QHashNodeIS0_S1_E)
    t._ZN5QHashI7QString7TFourCCE10createNodeEjRKS0_RKS1_PP9QHashNodeIS0_S1_E.clean 0x00023408   Section       14  s60videocapturesession.o(t._ZN5QHashI7QString7TFourCCE10createNodeEjRKS0_RKS1_PP9QHashNodeIS0_S1_E.clean)
    t._ZN5QHashI7QString7TFourCCE11deleteNode2EPN9QHashData4NodeE 0x00023416   Section       24  s60videocapturesession.o(t._ZN5QHashI7QString7TFourCCE11deleteNode2EPN9QHashData4NodeE)
    t._ZN5QHashI7QString7TFourCCE13detach_helperEv 0x00023430   Section       60  s60videocapturesession.o(t._ZN5QHashI7QString7TFourCCE13detach_helperEv)
    t._ZN5QHashI7QString7TFourCCE13duplicateNodeEPN9QHashData4NodeEPv 0x0002346c   Section       46  s60videocapturesession.o(t._ZN5QHashI7QString7TFourCCE13duplicateNodeEPN9QHashData4NodeEPv)
    t._ZN5QHashI7QString7TFourCCE13duplicateNodeEPN9QHashData4NodeEPv.clean 0x0002349a   Section       14  s60videocapturesession.o(t._ZN5QHashI7QString7TFourCCE13duplicateNodeEPN9QHashData4NodeEPv.clean)
    t._ZN5QHashI7QString7TFourCCE14const_iteratorppEv 0x000234a8   Section       16  s60videocapturesession.o(t._ZN5QHashI7QString7TFourCCE14const_iteratorppEv)
    t._ZN5QHashI7QString7TFourCCE5clearEv    0x000234b8   Section       82  s60videocapturesession.o(t._ZN5QHashI7QString7TFourCCE5clearEv)
    t._ZN5QHashI7QString7TFourCCE5clearEv.clean 0x0002350a   Section       10  s60videocapturesession.o(t._ZN5QHashI7QString7TFourCCE5clearEv.clean)
    t._ZN5QHashI7QString7TFourCCE6detachEv   0x00023514   Section       28  s60videocapturesession.o(t._ZN5QHashI7QString7TFourCCE6detachEv)
    t._ZN5QHashI7QString7TFourCCE6insertERKS0_RKS1_ 0x00023530   Section       98  s60videocapturesession.o(t._ZN5QHashI7QString7TFourCCE6insertERKS0_RKS1_)
    t._ZN5QHashI7QString7TFourCCE8freeDataEP9QHashData 0x00023594   Section       20  s60videocapturesession.o(t._ZN5QHashI7QString7TFourCCE8freeDataEP9QHashData)
    t._ZN5QHashI7QString7TFourCCEC1Ev        0x000235a8   Section       28  s60videocapturesession.o(t._ZN5QHashI7QString7TFourCCEC1Ev)
    t._ZN5QHashI7QString7TFourCCED1Ev        0x000235c4   Section       30  s60videocapturesession.o(t._ZN5QHashI7QString7TFourCCED1Ev)
    t._ZN5QHashIiN22S60VideoCaptureSession15VideoFormatDataEE10createNodeEjRKiRKS1_PP9QHashNodeIiS1_E 0x000235e2   Section      102  s60videocapturesession.o(t._ZN5QHashIiN22S60VideoCaptureSession15VideoFormatDataEE10createNodeEjRKiRKS1_PP9QHashNodeIiS1_E)
    t._ZN5QHashIiN22S60VideoCaptureSession15VideoFormatDataEE10createNodeEjRKiRKS1_PP9QHashNodeIiS1_E.clean 0x00023648   Section       14  s60videocapturesession.o(t._ZN5QHashIiN22S60VideoCaptureSession15VideoFormatDataEE10createNodeEjRKiRKS1_PP9QHashNodeIiS1_E.clean)
    t._ZN5QHashIiN22S60VideoCaptureSession15VideoFormatDataEE11deleteNode2EPN9QHashData4NodeE 0x00023656   Section       24  s60videocapturesession.o(t._ZN5QHashIiN22S60VideoCaptureSession15VideoFormatDataEE11deleteNode2EPN9QHashData4NodeE)
    t._ZN5QHashIiN22S60VideoCaptureSession15VideoFormatDataEE13detach_helperEv 0x00023670   Section       60  s60videocapturesession.o(t._ZN5QHashIiN22S60VideoCaptureSession15VideoFormatDataEE13detach_helperEv)
    t._ZN5QHashIiN22S60VideoCaptureSession15VideoFormatDataEE13duplicateNodeEPN9QHashData4NodeEPv 0x000236ac   Section       46  s60videocapturesession.o(t._ZN5QHashIiN22S60VideoCaptureSession15VideoFormatDataEE13duplicateNodeEPN9QHashData4NodeEPv)
    t._ZN5QHashIiN22S60VideoCaptureSession15VideoFormatDataEE13duplicateNodeEPN9QHashData4NodeEPv.clean 0x000236da   Section       14  s60videocapturesession.o(t._ZN5QHashIiN22S60VideoCaptureSession15VideoFormatDataEE13duplicateNodeEPN9QHashData4NodeEPv.clean)
    t._ZN5QHashIiN22S60VideoCaptureSession15VideoFormatDataEE14const_iteratorppEv 0x000236e8   Section       16  s60videocapturesession.o(t._ZN5QHashIiN22S60VideoCaptureSession15VideoFormatDataEE14const_iteratorppEv)
    t._ZN5QHashIiN22S60VideoCaptureSession15VideoFormatDataEE5clearEv 0x000236f8   Section       28  s60videocapturesession.o(t._ZN5QHashIiN22S60VideoCaptureSession15VideoFormatDataEE5clearEv)
    t._ZN5QHashIiN22S60VideoCaptureSession15VideoFormatDataEE5clearEv.clean 0x00023714   Section       10  s60videocapturesession.o(t._ZN5QHashIiN22S60VideoCaptureSession15VideoFormatDataEE5clearEv.clean)
    t._ZN5QHashIiN22S60VideoCaptureSession15VideoFormatDataEE6detachEv 0x0002371e   Section       28  s60videocapturesession.o(t._ZN5QHashIiN22S60VideoCaptureSession15VideoFormatDataEE6detachEv)
    t._ZN5QHashIiN22S60VideoCaptureSession15VideoFormatDataEE8freeDataEP9QHashData 0x0002373c   Section       20  s60videocapturesession.o(t._ZN5QHashIiN22S60VideoCaptureSession15VideoFormatDataEE8freeDataEP9QHashData)
    t._ZN5QHashIiN22S60VideoCaptureSession15VideoFormatDataEEC1ERKS2_ 0x00023750   Section       40  s60videocapturesession.o(t._ZN5QHashIiN22S60VideoCaptureSession15VideoFormatDataEEC1ERKS2_)
    t._ZN5QHashIiN22S60VideoCaptureSession15VideoFormatDataEEC1Ev 0x00023778   Section       28  s60videocapturesession.o(t._ZN5QHashIiN22S60VideoCaptureSession15VideoFormatDataEEC1Ev)
    t._ZN5QHashIiN22S60VideoCaptureSession15VideoFormatDataEED1Ev 0x00023794   Section       30  s60videocapturesession.o(t._ZN5QHashIiN22S60VideoCaptureSession15VideoFormatDataEED1Ev)
    t._ZN5QHashIiN22S60VideoCaptureSession15VideoFormatDataEEaSERKS2_ 0x000237b2   Section       70  s60videocapturesession.o(t._ZN5QHashIiN22S60VideoCaptureSession15VideoFormatDataEEaSERKS2_)
    t._ZN5QHashIiN22S60VideoCaptureSession15VideoFormatDataEEixERKi 0x000237f8   Section      112  s60videocapturesession.o(t._ZN5QHashIiN22S60VideoCaptureSession15VideoFormatDataEEixERKi)
    t._ZN5QHashIiN22S60VideoCaptureSession15VideoFormatDataEEixERKi.clean 0x00023868   Section       10  s60videocapturesession.o(t._ZN5QHashIiN22S60VideoCaptureSession15VideoFormatDataEEixERKi.clean)
    t._ZN5QHashIiS_IiN22S60VideoCaptureSession15VideoFormatDataEEE10createNodeEjRKiRKS2_PP9QHashNodeIiS2_E 0x00023872   Section      102  s60videocapturesession.o(t._ZN5QHashIiS_IiN22S60VideoCaptureSession15VideoFormatDataEEE10createNodeEjRKiRKS2_PP9QHashNodeIiS2_E)
    t._ZN5QHashIiS_IiN22S60VideoCaptureSession15VideoFormatDataEEE10createNodeEjRKiRKS2_PP9QHashNodeIiS2_E.clean 0x000238d8   Section       14  s60videocapturesession.o(t._ZN5QHashIiS_IiN22S60VideoCaptureSession15VideoFormatDataEEE10createNodeEjRKiRKS2_PP9QHashNodeIiS2_E.clean)
    t._ZN5QHashIiS_IiN22S60VideoCaptureSession15VideoFormatDataEEE11deleteNode2EPN9QHashData4NodeE 0x000238e6   Section       24  s60videocapturesession.o(t._ZN5QHashIiS_IiN22S60VideoCaptureSession15VideoFormatDataEEE11deleteNode2EPN9QHashData4NodeE)
    t._ZN5QHashIiS_IiN22S60VideoCaptureSession15VideoFormatDataEEE13detach_helperEv 0x00023900   Section       60  s60videocapturesession.o(t._ZN5QHashIiS_IiN22S60VideoCaptureSession15VideoFormatDataEEE13detach_helperEv)
    t._ZN5QHashIiS_IiN22S60VideoCaptureSession15VideoFormatDataEEE13duplicateNodeEPN9QHashData4NodeEPv 0x0002393c   Section       46  s60videocapturesession.o(t._ZN5QHashIiS_IiN22S60VideoCaptureSession15VideoFormatDataEEE13duplicateNodeEPN9QHashData4NodeEPv)
    t._ZN5QHashIiS_IiN22S60VideoCaptureSession15VideoFormatDataEEE13duplicateNodeEPN9QHashData4NodeEPv.clean 0x0002396a   Section       14  s60videocapturesession.o(t._ZN5QHashIiS_IiN22S60VideoCaptureSession15VideoFormatDataEEE13duplicateNodeEPN9QHashData4NodeEPv.clean)
    t._ZN5QHashIiS_IiN22S60VideoCaptureSession15VideoFormatDataEEE5clearEv 0x00023978   Section       82  s60videocapturesession.o(t._ZN5QHashIiS_IiN22S60VideoCaptureSession15VideoFormatDataEEE5clearEv)
    t._ZN5QHashIiS_IiN22S60VideoCaptureSession15VideoFormatDataEEE5clearEv.clean 0x000239ca   Section       10  s60videocapturesession.o(t._ZN5QHashIiS_IiN22S60VideoCaptureSession15VideoFormatDataEEE5clearEv.clean)
    t._ZN5QHashIiS_IiN22S60VideoCaptureSession15VideoFormatDataEEE6detachEv 0x000239d4   Section       28  s60videocapturesession.o(t._ZN5QHashIiS_IiN22S60VideoCaptureSession15VideoFormatDataEEE6detachEv)
    t._ZN5QHashIiS_IiN22S60VideoCaptureSession15VideoFormatDataEEE8freeDataEP9QHashData 0x000239f0   Section       20  s60videocapturesession.o(t._ZN5QHashIiS_IiN22S60VideoCaptureSession15VideoFormatDataEEE8freeDataEP9QHashData)
    t._ZN5QHashIiS_IiN22S60VideoCaptureSession15VideoFormatDataEEEC1Ev 0x00023a04   Section       28  s60videocapturesession.o(t._ZN5QHashIiS_IiN22S60VideoCaptureSession15VideoFormatDataEEEC1Ev)
    t._ZN5QHashIiS_IiN22S60VideoCaptureSession15VideoFormatDataEEED1Ev 0x00023a20   Section       30  s60videocapturesession.o(t._ZN5QHashIiS_IiN22S60VideoCaptureSession15VideoFormatDataEEED1Ev)
    t._ZN5QHashIiS_IiN22S60VideoCaptureSession15VideoFormatDataEEEixERKi 0x00023a3e   Section      106  s60videocapturesession.o(t._ZN5QHashIiS_IiN22S60VideoCaptureSession15VideoFormatDataEEEixERKi)
    t._ZN5QHashIiS_IiN22S60VideoCaptureSession15VideoFormatDataEEEixERKi.clean 0x00023aa8   Section       10  s60videocapturesession.o(t._ZN5QHashIiS_IiN22S60VideoCaptureSession15VideoFormatDataEEEixERKi.clean)
    t._ZN5QListI10QByteArrayE13detach_helperEi 0x00023ab2   Section       94  s60cameraserviceplugin.o(t._ZN5QListI10QByteArrayE13detach_helperEi)
    t._ZN5QListI10QByteArrayE13detach_helperEi.clean 0x00023b10   Section        8  s60cameraserviceplugin.o(t._ZN5QListI10QByteArrayE13detach_helperEi.clean)
    t._ZN5QListI10QByteArrayE13detach_helperEv 0x00023b18   Section       16  s60cameraserviceplugin.o(t._ZN5QListI10QByteArrayE13detach_helperEv)
    t._ZN5QListI10QByteArrayE13node_destructEPNS1_4NodeES3_ 0x00023b28   Section       26  s60cameraserviceplugin.o(t._ZN5QListI10QByteArrayE13node_destructEPNS1_4NodeES3_)
    t._ZN5QListI10QByteArrayE14node_constructEPNS1_4NodeERKS0_ 0x00023b42   Section       36  s60cameraserviceplugin.o(t._ZN5QListI10QByteArrayE14node_constructEPNS1_4NodeERKS0_)
    t._ZN5QListI10QByteArrayE14node_constructEPNS1_4NodeERKS0_.clean 0x00023b66   Section       14  s60cameraserviceplugin.o(t._ZN5QListI10QByteArrayE14node_constructEPNS1_4NodeERKS0_.clean)
    t._ZN5QListI10QByteArrayE18detach_helper_growEii 0x00023b74   Section      208  s60cameraserviceplugin.o(t._ZN5QListI10QByteArrayE18detach_helper_growEii)
    t._ZN5QListI10QByteArrayE18detach_helper_growEii.clean 0x00023c44   Section       16  s60cameraserviceplugin.o(t._ZN5QListI10QByteArrayE18detach_helper_growEii.clean)
    t._ZN5QListI10QByteArrayE4freeEPN9QListData4DataE 0x00023c54   Section       58  s60cameraserviceplugin.o(t._ZN5QListI10QByteArrayE4freeEPN9QListData4DataE)
    t._ZN5QListI10QByteArrayE5clearEv        0x00023c8e   Section       76  s60cameraserviceplugin.o(t._ZN5QListI10QByteArrayE5clearEv)
    t._ZN5QListI10QByteArrayE5clearEv.clean  0x00023cda   Section       10  s60cameraserviceplugin.o(t._ZN5QListI10QByteArrayE5clearEv.clean)
    t._ZN5QListI10QByteArrayE6appendERKS0_   0x00023ce4   Section      120  s60cameraserviceplugin.o(t._ZN5QListI10QByteArrayE6appendERKS0_)
    t._ZN5QListI10QByteArrayE6appendERKS0_.clean 0x00023d5c   Section       14  s60cameraserviceplugin.o(t._ZN5QListI10QByteArrayE6appendERKS0_.clean)
    t._ZN5QListI10QByteArrayE9node_copyEPNS1_4NodeES3_S3_ 0x00023d6a   Section       82  s60cameraserviceplugin.o(t._ZN5QListI10QByteArrayE9node_copyEPNS1_4NodeES3_S3_)
    t._ZN5QListI10QByteArrayE9node_copyEPNS1_4NodeES3_S3_.clean 0x00023dbc   Section       22  s60cameraserviceplugin.o(t._ZN5QListI10QByteArrayE9node_copyEPNS1_4NodeES3_S3_.clean)
    t._ZN5QListI10QByteArrayEC1Ev            0x00023dd4   Section       24  s60cameraserviceplugin.o(t._ZN5QListI10QByteArrayEC1Ev)
    t._ZN5QListI10QByteArrayED1Ev            0x00023dec   Section       32  moc_s60cameraserviceplugin.o(t._ZN5QListI10QByteArrayED1Ev)
    t._ZN5QListI5QSizeE13detach_helperEi     0x00023e0c   Section       94  s60videocapturesession.o(t._ZN5QListI5QSizeE13detach_helperEi)
    t._ZN5QListI5QSizeE13detach_helperEi.clean 0x00023e6a   Section        8  s60videocapturesession.o(t._ZN5QListI5QSizeE13detach_helperEi.clean)
    t._ZN5QListI5QSizeE13detach_helperEv     0x00023e72   Section       16  s60videocapturesession.o(t._ZN5QListI5QSizeE13detach_helperEv)
    t._ZN5QListI5QSizeE13node_destructEPNS1_4NodeES3_ 0x00023e82   Section       26  s60videocapturesession.o(t._ZN5QListI5QSizeE13node_destructEPNS1_4NodeES3_)
    t._ZN5QListI5QSizeE14node_constructEPNS1_4NodeERKS0_ 0x00023e9c   Section       34  s60videocapturesession.o(t._ZN5QListI5QSizeE14node_constructEPNS1_4NodeERKS0_)
    t._ZN5QListI5QSizeE14node_constructEPNS1_4NodeERKS0_.clean 0x00023ebe   Section        4  s60videocapturesession.o(t._ZN5QListI5QSizeE14node_constructEPNS1_4NodeERKS0_.clean)
    t._ZN5QListI5QSizeE18detach_helper_growEii 0x00023ec2   Section      208  s60videocapturesession.o(t._ZN5QListI5QSizeE18detach_helper_growEii)
    t._ZN5QListI5QSizeE18detach_helper_growEii.clean 0x00023f92   Section       16  s60videocapturesession.o(t._ZN5QListI5QSizeE18detach_helper_growEii.clean)
    t._ZN5QListI5QSizeE4freeEPN9QListData4DataE 0x00023fa2   Section       52  s60videocapturesession.o(t._ZN5QListI5QSizeE4freeEPN9QListData4DataE)
    t._ZN5QListI5QSizeE4lastEv               0x00023fd6   Section       46  s60imagecapturesession.o(t._ZN5QListI5QSizeE4lastEv)
    t._ZN5QListI5QSizeE6appendERKS0_         0x00024004   Section      112  s60videocapturesession.o(t._ZN5QListI5QSizeE6appendERKS0_)
    t._ZN5QListI5QSizeE6appendERKS0_.clean   0x00024074   Section       14  s60videocapturesession.o(t._ZN5QListI5QSizeE6appendERKS0_.clean)
    t._ZN5QListI5QSizeE6detachEv             0x00024082   Section       24  s60imagecapturesession.o(t._ZN5QListI5QSizeE6detachEv)
    t._ZN5QListI5QSizeE9node_copyEPNS1_4NodeES3_S3_ 0x0002409a   Section       80  s60videocapturesession.o(t._ZN5QListI5QSizeE9node_copyEPNS1_4NodeES3_S3_)
    t._ZN5QListI5QSizeE9node_copyEPNS1_4NodeES3_S3_.clean 0x000240ea   Section       22  s60videocapturesession.o(t._ZN5QListI5QSizeE9node_copyEPNS1_4NodeES3_S3_.clean)
    t._ZN5QListI5QSizeEC1Ev                  0x00024100   Section       24  s60videocapturesession.o(t._ZN5QListI5QSizeEC1Ev)
    t._ZN5QListI5QSizeED1Ev                  0x00024118   Section       32  s60videocapturesession.o(t._ZN5QListI5QSizeED1Ev)
    t._ZN5QListI7QStringE13detach_helperEi   0x00024138   Section       94  s60videocapturesession.o(t._ZN5QListI7QStringE13detach_helperEi)
    t._ZN5QListI7QStringE13detach_helperEi.clean 0x00024196   Section        8  s60videocapturesession.o(t._ZN5QListI7QStringE13detach_helperEi.clean)
    t._ZN5QListI7QStringE13detach_helperEv   0x0002419e   Section       16  s60videocapturesession.o(t._ZN5QListI7QStringE13detach_helperEv)
    t._ZN5QListI7QStringE13node_destructEPNS1_4NodeES3_ 0x000241ae   Section       26  s60videocapturesession.o(t._ZN5QListI7QStringE13node_destructEPNS1_4NodeES3_)
    t._ZN5QListI7QStringE14node_constructEPNS1_4NodeERKS0_ 0x000241c8   Section       36  s60videocapturesession.o(t._ZN5QListI7QStringE14node_constructEPNS1_4NodeERKS0_)
    t._ZN5QListI7QStringE14node_constructEPNS1_4NodeERKS0_.clean 0x000241ec   Section       14  s60videocapturesession.o(t._ZN5QListI7QStringE14node_constructEPNS1_4NodeERKS0_.clean)
    t._ZN5QListI7QStringE18detach_helper_growEii 0x000241fa   Section      208  s60videocapturesession.o(t._ZN5QListI7QStringE18detach_helper_growEii)
    t._ZN5QListI7QStringE18detach_helper_growEii.clean 0x000242ca   Section       16  s60videocapturesession.o(t._ZN5QListI7QStringE18detach_helper_growEii.clean)
    t._ZN5QListI7QStringE4freeEPN9QListData4DataE 0x000242da   Section       52  s60videocapturesession.o(t._ZN5QListI7QStringE4freeEPN9QListData4DataE)
    t._ZN5QListI7QStringE5clearEv            0x0002430e   Section       28  s60videocapturesession.o(t._ZN5QListI7QStringE5clearEv)
    t._ZN5QListI7QStringE5clearEv.clean      0x0002432a   Section       10  s60videocapturesession.o(t._ZN5QListI7QStringE5clearEv.clean)
    t._ZN5QListI7QStringE6appendERKS0_       0x00024334   Section      120  s60videocapturesession.o(t._ZN5QListI7QStringE6appendERKS0_)
    t._ZN5QListI7QStringE6appendERKS0_.clean 0x000243ac   Section       14  s60videocapturesession.o(t._ZN5QListI7QStringE6appendERKS0_.clean)
    t._ZN5QListI7QStringE7reserveEi          0x000243ba   Section       46  s60videocapturesession.o(t._ZN5QListI7QStringE7reserveEi)
    t._ZN5QListI7QStringE9node_copyEPNS1_4NodeES3_S3_ 0x000243e8   Section       82  s60videocapturesession.o(t._ZN5QListI7QStringE9node_copyEPNS1_4NodeES3_S3_)
    t._ZN5QListI7QStringE9node_copyEPNS1_4NodeES3_S3_.clean 0x0002443a   Section       22  s60videocapturesession.o(t._ZN5QListI7QStringE9node_copyEPNS1_4NodeES3_S3_.clean)
    t._ZN5QListI7QStringEC1ERKS1_            0x00024450   Section       36  s60videocapturesession.o(t._ZN5QListI7QStringEC1ERKS1_)
    t._ZN5QListI7QStringEC1Ev                0x00024474   Section       24  s60videocapturesession.o(t._ZN5QListI7QStringEC1Ev)
    t._ZN5QListI7QStringED1Ev                0x0002448c   Section       32  moc_s60cameraserviceplugin.o(t._ZN5QListI7QStringED1Ev)
    t._ZN5QListI7QStringEaSERKS1_            0x000244ac   Section       64  s60videocapturesession.o(t._ZN5QListI7QStringEaSERKS1_)
    t._ZN5QListI7QStringEixEi                0x000244ec   Section       42  s60videocapturesession.o(t._ZN5QListI7QStringEixEi)
    t._ZN5QListI8QVariantE13node_destructEPNS1_4NodeES3_ 0x00024516   Section       38  s60cameraexposurecontrol.o(t._ZN5QListI8QVariantE13node_destructEPNS1_4NodeES3_)
    t._ZN5QListI8QVariantE14node_constructEPNS1_4NodeERKS0_ 0x0002453c   Section       34  s60cameraexposurecontrol.o(t._ZN5QListI8QVariantE14node_constructEPNS1_4NodeERKS0_)
    t._ZN5QListI8QVariantE14node_constructEPNS1_4NodeERKS0_.clean 0x0002455e   Section       14  s60cameraexposurecontrol.o(t._ZN5QListI8QVariantE14node_constructEPNS1_4NodeERKS0_.clean)
    t._ZN5QListI8QVariantE18detach_helper_growEii 0x0002456c   Section      208  s60cameraexposurecontrol.o(t._ZN5QListI8QVariantE18detach_helper_growEii)
    t._ZN5QListI8QVariantE18detach_helper_growEii.clean 0x0002463c   Section       16  s60cameraexposurecontrol.o(t._ZN5QListI8QVariantE18detach_helper_growEii.clean)
    t._ZN5QListI8QVariantE4freeEPN9QListData4DataE 0x0002464c   Section       58  s60cameraexposurecontrol.o(t._ZN5QListI8QVariantE4freeEPN9QListData4DataE)
    t._ZN5QListI8QVariantE6appendERKS0_      0x00024688   Section      112  s60cameraexposurecontrol.o(t._ZN5QListI8QVariantE6appendERKS0_)
    t._ZN5QListI8QVariantE6appendERKS0_.clean 0x000246f8   Section       14  s60cameraexposurecontrol.o(t._ZN5QListI8QVariantE6appendERKS0_.clean)
    t._ZN5QListI8QVariantE9node_copyEPNS1_4NodeES3_S3_ 0x00024706   Section       92  s60cameraexposurecontrol.o(t._ZN5QListI8QVariantE9node_copyEPNS1_4NodeES3_S3_)
    t._ZN5QListI8QVariantE9node_copyEPNS1_4NodeES3_S3_.clean 0x00024762   Section       22  s60cameraexposurecontrol.o(t._ZN5QListI8QVariantE9node_copyEPNS1_4NodeES3_S3_.clean)
    t._ZN5QListI8QVariantED1Ev               0x00024778   Section       32  s60cameraexposurecontrol.o(t._ZN5QListI8QVariantED1Ev)
    t._ZN5QListI8QVariantElsERKS0_           0x00024798   Section       18  s60cameraexposurecontrol.o(t._ZN5QListI8QVariantElsERKS0_)
    t._ZN5QListIN11QVideoFrame11PixelFormatEE4freeEPN9QListData4DataE 0x000247aa   Section       70  s60cameraviewfinderengine.o(t._ZN5QListIN11QVideoFrame11PixelFormatEE4freeEPN9QListData4DataE)
    t._ZN5QListIN11QVideoFrame11PixelFormatEED1Ev 0x000247f0   Section       32  s60cameraviewfinderengine.o(t._ZN5QListIN11QVideoFrame11PixelFormatEED1Ev)
    t._ZN5QListIN22S60VideoCaptureSession26MaxResolutionRatesAndTypesEE13detach_helperEi 0x00024810   Section       94  s60videocapturesession.o(t._ZN5QListIN22S60VideoCaptureSession26MaxResolutionRatesAndTypesEE13detach_helperEi)
    t._ZN5QListIN22S60VideoCaptureSession26MaxResolutionRatesAndTypesEE13detach_helperEi.clean 0x0002486e   Section        8  s60videocapturesession.o(t._ZN5QListIN22S60VideoCaptureSession26MaxResolutionRatesAndTypesEE13detach_helperEi.clean)
    t._ZN5QListIN22S60VideoCaptureSession26MaxResolutionRatesAndTypesEE13detach_helperEv 0x00024876   Section       16  s60videocapturesession.o(t._ZN5QListIN22S60VideoCaptureSession26MaxResolutionRatesAndTypesEE13detach_helperEv)
    t._ZN5QListIN22S60VideoCaptureSession26MaxResolutionRatesAndTypesEE13node_destructEPNS2_4NodeES4_ 0x00024886   Section       38  s60videocapturesession.o(t._ZN5QListIN22S60VideoCaptureSession26MaxResolutionRatesAndTypesEE13node_destructEPNS2_4NodeES4_)
    t._ZN5QListIN22S60VideoCaptureSession26MaxResolutionRatesAndTypesEE14node_constructEPNS2_4NodeERKS1_ 0x000248ac   Section       34  s60videocapturesession.o(t._ZN5QListIN22S60VideoCaptureSession26MaxResolutionRatesAndTypesEE14node_constructEPNS2_4NodeERKS1_)
    t._ZN5QListIN22S60VideoCaptureSession26MaxResolutionRatesAndTypesEE14node_constructEPNS2_4NodeERKS1_.clean 0x000248ce   Section       14  s60videocapturesession.o(t._ZN5QListIN22S60VideoCaptureSession26MaxResolutionRatesAndTypesEE14node_constructEPNS2_4NodeERKS1_.clean)
    t._ZN5QListIN22S60VideoCaptureSession26MaxResolutionRatesAndTypesEE18detach_helper_growEii 0x000248dc   Section      208  s60videocapturesession.o(t._ZN5QListIN22S60VideoCaptureSession26MaxResolutionRatesAndTypesEE18detach_helper_growEii)
    t._ZN5QListIN22S60VideoCaptureSession26MaxResolutionRatesAndTypesEE18detach_helper_growEii.clean 0x000249ac   Section       16  s60videocapturesession.o(t._ZN5QListIN22S60VideoCaptureSession26MaxResolutionRatesAndTypesEE18detach_helper_growEii.clean)
    t._ZN5QListIN22S60VideoCaptureSession26MaxResolutionRatesAndTypesEE4freeEPN9QListData4DataE 0x000249bc   Section       52  s60videocapturesession.o(t._ZN5QListIN22S60VideoCaptureSession26MaxResolutionRatesAndTypesEE4freeEPN9QListData4DataE)
    t._ZN5QListIN22S60VideoCaptureSession26MaxResolutionRatesAndTypesEE5clearEv 0x000249f0   Section       76  s60videocapturesession.o(t._ZN5QListIN22S60VideoCaptureSession26MaxResolutionRatesAndTypesEE5clearEv)
    t._ZN5QListIN22S60VideoCaptureSession26MaxResolutionRatesAndTypesEE5clearEv.clean 0x00024a3c   Section       10  s60videocapturesession.o(t._ZN5QListIN22S60VideoCaptureSession26MaxResolutionRatesAndTypesEE5clearEv.clean)
    t._ZN5QListIN22S60VideoCaptureSession26MaxResolutionRatesAndTypesEE6appendERKS1_ 0x00024a48   Section      112  s60videocapturesession.o(t._ZN5QListIN22S60VideoCaptureSession26MaxResolutionRatesAndTypesEE6appendERKS1_)
    t._ZN5QListIN22S60VideoCaptureSession26MaxResolutionRatesAndTypesEE6appendERKS1_.clean 0x00024ab8   Section       14  s60videocapturesession.o(t._ZN5QListIN22S60VideoCaptureSession26MaxResolutionRatesAndTypesEE6appendERKS1_.clean)
    t._ZN5QListIN22S60VideoCaptureSession26MaxResolutionRatesAndTypesEE9node_copyEPNS2_4NodeES4_S4_ 0x00024ac6   Section       92  s60videocapturesession.o(t._ZN5QListIN22S60VideoCaptureSession26MaxResolutionRatesAndTypesEE9node_copyEPNS2_4NodeES4_S4_)
    t._ZN5QListIN22S60VideoCaptureSession26MaxResolutionRatesAndTypesEE9node_copyEPNS2_4NodeES4_S4_.clean 0x00024b22   Section       22  s60videocapturesession.o(t._ZN5QListIN22S60VideoCaptureSession26MaxResolutionRatesAndTypesEE9node_copyEPNS2_4NodeES4_S4_.clean)
    t._ZN5QListIN22S60VideoCaptureSession26MaxResolutionRatesAndTypesEEC1ERKS2_ 0x00024b38   Section       36  s60videocapturesession.o(t._ZN5QListIN22S60VideoCaptureSession26MaxResolutionRatesAndTypesEEC1ERKS2_)
    t._ZN5QListIN22S60VideoCaptureSession26MaxResolutionRatesAndTypesEEC1Ev 0x00024b5c   Section       24  s60videocapturesession.o(t._ZN5QListIN22S60VideoCaptureSession26MaxResolutionRatesAndTypesEEC1Ev)
    t._ZN5QListIN22S60VideoCaptureSession26MaxResolutionRatesAndTypesEED1Ev 0x00024b74   Section       32  s60videocapturesession.o(t._ZN5QListIN22S60VideoCaptureSession26MaxResolutionRatesAndTypesEED1Ev)
    t._ZN5QListIN22S60VideoCaptureSession26MaxResolutionRatesAndTypesEEixEi 0x00024b94   Section       42  s60videocapturesession.o(t._ZN5QListIN22S60VideoCaptureSession26MaxResolutionRatesAndTypesEEixEi)
    t._ZN5QListIN22S60VideoCaptureSession29SupportedFrameRatePictureSizeEE13detach_helperEi 0x00024bbe   Section       94  s60videocapturesession.o(t._ZN5QListIN22S60VideoCaptureSession29SupportedFrameRatePictureSizeEE13detach_helperEi)
    t._ZN5QListIN22S60VideoCaptureSession29SupportedFrameRatePictureSizeEE13detach_helperEi.clean 0x00024c1c   Section        8  s60videocapturesession.o(t._ZN5QListIN22S60VideoCaptureSession29SupportedFrameRatePictureSizeEE13detach_helperEi.clean)
    t._ZN5QListIN22S60VideoCaptureSession29SupportedFrameRatePictureSizeEE13detach_helperEv 0x00024c24   Section       16  s60videocapturesession.o(t._ZN5QListIN22S60VideoCaptureSession29SupportedFrameRatePictureSizeEE13detach_helperEv)
    t._ZN5QListIN22S60VideoCaptureSession29SupportedFrameRatePictureSizeEE13node_destructEPNS2_4NodeES4_ 0x00024c34   Section       26  s60videocapturesession.o(t._ZN5QListIN22S60VideoCaptureSession29SupportedFrameRatePictureSizeEE13node_destructEPNS2_4NodeES4_)
    t._ZN5QListIN22S60VideoCaptureSession29SupportedFrameRatePictureSizeEE14node_constructEPNS2_4NodeERKS1_ 0x00024c4e   Section       34  s60videocapturesession.o(t._ZN5QListIN22S60VideoCaptureSession29SupportedFrameRatePictureSizeEE14node_constructEPNS2_4NodeERKS1_)
    t._ZN5QListIN22S60VideoCaptureSession29SupportedFrameRatePictureSizeEE14node_constructEPNS2_4NodeERKS1_.clean 0x00024c70   Section       14  s60videocapturesession.o(t._ZN5QListIN22S60VideoCaptureSession29SupportedFrameRatePictureSizeEE14node_constructEPNS2_4NodeERKS1_.clean)
    t._ZN5QListIN22S60VideoCaptureSession29SupportedFrameRatePictureSizeEE18detach_helper_growEii 0x00024c7e   Section      208  s60videocapturesession.o(t._ZN5QListIN22S60VideoCaptureSession29SupportedFrameRatePictureSizeEE18detach_helper_growEii)
    t._ZN5QListIN22S60VideoCaptureSession29SupportedFrameRatePictureSizeEE18detach_helper_growEii.clean 0x00024d4e   Section       16  s60videocapturesession.o(t._ZN5QListIN22S60VideoCaptureSession29SupportedFrameRatePictureSizeEE18detach_helper_growEii.clean)
    t._ZN5QListIN22S60VideoCaptureSession29SupportedFrameRatePictureSizeEE4freeEPN9QListData4DataE 0x00024d5e   Section       52  s60videocapturesession.o(t._ZN5QListIN22S60VideoCaptureSession29SupportedFrameRatePictureSizeEE4freeEPN9QListData4DataE)
    t._ZN5QListIN22S60VideoCaptureSession29SupportedFrameRatePictureSizeEE5clearEv 0x00024d92   Section       76  s60videocapturesession.o(t._ZN5QListIN22S60VideoCaptureSession29SupportedFrameRatePictureSizeEE5clearEv)
    t._ZN5QListIN22S60VideoCaptureSession29SupportedFrameRatePictureSizeEE5clearEv.clean 0x00024dde   Section       10  s60videocapturesession.o(t._ZN5QListIN22S60VideoCaptureSession29SupportedFrameRatePictureSizeEE5clearEv.clean)
    t._ZN5QListIN22S60VideoCaptureSession29SupportedFrameRatePictureSizeEE6appendERKS1_ 0x00024de8   Section      112  s60videocapturesession.o(t._ZN5QListIN22S60VideoCaptureSession29SupportedFrameRatePictureSizeEE6appendERKS1_)
    t._ZN5QListIN22S60VideoCaptureSession29SupportedFrameRatePictureSizeEE6appendERKS1_.clean 0x00024e58   Section       14  s60videocapturesession.o(t._ZN5QListIN22S60VideoCaptureSession29SupportedFrameRatePictureSizeEE6appendERKS1_.clean)
    t._ZN5QListIN22S60VideoCaptureSession29SupportedFrameRatePictureSizeEE9node_copyEPNS2_4NodeES4_S4_ 0x00024e66   Section       80  s60videocapturesession.o(t._ZN5QListIN22S60VideoCaptureSession29SupportedFrameRatePictureSizeEE9node_copyEPNS2_4NodeES4_S4_)
    t._ZN5QListIN22S60VideoCaptureSession29SupportedFrameRatePictureSizeEE9node_copyEPNS2_4NodeES4_S4_.clean 0x00024eb6   Section       22  s60videocapturesession.o(t._ZN5QListIN22S60VideoCaptureSession29SupportedFrameRatePictureSizeEE9node_copyEPNS2_4NodeES4_S4_.clean)
    t._ZN5QListIN22S60VideoCaptureSession29SupportedFrameRatePictureSizeEEC1ERKS2_ 0x00024ecc   Section       36  s60videocapturesession.o(t._ZN5QListIN22S60VideoCaptureSession29SupportedFrameRatePictureSizeEEC1ERKS2_)
    t._ZN5QListIN22S60VideoCaptureSession29SupportedFrameRatePictureSizeEEC1Ev 0x00024ef0   Section       24  s60videocapturesession.o(t._ZN5QListIN22S60VideoCaptureSession29SupportedFrameRatePictureSizeEEC1Ev)
    t._ZN5QListIN22S60VideoCaptureSession29SupportedFrameRatePictureSizeEED1Ev 0x00024f08   Section       32  s60videocapturesession.o(t._ZN5QListIN22S60VideoCaptureSession29SupportedFrameRatePictureSizeEED1Ev)
    t._ZN5QListIN22S60VideoCaptureSession29SupportedFrameRatePictureSizeEEixEi 0x00024f28   Section       42  s60videocapturesession.o(t._ZN5QListIN22S60VideoCaptureSession29SupportedFrameRatePictureSizeEEixEi)
    t._ZN5QListIfE13detach_helperEi          0x00024f52   Section       94  s60videocapturesession.o(t._ZN5QListIfE13detach_helperEi)
    t._ZN5QListIfE13detach_helperEi.clean    0x00024fb0   Section        8  s60videocapturesession.o(t._ZN5QListIfE13detach_helperEi.clean)
    t._ZN5QListIfE13detach_helperEv          0x00024fb8   Section       16  s60cameraexposurecontrol.o(t._ZN5QListIfE13detach_helperEv)
    t._ZN5QListIfE18detach_helper_growEii    0x00024fc8   Section      204  s60videocapturesession.o(t._ZN5QListIfE18detach_helper_growEii)
    t._ZN5QListIfE18detach_helper_growEii.clean 0x00025094   Section       16  s60videocapturesession.o(t._ZN5QListIfE18detach_helper_growEii.clean)
    t._ZN5QListIfE4freeEPN9QListData4DataE   0x000250a4   Section       52  s60videocapturesession.o(t._ZN5QListIfE4freeEPN9QListData4DataE)
    t._ZN5QListIfE4lastEv                    0x000250d8   Section       46  s60cameraexposurecontrol.o(t._ZN5QListIfE4lastEv)
    t._ZN5QListIfE5firstEv                   0x00025106   Section       36  s60cameraexposurecontrol.o(t._ZN5QListIfE5firstEv)
    t._ZN5QListIfE6appendERKf                0x0002512c   Section      100  s60videocapturesession.o(t._ZN5QListIfE6appendERKf)
    t._ZN5QListIfE6appendERKf.clean          0x00025190   Section       10  s60videocapturesession.o(t._ZN5QListIfE6appendERKf.clean)
    t._ZN5QListIfE6detachEv                  0x0002519a   Section       24  s60cameraexposurecontrol.o(t._ZN5QListIfE6detachEv)
    t._ZN5QListIfE6insertEiRKf               0x000251b2   Section      100  s60videocapturesession.o(t._ZN5QListIfE6insertEiRKf)
    t._ZN5QListIfE6insertEiRKf.clean         0x00025216   Section       10  s60videocapturesession.o(t._ZN5QListIfE6insertEiRKf.clean)
    t._ZN5QListIfE9node_copyEPNS0_4NodeES2_S2_ 0x00025220   Section       46  s60videocapturesession.o(t._ZN5QListIfE9node_copyEPNS0_4NodeES2_S2_)
    t._ZN5QListIfEC1Ev                       0x00025250   Section       24  s60videocapturesession.o(t._ZN5QListIfEC1Ev)
    t._ZN5QListIfED1Ev                       0x00025268   Section       32  s60cameraexposurecontrol.o(t._ZN5QListIfED1Ev)
    t._ZN5QListIfEixEi                       0x00025288   Section       28  s60cameraexposurecontrol.o(t._ZN5QListIfEixEi)
    t._ZN5QListIiE13detach_helperEi          0x000252a4   Section       94  s60videocapturesession.o(t._ZN5QListIiE13detach_helperEi)
    t._ZN5QListIiE13detach_helperEi.clean    0x00025302   Section        8  s60videocapturesession.o(t._ZN5QListIiE13detach_helperEi.clean)
    t._ZN5QListIiE13detach_helperEv          0x0002530a   Section       16  s60cameraexposurecontrol.o(t._ZN5QListIiE13detach_helperEv)
    t._ZN5QListIiE18detach_helper_growEii    0x0002531a   Section      204  s60videocapturesession.o(t._ZN5QListIiE18detach_helper_growEii)
    t._ZN5QListIiE18detach_helper_growEii.clean 0x000253e6   Section       16  s60videocapturesession.o(t._ZN5QListIiE18detach_helper_growEii.clean)
    t._ZN5QListIiE4freeEPN9QListData4DataE   0x000253f6   Section       52  s60videocapturesession.o(t._ZN5QListIiE4freeEPN9QListData4DataE)
    t._ZN5QListIiE6appendERKi                0x0002542c   Section      100  s60videocapturesession.o(t._ZN5QListIiE6appendERKi)
    t._ZN5QListIiE6appendERKi.clean          0x00025490   Section       10  s60videocapturesession.o(t._ZN5QListIiE6appendERKi.clean)
    t._ZN5QListIiE7reserveEi                 0x0002549a   Section       46  s60videocapturesession.o(t._ZN5QListIiE7reserveEi)
    t._ZN5QListIiE9node_copyEPNS0_4NodeES2_S2_ 0x000254c8   Section       46  s60videocapturesession.o(t._ZN5QListIiE9node_copyEPNS0_4NodeES2_S2_)
    t._ZN5QListIiEC1Ev                       0x000254f8   Section       24  s60videocapturesession.o(t._ZN5QListIiEC1Ev)
    t._ZN5QListIiED1Ev                       0x00025510   Section       32  s60cameraexposurecontrol.o(t._ZN5QListIiED1Ev)
    t._ZN5QListIiEaSERKS0_                   0x00025530   Section       64  s60videocapturesession.o(t._ZN5QListIiEaSERKS0_)
    t._ZN5QListIiEixEi                       0x00025570   Section       42  s60videocapturesession.o(t._ZN5QListIiEixEi)
    t._ZN5QListIjE13detach_helperEi          0x0002559a   Section       94  s60imagecapturesession.o(t._ZN5QListIjE13detach_helperEi)
    t._ZN5QListIjE13detach_helperEi.clean    0x000255f8   Section        8  s60imagecapturesession.o(t._ZN5QListIjE13detach_helperEi.clean)
    t._ZN5QListIjE13detach_helperEv          0x00025600   Section       16  s60imagecapturesession.o(t._ZN5QListIjE13detach_helperEv)
    t._ZN5QListIjE18detach_helper_growEii    0x00025610   Section      204  s60imagecapturesession.o(t._ZN5QListIjE18detach_helper_growEii)
    t._ZN5QListIjE18detach_helper_growEii.clean 0x000256dc   Section       16  s60imagecapturesession.o(t._ZN5QListIjE18detach_helper_growEii.clean)
    t._ZN5QListIjE4freeEPN9QListData4DataE   0x000256ec   Section       52  s60imagecapturesession.o(t._ZN5QListIjE4freeEPN9QListData4DataE)
    t._ZN5QListIjE5clearEv                   0x00025720   Section       76  s60imagecapturesession.o(t._ZN5QListIjE5clearEv)
    t._ZN5QListIjE5clearEv.clean             0x0002576c   Section       10  s60imagecapturesession.o(t._ZN5QListIjE5clearEv.clean)
    t._ZN5QListIjE6appendERKj                0x00025778   Section      100  s60imagecapturesession.o(t._ZN5QListIjE6appendERKj)
    t._ZN5QListIjE6appendERKj.clean          0x000257dc   Section       10  s60imagecapturesession.o(t._ZN5QListIjE6appendERKj.clean)
    t._ZN5QListIjE9node_copyEPNS0_4NodeES2_S2_ 0x000257e6   Section       46  s60imagecapturesession.o(t._ZN5QListIjE9node_copyEPNS0_4NodeES2_S2_)
    t._ZN5QListIjEC1Ev                       0x00025814   Section       24  s60imagecapturesession.o(t._ZN5QListIjEC1Ev)
    t._ZN5QListIjED1Ev                       0x0002582c   Section       32  s60imagecapturesession.o(t._ZN5QListIjED1Ev)
    t._ZN8QPointerI7QObjectED1Ev             0x0002584c   Section       14  s60cameraserviceplugin.o(t._ZN8QPointerI7QObjectED1Ev)
    t._ZN9QHashNodeI7QString7TFourCCEC1ERKS0_RKS1_ 0x0002585a   Section       30  s60videocapturesession.o(t._ZN9QHashNodeI7QString7TFourCCEC1ERKS0_RKS1_)
    t._ZN9QHashNodeI7QString7TFourCCEC1ERKS0_RKS1_.clean 0x00025878   Section        4  s60videocapturesession.o(t._ZN9QHashNodeI7QString7TFourCCEC1ERKS0_RKS1_.clean)
    t._ZN9QHashNodeIi5QHashIiN22S60VideoCaptureSession15VideoFormatDataEEEC1EiRKS3_ 0x0002587c   Section       26  s60videocapturesession.o(t._ZN9QHashNodeIi5QHashIiN22S60VideoCaptureSession15VideoFormatDataEEEC1EiRKS3_)
    t._ZN9QHashNodeIiN22S60VideoCaptureSession15VideoFormatDataEEC1EiRKS1_ 0x00025896   Section       26  s60videocapturesession.o(t._ZN9QHashNodeIiN22S60VideoCaptureSession15VideoFormatDataEEC1EiRKS1_)
    t._ZNK13RPointerArrayI35CMMFFormatImplementationInformationEixEi 0x000258b0   Section       16  s60videocapturesession.o(t._ZNK13RPointerArrayI35CMMFFormatImplementationInformationEixEi)
    t._ZNK17QForeachContainerI5QHashIiN22S60VideoCaptureSession15VideoFormatDataEEE9conditionEv 0x000258c0   Section       38  s60videocapturesession.o(t._ZNK17QForeachContainerI5QHashIiN22S60VideoCaptureSession15VideoFormatDataEEE9conditionEv)
    t._ZNK17QForeachContainerI5QListIN22S60VideoCaptureSession26MaxResolutionRatesAndTypesEEE9conditionEv 0x000258e6   Section       40  s60videocapturesession.o(t._ZNK17QForeachContainerI5QListIN22S60VideoCaptureSession26MaxResolutionRatesAndTypesEEE9conditionEv)
    t._ZNK17QForeachContainerI5QListIN22S60VideoCaptureSession29SupportedFrameRatePictureSizeEEE9conditionEv 0x0002590e   Section       40  s60videocapturesession.o(t._ZNK17QForeachContainerI5QListIN22S60VideoCaptureSession29SupportedFrameRatePictureSizeEEE9conditionEv)
    t._ZNK17QForeachContainerI5QListIfEE9conditionEv 0x00025936   Section       40  s60cameraexposurecontrol.o(t._ZNK17QForeachContainerI5QListIfEE9conditionEv)
    t._ZNK4QMapI7QStringS0_E15mutableFindNodeEPPN8QMapData4NodeERKS0_ 0x0002595e   Section      108  s60imagecapturesession.o(t._ZNK4QMapI7QStringS0_E15mutableFindNodeEPPN8QMapData4NodeERKS0_)
    t._ZNK4QMapI7QStringiE15mutableFindNodeEPPN8QMapData4NodeERKS0_ 0x000259ca   Section      108  s60imagecapturesession.o(t._ZNK4QMapI7QStringiE15mutableFindNodeEPPN8QMapData4NodeERKS0_)
    t._ZNK4QMapI7QStringiE3keyERKi           0x00025a36   Section       36  s60imagecapturesession.o(t._ZNK4QMapI7QStringiE3keyERKi)
    t._ZNK4QMapI7QStringiE3keyERKi.clean     0x00025a5a   Section       10  s60imagecapturesession.o(t._ZNK4QMapI7QStringiE3keyERKi.clean)
    t._ZNK4QMapI7QStringiE3keyERKiRKS0_      0x00025a64   Section      120  s60imagecapturesession.o(t._ZNK4QMapI7QStringiE3keyERKiRKS0_)
    t._ZNK5QHashI7QString7TFourCCE14const_iteratorneERKS3_ 0x00025adc   Section       18  s60videocapturesession.o(t._ZNK5QHashI7QString7TFourCCE14const_iteratorneERKS3_)
    t._ZNK5QHashI7QString7TFourCCE3keyERKS1_ 0x00025aee   Section       36  s60videocapturesession.o(t._ZNK5QHashI7QString7TFourCCE3keyERKS1_)
    t._ZNK5QHashI7QString7TFourCCE3keyERKS1_.clean 0x00025b12   Section       10  s60videocapturesession.o(t._ZNK5QHashI7QString7TFourCCE3keyERKS1_.clean)
    t._ZNK5QHashI7QString7TFourCCE3keyERKS1_RKS0_ 0x00025b1c   Section      118  s60videocapturesession.o(t._ZNK5QHashI7QString7TFourCCE3keyERKS1_RKS0_)
    t._ZNK5QHashI7QString7TFourCCE4keysEv    0x00025b92   Section      102  s60videocapturesession.o(t._ZNK5QHashI7QString7TFourCCE4keysEv)
    t._ZNK5QHashI7QString7TFourCCE4keysEv.clean 0x00025bf8   Section       10  s60videocapturesession.o(t._ZNK5QHashI7QString7TFourCCE4keysEv.clean)
    t._ZNK5QHashI7QString7TFourCCE8containsERKS0_ 0x00025c02   Section       32  s60videocapturesession.o(t._ZNK5QHashI7QString7TFourCCE8containsERKS0_)
    t._ZNK5QHashI7QString7TFourCCE8findNodeERKS0_Pj 0x00025c22   Section      116  s60videocapturesession.o(t._ZNK5QHashI7QString7TFourCCE8findNodeERKS0_Pj)
    t._ZNK5QHashIiN22S60VideoCaptureSession15VideoFormatDataEE14const_iteratorneERKS3_ 0x00025c96   Section       18  s60videocapturesession.o(t._ZNK5QHashIiN22S60VideoCaptureSession15VideoFormatDataEE14const_iteratorneERKS3_)
    t._ZNK5QHashIiN22S60VideoCaptureSession15VideoFormatDataEE4keysEv 0x00025ca8   Section       94  s60videocapturesession.o(t._ZNK5QHashIiN22S60VideoCaptureSession15VideoFormatDataEE4keysEv)
    t._ZNK5QHashIiN22S60VideoCaptureSession15VideoFormatDataEE4keysEv.clean 0x00025d06   Section       10  s60videocapturesession.o(t._ZNK5QHashIiN22S60VideoCaptureSession15VideoFormatDataEE4keysEv.clean)
    t._ZNK5QHashIiN22S60VideoCaptureSession15VideoFormatDataEE8findNodeERKiPj 0x00025d10   Section       94  s60videocapturesession.o(t._ZNK5QHashIiN22S60VideoCaptureSession15VideoFormatDataEE8findNodeERKiPj)
    t._ZNK5QHashIiS_IiN22S60VideoCaptureSession15VideoFormatDataEEE4keysEv 0x00025d6e   Section      108  s60videocapturesession.o(t._ZNK5QHashIiS_IiN22S60VideoCaptureSession15VideoFormatDataEEE4keysEv)
    t._ZNK5QHashIiS_IiN22S60VideoCaptureSession15VideoFormatDataEEE4keysEv.clean 0x00025dda   Section       10  s60videocapturesession.o(t._ZNK5QHashIiS_IiN22S60VideoCaptureSession15VideoFormatDataEEE4keysEv.clean)
    t._ZNK5QHashIiS_IiN22S60VideoCaptureSession15VideoFormatDataEEE8findNodeERKiPj 0x00025de4   Section       94  s60videocapturesession.o(t._ZNK5QHashIiS_IiN22S60VideoCaptureSession15VideoFormatDataEEE8findNodeERKiPj)
    t._ZNK5QListI10QByteArrayE7isEmptyEv     0x00025e42   Section       24  s60cameraserviceplugin.o(t._ZNK5QListI10QByteArrayE7isEmptyEv)
    t._ZNK5QListI5QSizeE8containsERKS0_      0x00025e5a   Section       86  s60videocapturesession.o(t._ZNK5QListI5QSizeE8containsERKS0_)
    t._ZNK5QListI7QStringE7indexOfERKS0_i    0x00025eb0   Section      136  s60mediacontainercontrol.o(t._ZNK5QListI7QStringE7indexOfERKS0_i)
    t._ZNK5QListIN11QVideoFrame11PixelFormatEE8containsERKS1_ 0x00025f38   Section       80  s60cameraviewfinderengine.o(t._ZNK5QListIN11QVideoFrame11PixelFormatEE8containsERKS1_)
    t._ZNK5QListIN22S60VideoCaptureSession26MaxResolutionRatesAndTypesEE5countEv 0x00025f88   Section       12  s60videocapturesession.o(t._ZNK5QListIN22S60VideoCaptureSession26MaxResolutionRatesAndTypesEE5countEv)
    t._ZNK5QListIfE2atEi                     0x00025f94   Section       22  s60imagecapturesession.o(t._ZNK5QListIfE2atEi)
    t._ZNK5QListIfE5countEv                  0x00025faa   Section       16  s60imagecapturesession.o(t._ZNK5QListIfE5countEv)
    t._ZNK5QListIfE7indexOfERKfi             0x00025fba   Section      120  s60cameraexposurecontrol.o(t._ZNK5QListIfE7indexOfERKfi)
    t._ZNK5QListIfE7isEmptyEv                0x00026032   Section       24  s60videocapturesession.o(t._ZNK5QListIfE7isEmptyEv)
    t._ZNK5QListIfE8containsERKf             0x0002604a   Section       72  s60videocapturesession.o(t._ZNK5QListIfE8containsERKf)
    t._ZNK5QListIiE2atEi                     0x00026092   Section       30  s60camerasettings.o(t._ZNK5QListIiE2atEi)
    t._ZNK5QListIiE5countEv                  0x000260b0   Section       12  s60videocapturesession.o(t._ZNK5QListIiE5countEv)
    t._ZNK5QListIiE8containsERKi             0x000260bc   Section       66  s60cameraexposurecontrol.o(t._ZNK5QListIiE8containsERKi)
    .extab._ZN22S60CameraServicePluginD1Ev   0x00026100   Data           0  moc_s60cameraserviceplugin.o(.ARM.extab)
    .extab._ZN21S60CameraLocksControlC1EP16S60CameraServiceP22S60ImageCaptureSessionP7QObject 0x00026118   Data           0  s60cameralockscontrol.o(.ARM.extab)
    .extab._ZN21S60CameraFocusControlC1EP22S60ImageCaptureSessionP7QObject 0x00026128   Data           0  s60camerafocuscontrol.o(.ARM.extab)
    .extab._ZN21S60CameraFocusControl12setFocusModeEN12QCameraFocus9FocusModeE 0x00026180   Data           0  s60camerafocuscontrol.o(.ARM.extab)
    .extab._ZN21S60CameraFocusControl6zoomToEff 0x00026198   Data           0  s60camerafocuscontrol.o(.ARM.extab)
    .extab._ZN21S60CameraFocusControl17setFocusPointModeEN12QCameraFocus14FocusPointModeE 0x000261d0   Data           0  s60camerafocuscontrol.o(.ARM.extab)
    .extab._ZN21S60CameraFocusControl19setCustomFocusPointERK7QPointF 0x000261e0   Data           0  s60camerafocuscontrol.o(.ARM.extab)
    .extab._ZN24S60CameraExposureControlC1EP22S60ImageCaptureSessionP7QObject 0x000261f0   Data           0  s60cameraexposurecontrol.o(.ARM.extab)
    .extab._ZN24S60CameraExposureControl15setExposureModeEN15QCameraExposure12ExposureModeE 0x00026200   Data           0  s60cameraexposurecontrol.o(.ARM.extab)
    .extab._ZN24S60CameraExposureControl15setMeteringModeEN15QCameraExposure12MeteringModeE 0x00026210   Data           0  s60cameraexposurecontrol.o(.ARM.extab)
    .extab._ZNK24S60CameraExposureControl20isParameterSupportedEN22QCameraExposureControl17ExposureParameterE 0x00026220   Data           0  s60cameraexposurecontrol.o(.ARM.extab)
    .extab._ZNK24S60CameraExposureControl23supportedParameterRangeEN22QCameraExposureControl17ExposureParameterE 0x00026248   Data           0  s60cameraexposurecontrol.o(.ARM.extab)
    .extab._ZNK24S60CameraExposureControl31isExposureCompensationSupportedEf 0x00026320   Data           0  s60cameraexposurecontrol.o(.ARM.extab)
    .extab._ZN24S60CameraExposureControl29setManualExposureCompensationEf 0x00026330   Data           0  s60cameraexposurecontrol.o(.ARM.extab)
    .extab._ZNK24S60CameraExposureControl23isShutterSpeedSupportedEf 0x00026348   Data           0  s60cameraexposurecontrol.o(.ARM.extab)
    .extab._ZN24S60CameraExposureControl21setManualShutterSpeedEf 0x00026358   Data           0  s60cameraexposurecontrol.o(.ARM.extab)
    .extab._ZNK24S60CameraExposureControl19isApertureSupportedEf 0x00026370   Data           0  s60cameraexposurecontrol.o(.ARM.extab)
    .extab._ZN24S60CameraExposureControl17setManualApertureEf 0x00026380   Data           0  s60cameraexposurecontrol.o(.ARM.extab)
    .extab._ZNK24S60CameraExposureControl25isIsoSensitivitySupportedEi 0x00026390   Data           0  s60cameraexposurecontrol.o(.ARM.extab)
    .extab._Z20qForeachContainerNewI5QListIfEE17QForeachContainerIT_ERKS3_ 0x000263a0   Data           0  s60cameraexposurecontrol.o(.ARM.extab)
    .extab._ZN5QListI8QVariantE14node_constructEPNS1_4NodeERKS0_ 0x000263b0   Data           0  s60cameraexposurecontrol.o(.ARM.extab)
    .extab._ZN5QListI8QVariantE9node_copyEPNS1_4NodeES3_S3_ 0x000263c0   Data           0  s60cameraexposurecontrol.o(.ARM.extab)
    .extab._ZN5QListI8QVariantE18detach_helper_growEii 0x000263e4   Data           0  s60cameraexposurecontrol.o(.ARM.extab)
    .extab._ZN5QListI8QVariantE6appendERKS0_ 0x00026414   Data           0  s60cameraexposurecontrol.o(.ARM.extab)
    .extab._ZN21S60CameraFlashControlC1EP22S60ImageCaptureSessionP7QObject 0x00026444   Data           0  s60cameraflashcontrol.o(.ARM.extab)
    .extab._ZN21S60CameraFlashControl12setFlashModeE6QFlagsIN15QCameraExposure9FlashModeEE 0x00026454   Data           0  s60cameraflashcontrol.o(.ARM.extab)
    .extab._ZN16S60CameraControlC1EP22S60VideoCaptureSessionP22S60ImageCaptureSessionP7QObject 0x00026464   Data           0  s60cameracontrol.o(.ARM.extab)
    .extab._ZN16S60CameraControlD1Ev         0x000264c4   Data           0  s60cameracontrol.o(.ARM.extab)
    .extab._ZN16S60CameraControl10stopCameraEv 0x000264d4   Data           0  s60cameracontrol.o(.ARM.extab)
    .extab._ZN16S60CameraControl11resetCameraEb 0x000264e4   Data           0  s60cameracontrol.o(.ARM.extab)
    .extab._ZN16S60CameraControl11startCameraEv 0x00026544   Data           0  s60cameracontrol.o(.ARM.extab)
    .extab._ZN16S60CameraControl8setStateEN7QCamera5StateE 0x00026554   Data           0  s60cameracontrol.o(.ARM.extab)
    .extab._ZN16S60CameraControl14setCaptureModeEN7QCamera11CaptureModeE 0x00026584   Data           0  s60cameracontrol.o(.ARM.extab)
    .extab._ZN16S60CameraControl22resetCameraOrientationEv 0x000265b4   Data           0  s60cameracontrol.o(.ARM.extab)
    .extab._ZN16S60CameraControl4nameEi      0x000265ec   Data           0  s60cameracontrol.o(.ARM.extab)
    .extab._ZN16S60CameraControl11descriptionEi 0x0002663c   Data           0  s60cameracontrol.o(.ARM.extab)
    .extab._ZN16S60CameraControl17setSelectedDeviceEi 0x0002668c   Data           0  s60cameracontrol.o(.ARM.extab)
    .extab._ZN16S60CameraControl14setVideoOutputEP7QObjectN25S60CameraViewfinderEngine20ViewfinderOutputTypeE 0x0002669c   Data           0  s60cameracontrol.o(.ARM.extab)
    .extab._ZN16S60CameraControl17videoStateChangedEN22S60VideoCaptureSession18TVideoCaptureStateE 0x000266ac   Data           0  s60cameracontrol.o(.ARM.extab)
    .extab._ZN16S60CameraControl15toStandByStatusEv 0x000266bc   Data           0  s60cameracontrol.o(.ARM.extab)
    .extab._ZN16S60CameraControl15MceoCameraReadyEv 0x000266cc   Data           0  s60cameracontrol.o(.ARM.extab)
    .extab._ZN16S60CameraControl15MceoHandleErrorE18TCameraEngineErrori 0x000266ec   Data           0  s60cameracontrol.o(.ARM.extab)
    .extab._ZN23S60MediaRecorderControlC1EP16S60CameraServiceP22S60VideoCaptureSessionP7QObject 0x0002670c   Data           0  s60mediarecordercontrol.o(.ARM.extab)
    .extab._ZN23S60MediaRecorderControlD1Ev  0x0002671c   Data           0  s60mediarecordercontrol.o(.ARM.extab)
    .extab._ZN23S60MediaRecorderControl6recordEv 0x0002672c   Data           0  s60mediarecordercontrol.o(.ARM.extab)
    .extab._ZNK22S60VideoCaptureSession27maximumFrameRateForMimeTypeERK7QString 0x0002673c   Data           0  s60videocapturesession.o(.ARM.extab)
    .extab._ZN22S60VideoCaptureSession24supportedVideoFrameRatesERK21QVideoEncoderSettingsPb 0x0002674c   Data           0  s60videocapturesession.o(.ARM.extab)
    .extab._ZN22S60VideoCaptureSession31doUpdateVideoCaptureContainersLEv 0x000267ac   Data           0  s60videocapturesession.o(.ARM.extab)
    .extab._ZN22S60VideoCaptureSession28updateVideoCaptureContainersEv 0x0002681c   Data           0  s60videocapturesession.o(.ARM.extab)
    .extab._ZN22S60VideoCaptureSession12resetSessionEb 0x00026854   Data           0  s60videocapturesession.o(.ARM.extab)
    .extab._ZN22S60VideoCaptureSession25supportedVideoResolutionsEPb 0x00026894   Data           0  s60videocapturesession.o(.ARM.extab)
    .extab._ZN22S60VideoCaptureSession30initializeVideoCaptureSettingsEv 0x000268e4   Data           0  s60videocapturesession.o(.ARM.extab)
    .extab._ZN22S60VideoCaptureSession26doPopulateVideoCodecsDataLEv 0x0002693c   Data           0  s60videocapturesession.o(.ARM.extab)
    .extab._ZN22S60VideoCaptureSessionC1EP7QObject 0x0002695c   Data           0  s60videocapturesession.o(.ARM.extab)
    .extab._ZN22S60VideoCaptureSessionD1Ev   0x00026a6c   Data           0  s60videocapturesession.o(.ARM.extab)
    .extab._ZN22S60VideoCaptureSession12doSetBitrateERKi 0x00026b1c   Data           0  s60videocapturesession.o(.ARM.extab)
    .extab._ZN22S60VideoCaptureSession24supportedVideoFrameRatesEPb 0x00026b64   Data           0  s60videocapturesession.o(.ARM.extab)
    .extab._ZN22S60VideoCaptureSession14doSetFrameRateEf 0x00026b94   Data           0  s60videocapturesession.o(.ARM.extab)
    .extab._ZN22S60VideoCaptureSession20doSetVideoResolutionERK5QSize 0x00026c6c   Data           0  s60videocapturesession.o(.ARM.extab)
    .extab._ZN22S60VideoCaptureSession24determineProfileAndLevelEv 0x00026d1c   Data           0  s60videocapturesession.o(.ARM.extab)
    .extab._ZN22S60VideoCaptureSession12doSetCodecsLEv 0x00026d5c   Data           0  s60videocapturesession.o(.ARM.extab)
    .extab._ZN22S60VideoCaptureSession16selectControllerERK7QStringR4TUidS4_ 0x00026dec   Data           0  s60videocapturesession.o(.ARM.extab)
    .extab._ZN22S60VideoCaptureSession17setOutputLocationERK4QUrl 0x00026e2c   Data           0  s60videocapturesession.o(.ARM.extab)
    .extab._ZN22S60VideoCaptureSession26commitVideoEncoderSettingsEv 0x0002702c   Data           0  s60videocapturesession.o(.ARM.extab)
    .extab._ZN22S60VideoCaptureSession16applyAllSettingsEv 0x000271ac   Data           0  s60videocapturesession.o(.ARM.extab)
    .extab._ZN22S60VideoCaptureSession23validateRequestedCodecsEv 0x000271cc   Data           0  s60videocapturesession.o(.ARM.extab)
    .extab._ZN22S60VideoCaptureSession22doPopulateVideoCodecsLEv 0x00027204   Data           0  s60videocapturesession.o(.ARM.extab)
    .extab._ZN22S60VideoCaptureSession22doPopulateAudioCodecsLEv 0x0002721c   Data           0  s60videocapturesession.o(.ARM.extab)
    .extab._ZN22S60VideoCaptureSession17MvruoOpenCompleteEi 0x0002723c   Data           0  s60videocapturesession.o(.ARM.extab)
    .extab._ZN22S60VideoCaptureSession14startRecordingEv 0x000272bc   Data           0  s60videocapturesession.o(.ARM.extab)
    .extab._ZN22S60VideoCaptureSession25queryVideoEncoderSettingsEv 0x000272e4   Data           0  s60videocapturesession.o(.ARM.extab)
    .extab._ZN22S60VideoCaptureSession25queryAudioEncoderSettingsEv 0x000273dc   Data           0  s60videocapturesession.o(.ARM.extab)
    .extab._ZN22S60VideoCaptureSession20MvruoPrepareCompleteEi 0x00027564   Data           0  s60videocapturesession.o(.ARM.extab)
    .extab._ZN22S60VideoCaptureSession26doInitializeVideoRecorderLEv 0x0002757c   Data           0  s60videocapturesession.o(.ARM.extab)
    .extab._ZN22S60VideoCaptureSession24initializeVideoRecordingEv 0x000275bc   Data           0  s60videocapturesession.o(.ARM.extab)
    .extab._ZN22S60VideoCaptureSession19MvruoRecordCompleteEi 0x000275f4   Data           0  s60videocapturesession.o(.ARM.extab)
    .extab._ZN22S60VideoCaptureSession15MdvroFatalErrorEi 0x00027614   Data           0  s60videocapturesession.o(.ARM.extab)
    .extab._ZN22S60VideoCaptureSession8positionEv 0x00027624   Data           0  s60videocapturesession.o(.ARM.extab)
    .extab._ZN22S60VideoCaptureSession14pauseRecordingEv 0x0002765c   Data           0  s60videocapturesession.o(.ARM.extab)
    .extab._ZN22S60VideoCaptureSession13stopRecordingEb 0x000276cc   Data           0  s60videocapturesession.o(.ARM.extab)
    .extab._ZN22S60VideoCaptureSession8setMutedEb 0x000276dc   Data           0  s60videocapturesession.o(.ARM.extab)
    .extab._ZNK22S60VideoCaptureSession28maximumResolutionForMimeTypeERK7QString 0x000276f4   Data           0  s60videocapturesession.o(.ARM.extab)
    .extab._ZN22S60VideoCaptureSession25supportedVideoResolutionsERK21QVideoEncoderSettingsPb 0x00027704   Data           0  s60videocapturesession.o(.ARM.extab)
    .extab._ZN22S60VideoCaptureSession20setVideoEncodingModeEN15QtMultimediaKit12EncodingModeE 0x00027784   Data           0  s60videocapturesession.o(.ARM.extab)
    .extab._ZN22S60VideoCaptureSession20setVideoCaptureCodecERK7QString 0x00027794   Data           0  s60videocapturesession.o(.ARM.extab)
    .extab._ZN22S60VideoCaptureSession28videoCaptureCodecDescriptionERK7QString 0x000277ac   Data           0  s60videocapturesession.o(.ARM.extab)
    .extab._ZN22S60VideoCaptureSession20setAudioCaptureCodecERK7QString 0x000277ec   Data           0  s60videocapturesession.o(.ARM.extab)
    .extab._ZN22S60VideoCaptureSession27supportedAudioCaptureCodecsEv 0x0002780c   Data           0  s60videocapturesession.o(.ARM.extab)
    .extab._ZN22S60VideoCaptureSession20videoEncoderSettingsER21QVideoEncoderSettings 0x00027824   Data           0  s60videocapturesession.o(.ARM.extab)
    .extab._ZN22S60VideoCaptureSession20audioEncoderSettingsER21QAudioEncoderSettings 0x0002783c   Data           0  s60videocapturesession.o(.ARM.extab)
    .extab._ZN22S60VideoCaptureSession22setVideoCaptureQualityEN15QtMultimediaKit15EncodingQualityENS_22VideoQualityDefinitionE 0x00027854   Data           0  s60videocapturesession.o(.ARM.extab)
    .extab._ZN22S60VideoCaptureSession22setAudioCaptureQualityEN15QtMultimediaKit15EncodingQualityENS_22AudioQualityDefinitionE 0x00027894   Data           0  s60videocapturesession.o(.ARM.extab)
    .extab._ZN22S60VideoCaptureSession24supportedVideoContainersEv 0x000278bc   Data           0  s60videocapturesession.o(.ARM.extab)
    .extab._ZN22S60VideoCaptureSession17setVideoContainerERK7QString 0x000278fc   Data           0  s60videocapturesession.o(.ARM.extab)
    .extab._ZN22S60VideoCaptureSession25isSupportedVideoContainerERK7QString 0x00027914   Data           0  s60videocapturesession.o(.ARM.extab)
    .extab._ZN22S60VideoCaptureSession25videoContainerDescriptionERK7QString 0x00027924   Data           0  s60videocapturesession.o(.ARM.extab)
    .extab._ZN22S60VideoCaptureSession26doGetSupportedSampleRatesLERK21QAudioEncoderSettingsPb 0x00027964   Data           0  s60videocapturesession.o(.ARM.extab)
    .extab._ZN22S60VideoCaptureSession20supportedSampleRatesERK21QAudioEncoderSettingsPb 0x000279c4   Data           0  s60videocapturesession.o(.ARM.extab)
    .extab._ZN22S60VideoCaptureSession20setAudioEncodingModeEN15QtMultimediaKit12EncodingModeE 0x00027a1c   Data           0  s60videocapturesession.o(.ARM.extab)
    .extab._ZN22S60VideoCaptureSession16pixelAspectRatioEv 0x00027a2c   Data           0  s60videocapturesession.o(.ARM.extab)
    .extab._ZN22S60VideoCaptureSession19setPixelAspectRatioE5QSize 0x00027a64   Data           0  s60videocapturesession.o(.ARM.extab)
    .extab._ZN22S60VideoCaptureSession4gainEv 0x00027a9c   Data           0  s60videocapturesession.o(.ARM.extab)
    .extab._ZN22S60VideoCaptureSession7setGainEi 0x00027ad4   Data           0  s60videocapturesession.o(.ARM.extab)
    .extab._ZN22S60VideoCaptureSession21setMaxClipSizeInBytesEi 0x00027b0c   Data           0  s60videocapturesession.o(.ARM.extab)
    .extab._ZNK22S60VideoCaptureSession25maximumBitRateForMimeTypeERK7QString 0x00027b44   Data           0  s60videocapturesession.o(.ARM.extab)
    .extab._ZN22S60VideoCaptureSession22durationTimerTriggeredEv 0x00027b54   Data           0  s60videocapturesession.o(.ARM.extab)
    .extab._Z23qStringComparisonHelperRK7QStringPKc 0x00027b8c   Data           0  s60videocapturesession.o(.ARM.extab)
    .extab._ZN5QListI7QStringE9node_copyEPNS1_4NodeES3_S3_ 0x00027b9c   Data           0  s60videocapturesession.o(.ARM.extab)
    .extab._ZN5QListI7QStringE13detach_helperEi 0x00027bc0   Data           0  s60videocapturesession.o(.ARM.extab)
    .extab._ZN5QListIN22S60VideoCaptureSession29SupportedFrameRatePictureSizeEE9node_copyEPNS2_4NodeES4_S4_ 0x00027bdc   Data           0  s60videocapturesession.o(.ARM.extab)
    .extab._ZN5QListIN22S60VideoCaptureSession29SupportedFrameRatePictureSizeEE13detach_helperEi 0x00027c00   Data           0  s60videocapturesession.o(.ARM.extab)
    .extab._ZN22S60VideoCaptureSession26MaxResolutionRatesAndTypesC1ERKS0_ 0x00027c1c   Data           0  s60videocapturesession.o(.ARM.extab)
    .extab._ZN5QListIN22S60VideoCaptureSession26MaxResolutionRatesAndTypesEE9node_copyEPNS2_4NodeES4_S4_ 0x00027c2c   Data           0  s60videocapturesession.o(.ARM.extab)
    .extab._ZN5QListIN22S60VideoCaptureSession26MaxResolutionRatesAndTypesEE13detach_helperEi 0x00027c50   Data           0  s60videocapturesession.o(.ARM.extab)
    .extab._Z20qForeachContainerNewI5QListIN22S60VideoCaptureSession26MaxResolutionRatesAndTypesEEE17QForeachContainerIT_ERKS5_ 0x00027c6c   Data           0  s60videocapturesession.o(.ARM.extab)
    .extab._ZN22S60VideoCaptureSession15VideoFormatDataC1ERKS0_ 0x00027c7c   Data           0  s60videocapturesession.o(.ARM.extab)
    .extab._Z20qForeachContainerNewI5QHashIiN22S60VideoCaptureSession15VideoFormatDataEEE17QForeachContainerIT_ERKS5_ 0x00027c8c   Data           0  s60videocapturesession.o(.ARM.extab)
    .extab._Z20qForeachContainerNewI5QListIN22S60VideoCaptureSession29SupportedFrameRatePictureSizeEEE17QForeachContainerIT_ERKS5_ 0x00027c9c   Data           0  s60videocapturesession.o(.ARM.extab)
    .extab._ZN5QListIfE13detach_helperEi     0x00027cac   Data           0  s60videocapturesession.o(.ARM.extab)
    .extab._ZN5QListI5QSizeE9node_copyEPNS1_4NodeES3_S3_ 0x00027cc8   Data           0  s60videocapturesession.o(.ARM.extab)
    .extab._ZN5QListI5QSizeE13detach_helperEi 0x00027cec   Data           0  s60videocapturesession.o(.ARM.extab)
    .extab._ZN7QStringaSERK13QLatin1String   0x00027d08   Data           0  s60videocapturesession.o(.ARM.extab)
    .extab._ZN7QString6appendEPKc            0x00027d18   Data           0  s60videocapturesession.o(.ARM.extab)
    .extab._ZN5QListI7QStringE5clearEv       0x00027d28   Data           0  s60videocapturesession.o(.ARM.extab)
    .extab._ZN5QListI7QStringE14node_constructEPNS1_4NodeERKS0_ 0x00027d38   Data           0  s60videocapturesession.o(.ARM.extab)
    .extab._ZN5QListI7QStringE18detach_helper_growEii 0x00027d48   Data           0  s60videocapturesession.o(.ARM.extab)
    .extab._ZN5QListI7QStringE6appendERKS0_  0x00027d78   Data           0  s60videocapturesession.o(.ARM.extab)
    .extab._ZN5QListIfE18detach_helper_growEii 0x00027da8   Data           0  s60videocapturesession.o(.ARM.extab)
    .extab._ZN5QListIfE6insertEiRKf          0x00027dd8   Data           0  s60videocapturesession.o(.ARM.extab)
    .extab._ZN5QListIfE6appendERKf           0x00027df4   Data           0  s60videocapturesession.o(.ARM.extab)
    .extab._ZN5QListI5QSizeE18detach_helper_growEii 0x00027e10   Data           0  s60videocapturesession.o(.ARM.extab)
    .extab._ZN5QListI5QSizeE6appendERKS0_    0x00027e40   Data           0  s60videocapturesession.o(.ARM.extab)
    .extab._ZN5QHashIiS_IiN22S60VideoCaptureSession15VideoFormatDataEEE10createNodeEjRKiRKS2_PP9QHashNodeIiS2_E 0x00027e70   Data           0  s60videocapturesession.o(.ARM.extab)
    .extab._ZN5QHashIiS_IiN22S60VideoCaptureSession15VideoFormatDataEEEixERKi 0x00027e88   Data           0  s60videocapturesession.o(.ARM.extab)
    .extab._ZN5QHashIiN22S60VideoCaptureSession15VideoFormatDataEE10createNodeEjRKiRKS1_PP9QHashNodeIiS1_E 0x00027e98   Data           0  s60videocapturesession.o(.ARM.extab)
    .extab._ZN5QHashIiS_IiN22S60VideoCaptureSession15VideoFormatDataEEE5clearEv 0x00027eb0   Data           0  s60videocapturesession.o(.ARM.extab)
    .extab._ZN5QListIiE13detach_helperEi     0x00027ec0   Data           0  s60videocapturesession.o(.ARM.extab)
    .extab._ZN5QHashIiN22S60VideoCaptureSession15VideoFormatDataEE5clearEv 0x00027edc   Data           0  s60videocapturesession.o(.ARM.extab)
    .extab._ZN5QListIiE18detach_helper_growEii 0x00027eec   Data           0  s60videocapturesession.o(.ARM.extab)
    .extab._ZN5QListIiE6appendERKi           0x00027f1c   Data           0  s60videocapturesession.o(.ARM.extab)
    .extab._ZNK5QHashIiS_IiN22S60VideoCaptureSession15VideoFormatDataEEE4keysEv 0x00027f38   Data           0  s60videocapturesession.o(.ARM.extab)
    .extab._ZN5QListIN22S60VideoCaptureSession29SupportedFrameRatePictureSizeEE14node_constructEPNS2_4NodeERKS1_ 0x00027f48   Data           0  s60videocapturesession.o(.ARM.extab)
    .extab._ZN5QListIN22S60VideoCaptureSession29SupportedFrameRatePictureSizeEE18detach_helper_growEii 0x00027f58   Data           0  s60videocapturesession.o(.ARM.extab)
    .extab._ZN5QListIN22S60VideoCaptureSession29SupportedFrameRatePictureSizeEE6appendERKS1_ 0x00027f88   Data           0  s60videocapturesession.o(.ARM.extab)
    .extab._ZN5QListIN22S60VideoCaptureSession26MaxResolutionRatesAndTypesEE14node_constructEPNS2_4NodeERKS1_ 0x00027fb8   Data           0  s60videocapturesession.o(.ARM.extab)
    .extab._ZN5QListIN22S60VideoCaptureSession26MaxResolutionRatesAndTypesEE18detach_helper_growEii 0x00027fc8   Data           0  s60videocapturesession.o(.ARM.extab)
    .extab._ZN5QListIN22S60VideoCaptureSession26MaxResolutionRatesAndTypesEE6appendERKS1_ 0x00027ff8   Data           0  s60videocapturesession.o(.ARM.extab)
    .extab._ZN5QHashI7QString7TFourCCE5clearEv 0x00028028   Data           0  s60videocapturesession.o(.ARM.extab)
    .extab._ZN5QListIN22S60VideoCaptureSession26MaxResolutionRatesAndTypesEE5clearEv 0x00028038   Data           0  s60videocapturesession.o(.ARM.extab)
    .extab._ZN5QListIN22S60VideoCaptureSession29SupportedFrameRatePictureSizeEE5clearEv 0x00028048   Data           0  s60videocapturesession.o(.ARM.extab)
    .extab._ZN5QHashI7QString7TFourCCE10createNodeEjRKS0_RKS1_PP9QHashNodeIS0_S1_E 0x00028058   Data           0  s60videocapturesession.o(.ARM.extab)
    .extab._ZN5QHashIiN22S60VideoCaptureSession15VideoFormatDataEEixERKi 0x00028070   Data           0  s60videocapturesession.o(.ARM.extab)
    .extab._ZNK5QHashIiN22S60VideoCaptureSession15VideoFormatDataEE4keysEv 0x00028080   Data           0  s60videocapturesession.o(.ARM.extab)
    .extab._ZNK5QHashI7QString7TFourCCE3keyERKS1_ 0x00028090   Data           0  s60videocapturesession.o(.ARM.extab)
    .extab._ZNK5QHashI7QString7TFourCCE4keysEv 0x000280a0   Data           0  s60videocapturesession.o(.ARM.extab)
    .extab._ZN22S60VideoCaptureSession26MaxResolutionRatesAndTypesD1Ev 0x000280b0   Data           0  s60videocapturesession.o(.ARM.extab)
    .extab._ZN22S60VideoCaptureSession15VideoFormatDataD1Ev 0x000280c0   Data           0  s60videocapturesession.o(.ARM.extab)
    .extab._ZN5QHashIiN22S60VideoCaptureSession15VideoFormatDataEE13duplicateNodeEPN9QHashData4NodeEPv 0x000280d0   Data           0  s60videocapturesession.o(.ARM.extab)
    .extab._ZN5QHashI7QString7TFourCCE13duplicateNodeEPN9QHashData4NodeEPv 0x000280e0   Data           0  s60videocapturesession.o(.ARM.extab)
    .extab._ZN5QHashIiS_IiN22S60VideoCaptureSession15VideoFormatDataEEE13duplicateNodeEPN9QHashData4NodeEPv 0x000280f0   Data           0  s60videocapturesession.o(.ARM.extab)
    .extab._ZN22S60VideoCaptureSession15VideoFormatDataC1Ev 0x00028100   Data           0  s60videocapturesession.o(.ARM.extab)
    .extab._ZN22S60ImageCaptureDecoderC1EP22S60ImageCaptureSessionP3RFsPK6TDesC8PK7TDesC16 0x00028110   Data           0  s60imagecapturesession.o(.ARM.extab)
    .extab._ZN22S60ImageCaptureDecoderD1Ev   0x00028120   Data           0  s60imagecapturesession.o(.ARM.extab)
    .extab._ZN22S60ImageCaptureSession12resetSessionEb 0x00028130   Data           0  s60imagecapturesession.o(.ARM.extab)
    .extab._ZN22S60ImageCaptureDecoder6decodeEP10CFbsBitmap 0x00028168   Data           0  s60imagecapturesession.o(.ARM.extab)
    .extab._ZN22S60ImageCaptureSession18releaseImageBufferEv 0x00028178   Data           0  s60imagecapturesession.o(.ARM.extab)
    .extab._ZN22S60ImageCaptureSession18handleImageDecodedEi 0x00028188   Data           0  s60imagecapturesession.o(.ARM.extab)
    .extab._ZN22S60ImageCaptureDecoder8RunErrorEi 0x000281cc   Data           0  s60imagecapturesession.o(.ARM.extab)
    .extab._ZN22S60ImageCaptureEncoderC1EP22S60ImageCaptureSessionP3RFsPK7TDesC16i 0x000281dc   Data           0  s60imagecapturesession.o(.ARM.extab)
    .extab._ZN22S60ImageCaptureEncoderD1Ev   0x000281ec   Data           0  s60imagecapturesession.o(.ARM.extab)
    .extab._ZN22S60ImageCaptureEncoder6encodeEP10CFbsBitmap 0x000281fc   Data           0  s60imagecapturesession.o(.ARM.extab)
    .extab._ZN22S60ImageCaptureSession16convertImagePathEv 0x0002820c   Data           0  s60imagecapturesession.o(.ARM.extab)
    .extab._ZN22S60ImageCaptureSession18handleImageEncodedEi 0x00028220   Data           0  s60imagecapturesession.o(.ARM.extab)
    .extab._ZN22S60ImageCaptureEncoder8RunErrorEi 0x000282a8   Data           0  s60imagecapturesession.o(.ARM.extab)
    .extab._ZN22S60ImageCaptureSession20selectFormatForCodecERK7QString 0x000282b8   Data           0  s60imagecapturesession.o(.ARM.extab)
    .extab._ZN22S60ImageCaptureSession29supportedCaptureSizesForCodecERK7QString 0x000282c8   Data           0  s60imagecapturesession.o(.ARM.extab)
    .extab._ZN22S60ImageCaptureSession30initializeImageCaptureSettingsEv 0x000282d8   Data           0  s60imagecapturesession.o(.ARM.extab)
    .extab._ZN22S60ImageCaptureSessionC1EP7QObject 0x000282f8   Data           0  s60imagecapturesession.o(.ARM.extab)
    .extab._ZN22S60ImageCaptureSessionD1Ev   0x00028380   Data           0  s60imagecapturesession.o(.ARM.extab)
    .extab._ZN22S60ImageCaptureSession19prepareImageCaptureEv 0x000283b8   Data           0  s60imagecapturesession.o(.ARM.extab)
    .extab._ZN22S60ImageCaptureSession15processFileNameERK7QString 0x000283f0   Data           0  s60imagecapturesession.o(.ARM.extab)
    .extab._ZN22S60ImageCaptureSession7captureERK7QString 0x00028510   Data           0  s60imagecapturesession.o(.ARM.extab)
    .extab._ZN22S60ImageCaptureSession9formatMapEv 0x00028560   Data           0  s60imagecapturesession.o(.ARM.extab)
    .extab._ZN22S60ImageCaptureSession18minimumCaptureSizeEv 0x000286a0   Data           0  s60imagecapturesession.o(.ARM.extab)
    .extab._ZN22S60ImageCaptureSession18maximumCaptureSizeEv 0x000286d0   Data           0  s60imagecapturesession.o(.ARM.extab)
    .extab._ZN22S60ImageCaptureSession14setCaptureSizeERK5QSize 0x00028700   Data           0  s60imagecapturesession.o(.ARM.extab)
    .extab._ZN22S60ImageCaptureSession20setImageCaptureCodecERK7QString 0x00028730   Data           0  s60imagecapturesession.o(.ARM.extab)
    .extab._ZN22S60ImageCaptureSession19codecDescriptionMapEv 0x00028748   Data           0  s60imagecapturesession.o(.ARM.extab)
    .extab._ZN22S60ImageCaptureSession28imageCaptureCodecDescriptionERK7QString 0x00028778   Data           0  s60imagecapturesession.o(.ARM.extab)
    .extab._ZN22S60ImageCaptureSession10startFocusEv 0x00028788   Data           0  s60imagecapturesession.o(.ARM.extab)
    .extab._ZN22S60ImageCaptureSession11cancelFocusEv 0x000287c8   Data           0  s60imagecapturesession.o(.ARM.extab)
    .extab._ZN22S60ImageCaptureSession17digitalZoomFactorEv 0x00028808   Data           0  s60imagecapturesession.o(.ARM.extab)
    .extab._ZN22S60ImageCaptureSession16doSetZoomFactorLEff 0x00028838   Data           0  s60imagecapturesession.o(.ARM.extab)
    .extab._ZN22S60ImageCaptureSession17opticalZoomFactorEv 0x00028878   Data           0  s60imagecapturesession.o(.ARM.extab)
    .extab._ZN22S60ImageCaptureSession18doSetExposureModeLEN15QCameraExposure12ExposureModeE 0x000288a8   Data           0  s60imagecapturesession.o(.ARM.extab)
    .extab._ZN22S60ImageCaptureSession15setExposureModeEN15QCameraExposure12ExposureModeE 0x000288c0   Data           0  s60imagecapturesession.o(.ARM.extab)
    .extab._ZN22S60ImageCaptureSession9flashModeEv 0x000288f8   Data           0  s60imagecapturesession.o(.ARM.extab)
    .extab._ZN22S60ImageCaptureSession15doSetFlashModeLE6QFlagsIN15QCameraExposure9FlashModeEE 0x00028908   Data           0  s60imagecapturesession.o(.ARM.extab)
    .extab._ZN22S60ImageCaptureSession12setFlashModeE6QFlagsIN15QCameraExposure9FlashModeEE 0x00028920   Data           0  s60imagecapturesession.o(.ARM.extab)
    .extab._ZN22S60ImageCaptureSession11setContrastEi 0x00028958   Data           0  s60imagecapturesession.o(.ARM.extab)
    .extab._ZN22S60ImageCaptureSession13setBrightnessEi 0x00028998   Data           0  s60imagecapturesession.o(.ARM.extab)
    .extab._ZN22S60ImageCaptureSession22doSetWhiteBalanceModeLEN22QCameraImageProcessing16WhiteBalanceModeE 0x000289d8   Data           0  s60imagecapturesession.o(.ARM.extab)
    .extab._ZN22S60ImageCaptureSession19setWhiteBalanceModeEN22QCameraImageProcessing16WhiteBalanceModeE 0x000289f0   Data           0  s60imagecapturesession.o(.ARM.extab)
    .extab._ZN22S60ImageCaptureSession10saveImageLEP6TDesC8R4TBufILi256EE 0x00028a28   Data           0  s60imagecapturesession.o(.ARM.extab)
    .extab._ZN22S60ImageCaptureSession21MceoCapturedDataReadyEP6TDesC8 0x00028a50   Data           0  s60imagecapturesession.o(.ARM.extab)
    .extab._ZN22S60ImageCaptureSession23MceoCapturedBitmapReadyEP10CFbsBitmap 0x00028a88   Data           0  s60imagecapturesession.o(.ARM.extab)
    .extab._ZN22S60ImageCaptureSession15MceoHandleErrorE18TCameraEngineErrori 0x00028ad8   Data           0  s60imagecapturesession.o(.ARM.extab)
    .extab._ZN5QListIjE18detach_helper_growEii 0x00028ae8   Data           0  s60imagecapturesession.o(.ARM.extab)
    .extab._ZN5QListIjE6appendERKj           0x00028b18   Data           0  s60imagecapturesession.o(.ARM.extab)
    .extab._ZN5QListIjE13detach_helperEi     0x00028b34   Data           0  s60imagecapturesession.o(.ARM.extab)
    .extab._ZN5QListIjE5clearEv              0x00028b50   Data           0  s60imagecapturesession.o(.ARM.extab)
    .extab._ZN4QMapI7QStringiE11node_createEP8QMapDataPPNS2_4NodeERKS0_RKi 0x00028b60   Data           0  s60imagecapturesession.o(.ARM.extab)
    .extab._ZN4QMapI7QStringiE13detach_helperEv 0x00028b84   Data           0  s60imagecapturesession.o(.ARM.extab)
    .extab._ZNK4QMapI7QStringiE3keyERKi      0x00028ba0   Data           0  s60imagecapturesession.o(.ARM.extab)
    .extab._ZN4QMapI7QStringS0_E11node_createEP8QMapDataPPNS2_4NodeERKS0_S8_ 0x00028bb0   Data           0  s60imagecapturesession.o(.ARM.extab)
    .extab._ZN4QMapI7QStringS0_E13detach_helperEv 0x00028bfc   Data           0  s60imagecapturesession.o(.ARM.extab)
    .extab._ZN5CBasenwEj                     0x00028c18   Data           0  s60imagecapturesession.o(.ARM.extab)
    .extab._ZN24S60MediaContainerControlC1EP7QObject 0x00028c28   Data           0  s60mediacontainercontrol.o(.ARM.extab)
    .extab._ZN24S60MediaContainerControlC1EP22S60VideoCaptureSessionP7QObject 0x00028c40   Data           0  s60mediacontainercontrol.o(.ARM.extab)
    .extab._ZN24S60MediaContainerControlD1Ev 0x00028ca0   Data           0  s60mediacontainercontrol.o(.ARM.extab)
    .extab._ZNK22S60VideoEncoderControl13videoSettingsEv 0x00028cc8   Data           0  s60videoencodercontrol.o(.ARM.extab)
    .extab._ZN22S60VideoEncoderControl16setVideoSettingsERK21QVideoEncoderSettings 0x00028cd8   Data           0  s60videoencodercontrol.o(.ARM.extab)
    .extab._ZNK22S60VideoEncoderControl24supportedEncodingOptionsERK7QString 0x00028d30   Data           0  s60videoencodercontrol.o(.ARM.extab)
    .extab._ZNK22S60VideoEncoderControl14encodingOptionERK7QStringS2_ 0x00028d70   Data           0  s60videoencodercontrol.o(.ARM.extab)
    .extab._ZN22S60VideoEncoderControl17setEncodingOptionERK7QStringS2_RK8QVariant 0x00028db0   Data           0  s60videoencodercontrol.o(.ARM.extab)
    .extab._Z16qVariantSetValueI5QSizeEvR8QVariantRKT_ 0x00028dd8   Data           0  s60videoencodercontrol.o(.ARM.extab)
    .extab._Z16qVariantSetValueIiEvR8QVariantRKT_ 0x00028df8   Data           0  s60videoencodercontrol.o(.ARM.extab)
    .extab._ZNK22S60AudioEncoderControl16codecDescriptionERK7QString 0x00028e18   Data           0  s60audioencodercontrol.o(.ARM.extab)
    .extab._ZNK22S60AudioEncoderControl13audioSettingsEv 0x00028e30   Data           0  s60audioencodercontrol.o(.ARM.extab)
    .extab._ZN22S60AudioEncoderControl16setAudioSettingsERK21QAudioEncoderSettings 0x00028e40   Data           0  s60audioencodercontrol.o(.ARM.extab)
    .extab._ZN22S60AudioEncoderControl17setEncodingOptionERK7QStringS2_RK8QVariant 0x00028e68   Data           0  s60audioencodercontrol.o(.ARM.extab)
    .extab._ZN16S60CameraServiceC1EP7QObject 0x00028e78   Data           0  s60cameraservice.o(.ARM.extab)
    .extab._ZN16S60CameraServiceD1Ev         0x00028fa0   Data           0  s60cameraservice.o(.ARM.extab)
    .extab._ZN31S60CameraImageProcessingControlC1EP22S60ImageCaptureSessionP7QObject 0x00028fb0   Data           0  s60cameraimageprocessingcontrol.o(.ARM.extab)
    .extab._ZN31S60CameraImageProcessingControl19setWhiteBalanceModeEN22QCameraImageProcessing16WhiteBalanceModeE 0x00028fc0   Data           0  s60cameraimageprocessingcontrol.o(.ARM.extab)
    .extab._ZN31S60CameraImageProcessingControl21setManualWhiteBalanceEi 0x00028fd0   Data           0  s60cameraimageprocessingcontrol.o(.ARM.extab)
    .extab._ZN31S60CameraImageProcessingControl17setDenoisingLevelEi 0x00028fe0   Data           0  s60cameraimageprocessingcontrol.o(.ARM.extab)
    .extab._ZN31S60CameraImageProcessingControl18setSharpeningLevelEi 0x00028ff0   Data           0  s60cameraimageprocessingcontrol.o(.ARM.extab)
    .extab._ZN31S60CameraImageProcessingControl13setSaturationEi 0x00029000   Data           0  s60cameraimageprocessingcontrol.o(.ARM.extab)
    .extab._ZN28S60CameraImageCaptureControlC1EP16S60CameraServiceP22S60ImageCaptureSessionP7QObject 0x00029010   Data           0  s60cameraimagecapturecontrol.o(.ARM.extab)
    .extab._ZN28S60CameraImageCaptureControl12setDriveModeEN19QCameraImageCapture9DriveModeE 0x00029030   Data           0  s60cameraimagecapturecontrol.o(.ARM.extab)
    .extab._ZN28S60CameraImageCaptureControl7captureERK7QString 0x00029040   Data           0  s60cameraimagecapturecontrol.o(.ARM.extab)
    .extab._ZN21S60VideoDeviceControlC1EP16S60CameraControlP7QObject 0x00029050   Data           0  s60videodevicecontrol.o(.ARM.extab)
    .extab._ZN21S60VideoDeviceControl17setSelectedDeviceEi 0x00029060   Data           0  s60videodevicecontrol.o(.ARM.extab)
    .extab._ZNK22S60ImageEncoderControl20supportedResolutionsERK21QImageEncoderSettingsPb 0x00029070   Data           0  s60imageencodercontrol.o(.ARM.extab)
    .extab._ZNK22S60ImageEncoderControl13imageSettingsEv 0x00029080   Data           0  s60imageencodercontrol.o(.ARM.extab)
    .extab._ZN22S60ImageEncoderControl16setImageSettingsERK21QImageEncoderSettings 0x000290a0   Data           0  s60imageencodercontrol.o(.ARM.extab)
    .extab._ZN17S60CameraSettings10ConstructLEv 0x000290c0   Data           0  s60camerasettings.o(.ARM.extab)
    .extab._ZN17S60CameraSettingsC1EP7QObjectP13CCameraEngine 0x000290f0   Data           0  s60camerasettings.o(.ARM.extab)
    .extab._ZN17S60CameraSettings3NewERiP7QObjectP13CCameraEngine 0x00029100   Data           0  s60camerasettings.o(.ARM.extab)
    .extab._ZN17S60CameraSettingsD1Ev        0x00029138   Data           0  s60camerasettings.o(.ARM.extab)
    .extab._ZN17S60CameraSettings9focusModeEv 0x00029150   Data           0  s60camerasettings.o(.ARM.extab)
    .extab._ZN17S60CameraSettings12setFocusModeEN12QCameraFocus9FocusModeE 0x00029160   Data           0  s60camerasettings.o(.ARM.extab)
    .extab._ZN17S60CameraSettings19supportedFocusModesEv 0x00029178   Data           0  s60camerasettings.o(.ARM.extab)
    .extab._ZN17S60CameraSettings13startFocusingEv 0x00029188   Data           0  s60camerasettings.o(.ARM.extab)
    .extab._ZN17S60CameraSettings14cancelFocusingEv 0x00029198   Data           0  s60camerasettings.o(.ARM.extab)
    .extab._ZNK17S60CameraSettings27supportedDigitalZoomFactorsEv 0x000291a8   Data           0  s60camerasettings.o(.ARM.extab)
    .extab._ZN17S60CameraSettings12isFlashReadyEv 0x000291d0   Data           0  s60camerasettings.o(.ARM.extab)
    .extab._ZN17S60CameraSettings12lockExposureEb 0x000291e8   Data           0  s60camerasettings.o(.ARM.extab)
    .extab._ZN17S60CameraSettings16isExposureLockedEv 0x000291f8   Data           0  s60camerasettings.o(.ARM.extab)
    .extab._ZN17S60CameraSettings12meteringModeEv 0x00029208   Data           0  s60camerasettings.o(.ARM.extab)
    .extab._ZN17S60CameraSettings15setMeteringModeEN15QCameraExposure12MeteringModeE 0x00029218   Data           0  s60camerasettings.o(.ARM.extab)
    .extab._ZN17S60CameraSettings23isMeteringModeSupportedEN15QCameraExposure12MeteringModeE 0x00029228   Data           0  s60camerasettings.o(.ARM.extab)
    .extab._ZN17S60CameraSettings14isoSensitivityEv 0x00029238   Data           0  s60camerasettings.o(.ARM.extab)
    .extab._ZN17S60CameraSettings23setManualIsoSensitivityEi 0x00029270   Data           0  s60camerasettings.o(.ARM.extab)
    .extab._ZN17S60CameraSettings21setAutoIsoSensitivityEv 0x000292b0   Data           0  s60camerasettings.o(.ARM.extab)
    .extab._ZN17S60CameraSettings25supportedIsoSensitivitiesEv 0x000292f0   Data           0  s60camerasettings.o(.ARM.extab)
    .extab._ZN17S60CameraSettings8apertureEv 0x00029358   Data           0  s60camerasettings.o(.ARM.extab)
    .extab._ZN17S60CameraSettings17setManualApertureEf 0x00029368   Data           0  s60camerasettings.o(.ARM.extab)
    .extab._ZN17S60CameraSettings18supportedAperturesEv 0x00029378   Data           0  s60camerasettings.o(.ARM.extab)
    .extab._ZN17S60CameraSettings12shutterSpeedEv 0x000293e0   Data           0  s60camerasettings.o(.ARM.extab)
    .extab._ZN17S60CameraSettings21setManualShutterSpeedEf 0x000293f0   Data           0  s60camerasettings.o(.ARM.extab)
    .extab._ZN17S60CameraSettings22supportedShutterSpeedsEv 0x00029400   Data           0  s60camerasettings.o(.ARM.extab)
    .extab._ZN17S60CameraSettings20exposureCompensationEv 0x00029468   Data           0  s60camerasettings.o(.ARM.extab)
    .extab._ZN17S60CameraSettings23setExposureCompensationEf 0x00029478   Data           0  s60camerasettings.o(.ARM.extab)
    .extab._ZN17S60CameraSettings35supportedExposureCompensationValuesEv 0x00029488   Data           0  s60camerasettings.o(.ARM.extab)
    .extab._ZNK17S60CameraSettings21isSharpeningSupportedEv 0x000294f0   Data           0  s60camerasettings.o(.ARM.extab)
    .extab._ZN17S60CameraSettings18setSharpeningLevelEi 0x00029520   Data           0  s60camerasettings.o(.ARM.extab)
    .extab._ZN17S60CameraSettings10saturationEv 0x00029530   Data           0  s60camerasettings.o(.ARM.extab)
    .extab._ZN17S60CameraSettings13setSaturationEi 0x00029568   Data           0  s60camerasettings.o(.ARM.extab)
    .extab._ZN17S60CameraSettings19HandleAdvancedEventERK10TECAMEvent 0x000295b0   Data           0  s60camerasettings.o(.ARM.extab)
    .extab._ZN13CCameraEngine10ConstructLEv  0x00029630   Data           0  s60cameraengine.o(.ARM.extab)
    .extab._ZN13CCameraEngineC1EiiP21MCameraEngineObserver 0x00029660   Data           0  s60cameraengine.o(.ARM.extab)
    .extab._ZN13CCameraEngineD1Ev            0x00029670   Data           0  s60cameraengine.o(.ARM.extab)
    .extab._ZN13CCameraEngineC1Ev            0x00029680   Data           0  s60cameraengine.o(.ARM.extab)
    .extab._ZN13CCameraEngine15ViewFinderReadyER13MCameraBufferi 0x00029690   Data           0  s60cameraengine.o(.ARM.extab)
    .extab._ZN13CCameraEngine16ImageBufferReadyER13MCameraBufferi 0x000296c0   Data           0  s60cameraengine.o(.ARM.extab)
    .extab._ZN25S60CameraViewfinderEngineC1EP16S60CameraControlP13CCameraEngineP7QObject 0x00029768   Data           0  s60cameraviewfinderengine.o(.ARM.extab)
    .extab._ZN25S60CameraViewfinderEngineD1Ev 0x00029790   Data           0  s60cameraviewfinderengine.o(.ARM.extab)
    .extab._ZN25S60CameraViewfinderEngine15startViewfinderEb 0x000297a0   Data           0  s60cameraviewfinderengine.o(.ARM.extab)
    .extab._ZN25S60CameraViewfinderEngine14stopViewfinderEb 0x00029830   Data           0  s60cameraviewfinderengine.o(.ARM.extab)
    .extab._ZN25S60CameraViewfinderEngine14releaseControlENS_20ViewfinderOutputTypeE 0x00029840   Data           0  s60cameraviewfinderengine.o(.ARM.extab)
    .extab._ZN25S60CameraViewfinderEngine21setVideoWidgetControlEP7QObject 0x00029850   Data           0  s60cameraviewfinderengine.o(.ARM.extab)
    .extab._ZN25S60CameraViewfinderEngine23setVideoRendererControlEP7QObject 0x00029860   Data           0  s60cameraviewfinderengine.o(.ARM.extab)
    .extab._ZN25S60CameraViewfinderEngine21setVideoWindowControlEP7QObject 0x00029880   Data           0  s60cameraviewfinderengine.o(.ARM.extab)
    .extab._ZN25S60CameraViewfinderEngine22resetViewfinderDisplayEv 0x00029890   Data           0  s60cameraviewfinderengine.o(.ARM.extab)
    .extab._ZN25S60CameraViewfinderEngine21viewFinderBitmapReadyERK10CFbsBitmap 0x000298b8   Data           0  s60cameraviewfinderengine.o(.ARM.extab)
    .extab._ZN25S60CameraViewfinderEngine22handleVisibilityChangeEb 0x00029928   Data           0  s60cameraviewfinderengine.o(.ARM.extab)
    .extab._ZN23S60VideoRendererControlD1Ev  0x00029938   Data           0  s60videorenderercontrol.o(.ARM.extab)
    .extab.qt_plugin_instance                0x00029948   Data           0  s60cameraserviceplugin.o(.ARM.extab)
    .extab._ZNK22S60CameraServicePlugin4keysEv 0x00029960   Data           0  s60cameraserviceplugin.o(.ARM.extab)
    .extab._ZN22S60CameraServicePlugin6createERK7QString 0x00029980   Data           0  s60cameraserviceplugin.o(.ARM.extab)
    .extab._ZNK22S60CameraServicePlugin13updateDevicesEv 0x00029990   Data           0  s60cameraserviceplugin.o(.ARM.extab)
    .extab._ZN5QListI10QByteArrayE9node_copyEPNS1_4NodeES3_S3_ 0x000299b8   Data           0  s60cameraserviceplugin.o(.ARM.extab)
    .extab._ZN5QListI10QByteArrayE13detach_helperEi 0x000299dc   Data           0  s60cameraserviceplugin.o(.ARM.extab)
    .extab._ZN5QListI10QByteArrayE14node_constructEPNS1_4NodeERKS0_ 0x000299f8   Data           0  s60cameraserviceplugin.o(.ARM.extab)
    .extab._ZN5QListI10QByteArrayE18detach_helper_growEii 0x00029a08   Data           0  s60cameraserviceplugin.o(.ARM.extab)
    .extab._ZN5QListI10QByteArrayE6appendERKS0_ 0x00029a38   Data           0  s60cameraserviceplugin.o(.ARM.extab)
    .extab._ZN5QListI10QByteArrayE5clearEv   0x00029a68   Data           0  s60cameraserviceplugin.o(.ARM.extab)
    .extab._ZN22S60CameraServicePluginC1Ev   0x00029a78   Data           0  s60cameraserviceplugin.o(.ARM.extab)
    .extab._ZN15S60VideoDisplayC2EP7QObject  0x00029a90   Data           0  s60videodisplay.o(.ARM.extab)
    .extab._ZN30QGraphicsColorizeEffectPrivateD1Ev 0x00029aa0   Data           0  s60videooutpututils.o(.ARM.extab)
    .extab._ZN26QGraphicsBlurEffectPrivateD1Ev 0x00029ab0   Data           0  s60videooutpututils.o(.ARM.extab)
    .extab._ZN32QGraphicsDropShadowEffectPrivateD1Ev 0x00029ac0   Data           0  s60videooutpututils.o(.ARM.extab)
    .extab._ZN14S60VideoWidgetC1EP7QWidget   0x00029ad0   Data           0  s60videowidget.o(.ARM.extab)
    .extab._ZN14S60VideoWidget10paintEventEP11QPaintEvent 0x00029b00   Data           0  s60videowidget.o(.ARM.extab)
    .extab._Z8qWarningv                      0x00029b28   Data           0  s60videowidget.o(.ARM.extab)
    .extab._ZN6QDebugD1Ev                    0x00029b40   Data           0  s60videowidget.o(.ARM.extab)
    .extab._ZN21S60VideoWidgetControlC1EP7QObject 0x00029b64   Data           0  s60videowidgetcontrol.o(.ARM.extab)
    .extab._ZN21S60VideoWidgetDisplayC1EP7QObject 0x00029b84   Data           0  s60videowidgetdisplay.o(.ARM.extab)
    .extab._ZN21S60VideoWidgetDisplayD1Ev    0x00029bac   Data           0  s60videowidgetdisplay.o(.ARM.extab)
    .extab._ZN21S60VideoWidgetDisplay11eventFilterEP7QObjectP6QEvent 0x00029bcc   Data           0  s60videowidgetdisplay.o(.ARM.extab)
    .extab._ZN21S60VideoWidgetDisplay8setFrameERK10CFbsBitmap 0x00029bdc   Data           0  s60videowidgetdisplay.o(.ARM.extab)
    .extab._ZN21S60VideoWindowControlC1EP7QObject 0x00029bec   Data           0  s60videowindowcontrol.o(.ARM.extab)
    .extab._ZN21S60VideoWindowDisplayC1EP7QObject 0x00029c0c   Data           0  s60videowindowdisplay.o(.ARM.extab)
    .constdata$1                             0x00029c2c   Data           0  moc_s60videodisplay.o(.constdata)
    qt_meta_data_S60VideoDisplay             0x00029c2c   Data         340  moc_s60videodisplay.o(.constdata)
    .constdata                               0x00029c2c   Section      784  moc_s60videodisplay.o(.constdata)
    qt_meta_stringdata_S60VideoDisplay       0x00029d80   Data         427  moc_s60videodisplay.o(.constdata)
    .constdata$1                             0x00029f3c   Data           0  moc_s60videowidget.o(.constdata)
    qt_meta_data_S60VideoWidget              0x00029f3c   Data         240  moc_s60videowidget.o(.constdata)
    .constdata                               0x00029f3c   Section      524  moc_s60videowidget.o(.constdata)
    qt_meta_stringdata_S60VideoWidget        0x0002a02c   Data         267  moc_s60videowidget.o(.constdata)
    .constdata$1                             0x0002a148   Data           0  moc_s60videowidgetcontrol.o(.constdata)
    qt_meta_data_S60VideoWidgetControl       0x0002a148   Data         140  moc_s60videowidgetcontrol.o(.constdata)
    .constdata                               0x0002a148   Section      284  moc_s60videowidgetcontrol.o(.constdata)
    qt_meta_stringdata_S60VideoWidgetControl 0x0002a1d4   Data         126  moc_s60videowidgetcontrol.o(.constdata)
    .constdata$1                             0x0002a264   Data           0  moc_s60videowidgetdisplay.o(.constdata)
    qt_meta_data_S60VideoWidgetDisplay       0x0002a264   Data          60  moc_s60videowidgetdisplay.o(.constdata)
    .constdata                               0x0002a264   Section      100  moc_s60videowidgetdisplay.o(.constdata)
    qt_meta_stringdata_S60VideoWidgetDisplay 0x0002a2a0   Data          23  moc_s60videowidgetdisplay.o(.constdata)
    .constdata$1                             0x0002a2c8   Data           0  moc_s60videowindowcontrol.o(.constdata)
    qt_meta_data_S60VideoWindowControl       0x0002a2c8   Data          92  moc_s60videowindowcontrol.o(.constdata)
    .constdata                               0x0002a2c8   Section      164  moc_s60videowindowcontrol.o(.constdata)
    qt_meta_stringdata_S60VideoWindowControl 0x0002a324   Data          56  moc_s60videowindowcontrol.o(.constdata)
    .constdata$1                             0x0002a36c   Data           0  moc_s60cameralockscontrol.o(.constdata)
    qt_meta_data_S60CameraLocksControl       0x0002a36c   Data         120  moc_s60cameralockscontrol.o(.constdata)
    .constdata                               0x0002a36c   Section      332  moc_s60cameralockscontrol.o(.constdata)
    qt_meta_stringdata_S60CameraLocksControl 0x0002a3e4   Data         196  moc_s60cameralockscontrol.o(.constdata)
    .constdata$1                             0x0002a4b8   Data           0  moc_s60camerafocuscontrol.o(.constdata)
    qt_meta_data_S60CameraFocusControl       0x0002a4b8   Data          80  moc_s60camerafocuscontrol.o(.constdata)
    .constdata                               0x0002a4b8   Section      144  moc_s60camerafocuscontrol.o(.constdata)
    qt_meta_stringdata_S60CameraFocusControl 0x0002a508   Data          47  moc_s60camerafocuscontrol.o(.constdata)
    .constdata$1                             0x0002a548   Data           0  moc_s60cameraexposurecontrol.o(.constdata)
    qt_meta_data_S60CameraExposureControl    0x0002a548   Data         180  moc_s60cameraexposurecontrol.o(.constdata)
    .constdata                               0x0002a548   Section      348  moc_s60cameraexposurecontrol.o(.constdata)
    qt_meta_stringdata_S60CameraExposureControl 0x0002a5fc   Data         149  moc_s60cameraexposurecontrol.o(.constdata)
    .constdata$1                             0x0002a6a4   Data           0  moc_s60cameraflashcontrol.o(.constdata)
    qt_meta_data_S60CameraFlashControl       0x0002a6a4   Data          80  moc_s60cameraflashcontrol.o(.constdata)
    .constdata                               0x0002a6a4   Section      144  moc_s60cameraflashcontrol.o(.constdata)
    qt_meta_stringdata_S60CameraFlashControl 0x0002a6f4   Data          47  moc_s60cameraflashcontrol.o(.constdata)
    .constdata$1                             0x0002a734   Data           0  moc_s60cameracontrol.o(.constdata)
    KDevVideoPanicCategory                   0x0002a734   Data          24  moc_s60cameracontrol.o(.constdata)
    .constdata                               0x0002a734   Section      436  moc_s60cameracontrol.o(.constdata)
    qt_meta_data_S60CameraControl            0x0002a74c   Data         180  moc_s60cameracontrol.o(.constdata)
    qt_meta_stringdata_S60CameraControl      0x0002a800   Data         215  moc_s60cameracontrol.o(.constdata)
    .constdata$1                             0x0002a8e8   Data           0  moc_s60mediarecordercontrol.o(.constdata)
    KDevVideoPanicCategory                   0x0002a8e8   Data          24  moc_s60mediarecordercontrol.o(.constdata)
    .constdata                               0x0002a8e8   Section      328  moc_s60mediarecordercontrol.o(.constdata)
    qt_meta_data_S60MediaRecorderControl     0x0002a900   Data         160  moc_s60mediarecordercontrol.o(.constdata)
    qt_meta_stringdata_S60MediaRecorderControl 0x0002a9a0   Data         127  moc_s60mediarecordercontrol.o(.constdata)
    .constdata$1                             0x0002aa30   Data           0  moc_s60videocapturesession.o(.constdata)
    KDevVideoPanicCategory                   0x0002aa30   Data          24  moc_s60videocapturesession.o(.constdata)
    .constdata                               0x0002aa30   Section      688  moc_s60videocapturesession.o(.constdata)
    qt_meta_data_S60VideoCaptureSession      0x0002aa48   Data         288  moc_s60videocapturesession.o(.constdata)
    qt_meta_stringdata_S60VideoCaptureSession 0x0002ab68   Data         359  moc_s60videocapturesession.o(.constdata)
    .constdata$1                             0x0002ace0   Data           0  moc_s60imagecapturesession.o(.constdata)
    qt_meta_data_S60ImageCaptureSession      0x0002ace0   Data         280  moc_s60imagecapturesession.o(.constdata)
    .constdata                               0x0002ace0   Section      664  moc_s60imagecapturesession.o(.constdata)
    qt_meta_stringdata_S60ImageCaptureSession 0x0002adf8   Data         365  moc_s60imagecapturesession.o(.constdata)
    .constdata$1                             0x0002af78   Data           0  moc_s60mediacontainercontrol.o(.constdata)
    qt_meta_data_S60MediaContainerControl    0x0002af78   Data          60  moc_s60mediacontainercontrol.o(.constdata)
    .constdata                               0x0002af78   Section      104  moc_s60mediacontainercontrol.o(.constdata)
    qt_meta_stringdata_S60MediaContainerControl 0x0002afb4   Data          26  moc_s60mediacontainercontrol.o(.constdata)
    .constdata$1                             0x0002afe0   Data           0  moc_s60videoencodercontrol.o(.constdata)
    qt_meta_data_S60VideoEncoderControl      0x0002afe0   Data          60  moc_s60videoencodercontrol.o(.constdata)
    .constdata                               0x0002afe0   Section      100  moc_s60videoencodercontrol.o(.constdata)
    qt_meta_stringdata_S60VideoEncoderControl 0x0002b01c   Data          24  moc_s60videoencodercontrol.o(.constdata)
    .constdata$1                             0x0002b044   Data           0  moc_s60audioencodercontrol.o(.constdata)
    qt_meta_data_S60AudioEncoderControl      0x0002b044   Data          60  moc_s60audioencodercontrol.o(.constdata)
    .constdata                               0x0002b044   Section      100  moc_s60audioencodercontrol.o(.constdata)
    qt_meta_stringdata_S60AudioEncoderControl 0x0002b080   Data          24  moc_s60audioencodercontrol.o(.constdata)
    .constdata$1                             0x0002b0a8   Data           0  moc_s60cameraservice.o(.constdata)
    qt_meta_data_S60CameraService            0x0002b0a8   Data          60  moc_s60cameraservice.o(.constdata)
    .constdata                               0x0002b0a8   Section       96  moc_s60cameraservice.o(.constdata)
    qt_meta_stringdata_S60CameraService      0x0002b0e4   Data          18  moc_s60cameraservice.o(.constdata)
    .constdata$1                             0x0002b108   Data           0  moc_s60cameraimageprocessingcontrol.o(.constdata)
    qt_meta_data_S60CameraImageProcessingControl 0x0002b108   Data          80  moc_s60cameraimageprocessingcontrol.o(.constdata)
    .constdata                               0x0002b108   Section      156  moc_s60cameraimageprocessingcontrol.o(.constdata)
    qt_meta_stringdata_S60CameraImageProcessingControl 0x0002b158   Data          57  moc_s60cameraimageprocessingcontrol.o(.constdata)
    .constdata$1                             0x0002b1a4   Data           0  moc_s60cameraimagecapturecontrol.o(.constdata)
    qt_meta_data_S60CameraImageCaptureControl 0x0002b1a4   Data          60  moc_s60cameraimagecapturecontrol.o(.constdata)
    .constdata                               0x0002b1a4   Section      108  moc_s60cameraimagecapturecontrol.o(.constdata)
    qt_meta_stringdata_S60CameraImageCaptureControl 0x0002b1e0   Data          30  moc_s60cameraimagecapturecontrol.o(.constdata)
    .constdata$1                             0x0002b210   Data           0  moc_s60videodevicecontrol.o(.constdata)
    qt_meta_data_S60VideoDeviceControl       0x0002b210   Data          80  moc_s60videodevicecontrol.o(.constdata)
    .constdata                               0x0002b210   Section      152  moc_s60videodevicecontrol.o(.constdata)
    qt_meta_stringdata_S60VideoDeviceControl 0x0002b260   Data          53  moc_s60videodevicecontrol.o(.constdata)
    .constdata$1                             0x0002b2a8   Data           0  moc_s60imageencodercontrol.o(.constdata)
    qt_meta_data_S60ImageEncoderControl      0x0002b2a8   Data          60  moc_s60imageencodercontrol.o(.constdata)
    .constdata                               0x0002b2a8   Section      100  moc_s60imageencodercontrol.o(.constdata)
    qt_meta_stringdata_S60ImageEncoderControl 0x0002b2e4   Data          24  moc_s60imageencodercontrol.o(.constdata)
    .constdata$1                             0x0002b30c   Data           0  moc_s60camerasettings.o(.constdata)
    qt_meta_data_S60CameraSettings           0x0002b30c   Data         240  moc_s60camerasettings.o(.constdata)
    .constdata                               0x0002b30c   Section      556  moc_s60camerasettings.o(.constdata)
    qt_meta_stringdata_S60CameraSettings     0x0002b3fc   Data         298  moc_s60camerasettings.o(.constdata)
    .constdata$1                             0x0002b538   Data           0  moc_s60cameraviewfinderengine.o(.constdata)
    qt_meta_data_S60CameraViewfinderEngine   0x0002b538   Data         260  moc_s60cameraviewfinderengine.o(.constdata)
    .constdata                               0x0002b538   Section      648  moc_s60cameraviewfinderengine.o(.constdata)
    qt_meta_stringdata_S60CameraViewfinderEngine 0x0002b63c   Data         372  moc_s60cameraviewfinderengine.o(.constdata)
    .constdata$1                             0x0002b7c0   Data           0  moc_s60videorenderercontrol.o(.constdata)
    qt_meta_data_S60VideoRendererControl     0x0002b7c0   Data          80  moc_s60videorenderercontrol.o(.constdata)
    .constdata                               0x0002b7c0   Section      148  moc_s60videorenderercontrol.o(.constdata)
    qt_meta_stringdata_S60VideoRendererControl 0x0002b810   Data          49  moc_s60videorenderercontrol.o(.constdata)
    .constdata$1                             0x0002b854   Data           0  moc_s60cameraserviceplugin.o(.constdata)
    qt_meta_data_S60CameraServicePlugin      0x0002b854   Data          60  moc_s60cameraserviceplugin.o(.constdata)
    .constdata                               0x0002b854   Section      100  moc_s60cameraserviceplugin.o(.constdata)
    qt_meta_stringdata_S60CameraServicePlugin 0x0002b890   Data          24  moc_s60cameraserviceplugin.o(.constdata)
    .constdata$1                             0x0002b8b8   Data           0  s60cameralockscontrol.o(.constdata)
    .constdata                               0x0002b8b8   Section      280  s60cameralockscontrol.o(.constdata)
    .constdata$1                             0x0002b9d0   Data           0  s60cameracontrol.o(.constdata)
    KDevVideoPanicCategory                   0x0002b9d0   Data          24  s60cameracontrol.o(.constdata)
    .constdata                               0x0002b9d0   Section       24  s60cameracontrol.o(.constdata)
    .constdata$1                             0x0002b9e8   Data           0  s60mediarecordercontrol.o(.constdata)
    KDevVideoPanicCategory                   0x0002b9e8   Data          24  s60mediarecordercontrol.o(.constdata)
    .constdata                               0x0002b9e8   Section       24  s60mediarecordercontrol.o(.constdata)
    .constdata$1                             0x0002ba00   Data           0  s60videocapturesession.o(.constdata)
    KNullDesC                                0x0002ba00   Data           8  s60videocapturesession.o(.constdata)
    .constdata                               0x0002ba00   Section      400  s60videocapturesession.o(.constdata)
    KNullDesC8                               0x0002ba08   Data           8  s60videocapturesession.o(.constdata)
    KUidMediaTypeVideo                       0x0002ba10   Data           4  s60videocapturesession.o(.constdata)
    KDevVideoPanicCategory                   0x0002ba14   Data          24  s60videocapturesession.o(.constdata)
    KDummyVideoFile                          0x0002ba2c   Data          32  s60videocapturesession.o(.constdata)
    .constdata$1                             0x0002bb90   Data           0  s60imagecapturesession.o(.constdata)
    KNullDesC                                0x0002bb90   Data           8  s60imagecapturesession.o(.constdata)
    .constdata                               0x0002bb90   Section       12  s60imagecapturesession.o(.constdata)
    KImageTypeJPGUid                         0x0002bb98   Data           4  s60imagecapturesession.o(.constdata)
    .constdata$1                             0x0002bb9c   Data           0  s60mediacontainercontrol.o(.constdata)
    KDevVideoPanicCategory                   0x0002bb9c   Data          24  s60mediacontainercontrol.o(.constdata)
    .constdata                               0x0002bb9c   Section       24  s60mediacontainercontrol.o(.constdata)
    .constdata$1                             0x0002bbb4   Data           0  s60videoencodercontrol.o(.constdata)
    KDevVideoPanicCategory                   0x0002bbb4   Data          24  s60videoencodercontrol.o(.constdata)
    .constdata                               0x0002bbb4   Section       24  s60videoencodercontrol.o(.constdata)
    .constdata$1                             0x0002bbcc   Data           0  s60audioencodercontrol.o(.constdata)
    KDevVideoPanicCategory                   0x0002bbcc   Data          24  s60audioencodercontrol.o(.constdata)
    .constdata                               0x0002bbcc   Section       24  s60audioencodercontrol.o(.constdata)
    .constdata$1                             0x0002bbe4   Data           0  s60cameraservice.o(.constdata)
    KDevVideoPanicCategory                   0x0002bbe4   Data          24  s60cameraservice.o(.constdata)
    .constdata                               0x0002bbe4   Section       24  s60cameraservice.o(.constdata)
    .constdata$1                             0x0002bbfc   Data           0  s60cameraimagecapturecontrol.o(.constdata)
    KDevVideoPanicCategory                   0x0002bbfc   Data          24  s60cameraimagecapturecontrol.o(.constdata)
    .constdata                               0x0002bbfc   Section       24  s60cameraimagecapturecontrol.o(.constdata)
    .constdata$1                             0x0002bc14   Data           0  s60videodevicecontrol.o(.constdata)
    KDevVideoPanicCategory                   0x0002bc14   Data          24  s60videodevicecontrol.o(.constdata)
    .constdata                               0x0002bc14   Section       24  s60videodevicecontrol.o(.constdata)
    .constdata$1                             0x0002bc2c   Data           0  s60camerasettings.o(.constdata)
    KUidECamEventImageProcessingAdjustSharpness 0x0002bc2c   Data           4  s60camerasettings.o(.constdata)
    .constdata                               0x0002bc2c   Section       68  s60camerasettings.o(.constdata)
    KUidECamEventtImageProcessingAdjustSaturation 0x0002bc30   Data           4  s60camerasettings.o(.constdata)
    KUidECamEventCameraSettingFocusMode      0x0002bc34   Data           4  s60camerasettings.o(.constdata)
    KUidECamEventCameraSettingFocusRange     0x0002bc38   Data           4  s60camerasettings.o(.constdata)
    KUidECamEventCameraSettingIsoRate        0x0002bc3c   Data           4  s60camerasettings.o(.constdata)
    KUidECamEventCameraSettingAperture       0x0002bc40   Data           4  s60camerasettings.o(.constdata)
    KUidECamEventCameraSettingApertureRange  0x0002bc44   Data           4  s60camerasettings.o(.constdata)
    KUidECamEventCameraSettingShutterSpeed   0x0002bc48   Data           4  s60camerasettings.o(.constdata)
    KUidECamEventCameraSettingExposureCompensationStep 0x0002bc4c   Data           4  s60camerasettings.o(.constdata)
    KUidECamEventCameraSettingExposureCompensation 0x0002bc50   Data           4  s60camerasettings.o(.constdata)
    KUidECamEventCameraSettingExposureLock   0x0002bc54   Data           4  s60camerasettings.o(.constdata)
    KUidECamEventCameraSettingOpticalZoom    0x0002bc58   Data           4  s60camerasettings.o(.constdata)
    KUidECamEventCameraSettingDigitalZoom    0x0002bc5c   Data           4  s60camerasettings.o(.constdata)
    KUidECamEventFlashReady                  0x0002bc60   Data           4  s60camerasettings.o(.constdata)
    KUidECamEventFlashNotReady               0x0002bc64   Data           4  s60camerasettings.o(.constdata)
    KUidECamEventCameraSettingAutoFocusType2 0x0002bc68   Data           4  s60camerasettings.o(.constdata)
    KUidECamEventCameraSettingIsoRateType    0x0002bc6c   Data           4  s60camerasettings.o(.constdata)
    .constdata$1                             0x0002bc70   Data           0  s60cameraengine.o(.constdata)
    KUidECamEventReserveComplete             0x0002bc70   Data           4  s60cameraengine.o(.constdata)
    .constdata                               0x0002bc70   Section       12  s60cameraengine.o(.constdata)
    KUidECamEventPowerOnComplete             0x0002bc74   Data           4  s60cameraengine.o(.constdata)
    KUidECamEventCameraNoLongerReserved      0x0002bc78   Data           4  s60cameraengine.o(.constdata)
    .constdata$1                             0x0002bc7c   Data           0  s60cameraviewfinderengine.o(.constdata)
    KDevVideoPanicCategory                   0x0002bc7c   Data          24  s60cameraviewfinderengine.o(.constdata)
    .constdata                               0x0002bc7c   Section       24  s60cameraviewfinderengine.o(.constdata)
    .constdata$1                             0x0002bc94   Data           0  s60cameraserviceplugin.o(.constdata)
    qt_plugin_verification_data              0x0002bc94   Data          91  s60cameraserviceplugin.o(.constdata)
    .constdata                               0x0002bc94   Section       91  s60cameraserviceplugin.o(.constdata)
    .constdata__ZN9stlp_priv15_Integer_limitsIaLan128ELa127ELin1ELb1EE6digitsE 0x0002bcf0   Section        4  moc_s60videodisplay.o(.constdata__ZN9stlp_priv15_Integer_limitsIaLan128ELa127ELin1ELb1EE6digitsE)
    .constdata__ZN9stlp_priv15_Integer_limitsIbLb0ELb1ELi1ELb0EE6digitsE 0x0002bcf4   Section        4  moc_s60videodisplay.o(.constdata__ZN9stlp_priv15_Integer_limitsIbLb0ELb1ELi1ELb0EE6digitsE)
    .constdata__ZN9stlp_priv15_Integer_limitsIcLc128ELc127ELin1ELb1EE6digitsE 0x0002bcf8   Section        4  moc_s60videodisplay.o(.constdata__ZN9stlp_priv15_Integer_limitsIcLc128ELc127ELin1ELb1EE6digitsE)
    .constdata__ZN9stlp_priv15_Integer_limitsIhLh0ELh255ELin1ELb1EE6digitsE 0x0002bcfc   Section        4  moc_s60videodisplay.o(.constdata__ZN9stlp_priv15_Integer_limitsIhLh0ELh255ELin1ELb1EE6digitsE)
    .constdata__ZN9stlp_priv15_Integer_limitsIiLin2147483648ELi2147483647ELin1ELb1EE6digitsE 0x0002bd00   Section        4  moc_s60videodisplay.o(.constdata__ZN9stlp_priv15_Integer_limitsIiLin2147483648ELi2147483647ELin1ELb1EE6digitsE)
    .constdata__ZN9stlp_priv15_Integer_limitsIiLin2147483648ELi2147483647ELin1ELb1EE9is_signedE 0x0002bd04   Section        1  moc_s60videodisplay.o(.constdata__ZN9stlp_priv15_Integer_limitsIiLin2147483648ELi2147483647ELin1ELb1EE9is_signedE)
    .constdata__ZN9stlp_priv15_Integer_limitsIjLj0ELj4294967295ELin1ELb1EE6digitsE 0x0002bd08   Section        4  moc_s60videodisplay.o(.constdata__ZN9stlp_priv15_Integer_limitsIjLj0ELj4294967295ELin1ELb1EE6digitsE)
    .constdata__ZN9stlp_priv15_Integer_limitsIlLln2147483648ELl2147483647ELin1ELb1EE6digitsE 0x0002bd0c   Section        4  moc_s60videodisplay.o(.constdata__ZN9stlp_priv15_Integer_limitsIlLln2147483648ELl2147483647ELin1ELb1EE6digitsE)
    .constdata__ZN9stlp_priv15_Integer_limitsImLm0ELm4294967295ELin1ELb1EE6digitsE 0x0002bd10   Section        4  moc_s60videodisplay.o(.constdata__ZN9stlp_priv15_Integer_limitsImLm0ELm4294967295ELin1ELb1EE6digitsE)
    .constdata__ZN9stlp_priv15_Integer_limitsIsLsn32768ELs32767ELin1ELb1EE6digitsE 0x0002bd14   Section        4  moc_s60videodisplay.o(.constdata__ZN9stlp_priv15_Integer_limitsIsLsn32768ELs32767ELin1ELb1EE6digitsE)
    .constdata__ZN9stlp_priv15_Integer_limitsItLt0ELt65535ELin1ELb1EE6digitsE 0x0002bd18   Section        4  moc_s60videodisplay.o(.constdata__ZN9stlp_priv15_Integer_limitsItLt0ELt65535ELin1ELb1EE6digitsE)
    .constdata__ZN9stlp_priv15_Integer_limitsIwLw0ELw65535ELin1ELb1EE6digitsE 0x0002bd1c   Section        4  moc_s60videodisplay.o(.constdata__ZN9stlp_priv15_Integer_limitsIwLw0ELw65535ELin1ELb1EE6digitsE)
    .constdata__ZN9stlp_priv15_Integer_limitsIxLxn9223372036854775808ELx9223372036854775807ELin1ELb1EE6digitsE 0x0002bd20   Section        4  moc_s60videodisplay.o(.constdata__ZN9stlp_priv15_Integer_limitsIxLxn9223372036854775808ELx9223372036854775807ELin1ELb1EE6digitsE)
    .constdata__ZN9stlp_priv15_Integer_limitsIyLy0ELy18446744073709551615ELin1ELb1EE6digitsE 0x0002bd24   Section        4  moc_s60videodisplay.o(.constdata__ZN9stlp_priv15_Integer_limitsIyLy0ELy18446744073709551615ELin1ELb1EE6digitsE)
    .constdata__ZTI13CCameraEngine           0x0002bd28   Section       40  s60cameraengine.o(.constdata__ZTI13CCameraEngine)
    .constdata__ZTI14S60VideoWidget          0x0002bd50   Section       12  moc_s60videowidget.o(.constdata__ZTI14S60VideoWidget)
    .constdata__ZTI15MCameraObserver         0x0002bd5c   Section        8  s60cameraengine.o(.constdata__ZTI15MCameraObserver)
    .constdata__ZTI15S60VideoDisplay         0x0002bd64   Section       12  moc_s60videodisplay.o(.constdata__ZTI15S60VideoDisplay)
    .constdata__ZTI16MCameraObserver2        0x0002bd70   Section        8  s60cameraengine.o(.constdata__ZTI16MCameraObserver2)
    .constdata__ZTI16S60CameraControl        0x0002bd78   Section       32  moc_s60cameracontrol.o(.constdata__ZTI16S60CameraControl)
    .constdata__ZTI16S60CameraService        0x0002bd98   Section       12  moc_s60cameraservice.o(.constdata__ZTI16S60CameraService)
    .constdata__ZTI17QFactoryInterface       0x0002bda4   Section        8  s60cameraserviceplugin.o(.constdata__ZTI17QFactoryInterface)
    .constdata__ZTI17S60CameraSettings       0x0002bdac   Section       32  moc_s60camerasettings.o(.constdata__ZTI17S60CameraSettings)
    .constdata__ZTI21MCameraEngineObserver   0x0002bdcc   Section        8  moc_s60cameracontrol.o(.constdata__ZTI21MCameraEngineObserver)
    .constdata__ZTI21S60CameraFlashControl   0x0002bdd4   Section       12  moc_s60cameraflashcontrol.o(.constdata__ZTI21S60CameraFlashControl)
    .constdata__ZTI21S60CameraFocusControl   0x0002bde0   Section       12  moc_s60camerafocuscontrol.o(.constdata__ZTI21S60CameraFocusControl)
    .constdata__ZTI21S60CameraLocksControl   0x0002bdec   Section       12  moc_s60cameralockscontrol.o(.constdata__ZTI21S60CameraLocksControl)
    .constdata__ZTI21S60VideoDeviceControl   0x0002bdf8   Section       12  moc_s60videodevicecontrol.o(.constdata__ZTI21S60VideoDeviceControl)
    .constdata__ZTI21S60VideoWidgetControl   0x0002be04   Section       12  moc_s60videowidgetcontrol.o(.constdata__ZTI21S60VideoWidgetControl)
    .constdata__ZTI21S60VideoWidgetDisplay   0x0002be10   Section       12  moc_s60videowidgetdisplay.o(.constdata__ZTI21S60VideoWidgetDisplay)
    .constdata__ZTI21S60VideoWindowControl   0x0002be1c   Section       12  moc_s60videowindowcontrol.o(.constdata__ZTI21S60VideoWindowControl)
    .constdata__ZTI21S60VideoWindowDisplay   0x0002be28   Section       12  s60videowindowdisplay.o(.constdata__ZTI21S60VideoWindowDisplay)
    .constdata__ZTI22QGraphicsEffectPrivate  0x0002be34   Section       12  s60videooutpututils.o(.constdata__ZTI22QGraphicsEffectPrivate)
    .constdata__ZTI22S60AudioEncoderControl  0x0002be40   Section       12  moc_s60audioencodercontrol.o(.constdata__ZTI22S60AudioEncoderControl)
    .constdata__ZTI22S60CameraServicePlugin  0x0002be4c   Section       32  moc_s60cameraserviceplugin.o(.constdata__ZTI22S60CameraServicePlugin)
    .constdata__ZTI22S60ImageCaptureDecoder  0x0002be6c   Section       12  s60imagecapturesession.o(.constdata__ZTI22S60ImageCaptureDecoder)
    .constdata__ZTI22S60ImageCaptureEncoder  0x0002be78   Section       12  s60imagecapturesession.o(.constdata__ZTI22S60ImageCaptureEncoder)
    .constdata__ZTI22S60ImageCaptureSession  0x0002be84   Section       32  moc_s60imagecapturesession.o(.constdata__ZTI22S60ImageCaptureSession)
    .constdata__ZTI22S60ImageEncoderControl  0x0002bea4   Section       12  moc_s60imageencodercontrol.o(.constdata__ZTI22S60ImageEncoderControl)
    .constdata__ZTI22S60VideoCaptureSession  0x0002beb0   Section       40  moc_s60videocapturesession.o(.constdata__ZTI22S60VideoCaptureSession)
    .constdata__ZTI22S60VideoEncoderControl  0x0002bed8   Section       12  moc_s60videoencodercontrol.o(.constdata__ZTI22S60VideoEncoderControl)
    .constdata__ZTI23S60MediaRecorderControl 0x0002bee4   Section       12  moc_s60mediarecordercontrol.o(.constdata__ZTI23S60MediaRecorderControl)
    .constdata__ZTI23S60VideoRendererControl 0x0002bef0   Section       12  moc_s60videorenderercontrol.o(.constdata__ZTI23S60VideoRendererControl)
    .constdata__ZTI24S60CameraExposureControl 0x0002befc   Section       12  moc_s60cameraexposurecontrol.o(.constdata__ZTI24S60CameraExposureControl)
    .constdata__ZTI24S60MediaContainerControl 0x0002bf08   Section       12  moc_s60mediacontainercontrol.o(.constdata__ZTI24S60MediaContainerControl)
    .constdata__ZTI25MAdvancedSettingsObserver 0x0002bf14   Section        8  moc_s60camerasettings.o(.constdata__ZTI25MAdvancedSettingsObserver)
    .constdata__ZTI25MCameraViewfinderObserver 0x0002bf1c   Section        8  moc_s60cameraviewfinderengine.o(.constdata__ZTI25MCameraViewfinderObserver)
    .constdata__ZTI25S60CameraViewfinderEngine 0x0002bf24   Section       32  moc_s60cameraviewfinderengine.o(.constdata__ZTI25S60CameraViewfinderEngine)
    .constdata__ZTI26MMMFDevVideoRecordObserver 0x0002bf44   Section        8  moc_s60videocapturesession.o(.constdata__ZTI26MMMFDevVideoRecordObserver)
    .constdata__ZTI26QGraphicsBlurEffectPrivate 0x0002bf4c   Section       12  s60videooutpututils.o(.constdata__ZTI26QGraphicsBlurEffectPrivate)
    .constdata__ZTI28S60CameraImageCaptureControl 0x0002bf58   Section       12  moc_s60cameraimagecapturecontrol.o(.constdata__ZTI28S60CameraImageCaptureControl)
    .constdata__ZTI29MVideoRecorderUtilityObserver 0x0002bf64   Section        8  moc_s60videocapturesession.o(.constdata__ZTI29MVideoRecorderUtilityObserver)
    .constdata__ZTI30QGraphicsColorizeEffectPrivate 0x0002bf6c   Section       12  s60videooutpututils.o(.constdata__ZTI30QGraphicsColorizeEffectPrivate)
    .constdata__ZTI31S60CameraImageProcessingControl 0x0002bf78   Section       12  moc_s60cameraimageprocessingcontrol.o(.constdata__ZTI31S60CameraImageProcessingControl)
    .constdata__ZTI32QGraphicsDropShadowEffectPrivate 0x0002bf84   Section       12  s60videooutpututils.o(.constdata__ZTI32QGraphicsDropShadowEffectPrivate)
    .constdata__ZTI33MCameraEngineImageCaptureObserver 0x0002bf90   Section        8  moc_s60imagecapturesession.o(.constdata__ZTI33MCameraEngineImageCaptureObserver)
    .constdata__ZTI37QMediaServiceProviderFactoryInterface 0x0002bf98   Section       12  s60cameraserviceplugin.o(.constdata__ZTI37QMediaServiceProviderFactoryInterface)
    .constdata__ZTI38QMediaServiceSupportedDevicesInterface 0x0002bfa4   Section        8  moc_s60cameraserviceplugin.o(.constdata__ZTI38QMediaServiceSupportedDevicesInterface)
    .constdata__ZTS13CCameraEngine           0x0002bfac   Section       16  s60cameraengine.o(.constdata__ZTS13CCameraEngine)
    .constdata__ZTS14S60VideoWidget          0x0002bfbc   Section       17  moc_s60videowidget.o(.constdata__ZTS14S60VideoWidget)
    .constdata__ZTS15MCameraObserver         0x0002bfcd   Section       18  s60cameraengine.o(.constdata__ZTS15MCameraObserver)
    .constdata__ZTS15S60VideoDisplay         0x0002bfdf   Section       18  moc_s60videodisplay.o(.constdata__ZTS15S60VideoDisplay)
    .constdata__ZTS16MCameraObserver2        0x0002bff1   Section       19  s60cameraengine.o(.constdata__ZTS16MCameraObserver2)
    .constdata__ZTS16S60CameraControl        0x0002c004   Section       19  moc_s60cameracontrol.o(.constdata__ZTS16S60CameraControl)
    .constdata__ZTS16S60CameraService        0x0002c017   Section       19  moc_s60cameraservice.o(.constdata__ZTS16S60CameraService)
    .constdata__ZTS17QFactoryInterface       0x0002c02a   Section       20  s60cameraserviceplugin.o(.constdata__ZTS17QFactoryInterface)
    .constdata__ZTS17S60CameraSettings       0x0002c03e   Section       20  moc_s60camerasettings.o(.constdata__ZTS17S60CameraSettings)
    .constdata__ZTS21MCameraEngineObserver   0x0002c052   Section       24  moc_s60cameracontrol.o(.constdata__ZTS21MCameraEngineObserver)
    .constdata__ZTS21S60CameraFlashControl   0x0002c06a   Section       24  moc_s60cameraflashcontrol.o(.constdata__ZTS21S60CameraFlashControl)
    .constdata__ZTS21S60CameraFocusControl   0x0002c082   Section       24  moc_s60camerafocuscontrol.o(.constdata__ZTS21S60CameraFocusControl)
    .constdata__ZTS21S60CameraLocksControl   0x0002c09a   Section       24  moc_s60cameralockscontrol.o(.constdata__ZTS21S60CameraLocksControl)
    .constdata__ZTS21S60VideoDeviceControl   0x0002c0b2   Section       24  moc_s60videodevicecontrol.o(.constdata__ZTS21S60VideoDeviceControl)
    .constdata__ZTS21S60VideoWidgetControl   0x0002c0ca   Section       24  moc_s60videowidgetcontrol.o(.constdata__ZTS21S60VideoWidgetControl)
    .constdata__ZTS21S60VideoWidgetDisplay   0x0002c0e2   Section       24  moc_s60videowidgetdisplay.o(.constdata__ZTS21S60VideoWidgetDisplay)
    .constdata__ZTS21S60VideoWindowControl   0x0002c0fa   Section       24  moc_s60videowindowcontrol.o(.constdata__ZTS21S60VideoWindowControl)
    .constdata__ZTS21S60VideoWindowDisplay   0x0002c112   Section       24  s60videowindowdisplay.o(.constdata__ZTS21S60VideoWindowDisplay)
    .constdata__ZTS22QGraphicsEffectPrivate  0x0002c12a   Section       25  s60videooutpututils.o(.constdata__ZTS22QGraphicsEffectPrivate)
    .constdata__ZTS22S60AudioEncoderControl  0x0002c143   Section       25  moc_s60audioencodercontrol.o(.constdata__ZTS22S60AudioEncoderControl)
    .constdata__ZTS22S60CameraServicePlugin  0x0002c15c   Section       25  moc_s60cameraserviceplugin.o(.constdata__ZTS22S60CameraServicePlugin)
    .constdata__ZTS22S60ImageCaptureDecoder  0x0002c175   Section       25  s60imagecapturesession.o(.constdata__ZTS22S60ImageCaptureDecoder)
    .constdata__ZTS22S60ImageCaptureEncoder  0x0002c18e   Section       25  s60imagecapturesession.o(.constdata__ZTS22S60ImageCaptureEncoder)
    .constdata__ZTS22S60ImageCaptureSession  0x0002c1a7   Section       25  moc_s60imagecapturesession.o(.constdata__ZTS22S60ImageCaptureSession)
    .constdata__ZTS22S60ImageEncoderControl  0x0002c1c0   Section       25  moc_s60imageencodercontrol.o(.constdata__ZTS22S60ImageEncoderControl)
    .constdata__ZTS22S60VideoCaptureSession  0x0002c1d9   Section       25  moc_s60videocapturesession.o(.constdata__ZTS22S60VideoCaptureSession)
    .constdata__ZTS22S60VideoEncoderControl  0x0002c1f2   Section       25  moc_s60videoencodercontrol.o(.constdata__ZTS22S60VideoEncoderControl)
    .constdata__ZTS23S60MediaRecorderControl 0x0002c20b   Section       26  moc_s60mediarecordercontrol.o(.constdata__ZTS23S60MediaRecorderControl)
    .constdata__ZTS23S60VideoRendererControl 0x0002c225   Section       26  moc_s60videorenderercontrol.o(.constdata__ZTS23S60VideoRendererControl)
    .constdata__ZTS24S60CameraExposureControl 0x0002c23f   Section       27  moc_s60cameraexposurecontrol.o(.constdata__ZTS24S60CameraExposureControl)
    .constdata__ZTS24S60MediaContainerControl 0x0002c25a   Section       27  moc_s60mediacontainercontrol.o(.constdata__ZTS24S60MediaContainerControl)
    .constdata__ZTS25MAdvancedSettingsObserver 0x0002c275   Section       28  moc_s60camerasettings.o(.constdata__ZTS25MAdvancedSettingsObserver)
    .constdata__ZTS25MCameraViewfinderObserver 0x0002c291   Section       28  moc_s60cameraviewfinderengine.o(.constdata__ZTS25MCameraViewfinderObserver)
    .constdata__ZTS25S60CameraViewfinderEngine 0x0002c2ad   Section       28  moc_s60cameraviewfinderengine.o(.constdata__ZTS25S60CameraViewfinderEngine)
    .constdata__ZTS26MMMFDevVideoRecordObserver 0x0002c2c9   Section       29  moc_s60videocapturesession.o(.constdata__ZTS26MMMFDevVideoRecordObserver)
    .constdata__ZTS26QGraphicsBlurEffectPrivate 0x0002c2e6   Section       29  s60videooutpututils.o(.constdata__ZTS26QGraphicsBlurEffectPrivate)
    .constdata__ZTS28S60CameraImageCaptureControl 0x0002c303   Section       31  moc_s60cameraimagecapturecontrol.o(.constdata__ZTS28S60CameraImageCaptureControl)
    .constdata__ZTS29MVideoRecorderUtilityObserver 0x0002c322   Section       32  moc_s60videocapturesession.o(.constdata__ZTS29MVideoRecorderUtilityObserver)
    .constdata__ZTS30QGraphicsColorizeEffectPrivate 0x0002c342   Section       33  s60videooutpututils.o(.constdata__ZTS30QGraphicsColorizeEffectPrivate)
    .constdata__ZTS31S60CameraImageProcessingControl 0x0002c363   Section       34  moc_s60cameraimageprocessingcontrol.o(.constdata__ZTS31S60CameraImageProcessingControl)
    .constdata__ZTS32QGraphicsDropShadowEffectPrivate 0x0002c385   Section       35  s60videooutpututils.o(.constdata__ZTS32QGraphicsDropShadowEffectPrivate)
    .constdata__ZTS33MCameraEngineImageCaptureObserver 0x0002c3a8   Section       36  moc_s60imagecapturesession.o(.constdata__ZTS33MCameraEngineImageCaptureObserver)
    .constdata__ZTS37QMediaServiceProviderFactoryInterface 0x0002c3cc   Section       40  s60cameraserviceplugin.o(.constdata__ZTS37QMediaServiceProviderFactoryInterface)
    .constdata__ZTS38QMediaServiceSupportedDevicesInterface 0x0002c3f4   Section       41  moc_s60cameraserviceplugin.o(.constdata__ZTS38QMediaServiceSupportedDevicesInterface)
    .constdata__ZTV13CCameraEngine           0x0002c420   Section      116  s60cameraengine.o(.constdata__ZTV13CCameraEngine)
    .constdata__ZTV14S60VideoWidget          0x0002c494   Section      248  moc_s60videowidget.o(.constdata__ZTV14S60VideoWidget)
    .constdata__ZTV15MCameraObserver         0x0002c58c   Section       28  s60cameraengine.o(.constdata__ZTV15MCameraObserver)
    .constdata__ZTV15S60VideoDisplay         0x0002c5a8   Section       68  moc_s60videodisplay.o(.constdata__ZTV15S60VideoDisplay)
    .constdata__ZTV16MCameraObserver2        0x0002c5ec   Section       24  s60cameraengine.o(.constdata__ZTV16MCameraObserver2)
    .constdata__ZTV16S60CameraControl        0x0002c604   Section      108  moc_s60cameracontrol.o(.constdata__ZTV16S60CameraControl)
    .constdata__ZTV16S60CameraService        0x0002c670   Section       64  moc_s60cameraservice.o(.constdata__ZTV16S60CameraService)
    .constdata__ZTV17QFactoryInterface       0x0002c6b0   Section       20  s60cameraserviceplugin.o(.constdata__ZTV17QFactoryInterface)
    .constdata__ZTV17S60CameraSettings       0x0002c6c4   Section       72  moc_s60camerasettings.o(.constdata__ZTV17S60CameraSettings)
    .constdata__ZTV21MCameraEngineObserver   0x0002c70c   Section       16  s60cameracontrol.o(.constdata__ZTV21MCameraEngineObserver)
    .constdata__ZTV21S60CameraFlashControl   0x0002c71c   Section       72  moc_s60cameraflashcontrol.o(.constdata__ZTV21S60CameraFlashControl)
    .constdata__ZTV21S60CameraFocusControl   0x0002c764   Section      112  moc_s60camerafocuscontrol.o(.constdata__ZTV21S60CameraFocusControl)
    .constdata__ZTV21S60CameraLocksControl   0x0002c7d4   Section       72  moc_s60cameralockscontrol.o(.constdata__ZTV21S60CameraLocksControl)
    .constdata__ZTV21S60VideoDeviceControl   0x0002c81c   Section       84  moc_s60videodevicecontrol.o(.constdata__ZTV21S60VideoDeviceControl)
    .constdata__ZTV21S60VideoWidgetControl   0x0002c870   Section      108  moc_s60videowidgetcontrol.o(.constdata__ZTV21S60VideoWidgetControl)
    .constdata__ZTV21S60VideoWidgetDisplay   0x0002c8dc   Section       68  moc_s60videowidgetdisplay.o(.constdata__ZTV21S60VideoWidgetDisplay)
    .constdata__ZTV21S60VideoWindowControl   0x0002c920   Section      128  moc_s60videowindowcontrol.o(.constdata__ZTV21S60VideoWindowControl)
    .constdata__ZTV21S60VideoWindowDisplay   0x0002c9a0   Section       68  s60videowindowdisplay.o(.constdata__ZTV21S60VideoWindowDisplay)
    .constdata__ZTV22S60AudioEncoderControl  0x0002c9e4   Section       88  moc_s60audioencodercontrol.o(.constdata__ZTV22S60AudioEncoderControl)
    .constdata__ZTV22S60CameraServicePlugin  0x0002ca3c   Section      128  moc_s60cameraserviceplugin.o(.constdata__ZTV22S60CameraServicePlugin)
    .constdata__ZTV22S60ImageCaptureDecoder  0x0002cabc   Section       32  s60imagecapturesession.o(.constdata__ZTV22S60ImageCaptureDecoder)
    .constdata__ZTV22S60ImageCaptureEncoder  0x0002cadc   Section       32  s60imagecapturesession.o(.constdata__ZTV22S60ImageCaptureEncoder)
    .constdata__ZTV22S60ImageCaptureSession  0x0002cafc   Section      100  moc_s60imagecapturesession.o(.constdata__ZTV22S60ImageCaptureSession)
    .constdata__ZTV22S60ImageEncoderControl  0x0002cb60   Section       76  moc_s60imageencodercontrol.o(.constdata__ZTV22S60ImageEncoderControl)
    .constdata__ZTV22S60VideoCaptureSession  0x0002cbac   Section      152  moc_s60videocapturesession.o(.constdata__ZTV22S60VideoCaptureSession)
    .constdata__ZTV22S60VideoEncoderControl  0x0002cc44   Section       92  moc_s60videoencodercontrol.o(.constdata__ZTV22S60VideoEncoderControl)
    .constdata__ZTV23S60MediaRecorderControl 0x0002cca0   Section       96  moc_s60mediarecordercontrol.o(.constdata__ZTV23S60MediaRecorderControl)
    .constdata__ZTV23S60VideoRendererControl 0x0002cd00   Section       64  moc_s60videorenderercontrol.o(.constdata__ZTV23S60VideoRendererControl)
    .constdata__ZTV24S60CameraExposureControl 0x0002cd40   Section      104  moc_s60cameraexposurecontrol.o(.constdata__ZTV24S60CameraExposureControl)
    .constdata__ZTV24S60MediaContainerControl 0x0002cda8   Section       72  moc_s60mediacontainercontrol.o(.constdata__ZTV24S60MediaContainerControl)
    .constdata__ZTV25MAdvancedSettingsObserver 0x0002cdf0   Section       12  s60camerasettings.o(.constdata__ZTV25MAdvancedSettingsObserver)
    .constdata__ZTV25MCameraViewfinderObserver 0x0002cdfc   Section       12  s60cameraviewfinderengine.o(.constdata__ZTV25MCameraViewfinderObserver)
    .constdata__ZTV25S60CameraViewfinderEngine 0x0002ce08   Section       72  moc_s60cameraviewfinderengine.o(.constdata__ZTV25S60CameraViewfinderEngine)
    .constdata__ZTV26MMMFDevVideoRecordObserver 0x0002ce50   Section       32  s60videocapturesession.o(.constdata__ZTV26MMMFDevVideoRecordObserver)
    .constdata__ZTV26QGraphicsBlurEffectPrivate 0x0002ce70   Section       16  s60videooutpututils.o(.constdata__ZTV26QGraphicsBlurEffectPrivate)
    .constdata__ZTV28S60CameraImageCaptureControl 0x0002ce80   Section       76  moc_s60cameraimagecapturecontrol.o(.constdata__ZTV28S60CameraImageCaptureControl)
    .constdata__ZTV29MVideoRecorderUtilityObserver 0x0002cecc   Section       24  s60videocapturesession.o(.constdata__ZTV29MVideoRecorderUtilityObserver)
    .constdata__ZTV30QGraphicsColorizeEffectPrivate 0x0002cee4   Section       16  s60videooutpututils.o(.constdata__ZTV30QGraphicsColorizeEffectPrivate)
    .constdata__ZTV31S60CameraImageProcessingControl 0x0002cef4   Section       80  moc_s60cameraimageprocessingcontrol.o(.constdata__ZTV31S60CameraImageProcessingControl)
    .constdata__ZTV32QGraphicsDropShadowEffectPrivate 0x0002cf44   Section       16  s60videooutpututils.o(.constdata__ZTV32QGraphicsDropShadowEffectPrivate)
    .constdata__ZTV33MCameraEngineImageCaptureObserver 0x0002cf54   Section       28  s60imagecapturesession.o(.constdata__ZTV33MCameraEngineImageCaptureObserver)
    .constdata__ZTV37QMediaServiceProviderFactoryInterface 0x0002cf70   Section       28  s60cameraserviceplugin.o(.constdata__ZTV37QMediaServiceProviderFactoryInterface)
    .constdata__ZTV38QMediaServiceSupportedDevicesInterface 0x0002cf8c   Section       24  s60cameraserviceplugin.o(.constdata__ZTV38QMediaServiceSupportedDevicesInterface)
    .ARM.exidx                               0x0002cfa4   Section        8  ucppinit.o(.ARM.exidx)
    .data$0                                  0x00400000   Data           0  s60cameraserviceplugin.o(.data)
    _ZGV_instance@qt_plugin_instance_0       0x00400000   Data           4  s60cameraserviceplugin.o(.data)
    .data                                    0x00400000   Section        8  s60cameraserviceplugin.o(.data)
    _instance@qt_plugin_instance_1           0x00400004   Data           4  s60cameraserviceplugin.o(.data)
    .data$0                                  0x00400008   Data           0  ucppfini.o(.data)
    .data                                    0x00400008   Section        4  ucppfini.o(.data)
    .data__ZNSt19_Atomic_swap_structILi1EE12_S_swap_lockE 0x0040000c   Section       12  moc_s60videodisplay.o(.data__ZNSt19_Atomic_swap_structILi1EE12_S_swap_lockE)
    .bss$5                                   0x00400018   Data           0  ucppfini.o(.bss)
    .bss                                     0x00400018   Section     2048  ucppfini.o(.bss)

    Global Symbols

    Symbol Name                              Value     Ov Type        Size  Object(Section)

    BuildAttributes$$THUMB_ISAv2$ARM_ISAv5$M$VFPv2$PE$A:L22$X:L11$S22$IEEE1$IW$USESV6$~STKCKD$USESV7$~SHL$OSPACE$ROPI$IEEEJ$EBA8$UX$FPIC$INDIRECT$REQ8$PRES8$EABIv2 0x00000000   Number         0  anon$$obj.o ABSOLUTE
    QtCore{00040703}[2001b2dc].dll           0x00000000   Data           0  anon$$obj.o ABSOLUTE
    QtGui{00040703}[2001b2dd].dll            0x00000000   Data           0  anon$$obj.o ABSOLUTE
    QtMultimediaKit{00010103}[2002ac77].dll  0x00000000   Data           0  anon$$obj.o ABSOLUTE
    bafl{000a0000}[10003a0f].dll             0x00000000   Data           0  anon$$obj.o ABSOLUTE
    charconv{000a0000}[10003b11].dll         0x00000000   Data           0  anon$$obj.o ABSOLUTE
    cone{000a0000}[10003a41].dll             0x00000000   Data           0  anon$$obj.o ABSOLUTE
    devvideo{000a0000}[101f9ed6].dll         0x00000000   Data           0  anon$$obj.o ABSOLUTE
    dfpaeabi{000a0000}.dll                   0x00000000   Data           0  anon$$obj.o ABSOLUTE
    drtaeabi{000a0000}.dll                   0x00000000   Data           0  anon$$obj.o ABSOLUTE
    ecamadvsettings{000a0000}[1020e76b].dll  0x00000000   Data           0  anon$$obj.o ABSOLUTE
    ecam{000a0000}[101fb4c3].dll             0x00000000   Data           0  anon$$obj.o ABSOLUTE
    efsrv{000a0000}[100039e4].dll            0x00000000   Data           0  anon$$obj.o ABSOLUTE
    euser{000a0000}[100039e5].dll            0x00000000   Data           0  anon$$obj.o ABSOLUTE
    fbscli{000a0000}[10003a15].dll           0x00000000   Data           0  anon$$obj.o ABSOLUTE
    imageconversion{000a0000}[101f45ad].dll  0x00000000   Data           0  anon$$obj.o ABSOLUTE
    libc{00010001}[10207369].dll             0x00000000   Data           0  anon$$obj.o ABSOLUTE
    libm{00010001}[102750d2].dll             0x00000000   Data           0  anon$$obj.o ABSOLUTE
    mediaclientvideo{000a0000}[101f4569].dll 0x00000000   Data           0  anon$$obj.o ABSOLUTE
    mmfcontrollerframework{000a0000}[101f76dd].dll 0x00000000   Data           0  anon$$obj.o ABSOLUTE
    qtmultimediakit_ecamengine{000a0000}[2002bfc2].dll 0x00000000   Data           0  anon$$obj.o ABSOLUTE
    stdnew{000a0000}[20022178].dll           0x00000000   Data           0  anon$$obj.o ABSOLUTE
    ws32{000a0000}[10003b21].dll             0x00000000   Data           0  anon$$obj.o ABSOLUTE
    SHT$$INIT_ARRAY$$Base                     - Undefined Weak Reference
    SHT$$INIT_ARRAY$$Limit                    - Undefined Weak Reference
    qt_message_output(QtMsgType, const char*)  - Undefined Reference
    _Z17qt_message_output9QtMsgTypePKc@QtCore{00040703}[2001b2dc].dll  - Undefined Reference
    qt_widget_private(QWidget*)               - Undefined Reference
    _Z17qt_widget_privateP7QWidget@QtGui{00040703}[2001b2dd].dll  - Undefined Reference
    qt_symbian_exception2Error(const std::exception&)  - Undefined Reference
    _Z26qt_symbian_exception2ErrorRKSt9exception@QtCore{00040703}[2001b2dc].dll  - Undefined Reference
    qFree(void*)                              - Undefined Reference
    _Z5qFreePv@QtCore{00040703}[2001b2dc].dll  - Undefined Reference
    qHash(const QString&)                     - Undefined Reference
    _Z5qHashRK7QString@QtCore{00040703}[2001b2dc].dll  - Undefined Reference
    qstrcmp(const char*, const char*)         - Undefined Reference
    _Z7qstrcmpPKcS0_@QtCore{00040703}[2001b2dc].dll  - Undefined Reference
    qstrcmp(const QByteArray&, const char*)   - Undefined Reference
    _Z7qstrcmpRK10QByteArrayPKc@QtCore{00040703}[2001b2dc].dll  - Undefined Reference
    qWarning(const char*, ...)                - Undefined Reference
    _Z8qWarningPKcz@QtCore{00040703}[2001b2dc].dll  - Undefined Reference
    CFbsBitmap::Reset()                       - Undefined Reference
    _ZN10CFbsBitmap5ResetEv@fbscli{000a0000}[10003a15].dll  - Undefined Reference
    CFbsBitmap::Create(const TSize&, TDisplayMode)  - Undefined Reference
    _ZN10CFbsBitmap6CreateERK5TSize12TDisplayMode@fbscli{000a0000}[10003a15].dll  - Undefined Reference
    CFbsBitmap::CFbsBitmap()                  - Undefined Reference
    _ZN10CFbsBitmapC1Ev@fbscli{000a0000}[10003a15].dll  - Undefined Reference
    QByteArray::realloc(int)                  - Undefined Reference
    _ZN10QByteArray7reallocEi@QtCore{00040703}[2001b2dc].dll  - Undefined Reference
    RArrayBase::Close()                       - Undefined Reference
    _ZN10RArrayBase5CloseEv@euser{000a0000}[100039e5].dll  - Undefined Reference
    RArrayBase::Append(const void*)           - Undefined Reference
    _ZN10RArrayBase6AppendEPKv@euser{000a0000}[100039e5].dll  - Undefined Reference
    RArrayBase::RArrayBase(int)               - Undefined Reference
    _ZN10RArrayBaseC1Ei@euser{000a0000}[100039e5].dll  - Undefined Reference
    RWsSession::Flush()                       - Undefined Reference
    _ZN10RWsSession5FlushEv@ws32{000a0000}[10003b21].dll  - Undefined Reference
    TBufBase16::TBufBase16(const TDesC16&, int)  - Undefined Reference
    _ZN10TBufBase16C1ERK7TDesC16i@euser{000a0000}[100039e5].dll  - Undefined Reference
    QMetaObject::changeGuard(QObject**, QObject*)  - Undefined Reference
    _ZN11QMetaObject11changeGuardEPP7QObjectS1_@QtCore{00040703}[2001b2dc].dll  - Undefined Reference
    QMetaObject::removeGuard(QObject**)       - Undefined Reference
    _ZN11QMetaObject11removeGuardEPP7QObject@QtCore{00040703}[2001b2dc].dll  - Undefined Reference
    QMetaObject::invokeMethod(QObject*, const char*, Qt::ConnectionType, QGenericReturnArgument, QGenericArgument, QGenericArgument, QGenericArgument, QGenericArgument, QGenericArgument, QGenericArgument, QGenericArgument, QGenericArgument, QGenericArgument, QGenericArgument)  - Undefined Reference
    _ZN11QMetaObject12invokeMethodEP7QObjectPKcN2Qt14ConnectionTypeE22QGenericReturnArgument16QGenericArgumentS7_S7_S7_S7_S7_S7_S7_S7_S7_@QtCore{00040703}[2001b2dc].dll  - Undefined Reference
    QMetaObject::activate(QObject*, const QMetaObject*, int, void**)  - Undefined Reference
    _ZN11QMetaObject8activateEP7QObjectPKS_iPPv@QtCore{00040703}[2001b2dc].dll  - Undefined Reference
    QTextStream::QTextStream(QString*, QFlags<QIODevice::OpenModeFlag>)  - Undefined Reference
    _ZN11QTextStreamC1EP7QString6QFlagsIN9QIODevice12OpenModeFlagEE@QtCore{00040703}[2001b2dc].dll  - Undefined Reference
    QTextStream::~QTextStream()               - Undefined Reference
    _ZN11QTextStreamD1Ev@QtCore{00040703}[2001b2dc].dll  - Undefined Reference
    QTextStream::operator <<(const QString&)  - Undefined Reference
    _ZN11QTextStreamlsERK7QString@QtCore{00040703}[2001b2dc].dll  - Undefined Reference
    QTextStream::operator <<(char)            - Undefined Reference
    _ZN11QTextStreamlsEc@QtCore{00040703}[2001b2dc].dll  - Undefined Reference
    QVideoFrame::QVideoFrame(const QImage&)   - Undefined Reference
    _ZN11QVideoFrameC1ERK6QImage@QtMultimediaKit{00010103}[2002ac77].dll  - Undefined Reference
    QVideoFrame::~QVideoFrame()               - Undefined Reference
    _ZN11QVideoFrameD1Ev@QtMultimediaKit{00010103}[2002ac77].dll  - Undefined Reference
    CleanupStack::PopAndDestroy()             - Undefined Reference
    _ZN12CleanupStack13PopAndDestroyEv@euser{000a0000}[100039e5].dll  - Undefined Reference
    CleanupStack::Pop()                       - Undefined Reference
    _ZN12CleanupStack3PopEv@euser{000a0000}[100039e5].dll  - Undefined Reference
    CleanupStack::Check(void*)                - Undefined Reference
    _ZN12CleanupStack5CheckEPv@euser{000a0000}[100039e5].dll  - Undefined Reference
    CleanupStack::PushL(TCleanupItem)         - Undefined Reference
    _ZN12CleanupStack5PushLE12TCleanupItem@euser{000a0000}[100039e5].dll  - Undefined Reference
    CleanupStack::PushL(CBase*)               - Undefined Reference
    _ZN12CleanupStack5PushLEP5CBase@euser{000a0000}[100039e5].dll  - Undefined Reference
    CleanupStack::PushL(void*)                - Undefined Reference
    _ZN12CleanupStack5PushLEPv@euser{000a0000}[100039e5].dll  - Undefined Reference
    QApplication::activeWindow()              - Undefined Reference
    _ZN12QApplication12activeWindowEv@QtGui{00040703}[2001b2dd].dll  - Undefined Reference
    QApplication::desktop()                   - Undefined Reference
    _ZN12QApplication7desktopEv@QtGui{00040703}[2001b2dd].dll  - Undefined Reference
    CImageDecoder::Cancel()                   - Undefined Reference
    _ZN13CImageDecoder6CancelEv@imageconversion{000a0000}[101f45ad].dll  - Undefined Reference
    CImageDecoder::DataNewL(RFs&, const TDesC8&, CImageDecoder::TOptions, TUid, TUid, TUid)  - Undefined Reference
    _ZN13CImageDecoder8DataNewLER3RFsRK6TDesC8NS_8TOptionsE4TUidS6_S6_@imageconversion{000a0000}[101f45ad].dll  - Undefined Reference
    CImageDecoder::FileNewL(RFs&, const TDesC16&, CImageDecoder::TOptions, TUid, TUid, TUid)  - Undefined Reference
    _ZN13CImageDecoder8FileNewLER3RFsRK7TDesC16NS_8TOptionsE4TUidS6_S6_@imageconversion{000a0000}[101f45ad].dll  - Undefined Reference
    CImageEncoder::Cancel()                   - Undefined Reference
    _ZN13CImageEncoder6CancelEv@imageconversion{000a0000}[101f45ad].dll  - Undefined Reference
    CImageEncoder::Convert(TRequestStatus*, const CFbsBitmap&, const CFrameImageData*)  - Undefined Reference
    _ZN13CImageEncoder7ConvertEP14TRequestStatusRK10CFbsBitmapPK15CFrameImageData@imageconversion{000a0000}[101f45ad].dll  - Undefined Reference
    CImageEncoder::FileNewL(RFs&, const TDesC16&, CImageEncoder::TOptions, TUid, TUid, TUid)  - Undefined Reference
    _ZN13CImageEncoder8FileNewLER3RFsRK7TDesC16NS_8TOptionsE4TUidS6_S6_@imageconversion{000a0000}[101f45ad].dll  - Undefined Reference
    QMediaService::qt_metacall(QMetaObject::Call, int, void**)  - Undefined Reference
    _ZN13QMediaService11qt_metacallEN11QMetaObject4CallEiPPv@QtMultimediaKit{00010103}[2002ac77].dll  - Undefined Reference
    QMediaService::qt_metacast(const char*)   - Undefined Reference
    _ZN13QMediaService11qt_metacastEPKc@QtMultimediaKit{00010103}[2002ac77].dll  - Undefined Reference
    QMediaService::staticMetaObject           - Undefined Reference
    _ZN13QMediaService16staticMetaObjectE@QtMultimediaKit{00010103}[2002ac77].dll  - Undefined Reference
    QMediaService::QMediaService__sub_object(QObject*)  - Undefined Reference
    _ZN13QMediaServiceC2EP7QObject@QtMultimediaKit{00010103}[2002ac77].dll  - Undefined Reference
    QMediaService::~QMediaService__sub_object()  - Undefined Reference
    _ZN13QMediaServiceD2Ev@QtMultimediaKit{00010103}[2002ac77].dll  - Undefined Reference
    QCameraControl::qt_metacall(QMetaObject::Call, int, void**)  - Undefined Reference
    _ZN14QCameraControl11qt_metacallEN11QMetaObject4CallEiPPv@QtMultimediaKit{00010103}[2002ac77].dll  - Undefined Reference
    QCameraControl::qt_metacast(const char*)  - Undefined Reference
    _ZN14QCameraControl11qt_metacastEPKc@QtMultimediaKit{00010103}[2002ac77].dll  - Undefined Reference
    QCameraControl::stateChanged(QCamera::State)  - Undefined Reference
    _ZN14QCameraControl12stateChangedEN7QCamera5StateE@QtMultimediaKit{00010103}[2002ac77].dll  - Undefined Reference
    QCameraControl::statusChanged(QCamera::Status)  - Undefined Reference
    _ZN14QCameraControl13statusChangedEN7QCamera6StatusE@QtMultimediaKit{00010103}[2002ac77].dll  - Undefined Reference
    QCameraControl::staticMetaObject          - Undefined Reference
    _ZN14QCameraControl16staticMetaObjectE@QtMultimediaKit{00010103}[2002ac77].dll  - Undefined Reference
    QCameraControl::captureModeChanged(QCamera::CaptureMode)  - Undefined Reference
    _ZN14QCameraControl18captureModeChangedEN7QCamera11CaptureModeE@QtMultimediaKit{00010103}[2002ac77].dll  - Undefined Reference
    QCameraControl::error(int, const QString&)  - Undefined Reference
    _ZN14QCameraControl5errorEiRK7QString@QtMultimediaKit{00010103}[2002ac77].dll  - Undefined Reference
    QCameraControl::QCameraControl__sub_object(QObject*)  - Undefined Reference
    _ZN14QCameraControlC2EP7QObject@QtMultimediaKit{00010103}[2002ac77].dll  - Undefined Reference
    QCameraControl::~QCameraControl__sub_object()  - Undefined Reference
    _ZN14QCameraControlD2Ev@QtMultimediaKit{00010103}[2002ac77].dll  - Undefined Reference
    QObjectPrivate::~QObjectPrivate()         - Undefined Reference
    _ZN14QObjectPrivateD1Ev@QtCore{00040703}[2001b2dc].dll  - Undefined Reference
    QWidgetPrivate::createExtra()             - Undefined Reference
    _ZN14QWidgetPrivate11createExtraEv@QtGui{00040703}[2001b2dd].dll  - Undefined Reference
    TJpegImageData::TJpegImageData()          - Undefined Reference
    _ZN14TJpegImageDataC1Ev@imageconversion{000a0000}[101f45ad].dll  - Undefined Reference
    CDesC8ArrayFlat::CDesC8ArrayFlat(int)     - Undefined Reference
    _ZN15CDesC8ArrayFlatC1Ei@bafl{000a0000}[10003a0f].dll  - Undefined Reference
    CFrameImageData::AppendImageData(const TImageDataBlock*)  - Undefined Reference
    _ZN15CFrameImageData15AppendImageDataEPK15TImageDataBlock@imageconversion{000a0000}[101f45ad].dll  - Undefined Reference
    CFrameImageData::NewL()                   - Undefined Reference
    _ZN15CFrameImageData4NewLEv@imageconversion{000a0000}[101f45ad].dll  - Undefined Reference
    CnvUtfConverter::ConvertFromUnicodeToUtf8L(const TDesC16&)  - Undefined Reference
    _ZN15CnvUtfConverter25ConvertFromUnicodeToUtf8LERK7TDesC16@charconv{000a0000}[10003b11].dll  - Undefined Reference
    CnvUtfConverter::ConvertToUnicodeFromUtf8L(const TDesC8&)  - Undefined Reference
    _ZN15CnvUtfConverter25ConvertToUnicodeFromUtf8LERK6TDesC8@charconv{000a0000}[10003b11].dll  - Undefined Reference
    RWindowTreeNode::SetNonFading(int)        - Undefined Reference
    _ZN15RWindowTreeNode12SetNonFadingEi@ws32{000a0000}[10003b21].dll  - Undefined Reference
    RWindowTreeNode::SetOrdinalPosition(int)  - Undefined Reference
    _ZN15RWindowTreeNode18SetOrdinalPositionEi@ws32{000a0000}[10003b21].dll  - Undefined Reference
    CActiveScheduler::Add(CActive*)           - Undefined Reference
    _ZN16CActiveScheduler3AddEP7CActive@euser{000a0000}[100039e5].dll  - Undefined Reference
    CActiveScheduler::Stop()                  - Undefined Reference
    _ZN16CActiveScheduler4StopEv@euser{000a0000}[100039e5].dll  - Undefined Reference
    CActiveScheduler::Start()                 - Undefined Reference
    _ZN16CActiveScheduler5StartEv@euser{000a0000}[100039e5].dll  - Undefined Reference
    CActiveScheduler::Current()               - Undefined Reference
    _ZN16CActiveScheduler7CurrentEv@euser{000a0000}[100039e5].dll  - Undefined Reference
    CActiveScheduler::Install(CActiveScheduler*)  - Undefined Reference
    _ZN16CActiveScheduler7InstallEPS_@euser{000a0000}[100039e5].dll  - Undefined Reference
    CActiveScheduler::CActiveScheduler()      - Undefined Reference
    _ZN16CActiveSchedulerC1Ev@euser{000a0000}[100039e5].dll  - Undefined Reference
    RPointerArrayBase::Close()                - Undefined Reference
    _ZN17RPointerArrayBase5CloseEv@euser{000a0000}[100039e5].dll  - Undefined Reference
    RPointerArrayBase::Reset()                - Undefined Reference
    _ZN17RPointerArrayBase5ResetEv@euser{000a0000}[100039e5].dll  - Undefined Reference
    RPointerArrayBase::RPointerArrayBase()    - Undefined Reference
    _ZN17RPointerArrayBaseC1Ev@euser{000a0000}[100039e5].dll  - Undefined Reference
    CMMFDevVideoRecord::GetEncoderListL(RArray<TUid>&)  - Undefined Reference
    _ZN18CMMFDevVideoRecord15GetEncoderListLER6RArrayI4TUidE@devvideo{000a0000}[101f9ed6].dll  - Undefined Reference
    CMMFDevVideoRecord::VideoEncoderInfoLC(TUid)  - Undefined Reference
    _ZN18CMMFDevVideoRecord18VideoEncoderInfoLCE4TUid@devvideo{000a0000}[101f9ed6].dll  - Undefined Reference
    CMMFDevVideoRecord::NewL(MMMFDevVideoRecordObserver&)  - Undefined Reference
    _ZN18CMMFDevVideoRecord4NewLER26MMMFDevVideoRecordObserver@devvideo{000a0000}[101f9ed6].dll  - Undefined Reference
    QCameraFlashControl::qt_metacall(QMetaObject::Call, int, void**)  - Undefined Reference
    _ZN19QCameraFlashControl11qt_metacallEN11QMetaObject4CallEiPPv@QtMultimediaKit{00010103}[2002ac77].dll  - Undefined Reference
    QCameraFlashControl::qt_metacast(const char*)  - Undefined Reference
    _ZN19QCameraFlashControl11qt_metacastEPKc@QtMultimediaKit{00010103}[2002ac77].dll  - Undefined Reference
    QCameraFlashControl::staticMetaObject     - Undefined Reference
    _ZN19QCameraFlashControl16staticMetaObjectE@QtMultimediaKit{00010103}[2002ac77].dll  - Undefined Reference
    QCameraFlashControl::QCameraFlashControl__sub_object(QObject*)  - Undefined Reference
    _ZN19QCameraFlashControlC2EP7QObject@QtMultimediaKit{00010103}[2002ac77].dll  - Undefined Reference
    QCameraFlashControl::~QCameraFlashControl__sub_object()  - Undefined Reference
    _ZN19QCameraFlashControlD2Ev@QtMultimediaKit{00010103}[2002ac77].dll  - Undefined Reference
    QCameraFocusControl::qt_metacall(QMetaObject::Call, int, void**)  - Undefined Reference
    _ZN19QCameraFocusControl11qt_metacallEN11QMetaObject4CallEiPPv@QtMultimediaKit{00010103}[2002ac77].dll  - Undefined Reference
    QCameraFocusControl::qt_metacast(const char*)  - Undefined Reference
    _ZN19QCameraFocusControl11qt_metacastEPKc@QtMultimediaKit{00010103}[2002ac77].dll  - Undefined Reference
    QCameraFocusControl::staticMetaObject     - Undefined Reference
    _ZN19QCameraFocusControl16staticMetaObjectE@QtMultimediaKit{00010103}[2002ac77].dll  - Undefined Reference
    QCameraFocusControl::digitalZoomChanged(float)  - Undefined Reference
    _ZN19QCameraFocusControl18digitalZoomChangedEf@QtMultimediaKit{00010103}[2002ac77].dll  - Undefined Reference
    QCameraFocusControl::opticalZoomChanged(float)  - Undefined Reference
    _ZN19QCameraFocusControl18opticalZoomChangedEf@QtMultimediaKit{00010103}[2002ac77].dll  - Undefined Reference
    QCameraFocusControl::QCameraFocusControl__sub_object(QObject*)  - Undefined Reference
    _ZN19QCameraFocusControlC2EP7QObject@QtMultimediaKit{00010103}[2002ac77].dll  - Undefined Reference
    QCameraFocusControl::~QCameraFocusControl__sub_object()  - Undefined Reference
    _ZN19QCameraFocusControlD2Ev@QtMultimediaKit{00010103}[2002ac77].dll  - Undefined Reference
    QCameraLocksControl::qt_metacall(QMetaObject::Call, int, void**)  - Undefined Reference
    _ZN19QCameraLocksControl11qt_metacallEN11QMetaObject4CallEiPPv@QtMultimediaKit{00010103}[2002ac77].dll  - Undefined Reference
    QCameraLocksControl::qt_metacast(const char*)  - Undefined Reference
    _ZN19QCameraLocksControl11qt_metacastEPKc@QtMultimediaKit{00010103}[2002ac77].dll  - Undefined Reference
    QCameraLocksControl::staticMetaObject     - Undefined Reference
    _ZN19QCameraLocksControl16staticMetaObjectE@QtMultimediaKit{00010103}[2002ac77].dll  - Undefined Reference
    QCameraLocksControl::lockStatusChanged(QCamera::LockType, QCamera::LockStatus, QCamera::LockChangeReason)  - Undefined Reference
    _ZN19QCameraLocksControl17lockStatusChangedEN7QCamera8LockTypeENS0_10LockStatusENS0_16LockChangeReasonE@QtMultimediaKit{00010103}[2002ac77].dll  - Undefined Reference
    QCameraLocksControl::QCameraLocksControl__sub_object(QObject*)  - Undefined Reference
    _ZN19QCameraLocksControlC2EP7QObject@QtMultimediaKit{00010103}[2002ac77].dll  - Undefined Reference
    QCameraLocksControl::~QCameraLocksControl__sub_object()  - Undefined Reference
    _ZN19QCameraLocksControlD2Ev@QtMultimediaKit{00010103}[2002ac77].dll  - Undefined Reference
    QVideoDeviceControl::qt_metacall(QMetaObject::Call, int, void**)  - Undefined Reference
    _ZN19QVideoDeviceControl11qt_metacallEN11QMetaObject4CallEiPPv@QtMultimediaKit{00010103}[2002ac77].dll  - Undefined Reference
    QVideoDeviceControl::qt_metacast(const char*)  - Undefined Reference
    _ZN19QVideoDeviceControl11qt_metacastEPKc@QtMultimediaKit{00010103}[2002ac77].dll  - Undefined Reference
    QVideoDeviceControl::staticMetaObject     - Undefined Reference
    _ZN19QVideoDeviceControl16staticMetaObjectE@QtMultimediaKit{00010103}[2002ac77].dll  - Undefined Reference
    QVideoDeviceControl::selectedDeviceChanged(const QString&)  - Undefined Reference
    _ZN19QVideoDeviceControl21selectedDeviceChangedERK7QString@QtMultimediaKit{00010103}[2002ac77].dll  - Undefined Reference
    QVideoDeviceControl::selectedDeviceChanged(int)  - Undefined Reference
    _ZN19QVideoDeviceControl21selectedDeviceChangedEi@QtMultimediaKit{00010103}[2002ac77].dll  - Undefined Reference
    QVideoDeviceControl::QVideoDeviceControl__sub_object(QObject*)  - Undefined Reference
    _ZN19QVideoDeviceControlC2EP7QObject@QtMultimediaKit{00010103}[2002ac77].dll  - Undefined Reference
    QVideoDeviceControl::~QVideoDeviceControl__sub_object()  - Undefined Reference
    _ZN19QVideoDeviceControlD2Ev@QtMultimediaKit{00010103}[2002ac77].dll  - Undefined Reference
    QVideoSurfaceFormat::setViewport(const QRect&)  - Undefined Reference
    _ZN19QVideoSurfaceFormat11setViewportERK5QRect@QtMultimediaKit{00010103}[2002ac77].dll  - Undefined Reference
    QVideoSurfaceFormat::setFrameRate(float)  - Undefined Reference
    _ZN19QVideoSurfaceFormat12setFrameRateEf@QtMultimediaKit{00010103}[2002ac77].dll  - Undefined Reference
    QVideoSurfaceFormat::setFrameSize(const QSize&)  - Undefined Reference
    _ZN19QVideoSurfaceFormat12setFrameSizeERK5QSize@QtMultimediaKit{00010103}[2002ac77].dll  - Undefined Reference
    QVideoSurfaceFormat::setYCbCrColorSpace(QVideoSurfaceFormat::YCbCrColorSpace)  - Undefined Reference
    _ZN19QVideoSurfaceFormat18setYCbCrColorSpaceENS_15YCbCrColorSpaceE@QtMultimediaKit{00010103}[2002ac77].dll  - Undefined Reference
    QVideoSurfaceFormat::setPixelAspectRatio(int, int)  - Undefined Reference
    _ZN19QVideoSurfaceFormat19setPixelAspectRatioEii@QtMultimediaKit{00010103}[2002ac77].dll  - Undefined Reference
    QVideoSurfaceFormat::QVideoSurfaceFormat(const QSize&, QVideoFrame::PixelFormat, QAbstractVideoBuffer::HandleType)  - Undefined Reference
    _ZN19QVideoSurfaceFormatC1ERK5QSizeN11QVideoFrame11PixelFormatEN20QAbstractVideoBuffer10HandleTypeE@QtMultimediaKit{00010103}[2002ac77].dll  - Undefined Reference
    QVideoSurfaceFormat::QVideoSurfaceFormat()  - Undefined Reference
    _ZN19QVideoSurfaceFormatC1Ev@QtMultimediaKit{00010103}[2002ac77].dll  - Undefined Reference
    QVideoSurfaceFormat::~QVideoSurfaceFormat()  - Undefined Reference
    _ZN19QVideoSurfaceFormatD1Ev@QtMultimediaKit{00010103}[2002ac77].dll  - Undefined Reference
    QVideoSurfaceFormat::operator =(const QVideoSurfaceFormat&)  - Undefined Reference
    _ZN19QVideoSurfaceFormataSERKS_@QtMultimediaKit{00010103}[2002ac77].dll  - Undefined Reference
    QVideoWidgetControl::qt_metacall(QMetaObject::Call, int, void**)  - Undefined Reference
    _ZN19QVideoWidgetControl11qt_metacallEN11QMetaObject4CallEiPPv@QtMultimediaKit{00010103}[2002ac77].dll  - Undefined Reference
    QVideoWidgetControl::qt_metacast(const char*)  - Undefined Reference
    _ZN19QVideoWidgetControl11qt_metacastEPKc@QtMultimediaKit{00010103}[2002ac77].dll  - Undefined Reference
    QVideoWidgetControl::staticMetaObject     - Undefined Reference
    _ZN19QVideoWidgetControl16staticMetaObjectE@QtMultimediaKit{00010103}[2002ac77].dll  - Undefined Reference
    QVideoWidgetControl::QVideoWidgetControl__sub_object(QObject*)  - Undefined Reference
    _ZN19QVideoWidgetControlC2EP7QObject@QtMultimediaKit{00010103}[2002ac77].dll  - Undefined Reference
    QVideoWidgetControl::~QVideoWidgetControl__sub_object()  - Undefined Reference
    _ZN19QVideoWidgetControlD2Ev@QtMultimediaKit{00010103}[2002ac77].dll  - Undefined Reference
    QVideoWindowControl::qt_metacall(QMetaObject::Call, int, void**)  - Undefined Reference
    _ZN19QVideoWindowControl11qt_metacallEN11QMetaObject4CallEiPPv@QtMultimediaKit{00010103}[2002ac77].dll  - Undefined Reference
    QVideoWindowControl::qt_metacast(const char*)  - Undefined Reference
    _ZN19QVideoWindowControl11qt_metacastEPKc@QtMultimediaKit{00010103}[2002ac77].dll  - Undefined Reference
    QVideoWindowControl::staticMetaObject     - Undefined Reference
    _ZN19QVideoWindowControl16staticMetaObjectE@QtMultimediaKit{00010103}[2002ac77].dll  - Undefined Reference
    QVideoWindowControl::QVideoWindowControl__sub_object(QObject*)  - Undefined Reference
    _ZN19QVideoWindowControlC2EP7QObject@QtMultimediaKit{00010103}[2002ac77].dll  - Undefined Reference
    QVideoWindowControl::~QVideoWindowControl__sub_object()  - Undefined Reference
    _ZN19QVideoWindowControlD2Ev@QtMultimediaKit{00010103}[2002ac77].dll  - Undefined Reference
    QAudioEncoderControl::qt_metacall(QMetaObject::Call, int, void**)  - Undefined Reference
    _ZN20QAudioEncoderControl11qt_metacallEN11QMetaObject4CallEiPPv@QtMultimediaKit{00010103}[2002ac77].dll  - Undefined Reference
    QAudioEncoderControl::qt_metacast(const char*)  - Undefined Reference
    _ZN20QAudioEncoderControl11qt_metacastEPKc@QtMultimediaKit{00010103}[2002ac77].dll  - Undefined Reference
    QAudioEncoderControl::staticMetaObject    - Undefined Reference
    _ZN20QAudioEncoderControl16staticMetaObjectE@QtMultimediaKit{00010103}[2002ac77].dll  - Undefined Reference
    QAudioEncoderControl::QAudioEncoderControl__sub_object(QObject*)  - Undefined Reference
    _ZN20QAudioEncoderControlC2EP7QObject@QtMultimediaKit{00010103}[2002ac77].dll  - Undefined Reference
    QAudioEncoderControl::~QAudioEncoderControl__sub_object()  - Undefined Reference
    _ZN20QAudioEncoderControlD2Ev@QtMultimediaKit{00010103}[2002ac77].dll  - Undefined Reference
    QImageEncoderControl::qt_metacall(QMetaObject::Call, int, void**)  - Undefined Reference
    _ZN20QImageEncoderControl11qt_metacallEN11QMetaObject4CallEiPPv@QtMultimediaKit{00010103}[2002ac77].dll  - Undefined Reference
    QImageEncoderControl::qt_metacast(const char*)  - Undefined Reference
    _ZN20QImageEncoderControl11qt_metacastEPKc@QtMultimediaKit{00010103}[2002ac77].dll  - Undefined Reference
    QImageEncoderControl::staticMetaObject    - Undefined Reference
    _ZN20QImageEncoderControl16staticMetaObjectE@QtMultimediaKit{00010103}[2002ac77].dll  - Undefined Reference
    QImageEncoderControl::QImageEncoderControl__sub_object(QObject*)  - Undefined Reference
    _ZN20QImageEncoderControlC2EP7QObject@QtMultimediaKit{00010103}[2002ac77].dll  - Undefined Reference
    QImageEncoderControl::~QImageEncoderControl__sub_object()  - Undefined Reference
    _ZN20QImageEncoderControlD2Ev@QtMultimediaKit{00010103}[2002ac77].dll  - Undefined Reference
    QVideoEncoderControl::qt_metacall(QMetaObject::Call, int, void**)  - Undefined Reference
    _ZN20QVideoEncoderControl11qt_metacallEN11QMetaObject4CallEiPPv@QtMultimediaKit{00010103}[2002ac77].dll  - Undefined Reference
    QVideoEncoderControl::qt_metacast(const char*)  - Undefined Reference
    _ZN20QVideoEncoderControl11qt_metacastEPKc@QtMultimediaKit{00010103}[2002ac77].dll  - Undefined Reference
    QVideoEncoderControl::staticMetaObject    - Undefined Reference
    _ZN20QVideoEncoderControl16staticMetaObjectE@QtMultimediaKit{00010103}[2002ac77].dll  - Undefined Reference
    QVideoEncoderControl::QVideoEncoderControl__sub_object(QObject*)  - Undefined Reference
    _ZN20QVideoEncoderControlC2EP7QObject@QtMultimediaKit{00010103}[2002ac77].dll  - Undefined Reference
    QVideoEncoderControl::~QVideoEncoderControl__sub_object()  - Undefined Reference
    _ZN20QVideoEncoderControlD2Ev@QtMultimediaKit{00010103}[2002ac77].dll  - Undefined Reference
    CVideoRecorderUtility::SetAudioTypeL(TFourCC)  - Undefined Reference
    _ZN21CVideoRecorderUtility13SetAudioTypeLE7TFourCC@mediaclientvideo{000a0000}[101f4569].dll  - Undefined Reference
    CVideoRecorderUtility::SetVideoTypeL(const TDesC8&)  - Undefined Reference
    _ZN21CVideoRecorderUtility13SetVideoTypeLERK6TDesC8@mediaclientvideo{000a0000}[101f4569].dll  - Undefined Reference
    CVideoRecorderUtility::VideoBitRateL()    - Undefined Reference
    _ZN21CVideoRecorderUtility13VideoBitRateLEv@mediaclientvideo{000a0000}[101f4569].dll  - Undefined Reference
    CVideoRecorderUtility::SetMaxClipSizeL(int)  - Undefined Reference
    _ZN21CVideoRecorderUtility15SetMaxClipSizeLEi@mediaclientvideo{000a0000}[101f4569].dll  - Undefined Reference
    CVideoRecorderUtility::SetAudioBitRateL(int)  - Undefined Reference
    _ZN21CVideoRecorderUtility16SetAudioBitRateLEi@mediaclientvideo{000a0000}[101f4569].dll  - Undefined Reference
    CVideoRecorderUtility::SetAudioEnabledL(int)  - Undefined Reference
    _ZN21CVideoRecorderUtility16SetAudioEnabledLEi@mediaclientvideo{000a0000}[101f4569].dll  - Undefined Reference
    CVideoRecorderUtility::SetVideoBitRateL(int)  - Undefined Reference
    _ZN21CVideoRecorderUtility16SetVideoBitRateLEi@mediaclientvideo{000a0000}[101f4569].dll  - Undefined Reference
    CVideoRecorderUtility::SetAudioChannelsL(unsigned)  - Undefined Reference
    _ZN21CVideoRecorderUtility17SetAudioChannelsLEj@mediaclientvideo{000a0000}[101f4569].dll  - Undefined Reference
    CVideoRecorderUtility::SetVideoFrameRateL(float)  - Undefined Reference
    _ZN21CVideoRecorderUtility18SetVideoFrameRateLEf@mediaclientvideo{000a0000}[101f4569].dll  - Undefined Reference
    CVideoRecorderUtility::SetVideoFrameSizeL(const TSize&)  - Undefined Reference
    _ZN21CVideoRecorderUtility18SetVideoFrameSizeLERK5TSize@mediaclientvideo{000a0000}[101f4569].dll  - Undefined Reference
    CVideoRecorderUtility::SetAudioSampleRateL(unsigned)  - Undefined Reference
    _ZN21CVideoRecorderUtility19SetAudioSampleRateLEj@mediaclientvideo{000a0000}[101f4569].dll  - Undefined Reference
    CVideoRecorderUtility::SetPixelAspectRatioL(const TVideoAspectRatio&)  - Undefined Reference
    _ZN21CVideoRecorderUtility20SetPixelAspectRatioLERK17TVideoAspectRatio@mediaclientvideo{000a0000}[101f4569].dll  - Undefined Reference
    CVideoRecorderUtility::NewL(MVideoRecorderUtilityObserver&, int, int)  - Undefined Reference
    _ZN21CVideoRecorderUtility4NewLER29MVideoRecorderUtilityObserverii@mediaclientvideo{000a0000}[101f4569].dll  - Undefined Reference
    CVideoRecorderUtility::Stop()             - Undefined Reference
    _ZN21CVideoRecorderUtility4StopEv@mediaclientvideo{000a0000}[101f4569].dll  - Undefined Reference
    CVideoRecorderUtility::Close()            - Undefined Reference
    _ZN21CVideoRecorderUtility5CloseEv@mediaclientvideo{000a0000}[101f4569].dll  - Undefined Reference
    CVideoRecorderUtility::PauseL()           - Undefined Reference
    _ZN21CVideoRecorderUtility6PauseLEv@mediaclientvideo{000a0000}[101f4569].dll  - Undefined Reference
    CVideoRecorderUtility::Record()           - Undefined Reference
    _ZN21CVideoRecorderUtility6RecordEv@mediaclientvideo{000a0000}[101f4569].dll  - Undefined Reference
    CVideoRecorderUtility::Prepare()          - Undefined Reference
    _ZN21CVideoRecorderUtility7PrepareEv@mediaclientvideo{000a0000}[101f4569].dll  - Undefined Reference
    CVideoRecorderUtility::SetGainL(int)      - Undefined Reference
    _ZN21CVideoRecorderUtility8SetGainLEi@mediaclientvideo{000a0000}[101f4569].dll  - Undefined Reference
    CVideoRecorderUtility::OpenFileL(const TDesC16&, int, TUid, TUid, const TDesC8&, TFourCC)  - Undefined Reference
    _ZN21CVideoRecorderUtility9OpenFileLERK7TDesC16i4TUidS3_RK6TDesC87TFourCC@mediaclientvideo{000a0000}[101f4569].dll  - Undefined Reference
    QAudioEncoderSettings::setBitRate(int)    - Undefined Reference
    _ZN21QAudioEncoderSettings10setBitRateEi@QtMultimediaKit{00010103}[2002ac77].dll  - Undefined Reference
    QAudioEncoderSettings::setQuality(QtMultimediaKit::EncodingQuality)  - Undefined Reference
    _ZN21QAudioEncoderSettings10setQualityEN15QtMultimediaKit15EncodingQualityE@QtMultimediaKit{00010103}[2002ac77].dll  - Undefined Reference
    QAudioEncoderSettings::setSampleRate(int)  - Undefined Reference
    _ZN21QAudioEncoderSettings13setSampleRateEi@QtMultimediaKit{00010103}[2002ac77].dll  - Undefined Reference
    QAudioEncoderSettings::setChannelCount(int)  - Undefined Reference
    _ZN21QAudioEncoderSettings15setChannelCountEi@QtMultimediaKit{00010103}[2002ac77].dll  - Undefined Reference
    QAudioEncoderSettings::setEncodingMode(QtMultimediaKit::EncodingMode)  - Undefined Reference
    _ZN21QAudioEncoderSettings15setEncodingModeEN15QtMultimediaKit12EncodingModeE@QtMultimediaKit{00010103}[2002ac77].dll  - Undefined Reference
    QAudioEncoderSettings::setCodec(const QString&)  - Undefined Reference
    _ZN21QAudioEncoderSettings8setCodecERK7QString@QtMultimediaKit{00010103}[2002ac77].dll  - Undefined Reference
    QAudioEncoderSettings::QAudioEncoderSettings()  - Undefined Reference
    _ZN21QAudioEncoderSettingsC1Ev@QtMultimediaKit{00010103}[2002ac77].dll  - Undefined Reference
    QAudioEncoderSettings::~QAudioEncoderSettings()  - Undefined Reference
    _ZN21QAudioEncoderSettingsD1Ev@QtMultimediaKit{00010103}[2002ac77].dll  - Undefined Reference
    QAudioEncoderSettings::operator =(const QAudioEncoderSettings&)  - Undefined Reference
    _ZN21QAudioEncoderSettingsaSERKS_@QtMultimediaKit{00010103}[2002ac77].dll  - Undefined Reference
    QImageEncoderSettings::setQuality(QtMultimediaKit::EncodingQuality)  - Undefined Reference
    _ZN21QImageEncoderSettings10setQualityEN15QtMultimediaKit15EncodingQualityE@QtMultimediaKit{00010103}[2002ac77].dll  - Undefined Reference
    QImageEncoderSettings::setResolution(const QSize&)  - Undefined Reference
    _ZN21QImageEncoderSettings13setResolutionERK5QSize@QtMultimediaKit{00010103}[2002ac77].dll  - Undefined Reference
    QImageEncoderSettings::setCodec(const QString&)  - Undefined Reference
    _ZN21QImageEncoderSettings8setCodecERK7QString@QtMultimediaKit{00010103}[2002ac77].dll  - Undefined Reference
    QImageEncoderSettings::QImageEncoderSettings()  - Undefined Reference
    _ZN21QImageEncoderSettingsC1Ev@QtMultimediaKit{00010103}[2002ac77].dll  - Undefined Reference
    QImageEncoderSettings::~QImageEncoderSettings()  - Undefined Reference
    _ZN21QImageEncoderSettingsD1Ev@QtMultimediaKit{00010103}[2002ac77].dll  - Undefined Reference
    QMediaRecorderControl::qt_metacall(QMetaObject::Call, int, void**)  - Undefined Reference
    _ZN21QMediaRecorderControl11qt_metacallEN11QMetaObject4CallEiPPv@QtMultimediaKit{00010103}[2002ac77].dll  - Undefined Reference
    QMediaRecorderControl::qt_metacast(const char*)  - Undefined Reference
    _ZN21QMediaRecorderControl11qt_metacastEPKc@QtMultimediaKit{00010103}[2002ac77].dll  - Undefined Reference
    QMediaRecorderControl::stateChanged(QMediaRecorder::State)  - Undefined Reference
    _ZN21QMediaRecorderControl12stateChangedEN14QMediaRecorder5StateE@QtMultimediaKit{00010103}[2002ac77].dll  - Undefined Reference
    QMediaRecorderControl::staticMetaObject   - Undefined Reference
    _ZN21QMediaRecorderControl16staticMetaObjectE@QtMultimediaKit{00010103}[2002ac77].dll  - Undefined Reference
    QMediaRecorderControl::error(int, const QString&)  - Undefined Reference
    _ZN21QMediaRecorderControl5errorEiRK7QString@QtMultimediaKit{00010103}[2002ac77].dll  - Undefined Reference
    QMediaRecorderControl::QMediaRecorderControl__sub_object(QObject*)  - Undefined Reference
    _ZN21QMediaRecorderControlC2EP7QObject@QtMultimediaKit{00010103}[2002ac77].dll  - Undefined Reference
    QMediaRecorderControl::~QMediaRecorderControl__sub_object()  - Undefined Reference
    _ZN21QMediaRecorderControlD2Ev@QtMultimediaKit{00010103}[2002ac77].dll  - Undefined Reference
    QVideoEncoderSettings::setBitRate(int)    - Undefined Reference
    _ZN21QVideoEncoderSettings10setBitRateEi@QtMultimediaKit{00010103}[2002ac77].dll  - Undefined Reference
    QVideoEncoderSettings::setQuality(QtMultimediaKit::EncodingQuality)  - Undefined Reference
    _ZN21QVideoEncoderSettings10setQualityEN15QtMultimediaKit15EncodingQualityE@QtMultimediaKit{00010103}[2002ac77].dll  - Undefined Reference
    QVideoEncoderSettings::setFrameRate(float)  - Undefined Reference
    _ZN21QVideoEncoderSettings12setFrameRateEf@QtMultimediaKit{00010103}[2002ac77].dll  - Undefined Reference
    QVideoEncoderSettings::setResolution(const QSize&)  - Undefined Reference
    _ZN21QVideoEncoderSettings13setResolutionERK5QSize@QtMultimediaKit{00010103}[2002ac77].dll  - Undefined Reference
    QVideoEncoderSettings::setEncodingMode(QtMultimediaKit::EncodingMode)  - Undefined Reference
    _ZN21QVideoEncoderSettings15setEncodingModeEN15QtMultimediaKit12EncodingModeE@QtMultimediaKit{00010103}[2002ac77].dll  - Undefined Reference
    QVideoEncoderSettings::setCodec(const QString&)  - Undefined Reference
    _ZN21QVideoEncoderSettings8setCodecERK7QString@QtMultimediaKit{00010103}[2002ac77].dll  - Undefined Reference
    QVideoEncoderSettings::QVideoEncoderSettings()  - Undefined Reference
    _ZN21QVideoEncoderSettingsC1Ev@QtMultimediaKit{00010103}[2002ac77].dll  - Undefined Reference
    QVideoEncoderSettings::~QVideoEncoderSettings()  - Undefined Reference
    _ZN21QVideoEncoderSettingsD1Ev@QtMultimediaKit{00010103}[2002ac77].dll  - Undefined Reference
    QVideoEncoderSettings::operator =(const QVideoEncoderSettings&)  - Undefined Reference
    _ZN21QVideoEncoderSettingsaSERKS_@QtMultimediaKit{00010103}[2002ac77].dll  - Undefined Reference
    QVideoRendererControl::qt_metacall(QMetaObject::Call, int, void**)  - Undefined Reference
    _ZN21QVideoRendererControl11qt_metacallEN11QMetaObject4CallEiPPv@QtMultimediaKit{00010103}[2002ac77].dll  - Undefined Reference
    QVideoRendererControl::qt_metacast(const char*)  - Undefined Reference
    _ZN21QVideoRendererControl11qt_metacastEPKc@QtMultimediaKit{00010103}[2002ac77].dll  - Undefined Reference
    QVideoRendererControl::staticMetaObject   - Undefined Reference
    _ZN21QVideoRendererControl16staticMetaObjectE@QtMultimediaKit{00010103}[2002ac77].dll  - Undefined Reference
    QVideoRendererControl::QVideoRendererControl__sub_object(QObject*)  - Undefined Reference
    _ZN21QVideoRendererControlC2EP7QObject@QtMultimediaKit{00010103}[2002ac77].dll  - Undefined Reference
    QVideoRendererControl::~QVideoRendererControl__sub_object()  - Undefined Reference
    _ZN21QVideoRendererControlD2Ev@QtMultimediaKit{00010103}[2002ac77].dll  - Undefined Reference
    QCameraExposureControl::qt_metacall(QMetaObject::Call, int, void**)  - Undefined Reference
    _ZN22QCameraExposureControl11qt_metacallEN11QMetaObject4CallEiPPv@QtMultimediaKit{00010103}[2002ac77].dll  - Undefined Reference
    QCameraExposureControl::qt_metacast(const char*)  - Undefined Reference
    _ZN22QCameraExposureControl11qt_metacastEPKc@QtMultimediaKit{00010103}[2002ac77].dll  - Undefined Reference
    QCameraExposureControl::staticMetaObject  - Undefined Reference
    _ZN22QCameraExposureControl16staticMetaObjectE@QtMultimediaKit{00010103}[2002ac77].dll  - Undefined Reference
    QCameraExposureControl::exposureParameterChanged(int)  - Undefined Reference
    _ZN22QCameraExposureControl24exposureParameterChangedEi@QtMultimediaKit{00010103}[2002ac77].dll  - Undefined Reference
    QCameraExposureControl::exposureParameterRangeChanged(int)  - Undefined Reference
    _ZN22QCameraExposureControl29exposureParameterRangeChangedEi@QtMultimediaKit{00010103}[2002ac77].dll  - Undefined Reference
    QCameraExposureControl::QCameraExposureControl__sub_object(QObject*)  - Undefined Reference
    _ZN22QCameraExposureControlC2EP7QObject@QtMultimediaKit{00010103}[2002ac77].dll  - Undefined Reference
    QCameraExposureControl::~QCameraExposureControl__sub_object()  - Undefined Reference
    _ZN22QCameraExposureControlD2Ev@QtMultimediaKit{00010103}[2002ac77].dll  - Undefined Reference
    QMediaContainerControl::qt_metacall(QMetaObject::Call, int, void**)  - Undefined Reference
    _ZN22QMediaContainerControl11qt_metacallEN11QMetaObject4CallEiPPv@QtMultimediaKit{00010103}[2002ac77].dll  - Undefined Reference
    QMediaContainerControl::qt_metacast(const char*)  - Undefined Reference
    _ZN22QMediaContainerControl11qt_metacastEPKc@QtMultimediaKit{00010103}[2002ac77].dll  - Undefined Reference
    QMediaContainerControl::staticMetaObject  - Undefined Reference
    _ZN22QMediaContainerControl16staticMetaObjectE@QtMultimediaKit{00010103}[2002ac77].dll  - Undefined Reference
    QMediaContainerControl::QMediaContainerControl__sub_object(QObject*)  - Undefined Reference
    _ZN22QMediaContainerControlC2EP7QObject@QtMultimediaKit{00010103}[2002ac77].dll  - Undefined Reference
    QMediaContainerControl::~QMediaContainerControl__sub_object()  - Undefined Reference
    _ZN22QMediaContainerControlD2Ev@QtMultimediaKit{00010103}[2002ac77].dll  - Undefined Reference
    QCameraImageCaptureControl::qt_metacall(QMetaObject::Call, int, void**)  - Undefined Reference
    _ZN26QCameraImageCaptureControl11qt_metacallEN11QMetaObject4CallEiPPv@QtMultimediaKit{00010103}[2002ac77].dll  - Undefined Reference
    QCameraImageCaptureControl::qt_metacast(const char*)  - Undefined Reference
    _ZN26QCameraImageCaptureControl11qt_metacastEPKc@QtMultimediaKit{00010103}[2002ac77].dll  - Undefined Reference
    QCameraImageCaptureControl::staticMetaObject  - Undefined Reference
    _ZN26QCameraImageCaptureControl16staticMetaObjectE@QtMultimediaKit{00010103}[2002ac77].dll  - Undefined Reference
    QCameraImageCaptureControl::error(int, int, const QString&)  - Undefined Reference
    _ZN26QCameraImageCaptureControl5errorEiiRK7QString@QtMultimediaKit{00010103}[2002ac77].dll  - Undefined Reference
    QCameraImageCaptureControl::QCameraImageCaptureControl__sub_object(QObject*)  - Undefined Reference
    _ZN26QCameraImageCaptureControlC2EP7QObject@QtMultimediaKit{00010103}[2002ac77].dll  - Undefined Reference
    QCameraImageCaptureControl::~QCameraImageCaptureControl__sub_object()  - Undefined Reference
    _ZN26QCameraImageCaptureControlD2Ev@QtMultimediaKit{00010103}[2002ac77].dll  - Undefined Reference
    QMediaServiceProviderPlugin::qt_metacall(QMetaObject::Call, int, void**)  - Undefined Reference
    _ZN27QMediaServiceProviderPlugin11qt_metacallEN11QMetaObject4CallEiPPv@QtMultimediaKit{00010103}[2002ac77].dll  - Undefined Reference
    QMediaServiceProviderPlugin::qt_metacast(const char*)  - Undefined Reference
    _ZN27QMediaServiceProviderPlugin11qt_metacastEPKc@QtMultimediaKit{00010103}[2002ac77].dll  - Undefined Reference
    QMediaServiceProviderPlugin::staticMetaObject  - Undefined Reference
    _ZN27QMediaServiceProviderPlugin16staticMetaObjectE@QtMultimediaKit{00010103}[2002ac77].dll  - Undefined Reference
    CMMFFormatSelectionParameters::NewLC()    - Undefined Reference
    _ZN29CMMFFormatSelectionParameters5NewLCEv@mmfcontrollerframework{000a0000}[101f76dd].dll  - Undefined Reference
    CMMFPluginSelectionParameters::SetMediaIdsL(const RArray<TUid>&, CMMFPluginSelectionParameters::TMediaIdMatchType)  - Undefined Reference
    _ZN29CMMFPluginSelectionParameters12SetMediaIdsLERK6RArrayI4TUidENS_17TMediaIdMatchTypeE@mmfcontrollerframework{000a0000}[101f76dd].dll  - Undefined Reference
    CMMFPluginSelectionParameters::SetPreferredSupplierL(const TDesC16&, CMMFPluginSelectionParameters::TPreferredSupplierMatchType)  - Undefined Reference
    _ZN29CMMFPluginSelectionParameters21SetPreferredSupplierLERK7TDesC16NS_27TPreferredSupplierMatchTypeE@mmfcontrollerframework{000a0000}[101f76dd].dll  - Undefined Reference
    QCameraImageProcessingControl::qt_metacall(QMetaObject::Call, int, void**)  - Undefined Reference
    _ZN29QCameraImageProcessingControl11qt_metacallEN11QMetaObject4CallEiPPv@QtMultimediaKit{00010103}[2002ac77].dll  - Undefined Reference
    QCameraImageProcessingControl::qt_metacast(const char*)  - Undefined Reference
    _ZN29QCameraImageProcessingControl11qt_metacastEPKc@QtMultimediaKit{00010103}[2002ac77].dll  - Undefined Reference
    QCameraImageProcessingControl::staticMetaObject  - Undefined Reference
    _ZN29QCameraImageProcessingControl16staticMetaObjectE@QtMultimediaKit{00010103}[2002ac77].dll  - Undefined Reference
    QCameraImageProcessingControl::QCameraImageProcessingControl__sub_object(QObject*)  - Undefined Reference
    _ZN29QCameraImageProcessingControlC2EP7QObject@QtMultimediaKit{00010103}[2002ac77].dll  - Undefined Reference
    QCameraImageProcessingControl::~QCameraImageProcessingControl__sub_object()  - Undefined Reference
    _ZN29QCameraImageProcessingControlD2Ev@QtMultimediaKit{00010103}[2002ac77].dll  - Undefined Reference
    CMMFControllerPluginSelectionParameters::SetRequiredPlayFormatSupportL(const CMMFFormatSelectionParameters&)  - Undefined Reference
    _ZN39CMMFControllerPluginSelectionParameters29SetRequiredPlayFormatSupportLERK29CMMFFormatSelectionParameters@mmfcontrollerframework{000a0000}[101f76dd].dll  - Undefined Reference
    CMMFControllerPluginSelectionParameters::SetRequiredRecordFormatSupportL(const CMMFFormatSelectionParameters&)  - Undefined Reference
    _ZN39CMMFControllerPluginSelectionParameters31SetRequiredRecordFormatSupportLERK29CMMFFormatSelectionParameters@mmfcontrollerframework{000a0000}[101f76dd].dll  - Undefined Reference
    CMMFControllerPluginSelectionParameters::NewLC()  - Undefined Reference
    _ZN39CMMFControllerPluginSelectionParameters5NewLCEv@mmfcontrollerframework{000a0000}[101f76dd].dll  - Undefined Reference
    RFs::Close()                              - Undefined Reference
    _ZN3RFs5CloseEv@efsrv{000a0000}[100039e4].dll  - Undefined Reference
    RFs::Connect(int)                         - Undefined Reference
    _ZN3RFs7ConnectEi@efsrv{000a0000}[100039e4].dll  - Undefined Reference
    QDir::toNativeSeparators(const QString&)  - Undefined Reference
    _ZN4QDir18toNativeSeparatorsERK7QString@QtCore{00040703}[2001b2dc].dll  - Undefined Reference
    QDir::rootPath()                          - Undefined Reference
    _ZN4QDir8rootPathEv@QtCore{00040703}[2001b2dc].dll  - Undefined Reference
    QDir::QDir(const QString&)                - Undefined Reference
    _ZN4QDirC1ERK7QString@QtCore{00040703}[2001b2dc].dll  - Undefined Reference
    QDir::~QDir()                             - Undefined Reference
    _ZN4QDirD1Ev@QtCore{00040703}[2001b2dc].dll  - Undefined Reference
    QUrl::setUrl(const QString&)              - Undefined Reference
    _ZN4QUrl6setUrlERK7QString@QtCore{00040703}[2001b2dc].dll  - Undefined Reference
    QUrl::QUrl(const QString&)                - Undefined Reference
    _ZN4QUrlC1ERK7QString@QtCore{00040703}[2001b2dc].dll  - Undefined Reference
    QUrl::QUrl(const QUrl&)                   - Undefined Reference
    _ZN4QUrlC1ERKS_@QtCore{00040703}[2001b2dc].dll  - Undefined Reference
    QUrl::QUrl()                              - Undefined Reference
    _ZN4QUrlC1Ev@QtCore{00040703}[2001b2dc].dll  - Undefined Reference
    QUrl::~QUrl()                             - Undefined Reference
    _ZN4QUrlD1Ev@QtCore{00040703}[2001b2dc].dll  - Undefined Reference
    QUrl::operator =(const QUrl&)             - Undefined Reference
    _ZN4QUrlaSERKS_@QtCore{00040703}[2001b2dc].dll  - Undefined Reference
    User::LeaveIfError(int)                   - Undefined Reference
    _ZN4User12LeaveIfErrorEi@euser{000a0000}[100039e5].dll  - Undefined Reference
    User::MarkCleanupStack()                  - Undefined Reference
    _ZN4User16MarkCleanupStackEv@euser{000a0000}[100039e5].dll  - Undefined Reference
    User::UnMarkCleanupStack(TTrapHandler*)   - Undefined Reference
    _ZN4User18UnMarkCleanupStackEP12TTrapHandler@euser{000a0000}[100039e5].dll  - Undefined Reference
    User::Leave(int)                          - Undefined Reference
    _ZN4User5LeaveEi@euser{000a0000}[100039e5].dll  - Undefined Reference
    User::Panic(const TDesC16&, int)          - Undefined Reference
    _ZN4User5PanicERK7TDesC16i@euser{000a0000}[100039e5].dll  - Undefined Reference
    User::AllocL(int)                         - Undefined Reference
    _ZN4User6AllocLEi@euser{000a0000}[100039e5].dll  - Undefined Reference
    User::AllocZ(int)                         - Undefined Reference
    _ZN4User6AllocZEi@euser{000a0000}[100039e5].dll  - Undefined Reference
    User::AllocZL(int)                        - Undefined Reference
    _ZN4User7AllocZLEi@euser{000a0000}[100039e5].dll  - Undefined Reference
    User::Invariant()                         - Undefined Reference
    _ZN4User9InvariantEv@euser{000a0000}[100039e5].dll  - Undefined Reference
    User::LockedDec(int&)                     - Undefined Reference
    _ZN4User9LockedDecERi@euser{000a0000}[100039e5].dll  - Undefined Reference
    User::LockedInc(int&)                     - Undefined Reference
    _ZN4User9LockedIncERi@euser{000a0000}[100039e5].dll  - Undefined Reference
    CBase::Extension_(unsigned, void*&, void*)  - Undefined Reference
    _ZN5CBase10Extension_EjRPvS0_@euser{000a0000}[100039e5].dll  - Undefined Reference
    CBase::~CBase()                           - Undefined Reference
    _ZN5CBaseD1Ev@euser{000a0000}[100039e5].dll  - Undefined Reference
    QChar::QChar(char)                        - Undefined Reference
    _ZN5QCharC1Ec@QtCore{00040703}[2001b2dc].dll  - Undefined Reference
    QIcon::QIcon()                            - Undefined Reference
    _ZN5QIconC1Ev@QtGui{00040703}[2001b2dd].dll  - Undefined Reference
    RFile::Close()                            - Undefined Reference
    _ZN5RFile5CloseEv@efsrv{000a0000}[100039e4].dll  - Undefined Reference
    RFile::Write(const TDesC8&)               - Undefined Reference
    _ZN5RFile5WriteERK6TDesC8@efsrv{000a0000}[100039e4].dll  - Undefined Reference
    RFile::Replace(RFs&, const TDesC16&, unsigned)  - Undefined Reference
    _ZN5RFile7ReplaceER3RFsRK7TDesC16j@efsrv{000a0000}[100039e4].dll  - Undefined Reference
    TRect::TRect(const TPoint&, const TSize&)  - Undefined Reference
    _ZN5TRectC1ERK6TPointRK5TSize@euser{000a0000}[100039e5].dll  - Undefined Reference
    TRect::TRect()                            - Undefined Reference
    _ZN5TRectC1Ev@euser{000a0000}[100039e5].dll  - Undefined Reference
    TSize::SetSize(int, int)                  - Undefined Reference
    _ZN5TSize7SetSizeEii@euser{000a0000}[100039e5].dll  - Undefined Reference
    QImage::~QImage()                         - Undefined Reference
    _ZN6QImageD1Ev@QtGui{00040703}[2001b2dd].dll  - Undefined Reference
    QImage::operator =(const QImage&)         - Undefined Reference
    _ZN6QImageaSERKS_@QtGui{00040703}[2001b2dd].dll  - Undefined Reference
    QTimer::setInterval(int)                  - Undefined Reference
    _ZN6QTimer11setIntervalEi@QtCore{00040703}[2001b2dc].dll  - Undefined Reference
    QTimer::stop()                            - Undefined Reference
    _ZN6QTimer4stopEv@QtCore{00040703}[2001b2dc].dll  - Undefined Reference
    QTimer::start(int)                        - Undefined Reference
    _ZN6QTimer5startEi@QtCore{00040703}[2001b2dc].dll  - Undefined Reference
    QTimer::start()                           - Undefined Reference
    _ZN6QTimer5startEv@QtCore{00040703}[2001b2dc].dll  - Undefined Reference
    QTimer::QTimer(QObject*)                  - Undefined Reference
    _ZN6QTimerC1EP7QObject@QtCore{00040703}[2001b2dc].dll  - Undefined Reference
    TDes16::Append(const TDesC16&)            - Undefined Reference
    _ZN6TDes166AppendERK7TDesC16@euser{000a0000}[100039e5].dll  - Undefined Reference
    CActive::Extension_(unsigned, void*&, void*)  - Undefined Reference
    _ZN7CActive10Extension_EjRPvS0_@euser{000a0000}[100039e5].dll  - Undefined Reference
    CActive::Cancel()                         - Undefined Reference
    _ZN7CActive6CancelEv@euser{000a0000}[100039e5].dll  - Undefined Reference
    CActive::SetActive()                      - Undefined Reference
    _ZN7CActive9SetActiveEv@euser{000a0000}[100039e5].dll  - Undefined Reference
    CActive::CActive__sub_object(int)         - Undefined Reference
    _ZN7CActiveC2Ei@euser{000a0000}[100039e5].dll  - Undefined Reference
    CActive::~CActive__sub_object()           - Undefined Reference
    _ZN7CActiveD2Ev@euser{000a0000}[100039e5].dll  - Undefined Reference
    CCamera::CamerasAvailable()               - Undefined Reference
    _ZN7CCamera16CamerasAvailableEv@ecam{000a0000}[101fb4c3].dll  - Undefined Reference
    CCamera::CCameraImageProcessing::SetTransformationValue(TUid, int)  - Undefined Reference
    _ZN7CCamera22CCameraImageProcessing22SetTransformationValueE4TUidi@ecamadvsettings{000a0000}[1020e76b].dll  - Undefined Reference
    CCamera::CCameraImageProcessing::NewL(CCamera&)  - Undefined Reference
    _ZN7CCamera22CCameraImageProcessing4NewLERS_@ecamadvsettings{000a0000}[1020e76b].dll  - Undefined Reference
    CCamera::CCameraAdvancedSettings::SetAperture(int)  - Undefined Reference
    _ZN7CCamera23CCameraAdvancedSettings11SetApertureEi@ecamadvsettings{000a0000}[1020e76b].dll  - Undefined Reference
    CCamera::CCameraAdvancedSettings::SetISORateL(CCamera::CCameraAdvancedSettings::TISORateType, int)  - Undefined Reference
    _ZN7CCamera23CCameraAdvancedSettings11SetISORateLENS0_12TISORateTypeEi@ecamadvsettings{000a0000}[1020e76b].dll  - Undefined Reference
    CCamera::CCameraAdvancedSettings::SetFocusMode(CCamera::CCameraAdvancedSettings::TFocusMode)  - Undefined Reference
    _ZN7CCamera23CCameraAdvancedSettings12SetFocusModeENS0_10TFocusModeE@ecamadvsettings{000a0000}[1020e76b].dll  - Undefined Reference
    CCamera::CCameraAdvancedSettings::SetFocusRange(CCamera::CCameraAdvancedSettings::TFocusRange)  - Undefined Reference
    _ZN7CCamera23CCameraAdvancedSettings13SetFocusRangeENS0_11TFocusRangeE@ecamadvsettings{000a0000}[1020e76b].dll  - Undefined Reference
    CCamera::CCameraAdvancedSettings::SetDigitalZoom(int)  - Undefined Reference
    _ZN7CCamera23CCameraAdvancedSettings14SetDigitalZoomEi@ecamadvsettings{000a0000}[1020e76b].dll  - Undefined Reference
    CCamera::CCameraAdvancedSettings::SetMeteringMode(CCamera::CCameraAdvancedSettings::TMeteringMode)  - Undefined Reference
    _ZN7CCamera23CCameraAdvancedSettings15SetMeteringModeENS0_13TMeteringModeE@ecamadvsettings{000a0000}[1020e76b].dll  - Undefined Reference
    CCamera::CCameraAdvancedSettings::SetShutterSpeed(int)  - Undefined Reference
    _ZN7CCamera23CCameraAdvancedSettings15SetShutterSpeedEi@ecamadvsettings{000a0000}[1020e76b].dll  - Undefined Reference
    CCamera::CCameraAdvancedSettings::SetAutoFocusType(CCamera::CCameraAdvancedSettings::TAutoFocusType)  - Undefined Reference
    _ZN7CCamera23CCameraAdvancedSettings16SetAutoFocusTypeENS0_14TAutoFocusTypeE@ecamadvsettings{000a0000}[1020e76b].dll  - Undefined Reference
    CCamera::CCameraAdvancedSettings::SetExposureLockOn(int)  - Undefined Reference
    _ZN7CCamera23CCameraAdvancedSettings17SetExposureLockOnEi@ecamadvsettings{000a0000}[1020e76b].dll  - Undefined Reference
    CCamera::CCameraAdvancedSettings::SetExposureCompensationStep(int)  - Undefined Reference
    _ZN7CCamera23CCameraAdvancedSettings27SetExposureCompensationStepEi@ecamadvsettings{000a0000}[1020e76b].dll  - Undefined Reference
    CCamera::CCameraAdvancedSettings::NewL(CCamera&)  - Undefined Reference
    _ZN7CCamera23CCameraAdvancedSettings4NewLERS_@ecamadvsettings{000a0000}[1020e76b].dll  - Undefined Reference
    CCamera::New2L(MCameraObserver2&, int, int)  - Undefined Reference
    _ZN7CCamera5New2LER16MCameraObserver2ii@ecam{000a0000}[101fb4c3].dll  - Undefined Reference
    CCoeEnv::Static()                         - Undefined Reference
    _ZN7CCoeEnv6StaticEv@cone{000a0000}[10003a41].dll  - Undefined Reference
    QObject::childEvent(QChildEvent*)         - Undefined Reference
    _ZN7QObject10childEventEP11QChildEvent@QtCore{00040703}[2001b2dc].dll  - Undefined Reference
    QObject::disconnect(const QObject*, const char*, const QObject*, const char*)  - Undefined Reference
    _ZN7QObject10disconnectEPKS_PKcS1_S3_@QtCore{00040703}[2001b2dc].dll  - Undefined Reference
    QObject::timerEvent(QTimerEvent*)         - Undefined Reference
    _ZN7QObject10timerEventEP11QTimerEvent@QtCore{00040703}[2001b2dc].dll  - Undefined Reference
    QObject::customEvent(QEvent*)             - Undefined Reference
    _ZN7QObject11customEventEP6QEvent@QtCore{00040703}[2001b2dc].dll  - Undefined Reference
    QObject::eventFilter(QObject*, QEvent*)   - Undefined Reference
    _ZN7QObject11eventFilterEPS_P6QEvent@QtCore{00040703}[2001b2dc].dll  - Undefined Reference
    QObject::qt_metacall(QMetaObject::Call, int, void**)  - Undefined Reference
    _ZN7QObject11qt_metacallEN11QMetaObject4CallEiPPv@QtCore{00040703}[2001b2dc].dll  - Undefined Reference
    QObject::qt_metacast(const char*)         - Undefined Reference
    _ZN7QObject11qt_metacastEPKc@QtCore{00040703}[2001b2dc].dll  - Undefined Reference
    QObject::setProperty(const char*, const QVariant&)  - Undefined Reference
    _ZN7QObject11setPropertyEPKcRK8QVariant@QtCore{00040703}[2001b2dc].dll  - Undefined Reference
    QObject::connectNotify(const char*)       - Undefined Reference
    _ZN7QObject13connectNotifyEPKc@QtCore{00040703}[2001b2dc].dll  - Undefined Reference
    QObject::disconnectNotify(const char*)    - Undefined Reference
    _ZN7QObject16disconnectNotifyEPKc@QtCore{00040703}[2001b2dc].dll  - Undefined Reference
    QObject::staticMetaObject                 - Undefined Reference
    _ZN7QObject16staticMetaObjectE@QtCore{00040703}[2001b2dc].dll  - Undefined Reference
    QObject::installEventFilter(QObject*)     - Undefined Reference
    _ZN7QObject18installEventFilterEPS_@QtCore{00040703}[2001b2dc].dll  - Undefined Reference
    QObject::event(QEvent*)                   - Undefined Reference
    _ZN7QObject5eventEP6QEvent@QtCore{00040703}[2001b2dc].dll  - Undefined Reference
    QObject::connect(const QObject*, const char*, const QObject*, const char*, Qt::ConnectionType)  - Undefined Reference
    _ZN7QObject7connectEPKS_PKcS1_S3_N2Qt14ConnectionTypeE@QtCore{00040703}[2001b2dc].dll  - Undefined Reference
    QObject::QObject(QObject*)                - Undefined Reference
    _ZN7QObjectC1EPS_@QtCore{00040703}[2001b2dc].dll  - Undefined Reference
    QObject::~QObject()                       - Undefined Reference
    _ZN7QObjectD1Ev@QtCore{00040703}[2001b2dc].dll  - Undefined Reference
    QPixmap::fromSymbianCFbsBitmap(CFbsBitmap*)  - Undefined Reference
    _ZN7QPixmap21fromSymbianCFbsBitmapEP10CFbsBitmap@QtGui{00040703}[2001b2dd].dll  - Undefined Reference
    QPixmap::QPixmap()                        - Undefined Reference
    _ZN7QPixmapC1Ev@QtGui{00040703}[2001b2dd].dll  - Undefined Reference
    QPixmap::~QPixmap()                       - Undefined Reference
    _ZN7QPixmapD1Ev@QtGui{00040703}[2001b2dd].dll  - Undefined Reference
    QPixmap::operator =(const QPixmap&)       - Undefined Reference
    _ZN7QPixmapaSERKS_@QtGui{00040703}[2001b2dd].dll  - Undefined Reference
    QString::fromLatin1(const char*, int)     - Undefined Reference
    _ZN7QString10fromLatin1EPKci@QtCore{00040703}[2001b2dc].dll  - Undefined Reference
    QString::shared_null                      - Undefined Reference
    _ZN7QString11shared_nullE@QtCore{00040703}[2001b2dc].dll  - Undefined Reference
    QString::codecForCStrings                 - Undefined Reference
    _ZN7QString16codecForCStringsE@QtCore{00040703}[2001b2dc].dll  - Undefined Reference
    QString::fromAscii_helper(const char*, int)  - Undefined Reference
    _ZN7QString16fromAscii_helperEPKci@QtCore{00040703}[2001b2dc].dll  - Undefined Reference
    QString::fromLatin1_helper(const char*, int)  - Undefined Reference
    _ZN7QString17fromLatin1_helperEPKci@QtCore{00040703}[2001b2dc].dll  - Undefined Reference
    QString::free(QString::Data*)             - Undefined Reference
    _ZN7QString4freeEPNS_4DataE@QtCore{00040703}[2001b2dc].dll  - Undefined Reference
    QString::append(const QLatin1String&)     - Undefined Reference
    _ZN7QString6appendERK13QLatin1String@QtCore{00040703}[2001b2dc].dll  - Undefined Reference
    QString::append(const QString&)           - Undefined Reference
    _ZN7QString6appendERKS_@QtCore{00040703}[2001b2dc].dll  - Undefined Reference
    QString::fromUtf8(const char*, int)       - Undefined Reference
    _ZN7QString8fromUtf8EPKci@QtCore{00040703}[2001b2dc].dll  - Undefined Reference
    QString::fromAscii(const char*, int)      - Undefined Reference
    _ZN7QString9fromAsciiEPKci@QtCore{00040703}[2001b2dc].dll  - Undefined Reference
    QString::fromUtf16(const unsigned short*, int)  - Undefined Reference
    _ZN7QString9fromUtf16EPKti@QtCore{00040703}[2001b2dc].dll  - Undefined Reference
    QString::operator =(const QString&)       - Undefined Reference
    _ZN7QStringaSERKS_@QtCore{00040703}[2001b2dc].dll  - Undefined Reference
    QWidget::closeEvent(QCloseEvent*)         - Undefined Reference
    _ZN7QWidget10closeEventEP11QCloseEvent@QtGui{00040703}[2001b2dd].dll  - Undefined Reference
    QWidget::enterEvent(QEvent*)              - Undefined Reference
    _ZN7QWidget10enterEventEP6QEvent@QtGui{00040703}[2001b2dd].dll  - Undefined Reference
    QWidget::fontChange(const QFont&)         - Undefined Reference
    _ZN7QWidget10fontChangeERK5QFont@QtGui{00040703}[2001b2dd].dll  - Undefined Reference
    QWidget::leaveEvent(QEvent*)              - Undefined Reference
    _ZN7QWidget10leaveEventEP6QEvent@QtGui{00040703}[2001b2dd].dll  - Undefined Reference
    QWidget::setPalette(const QPalette&)      - Undefined Reference
    _ZN7QWidget10setPaletteERK8QPalette@QtGui{00040703}[2001b2dd].dll  - Undefined Reference
    QWidget::setVisible(bool)                 - Undefined Reference
    _ZN7QWidget10setVisibleEb@QtGui{00040703}[2001b2dd].dll  - Undefined Reference
    QWidget::wheelEvent(QWheelEvent*)         - Undefined Reference
    _ZN7QWidget10wheelEventEP11QWheelEvent@QtGui{00040703}[2001b2dd].dll  - Undefined Reference
    QWidget::actionEvent(QActionEvent*)       - Undefined Reference
    _ZN7QWidget11actionEventEP12QActionEvent@QtGui{00040703}[2001b2dd].dll  - Undefined Reference
    QWidget::changeEvent(QEvent*)             - Undefined Reference
    _ZN7QWidget11changeEventEP6QEvent@QtGui{00040703}[2001b2dd].dll  - Undefined Reference
    QWidget::qt_metacall(QMetaObject::Call, int, void**)  - Undefined Reference
    _ZN7QWidget11qt_metacallEN11QMetaObject4CallEiPPv@QtGui{00040703}[2001b2dd].dll  - Undefined Reference
    QWidget::qt_metacast(const char*)         - Undefined Reference
    _ZN7QWidget11qt_metacastEPKc@QtGui{00040703}[2001b2dd].dll  - Undefined Reference
    QWidget::resizeEvent(QResizeEvent*)       - Undefined Reference
    _ZN7QWidget11resizeEventEP12QResizeEvent@QtGui{00040703}[2001b2dd].dll  - Undefined Reference
    QWidget::styleChange(QStyle&)             - Undefined Reference
    _ZN7QWidget11styleChangeER6QStyle@QtGui{00040703}[2001b2dd].dll  - Undefined Reference
    QWidget::tabletEvent(QTabletEvent*)       - Undefined Reference
    _ZN7QWidget11tabletEventEP12QTabletEvent@QtGui{00040703}[2001b2dd].dll  - Undefined Reference
    QWidget::focusInEvent(QFocusEvent*)       - Undefined Reference
    _ZN7QWidget12focusInEventEP11QFocusEvent@QtGui{00040703}[2001b2dd].dll  - Undefined Reference
    QWidget::dragMoveEvent(QDragMoveEvent*)   - Undefined Reference
    _ZN7QWidget13dragMoveEventEP14QDragMoveEvent@QtGui{00040703}[2001b2dd].dll  - Undefined Reference
    QWidget::enabledChange(bool)              - Undefined Reference
    _ZN7QWidget13enabledChangeEb@QtGui{00040703}[2001b2dd].dll  - Undefined Reference
    QWidget::focusOutEvent(QFocusEvent*)      - Undefined Reference
    _ZN7QWidget13focusOutEventEP11QFocusEvent@QtGui{00040703}[2001b2dd].dll  - Undefined Reference
    QWidget::keyPressEvent(QKeyEvent*)        - Undefined Reference
    _ZN7QWidget13keyPressEventEP9QKeyEvent@QtGui{00040703}[2001b2dd].dll  - Undefined Reference
    QWidget::paletteChange(const QPalette&)   - Undefined Reference
    _ZN7QWidget13paletteChangeERK8QPalette@QtGui{00040703}[2001b2dd].dll  - Undefined Reference
    QWidget::setSizePolicy(QSizePolicy)       - Undefined Reference
    _ZN7QWidget13setSizePolicyE11QSizePolicy@QtGui{00040703}[2001b2dd].dll  - Undefined Reference
    QWidget::showMaximized()                  - Undefined Reference
    _ZN7QWidget13showMaximizedEv@QtGui{00040703}[2001b2dd].dll  - Undefined Reference
    QWidget::activateWindow()                 - Undefined Reference
    _ZN7QWidget14activateWindowEv@QtGui{00040703}[2001b2dd].dll  - Undefined Reference
    QWidget::dragEnterEvent(QDragEnterEvent*)  - Undefined Reference
    _ZN7QWidget14dragEnterEventEP15QDragEnterEvent@QtGui{00040703}[2001b2dd].dll  - Undefined Reference
    QWidget::dragLeaveEvent(QDragLeaveEvent*)  - Undefined Reference
    _ZN7QWidget14dragLeaveEventEP15QDragLeaveEvent@QtGui{00040703}[2001b2dd].dll  - Undefined Reference
    QWidget::languageChange()                 - Undefined Reference
    _ZN7QWidget14languageChangeEv@QtGui{00040703}[2001b2dd].dll  - Undefined Reference
    QWidget::mouseMoveEvent(QMouseEvent*)     - Undefined Reference
    _ZN7QWidget14mouseMoveEventEP11QMouseEvent@QtGui{00040703}[2001b2dd].dll  - Undefined Reference
    QWidget::showFullScreen()                 - Undefined Reference
    _ZN7QWidget14showFullScreenEv@QtGui{00040703}[2001b2dd].dll  - Undefined Reference
    QWidget::keyReleaseEvent(QKeyEvent*)      - Undefined Reference
    _ZN7QWidget15keyReleaseEventEP9QKeyEvent@QtGui{00040703}[2001b2dd].dll  - Undefined Reference
    QWidget::mousePressEvent(QMouseEvent*)    - Undefined Reference
    _ZN7QWidget15mousePressEventEP11QMouseEvent@QtGui{00040703}[2001b2dd].dll  - Undefined Reference
    QWidget::contextMenuEvent(QContextMenuEvent*)  - Undefined Reference
    _ZN7QWidget16contextMenuEventEP17QContextMenuEvent@QtGui{00040703}[2001b2dd].dll  - Undefined Reference
    QWidget::inputMethodEvent(QInputMethodEvent*)  - Undefined Reference
    _ZN7QWidget16inputMethodEventEP17QInputMethodEvent@QtGui{00040703}[2001b2dd].dll  - Undefined Reference
    QWidget::staticMetaObject                 - Undefined Reference
    _ZN7QWidget16staticMetaObjectE@QtGui{00040703}[2001b2dd].dll  - Undefined Reference
    QWidget::mouseReleaseEvent(QMouseEvent*)  - Undefined Reference
    _ZN7QWidget17mouseReleaseEventEP11QMouseEvent@QtGui{00040703}[2001b2dd].dll  - Undefined Reference
    QWidget::focusNextPrevChild(bool)         - Undefined Reference
    _ZN7QWidget18focusNextPrevChildEb@QtGui{00040703}[2001b2dd].dll  - Undefined Reference
    QWidget::mouseDoubleClickEvent(QMouseEvent*)  - Undefined Reference
    _ZN7QWidget21mouseDoubleClickEventEP11QMouseEvent@QtGui{00040703}[2001b2dd].dll  - Undefined Reference
    QWidget::setAutoFillBackground(bool)      - Undefined Reference
    _ZN7QWidget21setAutoFillBackgroundEb@QtGui{00040703}[2001b2dd].dll  - Undefined Reference
    QWidget::windowActivationChange(bool)     - Undefined Reference
    _ZN7QWidget22windowActivationChangeEb@QtGui{00040703}[2001b2dd].dll  - Undefined Reference
    QWidget::event(QEvent*)                   - Undefined Reference
    _ZN7QWidget5eventEP6QEvent@QtGui{00040703}[2001b2dd].dll  - Undefined Reference
    QWidget::update()                         - Undefined Reference
    _ZN7QWidget6updateEv@QtGui{00040703}[2001b2dd].dll  - Undefined Reference
    QWidget::dropEvent(QDropEvent*)           - Undefined Reference
    _ZN7QWidget9dropEventEP10QDropEvent@QtGui{00040703}[2001b2dd].dll  - Undefined Reference
    QWidget::hideEvent(QHideEvent*)           - Undefined Reference
    _ZN7QWidget9hideEventEP10QHideEvent@QtGui{00040703}[2001b2dd].dll  - Undefined Reference
    QWidget::moveEvent(QMoveEvent*)           - Undefined Reference
    _ZN7QWidget9moveEventEP10QMoveEvent@QtGui{00040703}[2001b2dd].dll  - Undefined Reference
    QWidget::showEvent(QShowEvent*)           - Undefined Reference
    _ZN7QWidget9showEventEP10QShowEvent@QtGui{00040703}[2001b2dd].dll  - Undefined Reference
    QWidget::QWidget(QWidget*, QFlags<Qt::WindowType>)  - Undefined Reference
    _ZN7QWidgetC1EPS_6QFlagsIN2Qt10WindowTypeEE@QtGui{00040703}[2001b2dd].dll  - Undefined Reference
    QWidget::~QWidget()                       - Undefined Reference
    _ZN7QWidgetD1Ev@QtGui{00040703}[2001b2dd].dll  - Undefined Reference
    RWindow::BeginRedraw(const TRect&)        - Undefined Reference
    _ZN7RWindow11BeginRedrawERK5TRect@ws32{000a0000}[10003b21].dll  - Undefined Reference
    RWindow::SetBackgroundColor(TRgb)         - Undefined Reference
    _ZN7RWindow18SetBackgroundColorE4TRgb@ws32{000a0000}[10003b21].dll  - Undefined Reference
    RWindow::EndRedraw()                      - Undefined Reference
    _ZN7RWindow9EndRedrawEv@ws32{000a0000}[10003b21].dll  - Undefined Reference
    TPtrC16::TPtrC16(const unsigned short*)   - Undefined Reference
    _ZN7TPtrC16C1EPKt@euser{000a0000}[100039e5].dll  - Undefined Reference
    TPtrC16::TPtrC16(const TDesC16&)          - Undefined Reference
    _ZN7TPtrC16C1ERK7TDesC16@euser{000a0000}[100039e5].dll  - Undefined Reference
    QMapData::createData(int)                 - Undefined Reference
    _ZN8QMapData10createDataEi@QtCore{00040703}[2001b2dc].dll  - Undefined Reference
    QMapData::node_create(QMapData::Node**, int, int)  - Undefined Reference
    _ZN8QMapData11node_createEPPNS_4NodeEii@QtCore{00040703}[2001b2dc].dll  - Undefined Reference
    QMapData::node_delete(QMapData::Node**, int, QMapData::Node*)  - Undefined Reference
    _ZN8QMapData11node_deleteEPPNS_4NodeEiS1_@QtCore{00040703}[2001b2dc].dll  - Undefined Reference
    QMapData::shared_null                     - Undefined Reference
    _ZN8QMapData11shared_nullE@QtCore{00040703}[2001b2dc].dll  - Undefined Reference
    QMapData::continueFreeData(int)           - Undefined Reference
    _ZN8QMapData16continueFreeDataEi@QtCore{00040703}[2001b2dc].dll  - Undefined Reference
    QPainter::drawPixmap(const QPointF&, const QPixmap&)  - Undefined Reference
    _ZN8QPainter10drawPixmapERK7QPointFRK7QPixmap@QtGui{00040703}[2001b2dd].dll  - Undefined Reference
    QPainter::QPainter(QPaintDevice*)         - Undefined Reference
    _ZN8QPainterC1EP12QPaintDevice@QtGui{00040703}[2001b2dd].dll  - Undefined Reference
    QPainter::~QPainter()                     - Undefined Reference
    _ZN8QPainterD1Ev@QtGui{00040703}[2001b2dd].dll  - Undefined Reference
    QPalette::QPalette(Qt::GlobalColor)       - Undefined Reference
    _ZN8QPaletteC1EN2Qt11GlobalColorE@QtGui{00040703}[2001b2dd].dll  - Undefined Reference
    QPalette::~QPalette()                     - Undefined Reference
    _ZN8QPaletteD1Ev@QtGui{00040703}[2001b2dd].dll  - Undefined Reference
    QVariant::QVariant(Qt::GlobalColor)       - Undefined Reference
    _ZN8QVariantC1EN2Qt11GlobalColorE@QtCore{00040703}[2001b2dc].dll  - Undefined Reference
    QVariant::QVariant(const QVariant&)       - Undefined Reference
    _ZN8QVariantC1ERKS_@QtCore{00040703}[2001b2dc].dll  - Undefined Reference
    QVariant::QVariant(bool)                  - Undefined Reference
    _ZN8QVariantC1Eb@QtCore{00040703}[2001b2dc].dll  - Undefined Reference
    QVariant::QVariant(int)                   - Undefined Reference
    _ZN8QVariantC1Ei@QtCore{00040703}[2001b2dc].dll  - Undefined Reference
    QVariant::QVariant(int, const void*, unsigned)  - Undefined Reference
    _ZN8QVariantC1EiPKvj@QtCore{00040703}[2001b2dc].dll  - Undefined Reference
    QVariant::~QVariant()                     - Undefined Reference
    _ZN8QVariantD1Ev@QtCore{00040703}[2001b2dc].dll  - Undefined Reference
    QVariant::operator =(const QVariant&)     - Undefined Reference
    _ZN8QVariantaSERKS_@QtCore{00040703}[2001b2dc].dll  - Undefined Reference
    TVersion::TVersion()                      - Undefined Reference
    _ZN8TVersionC1Ev@euser{000a0000}[100039e5].dll  - Undefined Reference
    QHashData::free_helper(void(*)(QHashData::Node*))  - Undefined Reference
    _ZN9QHashData11free_helperEPFvPNS_4NodeEE@QtCore{00040703}[2001b2dc].dll  - Undefined Reference
    QHashData::shared_null                    - Undefined Reference
    _ZN9QHashData11shared_nullE@QtCore{00040703}[2001b2dc].dll  - Undefined Reference
    QHashData::allocateNode(int)              - Undefined Reference
    _ZN9QHashData12allocateNodeEi@QtCore{00040703}[2001b2dc].dll  - Undefined Reference
    QHashData::detach_helper2(void(*)(QHashData::Node*, void*), void(*)(QHashData::Node*), int, int)  - Undefined Reference
    _ZN9QHashData14detach_helper2EPFvPNS_4NodeEPvEPFvS1_Eii@QtCore{00040703}[2001b2dc].dll  - Undefined Reference
    QHashData::rehash(int)                    - Undefined Reference
    _ZN9QHashData6rehashEi@QtCore{00040703}[2001b2dc].dll  - Undefined Reference
    QHashData::nextNode(QHashData::Node*)     - Undefined Reference
    _ZN9QHashData8nextNodeEPNS_4NodeE@QtCore{00040703}[2001b2dc].dll  - Undefined Reference
    QListData::detach_grow(int*, int)         - Undefined Reference
    _ZN9QListData11detach_growEPii@QtCore{00040703}[2001b2dc].dll  - Undefined Reference
    QListData::shared_null                    - Undefined Reference
    _ZN9QListData11shared_nullE@QtCore{00040703}[2001b2dc].dll  - Undefined Reference
    QListData::append()                       - Undefined Reference
    _ZN9QListData6appendEv@QtCore{00040703}[2001b2dc].dll  - Undefined Reference
    QListData::detach(int)                    - Undefined Reference
    _ZN9QListData6detachEi@QtCore{00040703}[2001b2dc].dll  - Undefined Reference
    QListData::insert(int)                    - Undefined Reference
    _ZN9QListData6insertEi@QtCore{00040703}[2001b2dc].dll  - Undefined Reference
    QListData::realloc(int)                   - Undefined Reference
    _ZN9QListData7reallocEi@QtCore{00040703}[2001b2dc].dll  - Undefined Reference
    QtPrivate::QStringList_sort(QStringList*)  - Undefined Reference
    _ZN9QtPrivate16QStringList_sortEP11QStringList@QtCore{00040703}[2001b2dc].dll  - Undefined Reference
    QtPrivate::QStringList_contains(const QStringList*, const QString&, Qt::CaseSensitivity)  - Undefined Reference
    _ZN9QtPrivate20QStringList_containsEPK11QStringListRK7QStringN2Qt15CaseSensitivityE@QtCore{00040703}[2001b2dc].dll  - Undefined Reference
    CFbsBitmap::SizeInPixels() const          - Undefined Reference
    _ZNK10CFbsBitmap12SizeInPixelsEv@fbscli{000a0000}[10003a15].dll  - Undefined Reference
    RArrayBase::At(int) const                 - Undefined Reference
    _ZNK10RArrayBase2AtEi@euser{000a0000}[100039e5].dll  - Undefined Reference
    RArrayBase::Find(const void*) const       - Undefined Reference
    _ZNK10RArrayBase4FindEPKv@euser{000a0000}[100039e5].dll  - Undefined Reference
    RArrayBase::Count() const                 - Undefined Reference
    _ZNK10RArrayBase5CountEv@euser{000a0000}[100039e5].dll  - Undefined Reference
    CCoeControl::DrawableWindow() const       - Undefined Reference
    _ZNK11CCoeControl14DrawableWindowEv@cone{000a0000}[10003a41].dll  - Undefined Reference
    CCoeControl::SystemGc() const             - Undefined Reference
    _ZNK11CCoeControl8SystemGcEv@cone{000a0000}[10003a41].dll  - Undefined Reference
    QMetaObject::tr(const char*, const char*) const  - Undefined Reference
    _ZNK11QMetaObject2trEPKcS1_@QtCore{00040703}[2001b2dc].dll  - Undefined Reference
    QMetaObject::cast(QObject*) const         - Undefined Reference
    _ZNK11QMetaObject4castEP7QObject@QtCore{00040703}[2001b2dc].dll  - Undefined Reference
    QVideoFrame::isValid() const              - Undefined Reference
    _ZNK11QVideoFrame7isValidEv@QtMultimediaKit{00010103}[2002ac77].dll  - Undefined Reference
    RWindowBase::Size() const                 - Undefined Reference
    _ZNK11RWindowBase4SizeEv@ws32{000a0000}[10003b21].dll  - Undefined Reference
    CImageDecoder::FrameInfo(int) const       - Undefined Reference
    _ZNK13CImageDecoder9FrameInfoEi@imageconversion{000a0000}[101f45ad].dll  - Undefined Reference
    QDesktopWidget::screenGeometry(int) const  - Undefined Reference
    _ZNK14QDesktopWidget14screenGeometryEi@QtGui{00040703}[2001b2dd].dll  - Undefined Reference
    RWindowTreeNode::OrdinalPosition() const  - Undefined Reference
    _ZNK15RWindowTreeNode15OrdinalPositionEv@ws32{000a0000}[10003b21].dll  - Undefined Reference
    XLeaveException::GetReason() const        - Undefined Reference
    _ZNK15XLeaveException9GetReasonEv@euser{000a0000}[100039e5].dll  - Undefined Reference
    CVideoEncoderInfo::MaxBitrate() const     - Undefined Reference
    _ZNK17CVideoEncoderInfo10MaxBitrateEv@devvideo{000a0000}[101f9ed6].dll  - Undefined Reference
    CVideoEncoderInfo::Accelerated() const    - Undefined Reference
    _ZNK17CVideoEncoderInfo11AcceleratedEv@devvideo{000a0000}[101f9ed6].dll  - Undefined Reference
    CVideoEncoderInfo::MaxPictureRates() const  - Undefined Reference
    _ZNK17CVideoEncoderInfo15MaxPictureRatesEv@devvideo{000a0000}[101f9ed6].dll  - Undefined Reference
    CVideoEncoderInfo::SupportsDirectCapture() const  - Undefined Reference
    _ZNK17CVideoEncoderInfo21SupportsDirectCaptureEv@devvideo{000a0000}[101f9ed6].dll  - Undefined Reference
    CVideoEncoderInfo::SupportedOutputFormats() const  - Undefined Reference
    _ZNK17CVideoEncoderInfo22SupportedOutputFormatsEv@devvideo{000a0000}[101f9ed6].dll  - Undefined Reference
    RPointerArrayBase::At(int) const          - Undefined Reference
    _ZNK17RPointerArrayBase2AtEi@euser{000a0000}[100039e5].dll  - Undefined Reference
    RPointerArrayBase::Count() const          - Undefined Reference
    _ZNK17RPointerArrayBase5CountEv@euser{000a0000}[100039e5].dll  - Undefined Reference
    QVideoSurfaceFormat::isValid() const      - Undefined Reference
    _ZNK19QVideoSurfaceFormat7isValidEv@QtMultimediaKit{00010103}[2002ac77].dll  - Undefined Reference
    QVideoSurfaceFormat::frameSize() const    - Undefined Reference
    _ZNK19QVideoSurfaceFormat9frameSizeEv@QtMultimediaKit{00010103}[2002ac77].dll  - Undefined Reference
    CVideoRecorderUtility::AudioTypeL() const  - Undefined Reference
    _ZNK21CVideoRecorderUtility10AudioTypeLEv@mediaclientvideo{000a0000}[101f4569].dll  - Undefined Reference
    CVideoRecorderUtility::AudioBitRateL() const  - Undefined Reference
    _ZNK21CVideoRecorderUtility13AudioBitRateLEv@mediaclientvideo{000a0000}[101f4569].dll  - Undefined Reference
    CVideoRecorderUtility::AudioEnabledL() const  - Undefined Reference
    _ZNK21CVideoRecorderUtility13AudioEnabledLEv@mediaclientvideo{000a0000}[101f4569].dll  - Undefined Reference
    CVideoRecorderUtility::AudioChannelsL() const  - Undefined Reference
    _ZNK21CVideoRecorderUtility14AudioChannelsLEv@mediaclientvideo{000a0000}[101f4569].dll  - Undefined Reference
    CVideoRecorderUtility::VideoFrameRateL() const  - Undefined Reference
    _ZNK21CVideoRecorderUtility15VideoFrameRateLEv@mediaclientvideo{000a0000}[101f4569].dll  - Undefined Reference
    CVideoRecorderUtility::AudioSampleRateL() const  - Undefined Reference
    _ZNK21CVideoRecorderUtility16AudioSampleRateLEv@mediaclientvideo{000a0000}[101f4569].dll  - Undefined Reference
    CVideoRecorderUtility::GetVideoFrameSizeL(TSize&) const  - Undefined Reference
    _ZNK21CVideoRecorderUtility18GetVideoFrameSizeLER5TSize@mediaclientvideo{000a0000}[101f4569].dll  - Undefined Reference
    CVideoRecorderUtility::VideoFormatMimeType() const  - Undefined Reference
    _ZNK21CVideoRecorderUtility19VideoFormatMimeTypeEv@mediaclientvideo{000a0000}[101f4569].dll  - Undefined Reference
    CVideoRecorderUtility::GetPixelAspectRatioL(TVideoAspectRatio&) const  - Undefined Reference
    _ZNK21CVideoRecorderUtility20GetPixelAspectRatioLER17TVideoAspectRatio@mediaclientvideo{000a0000}[101f4569].dll  - Undefined Reference
    CVideoRecorderUtility::GetSupportedAudioTypesL(RArray<TFourCC>&) const  - Undefined Reference
    _ZNK21CVideoRecorderUtility23GetSupportedAudioTypesLER6RArrayI7TFourCCE@mediaclientvideo{000a0000}[101f4569].dll  - Undefined Reference
    CVideoRecorderUtility::GetSupportedVideoTypesL(CDesC8Array&) const  - Undefined Reference
    _ZNK21CVideoRecorderUtility23GetSupportedVideoTypesLER11CDesC8Array@mediaclientvideo{000a0000}[101f4569].dll  - Undefined Reference
    CVideoRecorderUtility::GetSupportedAudioSampleRatesL(RArray<unsigned>&) const  - Undefined Reference
    _ZNK21CVideoRecorderUtility29GetSupportedAudioSampleRatesLER6RArrayIjE@mediaclientvideo{000a0000}[101f4569].dll  - Undefined Reference
    CVideoRecorderUtility::GainL() const      - Undefined Reference
    _ZNK21CVideoRecorderUtility5GainLEv@mediaclientvideo{000a0000}[101f4569].dll  - Undefined Reference
    CVideoRecorderUtility::DurationL() const  - Undefined Reference
    _ZNK21CVideoRecorderUtility9DurationLEv@mediaclientvideo{000a0000}[101f4569].dll  - Undefined Reference
    QAbstractVideoSurface::surfaceFormat() const  - Undefined Reference
    _ZNK21QAbstractVideoSurface13surfaceFormatEv@QtMultimediaKit{00010103}[2002ac77].dll  - Undefined Reference
    QAbstractVideoSurface::nativeResolution() const  - Undefined Reference
    _ZNK21QAbstractVideoSurface16nativeResolutionEv@QtMultimediaKit{00010103}[2002ac77].dll  - Undefined Reference
    QAbstractVideoSurface::error() const      - Undefined Reference
    _ZNK21QAbstractVideoSurface5errorEv@QtMultimediaKit{00010103}[2002ac77].dll  - Undefined Reference
    QAbstractVideoSurface::isActive() const   - Undefined Reference
    _ZNK21QAbstractVideoSurface8isActiveEv@QtMultimediaKit{00010103}[2002ac77].dll  - Undefined Reference
    QAudioEncoderSettings::sampleRate() const  - Undefined Reference
    _ZNK21QAudioEncoderSettings10sampleRateEv@QtMultimediaKit{00010103}[2002ac77].dll  - Undefined Reference
    QAudioEncoderSettings::channelCount() const  - Undefined Reference
    _ZNK21QAudioEncoderSettings12channelCountEv@QtMultimediaKit{00010103}[2002ac77].dll  - Undefined Reference
    QAudioEncoderSettings::encodingMode() const  - Undefined Reference
    _ZNK21QAudioEncoderSettings12encodingModeEv@QtMultimediaKit{00010103}[2002ac77].dll  - Undefined Reference
    QAudioEncoderSettings::codec() const      - Undefined Reference
    _ZNK21QAudioEncoderSettings5codecEv@QtMultimediaKit{00010103}[2002ac77].dll  - Undefined Reference
    QAudioEncoderSettings::bitRate() const    - Undefined Reference
    _ZNK21QAudioEncoderSettings7bitRateEv@QtMultimediaKit{00010103}[2002ac77].dll  - Undefined Reference
    QAudioEncoderSettings::quality() const    - Undefined Reference
    _ZNK21QAudioEncoderSettings7qualityEv@QtMultimediaKit{00010103}[2002ac77].dll  - Undefined Reference
    QImageEncoderSettings::resolution() const  - Undefined Reference
    _ZNK21QImageEncoderSettings10resolutionEv@QtMultimediaKit{00010103}[2002ac77].dll  - Undefined Reference
    QImageEncoderSettings::codec() const      - Undefined Reference
    _ZNK21QImageEncoderSettings5codecEv@QtMultimediaKit{00010103}[2002ac77].dll  - Undefined Reference
    QImageEncoderSettings::isNull() const     - Undefined Reference
    _ZNK21QImageEncoderSettings6isNullEv@QtMultimediaKit{00010103}[2002ac77].dll  - Undefined Reference
    QImageEncoderSettings::quality() const    - Undefined Reference
    _ZNK21QImageEncoderSettings7qualityEv@QtMultimediaKit{00010103}[2002ac77].dll  - Undefined Reference
    QVideoEncoderSettings::resolution() const  - Undefined Reference
    _ZNK21QVideoEncoderSettings10resolutionEv@QtMultimediaKit{00010103}[2002ac77].dll  - Undefined Reference
    QVideoEncoderSettings::encodingMode() const  - Undefined Reference
    _ZNK21QVideoEncoderSettings12encodingModeEv@QtMultimediaKit{00010103}[2002ac77].dll  - Undefined Reference
    QVideoEncoderSettings::codec() const      - Undefined Reference
    _ZNK21QVideoEncoderSettings5codecEv@QtMultimediaKit{00010103}[2002ac77].dll  - Undefined Reference
    QVideoEncoderSettings::isNull() const     - Undefined Reference
    _ZNK21QVideoEncoderSettings6isNullEv@QtMultimediaKit{00010103}[2002ac77].dll  - Undefined Reference
    QVideoEncoderSettings::bitRate() const    - Undefined Reference
    _ZNK21QVideoEncoderSettings7bitRateEv@QtMultimediaKit{00010103}[2002ac77].dll  - Undefined Reference
    QVideoEncoderSettings::quality() const    - Undefined Reference
    _ZNK21QVideoEncoderSettings7qualityEv@QtMultimediaKit{00010103}[2002ac77].dll  - Undefined Reference
    QVideoEncoderSettings::frameRate() const  - Undefined Reference
    _ZNK21QVideoEncoderSettings9frameRateEv@QtMultimediaKit{00010103}[2002ac77].dll  - Undefined Reference
    CCompressedVideoFormat::MimeType() const  - Undefined Reference
    _ZNK22CCompressedVideoFormat8MimeTypeEv@devvideo{000a0000}[101f9ed6].dll  - Undefined Reference
    CMMFFormatImplementationInformation::SupportedMimeTypes() const  - Undefined Reference
    _ZNK35CMMFFormatImplementationInformation18SupportedMimeTypesEv@mmfcontrollerframework{000a0000}[101f76dd].dll  - Undefined Reference
    CMMFPluginImplementationInformation::DisplayName() const  - Undefined Reference
    _ZNK35CMMFPluginImplementationInformation11DisplayNameEv@mmfcontrollerframework{000a0000}[101f76dd].dll  - Undefined Reference
    CMMFPluginImplementationInformation::Uid() const  - Undefined Reference
    _ZNK35CMMFPluginImplementationInformation3UidEv@mmfcontrollerframework{000a0000}[101f76dd].dll  - Undefined Reference
    CMMFControllerImplementationInformation::RecordFormats() const  - Undefined Reference
    _ZNK39CMMFControllerImplementationInformation13RecordFormatsEv@mmfcontrollerframework{000a0000}[101f76dd].dll  - Undefined Reference
    QDir::exists(const QString&) const        - Undefined Reference
    _ZNK4QDir6existsERK7QString@QtCore{00040703}[2001b2dc].dll  - Undefined Reference
    QDir::mkpath(const QString&) const        - Undefined Reference
    _ZNK4QDir6mkpathERK7QString@QtCore{00040703}[2001b2dc].dll  - Undefined Reference
    QUrl::isRelative() const                  - Undefined Reference
    _ZNK4QUrl10isRelativeEv@QtCore{00040703}[2001b2dc].dll  - Undefined Reference
    QUrl::path() const                        - Undefined Reference
    _ZNK4QUrl4pathEv@QtCore{00040703}[2001b2dc].dll  - Undefined Reference
    QUrl::scheme() const                      - Undefined Reference
    _ZNK4QUrl6schemeEv@QtCore{00040703}[2001b2dc].dll  - Undefined Reference
    QUrl::isEmpty() const                     - Undefined Reference
    _ZNK4QUrl7isEmptyEv@QtCore{00040703}[2001b2dc].dll  - Undefined Reference
    QUrl::toString(QFlags<QUrl::FormattingOption>) const  - Undefined Reference
    _ZNK4QUrl8toStringE6QFlagsINS_16FormattingOptionEE@QtCore{00040703}[2001b2dc].dll  - Undefined Reference
    TUid::operator ==(const TUid&) const      - Undefined Reference
    _ZNK4TUideqERKS_@euser{000a0000}[100039e5].dll  - Undefined Reference
    QRect::operator &(const QRect&) const     - Undefined Reference
    _ZNK5QRectanERKS_@QtCore{00040703}[2001b2dc].dll  - Undefined Reference
    TRect::Size() const                       - Undefined Reference
    _ZNK5TRect4SizeEv@euser{000a0000}[100039e5].dll  - Undefined Reference
    TRect::Width() const                      - Undefined Reference
    _ZNK5TRect5WidthEv@euser{000a0000}[100039e5].dll  - Undefined Reference
    TRect::Height() const                     - Undefined Reference
    _ZNK5TRect6HeightEv@euser{000a0000}[100039e5].dll  - Undefined Reference
    TSize::operator ==(const TSize&) const    - Undefined Reference
    _ZNK5TSizeeqERKS_@euser{000a0000}[100039e5].dll  - Undefined Reference
    TSize::operator -(const TSize&) const     - Undefined Reference
    _ZNK5TSizemiERKS_@euser{000a0000}[100039e5].dll  - Undefined Reference
    QImage::convertToFormat(QImage::Format, QFlags<Qt::ImageConversionFlag>) const  - Undefined Reference
    _ZNK6QImage15convertToFormatENS_6FormatE6QFlagsIN2Qt19ImageConversionFlagEE@QtGui{00040703}[2001b2dd].dll  - Undefined Reference
    QImage::format() const                    - Undefined Reference
    _ZNK6QImage6formatEv@QtGui{00040703}[2001b2dd].dll  - Undefined Reference
    QImage::isNull() const                    - Undefined Reference
    _ZNK6QImage6isNullEv@QtGui{00040703}[2001b2dd].dll  - Undefined Reference
    TDesC8::Ptr() const                       - Undefined Reference
    _ZNK6TDesC83PtrEv@euser{000a0000}[100039e5].dll  - Undefined Reference
    CCamera::CCameraImageProcessing::TransformationValue(TUid) const  - Undefined Reference
    _ZNK7CCamera22CCameraImageProcessing19TransformationValueE4TUid@ecamadvsettings{000a0000}[1020e76b].dll  - Undefined Reference
    CCamera::CCameraImageProcessing::GetSupportedTransformationsL(RArray<TUid>&) const  - Undefined Reference
    _ZNK7CCamera22CCameraImageProcessing28GetSupportedTransformationsLER6RArrayI4TUidE@ecamadvsettings{000a0000}[1020e76b].dll  - Undefined Reference
    CCamera::CCameraAdvancedSettings::FocusRange() const  - Undefined Reference
    _ZNK7CCamera23CCameraAdvancedSettings10FocusRangeEv@ecamadvsettings{000a0000}[1020e76b].dll  - Undefined Reference
    CCamera::CCameraAdvancedSettings::DigitalZoom() const  - Undefined Reference
    _ZNK7CCamera23CCameraAdvancedSettings11DigitalZoomEv@ecamadvsettings{000a0000}[1020e76b].dll  - Undefined Reference
    CCamera::CCameraAdvancedSettings::GetISORateL(CCamera::CCameraAdvancedSettings::TISORateType&, int&, int&) const  - Undefined Reference
    _ZNK7CCamera23CCameraAdvancedSettings11GetISORateLERNS0_12TISORateTypeERiS3_@ecamadvsettings{000a0000}[1020e76b].dll  - Undefined Reference
    CCamera::CCameraAdvancedSettings::IsFlashReady(int&) const  - Undefined Reference
    _ZNK7CCamera23CCameraAdvancedSettings12IsFlashReadyERi@ecamadvsettings{000a0000}[1020e76b].dll  - Undefined Reference
    CCamera::CCameraAdvancedSettings::MeteringMode() const  - Undefined Reference
    _ZNK7CCamera23CCameraAdvancedSettings12MeteringModeEv@ecamadvsettings{000a0000}[1020e76b].dll  - Undefined Reference
    CCamera::CCameraAdvancedSettings::ShutterSpeed() const  - Undefined Reference
    _ZNK7CCamera23CCameraAdvancedSettings12ShutterSpeedEv@ecamadvsettings{000a0000}[1020e76b].dll  - Undefined Reference
    CCamera::CCameraAdvancedSettings::AutoFocusType() const  - Undefined Reference
    _ZNK7CCamera23CCameraAdvancedSettings13AutoFocusTypeEv@ecamadvsettings{000a0000}[1020e76b].dll  - Undefined Reference
    CCamera::CCameraAdvancedSettings::GetAperturesL(RArray<int>&, TValueInfo&) const  - Undefined Reference
    _ZNK7CCamera23CCameraAdvancedSettings13GetAperturesLER6RArrayIiER10TValueInfo@ecamadvsettings{000a0000}[1020e76b].dll  - Undefined Reference
    CCamera::CCameraAdvancedSettings::ExposureLockOn() const  - Undefined Reference
    _ZNK7CCamera23CCameraAdvancedSettings14ExposureLockOnEv@ecamadvsettings{000a0000}[1020e76b].dll  - Undefined Reference
    CCamera::CCameraAdvancedSettings::GetShutterSpeedsL(RArray<int>&, TValueInfo&) const  - Undefined Reference
    _ZNK7CCamera23CCameraAdvancedSettings17GetShutterSpeedsLER6RArrayIiER10TValueInfo@ecamadvsettings{000a0000}[1020e76b].dll  - Undefined Reference
    CCamera::CCameraAdvancedSettings::SupportedFocusModes() const  - Undefined Reference
    _ZNK7CCamera23CCameraAdvancedSettings19SupportedFocusModesEv@ecamadvsettings{000a0000}[1020e76b].dll  - Undefined Reference
    CCamera::CCameraAdvancedSettings::GetDigitalZoomStepsL(RArray<int>&, TValueInfo&) const  - Undefined Reference
    _ZNK7CCamera23CCameraAdvancedSettings20GetDigitalZoomStepsLER6RArrayIiER10TValueInfo@ecamadvsettings{000a0000}[1020e76b].dll  - Undefined Reference
    CCamera::CCameraAdvancedSettings::SupportedFocusRanges() const  - Undefined Reference
    _ZNK7CCamera23CCameraAdvancedSettings20SupportedFocusRangesEv@ecamadvsettings{000a0000}[1020e76b].dll  - Undefined Reference
    CCamera::CCameraAdvancedSettings::GetSupportedIsoRatesL(RArray<int>&) const  - Undefined Reference
    _ZNK7CCamera23CCameraAdvancedSettings21GetSupportedIsoRatesLER6RArrayIiE@ecamadvsettings{000a0000}[1020e76b].dll  - Undefined Reference
    CCamera::CCameraAdvancedSettings::SupportedMeteringModes() const  - Undefined Reference
    _ZNK7CCamera23CCameraAdvancedSettings22SupportedMeteringModesEv@ecamadvsettings{000a0000}[1020e76b].dll  - Undefined Reference
    CCamera::CCameraAdvancedSettings::SupportedAutoFocusTypes() const  - Undefined Reference
    _ZNK7CCamera23CCameraAdvancedSettings23SupportedAutoFocusTypesEv@ecamadvsettings{000a0000}[1020e76b].dll  - Undefined Reference
    CCamera::CCameraAdvancedSettings::GetExposureCompensationStep(int&) const  - Undefined Reference
    _ZNK7CCamera23CCameraAdvancedSettings27GetExposureCompensationStepERi@ecamadvsettings{000a0000}[1020e76b].dll  - Undefined Reference
    CCamera::CCameraAdvancedSettings::GetExposureCompensationStepsL(RArray<int>&, TValueInfo&) const  - Undefined Reference
    _ZNK7CCamera23CCameraAdvancedSettings29GetExposureCompensationStepsLER6RArrayIiER10TValueInfo@ecamadvsettings{000a0000}[1020e76b].dll  - Undefined Reference
    CCamera::CCameraAdvancedSettings::Aperture() const  - Undefined Reference
    _ZNK7CCamera23CCameraAdvancedSettings8ApertureEv@ecamadvsettings{000a0000}[1020e76b].dll  - Undefined Reference
    CCamera::CCameraAdvancedSettings::FocusMode() const  - Undefined Reference
    _ZNK7CCamera23CCameraAdvancedSettings9FocusModeEv@ecamadvsettings{000a0000}[1020e76b].dll  - Undefined Reference
    QPixmap::size() const                     - Undefined Reference
    _ZNK7QPixmap4sizeEv@QtGui{00040703}[2001b2dd].dll  - Undefined Reference
    QPixmap::toImage() const                  - Undefined Reference
    _ZNK7QPixmap7toImageEv@QtGui{00040703}[2001b2dd].dll  - Undefined Reference
    QString::lastIndexOf(const QString&, int, Qt::CaseSensitivity) const  - Undefined Reference
    _ZNK7QString11lastIndexOfERKS_iN2Qt15CaseSensitivityE@QtCore{00040703}[2001b2dc].dll  - Undefined Reference
    QString::toLocal8Bit() const              - Undefined Reference
    _ZNK7QString11toLocal8BitEv@QtCore{00040703}[2001b2dc].dll  - Undefined Reference
    QString::left(int) const                  - Undefined Reference
    _ZNK7QString4leftEi@QtCore{00040703}[2001b2dc].dll  - Undefined Reference
    QString::right(int) const                 - Undefined Reference
    _ZNK7QString5rightEi@QtCore{00040703}[2001b2dc].dll  - Undefined Reference
    QString::utf16() const                    - Undefined Reference
    _ZNK7QString5utf16Ev@QtCore{00040703}[2001b2dc].dll  - Undefined Reference
    QString::toUtf8() const                   - Undefined Reference
    _ZNK7QString6toUtf8Ev@QtCore{00040703}[2001b2dc].dll  - Undefined Reference
    QString::indexOf(const QString&, int, Qt::CaseSensitivity) const  - Undefined Reference
    _ZNK7QString7indexOfERKS_iN2Qt15CaseSensitivityE@QtCore{00040703}[2001b2dc].dll  - Undefined Reference
    QString::toLower() const                  - Undefined Reference
    _ZNK7QString7toLowerEv@QtCore{00040703}[2001b2dc].dll  - Undefined Reference
    QString::operator ==(const QLatin1String&) const  - Undefined Reference
    _ZNK7QStringeqERK13QLatin1String@QtCore{00040703}[2001b2dc].dll  - Undefined Reference
    QString::operator ==(const QString&) const  - Undefined Reference
    _ZNK7QStringeqERKS_@QtCore{00040703}[2001b2dc].dll  - Undefined Reference
    QString::operator <(const QString&) const  - Undefined Reference
    _ZNK7QStringltERKS_@QtCore{00040703}[2001b2dc].dll  - Undefined Reference
    QWidget::paintEngine() const              - Undefined Reference
    _ZNK7QWidget11paintEngineEv@QtGui{00040703}[2001b2dd].dll  - Undefined Reference
    QWidget::effectiveWinId() const           - Undefined Reference
    _ZNK7QWidget14effectiveWinIdEv@QtGui{00040703}[2001b2dd].dll  - Undefined Reference
    QWidget::heightForWidth(int) const        - Undefined Reference
    _ZNK7QWidget14heightForWidthEi@QtGui{00040703}[2001b2dd].dll  - Undefined Reference
    QWidget::minimumSizeHint() const          - Undefined Reference
    _ZNK7QWidget15minimumSizeHintEv@QtGui{00040703}[2001b2dd].dll  - Undefined Reference
    QWidget::inputMethodQuery(Qt::InputMethodQuery) const  - Undefined Reference
    _ZNK7QWidget16inputMethodQueryEN2Qt16InputMethodQueryE@QtGui{00040703}[2001b2dd].dll  - Undefined Reference
    QWidget::winId() const                    - Undefined Reference
    _ZNK7QWidget5winIdEv@QtGui{00040703}[2001b2dd].dll  - Undefined Reference
    QWidget::metric(QPaintDevice::PaintDeviceMetric) const  - Undefined Reference
    _ZNK7QWidget6metricEN12QPaintDevice17PaintDeviceMetricE@QtGui{00040703}[2001b2dd].dll  - Undefined Reference
    QWidget::window() const                   - Undefined Reference
    _ZNK7QWidget6windowEv@QtGui{00040703}[2001b2dd].dll  - Undefined Reference
    QWidget::devType() const                  - Undefined Reference
    _ZNK7QWidget7devTypeEv@QtGui{00040703}[2001b2dd].dll  - Undefined Reference
    QWidget::sizeHint() const                 - Undefined Reference
    _ZNK7QWidget8sizeHintEv@QtGui{00040703}[2001b2dd].dll  - Undefined Reference
    TDesC16::Ptr() const                      - Undefined Reference
    _ZNK7TDesC163PtrEv@euser{000a0000}[100039e5].dll  - Undefined Reference
    QVariant::toInt(bool*) const              - Undefined Reference
    _ZNK8QVariant5toIntEPb@QtCore{00040703}[2001b2dc].dll  - Undefined Reference
    QVariant::isNull() const                  - Undefined Reference
    _ZNK8QVariant6isNullEv@QtCore{00040703}[2001b2dc].dll  - Undefined Reference
    QVariant::toSize() const                  - Undefined Reference
    _ZNK8QVariant6toSizeEv@QtCore{00040703}[2001b2dc].dll  - Undefined Reference
    QVariant::toFloat(bool*) const            - Undefined Reference
    _ZNK8QVariant7toFloatEPb@QtCore{00040703}[2001b2dc].dll  - Undefined Reference
    typeinfo for QMediaService                - Undefined Reference
    _ZTI13QMediaService@QtMultimediaKit{00010103}[2002ac77].dll  - Undefined Reference
    typeinfo for QCameraControl               - Undefined Reference
    _ZTI14QCameraControl@QtMultimediaKit{00010103}[2002ac77].dll  - Undefined Reference
    typeinfo for QObjectPrivate               - Undefined Reference
    _ZTI14QObjectPrivate@QtCore{00040703}[2001b2dc].dll  - Undefined Reference
    typeinfo for XLeaveException              - Undefined Reference
    _ZTI15XLeaveException@drtaeabi{000a0000}.dll  - Undefined Reference
    typeinfo for QCameraFlashControl          - Undefined Reference
    _ZTI19QCameraFlashControl@QtMultimediaKit{00010103}[2002ac77].dll  - Undefined Reference
    typeinfo for QCameraFocusControl          - Undefined Reference
    _ZTI19QCameraFocusControl@QtMultimediaKit{00010103}[2002ac77].dll  - Undefined Reference
    typeinfo for QCameraLocksControl          - Undefined Reference
    _ZTI19QCameraLocksControl@QtMultimediaKit{00010103}[2002ac77].dll  - Undefined Reference
    typeinfo for QVideoDeviceControl          - Undefined Reference
    _ZTI19QVideoDeviceControl@QtMultimediaKit{00010103}[2002ac77].dll  - Undefined Reference
    typeinfo for QVideoWidgetControl          - Undefined Reference
    _ZTI19QVideoWidgetControl@QtMultimediaKit{00010103}[2002ac77].dll  - Undefined Reference
    typeinfo for QVideoWindowControl          - Undefined Reference
    _ZTI19QVideoWindowControl@QtMultimediaKit{00010103}[2002ac77].dll  - Undefined Reference
    typeinfo for QAudioEncoderControl         - Undefined Reference
    _ZTI20QAudioEncoderControl@QtMultimediaKit{00010103}[2002ac77].dll  - Undefined Reference
    typeinfo for QImageEncoderControl         - Undefined Reference
    _ZTI20QImageEncoderControl@QtMultimediaKit{00010103}[2002ac77].dll  - Undefined Reference
    typeinfo for QVideoEncoderControl         - Undefined Reference
    _ZTI20QVideoEncoderControl@QtMultimediaKit{00010103}[2002ac77].dll  - Undefined Reference
    typeinfo for QMediaRecorderControl        - Undefined Reference
    _ZTI21QMediaRecorderControl@QtMultimediaKit{00010103}[2002ac77].dll  - Undefined Reference
    typeinfo for QVideoRendererControl        - Undefined Reference
    _ZTI21QVideoRendererControl@QtMultimediaKit{00010103}[2002ac77].dll  - Undefined Reference
    typeinfo for QCameraExposureControl       - Undefined Reference
    _ZTI22QCameraExposureControl@QtMultimediaKit{00010103}[2002ac77].dll  - Undefined Reference
    typeinfo for QMediaContainerControl       - Undefined Reference
    _ZTI22QMediaContainerControl@QtMultimediaKit{00010103}[2002ac77].dll  - Undefined Reference
    typeinfo for QCameraImageCaptureControl   - Undefined Reference
    _ZTI26QCameraImageCaptureControl@QtMultimediaKit{00010103}[2002ac77].dll  - Undefined Reference
    typeinfo for QMediaServiceProviderPlugin  - Undefined Reference
    _ZTI27QMediaServiceProviderPlugin@QtMultimediaKit{00010103}[2002ac77].dll  - Undefined Reference
    typeinfo for QCameraImageProcessingControl  - Undefined Reference
    _ZTI29QCameraImageProcessingControl@QtMultimediaKit{00010103}[2002ac77].dll  - Undefined Reference
    typeinfo for CBase                        - Undefined Reference
    _ZTI5CBase@euser{000a0000}[100039e5].dll  - Undefined Reference
    typeinfo for CActive                      - Undefined Reference
    _ZTI7CActive@euser{000a0000}[100039e5].dll  - Undefined Reference
    typeinfo for QObject                      - Undefined Reference
    _ZTI7QObject@QtCore{00040703}[2001b2dc].dll  - Undefined Reference
    typeinfo for QWidget                      - Undefined Reference
    _ZTI7QWidget@QtGui{00040703}[2001b2dd].dll  - Undefined Reference
    typeinfo for std::bad_alloc               - Undefined Reference
    _ZTISt9bad_alloc@stdnew{000a0000}[20022178].dll  - Undefined Reference
    typeinfo for std::exception               - Undefined Reference
    _ZTISt9exception@stdnew{000a0000}[20022178].dll  - Undefined Reference
    vtable for QMediaServiceProviderPlugin    - Undefined Reference
    _ZTV27QMediaServiceProviderPlugin@QtMultimediaKit{00010103}[2002ac77].dll  - Undefined Reference
    vtable for CBase                          - Undefined Reference
    _ZTV5CBase@euser{000a0000}[100039e5].dll  - Undefined Reference
    vtable for __cxxabiv1::__class_type_info  - Undefined Reference
    _ZTVN10__cxxabiv117__class_type_infoE@drtaeabi{000a0000}.dll  - Undefined Reference
    vtable for __cxxabiv1::__si_class_type_info  - Undefined Reference
    _ZTVN10__cxxabiv120__si_class_type_infoE@drtaeabi{000a0000}.dll  - Undefined Reference
    vtable for __cxxabiv1::__vmi_class_type_info  - Undefined Reference
    _ZTVN10__cxxabiv121__vmi_class_type_infoE@drtaeabi{000a0000}.dll  - Undefined Reference
    thunk{-8} to QWidget::paintEngine() const  - Undefined Reference
    _ZThn8_NK7QWidget11paintEngineEv@QtGui{00040703}[2001b2dd].dll  - Undefined Reference
    thunk{-8} to QWidget::metric(QPaintDevice::PaintDeviceMetric) const  - Undefined Reference
    _ZThn8_NK7QWidget6metricEN12QPaintDevice17PaintDeviceMetricE@QtGui{00040703}[2001b2dd].dll  - Undefined Reference
    thunk{-8} to QWidget::devType() const     - Undefined Reference
    _ZThn8_NK7QWidget7devTypeEv@QtGui{00040703}[2001b2dd].dll  - Undefined Reference
    operator delete (void*)                   - Undefined Reference
    _ZdlPv@stdnew{000a0000}[20022178].dll     - Undefined Reference
    operator new(unsigned)                    - Undefined Reference
    _Znwj@stdnew{000a0000}[20022178].dll      - Undefined Reference
    __aeabi_cdcmpeq                           - Undefined Reference
    __aeabi_cdcmpeq@dfpaeabi{000a0000}.dll    - Undefined Reference
    __aeabi_cdrcmple                          - Undefined Reference
    __aeabi_cdrcmple@dfpaeabi{000a0000}.dll   - Undefined Reference
    __aeabi_cfcmpeq                           - Undefined Reference
    __aeabi_cfcmpeq@dfpaeabi{000a0000}.dll    - Undefined Reference
    __aeabi_cfcmple                           - Undefined Reference
    __aeabi_cfcmple@dfpaeabi{000a0000}.dll    - Undefined Reference
    __aeabi_cfrcmple                          - Undefined Reference
    __aeabi_cfrcmple@dfpaeabi{000a0000}.dll   - Undefined Reference
    __aeabi_d2f                               - Undefined Reference
    __aeabi_d2f@dfpaeabi{000a0000}.dll        - Undefined Reference
    __aeabi_d2iz                              - Undefined Reference
    __aeabi_d2iz@dfpaeabi{000a0000}.dll       - Undefined Reference
    __aeabi_ddiv                              - Undefined Reference
    __aeabi_ddiv@dfpaeabi{000a0000}.dll       - Undefined Reference
    __aeabi_dmul                              - Undefined Reference
    __aeabi_dmul@dfpaeabi{000a0000}.dll       - Undefined Reference
    __aeabi_f2d                               - Undefined Reference
    __aeabi_f2d@dfpaeabi{000a0000}.dll        - Undefined Reference
    __aeabi_f2iz                              - Undefined Reference
    __aeabi_f2iz@dfpaeabi{000a0000}.dll       - Undefined Reference
    __aeabi_fdiv                              - Undefined Reference
    __aeabi_fdiv@dfpaeabi{000a0000}.dll       - Undefined Reference
    __aeabi_fmul                              - Undefined Reference
    __aeabi_fmul@dfpaeabi{000a0000}.dll       - Undefined Reference
    __aeabi_fsub                              - Undefined Reference
    __aeabi_fsub@dfpaeabi{000a0000}.dll       - Undefined Reference
    __aeabi_i2f                               - Undefined Reference
    __aeabi_i2f@dfpaeabi{000a0000}.dll        - Undefined Reference
    __aeabi_ldivmod                           - Undefined Reference
    __aeabi_ldivmod@drtaeabi{000a0000}.dll    - Undefined Reference
    __aeabi_memcpy4                           - Undefined Reference
    __aeabi_memcpy4@drtaeabi{000a0000}.dll    - Undefined Reference
    __aeabi_uidivmod                          - Undefined Reference
    __aeabi_uidivmod@drtaeabi{000a0000}.dll   - Undefined Reference
    __aeabi_unwind_cpp_pr0                    - Undefined Reference
    __aeabi_unwind_cpp_pr0@drtaeabi{000a0000}.dll  - Undefined Reference
    __aeabi_unwind_cpp_pr1                    - Undefined Reference
    __aeabi_unwind_cpp_pr1@drtaeabi{000a0000}.dll  - Undefined Reference
    __cxa_begin_catch                         - Undefined Reference
    __cxa_begin_catch@drtaeabi{000a0000}.dll  - Undefined Reference
    __cxa_call_unexpected                     - Undefined Reference
    __cxa_call_unexpected@drtaeabi{000a0000}.dll  - Undefined Reference
    __cxa_end_catch                           - Undefined Reference
    __cxa_end_catch@drtaeabi{000a0000}.dll    - Undefined Reference
    __cxa_end_cleanup                         - Undefined Reference
    __cxa_end_cleanup@drtaeabi{000a0000}.dll  - Undefined Reference
    __cxa_guard_abort                         - Undefined Reference
    __cxa_guard_abort@drtaeabi{000a0000}.dll  - Undefined Reference
    __cxa_guard_acquire                       - Undefined Reference
    __cxa_guard_acquire@drtaeabi{000a0000}.dll  - Undefined Reference
    __cxa_guard_release                       - Undefined Reference
    __cxa_guard_release@drtaeabi{000a0000}.dll  - Undefined Reference
    __cxa_pure_virtual                        - Undefined Reference
    __cxa_pure_virtual@drtaeabi{000a0000}.dll  - Undefined Reference
    __cxa_rethrow                             - Undefined Reference
    __cxa_rethrow@drtaeabi{000a0000}.dll      - Undefined Reference
    fabsf                                     - Undefined Reference
    fabsf@libm{00010001}[102750d2].dll        - Undefined Reference
    memcmp                                    - Undefined Reference
    memcmp@libc{00010001}[10207369].dll       - Undefined Reference
    strcmp                                    - Undefined Reference
    strcmp@libc{00010001}[10207369].dll       - Undefined Reference
    Image$$ER_RO$$Base                       0x00008000   Number         0  anon$$obj.o(linker$$defined$$symbols)
    _E32Dll                                  0x00008000   ARM Code      40  uc_dll_.o(.emb_text)
    Symbian$$CPP$$Exception$$Descriptor      0x00008014   Data           0  uc_dll_.o(.emb_text)
    __cpp_initialize__aeabi_                 0x00008028   ARM Code      52  ucppinit.o(.emb_text)
    std::nothrow                             0x0000805c   ARM Code       0  ucppinit.o(.emb_text)
    __PLT                                    0x0000805c   ARM Code       0  anon$$obj.o(.plt)
    S60VideoDisplay::getStaticMetaObject()   0x00008f9d   Thumb Code     4  moc_s60videodisplay.o(.text)
    S60VideoDisplay::metaObject() const      0x00008fa1   Thumb Code    28  moc_s60videodisplay.o(.text)
    S60VideoDisplay::qt_metacast(const char*) 0x00008fbd   Thumb Code    40  moc_s60videodisplay.o(.text)
    S60VideoDisplay::endVideoWindowNativePaint() 0x00008fe5   Thumb Code    18  moc_s60videodisplay.o(.text)
    S60VideoDisplay::beginVideoWindowNativePaint() 0x00008ff7   Thumb Code    18  moc_s60videodisplay.o(.text)
    S60VideoDisplay::rotationChanged(float)  0x00009009   Thumb Code    32  moc_s60videodisplay.o(.text)
    S60VideoDisplay::paintingEnabledChanged(bool) 0x00009029   Thumb Code    32  moc_s60videodisplay.o(.text)
    S60VideoDisplay::contentRectChanged(QRect) 0x00009049   Thumb Code    38  moc_s60videodisplay.o(.text)
    S60VideoDisplay::nativeSizeChanged(QSize) 0x0000906f   Thumb Code    34  moc_s60videodisplay.o(.text)
    S60VideoDisplay::aspectRatioModeChanged(Qt::AspectRatioMode) 0x00009091   Thumb Code    32  moc_s60videodisplay.o(.text)
    S60VideoDisplay::visibilityChanged(bool) 0x000090b1   Thumb Code    32  moc_s60videodisplay.o(.text)
    S60VideoDisplay::fullScreenChanged(bool) 0x000090d1   Thumb Code    32  moc_s60videodisplay.o(.text)
    S60VideoDisplay::displayRectChanged(QRect, QRect) 0x000090f1   Thumb Code    44  moc_s60videodisplay.o(.text)
    S60VideoDisplay::windowHandleChanged(RWindow*) 0x0000911d   Thumb Code    30  moc_s60videodisplay.o(.text)
    S60VideoDisplay::qt_metacall(QMetaObject::Call, int, void**) 0x0000913b   Thumb Code   252  moc_s60videodisplay.o(.text)
    S60VideoWidget::getStaticMetaObject()    0x00009241   Thumb Code     4  moc_s60videowidget.o(.text)
    S60VideoWidget::metaObject() const       0x00009245   Thumb Code    28  moc_s60videowidget.o(.text)
    S60VideoWidget::qt_metacast(const char*) 0x00009261   Thumb Code    40  moc_s60videowidget.o(.text)
    S60VideoWidget::endVideoWidgetNativePaint() 0x00009289   Thumb Code    18  moc_s60videowidget.o(.text)
    S60VideoWidget::beginVideoWidgetNativePaint() 0x0000929b   Thumb Code    18  moc_s60videowidget.o(.text)
    S60VideoWidget::qt_metacall(QMetaObject::Call, int, void**) 0x000092ad   Thumb Code   154  moc_s60videowidget.o(.text)
    S60VideoWidgetControl::getStaticMetaObject() 0x00009351   Thumb Code     4  moc_s60videowidgetcontrol.o(.text)
    S60VideoWidgetControl::metaObject() const 0x00009355   Thumb Code    28  moc_s60videowidgetcontrol.o(.text)
    S60VideoWidgetControl::qt_metacast(const char*) 0x00009371   Thumb Code    40  moc_s60videowidgetcontrol.o(.text)
    S60VideoWidgetControl::nativeSizeChanged() 0x00009399   Thumb Code    18  moc_s60videowidgetcontrol.o(.text)
    S60VideoWidgetControl::qt_metacall(QMetaObject::Call, int, void**) 0x000093ab   Thumb Code   258  moc_s60videowidgetcontrol.o(.text)
    S60VideoWidgetDisplay::getStaticMetaObject() 0x000094b5   Thumb Code     4  moc_s60videowidgetdisplay.o(.text)
    S60VideoWidgetDisplay::metaObject() const 0x000094b9   Thumb Code    28  moc_s60videowidgetdisplay.o(.text)
    S60VideoWidgetDisplay::qt_metacast(const char*) 0x000094d5   Thumb Code    40  moc_s60videowidgetdisplay.o(.text)
    S60VideoWidgetDisplay::qt_metacall(QMetaObject::Call, int, void**) 0x000094fd   Thumb Code    36  moc_s60videowidgetdisplay.o(.text)
    S60VideoWindowControl::getStaticMetaObject() 0x00009529   Thumb Code     4  moc_s60videowindowcontrol.o(.text)
    S60VideoWindowControl::metaObject() const 0x0000952d   Thumb Code    28  moc_s60videowindowcontrol.o(.text)
    S60VideoWindowControl::qt_metacast(const char*) 0x00009549   Thumb Code    40  moc_s60videowindowcontrol.o(.text)
    S60VideoWindowControl::qt_metacall(QMetaObject::Call, int, void**) 0x00009571   Thumb Code   160  moc_s60videowindowcontrol.o(.text)
    S60CameraLocksControl::getStaticMetaObject() 0x00009619   Thumb Code     4  moc_s60cameralockscontrol.o(.text)
    S60CameraLocksControl::metaObject() const 0x0000961d   Thumb Code    28  moc_s60cameralockscontrol.o(.text)
    S60CameraLocksControl::qt_metacast(const char*) 0x00009639   Thumb Code    40  moc_s60cameralockscontrol.o(.text)
    S60CameraLocksControl::qt_metacall(QMetaObject::Call, int, void**) 0x00009661   Thumb Code   100  moc_s60cameralockscontrol.o(.text)
    S60CameraFocusControl::getStaticMetaObject() 0x000096cd   Thumb Code     4  moc_s60camerafocuscontrol.o(.text)
    S60CameraFocusControl::metaObject() const 0x000096d1   Thumb Code    28  moc_s60camerafocuscontrol.o(.text)
    S60CameraFocusControl::qt_metacast(const char*) 0x000096ed   Thumb Code    40  moc_s60camerafocuscontrol.o(.text)
    S60CameraFocusControl::qt_metacall(QMetaObject::Call, int, void**) 0x00009715   Thumb Code    58  moc_s60camerafocuscontrol.o(.text)
    S60CameraExposureControl::getStaticMetaObject() 0x00009759   Thumb Code     4  moc_s60cameraexposurecontrol.o(.text)
    S60CameraExposureControl::metaObject() const 0x0000975d   Thumb Code    28  moc_s60cameraexposurecontrol.o(.text)
    S60CameraExposureControl::qt_metacast(const char*) 0x00009779   Thumb Code    40  moc_s60cameraexposurecontrol.o(.text)
    S60CameraExposureControl::qt_metacall(QMetaObject::Call, int, void**) 0x000097a1   Thumb Code   108  moc_s60cameraexposurecontrol.o(.text)
    S60CameraFlashControl::getStaticMetaObject() 0x00009815   Thumb Code     4  moc_s60cameraflashcontrol.o(.text)
    S60CameraFlashControl::metaObject() const 0x00009819   Thumb Code    28  moc_s60cameraflashcontrol.o(.text)
    S60CameraFlashControl::qt_metacast(const char*) 0x00009835   Thumb Code    40  moc_s60cameraflashcontrol.o(.text)
    S60CameraFlashControl::qt_metacall(QMetaObject::Call, int, void**) 0x0000985d   Thumb Code    58  moc_s60cameraflashcontrol.o(.text)
    S60CameraControl::getStaticMetaObject()  0x000098b7   Thumb Code     4  moc_s60cameracontrol.o(.text)
    S60CameraControl::metaObject() const     0x000098bb   Thumb Code    28  moc_s60cameracontrol.o(.text)
    S60CameraControl::qt_metacast(const char*) 0x000098d7   Thumb Code    60  moc_s60cameracontrol.o(.text)
    S60CameraControl::devicesChanged()       0x00009913   Thumb Code    18  moc_s60cameracontrol.o(.text)
    S60CameraControl::cameraReadyChanged(bool) 0x00009925   Thumb Code    30  moc_s60cameracontrol.o(.text)
    S60CameraControl::qt_metacall(QMetaObject::Call, int, void**) 0x00009943   Thumb Code   122  moc_s60cameracontrol.o(.text)
    S60MediaRecorderControl::getStaticMetaObject() 0x000099f3   Thumb Code     4  moc_s60mediarecordercontrol.o(.text)
    S60MediaRecorderControl::metaObject() const 0x000099f7   Thumb Code    28  moc_s60mediarecordercontrol.o(.text)
    S60MediaRecorderControl::qt_metacast(const char*) 0x00009a13   Thumb Code    42  moc_s60mediarecordercontrol.o(.text)
    S60MediaRecorderControl::qt_metacall(QMetaObject::Call, int, void**) 0x00009a3d   Thumb Code   116  moc_s60mediarecordercontrol.o(.text)
    S60VideoCaptureSession::getStaticMetaObject() 0x00009acf   Thumb Code     4  moc_s60videocapturesession.o(.text)
    S60VideoCaptureSession::metaObject() const 0x00009ad3   Thumb Code    28  moc_s60videocapturesession.o(.text)
    S60VideoCaptureSession::qt_metacast(const char*) 0x00009aef   Thumb Code    76  moc_s60videocapturesession.o(.text)
    S60VideoCaptureSession::error(int, const QString&) 0x00009b3b   Thumb Code    40  moc_s60videocapturesession.o(.text)
    S60VideoCaptureSession::captureSizeChanged(const QSize&) 0x00009b63   Thumb Code    30  moc_s60videocapturesession.o(.text)
    S60VideoCaptureSession::mutedChanged(bool) 0x00009b81   Thumb Code    32  moc_s60videocapturesession.o(.text)
    S60VideoCaptureSession::positionChanged(long long) 0x00009ba1   Thumb Code    34  moc_s60videocapturesession.o(.text)
    S60VideoCaptureSession::stateChanged(S60VideoCaptureSession::TVideoCaptureState) 0x00009bc3   Thumb Code    30  moc_s60videocapturesession.o(.text)
    S60VideoCaptureSession::qt_metacall(QMetaObject::Call, int, void**) 0x00009be1   Thumb Code   144  moc_s60videocapturesession.o(.text)
    S60ImageCaptureSession::getStaticMetaObject() 0x00009cb9   Thumb Code     4  moc_s60imagecapturesession.o(.text)
    S60ImageCaptureSession::metaObject() const 0x00009cbd   Thumb Code    28  moc_s60imagecapturesession.o(.text)
    S60ImageCaptureSession::qt_metacast(const char*) 0x00009cd9   Thumb Code    58  moc_s60imagecapturesession.o(.text)
    S60ImageCaptureSession::focusStatusChanged(QCamera::LockStatus, QCamera::LockChangeReason) 0x00009d13   Thumb Code    40  moc_s60imagecapturesession.o(.text)
    S60ImageCaptureSession::imageSaved(int, const QString&) 0x00009d3b   Thumb Code    40  moc_s60imagecapturesession.o(.text)
    S60ImageCaptureSession::imageCaptured(int, const QImage&) 0x00009d63   Thumb Code    40  moc_s60imagecapturesession.o(.text)
    S60ImageCaptureSession::imageExposed(int) 0x00009d8b   Thumb Code    32  moc_s60imagecapturesession.o(.text)
    S60ImageCaptureSession::readyForCaptureChanged(bool) 0x00009dab   Thumb Code    32  moc_s60imagecapturesession.o(.text)
    S60ImageCaptureSession::captureError(int, int, const QString&) 0x00009dcb   Thumb Code    44  moc_s60imagecapturesession.o(.text)
    S60ImageCaptureSession::cameraError(int, const QString&) 0x00009df7   Thumb Code    40  moc_s60imagecapturesession.o(.text)
    S60ImageCaptureSession::captureSizeChanged(const QSize&) 0x00009e1f   Thumb Code    30  moc_s60imagecapturesession.o(.text)
    S60ImageCaptureSession::advancedSettingChanged() 0x00009e3d   Thumb Code    18  moc_s60imagecapturesession.o(.text)
    S60ImageCaptureSession::stateChanged(QCamera::State) 0x00009e4f   Thumb Code    30  moc_s60imagecapturesession.o(.text)
    S60ImageCaptureSession::qt_metacall(QMetaObject::Call, int, void**) 0x00009e6d   Thumb Code   208  moc_s60imagecapturesession.o(.text)
    S60MediaContainerControl::getStaticMetaObject() 0x00009f69   Thumb Code     4  moc_s60mediacontainercontrol.o(.text)
    S60MediaContainerControl::metaObject() const 0x00009f6d   Thumb Code    28  moc_s60mediacontainercontrol.o(.text)
    S60MediaContainerControl::qt_metacast(const char*) 0x00009f89   Thumb Code    40  moc_s60mediacontainercontrol.o(.text)
    S60MediaContainerControl::qt_metacall(QMetaObject::Call, int, void**) 0x00009fb1   Thumb Code    36  moc_s60mediacontainercontrol.o(.text)
    S60VideoEncoderControl::getStaticMetaObject() 0x00009fdd   Thumb Code     4  moc_s60videoencodercontrol.o(.text)
    S60VideoEncoderControl::metaObject() const 0x00009fe1   Thumb Code    28  moc_s60videoencodercontrol.o(.text)
    S60VideoEncoderControl::qt_metacast(const char*) 0x00009ffd   Thumb Code    40  moc_s60videoencodercontrol.o(.text)
    S60VideoEncoderControl::qt_metacall(QMetaObject::Call, int, void**) 0x0000a025   Thumb Code    36  moc_s60videoencodercontrol.o(.text)
    S60AudioEncoderControl::getStaticMetaObject() 0x0000a051   Thumb Code     4  moc_s60audioencodercontrol.o(.text)
    S60AudioEncoderControl::metaObject() const 0x0000a055   Thumb Code    28  moc_s60audioencodercontrol.o(.text)
    S60AudioEncoderControl::qt_metacast(const char*) 0x0000a071   Thumb Code    40  moc_s60audioencodercontrol.o(.text)
    S60AudioEncoderControl::qt_metacall(QMetaObject::Call, int, void**) 0x0000a099   Thumb Code    36  moc_s60audioencodercontrol.o(.text)
    S60CameraService::getStaticMetaObject()  0x0000a0c5   Thumb Code     4  moc_s60cameraservice.o(.text)
    S60CameraService::metaObject() const     0x0000a0c9   Thumb Code    28  moc_s60cameraservice.o(.text)
    S60CameraService::qt_metacast(const char*) 0x0000a0e5   Thumb Code    40  moc_s60cameraservice.o(.text)
    S60CameraService::qt_metacall(QMetaObject::Call, int, void**) 0x0000a10d   Thumb Code    36  moc_s60cameraservice.o(.text)
    S60CameraImageProcessingControl::getStaticMetaObject() 0x0000a139   Thumb Code     4  moc_s60cameraimageprocessingcontrol.o(.text)
    S60CameraImageProcessingControl::metaObject() const 0x0000a13d   Thumb Code    28  moc_s60cameraimageprocessingcontrol.o(.text)
    S60CameraImageProcessingControl::qt_metacast(const char*) 0x0000a159   Thumb Code    40  moc_s60cameraimageprocessingcontrol.o(.text)
    S60CameraImageProcessingControl::qt_metacall(QMetaObject::Call, int, void**) 0x0000a181   Thumb Code    58  moc_s60cameraimageprocessingcontrol.o(.text)
    S60CameraImageCaptureControl::getStaticMetaObject() 0x0000a1c5   Thumb Code     4  moc_s60cameraimagecapturecontrol.o(.text)
    S60CameraImageCaptureControl::metaObject() const 0x0000a1c9   Thumb Code    28  moc_s60cameraimagecapturecontrol.o(.text)
    S60CameraImageCaptureControl::qt_metacast(const char*) 0x0000a1e5   Thumb Code    40  moc_s60cameraimagecapturecontrol.o(.text)
    S60CameraImageCaptureControl::qt_metacall(QMetaObject::Call, int, void**) 0x0000a20d   Thumb Code    36  moc_s60cameraimagecapturecontrol.o(.text)
    S60VideoDeviceControl::getStaticMetaObject() 0x0000a239   Thumb Code     4  moc_s60videodevicecontrol.o(.text)
    S60VideoDeviceControl::metaObject() const 0x0000a23d   Thumb Code    28  moc_s60videodevicecontrol.o(.text)
    S60VideoDeviceControl::qt_metacast(const char*) 0x0000a259   Thumb Code    40  moc_s60videodevicecontrol.o(.text)
    S60VideoDeviceControl::qt_metacall(QMetaObject::Call, int, void**) 0x0000a281   Thumb Code    64  moc_s60videodevicecontrol.o(.text)
    S60ImageEncoderControl::getStaticMetaObject() 0x0000a2c9   Thumb Code     4  moc_s60imageencodercontrol.o(.text)
    S60ImageEncoderControl::metaObject() const 0x0000a2cd   Thumb Code    28  moc_s60imageencodercontrol.o(.text)
    S60ImageEncoderControl::qt_metacast(const char*) 0x0000a2e9   Thumb Code    40  moc_s60imageencodercontrol.o(.text)
    S60ImageEncoderControl::qt_metacall(QMetaObject::Call, int, void**) 0x0000a311   Thumb Code    36  moc_s60imageencodercontrol.o(.text)
    S60CameraSettings::getStaticMetaObject() 0x0000a33d   Thumb Code     4  moc_s60camerasettings.o(.text)
    S60CameraSettings::metaObject() const    0x0000a341   Thumb Code    28  moc_s60camerasettings.o(.text)
    S60CameraSettings::qt_metacast(const char*) 0x0000a35d   Thumb Code    58  moc_s60camerasettings.o(.text)
    S60CameraSettings::error(int, const QString&) 0x0000a397   Thumb Code    40  moc_s60camerasettings.o(.text)
    S60CameraSettings::focusStatusChanged(QCamera::LockStatus, QCamera::LockChangeReason) 0x0000a3bf   Thumb Code    40  moc_s60camerasettings.o(.text)
    S60CameraSettings::exposureStatusChanged(QCamera::LockStatus, QCamera::LockChangeReason) 0x0000a3e7   Thumb Code    40  moc_s60camerasettings.o(.text)
    S60CameraSettings::evChanged()           0x0000a40f   Thumb Code    18  moc_s60camerasettings.o(.text)
    S60CameraSettings::isoSensitivityChanged() 0x0000a421   Thumb Code    18  moc_s60camerasettings.o(.text)
    S60CameraSettings::shutterSpeedChanged() 0x0000a433   Thumb Code    18  moc_s60camerasettings.o(.text)
    S60CameraSettings::apertureRangeChanged() 0x0000a445   Thumb Code    18  moc_s60camerasettings.o(.text)
    S60CameraSettings::apertureChanged()     0x0000a457   Thumb Code    18  moc_s60camerasettings.o(.text)
    S60CameraSettings::flashReady(bool)      0x0000a469   Thumb Code    30  moc_s60camerasettings.o(.text)
    S60CameraSettings::qt_metacall(QMetaObject::Call, int, void**) 0x0000a487   Thumb Code   162  moc_s60camerasettings.o(.text)
    S60CameraViewfinderEngine::getStaticMetaObject() 0x0000a54d   Thumb Code     4  moc_s60cameraviewfinderengine.o(.text)
    S60CameraViewfinderEngine::metaObject() const 0x0000a551   Thumb Code    28  moc_s60cameraviewfinderengine.o(.text)
    S60CameraViewfinderEngine::qt_metacast(const char*) 0x0000a56d   Thumb Code    58  moc_s60cameraviewfinderengine.o(.text)
    S60CameraViewfinderEngine::viewFinderFrameReady(const CFbsBitmap&) 0x0000a5a7   Thumb Code    30  moc_s60cameraviewfinderengine.o(.text)
    S60CameraViewfinderEngine::error(int, const QString&) 0x0000a5c5   Thumb Code    38  moc_s60cameraviewfinderengine.o(.text)
    S60CameraViewfinderEngine::qt_metacall(QMetaObject::Call, int, void**) 0x0000a5eb   Thumb Code   174  moc_s60cameraviewfinderengine.o(.text)
    S60VideoRendererControl::getStaticMetaObject() 0x0000a6bd   Thumb Code     4  moc_s60videorenderercontrol.o(.text)
    S60VideoRendererControl::metaObject() const 0x0000a6c1   Thumb Code    28  moc_s60videorenderercontrol.o(.text)
    S60VideoRendererControl::qt_metacast(const char*) 0x0000a6dd   Thumb Code    40  moc_s60videorenderercontrol.o(.text)
    S60VideoRendererControl::viewFinderSurfaceSet() 0x0000a705   Thumb Code    18  moc_s60videorenderercontrol.o(.text)
    S60VideoRendererControl::qt_metacall(QMetaObject::Call, int, void**) 0x0000a717   Thumb Code    58  moc_s60videorenderercontrol.o(.text)
    S60CameraServicePlugin::getStaticMetaObject() 0x0000a759   Thumb Code     4  moc_s60cameraserviceplugin.o(.text)
    S60CameraServicePlugin::metaObject() const 0x0000a75d   Thumb Code    28  moc_s60cameraserviceplugin.o(.text)
    S60CameraServicePlugin::qt_metacast(const char*) 0x0000a779   Thumb Code    76  moc_s60cameraserviceplugin.o(.text)
    S60CameraServicePlugin::qt_metacall(QMetaObject::Call, int, void**) 0x0000a7c5   Thumb Code    36  moc_s60cameraserviceplugin.o(.text)
    S60CameraLocksControl::S60CameraLocksControl(QObject*) 0x0000a851   Thumb Code    24  s60cameralockscontrol.o(.text)
    S60CameraLocksControl::S60CameraLocksControl__sub_object(QObject*) 0x0000a851   Thumb Code     0  s60cameralockscontrol.o(.text)
    S60CameraLocksControl::S60CameraLocksControl(S60CameraService*, S60ImageCaptureSession*, QObject*) 0x0000a869   Thumb Code   178  s60cameralockscontrol.o(.text)
    S60CameraLocksControl::S60CameraLocksControl__sub_object(S60CameraService*, S60ImageCaptureSession*, QObject*) 0x0000a869   Thumb Code     0  s60cameralockscontrol.o(.text)
    S60CameraLocksControl::~S60CameraLocksControl() 0x0000a91b   Thumb Code    22  s60cameralockscontrol.o(.text)
    S60CameraLocksControl::~S60CameraLocksControl__sub_object() 0x0000a91b   Thumb Code     0  s60cameralockscontrol.o(.text)
    S60CameraLocksControl::~S60CameraLocksControl__deallocating() 0x0000a931   Thumb Code    22  s60cameralockscontrol.o(.text)
    S60CameraLocksControl::supportedLocks() const 0x0000a947   Thumb Code    72  s60cameralockscontrol.o(.text)
    S60CameraLocksControl::lockStatus(QCamera::LockType) const 0x0000a98f   Thumb Code    32  s60cameralockscontrol.o(.text)
    S60CameraLocksControl::startFocusing()   0x0000a9af   Thumb Code    68  s60cameralockscontrol.o(.text)
    S60CameraLocksControl::searchAndLock(QFlags<QCamera::LockType>) 0x0000a9f3   Thumb Code    84  s60cameralockscontrol.o(.text)
    S60CameraLocksControl::cancelFocusing()  0x0000aa47   Thumb Code    56  s60cameralockscontrol.o(.text)
    S60CameraLocksControl::unlock(QFlags<QCamera::LockType>) 0x0000aa7f   Thumb Code    62  s60cameralockscontrol.o(.text)
    S60CameraLocksControl::exposureStatusChanged(QCamera::LockStatus, QCamera::LockChangeReason) 0x0000aabd   Thumb Code    30  s60cameralockscontrol.o(.text)
    S60CameraLocksControl::focusStatusChanged(QCamera::LockStatus, QCamera::LockChangeReason) 0x0000aadb   Thumb Code    30  s60cameralockscontrol.o(.text)
    S60CameraLocksControl::resetAdvancedSetting() 0x0000aaf9   Thumb Code    58  s60cameralockscontrol.o(.text)
    S60CameraLocksControl::startExposureLocking() 0x0000ab33   Thumb Code    50  s60cameralockscontrol.o(.text)
    S60CameraLocksControl::cancelExposureLocking() 0x0000ab65   Thumb Code    58  s60cameralockscontrol.o(.text)
    S60CameraFocusControl::S60CameraFocusControl(QObject*) 0x0000ac09   Thumb Code    24  s60camerafocuscontrol.o(.text)
    S60CameraFocusControl::S60CameraFocusControl__sub_object(QObject*) 0x0000ac09   Thumb Code     0  s60camerafocuscontrol.o(.text)
    S60CameraFocusControl::S60CameraFocusControl(S60ImageCaptureSession*, QObject*) 0x0000ac21   Thumb Code   172  s60camerafocuscontrol.o(.text)
    S60CameraFocusControl::S60CameraFocusControl__sub_object(S60ImageCaptureSession*, QObject*) 0x0000ac21   Thumb Code     0  s60camerafocuscontrol.o(.text)
    S60CameraFocusControl::~S60CameraFocusControl() 0x0000accd   Thumb Code    14  s60camerafocuscontrol.o(.text)
    S60CameraFocusControl::~S60CameraFocusControl__sub_object() 0x0000accd   Thumb Code     0  s60camerafocuscontrol.o(.text)
    S60CameraFocusControl::~S60CameraFocusControl__deallocating() 0x0000acdb   Thumb Code    22  s60camerafocuscontrol.o(.text)
    S60CameraFocusControl::focusMode() const 0x0000acf1   Thumb Code     6  s60camerafocuscontrol.o(.text)
    S60CameraFocusControl::setFocusMode(QCameraFocus::FocusMode) 0x0000acf7   Thumb Code   104  s60camerafocuscontrol.o(.text)
    S60CameraFocusControl::isFocusModeSupported(QCameraFocus::FocusMode) const 0x0000ad5f   Thumb Code    68  s60camerafocuscontrol.o(.text)
    S60CameraFocusControl::maximumOpticalZoom() const 0x0000ada3   Thumb Code    12  s60camerafocuscontrol.o(.text)
    S60CameraFocusControl::maximumDigitalZoom() const 0x0000adaf   Thumb Code    12  s60camerafocuscontrol.o(.text)
    S60CameraFocusControl::opticalZoom() const 0x0000adbb   Thumb Code    12  s60camerafocuscontrol.o(.text)
    S60CameraFocusControl::digitalZoom() const 0x0000adc7   Thumb Code    12  s60camerafocuscontrol.o(.text)
    S60CameraFocusControl::zoomTo(float, float) 0x0000add3   Thumb Code   172  s60camerafocuscontrol.o(.text)
    S60CameraFocusControl::focusPointMode() const 0x0000ae7f   Thumb Code     6  s60camerafocuscontrol.o(.text)
    S60CameraFocusControl::setFocusPointMode(QCameraFocus::FocusPointMode) 0x0000ae85   Thumb Code   320  s60camerafocuscontrol.o(.text)
    S60CameraFocusControl::isFocusPointModeSupported(QCameraFocus::FocusPointMode) const 0x0000afc5   Thumb Code    14  s60camerafocuscontrol.o(.text)
    S60CameraFocusControl::customFocusPoint() const 0x0000afd3   Thumb Code    22  s60camerafocuscontrol.o(.text)
    S60CameraFocusControl::setCustomFocusPoint(const QPointF&) 0x0000afe9   Thumb Code    42  s60camerafocuscontrol.o(.text)
    S60CameraFocusControl::focusZones() const 0x0000b013   Thumb Code    36  s60camerafocuscontrol.o(.text)
    S60CameraFocusControl::resetAdvancedSetting() 0x0000b037   Thumb Code    14  s60camerafocuscontrol.o(.text)
    S60CameraExposureControl::S60CameraExposureControl(QObject*) 0x0000b079   Thumb Code    24  s60cameraexposurecontrol.o(.text)
    S60CameraExposureControl::S60CameraExposureControl__sub_object(QObject*) 0x0000b079   Thumb Code     0  s60cameraexposurecontrol.o(.text)
    S60CameraExposureControl::S60CameraExposureControl(S60ImageCaptureSession*, QObject*) 0x0000b091   Thumb Code   432  s60cameraexposurecontrol.o(.text)
    S60CameraExposureControl::S60CameraExposureControl__sub_object(S60ImageCaptureSession*, QObject*) 0x0000b091   Thumb Code     0  s60cameraexposurecontrol.o(.text)
    S60CameraExposureControl::~S60CameraExposureControl() 0x0000b241   Thumb Code    22  s60cameraexposurecontrol.o(.text)
    S60CameraExposureControl::~S60CameraExposureControl__sub_object() 0x0000b241   Thumb Code     0  s60cameraexposurecontrol.o(.text)
    S60CameraExposureControl::~S60CameraExposureControl__deallocating() 0x0000b257   Thumb Code    22  s60cameraexposurecontrol.o(.text)
    S60CameraExposureControl::exposureMode() const 0x0000b26d   Thumb Code    12  s60cameraexposurecontrol.o(.text)
    S60CameraExposureControl::setExposureMode(QCameraExposure::ExposureMode) 0x0000b279   Thumb Code    70  s60cameraexposurecontrol.o(.text)
    S60CameraExposureControl::isExposureModeSupported(QCameraExposure::ExposureMode) const 0x0000b2bf   Thumb Code    26  s60cameraexposurecontrol.o(.text)
    S60CameraExposureControl::meteringMode() const 0x0000b2d9   Thumb Code    22  s60cameraexposurecontrol.o(.text)
    S60CameraExposureControl::setMeteringMode(QCameraExposure::MeteringMode) 0x0000b2ef   Thumb Code    76  s60cameraexposurecontrol.o(.text)
    S60CameraExposureControl::isMeteringModeSupported(QCameraExposure::MeteringMode) const 0x0000b33b   Thumb Code    26  s60cameraexposurecontrol.o(.text)
    S60CameraExposureControl::isParameterSupported(QCameraExposureControl::ExposureParameter) const 0x0000b355   Thumb Code   234  s60cameraexposurecontrol.o(.text)
    S60CameraExposureControl::exposureCompensation() const 0x0000b43f   Thumb Code    22  s60cameraexposurecontrol.o(.text)
    S60CameraExposureControl::shutterSpeed() const 0x0000b455   Thumb Code    22  s60cameraexposurecontrol.o(.text)
    S60CameraExposureControl::aperture() const 0x0000b46b   Thumb Code    22  s60cameraexposurecontrol.o(.text)
    S60CameraExposureControl::isoSensitivity() const 0x0000b481   Thumb Code    22  s60cameraexposurecontrol.o(.text)
    S60CameraExposureControl::exposureParameter(QCameraExposureControl::ExposureParameter) const 0x0000b497   Thumb Code   134  s60cameraexposurecontrol.o(.text)
    S60CameraExposureControl::exposureParameterFlags(QCameraExposureControl::ExposureParameter) const 0x0000b51d   Thumb Code    56  s60cameraexposurecontrol.o(.text)
    S60CameraExposureControl::supportedParameterRange(QCameraExposureControl::ExposureParameter) const 0x0000b555   Thumb Code   958  s60cameraexposurecontrol.o(.text)
    S60CameraExposureControl::isExposureCompensationSupported(float) const 0x0000b913   Thumb Code    58  s60cameraexposurecontrol.o(.text)
    S60CameraExposureControl::setManualExposureCompensation(float) 0x0000b94d   Thumb Code   340  s60cameraexposurecontrol.o(.text)
    S60CameraExposureControl::setAutoExposureCompensation() 0x0000baa1   Thumb Code     2  s60cameraexposurecontrol.o(.text)
    S60CameraExposureControl::isShutterSpeedSupported(float) const 0x0000baa3   Thumb Code    58  s60cameraexposurecontrol.o(.text)
    S60CameraExposureControl::setManualShutterSpeed(float) 0x0000badd   Thumb Code   340  s60cameraexposurecontrol.o(.text)
    S60CameraExposureControl::setAutoShutterSpeed() 0x0000bc31   Thumb Code     2  s60cameraexposurecontrol.o(.text)
    S60CameraExposureControl::isApertureSupported(float) const 0x0000bc33   Thumb Code    58  s60cameraexposurecontrol.o(.text)
    S60CameraExposureControl::setManualAperture(float) 0x0000bc6d   Thumb Code   328  s60cameraexposurecontrol.o(.text)
    S60CameraExposureControl::setAutoAperture() 0x0000bdb5   Thumb Code     2  s60cameraexposurecontrol.o(.text)
    S60CameraExposureControl::isIsoSensitivitySupported(int) const 0x0000bdb7   Thumb Code    84  s60cameraexposurecontrol.o(.text)
    S60CameraExposureControl::setManualIsoSensitivity(int) 0x0000be0b   Thumb Code    40  s60cameraexposurecontrol.o(.text)
    S60CameraExposureControl::setAutoIsoSensitivity() 0x0000be33   Thumb Code    18  s60cameraexposurecontrol.o(.text)
    S60CameraExposureControl::setExposureParameter(QCameraExposureControl::ExposureParameter, const QVariant&) 0x0000be45   Thumb Code   186  s60cameraexposurecontrol.o(.text)
    S60CameraExposureControl::extendedParameterName(QCameraExposureControl::ExposureParameter) 0x0000beff   Thumb Code   166  s60cameraexposurecontrol.o(.text)
    S60CameraExposureControl::resetAdvancedSetting() 0x0000bfa5   Thumb Code   100  s60cameraexposurecontrol.o(.text)
    S60CameraExposureControl::apertureChanged() 0x0000c009   Thumb Code    14  s60cameraexposurecontrol.o(.text)
    S60CameraExposureControl::apertureRangeChanged() 0x0000c017   Thumb Code    14  s60cameraexposurecontrol.o(.text)
    S60CameraExposureControl::shutterSpeedChanged() 0x0000c025   Thumb Code    14  s60cameraexposurecontrol.o(.text)
    S60CameraExposureControl::isoSensitivityChanged() 0x0000c033   Thumb Code    14  s60cameraexposurecontrol.o(.text)
    S60CameraExposureControl::evChanged()    0x0000c041   Thumb Code    14  s60cameraexposurecontrol.o(.text)
    S60CameraFlashControl::S60CameraFlashControl(QObject*) 0x0000c0e1   Thumb Code    36  s60cameraflashcontrol.o(.text)
    S60CameraFlashControl::S60CameraFlashControl__sub_object(QObject*) 0x0000c0e1   Thumb Code     0  s60cameraflashcontrol.o(.text)
    S60CameraFlashControl::S60CameraFlashControl(S60ImageCaptureSession*, QObject*) 0x0000c105   Thumb Code    94  s60cameraflashcontrol.o(.text)
    S60CameraFlashControl::S60CameraFlashControl__sub_object(S60ImageCaptureSession*, QObject*) 0x0000c105   Thumb Code     0  s60cameraflashcontrol.o(.text)
    S60CameraFlashControl::~S60CameraFlashControl() 0x0000c163   Thumb Code    22  s60cameraflashcontrol.o(.text)
    S60CameraFlashControl::~S60CameraFlashControl__sub_object() 0x0000c163   Thumb Code     0  s60cameraflashcontrol.o(.text)
    S60CameraFlashControl::~S60CameraFlashControl__deallocating() 0x0000c179   Thumb Code    22  s60cameraflashcontrol.o(.text)
    S60CameraFlashControl::flashMode() const 0x0000c18f   Thumb Code    20  s60cameraflashcontrol.o(.text)
    S60CameraFlashControl::setFlashMode(QFlags<QCameraExposure::FlashMode>) 0x0000c1a3   Thumb Code   130  s60cameraflashcontrol.o(.text)
    S60CameraFlashControl::isFlashModeSupported(QFlags<QCameraExposure::FlashMode>) const 0x0000c225   Thumb Code    50  s60cameraflashcontrol.o(.text)
    S60CameraFlashControl::isFlashReady() const 0x0000c257   Thumb Code    22  s60cameraflashcontrol.o(.text)
    S60CameraFlashControl::resetAdvancedSetting() 0x0000c26d   Thumb Code    36  s60cameraflashcontrol.o(.text)
    S60CameraControl::S60CameraControl(QObject*) 0x0000c31f   Thumb Code    30  s60cameracontrol.o(.text)
    S60CameraControl::S60CameraControl__sub_object(QObject*) 0x0000c31f   Thumb Code     0  s60cameracontrol.o(.text)
    S60CameraControl::setCameraHandles()     0x0000c33d   Thumb Code    52  s60cameracontrol.o(.text)
    S60CameraControl::S60CameraControl(S60VideoCaptureSession*, S60ImageCaptureSession*, QObject*) 0x0000c371   Thumb Code  1172  s60cameracontrol.o(.text)
    S60CameraControl::S60CameraControl__sub_object(S60VideoCaptureSession*, S60ImageCaptureSession*, QObject*) 0x0000c371   Thumb Code     0  s60cameracontrol.o(.text)
    S60CameraControl::unloadCamera()         0x0000c805   Thumb Code    70  s60cameracontrol.o(.text)
    S60CameraControl::~S60CameraControl()    0x0000c84b   Thumb Code   112  s60cameracontrol.o(.text)
    S60CameraControl::~S60CameraControl__sub_object() 0x0000c84b   Thumb Code     0  s60cameracontrol.o(.text)
    S60CameraControl::~S60CameraControl__deallocating() 0x0000c8bb   Thumb Code    22  s60cameracontrol.o(.text)
    S60CameraControl::state() const          0x0000c8d1   Thumb Code     6  s60cameracontrol.o(.text)
    S60CameraControl::stopCamera()           0x0000c8d7   Thumb Code   122  s60cameracontrol.o(.text)
    S60CameraControl::resetCamera(bool)      0x0000c951   Thumb Code   782  s60cameracontrol.o(.text)
    S60CameraControl::fromSymbianErrorToQtMultimediaError(int) 0x0000cc5f   Thumb Code    56  s60cameracontrol.o(.text)
    S60CameraControl::setError(int, const QString&) 0x0000cc97   Thumb Code    64  s60cameracontrol.o(.text)
    S60CameraControl::startCamera()          0x0000ccd7   Thumb Code   118  s60cameracontrol.o(.text)
    S60CameraControl::loadCamera()           0x0000cd4d   Thumb Code    46  s60cameracontrol.o(.text)
    S60CameraControl::setState(QCamera::State) 0x0000cd7b   Thumb Code   404  s60cameracontrol.o(.text)
    S60CameraControl::status() const         0x0000cf0f   Thumb Code     6  s60cameracontrol.o(.text)
    S60CameraControl::captureMode() const    0x0000cf15   Thumb Code     6  s60cameracontrol.o(.text)
    S60CameraControl::setCaptureMode(QCamera::CaptureMode) 0x0000cf1b   Thumb Code   638  s60cameracontrol.o(.text)
    S60CameraControl::isCaptureModeSupported(QCamera::CaptureMode) const 0x0000d199   Thumb Code    24  s60cameracontrol.o(.text)
    S60CameraControl::canChangeProperty(QCameraControl::PropertyChangeType, QCamera::Status) const 0x0000d1b1   Thumb Code    48  s60cameracontrol.o(.text)
    S60CameraControl::resetCameraOrientation() 0x0000d1e1   Thumb Code   320  s60cameracontrol.o(.text)
    S60CameraControl::deviceCount()          0x0000d321   Thumb Code     8  s60cameracontrol.o(.text)
    S60CameraControl::name(int)              0x0000d329   Thumb Code   144  s60cameracontrol.o(.text)
    S60CameraControl::description(int)       0x0000d3b9   Thumb Code   408  s60cameracontrol.o(.text)
    S60CameraControl::defaultDevice() const  0x0000d551   Thumb Code     6  s60cameracontrol.o(.text)
    S60CameraControl::selectedDevice() const 0x0000d557   Thumb Code     6  s60cameracontrol.o(.text)
    S60CameraControl::setSelectedDevice(int) 0x0000d55d   Thumb Code    68  s60cameracontrol.o(.text)
    S60CameraControl::setVideoOutput(QObject*, S60CameraViewfinderEngine::ViewfinderOutputType) 0x0000d5a1   Thumb Code    92  s60cameracontrol.o(.text)
    S60CameraControl::releaseVideoOutput(S60CameraViewfinderEngine::ViewfinderOutputType) 0x0000d5fd   Thumb Code    16  s60cameracontrol.o(.text)
    S60CameraControl::videoStateChanged(S60VideoCaptureSession::TVideoCaptureState) 0x0000d60d   Thumb Code   274  s60cameracontrol.o(.text)
    S60CameraControl::imageCaptured(int, const QImage&) 0x0000d71f   Thumb Code    44  s60cameracontrol.o(.text)
    S60CameraControl::toStandByStatus()      0x0000d74b   Thumb Code    92  s60cameracontrol.o(.text)
    S60CameraControl::advancedSettingsCreated() 0x0000d7a7   Thumb Code    36  s60cameracontrol.o(.text)
    S60CameraControl::MceoCameraReady()      0x0000d7cb   Thumb Code   458  s60cameracontrol.o(.text)
    thunk{-12} to S60CameraControl::MceoCameraReady() 0x0000d995   Thumb Code    14  s60cameracontrol.o(.text)
    S60CameraControl::MceoHandleError(TCameraEngineError, int) 0x0000d9a3   Thumb Code   120  s60cameracontrol.o(.text)
    thunk{-12} to S60CameraControl::MceoHandleError(TCameraEngineError, int) 0x0000da1b   Thumb Code    22  s60cameracontrol.o(.text)
    S60MediaRecorderControl::S60MediaRecorderControl(QObject*) 0x0000da8f   Thumb Code    24  s60mediarecordercontrol.o(.text)
    S60MediaRecorderControl::S60MediaRecorderControl__sub_object(QObject*) 0x0000da8f   Thumb Code     0  s60mediarecordercontrol.o(.text)
    S60MediaRecorderControl::S60MediaRecorderControl(S60CameraService*, S60VideoCaptureSession*, QObject*) 0x0000daa7   Thumb Code   406  s60mediarecordercontrol.o(.text)
    S60MediaRecorderControl::S60MediaRecorderControl__sub_object(S60CameraService*, S60VideoCaptureSession*, QObject*) 0x0000daa7   Thumb Code     0  s60mediarecordercontrol.o(.text)
    S60MediaRecorderControl::~S60MediaRecorderControl() 0x0000dc3d   Thumb Code    36  s60mediarecordercontrol.o(.text)
    S60MediaRecorderControl::~S60MediaRecorderControl__sub_object() 0x0000dc3d   Thumb Code     0  s60mediarecordercontrol.o(.text)
    S60MediaRecorderControl::~S60MediaRecorderControl__deallocating() 0x0000dc61   Thumb Code    22  s60mediarecordercontrol.o(.text)
    S60MediaRecorderControl::outputLocation() const 0x0000dc77   Thumb Code    16  s60mediarecordercontrol.o(.text)
    S60MediaRecorderControl::setOutputLocation(const QUrl&) 0x0000dc87   Thumb Code    26  s60mediarecordercontrol.o(.text)
    S60MediaRecorderControl::state() const   0x0000dca1   Thumb Code     6  s60mediarecordercontrol.o(.text)
    S60MediaRecorderControl::duration() const 0x0000dca7   Thumb Code    16  s60mediarecordercontrol.o(.text)
    S60MediaRecorderControl::isMuted() const 0x0000dcb7   Thumb Code    12  s60mediarecordercontrol.o(.text)
    S60MediaRecorderControl::applySettings() 0x0000dcc3   Thumb Code    12  s60mediarecordercontrol.o(.text)
    S60MediaRecorderControl::record()        0x0000dccf   Thumb Code   100  s60mediarecordercontrol.o(.text)
    S60MediaRecorderControl::pause()         0x0000dd33   Thumb Code    20  s60mediarecordercontrol.o(.text)
    S60MediaRecorderControl::stop()          0x0000dd47   Thumb Code    22  s60mediarecordercontrol.o(.text)
    S60MediaRecorderControl::setMuted(bool)  0x0000dd5d   Thumb Code    16  s60mediarecordercontrol.o(.text)
    S60MediaRecorderControl::convertInternalStateToQtState(S60VideoCaptureSession::TVideoCaptureState) const 0x0000dd6d   Thumb Code    28  s60mediarecordercontrol.o(.text)
    S60MediaRecorderControl::updateState(S60VideoCaptureSession::TVideoCaptureState) 0x0000dd89   Thumb Code    34  s60mediarecordercontrol.o(.text)
    S60VideoCaptureSession::maximumFrameRateForMimeType(const QString&) const 0x0000ddef   Thumb Code  2716  s60videocapturesession.o(.text)
    S60VideoCaptureSession::supportedVideoFrameRates(const QVideoEncoderSettings&, bool*) 0x0000e88b   Thumb Code   764  s60videocapturesession.o(.text)
    S60VideoCaptureSession::doUpdateVideoCaptureContainersL() 0x0000eb87   Thumb Code  1070  s60videocapturesession.o(.text)
    S60VideoCaptureSession::updateVideoCaptureContainers() 0x0000efb5   Thumb Code    88  s60videocapturesession.o(.text)
    S60VideoCaptureSession::resetSession(bool) 0x0000f00d   Thumb Code   418  s60videocapturesession.o(.text)
    S60VideoCaptureSession::fromSymbianErrorToQtMultimediaError(int) 0x0000f1af   Thumb Code    46  s60videocapturesession.o(.text)
    S60VideoCaptureSession::setError(int, const QString&) 0x0000f1dd   Thumb Code   124  s60videocapturesession.o(.text)
    S60VideoCaptureSession::supportedVideoResolutions(bool*) 0x0000f259   Thumb Code   390  s60videocapturesession.o(.text)
    S60VideoCaptureSession::initializeVideoCaptureSettings() 0x0000f3df   Thumb Code   922  s60videocapturesession.o(.text)
    S60VideoCaptureSession::doPopulateVideoCodecsDataL() 0x0000f779   Thumb Code   466  s60videocapturesession.o(.text)
    S60VideoCaptureSession::S60VideoCaptureSession(QObject*) 0x0000f94b   Thumb Code   540  s60videocapturesession.o(.text)
    S60VideoCaptureSession::S60VideoCaptureSession__sub_object(QObject*) 0x0000f94b   Thumb Code     0  s60videocapturesession.o(.text)
    S60VideoCaptureSession::~S60VideoCaptureSession() 0x0000fb67   Thumb Code   674  s60videocapturesession.o(.text)
    S60VideoCaptureSession::~S60VideoCaptureSession__sub_object() 0x0000fb67   Thumb Code     0  s60videocapturesession.o(.text)
    S60VideoCaptureSession::~S60VideoCaptureSession__deallocating() 0x0000fe09   Thumb Code    22  s60videocapturesession.o(.text)
    S60VideoCaptureSession::doSetBitrate(const int&) 0x0000fe1f   Thumb Code   192  s60videocapturesession.o(.text)
    S60VideoCaptureSession::supportedVideoFrameRates(bool*) 0x0000fedf   Thumb Code   512  s60videocapturesession.o(.text)
    S60VideoCaptureSession::doSetFrameRate(float) 0x000100df   Thumb Code   668  s60videocapturesession.o(.text)
    S60VideoCaptureSession::doSetVideoResolution(const QSize&) 0x0001037b   Thumb Code   658  s60videocapturesession.o(.text)
    S60VideoCaptureSession::determineProfileAndLevel() 0x0001060d   Thumb Code  1294  s60videocapturesession.o(.text)
    S60VideoCaptureSession::doSetCodecsL()   0x00010b1b   Thumb Code   448  s60videocapturesession.o(.text)
    S60VideoCaptureSession::selectController(const QString&, TUid&, TUid&) 0x00010cdb   Thumb Code   224  s60videocapturesession.o(.text)
    S60VideoCaptureSession::setOutputLocation(const QUrl&) 0x00010dbb   Thumb Code  1502  s60videocapturesession.o(.text)
    S60VideoCaptureSession::commitVideoEncoderSettings() 0x00011399   Thumb Code  1388  s60videocapturesession.o(.text)
    S60VideoCaptureSession::applyAllSettings() 0x00011905   Thumb Code   210  s60videocapturesession.o(.text)
    S60VideoCaptureSession::validateRequestedCodecs() 0x000119d7   Thumb Code   222  s60videocapturesession.o(.text)
    S60VideoCaptureSession::doPopulateVideoCodecsL() 0x00011ab5   Thumb Code   242  s60videocapturesession.o(.text)
    S60VideoCaptureSession::doPopulateAudioCodecsL() 0x00011ba7   Thumb Code   394  s60videocapturesession.o(.text)
    S60VideoCaptureSession::MvruoOpenComplete(int) 0x00011d31   Thumb Code   464  s60videocapturesession.o(.text)
    thunk{-8} to S60VideoCaptureSession::MvruoOpenComplete(int) 0x00011f01   Thumb Code    18  s60videocapturesession.o(.text)
    S60VideoCaptureSession::startRecording() 0x00011f13   Thumb Code   616  s60videocapturesession.o(.text)
    S60VideoCaptureSession::queryVideoEncoderSettings() 0x0001217b   Thumb Code   542  s60videocapturesession.o(.text)
    S60VideoCaptureSession::queryAudioEncoderSettings() 0x00012399   Thumb Code  1102  s60videocapturesession.o(.text)
    S60VideoCaptureSession::MvruoPrepareComplete(int) 0x000127e7   Thumb Code   208  s60videocapturesession.o(.text)
    thunk{-8} to S60VideoCaptureSession::MvruoPrepareComplete(int) 0x000128b7   Thumb Code    18  s60videocapturesession.o(.text)
    S60VideoCaptureSession::doInitializeVideoRecorderL() 0x000128c9   Thumb Code   242  s60videocapturesession.o(.text)
    S60VideoCaptureSession::initializeVideoRecording() 0x000129bb   Thumb Code   322  s60videocapturesession.o(.text)
    S60VideoCaptureSession::MvruoRecordComplete(int) 0x00012afd   Thumb Code   200  s60videocapturesession.o(.text)
    thunk{-8} to S60VideoCaptureSession::MvruoRecordComplete(int) 0x00012bc5   Thumb Code    18  s60videocapturesession.o(.text)
    S60VideoCaptureSession::MvruoEvent(const TMMFEvent&) 0x00012bd7   Thumb Code     6  s60videocapturesession.o(.text)
    thunk{-8} to S60VideoCaptureSession::MvruoEvent(const TMMFEvent&) 0x00012bdd   Thumb Code    18  s60videocapturesession.o(.text)
    S60VideoCaptureSession::MdvroReturnPicture(TVideoPicture*) 0x00012bef   Thumb Code     6  s60videocapturesession.o(.text)
    thunk{-12} to S60VideoCaptureSession::MdvroReturnPicture(TVideoPicture*) 0x00012bf5   Thumb Code    18  s60videocapturesession.o(.text)
    S60VideoCaptureSession::MdvroSupplementalInfoSent() 0x00012c07   Thumb Code     2  s60videocapturesession.o(.text)
    thunk{-12} to S60VideoCaptureSession::MdvroSupplementalInfoSent() 0x00012c09   Thumb Code    14  s60videocapturesession.o(.text)
    S60VideoCaptureSession::MdvroNewBuffers() 0x00012c17   Thumb Code     2  s60videocapturesession.o(.text)
    thunk{-12} to S60VideoCaptureSession::MdvroNewBuffers() 0x00012c19   Thumb Code    14  s60videocapturesession.o(.text)
    S60VideoCaptureSession::MdvroFatalError(int) 0x00012c27   Thumb Code    34  s60videocapturesession.o(.text)
    thunk{-12} to S60VideoCaptureSession::MdvroFatalError(int) 0x00012c49   Thumb Code    18  s60videocapturesession.o(.text)
    S60VideoCaptureSession::MdvroInitializeComplete(int) 0x00012c5b   Thumb Code     6  s60videocapturesession.o(.text)
    thunk{-12} to S60VideoCaptureSession::MdvroInitializeComplete(int) 0x00012c61   Thumb Code    18  s60videocapturesession.o(.text)
    S60VideoCaptureSession::MdvroStreamEnd() 0x00012c73   Thumb Code     2  s60videocapturesession.o(.text)
    thunk{-12} to S60VideoCaptureSession::MdvroStreamEnd() 0x00012c75   Thumb Code    14  s60videocapturesession.o(.text)
    S60VideoCaptureSession::setCameraHandle(CCameraEngine*) 0x00012c83   Thumb Code    24  s60videocapturesession.o(.text)
    S60VideoCaptureSession::notifySettingsSet() 0x00012c9b   Thumb Code     8  s60videocapturesession.o(.text)
    S60VideoCaptureSession::position()       0x00012ca3   Thumb Code   136  s60videocapturesession.o(.text)
    S60VideoCaptureSession::state() const    0x00012d2b   Thumb Code     6  s60videocapturesession.o(.text)
    S60VideoCaptureSession::isMuted() const  0x00012d31   Thumb Code     8  s60videocapturesession.o(.text)
    S60VideoCaptureSession::releaseVideoRecording() 0x00012d39   Thumb Code    76  s60videocapturesession.o(.text)
    S60VideoCaptureSession::pauseRecording() 0x00012d85   Thumb Code   282  s60videocapturesession.o(.text)
    S60VideoCaptureSession::stopRecording(bool) 0x00012e9f   Thumb Code   312  s60videocapturesession.o(.text)
    S60VideoCaptureSession::setMuted(bool)   0x00012fd7   Thumb Code   102  s60videocapturesession.o(.text)
    S60VideoCaptureSession::outputLocation() const 0x0001303d   Thumb Code    20  s60videocapturesession.o(.text)
    S60VideoCaptureSession::setVideoResolution(const QSize&) 0x00013051   Thumb Code    24  s60videocapturesession.o(.text)
    S60VideoCaptureSession::maximumResolutionForMimeType(const QString&) const 0x00013069   Thumb Code  1628  s60videocapturesession.o(.text)
    S60VideoCaptureSession::supportedVideoResolutions(const QVideoEncoderSettings&, bool*) 0x000136c5   Thumb Code   742  s60videocapturesession.o(.text)
    S60VideoCaptureSession::setFrameRate(float) 0x000139ab   Thumb Code    24  s60videocapturesession.o(.text)
    S60VideoCaptureSession::setBitrate(int)  0x000139c3   Thumb Code    24  s60videocapturesession.o(.text)
    S60VideoCaptureSession::setVideoEncodingMode(QtMultimediaKit::EncodingMode) 0x000139db   Thumb Code    52  s60videocapturesession.o(.text)
    S60VideoCaptureSession::setVideoCaptureCodec(const QString&) 0x00013a0f   Thumb Code   104  s60videocapturesession.o(.text)
    S60VideoCaptureSession::supportedVideoCaptureCodecs() 0x00013a77   Thumb Code    20  s60videocapturesession.o(.text)
    S60VideoCaptureSession::videoCaptureCodecDescription(const QString&) 0x00013a8b   Thumb Code   210  s60videocapturesession.o(.text)
    S60VideoCaptureSession::setAudioCaptureCodec(const QString&) 0x00013b5d   Thumb Code   176  s60videocapturesession.o(.text)
    S60VideoCaptureSession::supportedAudioCaptureCodecs() 0x00013c0d   Thumb Code    46  s60videocapturesession.o(.text)
    S60VideoCaptureSession::videoEncoderSettings(QVideoEncoderSettings&) 0x00013c3b   Thumb Code   120  s60videocapturesession.o(.text)
    S60VideoCaptureSession::audioEncoderSettings(QAudioEncoderSettings&) 0x00013cb3   Thumb Code   120  s60videocapturesession.o(.text)
    S60VideoCaptureSession::setVideoCaptureQuality(QtMultimediaKit::EncodingQuality, S60VideoCaptureSession::VideoQualityDefinition) 0x00013d2b   Thumb Code  1982  s60videocapturesession.o(.text)
    S60VideoCaptureSession::setAudioCaptureQuality(QtMultimediaKit::EncodingQuality, S60VideoCaptureSession::AudioQualityDefinition) 0x000144e9   Thumb Code   620  s60videocapturesession.o(.text)
    S60VideoCaptureSession::videoContainer() const 0x00014755   Thumb Code    20  s60videocapturesession.o(.text)
    S60VideoCaptureSession::supportedVideoContainers() 0x00014769   Thumb Code   268  s60videocapturesession.o(.text)
    S60VideoCaptureSession::setVideoContainer(const QString&) 0x00014875   Thumb Code   170  s60videocapturesession.o(.text)
    S60VideoCaptureSession::isSupportedVideoContainer(const QString&) 0x0001491f   Thumb Code    56  s60videocapturesession.o(.text)
    S60VideoCaptureSession::videoContainerDescription(const QString&) 0x00014957   Thumb Code   246  s60videocapturesession.o(.text)
    S60VideoCaptureSession::doGetSupportedSampleRatesL(const QAudioEncoderSettings&, bool*) 0x00014a4d   Thumb Code   416  s60videocapturesession.o(.text)
    S60VideoCaptureSession::supportedSampleRates(const QAudioEncoderSettings&, bool*) 0x00014bed   Thumb Code   128  s60videocapturesession.o(.text)
    S60VideoCaptureSession::setAudioSampleRate(int) 0x00014c6d   Thumb Code    28  s60videocapturesession.o(.text)
    S60VideoCaptureSession::setAudioBitRate(int) 0x00014c89   Thumb Code    28  s60videocapturesession.o(.text)
    S60VideoCaptureSession::setAudioChannelCount(int) 0x00014ca5   Thumb Code    28  s60videocapturesession.o(.text)
    S60VideoCaptureSession::setAudioEncodingMode(QtMultimediaKit::EncodingMode) 0x00014cc1   Thumb Code    52  s60videocapturesession.o(.text)
    S60VideoCaptureSession::pixelAspectRatio() 0x00014cf5   Thumb Code   130  s60videocapturesession.o(.text)
    S60VideoCaptureSession::setPixelAspectRatio(QSize) 0x00014d77   Thumb Code   118  s60videocapturesession.o(.text)
    S60VideoCaptureSession::gain()           0x00014ded   Thumb Code   102  s60videocapturesession.o(.text)
    S60VideoCaptureSession::setGain(int)     0x00014e53   Thumb Code   104  s60videocapturesession.o(.text)
    S60VideoCaptureSession::maxClipSizeInBytes() const 0x00014ebb   Thumb Code     6  s60videocapturesession.o(.text)
    S60VideoCaptureSession::setMaxClipSizeInBytes(int) 0x00014ec1   Thumb Code   390  s60videocapturesession.o(.text)
    S60VideoCaptureSession::maximumBitRateForMimeType(const QString&) const 0x00015047   Thumb Code  1106  s60videocapturesession.o(.text)
    S60VideoCaptureSession::cameraStatusChanged(QCamera::Status) 0x00015499   Thumb Code   132  s60videocapturesession.o(.text)
    S60VideoCaptureSession::durationTimerTriggered() 0x0001551d   Thumb Code   134  s60videocapturesession.o(.text)
    S60ImageCaptureDecoder::ConstructL(bool) 0x00015601   Thumb Code   166  s60imagecapturesession.o(.text)
    S60ImageCaptureDecoder::S60ImageCaptureDecoder(S60ImageCaptureSession*, RFs*, const TDesC8*, const TDesC16*) 0x000156a7   Thumb Code   136  s60imagecapturesession.o(.text)
    S60ImageCaptureDecoder::S60ImageCaptureDecoder__sub_object(S60ImageCaptureSession*, RFs*, const TDesC8*, const TDesC16*) 0x000156a7   Thumb Code     0  s60imagecapturesession.o(.text)
    S60ImageCaptureDecoder::FileNewL(S60ImageCaptureSession*, RFs*, const TDesC16*) 0x0001572f   Thumb Code    60  s60imagecapturesession.o(.text)
    S60ImageCaptureDecoder::DataNewL(S60ImageCaptureSession*, RFs*, const TDesC8*) 0x0001576b   Thumb Code    62  s60imagecapturesession.o(.text)
    S60ImageCaptureDecoder::~S60ImageCaptureDecoder() 0x000157a9   Thumb Code    44  s60imagecapturesession.o(.text)
    S60ImageCaptureDecoder::~S60ImageCaptureDecoder__sub_object() 0x000157a9   Thumb Code     0  s60imagecapturesession.o(.text)
    S60ImageCaptureDecoder::~S60ImageCaptureDecoder__deallocating() 0x000157d5   Thumb Code    22  s60imagecapturesession.o(.text)
    S60ImageCaptureSession::queryCurrentCameraInfo() 0x000157eb   Thumb Code    26  s60imagecapturesession.o(.text)
    S60ImageCaptureSession::updateImageCaptureFormats() 0x00015805   Thumb Code    74  s60imagecapturesession.o(.text)
    S60ImageCaptureSession::defaultImageFormat() 0x0001584f   Thumb Code    16  s60imagecapturesession.o(.text)
    S60ImageCaptureSession::deleteAdvancedSettings() 0x0001585f   Thumb Code    38  s60imagecapturesession.o(.text)
    S60ImageCaptureSession::resetSession(bool) 0x00015885   Thumb Code   428  s60imagecapturesession.o(.text)
    S60ImageCaptureSession::fromSymbianErrorToQtMultimediaError(int) 0x00015a31   Thumb Code    58  s60imagecapturesession.o(.text)
    S60ImageCaptureSession::setError(int, const QString&, bool) 0x00015a6b   Thumb Code    86  s60imagecapturesession.o(.text)
    S60ImageCaptureDecoder::decode(CFbsBitmap*) 0x00015ac1   Thumb Code    76  s60imagecapturesession.o(.text)
    S60ImageCaptureDecoder::frameInfo()      0x00015b0d   Thumb Code    42  s60imagecapturesession.o(.text)
    S60ImageCaptureSession::releaseImageBuffer() 0x00015b37   Thumb Code    52  s60imagecapturesession.o(.text)
    S60ImageCaptureSession::handleImageDecoded(int) 0x00015b6b   Thumb Code   278  s60imagecapturesession.o(.text)
    S60ImageCaptureDecoder::RunL()           0x00015c81   Thumb Code    20  s60imagecapturesession.o(.text)
    S60ImageCaptureDecoder::DoCancel()       0x00015c95   Thumb Code    18  s60imagecapturesession.o(.text)
    S60ImageCaptureDecoder::RunError(int)    0x00015ca7   Thumb Code    44  s60imagecapturesession.o(.text)
    S60ImageCaptureEncoder::ConstructL()     0x00015cd3   Thumb Code   156  s60imagecapturesession.o(.text)
    S60ImageCaptureEncoder::S60ImageCaptureEncoder(S60ImageCaptureSession*, RFs*, const TDesC16*, int) 0x00015d6f   Thumb Code    56  s60imagecapturesession.o(.text)
    S60ImageCaptureEncoder::S60ImageCaptureEncoder__sub_object(S60ImageCaptureSession*, RFs*, const TDesC16*, int) 0x00015d6f   Thumb Code     0  s60imagecapturesession.o(.text)
    S60ImageCaptureEncoder::NewL(S60ImageCaptureSession*, RFs*, const TDesC16*, int) 0x00015da7   Thumb Code    58  s60imagecapturesession.o(.text)
    S60ImageCaptureEncoder::~S60ImageCaptureEncoder() 0x00015de1   Thumb Code    70  s60imagecapturesession.o(.text)
    S60ImageCaptureEncoder::~S60ImageCaptureEncoder__sub_object() 0x00015de1   Thumb Code     0  s60imagecapturesession.o(.text)
    S60ImageCaptureEncoder::~S60ImageCaptureEncoder__deallocating() 0x00015e27   Thumb Code    22  s60imagecapturesession.o(.text)
    S60ImageCaptureEncoder::encode(CFbsBitmap*) 0x00015e3d   Thumb Code   176  s60imagecapturesession.o(.text)
    S60ImageCaptureSession::convertImagePath() 0x00015eed   Thumb Code   166  s60imagecapturesession.o(.text)
    S60ImageCaptureSession::handleImageEncoded(int) 0x00015f93   Thumb Code   678  s60imagecapturesession.o(.text)
    S60ImageCaptureEncoder::RunL()           0x00016239   Thumb Code    20  s60imagecapturesession.o(.text)
    S60ImageCaptureEncoder::DoCancel()       0x0001624d   Thumb Code    18  s60imagecapturesession.o(.text)
    S60ImageCaptureEncoder::RunError(int)    0x0001625f   Thumb Code    44  s60imagecapturesession.o(.text)
    S60ImageCaptureSession::imageCaptureCodec() 0x0001628b   Thumb Code   110  s60imagecapturesession.o(.text)
    S60ImageCaptureSession::selectFormatForCodec(const QString&) 0x000162f9   Thumb Code    84  s60imagecapturesession.o(.text)
    S60ImageCaptureSession::supportedCaptureSizesForCodec(const QString&) 0x0001634d   Thumb Code   150  s60imagecapturesession.o(.text)
    S60ImageCaptureSession::initializeImageCaptureSettings() 0x000163e3   Thumb Code   406  s60imagecapturesession.o(.text)
    S60ImageCaptureSession::S60ImageCaptureSession(QObject*) 0x00016579   Thumb Code   416  s60imagecapturesession.o(.text)
    S60ImageCaptureSession::S60ImageCaptureSession__sub_object(QObject*) 0x00016579   Thumb Code     0  s60imagecapturesession.o(.text)
    S60ImageCaptureSession::~S60ImageCaptureSession() 0x00016719   Thumb Code   226  s60imagecapturesession.o(.text)
    S60ImageCaptureSession::~S60ImageCaptureSession__sub_object() 0x00016719   Thumb Code     0  s60imagecapturesession.o(.text)
    S60ImageCaptureSession::~S60ImageCaptureSession__deallocating() 0x000167fb   Thumb Code    22  s60imagecapturesession.o(.text)
    S60ImageCaptureSession::currentImageId() const 0x00016811   Thumb Code     6  s60imagecapturesession.o(.text)
    S60ImageCaptureSession::isDeviceReady()  0x00016817   Thumb Code    32  s60imagecapturesession.o(.text)
    S60ImageCaptureSession::setCameraHandle(CCameraEngine*) 0x00016837   Thumb Code    28  s60imagecapturesession.o(.text)
    S60ImageCaptureSession::setCurrentDevice(int) 0x00016853   Thumb Code     4  s60imagecapturesession.o(.text)
    S60ImageCaptureSession::notifySettingsSet() 0x00016857   Thumb Code     8  s60imagecapturesession.o(.text)
    S60ImageCaptureSession::advancedSettings() 0x0001685f   Thumb Code     6  s60imagecapturesession.o(.text)
    S60ImageCaptureSession::prepareImageCapture() 0x00016865   Thumb Code   228  s60imagecapturesession.o(.text)
    S60ImageCaptureSession::releaseImageCapture() 0x00016949   Thumb Code     6  s60imagecapturesession.o(.text)
    S60ImageCaptureSession::processFileName(const QString&) 0x0001694f   Thumb Code   830  s60imagecapturesession.o(.text)
    S60ImageCaptureSession::capture(const QString&) 0x00016c8d   Thumb Code   286  s60imagecapturesession.o(.text)
    S60ImageCaptureSession::cancelCapture()  0x00016dab   Thumb Code    30  s60imagecapturesession.o(.text)
    S60ImageCaptureSession::captureSize() const 0x00016dc9   Thumb Code    10  s60imagecapturesession.o(.text)
    S60ImageCaptureSession::formatMap()      0x00016dd3   Thumb Code   948  s60imagecapturesession.o(.text)
    S60ImageCaptureSession::minimumCaptureSize() 0x00017187   Thumb Code   110  s60imagecapturesession.o(.text)
    S60ImageCaptureSession::maximumCaptureSize() 0x000171f5   Thumb Code    84  s60imagecapturesession.o(.text)
    S60ImageCaptureSession::setCaptureSize(const QSize&) 0x00017249   Thumb Code   166  s60imagecapturesession.o(.text)
    S60ImageCaptureSession::supportedImageCaptureCodecs() 0x000172ef   Thumb Code    50  s60imagecapturesession.o(.text)
    S60ImageCaptureSession::setImageCaptureCodec(const QString&) 0x00017321   Thumb Code   176  s60imagecapturesession.o(.text)
    S60ImageCaptureSession::codecDescriptionMap() 0x000173d1   Thumb Code   328  s60imagecapturesession.o(.text)
    S60ImageCaptureSession::imageCaptureCodecDescription(const QString&) 0x00017519   Thumb Code   182  s60imagecapturesession.o(.text)
    S60ImageCaptureSession::captureQuality() const 0x000175cf   Thumb Code    54  s60imagecapturesession.o(.text)
    S60ImageCaptureSession::setCaptureQuality(const QtMultimediaKit::EncodingQuality&) 0x00017605   Thumb Code    58  s60imagecapturesession.o(.text)
    S60ImageCaptureSession::isFocusSupported() const 0x0001763f   Thumb Code    22  s60imagecapturesession.o(.text)
    S60ImageCaptureSession::startFocus()     0x00017655   Thumb Code   130  s60imagecapturesession.o(.text)
    S60ImageCaptureSession::cancelFocus()    0x000176d7   Thumb Code   130  s60imagecapturesession.o(.text)
    S60ImageCaptureSession::maximumZoom()    0x00017759   Thumb Code    84  s60imagecapturesession.o(.text)
    S60ImageCaptureSession::minZoom()        0x000177ad   Thumb Code    84  s60imagecapturesession.o(.text)
    S60ImageCaptureSession::maxDigitalZoom() 0x00017801   Thumb Code    32  s60imagecapturesession.o(.text)
    S60ImageCaptureSession::digitalZoomFactor() 0x00017821   Thumb Code   116  s60imagecapturesession.o(.text)
    S60ImageCaptureSession::doSetZoomFactorL(float, float) 0x00017895   Thumb Code   734  s60imagecapturesession.o(.text)
    S60ImageCaptureSession::opticalZoomFactor() 0x00017b73   Thumb Code   116  s60imagecapturesession.o(.text)
    S60ImageCaptureSession::exposureMode()   0x00017be7   Thumb Code    96  s60imagecapturesession.o(.text)
    S60ImageCaptureSession::doSetExposureModeL(QCameraExposure::ExposureMode) 0x00017c47   Thumb Code   220  s60imagecapturesession.o(.text)
    S60ImageCaptureSession::setExposureMode(QCameraExposure::ExposureMode) 0x00017d23   Thumb Code    94  s60imagecapturesession.o(.text)
    S60ImageCaptureSession::isExposureModeSupported(QCameraExposure::ExposureMode) const 0x00017d81   Thumb Code   136  s60imagecapturesession.o(.text)
    S60ImageCaptureSession::flashMode()      0x00017e09   Thumb Code   102  s60imagecapturesession.o(.text)
    S60ImageCaptureSession::doSetFlashModeL(QFlags<QCameraExposure::FlashMode>) 0x00017e6f   Thumb Code   338  s60imagecapturesession.o(.text)
    S60ImageCaptureSession::setFlashMode(QFlags<QCameraExposure::FlashMode>) 0x00017fc1   Thumb Code   106  s60imagecapturesession.o(.text)
    S60ImageCaptureSession::supportedFlashModes() 0x0001802b   Thumb Code   138  s60imagecapturesession.o(.text)
    S60ImageCaptureSession::contrast() const 0x000180b5   Thumb Code    30  s60imagecapturesession.o(.text)
    S60ImageCaptureSession::setContrast(int) 0x000180d3   Thumb Code   142  s60imagecapturesession.o(.text)
    S60ImageCaptureSession::brightness() const 0x00018161   Thumb Code    30  s60imagecapturesession.o(.text)
    S60ImageCaptureSession::setBrightness(int) 0x0001817f   Thumb Code   142  s60imagecapturesession.o(.text)
    S60ImageCaptureSession::whiteBalanceMode() 0x0001820d   Thumb Code   116  s60imagecapturesession.o(.text)
    S60ImageCaptureSession::doSetWhiteBalanceModeL(QCameraImageProcessing::WhiteBalanceMode) 0x00018281   Thumb Code   408  s60imagecapturesession.o(.text)
    S60ImageCaptureSession::setWhiteBalanceMode(QCameraImageProcessing::WhiteBalanceMode) 0x00018419   Thumb Code    94  s60imagecapturesession.o(.text)
    S60ImageCaptureSession::isWhiteBalanceModeSupported(QCameraImageProcessing::WhiteBalanceMode) const 0x00018477   Thumb Code   170  s60imagecapturesession.o(.text)
    S60ImageCaptureSession::MceoFocusComplete() 0x00018521   Thumb Code    16  s60imagecapturesession.o(.text)
    thunk{-8} to S60ImageCaptureSession::MceoFocusComplete() 0x00018531   Thumb Code    14  s60imagecapturesession.o(.text)
    S60ImageCaptureSession::saveImageL(TDesC8*, TBuf<(int)256>&) 0x0001853f   Thumb Code   902  s60imagecapturesession.o(.text)
    S60ImageCaptureSession::MceoCapturedDataReady(TDesC8*) 0x000188c5   Thumb Code   150  s60imagecapturesession.o(.text)
    thunk{-8} to S60ImageCaptureSession::MceoCapturedDataReady(TDesC8*) 0x0001895b   Thumb Code    18  s60imagecapturesession.o(.text)
    S60ImageCaptureSession::MceoCapturedBitmapReady(CFbsBitmap*) 0x0001896d   Thumb Code   476  s60imagecapturesession.o(.text)
    thunk{-8} to S60ImageCaptureSession::MceoCapturedBitmapReady(CFbsBitmap*) 0x00018b49   Thumb Code    18  s60imagecapturesession.o(.text)
    S60ImageCaptureSession::MceoHandleError(TCameraEngineError, int) 0x00018b5b   Thumb Code    42  s60imagecapturesession.o(.text)
    thunk{-8} to S60ImageCaptureSession::MceoHandleError(TCameraEngineError, int) 0x00018b85   Thumb Code    22  s60imagecapturesession.o(.text)
    S60ImageCaptureSession::cameraStatusChanged(QCamera::Status) 0x00018b9b   Thumb Code    60  s60imagecapturesession.o(.text)
    S60MediaContainerControl::S60MediaContainerControl(QObject*) 0x00018c83   Thumb Code    48  s60mediacontainercontrol.o(.text)
    S60MediaContainerControl::S60MediaContainerControl__sub_object(QObject*) 0x00018c83   Thumb Code     0  s60mediacontainercontrol.o(.text)
    S60MediaContainerControl::setContainerMimeType(const QString&) 0x00018cb3   Thumb Code    16  s60mediacontainercontrol.o(.text)
    S60MediaContainerControl::S60MediaContainerControl(S60VideoCaptureSession*, QObject*) 0x00018cc3   Thumb Code   290  s60mediacontainercontrol.o(.text)
    S60MediaContainerControl::S60MediaContainerControl__sub_object(S60VideoCaptureSession*, QObject*) 0x00018cc3   Thumb Code     0  s60mediacontainercontrol.o(.text)
    S60MediaContainerControl::~S60MediaContainerControl() 0x00018de5   Thumb Code   132  s60mediacontainercontrol.o(.text)
    S60MediaContainerControl::~S60MediaContainerControl__sub_object() 0x00018de5   Thumb Code     0  s60mediacontainercontrol.o(.text)
    S60MediaContainerControl::~S60MediaContainerControl__deallocating() 0x00018e69   Thumb Code    22  s60mediacontainercontrol.o(.text)
    S60MediaContainerControl::supportedContainers() const 0x00018e7f   Thumb Code    16  s60mediacontainercontrol.o(.text)
    S60MediaContainerControl::containerMimeType() const 0x00018e8f   Thumb Code    16  s60mediacontainercontrol.o(.text)
    S60MediaContainerControl::containerDescription(const QString&) const 0x00018e9f   Thumb Code    20  s60mediacontainercontrol.o(.text)
    S60VideoEncoderControl::S60VideoEncoderControl(QObject*) 0x00018f0b   Thumb Code    24  s60videoencodercontrol.o(.text)
    S60VideoEncoderControl::S60VideoEncoderControl__sub_object(QObject*) 0x00018f0b   Thumb Code     0  s60videoencodercontrol.o(.text)
    S60VideoEncoderControl::S60VideoEncoderControl(S60VideoCaptureSession*, QObject*) 0x00018f23   Thumb Code    28  s60videoencodercontrol.o(.text)
    S60VideoEncoderControl::S60VideoEncoderControl__sub_object(S60VideoCaptureSession*, QObject*) 0x00018f23   Thumb Code     0  s60videoencodercontrol.o(.text)
    S60VideoEncoderControl::~S60VideoEncoderControl() 0x00018f3f   Thumb Code    14  s60videoencodercontrol.o(.text)
    S60VideoEncoderControl::~S60VideoEncoderControl__sub_object() 0x00018f3f   Thumb Code     0  s60videoencodercontrol.o(.text)
    S60VideoEncoderControl::~S60VideoEncoderControl__deallocating() 0x00018f4d   Thumb Code    22  s60videoencodercontrol.o(.text)
    S60VideoEncoderControl::supportedResolutions(const QVideoEncoderSettings&, bool*) const 0x00018f63   Thumb Code    46  s60videoencodercontrol.o(.text)
    S60VideoEncoderControl::supportedFrameRates(const QVideoEncoderSettings&, bool*) const 0x00018f91   Thumb Code    46  s60videoencodercontrol.o(.text)
    S60VideoEncoderControl::supportedVideoCodecs() const 0x00018fbf   Thumb Code    16  s60videoencodercontrol.o(.text)
    S60VideoEncoderControl::videoCodecDescription(const QString&) const 0x00018fcf   Thumb Code    20  s60videoencodercontrol.o(.text)
    S60VideoEncoderControl::videoSettings() const 0x00018fe3   Thumb Code    24  s60videoencodercontrol.o(.text)
    S60VideoEncoderControl::setVideoSettings(const QVideoEncoderSettings&) 0x00018ffb   Thumb Code  1180  s60videoencodercontrol.o(.text)
    S60VideoEncoderControl::supportedEncodingOptions(const QString&) const 0x00019497   Thumb Code   108  s60videoencodercontrol.o(.text)
    S60VideoEncoderControl::encodingOption(const QString&, const QString&) const 0x00019503   Thumb Code   244  s60videoencodercontrol.o(.text)
    S60VideoEncoderControl::setEncodingOption(const QString&, const QString&, const QVariant&) 0x000195f7   Thumb Code   252  s60videoencodercontrol.o(.text)
    S60AudioEncoderControl::S60AudioEncoderControl(QObject*) 0x0001976f   Thumb Code    24  s60audioencodercontrol.o(.text)
    S60AudioEncoderControl::S60AudioEncoderControl__sub_object(QObject*) 0x0001976f   Thumb Code     0  s60audioencodercontrol.o(.text)
    S60AudioEncoderControl::S60AudioEncoderControl(S60VideoCaptureSession*, QObject*) 0x00019787   Thumb Code    28  s60audioencodercontrol.o(.text)
    S60AudioEncoderControl::S60AudioEncoderControl__sub_object(S60VideoCaptureSession*, QObject*) 0x00019787   Thumb Code     0  s60audioencodercontrol.o(.text)
    S60AudioEncoderControl::~S60AudioEncoderControl() 0x000197a3   Thumb Code    14  s60audioencodercontrol.o(.text)
    S60AudioEncoderControl::~S60AudioEncoderControl__sub_object() 0x000197a3   Thumb Code     0  s60audioencodercontrol.o(.text)
    S60AudioEncoderControl::~S60AudioEncoderControl__deallocating() 0x000197b1   Thumb Code    22  s60audioencodercontrol.o(.text)
    S60AudioEncoderControl::supportedAudioCodecs() const 0x000197c7   Thumb Code    16  s60audioencodercontrol.o(.text)
    S60AudioEncoderControl::codecDescription(const QString&) const 0x000197d7   Thumb Code   152  s60audioencodercontrol.o(.text)
    S60AudioEncoderControl::supportedSampleRates(const QAudioEncoderSettings&, bool*) const 0x0001986f   Thumb Code    24  s60audioencodercontrol.o(.text)
    S60AudioEncoderControl::audioSettings() const 0x00019887   Thumb Code    24  s60audioencodercontrol.o(.text)
    S60AudioEncoderControl::setAudioSettings(const QAudioEncoderSettings&) 0x0001989f   Thumb Code   488  s60audioencodercontrol.o(.text)
    S60AudioEncoderControl::supportedEncodingOptions(const QString&) const 0x00019a87   Thumb Code    36  s60audioencodercontrol.o(.text)
    S60AudioEncoderControl::encodingOption(const QString&, const QString&) const 0x00019aab   Thumb Code    62  s60audioencodercontrol.o(.text)
    S60AudioEncoderControl::setEncodingOption(const QString&, const QString&, const QVariant&) 0x00019ae9   Thumb Code   200  s60audioencodercontrol.o(.text)
    S60CameraService::S60CameraService(QObject*) 0x00019bc7   Thumb Code   728  s60cameraservice.o(.text)
    S60CameraService::S60CameraService__sub_object(QObject*) 0x00019bc7   Thumb Code     0  s60cameraservice.o(.text)
    S60CameraService::~S60CameraService()    0x00019e9f   Thumb Code   424  s60cameraservice.o(.text)
    S60CameraService::~S60CameraService__sub_object() 0x00019e9f   Thumb Code     0  s60cameraservice.o(.text)
    S60CameraService::~S60CameraService__deallocating() 0x0001a047   Thumb Code    22  s60cameraservice.o(.text)
    S60CameraService::requestControl(const char*) 0x0001a05d   Thumb Code   896  s60cameraservice.o(.text)
    S60CameraService::releaseControl(QMediaControl*) 0x0001a3dd   Thumb Code    74  s60cameraservice.o(.text)
    S60CameraService::deviceCount()          0x0001a427   Thumb Code     8  s60cameraservice.o(.text)
    S60CameraService::deviceName(int)        0x0001a42f   Thumb Code    16  s60cameraservice.o(.text)
    S60CameraService::deviceDescription(int) 0x0001a43f   Thumb Code    16  s60cameraservice.o(.text)
    S60CameraImageProcessingControl::S60CameraImageProcessingControl(QObject*) 0x0001a4a1   Thumb Code    24  s60cameraimageprocessingcontrol.o(.text)
    S60CameraImageProcessingControl::S60CameraImageProcessingControl__sub_object(QObject*) 0x0001a4a1   Thumb Code     0  s60cameraimageprocessingcontrol.o(.text)
    S60CameraImageProcessingControl::S60CameraImageProcessingControl(S60ImageCaptureSession*, QObject*) 0x0001a4b9   Thumb Code    42  s60cameraimageprocessingcontrol.o(.text)
    S60CameraImageProcessingControl::S60CameraImageProcessingControl__sub_object(S60ImageCaptureSession*, QObject*) 0x0001a4b9   Thumb Code     0  s60cameraimageprocessingcontrol.o(.text)
    S60CameraImageProcessingControl::~S60CameraImageProcessingControl() 0x0001a4e3   Thumb Code    22  s60cameraimageprocessingcontrol.o(.text)
    S60CameraImageProcessingControl::~S60CameraImageProcessingControl__sub_object() 0x0001a4e3   Thumb Code     0  s60cameraimageprocessingcontrol.o(.text)
    S60CameraImageProcessingControl::~S60CameraImageProcessingControl__deallocating() 0x0001a4f9   Thumb Code    22  s60cameraimageprocessingcontrol.o(.text)
    S60CameraImageProcessingControl::whiteBalanceMode() const 0x0001a50f   Thumb Code    12  s60cameraimageprocessingcontrol.o(.text)
    S60CameraImageProcessingControl::setWhiteBalanceMode(QCameraImageProcessing::WhiteBalanceMode) 0x0001a51b   Thumb Code    64  s60cameraimageprocessingcontrol.o(.text)
    S60CameraImageProcessingControl::isWhiteBalanceModeSupported(QCameraImageProcessing::WhiteBalanceMode) const 0x0001a55b   Thumb Code    16  s60cameraimageprocessingcontrol.o(.text)
    S60CameraImageProcessingControl::isDenoisingSupported() const 0x0001a56b   Thumb Code     6  s60cameraimageprocessingcontrol.o(.text)
    S60CameraImageProcessingControl::isSharpeningSupported() const 0x0001a571   Thumb Code    22  s60cameraimageprocessingcontrol.o(.text)
    S60CameraImageProcessingControl::isProcessingParameterSupported(QCameraImageProcessingControl::ProcessingParameter) const 0x0001a587   Thumb Code    74  s60cameraimageprocessingcontrol.o(.text)
    S60CameraImageProcessingControl::manualWhiteBalance() const 0x0001a5d1   Thumb Code     6  s60cameraimageprocessingcontrol.o(.text)
    S60CameraImageProcessingControl::denoisingLevel() const 0x0001a5d7   Thumb Code     6  s60cameraimageprocessingcontrol.o(.text)
    S60CameraImageProcessingControl::sharpeningLevel() const 0x0001a5dd   Thumb Code    22  s60cameraimageprocessingcontrol.o(.text)
    S60CameraImageProcessingControl::brightness() const 0x0001a5f3   Thumb Code    12  s60cameraimageprocessingcontrol.o(.text)
    S60CameraImageProcessingControl::saturation() const 0x0001a5ff   Thumb Code    22  s60cameraimageprocessingcontrol.o(.text)
    S60CameraImageProcessingControl::contrast() const 0x0001a615   Thumb Code    12  s60cameraimageprocessingcontrol.o(.text)
    S60CameraImageProcessingControl::processingParameter(QCameraImageProcessingControl::ProcessingParameter) const 0x0001a621   Thumb Code   186  s60cameraimageprocessingcontrol.o(.text)
    S60CameraImageProcessingControl::setManualWhiteBalance(int) 0x0001a6db   Thumb Code    42  s60cameraimageprocessingcontrol.o(.text)
    S60CameraImageProcessingControl::setDenoisingLevel(int) 0x0001a705   Thumb Code    42  s60cameraimageprocessingcontrol.o(.text)
    S60CameraImageProcessingControl::setSharpeningLevel(int) 0x0001a72f   Thumb Code    56  s60cameraimageprocessingcontrol.o(.text)
    S60CameraImageProcessingControl::setBrightness(int) 0x0001a767   Thumb Code    16  s60cameraimageprocessingcontrol.o(.text)
    S60CameraImageProcessingControl::setSaturation(int) 0x0001a777   Thumb Code    56  s60cameraimageprocessingcontrol.o(.text)
    S60CameraImageProcessingControl::setContrast(int) 0x0001a7af   Thumb Code    16  s60cameraimageprocessingcontrol.o(.text)
    S60CameraImageProcessingControl::setProcessingParameter(QCameraImageProcessingControl::ProcessingParameter, QVariant) 0x0001a7bf   Thumb Code   394  s60cameraimageprocessingcontrol.o(.text)
    S60CameraImageProcessingControl::resetAdvancedSetting() 0x0001a949   Thumb Code    14  s60cameraimageprocessingcontrol.o(.text)
    S60CameraImageCaptureControl::S60CameraImageCaptureControl(QObject*) 0x0001a96f   Thumb Code    24  s60cameraimagecapturecontrol.o(.text)
    S60CameraImageCaptureControl::S60CameraImageCaptureControl__sub_object(QObject*) 0x0001a96f   Thumb Code     0  s60cameraimagecapturecontrol.o(.text)
    S60CameraImageCaptureControl::S60CameraImageCaptureControl(S60CameraService*, S60ImageCaptureSession*, QObject*) 0x0001a987   Thumb Code   478  s60cameraimagecapturecontrol.o(.text)
    S60CameraImageCaptureControl::S60CameraImageCaptureControl__sub_object(S60CameraService*, S60ImageCaptureSession*, QObject*) 0x0001a987   Thumb Code     0  s60cameraimagecapturecontrol.o(.text)
    S60CameraImageCaptureControl::~S60CameraImageCaptureControl() 0x0001ab65   Thumb Code    14  s60cameraimagecapturecontrol.o(.text)
    S60CameraImageCaptureControl::~S60CameraImageCaptureControl__sub_object() 0x0001ab65   Thumb Code     0  s60cameraimagecapturecontrol.o(.text)
    S60CameraImageCaptureControl::~S60CameraImageCaptureControl__deallocating() 0x0001ab73   Thumb Code    22  s60cameraimagecapturecontrol.o(.text)
    S60CameraImageCaptureControl::isReadyForCapture() const 0x0001ab89   Thumb Code    36  s60cameraimagecapturecontrol.o(.text)
    S60CameraImageCaptureControl::driveMode() const 0x0001abad   Thumb Code     6  s60cameraimagecapturecontrol.o(.text)
    S60CameraImageCaptureControl::setDriveMode(QCameraImageCapture::DriveMode) 0x0001abb3   Thumb Code    58  s60cameraimagecapturecontrol.o(.text)
    S60CameraImageCaptureControl::capture(const QString&) 0x0001abed   Thumb Code   100  s60cameraimagecapturecontrol.o(.text)
    S60CameraImageCaptureControl::cancelCapture() 0x0001ac51   Thumb Code    12  s60cameraimagecapturecontrol.o(.text)
    S60VideoDeviceControl::S60VideoDeviceControl(QObject*) 0x0001acab   Thumb Code    24  s60videodevicecontrol.o(.text)
    S60VideoDeviceControl::S60VideoDeviceControl__sub_object(QObject*) 0x0001acab   Thumb Code     0  s60videodevicecontrol.o(.text)
    S60VideoDeviceControl::S60VideoDeviceControl(S60CameraControl*, QObject*) 0x0001acc3   Thumb Code    48  s60videodevicecontrol.o(.text)
    S60VideoDeviceControl::S60VideoDeviceControl__sub_object(S60CameraControl*, QObject*) 0x0001acc3   Thumb Code     0  s60videodevicecontrol.o(.text)
    S60VideoDeviceControl::~S60VideoDeviceControl() 0x0001acf3   Thumb Code    14  s60videodevicecontrol.o(.text)
    S60VideoDeviceControl::~S60VideoDeviceControl__sub_object() 0x0001acf3   Thumb Code     0  s60videodevicecontrol.o(.text)
    S60VideoDeviceControl::~S60VideoDeviceControl__deallocating() 0x0001ad01   Thumb Code    22  s60videodevicecontrol.o(.text)
    S60VideoDeviceControl::deviceCount() const 0x0001ad17   Thumb Code    10  s60videodevicecontrol.o(.text)
    S60VideoDeviceControl::deviceName(int) const 0x0001ad21   Thumb Code    18  s60videodevicecontrol.o(.text)
    S60VideoDeviceControl::deviceDescription(int) const 0x0001ad33   Thumb Code    18  s60videodevicecontrol.o(.text)
    S60VideoDeviceControl::deviceIcon(int) const 0x0001ad45   Thumb Code    22  s60videodevicecontrol.o(.text)
    S60VideoDeviceControl::defaultDevice() const 0x0001ad5b   Thumb Code     6  s60videodevicecontrol.o(.text)
    S60VideoDeviceControl::selectedDevice() const 0x0001ad61   Thumb Code     6  s60videodevicecontrol.o(.text)
    S60VideoDeviceControl::setSelectedDevice(int) 0x0001ad67   Thumb Code    86  s60videodevicecontrol.o(.text)
    S60ImageEncoderControl::S60ImageEncoderControl(QObject*) 0x0001add9   Thumb Code    24  s60imageencodercontrol.o(.text)
    S60ImageEncoderControl::S60ImageEncoderControl__sub_object(QObject*) 0x0001add9   Thumb Code     0  s60imageencodercontrol.o(.text)
    S60ImageEncoderControl::S60ImageEncoderControl(S60ImageCaptureSession*, QObject*) 0x0001adf1   Thumb Code    28  s60imageencodercontrol.o(.text)
    S60ImageEncoderControl::S60ImageEncoderControl__sub_object(S60ImageCaptureSession*, QObject*) 0x0001adf1   Thumb Code     0  s60imageencodercontrol.o(.text)
    S60ImageEncoderControl::~S60ImageEncoderControl() 0x0001ae0d   Thumb Code    14  s60imageencodercontrol.o(.text)
    S60ImageEncoderControl::~S60ImageEncoderControl__sub_object() 0x0001ae0d   Thumb Code     0  s60imageencodercontrol.o(.text)
    S60ImageEncoderControl::~S60ImageEncoderControl__deallocating() 0x0001ae1b   Thumb Code    22  s60imageencodercontrol.o(.text)
    S60ImageEncoderControl::supportedImageCodecs() const 0x0001ae31   Thumb Code    16  s60imageencodercontrol.o(.text)
    S60ImageEncoderControl::imageCodecDescription(const QString&) const 0x0001ae41   Thumb Code    20  s60imageencodercontrol.o(.text)
    S60ImageEncoderControl::supportedResolutions(const QImageEncoderSettings&, bool*) const 0x0001ae55   Thumb Code    44  s60imageencodercontrol.o(.text)
    S60ImageEncoderControl::imageSettings() const 0x0001ae81   Thumb Code    70  s60imageencodercontrol.o(.text)
    S60ImageEncoderControl::setImageSettings(const QImageEncoderSettings&) 0x0001aec7   Thumb Code   368  s60imageencodercontrol.o(.text)
    S60CameraSettings::ConstructL()          0x0001b06d   Thumb Code   248  s60camerasettings.o(.text)
    S60CameraSettings::S60CameraSettings(QObject*, CCameraEngine*) 0x0001b165   Thumb Code    56  s60camerasettings.o(.text)
    S60CameraSettings::S60CameraSettings__sub_object(QObject*, CCameraEngine*) 0x0001b165   Thumb Code     0  s60camerasettings.o(.text)
    S60CameraSettings::New(int&, QObject*, CCameraEngine*) 0x0001b19d   Thumb Code   148  s60camerasettings.o(.text)
    S60CameraSettings::~S60CameraSettings()  0x0001b231   Thumb Code    86  s60camerasettings.o(.text)
    S60CameraSettings::~S60CameraSettings__sub_object() 0x0001b231   Thumb Code     0  s60camerasettings.o(.text)
    S60CameraSettings::~S60CameraSettings__deallocating() 0x0001b287   Thumb Code    22  s60camerasettings.o(.text)
    S60CameraSettings::focusMode()           0x0001b29d   Thumb Code   150  s60camerasettings.o(.text)
    S60CameraSettings::setFocusMode(QCameraFocus::FocusMode) 0x0001b333   Thumb Code   240  s60camerasettings.o(.text)
    S60CameraSettings::supportedFocusModes() 0x0001b423   Thumb Code   224  s60camerasettings.o(.text)
    S60CameraSettings::startFocusing()       0x0001b503   Thumb Code   162  s60camerasettings.o(.text)
    S60CameraSettings::cancelFocusing()      0x0001b5a5   Thumb Code    50  s60camerasettings.o(.text)
    S60CameraSettings::opticalZoomFactorL() const 0x0001b5d7   Thumb Code     8  s60camerasettings.o(.text)
    S60CameraSettings::setOpticalZoomFactorL(float) 0x0001b5df   Thumb Code     6  s60camerasettings.o(.text)
    S60CameraSettings::supportedDigitalZoomFactors() const 0x0001b5e5   Thumb Code   332  s60camerasettings.o(.text)
    S60CameraSettings::digitalZoomFactorL() const 0x0001b731   Thumb Code    82  s60camerasettings.o(.text)
    S60CameraSettings::setDigitalZoomFactorL(float) 0x0001b783   Thumb Code   198  s60camerasettings.o(.text)
    S60CameraSettings::isFlashReady()        0x0001b849   Thumb Code   112  s60camerasettings.o(.text)
    S60CameraSettings::lockExposure(bool)    0x0001b8b9   Thumb Code    50  s60camerasettings.o(.text)
    S60CameraSettings::isExposureLocked()    0x0001b8eb   Thumb Code    64  s60camerasettings.o(.text)
    S60CameraSettings::meteringMode()        0x0001b92b   Thumb Code   158  s60camerasettings.o(.text)
    S60CameraSettings::setMeteringMode(QCameraExposure::MeteringMode) 0x0001b9c9   Thumb Code    90  s60camerasettings.o(.text)
    S60CameraSettings::isMeteringModeSupported(QCameraExposure::MeteringMode) 0x0001ba23   Thumb Code   122  s60camerasettings.o(.text)
    S60CameraSettings::isoSensitivity()      0x0001ba9d   Thumb Code   134  s60camerasettings.o(.text)
    S60CameraSettings::setManualIsoSensitivity(int) 0x0001bb23   Thumb Code   134  s60camerasettings.o(.text)
    S60CameraSettings::setAutoIsoSensitivity() 0x0001bba9   Thumb Code   132  s60camerasettings.o(.text)
    S60CameraSettings::supportedIsoSensitivities() 0x0001bc2d   Thumb Code   200  s60camerasettings.o(.text)
    S60CameraSettings::aperture()            0x0001bcf5   Thumb Code    92  s60camerasettings.o(.text)
    S60CameraSettings::setManualAperture(float) 0x0001bd51   Thumb Code   224  s60camerasettings.o(.text)
    S60CameraSettings::supportedApertures()  0x0001be31   Thumb Code   238  s60camerasettings.o(.text)
    S60CameraSettings::shutterSpeed()        0x0001bf1f   Thumb Code    94  s60camerasettings.o(.text)
    S60CameraSettings::setManualShutterSpeed(float) 0x0001bf7d   Thumb Code    68  s60camerasettings.o(.text)
    S60CameraSettings::supportedShutterSpeeds() 0x0001bfc1   Thumb Code   238  s60camerasettings.o(.text)
    S60CameraSettings::exposureCompensation() 0x0001c0af   Thumb Code   102  s60camerasettings.o(.text)
    S60CameraSettings::setExposureCompensation(float) 0x0001c115   Thumb Code    82  s60camerasettings.o(.text)
    S60CameraSettings::supportedExposureCompensationValues() 0x0001c167   Thumb Code   426  s60camerasettings.o(.text)
    S60CameraSettings::isSharpeningSupported() const 0x0001c311   Thumb Code   114  s60camerasettings.o(.text)
    S60CameraSettings::sharpeningLevel() const 0x0001c383   Thumb Code    36  s60camerasettings.o(.text)
    S60CameraSettings::setSharpeningLevel(int) 0x0001c3a7   Thumb Code    66  s60camerasettings.o(.text)
    S60CameraSettings::saturation()          0x0001c3e9   Thumb Code   158  s60camerasettings.o(.text)
    S60CameraSettings::setSaturation(int)    0x0001c487   Thumb Code   224  s60camerasettings.o(.text)
    S60CameraSettings::HandleAdvancedEvent(const TECAMEvent&) 0x0001c567   Thumb Code  1462  s60camerasettings.o(.text)
    thunk{-8} to S60CameraSettings::HandleAdvancedEvent(const TECAMEvent&) 0x0001cb1d   Thumb Code    18  s60camerasettings.o(.text)
    CCameraEngine::ConstructL()              0x0001cb5d   Thumb Code   138  s60cameraengine.o(.text)
    CCameraEngine::CCameraEngine(int, int, MCameraEngineObserver*) 0x0001cbe7   Thumb Code   110  s60cameraengine.o(.text)
    CCameraEngine::CCameraEngine__sub_object(int, int, MCameraEngineObserver*) 0x0001cbe7   Thumb Code     0  s60cameraengine.o(.text)
    CCameraEngine::NewL(int, int, MCameraEngineObserver*) 0x0001cc55   Thumb Code    58  s60cameraengine.o(.text)
    CCameraEngine::ReleaseImageBuffer()      0x0001cc8f   Thumb Code   210  s60cameraengine.o(.text)
    CCameraEngine::ReleaseViewFinderBuffer() 0x0001cd61   Thumb Code    34  s60cameraengine.o(.text)
    CCameraEngine::StopViewFinder()          0x0001cd83   Thumb Code    36  s60cameraengine.o(.text)
    CCameraEngine::~CCameraEngine()          0x0001cda7   Thumb Code    88  s60cameraengine.o(.text)
    CCameraEngine::~CCameraEngine__sub_object() 0x0001cda7   Thumb Code     0  s60cameraengine.o(.text)
    CCameraEngine::~CCameraEngine__deallocating() 0x0001cdff   Thumb Code    22  s60cameraengine.o(.text)
    CCameraEngine::SetAdvancedObserver(MAdvancedSettingsObserver*) 0x0001ce15   Thumb Code     4  s60cameraengine.o(.text)
    CCameraEngine::SetImageCaptureObserver(MCameraEngineImageCaptureObserver*) 0x0001ce19   Thumb Code     4  s60cameraengine.o(.text)
    CCameraEngine::SetViewfinderObserver(MCameraViewfinderObserver*) 0x0001ce1d   Thumb Code     4  s60cameraengine.o(.text)
    CCameraEngine::CamerasAvailable()        0x0001ce21   Thumb Code     8  s60cameraengine.o(.text)
    CCameraEngine::IsCameraReady() const     0x0001ce29   Thumb Code    16  s60cameraengine.o(.text)
    CCameraEngine::IsDirectViewFinderSupported() const 0x0001ce39   Thumb Code    18  s60cameraengine.o(.text)
    CCameraEngine::IsAutoFocusSupported() const 0x0001ce4b   Thumb Code     6  s60cameraengine.o(.text)
    CCameraEngine::CameraInfo()              0x0001ce51   Thumb Code     8  s60cameraengine.o(.text)
    CCameraEngine::CaptureL()                0x0001ce59   Thumb Code    36  s60cameraengine.o(.text)
    CCameraEngine::CancelCapture()           0x0001ce7d   Thumb Code    28  s60cameraengine.o(.text)
    CCameraEngine::ReserveAndPowerOn()       0x0001ce99   Thumb Code    44  s60cameraengine.o(.text)
    CCameraEngine::FocusCancel()             0x0001cec5   Thumb Code     2  s60cameraengine.o(.text)
    CCameraEngine::ReleaseAndPowerOff()      0x0001cec7   Thumb Code    54  s60cameraengine.o(.text)
    CCameraEngine::PrepareL(TSize&, CCamera::TFormat) 0x0001cefd   Thumb Code   180  s60cameraengine.o(.text)
    CCameraEngine::StartViewFinderL(TSize&)  0x0001cfb1   Thumb Code    80  s60cameraengine.o(.text)
    CCameraEngine::StartDirectViewFinderL(RWsSession&, CWsScreenDevice&, RWindowBase&, TRect&, TRect&) 0x0001d001   Thumb Code   156  s60cameraengine.o(.text)
    CCameraEngine::StartFocusL()             0x0001d09d   Thumb Code    10  s60cameraengine.o(.text)
    CCameraEngine::SupportedFocusRanges(int&) const 0x0001d0a7   Thumb Code     6  s60cameraengine.o(.text)
    CCameraEngine::SetFocusRange(int)        0x0001d0ad   Thumb Code     2  s60cameraengine.o(.text)
    CCameraEngine::CCameraEngine()           0x0001d0af   Thumb Code    58  s60cameraengine.o(.text)
    CCameraEngine::CCameraEngine__sub_object() 0x0001d0af   Thumb Code     0  s60cameraengine.o(.text)
    CCameraEngine::ReserveComplete(int)      0x0001d0e9   Thumb Code    38  s60cameraengine.o(.text)
    thunk{-4} to CCameraEngine::ReserveComplete(int) 0x0001d10f   Thumb Code    18  s60cameraengine.o(.text)
    CCameraEngine::PowerOnComplete(int)      0x0001d121   Thumb Code    46  s60cameraengine.o(.text)
    thunk{-4} to CCameraEngine::PowerOnComplete(int) 0x0001d14f   Thumb Code    18  s60cameraengine.o(.text)
    CCameraEngine::ViewFinderFrameReady(CFbsBitmap&) 0x0001d161   Thumb Code    44  s60cameraengine.o(.text)
    thunk{-4} to CCameraEngine::ViewFinderFrameReady(CFbsBitmap&) 0x0001d18d   Thumb Code    18  s60cameraengine.o(.text)
    CCameraEngine::HandleImageReady(int, bool) 0x0001d19f   Thumb Code   142  s60cameraengine.o(.text)
    CCameraEngine::ImageReady(CFbsBitmap*, HBufC8*, int) 0x0001d22d   Thumb Code   176  s60cameraengine.o(.text)
    thunk{-4} to CCameraEngine::ImageReady(CFbsBitmap*, HBufC8*, int) 0x0001d2dd   Thumb Code    26  s60cameraengine.o(.text)
    CCameraEngine::HandleEvent(const TECAMEvent&) 0x0001d2f7   Thumb Code   126  s60cameraengine.o(.text)
    thunk{-8} to CCameraEngine::HandleEvent(const TECAMEvent&) 0x0001d375   Thumb Code    18  s60cameraengine.o(.text)
    CCameraEngine::ViewFinderReady(MCameraBuffer&, int) 0x0001d387   Thumb Code   160  s60cameraengine.o(.text)
    thunk{-8} to CCameraEngine::ViewFinderReady(MCameraBuffer&, int) 0x0001d427   Thumb Code    22  s60cameraengine.o(.text)
    CCameraEngine::ImageBufferReady(MCameraBuffer&, int) 0x0001d43d   Thumb Code   590  s60cameraengine.o(.text)
    thunk{-8} to CCameraEngine::ImageBufferReady(MCameraBuffer&, int) 0x0001d68b   Thumb Code    22  s60cameraengine.o(.text)
    CCameraEngine::InitComplete(int)         0x0001d6a1   Thumb Code    32  s60cameraengine.o(.text)
    CCameraEngine::OptimisedFocusComplete(int) 0x0001d6c1   Thumb Code    54  s60cameraengine.o(.text)
    qRect2TRect(const QRect&)                0x0001d70f   Thumb Code    76  s60cameraviewfinderengine.o(.text)
    S60CameraViewfinderEngine::S60CameraViewfinderEngine(S60CameraControl*, CCameraEngine*, QObject*) 0x0001d75b   Thumb Code   392  s60cameraviewfinderengine.o(.text)
    S60CameraViewfinderEngine::S60CameraViewfinderEngine__sub_object(S60CameraControl*, CCameraEngine*, QObject*) 0x0001d75b   Thumb Code     0  s60cameraviewfinderengine.o(.text)
    S60CameraViewfinderEngine::~S60CameraViewfinderEngine() 0x0001d8e3   Thumb Code    40  s60cameraviewfinderengine.o(.text)
    S60CameraViewfinderEngine::~S60CameraViewfinderEngine__sub_object() 0x0001d8e3   Thumb Code     0  s60cameraviewfinderengine.o(.text)
    S60CameraViewfinderEngine::~S60CameraViewfinderEngine__deallocating() 0x0001d90b   Thumb Code    22  s60cameraviewfinderengine.o(.text)
    S60CameraViewfinderEngine::startViewfinder(bool) 0x0001d921   Thumb Code  1034  s60cameraviewfinderengine.o(.text)
    S60CameraViewfinderEngine::stopViewfinder(bool) 0x0001dd2b   Thumb Code   128  s60cameraviewfinderengine.o(.text)
    S60CameraViewfinderEngine::checkAndRotateCamera() 0x0001ddab   Thumb Code    80  s60cameraviewfinderengine.o(.text)
    S60CameraViewfinderEngine::releaseControl(S60CameraViewfinderEngine::ViewfinderOutputType) 0x0001ddfb   Thumb Code   170  s60cameraviewfinderengine.o(.text)
    S60CameraViewfinderEngine::setVideoWidgetControl(QObject*) 0x0001dea5   Thumb Code   816  s60cameraviewfinderengine.o(.text)
    S60CameraViewfinderEngine::setVideoRendererControl(QObject*) 0x0001e1d5   Thumb Code   594  s60cameraviewfinderengine.o(.text)
    S60CameraViewfinderEngine::setVideoWindowControl(QObject*) 0x0001e427   Thumb Code   470  s60cameraviewfinderengine.o(.text)
    S60CameraViewfinderEngine::setNewCameraEngine(CCameraEngine*) 0x0001e5fd   Thumb Code    30  s60cameraviewfinderengine.o(.text)
    S60CameraViewfinderEngine::MceoViewFinderFrameReady(CFbsBitmap&) 0x0001e61b   Thumb Code    28  s60cameraviewfinderengine.o(.text)
    thunk{-8} to S60CameraViewfinderEngine::MceoViewFinderFrameReady(CFbsBitmap&) 0x0001e637   Thumb Code    18  s60cameraviewfinderengine.o(.text)
    S60CameraViewfinderEngine::resetViewfinderSize(QSize) 0x0001e649   Thumb Code    54  s60cameraviewfinderengine.o(.text)
    S60CameraViewfinderEngine::resetVideoWindowSize() 0x0001e67f   Thumb Code    48  s60cameraviewfinderengine.o(.text)
    S60CameraViewfinderEngine::resetViewfinderDisplay() 0x0001e6af   Thumb Code   486  s60cameraviewfinderengine.o(.text)
    S60CameraViewfinderEngine::viewFinderBitmapReady(const CFbsBitmap&) 0x0001e895   Thumb Code   424  s60cameraviewfinderengine.o(.text)
    S60CameraViewfinderEngine::handleVisibilityChange(bool) 0x0001ea3d   Thumb Code   110  s60cameraviewfinderengine.o(.text)
    S60CameraViewfinderEngine::handleWindowChange(RWindow*) 0x0001eaab   Thumb Code    28  s60cameraviewfinderengine.o(.text)
    S60CameraViewfinderEngine::handleDesktopResize(int) 0x0001eac7   Thumb Code   294  s60cameraviewfinderengine.o(.text)
    S60CameraViewfinderEngine::handleContentAspectRatioChange(const QSize&) 0x0001ebed   Thumb Code   276  s60cameraviewfinderengine.o(.text)
    S60VideoRendererControl::S60VideoRendererControl(QObject*) 0x0001ed05   Thumb Code    28  s60videorenderercontrol.o(.text)
    S60VideoRendererControl::S60VideoRendererControl__sub_object(QObject*) 0x0001ed05   Thumb Code     0  s60videorenderercontrol.o(.text)
    S60VideoRendererControl::~S60VideoRendererControl() 0x0001ed21   Thumb Code    44  s60videorenderercontrol.o(.text)
    S60VideoRendererControl::~S60VideoRendererControl__sub_object() 0x0001ed21   Thumb Code     0  s60videorenderercontrol.o(.text)
    S60VideoRendererControl::~S60VideoRendererControl__deallocating() 0x0001ed4d   Thumb Code    22  s60videorenderercontrol.o(.text)
    S60VideoRendererControl::surface() const 0x0001ed63   Thumb Code     6  s60videorenderercontrol.o(.text)
    S60VideoRendererControl::setSurface(QAbstractVideoSurface*) 0x0001ed69   Thumb Code    46  s60videorenderercontrol.o(.text)
    qt_plugin_query_verification_data        0x0001ed9d   Thumb Code     4  s60cameraserviceplugin.o(.text)
    qt_plugin_instance                       0x0001eda1   Thumb Code   120  s60cameraserviceplugin.o(.text)
    S60CameraServicePlugin::keys() const     0x0001ee19   Thumb Code    62  s60cameraserviceplugin.o(.text)
    thunk{-8} to S60CameraServicePlugin::keys() const 0x0001ee57   Thumb Code    18  s60cameraserviceplugin.o(.text)
    S60CameraServicePlugin::create(const QString&) 0x0001ee69   Thumb Code    56  s60cameraserviceplugin.o(.text)
    thunk{-8} to S60CameraServicePlugin::create(const QString&) 0x0001eea1   Thumb Code    18  s60cameraserviceplugin.o(.text)
    S60CameraServicePlugin::release(QMediaService*) 0x0001eeb3   Thumb Code    20  s60cameraserviceplugin.o(.text)
    thunk{-8} to S60CameraServicePlugin::release(QMediaService*) 0x0001eec7   Thumb Code    18  s60cameraserviceplugin.o(.text)
    S60CameraServicePlugin::updateDevices() const 0x0001eed9   Thumb Code    98  s60cameraserviceplugin.o(.text)
    S60CameraServicePlugin::devices(const QByteArray&) const 0x0001ef3b   Thumb Code    82  s60cameraserviceplugin.o(.text)
    thunk{-12} to S60CameraServicePlugin::devices(const QByteArray&) const 0x0001ef8d   Thumb Code    22  s60cameraserviceplugin.o(.text)
    S60CameraServicePlugin::deviceDescription(const QByteArray&, const QByteArray&) 0x0001efa3   Thumb Code   254  s60cameraserviceplugin.o(.text)
    thunk{-12} to S60CameraServicePlugin::deviceDescription(const QByteArray&, const QByteArray&) 0x0001f0a1   Thumb Code    26  s60cameraserviceplugin.o(.text)
    S60VideoDisplay::S60VideoDisplay__sub_object(QObject*) 0x0001f0e5   Thumb Code   104  s60videodisplay.o(.text)
    S60VideoDisplay::~S60VideoDisplay()      0x0001f14d   Thumb Code     0  s60videodisplay.o(.text)
    S60VideoDisplay::~S60VideoDisplay__sub_object() 0x0001f14d   Thumb Code    14  s60videodisplay.o(.text)
    S60VideoDisplay::~S60VideoDisplay__deallocating() 0x0001f15b   Thumb Code    22  s60videodisplay.o(.text)
    S60VideoDisplay::windowHandle() const    0x0001f171   Thumb Code    36  s60videodisplay.o(.text)
    S60VideoDisplay::clipRect() const        0x0001f195   Thumb Code   114  s60videodisplay.o(.text)
    S60VideoDisplay::contentRect() const     0x0001f207   Thumb Code    16  s60videodisplay.o(.text)
    S60VideoDisplay::setFullScreen(bool)     0x0001f217   Thumb Code    24  s60videodisplay.o(.text)
    S60VideoDisplay::isFullScreen() const    0x0001f22f   Thumb Code     6  s60videodisplay.o(.text)
    S60VideoDisplay::setVisible(bool)        0x0001f235   Thumb Code    24  s60videodisplay.o(.text)
    S60VideoDisplay::isVisible() const       0x0001f24d   Thumb Code     6  s60videodisplay.o(.text)
    S60VideoDisplay::setAspectRatioMode(Qt::AspectRatioMode) 0x0001f253   Thumb Code    24  s60videodisplay.o(.text)
    S60VideoDisplay::aspectRatioMode() const 0x0001f26b   Thumb Code     6  s60videodisplay.o(.text)
    S60VideoDisplay::nativeSize() const      0x0001f271   Thumb Code     8  s60videodisplay.o(.text)
    S60VideoDisplay::setPaintingEnabled(bool) 0x0001f279   Thumb Code    28  s60videodisplay.o(.text)
    S60VideoDisplay::isPaintingEnabled() const 0x0001f295   Thumb Code     8  s60videodisplay.o(.text)
    S60VideoDisplay::setRotation(float)      0x0001f29d   Thumb Code    28  s60videodisplay.o(.text)
    S60VideoDisplay::rotation() const        0x0001f2b9   Thumb Code     6  s60videodisplay.o(.text)
    S60VideoDisplay::setNativeSize(const QSize&) 0x0001f2bf   Thumb Code    54  s60videodisplay.o(.text)
    S60VideoDisplay::updateContentRect()     0x0001f2f5   Thumb Code   274  s60videodisplay.o(.text)
    S60VideoOutputUtils::setIgnoreFocusChanged(QWidget*) 0x0001f465   Thumb Code    30  s60videooutpututils.o(.text)
    S60VideoOutputUtils::setNativePaintMode(QWidget*, S60VideoOutputUtils::NativePaintMode) 0x0001f483   Thumb Code    60  s60videooutpututils.o(.text)
    S60VideoOutputUtils::setNativePaintMode(CCoeControl*, S60VideoOutputUtils::NativePaintMode) 0x0001f4bf   Thumb Code    28  s60videooutpututils.o(.text)
    S60VideoOutputUtils::setReceiveNativePaintEvents(QWidget*, bool) 0x0001f4db   Thumb Code    50  s60videooutpututils.o(.text)
    S60VideoWidget::S60VideoWidget(QWidget*) 0x0001f50d   Thumb Code   176  s60videowidget.o(.text)
    S60VideoWidget::S60VideoWidget__sub_object(QWidget*) 0x0001f50d   Thumb Code     0  s60videowidget.o(.text)
    S60VideoWidget::~S60VideoWidget()        0x0001f5bd   Thumb Code    14  s60videowidget.o(.text)
    S60VideoWidget::~S60VideoWidget__sub_object() 0x0001f5bd   Thumb Code     0  s60videowidget.o(.text)
    S60VideoWidget::~S60VideoWidget__deallocating() 0x0001f5cb   Thumb Code    22  s60videowidget.o(.text)
    thunk{-8} to S60VideoWidget::~S60VideoWidget__deallocating() 0x0001f5e1   Thumb Code    14  s60videowidget.o(.text)
    thunk{-8} to S60VideoWidget::~S60VideoWidget() 0x0001f5ef   Thumb Code    14  s60videowidget.o(.text)
    S60VideoWidget::queueReactivateWindow()  0x0001f5fd   Thumb Code   206  s60videowidget.o(.text)
    S60VideoWidget::updateOrdinalPosition()  0x0001f6cb   Thumb Code    70  s60videowidget.o(.text)
    S60VideoWidget::event(QEvent*)           0x0001f711   Thumb Code    30  s60videowidget.o(.text)
    S60VideoWidget::paintEvent(QPaintEvent*) 0x0001f72f   Thumb Code   238  s60videowidget.o(.text)
    S60VideoWidget::setVisible(bool)         0x0001f81d   Thumb Code    22  s60videowidget.o(.text)
    S60VideoWidget::videoWinId() const       0x0001f833   Thumb Code    66  s60videowidget.o(.text)
    S60VideoWidget::setPixmap(const QPixmap*) 0x0001f875   Thumb Code    16  s60videowidget.o(.text)
    S60VideoWidget::setWindowBackgroundColor() 0x0001f885   Thumb Code    58  s60videowidget.o(.text)
    S60VideoWidget::setTopWinId(CCoeControl*) 0x0001f8bf   Thumb Code   278  s60videowidget.o(.text)
    S60VideoWidget::topWinId() const         0x0001f9d5   Thumb Code     6  s60videowidget.o(.text)
    S60VideoWidget::setOrdinalPosition(int)  0x0001f9db   Thumb Code    16  s60videowidget.o(.text)
    S60VideoWidget::ordinalPosition() const  0x0001f9eb   Thumb Code     6  s60videowidget.o(.text)
    S60VideoWidget::beginNativePaintEvent(const QRect&) 0x0001f9f1   Thumb Code    18  s60videowidget.o(.text)
    S60VideoWidget::endNativePaintEvent(const QRect&) 0x0001fa03   Thumb Code    34  s60videowidget.o(.text)
    S60VideoWidget::setPaintingEnabled(bool) 0x0001fa25   Thumb Code    28  s60videowidget.o(.text)
    S60VideoWidget::setFullScreen(bool)      0x0001fa41   Thumb Code    26  s60videowidget.o(.text)
    S60VideoWidget::setContentRect(const QRect&) 0x0001fa5b   Thumb Code    68  s60videowidget.o(.text)
    S60VideoWidget::reactivateWindow(QWidget*) 0x0001fa9f   Thumb Code    14  s60videowidget.o(.text)
    S60VideoWidget::setWindowsNonFading()    0x0001faad   Thumb Code    46  s60videowidget.o(.text)
    S60VideoWidgetControl::S60VideoWidgetControl(QObject*) 0x0001faf1   Thumb Code    72  s60videowidgetcontrol.o(.text)
    S60VideoWidgetControl::S60VideoWidgetControl__sub_object(QObject*) 0x0001faf1   Thumb Code     0  s60videowidgetcontrol.o(.text)
    S60VideoWidgetControl::~S60VideoWidgetControl() 0x0001fb39   Thumb Code    14  s60videowidgetcontrol.o(.text)
    S60VideoWidgetControl::~S60VideoWidgetControl__sub_object() 0x0001fb39   Thumb Code     0  s60videowidgetcontrol.o(.text)
    S60VideoWidgetControl::~S60VideoWidgetControl__deallocating() 0x0001fb47   Thumb Code    22  s60videowidgetcontrol.o(.text)
    S60VideoWidgetControl::videoWidget()     0x0001fb5d   Thumb Code    12  s60videowidgetcontrol.o(.text)
    S60VideoWidgetControl::aspectRatioMode() const 0x0001fb69   Thumb Code    12  s60videowidgetcontrol.o(.text)
    S60VideoWidgetControl::setAspectRatioMode(Qt::AspectRatioMode) 0x0001fb75   Thumb Code    16  s60videowidgetcontrol.o(.text)
    S60VideoWidgetControl::isFullScreen() const 0x0001fb85   Thumb Code    12  s60videowidgetcontrol.o(.text)
    S60VideoWidgetControl::setFullScreen(bool) 0x0001fb91   Thumb Code    16  s60videowidgetcontrol.o(.text)
    S60VideoWidgetControl::brightness() const 0x0001fba1   Thumb Code     6  s60videowidgetcontrol.o(.text)
    S60VideoWidgetControl::setBrightness(int) 0x0001fba7   Thumb Code     6  s60videowidgetcontrol.o(.text)
    S60VideoWidgetControl::contrast() const  0x0001fbad   Thumb Code     6  s60videowidgetcontrol.o(.text)
    S60VideoWidgetControl::setContrast(int)  0x0001fbb3   Thumb Code     6  s60videowidgetcontrol.o(.text)
    S60VideoWidgetControl::hue() const       0x0001fbb9   Thumb Code     6  s60videowidgetcontrol.o(.text)
    S60VideoWidgetControl::setHue(int)       0x0001fbbf   Thumb Code     6  s60videowidgetcontrol.o(.text)
    S60VideoWidgetControl::saturation() const 0x0001fbc5   Thumb Code     6  s60videowidgetcontrol.o(.text)
    S60VideoWidgetControl::setSaturation(int) 0x0001fbcb   Thumb Code     6  s60videowidgetcontrol.o(.text)
    S60VideoWidgetControl::display() const   0x0001fbd1   Thumb Code     6  s60videowidgetcontrol.o(.text)
    S60VideoWidgetControl::topWinId() const  0x0001fbd7   Thumb Code    12  s60videowidgetcontrol.o(.text)
    S60VideoWidgetControl::setTopWinId(CCoeControl*) 0x0001fbe3   Thumb Code    16  s60videowidgetcontrol.o(.text)
    S60VideoWidgetControl::ordinalPosition() const 0x0001fbf3   Thumb Code    12  s60videowidgetcontrol.o(.text)
    S60VideoWidgetControl::setOrdinalPosition(int) 0x0001fbff   Thumb Code    16  s60videowidgetcontrol.o(.text)
    S60VideoWidgetControl::extentRect() const 0x0001fc0f   Thumb Code    12  s60videowidgetcontrol.o(.text)
    S60VideoWidgetControl::setExtentRect(const QRect&) 0x0001fc1b   Thumb Code    16  s60videowidgetcontrol.o(.text)
    S60VideoWidgetControl::nativeSize() const 0x0001fc2b   Thumb Code    18  s60videowidgetcontrol.o(.text)
    S60VideoWidgetControl::rotation() const  0x0001fc3d   Thumb Code    12  s60videowidgetcontrol.o(.text)
    S60VideoWidgetControl::setRotation(float) 0x0001fc49   Thumb Code    16  s60videowidgetcontrol.o(.text)
    S60VideoWidgetDisplay::S60VideoWidgetDisplay(QObject*) 0x0001fc91   Thumb Code   150  s60videowidgetdisplay.o(.text)
    S60VideoWidgetDisplay::S60VideoWidgetDisplay__sub_object(QObject*) 0x0001fc91   Thumb Code     0  s60videowidgetdisplay.o(.text)
    S60VideoWidgetDisplay::~S60VideoWidgetDisplay() 0x0001fd27   Thumb Code    62  s60videowidgetdisplay.o(.text)
    S60VideoWidgetDisplay::~S60VideoWidgetDisplay__sub_object() 0x0001fd27   Thumb Code     0  s60videowidgetdisplay.o(.text)
    S60VideoWidgetDisplay::~S60VideoWidgetDisplay__deallocating() 0x0001fd65   Thumb Code    22  s60videowidgetdisplay.o(.text)
    S60VideoWidgetDisplay::eventFilter(QObject*, QEvent*) 0x0001fd7b   Thumb Code   208  s60videowidgetdisplay.o(.text)
    S60VideoWidgetDisplay::winId() const     0x0001fe4b   Thumb Code    22  s60videowidgetdisplay.o(.text)
    S60VideoWidgetDisplay::extentRect() const 0x0001fe61   Thumb Code   150  s60videowidgetdisplay.o(.text)
    S60VideoWidgetDisplay::setFrame(const CFbsBitmap&) 0x0001fef7   Thumb Code    42  s60videowidgetdisplay.o(.text)
    S60VideoWidgetDisplay::widget() const    0x0001ff21   Thumb Code     6  s60videowidgetdisplay.o(.text)
    S60VideoWidgetDisplay::topWinId() const  0x0001ff27   Thumb Code    12  s60videowidgetdisplay.o(.text)
    S60VideoWidgetDisplay::setTopWinId(CCoeControl*) 0x0001ff33   Thumb Code    16  s60videowidgetdisplay.o(.text)
    S60VideoWidgetDisplay::setOrdinalPosition(int) 0x0001ff43   Thumb Code    16  s60videowidgetdisplay.o(.text)
    S60VideoWidgetDisplay::ordinalPosition() const 0x0001ff53   Thumb Code    12  s60videowidgetdisplay.o(.text)
    S60VideoWidgetDisplay::explicitExtentRect() const 0x0001ff5f   Thumb Code     8  s60videowidgetdisplay.o(.text)
    S60VideoWidgetDisplay::setExplicitExtentRect(const QRect&) 0x0001ff67   Thumb Code   106  s60videowidgetdisplay.o(.text)
    S60VideoWindowControl::S60VideoWindowControl(QObject*) 0x000200a1   Thumb Code    90  s60videowindowcontrol.o(.text)
    S60VideoWindowControl::S60VideoWindowControl__sub_object(QObject*) 0x000200a1   Thumb Code     0  s60videowindowcontrol.o(.text)
    S60VideoWindowControl::~S60VideoWindowControl() 0x000200fb   Thumb Code    14  s60videowindowcontrol.o(.text)
    S60VideoWindowControl::~S60VideoWindowControl__sub_object() 0x000200fb   Thumb Code     0  s60videowindowcontrol.o(.text)
    S60VideoWindowControl::~S60VideoWindowControl__deallocating() 0x00020109   Thumb Code    22  s60videowindowcontrol.o(.text)
    S60VideoWindowControl::winId() const     0x0002011f   Thumb Code    16  s60videowindowcontrol.o(.text)
    S60VideoWindowControl::setWinId(CCoeControl*) 0x0002012f   Thumb Code    16  s60videowindowcontrol.o(.text)
    S60VideoWindowControl::displayRect() const 0x0002013f   Thumb Code    16  s60videowindowcontrol.o(.text)
    S60VideoWindowControl::setDisplayRect(const QRect&) 0x0002014f   Thumb Code    16  s60videowindowcontrol.o(.text)
    S60VideoWindowControl::isFullScreen() const 0x0002015f   Thumb Code    12  s60videowindowcontrol.o(.text)
    S60VideoWindowControl::setFullScreen(bool) 0x0002016b   Thumb Code    16  s60videowindowcontrol.o(.text)
    S60VideoWindowControl::repaint()         0x0002017b   Thumb Code    12  s60videowindowcontrol.o(.text)
    S60VideoWindowControl::nativeSize() const 0x00020187   Thumb Code    18  s60videowindowcontrol.o(.text)
    S60VideoWindowControl::aspectRatioMode() const 0x00020199   Thumb Code    12  s60videowindowcontrol.o(.text)
    S60VideoWindowControl::setAspectRatioMode(Qt::AspectRatioMode) 0x000201a5   Thumb Code    16  s60videowindowcontrol.o(.text)
    S60VideoWindowControl::customAspectRatio() const 0x000201b5   Thumb Code    22  s60videowindowcontrol.o(.text)
    S60VideoWindowControl::setCustomAspectRatio(const QSize&) 0x000201cb   Thumb Code     6  s60videowindowcontrol.o(.text)
    S60VideoWindowControl::brightness() const 0x000201d1   Thumb Code     6  s60videowindowcontrol.o(.text)
    S60VideoWindowControl::setBrightness(int) 0x000201d7   Thumb Code     6  s60videowindowcontrol.o(.text)
    S60VideoWindowControl::contrast() const  0x000201dd   Thumb Code     6  s60videowindowcontrol.o(.text)
    S60VideoWindowControl::setContrast(int)  0x000201e3   Thumb Code     6  s60videowindowcontrol.o(.text)
    S60VideoWindowControl::hue() const       0x000201e9   Thumb Code     6  s60videowindowcontrol.o(.text)
    S60VideoWindowControl::setHue(int)       0x000201ef   Thumb Code     6  s60videowindowcontrol.o(.text)
    S60VideoWindowControl::saturation() const 0x000201f5   Thumb Code     6  s60videowindowcontrol.o(.text)
    S60VideoWindowControl::setSaturation(int) 0x000201fb   Thumb Code     6  s60videowindowcontrol.o(.text)
    S60VideoWindowControl::display() const   0x00020201   Thumb Code     6  s60videowindowcontrol.o(.text)
    S60VideoWindowControl::rotation() const  0x00020207   Thumb Code    12  s60videowindowcontrol.o(.text)
    S60VideoWindowControl::setRotation(float) 0x00020213   Thumb Code    16  s60videowindowcontrol.o(.text)
    S60VideoWindowControl::refreshDisplay()  0x00020223   Thumb Code    12  s60videowindowcontrol.o(.text)
    S60VideoWindowDisplay::S60VideoWindowDisplay(QObject*) 0x00020285   Thumb Code    80  s60videowindowdisplay.o(.text)
    S60VideoWindowDisplay::S60VideoWindowDisplay__sub_object(QObject*) 0x00020285   Thumb Code     0  s60videowindowdisplay.o(.text)
    S60VideoWindowDisplay::~S60VideoWindowDisplay() 0x000202d5   Thumb Code    14  s60videowindowdisplay.o(.text)
    S60VideoWindowDisplay::~S60VideoWindowDisplay__sub_object() 0x000202d5   Thumb Code     0  s60videowindowdisplay.o(.text)
    S60VideoWindowDisplay::~S60VideoWindowDisplay__deallocating() 0x000202e3   Thumb Code    22  s60videowindowdisplay.o(.text)
    S60VideoWindowDisplay::winId() const     0x000202f9   Thumb Code     6  s60videowindowdisplay.o(.text)
    S60VideoWindowDisplay::displayRect() const 0x000202ff   Thumb Code    16  s60videowindowdisplay.o(.text)
    S60VideoWindowDisplay::extentRect() const 0x0002030f   Thumb Code    24  s60videowindowdisplay.o(.text)
    S60VideoWindowDisplay::setFrame(const CFbsBitmap&) 0x00020327   Thumb Code   196  s60videowindowdisplay.o(.text)
    S60VideoWindowDisplay::setWinId(CCoeControl*) 0x000203eb   Thumb Code    76  s60videowindowdisplay.o(.text)
    S60VideoWindowDisplay::setDisplayRect(const QRect&) 0x00020437   Thumb Code   232  s60videowindowdisplay.o(.text)
    S60VideoWindowDisplay::repaint()         0x0002051f   Thumb Code     2  s60videowindowdisplay.o(.text)
    S60VideoWindowDisplay::refreshDisplay()  0x00020521   Thumb Code    50  s60videowindowdisplay.o(.text)
    __ARM_switch8                            0x00020564   ARM Code      24  switch8.o(.text)
    __rt_switch8                             0x00020564   ARM Code       0  switch8.o(.text)
    _E32Dll_Body                             0x0002057c   ARM Code      76  uc_dll.o(.text)
    __aeabi_atexit                           0x000205cc   ARM Code      40  ucppfini.o(.text)
    __cxa_atexit                             0x000205f4   ARM Code      64  ucppfini.o(.text)
    __cxa_finalize                           0x00020634   ARM Code      48  ucppfini.o(.text)
    run_static_dtors                         0x00020664   ARM Code      16  ucppfini.o(.text)
    __DLL_Export_Table__                     0x00020680   ARM Code       4  dllexp.o(.text)
    qStringComparisonHelper(const QString&, const char*) 0x000220b9   Thumb Code    72  s60videocapturesession.o(i._Z23qStringComparisonHelperRK7QStringPKc)
    abs(float)                               0x0002210f   Thumb Code    12  s60cameraexposurecontrol.o(i._Z3absf)
    qWarning()                               0x0002211d   Thumb Code   124  s60videowidget.o(i._Z8qWarningv)
    QByteArray::QByteArray(const QByteArray&) 0x000221b5   Thumb Code    20  s60cameraserviceplugin.o(i._ZN10QByteArrayC1ERKS_)
    QByteArray::QByteArray__sub_object(const QByteArray&) 0x000221b5   Thumb Code     0  s60cameraserviceplugin.o(i._ZN10QByteArrayC1ERKS_)
    QByteArray::~QByteArray()                0x000221c9   Thumb Code    24  moc_s60cameraserviceplugin.o(i._ZN10QByteArrayD1Ev)
    QByteArray::~QByteArray__sub_object()    0x000221c9   Thumb Code     0  moc_s60cameraserviceplugin.o(i._ZN10QByteArrayD1Ev)
    QMetaObject::invokeMethod(QObject*, const char*, Qt::ConnectionType, QGenericArgument, QGenericArgument, QGenericArgument, QGenericArgument, QGenericArgument, QGenericArgument, QGenericArgument, QGenericArgument, QGenericArgument, QGenericArgument) 0x000221e1   Thumb Code   130  s60videowidget.o(i._ZN11QMetaObject12invokeMethodEP7QObjectPKcN2Qt14ConnectionTypeE16QGenericArgumentS6_S6_S6_S6_S6_S6_S6_S6_S6_)
    QStringList::QStringList(const QStringList&) 0x00022263   Thumb Code    18  s60videocapturesession.o(i._ZN11QStringListC1ERKS_)
    QStringList::QStringList__sub_object(const QStringList&) 0x00022263   Thumb Code     0  s60videocapturesession.o(i._ZN11QStringListC1ERKS_)
    QStringList::QStringList()               0x00022275   Thumb Code    14  s60videocapturesession.o(i._ZN11QStringListC1Ev)
    QStringList::QStringList__sub_object()   0x00022275   Thumb Code     0  s60videocapturesession.o(i._ZN11QStringListC1Ev)
    QStringList::~QStringList()              0x00022283   Thumb Code    14  s60videocapturesession.o(i._ZN11QStringListD1Ev)
    QStringList::~QStringList__sub_object()  0x00022283   Thumb Code     0  s60videocapturesession.o(i._ZN11QStringListD1Ev)
    TCameraInfo::TCameraInfo()               0x00022291   Thumb Code    24  s60cameraengine.o(i._ZN11TCameraInfoC1Ev)
    TCameraInfo::TCameraInfo__sub_object()   0x00022291   Thumb Code     0  s60cameraengine.o(i._ZN11TCameraInfoC1Ev)
    CleanupStack::PopAndDestroy(void*)       0x000222a9   Thumb Code    16  s60videocapturesession.o(i._ZN12CleanupStack13PopAndDestroyEPv)
    CleanupStack::Pop(void*)                 0x000222b9   Thumb Code    16  s60imagecapturesession.o(i._ZN12CleanupStack3PopEPv)
    CCameraEngine::FrameBufferReady(MFrameBuffer*, int) 0x000222c9   Thumb Code     2  s60cameraengine.o(i._ZN13CCameraEngine16FrameBufferReadyEP12MFrameBufferi)
    CCameraEngine::VideoBufferReady(MCameraBuffer&, int) 0x000222cb   Thumb Code     2  s60cameraengine.o(i._ZN13CCameraEngine16VideoBufferReadyER13MCameraBufferi)
    QBasicAtomicInt::ref()                   0x000222cd   Thumb Code    24  s60cameraexposurecontrol.o(i._ZN15QBasicAtomicInt3refEv)
    QBasicAtomicInt::deref()                 0x000222e5   Thumb Code    24  moc_s60cameraserviceplugin.o(i._ZN15QBasicAtomicInt5derefEv)
    S60CameraControl::tr(const char*, const char*) 0x000222fd   Thumb Code    22  s60cameracontrol.o(i._ZN16S60CameraControl2trEPKcS1_)
    QFactoryInterface::~QFactoryInterface__deallocating() 0x00022319   Thumb Code    18  s60cameraserviceplugin.o(i._ZN17QFactoryInterfaceD0Ev)
    QFactoryInterface::~QFactoryInterface()  0x0002232b   Thumb Code     0  s60cameraserviceplugin.o(i._ZN17QFactoryInterfaceD2Ev)
    QFactoryInterface::~QFactoryInterface__sub_object() 0x0002232b   Thumb Code     2  s60cameraserviceplugin.o(i._ZN17QFactoryInterfaceD2Ev)
    QForeachContainer<QHash<QString, TFourCC>>::~QForeachContainer() 0x0002232d   Thumb Code    14  s60videocapturesession.o(i._ZN17QForeachContainerI5QHashI7QString7TFourCCEED1Ev)
    QForeachContainer<QHash<QString, TFourCC>>::~QForeachContainer__sub_object() 0x0002232d   Thumb Code     0  s60videocapturesession.o(i._ZN17QForeachContainerI5QHashI7QString7TFourCCEED1Ev)
    QForeachContainer<QHash<int, S60VideoCaptureSession::VideoFormatData>>::~QForeachContainer() 0x0002233b   Thumb Code    14  s60videocapturesession.o(i._ZN17QForeachContainerI5QHashIiN22S60VideoCaptureSession15VideoFormatDataEEED1Ev)
    QForeachContainer<QHash<int, S60VideoCaptureSession::VideoFormatData>>::~QForeachContainer__sub_object() 0x0002233b   Thumb Code     0  s60videocapturesession.o(i._ZN17QForeachContainerI5QHashIiN22S60VideoCaptureSession15VideoFormatDataEEED1Ev)
    QForeachContainer<QList<S60VideoCaptureSession::MaxResolutionRatesAndTypes>>::~QForeachContainer() 0x00022349   Thumb Code    14  s60videocapturesession.o(i._ZN17QForeachContainerI5QListIN22S60VideoCaptureSession26MaxResolutionRatesAndTypesEEED1Ev)
    QForeachContainer<QList<S60VideoCaptureSession::MaxResolutionRatesAndTypes>>::~QForeachContainer__sub_object() 0x00022349   Thumb Code     0  s60videocapturesession.o(i._ZN17QForeachContainerI5QListIN22S60VideoCaptureSession26MaxResolutionRatesAndTypesEEED1Ev)
    QForeachContainer<QList<S60VideoCaptureSession::SupportedFrameRatePictureSize>>::~QForeachContainer() 0x00022357   Thumb Code    14  s60videocapturesession.o(i._ZN17QForeachContainerI5QListIN22S60VideoCaptureSession29SupportedFrameRatePictureSizeEEED1Ev)
    QForeachContainer<QList<S60VideoCaptureSession::SupportedFrameRatePictureSize>>::~QForeachContainer__sub_object() 0x00022357   Thumb Code     0  s60videocapturesession.o(i._ZN17QForeachContainerI5QListIN22S60VideoCaptureSession29SupportedFrameRatePictureSizeEEED1Ev)
    QForeachContainer<QList<float>>::~QForeachContainer() 0x00022365   Thumb Code    14  s60cameraexposurecontrol.o(i._ZN17QForeachContainerI5QListIfEED1Ev)
    QForeachContainer<QList<float>>::~QForeachContainer__sub_object() 0x00022365   Thumb Code     0  s60cameraexposurecontrol.o(i._ZN17QForeachContainerI5QListIfEED1Ev)
    QForeachContainer<QList<int>>::~QForeachContainer() 0x00022373   Thumb Code    14  s60cameraexposurecontrol.o(i._ZN17QForeachContainerI5QListIiEED1Ev)
    QForeachContainer<QList<int>>::~QForeachContainer__sub_object() 0x00022373   Thumb Code     0  s60cameraexposurecontrol.o(i._ZN17QForeachContainerI5QListIiEED1Ev)
    S60CameraSettings::tr(const char*, const char*) 0x00022381   Thumb Code    22  s60camerasettings.o(i._ZN17S60CameraSettings2trEPKcS1_)
    S60CameraFocusControl::tr(const char*, const char*) 0x0002239d   Thumb Code    22  s60camerafocuscontrol.o(i._ZN21S60CameraFocusControl2trEPKcS1_)
    QGraphicsEffectPrivate::~QGraphicsEffectPrivate() 0x000223b9   Thumb Code    14  s60videooutpututils.o(i._ZN22QGraphicsEffectPrivateD1Ev)
    QGraphicsEffectPrivate::~QGraphicsEffectPrivate__sub_object() 0x000223b9   Thumb Code     0  s60videooutpututils.o(i._ZN22QGraphicsEffectPrivateD1Ev)
    S60CameraServicePlugin::S60CameraServicePlugin() 0x000223c9   Thumb Code    80  s60cameraserviceplugin.o(i._ZN22S60CameraServicePluginC1Ev)
    S60CameraServicePlugin::S60CameraServicePlugin__sub_object() 0x000223c9   Thumb Code     0  s60cameraserviceplugin.o(i._ZN22S60CameraServicePluginC1Ev)
    S60CameraServicePlugin::~S60CameraServicePlugin__deallocating() 0x00022453   Thumb Code    22  moc_s60cameraserviceplugin.o(i._ZN22S60CameraServicePluginD0Ev)
    S60CameraServicePlugin::~S60CameraServicePlugin() 0x00022469   Thumb Code    60  moc_s60cameraserviceplugin.o(i._ZN22S60CameraServicePluginD1Ev)
    S60CameraServicePlugin::~S60CameraServicePlugin__sub_object() 0x00022469   Thumb Code     0  moc_s60cameraserviceplugin.o(i._ZN22S60CameraServicePluginD1Ev)
    S60ImageCaptureSession::tr(const char*, const char*) 0x000224cd   Thumb Code    22  s60imagecapturesession.o(i._ZN22S60ImageCaptureSession2trEPKcS1_)
    S60VideoCaptureSession::VideoFormatData::VideoFormatData(const S60VideoCaptureSession::VideoFormatData&) 0x000224e9   Thumb Code    30  s60videocapturesession.o(i._ZN22S60VideoCaptureSession15VideoFormatDataC1ERKS0_)
    S60VideoCaptureSession::VideoFormatData::VideoFormatData__sub_object(const S60VideoCaptureSession::VideoFormatData&) 0x000224e9   Thumb Code     0  s60videocapturesession.o(i._ZN22S60VideoCaptureSession15VideoFormatDataC1ERKS0_)
    S60VideoCaptureSession::VideoFormatData::VideoFormatData() 0x00022511   Thumb Code    24  s60videocapturesession.o(i._ZN22S60VideoCaptureSession15VideoFormatDataC1Ev)
    S60VideoCaptureSession::VideoFormatData::VideoFormatData__sub_object() 0x00022511   Thumb Code     0  s60videocapturesession.o(i._ZN22S60VideoCaptureSession15VideoFormatDataC1Ev)
    S60VideoCaptureSession::VideoFormatData::~VideoFormatData() 0x00022533   Thumb Code    22  s60videocapturesession.o(i._ZN22S60VideoCaptureSession15VideoFormatDataD1Ev)
    S60VideoCaptureSession::VideoFormatData::~VideoFormatData__sub_object() 0x00022533   Thumb Code     0  s60videocapturesession.o(i._ZN22S60VideoCaptureSession15VideoFormatDataD1Ev)
    S60VideoCaptureSession::MaxResolutionRatesAndTypes::MaxResolutionRatesAndTypes(const S60VideoCaptureSession::MaxResolutionRatesAndTypes&) 0x00022553   Thumb Code    34  s60videocapturesession.o(i._ZN22S60VideoCaptureSession26MaxResolutionRatesAndTypesC1ERKS0_)
    S60VideoCaptureSession::MaxResolutionRatesAndTypes::MaxResolutionRatesAndTypes__sub_object(const S60VideoCaptureSession::MaxResolutionRatesAndTypes&) 0x00022553   Thumb Code     0  s60videocapturesession.o(i._ZN22S60VideoCaptureSession26MaxResolutionRatesAndTypesC1ERKS0_)
    S60VideoCaptureSession::MaxResolutionRatesAndTypes::~MaxResolutionRatesAndTypes() 0x0002257f   Thumb Code    22  s60videocapturesession.o(i._ZN22S60VideoCaptureSession26MaxResolutionRatesAndTypesD1Ev)
    S60VideoCaptureSession::MaxResolutionRatesAndTypes::~MaxResolutionRatesAndTypes__sub_object() 0x0002257f   Thumb Code     0  s60videocapturesession.o(i._ZN22S60VideoCaptureSession26MaxResolutionRatesAndTypesD1Ev)
    S60VideoCaptureSession::SupportedFrameRatePictureSize::SupportedFrameRatePictureSize(const S60VideoCaptureSession::SupportedFrameRatePictureSize&) 0x0002259f   Thumb Code    14  s60videocapturesession.o(i._ZN22S60VideoCaptureSession29SupportedFrameRatePictureSizeC1ERKS0_)
    S60VideoCaptureSession::SupportedFrameRatePictureSize::SupportedFrameRatePictureSize__sub_object(const S60VideoCaptureSession::SupportedFrameRatePictureSize&) 0x0002259f   Thumb Code     0  s60videocapturesession.o(i._ZN22S60VideoCaptureSession29SupportedFrameRatePictureSizeC1ERKS0_)
    S60VideoCaptureSession::tr(const char*, const char*) 0x000225ad   Thumb Code    22  s60videocapturesession.o(i._ZN22S60VideoCaptureSession2trEPKcS1_)
    S60CameraViewfinderEngine::tr(const char*, const char*) 0x000225c9   Thumb Code    22  s60cameraviewfinderengine.o(i._ZN25S60CameraViewfinderEngine2trEPKcS1_)
    QGraphicsBlurEffectPrivate::~QGraphicsBlurEffectPrivate__deallocating() 0x000225e5   Thumb Code    22  s60videooutpututils.o(i._ZN26QGraphicsBlurEffectPrivateD0Ev)
    QGraphicsBlurEffectPrivate::~QGraphicsBlurEffectPrivate() 0x000225fd   Thumb Code    34  s60videooutpututils.o(i._ZN26QGraphicsBlurEffectPrivateD1Ev)
    QGraphicsBlurEffectPrivate::~QGraphicsBlurEffectPrivate__sub_object() 0x000225fd   Thumb Code     0  s60videooutpututils.o(i._ZN26QGraphicsBlurEffectPrivateD1Ev)
    QMediaServiceProviderPlugin::~QMediaServiceProviderPlugin() 0x0002262f   Thumb Code     0  moc_s60cameraserviceplugin.o(i._ZN27QMediaServiceProviderPluginD2Ev)
    QMediaServiceProviderPlugin::~QMediaServiceProviderPlugin__sub_object() 0x0002262f   Thumb Code    22  moc_s60cameraserviceplugin.o(i._ZN27QMediaServiceProviderPluginD2Ev)
    QGraphicsColorizeEffectPrivate::~QGraphicsColorizeEffectPrivate__deallocating() 0x00022649   Thumb Code    22  s60videooutpututils.o(i._ZN30QGraphicsColorizeEffectPrivateD0Ev)
    QGraphicsColorizeEffectPrivate::~QGraphicsColorizeEffectPrivate() 0x00022661   Thumb Code    34  s60videooutpututils.o(i._ZN30QGraphicsColorizeEffectPrivateD1Ev)
    QGraphicsColorizeEffectPrivate::~QGraphicsColorizeEffectPrivate__sub_object() 0x00022661   Thumb Code     0  s60videooutpututils.o(i._ZN30QGraphicsColorizeEffectPrivateD1Ev)
    S60CameraImageProcessingControl::tr(const char*, const char*) 0x00022695   Thumb Code    22  s60cameraimageprocessingcontrol.o(i._ZN31S60CameraImageProcessingControl2trEPKcS1_)
    QGraphicsDropShadowEffectPrivate::~QGraphicsDropShadowEffectPrivate__deallocating() 0x000226b1   Thumb Code    22  s60videooutpututils.o(i._ZN32QGraphicsDropShadowEffectPrivateD0Ev)
    QGraphicsDropShadowEffectPrivate::~QGraphicsDropShadowEffectPrivate() 0x000226c9   Thumb Code    34  s60videooutpututils.o(i._ZN32QGraphicsDropShadowEffectPrivateD1Ev)
    QGraphicsDropShadowEffectPrivate::~QGraphicsDropShadowEffectPrivate__sub_object() 0x000226c9   Thumb Code     0  s60videooutpututils.o(i._ZN32QGraphicsDropShadowEffectPrivateD1Ev)
    MCameraEngineImageCaptureObserver::MceoHandleOtherEvent(const TECAMEvent&) 0x000226fb   Thumb Code     2  moc_s60imagecapturesession.o(i._ZN33MCameraEngineImageCaptureObserver20MceoHandleOtherEventERK10TECAMEvent)
    QMediaServiceProviderFactoryInterface::~QMediaServiceProviderFactoryInterface__deallocating() 0x000226fd   Thumb Code    18  s60cameraserviceplugin.o(i._ZN37QMediaServiceProviderFactoryInterfaceD0Ev)
    QMediaServiceProviderFactoryInterface::~QMediaServiceProviderFactoryInterface() 0x0002270f   Thumb Code     0  s60cameraserviceplugin.o(i._ZN37QMediaServiceProviderFactoryInterfaceD2Ev)
    QMediaServiceProviderFactoryInterface::~QMediaServiceProviderFactoryInterface__sub_object() 0x0002270f   Thumb Code     2  s60cameraserviceplugin.o(i._ZN37QMediaServiceProviderFactoryInterfaceD2Ev)
    QMediaServiceSupportedDevicesInterface::~QMediaServiceSupportedDevicesInterface__deallocating() 0x00022711   Thumb Code    18  s60cameraserviceplugin.o(i._ZN38QMediaServiceSupportedDevicesInterfaceD0Ev)
    QMediaServiceSupportedDevicesInterface::~QMediaServiceSupportedDevicesInterface() 0x00022723   Thumb Code     0  moc_s60cameraserviceplugin.o(i._ZN38QMediaServiceSupportedDevicesInterfaceD2Ev)
    QMediaServiceSupportedDevicesInterface::~QMediaServiceSupportedDevicesInterface__sub_object() 0x00022723   Thumb Code     2  moc_s60cameraserviceplugin.o(i._ZN38QMediaServiceSupportedDevicesInterfaceD2Ev)
    CBase::operator new(unsigned)            0x00022725   Thumb Code    16  s60imagecapturesession.o(i._ZN5CBasenwEj)
    QRect::QRect(int, int, int, int)         0x00022735   Thumb Code    22  s60cameraviewfinderengine.o(i._ZN5QRectC1Eiiii)
    QRect::QRect__sub_object(int, int, int, int) 0x00022735   Thumb Code     0  s60cameraviewfinderengine.o(i._ZN5QRectC1Eiiii)
    QRect::QRect()                           0x0002274b   Thumb Code    14  s60videodisplay.o(i._ZN5QRectC1Ev)
    QRect::QRect__sub_object()               0x0002274b   Thumb Code     0  s60videodisplay.o(i._ZN5QRectC1Ev)
    QSize::QSize(const QSize&)               0x00022759   Thumb Code    10  s60videocapturesession.o(i._ZN5QSizeC1ERKS_)
    QSize::QSize__sub_object(const QSize&)   0x00022759   Thumb Code     0  s60videocapturesession.o(i._ZN5QSizeC1ERKS_)
    TSize::TSize()                           0x00022763   Thumb Code     8  s60imagecapturesession.o(i._ZN5TSizeC1Ev)
    TSize::TSize__sub_object()               0x00022763   Thumb Code     0  s60imagecapturesession.o(i._ZN5TSizeC1Ev)
    QDebug::~QDebug()                        0x0002276b   Thumb Code   160  s60videowidget.o(i._ZN6QDebugD1Ev)
    QDebug::~QDebug__sub_object()            0x0002276b   Thumb Code     0  s60videowidget.o(i._ZN6QDebugD1Ev)
    RArray<int>::RArray()                    0x0002281f   Thumb Code    14  s60camerasettings.o(i._ZN6RArrayIiEC1Ev)
    RArray<int>::RArray__sub_object()        0x0002281f   Thumb Code     0  s60camerasettings.o(i._ZN6RArrayIiEC1Ev)
    RArray<int>::operator [](int)            0x0002282d   Thumb Code    16  s60camerasettings.o(i._ZN6RArrayIiEixEi)
    QObject::disconnect(const QObject*, const char*) 0x0002283d   Thumb Code    22  s60cameraviewfinderengine.o(i._ZN7QObject10disconnectEPKS_PKc)
    QString::append(const char*)             0x00022853   Thumb Code    40  s60videocapturesession.o(i._ZN7QString6appendEPKc)
    QString::QString(const char*)            0x00022885   Thumb Code    22  s60videocapturesession.o(i._ZN7QStringC1EPKc)
    QString::QString__sub_object(const char*) 0x00022885   Thumb Code     0  s60videocapturesession.o(i._ZN7QStringC1EPKc)
    QString::QString(const QLatin1String&)   0x0002289b   Thumb Code    26  s60cameraexposurecontrol.o(i._ZN7QStringC1ERK13QLatin1String)
    QString::QString__sub_object(const QLatin1String&) 0x0002289b   Thumb Code     0  s60cameraexposurecontrol.o(i._ZN7QStringC1ERK13QLatin1String)
    QString::QString(const QString&)         0x000228b5   Thumb Code    22  s60videocapturesession.o(i._ZN7QStringC1ERKS_)
    QString::QString__sub_object(const QString&) 0x000228b5   Thumb Code     0  s60videocapturesession.o(i._ZN7QStringC1ERKS_)
    QString::QString()                       0x000228cd   Thumb Code    18  s60videocapturesession.o(i._ZN7QStringC1Ev)
    QString::QString__sub_object()           0x000228cd   Thumb Code     0  s60videocapturesession.o(i._ZN7QStringC1Ev)
    QString::~QString()                      0x000228e5   Thumb Code    24  moc_s60cameraserviceplugin.o(i._ZN7QStringD1Ev)
    QString::~QString__sub_object()          0x000228e5   Thumb Code     0  moc_s60cameraserviceplugin.o(i._ZN7QStringD1Ev)
    QString::operator =(const QLatin1String&) 0x000228fd   Thumb Code    42  s60videocapturesession.o(i._ZN7QStringaSERK13QLatin1String)
    QVariant::Private::Private()             0x00022931   Thumb Code    36  s60cameraexposurecontrol.o(i._ZN8QVariant7PrivateC1Ev)
    QVariant::Private::Private__sub_object() 0x00022931   Thumb Code     0  s60cameraexposurecontrol.o(i._ZN8QVariant7PrivateC1Ev)
    QVariant::QVariant(float)                0x00022955   Thumb Code    38  s60cameraexposurecontrol.o(i._ZN8QVariantC1Ef)
    QVariant::QVariant__sub_object(float)    0x00022955   Thumb Code     0  s60cameraexposurecontrol.o(i._ZN8QVariantC1Ef)
    QHashData::willGrow()                    0x0002297b   Thumb Code    32  s60videocapturesession.o(i._ZN9QHashData8willGrowEv)
    QHashData::firstNode()                   0x0002299b   Thumb Code    36  s60videocapturesession.o(i._ZN9QHashData9firstNodeEv)
    QStringList::contains(const QString&, Qt::CaseSensitivity) const 0x000229bf   Thumb Code    22  s60videocapturesession.o(i._ZNK11QStringList8containsERK7QStringN2Qt15CaseSensitivityE)
    QBasicAtomicInt::operator ==(int) const  0x000229d5   Thumb Code    16  s60videocapturesession.o(i._ZNK15QBasicAtomicInteqEi)
    QBasicAtomicInt::operator !=(int) const  0x000229e5   Thumb Code    16  s60cameraexposurecontrol.o(i._ZNK15QBasicAtomicIntneEi)
    QBool::operator const void*() const      0x000229f5   Thumb Code    16  s60videocapturesession.o(i._ZNK5QBoolcvPKvEv)
    QRect::size() const                      0x00022a05   Thumb Code    38  s60cameraviewfinderengine.o(i._ZNK5QRect4sizeEv)
    RArray<int>::Count() const               0x00022a2b   Thumb Code    12  s60camerasettings.o(i._ZNK6RArrayIiE5CountEv)
    QString::isEmpty() const                 0x00022a37   Thumb Code    18  s60videocapturesession.o(i._ZNK7QString7isEmptyEv)
    QString::contains(const QString&, Qt::CaseSensitivity) const 0x00022a49   Thumb Code    38  s60videocapturesession.o(i._ZNK7QString8containsERKS_N2Qt15CaseSensitivityE)
    QString::operator ==(const char*) const  0x00022a6f   Thumb Code    16  s60videocapturesession.o(i._ZNK7QStringeqEPKc)
    TFourCC::operator ==(const TFourCC&) const 0x00022a7f   Thumb Code    18  s60videocapturesession.o(i._ZNK7TFourCCeqERKS_)
    QVariant::isDetached() const             0x00022a91   Thumb Code    34  s60videoencodercontrol.o(i._ZNK8QVariant10isDetachedEv)
    QListData::at(int) const                 0x00022ab3   Thumb Code    20  s60cameraexposurecontrol.o(i._ZNK9QListData2atEi)
    QListData::end() const                   0x00022ac7   Thumb Code    16  s60cameraexposurecontrol.o(i._ZNK9QListData3endEv)
    QListData::size() const                  0x00022ad7   Thumb Code    14  s60cameraexposurecontrol.o(i._ZNK9QListData4sizeEv)
    QListData::begin() const                 0x00022ae5   Thumb Code    16  s60cameraexposurecontrol.o(i._ZNK9QListData5beginEv)
    thunk{-12} to S60CameraServicePlugin::~S60CameraServicePlugin__deallocating() 0x00022af5   Thumb Code    14  moc_s60cameraserviceplugin.o(i._ZThn12_N22S60CameraServicePluginD0Ev)
    thunk{-12} to S60CameraServicePlugin::~S60CameraServicePlugin() 0x00022b03   Thumb Code    14  moc_s60cameraserviceplugin.o(i._ZThn12_N22S60CameraServicePluginD1Ev)
    thunk{-4} to CCameraEngine::FrameBufferReady(MFrameBuffer*, int) 0x00022b11   Thumb Code     4  s60cameraengine.o(i._ZThn4_N13CCameraEngine16FrameBufferReadyEP12MFrameBufferi)
    thunk{-8} to CCameraEngine::VideoBufferReady(MCameraBuffer&, int) 0x00022b15   Thumb Code     4  s60cameraengine.o(i._ZThn8_N13CCameraEngine16VideoBufferReadyER13MCameraBufferi)
    thunk{-8} to S60CameraServicePlugin::~S60CameraServicePlugin__deallocating() 0x00022b19   Thumb Code    14  moc_s60cameraserviceplugin.o(i._ZThn8_N22S60CameraServicePluginD0Ev)
    thunk{-8} to S60CameraServicePlugin::~S60CameraServicePlugin() 0x00022b27   Thumb Code    14  moc_s60cameraserviceplugin.o(i._ZThn8_N22S60CameraServicePluginD1Ev)
    operator delete (void*, void*)           0x00022b35   Thumb Code     2  s60videocapturesession.o(i._ZdlPvS_)
    operator ==(const QByteArray&, const char*) 0x00022b37   Thumb Code    50  s60cameraserviceplugin.o(i._ZeqRK10QByteArrayPKc)
    operator ==(const QSize&, const QSize&)  0x00022b69   Thumb Code    26  s60videoencodercontrol.o(i._ZeqRK5QSizeS1_)
    operator !=(const QSize&, const QSize&)  0x00022b83   Thumb Code    26  s60videoencodercontrol.o(i._ZneRK5QSizeS1_)
    operator new(unsigned, void*)            0x00022b9d   Thumb Code     6  s60videocapturesession.o(i._ZnwjPv)
    qobject_cast<S60VideoRendererControl*>(QObject*) 0x00022ba5   Thumb Code    26  s60cameraviewfinderengine.o(t._Z12qobject_castIP23S60VideoRendererControlET_P7QObject)
    qMapLessThanKey<QString>(const T1&, const T1&) 0x00022bc5   Thumb Code    16  s60imagecapturesession.o(t._Z15qMapLessThanKeyI7QStringEbRKT_S3_)
    qVariantSetValue<QSize>(QVariant&, const T1&) 0x00022bd5   Thumb Code   162  s60videoencodercontrol.o(t._Z16qVariantSetValueI5QSizeEvR8QVariantRKT_)
    qVariantSetValue<int>(QVariant&, const T1&) 0x00022c83   Thumb Code   158  s60videoencodercontrol.o(t._Z16qVariantSetValueIiEvR8QVariantRKT_)
    CleanupClosePushL<RArray<TUid>>(T1&)     0x00022d2d   Thumb Code    24  s60videocapturesession.o(t._Z17CleanupClosePushLI6RArrayI4TUidEEvRT_)
    CleanupClosePushL<RArray<int>>(T1&)      0x00022d49   Thumb Code    24  s60camerasettings.o(t._Z17CleanupClosePushLI6RArrayIiEEvRT_)
    qForeachContainerNew<QHash<int, S60VideoCaptureSession::VideoFormatData>>(const T1&) 0x00022d65   Thumb Code    78  s60videocapturesession.o(t._Z20qForeachContainerNewI5QHashIiN22S60VideoCaptureSession15VideoFormatDataEEE17QForeachContainerIT_ERKS5_)
    qForeachContainerNew<QList<S60VideoCaptureSession::MaxResolutionRatesAndTypes>>(const T1&) 0x00022dbd   Thumb Code   102  s60videocapturesession.o(t._Z20qForeachContainerNewI5QListIN22S60VideoCaptureSession26MaxResolutionRatesAndTypesEEE17QForeachContainerIT_ERKS5_)
    qForeachContainerNew<QList<S60VideoCaptureSession::SupportedFrameRatePictureSize>>(const T1&) 0x00022e2d   Thumb Code   102  s60videocapturesession.o(t._Z20qForeachContainerNewI5QListIN22S60VideoCaptureSession29SupportedFrameRatePictureSizeEEE17QForeachContainerIT_ERKS5_)
    qForeachContainerNew<QList<float>>(const T1&) 0x00022e9d   Thumb Code   126  s60cameraexposurecontrol.o(t._Z20qForeachContainerNewI5QListIfEE17QForeachContainerIT_ERKS3_)
    qAbs<float>(const T1&)                   0x00022f25   Thumb Code    28  s60imagecapturesession.o(t._Z4qAbsIfET_RKS0_)
    CleanupClose<RFs>::Close(void*)          0x00022f41   Thumb Code    12  s60imagecapturesession.o(t._ZN12CleanupCloseI3RFsE5CloseEPv)
    CleanupClose<RFile>::Close(void*)        0x00022f4d   Thumb Code    12  s60imagecapturesession.o(t._ZN12CleanupCloseI5RFileE5CloseEPv)
    CleanupClose<RArray<TUid>>::Close(void*) 0x00022f59   Thumb Code    14  s60videocapturesession.o(t._ZN12CleanupCloseI6RArrayI4TUidEE5CloseEPv)
    CleanupClose<RArray<TFourCC>>::Close(void*) 0x00022f67   Thumb Code    14  s60videocapturesession.o(t._ZN12CleanupCloseI6RArrayI7TFourCCEE5CloseEPv)
    CleanupClose<RArray<int>>::Close(void*)  0x00022f75   Thumb Code    14  s60camerasettings.o(t._ZN12CleanupCloseI6RArrayIiEE5CloseEPv)
    CleanupClose<RArray<unsigned>>::Close(void*) 0x00022f83   Thumb Code    14  s60videocapturesession.o(t._ZN12CleanupCloseI6RArrayIjEE5CloseEPv)
    RPointerArray<CMMFControllerImplementationInformation>::ResetAndDestroy() 0x00022f91   Thumb Code    64  s60videocapturesession.o(t._ZN13RPointerArrayI39CMMFControllerImplementationInformationE15ResetAndDestroyEv)
    QScopedPointer<QWidget, QScopedPointerDeleter<QWidget>>::~QScopedPointer() 0x00022fd1   Thumb Code    28  s60videowidgetdisplay.o(t._ZN14QScopedPointerI7QWidget21QScopedPointerDeleterIS0_EED1Ev)
    QScopedPointer<QWidget, QScopedPointerDeleter<QWidget>>::~QScopedPointer__sub_object() 0x00022fd1   Thumb Code     0  s60videowidgetdisplay.o(t._ZN14QScopedPointerI7QWidget21QScopedPointerDeleterIS0_EED1Ev)
    CleanupResetAndDestroy<RPointerArray<CMMFControllerImplementationInformation>>::ResetAndDestroy(void*) 0x00022fed   Thumb Code    12  s60videocapturesession.o(t._ZN22CleanupResetAndDestroyI13RPointerArrayI39CMMFControllerImplementationInformationEE15ResetAndDestroyEPv)
    QMap<QString, QString>::node_create(QMapData*, QMapData::Node**, const QString&, const QString&) 0x00022ff9   Thumb Code   140  s60imagecapturesession.o(t._ZN4QMapI7QStringS0_E11node_createEP8QMapDataPPNS2_4NodeERKS0_S8_)
    QMap<QString, QString>::detach_helper()  0x000230ab   Thumb Code   146  s60imagecapturesession.o(t._ZN4QMapI7QStringS0_E13detach_helperEv)
    QMap<QString, QString>::freeData(QMapData*) 0x00023145   Thumb Code    62  s60imagecapturesession.o(t._ZN4QMapI7QStringS0_E8freeDataEP8QMapData)
    QMap<QString, QString>::QMap()           0x00023185   Thumb Code    22  s60mediacontainercontrol.o(t._ZN4QMapI7QStringS0_EC1Ev)
    QMap<QString, QString>::QMap__sub_object() 0x00023185   Thumb Code     0  s60mediacontainercontrol.o(t._ZN4QMapI7QStringS0_EC1Ev)
    QMap<QString, QString>::~QMap()          0x000231a1   Thumb Code    38  s60imagecapturesession.o(t._ZN4QMapI7QStringS0_ED1Ev)
    QMap<QString, QString>::~QMap__sub_object() 0x000231a1   Thumb Code     0  s60imagecapturesession.o(t._ZN4QMapI7QStringS0_ED1Ev)
    QMap<QString, int>::node_create(QMapData*, QMapData::Node**, const QString&, const int&) 0x000231c7   Thumb Code   118  s60imagecapturesession.o(t._ZN4QMapI7QStringiE11node_createEP8QMapDataPPNS2_4NodeERKS0_RKi)
    QMap<QString, int>::detach_helper()      0x00023251   Thumb Code   146  s60imagecapturesession.o(t._ZN4QMapI7QStringiE13detach_helperEv)
    QMap<QString, int>::insert(const QString&, const int&) 0x000232eb   Thumb Code    92  s60imagecapturesession.o(t._ZN4QMapI7QStringiE6insertERKS0_RKi)
    QMap<QString, int>::freeData(QMapData*)  0x00023347   Thumb Code    56  s60imagecapturesession.o(t._ZN4QMapI7QStringiE8freeDataEP8QMapData)
    QMap<QString, int>::~QMap()              0x0002337f   Thumb Code    38  s60imagecapturesession.o(t._ZN4QMapI7QStringiED1Ev)
    QMap<QString, int>::~QMap__sub_object()  0x0002337f   Thumb Code     0  s60imagecapturesession.o(t._ZN4QMapI7QStringiED1Ev)
    QHash<QString, TFourCC>::createNode(unsigned, const QString&, const TFourCC&, QHashNode<QString, TFourCC>**) 0x000233a5   Thumb Code   100  s60videocapturesession.o(t._ZN5QHashI7QString7TFourCCE10createNodeEjRKS0_RKS1_PP9QHashNodeIS0_S1_E)
    QHash<QString, TFourCC>::deleteNode2(QHashData::Node*) 0x00023417   Thumb Code    24  s60videocapturesession.o(t._ZN5QHashI7QString7TFourCCE11deleteNode2EPN9QHashData4NodeE)
    QHash<QString, TFourCC>::detach_helper() 0x00023431   Thumb Code    52  s60videocapturesession.o(t._ZN5QHashI7QString7TFourCCE13detach_helperEv)
    QHash<QString, TFourCC>::duplicateNode(QHashData::Node*, void*) 0x0002346d   Thumb Code    46  s60videocapturesession.o(t._ZN5QHashI7QString7TFourCCE13duplicateNodeEPN9QHashData4NodeEPv)
    QHash<QString, TFourCC>::const_iterator::operator ++() 0x000234a9   Thumb Code    16  s60videocapturesession.o(t._ZN5QHashI7QString7TFourCCE14const_iteratorppEv)
    QHash<QString, TFourCC>::clear()         0x000234b9   Thumb Code    82  s60videocapturesession.o(t._ZN5QHashI7QString7TFourCCE5clearEv)
    QHash<QString, TFourCC>::detach()        0x00023515   Thumb Code    28  s60videocapturesession.o(t._ZN5QHashI7QString7TFourCCE6detachEv)
    QHash<QString, TFourCC>::insert(const QString&, const TFourCC&) 0x00023531   Thumb Code    98  s60videocapturesession.o(t._ZN5QHashI7QString7TFourCCE6insertERKS0_RKS1_)
    QHash<QString, TFourCC>::freeData(QHashData*) 0x00023595   Thumb Code    16  s60videocapturesession.o(t._ZN5QHashI7QString7TFourCCE8freeDataEP9QHashData)
    QHash<QString, TFourCC>::QHash()         0x000235a9   Thumb Code    22  s60videocapturesession.o(t._ZN5QHashI7QString7TFourCCEC1Ev)
    QHash<QString, TFourCC>::QHash__sub_object() 0x000235a9   Thumb Code     0  s60videocapturesession.o(t._ZN5QHashI7QString7TFourCCEC1Ev)
    QHash<QString, TFourCC>::~QHash()        0x000235c5   Thumb Code    30  s60videocapturesession.o(t._ZN5QHashI7QString7TFourCCED1Ev)
    QHash<QString, TFourCC>::~QHash__sub_object() 0x000235c5   Thumb Code     0  s60videocapturesession.o(t._ZN5QHashI7QString7TFourCCED1Ev)
    QHash<int, S60VideoCaptureSession::VideoFormatData>::createNode(unsigned, const int&, const S60VideoCaptureSession::VideoFormatData&, QHashNode<int, S60VideoCaptureSession::VideoFormatData>**) 0x000235e3   Thumb Code   102  s60videocapturesession.o(t._ZN5QHashIiN22S60VideoCaptureSession15VideoFormatDataEE10createNodeEjRKiRKS1_PP9QHashNodeIiS1_E)
    QHash<int, S60VideoCaptureSession::VideoFormatData>::deleteNode2(QHashData::Node*) 0x00023657   Thumb Code    24  s60videocapturesession.o(t._ZN5QHashIiN22S60VideoCaptureSession15VideoFormatDataEE11deleteNode2EPN9QHashData4NodeE)
    QHash<int, S60VideoCaptureSession::VideoFormatData>::detach_helper() 0x00023671   Thumb Code    52  s60videocapturesession.o(t._ZN5QHashIiN22S60VideoCaptureSession15VideoFormatDataEE13detach_helperEv)
    QHash<int, S60VideoCaptureSession::VideoFormatData>::duplicateNode(QHashData::Node*, void*) 0x000236ad   Thumb Code    46  s60videocapturesession.o(t._ZN5QHashIiN22S60VideoCaptureSession15VideoFormatDataEE13duplicateNodeEPN9QHashData4NodeEPv)
    QHash<int, S60VideoCaptureSession::VideoFormatData>::const_iterator::operator ++() 0x000236e9   Thumb Code    16  s60videocapturesession.o(t._ZN5QHashIiN22S60VideoCaptureSession15VideoFormatDataEE14const_iteratorppEv)
    QHash<int, S60VideoCaptureSession::VideoFormatData>::clear() 0x000236f9   Thumb Code    28  s60videocapturesession.o(t._ZN5QHashIiN22S60VideoCaptureSession15VideoFormatDataEE5clearEv)
    QHash<int, S60VideoCaptureSession::VideoFormatData>::detach() 0x0002371f   Thumb Code    28  s60videocapturesession.o(t._ZN5QHashIiN22S60VideoCaptureSession15VideoFormatDataEE6detachEv)
    QHash<int, S60VideoCaptureSession::VideoFormatData>::freeData(QHashData*) 0x0002373d   Thumb Code    16  s60videocapturesession.o(t._ZN5QHashIiN22S60VideoCaptureSession15VideoFormatDataEE8freeDataEP9QHashData)
    QHash<int, S60VideoCaptureSession::VideoFormatData>::QHash(const QHash<int, S60VideoCaptureSession::VideoFormatData>&) 0x00023751   Thumb Code    40  s60videocapturesession.o(t._ZN5QHashIiN22S60VideoCaptureSession15VideoFormatDataEEC1ERKS2_)
    QHash<int, S60VideoCaptureSession::VideoFormatData>::QHash__sub_object(const QHash<int, S60VideoCaptureSession::VideoFormatData>&) 0x00023751   Thumb Code     0  s60videocapturesession.o(t._ZN5QHashIiN22S60VideoCaptureSession15VideoFormatDataEEC1ERKS2_)
    QHash<int, S60VideoCaptureSession::VideoFormatData>::QHash() 0x00023779   Thumb Code    22  s60videocapturesession.o(t._ZN5QHashIiN22S60VideoCaptureSession15VideoFormatDataEEC1Ev)
    QHash<int, S60VideoCaptureSession::VideoFormatData>::QHash__sub_object() 0x00023779   Thumb Code     0  s60videocapturesession.o(t._ZN5QHashIiN22S60VideoCaptureSession15VideoFormatDataEEC1Ev)
    QHash<int, S60VideoCaptureSession::VideoFormatData>::~QHash() 0x00023795   Thumb Code    30  s60videocapturesession.o(t._ZN5QHashIiN22S60VideoCaptureSession15VideoFormatDataEED1Ev)
    QHash<int, S60VideoCaptureSession::VideoFormatData>::~QHash__sub_object() 0x00023795   Thumb Code     0  s60videocapturesession.o(t._ZN5QHashIiN22S60VideoCaptureSession15VideoFormatDataEED1Ev)
    QHash<int, S60VideoCaptureSession::VideoFormatData>::operator =(const QHash<int, S60VideoCaptureSession::VideoFormatData>&) 0x000237b3   Thumb Code    70  s60videocapturesession.o(t._ZN5QHashIiN22S60VideoCaptureSession15VideoFormatDataEEaSERKS2_)
    QHash<int, S60VideoCaptureSession::VideoFormatData>::operator [](const int&) 0x000237f9   Thumb Code   112  s60videocapturesession.o(t._ZN5QHashIiN22S60VideoCaptureSession15VideoFormatDataEEixERKi)
    QHash<int, QHash<int, S60VideoCaptureSession::VideoFormatData>>::createNode(unsigned, const int&, const QHash<int, S60VideoCaptureSession::VideoFormatData>&, QHashNode<int, QHash<int, S60VideoCaptureSession::VideoFormatData>>**) 0x00023873   Thumb Code   102  s60videocapturesession.o(t._ZN5QHashIiS_IiN22S60VideoCaptureSession15VideoFormatDataEEE10createNodeEjRKiRKS2_PP9QHashNodeIiS2_E)
    QHash<int, QHash<int, S60VideoCaptureSession::VideoFormatData>>::deleteNode2(QHashData::Node*) 0x000238e7   Thumb Code    24  s60videocapturesession.o(t._ZN5QHashIiS_IiN22S60VideoCaptureSession15VideoFormatDataEEE11deleteNode2EPN9QHashData4NodeE)
    QHash<int, QHash<int, S60VideoCaptureSession::VideoFormatData>>::detach_helper() 0x00023901   Thumb Code    52  s60videocapturesession.o(t._ZN5QHashIiS_IiN22S60VideoCaptureSession15VideoFormatDataEEE13detach_helperEv)
    QHash<int, QHash<int, S60VideoCaptureSession::VideoFormatData>>::duplicateNode(QHashData::Node*, void*) 0x0002393d   Thumb Code    46  s60videocapturesession.o(t._ZN5QHashIiS_IiN22S60VideoCaptureSession15VideoFormatDataEEE13duplicateNodeEPN9QHashData4NodeEPv)
    QHash<int, QHash<int, S60VideoCaptureSession::VideoFormatData>>::clear() 0x00023979   Thumb Code    82  s60videocapturesession.o(t._ZN5QHashIiS_IiN22S60VideoCaptureSession15VideoFormatDataEEE5clearEv)
    QHash<int, QHash<int, S60VideoCaptureSession::VideoFormatData>>::detach() 0x000239d5   Thumb Code    28  s60videocapturesession.o(t._ZN5QHashIiS_IiN22S60VideoCaptureSession15VideoFormatDataEEE6detachEv)
    QHash<int, QHash<int, S60VideoCaptureSession::VideoFormatData>>::freeData(QHashData*) 0x000239f1   Thumb Code    16  s60videocapturesession.o(t._ZN5QHashIiS_IiN22S60VideoCaptureSession15VideoFormatDataEEE8freeDataEP9QHashData)
    QHash<int, QHash<int, S60VideoCaptureSession::VideoFormatData>>::QHash() 0x00023a05   Thumb Code    22  s60videocapturesession.o(t._ZN5QHashIiS_IiN22S60VideoCaptureSession15VideoFormatDataEEEC1Ev)
    QHash<int, QHash<int, S60VideoCaptureSession::VideoFormatData>>::QHash__sub_object() 0x00023a05   Thumb Code     0  s60videocapturesession.o(t._ZN5QHashIiS_IiN22S60VideoCaptureSession15VideoFormatDataEEEC1Ev)
    QHash<int, QHash<int, S60VideoCaptureSession::VideoFormatData>>::~QHash() 0x00023a21   Thumb Code    30  s60videocapturesession.o(t._ZN5QHashIiS_IiN22S60VideoCaptureSession15VideoFormatDataEEED1Ev)
    QHash<int, QHash<int, S60VideoCaptureSession::VideoFormatData>>::~QHash__sub_object() 0x00023a21   Thumb Code     0  s60videocapturesession.o(t._ZN5QHashIiS_IiN22S60VideoCaptureSession15VideoFormatDataEEED1Ev)
    QHash<int, QHash<int, S60VideoCaptureSession::VideoFormatData>>::operator [](const int&) 0x00023a3f   Thumb Code   106  s60videocapturesession.o(t._ZN5QHashIiS_IiN22S60VideoCaptureSession15VideoFormatDataEEEixERKi)
    QList<QByteArray>::detach_helper(int)    0x00023ab3   Thumb Code    94  s60cameraserviceplugin.o(t._ZN5QListI10QByteArrayE13detach_helperEi)
    QList<QByteArray>::detach_helper()       0x00023b19   Thumb Code    16  s60cameraserviceplugin.o(t._ZN5QListI10QByteArrayE13detach_helperEv)
    QList<QByteArray>::node_destruct(QList<QByteArray>::Node*, QList<QByteArray>::Node*) 0x00023b29   Thumb Code    26  s60cameraserviceplugin.o(t._ZN5QListI10QByteArrayE13node_destructEPNS1_4NodeES3_)
    QList<QByteArray>::node_construct(QList<QByteArray>::Node*, const QByteArray&) 0x00023b43   Thumb Code    36  s60cameraserviceplugin.o(t._ZN5QListI10QByteArrayE14node_constructEPNS1_4NodeERKS0_)
    QList<QByteArray>::detach_helper_grow(int, int) 0x00023b75   Thumb Code   208  s60cameraserviceplugin.o(t._ZN5QListI10QByteArrayE18detach_helper_growEii)
    QList<QByteArray>::free(QListData::Data*) 0x00023c55   Thumb Code    58  s60cameraserviceplugin.o(t._ZN5QListI10QByteArrayE4freeEPN9QListData4DataE)
    QList<QByteArray>::clear()               0x00023c8f   Thumb Code    76  s60cameraserviceplugin.o(t._ZN5QListI10QByteArrayE5clearEv)
    QList<QByteArray>::append(const QByteArray&) 0x00023ce5   Thumb Code   114  s60cameraserviceplugin.o(t._ZN5QListI10QByteArrayE6appendERKS0_)
    QList<QByteArray>::node_copy(QList<QByteArray>::Node*, QList<QByteArray>::Node*, QList<QByteArray>::Node*) 0x00023d6b   Thumb Code    82  s60cameraserviceplugin.o(t._ZN5QListI10QByteArrayE9node_copyEPNS1_4NodeES3_S3_)
    QList<QByteArray>::QList()               0x00023dd5   Thumb Code    18  s60cameraserviceplugin.o(t._ZN5QListI10QByteArrayEC1Ev)
    QList<QByteArray>::QList__sub_object()   0x00023dd5   Thumb Code     0  s60cameraserviceplugin.o(t._ZN5QListI10QByteArrayEC1Ev)
    QList<QByteArray>::~QList()              0x00023ded   Thumb Code    32  moc_s60cameraserviceplugin.o(t._ZN5QListI10QByteArrayED1Ev)
    QList<QByteArray>::~QList__sub_object()  0x00023ded   Thumb Code     0  moc_s60cameraserviceplugin.o(t._ZN5QListI10QByteArrayED1Ev)
    QList<QSize>::detach_helper(int)         0x00023e0d   Thumb Code    94  s60videocapturesession.o(t._ZN5QListI5QSizeE13detach_helperEi)
    QList<QSize>::detach_helper()            0x00023e73   Thumb Code    16  s60videocapturesession.o(t._ZN5QListI5QSizeE13detach_helperEv)
    QList<QSize>::node_destruct(QList<QSize>::Node*, QList<QSize>::Node*) 0x00023e83   Thumb Code    26  s60videocapturesession.o(t._ZN5QListI5QSizeE13node_destructEPNS1_4NodeES3_)
    QList<QSize>::node_construct(QList<QSize>::Node*, const QSize&) 0x00023e9d   Thumb Code    34  s60videocapturesession.o(t._ZN5QListI5QSizeE14node_constructEPNS1_4NodeERKS0_)
    QList<QSize>::detach_helper_grow(int, int) 0x00023ec3   Thumb Code   208  s60videocapturesession.o(t._ZN5QListI5QSizeE18detach_helper_growEii)
    QList<QSize>::free(QListData::Data*)     0x00023fa3   Thumb Code    52  s60videocapturesession.o(t._ZN5QListI5QSizeE4freeEPN9QListData4DataE)
    QList<QSize>::last()                     0x00023fd7   Thumb Code    46  s60imagecapturesession.o(t._ZN5QListI5QSizeE4lastEv)
    QList<QSize>::append(const QSize&)       0x00024005   Thumb Code   106  s60videocapturesession.o(t._ZN5QListI5QSizeE6appendERKS0_)
    QList<QSize>::detach()                   0x00024083   Thumb Code    24  s60imagecapturesession.o(t._ZN5QListI5QSizeE6detachEv)
    QList<QSize>::node_copy(QList<QSize>::Node*, QList<QSize>::Node*, QList<QSize>::Node*) 0x0002409b   Thumb Code    80  s60videocapturesession.o(t._ZN5QListI5QSizeE9node_copyEPNS1_4NodeES3_S3_)
    QList<QSize>::QList()                    0x00024101   Thumb Code    18  s60videocapturesession.o(t._ZN5QListI5QSizeEC1Ev)
    QList<QSize>::QList__sub_object()        0x00024101   Thumb Code     0  s60videocapturesession.o(t._ZN5QListI5QSizeEC1Ev)
    QList<QSize>::~QList()                   0x00024119   Thumb Code    32  s60videocapturesession.o(t._ZN5QListI5QSizeED1Ev)
    QList<QSize>::~QList__sub_object()       0x00024119   Thumb Code     0  s60videocapturesession.o(t._ZN5QListI5QSizeED1Ev)
    QList<QString>::detach_helper(int)       0x00024139   Thumb Code    94  s60videocapturesession.o(t._ZN5QListI7QStringE13detach_helperEi)
    QList<QString>::detach_helper()          0x0002419f   Thumb Code    16  s60videocapturesession.o(t._ZN5QListI7QStringE13detach_helperEv)
    QList<QString>::node_destruct(QList<QString>::Node*, QList<QString>::Node*) 0x000241af   Thumb Code    26  s60videocapturesession.o(t._ZN5QListI7QStringE13node_destructEPNS1_4NodeES3_)
    QList<QString>::node_construct(QList<QString>::Node*, const QString&) 0x000241c9   Thumb Code    36  s60videocapturesession.o(t._ZN5QListI7QStringE14node_constructEPNS1_4NodeERKS0_)
    QList<QString>::detach_helper_grow(int, int) 0x000241fb   Thumb Code   208  s60videocapturesession.o(t._ZN5QListI7QStringE18detach_helper_growEii)
    QList<QString>::free(QListData::Data*)   0x000242db   Thumb Code    52  s60videocapturesession.o(t._ZN5QListI7QStringE4freeEPN9QListData4DataE)
    QList<QString>::clear()                  0x0002430f   Thumb Code    28  s60videocapturesession.o(t._ZN5QListI7QStringE5clearEv)
    QList<QString>::append(const QString&)   0x00024335   Thumb Code   114  s60videocapturesession.o(t._ZN5QListI7QStringE6appendERKS0_)
    QList<QString>::reserve(int)             0x000243bb   Thumb Code    46  s60videocapturesession.o(t._ZN5QListI7QStringE7reserveEi)
    QList<QString>::node_copy(QList<QString>::Node*, QList<QString>::Node*, QList<QString>::Node*) 0x000243e9   Thumb Code    82  s60videocapturesession.o(t._ZN5QListI7QStringE9node_copyEPNS1_4NodeES3_S3_)
    QList<QString>::QList(const QList<QString>&) 0x00024451   Thumb Code    36  s60videocapturesession.o(t._ZN5QListI7QStringEC1ERKS1_)
    QList<QString>::QList__sub_object(const QList<QString>&) 0x00024451   Thumb Code     0  s60videocapturesession.o(t._ZN5QListI7QStringEC1ERKS1_)
    QList<QString>::QList()                  0x00024475   Thumb Code    18  s60videocapturesession.o(t._ZN5QListI7QStringEC1Ev)
    QList<QString>::QList__sub_object()      0x00024475   Thumb Code     0  s60videocapturesession.o(t._ZN5QListI7QStringEC1Ev)
    QList<QString>::~QList()                 0x0002448d   Thumb Code    32  moc_s60cameraserviceplugin.o(t._ZN5QListI7QStringED1Ev)
    QList<QString>::~QList__sub_object()     0x0002448d   Thumb Code     0  moc_s60cameraserviceplugin.o(t._ZN5QListI7QStringED1Ev)
    QList<QString>::operator =(const QList<QString>&) 0x000244ad   Thumb Code    64  s60videocapturesession.o(t._ZN5QListI7QStringEaSERKS1_)
    QList<QString>::operator [](int)         0x000244ed   Thumb Code    42  s60videocapturesession.o(t._ZN5QListI7QStringEixEi)
    QList<QVariant>::node_destruct(QList<QVariant>::Node*, QList<QVariant>::Node*) 0x00024517   Thumb Code    38  s60cameraexposurecontrol.o(t._ZN5QListI8QVariantE13node_destructEPNS1_4NodeES3_)
    QList<QVariant>::node_construct(QList<QVariant>::Node*, const QVariant&) 0x0002453d   Thumb Code    34  s60cameraexposurecontrol.o(t._ZN5QListI8QVariantE14node_constructEPNS1_4NodeERKS0_)
    QList<QVariant>::detach_helper_grow(int, int) 0x0002456d   Thumb Code   208  s60cameraexposurecontrol.o(t._ZN5QListI8QVariantE18detach_helper_growEii)
    QList<QVariant>::free(QListData::Data*)  0x0002464d   Thumb Code    58  s60cameraexposurecontrol.o(t._ZN5QListI8QVariantE4freeEPN9QListData4DataE)
    QList<QVariant>::append(const QVariant&) 0x00024689   Thumb Code   106  s60cameraexposurecontrol.o(t._ZN5QListI8QVariantE6appendERKS0_)
    QList<QVariant>::node_copy(QList<QVariant>::Node*, QList<QVariant>::Node*, QList<QVariant>::Node*) 0x00024707   Thumb Code    92  s60cameraexposurecontrol.o(t._ZN5QListI8QVariantE9node_copyEPNS1_4NodeES3_S3_)
    QList<QVariant>::~QList()                0x00024779   Thumb Code    32  s60cameraexposurecontrol.o(t._ZN5QListI8QVariantED1Ev)
    QList<QVariant>::~QList__sub_object()    0x00024779   Thumb Code     0  s60cameraexposurecontrol.o(t._ZN5QListI8QVariantED1Ev)
    QList<QVariant>::operator <<(const QVariant&) 0x00024799   Thumb Code    18  s60cameraexposurecontrol.o(t._ZN5QListI8QVariantElsERKS0_)
    QList<QVideoFrame::PixelFormat>::free(QListData::Data*) 0x000247ab   Thumb Code    70  s60cameraviewfinderengine.o(t._ZN5QListIN11QVideoFrame11PixelFormatEE4freeEPN9QListData4DataE)
    QList<QVideoFrame::PixelFormat>::~QList() 0x000247f1   Thumb Code    32  s60cameraviewfinderengine.o(t._ZN5QListIN11QVideoFrame11PixelFormatEED1Ev)
    QList<QVideoFrame::PixelFormat>::~QList__sub_object() 0x000247f1   Thumb Code     0  s60cameraviewfinderengine.o(t._ZN5QListIN11QVideoFrame11PixelFormatEED1Ev)
    QList<S60VideoCaptureSession::MaxResolutionRatesAndTypes>::detach_helper(int) 0x00024811   Thumb Code    94  s60videocapturesession.o(t._ZN5QListIN22S60VideoCaptureSession26MaxResolutionRatesAndTypesEE13detach_helperEi)
    QList<S60VideoCaptureSession::MaxResolutionRatesAndTypes>::detach_helper() 0x00024877   Thumb Code    16  s60videocapturesession.o(t._ZN5QListIN22S60VideoCaptureSession26MaxResolutionRatesAndTypesEE13detach_helperEv)
    QList<S60VideoCaptureSession::MaxResolutionRatesAndTypes>::node_destruct(QList<S60VideoCaptureSession::MaxResolutionRatesAndTypes>::Node*, QList<S60VideoCaptureSession::MaxResolutionRatesAndTypes>::Node*) 0x00024887   Thumb Code    38  s60videocapturesession.o(t._ZN5QListIN22S60VideoCaptureSession26MaxResolutionRatesAndTypesEE13node_destructEPNS2_4NodeES4_)
    QList<S60VideoCaptureSession::MaxResolutionRatesAndTypes>::node_construct(QList<S60VideoCaptureSession::MaxResolutionRatesAndTypes>::Node*, const S60VideoCaptureSession::MaxResolutionRatesAndTypes&) 0x000248ad   Thumb Code    34  s60videocapturesession.o(t._ZN5QListIN22S60VideoCaptureSession26MaxResolutionRatesAndTypesEE14node_constructEPNS2_4NodeERKS1_)
    QList<S60VideoCaptureSession::MaxResolutionRatesAndTypes>::detach_helper_grow(int, int) 0x000248dd   Thumb Code   208  s60videocapturesession.o(t._ZN5QListIN22S60VideoCaptureSession26MaxResolutionRatesAndTypesEE18detach_helper_growEii)
    QList<S60VideoCaptureSession::MaxResolutionRatesAndTypes>::free(QListData::Data*) 0x000249bd   Thumb Code    52  s60videocapturesession.o(t._ZN5QListIN22S60VideoCaptureSession26MaxResolutionRatesAndTypesEE4freeEPN9QListData4DataE)
    QList<S60VideoCaptureSession::MaxResolutionRatesAndTypes>::clear() 0x000249f1   Thumb Code    76  s60videocapturesession.o(t._ZN5QListIN22S60VideoCaptureSession26MaxResolutionRatesAndTypesEE5clearEv)
    QList<S60VideoCaptureSession::MaxResolutionRatesAndTypes>::append(const S60VideoCaptureSession::MaxResolutionRatesAndTypes&) 0x00024a49   Thumb Code   106  s60videocapturesession.o(t._ZN5QListIN22S60VideoCaptureSession26MaxResolutionRatesAndTypesEE6appendERKS1_)
    QList<S60VideoCaptureSession::MaxResolutionRatesAndTypes>::node_copy(QList<S60VideoCaptureSession::MaxResolutionRatesAndTypes>::Node*, QList<S60VideoCaptureSession::MaxResolutionRatesAndTypes>::Node*, QList<S60VideoCaptureSession::MaxResolutionRatesAndTypes>::Node*) 0x00024ac7   Thumb Code    92  s60videocapturesession.o(t._ZN5QListIN22S60VideoCaptureSession26MaxResolutionRatesAndTypesEE9node_copyEPNS2_4NodeES4_S4_)
    QList<S60VideoCaptureSession::MaxResolutionRatesAndTypes>::QList(const QList<S60VideoCaptureSession::MaxResolutionRatesAndTypes>&) 0x00024b39   Thumb Code    36  s60videocapturesession.o(t._ZN5QListIN22S60VideoCaptureSession26MaxResolutionRatesAndTypesEEC1ERKS2_)
    QList<S60VideoCaptureSession::MaxResolutionRatesAndTypes>::QList__sub_object(const QList<S60VideoCaptureSession::MaxResolutionRatesAndTypes>&) 0x00024b39   Thumb Code     0  s60videocapturesession.o(t._ZN5QListIN22S60VideoCaptureSession26MaxResolutionRatesAndTypesEEC1ERKS2_)
    QList<S60VideoCaptureSession::MaxResolutionRatesAndTypes>::QList() 0x00024b5d   Thumb Code    18  s60videocapturesession.o(t._ZN5QListIN22S60VideoCaptureSession26MaxResolutionRatesAndTypesEEC1Ev)
    QList<S60VideoCaptureSession::MaxResolutionRatesAndTypes>::QList__sub_object() 0x00024b5d   Thumb Code     0  s60videocapturesession.o(t._ZN5QListIN22S60VideoCaptureSession26MaxResolutionRatesAndTypesEEC1Ev)
    QList<S60VideoCaptureSession::MaxResolutionRatesAndTypes>::~QList() 0x00024b75   Thumb Code    32  s60videocapturesession.o(t._ZN5QListIN22S60VideoCaptureSession26MaxResolutionRatesAndTypesEED1Ev)
    QList<S60VideoCaptureSession::MaxResolutionRatesAndTypes>::~QList__sub_object() 0x00024b75   Thumb Code     0  s60videocapturesession.o(t._ZN5QListIN22S60VideoCaptureSession26MaxResolutionRatesAndTypesEED1Ev)
    QList<S60VideoCaptureSession::MaxResolutionRatesAndTypes>::operator [](int) 0x00024b95   Thumb Code    42  s60videocapturesession.o(t._ZN5QListIN22S60VideoCaptureSession26MaxResolutionRatesAndTypesEEixEi)
    QList<S60VideoCaptureSession::SupportedFrameRatePictureSize>::detach_helper(int) 0x00024bbf   Thumb Code    94  s60videocapturesession.o(t._ZN5QListIN22S60VideoCaptureSession29SupportedFrameRatePictureSizeEE13detach_helperEi)
    QList<S60VideoCaptureSession::SupportedFrameRatePictureSize>::detach_helper() 0x00024c25   Thumb Code    16  s60videocapturesession.o(t._ZN5QListIN22S60VideoCaptureSession29SupportedFrameRatePictureSizeEE13detach_helperEv)
    QList<S60VideoCaptureSession::SupportedFrameRatePictureSize>::node_destruct(QList<S60VideoCaptureSession::SupportedFrameRatePictureSize>::Node*, QList<S60VideoCaptureSession::SupportedFrameRatePictureSize>::Node*) 0x00024c35   Thumb Code    26  s60videocapturesession.o(t._ZN5QListIN22S60VideoCaptureSession29SupportedFrameRatePictureSizeEE13node_destructEPNS2_4NodeES4_)
    QList<S60VideoCaptureSession::SupportedFrameRatePictureSize>::node_construct(QList<S60VideoCaptureSession::SupportedFrameRatePictureSize>::Node*, const S60VideoCaptureSession::SupportedFrameRatePictureSize&) 0x00024c4f   Thumb Code    34  s60videocapturesession.o(t._ZN5QListIN22S60VideoCaptureSession29SupportedFrameRatePictureSizeEE14node_constructEPNS2_4NodeERKS1_)
    QList<S60VideoCaptureSession::SupportedFrameRatePictureSize>::detach_helper_grow(int, int) 0x00024c7f   Thumb Code   208  s60videocapturesession.o(t._ZN5QListIN22S60VideoCaptureSession29SupportedFrameRatePictureSizeEE18detach_helper_growEii)
    QList<S60VideoCaptureSession::SupportedFrameRatePictureSize>::free(QListData::Data*) 0x00024d5f   Thumb Code    52  s60videocapturesession.o(t._ZN5QListIN22S60VideoCaptureSession29SupportedFrameRatePictureSizeEE4freeEPN9QListData4DataE)
    QList<S60VideoCaptureSession::SupportedFrameRatePictureSize>::clear() 0x00024d93   Thumb Code    76  s60videocapturesession.o(t._ZN5QListIN22S60VideoCaptureSession29SupportedFrameRatePictureSizeEE5clearEv)
    QList<S60VideoCaptureSession::SupportedFrameRatePictureSize>::append(const S60VideoCaptureSession::SupportedFrameRatePictureSize&) 0x00024de9   Thumb Code   106  s60videocapturesession.o(t._ZN5QListIN22S60VideoCaptureSession29SupportedFrameRatePictureSizeEE6appendERKS1_)
    QList<S60VideoCaptureSession::SupportedFrameRatePictureSize>::node_copy(QList<S60VideoCaptureSession::SupportedFrameRatePictureSize>::Node*, QList<S60VideoCaptureSession::SupportedFrameRatePictureSize>::Node*, QList<S60VideoCaptureSession::SupportedFrameRatePictureSize>::Node*) 0x00024e67   Thumb Code    80  s60videocapturesession.o(t._ZN5QListIN22S60VideoCaptureSession29SupportedFrameRatePictureSizeEE9node_copyEPNS2_4NodeES4_S4_)
    QList<S60VideoCaptureSession::SupportedFrameRatePictureSize>::QList(const QList<S60VideoCaptureSession::SupportedFrameRatePictureSize>&) 0x00024ecd   Thumb Code    36  s60videocapturesession.o(t._ZN5QListIN22S60VideoCaptureSession29SupportedFrameRatePictureSizeEEC1ERKS2_)
    QList<S60VideoCaptureSession::SupportedFrameRatePictureSize>::QList__sub_object(const QList<S60VideoCaptureSession::SupportedFrameRatePictureSize>&) 0x00024ecd   Thumb Code     0  s60videocapturesession.o(t._ZN5QListIN22S60VideoCaptureSession29SupportedFrameRatePictureSizeEEC1ERKS2_)
    QList<S60VideoCaptureSession::SupportedFrameRatePictureSize>::QList() 0x00024ef1   Thumb Code    18  s60videocapturesession.o(t._ZN5QListIN22S60VideoCaptureSession29SupportedFrameRatePictureSizeEEC1Ev)
    QList<S60VideoCaptureSession::SupportedFrameRatePictureSize>::QList__sub_object() 0x00024ef1   Thumb Code     0  s60videocapturesession.o(t._ZN5QListIN22S60VideoCaptureSession29SupportedFrameRatePictureSizeEEC1Ev)
    QList<S60VideoCaptureSession::SupportedFrameRatePictureSize>::~QList() 0x00024f09   Thumb Code    32  s60videocapturesession.o(t._ZN5QListIN22S60VideoCaptureSession29SupportedFrameRatePictureSizeEED1Ev)
    QList<S60VideoCaptureSession::SupportedFrameRatePictureSize>::~QList__sub_object() 0x00024f09   Thumb Code     0  s60videocapturesession.o(t._ZN5QListIN22S60VideoCaptureSession29SupportedFrameRatePictureSizeEED1Ev)
    QList<S60VideoCaptureSession::SupportedFrameRatePictureSize>::operator [](int) 0x00024f29   Thumb Code    42  s60videocapturesession.o(t._ZN5QListIN22S60VideoCaptureSession29SupportedFrameRatePictureSizeEEixEi)
    QList<float>::detach_helper(int)         0x00024f53   Thumb Code    94  s60videocapturesession.o(t._ZN5QListIfE13detach_helperEi)
    QList<float>::detach_helper()            0x00024fb9   Thumb Code    16  s60cameraexposurecontrol.o(t._ZN5QListIfE13detach_helperEv)
    QList<float>::detach_helper_grow(int, int) 0x00024fc9   Thumb Code   204  s60videocapturesession.o(t._ZN5QListIfE18detach_helper_growEii)
    QList<float>::free(QListData::Data*)     0x000250a5   Thumb Code    52  s60videocapturesession.o(t._ZN5QListIfE4freeEPN9QListData4DataE)
    QList<float>::last()                     0x000250d9   Thumb Code    46  s60cameraexposurecontrol.o(t._ZN5QListIfE4lastEv)
    QList<float>::first()                    0x00025107   Thumb Code    36  s60cameraexposurecontrol.o(t._ZN5QListIfE5firstEv)
    QList<float>::append(const float&)       0x0002512d   Thumb Code    94  s60videocapturesession.o(t._ZN5QListIfE6appendERKf)
    QList<float>::detach()                   0x0002519b   Thumb Code    24  s60cameraexposurecontrol.o(t._ZN5QListIfE6detachEv)
    QList<float>::insert(int, const float&)  0x000251b3   Thumb Code   100  s60videocapturesession.o(t._ZN5QListIfE6insertEiRKf)
    QList<float>::node_copy(QList<float>::Node*, QList<float>::Node*, QList<float>::Node*) 0x00025221   Thumb Code    46  s60videocapturesession.o(t._ZN5QListIfE9node_copyEPNS0_4NodeES2_S2_)
    QList<float>::QList()                    0x00025251   Thumb Code    18  s60videocapturesession.o(t._ZN5QListIfEC1Ev)
    QList<float>::QList__sub_object()        0x00025251   Thumb Code     0  s60videocapturesession.o(t._ZN5QListIfEC1Ev)
    QList<float>::~QList()                   0x00025269   Thumb Code    32  s60cameraexposurecontrol.o(t._ZN5QListIfED1Ev)
    QList<float>::~QList__sub_object()       0x00025269   Thumb Code     0  s60cameraexposurecontrol.o(t._ZN5QListIfED1Ev)
    QList<float>::operator [](int)           0x00025289   Thumb Code    28  s60cameraexposurecontrol.o(t._ZN5QListIfEixEi)
    QList<int>::detach_helper(int)           0x000252a5   Thumb Code    94  s60videocapturesession.o(t._ZN5QListIiE13detach_helperEi)
    QList<int>::detach_helper()              0x0002530b   Thumb Code    16  s60cameraexposurecontrol.o(t._ZN5QListIiE13detach_helperEv)
    QList<int>::detach_helper_grow(int, int) 0x0002531b   Thumb Code   204  s60videocapturesession.o(t._ZN5QListIiE18detach_helper_growEii)
    QList<int>::free(QListData::Data*)       0x000253f7   Thumb Code    52  s60videocapturesession.o(t._ZN5QListIiE4freeEPN9QListData4DataE)
    QList<int>::append(const int&)           0x0002542d   Thumb Code    94  s60videocapturesession.o(t._ZN5QListIiE6appendERKi)
    QList<int>::reserve(int)                 0x0002549b   Thumb Code    46  s60videocapturesession.o(t._ZN5QListIiE7reserveEi)
    QList<int>::node_copy(QList<int>::Node*, QList<int>::Node*, QList<int>::Node*) 0x000254c9   Thumb Code    46  s60videocapturesession.o(t._ZN5QListIiE9node_copyEPNS0_4NodeES2_S2_)
    QList<int>::QList()                      0x000254f9   Thumb Code    18  s60videocapturesession.o(t._ZN5QListIiEC1Ev)
    QList<int>::QList__sub_object()          0x000254f9   Thumb Code     0  s60videocapturesession.o(t._ZN5QListIiEC1Ev)
    QList<int>::~QList()                     0x00025511   Thumb Code    32  s60cameraexposurecontrol.o(t._ZN5QListIiED1Ev)
    QList<int>::~QList__sub_object()         0x00025511   Thumb Code     0  s60cameraexposurecontrol.o(t._ZN5QListIiED1Ev)
    QList<int>::operator =(const QList<int>&) 0x00025531   Thumb Code    64  s60videocapturesession.o(t._ZN5QListIiEaSERKS0_)
    QList<int>::operator [](int)             0x00025571   Thumb Code    42  s60videocapturesession.o(t._ZN5QListIiEixEi)
    QList<unsigned>::detach_helper(int)      0x0002559b   Thumb Code    94  s60imagecapturesession.o(t._ZN5QListIjE13detach_helperEi)
    QList<unsigned>::detach_helper()         0x00025601   Thumb Code    16  s60imagecapturesession.o(t._ZN5QListIjE13detach_helperEv)
    QList<unsigned>::detach_helper_grow(int, int) 0x00025611   Thumb Code   204  s60imagecapturesession.o(t._ZN5QListIjE18detach_helper_growEii)
    QList<unsigned>::free(QListData::Data*)  0x000256ed   Thumb Code    52  s60imagecapturesession.o(t._ZN5QListIjE4freeEPN9QListData4DataE)
    QList<unsigned>::clear()                 0x00025721   Thumb Code    76  s60imagecapturesession.o(t._ZN5QListIjE5clearEv)
    QList<unsigned>::append(const unsigned&) 0x00025779   Thumb Code    94  s60imagecapturesession.o(t._ZN5QListIjE6appendERKj)
    QList<unsigned>::node_copy(QList<unsigned>::Node*, QList<unsigned>::Node*, QList<unsigned>::Node*) 0x000257e7   Thumb Code    46  s60imagecapturesession.o(t._ZN5QListIjE9node_copyEPNS0_4NodeES2_S2_)
    QList<unsigned>::QList()                 0x00025815   Thumb Code    18  s60imagecapturesession.o(t._ZN5QListIjEC1Ev)
    QList<unsigned>::QList__sub_object()     0x00025815   Thumb Code     0  s60imagecapturesession.o(t._ZN5QListIjEC1Ev)
    QList<unsigned>::~QList()                0x0002582d   Thumb Code    32  s60imagecapturesession.o(t._ZN5QListIjED1Ev)
    QList<unsigned>::~QList__sub_object()    0x0002582d   Thumb Code     0  s60imagecapturesession.o(t._ZN5QListIjED1Ev)
    QPointer<QObject>::~QPointer()           0x0002584d   Thumb Code    14  s60cameraserviceplugin.o(t._ZN8QPointerI7QObjectED1Ev)
    QPointer<QObject>::~QPointer__sub_object() 0x0002584d   Thumb Code     0  s60cameraserviceplugin.o(t._ZN8QPointerI7QObjectED1Ev)
    QHashNode<QString, TFourCC>::QHashNode(const QString&, const TFourCC&) 0x0002585b   Thumb Code    30  s60videocapturesession.o(t._ZN9QHashNodeI7QString7TFourCCEC1ERKS0_RKS1_)
    QHashNode<QString, TFourCC>::QHashNode__sub_object(const QString&, const TFourCC&) 0x0002585b   Thumb Code     0  s60videocapturesession.o(t._ZN9QHashNodeI7QString7TFourCCEC1ERKS0_RKS1_)
    QHashNode<int, QHash<int, S60VideoCaptureSession::VideoFormatData>>::QHashNode(int, const QHash<int, S60VideoCaptureSession::VideoFormatData>&) 0x0002587d   Thumb Code    26  s60videocapturesession.o(t._ZN9QHashNodeIi5QHashIiN22S60VideoCaptureSession15VideoFormatDataEEEC1EiRKS3_)
    QHashNode<int, QHash<int, S60VideoCaptureSession::VideoFormatData>>::QHashNode__sub_object(int, const QHash<int, S60VideoCaptureSession::VideoFormatData>&) 0x0002587d   Thumb Code     0  s60videocapturesession.o(t._ZN9QHashNodeIi5QHashIiN22S60VideoCaptureSession15VideoFormatDataEEEC1EiRKS3_)
    QHashNode<int, S60VideoCaptureSession::VideoFormatData>::QHashNode(int, const S60VideoCaptureSession::VideoFormatData&) 0x00025897   Thumb Code    26  s60videocapturesession.o(t._ZN9QHashNodeIiN22S60VideoCaptureSession15VideoFormatDataEEC1EiRKS1_)
    QHashNode<int, S60VideoCaptureSession::VideoFormatData>::QHashNode__sub_object(int, const S60VideoCaptureSession::VideoFormatData&) 0x00025897   Thumb Code     0  s60videocapturesession.o(t._ZN9QHashNodeIiN22S60VideoCaptureSession15VideoFormatDataEEC1EiRKS1_)
    RPointerArray<CMMFFormatImplementationInformation>::operator [](int) const 0x000258b1   Thumb Code    16  s60videocapturesession.o(t._ZNK13RPointerArrayI35CMMFFormatImplementationInformationEixEi)
    QForeachContainer<QHash<int, S60VideoCaptureSession::VideoFormatData>>::condition() const 0x000258c1   Thumb Code    38  s60videocapturesession.o(t._ZNK17QForeachContainerI5QHashIiN22S60VideoCaptureSession15VideoFormatDataEEE9conditionEv)
    QForeachContainer<QList<S60VideoCaptureSession::MaxResolutionRatesAndTypes>>::condition() const 0x000258e7   Thumb Code    40  s60videocapturesession.o(t._ZNK17QForeachContainerI5QListIN22S60VideoCaptureSession26MaxResolutionRatesAndTypesEEE9conditionEv)
    QForeachContainer<QList<S60VideoCaptureSession::SupportedFrameRatePictureSize>>::condition() const 0x0002590f   Thumb Code    40  s60videocapturesession.o(t._ZNK17QForeachContainerI5QListIN22S60VideoCaptureSession29SupportedFrameRatePictureSizeEEE9conditionEv)
    QForeachContainer<QList<float>>::condition() const 0x00025937   Thumb Code    40  s60cameraexposurecontrol.o(t._ZNK17QForeachContainerI5QListIfEE9conditionEv)
    QMap<QString, QString>::mutableFindNode(QMapData::Node**, const QString&) const 0x0002595f   Thumb Code   108  s60imagecapturesession.o(t._ZNK4QMapI7QStringS0_E15mutableFindNodeEPPN8QMapData4NodeERKS0_)
    QMap<QString, int>::mutableFindNode(QMapData::Node**, const QString&) const 0x000259cb   Thumb Code   108  s60imagecapturesession.o(t._ZNK4QMapI7QStringiE15mutableFindNodeEPPN8QMapData4NodeERKS0_)
    QMap<QString, int>::key(const int&) const 0x00025a37   Thumb Code    36  s60imagecapturesession.o(t._ZNK4QMapI7QStringiE3keyERKi)
    QMap<QString, int>::key(const int&, const QString&) const 0x00025a65   Thumb Code   120  s60imagecapturesession.o(t._ZNK4QMapI7QStringiE3keyERKiRKS0_)
    QHash<QString, TFourCC>::const_iterator::operator !=(const QHash<QString, TFourCC>::const_iterator&) const 0x00025add   Thumb Code    18  s60videocapturesession.o(t._ZNK5QHashI7QString7TFourCCE14const_iteratorneERKS3_)
    QHash<QString, TFourCC>::key(const TFourCC&) const 0x00025aef   Thumb Code    36  s60videocapturesession.o(t._ZNK5QHashI7QString7TFourCCE3keyERKS1_)
    QHash<QString, TFourCC>::key(const TFourCC&, const QString&) const 0x00025b1d   Thumb Code   118  s60videocapturesession.o(t._ZNK5QHashI7QString7TFourCCE3keyERKS1_RKS0_)
    QHash<QString, TFourCC>::keys() const    0x00025b93   Thumb Code   102  s60videocapturesession.o(t._ZNK5QHashI7QString7TFourCCE4keysEv)
    QHash<QString, TFourCC>::contains(const QString&) const 0x00025c03   Thumb Code    32  s60videocapturesession.o(t._ZNK5QHashI7QString7TFourCCE8containsERKS0_)
    QHash<QString, TFourCC>::findNode(const QString&, unsigned*) const 0x00025c23   Thumb Code   116  s60videocapturesession.o(t._ZNK5QHashI7QString7TFourCCE8findNodeERKS0_Pj)
    QHash<int, S60VideoCaptureSession::VideoFormatData>::const_iterator::operator !=(const QHash<int, S60VideoCaptureSession::VideoFormatData>::const_iterator&) const 0x00025c97   Thumb Code    18  s60videocapturesession.o(t._ZNK5QHashIiN22S60VideoCaptureSession15VideoFormatDataEE14const_iteratorneERKS3_)
    QHash<int, S60VideoCaptureSession::VideoFormatData>::keys() const 0x00025ca9   Thumb Code    94  s60videocapturesession.o(t._ZNK5QHashIiN22S60VideoCaptureSession15VideoFormatDataEE4keysEv)
    QHash<int, S60VideoCaptureSession::VideoFormatData>::findNode(const int&, unsigned*) const 0x00025d11   Thumb Code    94  s60videocapturesession.o(t._ZNK5QHashIiN22S60VideoCaptureSession15VideoFormatDataEE8findNodeERKiPj)
    QHash<int, QHash<int, S60VideoCaptureSession::VideoFormatData>>::keys() const 0x00025d6f   Thumb Code   108  s60videocapturesession.o(t._ZNK5QHashIiS_IiN22S60VideoCaptureSession15VideoFormatDataEEE4keysEv)
    QHash<int, QHash<int, S60VideoCaptureSession::VideoFormatData>>::findNode(const int&, unsigned*) const 0x00025de5   Thumb Code    94  s60videocapturesession.o(t._ZNK5QHashIiS_IiN22S60VideoCaptureSession15VideoFormatDataEEE8findNodeERKiPj)
    QList<QByteArray>::isEmpty() const       0x00025e43   Thumb Code    24  s60cameraserviceplugin.o(t._ZNK5QListI10QByteArrayE7isEmptyEv)
    QList<QSize>::contains(const QSize&) const 0x00025e5b   Thumb Code    86  s60videocapturesession.o(t._ZNK5QListI5QSizeE8containsERKS0_)
    QList<QString>::indexOf(const QString&, int) const 0x00025eb1   Thumb Code   136  s60mediacontainercontrol.o(t._ZNK5QListI7QStringE7indexOfERKS0_i)
    QList<QVideoFrame::PixelFormat>::contains(const QVideoFrame::PixelFormat&) const 0x00025f39   Thumb Code    80  s60cameraviewfinderengine.o(t._ZNK5QListIN11QVideoFrame11PixelFormatEE8containsERKS1_)
    QList<S60VideoCaptureSession::MaxResolutionRatesAndTypes>::count() const 0x00025f89   Thumb Code    12  s60videocapturesession.o(t._ZNK5QListIN22S60VideoCaptureSession26MaxResolutionRatesAndTypesEE5countEv)
    QList<float>::at(int) const              0x00025f95   Thumb Code    22  s60imagecapturesession.o(t._ZNK5QListIfE2atEi)
    QList<float>::count() const              0x00025fab   Thumb Code    16  s60imagecapturesession.o(t._ZNK5QListIfE5countEv)
    QList<float>::indexOf(const float&, int) const 0x00025fbb   Thumb Code   120  s60cameraexposurecontrol.o(t._ZNK5QListIfE7indexOfERKfi)
    QList<float>::isEmpty() const            0x00026033   Thumb Code    24  s60videocapturesession.o(t._ZNK5QListIfE7isEmptyEv)
    QList<float>::contains(const float&) const 0x0002604b   Thumb Code    72  s60videocapturesession.o(t._ZNK5QListIfE8containsERKf)
    QList<int>::at(int) const                0x00026093   Thumb Code    30  s60camerasettings.o(t._ZNK5QListIiE2atEi)
    QList<int>::count() const                0x000260b1   Thumb Code    12  s60videocapturesession.o(t._ZNK5QListIiE5countEv)
    QList<int>::contains(const int&) const   0x000260bd   Thumb Code    66  s60cameraexposurecontrol.o(t._ZNK5QListIiE8containsERKi)
    S60VideoDisplay::staticMetaObject        0x00029f2c   Data          16  moc_s60videodisplay.o(.constdata)
    S60VideoWidget::staticMetaObject         0x0002a138   Data          16  moc_s60videowidget.o(.constdata)
    S60VideoWidgetControl::staticMetaObject  0x0002a254   Data          16  moc_s60videowidgetcontrol.o(.constdata)
    S60VideoWidgetDisplay::staticMetaObject  0x0002a2b8   Data          16  moc_s60videowidgetdisplay.o(.constdata)
    S60VideoWindowControl::staticMetaObject  0x0002a35c   Data          16  moc_s60videowindowcontrol.o(.constdata)
    S60CameraLocksControl::staticMetaObject  0x0002a4a8   Data          16  moc_s60cameralockscontrol.o(.constdata)
    S60CameraFocusControl::staticMetaObject  0x0002a538   Data          16  moc_s60camerafocuscontrol.o(.constdata)
    S60CameraExposureControl::staticMetaObject 0x0002a694   Data          16  moc_s60cameraexposurecontrol.o(.constdata)
    S60CameraFlashControl::staticMetaObject  0x0002a724   Data          16  moc_s60cameraflashcontrol.o(.constdata)
    S60CameraControl::staticMetaObject       0x0002a8d8   Data          16  moc_s60cameracontrol.o(.constdata)
    S60MediaRecorderControl::staticMetaObject 0x0002aa20   Data          16  moc_s60mediarecordercontrol.o(.constdata)
    S60VideoCaptureSession::staticMetaObject 0x0002acd0   Data          16  moc_s60videocapturesession.o(.constdata)
    S60ImageCaptureSession::staticMetaObject 0x0002af68   Data          16  moc_s60imagecapturesession.o(.constdata)
    S60MediaContainerControl::staticMetaObject 0x0002afd0   Data          16  moc_s60mediacontainercontrol.o(.constdata)
    S60VideoEncoderControl::staticMetaObject 0x0002b034   Data          16  moc_s60videoencodercontrol.o(.constdata)
    S60AudioEncoderControl::staticMetaObject 0x0002b098   Data          16  moc_s60audioencodercontrol.o(.constdata)
    S60CameraService::staticMetaObject       0x0002b0f8   Data          16  moc_s60cameraservice.o(.constdata)
    S60CameraImageProcessingControl::staticMetaObject 0x0002b194   Data          16  moc_s60cameraimageprocessingcontrol.o(.constdata)
    S60CameraImageCaptureControl::staticMetaObject 0x0002b200   Data          16  moc_s60cameraimagecapturecontrol.o(.constdata)
    S60VideoDeviceControl::staticMetaObject  0x0002b298   Data          16  moc_s60videodevicecontrol.o(.constdata)
    S60ImageEncoderControl::staticMetaObject 0x0002b2fc   Data          16  moc_s60imageencodercontrol.o(.constdata)
    S60CameraSettings::staticMetaObject      0x0002b528   Data          16  moc_s60camerasettings.o(.constdata)
    S60CameraViewfinderEngine::staticMetaObject 0x0002b7b0   Data          16  moc_s60cameraviewfinderengine.o(.constdata)
    S60VideoRendererControl::staticMetaObject 0x0002b844   Data          16  moc_s60videorenderercontrol.o(.constdata)
    S60CameraServicePlugin::staticMetaObject 0x0002b8a8   Data          16  moc_s60cameraserviceplugin.o(.constdata)
    stlp_priv::_Integer_limits<signed char, (signed char)-128, (signed char)127, (int)-1, (bool)1>::digits 0x0002bcf0   Data           4  moc_s60videodisplay.o(.constdata__ZN9stlp_priv15_Integer_limitsIaLan128ELa127ELin1ELb1EE6digitsE)
    stlp_priv::_Integer_limits<bool, (bool)0, (bool)1, (int)1, (bool)0>::digits 0x0002bcf4   Data           4  moc_s60videodisplay.o(.constdata__ZN9stlp_priv15_Integer_limitsIbLb0ELb1ELi1ELb0EE6digitsE)
    stlp_priv::_Integer_limits<char, (char)128, (char)127, (int)-1, (bool)1>::digits 0x0002bcf8   Data           4  moc_s60videodisplay.o(.constdata__ZN9stlp_priv15_Integer_limitsIcLc128ELc127ELin1ELb1EE6digitsE)
    stlp_priv::_Integer_limits<unsigned char, (unsigned char)0, (unsigned char)255, (int)-1, (bool)1>::digits 0x0002bcfc   Data           4  moc_s60videodisplay.o(.constdata__ZN9stlp_priv15_Integer_limitsIhLh0ELh255ELin1ELb1EE6digitsE)
    stlp_priv::_Integer_limits<int, (int)-2147483648, (int)2147483647, (int)-1, (bool)1>::digits 0x0002bd00   Data           4  moc_s60videodisplay.o(.constdata__ZN9stlp_priv15_Integer_limitsIiLin2147483648ELi2147483647ELin1ELb1EE6digitsE)
    stlp_priv::_Integer_limits<int, (int)-2147483648, (int)2147483647, (int)-1, (bool)1>::is_signed 0x0002bd04   Data           1  moc_s60videodisplay.o(.constdata__ZN9stlp_priv15_Integer_limitsIiLin2147483648ELi2147483647ELin1ELb1EE9is_signedE)
    stlp_priv::_Integer_limits<unsigned, (unsigned)0, (unsigned)4294967295, (int)-1, (bool)1>::digits 0x0002bd08   Data           4  moc_s60videodisplay.o(.constdata__ZN9stlp_priv15_Integer_limitsIjLj0ELj4294967295ELin1ELb1EE6digitsE)
    stlp_priv::_Integer_limits<long, (long)-2147483648, (long)2147483647, (int)-1, (bool)1>::digits 0x0002bd0c   Data           4  moc_s60videodisplay.o(.constdata__ZN9stlp_priv15_Integer_limitsIlLln2147483648ELl2147483647ELin1ELb1EE6digitsE)
    stlp_priv::_Integer_limits<unsigned long, (unsigned long)0, (unsigned long)4294967295, (int)-1, (bool)1>::digits 0x0002bd10   Data           4  moc_s60videodisplay.o(.constdata__ZN9stlp_priv15_Integer_limitsImLm0ELm4294967295ELin1ELb1EE6digitsE)
    stlp_priv::_Integer_limits<short, (short)-32768, (short)32767, (int)-1, (bool)1>::digits 0x0002bd14   Data           4  moc_s60videodisplay.o(.constdata__ZN9stlp_priv15_Integer_limitsIsLsn32768ELs32767ELin1ELb1EE6digitsE)
    stlp_priv::_Integer_limits<unsigned short, (unsigned short)0, (unsigned short)65535, (int)-1, (bool)1>::digits 0x0002bd18   Data           4  moc_s60videodisplay.o(.constdata__ZN9stlp_priv15_Integer_limitsItLt0ELt65535ELin1ELb1EE6digitsE)
    stlp_priv::_Integer_limits<wchar_t, (wchar_t)0, (wchar_t)65535, (int)-1, (bool)1>::digits 0x0002bd1c   Data           4  moc_s60videodisplay.o(.constdata__ZN9stlp_priv15_Integer_limitsIwLw0ELw65535ELin1ELb1EE6digitsE)
    stlp_priv::_Integer_limits<long long, (long long)-9223372036854775808, (long long)9223372036854775807, (int)-1, (bool)1>::digits 0x0002bd20   Data           4  moc_s60videodisplay.o(.constdata__ZN9stlp_priv15_Integer_limitsIxLxn9223372036854775808ELx9223372036854775807ELin1ELb1EE6digitsE)
    stlp_priv::_Integer_limits<unsigned long long, (unsigned long long)0, (unsigned long long)18446744073709551615, (int)-1, (bool)1>::digits 0x0002bd24   Data           4  moc_s60videodisplay.o(.constdata__ZN9stlp_priv15_Integer_limitsIyLy0ELy18446744073709551615ELin1ELb1EE6digitsE)
    typeinfo for CCameraEngine               0x0002bd28   Data          40  s60cameraengine.o(.constdata__ZTI13CCameraEngine)
    typeinfo for S60VideoWidget              0x0002bd50   Data          12  moc_s60videowidget.o(.constdata__ZTI14S60VideoWidget)
    typeinfo for MCameraObserver             0x0002bd5c   Data           8  s60cameraengine.o(.constdata__ZTI15MCameraObserver)
    typeinfo for S60VideoDisplay             0x0002bd64   Data          12  moc_s60videodisplay.o(.constdata__ZTI15S60VideoDisplay)
    typeinfo for MCameraObserver2            0x0002bd70   Data           8  s60cameraengine.o(.constdata__ZTI16MCameraObserver2)
    typeinfo for S60CameraControl            0x0002bd78   Data          32  moc_s60cameracontrol.o(.constdata__ZTI16S60CameraControl)
    typeinfo for S60CameraService            0x0002bd98   Data          12  moc_s60cameraservice.o(.constdata__ZTI16S60CameraService)
    typeinfo for QFactoryInterface           0x0002bda4   Data           8  s60cameraserviceplugin.o(.constdata__ZTI17QFactoryInterface)
    typeinfo for S60CameraSettings           0x0002bdac   Data          32  moc_s60camerasettings.o(.constdata__ZTI17S60CameraSettings)
    typeinfo for MCameraEngineObserver       0x0002bdcc   Data           8  moc_s60cameracontrol.o(.constdata__ZTI21MCameraEngineObserver)
    typeinfo for S60CameraFlashControl       0x0002bdd4   Data          12  moc_s60cameraflashcontrol.o(.constdata__ZTI21S60CameraFlashControl)
    typeinfo for S60CameraFocusControl       0x0002bde0   Data          12  moc_s60camerafocuscontrol.o(.constdata__ZTI21S60CameraFocusControl)
    typeinfo for S60CameraLocksControl       0x0002bdec   Data          12  moc_s60cameralockscontrol.o(.constdata__ZTI21S60CameraLocksControl)
    typeinfo for S60VideoDeviceControl       0x0002bdf8   Data          12  moc_s60videodevicecontrol.o(.constdata__ZTI21S60VideoDeviceControl)
    typeinfo for S60VideoWidgetControl       0x0002be04   Data          12  moc_s60videowidgetcontrol.o(.constdata__ZTI21S60VideoWidgetControl)
    typeinfo for S60VideoWidgetDisplay       0x0002be10   Data          12  moc_s60videowidgetdisplay.o(.constdata__ZTI21S60VideoWidgetDisplay)
    typeinfo for S60VideoWindowControl       0x0002be1c   Data          12  moc_s60videowindowcontrol.o(.constdata__ZTI21S60VideoWindowControl)
    typeinfo for S60VideoWindowDisplay       0x0002be28   Data          12  s60videowindowdisplay.o(.constdata__ZTI21S60VideoWindowDisplay)
    typeinfo for QGraphicsEffectPrivate      0x0002be34   Data          12  s60videooutpututils.o(.constdata__ZTI22QGraphicsEffectPrivate)
    typeinfo for S60AudioEncoderControl      0x0002be40   Data          12  moc_s60audioencodercontrol.o(.constdata__ZTI22S60AudioEncoderControl)
    typeinfo for S60CameraServicePlugin      0x0002be4c   Data          32  moc_s60cameraserviceplugin.o(.constdata__ZTI22S60CameraServicePlugin)
    typeinfo for S60ImageCaptureDecoder      0x0002be6c   Data          12  s60imagecapturesession.o(.constdata__ZTI22S60ImageCaptureDecoder)
    typeinfo for S60ImageCaptureEncoder      0x0002be78   Data          12  s60imagecapturesession.o(.constdata__ZTI22S60ImageCaptureEncoder)
    typeinfo for S60ImageCaptureSession      0x0002be84   Data          32  moc_s60imagecapturesession.o(.constdata__ZTI22S60ImageCaptureSession)
    typeinfo for S60ImageEncoderControl      0x0002bea4   Data          12  moc_s60imageencodercontrol.o(.constdata__ZTI22S60ImageEncoderControl)
    typeinfo for S60VideoCaptureSession      0x0002beb0   Data          40  moc_s60videocapturesession.o(.constdata__ZTI22S60VideoCaptureSession)
    typeinfo for S60VideoEncoderControl      0x0002bed8   Data          12  moc_s60videoencodercontrol.o(.constdata__ZTI22S60VideoEncoderControl)
    typeinfo for S60MediaRecorderControl     0x0002bee4   Data          12  moc_s60mediarecordercontrol.o(.constdata__ZTI23S60MediaRecorderControl)
    typeinfo for S60VideoRendererControl     0x0002bef0   Data          12  moc_s60videorenderercontrol.o(.constdata__ZTI23S60VideoRendererControl)
    typeinfo for S60CameraExposureControl    0x0002befc   Data          12  moc_s60cameraexposurecontrol.o(.constdata__ZTI24S60CameraExposureControl)
    typeinfo for S60MediaContainerControl    0x0002bf08   Data          12  moc_s60mediacontainercontrol.o(.constdata__ZTI24S60MediaContainerControl)
    typeinfo for MAdvancedSettingsObserver   0x0002bf14   Data           8  moc_s60camerasettings.o(.constdata__ZTI25MAdvancedSettingsObserver)
    typeinfo for MCameraViewfinderObserver   0x0002bf1c   Data           8  moc_s60cameraviewfinderengine.o(.constdata__ZTI25MCameraViewfinderObserver)
    typeinfo for S60CameraViewfinderEngine   0x0002bf24   Data          32  moc_s60cameraviewfinderengine.o(.constdata__ZTI25S60CameraViewfinderEngine)
    typeinfo for MMMFDevVideoRecordObserver  0x0002bf44   Data           8  moc_s60videocapturesession.o(.constdata__ZTI26MMMFDevVideoRecordObserver)
    typeinfo for QGraphicsBlurEffectPrivate  0x0002bf4c   Data          12  s60videooutpututils.o(.constdata__ZTI26QGraphicsBlurEffectPrivate)
    typeinfo for S60CameraImageCaptureControl 0x0002bf58   Data          12  moc_s60cameraimagecapturecontrol.o(.constdata__ZTI28S60CameraImageCaptureControl)
    typeinfo for MVideoRecorderUtilityObserver 0x0002bf64   Data           8  moc_s60videocapturesession.o(.constdata__ZTI29MVideoRecorderUtilityObserver)
    typeinfo for QGraphicsColorizeEffectPrivate 0x0002bf6c   Data          12  s60videooutpututils.o(.constdata__ZTI30QGraphicsColorizeEffectPrivate)
    typeinfo for S60CameraImageProcessingControl 0x0002bf78   Data          12  moc_s60cameraimageprocessingcontrol.o(.constdata__ZTI31S60CameraImageProcessingControl)
    typeinfo for QGraphicsDropShadowEffectPrivate 0x0002bf84   Data          12  s60videooutpututils.o(.constdata__ZTI32QGraphicsDropShadowEffectPrivate)
    typeinfo for MCameraEngineImageCaptureObserver 0x0002bf90   Data           8  moc_s60imagecapturesession.o(.constdata__ZTI33MCameraEngineImageCaptureObserver)
    typeinfo for QMediaServiceProviderFactoryInterface 0x0002bf98   Data          12  s60cameraserviceplugin.o(.constdata__ZTI37QMediaServiceProviderFactoryInterface)
    typeinfo for QMediaServiceSupportedDevicesInterface 0x0002bfa4   Data           8  moc_s60cameraserviceplugin.o(.constdata__ZTI38QMediaServiceSupportedDevicesInterface)
    typeinfo name for CCameraEngine          0x0002bfac   Data          16  s60cameraengine.o(.constdata__ZTS13CCameraEngine)
    typeinfo name for S60VideoWidget         0x0002bfbc   Data          17  moc_s60videowidget.o(.constdata__ZTS14S60VideoWidget)
    typeinfo name for MCameraObserver        0x0002bfcd   Data          18  s60cameraengine.o(.constdata__ZTS15MCameraObserver)
    typeinfo name for S60VideoDisplay        0x0002bfdf   Data          18  moc_s60videodisplay.o(.constdata__ZTS15S60VideoDisplay)
    typeinfo name for MCameraObserver2       0x0002bff1   Data          19  s60cameraengine.o(.constdata__ZTS16MCameraObserver2)
    typeinfo name for S60CameraControl       0x0002c004   Data          19  moc_s60cameracontrol.o(.constdata__ZTS16S60CameraControl)
    typeinfo name for S60CameraService       0x0002c017   Data          19  moc_s60cameraservice.o(.constdata__ZTS16S60CameraService)
    typeinfo name for QFactoryInterface      0x0002c02a   Data          20  s60cameraserviceplugin.o(.constdata__ZTS17QFactoryInterface)
    typeinfo name for S60CameraSettings      0x0002c03e   Data          20  moc_s60camerasettings.o(.constdata__ZTS17S60CameraSettings)
    typeinfo name for MCameraEngineObserver  0x0002c052   Data          24  moc_s60cameracontrol.o(.constdata__ZTS21MCameraEngineObserver)
    typeinfo name for S60CameraFlashControl  0x0002c06a   Data          24  moc_s60cameraflashcontrol.o(.constdata__ZTS21S60CameraFlashControl)
    typeinfo name for S60CameraFocusControl  0x0002c082   Data          24  moc_s60camerafocuscontrol.o(.constdata__ZTS21S60CameraFocusControl)
    typeinfo name for S60CameraLocksControl  0x0002c09a   Data          24  moc_s60cameralockscontrol.o(.constdata__ZTS21S60CameraLocksControl)
    typeinfo name for S60VideoDeviceControl  0x0002c0b2   Data          24  moc_s60videodevicecontrol.o(.constdata__ZTS21S60VideoDeviceControl)
    typeinfo name for S60VideoWidgetControl  0x0002c0ca   Data          24  moc_s60videowidgetcontrol.o(.constdata__ZTS21S60VideoWidgetControl)
    typeinfo name for S60VideoWidgetDisplay  0x0002c0e2   Data          24  moc_s60videowidgetdisplay.o(.constdata__ZTS21S60VideoWidgetDisplay)
    typeinfo name for S60VideoWindowControl  0x0002c0fa   Data          24  moc_s60videowindowcontrol.o(.constdata__ZTS21S60VideoWindowControl)
    typeinfo name for S60VideoWindowDisplay  0x0002c112   Data          24  s60videowindowdisplay.o(.constdata__ZTS21S60VideoWindowDisplay)
    typeinfo name for QGraphicsEffectPrivate 0x0002c12a   Data          25  s60videooutpututils.o(.constdata__ZTS22QGraphicsEffectPrivate)
    typeinfo name for S60AudioEncoderControl 0x0002c143   Data          25  moc_s60audioencodercontrol.o(.constdata__ZTS22S60AudioEncoderControl)
    typeinfo name for S60CameraServicePlugin 0x0002c15c   Data          25  moc_s60cameraserviceplugin.o(.constdata__ZTS22S60CameraServicePlugin)
    typeinfo name for S60ImageCaptureDecoder 0x0002c175   Data          25  s60imagecapturesession.o(.constdata__ZTS22S60ImageCaptureDecoder)
    typeinfo name for S60ImageCaptureEncoder 0x0002c18e   Data          25  s60imagecapturesession.o(.constdata__ZTS22S60ImageCaptureEncoder)
    typeinfo name for S60ImageCaptureSession 0x0002c1a7   Data          25  moc_s60imagecapturesession.o(.constdata__ZTS22S60ImageCaptureSession)
    typeinfo name for S60ImageEncoderControl 0x0002c1c0   Data          25  moc_s60imageencodercontrol.o(.constdata__ZTS22S60ImageEncoderControl)
    typeinfo name for S60VideoCaptureSession 0x0002c1d9   Data          25  moc_s60videocapturesession.o(.constdata__ZTS22S60VideoCaptureSession)
    typeinfo name for S60VideoEncoderControl 0x0002c1f2   Data          25  moc_s60videoencodercontrol.o(.constdata__ZTS22S60VideoEncoderControl)
    typeinfo name for S60MediaRecorderControl 0x0002c20b   Data          26  moc_s60mediarecordercontrol.o(.constdata__ZTS23S60MediaRecorderControl)
    typeinfo name for S60VideoRendererControl 0x0002c225   Data          26  moc_s60videorenderercontrol.o(.constdata__ZTS23S60VideoRendererControl)
    typeinfo name for S60CameraExposureControl 0x0002c23f   Data          27  moc_s60cameraexposurecontrol.o(.constdata__ZTS24S60CameraExposureControl)
    typeinfo name for S60MediaContainerControl 0x0002c25a   Data          27  moc_s60mediacontainercontrol.o(.constdata__ZTS24S60MediaContainerControl)
    typeinfo name for MAdvancedSettingsObserver 0x0002c275   Data          28  moc_s60camerasettings.o(.constdata__ZTS25MAdvancedSettingsObserver)
    typeinfo name for MCameraViewfinderObserver 0x0002c291   Data          28  moc_s60cameraviewfinderengine.o(.constdata__ZTS25MCameraViewfinderObserver)
    typeinfo name for S60CameraViewfinderEngine 0x0002c2ad   Data          28  moc_s60cameraviewfinderengine.o(.constdata__ZTS25S60CameraViewfinderEngine)
    typeinfo name for MMMFDevVideoRecordObserver 0x0002c2c9   Data          29  moc_s60videocapturesession.o(.constdata__ZTS26MMMFDevVideoRecordObserver)
    typeinfo name for QGraphicsBlurEffectPrivate 0x0002c2e6   Data          29  s60videooutpututils.o(.constdata__ZTS26QGraphicsBlurEffectPrivate)
    typeinfo name for S60CameraImageCaptureControl 0x0002c303   Data          31  moc_s60cameraimagecapturecontrol.o(.constdata__ZTS28S60CameraImageCaptureControl)
    typeinfo name for MVideoRecorderUtilityObserver 0x0002c322   Data          32  moc_s60videocapturesession.o(.constdata__ZTS29MVideoRecorderUtilityObserver)
    typeinfo name for QGraphicsColorizeEffectPrivate 0x0002c342   Data          33  s60videooutpututils.o(.constdata__ZTS30QGraphicsColorizeEffectPrivate)
    typeinfo name for S60CameraImageProcessingControl 0x0002c363   Data          34  moc_s60cameraimageprocessingcontrol.o(.constdata__ZTS31S60CameraImageProcessingControl)
    typeinfo name for QGraphicsDropShadowEffectPrivate 0x0002c385   Data          35  s60videooutpututils.o(.constdata__ZTS32QGraphicsDropShadowEffectPrivate)
    typeinfo name for MCameraEngineImageCaptureObserver 0x0002c3a8   Data          36  moc_s60imagecapturesession.o(.constdata__ZTS33MCameraEngineImageCaptureObserver)
    typeinfo name for QMediaServiceProviderFactoryInterface 0x0002c3cc   Data          40  s60cameraserviceplugin.o(.constdata__ZTS37QMediaServiceProviderFactoryInterface)
    typeinfo name for QMediaServiceSupportedDevicesInterface 0x0002c3f4   Data          41  moc_s60cameraserviceplugin.o(.constdata__ZTS38QMediaServiceSupportedDevicesInterface)
    vtable for CCameraEngine                 0x0002c420   Data         116  s60cameraengine.o(.constdata__ZTV13CCameraEngine)
    vtable for S60VideoWidget                0x0002c494   Data         248  moc_s60videowidget.o(.constdata__ZTV14S60VideoWidget)
    vtable for MCameraObserver               0x0002c58c   Data          28  s60cameraengine.o(.constdata__ZTV15MCameraObserver)
    vtable for S60VideoDisplay               0x0002c5a8   Data          68  moc_s60videodisplay.o(.constdata__ZTV15S60VideoDisplay)
    vtable for MCameraObserver2              0x0002c5ec   Data          24  s60cameraengine.o(.constdata__ZTV16MCameraObserver2)
    vtable for S60CameraControl              0x0002c604   Data         108  moc_s60cameracontrol.o(.constdata__ZTV16S60CameraControl)
    vtable for S60CameraService              0x0002c670   Data          64  moc_s60cameraservice.o(.constdata__ZTV16S60CameraService)
    vtable for QFactoryInterface             0x0002c6b0   Data          20  s60cameraserviceplugin.o(.constdata__ZTV17QFactoryInterface)
    vtable for S60CameraSettings             0x0002c6c4   Data          72  moc_s60camerasettings.o(.constdata__ZTV17S60CameraSettings)
    vtable for MCameraEngineObserver         0x0002c70c   Data          16  s60cameracontrol.o(.constdata__ZTV21MCameraEngineObserver)
    vtable for S60CameraFlashControl         0x0002c71c   Data          72  moc_s60cameraflashcontrol.o(.constdata__ZTV21S60CameraFlashControl)
    vtable for S60CameraFocusControl         0x0002c764   Data         112  moc_s60camerafocuscontrol.o(.constdata__ZTV21S60CameraFocusControl)
    vtable for S60CameraLocksControl         0x0002c7d4   Data          72  moc_s60cameralockscontrol.o(.constdata__ZTV21S60CameraLocksControl)
    vtable for S60VideoDeviceControl         0x0002c81c   Data          84  moc_s60videodevicecontrol.o(.constdata__ZTV21S60VideoDeviceControl)
    vtable for S60VideoWidgetControl         0x0002c870   Data         108  moc_s60videowidgetcontrol.o(.constdata__ZTV21S60VideoWidgetControl)
    vtable for S60VideoWidgetDisplay         0x0002c8dc   Data          68  moc_s60videowidgetdisplay.o(.constdata__ZTV21S60VideoWidgetDisplay)
    vtable for S60VideoWindowControl         0x0002c920   Data         128  moc_s60videowindowcontrol.o(.constdata__ZTV21S60VideoWindowControl)
    vtable for S60VideoWindowDisplay         0x0002c9a0   Data          68  s60videowindowdisplay.o(.constdata__ZTV21S60VideoWindowDisplay)
    vtable for S60AudioEncoderControl        0x0002c9e4   Data          88  moc_s60audioencodercontrol.o(.constdata__ZTV22S60AudioEncoderControl)
    vtable for S60CameraServicePlugin        0x0002ca3c   Data         128  moc_s60cameraserviceplugin.o(.constdata__ZTV22S60CameraServicePlugin)
    vtable for S60ImageCaptureDecoder        0x0002cabc   Data          32  s60imagecapturesession.o(.constdata__ZTV22S60ImageCaptureDecoder)
    vtable for S60ImageCaptureEncoder        0x0002cadc   Data          32  s60imagecapturesession.o(.constdata__ZTV22S60ImageCaptureEncoder)
    vtable for S60ImageCaptureSession        0x0002cafc   Data         100  moc_s60imagecapturesession.o(.constdata__ZTV22S60ImageCaptureSession)
    vtable for S60ImageEncoderControl        0x0002cb60   Data          76  moc_s60imageencodercontrol.o(.constdata__ZTV22S60ImageEncoderControl)
    vtable for S60VideoCaptureSession        0x0002cbac   Data         152  moc_s60videocapturesession.o(.constdata__ZTV22S60VideoCaptureSession)
    vtable for S60VideoEncoderControl        0x0002cc44   Data          92  moc_s60videoencodercontrol.o(.constdata__ZTV22S60VideoEncoderControl)
    vtable for S60MediaRecorderControl       0x0002cca0   Data          96  moc_s60mediarecordercontrol.o(.constdata__ZTV23S60MediaRecorderControl)
    vtable for S60VideoRendererControl       0x0002cd00   Data          64  moc_s60videorenderercontrol.o(.constdata__ZTV23S60VideoRendererControl)
    vtable for S60CameraExposureControl      0x0002cd40   Data         104  moc_s60cameraexposurecontrol.o(.constdata__ZTV24S60CameraExposureControl)
    vtable for S60MediaContainerControl      0x0002cda8   Data          72  moc_s60mediacontainercontrol.o(.constdata__ZTV24S60MediaContainerControl)
    vtable for MAdvancedSettingsObserver     0x0002cdf0   Data          12  s60camerasettings.o(.constdata__ZTV25MAdvancedSettingsObserver)
    vtable for MCameraViewfinderObserver     0x0002cdfc   Data          12  s60cameraviewfinderengine.o(.constdata__ZTV25MCameraViewfinderObserver)
    vtable for S60CameraViewfinderEngine     0x0002ce08   Data          72  moc_s60cameraviewfinderengine.o(.constdata__ZTV25S60CameraViewfinderEngine)
    vtable for MMMFDevVideoRecordObserver    0x0002ce50   Data          32  s60videocapturesession.o(.constdata__ZTV26MMMFDevVideoRecordObserver)
    vtable for QGraphicsBlurEffectPrivate    0x0002ce70   Data          16  s60videooutpututils.o(.constdata__ZTV26QGraphicsBlurEffectPrivate)
    vtable for S60CameraImageCaptureControl  0x0002ce80   Data          76  moc_s60cameraimagecapturecontrol.o(.constdata__ZTV28S60CameraImageCaptureControl)
    vtable for MVideoRecorderUtilityObserver 0x0002cecc   Data          24  s60videocapturesession.o(.constdata__ZTV29MVideoRecorderUtilityObserver)
    vtable for QGraphicsColorizeEffectPrivate 0x0002cee4   Data          16  s60videooutpututils.o(.constdata__ZTV30QGraphicsColorizeEffectPrivate)
    vtable for S60CameraImageProcessingControl 0x0002cef4   Data          80  moc_s60cameraimageprocessingcontrol.o(.constdata__ZTV31S60CameraImageProcessingControl)
    vtable for QGraphicsDropShadowEffectPrivate 0x0002cf44   Data          16  s60videooutpututils.o(.constdata__ZTV32QGraphicsDropShadowEffectPrivate)
    vtable for MCameraEngineImageCaptureObserver 0x0002cf54   Data          28  s60imagecapturesession.o(.constdata__ZTV33MCameraEngineImageCaptureObserver)
    vtable for QMediaServiceProviderFactoryInterface 0x0002cf70   Data          28  s60cameraserviceplugin.o(.constdata__ZTV37QMediaServiceProviderFactoryInterface)
    vtable for QMediaServiceSupportedDevicesInterface 0x0002cf8c   Data          24  s60cameraserviceplugin.o(.constdata__ZTV38QMediaServiceSupportedDevicesInterface)
    .ARM.exidx$$Base                         0x0002cfa4   Number         0  ucppinit.o(.ARM.exidx)
    .ARM.exidx$$Limit                        0x0002eb4c   Number         0  s60cameraexposurecontrol.o(.ARM.exidx)
    Image$$ER_RO$$Limit                      0x0002eb4c   Number         0  anon$$obj.o(linker$$defined$$symbols)
    __dso_handle                             0x00400008   Data           4  ucppfini.o(.data)
    std::_Atomic_swap_struct<(int)1>::_S_swap_lock 0x0040000c   Data          12  moc_s60videodisplay.o(.data__ZNSt19_Atomic_swap_structILi1EE12_S_swap_lockE)
    dtor_rec                                 0x00400018   Data        2048  ucppfini.o(.bss)

