ARM Linker, RVCT2.2 [Build 686]

================================================================================

Image Symbol Table

    Local Symbols

    Symbol Name                              Value     Ov Type        Size  Object(Section)

    ../../unhosted.s                         0x00000000   Number         0  switch8.o ABSOLUTE
    M:\\epoc32\\build\\euser\\c_e18a23aea4fd210f\\edll_lib\\armv5\\udeb\\uc_dll_.cpp 0x00000000   Number         0  uc_dll_.o ABSOLUTE
    M:\\sf\\os\\kernelhwsrv\\kernel\\eka\\compsupp\\rvct\\ucppinit.cpp 0x00000000   Number         0  ucppinit.o ABSOLUTE
    M:\epoc32\build\euser\c_e18a23aea4fd210f\edll_lib\armv5\udeb\uc_dll_.cpp 0x00000000   Number         0  uc_dll_.o ABSOLUTE
    M:\sf\os\kernelhwsrv\kernel\eka\compsupp\rvct\dllexp.cpp 0x00000000   Number         0  dllexp.o ABSOLUTE
    M:\sf\os\kernelhwsrv\kernel\eka\compsupp\rvct\ucppfini.cpp 0x00000000   Number         0  ucppfini.o ABSOLUTE
    M:\sf\os\kernelhwsrv\kernel\eka\compsupp\rvct\ucppinit.cpp 0x00000000   Number         0  ucppinit.o ABSOLUTE
    M:\sf\os\kernelhwsrv\kernel\eka\euser\epoc\arm\uc_dll.cpp 0x00000000   Number         0  uc_dll.o ABSOLUTE
    S:\sf\mw\qtmobility\build\Release\qtmultimediakit_mmfengine\moc\moc_S60audiocontainercontrol.cpp 0x00000000   Number         0  moc_S60audiocontainercontrol.o ABSOLUTE
    S:\sf\mw\qtmobility\build\Release\qtmultimediakit_mmfengine\moc\moc_s60audiocaptureservice.cpp 0x00000000   Number         0  moc_s60audiocaptureservice.o ABSOLUTE
    S:\sf\mw\qtmobility\build\Release\qtmultimediakit_mmfengine\moc\moc_s60audiocapturesession.cpp 0x00000000   Number         0  moc_s60audiocapturesession.o ABSOLUTE
    S:\sf\mw\qtmobility\build\Release\qtmultimediakit_mmfengine\moc\moc_s60audioencodercontrol.cpp 0x00000000   Number         0  moc_s60audioencodercontrol.o ABSOLUTE
    S:\sf\mw\qtmobility\build\Release\qtmultimediakit_mmfengine\moc\moc_s60audioendpointselector.cpp 0x00000000   Number         0  moc_s60audioendpointselector.o ABSOLUTE
    S:\sf\mw\qtmobility\build\Release\qtmultimediakit_mmfengine\moc\moc_s60audiomediarecordercontrol.cpp 0x00000000   Number         0  moc_s60audiomediarecordercontrol.o ABSOLUTE
    S:\sf\mw\qtmobility\build\Release\qtmultimediakit_mmfengine\moc\moc_s60audioplayersession.cpp 0x00000000   Number         0  moc_s60audioplayersession.o ABSOLUTE
    S:\sf\mw\qtmobility\build\Release\qtmultimediakit_mmfengine\moc\moc_s60mediametadataprovider.cpp 0x00000000   Number         0  moc_s60mediametadataprovider.o ABSOLUTE
    S:\sf\mw\qtmobility\build\Release\qtmultimediakit_mmfengine\moc\moc_s60mediaplayeraudioendpointselector.cpp 0x00000000   Number         0  moc_s60mediaplayeraudioendpointselector.o ABSOLUTE
    S:\sf\mw\qtmobility\build\Release\qtmultimediakit_mmfengine\moc\moc_s60mediaplayercontrol.cpp 0x00000000   Number         0  moc_s60mediaplayercontrol.o ABSOLUTE
    S:\sf\mw\qtmobility\build\Release\qtmultimediakit_mmfengine\moc\moc_s60mediaplayerservice.cpp 0x00000000   Number         0  moc_s60mediaplayerservice.o ABSOLUTE
    S:\sf\mw\qtmobility\build\Release\qtmultimediakit_mmfengine\moc\moc_s60mediaplayersession.cpp 0x00000000   Number         0  moc_s60mediaplayersession.o ABSOLUTE
    S:\sf\mw\qtmobility\build\Release\qtmultimediakit_mmfengine\moc\moc_s60mediarecognizer.cpp 0x00000000   Number         0  moc_s60mediarecognizer.o ABSOLUTE
    S:\sf\mw\qtmobility\build\Release\qtmultimediakit_mmfengine\moc\moc_s60mediaserviceplugin.cpp 0x00000000   Number         0  moc_s60mediaserviceplugin.o ABSOLUTE
    S:\sf\mw\qtmobility\build\Release\qtmultimediakit_mmfengine\moc\moc_s60mediastreamcontrol.cpp 0x00000000   Number         0  moc_s60mediastreamcontrol.o ABSOLUTE
    S:\sf\mw\qtmobility\build\Release\qtmultimediakit_mmfengine\moc\moc_s60radiotunercontrol_since32.cpp 0x00000000   Number         0  moc_s60radiotunercontrol_since32.o ABSOLUTE
    S:\sf\mw\qtmobility\build\Release\qtmultimediakit_mmfengine\moc\moc_s60radiotunerservice.cpp 0x00000000   Number         0  moc_s60radiotunerservice.o ABSOLUTE
    S:\sf\mw\qtmobility\build\Release\qtmultimediakit_mmfengine\moc\moc_s60videodisplay.cpp 0x00000000   Number         0  moc_s60videodisplay.o ABSOLUTE
    S:\sf\mw\qtmobility\build\Release\qtmultimediakit_mmfengine\moc\moc_s60videoplayersession.cpp 0x00000000   Number         0  moc_s60videoplayersession.o ABSOLUTE
    S:\sf\mw\qtmobility\build\Release\qtmultimediakit_mmfengine\moc\moc_s60videosurface.cpp 0x00000000   Number         0  moc_s60videosurface.o ABSOLUTE
    S:\sf\mw\qtmobility\build\Release\qtmultimediakit_mmfengine\moc\moc_s60videowidget.cpp 0x00000000   Number         0  moc_s60videowidget.o ABSOLUTE
    S:\sf\mw\qtmobility\build\Release\qtmultimediakit_mmfengine\moc\moc_s60videowidgetcontrol.cpp 0x00000000   Number         0  moc_s60videowidgetcontrol.o ABSOLUTE
    S:\sf\mw\qtmobility\build\Release\qtmultimediakit_mmfengine\moc\moc_s60videowidgetdisplay.cpp 0x00000000   Number         0  moc_s60videowidgetdisplay.o ABSOLUTE
    S:\sf\mw\qtmobility\build\Release\qtmultimediakit_mmfengine\moc\moc_s60videowindowcontrol.cpp 0x00000000   Number         0  moc_s60videowindowcontrol.o ABSOLUTE
    S:\sf\mw\qtmobility\plugins\multimedia\symbian\mmf\audiosource\S60audiocontainercontrol.cpp 0x00000000   Number         0  S60audiocontainercontrol.o ABSOLUTE
    S:\sf\mw\qtmobility\plugins\multimedia\symbian\mmf\audiosource\s60audiocaptureservice.cpp 0x00000000   Number         0  s60audiocaptureservice.o ABSOLUTE
    S:\sf\mw\qtmobility\plugins\multimedia\symbian\mmf\audiosource\s60audiocapturesession.cpp 0x00000000   Number         0  s60audiocapturesession.o ABSOLUTE
    S:\sf\mw\qtmobility\plugins\multimedia\symbian\mmf\audiosource\s60audioencodercontrol.cpp 0x00000000   Number         0  s60audioencodercontrol.o ABSOLUTE
    S:\sf\mw\qtmobility\plugins\multimedia\symbian\mmf\audiosource\s60audioendpointselector.cpp 0x00000000   Number         0  s60audioendpointselector.o ABSOLUTE
    S:\sf\mw\qtmobility\plugins\multimedia\symbian\mmf\audiosource\s60audiomediarecordercontrol.cpp 0x00000000   Number         0  s60audiomediarecordercontrol.o ABSOLUTE
    S:\sf\mw\qtmobility\plugins\multimedia\symbian\mmf\mediaplayer\s60audioplayersession.cpp 0x00000000   Number         0  s60audioplayersession.o ABSOLUTE
    S:\sf\mw\qtmobility\plugins\multimedia\symbian\mmf\mediaplayer\s60mediametadataprovider.cpp 0x00000000   Number         0  s60mediametadataprovider.o ABSOLUTE
    S:\sf\mw\qtmobility\plugins\multimedia\symbian\mmf\mediaplayer\s60mediaplayeraudioendpointselector.cpp 0x00000000   Number         0  s60mediaplayeraudioendpointselector.o ABSOLUTE
    S:\sf\mw\qtmobility\plugins\multimedia\symbian\mmf\mediaplayer\s60mediaplayercontrol.cpp 0x00000000   Number         0  s60mediaplayercontrol.o ABSOLUTE
    S:\sf\mw\qtmobility\plugins\multimedia\symbian\mmf\mediaplayer\s60mediaplayerservice.cpp 0x00000000   Number         0  s60mediaplayerservice.o ABSOLUTE
    S:\sf\mw\qtmobility\plugins\multimedia\symbian\mmf\mediaplayer\s60mediaplayersession.cpp 0x00000000   Number         0  s60mediaplayersession.o ABSOLUTE
    S:\sf\mw\qtmobility\plugins\multimedia\symbian\mmf\mediaplayer\s60mediarecognizer.cpp 0x00000000   Number         0  s60mediarecognizer.o ABSOLUTE
    S:\sf\mw\qtmobility\plugins\multimedia\symbian\mmf\mediaplayer\s60mediastreamcontrol.cpp 0x00000000   Number         0  s60mediastreamcontrol.o ABSOLUTE
    S:\sf\mw\qtmobility\plugins\multimedia\symbian\mmf\mediaplayer\s60videoplayersession.cpp 0x00000000   Number         0  s60videoplayersession.o ABSOLUTE
    S:\sf\mw\qtmobility\plugins\multimedia\symbian\mmf\mediaplayer\s60videosurface.cpp 0x00000000   Number         0  s60videosurface.o ABSOLUTE
    S:\sf\mw\qtmobility\plugins\multimedia\symbian\mmf\radio\s60radiotunercontrol_since32.cpp 0x00000000   Number         0  s60radiotunercontrol_since32.o ABSOLUTE
    S:\sf\mw\qtmobility\plugins\multimedia\symbian\mmf\radio\s60radiotunerservice.cpp 0x00000000   Number         0  s60radiotunerservice.o ABSOLUTE
    S:\sf\mw\qtmobility\plugins\multimedia\symbian\mmf\s60formatsupported.cpp 0x00000000   Number         0  s60formatsupported.o ABSOLUTE
    S:\sf\mw\qtmobility\plugins\multimedia\symbian\mmf\s60mediaserviceplugin.cpp 0x00000000   Number         0  s60mediaserviceplugin.o ABSOLUTE
    S:\sf\mw\qtmobility\plugins\multimedia\symbian\videooutput\s60videodisplay.cpp 0x00000000   Number         0  s60videodisplay.o ABSOLUTE
    S:\sf\mw\qtmobility\plugins\multimedia\symbian\videooutput\s60videooutpututils.cpp 0x00000000   Number         0  s60videooutpututils.o ABSOLUTE
    S:\sf\mw\qtmobility\plugins\multimedia\symbian\videooutput\s60videowidget.cpp 0x00000000   Number         0  s60videowidget.o ABSOLUTE
    S:\sf\mw\qtmobility\plugins\multimedia\symbian\videooutput\s60videowidgetcontrol.cpp 0x00000000   Number         0  s60videowidgetcontrol.o ABSOLUTE
    S:\sf\mw\qtmobility\plugins\multimedia\symbian\videooutput\s60videowidgetdisplay.cpp 0x00000000   Number         0  s60videowidgetdisplay.o ABSOLUTE
    S:\sf\mw\qtmobility\plugins\multimedia\symbian\videooutput\s60videowindowcontrol.cpp 0x00000000   Number         0  s60videowindowcontrol.o ABSOLUTE
    S:\sf\mw\qtmobility\plugins\multimedia\symbian\videooutput\s60videowindowdisplay.cpp 0x00000000   Number         0  s60videowindowdisplay.o ABSOLUTE
    .emb_text                                0x00008000   Section       40  uc_dll_.o(.emb_text)
    Symbian$$eit_base                        0x00008014   Data           4  uc_dll_.o(.emb_text)
    Symbian$$eit_limit                       0x00008018   Data           4  uc_dll_.o(.emb_text)
    Symbian$$code_seg_base                   0x0000801c   Data           4  uc_dll_.o(.emb_text)
    Symbian$$code_seg_limit                  0x00008020   Data           4  uc_dll_.o(.emb_text)
    Symbian$$reserved                        0x00008024   Data           4  uc_dll_.o(.emb_text)
    .emb_text                                0x00008028   Section       52  ucppinit.o(.emb_text)
    loop                                     0x0000803c   ARM Code       0  ucppinit.o(.emb_text)
    ret                                      0x00008044   ARM Code       0  ucppinit.o(.emb_text)
    base                                     0x00008054   Data           0  ucppinit.o(.emb_text)
    limit                                    0x00008058   Data           0  ucppinit.o(.emb_text)
    .text                                    0x00008d84   Section      676  moc_s60videodisplay.o(.text)
    .text                                    0x00009028   Section      272  moc_s60videowidget.o(.text)
    .text                                    0x00009138   Section      356  moc_s60videowidgetcontrol.o(.text)
    .text                                    0x0000929c   Section      116  moc_s60videowidgetdisplay.o(.text)
    .text                                    0x00009310   Section      240  moc_s60videowindowcontrol.o(.text)
    .text                                    0x00009400   Section      116  moc_s60mediaplayercontrol.o(.text)
    .text                                    0x00009474   Section      160  moc_s60mediaplayerservice.o(.text)
    .text                                    0x00009514   Section      864  moc_s60mediaplayersession.o(.text)
    .text                                    0x00009874   Section      116  moc_s60mediametadataprovider.o(.text)
    .text                                    0x000098e8   Section      364  moc_s60videoplayersession.o(.text)
    .text                                    0x00009a54   Section      116  moc_s60videosurface.o(.text)
    .text                                    0x00009ac8   Section      116  moc_s60mediarecognizer.o(.text)
    .text                                    0x00009b3c   Section      272  moc_s60audioplayersession.o(.text)
    .text                                    0x00009c4c   Section      144  moc_s60mediaplayeraudioendpointselector.o(.text)
    .text                                    0x00009cdc   Section      140  moc_s60mediastreamcontrol.o(.text)
    .text                                    0x00009d68   Section      272  moc_s60radiotunercontrol_since32.o(.text)
    .text                                    0x00009e78   Section      116  moc_s60radiotunerservice.o(.text)
    .text                                    0x00009eec   Section      116  moc_s60audioencodercontrol.o(.text)
    .text                                    0x00009f60   Section      196  moc_s60audiomediarecordercontrol.o(.text)
    .text                                    0x0000a024   Section      144  moc_s60audioendpointselector.o(.text)
    .text                                    0x0000a0b4   Section      116  moc_s60audiocaptureservice.o(.text)
    .text                                    0x0000a128   Section      472  moc_s60audiocapturesession.o(.text)
    .text                                    0x0000a300   Section      116  moc_S60audiocontainercontrol.o(.text)
    .text                                    0x0000a374   Section      248  moc_s60mediaserviceplugin.o(.text)
    .text                                    0x0000a46c   Section      872  s60mediaserviceplugin.o(.text)
    .text                                    0x0000a7d4   Section      672  s60formatsupported.o(.text)
    .text                                    0x0000aa74   Section     2644  s60audioencodercontrol.o(.text)
    |L1.468|                                 0x0000ac48   Data           0  s60audioencodercontrol.o(.text)
    |L1.2232|                                0x0000b32c   Data           0  s60audioencodercontrol.o(.text)
    |L1.2252|                                0x0000b340   Data           0  s60audioencodercontrol.o(.text)
    .text                                    0x0000b4c8   Section     2008  s60audiomediarecordercontrol.o(.text)
    .text                                    0x0000bca0   Section      944  s60audioendpointselector.o(.text)
    .text                                    0x0000c050   Section      988  s60audiocaptureservice.o(.text)
    .text                                    0x0000c42c   Section    13064  s60audiocapturesession.o(.text)
    |L1.2316|                                0x0000cd38   Data           0  s60audiocapturesession.o(.text)
    |L1.2424|                                0x0000cda4   Data           0  s60audiocapturesession.o(.text)
    |L1.2460|                                0x0000cdc8   Data           0  s60audiocapturesession.o(.text)
    |L1.2548|                                0x0000ce20   Data           0  s60audiocapturesession.o(.text)
    |L1.2552|                                0x0000ce24   Data           0  s60audiocapturesession.o(.text)
    |L1.12360|                               0x0000f474   Data           0  s60audiocapturesession.o(.text)
    |L1.12412|                               0x0000f4a8   Data           0  s60audiocapturesession.o(.text)
    |L1.12472|                               0x0000f4e4   Data           0  s60audiocapturesession.o(.text)
    __sti___26_s60audiocapturesession_cpp    0x0000f657   Thumb Code    58  s60audiocapturesession.o(.text)
    .text                                    0x0000f734   Section      584  S60audiocontainercontrol.o(.text)
    .text                                    0x0000f97c   Section     4216  s60mediaplayercontrol.o(.text)
    |L1.1048|                                0x0000fd94   Data           0  s60mediaplayercontrol.o(.text)
    .text                                    0x000109f4   Section     3316  s60mediaplayerservice.o(.text)
    |L1.2100|                                0x00011228   Data           0  s60mediaplayerservice.o(.text)
    |L1.2128|                                0x00011244   Data           0  s60mediaplayerservice.o(.text)
    |L1.2156|                                0x00011260   Data           0  s60mediaplayerservice.o(.text)
    |L1.2176|                                0x00011274   Data           0  s60mediaplayerservice.o(.text)
    |L1.2196|                                0x00011288   Data           0  s60mediaplayerservice.o(.text)
    |L1.2224|                                0x000112a4   Data           0  s60mediaplayerservice.o(.text)
    |L1.2260|                                0x000112c8   Data           0  s60mediaplayerservice.o(.text)
    |L1.2308|                                0x000112f8   Data           0  s60mediaplayerservice.o(.text)
    |L1.2336|                                0x00011314   Data           0  s60mediaplayerservice.o(.text)
    |L1.2368|                                0x00011334   Data           0  s60mediaplayerservice.o(.text)
    |L1.2400|                                0x00011354   Data           0  s60mediaplayerservice.o(.text)
    |L1.2424|                                0x0001136c   Data           0  s60mediaplayerservice.o(.text)
    |L1.2480|                                0x000113a4   Data           0  s60mediaplayerservice.o(.text)
    |L1.2512|                                0x000113c4   Data           0  s60mediaplayerservice.o(.text)
    |L1.2532|                                0x000113d8   Data           0  s60mediaplayerservice.o(.text)
    |L1.2572|                                0x00011400   Data           0  s60mediaplayerservice.o(.text)
    |L1.2596|                                0x00011418   Data           0  s60mediaplayerservice.o(.text)
    .text                                    0x000116e8   Section     9248  s60mediaplayersession.o(.text)
    |L1.1256|                                0x00011bd0   Data           0  s60mediaplayersession.o(.text)
    |L1.3188|                                0x0001235c   Data           0  s60mediaplayersession.o(.text)
    .text                                    0x00013b08   Section     1044  s60mediametadataprovider.o(.text)
    .text                                    0x00013f1c   Section     9936  s60videoplayersession.o(.text)
    |L1.4420|                                0x00015060   Data           0  s60videoplayersession.o(.text)
    |L1.4428|                                0x00015068   Data           0  s60videoplayersession.o(.text)
    |L1.4432|                                0x0001506c   Data           0  s60videoplayersession.o(.text)
    |L1.4440|                                0x00015074   Data           0  s60videoplayersession.o(.text)
    |L1.4452|                                0x00015080   Data           0  s60videoplayersession.o(.text)
    __sti___25_s60videoplayersession_cpp     0x00016561   Thumb Code    42  s60videoplayersession.o(.text)
    .text                                    0x000165ec   Section     2852  s60videosurface.o(.text)
    .text                                    0x00017110   Section     1204  s60mediarecognizer.o(.text)
    .text                                    0x000175c4   Section     5726  s60audioplayersession.o(.text)
    |L1.400|                                 0x00017754   Data           0  s60audioplayersession.o(.text)
    |L1.1688|                                0x00017c5c   Data           0  s60audioplayersession.o(.text)
    |L1.1692|                                0x00017c60   Data           0  s60audioplayersession.o(.text)
    |L1.1700|                                0x00017c68   Data           0  s60audioplayersession.o(.text)
    |L1.1712|                                0x00017c74   Data           0  s60audioplayersession.o(.text)
    |L1.4288|                                0x00018684   Data           0  s60audioplayersession.o(.text)
    .text                                    0x00018c24   Section     2028  s60mediaplayeraudioendpointselector.o(.text)
    |L1.820|                                 0x00018f58   Data           0  s60mediaplayeraudioendpointselector.o(.text)
    |L1.828|                                 0x00018f60   Data           0  s60mediaplayeraudioendpointselector.o(.text)
    |L1.832|                                 0x00018f64   Data           0  s60mediaplayeraudioendpointselector.o(.text)
    |L1.840|                                 0x00018f6c   Data           0  s60mediaplayeraudioendpointselector.o(.text)
    |L1.852|                                 0x00018f78   Data           0  s60mediaplayeraudioendpointselector.o(.text)
    |L1.1040|                                0x00019034   Data           0  s60mediaplayeraudioendpointselector.o(.text)
    .text                                    0x00019410   Section     1588  s60mediastreamcontrol.o(.text)
    .text                                    0x00019a44   Section     9552  s60radiotunercontrol_since32.o(.text)
    .text                                    0x0001bf94   Section      644  s60radiotunerservice.o(.text)
    .text                                    0x0001c218   Section      896  s60videodisplay.o(.text)
    .text                                    0x0001c598   Section      168  s60videooutpututils.o(.text)
    .text                                    0x0001c640   Section     1508  s60videowidget.o(.text)
    .text                                    0x0001cc24   Section      416  s60videowidgetcontrol.o(.text)
    .text                                    0x0001cdc4   Section     1040  s60videowidgetdisplay.o(.text)
    .text                                    0x0001d1d4   Section      484  s60videowindowcontrol.o(.text)
    .text                                    0x0001d3b8   Section      736  s60videowindowdisplay.o(.text)
    .text                                    0x0001d698   Section       24  switch8.o(.text)
    .text                                    0x0001d6b0   Section       80  uc_dll.o(.text)
    .text                                    0x0001d700   Section      180  ucppfini.o(.text)
    .text                                    0x0001d7b4   Section        4  dllexp.o(.text)
    .text.clean                              0x0001d7b8   Section      116  s60mediaserviceplugin.o(.text.clean)
    .text.clean                              0x0001d82c   Section       68  s60formatsupported.o(.text.clean)
    .text.clean                              0x0001d870   Section      332  s60audioencodercontrol.o(.text.clean)
    .text.clean                              0x0001d9bc   Section      212  s60audiomediarecordercontrol.o(.text.clean)
    .text.clean                              0x0001da90   Section      106  s60audioendpointselector.o(.text.clean)
    .text.clean                              0x0001dafa   Section      142  s60audiocaptureservice.o(.text.clean)
    .text.clean                              0x0001db88   Section     1612  s60audiocapturesession.o(.text.clean)
    .text.clean                              0x0001e1d4   Section       96  S60audiocontainercontrol.o(.text.clean)
    .text.clean                              0x0001e234   Section      540  s60mediaplayercontrol.o(.text.clean)
    .text.clean                              0x0001e450   Section      272  s60mediaplayerservice.o(.text.clean)
    .text.clean                              0x0001e560   Section     1004  s60mediaplayersession.o(.text.clean)
    .text.clean                              0x0001e94c   Section      108  s60mediametadataprovider.o(.text.clean)
    .text.clean                              0x0001e9b8   Section      920  s60videoplayersession.o(.text.clean)
    .text.clean                              0x0001ed50   Section      450  s60videosurface.o(.text.clean)
    .text.clean                              0x0001ef12   Section      128  s60mediarecognizer.o(.text.clean)
    .text.clean                              0x0001ef92   Section      676  s60audioplayersession.o(.text.clean)
    .text.clean                              0x0001f236   Section      362  s60mediaplayeraudioendpointselector.o(.text.clean)
    .text.clean                              0x0001f3a0   Section      172  s60mediastreamcontrol.o(.text.clean)
    .text.clean                              0x0001f44c   Section     1064  s60radiotunercontrol_since32.o(.text.clean)
    .text.clean                              0x0001f874   Section       88  s60radiotunerservice.o(.text.clean)
    .text.clean                              0x0001f8cc   Section       10  s60videodisplay.o(.text.clean)
    .text.clean                              0x0001f8d6   Section       50  s60videowidget.o(.text.clean)
    .text.clean                              0x0001f908   Section       20  s60videowidgetcontrol.o(.text.clean)
    .text.clean                              0x0001f91c   Section       82  s60videowidgetdisplay.o(.text.clean)
    .text.clean                              0x0001f96e   Section       20  s60videowindowcontrol.o(.text.clean)
    .text.clean                              0x0001f982   Section       16  s60videowindowdisplay.o(.text.clean)
    i._Z23qStringComparisonHelperRK7QStringPKc 0x0001f994   Section       76  s60audiocapturesession.o(i._Z23qStringComparisonHelperRK7QStringPKc)
    i._Z23qStringComparisonHelperRK7QStringPKc.clean 0x0001f9e0   Section       10  s60audiocapturesession.o(i._Z23qStringComparisonHelperRK7QStringPKc.clean)
    i._Z6qDebugv                             0x0001f9ea   Section       92  s60audiocapturesession.o(i._Z6qDebugv)
    i._Z6qDebugv.clean                       0x0001fa46   Section       24  s60audiocapturesession.o(i._Z6qDebugv.clean)
    i._Z8qWarningv                           0x0001fa60   Section      128  s60videowidget.o(i._Z8qWarningv)
    i._Z8qWarningv.clean                     0x0001fae0   Section       24  s60videowidget.o(i._Z8qWarningv.clean)
    i._ZN10QByteArrayD1Ev                    0x0001faf8   Section       24  s60audioencodercontrol.o(i._ZN10QByteArrayD1Ev)
    i._ZN11QMetaObject12invokeMethodEP7QObjectPKcN2Qt14ConnectionTypeE16QGenericArgumentS6_S6_S6_S6_S6_S6_S6_S6_S6_ 0x0001fb10   Section      130  s60videowidget.o(i._ZN11QMetaObject12invokeMethodEP7QObjectPKcN2Qt14ConnectionTypeE16QGenericArgumentS6_S6_S6_S6_S6_S6_S6_S6_S6_)
    i._ZN11QStringListC1ERK5QListI7QStringE  0x0001fb92   Section       18  s60audiocapturesession.o(i._ZN11QStringListC1ERK5QListI7QStringE)
    i._ZN11QStringListC1ERKS_                0x0001fba4   Section       38  s60formatsupported.o(i._ZN11QStringListC1ERKS_)
    i._ZN11QStringListC1Ev                   0x0001fbcc   Section       24  s60mediaserviceplugin.o(i._ZN11QStringListC1Ev)
    i._ZN11QStringListD1Ev                   0x0001fbe4   Section       14  s60mediaserviceplugin.o(i._ZN11QStringListD1Ev)
    i._ZN11QStringListlsERK7QString          0x0001fbf2   Section       18  s60audioencodercontrol.o(i._ZN11QStringListlsERK7QString)
    i._ZN12CleanupStack13PopAndDestroyEPv    0x0001fc04   Section       16  s60audiocapturesession.o(i._ZN12CleanupStack13PopAndDestroyEPv)
    i._ZN14ControllerDataC1ERKS_             0x0001fc14   Section       50  s60audiocapturesession.o(i._ZN14ControllerDataC1ERKS_)
    i._ZN14ControllerDataC1ERKS_.clean       0x0001fc46   Section       12  s60audiocapturesession.o(i._ZN14ControllerDataC1ERKS_.clean)
    i._ZN14ControllerDataC1Ev                0x0001fc52   Section       32  s60audiocapturesession.o(i._ZN14ControllerDataC1Ev)
    i._ZN14ControllerDataC1Ev.clean          0x0001fc72   Section       12  s60audiocapturesession.o(i._ZN14ControllerDataC1Ev.clean)
    i._ZN14ControllerDataD1Ev                0x0001fc7e   Section       32  s60audiocapturesession.o(i._ZN14ControllerDataD1Ev)
    i._ZN14ControllerDataD1Ev.clean          0x0001fc9e   Section       12  s60audiocapturesession.o(i._ZN14ControllerDataD1Ev.clean)
    i._ZN15QBasicAtomicInt3refEv             0x0001fcaa   Section       24  s60mediaserviceplugin.o(i._ZN15QBasicAtomicInt3refEv)
    i._ZN15QBasicAtomicInt5derefEv           0x0001fcc2   Section       24  moc_s60mediaserviceplugin.o(i._ZN15QBasicAtomicInt5derefEv)
    i._ZN16S60MediaSettingsD1Ev              0x0001fcda   Section       20  s60mediaplayercontrol.o(i._ZN16S60MediaSettingsD1Ev)
    i._ZN17QFactoryInterfaceD0Ev             0x0001fcee   Section       18  s60mediaserviceplugin.o(i._ZN17QFactoryInterfaceD0Ev)
    i._ZN17QFactoryInterfaceD2Ev             0x0001fd00   Section        2  s60mediaserviceplugin.o(i._ZN17QFactoryInterfaceD2Ev)
    i._ZN17QForeachContainerI11QStringListED1Ev 0x0001fd02   Section       14  s60audiocapturesession.o(i._ZN17QForeachContainerI11QStringListED1Ev)
    i._ZN20S60RadioTunerControl2trEPKcS1_    0x0001fd10   Section       28  s60radiotunercontrol_since32.o(i._ZN20S60RadioTunerControl2trEPKcS1_)
    i._ZN21S60AudioPlayerSession10doLoadUrlLERK7TDesC16 0x0001fd2c   Section        6  moc_s60audioplayersession.o(i._ZN21S60AudioPlayerSession10doLoadUrlLERK7TDesC16)
    i._ZN21S60MediaServicePluginC1Ev         0x0001fd34   Section       88  s60mediaserviceplugin.o(i._ZN21S60MediaServicePluginC1Ev)
    i._ZN21S60MediaServicePluginC1Ev.clean   0x0001fd8c   Section       26  s60mediaserviceplugin.o(i._ZN21S60MediaServicePluginC1Ev.clean)
    i._ZN21S60MediaServicePluginD0Ev         0x0001fda6   Section       22  moc_s60mediaserviceplugin.o(i._ZN21S60MediaServicePluginD0Ev)
    i._ZN21S60MediaServicePluginD1Ev         0x0001fdbc   Section       52  moc_s60mediaserviceplugin.o(i._ZN21S60MediaServicePluginD1Ev)
    i._ZN21S60MediaServicePluginD1Ev.clean   0x0001fdf0   Section       22  moc_s60mediaserviceplugin.o(i._ZN21S60MediaServicePluginD1Ev.clean)
    i._ZN22QGraphicsEffectPrivateD1Ev        0x0001fe06   Section       14  s60videooutpututils.o(i._ZN22QGraphicsEffectPrivateD1Ev)
    i._ZN24S60AudioContainerControlD0Ev      0x0001fe14   Section       28  moc_S60audiocontainercontrol.o(i._ZN24S60AudioContainerControlD0Ev)
    i._ZN24S60AudioContainerControlD1Ev      0x0001fe30   Section       14  moc_S60audiocontainercontrol.o(i._ZN24S60AudioContainerControlD1Ev)
    i._ZN26QGraphicsBlurEffectPrivateD0Ev    0x0001fe3e   Section       22  s60videooutpututils.o(i._ZN26QGraphicsBlurEffectPrivateD0Ev)
    i._ZN26QGraphicsBlurEffectPrivateD1Ev    0x0001fe54   Section       40  s60videooutpututils.o(i._ZN26QGraphicsBlurEffectPrivateD1Ev)
    i._ZN26QGraphicsBlurEffectPrivateD1Ev.clean 0x0001fe7c   Section       10  s60videooutpututils.o(i._ZN26QGraphicsBlurEffectPrivateD1Ev.clean)
    i._ZN27QMediaServiceProviderPluginD2Ev   0x0001fe86   Section       22  moc_s60mediaserviceplugin.o(i._ZN27QMediaServiceProviderPluginD2Ev)
    i._ZN27QMediaServiceProviderPluginD2Ev.clean 0x0001fe9c   Section        4  moc_s60mediaserviceplugin.o(i._ZN27QMediaServiceProviderPluginD2Ev.clean)
    i._ZN28S60AudioMediaRecorderControl13applySettingsEv 0x0001fea0   Section        2  moc_s60audiomediarecordercontrol.o(i._ZN28S60AudioMediaRecorderControl13applySettingsEv)
    i._ZN30QGraphicsColorizeEffectPrivateD0Ev 0x0001fea2   Section       22  s60videooutpututils.o(i._ZN30QGraphicsColorizeEffectPrivateD0Ev)
    i._ZN30QGraphicsColorizeEffectPrivateD1Ev 0x0001feb8   Section       40  s60videooutpututils.o(i._ZN30QGraphicsColorizeEffectPrivateD1Ev)
    i._ZN30QGraphicsColorizeEffectPrivateD1Ev.clean 0x0001fee0   Section       10  s60videooutpututils.o(i._ZN30QGraphicsColorizeEffectPrivateD1Ev.clean)
    i._ZN32QGraphicsDropShadowEffectPrivateD0Ev 0x0001feea   Section       22  s60videooutpututils.o(i._ZN32QGraphicsDropShadowEffectPrivateD0Ev)
    i._ZN32QGraphicsDropShadowEffectPrivateD1Ev 0x0001ff00   Section       40  s60videooutpututils.o(i._ZN32QGraphicsDropShadowEffectPrivateD1Ev)
    i._ZN32QGraphicsDropShadowEffectPrivateD1Ev.clean 0x0001ff28   Section       10  s60videooutpututils.o(i._ZN32QGraphicsDropShadowEffectPrivateD1Ev.clean)
    i._ZN37QMediaServiceProviderFactoryInterfaceD0Ev 0x0001ff32   Section       18  s60mediaserviceplugin.o(i._ZN37QMediaServiceProviderFactoryInterfaceD0Ev)
    i._ZN37QMediaServiceProviderFactoryInterfaceD2Ev 0x0001ff44   Section        2  s60mediaserviceplugin.o(i._ZN37QMediaServiceProviderFactoryInterfaceD2Ev)
    i._ZN38QMediaServiceSupportedFormatsInterfaceD0Ev 0x0001ff46   Section       18  s60mediaserviceplugin.o(i._ZN38QMediaServiceSupportedFormatsInterfaceD0Ev)
    i._ZN38QMediaServiceSupportedFormatsInterfaceD2Ev 0x0001ff58   Section        2  moc_s60mediaserviceplugin.o(i._ZN38QMediaServiceSupportedFormatsInterfaceD2Ev)
    i._ZN5QRectC1Ev                          0x0001ff5a   Section       14  s60videosurface.o(i._ZN5QRectC1Ev)
    i._ZN6QDebug10maybeSpaceEv               0x0001ff68   Section       24  s60audiomediarecordercontrol.o(i._ZN6QDebug10maybeSpaceEv)
    i._ZN6QDebugD1Ev                         0x0001ff80   Section      144  s60audioencodercontrol.o(i._ZN6QDebugD1Ev)
    i._ZN6QDebugD1Ev.clean                   0x00020010   Section       20  s60audioencodercontrol.o(i._ZN6QDebugD1Ev.clean)
    i._ZN6QDebuglsEPKc                       0x00020024   Section       44  s60audiomediarecordercontrol.o(i._ZN6QDebuglsEPKc)
    i._ZN6QDebuglsEPKc.clean                 0x00020050   Section       10  s60audiomediarecordercontrol.o(i._ZN6QDebuglsEPKc.clean)
    i._ZN6QDebuglsERK7QString                0x0002005a   Section       38  s60mediaplayersession.o(i._ZN6QDebuglsERK7QString)
    i._ZN6QDebuglsEb                         0x00020080   Section       40  s60mediaplayersession.o(i._ZN6QDebuglsEb)
    i._ZN6QDebuglsEi                         0x000200a8   Section       22  s60audiocapturesession.o(i._ZN6QDebuglsEi)
    i._ZN6RArrayIjEC1Ev                      0x000200be   Section       14  s60audiocapturesession.o(i._ZN6RArrayIjEC1Ev)
    i._ZN6RArrayIjEixEi                      0x000200cc   Section       16  s60audiocapturesession.o(i._ZN6RArrayIjEixEi)
    i._ZN7QString6appendEPKc                 0x000200dc   Section       40  s60mediaplayersession.o(i._ZN7QString6appendEPKc)
    i._ZN7QString6appendEPKc.clean           0x00020104   Section       10  s60mediaplayersession.o(i._ZN7QString6appendEPKc.clean)
    i._ZN7QStringC1EPKc                      0x0002010e   Section       22  s60formatsupported.o(i._ZN7QStringC1EPKc)
    i._ZN7QStringC1ERK13QLatin1String        0x00020124   Section       26  s60mediaserviceplugin.o(i._ZN7QStringC1ERK13QLatin1String)
    i._ZN7QStringC1ERKS_                     0x0002013e   Section       22  s60mediaserviceplugin.o(i._ZN7QStringC1ERKS_)
    i._ZN7QStringC1Ev                        0x00020154   Section       24  s60audiocapturesession.o(i._ZN7QStringC1Ev)
    i._ZN7QStringD1Ev                        0x0002016c   Section       24  moc_s60mediaserviceplugin.o(i._ZN7QStringD1Ev)
    i._ZN8QVariantC1Ev                       0x00020184   Section       38  s60mediametadataprovider.o(i._ZN8QVariantC1Ev)
    i._ZN9CodecDataC1ERKS_                   0x000201aa   Section       24  s60audiocapturesession.o(i._ZN9CodecDataC1ERKS_)
    i._ZN9CodecDataC1Ev                      0x000201c4   Section       24  s60audiocapturesession.o(i._ZN9CodecDataC1Ev)
    i._ZN9CodecDataD1Ev                      0x000201dc   Section       16  s60audiocapturesession.o(i._ZN9CodecDataD1Ev)
    i._ZN9CodecDataaSERKS_                   0x000201ec   Section       22  s60audiocapturesession.o(i._ZN9CodecDataaSERKS_)
    i._ZN9QHashData8willGrowEv               0x00020202   Section       32  s60audiocapturesession.o(i._ZN9QHashData8willGrowEv)
    i._ZN9QHashData9firstNodeEv              0x00020222   Section       36  s60audiocapturesession.o(i._ZN9QHashData9firstNodeEv)
    i._ZNK15QBasicAtomicIntneEi              0x00020246   Section       16  s60formatsupported.o(i._ZNK15QBasicAtomicIntneEi)
    i._ZNK16S60MediaSettings13audioEndpointEv 0x00020256   Section       20  s60mediaplayeraudioendpointselector.o(i._ZNK16S60MediaSettings13audioEndpointEv)
    i._ZNK21S60MediaPlayerSession13getIsSeekableEv 0x0002026a   Section        6  moc_s60mediaplayersession.o(i._ZNK21S60MediaPlayerSession13getIsSeekableEv)
    i._ZNK5QBoolcvPKvEv                      0x00020270   Section       16  s60audiocapturesession.o(i._ZNK5QBoolcvPKvEv)
    i._ZNK6RArrayIjE5CountEv                 0x00020280   Section       12  s60audiocapturesession.o(i._ZNK6RArrayIjE5CountEv)
    i._ZNK7QStringeqEPKc                     0x0002028c   Section       16  s60audiocapturesession.o(i._ZNK7QStringeqEPKc)
    i._ZNK9QListData3endEv                   0x0002029c   Section       16  s60mediaserviceplugin.o(i._ZNK9QListData3endEv)
    i._ZNK9QListData5beginEv                 0x000202ac   Section       16  s60mediaserviceplugin.o(i._ZNK9QListData5beginEv)
    i._ZThn12_N21S60MediaServicePluginD0Ev   0x000202bc   Section       14  moc_s60mediaserviceplugin.o(i._ZThn12_N21S60MediaServicePluginD0Ev)
    i._ZThn12_N21S60MediaServicePluginD1Ev   0x000202ca   Section       14  moc_s60mediaserviceplugin.o(i._ZThn12_N21S60MediaServicePluginD1Ev)
    i._ZThn8_N21S60MediaServicePluginD0Ev    0x000202d8   Section       14  moc_s60mediaserviceplugin.o(i._ZThn8_N21S60MediaServicePluginD0Ev)
    i._ZThn8_N21S60MediaServicePluginD1Ev    0x000202e6   Section       14  moc_s60mediaserviceplugin.o(i._ZThn8_N21S60MediaServicePluginD1Ev)
    i._ZdlPvS_                               0x000202f4   Section        2  s60mediaserviceplugin.o(i._ZdlPvS_)
    i._ZnwjPv                                0x000202f6   Section        6  s60mediaserviceplugin.o(i._ZnwjPv)
    t._Z15qMapLessThanKeyI7QStringEbRKT_S3_  0x000202fc   Section       16  s60audiocapturesession.o(t._Z15qMapLessThanKeyI7QStringEbRKT_S3_)
    t._Z17CleanupClosePushLI6RArrayIjEEvRT_  0x0002030c   Section       28  s60audiocapturesession.o(t._Z17CleanupClosePushLI6RArrayIjEEvRT_)
    t._Z4qAbsIfET_RKS0_                      0x00020328   Section       28  s60mediaplayercontrol.o(t._Z4qAbsIfET_RKS0_)
    t._Z9qMakePairIiiE5QPairIT_T0_ERKS1_RKS2_ 0x00020344   Section       22  s60radiotunercontrol_since32.o(t._Z9qMakePairIiiE5QPairIT_T0_ERKS1_RKS2_)
    t._ZN12CleanupCloseI6RArrayI4TUidEE5CloseEPv 0x0002035a   Section       14  s60audiocapturesession.o(t._ZN12CleanupCloseI6RArrayI4TUidEE5CloseEPv)
    t._ZN12CleanupCloseI6RArrayI7TFourCCEE5CloseEPv 0x00020368   Section       14  s60audiocapturesession.o(t._ZN12CleanupCloseI6RArrayI7TFourCCEE5CloseEPv)
    t._ZN12CleanupCloseI6RArrayIjEE5CloseEPv 0x00020376   Section       14  s60audiocapturesession.o(t._ZN12CleanupCloseI6RArrayIjEE5CloseEPv)
    t._ZN13RPointerArrayI39CMMFControllerImplementationInformationE15ResetAndDestroyEv 0x00020384   Section       64  s60formatsupported.o(t._ZN13RPointerArrayI39CMMFControllerImplementationInformationE15ResetAndDestroyEv)
    t._ZN14QScopedPointerI18S60MediaRecognizer21QScopedPointerDeleterIS0_EED1Ev 0x000203c4   Section       28  s60mediaplayerservice.o(t._ZN14QScopedPointerI18S60MediaRecognizer21QScopedPointerDeleterIS0_EED1Ev)
    t._ZN14QScopedPointerI7QWidget21QScopedPointerDeleterIS0_EED1Ev 0x000203e0   Section       28  s60videowidgetdisplay.o(t._ZN14QScopedPointerI7QWidget21QScopedPointerDeleterIS0_EED1Ev)
    t._ZN22CleanupResetAndDestroyI13RPointerArrayI39CMMFControllerImplementationInformationEE15ResetAndDestroyEPv 0x000203fc   Section       12  s60audiocapturesession.o(t._ZN22CleanupResetAndDestroyI13RPointerArrayI39CMMFControllerImplementationInformationEE15ResetAndDestroyEPv)
    t._ZN4QMapI7QString8QVariantE11node_createEP8QMapDataPPNS3_4NodeERKS0_RKS1_ 0x00020408   Section      142  s60videoplayersession.o(t._ZN4QMapI7QString8QVariantE11node_createEP8QMapDataPPNS3_4NodeERKS0_RKS1_)
    t._ZN4QMapI7QString8QVariantE11node_createEP8QMapDataPPNS3_4NodeERKS0_RKS1_.clean 0x00020496   Section       38  s60videoplayersession.o(t._ZN4QMapI7QString8QVariantE11node_createEP8QMapDataPPNS3_4NodeERKS0_RKS1_.clean)
    t._ZN4QMapI7QString8QVariantE13detach_helperEv 0x000204bc   Section      148  s60videoplayersession.o(t._ZN4QMapI7QString8QVariantE13detach_helperEv)
    t._ZN4QMapI7QString8QVariantE13detach_helperEv.clean 0x00020550   Section        8  s60videoplayersession.o(t._ZN4QMapI7QString8QVariantE13detach_helperEv.clean)
    t._ZN4QMapI7QString8QVariantE5clearEv    0x00020558   Section      128  s60videoplayersession.o(t._ZN4QMapI7QString8QVariantE5clearEv)
    t._ZN4QMapI7QString8QVariantE5clearEv.clean 0x000205d8   Section       10  s60videoplayersession.o(t._ZN4QMapI7QString8QVariantE5clearEv.clean)
    t._ZN4QMapI7QString8QVariantE8freeDataEP8QMapData 0x000205e2   Section       64  s60mediaplayersession.o(t._ZN4QMapI7QString8QVariantE8freeDataEP8QMapData)
    t._ZN4QMapI7QString8QVariantED1Ev        0x00020622   Section       38  s60mediaplayersession.o(t._ZN4QMapI7QString8QVariantED1Ev)
    t._ZN4QMapI7QStringS0_E11node_createEP8QMapDataPPNS2_4NodeERKS0_S8_ 0x00020648   Section      140  s60audiocapturesession.o(t._ZN4QMapI7QStringS0_E11node_createEP8QMapDataPPNS2_4NodeERKS0_S8_)
    t._ZN4QMapI7QStringS0_E11node_createEP8QMapDataPPNS2_4NodeERKS0_S8_.clean 0x000206d4   Section       38  s60audiocapturesession.o(t._ZN4QMapI7QStringS0_E11node_createEP8QMapDataPPNS2_4NodeERKS0_S8_.clean)
    t._ZN4QMapI7QStringS0_E13detach_helperEv 0x000206fa   Section      146  s60audiocapturesession.o(t._ZN4QMapI7QStringS0_E13detach_helperEv)
    t._ZN4QMapI7QStringS0_E13detach_helperEv.clean 0x0002078c   Section        8  s60audiocapturesession.o(t._ZN4QMapI7QStringS0_E13detach_helperEv.clean)
    t._ZN4QMapI7QStringS0_E8freeDataEP8QMapData 0x00020794   Section       62  s60audiocapturesession.o(t._ZN4QMapI7QStringS0_E8freeDataEP8QMapData)
    t._ZN4QMapI7QStringS0_ED1Ev              0x000207d2   Section       38  s60audiocapturesession.o(t._ZN4QMapI7QStringS0_ED1Ev)
    t._ZN4QMapI7QStringS0_EixERKS0_          0x000207f8   Section      100  s60audiocapturesession.o(t._ZN4QMapI7QStringS0_EixERKS0_)
    t._ZN4QMapI7QStringS0_EixERKS0_.clean    0x0002085c   Section       10  s60audiocapturesession.o(t._ZN4QMapI7QStringS0_EixERKS0_.clean)
    t._ZN5QHashI7QString14ControllerDataE11deleteNode2EPN9QHashData4NodeE 0x00020866   Section       36  s60audiocapturesession.o(t._ZN5QHashI7QString14ControllerDataE11deleteNode2EPN9QHashData4NodeE)
    t._ZN5QHashI7QString14ControllerDataE11deleteNode2EPN9QHashData4NodeE.clean 0x0002088a   Section       12  s60audiocapturesession.o(t._ZN5QHashI7QString14ControllerDataE11deleteNode2EPN9QHashData4NodeE.clean)
    t._ZN5QHashI7QString14ControllerDataE13detach_helperEv 0x00020898   Section       60  s60audiocapturesession.o(t._ZN5QHashI7QString14ControllerDataE13detach_helperEv)
    t._ZN5QHashI7QString14ControllerDataE13duplicateNodeEPN9QHashData4NodeEPv 0x000208d4   Section       46  s60audiocapturesession.o(t._ZN5QHashI7QString14ControllerDataE13duplicateNodeEPN9QHashData4NodeEPv)
    t._ZN5QHashI7QString14ControllerDataE13duplicateNodeEPN9QHashData4NodeEPv.clean 0x00020902   Section       14  s60audiocapturesession.o(t._ZN5QHashI7QString14ControllerDataE13duplicateNodeEPN9QHashData4NodeEPv.clean)
    t._ZN5QHashI7QString14ControllerDataE6detachEv 0x00020910   Section       28  s60audiocapturesession.o(t._ZN5QHashI7QString14ControllerDataE6detachEv)
    t._ZN5QHashI7QString14ControllerDataE8freeDataEP9QHashData 0x0002092c   Section       20  s60audiocapturesession.o(t._ZN5QHashI7QString14ControllerDataE8freeDataEP9QHashData)
    t._ZN5QHashI7QString14ControllerDataED1Ev 0x00020940   Section       30  s60audiocapturesession.o(t._ZN5QHashI7QString14ControllerDataED1Ev)
    t._ZN5QHashI7QString14ControllerDataEixERKS0_ 0x0002095e   Section      196  s60audiocapturesession.o(t._ZN5QHashI7QString14ControllerDataEixERKS0_)
    t._ZN5QHashI7QString14ControllerDataEixERKS0_.clean 0x00020a22   Section       24  s60audiocapturesession.o(t._ZN5QHashI7QString14ControllerDataEixERKS0_.clean)
    t._ZN5QHashI7QString9CodecDataE11deleteNode2EPN9QHashData4NodeE 0x00020a3a   Section       36  s60audiocapturesession.o(t._ZN5QHashI7QString9CodecDataE11deleteNode2EPN9QHashData4NodeE)
    t._ZN5QHashI7QString9CodecDataE11deleteNode2EPN9QHashData4NodeE.clean 0x00020a5e   Section       12  s60audiocapturesession.o(t._ZN5QHashI7QString9CodecDataE11deleteNode2EPN9QHashData4NodeE.clean)
    t._ZN5QHashI7QString9CodecDataE13detach_helperEv 0x00020a6c   Section       60  s60audiocapturesession.o(t._ZN5QHashI7QString9CodecDataE13detach_helperEv)
    t._ZN5QHashI7QString9CodecDataE13duplicateNodeEPN9QHashData4NodeEPv 0x00020aa8   Section       46  s60audiocapturesession.o(t._ZN5QHashI7QString9CodecDataE13duplicateNodeEPN9QHashData4NodeEPv)
    t._ZN5QHashI7QString9CodecDataE13duplicateNodeEPN9QHashData4NodeEPv.clean 0x00020ad6   Section       14  s60audiocapturesession.o(t._ZN5QHashI7QString9CodecDataE13duplicateNodeEPN9QHashData4NodeEPv.clean)
    t._ZN5QHashI7QString9CodecDataE6detachEv 0x00020ae4   Section       28  s60audiocapturesession.o(t._ZN5QHashI7QString9CodecDataE6detachEv)
    t._ZN5QHashI7QString9CodecDataE8freeDataEP9QHashData 0x00020b00   Section       20  s60audiocapturesession.o(t._ZN5QHashI7QString9CodecDataE8freeDataEP9QHashData)
    t._ZN5QHashI7QString9CodecDataED1Ev      0x00020b14   Section       30  s60audiocapturesession.o(t._ZN5QHashI7QString9CodecDataED1Ev)
    t._ZN5QHashI7QString9CodecDataEixERKS0_  0x00020b32   Section      194  s60audiocapturesession.o(t._ZN5QHashI7QString9CodecDataEixERKS0_)
    t._ZN5QHashI7QString9CodecDataEixERKS0_.clean 0x00020bf4   Section       24  s60audiocapturesession.o(t._ZN5QHashI7QString9CodecDataEixERKS0_.clean)
    t._ZN5QListI7QStringE13detach_helperEi   0x00020c0c   Section       94  s60mediaserviceplugin.o(t._ZN5QListI7QStringE13detach_helperEi)
    t._ZN5QListI7QStringE13detach_helperEi.clean 0x00020c6a   Section        8  s60mediaserviceplugin.o(t._ZN5QListI7QStringE13detach_helperEi.clean)
    t._ZN5QListI7QStringE13detach_helperEv   0x00020c72   Section       16  s60mediaserviceplugin.o(t._ZN5QListI7QStringE13detach_helperEv)
    t._ZN5QListI7QStringE13node_destructEPNS1_4NodeES3_ 0x00020c82   Section       26  s60mediaserviceplugin.o(t._ZN5QListI7QStringE13node_destructEPNS1_4NodeES3_)
    t._ZN5QListI7QStringE14node_constructEPNS1_4NodeERKS0_ 0x00020c9c   Section       36  s60mediaserviceplugin.o(t._ZN5QListI7QStringE14node_constructEPNS1_4NodeERKS0_)
    t._ZN5QListI7QStringE14node_constructEPNS1_4NodeERKS0_.clean 0x00020cc0   Section       14  s60mediaserviceplugin.o(t._ZN5QListI7QStringE14node_constructEPNS1_4NodeERKS0_.clean)
    t._ZN5QListI7QStringE18detach_helper_growEii 0x00020cce   Section      208  s60mediaserviceplugin.o(t._ZN5QListI7QStringE18detach_helper_growEii)
    t._ZN5QListI7QStringE18detach_helper_growEii.clean 0x00020d9e   Section       16  s60mediaserviceplugin.o(t._ZN5QListI7QStringE18detach_helper_growEii.clean)
    t._ZN5QListI7QStringE4freeEPN9QListData4DataE 0x00020dae   Section       58  s60mediaserviceplugin.o(t._ZN5QListI7QStringE4freeEPN9QListData4DataE)
    t._ZN5QListI7QStringE5clearEv            0x00020de8   Section       28  s60formatsupported.o(t._ZN5QListI7QStringE5clearEv)
    t._ZN5QListI7QStringE5clearEv.clean      0x00020e04   Section       10  s60formatsupported.o(t._ZN5QListI7QStringE5clearEv.clean)
    t._ZN5QListI7QStringE6appendERKS0_       0x00020e10   Section      120  s60formatsupported.o(t._ZN5QListI7QStringE6appendERKS0_)
    t._ZN5QListI7QStringE6appendERKS0_.clean 0x00020e88   Section       14  s60formatsupported.o(t._ZN5QListI7QStringE6appendERKS0_.clean)
    t._ZN5QListI7QStringE7reserveEi          0x00020e96   Section       46  s60audiocapturesession.o(t._ZN5QListI7QStringE7reserveEi)
    t._ZN5QListI7QStringE9node_copyEPNS1_4NodeES3_S3_ 0x00020ec4   Section       82  s60mediaserviceplugin.o(t._ZN5QListI7QStringE9node_copyEPNS1_4NodeES3_S3_)
    t._ZN5QListI7QStringE9node_copyEPNS1_4NodeES3_S3_.clean 0x00020f16   Section       22  s60mediaserviceplugin.o(t._ZN5QListI7QStringE9node_copyEPNS1_4NodeES3_S3_.clean)
    t._ZN5QListI7QStringEC1ERKS1_            0x00020f2c   Section       36  s60audiocapturesession.o(t._ZN5QListI7QStringEC1ERKS1_)
    t._ZN5QListI7QStringEC1Ev                0x00020f50   Section       24  s60formatsupported.o(t._ZN5QListI7QStringEC1Ev)
    t._ZN5QListI7QStringED1Ev                0x00020f68   Section       32  moc_s60mediaserviceplugin.o(t._ZN5QListI7QStringED1Ev)
    t._ZN5QListI7QStringEaSERKS1_            0x00020f88   Section       64  s60formatsupported.o(t._ZN5QListI7QStringEaSERKS1_)
    t._ZN5QListI7QStringEixEi                0x00020fc8   Section       52  s60audiocapturesession.o(t._ZN5QListI7QStringEixEi)
    t._ZN5QListI7QStringEpLERKS1_            0x00020ffc   Section      160  s60formatsupported.o(t._ZN5QListI7QStringEpLERKS1_)
    t._ZN5QListI7QStringEpLERKS1_.clean      0x0002109c   Section        8  s60formatsupported.o(t._ZN5QListI7QStringEpLERKS1_.clean)
    t._ZN5QListIN11QVideoFrame11PixelFormatEE4freeEPN9QListData4DataE 0x000210a4   Section       70  s60videosurface.o(t._ZN5QListIN11QVideoFrame11PixelFormatEE4freeEPN9QListData4DataE)
    t._ZN5QListIN11QVideoFrame11PixelFormatEEC1Ev 0x000210ec   Section       24  s60videosurface.o(t._ZN5QListIN11QVideoFrame11PixelFormatEEC1Ev)
    t._ZN5QListIN11QVideoFrame11PixelFormatEED1Ev 0x00021104   Section       32  s60videosurface.o(t._ZN5QListIN11QVideoFrame11PixelFormatEED1Ev)
    t._ZN5QListIN15QtMultimediaKit8MetaDataEE13node_destructEPNS2_4NodeES4_ 0x00021124   Section       26  s60mediaplayersession.o(t._ZN5QListIN15QtMultimediaKit8MetaDataEE13node_destructEPNS2_4NodeES4_)
    t._ZN5QListIN15QtMultimediaKit8MetaDataEE14node_constructEPNS2_4NodeERKS1_ 0x0002113e   Section       30  s60mediaplayersession.o(t._ZN5QListIN15QtMultimediaKit8MetaDataEE14node_constructEPNS2_4NodeERKS1_)
    t._ZN5QListIN15QtMultimediaKit8MetaDataEE18detach_helper_growEii 0x0002115c   Section      208  s60mediaplayersession.o(t._ZN5QListIN15QtMultimediaKit8MetaDataEE18detach_helper_growEii)
    t._ZN5QListIN15QtMultimediaKit8MetaDataEE18detach_helper_growEii.clean 0x0002122c   Section       16  s60mediaplayersession.o(t._ZN5QListIN15QtMultimediaKit8MetaDataEE18detach_helper_growEii.clean)
    t._ZN5QListIN15QtMultimediaKit8MetaDataEE4freeEPN9QListData4DataE 0x0002123c   Section       58  s60mediaplayersession.o(t._ZN5QListIN15QtMultimediaKit8MetaDataEE4freeEPN9QListData4DataE)
    t._ZN5QListIN15QtMultimediaKit8MetaDataEE6appendERKS1_ 0x00021278   Section      112  s60mediaplayersession.o(t._ZN5QListIN15QtMultimediaKit8MetaDataEE6appendERKS1_)
    t._ZN5QListIN15QtMultimediaKit8MetaDataEE6appendERKS1_.clean 0x000212e8   Section       14  s60mediaplayersession.o(t._ZN5QListIN15QtMultimediaKit8MetaDataEE6appendERKS1_.clean)
    t._ZN5QListIN15QtMultimediaKit8MetaDataEE9node_copyEPNS2_4NodeES4_S4_ 0x000212f6   Section       78  s60mediaplayersession.o(t._ZN5QListIN15QtMultimediaKit8MetaDataEE9node_copyEPNS2_4NodeES4_S4_)
    t._ZN5QListIN15QtMultimediaKit8MetaDataEE9node_copyEPNS2_4NodeES4_S4_.clean 0x00021344   Section        8  s60mediaplayersession.o(t._ZN5QListIN15QtMultimediaKit8MetaDataEE9node_copyEPNS2_4NodeES4_S4_.clean)
    t._ZN5QListIN15QtMultimediaKit8MetaDataEED1Ev 0x0002134c   Section       32  s60mediaplayersession.o(t._ZN5QListIN15QtMultimediaKit8MetaDataEED1Ev)
    t._ZN5QListIiE13detach_helperEi          0x0002136c   Section       94  s60audiocapturesession.o(t._ZN5QListIiE13detach_helperEi)
    t._ZN5QListIiE13detach_helperEi.clean    0x000213ca   Section        8  s60audiocapturesession.o(t._ZN5QListIiE13detach_helperEi.clean)
    t._ZN5QListIiE13detach_helperEv          0x000213d2   Section       16  s60audiocapturesession.o(t._ZN5QListIiE13detach_helperEv)
    t._ZN5QListIiE18detach_helper_growEii    0x000213e2   Section      204  s60audiocapturesession.o(t._ZN5QListIiE18detach_helper_growEii)
    t._ZN5QListIiE18detach_helper_growEii.clean 0x000214ae   Section       16  s60audiocapturesession.o(t._ZN5QListIiE18detach_helper_growEii.clean)
    t._ZN5QListIiE4freeEPN9QListData4DataE   0x000214be   Section       58  s60audiocapturesession.o(t._ZN5QListIiE4freeEPN9QListData4DataE)
    t._ZN5QListIiE5clearEv                   0x000214f8   Section       28  s60audiocapturesession.o(t._ZN5QListIiE5clearEv)
    t._ZN5QListIiE5clearEv.clean             0x00021514   Section       10  s60audiocapturesession.o(t._ZN5QListIiE5clearEv.clean)
    t._ZN5QListIiE6appendERKi                0x00021520   Section      100  s60audiocapturesession.o(t._ZN5QListIiE6appendERKi)
    t._ZN5QListIiE6appendERKi.clean          0x00021584   Section       10  s60audiocapturesession.o(t._ZN5QListIiE6appendERKi.clean)
    t._ZN5QListIiE9node_copyEPNS0_4NodeES2_S2_ 0x0002158e   Section       46  s60audiocapturesession.o(t._ZN5QListIiE9node_copyEPNS0_4NodeES2_S2_)
    t._ZN5QListIiEC1Ev                       0x000215bc   Section       24  s60audiocapturesession.o(t._ZN5QListIiEC1Ev)
    t._ZN5QListIiED1Ev                       0x000215d4   Section       32  s60audiocapturesession.o(t._ZN5QListIiED1Ev)
    t._ZN5QListIiEaSERKS0_                   0x000215f4   Section       64  s60audiocapturesession.o(t._ZN5QListIiEaSERKS0_)
    t._ZN5QListIiElsERKi                     0x00021634   Section       18  s60audiocapturesession.o(t._ZN5QListIiElsERKi)
    t._ZN5QPairIiiEC1Ev                      0x00021646   Section        8  s60videosurface.o(t._ZN5QPairIiiEC1Ev)
    t._ZN7QVectorIiE4freeEP16QVectorTypedDataIiE 0x0002164e   Section       24  s60videosurface.o(t._ZN7QVectorIiE4freeEP16QVectorTypedDataIiE)
    t._ZN7QVectorIiED1Ev                     0x00021666   Section       34  s60videosurface.o(t._ZN7QVectorIiED1Ev)
    t._ZN8QPointerI7QObjectED1Ev             0x00021688   Section       14  s60mediaserviceplugin.o(t._ZN8QPointerI7QObjectED1Ev)
    t._ZN9QHashNodeI7QString14ControllerDataEC1ERKS0_RKS1_ 0x00021696   Section       40  s60audiocapturesession.o(t._ZN9QHashNodeI7QString14ControllerDataEC1ERKS0_RKS1_)
    t._ZN9QHashNodeI7QString14ControllerDataEC1ERKS0_RKS1_.clean 0x000216be   Section       12  s60audiocapturesession.o(t._ZN9QHashNodeI7QString14ControllerDataEC1ERKS0_RKS1_.clean)
    t._ZN9QHashNodeI7QString9CodecDataEC1ERKS0_RKS1_ 0x000216ca   Section       40  s60audiocapturesession.o(t._ZN9QHashNodeI7QString9CodecDataEC1ERKS0_RKS1_)
    t._ZN9QHashNodeI7QString9CodecDataEC1ERKS0_RKS1_.clean 0x000216f2   Section       12  s60audiocapturesession.o(t._ZN9QHashNodeI7QString9CodecDataEC1ERKS0_RKS1_.clean)
    t._ZNK13RPointerArrayI35CMMFFormatImplementationInformationEixEi 0x000216fe   Section       16  s60audiocapturesession.o(t._ZNK13RPointerArrayI35CMMFFormatImplementationInformationEixEi)
    t._ZNK4QMapI7QString8QVariantE15mutableFindNodeEPPN8QMapData4NodeERKS0_ 0x0002170e   Section      116  s60videoplayersession.o(t._ZNK4QMapI7QString8QVariantE15mutableFindNodeEPPN8QMapData4NodeERKS0_)
    t._ZNK4QMapI7QString8QVariantE4keysEv    0x00021784   Section      116  s60mediaplayersession.o(t._ZNK4QMapI7QString8QVariantE4keysEv)
    t._ZNK4QMapI7QString8QVariantE4keysEv.clean 0x000217f8   Section       10  s60mediaplayersession.o(t._ZNK4QMapI7QString8QVariantE4keysEv.clean)
    t._ZNK4QMapI7QString8QVariantE5valueERKS0_ 0x00021802   Section      198  s60mediaplayersession.o(t._ZNK4QMapI7QString8QVariantE5valueERKS0_)
    t._ZNK4QMapI7QStringS0_E15mutableFindNodeEPPN8QMapData4NodeERKS0_ 0x000218c8   Section      108  s60audiocapturesession.o(t._ZNK4QMapI7QStringS0_E15mutableFindNodeEPPN8QMapData4NodeERKS0_)
    t._ZNK4QMapI7QStringS0_E4keysEv          0x00021934   Section      104  s60audiocapturesession.o(t._ZNK4QMapI7QStringS0_E4keysEv)
    t._ZNK4QMapI7QStringS0_E4keysEv.clean    0x0002199c   Section       10  s60audiocapturesession.o(t._ZNK4QMapI7QStringS0_E4keysEv.clean)
    t._ZNK5QHashI7QString14ControllerDataE4keysEv 0x000219a6   Section      108  s60audiocapturesession.o(t._ZNK5QHashI7QString14ControllerDataE4keysEv)
    t._ZNK5QHashI7QString14ControllerDataE4keysEv.clean 0x00021a12   Section       10  s60audiocapturesession.o(t._ZNK5QHashI7QString14ControllerDataE4keysEv.clean)
    t._ZNK5QHashI7QString14ControllerDataE5valueERKS0_ 0x00021a1c   Section       68  s60audiocapturesession.o(t._ZNK5QHashI7QString14ControllerDataE5valueERKS0_)
    t._ZNK5QHashI7QString14ControllerDataE8containsERKS0_ 0x00021a60   Section       32  s60audiocapturesession.o(t._ZNK5QHashI7QString14ControllerDataE8containsERKS0_)
    t._ZNK5QHashI7QString14ControllerDataE8findNodeERKS0_Pj 0x00021a80   Section      116  s60audiocapturesession.o(t._ZNK5QHashI7QString14ControllerDataE8findNodeERKS0_Pj)
    t._ZNK5QHashI7QString9CodecDataE4keysEv  0x00021af4   Section      108  s60audiocapturesession.o(t._ZNK5QHashI7QString9CodecDataE4keysEv)
    t._ZNK5QHashI7QString9CodecDataE4keysEv.clean 0x00021b60   Section       10  s60audiocapturesession.o(t._ZNK5QHashI7QString9CodecDataE4keysEv.clean)
    t._ZNK5QHashI7QString9CodecDataE5valueERKS0_ 0x00021b6a   Section       66  s60audiocapturesession.o(t._ZNK5QHashI7QString9CodecDataE5valueERKS0_)
    t._ZNK5QHashI7QString9CodecDataE8findNodeERKS0_Pj 0x00021bac   Section      116  s60audiocapturesession.o(t._ZNK5QHashI7QString9CodecDataE8findNodeERKS0_Pj)
    t._ZNK5QListI7QStringE7isEmptyEv         0x00021c20   Section       24  s60formatsupported.o(t._ZNK5QListI7QStringE7isEmptyEv)
    t._ZNK5QListI7QStringE8containsERKS0_    0x00021c38   Section       74  s60audiocapturesession.o(t._ZNK5QListI7QStringE8containsERKS0_)
    .extab._ZN21S60MediaServicePluginD1Ev    0x00021c84   Data           0  moc_s60mediaserviceplugin.o(.ARM.extab)
    .extab.qt_plugin_instance                0x00021c94   Data           0  s60mediaserviceplugin.o(.ARM.extab)
    .extab._ZNK21S60MediaServicePlugin4keysEv 0x00021cac   Data           0  s60mediaserviceplugin.o(.ARM.extab)
    .extab._ZN21S60MediaServicePlugin6createERK7QString 0x00021cec   Data           0  s60mediaserviceplugin.o(.ARM.extab)
    .extab._ZNK21S60MediaServicePlugin18supportedMimeTypesEv 0x00021d0c   Data           0  s60mediaserviceplugin.o(.ARM.extab)
    .extab._ZN5QListI7QStringE9node_copyEPNS1_4NodeES3_S3_ 0x00021d44   Data           0  s60mediaserviceplugin.o(.ARM.extab)
    .extab._ZN5QListI7QStringE13detach_helperEi 0x00021d68   Data           0  s60mediaserviceplugin.o(.ARM.extab)
    .extab._ZN5QListI7QStringE14node_constructEPNS1_4NodeERKS0_ 0x00021d84   Data           0  s60mediaserviceplugin.o(.ARM.extab)
    .extab._ZN5QListI7QStringE18detach_helper_growEii 0x00021d94   Data           0  s60mediaserviceplugin.o(.ARM.extab)
    .extab._ZN21S60MediaServicePluginC1Ev    0x00021dc4   Data           0  s60mediaserviceplugin.o(.ARM.extab)
    .extab._ZN18S60FormatSupportedD1Ev       0x00021dd4   Data           0  s60formatsupported.o(.ARM.extab)
    .extab._ZN18S60FormatSupported23supportedPlayMimeTypesLEv 0x00021de4   Data           0  s60formatsupported.o(.ARM.extab)
    .extab._ZN5QListI7QStringE5clearEv       0x00021e3c   Data           0  s60formatsupported.o(.ARM.extab)
    .extab._ZN5QListI7QStringE6appendERKS0_  0x00021e4c   Data           0  s60formatsupported.o(.ARM.extab)
    .extab._ZN5QListI7QStringEpLERKS1_       0x00021e7c   Data           0  s60formatsupported.o(.ARM.extab)
    .extab._ZN22S60AudioEncoderControlC1EP7QObjectS1_ 0x00021e98   Data           0  s60audioencodercontrol.o(.ARM.extab)
    .extab._ZN22S60AudioEncoderControlD1Ev   0x00021f10   Data           0  s60audioencodercontrol.o(.ARM.extab)
    .extab._ZNK22S60AudioEncoderControl20supportedAudioCodecsEv 0x00021f48   Data           0  s60audioencodercontrol.o(.ARM.extab)
    .extab._ZNK22S60AudioEncoderControl16codecDescriptionERK7QString 0x00021f58   Data           0  s60audioencodercontrol.o(.ARM.extab)
    .extab._ZNK22S60AudioEncoderControl20supportedSampleRatesERK21QAudioEncoderSettingsPb 0x00021f68   Data           0  s60audioencodercontrol.o(.ARM.extab)
    .extab._ZNK22S60AudioEncoderControl13audioSettingsEv 0x00021f78   Data           0  s60audioencodercontrol.o(.ARM.extab)
    .extab._ZN22S60AudioEncoderControl10setQualityEN15QtMultimediaKit15EncodingQualityER12QAudioFormat 0x00021f88   Data           0  s60audioencodercontrol.o(.ARM.extab)
    .extab._ZN22S60AudioEncoderControl16setAudioSettingsERK21QAudioEncoderSettings 0x00021fa0   Data           0  s60audioencodercontrol.o(.ARM.extab)
    .extab._ZNK22S60AudioEncoderControl24supportedEncodingOptionsERK7QString 0x00021fe8   Data           0  s60audioencodercontrol.o(.ARM.extab)
    .extab._ZNK22S60AudioEncoderControl7qualityEv 0x00022030   Data           0  s60audioencodercontrol.o(.ARM.extab)
    .extab._ZNK22S60AudioEncoderControl14encodingOptionERK7QStringS2_ 0x00022040   Data           0  s60audioencodercontrol.o(.ARM.extab)
    .extab._ZN22S60AudioEncoderControl17setEncodingOptionERK7QStringS2_RK8QVariant 0x00022098   Data           0  s60audioencodercontrol.o(.ARM.extab)
    .extab._ZN6QDebugD1Ev                    0x000220e8   Data           0  s60audioencodercontrol.o(.ARM.extab)
    .extab._ZN28S60AudioMediaRecorderControlC1EP7QObjectS1_ 0x0002210c   Data           0  s60audiomediarecordercontrol.o(.ARM.extab)
    .extab._ZN28S60AudioMediaRecorderControlD1Ev 0x0002213c   Data           0  s60audiomediarecordercontrol.o(.ARM.extab)
    .extab._ZNK28S60AudioMediaRecorderControl14outputLocationEv 0x0002216c   Data           0  s60audiomediarecordercontrol.o(.ARM.extab)
    .extab._ZN28S60AudioMediaRecorderControl17setOutputLocationERK4QUrl 0x0002217c   Data           0  s60audiomediarecordercontrol.o(.ARM.extab)
    .extab._ZNK28S60AudioMediaRecorderControl5stateEv 0x0002218c   Data           0  s60audiomediarecordercontrol.o(.ARM.extab)
    .extab._ZNK28S60AudioMediaRecorderControl7isMutedEv 0x0002219c   Data           0  s60audiomediarecordercontrol.o(.ARM.extab)
    .extab._ZNK28S60AudioMediaRecorderControl12convertStateEN22S60AudioCaptureSession18TAudioCaptureStateE 0x000221ac   Data           0  s60audiomediarecordercontrol.o(.ARM.extab)
    .extab._ZN28S60AudioMediaRecorderControl6recordEv 0x000221cc   Data           0  s60audiomediarecordercontrol.o(.ARM.extab)
    .extab._ZN28S60AudioMediaRecorderControl5pauseEv 0x000221e4   Data           0  s60audiomediarecordercontrol.o(.ARM.extab)
    .extab._ZN28S60AudioMediaRecorderControl4stopEv 0x000221fc   Data           0  s60audiomediarecordercontrol.o(.ARM.extab)
    .extab._ZN28S60AudioMediaRecorderControl8setMutedEb 0x00022214   Data           0  s60audiomediarecordercontrol.o(.ARM.extab)
    .extab._ZN28S60AudioMediaRecorderControl11updateStateEN22S60AudioCaptureSession18TAudioCaptureStateE 0x00022234   Data           0  s60audiomediarecordercontrol.o(.ARM.extab)
    .extab._ZN6QDebuglsEPKc                  0x0002224c   Data           0  s60audiomediarecordercontrol.o(.ARM.extab)
    .extab._ZN24S60AudioEndpointSelectorC1EP7QObjectS1_ 0x0002225c   Data           0  s60audioendpointselector.o(.ARM.extab)
    .extab._ZN24S60AudioEndpointSelectorD1Ev 0x0002228c   Data           0  s60audioendpointselector.o(.ARM.extab)
    .extab._ZNK24S60AudioEndpointSelector18availableEndpointsEv 0x000222bc   Data           0  s60audioendpointselector.o(.ARM.extab)
    .extab._ZNK24S60AudioEndpointSelector19endpointDescriptionERK7QString 0x000222cc   Data           0  s60audioendpointselector.o(.ARM.extab)
    .extab._ZNK24S60AudioEndpointSelector15defaultEndpointEv 0x000222dc   Data           0  s60audioendpointselector.o(.ARM.extab)
    .extab._ZNK24S60AudioEndpointSelector14activeEndpointEv 0x000222ec   Data           0  s60audioendpointselector.o(.ARM.extab)
    .extab._ZN24S60AudioEndpointSelector17setActiveEndpointERK7QString 0x000222fc   Data           0  s60audioendpointselector.o(.ARM.extab)
    .extab._ZN22S60AudioCaptureServiceC1EP7QObject 0x00022314   Data           0  s60audiocaptureservice.o(.ARM.extab)
    .extab._ZN22S60AudioCaptureServiceD1Ev   0x00022394   Data           0  s60audiocaptureservice.o(.ARM.extab)
    .extab._ZN22S60AudioCaptureService14requestControlEPKc 0x000223c4   Data           0  s60audiocaptureservice.o(.ARM.extab)
    .extab._ZN22S60AudioCaptureService14releaseControlEP13QMediaControl 0x000223d4   Data           0  s60audiocaptureservice.o(.ARM.extab)
    .extab._ZN22S60AudioCaptureSession4stopEv 0x000223ec   Data           0  s60audiocapturesession.o(.ARM.extab)
    .extab._ZN22S60AudioCaptureSession33fromSymbianErrorToMultimediaErrorEi 0x000223fc   Data           0  s60audiocapturesession.o(.ARM.extab)
    .extab._ZN22S60AudioCaptureSession8setErrorEi 0x0002241c   Data           0  s60audiocapturesession.o(.ARM.extab)
    .extab._ZN22S60AudioCaptureSession15initAudioInputsEv 0x00022464   Data           0  s60audiocapturesession.o(.ARM.extab)
    .extab._ZN22S60AudioCaptureSession18setDefaultSettingsEv 0x00022494   Data           0  s60audiocapturesession.o(.ARM.extab)
    .extab._ZN22S60AudioCaptureSession24populateAudioCodecsDataLEv 0x000224ec   Data           0  s60audiocapturesession.o(.ARM.extab)
    .extab._ZN22S60AudioCaptureSession22updateAudioContainersLEv 0x000225cc   Data           0  s60audiocapturesession.o(.ARM.extab)
    .extab._ZN22S60AudioCaptureSession18initializeSessionLEv 0x0002261c   Data           0  s60audiocapturesession.o(.ARM.extab)
    .extab._ZN22S60AudioCaptureSessionC1EP7QObject 0x00022634   Data           0  s60audiocapturesession.o(.ARM.extab)
    .extab._ZN22S60AudioCaptureSessionD1Ev   0x00022704   Data           0  s60audiocapturesession.o(.ARM.extab)
    .extab._ZNK22S60AudioCaptureSession6formatEv 0x0002277c   Data           0  s60audiocapturesession.o(.ARM.extab)
    .extab._ZN22S60AudioCaptureSession9setFormatERK12QAudioFormat 0x0002278c   Data           0  s60audiocapturesession.o(.ARM.extab)
    .extab._ZNK22S60AudioCaptureSession8settingsEv 0x000227a4   Data           0  s60audiocapturesession.o(.ARM.extab)
    .extab._ZN22S60AudioCaptureSession18setEncoderSettingsERK21QAudioEncoderSettings 0x000227b4   Data           0  s60audiocapturesession.o(.ARM.extab)
    .extab._ZNK22S60AudioCaptureSession20supportedAudioCodecsEv 0x000227cc   Data           0  s60audiocapturesession.o(.ARM.extab)
    .extab._ZN22S60AudioCaptureSession16codecDescriptionERK7QString 0x000227e4   Data           0  s60audiocapturesession.o(.ARM.extab)
    .extab._ZN22S60AudioCaptureSession13setAudioCodecERK7QString 0x00022814   Data           0  s60audiocapturesession.o(.ARM.extab)
    .extab._ZNK22S60AudioCaptureSession10audioCodecEv 0x0002282c   Data           0  s60audiocapturesession.o(.ARM.extab)
    .extab._ZNK22S60AudioCaptureSession14audioContainerEv 0x0002283c   Data           0  s60audiocapturesession.o(.ARM.extab)
    .extab._ZNK22S60AudioCaptureSession24supportedAudioContainersEv 0x0002284c   Data           0  s60audiocapturesession.o(.ARM.extab)
    .extab._ZN22S60AudioCaptureSession17setAudioContainerERK7QString 0x00022864   Data           0  s60audiocapturesession.o(.ARM.extab)
    .extab._ZN22S60AudioCaptureSession25audioContainerDescriptionERK7QString 0x0002288c   Data           0  s60audiocapturesession.o(.ARM.extab)
    .extab._ZNK22S60AudioCaptureSession25supportedAudioSampleRatesERK21QAudioEncoderSettings 0x000228bc   Data           0  s60audiocapturesession.o(.ARM.extab)
    .extab._ZNK22S60AudioCaptureSession14outputLocationEv 0x000228f4   Data           0  s60audiocapturesession.o(.ARM.extab)
    .extab._ZN22S60AudioCaptureSession17setOutputLocationERK4QUrl 0x00022904   Data           0  s60audiocapturesession.o(.ARM.extab)
    .extab._ZNK22S60AudioCaptureSession8positionEv 0x00022964   Data           0  s60audiocapturesession.o(.ARM.extab)
    .extab._ZN22S60AudioCaptureSession12prepareSinkLEv 0x00022974   Data           0  s60audiocapturesession.o(.ARM.extab)
    .extab._ZN22S60AudioCaptureSession6recordEv 0x00022a94   Data           0  s60audiocapturesession.o(.ARM.extab)
    .extab._ZN22S60AudioCaptureSession5pauseEv 0x00022b14   Data           0  s60audiocapturesession.o(.ARM.extab)
    .extab._ZN22S60AudioCaptureSession4muteEb 0x00022b2c   Data           0  s60audiocapturesession.o(.ARM.extab)
    .extab._ZN22S60AudioCaptureSession5mutedEv 0x00022b44   Data           0  s60audiocapturesession.o(.ARM.extab)
    .extab._ZNK22S60AudioCaptureSession32qStringFromTAudioInputPreferenceEN11CAudioInput21TAudioInputPreferenceE 0x00022b54   Data           0  s60audiocapturesession.o(.ARM.extab)
    .extab._ZNK22S60AudioCaptureSession14activeEndpointEv 0x00022b64   Data           0  s60audiocapturesession.o(.ARM.extab)
    .extab._ZNK22S60AudioCaptureSession15defaultEndpointEv 0x00022b8c   Data           0  s60audiocapturesession.o(.ARM.extab)
    .extab._ZNK22S60AudioCaptureSession18availableEndpointsEv 0x00022b9c   Data           0  s60audiocapturesession.o(.ARM.extab)
    .extab._ZNK22S60AudioCaptureSession19endpointDescriptionERK7QString 0x00022bac   Data           0  s60audiocapturesession.o(.ARM.extab)
    .extab._ZN22S60AudioCaptureSession34retrieveSupportedAudioSampleRatesLEv 0x00022bc4   Data           0  s60audiocapturesession.o(.ARM.extab)
    .extab._ZN22S60AudioCaptureSession18determinePCMFormatEv 0x00022be4   Data           0  s60audiocapturesession.o(.ARM.extab)
    .extab._ZN22S60AudioCaptureSession16doSetAudioInputLERK7QString 0x00022bfc   Data           0  s60audiocapturesession.o(.ARM.extab)
    .extab._ZN22S60AudioCaptureSession19applyAudioSettingsLEv 0x00022c44   Data           0  s60audiocapturesession.o(.ARM.extab)
    .extab._ZN22S60AudioCaptureSession22MoscoStateChangeEventLEP5CBaseiii 0x00022cdc   Data           0  s60audiocapturesession.o(.ARM.extab)
    .extab._ZN22S60AudioCaptureSession21MoscoStateChangeEventEP5CBaseiii 0x00022d24   Data           0  s60audiocapturesession.o(.ARM.extab)
    .extab._ZThn8_N22S60AudioCaptureSession21MoscoStateChangeEventEP5CBaseiii 0x00022d6c   Data           0  s60audiocapturesession.o(.ARM.extab)
    .extab._ZN22S60AudioCaptureSession17setActiveEndpointERK7QString 0x00022db4   Data           0  s60audiocapturesession.o(.ARM.extab)
    .extab.__sti___26_s60audiocapturesession_cpp 0x00022ddc   Data           0  s60audiocapturesession.o(.ARM.extab)
    .extab._Z23qStringComparisonHelperRK7QStringPKc 0x00022dfc   Data           0  s60audiocapturesession.o(.ARM.extab)
    .extab._Z6qDebugv                        0x00022e0c   Data           0  s60audiocapturesession.o(.ARM.extab)
    .extab._ZN14ControllerDataC1Ev           0x00022e24   Data           0  s60audiocapturesession.o(.ARM.extab)
    .extab._ZN14ControllerDataC1ERKS_        0x00022e34   Data           0  s60audiocapturesession.o(.ARM.extab)
    .extab._ZN4QMapI7QStringS0_E11node_createEP8QMapDataPPNS2_4NodeERKS0_S8_ 0x00022e44   Data           0  s60audiocapturesession.o(.ARM.extab)
    .extab._ZN4QMapI7QStringS0_E13detach_helperEv 0x00022e90   Data           0  s60audiocapturesession.o(.ARM.extab)
    .extab._ZN4QMapI7QStringS0_EixERKS0_     0x00022eac   Data           0  s60audiocapturesession.o(.ARM.extab)
    .extab._ZNK5QHashI7QString9CodecDataE4keysEv 0x00022ebc   Data           0  s60audiocapturesession.o(.ARM.extab)
    .extab._ZNK5QHashI7QString14ControllerDataE4keysEv 0x00022ecc   Data           0  s60audiocapturesession.o(.ARM.extab)
    .extab._ZN5QListIiE18detach_helper_growEii 0x00022edc   Data           0  s60audiocapturesession.o(.ARM.extab)
    .extab._ZN5QListIiE6appendERKi           0x00022f0c   Data           0  s60audiocapturesession.o(.ARM.extab)
    .extab._ZN9QHashNodeI7QString9CodecDataEC1ERKS0_RKS1_ 0x00022f28   Data           0  s60audiocapturesession.o(.ARM.extab)
    .extab._ZN5QHashI7QString9CodecDataEixERKS0_ 0x00022f38   Data           0  s60audiocapturesession.o(.ARM.extab)
    .extab._ZN9QHashNodeI7QString14ControllerDataEC1ERKS0_RKS1_ 0x00022f58   Data           0  s60audiocapturesession.o(.ARM.extab)
    .extab._ZN5QListIiE13detach_helperEi     0x00022f68   Data           0  s60audiocapturesession.o(.ARM.extab)
    .extab._ZNK4QMapI7QStringS0_E4keysEv     0x00022f84   Data           0  s60audiocapturesession.o(.ARM.extab)
    .extab._ZN5QListIiE5clearEv              0x00022f94   Data           0  s60audiocapturesession.o(.ARM.extab)
    .extab._ZN14ControllerDataD1Ev           0x00022fa4   Data           0  s60audiocapturesession.o(.ARM.extab)
    .extab._ZN5QHashI7QString9CodecDataE11deleteNode2EPN9QHashData4NodeE 0x00022fb4   Data           0  s60audiocapturesession.o(.ARM.extab)
    .extab._ZN5QHashI7QString14ControllerDataE11deleteNode2EPN9QHashData4NodeE 0x00022fc4   Data           0  s60audiocapturesession.o(.ARM.extab)
    .extab._ZN5QHashI7QString9CodecDataE13duplicateNodeEPN9QHashData4NodeEPv 0x00022fd4   Data           0  s60audiocapturesession.o(.ARM.extab)
    .extab._ZN5QHashI7QString14ControllerDataE13duplicateNodeEPN9QHashData4NodeEPv 0x00022fe4   Data           0  s60audiocapturesession.o(.ARM.extab)
    .extab._ZN5QHashI7QString14ControllerDataEixERKS0_ 0x00022ff4   Data           0  s60audiocapturesession.o(.ARM.extab)
    .extab._ZN24S60AudioContainerControlC1EP7QObject 0x00023014   Data           0  S60audiocontainercontrol.o(.ARM.extab)
    .extab._ZN24S60AudioContainerControlC1EP7QObjectS1_ 0x00023044   Data           0  S60audiocontainercontrol.o(.ARM.extab)
    .extab._ZNK24S60AudioContainerControl19supportedContainersEv 0x00023074   Data           0  S60audiocontainercontrol.o(.ARM.extab)
    .extab._ZNK24S60AudioContainerControl17containerMimeTypeEv 0x00023084   Data           0  S60audiocontainercontrol.o(.ARM.extab)
    .extab._ZN24S60AudioContainerControl20setContainerMimeTypeERK7QString 0x00023094   Data           0  S60audiocontainercontrol.o(.ARM.extab)
    .extab._ZNK24S60AudioContainerControl20containerDescriptionERK7QString 0x000230ac   Data           0  S60audiocontainercontrol.o(.ARM.extab)
    .extab._ZN21S60MediaPlayerControlC1ER23MS60MediaPlayerResolverP7QObject 0x000230bc   Data           0  s60mediaplayercontrol.o(.ARM.extab)
    .extab._ZN21S60MediaPlayerControlD1Ev    0x00023104   Data           0  s60mediaplayercontrol.o(.ARM.extab)
    .extab._ZNK21S60MediaPlayerControl5stateEv 0x00023144   Data           0  s60mediaplayercontrol.o(.ARM.extab)
    .extab._ZNK21S60MediaPlayerControl11mediaStatusEv 0x00023154   Data           0  s60mediaplayercontrol.o(.ARM.extab)
    .extab._ZN21S60MediaPlayerControl11setPositionEx 0x00023164   Data           0  s60mediaplayercontrol.o(.ARM.extab)
    .extab._ZNK21S60MediaPlayerControl6volumeEv 0x0002318c   Data           0  s60mediaplayercontrol.o(.ARM.extab)
    .extab._ZN21S60MediaPlayerControl9setVolumeEi 0x0002319c   Data           0  s60mediaplayercontrol.o(.ARM.extab)
    .extab._ZNK21S60MediaPlayerControl7isMutedEv 0x000231bc   Data           0  s60mediaplayercontrol.o(.ARM.extab)
    .extab._ZN21S60MediaPlayerControl8setMutedEb 0x000231cc   Data           0  s60mediaplayercontrol.o(.ARM.extab)
    .extab._ZNK21S60MediaPlayerControl16isAudioAvailableEv 0x000231ec   Data           0  s60mediaplayercontrol.o(.ARM.extab)
    .extab._ZNK21S60MediaPlayerControl16isVideoAvailableEv 0x000231fc   Data           0  s60mediaplayercontrol.o(.ARM.extab)
    .extab._ZNK21S60MediaPlayerControl10isSeekableEv 0x0002320c   Data           0  s60mediaplayercontrol.o(.ARM.extab)
    .extab._ZNK21S60MediaPlayerControl23availablePlaybackRangesEv 0x0002321c   Data           0  s60mediaplayercontrol.o(.ARM.extab)
    .extab._ZNK21S60MediaPlayerControl12playbackRateEv 0x00023234   Data           0  s60mediaplayercontrol.o(.ARM.extab)
    .extab._ZN21S60MediaPlayerControl15setPlaybackRateEf 0x00023244   Data           0  s60mediaplayercontrol.o(.ARM.extab)
    .extab._ZNK21S60MediaPlayerControl5mediaEv 0x00023264   Data           0  s60mediaplayercontrol.o(.ARM.extab)
    .extab._ZNK21S60MediaPlayerControl11mediaStreamEv 0x00023274   Data           0  s60mediaplayercontrol.o(.ARM.extab)
    .extab._ZN21S60MediaPlayerControl8setMediaERK13QMediaContentP9QIODevice 0x00023284   Data           0  s60mediaplayercontrol.o(.ARM.extab)
    .extab._ZN21S60MediaPlayerControl4playEv 0x000232c4   Data           0  s60mediaplayercontrol.o(.ARM.extab)
    .extab._ZN21S60MediaPlayerControl5pauseEv 0x000232dc   Data           0  s60mediaplayercontrol.o(.ARM.extab)
    .extab._ZN21S60MediaPlayerControl4stopEv 0x000232f4   Data           0  s60mediaplayercontrol.o(.ARM.extab)
    .extab._ZN21S60MediaPlayerControl7sessionEv 0x0002330c   Data           0  s60mediaplayercontrol.o(.ARM.extab)
    .extab._ZN21S60MediaPlayerControl14setVideoOutputEP7QObject 0x0002331c   Data           0  s60mediaplayercontrol.o(.ARM.extab)
    .extab._ZNK21S60MediaPlayerControl20mediaControlSettingsEv 0x00023334   Data           0  s60mediaplayercontrol.o(.ARM.extab)
    .extab._ZN21S60MediaPlayerControl16setAudioEndpointERK7QString 0x00023344   Data           0  s60mediaplayercontrol.o(.ARM.extab)
    .extab._ZN21S60MediaPlayerControl12setMediaTypeEN16S60MediaSettings10TMediaTypeE 0x00023364   Data           0  s60mediaplayercontrol.o(.ARM.extab)
    .extab._ZN21S60MediaPlayerServiceC1EP7QObject 0x00023384   Data           0  s60mediaplayerservice.o(.ARM.extab)
    .extab._ZN21S60MediaPlayerServiceD1Ev    0x000233f4   Data           0  s60mediaplayerservice.o(.ARM.extab)
    .extab._ZN21S60MediaPlayerService14requestControlEPKc 0x00023424   Data           0  s60mediaplayerservice.o(.ARM.extab)
    .extab._ZN21S60MediaPlayerService14releaseControlEP13QMediaControl 0x00023444   Data           0  s60mediaplayerservice.o(.ARM.extab)
    .extab._ZN21S60MediaPlayerService13PlayerSessionEv 0x0002345c   Data           0  s60mediaplayerservice.o(.ARM.extab)
    .extab._ZN21S60MediaPlayerService18VideoPlayerSessionEv 0x000234b4   Data           0  s60mediaplayerservice.o(.ARM.extab)
    .extab._ZN21S60MediaPlayerService18AudioPlayerSessionEv 0x000234dc   Data           0  s60mediaplayerservice.o(.ARM.extab)
    .extab._ZN21S60MediaPlayerSessionC2EP7QObject 0x00023504   Data           0  s60mediaplayersession.o(.ARM.extab)
    .extab._ZN21S60MediaPlayerSessionD2Ev    0x0002355c   Data           0  s60mediaplayersession.o(.ARM.extab)
    .extab._ZNK21S60MediaPlayerSession5stateEv 0x00023594   Data           0  s60mediaplayersession.o(.ARM.extab)
    .extab._ZNK21S60MediaPlayerSession11mediaStatusEv 0x000235a4   Data           0  s60mediaplayersession.o(.ARM.extab)
    .extab._ZNK21S60MediaPlayerSession8durationEv 0x000235b4   Data           0  s60mediaplayersession.o(.ARM.extab)
    .extab._ZNK21S60MediaPlayerSession8positionEv 0x000235e4   Data           0  s60mediaplayersession.o(.ARM.extab)
    .extab._ZN21S60MediaPlayerSession18startProgressTimerEv 0x00023614   Data           0  s60mediaplayersession.o(.ARM.extab)
    .extab._ZN21S60MediaPlayerSession16stopStalledTimerEv 0x0002362c   Data           0  s60mediaplayersession.o(.ARM.extab)
    .extab._ZN21S60MediaPlayerSession17stopProgressTimerEv 0x00023644   Data           0  s60mediaplayersession.o(.ARM.extab)
    .extab._ZN21S60MediaPlayerSession14setMediaStatusEN12QMediaPlayer11MediaStatusE 0x0002365c   Data           0  s60mediaplayersession.o(.ARM.extab)
    .extab._ZN21S60MediaPlayerSession8setStateEN12QMediaPlayer5StateE 0x00023674   Data           0  s60mediaplayersession.o(.ARM.extab)
    .extab._ZN21S60MediaPlayerSession4stopEv 0x0002368c   Data           0  s60mediaplayersession.o(.ARM.extab)
    .extab._ZN21S60MediaPlayerSession33fromSymbianErrorToMultimediaErrorEi 0x000236a4   Data           0  s60mediaplayersession.o(.ARM.extab)
    .extab._ZN21S60MediaPlayerSession8setErrorEiRK7QStringb 0x000236bc   Data           0  s60mediaplayersession.o(.ARM.extab)
    .extab._ZN21S60MediaPlayerSession8setMutedEb 0x000236f4   Data           0  s60mediaplayersession.o(.ARM.extab)
    .extab._ZN21S60MediaPlayerSession9setVolumeEi 0x00023744   Data           0  s60mediaplayersession.o(.ARM.extab)
    .extab._ZN21S60MediaPlayerSession4playEv 0x00023794   Data           0  s60mediaplayersession.o(.ARM.extab)
    .extab._ZN21S60MediaPlayerSession5pauseEv 0x000237ac   Data           0  s60mediaplayersession.o(.ARM.extab)
    .extab._ZN21S60MediaPlayerSession11setPositionEx 0x000237ec   Data           0  s60mediaplayersession.o(.ARM.extab)
    .extab._ZNK21S60MediaPlayerSession6volumeEv 0x00023844   Data           0  s60mediaplayersession.o(.ARM.extab)
    .extab._ZNK21S60MediaPlayerSession7isMutedEv 0x00023854   Data           0  s60mediaplayersession.o(.ARM.extab)
    .extab._ZNK21S60MediaPlayerSession10isSeekableEv 0x00023864   Data           0  s60mediaplayersession.o(.ARM.extab)
    .extab._ZN21S60MediaPlayerSession5resetEv 0x00023874   Data           0  s60mediaplayersession.o(.ARM.extab)
    .extab._ZNK21S60MediaPlayerSession19isMetadataAvailableEv 0x00023894   Data           0  s60mediaplayersession.o(.ARM.extab)
    .extab._ZNK21S60MediaPlayerSession8metaDataERK7QString 0x000238a4   Data           0  s60mediaplayersession.o(.ARM.extab)
    .extab._ZNK21S60MediaPlayerSession19metaDataKeyAsStringEN15QtMultimediaKit8MetaDataE 0x000238b4   Data           0  s60mediaplayersession.o(.ARM.extab)
    .extab._ZNK21S60MediaPlayerSession8metaDataEN15QtMultimediaKit8MetaDataE 0x000238c4   Data           0  s60mediaplayersession.o(.ARM.extab)
    .extab._ZNK21S60MediaPlayerSession17availableMetaDataEv 0x000238dc   Data           0  s60mediaplayersession.o(.ARM.extab)
    .extab._ZNK21S60MediaPlayerSession25availableExtendedMetaDataEv 0x00023924   Data           0  s60mediaplayersession.o(.ARM.extab)
    .extab._ZN21S60MediaPlayerSession13QString2TPtrCERK7QString 0x0002393c   Data           0  s60mediaplayersession.o(.ARM.extab)
    .extab._ZN21S60MediaPlayerSession17startStalledTimerEv 0x0002394c   Data           0  s60mediaplayersession.o(.ARM.extab)
    .extab._ZN21S60MediaPlayerSession4loadE4QUrl 0x00023964   Data           0  s60mediaplayersession.o(.ARM.extab)
    .extab._ZN21S60MediaPlayerSession12bufferStatusEv 0x000239dc   Data           0  s60mediaplayersession.o(.ARM.extab)
    .extab._ZN21S60MediaPlayerSession16setVideoRendererEP7QObject 0x00023a1c   Data           0  s60mediaplayersession.o(.ARM.extab)
    .extab._ZN21S60MediaPlayerSession16setAudioEndpointERK7QString 0x00023a34   Data           0  s60mediaplayersession.o(.ARM.extab)
    .extab._ZNK21S60MediaPlayerSession5errorEv 0x00023a54   Data           0  s60mediaplayersession.o(.ARM.extab)
    .extab._ZN21S60MediaPlayerSession15setAndEmitErrorEi 0x00023a64   Data           0  s60mediaplayersession.o(.ARM.extab)
    .extab._ZN21S60MediaPlayerSession6loadedEv 0x00023a94   Data           0  s60mediaplayersession.o(.ARM.extab)
    .extab._ZN21S60MediaPlayerSession9bufferingEv 0x00023adc   Data           0  s60mediaplayersession.o(.ARM.extab)
    .extab._ZN21S60MediaPlayerSession8bufferedEv 0x00023af4   Data           0  s60mediaplayersession.o(.ARM.extab)
    .extab._ZN21S60MediaPlayerSession10endOfMediaEv 0x00023b0c   Data           0  s60mediaplayersession.o(.ARM.extab)
    .extab._ZN21S60MediaPlayerSession15metaDataEntriesEv 0x00023b24   Data           0  s60mediaplayersession.o(.ARM.extab)
    .extab._ZN21S60MediaPlayerSession13TDesC2QStringERK7TDesC16 0x00023b34   Data           0  s60mediaplayersession.o(.ARM.extab)
    .extab._ZN21S60MediaPlayerSession11TRect2QRectERK5TRect 0x00023b44   Data           0  s60mediaplayersession.o(.ARM.extab)
    .extab._ZN21S60MediaPlayerSession11QRect2TRectERK5QRect 0x00023b54   Data           0  s60mediaplayersession.o(.ARM.extab)
    .extab._ZN21S60MediaPlayerSession4tickEv 0x00023b64   Data           0  s60mediaplayersession.o(.ARM.extab)
    .extab._ZN21S60MediaPlayerSession7stalledEv 0x00023b7c   Data           0  s60mediaplayersession.o(.ARM.extab)
    .extab._ZN7QString6appendEPKc            0x00023b94   Data           0  s60mediaplayersession.o(.ARM.extab)
    .extab._ZNK4QMapI7QString8QVariantE4keysEv 0x00023ba4   Data           0  s60mediaplayersession.o(.ARM.extab)
    .extab._ZN5QListIN15QtMultimediaKit8MetaDataEE9node_copyEPNS2_4NodeES4_S4_ 0x00023bb4   Data           0  s60mediaplayersession.o(.ARM.extab)
    .extab._ZN5QListIN15QtMultimediaKit8MetaDataEE18detach_helper_growEii 0x00023bd0   Data           0  s60mediaplayersession.o(.ARM.extab)
    .extab._ZN5QListIN15QtMultimediaKit8MetaDataEE6appendERKS1_ 0x00023c00   Data           0  s60mediaplayersession.o(.ARM.extab)
    .extab._ZN24S60MediaMetaDataProviderC1EP7QObjectS1_ 0x00023c30   Data           0  s60mediametadataprovider.o(.ARM.extab)
    .extab._ZN24S60MediaMetaDataProviderD1Ev 0x00023c60   Data           0  s60mediametadataprovider.o(.ARM.extab)
    .extab._ZNK24S60MediaMetaDataProvider19isMetaDataAvailableEv 0x00023c90   Data           0  s60mediametadataprovider.o(.ARM.extab)
    .extab._ZNK24S60MediaMetaDataProvider10isWritableEv 0x00023ca0   Data           0  s60mediametadataprovider.o(.ARM.extab)
    .extab._ZNK24S60MediaMetaDataProvider8metaDataEN15QtMultimediaKit8MetaDataE 0x00023cb0   Data           0  s60mediametadataprovider.o(.ARM.extab)
    .extab._ZNK24S60MediaMetaDataProvider17availableMetaDataEv 0x00023cc0   Data           0  s60mediametadataprovider.o(.ARM.extab)
    .extab._ZNK24S60MediaMetaDataProvider16extendedMetaDataERK7QString 0x00023cd0   Data           0  s60mediametadataprovider.o(.ARM.extab)
    .extab._ZNK24S60MediaMetaDataProvider25availableExtendedMetaDataEv 0x00023ce0   Data           0  s60mediametadataprovider.o(.ARM.extab)
    .extab._ZN21S60VideoPlayerSessionC1EP13QMediaService 0x00023cf0   Data           0  s60videoplayersession.o(.ARM.extab)
    .extab._ZN21S60VideoPlayerSessionD1Ev    0x00023d60   Data           0  s60videoplayersession.o(.ARM.extab)
    .extab._ZN21S60VideoPlayerSession16isVideoAvailableEv 0x00023d98   Data           0  s60videoplayersession.o(.ARM.extab)
    .extab._ZN21S60VideoPlayerSession16isAudioAvailableEv 0x00023dd8   Data           0  s60videoplayersession.o(.ARM.extab)
    .extab._ZN21S60VideoPlayerSession19applyPendingChangesEb 0x00023e18   Data           0  s60videoplayersession.o(.ARM.extab)
    .extab._ZN21S60VideoPlayerSession19windowHandleChangedEv 0x00023f00   Data           0  s60videoplayersession.o(.ARM.extab)
    .extab._ZN21S60VideoPlayerSession16setVideoRendererEP7QObject 0x00023f18   Data           0  s60videoplayersession.o(.ARM.extab)
    .extab._ZN21S60VideoPlayerSession18MvloLoadingStartedEv 0x00023f30   Data           0  s60videoplayersession.o(.ARM.extab)
    .extab._ZN21S60VideoPlayerSession19MvloLoadingCompleteEv 0x00023f48   Data           0  s60videoplayersession.o(.ARM.extab)
    .extab._ZN21S60VideoPlayerSession15setPlaybackRateEf 0x00023f60   Data           0  s60videoplayersession.o(.ARM.extab)
    .extab._ZN21S60VideoPlayerSession25DefaultAudioOutputChangedER12CAudioOutputNS0_22TAudioOutputPreferenceE 0x00023fb0   Data           0  s60videoplayersession.o(.ARM.extab)
    .extab._ZNK21S60VideoPlayerSession33qStringFromTAudioOutputPreferenceEN12CAudioOutput22TAudioOutputPreferenceE 0x00023fc8   Data           0  s60videoplayersession.o(.ARM.extab)
    .extab._ZNK21S60VideoPlayerSession14activeEndpointEv 0x00023fd8   Data           0  s60videoplayersession.o(.ARM.extab)
    .extab._ZNK21S60VideoPlayerSession15defaultEndpointEv 0x00024020   Data           0  s60videoplayersession.o(.ARM.extab)
    .extab._ZN21S60VideoPlayerSession17setActiveEndpointERK7QString 0x00024068   Data           0  s60videoplayersession.o(.ARM.extab)
    .extab._ZN21S60VideoPlayerSession7doLoadLERK7TDesC16 0x000240d8   Data           0  s60videoplayersession.o(.ARM.extab)
    .extab._ZN21S60VideoPlayerSession10doLoadUrlLERK7TDesC16 0x000240f0   Data           0  s60videoplayersession.o(.ARM.extab)
    .extab._ZN21S60VideoPlayerSession6doPlayEv 0x00024108   Data           0  s60videoplayersession.o(.ARM.extab)
    .extab._ZN21S60VideoPlayerSession6doStopEv 0x00024120   Data           0  s60videoplayersession.o(.ARM.extab)
    .extab._ZN21S60VideoPlayerSession7doCloseEv 0x00024138   Data           0  s60videoplayersession.o(.ARM.extab)
    .extab._ZN21S60VideoPlayerSession8doPauseLEv 0x00024150   Data           0  s60videoplayersession.o(.ARM.extab)
    .extab._ZN21S60VideoPlayerSession12doSetVolumeLEi 0x00024168   Data           0  s60videoplayersession.o(.ARM.extab)
    .extab._ZN21S60VideoPlayerSession22updateMetaDataEntriesLEv 0x00024188   Data           0  s60videoplayersession.o(.ARM.extab)
    .extab._ZN21S60VideoPlayerSession18doSetAudioEndpointERK7QString 0x000241c8   Data           0  s60videoplayersession.o(.ARM.extab)
    .extab._ZNK21S60VideoPlayerSession13getIsSeekableEv 0x000241e8   Data           0  s60videoplayersession.o(.ARM.extab)
    .extab._ZN21S60VideoPlayerSession18displayRectChangedEv 0x00024250   Data           0  s60videoplayersession.o(.ARM.extab)
    .extab._ZN21S60VideoPlayerSession18aspectRatioChangedEv 0x00024268   Data           0  s60videoplayersession.o(.ARM.extab)
    .extab._ZN21S60VideoPlayerSession17MvpuoOpenCompleteEi 0x00024280   Data           0  s60videoplayersession.o(.ARM.extab)
    .extab._ZN21S60VideoPlayerSession20MvpuoPrepareCompleteEi 0x000242d8   Data           0  s60videoplayersession.o(.ARM.extab)
    .extab._ZN21S60VideoPlayerSession15MvpuoFrameReadyER10CFbsBitmapi 0x00024378   Data           0  s60videoplayersession.o(.ARM.extab)
    .extab._ZN21S60VideoPlayerSession17MvpuoPlayCompleteEi 0x00024390   Data           0  s60videoplayersession.o(.ARM.extab)
    .extab._ZN21S60VideoPlayerSession10MvpuoEventERK9TMMFEvent 0x000243b8   Data           0  s60videoplayersession.o(.ARM.extab)
    .extab.__sti___25_s60videoplayersession_cpp 0x000243d0   Data           0  s60videoplayersession.o(.ARM.extab)
    .extab._ZN4QMapI7QString8QVariantE11node_createEP8QMapDataPPNS3_4NodeERKS0_RKS1_ 0x000243e0   Data           0  s60videoplayersession.o(.ARM.extab)
    .extab._ZN4QMapI7QString8QVariantE13detach_helperEv 0x0002442c   Data           0  s60videoplayersession.o(.ARM.extab)
    .extab._ZN4QMapI7QString8QVariantE5clearEv 0x00024448   Data           0  s60videoplayersession.o(.ARM.extab)
    .extab._ZN15S60VideoSurfaceC1EP7QObject  0x00024458   Data           0  s60videosurface.o(.ARM.extab)
    .extab._ZN15S60VideoSurfaceD1Ev          0x00024498   Data           0  s60videosurface.o(.ARM.extab)
    .extab._ZNK15S60VideoSurface5winIdEv     0x000244d8   Data           0  s60videosurface.o(.ARM.extab)
    .extab._ZN15S60VideoSurface8setWinIdEP11CCoeControl 0x000244e8   Data           0  s60videosurface.o(.ARM.extab)
    .extab._ZNK15S60VideoSurface11displayRectEv 0x00024500   Data           0  s60videosurface.o(.ARM.extab)
    .extab._ZN15S60VideoSurface14setDisplayRectERK5QRect 0x00024510   Data           0  s60videosurface.o(.ARM.extab)
    .extab._ZNK15S60VideoSurface10brightnessEv 0x00024528   Data           0  s60videosurface.o(.ARM.extab)
    .extab._ZN15S60VideoSurface13setBrightnessEi 0x00024538   Data           0  s60videosurface.o(.ARM.extab)
    .extab._ZNK15S60VideoSurface8contrastEv  0x00024558   Data           0  s60videosurface.o(.ARM.extab)
    .extab._ZN15S60VideoSurface11setContrastEi 0x00024568   Data           0  s60videosurface.o(.ARM.extab)
    .extab._ZNK15S60VideoSurface3hueEv       0x00024588   Data           0  s60videosurface.o(.ARM.extab)
    .extab._ZN15S60VideoSurface6setHueEi     0x00024598   Data           0  s60videosurface.o(.ARM.extab)
    .extab._ZNK15S60VideoSurface10saturationEv 0x000245b8   Data           0  s60videosurface.o(.ARM.extab)
    .extab._ZN15S60VideoSurface13setSaturationEi 0x000245c8   Data           0  s60videosurface.o(.ARM.extab)
    .extab._ZNK15S60VideoSurface21supportedPixelFormatsEN20QAbstractVideoBuffer10HandleTypeE 0x000245e8   Data           0  s60videosurface.o(.ARM.extab)
    .extab._ZNK15S60VideoSurface17isFormatSupportedERK19QVideoSurfaceFormat 0x00024610   Data           0  s60videosurface.o(.ARM.extab)
    .extab._ZN15S60VideoSurface5startERK19QVideoSurfaceFormat 0x00024620   Data           0  s60videosurface.o(.ARM.extab)
    .extab._ZN15S60VideoSurface4stopEv       0x00024630   Data           0  s60videosurface.o(.ARM.extab)
    .extab._ZN15S60VideoSurface7presentERK11QVideoFrame 0x00024648   Data           0  s60videosurface.o(.ARM.extab)
    .extab._ZN15S60VideoSurface8findPortEv   0x00024658   Data           0  s60videosurface.o(.ARM.extab)
    .extab._ZN15S60VideoSurface21querySupportedFormatsEv 0x00024668   Data           0  s60videosurface.o(.ARM.extab)
    .extab._ZNK15S60VideoSurface12getAttributeEPKcii 0x00024680   Data           0  s60videosurface.o(.ARM.extab)
    .extab._ZN15S60VideoSurface12setAttributeEPKciii 0x00024698   Data           0  s60videosurface.o(.ARM.extab)
    .extab._ZN15S60VideoSurface12redistributeEiiiii 0x000246b0   Data           0  s60videosurface.o(.ARM.extab)
    .extab._ZN18S60MediaRecognizerC1EP7QObject 0x000246c8   Data           0  s60mediarecognizer.o(.ARM.extab)
    .extab._ZN18S60MediaRecognizerD1Ev       0x000246f8   Data           0  s60mediarecognizer.o(.ARM.extab)
    .extab._ZN18S60MediaRecognizer13QString2TPtrCERK7QString 0x00024728   Data           0  s60mediarecognizer.o(.ARM.extab)
    .extab._ZN18S60MediaRecognizer17identifyMediaTypeERK7QString 0x00024738   Data           0  s60mediarecognizer.o(.ARM.extab)
    .extab._ZN18S60MediaRecognizer9mediaTypeERK4QUrl 0x00024760   Data           0  s60mediarecognizer.o(.ARM.extab)
    .extab._ZN21S60AudioPlayerSessionC1EP7QObject 0x00024788   Data           0  s60audioplayersession.o(.ARM.extab)
    .extab._ZN21S60AudioPlayerSessionD1Ev    0x000247f8   Data           0  s60audioplayersession.o(.ARM.extab)
    .extab._ZN21S60AudioPlayerSession16isVideoAvailableEv 0x00024830   Data           0  s60audioplayersession.o(.ARM.extab)
    .extab._ZN21S60AudioPlayerSession16isAudioAvailableEv 0x00024840   Data           0  s60audioplayersession.o(.ARM.extab)
    .extab._ZN21S60AudioPlayerSession18MaloLoadingStartedEv 0x00024850   Data           0  s60audioplayersession.o(.ARM.extab)
    .extab._ZN21S60AudioPlayerSession19MaloLoadingCompleteEv 0x00024868   Data           0  s60audioplayersession.o(.ARM.extab)
    .extab._ZN21S60AudioPlayerSession25DefaultAudioOutputChangedER12CAudioOutputNS0_22TAudioOutputPreferenceE 0x00024880   Data           0  s60audioplayersession.o(.ARM.extab)
    .extab._ZNK21S60AudioPlayerSession33qStringFromTAudioOutputPreferenceEN12CAudioOutput22TAudioOutputPreferenceE 0x00024898   Data           0  s60audioplayersession.o(.ARM.extab)
    .extab._ZNK21S60AudioPlayerSession14activeEndpointEv 0x000248a8   Data           0  s60audioplayersession.o(.ARM.extab)
    .extab._ZNK21S60AudioPlayerSession15defaultEndpointEv 0x000248f0   Data           0  s60audioplayersession.o(.ARM.extab)
    .extab._ZN21S60AudioPlayerSession15setPlaybackRateEf 0x00024938   Data           0  s60audioplayersession.o(.ARM.extab)
    .extab._ZN21S60AudioPlayerSession17setActiveEndpointERK7QString 0x00024958   Data           0  s60audioplayersession.o(.ARM.extab)
    .extab._ZN21S60AudioPlayerSession7doLoadLERK7TDesC16 0x000249d0   Data           0  s60audioplayersession.o(.ARM.extab)
    .extab._ZN21S60AudioPlayerSession6doPlayEv 0x000249e8   Data           0  s60audioplayersession.o(.ARM.extab)
    .extab._ZN21S60AudioPlayerSession6doStopEv 0x00024a00   Data           0  s60audioplayersession.o(.ARM.extab)
    .extab._ZN21S60AudioPlayerSession7doCloseEv 0x00024a18   Data           0  s60audioplayersession.o(.ARM.extab)
    .extab._ZN21S60AudioPlayerSession8doPauseLEv 0x00024a30   Data           0  s60audioplayersession.o(.ARM.extab)
    .extab._ZN21S60AudioPlayerSession12doSetVolumeLEi 0x00024a48   Data           0  s60audioplayersession.o(.ARM.extab)
    .extab._ZN21S60AudioPlayerSession14doSetPositionLEx 0x00024a68   Data           0  s60audioplayersession.o(.ARM.extab)
    .extab._ZN21S60AudioPlayerSession22updateMetaDataEntriesLEv 0x00024a90   Data           0  s60audioplayersession.o(.ARM.extab)
    .extab._ZNK21S60AudioPlayerSession18doGetBufferStatusLEv 0x00024ad0   Data           0  s60audioplayersession.o(.ARM.extab)
    .extab._ZN21S60AudioPlayerSession18doSetAudioEndpointERK7QString 0x00024ae8   Data           0  s60audioplayersession.o(.ARM.extab)
    .extab._ZNK21S60AudioPlayerSession13getIsSeekableEv 0x00024b08   Data           0  s60audioplayersession.o(.ARM.extab)
    .extab._ZN21S60AudioPlayerSession16MapcInitCompleteEiRK25TTimeIntervalMicroSeconds 0x00024b18   Data           0  s60audioplayersession.o(.ARM.extab)
    .extab._ZN21S60AudioPlayerSession16MapcPlayCompleteEi 0x00024b70   Data           0  s60audioplayersession.o(.ARM.extab)
    .extab._ZN35S60MediaPlayerAudioEndpointSelectorC1EP7QObjectS1_ 0x00024b98   Data           0  s60mediaplayeraudioendpointselector.o(.ARM.extab)
    .extab._ZN35S60MediaPlayerAudioEndpointSelectorD1Ev 0x00024c28   Data           0  s60mediaplayeraudioendpointselector.o(.ARM.extab)
    .extab._ZNK35S60MediaPlayerAudioEndpointSelector18availableEndpointsEv 0x00024c68   Data           0  s60mediaplayeraudioendpointselector.o(.ARM.extab)
    .extab._ZNK35S60MediaPlayerAudioEndpointSelector19endpointDescriptionERK7QString 0x00024c78   Data           0  s60mediaplayeraudioendpointselector.o(.ARM.extab)
    .extab._ZNK35S60MediaPlayerAudioEndpointSelector15defaultEndpointEv 0x00024cb0   Data           0  s60mediaplayeraudioendpointselector.o(.ARM.extab)
    .extab._ZNK35S60MediaPlayerAudioEndpointSelector14activeEndpointEv 0x00024cf0   Data           0  s60mediaplayeraudioendpointselector.o(.ARM.extab)
    .extab._ZN35S60MediaPlayerAudioEndpointSelector17setActiveEndpointERK7QString 0x00024d30   Data           0  s60mediaplayeraudioendpointselector.o(.ARM.extab)
    .extab._ZN21S60MediaStreamControlC1EP7QObjectS1_ 0x00024db0   Data           0  s60mediastreamcontrol.o(.ARM.extab)
    .extab._ZN21S60MediaStreamControlD1Ev    0x00024de0   Data           0  s60mediastreamcontrol.o(.ARM.extab)
    .extab._ZN21S60MediaStreamControl11streamCountEv 0x00024e10   Data           0  s60mediastreamcontrol.o(.ARM.extab)
    .extab._ZN21S60MediaStreamControl10streamTypeEi 0x00024e28   Data           0  s60mediastreamcontrol.o(.ARM.extab)
    .extab._ZN21S60MediaStreamControl8metaDataEiN15QtMultimediaKit8MetaDataE 0x00024e48   Data           0  s60mediastreamcontrol.o(.ARM.extab)
    .extab._ZN21S60MediaStreamControl8isActiveEi 0x00024e58   Data           0  s60mediastreamcontrol.o(.ARM.extab)
    .extab._ZN21S60MediaStreamControl9setActiveEib 0x00024e78   Data           0  s60mediastreamcontrol.o(.ARM.extab)
    .extab._ZN21S60MediaStreamControl20handleStreamsChangedEv 0x00024e98   Data           0  s60mediastreamcontrol.o(.ARM.extab)
    .extab._ZN20S60RadioTunerControl9initRadioEv 0x00024eb0   Data           0  s60radiotunercontrol_since32.o(.ARM.extab)
    .extab._ZN20S60RadioTunerControlC1EP7QObject 0x00024ef8   Data           0  s60radiotunercontrol_since32.o(.ARM.extab)
    .extab._ZN20S60RadioTunerControlD1Ev     0x00024f60   Data           0  s60radiotunercontrol_since32.o(.ARM.extab)
    .extab._ZNK20S60RadioTunerControl5stateEv 0x00024f98   Data           0  s60radiotunercontrol_since32.o(.ARM.extab)
    .extab._ZNK20S60RadioTunerControl4bandEv 0x00024fa8   Data           0  s60radiotunercontrol_since32.o(.ARM.extab)
    .extab._ZN20S60RadioTunerControl7setBandEN11QRadioTuner4BandE 0x00024fb8   Data           0  s60radiotunercontrol_since32.o(.ARM.extab)
    .extab._ZNK20S60RadioTunerControl15isBandSupportedEN11QRadioTuner4BandE 0x00025060   Data           0  s60radiotunercontrol_since32.o(.ARM.extab)
    .extab._ZNK20S60RadioTunerControl9frequencyEv 0x00025070   Data           0  s60radiotunercontrol_since32.o(.ARM.extab)
    .extab._ZNK20S60RadioTunerControl13frequencyStepEN11QRadioTuner4BandE 0x00025080   Data           0  s60radiotunercontrol_since32.o(.ARM.extab)
    .extab._ZNK20S60RadioTunerControl14frequencyRangeEN11QRadioTuner4BandE 0x000250a0   Data           0  s60radiotunercontrol_since32.o(.ARM.extab)
    .extab._ZN20S60RadioTunerControl12setFrequencyEi 0x000250b8   Data           0  s60radiotunercontrol_since32.o(.ARM.extab)
    .extab._ZNK20S60RadioTunerControl8isStereoEv 0x000250d8   Data           0  s60radiotunercontrol_since32.o(.ARM.extab)
    .extab._ZNK20S60RadioTunerControl10stereoModeEv 0x000250e8   Data           0  s60radiotunercontrol_since32.o(.ARM.extab)
    .extab._ZN20S60RadioTunerControl13setStereoModeEN11QRadioTuner10StereoModeE 0x000250f8   Data           0  s60radiotunercontrol_since32.o(.ARM.extab)
    .extab._ZNK20S60RadioTunerControl14signalStrengthEv 0x00025110   Data           0  s60radiotunercontrol_since32.o(.ARM.extab)
    .extab._ZNK20S60RadioTunerControl6volumeEv 0x00025130   Data           0  s60radiotunercontrol_since32.o(.ARM.extab)
    .extab._ZN20S60RadioTunerControl9setVolumeEi 0x00025140   Data           0  s60radiotunercontrol_since32.o(.ARM.extab)
    .extab._ZNK20S60RadioTunerControl7isMutedEv 0x00025160   Data           0  s60radiotunercontrol_since32.o(.ARM.extab)
    .extab._ZN20S60RadioTunerControl8setMutedEb 0x00025170   Data           0  s60radiotunercontrol_since32.o(.ARM.extab)
    .extab._ZNK20S60RadioTunerControl11isSearchingEv 0x00025190   Data           0  s60radiotunercontrol_since32.o(.ARM.extab)
    .extab._ZN20S60RadioTunerControl13searchForwardEv 0x000251a0   Data           0  s60radiotunercontrol_since32.o(.ARM.extab)
    .extab._ZN20S60RadioTunerControl14searchBackwardEv 0x000251b8   Data           0  s60radiotunercontrol_since32.o(.ARM.extab)
    .extab._ZN20S60RadioTunerControl12cancelSearchEv 0x000251d0   Data           0  s60radiotunercontrol_since32.o(.ARM.extab)
    .extab._ZNK20S60RadioTunerControl7isValidEv 0x000251e8   Data           0  s60radiotunercontrol_since32.o(.ARM.extab)
    .extab._ZNK20S60RadioTunerControl11isAvailableEv 0x000251f8   Data           0  s60radiotunercontrol_since32.o(.ARM.extab)
    .extab._ZNK20S60RadioTunerControl17availabilityErrorEv 0x00025208   Data           0  s60radiotunercontrol_since32.o(.ARM.extab)
    .extab._ZN20S60RadioTunerControl5startEv 0x00025218   Data           0  s60radiotunercontrol_since32.o(.ARM.extab)
    .extab._ZN20S60RadioTunerControl4stopEv  0x00025230   Data           0  s60radiotunercontrol_since32.o(.ARM.extab)
    .extab._ZNK20S60RadioTunerControl5errorEv 0x00025248   Data           0  s60radiotunercontrol_since32.o(.ARM.extab)
    .extab._ZNK20S60RadioTunerControl11errorStringEv 0x00025258   Data           0  s60radiotunercontrol_since32.o(.ARM.extab)
    .extab._ZN20S60RadioTunerControl15MrpoStateChangeE12TPlayerStatei 0x00025268   Data           0  s60radiotunercontrol_since32.o(.ARM.extab)
    .extab._ZN20S60RadioTunerControl16MrpoVolumeChangeEi 0x00025280   Data           0  s60radiotunercontrol_since32.o(.ARM.extab)
    .extab._ZN20S60RadioTunerControl14MrpoMuteChangeEi 0x000252a0   Data           0  s60radiotunercontrol_since32.o(.ARM.extab)
    .extab._ZN20S60RadioTunerControl17MrpoBalanceChangeEii 0x000252c0   Data           0  s60radiotunercontrol_since32.o(.ARM.extab)
    .extab._ZN20S60RadioTunerControl32MrftoRequestTunerControlCompleteEi 0x000252d8   Data           0  s60radiotunercontrol_since32.o(.ARM.extab)
    .extab._ZN20S60RadioTunerControl30MrftoSetFrequencyRangeCompleteEi 0x00025358   Data           0  s60radiotunercontrol_since32.o(.ARM.extab)
    .extab._ZN20S60RadioTunerControl25MrftoSetFrequencyCompleteEi 0x00025390   Data           0  s60radiotunercontrol_since32.o(.ARM.extab)
    .extab._ZN20S60RadioTunerControl24MrftoStationSeekCompleteEii 0x000253c8   Data           0  s60radiotunercontrol_since32.o(.ARM.extab)
    .extab._ZN20S60RadioTunerControl30MrftoFmTransmitterStatusChangeEi 0x000253f0   Data           0  s60radiotunercontrol_since32.o(.ARM.extab)
    .extab._ZN20S60RadioTunerControl24MrftoAntennaStatusChangeEi 0x00025408   Data           0  s60radiotunercontrol_since32.o(.ARM.extab)
    .extab._ZN20S60RadioTunerControl28MrftoOfflineModeStatusChangeEi 0x00025428   Data           0  s60radiotunercontrol_since32.o(.ARM.extab)
    .extab._ZN20S60RadioTunerControl25MrftoFrequencyRangeChangeE22TFmRadioFrequencyRange 0x00025440   Data           0  s60radiotunercontrol_since32.o(.ARM.extab)
    .extab._ZN20S60RadioTunerControl20MrftoFrequencyChangeEi 0x00025458   Data           0  s60radiotunercontrol_since32.o(.ARM.extab)
    .extab._ZN20S60RadioTunerControl21MrftoForcedMonoChangeEi 0x00025478   Data           0  s60radiotunercontrol_since32.o(.ARM.extab)
    .extab._ZN20S60RadioTunerControl18MrftoSquelchChangeEi 0x00025498   Data           0  s60radiotunercontrol_since32.o(.ARM.extab)
    .extab._ZN20S60RadioTunerServiceC1EP7QObject 0x000254b0   Data           0  s60radiotunerservice.o(.ARM.extab)
    .extab._ZN20S60RadioTunerServiceD1Ev     0x000254f0   Data           0  s60radiotunerservice.o(.ARM.extab)
    .extab._ZN20S60RadioTunerService14requestControlEPKc 0x00025520   Data           0  s60radiotunerservice.o(.ARM.extab)
    .extab._ZN20S60RadioTunerService14releaseControlEP13QMediaControl 0x00025530   Data           0  s60radiotunerservice.o(.ARM.extab)
    .extab._ZN15S60VideoDisplayC2EP7QObject  0x00025548   Data           0  s60videodisplay.o(.ARM.extab)
    .extab._ZN30QGraphicsColorizeEffectPrivateD1Ev 0x00025558   Data           0  s60videooutpututils.o(.ARM.extab)
    .extab._ZN26QGraphicsBlurEffectPrivateD1Ev 0x00025568   Data           0  s60videooutpututils.o(.ARM.extab)
    .extab._ZN32QGraphicsDropShadowEffectPrivateD1Ev 0x00025578   Data           0  s60videooutpututils.o(.ARM.extab)
    .extab._ZN14S60VideoWidgetC1EP7QWidget   0x00025588   Data           0  s60videowidget.o(.ARM.extab)
    .extab._ZN14S60VideoWidget10paintEventEP11QPaintEvent 0x000255b8   Data           0  s60videowidget.o(.ARM.extab)
    .extab._Z8qWarningv                      0x000255e0   Data           0  s60videowidget.o(.ARM.extab)
    .extab._ZN21S60VideoWidgetControlC1EP7QObject 0x000255f8   Data           0  s60videowidgetcontrol.o(.ARM.extab)
    .extab._ZN21S60VideoWidgetDisplayC1EP7QObject 0x00025618   Data           0  s60videowidgetdisplay.o(.ARM.extab)
    .extab._ZN21S60VideoWidgetDisplayD1Ev    0x00025640   Data           0  s60videowidgetdisplay.o(.ARM.extab)
    .extab._ZN21S60VideoWidgetDisplay11eventFilterEP7QObjectP6QEvent 0x00025660   Data           0  s60videowidgetdisplay.o(.ARM.extab)
    .extab._ZN21S60VideoWidgetDisplay8setFrameERK10CFbsBitmap 0x00025670   Data           0  s60videowidgetdisplay.o(.ARM.extab)
    .extab._ZN21S60VideoWindowControlC1EP7QObject 0x00025680   Data           0  s60videowindowcontrol.o(.ARM.extab)
    .extab._ZN21S60VideoWindowDisplayC1EP7QObject 0x000256a0   Data           0  s60videowindowdisplay.o(.ARM.extab)
    .constdata$1                             0x000256c0   Data           0  moc_s60videodisplay.o(.constdata)
    qt_meta_data_S60VideoDisplay             0x000256c0   Data         340  moc_s60videodisplay.o(.constdata)
    .constdata                               0x000256c0   Section      784  moc_s60videodisplay.o(.constdata)
    qt_meta_stringdata_S60VideoDisplay       0x00025814   Data         427  moc_s60videodisplay.o(.constdata)
    .constdata$1                             0x000259d0   Data           0  moc_s60videowidget.o(.constdata)
    qt_meta_data_S60VideoWidget              0x000259d0   Data         240  moc_s60videowidget.o(.constdata)
    .constdata                               0x000259d0   Section      524  moc_s60videowidget.o(.constdata)
    qt_meta_stringdata_S60VideoWidget        0x00025ac0   Data         267  moc_s60videowidget.o(.constdata)
    .constdata$1                             0x00025bdc   Data           0  moc_s60videowidgetcontrol.o(.constdata)
    qt_meta_data_S60VideoWidgetControl       0x00025bdc   Data         140  moc_s60videowidgetcontrol.o(.constdata)
    .constdata                               0x00025bdc   Section      284  moc_s60videowidgetcontrol.o(.constdata)
    qt_meta_stringdata_S60VideoWidgetControl 0x00025c68   Data         126  moc_s60videowidgetcontrol.o(.constdata)
    .constdata$1                             0x00025cf8   Data           0  moc_s60videowidgetdisplay.o(.constdata)
    qt_meta_data_S60VideoWidgetDisplay       0x00025cf8   Data          60  moc_s60videowidgetdisplay.o(.constdata)
    .constdata                               0x00025cf8   Section      100  moc_s60videowidgetdisplay.o(.constdata)
    qt_meta_stringdata_S60VideoWidgetDisplay 0x00025d34   Data          23  moc_s60videowidgetdisplay.o(.constdata)
    .constdata$1                             0x00025d5c   Data           0  moc_s60videowindowcontrol.o(.constdata)
    qt_meta_data_S60VideoWindowControl       0x00025d5c   Data          92  moc_s60videowindowcontrol.o(.constdata)
    .constdata                               0x00025d5c   Section      164  moc_s60videowindowcontrol.o(.constdata)
    qt_meta_stringdata_S60VideoWindowControl 0x00025db8   Data          56  moc_s60videowindowcontrol.o(.constdata)
    .constdata$1                             0x00025e00   Data           0  moc_s60mediaplayercontrol.o(.constdata)
    qt_meta_data_S60MediaPlayerControl       0x00025e00   Data          60  moc_s60mediaplayercontrol.o(.constdata)
    .constdata                               0x00025e00   Section      100  moc_s60mediaplayercontrol.o(.constdata)
    qt_meta_stringdata_S60MediaPlayerControl 0x00025e3c   Data          23  moc_s60mediaplayercontrol.o(.constdata)
    .constdata$1                             0x00025e64   Data           0  moc_s60mediaplayerservice.o(.constdata)
    qt_meta_data_S60MediaPlayerService       0x00025e64   Data          60  moc_s60mediaplayerservice.o(.constdata)
    .constdata                               0x00025e64   Section      100  moc_s60mediaplayerservice.o(.constdata)
    qt_meta_stringdata_S60MediaPlayerService 0x00025ea0   Data          23  moc_s60mediaplayerservice.o(.constdata)
    .constdata$1                             0x00025ec8   Data           0  moc_s60mediaplayersession.o(.constdata)
    qt_meta_data_S60MediaPlayerSession       0x00025ec8   Data         440  moc_s60mediaplayersession.o(.constdata)
    .constdata                               0x00025ec8   Section     1072  moc_s60mediaplayersession.o(.constdata)
    qt_meta_stringdata_S60MediaPlayerSession 0x00026080   Data         616  moc_s60mediaplayersession.o(.constdata)
    .constdata$1                             0x000262f8   Data           0  moc_s60mediametadataprovider.o(.constdata)
    qt_meta_data_S60MediaMetaDataProvider    0x000262f8   Data          60  moc_s60mediametadataprovider.o(.constdata)
    .constdata                               0x000262f8   Section      104  moc_s60mediametadataprovider.o(.constdata)
    qt_meta_stringdata_S60MediaMetaDataProvider 0x00026334   Data          26  moc_s60mediametadataprovider.o(.constdata)
    .constdata$1                             0x00026360   Data           0  moc_s60videoplayersession.o(.constdata)
    qt_meta_data_S60VideoPlayerSession       0x00026360   Data         180  moc_s60videoplayersession.o(.constdata)
    .constdata                               0x00026360   Section      360  moc_s60videoplayersession.o(.constdata)
    qt_meta_stringdata_S60VideoPlayerSession 0x00026414   Data         163  moc_s60videoplayersession.o(.constdata)
    .constdata$1                             0x000264c8   Data           0  moc_s60videosurface.o(.constdata)
    qt_meta_data_S60VideoSurface             0x000264c8   Data          60  moc_s60videosurface.o(.constdata)
    .constdata                               0x000264c8   Section       96  moc_s60videosurface.o(.constdata)
    qt_meta_stringdata_S60VideoSurface       0x00026504   Data          17  moc_s60videosurface.o(.constdata)
    .constdata$1                             0x00026528   Data           0  moc_s60mediarecognizer.o(.constdata)
    qt_meta_data_S60MediaRecognizer          0x00026528   Data          60  moc_s60mediarecognizer.o(.constdata)
    .constdata                               0x00026528   Section       96  moc_s60mediarecognizer.o(.constdata)
    qt_meta_stringdata_S60MediaRecognizer    0x00026564   Data          20  moc_s60mediarecognizer.o(.constdata)
    .constdata$1                             0x00026588   Data           0  moc_s60audioplayersession.o(.constdata)
    qt_meta_data_S60AudioPlayerSession       0x00026588   Data          80  moc_s60audioplayersession.o(.constdata)
    .constdata                               0x00026588   Section      152  moc_s60audioplayersession.o(.constdata)
    qt_meta_stringdata_S60AudioPlayerSession 0x000265d8   Data          56  moc_s60audioplayersession.o(.constdata)
    .constdata$1                             0x00026620   Data           0  moc_s60mediaplayeraudioendpointselector.o(.constdata)
    qt_meta_data_S60MediaPlayerAudioEndpointSelector 0x00026620   Data          80  moc_s60mediaplayeraudioendpointselector.o(.constdata)
    .constdata                               0x00026620   Section      168  moc_s60mediaplayeraudioendpointselector.o(.constdata)
    qt_meta_stringdata_S60MediaPlayerAudioEndpointSelector 0x00026670   Data          70  moc_s60mediaplayeraudioendpointselector.o(.constdata)
    .constdata$1                             0x000266c8   Data           0  moc_s60mediastreamcontrol.o(.constdata)
    qt_meta_data_S60MediaStreamControl       0x000266c8   Data          80  moc_s60mediastreamcontrol.o(.constdata)
    .constdata                               0x000266c8   Section      144  moc_s60mediastreamcontrol.o(.constdata)
    qt_meta_stringdata_S60MediaStreamControl 0x00026718   Data          47  moc_s60mediastreamcontrol.o(.constdata)
    .constdata$1                             0x00026758   Data           0  moc_s60radiotunercontrol_since32.o(.constdata)
    qt_meta_data_S60RadioTunerControl        0x00026758   Data         100  moc_s60radiotunercontrol_since32.o(.constdata)
    .constdata                               0x00026758   Section      188  moc_s60radiotunercontrol_since32.o(.constdata)
    qt_meta_stringdata_S60RadioTunerControl  0x000267bc   Data          72  moc_s60radiotunercontrol_since32.o(.constdata)
    .constdata$1                             0x00026814   Data           0  moc_s60radiotunerservice.o(.constdata)
    qt_meta_data_S60RadioTunerService        0x00026814   Data          60  moc_s60radiotunerservice.o(.constdata)
    .constdata                               0x00026814   Section      100  moc_s60radiotunerservice.o(.constdata)
    qt_meta_stringdata_S60RadioTunerService  0x00026850   Data          22  moc_s60radiotunerservice.o(.constdata)
    .constdata$1                             0x00026878   Data           0  moc_s60audioencodercontrol.o(.constdata)
    qt_meta_data_S60AudioEncoderControl      0x00026878   Data          60  moc_s60audioencodercontrol.o(.constdata)
    .constdata                               0x00026878   Section      100  moc_s60audioencodercontrol.o(.constdata)
    qt_meta_stringdata_S60AudioEncoderControl 0x000268b4   Data          24  moc_s60audioencodercontrol.o(.constdata)
    .constdata$1                             0x000268dc   Data           0  moc_s60audiomediarecordercontrol.o(.constdata)
    qt_meta_data_S60AudioMediaRecorderControl 0x000268dc   Data         160  moc_s60audiomediarecordercontrol.o(.constdata)
    .constdata                               0x000268dc   Section      312  moc_s60audiomediarecordercontrol.o(.constdata)
    qt_meta_stringdata_S60AudioMediaRecorderControl 0x0002697c   Data         133  moc_s60audiomediarecordercontrol.o(.constdata)
    .constdata$1                             0x00026a14   Data           0  moc_s60audioendpointselector.o(.constdata)
    qt_meta_data_S60AudioEndpointSelector    0x00026a14   Data          80  moc_s60audioendpointselector.o(.constdata)
    .constdata                               0x00026a14   Section      156  moc_s60audioendpointselector.o(.constdata)
    qt_meta_stringdata_S60AudioEndpointSelector 0x00026a64   Data          59  moc_s60audioendpointselector.o(.constdata)
    .constdata$1                             0x00026ab0   Data           0  moc_s60audiocaptureservice.o(.constdata)
    qt_meta_data_S60AudioCaptureService      0x00026ab0   Data          60  moc_s60audiocaptureservice.o(.constdata)
    .constdata                               0x00026ab0   Section      100  moc_s60audiocaptureservice.o(.constdata)
    qt_meta_stringdata_S60AudioCaptureService 0x00026aec   Data          24  moc_s60audiocaptureservice.o(.constdata)
    .constdata$1                             0x00026b14   Data           0  moc_s60audiocapturesession.o(.constdata)
    qt_meta_data_S60AudioCaptureSession      0x00026b14   Data         240  moc_s60audiocapturesession.o(.constdata)
    .constdata                               0x00026b14   Section      588  moc_s60audiocapturesession.o(.constdata)
    qt_meta_stringdata_S60AudioCaptureSession 0x00026c04   Data         329  moc_s60audiocapturesession.o(.constdata)
    .constdata$1                             0x00026d60   Data           0  moc_S60audiocontainercontrol.o(.constdata)
    qt_meta_data_S60AudioContainerControl    0x00026d60   Data          60  moc_S60audiocontainercontrol.o(.constdata)
    .constdata                               0x00026d60   Section      104  moc_S60audiocontainercontrol.o(.constdata)
    qt_meta_stringdata_S60AudioContainerControl 0x00026d9c   Data          26  moc_S60audiocontainercontrol.o(.constdata)
    .constdata$1                             0x00026dc8   Data           0  moc_s60mediaserviceplugin.o(.constdata)
    qt_meta_data_S60MediaServicePlugin       0x00026dc8   Data          60  moc_s60mediaserviceplugin.o(.constdata)
    .constdata                               0x00026dc8   Section      100  moc_s60mediaserviceplugin.o(.constdata)
    qt_meta_stringdata_S60MediaServicePlugin 0x00026e04   Data          23  moc_s60mediaserviceplugin.o(.constdata)
    .constdata$1                             0x00026e2c   Data           0  s60mediaserviceplugin.o(.constdata)
    qt_plugin_verification_data              0x00026e2c   Data          91  s60mediaserviceplugin.o(.constdata)
    .constdata                               0x00026e2c   Section       91  s60mediaserviceplugin.o(.constdata)
    .constdata$1                             0x00026e88   Data           0  s60formatsupported.o(.constdata)
    KUidMediaTypeAudio                       0x00026e88   Data           4  s60formatsupported.o(.constdata)
    .constdata                               0x00026e88   Section        8  s60formatsupported.o(.constdata)
    KUidMediaTypeVideo                       0x00026e8c   Data           4  s60formatsupported.o(.constdata)
    .constdata$1                             0x00026e90   Data           0  s60audiomediarecordercontrol.o(.constdata)
    .constdata                               0x00026e90   Section       68  s60audiomediarecordercontrol.o(.constdata)
    .constdata$1                             0x00026ed4   Data           0  s60audiocapturesession.o(.constdata)
    KUidMediaTypeAudio                       0x00026ed4   Data           4  s60audiocapturesession.o(.constdata)
    .constdata                               0x00026ed4   Section       72  s60audiocapturesession.o(.constdata)
    .constdata$1                             0x00026f1c   Data           0  S60audiocontainercontrol.o(.constdata)
    .constdata                               0x00026f1c   Section      328  S60audiocontainercontrol.o(.constdata)
    .constdata$1                             0x00027064   Data           0  s60mediaplayersession.o(.constdata)
    .constdata                               0x00027064   Section       88  s60mediaplayersession.o(.constdata)
    .constdata$1                             0x000270bc   Data           0  s60videoplayersession.o(.constdata)
    KNullDesC8                               0x000270bc   Data           8  s60videoplayersession.o(.constdata)
    .constdata                               0x000270bc   Section       48  s60videoplayersession.o(.constdata)
    KSeekable                                0x000270c4   Data          24  s60videoplayersession.o(.constdata)
    KFalse                                   0x000270dc   Data           8  s60videoplayersession.o(.constdata)
    KUidInterfaceMMFROPController            0x000270e4   Data           4  s60videoplayersession.o(.constdata)
    KHelixUID                                0x000270e8   Data           4  s60videoplayersession.o(.constdata)
    .constdata$1                             0x000270ec   Data           0  s60mediarecognizer.o(.constdata)
    KMimeTypePrefixAudio                     0x000270ec   Data          20  s60mediarecognizer.o(.constdata)
    .constdata                               0x000270ec   Section       40  s60mediarecognizer.o(.constdata)
    KMimeTypePrefixVideo                     0x00027100   Data          20  s60mediarecognizer.o(.constdata)
    .constdata$1                             0x00027114   Data           0  s60mediaplayeraudioendpointselector.o(.constdata)
    .constdata                               0x00027114   Section      884  s60mediaplayeraudioendpointselector.o(.constdata)
    .constdata__ZN9stlp_priv15_Integer_limitsIaLan128ELa127ELin1ELb1EE6digitsE 0x00027488   Section        4  moc_s60videodisplay.o(.constdata__ZN9stlp_priv15_Integer_limitsIaLan128ELa127ELin1ELb1EE6digitsE)
    .constdata__ZN9stlp_priv15_Integer_limitsIbLb0ELb1ELi1ELb0EE6digitsE 0x0002748c   Section        4  moc_s60videodisplay.o(.constdata__ZN9stlp_priv15_Integer_limitsIbLb0ELb1ELi1ELb0EE6digitsE)
    .constdata__ZN9stlp_priv15_Integer_limitsIcLc128ELc127ELin1ELb1EE6digitsE 0x00027490   Section        4  moc_s60videodisplay.o(.constdata__ZN9stlp_priv15_Integer_limitsIcLc128ELc127ELin1ELb1EE6digitsE)
    .constdata__ZN9stlp_priv15_Integer_limitsIhLh0ELh255ELin1ELb1EE6digitsE 0x00027494   Section        4  moc_s60videodisplay.o(.constdata__ZN9stlp_priv15_Integer_limitsIhLh0ELh255ELin1ELb1EE6digitsE)
    .constdata__ZN9stlp_priv15_Integer_limitsIiLin2147483648ELi2147483647ELin1ELb1EE6digitsE 0x00027498   Section        4  moc_s60videodisplay.o(.constdata__ZN9stlp_priv15_Integer_limitsIiLin2147483648ELi2147483647ELin1ELb1EE6digitsE)
    .constdata__ZN9stlp_priv15_Integer_limitsIiLin2147483648ELi2147483647ELin1ELb1EE9is_signedE 0x0002749c   Section        1  moc_s60videodisplay.o(.constdata__ZN9stlp_priv15_Integer_limitsIiLin2147483648ELi2147483647ELin1ELb1EE9is_signedE)
    .constdata__ZN9stlp_priv15_Integer_limitsIjLj0ELj4294967295ELin1ELb1EE6digitsE 0x000274a0   Section        4  moc_s60videodisplay.o(.constdata__ZN9stlp_priv15_Integer_limitsIjLj0ELj4294967295ELin1ELb1EE6digitsE)
    .constdata__ZN9stlp_priv15_Integer_limitsIlLln2147483648ELl2147483647ELin1ELb1EE6digitsE 0x000274a4   Section        4  moc_s60videodisplay.o(.constdata__ZN9stlp_priv15_Integer_limitsIlLln2147483648ELl2147483647ELin1ELb1EE6digitsE)
    .constdata__ZN9stlp_priv15_Integer_limitsImLm0ELm4294967295ELin1ELb1EE6digitsE 0x000274a8   Section        4  moc_s60videodisplay.o(.constdata__ZN9stlp_priv15_Integer_limitsImLm0ELm4294967295ELin1ELb1EE6digitsE)
    .constdata__ZN9stlp_priv15_Integer_limitsIsLsn32768ELs32767ELin1ELb1EE6digitsE 0x000274ac   Section        4  moc_s60videodisplay.o(.constdata__ZN9stlp_priv15_Integer_limitsIsLsn32768ELs32767ELin1ELb1EE6digitsE)
    .constdata__ZN9stlp_priv15_Integer_limitsItLt0ELt65535ELin1ELb1EE6digitsE 0x000274b0   Section        4  moc_s60videodisplay.o(.constdata__ZN9stlp_priv15_Integer_limitsItLt0ELt65535ELin1ELb1EE6digitsE)
    .constdata__ZN9stlp_priv15_Integer_limitsIwLw0ELw65535ELin1ELb1EE6digitsE 0x000274b4   Section        4  moc_s60videodisplay.o(.constdata__ZN9stlp_priv15_Integer_limitsIwLw0ELw65535ELin1ELb1EE6digitsE)
    .constdata__ZN9stlp_priv15_Integer_limitsIxLxn9223372036854775808ELx9223372036854775807ELin1ELb1EE6digitsE 0x000274b8   Section        4  moc_s60videodisplay.o(.constdata__ZN9stlp_priv15_Integer_limitsIxLxn9223372036854775808ELx9223372036854775807ELin1ELb1EE6digitsE)
    .constdata__ZN9stlp_priv15_Integer_limitsIyLy0ELy18446744073709551615ELin1ELb1EE6digitsE 0x000274bc   Section        4  moc_s60videodisplay.o(.constdata__ZN9stlp_priv15_Integer_limitsIyLy0ELy18446744073709551615ELin1ELb1EE6digitsE)
    .constdata__ZTI14S60VideoWidget          0x000274c0   Section       12  moc_s60videowidget.o(.constdata__ZTI14S60VideoWidget)
    .constdata__ZTI15S60VideoDisplay         0x000274cc   Section       12  moc_s60videodisplay.o(.constdata__ZTI15S60VideoDisplay)
    .constdata__ZTI15S60VideoSurface         0x000274d8   Section       12  moc_s60videosurface.o(.constdata__ZTI15S60VideoSurface)
    .constdata__ZTI17QFactoryInterface       0x000274e4   Section        8  s60mediaserviceplugin.o(.constdata__ZTI17QFactoryInterface)
    .constdata__ZTI18S60MediaRecognizer      0x000274ec   Section       12  moc_s60mediarecognizer.o(.constdata__ZTI18S60MediaRecognizer)
    .constdata__ZTI20MAudioOutputObserver    0x000274f8   Section        8  moc_s60videoplayersession.o(.constdata__ZTI20MAudioOutputObserver)
    .constdata__ZTI20MRadioPlayerObserver    0x00027500   Section        8  moc_s60radiotunercontrol_since32.o(.constdata__ZTI20MRadioPlayerObserver)
    .constdata__ZTI20S60RadioTunerControl    0x00027508   Section       40  moc_s60radiotunercontrol_since32.o(.constdata__ZTI20S60RadioTunerControl)
    .constdata__ZTI20S60RadioTunerService    0x00027530   Section       12  moc_s60radiotunerservice.o(.constdata__ZTI20S60RadioTunerService)
    .constdata__ZTI21MAudioLoadingObserver   0x0002753c   Section        8  moc_s60audioplayersession.o(.constdata__ZTI21MAudioLoadingObserver)
    .constdata__ZTI21MRadioFmTunerObserver   0x00027544   Section        8  moc_s60radiotunercontrol_since32.o(.constdata__ZTI21MRadioFmTunerObserver)
    .constdata__ZTI21MVideoLoadingObserver   0x0002754c   Section        8  moc_s60videoplayersession.o(.constdata__ZTI21MVideoLoadingObserver)
    .constdata__ZTI21S60AudioPlayerSession   0x00027554   Section       48  moc_s60audioplayersession.o(.constdata__ZTI21S60AudioPlayerSession)
    .constdata__ZTI21S60MediaPlayerControl   0x00027584   Section       12  moc_s60mediaplayercontrol.o(.constdata__ZTI21S60MediaPlayerControl)
    .constdata__ZTI21S60MediaPlayerService   0x00027590   Section       32  moc_s60mediaplayerservice.o(.constdata__ZTI21S60MediaPlayerService)
    .constdata__ZTI21S60MediaPlayerSession   0x000275b0   Section       12  moc_s60mediaplayersession.o(.constdata__ZTI21S60MediaPlayerSession)
    .constdata__ZTI21S60MediaServicePlugin   0x000275bc   Section       32  moc_s60mediaserviceplugin.o(.constdata__ZTI21S60MediaServicePlugin)
    .constdata__ZTI21S60MediaStreamControl   0x000275dc   Section       12  moc_s60mediastreamcontrol.o(.constdata__ZTI21S60MediaStreamControl)
    .constdata__ZTI21S60VideoPlayerSession   0x000275e8   Section       48  moc_s60videoplayersession.o(.constdata__ZTI21S60VideoPlayerSession)
    .constdata__ZTI21S60VideoWidgetControl   0x00027618   Section       12  moc_s60videowidgetcontrol.o(.constdata__ZTI21S60VideoWidgetControl)
    .constdata__ZTI21S60VideoWidgetDisplay   0x00027624   Section       12  moc_s60videowidgetdisplay.o(.constdata__ZTI21S60VideoWidgetDisplay)
    .constdata__ZTI21S60VideoWindowControl   0x00027630   Section       12  moc_s60videowindowcontrol.o(.constdata__ZTI21S60VideoWindowControl)
    .constdata__ZTI21S60VideoWindowDisplay   0x0002763c   Section       12  s60videowindowdisplay.o(.constdata__ZTI21S60VideoWindowDisplay)
    .constdata__ZTI22QGraphicsEffectPrivate  0x00027648   Section       12  s60videooutpututils.o(.constdata__ZTI22QGraphicsEffectPrivate)
    .constdata__ZTI22S60AudioCaptureService  0x00027654   Section       12  moc_s60audiocaptureservice.o(.constdata__ZTI22S60AudioCaptureService)
    .constdata__ZTI22S60AudioCaptureSession  0x00027660   Section       32  moc_s60audiocapturesession.o(.constdata__ZTI22S60AudioCaptureSession)
    .constdata__ZTI22S60AudioEncoderControl  0x00027680   Section       12  moc_s60audioencodercontrol.o(.constdata__ZTI22S60AudioEncoderControl)
    .constdata__ZTI23MMdaAudioPlayerCallback 0x0002768c   Section        8  moc_s60audioplayersession.o(.constdata__ZTI23MMdaAudioPlayerCallback)
    .constdata__ZTI23MS60MediaPlayerResolver 0x00027694   Section        8  moc_s60mediaplayerservice.o(.constdata__ZTI23MS60MediaPlayerResolver)
    .constdata__ZTI24S60AudioContainerControl 0x0002769c   Section       12  moc_S60audiocontainercontrol.o(.constdata__ZTI24S60AudioContainerControl)
    .constdata__ZTI24S60AudioEndpointSelector 0x000276a8   Section       12  moc_s60audioendpointselector.o(.constdata__ZTI24S60AudioEndpointSelector)
    .constdata__ZTI24S60MediaMetaDataProvider 0x000276b4   Section       12  moc_s60mediametadataprovider.o(.constdata__ZTI24S60MediaMetaDataProvider)
    .constdata__ZTI26QGraphicsBlurEffectPrivate 0x000276c0   Section       12  s60videooutpututils.o(.constdata__ZTI26QGraphicsBlurEffectPrivate)
    .constdata__ZTI27MVideoPlayerUtilityObserver 0x000276cc   Section        8  moc_s60videoplayersession.o(.constdata__ZTI27MVideoPlayerUtilityObserver)
    .constdata__ZTI28S60AudioMediaRecorderControl 0x000276d4   Section       12  moc_s60audiomediarecordercontrol.o(.constdata__ZTI28S60AudioMediaRecorderControl)
    .constdata__ZTI29MMdaObjectStateChangeObserver 0x000276e0   Section        8  moc_s60audiocapturesession.o(.constdata__ZTI29MMdaObjectStateChangeObserver)
    .constdata__ZTI30QGraphicsColorizeEffectPrivate 0x000276e8   Section       12  s60videooutpututils.o(.constdata__ZTI30QGraphicsColorizeEffectPrivate)
    .constdata__ZTI32QGraphicsDropShadowEffectPrivate 0x000276f4   Section       12  s60videooutpututils.o(.constdata__ZTI32QGraphicsDropShadowEffectPrivate)
    .constdata__ZTI35S60MediaPlayerAudioEndpointSelector 0x00027700   Section       12  moc_s60mediaplayeraudioendpointselector.o(.constdata__ZTI35S60MediaPlayerAudioEndpointSelector)
    .constdata__ZTI37QMediaServiceProviderFactoryInterface 0x0002770c   Section       12  s60mediaserviceplugin.o(.constdata__ZTI37QMediaServiceProviderFactoryInterface)
    .constdata__ZTI38QMediaServiceSupportedFormatsInterface 0x00027718   Section        8  moc_s60mediaserviceplugin.o(.constdata__ZTI38QMediaServiceSupportedFormatsInterface)
    .constdata__ZTS14S60VideoWidget          0x00027720   Section       17  moc_s60videowidget.o(.constdata__ZTS14S60VideoWidget)
    .constdata__ZTS15S60VideoDisplay         0x00027731   Section       18  moc_s60videodisplay.o(.constdata__ZTS15S60VideoDisplay)
    .constdata__ZTS15S60VideoSurface         0x00027743   Section       18  moc_s60videosurface.o(.constdata__ZTS15S60VideoSurface)
    .constdata__ZTS17QFactoryInterface       0x00027755   Section       20  s60mediaserviceplugin.o(.constdata__ZTS17QFactoryInterface)
    .constdata__ZTS18S60MediaRecognizer      0x00027769   Section       21  moc_s60mediarecognizer.o(.constdata__ZTS18S60MediaRecognizer)
    .constdata__ZTS20MAudioOutputObserver    0x0002777e   Section       23  moc_s60videoplayersession.o(.constdata__ZTS20MAudioOutputObserver)
    .constdata__ZTS20MRadioPlayerObserver    0x00027795   Section       23  moc_s60radiotunercontrol_since32.o(.constdata__ZTS20MRadioPlayerObserver)
    .constdata__ZTS20S60RadioTunerControl    0x000277ac   Section       23  moc_s60radiotunercontrol_since32.o(.constdata__ZTS20S60RadioTunerControl)
    .constdata__ZTS20S60RadioTunerService    0x000277c3   Section       23  moc_s60radiotunerservice.o(.constdata__ZTS20S60RadioTunerService)
    .constdata__ZTS21MAudioLoadingObserver   0x000277da   Section       24  moc_s60audioplayersession.o(.constdata__ZTS21MAudioLoadingObserver)
    .constdata__ZTS21MRadioFmTunerObserver   0x000277f2   Section       24  moc_s60radiotunercontrol_since32.o(.constdata__ZTS21MRadioFmTunerObserver)
    .constdata__ZTS21MVideoLoadingObserver   0x0002780a   Section       24  moc_s60videoplayersession.o(.constdata__ZTS21MVideoLoadingObserver)
    .constdata__ZTS21S60AudioPlayerSession   0x00027822   Section       24  moc_s60audioplayersession.o(.constdata__ZTS21S60AudioPlayerSession)
    .constdata__ZTS21S60MediaPlayerControl   0x0002783a   Section       24  moc_s60mediaplayercontrol.o(.constdata__ZTS21S60MediaPlayerControl)
    .constdata__ZTS21S60MediaPlayerService   0x00027852   Section       24  moc_s60mediaplayerservice.o(.constdata__ZTS21S60MediaPlayerService)
    .constdata__ZTS21S60MediaPlayerSession   0x0002786a   Section       24  moc_s60mediaplayersession.o(.constdata__ZTS21S60MediaPlayerSession)
    .constdata__ZTS21S60MediaServicePlugin   0x00027882   Section       24  moc_s60mediaserviceplugin.o(.constdata__ZTS21S60MediaServicePlugin)
    .constdata__ZTS21S60MediaStreamControl   0x0002789a   Section       24  moc_s60mediastreamcontrol.o(.constdata__ZTS21S60MediaStreamControl)
    .constdata__ZTS21S60VideoPlayerSession   0x000278b2   Section       24  moc_s60videoplayersession.o(.constdata__ZTS21S60VideoPlayerSession)
    .constdata__ZTS21S60VideoWidgetControl   0x000278ca   Section       24  moc_s60videowidgetcontrol.o(.constdata__ZTS21S60VideoWidgetControl)
    .constdata__ZTS21S60VideoWidgetDisplay   0x000278e2   Section       24  moc_s60videowidgetdisplay.o(.constdata__ZTS21S60VideoWidgetDisplay)
    .constdata__ZTS21S60VideoWindowControl   0x000278fa   Section       24  moc_s60videowindowcontrol.o(.constdata__ZTS21S60VideoWindowControl)
    .constdata__ZTS21S60VideoWindowDisplay   0x00027912   Section       24  s60videowindowdisplay.o(.constdata__ZTS21S60VideoWindowDisplay)
    .constdata__ZTS22QGraphicsEffectPrivate  0x0002792a   Section       25  s60videooutpututils.o(.constdata__ZTS22QGraphicsEffectPrivate)
    .constdata__ZTS22S60AudioCaptureService  0x00027943   Section       25  moc_s60audiocaptureservice.o(.constdata__ZTS22S60AudioCaptureService)
    .constdata__ZTS22S60AudioCaptureSession  0x0002795c   Section       25  moc_s60audiocapturesession.o(.constdata__ZTS22S60AudioCaptureSession)
    .constdata__ZTS22S60AudioEncoderControl  0x00027975   Section       25  moc_s60audioencodercontrol.o(.constdata__ZTS22S60AudioEncoderControl)
    .constdata__ZTS23MMdaAudioPlayerCallback 0x0002798e   Section       26  moc_s60audioplayersession.o(.constdata__ZTS23MMdaAudioPlayerCallback)
    .constdata__ZTS23MS60MediaPlayerResolver 0x000279a8   Section       26  moc_s60mediaplayerservice.o(.constdata__ZTS23MS60MediaPlayerResolver)
    .constdata__ZTS24S60AudioContainerControl 0x000279c2   Section       27  moc_S60audiocontainercontrol.o(.constdata__ZTS24S60AudioContainerControl)
    .constdata__ZTS24S60AudioEndpointSelector 0x000279dd   Section       27  moc_s60audioendpointselector.o(.constdata__ZTS24S60AudioEndpointSelector)
    .constdata__ZTS24S60MediaMetaDataProvider 0x000279f8   Section       27  moc_s60mediametadataprovider.o(.constdata__ZTS24S60MediaMetaDataProvider)
    .constdata__ZTS26QGraphicsBlurEffectPrivate 0x00027a13   Section       29  s60videooutpututils.o(.constdata__ZTS26QGraphicsBlurEffectPrivate)
    .constdata__ZTS27MVideoPlayerUtilityObserver 0x00027a30   Section       30  moc_s60videoplayersession.o(.constdata__ZTS27MVideoPlayerUtilityObserver)
    .constdata__ZTS28S60AudioMediaRecorderControl 0x00027a4e   Section       31  moc_s60audiomediarecordercontrol.o(.constdata__ZTS28S60AudioMediaRecorderControl)
    .constdata__ZTS29MMdaObjectStateChangeObserver 0x00027a6d   Section       32  moc_s60audiocapturesession.o(.constdata__ZTS29MMdaObjectStateChangeObserver)
    .constdata__ZTS30QGraphicsColorizeEffectPrivate 0x00027a8d   Section       33  s60videooutpututils.o(.constdata__ZTS30QGraphicsColorizeEffectPrivate)
    .constdata__ZTS32QGraphicsDropShadowEffectPrivate 0x00027aae   Section       35  s60videooutpututils.o(.constdata__ZTS32QGraphicsDropShadowEffectPrivate)
    .constdata__ZTS35S60MediaPlayerAudioEndpointSelector 0x00027ad1   Section       38  moc_s60mediaplayeraudioendpointselector.o(.constdata__ZTS35S60MediaPlayerAudioEndpointSelector)
    .constdata__ZTS37QMediaServiceProviderFactoryInterface 0x00027af7   Section       40  s60mediaserviceplugin.o(.constdata__ZTS37QMediaServiceProviderFactoryInterface)
    .constdata__ZTS38QMediaServiceSupportedFormatsInterface 0x00027b1f   Section       41  moc_s60mediaserviceplugin.o(.constdata__ZTS38QMediaServiceSupportedFormatsInterface)
    .constdata__ZTV14S60VideoWidget          0x00027b48   Section      248  moc_s60videowidget.o(.constdata__ZTV14S60VideoWidget)
    .constdata__ZTV15S60VideoDisplay         0x00027c40   Section       68  moc_s60videodisplay.o(.constdata__ZTV15S60VideoDisplay)
    .constdata__ZTV15S60VideoSurface         0x00027c84   Section       80  moc_s60videosurface.o(.constdata__ZTV15S60VideoSurface)
    .constdata__ZTV17QFactoryInterface       0x00027cd4   Section       20  s60mediaserviceplugin.o(.constdata__ZTV17QFactoryInterface)
    .constdata__ZTV18S60MediaRecognizer      0x00027ce8   Section       56  moc_s60mediarecognizer.o(.constdata__ZTV18S60MediaRecognizer)
    .constdata__ZTV20MAudioOutputObserver    0x00027d20   Section       12  s60videoplayersession.o(.constdata__ZTV20MAudioOutputObserver)
    .constdata__ZTV20MRadioPlayerObserver    0x00027d2c   Section       24  s60radiotunercontrol_since32.o(.constdata__ZTV20MRadioPlayerObserver)
    .constdata__ZTV20S60RadioTunerControl    0x00027d44   Section      296  moc_s60radiotunercontrol_since32.o(.constdata__ZTV20S60RadioTunerControl)
    .constdata__ZTV20S60RadioTunerService    0x00027e6c   Section       64  moc_s60radiotunerservice.o(.constdata__ZTV20S60RadioTunerService)
    .constdata__ZTV21MAudioLoadingObserver   0x00027eac   Section       16  s60audioplayersession.o(.constdata__ZTV21MAudioLoadingObserver)
    .constdata__ZTV21MRadioFmTunerObserver   0x00027ebc   Section       52  s60radiotunercontrol_since32.o(.constdata__ZTV21MRadioFmTunerObserver)
    .constdata__ZTV21MVideoLoadingObserver   0x00027ef0   Section       16  s60videoplayersession.o(.constdata__ZTV21MVideoLoadingObserver)
    .constdata__ZTV21S60AudioPlayerSession   0x00027f00   Section      204  moc_s60audioplayersession.o(.constdata__ZTV21S60AudioPlayerSession)
    .constdata__ZTV21S60MediaPlayerControl   0x00027fcc   Section      144  moc_s60mediaplayercontrol.o(.constdata__ZTV21S60MediaPlayerControl)
    .constdata__ZTV21S60MediaPlayerService   0x0002805c   Section       96  moc_s60mediaplayerservice.o(.constdata__ZTV21S60MediaPlayerService)
    .constdata__ZTV21S60MediaPlayerSession   0x000280bc   Section      140  moc_s60mediaplayersession.o(.constdata__ZTV21S60MediaPlayerSession)
    .constdata__ZTV21S60MediaServicePlugin   0x00028148   Section      128  moc_s60mediaserviceplugin.o(.constdata__ZTV21S60MediaServicePlugin)
    .constdata__ZTV21S60MediaStreamControl   0x000281c8   Section       76  moc_s60mediastreamcontrol.o(.constdata__ZTV21S60MediaStreamControl)
    .constdata__ZTV21S60VideoPlayerSession   0x00028214   Section      228  moc_s60videoplayersession.o(.constdata__ZTV21S60VideoPlayerSession)
    .constdata__ZTV21S60VideoWidgetControl   0x000282f8   Section      108  moc_s60videowidgetcontrol.o(.constdata__ZTV21S60VideoWidgetControl)
    .constdata__ZTV21S60VideoWidgetDisplay   0x00028364   Section       68  moc_s60videowidgetdisplay.o(.constdata__ZTV21S60VideoWidgetDisplay)
    .constdata__ZTV21S60VideoWindowControl   0x000283a8   Section      128  moc_s60videowindowcontrol.o(.constdata__ZTV21S60VideoWindowControl)
    .constdata__ZTV21S60VideoWindowDisplay   0x00028428   Section       68  s60videowindowdisplay.o(.constdata__ZTV21S60VideoWindowDisplay)
    .constdata__ZTV22S60AudioCaptureService  0x0002846c   Section       64  moc_s60audiocaptureservice.o(.constdata__ZTV22S60AudioCaptureService)
    .constdata__ZTV22S60AudioCaptureSession  0x000284ac   Section       72  moc_s60audiocapturesession.o(.constdata__ZTV22S60AudioCaptureSession)
    .constdata__ZTV22S60AudioEncoderControl  0x000284f4   Section       88  moc_s60audioencodercontrol.o(.constdata__ZTV22S60AudioEncoderControl)
    .constdata__ZTV23MMdaAudioPlayerCallback 0x0002854c   Section       16  s60audioplayersession.o(.constdata__ZTV23MMdaAudioPlayerCallback)
    .constdata__ZTV23MS60MediaPlayerResolver 0x0002855c   Section       20  s60mediaplayerservice.o(.constdata__ZTV23MS60MediaPlayerResolver)
    .constdata__ZTV24S60AudioContainerControl 0x00028570   Section       72  moc_S60audiocontainercontrol.o(.constdata__ZTV24S60AudioContainerControl)
    .constdata__ZTV24S60AudioEndpointSelector 0x000285b8   Section       76  moc_s60audioendpointselector.o(.constdata__ZTV24S60AudioEndpointSelector)
    .constdata__ZTV24S60MediaMetaDataProvider 0x00028604   Section       76  moc_s60mediametadataprovider.o(.constdata__ZTV24S60MediaMetaDataProvider)
    .constdata__ZTV26QGraphicsBlurEffectPrivate 0x00028650   Section       16  s60videooutpututils.o(.constdata__ZTV26QGraphicsBlurEffectPrivate)
    .constdata__ZTV27MVideoPlayerUtilityObserver 0x00028660   Section       28  s60videoplayersession.o(.constdata__ZTV27MVideoPlayerUtilityObserver)
    .constdata__ZTV28S60AudioMediaRecorderControl 0x0002867c   Section       96  moc_s60audiomediarecordercontrol.o(.constdata__ZTV28S60AudioMediaRecorderControl)
    .constdata__ZTV29MMdaObjectStateChangeObserver 0x000286dc   Section       12  s60audiocapturesession.o(.constdata__ZTV29MMdaObjectStateChangeObserver)
    .constdata__ZTV30QGraphicsColorizeEffectPrivate 0x000286e8   Section       16  s60videooutpututils.o(.constdata__ZTV30QGraphicsColorizeEffectPrivate)
    .constdata__ZTV32QGraphicsDropShadowEffectPrivate 0x000286f8   Section       16  s60videooutpututils.o(.constdata__ZTV32QGraphicsDropShadowEffectPrivate)
    .constdata__ZTV35S60MediaPlayerAudioEndpointSelector 0x00028708   Section       76  moc_s60mediaplayeraudioendpointselector.o(.constdata__ZTV35S60MediaPlayerAudioEndpointSelector)
    .constdata__ZTV37QMediaServiceProviderFactoryInterface 0x00028754   Section       28  s60mediaserviceplugin.o(.constdata__ZTV37QMediaServiceProviderFactoryInterface)
    .constdata__ZTV38QMediaServiceSupportedFormatsInterface 0x00028770   Section       24  s60mediaserviceplugin.o(.constdata__ZTV38QMediaServiceSupportedFormatsInterface)
    .init_array                              0x00028788   Section        4  s60audiocapturesession.o(.init_array)
    .init_array                              0x0002878c   Section        4  s60videoplayersession.o(.init_array)
    .ARM.exidx                               0x00028790   Section        8  ucppinit.o(.ARM.exidx)
    .data$0                                  0x00400000   Data           0  s60mediaserviceplugin.o(.data)
    _ZGV_instance@qt_plugin_instance_0       0x00400000   Data           4  s60mediaserviceplugin.o(.data)
    .data                                    0x00400000   Section        8  s60mediaserviceplugin.o(.data)
    _instance@qt_plugin_instance_1           0x00400004   Data           4  s60mediaserviceplugin.o(.data)
    .data$0                                  0x00400008   Data           0  s60audiocapturesession.o(.data)
    .data                                    0x00400008   Section       12  s60audiocapturesession.o(.data)
    .data$0                                  0x00400014   Data           0  s60videoplayersession.o(.data)
    DefaultAudioEndpoint                     0x00400014   Data           4  s60videoplayersession.o(.data)
    .data                                    0x00400014   Section        4  s60videoplayersession.o(.data)
    .data$0                                  0x00400018   Data           0  ucppfini.o(.data)
    .data                                    0x00400018   Section        4  ucppfini.o(.data)
    .data__ZNSt19_Atomic_swap_structILi1EE12_S_swap_lockE 0x0040001c   Section       12  moc_s60videodisplay.o(.data__ZNSt19_Atomic_swap_structILi1EE12_S_swap_lockE)
    .bss$5                                   0x00400028   Data           0  ucppfini.o(.bss)
    .bss                                     0x00400028   Section     2048  ucppfini.o(.bss)

    Global Symbols

    Symbol Name                              Value     Ov Type        Size  Object(Section)

    AudioInputRouting{000a0000}[1020381e].dll 0x00000000   Data           0  anon$$obj.o ABSOLUTE
    AudioOutputRouting{000a0000}[1020381f].dll 0x00000000   Data           0  anon$$obj.o ABSOLUTE
    BuildAttributes$$THUMB_ISAv2$ARM_ISAv5$M$VFPv2$PE$A:L22$X:L11$S22$IEEE1$IW$USESV6$~STKCKD$USESV7$~SHL$OSPACE$ROPI$IEEEJ$EBA8$UX$FPIC$INDIRECT$REQ8$PRES8$EABIv2 0x00000000   Number         0  anon$$obj.o ABSOLUTE
    QtCore{00040703}[2001b2dc].dll           0x00000000   Data           0  anon$$obj.o ABSOLUTE
    QtGui{00040703}[2001b2dd].dll            0x00000000   Data           0  anon$$obj.o ABSOLUTE
    QtMultimediaKit{00010103}[2002ac77].dll  0x00000000   Data           0  anon$$obj.o ABSOLUTE
    Radio_Utility{000a0001}[10207b81].dll    0x00000000   Data           0  anon$$obj.o ABSOLUTE
    apgrfx{000a0000}[10003a3c].dll           0x00000000   Data           0  anon$$obj.o ABSOLUTE
    apmime{000a0000}[10003a1a].dll           0x00000000   Data           0  anon$$obj.o ABSOLUTE
    bafl{000a0000}[10003a0f].dll             0x00000000   Data           0  anon$$obj.o ABSOLUTE
    cone{000a0000}[10003a41].dll             0x00000000   Data           0  anon$$obj.o ABSOLUTE
    dfpaeabi{000a0000}.dll                   0x00000000   Data           0  anon$$obj.o ABSOLUTE
    drtaeabi{000a0000}.dll                   0x00000000   Data           0  anon$$obj.o ABSOLUTE
    drtrvct2_2{000a0000}.dll                 0x00000000   Data           0  anon$$obj.o ABSOLUTE
    efsrv{000a0000}[100039e4].dll            0x00000000   Data           0  anon$$obj.o ABSOLUTE
    euser{000a0000}[100039e5].dll            0x00000000   Data           0  anon$$obj.o ABSOLUTE
    fbscli{000a0000}[10003a15].dll           0x00000000   Data           0  anon$$obj.o ABSOLUTE
    libc{00010001}[10207369].dll             0x00000000   Data           0  anon$$obj.o ABSOLUTE
    mediaclientaudio{000a0000}[10003992].dll 0x00000000   Data           0  anon$$obj.o ABSOLUTE
    mediaclientvideo{000a0000}[101f4569].dll 0x00000000   Data           0  anon$$obj.o ABSOLUTE
    mmfcontrollerframework{000a0000}[101f76dd].dll 0x00000000   Data           0  anon$$obj.o ABSOLUTE
    qtmultimediakit_mmfengine{000a0000}[2002ac76].dll 0x00000000   Data           0  anon$$obj.o ABSOLUTE
    stdnew{000a0000}[20022178].dll           0x00000000   Data           0  anon$$obj.o ABSOLUTE
    ws32{000a0000}[10003b21].dll             0x00000000   Data           0  anon$$obj.o ABSOLUTE
    qt_message_output(QtMsgType, const char*)  - Undefined Reference
    _Z17qt_message_output9QtMsgTypePKc@QtCore{00040703}[2001b2dc].dll  - Undefined Reference
    qt_widget_private(QWidget*)               - Undefined Reference
    _Z17qt_widget_privateP7QWidget@QtGui{00040703}[2001b2dd].dll  - Undefined Reference
    qt_symbian_throwIfError(int)              - Undefined Reference
    _Z23qt_symbian_throwIfErrori@QtCore{00040703}[2001b2dc].dll  - Undefined Reference
    qFree(void*)                              - Undefined Reference
    _Z5qFreePv@QtCore{00040703}[2001b2dc].dll  - Undefined Reference
    qHash(const QString&)                     - Undefined Reference
    _Z5qHashRK7QString@QtCore{00040703}[2001b2dc].dll  - Undefined Reference
    qstrcmp(const char*, const char*)         - Undefined Reference
    _Z7qstrcmpPKcS0_@QtCore{00040703}[2001b2dc].dll  - Undefined Reference
    QByteArray::realloc(int)                  - Undefined Reference
    _ZN10QByteArray7reallocEi@QtCore{00040703}[2001b2dc].dll  - Undefined Reference
    RArrayBase::GetElementPtr(const CBase*, int)  - Undefined Reference
    _ZN10RArrayBase13GetElementPtrEPK5CBasei@euser{000a0000}[100039e5].dll  - Undefined Reference
    RArrayBase::HeapSortUnsigned()            - Undefined Reference
    _ZN10RArrayBase16HeapSortUnsignedEv@euser{000a0000}[100039e5].dll  - Undefined Reference
    RArrayBase::Close()                       - Undefined Reference
    _ZN10RArrayBase5CloseEv@euser{000a0000}[100039e5].dll  - Undefined Reference
    RArrayBase::Reset()                       - Undefined Reference
    _ZN10RArrayBase5ResetEv@euser{000a0000}[100039e5].dll  - Undefined Reference
    RArrayBase::Append(const void*)           - Undefined Reference
    _ZN10RArrayBase6AppendEPKv@euser{000a0000}[100039e5].dll  - Undefined Reference
    RArrayBase::GetCount(const CBase*)        - Undefined Reference
    _ZN10RArrayBase8GetCountEPK5CBase@euser{000a0000}[100039e5].dll  - Undefined Reference
    RArrayBase::RArrayBase(int)               - Undefined Reference
    _ZN10RArrayBaseC1Ei@euser{000a0000}[100039e5].dll  - Undefined Reference
    RWsSession::Flush()                       - Undefined Reference
    _ZN10RWsSession5FlushEv@ws32{000a0000}[10003b21].dll  - Undefined Reference
    CAudioInput::NewL(CMdaAudioRecorderUtility&)  - Undefined Reference
    _ZN11CAudioInput4NewLER24CMdaAudioRecorderUtility@AudioInputRouting{000a0000}[1020381e].dll  - Undefined Reference
    CDesC8Array::AppendL(const TDesC8&)       - Undefined Reference
    _ZN11CDesC8Array7AppendLERK6TDesC8@bafl{000a0000}[10003a0f].dll  - Undefined Reference
    QMetaObject::changeGuard(QObject**, QObject*)  - Undefined Reference
    _ZN11QMetaObject11changeGuardEPP7QObjectS1_@QtCore{00040703}[2001b2dc].dll  - Undefined Reference
    QMetaObject::removeGuard(QObject**)       - Undefined Reference
    _ZN11QMetaObject11removeGuardEPP7QObject@QtCore{00040703}[2001b2dc].dll  - Undefined Reference
    QMetaObject::invokeMethod(QObject*, const char*, Qt::ConnectionType, QGenericReturnArgument, QGenericArgument, QGenericArgument, QGenericArgument, QGenericArgument, QGenericArgument, QGenericArgument, QGenericArgument, QGenericArgument, QGenericArgument, QGenericArgument)  - Undefined Reference
    _ZN11QMetaObject12invokeMethodEP7QObjectPKcN2Qt14ConnectionTypeE22QGenericReturnArgument16QGenericArgumentS7_S7_S7_S7_S7_S7_S7_S7_S7_@QtCore{00040703}[2001b2dc].dll  - Undefined Reference
    QMetaObject::activate(QObject*, const QMetaObject*, int, void**)  - Undefined Reference
    _ZN11QMetaObject8activateEP7QObjectPKS_iPPv@QtCore{00040703}[2001b2dc].dll  - Undefined Reference
    QTextStream::QTextStream(QString*, QFlags<QIODevice::OpenModeFlag>)  - Undefined Reference
    _ZN11QTextStreamC1EP7QString6QFlagsIN9QIODevice12OpenModeFlagEE@QtCore{00040703}[2001b2dc].dll  - Undefined Reference
    QTextStream::~QTextStream()               - Undefined Reference
    _ZN11QTextStreamD1Ev@QtCore{00040703}[2001b2dc].dll  - Undefined Reference
    QTextStream::operator <<(const char*)     - Undefined Reference
    _ZN11QTextStreamlsEPKc@QtCore{00040703}[2001b2dc].dll  - Undefined Reference
    QTextStream::operator <<(const QString&)  - Undefined Reference
    _ZN11QTextStreamlsERK7QString@QtCore{00040703}[2001b2dc].dll  - Undefined Reference
    QTextStream::operator <<(char)            - Undefined Reference
    _ZN11QTextStreamlsEc@QtCore{00040703}[2001b2dc].dll  - Undefined Reference
    QTextStream::operator <<(float)           - Undefined Reference
    _ZN11QTextStreamlsEf@QtCore{00040703}[2001b2dc].dll  - Undefined Reference
    QTextStream::operator <<(int)             - Undefined Reference
    _ZN11QTextStreamlsEi@QtCore{00040703}[2001b2dc].dll  - Undefined Reference
    QVectorData::shared_null                  - Undefined Reference
    _ZN11QVectorData11shared_nullE@QtCore{00040703}[2001b2dc].dll  - Undefined Reference
    QVectorData::free(QVectorData*, int)      - Undefined Reference
    _ZN11QVectorData4freeEPS_i@QtCore{00040703}[2001b2dc].dll  - Undefined Reference
    CAudioOutput::NewL(CVideoPlayerUtility&)  - Undefined Reference
    _ZN12CAudioOutput4NewLER19CVideoPlayerUtility@AudioOutputRouting{000a0000}[1020381f].dll  - Undefined Reference
    CAudioOutput::NewL(CMdaAudioPlayerUtility&)  - Undefined Reference
    _ZN12CAudioOutput4NewLER22CMdaAudioPlayerUtility@AudioOutputRouting{000a0000}[1020381f].dll  - Undefined Reference
    CleanupStack::PopAndDestroy(int)          - Undefined Reference
    _ZN12CleanupStack13PopAndDestroyEi@euser{000a0000}[100039e5].dll  - Undefined Reference
    CleanupStack::PopAndDestroy()             - Undefined Reference
    _ZN12CleanupStack13PopAndDestroyEv@euser{000a0000}[100039e5].dll  - Undefined Reference
    CleanupStack::Check(void*)                - Undefined Reference
    _ZN12CleanupStack5CheckEPv@euser{000a0000}[100039e5].dll  - Undefined Reference
    CleanupStack::PushL(TCleanupItem)         - Undefined Reference
    _ZN12CleanupStack5PushLE12TCleanupItem@euser{000a0000}[100039e5].dll  - Undefined Reference
    QApplication::activeWindow()              - Undefined Reference
    _ZN12QApplication12activeWindowEv@QtGui{00040703}[2001b2dd].dll  - Undefined Reference
    QAudioFormat::setChannels(int)            - Undefined Reference
    _ZN12QAudioFormat11setChannelsEi@QtMultimediaKit{00010103}[2002ac77].dll  - Undefined Reference
    QAudioFormat::setFrequency(int)           - Undefined Reference
    _ZN12QAudioFormat12setFrequencyEi@QtMultimediaKit{00010103}[2002ac77].dll  - Undefined Reference
    QAudioFormat::setSampleSize(int)          - Undefined Reference
    _ZN12QAudioFormat13setSampleSizeEi@QtMultimediaKit{00010103}[2002ac77].dll  - Undefined Reference
    QAudioFormat::setSampleType(QAudioFormat::SampleType)  - Undefined Reference
    _ZN12QAudioFormat13setSampleTypeENS_10SampleTypeE@QtMultimediaKit{00010103}[2002ac77].dll  - Undefined Reference
    QAudioFormat::setCodec(const QString&)    - Undefined Reference
    _ZN12QAudioFormat8setCodecERK7QString@QtMultimediaKit{00010103}[2002ac77].dll  - Undefined Reference
    QAudioFormat::QAudioFormat(const QAudioFormat&)  - Undefined Reference
    _ZN12QAudioFormatC1ERKS_@QtMultimediaKit{00010103}[2002ac77].dll  - Undefined Reference
    QAudioFormat::QAudioFormat()              - Undefined Reference
    _ZN12QAudioFormatC1Ev@QtMultimediaKit{00010103}[2002ac77].dll  - Undefined Reference
    QAudioFormat::~QAudioFormat()             - Undefined Reference
    _ZN12QAudioFormatD1Ev@QtMultimediaKit{00010103}[2002ac77].dll  - Undefined Reference
    QAudioFormat::operator =(const QAudioFormat&)  - Undefined Reference
    _ZN12QAudioFormataSERKS_@QtMultimediaKit{00010103}[2002ac77].dll  - Undefined Reference
    RSessionBase::DoShare(int)                - Undefined Reference
    _ZN12RSessionBase7DoShareEi@euser{000a0000}[100039e5].dll  - Undefined Reference
    CRadioUtility::RadioPlayerUtilityL(MRadioPlayerObserver&)  - Undefined Reference
    _ZN13CRadioUtility19RadioPlayerUtilityLER20MRadioPlayerObserver@Radio_Utility{000a0001}[10207b81].dll  - Undefined Reference
    CRadioUtility::RadioFmTunerUtilityL(MRadioFmTunerObserver&)  - Undefined Reference
    _ZN13CRadioUtility20RadioFmTunerUtilityLER21MRadioFmTunerObserver@Radio_Utility{000a0001}[10207b81].dll  - Undefined Reference
    CRadioUtility::NewL(int)                  - Undefined Reference
    _ZN13CRadioUtility4NewLEi@Radio_Utility{000a0001}[10207b81].dll  - Undefined Reference
    QMediaContent::QMediaContent(const QMediaContent&)  - Undefined Reference
    _ZN13QMediaContentC1ERKS_@QtMultimediaKit{00010103}[2002ac77].dll  - Undefined Reference
    QMediaContent::QMediaContent()            - Undefined Reference
    _ZN13QMediaContentC1Ev@QtMultimediaKit{00010103}[2002ac77].dll  - Undefined Reference
    QMediaContent::~QMediaContent()           - Undefined Reference
    _ZN13QMediaContentD1Ev@QtMultimediaKit{00010103}[2002ac77].dll  - Undefined Reference
    QMediaContent::operator =(const QMediaContent&)  - Undefined Reference
    _ZN13QMediaContentaSERKS_@QtMultimediaKit{00010103}[2002ac77].dll  - Undefined Reference
    QMediaService::qt_metacall(QMetaObject::Call, int, void**)  - Undefined Reference
    _ZN13QMediaService11qt_metacallEN11QMetaObject4CallEiPPv@QtMultimediaKit{00010103}[2002ac77].dll  - Undefined Reference
    QMediaService::qt_metacast(const char*)   - Undefined Reference
    _ZN13QMediaService11qt_metacastEPKc@QtMultimediaKit{00010103}[2002ac77].dll  - Undefined Reference
    QMediaService::staticMetaObject           - Undefined Reference
    _ZN13QMediaService16staticMetaObjectE@QtMultimediaKit{00010103}[2002ac77].dll  - Undefined Reference
    QMediaService::QMediaService__sub_object(QObject*)  - Undefined Reference
    _ZN13QMediaServiceC2EP7QObject@QtMultimediaKit{00010103}[2002ac77].dll  - Undefined Reference
    QMediaService::~QMediaService__sub_object()  - Undefined Reference
    _ZN13QMediaServiceD2Ev@QtMultimediaKit{00010103}[2002ac77].dll  - Undefined Reference
    RApaLsSession::Close()                    - Undefined Reference
    _ZN13RApaLsSession5CloseEv@apgrfx{000a0000}[10003a3c].dll  - Undefined Reference
    RApaLsSession::Connect()                  - Undefined Reference
    _ZN13RApaLsSession7ConnectEv@apgrfx{000a0000}[10003a3c].dll  - Undefined Reference
    RApaLsSession::RApaLsSession()            - Undefined Reference
    _ZN13RApaLsSessionC1Ev@apgrfx{000a0000}[10003a3c].dll  - Undefined Reference
    QObjectPrivate::~QObjectPrivate()         - Undefined Reference
    _ZN14QObjectPrivateD1Ev@QtCore{00040703}[2001b2dc].dll  - Undefined Reference
    QWidgetPrivate::createExtra()             - Undefined Reference
    _ZN14QWidgetPrivate11createExtraEv@QtGui{00040703}[2001b2dd].dll  - Undefined Reference
    CDesC8ArrayFlat::CDesC8ArrayFlat(int)     - Undefined Reference
    _ZN15CDesC8ArrayFlatC1Ei@bafl{000a0000}[10003a0f].dll  - Undefined Reference
    QMediaTimeRange::addInterval(long long, long long)  - Undefined Reference
    _ZN15QMediaTimeRange11addIntervalExx@QtMultimediaKit{00010103}[2002ac77].dll  - Undefined Reference
    QMediaTimeRange::QMediaTimeRange()        - Undefined Reference
    _ZN15QMediaTimeRangeC1Ev@QtMultimediaKit{00010103}[2002ac77].dll  - Undefined Reference
    QMediaTimeRange::~QMediaTimeRange()       - Undefined Reference
    _ZN15QMediaTimeRangeD1Ev@QtMultimediaKit{00010103}[2002ac77].dll  - Undefined Reference
    RWindowTreeNode::SetNonFading(int)        - Undefined Reference
    _ZN15RWindowTreeNode12SetNonFadingEi@ws32{000a0000}[10003b21].dll  - Undefined Reference
    RWindowTreeNode::SetOrdinalPosition(int)  - Undefined Reference
    _ZN15RWindowTreeNode18SetOrdinalPositionEi@ws32{000a0000}[10003b21].dll  - Undefined Reference
    QCoreApplication::self                    - Undefined Reference
    _ZN16QCoreApplication4selfE@QtCore{00040703}[2001b2dc].dll  - Undefined Reference
    RPointerArrayBase::Close()                - Undefined Reference
    _ZN17RPointerArrayBase5CloseEv@euser{000a0000}[100039e5].dll  - Undefined Reference
    RPointerArrayBase::Reset()                - Undefined Reference
    _ZN17RPointerArrayBase5ResetEv@euser{000a0000}[100039e5].dll  - Undefined Reference
    RPointerArrayBase::RPointerArrayBase()    - Undefined Reference
    _ZN17RPointerArrayBaseC1Ev@euser{000a0000}[100039e5].dll  - Undefined Reference
    QRadioTunerControl::bandChanged(QRadioTuner::Band)  - Undefined Reference
    _ZN18QRadioTunerControl11bandChangedEN11QRadioTuner4BandE@QtMultimediaKit{00010103}[2002ac77].dll  - Undefined Reference
    QRadioTunerControl::qt_metacall(QMetaObject::Call, int, void**)  - Undefined Reference
    _ZN18QRadioTunerControl11qt_metacallEN11QMetaObject4CallEiPPv@QtMultimediaKit{00010103}[2002ac77].dll  - Undefined Reference
    QRadioTunerControl::qt_metacast(const char*)  - Undefined Reference
    _ZN18QRadioTunerControl11qt_metacastEPKc@QtMultimediaKit{00010103}[2002ac77].dll  - Undefined Reference
    QRadioTunerControl::mutedChanged(bool)    - Undefined Reference
    _ZN18QRadioTunerControl12mutedChangedEb@QtMultimediaKit{00010103}[2002ac77].dll  - Undefined Reference
    QRadioTunerControl::stateChanged(QRadioTuner::State)  - Undefined Reference
    _ZN18QRadioTunerControl12stateChangedEN11QRadioTuner5StateE@QtMultimediaKit{00010103}[2002ac77].dll  - Undefined Reference
    QRadioTunerControl::volumeChanged(int)    - Undefined Reference
    _ZN18QRadioTunerControl13volumeChangedEi@QtMultimediaKit{00010103}[2002ac77].dll  - Undefined Reference
    QRadioTunerControl::frequencyChanged(int)  - Undefined Reference
    _ZN18QRadioTunerControl16frequencyChangedEi@QtMultimediaKit{00010103}[2002ac77].dll  - Undefined Reference
    QRadioTunerControl::searchingChanged(bool)  - Undefined Reference
    _ZN18QRadioTunerControl16searchingChangedEb@QtMultimediaKit{00010103}[2002ac77].dll  - Undefined Reference
    QRadioTunerControl::staticMetaObject      - Undefined Reference
    _ZN18QRadioTunerControl16staticMetaObjectE@QtMultimediaKit{00010103}[2002ac77].dll  - Undefined Reference
    QRadioTunerControl::stereoStatusChanged(bool)  - Undefined Reference
    _ZN18QRadioTunerControl19stereoStatusChangedEb@QtMultimediaKit{00010103}[2002ac77].dll  - Undefined Reference
    QRadioTunerControl::signalStrengthChanged(int)  - Undefined Reference
    _ZN18QRadioTunerControl21signalStrengthChangedEi@QtMultimediaKit{00010103}[2002ac77].dll  - Undefined Reference
    QRadioTunerControl::QRadioTunerControl__sub_object(QObject*)  - Undefined Reference
    _ZN18QRadioTunerControlC2EP7QObject@QtMultimediaKit{00010103}[2002ac77].dll  - Undefined Reference
    QRadioTunerControl::~QRadioTunerControl__sub_object()  - Undefined Reference
    _ZN18QRadioTunerControlD2Ev@QtMultimediaKit{00010103}[2002ac77].dll  - Undefined Reference
    CRadioPlayerUtility::Mute(int)            - Undefined Reference
    _ZN19CRadioPlayerUtility4MuteEi@Radio_Utility{000a0001}[10207b81].dll  - Undefined Reference
    CRadioPlayerUtility::Play()               - Undefined Reference
    _ZN19CRadioPlayerUtility4PlayEv@Radio_Utility{000a0001}[10207b81].dll  - Undefined Reference
    CRadioPlayerUtility::Stop()               - Undefined Reference
    _ZN19CRadioPlayerUtility4StopEv@Radio_Utility{000a0001}[10207b81].dll  - Undefined Reference
    CRadioPlayerUtility::Close()              - Undefined Reference
    _ZN19CRadioPlayerUtility5CloseEv@Radio_Utility{000a0001}[10207b81].dll  - Undefined Reference
    CRadioPlayerUtility::SetVolume(int)       - Undefined Reference
    _ZN19CRadioPlayerUtility9SetVolumeEi@Radio_Utility{000a0001}[10207b81].dll  - Undefined Reference
    CVideoPlayerUtility::SetVolumeL(int)      - Undefined Reference
    _ZN19CVideoPlayerUtility10SetVolumeLEi@mediaclientvideo{000a0000}[101f4569].dll  - Undefined Reference
    CVideoPlayerUtility::SetPositionL(const TTimeIntervalMicroSeconds&)  - Undefined Reference
    _ZN19CVideoPlayerUtility12SetPositionLERK25TTimeIntervalMicroSeconds@mediaclientvideo{000a0000}[101f4569].dll  - Undefined Reference
    CVideoPlayerUtility::SetPlayVelocityL(int)  - Undefined Reference
    _ZN19CVideoPlayerUtility16SetPlayVelocityLEi@mediaclientvideo{000a0000}[101f4569].dll  - Undefined Reference
    CVideoPlayerUtility::CustomCommandSync(const TPckgBuf<TMMFMessageDestination>&, int, const TDesC8&, const TDesC8&)  - Undefined Reference
    _ZN19CVideoPlayerUtility17CustomCommandSyncERK8TPckgBufI22TMMFMessageDestinationEiRK6TDesC8S7_@mediaclientvideo{000a0000}[101f4569].dll  - Undefined Reference
    CVideoPlayerUtility::GetVideoLoadingProgressL(int&)  - Undefined Reference
    _ZN19CVideoPlayerUtility24GetVideoLoadingProgressLERi@mediaclientvideo{000a0000}[101f4569].dll  - Undefined Reference
    CVideoPlayerUtility::RegisterForVideoLoadingNotification(MVideoLoadingObserver&)  - Undefined Reference
    _ZN19CVideoPlayerUtility35RegisterForVideoLoadingNotificationER21MVideoLoadingObserver@mediaclientvideo{000a0000}[101f4569].dll  - Undefined Reference
    CVideoPlayerUtility::Play()               - Undefined Reference
    _ZN19CVideoPlayerUtility4PlayEv@mediaclientvideo{000a0000}[101f4569].dll  - Undefined Reference
    CVideoPlayerUtility::Stop()               - Undefined Reference
    _ZN19CVideoPlayerUtility4StopEv@mediaclientvideo{000a0000}[101f4569].dll  - Undefined Reference
    CVideoPlayerUtility::Close()              - Undefined Reference
    _ZN19CVideoPlayerUtility5CloseEv@mediaclientvideo{000a0000}[101f4569].dll  - Undefined Reference
    CVideoPlayerUtility::PauseL()             - Undefined Reference
    _ZN19CVideoPlayerUtility6PauseLEv@mediaclientvideo{000a0000}[101f4569].dll  - Undefined Reference
    CVideoPlayerUtility::Prepare()            - Undefined Reference
    _ZN19CVideoPlayerUtility7PrepareEv@mediaclientvideo{000a0000}[101f4569].dll  - Undefined Reference
    CVideoPlayerUtility::OpenUrlL(const TDesC16&, int, const TDesC8&, TUid)  - Undefined Reference
    _ZN19CVideoPlayerUtility8OpenUrlLERK7TDesC16iRK6TDesC84TUid@mediaclientvideo{000a0000}[101f4569].dll  - Undefined Reference
    CVideoPlayerUtility::OpenFileL(const TDesC16&, TUid)  - Undefined Reference
    _ZN19CVideoPlayerUtility9OpenFileLERK7TDesC164TUid@mediaclientvideo{000a0000}[101f4569].dll  - Undefined Reference
    QMediaPlayerControl::qt_metacall(QMetaObject::Call, int, void**)  - Undefined Reference
    _ZN19QMediaPlayerControl11qt_metacallEN11QMetaObject4CallEiPPv@QtMultimediaKit{00010103}[2002ac77].dll  - Undefined Reference
    QMediaPlayerControl::qt_metacast(const char*)  - Undefined Reference
    _ZN19QMediaPlayerControl11qt_metacastEPKc@QtMultimediaKit{00010103}[2002ac77].dll  - Undefined Reference
    QMediaPlayerControl::mediaChanged(const QMediaContent&)  - Undefined Reference
    _ZN19QMediaPlayerControl12mediaChangedERK13QMediaContent@QtMultimediaKit{00010103}[2002ac77].dll  - Undefined Reference
    QMediaPlayerControl::stateChanged(QMediaPlayer::State)  - Undefined Reference
    _ZN19QMediaPlayerControl12stateChangedEN12QMediaPlayer5StateE@QtMultimediaKit{00010103}[2002ac77].dll  - Undefined Reference
    QMediaPlayerControl::staticMetaObject     - Undefined Reference
    _ZN19QMediaPlayerControl16staticMetaObjectE@QtMultimediaKit{00010103}[2002ac77].dll  - Undefined Reference
    QMediaPlayerControl::mediaStatusChanged(QMediaPlayer::MediaStatus)  - Undefined Reference
    _ZN19QMediaPlayerControl18mediaStatusChangedEN12QMediaPlayer11MediaStatusE@QtMultimediaKit{00010103}[2002ac77].dll  - Undefined Reference
    QMediaPlayerControl::error(int, const QString&)  - Undefined Reference
    _ZN19QMediaPlayerControl5errorEiRK7QString@QtMultimediaKit{00010103}[2002ac77].dll  - Undefined Reference
    QMediaPlayerControl::QMediaPlayerControl__sub_object(QObject*)  - Undefined Reference
    _ZN19QMediaPlayerControlC2EP7QObject@QtMultimediaKit{00010103}[2002ac77].dll  - Undefined Reference
    QMediaPlayerControl::~QMediaPlayerControl__sub_object()  - Undefined Reference
    _ZN19QMediaPlayerControlD2Ev@QtMultimediaKit{00010103}[2002ac77].dll  - Undefined Reference
    QVideoWidgetControl::qt_metacall(QMetaObject::Call, int, void**)  - Undefined Reference
    _ZN19QVideoWidgetControl11qt_metacallEN11QMetaObject4CallEiPPv@QtMultimediaKit{00010103}[2002ac77].dll  - Undefined Reference
    QVideoWidgetControl::qt_metacast(const char*)  - Undefined Reference
    _ZN19QVideoWidgetControl11qt_metacastEPKc@QtMultimediaKit{00010103}[2002ac77].dll  - Undefined Reference
    QVideoWidgetControl::staticMetaObject     - Undefined Reference
    _ZN19QVideoWidgetControl16staticMetaObjectE@QtMultimediaKit{00010103}[2002ac77].dll  - Undefined Reference
    QVideoWidgetControl::QVideoWidgetControl__sub_object(QObject*)  - Undefined Reference
    _ZN19QVideoWidgetControlC2EP7QObject@QtMultimediaKit{00010103}[2002ac77].dll  - Undefined Reference
    QVideoWidgetControl::~QVideoWidgetControl__sub_object()  - Undefined Reference
    _ZN19QVideoWidgetControlD2Ev@QtMultimediaKit{00010103}[2002ac77].dll  - Undefined Reference
    QVideoWindowControl::qt_metacall(QMetaObject::Call, int, void**)  - Undefined Reference
    _ZN19QVideoWindowControl11qt_metacallEN11QMetaObject4CallEiPPv@QtMultimediaKit{00010103}[2002ac77].dll  - Undefined Reference
    QVideoWindowControl::qt_metacast(const char*)  - Undefined Reference
    _ZN19QVideoWindowControl11qt_metacastEPKc@QtMultimediaKit{00010103}[2002ac77].dll  - Undefined Reference
    QVideoWindowControl::staticMetaObject     - Undefined Reference
    _ZN19QVideoWindowControl16staticMetaObjectE@QtMultimediaKit{00010103}[2002ac77].dll  - Undefined Reference
    QVideoWindowControl::QVideoWindowControl__sub_object(QObject*)  - Undefined Reference
    _ZN19QVideoWindowControlC2EP7QObject@QtMultimediaKit{00010103}[2002ac77].dll  - Undefined Reference
    QVideoWindowControl::~QVideoWindowControl__sub_object()  - Undefined Reference
    _ZN19QVideoWindowControlD2Ev@QtMultimediaKit{00010103}[2002ac77].dll  - Undefined Reference
    CRadioFmTunerUtility::StationSeek(int)    - Undefined Reference
    _ZN20CRadioFmTunerUtility11StationSeekEi@Radio_Utility{000a0001}[10207b81].dll  - Undefined Reference
    CRadioFmTunerUtility::SetFrequency(int)   - Undefined Reference
    _ZN20CRadioFmTunerUtility12SetFrequencyEi@Radio_Utility{000a0001}[10207b81].dll  - Undefined Reference
    CRadioFmTunerUtility::CancelStationSeek()  - Undefined Reference
    _ZN20CRadioFmTunerUtility17CancelStationSeekEv@Radio_Utility{000a0001}[10207b81].dll  - Undefined Reference
    CRadioFmTunerUtility::ForceMonoReception(int)  - Undefined Reference
    _ZN20CRadioFmTunerUtility18ForceMonoReceptionEi@Radio_Utility{000a0001}[10207b81].dll  - Undefined Reference
    CRadioFmTunerUtility::RequestTunerControl()  - Undefined Reference
    _ZN20CRadioFmTunerUtility19RequestTunerControlEv@Radio_Utility{000a0001}[10207b81].dll  - Undefined Reference
    CRadioFmTunerUtility::EnableTunerInOfflineMode(int)  - Undefined Reference
    _ZN20CRadioFmTunerUtility24EnableTunerInOfflineModeEi@Radio_Utility{000a0001}[10207b81].dll  - Undefined Reference
    CRadioFmTunerUtility::Close()             - Undefined Reference
    _ZN20CRadioFmTunerUtility5CloseEv@Radio_Utility{000a0001}[10207b81].dll  - Undefined Reference
    CVideoPlayerUtility2::SetRotationL(const RWindow&, TVideoRotation)  - Undefined Reference
    _ZN20CVideoPlayerUtility212SetRotationLERK7RWindow14TVideoRotation@mediaclientvideo{000a0000}[101f4569].dll  - Undefined Reference
    CVideoPlayerUtility2::SetScaleFactorL(const RWindow&, float, float)  - Undefined Reference
    _ZN20CVideoPlayerUtility215SetScaleFactorLERK7RWindowff@mediaclientvideo{000a0000}[101f4569].dll  - Undefined Reference
    CVideoPlayerUtility2::SetVideoExtentL(const RWindow&, const TRect&)  - Undefined Reference
    _ZN20CVideoPlayerUtility215SetVideoExtentLERK7RWindowRK5TRect@mediaclientvideo{000a0000}[101f4569].dll  - Undefined Reference
    CVideoPlayerUtility2::AddDisplayWindowL(RWsSession&, CWsScreenDevice&, RWindow&, const TRect&, const TRect&)  - Undefined Reference
    _ZN20CVideoPlayerUtility217AddDisplayWindowLER10RWsSessionR15CWsScreenDeviceR7RWindowRK5TRectS8_@mediaclientvideo{000a0000}[101f4569].dll  - Undefined Reference
    CVideoPlayerUtility2::SetWindowClipRectL(const RWindow&, const TRect&)  - Undefined Reference
    _ZN20CVideoPlayerUtility218SetWindowClipRectLERK7RWindowRK5TRect@mediaclientvideo{000a0000}[101f4569].dll  - Undefined Reference
    CVideoPlayerUtility2::RemoveDisplayWindow(RWindow&)  - Undefined Reference
    _ZN20CVideoPlayerUtility219RemoveDisplayWindowER7RWindow@mediaclientvideo{000a0000}[101f4569].dll  - Undefined Reference
    CVideoPlayerUtility2::NewL(MVideoPlayerUtilityObserver&, int, int)  - Undefined Reference
    _ZN20CVideoPlayerUtility24NewLER27MVideoPlayerUtilityObserverii@mediaclientvideo{000a0000}[101f4569].dll  - Undefined Reference
    QAudioEncoderControl::qt_metacall(QMetaObject::Call, int, void**)  - Undefined Reference
    _ZN20QAudioEncoderControl11qt_metacallEN11QMetaObject4CallEiPPv@QtMultimediaKit{00010103}[2002ac77].dll  - Undefined Reference
    QAudioEncoderControl::qt_metacast(const char*)  - Undefined Reference
    _ZN20QAudioEncoderControl11qt_metacastEPKc@QtMultimediaKit{00010103}[2002ac77].dll  - Undefined Reference
    QAudioEncoderControl::staticMetaObject    - Undefined Reference
    _ZN20QAudioEncoderControl16staticMetaObjectE@QtMultimediaKit{00010103}[2002ac77].dll  - Undefined Reference
    QAudioEncoderControl::QAudioEncoderControl__sub_object(QObject*)  - Undefined Reference
    _ZN20QAudioEncoderControlC2EP7QObject@QtMultimediaKit{00010103}[2002ac77].dll  - Undefined Reference
    QAudioEncoderControl::~QAudioEncoderControl__sub_object()  - Undefined Reference
    _ZN20QAudioEncoderControlD2Ev@QtMultimediaKit{00010103}[2002ac77].dll  - Undefined Reference
    QMediaStreamsControl::qt_metacall(QMetaObject::Call, int, void**)  - Undefined Reference
    _ZN20QMediaStreamsControl11qt_metacallEN11QMetaObject4CallEiPPv@QtMultimediaKit{00010103}[2002ac77].dll  - Undefined Reference
    QMediaStreamsControl::qt_metacast(const char*)  - Undefined Reference
    _ZN20QMediaStreamsControl11qt_metacastEPKc@QtMultimediaKit{00010103}[2002ac77].dll  - Undefined Reference
    QMediaStreamsControl::streamsChanged()    - Undefined Reference
    _ZN20QMediaStreamsControl14streamsChangedEv@QtMultimediaKit{00010103}[2002ac77].dll  - Undefined Reference
    QMediaStreamsControl::staticMetaObject    - Undefined Reference
    _ZN20QMediaStreamsControl16staticMetaObjectE@QtMultimediaKit{00010103}[2002ac77].dll  - Undefined Reference
    QMediaStreamsControl::QMediaStreamsControl__sub_object(QObject*)  - Undefined Reference
    _ZN20QMediaStreamsControlC2EP7QObject@QtMultimediaKit{00010103}[2002ac77].dll  - Undefined Reference
    QMediaStreamsControl::~QMediaStreamsControl__sub_object()  - Undefined Reference
    _ZN20QMediaStreamsControlD2Ev@QtMultimediaKit{00010103}[2002ac77].dll  - Undefined Reference
    QAbstractVideoSurface::qt_metacall(QMetaObject::Call, int, void**)  - Undefined Reference
    _ZN21QAbstractVideoSurface11qt_metacallEN11QMetaObject4CallEiPPv@QtMultimediaKit{00010103}[2002ac77].dll  - Undefined Reference
    QAbstractVideoSurface::qt_metacast(const char*)  - Undefined Reference
    _ZN21QAbstractVideoSurface11qt_metacastEPKc@QtMultimediaKit{00010103}[2002ac77].dll  - Undefined Reference
    QAbstractVideoSurface::staticMetaObject   - Undefined Reference
    _ZN21QAbstractVideoSurface16staticMetaObjectE@QtMultimediaKit{00010103}[2002ac77].dll  - Undefined Reference
    QAbstractVideoSurface::QAbstractVideoSurface__sub_object(QObject*)  - Undefined Reference
    _ZN21QAbstractVideoSurfaceC2EP7QObject@QtMultimediaKit{00010103}[2002ac77].dll  - Undefined Reference
    QAbstractVideoSurface::~QAbstractVideoSurface__sub_object()  - Undefined Reference
    _ZN21QAbstractVideoSurfaceD2Ev@QtMultimediaKit{00010103}[2002ac77].dll  - Undefined Reference
    QAudioEncoderSettings::setSampleRate(int)  - Undefined Reference
    _ZN21QAudioEncoderSettings13setSampleRateEi@QtMultimediaKit{00010103}[2002ac77].dll  - Undefined Reference
    QAudioEncoderSettings::setChannelCount(int)  - Undefined Reference
    _ZN21QAudioEncoderSettings15setChannelCountEi@QtMultimediaKit{00010103}[2002ac77].dll  - Undefined Reference
    QAudioEncoderSettings::setCodec(const QString&)  - Undefined Reference
    _ZN21QAudioEncoderSettings8setCodecERK7QString@QtMultimediaKit{00010103}[2002ac77].dll  - Undefined Reference
    QAudioEncoderSettings::QAudioEncoderSettings(const QAudioEncoderSettings&)  - Undefined Reference
    _ZN21QAudioEncoderSettingsC1ERKS_@QtMultimediaKit{00010103}[2002ac77].dll  - Undefined Reference
    QAudioEncoderSettings::QAudioEncoderSettings()  - Undefined Reference
    _ZN21QAudioEncoderSettingsC1Ev@QtMultimediaKit{00010103}[2002ac77].dll  - Undefined Reference
    QAudioEncoderSettings::~QAudioEncoderSettings()  - Undefined Reference
    _ZN21QAudioEncoderSettingsD1Ev@QtMultimediaKit{00010103}[2002ac77].dll  - Undefined Reference
    QAudioEncoderSettings::operator =(const QAudioEncoderSettings&)  - Undefined Reference
    _ZN21QAudioEncoderSettingsaSERKS_@QtMultimediaKit{00010103}[2002ac77].dll  - Undefined Reference
    QMediaRecorderControl::qt_metacall(QMetaObject::Call, int, void**)  - Undefined Reference
    _ZN21QMediaRecorderControl11qt_metacallEN11QMetaObject4CallEiPPv@QtMultimediaKit{00010103}[2002ac77].dll  - Undefined Reference
    QMediaRecorderControl::qt_metacast(const char*)  - Undefined Reference
    _ZN21QMediaRecorderControl11qt_metacastEPKc@QtMultimediaKit{00010103}[2002ac77].dll  - Undefined Reference
    QMediaRecorderControl::stateChanged(QMediaRecorder::State)  - Undefined Reference
    _ZN21QMediaRecorderControl12stateChangedEN14QMediaRecorder5StateE@QtMultimediaKit{00010103}[2002ac77].dll  - Undefined Reference
    QMediaRecorderControl::staticMetaObject   - Undefined Reference
    _ZN21QMediaRecorderControl16staticMetaObjectE@QtMultimediaKit{00010103}[2002ac77].dll  - Undefined Reference
    QMediaRecorderControl::QMediaRecorderControl__sub_object(QObject*)  - Undefined Reference
    _ZN21QMediaRecorderControlC2EP7QObject@QtMultimediaKit{00010103}[2002ac77].dll  - Undefined Reference
    QMediaRecorderControl::~QMediaRecorderControl__sub_object()  - Undefined Reference
    _ZN21QMediaRecorderControlD2Ev@QtMultimediaKit{00010103}[2002ac77].dll  - Undefined Reference
    CMdaAudioPlayerUtility::GetPosition(TTimeIntervalMicroSeconds&)  - Undefined Reference
    _ZN22CMdaAudioPlayerUtility11GetPositionER25TTimeIntervalMicroSeconds@mediaclientaudio{000a0000}[10003992].dll  - Undefined Reference
    CMdaAudioPlayerUtility::SetPosition(const TTimeIntervalMicroSeconds&)  - Undefined Reference
    _ZN22CMdaAudioPlayerUtility11SetPositionERK25TTimeIntervalMicroSeconds@mediaclientaudio{000a0000}[10003992].dll  - Undefined Reference
    CMdaAudioPlayerUtility::GetMetaDataEntryL(int)  - Undefined Reference
    _ZN22CMdaAudioPlayerUtility17GetMetaDataEntryLEi@mediaclientaudio{000a0000}[10003992].dll  - Undefined Reference
    CMdaAudioPlayerUtility::GetAudioLoadingProgressL(int&)  - Undefined Reference
    _ZN22CMdaAudioPlayerUtility24GetAudioLoadingProgressLERi@mediaclientaudio{000a0000}[10003992].dll  - Undefined Reference
    CMdaAudioPlayerUtility::GetNumberOfMetaDataEntries(int&)  - Undefined Reference
    _ZN22CMdaAudioPlayerUtility26GetNumberOfMetaDataEntriesERi@mediaclientaudio{000a0000}[10003992].dll  - Undefined Reference
    CMdaAudioPlayerUtility::RegisterForAudioLoadingNotification(MAudioLoadingObserver&)  - Undefined Reference
    _ZN22CMdaAudioPlayerUtility35RegisterForAudioLoadingNotificationER21MAudioLoadingObserver@mediaclientaudio{000a0000}[10003992].dll  - Undefined Reference
    CMdaAudioPlayerUtility::NewL(MMdaAudioPlayerCallback&, int, int)  - Undefined Reference
    _ZN22CMdaAudioPlayerUtility4NewLER23MMdaAudioPlayerCallbackii@mediaclientaudio{000a0000}[10003992].dll  - Undefined Reference
    CMdaAudioPlayerUtility::Close()           - Undefined Reference
    _ZN22CMdaAudioPlayerUtility5CloseEv@mediaclientaudio{000a0000}[10003992].dll  - Undefined Reference
    CMdaAudioPlayerUtility::Pause()           - Undefined Reference
    _ZN22CMdaAudioPlayerUtility5PauseEv@mediaclientaudio{000a0000}[10003992].dll  - Undefined Reference
    CMdaAudioPlayerUtility::OpenFileL(const TDesC16&)  - Undefined Reference
    _ZN22CMdaAudioPlayerUtility9OpenFileLERK7TDesC16@mediaclientaudio{000a0000}[10003992].dll  - Undefined Reference
    QAudioEndpointSelector::qt_metacall(QMetaObject::Call, int, void**)  - Undefined Reference
    _ZN22QAudioEndpointSelector11qt_metacallEN11QMetaObject4CallEiPPv@QtMultimediaKit{00010103}[2002ac77].dll  - Undefined Reference
    QAudioEndpointSelector::qt_metacast(const char*)  - Undefined Reference
    _ZN22QAudioEndpointSelector11qt_metacastEPKc@QtMultimediaKit{00010103}[2002ac77].dll  - Undefined Reference
    QAudioEndpointSelector::staticMetaObject  - Undefined Reference
    _ZN22QAudioEndpointSelector16staticMetaObjectE@QtMultimediaKit{00010103}[2002ac77].dll  - Undefined Reference
    QAudioEndpointSelector::activeEndpointChanged(const QString&)  - Undefined Reference
    _ZN22QAudioEndpointSelector21activeEndpointChangedERK7QString@QtMultimediaKit{00010103}[2002ac77].dll  - Undefined Reference
    QAudioEndpointSelector::QAudioEndpointSelector__sub_object(QObject*)  - Undefined Reference
    _ZN22QAudioEndpointSelectorC2EP7QObject@QtMultimediaKit{00010103}[2002ac77].dll  - Undefined Reference
    QAudioEndpointSelector::~QAudioEndpointSelector__sub_object()  - Undefined Reference
    _ZN22QAudioEndpointSelectorD2Ev@QtMultimediaKit{00010103}[2002ac77].dll  - Undefined Reference
    QMediaContainerControl::qt_metacall(QMetaObject::Call, int, void**)  - Undefined Reference
    _ZN22QMediaContainerControl11qt_metacallEN11QMetaObject4CallEiPPv@QtMultimediaKit{00010103}[2002ac77].dll  - Undefined Reference
    QMediaContainerControl::qt_metacast(const char*)  - Undefined Reference
    _ZN22QMediaContainerControl11qt_metacastEPKc@QtMultimediaKit{00010103}[2002ac77].dll  - Undefined Reference
    QMediaContainerControl::staticMetaObject  - Undefined Reference
    _ZN22QMediaContainerControl16staticMetaObjectE@QtMultimediaKit{00010103}[2002ac77].dll  - Undefined Reference
    QMediaContainerControl::QMediaContainerControl__sub_object(QObject*)  - Undefined Reference
    _ZN22QMediaContainerControlC2EP7QObject@QtMultimediaKit{00010103}[2002ac77].dll  - Undefined Reference
    QMediaContainerControl::~QMediaContainerControl__sub_object()  - Undefined Reference
    _ZN22QMediaContainerControlD2Ev@QtMultimediaKit{00010103}[2002ac77].dll  - Undefined Reference
    QMetaDataReaderControl::qt_metacall(QMetaObject::Call, int, void**)  - Undefined Reference
    _ZN22QMetaDataReaderControl11qt_metacallEN11QMetaObject4CallEiPPv@QtMultimediaKit{00010103}[2002ac77].dll  - Undefined Reference
    QMetaDataReaderControl::qt_metacast(const char*)  - Undefined Reference
    _ZN22QMetaDataReaderControl11qt_metacastEPKc@QtMultimediaKit{00010103}[2002ac77].dll  - Undefined Reference
    QMetaDataReaderControl::staticMetaObject  - Undefined Reference
    _ZN22QMetaDataReaderControl16staticMetaObjectE@QtMultimediaKit{00010103}[2002ac77].dll  - Undefined Reference
    QMetaDataReaderControl::QMetaDataReaderControl__sub_object(QObject*)  - Undefined Reference
    _ZN22QMetaDataReaderControlC2EP7QObject@QtMultimediaKit{00010103}[2002ac77].dll  - Undefined Reference
    QMetaDataReaderControl::~QMetaDataReaderControl__sub_object()  - Undefined Reference
    _ZN22QMetaDataReaderControlD2Ev@QtMultimediaKit{00010103}[2002ac77].dll  - Undefined Reference
    TMMFMessageDestination::TMMFMessageDestination(TUid)  - Undefined Reference
    _ZN22TMMFMessageDestinationC1E4TUid@mmfcontrollerframework{000a0000}[101f76dd].dll  - Undefined Reference
    TMMFMessageDestination::TMMFMessageDestination(const TMMFMessageDestination&)  - Undefined Reference
    _ZN22TMMFMessageDestinationC1ERKS_@mmfcontrollerframework{000a0000}[101f76dd].dll  - Undefined Reference
    CMdaAudioRecorderUtility::DestinationBitRateL()  - Undefined Reference
    _ZN24CMdaAudioRecorderUtility19DestinationBitRateLEv@mediaclientaudio{000a0000}[10003992].dll  - Undefined Reference
    CMdaAudioRecorderUtility::GetSupportedBitRatesL(RArray<unsigned>&)  - Undefined Reference
    _ZN24CMdaAudioRecorderUtility21GetSupportedBitRatesLER6RArrayIjE@mediaclientaudio{000a0000}[10003992].dll  - Undefined Reference
    CMdaAudioRecorderUtility::DestinationSampleRateL()  - Undefined Reference
    _ZN24CMdaAudioRecorderUtility22DestinationSampleRateLEv@mediaclientaudio{000a0000}[10003992].dll  - Undefined Reference
    CMdaAudioRecorderUtility::SetDestinationBitRateL(unsigned)  - Undefined Reference
    _ZN24CMdaAudioRecorderUtility22SetDestinationBitRateLEj@mediaclientaudio{000a0000}[10003992].dll  - Undefined Reference
    CMdaAudioRecorderUtility::SetDestinationDataTypeL(TFourCC)  - Undefined Reference
    _ZN24CMdaAudioRecorderUtility23SetDestinationDataTypeLE7TFourCC@mediaclientaudio{000a0000}[10003992].dll  - Undefined Reference
    CMdaAudioRecorderUtility::GetSupportedSampleRatesL(RArray<unsigned>&)  - Undefined Reference
    _ZN24CMdaAudioRecorderUtility24GetSupportedSampleRatesLER6RArrayIjE@mediaclientaudio{000a0000}[10003992].dll  - Undefined Reference
    CMdaAudioRecorderUtility::SetDestinationSampleRateL(unsigned)  - Undefined Reference
    _ZN24CMdaAudioRecorderUtility25SetDestinationSampleRateLEj@mediaclientaudio{000a0000}[10003992].dll  - Undefined Reference
    CMdaAudioRecorderUtility::DestinationNumberOfChannelsL()  - Undefined Reference
    _ZN24CMdaAudioRecorderUtility28DestinationNumberOfChannelsLEv@mediaclientaudio{000a0000}[10003992].dll  - Undefined Reference
    CMdaAudioRecorderUtility::GetSupportedNumberOfChannelsL(RArray<unsigned>&)  - Undefined Reference
    _ZN24CMdaAudioRecorderUtility29GetSupportedNumberOfChannelsLER6RArrayIjE@mediaclientaudio{000a0000}[10003992].dll  - Undefined Reference
    CMdaAudioRecorderUtility::SetDestinationNumberOfChannelsL(unsigned)  - Undefined Reference
    _ZN24CMdaAudioRecorderUtility31SetDestinationNumberOfChannelsLEj@mediaclientaudio{000a0000}[10003992].dll  - Undefined Reference
    CMdaAudioRecorderUtility::GetSupportedDestinationDataTypesL(RArray<TFourCC>&)  - Undefined Reference
    _ZN24CMdaAudioRecorderUtility33GetSupportedDestinationDataTypesLER6RArrayI7TFourCCE@mediaclientaudio{000a0000}[10003992].dll  - Undefined Reference
    CMdaAudioRecorderUtility::NewL(MMdaObjectStateChangeObserver&, CMdaServer*, int, int)  - Undefined Reference
    _ZN24CMdaAudioRecorderUtility4NewLER29MMdaObjectStateChangeObserverP10CMdaServerii@mediaclientaudio{000a0000}[10003992].dll  - Undefined Reference
    QMediaServiceProviderPlugin::qt_metacall(QMetaObject::Call, int, void**)  - Undefined Reference
    _ZN27QMediaServiceProviderPlugin11qt_metacallEN11QMetaObject4CallEiPPv@QtMultimediaKit{00010103}[2002ac77].dll  - Undefined Reference
    QMediaServiceProviderPlugin::qt_metacast(const char*)  - Undefined Reference
    _ZN27QMediaServiceProviderPlugin11qt_metacastEPKc@QtMultimediaKit{00010103}[2002ac77].dll  - Undefined Reference
    QMediaServiceProviderPlugin::staticMetaObject  - Undefined Reference
    _ZN27QMediaServiceProviderPlugin16staticMetaObjectE@QtMultimediaKit{00010103}[2002ac77].dll  - Undefined Reference
    CMMFFormatSelectionParameters::NewL()     - Undefined Reference
    _ZN29CMMFFormatSelectionParameters4NewLEv@mmfcontrollerframework{000a0000}[101f76dd].dll  - Undefined Reference
    CMMFFormatSelectionParameters::NewLC()    - Undefined Reference
    _ZN29CMMFFormatSelectionParameters5NewLCEv@mmfcontrollerframework{000a0000}[101f76dd].dll  - Undefined Reference
    CMMFPluginSelectionParameters::SetMediaIdsL(const RArray<TUid>&, CMMFPluginSelectionParameters::TMediaIdMatchType)  - Undefined Reference
    _ZN29CMMFPluginSelectionParameters12SetMediaIdsLERK6RArrayI4TUidENS_17TMediaIdMatchTypeE@mmfcontrollerframework{000a0000}[101f76dd].dll  - Undefined Reference
    CMMFControllerPluginSelectionParameters::SetRequiredPlayFormatSupportL(const CMMFFormatSelectionParameters&)  - Undefined Reference
    _ZN39CMMFControllerPluginSelectionParameters29SetRequiredPlayFormatSupportLERK29CMMFFormatSelectionParameters@mmfcontrollerframework{000a0000}[101f76dd].dll  - Undefined Reference
    CMMFControllerPluginSelectionParameters::SetRequiredRecordFormatSupportL(const CMMFFormatSelectionParameters&)  - Undefined Reference
    _ZN39CMMFControllerPluginSelectionParameters31SetRequiredRecordFormatSupportLERK29CMMFFormatSelectionParameters@mmfcontrollerframework{000a0000}[101f76dd].dll  - Undefined Reference
    CMMFControllerPluginSelectionParameters::NewL()  - Undefined Reference
    _ZN39CMMFControllerPluginSelectionParameters4NewLEv@mmfcontrollerframework{000a0000}[101f76dd].dll  - Undefined Reference
    CMMFControllerPluginSelectionParameters::NewLC()  - Undefined Reference
    _ZN39CMMFControllerPluginSelectionParameters5NewLCEv@mmfcontrollerframework{000a0000}[101f76dd].dll  - Undefined Reference
    RFs::Close()                              - Undefined Reference
    _ZN3RFs5CloseEv@efsrv{000a0000}[100039e4].dll  - Undefined Reference
    RFs::Connect(int)                         - Undefined Reference
    _ZN3RFs7ConnectEi@efsrv{000a0000}[100039e4].dll  - Undefined Reference
    QDir::toNativeSeparators(const QString&)  - Undefined Reference
    _ZN4QDir18toNativeSeparatorsERK7QString@QtCore{00040703}[2001b2dc].dll  - Undefined Reference
    QDir::rootPath()                          - Undefined Reference
    _ZN4QDir8rootPathEv@QtCore{00040703}[2001b2dc].dll  - Undefined Reference
    QDir::QDir(const QString&)                - Undefined Reference
    _ZN4QDirC1ERK7QString@QtCore{00040703}[2001b2dc].dll  - Undefined Reference
    QDir::~QDir()                             - Undefined Reference
    _ZN4QDirD1Ev@QtCore{00040703}[2001b2dc].dll  - Undefined Reference
    QUrl::setUrl(const QString&)              - Undefined Reference
    _ZN4QUrl6setUrlERK7QString@QtCore{00040703}[2001b2dc].dll  - Undefined Reference
    QUrl::QUrl(const QString&)                - Undefined Reference
    _ZN4QUrlC1ERK7QString@QtCore{00040703}[2001b2dc].dll  - Undefined Reference
    QUrl::QUrl(const QUrl&)                   - Undefined Reference
    _ZN4QUrlC1ERKS_@QtCore{00040703}[2001b2dc].dll  - Undefined Reference
    QUrl::QUrl()                              - Undefined Reference
    _ZN4QUrlC1Ev@QtCore{00040703}[2001b2dc].dll  - Undefined Reference
    QUrl::~QUrl()                             - Undefined Reference
    _ZN4QUrlD1Ev@QtCore{00040703}[2001b2dc].dll  - Undefined Reference
    QUrl::operator =(const QUrl&)             - Undefined Reference
    _ZN4QUrlaSERKS_@QtCore{00040703}[2001b2dc].dll  - Undefined Reference
    User::LeaveIfError(int)                   - Undefined Reference
    _ZN4User12LeaveIfErrorEi@euser{000a0000}[100039e5].dll  - Undefined Reference
    User::MarkCleanupStack()                  - Undefined Reference
    _ZN4User16MarkCleanupStackEv@euser{000a0000}[100039e5].dll  - Undefined Reference
    User::UnMarkCleanupStack(TTrapHandler*)   - Undefined Reference
    _ZN4User18UnMarkCleanupStackEP12TTrapHandler@euser{000a0000}[100039e5].dll  - Undefined Reference
    User::AllocL(int)                         - Undefined Reference
    _ZN4User6AllocLEi@euser{000a0000}[100039e5].dll  - Undefined Reference
    User::AllocZL(int)                        - Undefined Reference
    _ZN4User7AllocZLEi@euser{000a0000}[100039e5].dll  - Undefined Reference
    User::Invariant()                         - Undefined Reference
    _ZN4User9InvariantEv@euser{000a0000}[100039e5].dll  - Undefined Reference
    User::LockedDec(int&)                     - Undefined Reference
    _ZN4User9LockedDecERi@euser{000a0000}[100039e5].dll  - Undefined Reference
    User::LockedInc(int&)                     - Undefined Reference
    _ZN4User9LockedIncERi@euser{000a0000}[100039e5].dll  - Undefined Reference
    QChar::QChar(char)                        - Undefined Reference
    _ZN5QCharC1Ec@QtCore{00040703}[2001b2dc].dll  - Undefined Reference
    QSize::scale(const QSize&, Qt::AspectRatioMode)  - Undefined Reference
    _ZN5QSize5scaleERKS_N2Qt15AspectRatioModeE@QtCore{00040703}[2001b2dc].dll  - Undefined Reference
    RFile::Open(RFs&, const TDesC16&, unsigned)  - Undefined Reference
    _ZN5RFile4OpenER3RFsRK7TDesC16j@efsrv{000a0000}[100039e4].dll  - Undefined Reference
    RFile::Close()                            - Undefined Reference
    _ZN5RFile5CloseEv@efsrv{000a0000}[100039e4].dll  - Undefined Reference
    TDes8::Copy(const unsigned char*, int)    - Undefined Reference
    _ZN5TDes84CopyEPKhi@euser{000a0000}[100039e5].dll  - Undefined Reference
    TRect::TRect(const TPoint&, const TSize&)  - Undefined Reference
    _ZN5TRectC1ERK6TPointRK5TSize@euser{000a0000}[100039e5].dll  - Undefined Reference
    HBufC8::Des()                             - Undefined Reference
    _ZN6HBufC83DesEv@euser{000a0000}[100039e5].dll  - Undefined Reference
    HBufC8::NewL(int)                         - Undefined Reference
    _ZN6HBufC84NewLEi@euser{000a0000}[100039e5].dll  - Undefined Reference
    QTimer::stop()                            - Undefined Reference
    _ZN6QTimer4stopEv@QtCore{00040703}[2001b2dc].dll  - Undefined Reference
    QTimer::start(int)                        - Undefined Reference
    _ZN6QTimer5startEi@QtCore{00040703}[2001b2dc].dll  - Undefined Reference
    QTimer::QTimer(QObject*)                  - Undefined Reference
    _ZN6QTimerC1EP7QObject@QtCore{00040703}[2001b2dc].dll  - Undefined Reference
    CCoeEnv::Static()                         - Undefined Reference
    _ZN7CCoeEnv6StaticEv@cone{000a0000}[10003a41].dll  - Undefined Reference
    QObject::childEvent(QChildEvent*)         - Undefined Reference
    _ZN7QObject10childEventEP11QChildEvent@QtCore{00040703}[2001b2dc].dll  - Undefined Reference
    QObject::disconnect(const QObject*, const char*, const QObject*, const char*)  - Undefined Reference
    _ZN7QObject10disconnectEPKS_PKcS1_S3_@QtCore{00040703}[2001b2dc].dll  - Undefined Reference
    QObject::timerEvent(QTimerEvent*)         - Undefined Reference
    _ZN7QObject10timerEventEP11QTimerEvent@QtCore{00040703}[2001b2dc].dll  - Undefined Reference
    QObject::customEvent(QEvent*)             - Undefined Reference
    _ZN7QObject11customEventEP6QEvent@QtCore{00040703}[2001b2dc].dll  - Undefined Reference
    QObject::eventFilter(QObject*, QEvent*)   - Undefined Reference
    _ZN7QObject11eventFilterEPS_P6QEvent@QtCore{00040703}[2001b2dc].dll  - Undefined Reference
    QObject::qt_metacall(QMetaObject::Call, int, void**)  - Undefined Reference
    _ZN7QObject11qt_metacallEN11QMetaObject4CallEiPPv@QtCore{00040703}[2001b2dc].dll  - Undefined Reference
    QObject::qt_metacast(const char*)         - Undefined Reference
    _ZN7QObject11qt_metacastEPKc@QtCore{00040703}[2001b2dc].dll  - Undefined Reference
    QObject::setProperty(const char*, const QVariant&)  - Undefined Reference
    _ZN7QObject11setPropertyEPKcRK8QVariant@QtCore{00040703}[2001b2dc].dll  - Undefined Reference
    QObject::connectNotify(const char*)       - Undefined Reference
    _ZN7QObject13connectNotifyEPKc@QtCore{00040703}[2001b2dc].dll  - Undefined Reference
    QObject::disconnectNotify(const char*)    - Undefined Reference
    _ZN7QObject16disconnectNotifyEPKc@QtCore{00040703}[2001b2dc].dll  - Undefined Reference
    QObject::staticMetaObject                 - Undefined Reference
    _ZN7QObject16staticMetaObjectE@QtCore{00040703}[2001b2dc].dll  - Undefined Reference
    QObject::installEventFilter(QObject*)     - Undefined Reference
    _ZN7QObject18installEventFilterEPS_@QtCore{00040703}[2001b2dc].dll  - Undefined Reference
    QObject::event(QEvent*)                   - Undefined Reference
    _ZN7QObject5eventEP6QEvent@QtCore{00040703}[2001b2dc].dll  - Undefined Reference
    QObject::connect(const QObject*, const char*, const QObject*, const char*, Qt::ConnectionType)  - Undefined Reference
    _ZN7QObject7connectEPKS_PKcS1_S3_N2Qt14ConnectionTypeE@QtCore{00040703}[2001b2dc].dll  - Undefined Reference
    QObject::QObject(QObject*)                - Undefined Reference
    _ZN7QObjectC1EPS_@QtCore{00040703}[2001b2dc].dll  - Undefined Reference
    QObject::~QObject()                       - Undefined Reference
    _ZN7QObjectD1Ev@QtCore{00040703}[2001b2dc].dll  - Undefined Reference
    QPixmap::fromSymbianCFbsBitmap(CFbsBitmap*)  - Undefined Reference
    _ZN7QPixmap21fromSymbianCFbsBitmapEP10CFbsBitmap@QtGui{00040703}[2001b2dd].dll  - Undefined Reference
    QPixmap::QPixmap()                        - Undefined Reference
    _ZN7QPixmapC1Ev@QtGui{00040703}[2001b2dd].dll  - Undefined Reference
    QPixmap::~QPixmap()                       - Undefined Reference
    _ZN7QPixmapD1Ev@QtGui{00040703}[2001b2dd].dll  - Undefined Reference
    QPixmap::operator =(const QPixmap&)       - Undefined Reference
    _ZN7QPixmapaSERKS_@QtGui{00040703}[2001b2dd].dll  - Undefined Reference
    QString::shared_null                      - Undefined Reference
    _ZN7QString11shared_nullE@QtCore{00040703}[2001b2dc].dll  - Undefined Reference
    QString::codecForCStrings                 - Undefined Reference
    _ZN7QString16codecForCStringsE@QtCore{00040703}[2001b2dc].dll  - Undefined Reference
    QString::fromAscii_helper(const char*, int)  - Undefined Reference
    _ZN7QString16fromAscii_helperEPKci@QtCore{00040703}[2001b2dc].dll  - Undefined Reference
    QString::fromLatin1_helper(const char*, int)  - Undefined Reference
    _ZN7QString17fromLatin1_helperEPKci@QtCore{00040703}[2001b2dc].dll  - Undefined Reference
    QString::chop(int)                        - Undefined Reference
    _ZN7QString4chopEi@QtCore{00040703}[2001b2dc].dll  - Undefined Reference
    QString::free(QString::Data*)             - Undefined Reference
    _ZN7QString4freeEPNS_4DataE@QtCore{00040703}[2001b2dc].dll  - Undefined Reference
    QString::append(const QString&)           - Undefined Reference
    _ZN7QString6appendERKS_@QtCore{00040703}[2001b2dc].dll  - Undefined Reference
    QString::number(int, int)                 - Undefined Reference
    _ZN7QString6numberEii@QtCore{00040703}[2001b2dc].dll  - Undefined Reference
    QString::number(long long, int)           - Undefined Reference
    _ZN7QString6numberExi@QtCore{00040703}[2001b2dc].dll  - Undefined Reference
    QString::fromUtf8(const char*, int)       - Undefined Reference
    _ZN7QString8fromUtf8EPKci@QtCore{00040703}[2001b2dc].dll  - Undefined Reference
    QString::fromAscii(const char*, int)      - Undefined Reference
    _ZN7QString9fromAsciiEPKci@QtCore{00040703}[2001b2dc].dll  - Undefined Reference
    QString::fromUtf16(const unsigned short*, int)  - Undefined Reference
    _ZN7QString9fromUtf16EPKti@QtCore{00040703}[2001b2dc].dll  - Undefined Reference
    QString::operator =(const QString&)       - Undefined Reference
    _ZN7QStringaSERKS_@QtCore{00040703}[2001b2dc].dll  - Undefined Reference
    QWidget::closeEvent(QCloseEvent*)         - Undefined Reference
    _ZN7QWidget10closeEventEP11QCloseEvent@QtGui{00040703}[2001b2dd].dll  - Undefined Reference
    QWidget::enterEvent(QEvent*)              - Undefined Reference
    _ZN7QWidget10enterEventEP6QEvent@QtGui{00040703}[2001b2dd].dll  - Undefined Reference
    QWidget::fontChange(const QFont&)         - Undefined Reference
    _ZN7QWidget10fontChangeERK5QFont@QtGui{00040703}[2001b2dd].dll  - Undefined Reference
    QWidget::leaveEvent(QEvent*)              - Undefined Reference
    _ZN7QWidget10leaveEventEP6QEvent@QtGui{00040703}[2001b2dd].dll  - Undefined Reference
    QWidget::setPalette(const QPalette&)      - Undefined Reference
    _ZN7QWidget10setPaletteERK8QPalette@QtGui{00040703}[2001b2dd].dll  - Undefined Reference
    QWidget::setVisible(bool)                 - Undefined Reference
    _ZN7QWidget10setVisibleEb@QtGui{00040703}[2001b2dd].dll  - Undefined Reference
    QWidget::wheelEvent(QWheelEvent*)         - Undefined Reference
    _ZN7QWidget10wheelEventEP11QWheelEvent@QtGui{00040703}[2001b2dd].dll  - Undefined Reference
    QWidget::actionEvent(QActionEvent*)       - Undefined Reference
    _ZN7QWidget11actionEventEP12QActionEvent@QtGui{00040703}[2001b2dd].dll  - Undefined Reference
    QWidget::changeEvent(QEvent*)             - Undefined Reference
    _ZN7QWidget11changeEventEP6QEvent@QtGui{00040703}[2001b2dd].dll  - Undefined Reference
    QWidget::qt_metacall(QMetaObject::Call, int, void**)  - Undefined Reference
    _ZN7QWidget11qt_metacallEN11QMetaObject4CallEiPPv@QtGui{00040703}[2001b2dd].dll  - Undefined Reference
    QWidget::qt_metacast(const char*)         - Undefined Reference
    _ZN7QWidget11qt_metacastEPKc@QtGui{00040703}[2001b2dd].dll  - Undefined Reference
    QWidget::resizeEvent(QResizeEvent*)       - Undefined Reference
    _ZN7QWidget11resizeEventEP12QResizeEvent@QtGui{00040703}[2001b2dd].dll  - Undefined Reference
    QWidget::styleChange(QStyle&)             - Undefined Reference
    _ZN7QWidget11styleChangeER6QStyle@QtGui{00040703}[2001b2dd].dll  - Undefined Reference
    QWidget::tabletEvent(QTabletEvent*)       - Undefined Reference
    _ZN7QWidget11tabletEventEP12QTabletEvent@QtGui{00040703}[2001b2dd].dll  - Undefined Reference
    QWidget::focusInEvent(QFocusEvent*)       - Undefined Reference
    _ZN7QWidget12focusInEventEP11QFocusEvent@QtGui{00040703}[2001b2dd].dll  - Undefined Reference
    QWidget::dragMoveEvent(QDragMoveEvent*)   - Undefined Reference
    _ZN7QWidget13dragMoveEventEP14QDragMoveEvent@QtGui{00040703}[2001b2dd].dll  - Undefined Reference
    QWidget::enabledChange(bool)              - Undefined Reference
    _ZN7QWidget13enabledChangeEb@QtGui{00040703}[2001b2dd].dll  - Undefined Reference
    QWidget::focusOutEvent(QFocusEvent*)      - Undefined Reference
    _ZN7QWidget13focusOutEventEP11QFocusEvent@QtGui{00040703}[2001b2dd].dll  - Undefined Reference
    QWidget::keyPressEvent(QKeyEvent*)        - Undefined Reference
    _ZN7QWidget13keyPressEventEP9QKeyEvent@QtGui{00040703}[2001b2dd].dll  - Undefined Reference
    QWidget::paletteChange(const QPalette&)   - Undefined Reference
    _ZN7QWidget13paletteChangeERK8QPalette@QtGui{00040703}[2001b2dd].dll  - Undefined Reference
    QWidget::setSizePolicy(QSizePolicy)       - Undefined Reference
    _ZN7QWidget13setSizePolicyE11QSizePolicy@QtGui{00040703}[2001b2dd].dll  - Undefined Reference
    QWidget::showMaximized()                  - Undefined Reference
    _ZN7QWidget13showMaximizedEv@QtGui{00040703}[2001b2dd].dll  - Undefined Reference
    QWidget::activateWindow()                 - Undefined Reference
    _ZN7QWidget14activateWindowEv@QtGui{00040703}[2001b2dd].dll  - Undefined Reference
    QWidget::dragEnterEvent(QDragEnterEvent*)  - Undefined Reference
    _ZN7QWidget14dragEnterEventEP15QDragEnterEvent@QtGui{00040703}[2001b2dd].dll  - Undefined Reference
    QWidget::dragLeaveEvent(QDragLeaveEvent*)  - Undefined Reference
    _ZN7QWidget14dragLeaveEventEP15QDragLeaveEvent@QtGui{00040703}[2001b2dd].dll  - Undefined Reference
    QWidget::languageChange()                 - Undefined Reference
    _ZN7QWidget14languageChangeEv@QtGui{00040703}[2001b2dd].dll  - Undefined Reference
    QWidget::mouseMoveEvent(QMouseEvent*)     - Undefined Reference
    _ZN7QWidget14mouseMoveEventEP11QMouseEvent@QtGui{00040703}[2001b2dd].dll  - Undefined Reference
    QWidget::showFullScreen()                 - Undefined Reference
    _ZN7QWidget14showFullScreenEv@QtGui{00040703}[2001b2dd].dll  - Undefined Reference
    QWidget::keyReleaseEvent(QKeyEvent*)      - Undefined Reference
    _ZN7QWidget15keyReleaseEventEP9QKeyEvent@QtGui{00040703}[2001b2dd].dll  - Undefined Reference
    QWidget::mousePressEvent(QMouseEvent*)    - Undefined Reference
    _ZN7QWidget15mousePressEventEP11QMouseEvent@QtGui{00040703}[2001b2dd].dll  - Undefined Reference
    QWidget::contextMenuEvent(QContextMenuEvent*)  - Undefined Reference
    _ZN7QWidget16contextMenuEventEP17QContextMenuEvent@QtGui{00040703}[2001b2dd].dll  - Undefined Reference
    QWidget::inputMethodEvent(QInputMethodEvent*)  - Undefined Reference
    _ZN7QWidget16inputMethodEventEP17QInputMethodEvent@QtGui{00040703}[2001b2dd].dll  - Undefined Reference
    QWidget::staticMetaObject                 - Undefined Reference
    _ZN7QWidget16staticMetaObjectE@QtGui{00040703}[2001b2dd].dll  - Undefined Reference
    QWidget::mouseReleaseEvent(QMouseEvent*)  - Undefined Reference
    _ZN7QWidget17mouseReleaseEventEP11QMouseEvent@QtGui{00040703}[2001b2dd].dll  - Undefined Reference
    QWidget::focusNextPrevChild(bool)         - Undefined Reference
    _ZN7QWidget18focusNextPrevChildEb@QtGui{00040703}[2001b2dd].dll  - Undefined Reference
    QWidget::mouseDoubleClickEvent(QMouseEvent*)  - Undefined Reference
    _ZN7QWidget21mouseDoubleClickEventEP11QMouseEvent@QtGui{00040703}[2001b2dd].dll  - Undefined Reference
    QWidget::setAutoFillBackground(bool)      - Undefined Reference
    _ZN7QWidget21setAutoFillBackgroundEb@QtGui{00040703}[2001b2dd].dll  - Undefined Reference
    QWidget::windowActivationChange(bool)     - Undefined Reference
    _ZN7QWidget22windowActivationChangeEb@QtGui{00040703}[2001b2dd].dll  - Undefined Reference
    QWidget::event(QEvent*)                   - Undefined Reference
    _ZN7QWidget5eventEP6QEvent@QtGui{00040703}[2001b2dd].dll  - Undefined Reference
    QWidget::update()                         - Undefined Reference
    _ZN7QWidget6updateEv@QtGui{00040703}[2001b2dd].dll  - Undefined Reference
    QWidget::dropEvent(QDropEvent*)           - Undefined Reference
    _ZN7QWidget9dropEventEP10QDropEvent@QtGui{00040703}[2001b2dd].dll  - Undefined Reference
    QWidget::hideEvent(QHideEvent*)           - Undefined Reference
    _ZN7QWidget9hideEventEP10QHideEvent@QtGui{00040703}[2001b2dd].dll  - Undefined Reference
    QWidget::moveEvent(QMoveEvent*)           - Undefined Reference
    _ZN7QWidget9moveEventEP10QMoveEvent@QtGui{00040703}[2001b2dd].dll  - Undefined Reference
    QWidget::showEvent(QShowEvent*)           - Undefined Reference
    _ZN7QWidget9showEventEP10QShowEvent@QtGui{00040703}[2001b2dd].dll  - Undefined Reference
    QWidget::QWidget(QWidget*, QFlags<Qt::WindowType>)  - Undefined Reference
    _ZN7QWidgetC1EPS_6QFlagsIN2Qt10WindowTypeEE@QtGui{00040703}[2001b2dd].dll  - Undefined Reference
    QWidget::~QWidget()                       - Undefined Reference
    _ZN7QWidgetD1Ev@QtGui{00040703}[2001b2dd].dll  - Undefined Reference
    RWindow::BeginRedraw(const TRect&)        - Undefined Reference
    _ZN7RWindow11BeginRedrawERK5TRect@ws32{000a0000}[10003b21].dll  - Undefined Reference
    RWindow::SetBackgroundColor(TRgb)         - Undefined Reference
    _ZN7RWindow18SetBackgroundColorE4TRgb@ws32{000a0000}[10003b21].dll  - Undefined Reference
    RWindow::EndRedraw()                      - Undefined Reference
    _ZN7RWindow9EndRedrawEv@ws32{000a0000}[10003b21].dll  - Undefined Reference
    TPtrC16::TPtrC16(const unsigned short*)   - Undefined Reference
    _ZN7TPtrC16C1EPKt@euser{000a0000}[100039e5].dll  - Undefined Reference
    TPtrC16::TPtrC16(const unsigned short*, int)  - Undefined Reference
    _ZN7TPtrC16C1EPKti@euser{000a0000}[100039e5].dll  - Undefined Reference
    TPtrC16::TPtrC16(const TDesC16&)          - Undefined Reference
    _ZN7TPtrC16C1ERK7TDesC16@euser{000a0000}[100039e5].dll  - Undefined Reference
    QMapData::createData(int)                 - Undefined Reference
    _ZN8QMapData10createDataEi@QtCore{00040703}[2001b2dc].dll  - Undefined Reference
    QMapData::node_create(QMapData::Node**, int, int)  - Undefined Reference
    _ZN8QMapData11node_createEPPNS_4NodeEii@QtCore{00040703}[2001b2dc].dll  - Undefined Reference
    QMapData::node_delete(QMapData::Node**, int, QMapData::Node*)  - Undefined Reference
    _ZN8QMapData11node_deleteEPPNS_4NodeEiS1_@QtCore{00040703}[2001b2dc].dll  - Undefined Reference
    QMapData::shared_null                     - Undefined Reference
    _ZN8QMapData11shared_nullE@QtCore{00040703}[2001b2dc].dll  - Undefined Reference
    QMapData::continueFreeData(int)           - Undefined Reference
    _ZN8QMapData16continueFreeDataEi@QtCore{00040703}[2001b2dc].dll  - Undefined Reference
    QPainter::drawPixmap(const QPointF&, const QPixmap&)  - Undefined Reference
    _ZN8QPainter10drawPixmapERK7QPointFRK7QPixmap@QtGui{00040703}[2001b2dd].dll  - Undefined Reference
    QPainter::QPainter(QPaintDevice*)         - Undefined Reference
    _ZN8QPainterC1EP12QPaintDevice@QtGui{00040703}[2001b2dd].dll  - Undefined Reference
    QPainter::~QPainter()                     - Undefined Reference
    _ZN8QPainterD1Ev@QtGui{00040703}[2001b2dd].dll  - Undefined Reference
    QPalette::QPalette(Qt::GlobalColor)       - Undefined Reference
    _ZN8QPaletteC1EN2Qt11GlobalColorE@QtGui{00040703}[2001b2dd].dll  - Undefined Reference
    QPalette::~QPalette()                     - Undefined Reference
    _ZN8QPaletteD1Ev@QtGui{00040703}[2001b2dd].dll  - Undefined Reference
    QVariant::QVariant(Qt::GlobalColor)       - Undefined Reference
    _ZN8QVariantC1EN2Qt11GlobalColorE@QtCore{00040703}[2001b2dc].dll  - Undefined Reference
    QVariant::QVariant(const QString&)        - Undefined Reference
    _ZN8QVariantC1ERK7QString@QtCore{00040703}[2001b2dc].dll  - Undefined Reference
    QVariant::QVariant(const QVariant&)       - Undefined Reference
    _ZN8QVariantC1ERKS_@QtCore{00040703}[2001b2dc].dll  - Undefined Reference
    QVariant::QVariant(bool)                  - Undefined Reference
    _ZN8QVariantC1Eb@QtCore{00040703}[2001b2dc].dll  - Undefined Reference
    QVariant::QVariant(int)                   - Undefined Reference
    _ZN8QVariantC1Ei@QtCore{00040703}[2001b2dc].dll  - Undefined Reference
    QVariant::~QVariant()                     - Undefined Reference
    _ZN8QVariantD1Ev@QtCore{00040703}[2001b2dc].dll  - Undefined Reference
    QVariant::operator =(const QVariant&)     - Undefined Reference
    _ZN8QVariantaSERKS_@QtCore{00040703}[2001b2dc].dll  - Undefined Reference
    BaflUtils::DeleteFile(RFs&, const TDesC16&, unsigned)  - Undefined Reference
    _ZN9BaflUtils10DeleteFileER3RFsRK7TDesC16j@bafl{000a0000}[10003a0f].dll  - Undefined Reference
    BaflUtils::FileExists(const RFs&, const TDesC16&)  - Undefined Reference
    _ZN9BaflUtils10FileExistsERK3RFsRK7TDesC16@bafl{000a0000}[10003a0f].dll  - Undefined Reference
    BaflUtils::EnsurePathExistsL(RFs&, const TDesC16&)  - Undefined Reference
    _ZN9BaflUtils17EnsurePathExistsLER3RFsRK7TDesC16@bafl{000a0000}[10003a0f].dll  - Undefined Reference
    QHashData::free_helper(void(*)(QHashData::Node*))  - Undefined Reference
    _ZN9QHashData11free_helperEPFvPNS_4NodeEE@QtCore{00040703}[2001b2dc].dll  - Undefined Reference
    QHashData::shared_null                    - Undefined Reference
    _ZN9QHashData11shared_nullE@QtCore{00040703}[2001b2dc].dll  - Undefined Reference
    QHashData::allocateNode(int)              - Undefined Reference
    _ZN9QHashData12allocateNodeEi@QtCore{00040703}[2001b2dc].dll  - Undefined Reference
    QHashData::detach_helper2(void(*)(QHashData::Node*, void*), void(*)(QHashData::Node*), int, int)  - Undefined Reference
    _ZN9QHashData14detach_helper2EPFvPNS_4NodeEPvEPFvS1_Eii@QtCore{00040703}[2001b2dc].dll  - Undefined Reference
    QHashData::rehash(int)                    - Undefined Reference
    _ZN9QHashData6rehashEi@QtCore{00040703}[2001b2dc].dll  - Undefined Reference
    QHashData::nextNode(QHashData::Node*)     - Undefined Reference
    _ZN9QHashData8nextNodeEPNS_4NodeE@QtCore{00040703}[2001b2dc].dll  - Undefined Reference
    QListData::detach_grow(int*, int)         - Undefined Reference
    _ZN9QListData11detach_growEPii@QtCore{00040703}[2001b2dc].dll  - Undefined Reference
    QListData::shared_null                    - Undefined Reference
    _ZN9QListData11shared_nullE@QtCore{00040703}[2001b2dc].dll  - Undefined Reference
    QListData::append()                       - Undefined Reference
    _ZN9QListData6appendEv@QtCore{00040703}[2001b2dc].dll  - Undefined Reference
    QListData::detach(int)                    - Undefined Reference
    _ZN9QListData6detachEi@QtCore{00040703}[2001b2dc].dll  - Undefined Reference
    QListData::append2(const QListData&)      - Undefined Reference
    _ZN9QListData7append2ERKS_@QtCore{00040703}[2001b2dc].dll  - Undefined Reference
    QListData::realloc(int)                   - Undefined Reference
    _ZN9QListData7reallocEi@QtCore{00040703}[2001b2dc].dll  - Undefined Reference
    QtPrivate::QStringList_filter(const QStringList*, const QString&, Qt::CaseSensitivity)  - Undefined Reference
    _ZN9QtPrivate18QStringList_filterEPK11QStringListRK7QStringN2Qt15CaseSensitivityE@QtCore{00040703}[2001b2dc].dll  - Undefined Reference
    QtPrivate::QStringList_contains(const QStringList*, const QString&, Qt::CaseSensitivity)  - Undefined Reference
    _ZN9QtPrivate20QStringList_containsEPK11QStringListRK7QStringN2Qt15CaseSensitivityE@QtCore{00040703}[2001b2dc].dll  - Undefined Reference
    TBufBase8::TBufBase8(int, int)            - Undefined Reference
    _ZN9TBufBase8C1Eii@euser{000a0000}[100039e5].dll  - Undefined Reference
    TDataType::TDataType()                    - Undefined Reference
    _ZN9TDataTypeC1Ev@apmime{000a0000}[10003a1a].dll  - Undefined Reference
    CFbsBitmap::SizeInPixels() const          - Undefined Reference
    _ZNK10CFbsBitmap12SizeInPixelsEv@fbscli{000a0000}[10003a15].dll  - Undefined Reference
    RArrayBase::At(int) const                 - Undefined Reference
    _ZNK10RArrayBase2AtEi@euser{000a0000}[100039e5].dll  - Undefined Reference
    RArrayBase::Find(const void*) const       - Undefined Reference
    _ZNK10RArrayBase4FindEPKv@euser{000a0000}[100039e5].dll  - Undefined Reference
    RArrayBase::Count() const                 - Undefined Reference
    _ZNK10RArrayBase5CountEv@euser{000a0000}[100039e5].dll  - Undefined Reference
    CCoeControl::DrawableWindow() const       - Undefined Reference
    _ZNK11CCoeControl14DrawableWindowEv@cone{000a0000}[10003a41].dll  - Undefined Reference
    CCoeControl::SystemGc() const             - Undefined Reference
    _ZNK11CCoeControl8SystemGcEv@cone{000a0000}[10003a41].dll  - Undefined Reference
    QMetaObject::tr(const char*, const char*) const  - Undefined Reference
    _ZNK11QMetaObject2trEPKcS1_@QtCore{00040703}[2001b2dc].dll  - Undefined Reference
    QMetaObject::cast(QObject*) const         - Undefined Reference
    _ZNK11QMetaObject4castEP7QObject@QtCore{00040703}[2001b2dc].dll  - Undefined Reference
    RWindowBase::Size() const                 - Undefined Reference
    _ZNK11RWindowBase4SizeEv@ws32{000a0000}[10003b21].dll  - Undefined Reference
    QAudioFormat::sampleRate() const          - Undefined Reference
    _ZNK12QAudioFormat10sampleRateEv@QtMultimediaKit{00010103}[2002ac77].dll  - Undefined Reference
    QAudioFormat::sampleSize() const          - Undefined Reference
    _ZNK12QAudioFormat10sampleSizeEv@QtMultimediaKit{00010103}[2002ac77].dll  - Undefined Reference
    QAudioFormat::sampleType() const          - Undefined Reference
    _ZNK12QAudioFormat10sampleTypeEv@QtMultimediaKit{00010103}[2002ac77].dll  - Undefined Reference
    QAudioFormat::codec() const               - Undefined Reference
    _ZNK12QAudioFormat5codecEv@QtMultimediaKit{00010103}[2002ac77].dll  - Undefined Reference
    QAudioFormat::channels() const            - Undefined Reference
    _ZNK12QAudioFormat8channelsEv@QtMultimediaKit{00010103}[2002ac77].dll  - Undefined Reference
    QAudioFormat::byteOrder() const           - Undefined Reference
    _ZNK12QAudioFormat9byteOrderEv@QtMultimediaKit{00010103}[2002ac77].dll  - Undefined Reference
    QAudioFormat::frequency() const           - Undefined Reference
    _ZNK12QAudioFormat9frequencyEv@QtMultimediaKit{00010103}[2002ac77].dll  - Undefined Reference
    QMediaContent::canonicalUrl() const       - Undefined Reference
    _ZNK13QMediaContent12canonicalUrlEv@QtMultimediaKit{00010103}[2002ac77].dll  - Undefined Reference
    QMediaContent::isNull() const             - Undefined Reference
    _ZNK13QMediaContent6isNullEv@QtMultimediaKit{00010103}[2002ac77].dll  - Undefined Reference
    QMediaContent::operator ==(const QMediaContent&) const  - Undefined Reference
    _ZNK13QMediaContenteqERKS_@QtMultimediaKit{00010103}[2002ac77].dll  - Undefined Reference
    RApaLsSession::RecognizeData(const RFile&, TDataRecognitionResult&) const  - Undefined Reference
    _ZNK13RApaLsSession13RecognizeDataERK5RFileR22TDataRecognitionResult@apgrfx{000a0000}[10003a3c].dll  - Undefined Reference
    RWindowTreeNode::OrdinalPosition() const  - Undefined Reference
    _ZNK15RWindowTreeNode15OrdinalPositionEv@ws32{000a0000}[10003b21].dll  - Undefined Reference
    XLeaveException::GetReason() const        - Undefined Reference
    _ZNK15XLeaveException9GetReasonEv@euser{000a0000}[100039e5].dll  - Undefined Reference
    CMMFMetaDataEntry::Name() const           - Undefined Reference
    _ZNK17CMMFMetaDataEntry4NameEv@mmfcontrollerframework{000a0000}[101f76dd].dll  - Undefined Reference
    CMMFMetaDataEntry::Value() const          - Undefined Reference
    _ZNK17CMMFMetaDataEntry5ValueEv@mmfcontrollerframework{000a0000}[101f76dd].dll  - Undefined Reference
    RPointerArrayBase::At(int) const          - Undefined Reference
    _ZNK17RPointerArrayBase2AtEi@euser{000a0000}[100039e5].dll  - Undefined Reference
    RPointerArrayBase::Count() const          - Undefined Reference
    _ZNK17RPointerArrayBase5CountEv@euser{000a0000}[100039e5].dll  - Undefined Reference
    CRadioPlayerUtility::GetMaxVolume(int&) const  - Undefined Reference
    _ZNK19CRadioPlayerUtility12GetMaxVolumeERi@Radio_Utility{000a0001}[10207b81].dll  - Undefined Reference
    CVideoPlayerUtility::AudioEnabledL() const  - Undefined Reference
    _ZNK19CVideoPlayerUtility13AudioEnabledLEv@mediaclientvideo{000a0000}[101f4569].dll  - Undefined Reference
    CVideoPlayerUtility::VideoEnabledL() const  - Undefined Reference
    _ZNK19CVideoPlayerUtility13VideoEnabledLEv@mediaclientvideo{000a0000}[101f4569].dll  - Undefined Reference
    CVideoPlayerUtility::MetaDataEntryL(int) const  - Undefined Reference
    _ZNK19CVideoPlayerUtility14MetaDataEntryLEi@mediaclientvideo{000a0000}[101f4569].dll  - Undefined Reference
    CVideoPlayerUtility::VideoFrameSizeL(TSize&) const  - Undefined Reference
    _ZNK19CVideoPlayerUtility15VideoFrameSizeLER5TSize@mediaclientvideo{000a0000}[101f4569].dll  - Undefined Reference
    CVideoPlayerUtility::NumberOfMetaDataEntriesL() const  - Undefined Reference
    _ZNK19CVideoPlayerUtility24NumberOfMetaDataEntriesLEv@mediaclientvideo{000a0000}[101f4569].dll  - Undefined Reference
    CVideoPlayerUtility::DurationL() const    - Undefined Reference
    _ZNK19CVideoPlayerUtility9DurationLEv@mediaclientvideo{000a0000}[101f4569].dll  - Undefined Reference
    CVideoPlayerUtility::MaxVolume() const    - Undefined Reference
    _ZNK19CVideoPlayerUtility9MaxVolumeEv@mediaclientvideo{000a0000}[101f4569].dll  - Undefined Reference
    CVideoPlayerUtility::PositionL() const    - Undefined Reference
    _ZNK19CVideoPlayerUtility9PositionLEv@mediaclientvideo{000a0000}[101f4569].dll  - Undefined Reference
    CRadioFmTunerUtility::GetFrequencyRange(TFmRadioFrequencyRange&, int&, int&) const  - Undefined Reference
    _ZNK20CRadioFmTunerUtility17GetFrequencyRangeER22TFmRadioFrequencyRangeRiS2_@Radio_Utility{000a0001}[10207b81].dll  - Undefined Reference
    CRadioFmTunerUtility::GetSignalStrength(int&) const  - Undefined Reference
    _ZNK20CRadioFmTunerUtility17GetSignalStrengthERi@Radio_Utility{000a0001}[10207b81].dll  - Undefined Reference
    CRadioFmTunerUtility::GetMaxSignalStrength(int&) const  - Undefined Reference
    _ZNK20CRadioFmTunerUtility20GetMaxSignalStrengthERi@Radio_Utility{000a0001}[10207b81].dll  - Undefined Reference
    QAbstractVideoSurface::nearestFormat(const QVideoSurfaceFormat&) const  - Undefined Reference
    _ZNK21QAbstractVideoSurface13nearestFormatERK19QVideoSurfaceFormat@QtMultimediaKit{00010103}[2002ac77].dll  - Undefined Reference
    QAudioEncoderSettings::sampleRate() const  - Undefined Reference
    _ZNK21QAudioEncoderSettings10sampleRateEv@QtMultimediaKit{00010103}[2002ac77].dll  - Undefined Reference
    QAudioEncoderSettings::channelCount() const  - Undefined Reference
    _ZNK21QAudioEncoderSettings12channelCountEv@QtMultimediaKit{00010103}[2002ac77].dll  - Undefined Reference
    QAudioEncoderSettings::encodingMode() const  - Undefined Reference
    _ZNK21QAudioEncoderSettings12encodingModeEv@QtMultimediaKit{00010103}[2002ac77].dll  - Undefined Reference
    QAudioEncoderSettings::codec() const      - Undefined Reference
    _ZNK21QAudioEncoderSettings5codecEv@QtMultimediaKit{00010103}[2002ac77].dll  - Undefined Reference
    QAudioEncoderSettings::bitRate() const    - Undefined Reference
    _ZNK21QAudioEncoderSettings7bitRateEv@QtMultimediaKit{00010103}[2002ac77].dll  - Undefined Reference
    QAudioEncoderSettings::quality() const    - Undefined Reference
    _ZNK21QAudioEncoderSettings7qualityEv@QtMultimediaKit{00010103}[2002ac77].dll  - Undefined Reference
    CMMFFormatImplementationInformation::SupportedMimeTypes() const  - Undefined Reference
    _ZNK35CMMFFormatImplementationInformation18SupportedMimeTypesEv@mmfcontrollerframework{000a0000}[101f76dd].dll  - Undefined Reference
    CMMFFormatImplementationInformation::SupportedFileExtensions() const  - Undefined Reference
    _ZNK35CMMFFormatImplementationInformation23SupportedFileExtensionsEv@mmfcontrollerframework{000a0000}[101f76dd].dll  - Undefined Reference
    CMMFPluginImplementationInformation::DisplayName() const  - Undefined Reference
    _ZNK35CMMFPluginImplementationInformation11DisplayNameEv@mmfcontrollerframework{000a0000}[101f76dd].dll  - Undefined Reference
    CMMFPluginImplementationInformation::Uid() const  - Undefined Reference
    _ZNK35CMMFPluginImplementationInformation3UidEv@mmfcontrollerframework{000a0000}[101f76dd].dll  - Undefined Reference
    CMMFControllerImplementationInformation::PlayFormats() const  - Undefined Reference
    _ZNK39CMMFControllerImplementationInformation11PlayFormatsEv@mmfcontrollerframework{000a0000}[101f76dd].dll  - Undefined Reference
    CMMFControllerImplementationInformation::RecordFormats() const  - Undefined Reference
    _ZNK39CMMFControllerImplementationInformation13RecordFormatsEv@mmfcontrollerframework{000a0000}[101f76dd].dll  - Undefined Reference
    QDir::canonicalPath() const               - Undefined Reference
    _ZNK4QDir13canonicalPathEv@QtCore{00040703}[2001b2dc].dll  - Undefined Reference
    QDir::exists(const QString&) const        - Undefined Reference
    _ZNK4QDir6existsERK7QString@QtCore{00040703}[2001b2dc].dll  - Undefined Reference
    QDir::entryList(const QStringList&, QFlags<QDir::Filter>, QFlags<QDir::SortFlag>) const  - Undefined Reference
    _ZNK4QDir9entryListERK11QStringList6QFlagsINS_6FilterEES3_INS_8SortFlagEE@QtCore{00040703}[2001b2dc].dll  - Undefined Reference
    QUrl::toLocalFile() const                 - Undefined Reference
    _ZNK4QUrl11toLocalFileEv@QtCore{00040703}[2001b2dc].dll  - Undefined Reference
    QUrl::scheme() const                      - Undefined Reference
    _ZNK4QUrl6schemeEv@QtCore{00040703}[2001b2dc].dll  - Undefined Reference
    QUrl::isEmpty() const                     - Undefined Reference
    _ZNK4QUrl7isEmptyEv@QtCore{00040703}[2001b2dc].dll  - Undefined Reference
    QUrl::toString(QFlags<QUrl::FormattingOption>) const  - Undefined Reference
    _ZNK4QUrl8toStringE6QFlagsINS_16FormattingOptionEE@QtCore{00040703}[2001b2dc].dll  - Undefined Reference
    QRect::operator &(const QRect&) const     - Undefined Reference
    _ZNK5QRectanERKS_@QtCore{00040703}[2001b2dc].dll  - Undefined Reference
    TRect::Width() const                      - Undefined Reference
    _ZNK5TRect5WidthEv@euser{000a0000}[100039e5].dll  - Undefined Reference
    TRect::Height() const                     - Undefined Reference
    _ZNK5TRect6HeightEv@euser{000a0000}[100039e5].dll  - Undefined Reference
    TDesC8::Ptr() const                       - Undefined Reference
    _ZNK6TDesC83PtrEv@euser{000a0000}[100039e5].dll  - Undefined Reference
    QPixmap::size() const                     - Undefined Reference
    _ZNK7QPixmap4sizeEv@QtGui{00040703}[2001b2dd].dll  - Undefined Reference
    QString::lastIndexOf(QChar, int, Qt::CaseSensitivity) const  - Undefined Reference
    _ZNK7QString11lastIndexOfE5QChariN2Qt15CaseSensitivityE@QtCore{00040703}[2001b2dc].dll  - Undefined Reference
    QString::toLocal8Bit() const              - Undefined Reference
    _ZNK7QString11toLocal8BitEv@QtCore{00040703}[2001b2dc].dll  - Undefined Reference
    QString::arg(long long, int, int, const QChar&) const  - Undefined Reference
    _ZNK7QString3argExiiRK5QChar@QtCore{00040703}[2001b2dc].dll  - Undefined Reference
    QString::mid(int, int) const              - Undefined Reference
    _ZNK7QString3midEii@QtCore{00040703}[2001b2dc].dll  - Undefined Reference
    QString::toInt(bool*, int) const          - Undefined Reference
    _ZNK7QString5toIntEPbi@QtCore{00040703}[2001b2dc].dll  - Undefined Reference
    QString::utf16() const                    - Undefined Reference
    _ZNK7QString5utf16Ev@QtCore{00040703}[2001b2dc].dll  - Undefined Reference
    QString::compare(const QString&) const    - Undefined Reference
    _ZNK7QString7compareERKS_@QtCore{00040703}[2001b2dc].dll  - Undefined Reference
    QString::compare(const QString&, Qt::CaseSensitivity) const  - Undefined Reference
    _ZNK7QString7compareERKS_N2Qt15CaseSensitivityE@QtCore{00040703}[2001b2dc].dll  - Undefined Reference
    QString::operator ==(const QLatin1String&) const  - Undefined Reference
    _ZNK7QStringeqERK13QLatin1String@QtCore{00040703}[2001b2dc].dll  - Undefined Reference
    QString::operator ==(const QString&) const  - Undefined Reference
    _ZNK7QStringeqERKS_@QtCore{00040703}[2001b2dc].dll  - Undefined Reference
    QString::operator <(const QString&) const  - Undefined Reference
    _ZNK7QStringltERKS_@QtCore{00040703}[2001b2dc].dll  - Undefined Reference
    QWidget::paintEngine() const              - Undefined Reference
    _ZNK7QWidget11paintEngineEv@QtGui{00040703}[2001b2dd].dll  - Undefined Reference
    QWidget::effectiveWinId() const           - Undefined Reference
    _ZNK7QWidget14effectiveWinIdEv@QtGui{00040703}[2001b2dd].dll  - Undefined Reference
    QWidget::heightForWidth(int) const        - Undefined Reference
    _ZNK7QWidget14heightForWidthEi@QtGui{00040703}[2001b2dd].dll  - Undefined Reference
    QWidget::minimumSizeHint() const          - Undefined Reference
    _ZNK7QWidget15minimumSizeHintEv@QtGui{00040703}[2001b2dd].dll  - Undefined Reference
    QWidget::inputMethodQuery(Qt::InputMethodQuery) const  - Undefined Reference
    _ZNK7QWidget16inputMethodQueryEN2Qt16InputMethodQueryE@QtGui{00040703}[2001b2dd].dll  - Undefined Reference
    QWidget::winId() const                    - Undefined Reference
    _ZNK7QWidget5winIdEv@QtGui{00040703}[2001b2dd].dll  - Undefined Reference
    QWidget::metric(QPaintDevice::PaintDeviceMetric) const  - Undefined Reference
    _ZNK7QWidget6metricEN12QPaintDevice17PaintDeviceMetricE@QtGui{00040703}[2001b2dd].dll  - Undefined Reference
    QWidget::window() const                   - Undefined Reference
    _ZNK7QWidget6windowEv@QtGui{00040703}[2001b2dd].dll  - Undefined Reference
    QWidget::devType() const                  - Undefined Reference
    _ZNK7QWidget7devTypeEv@QtGui{00040703}[2001b2dd].dll  - Undefined Reference
    QWidget::sizeHint() const                 - Undefined Reference
    _ZNK7QWidget8sizeHintEv@QtGui{00040703}[2001b2dd].dll  - Undefined Reference
    TDesC16::Ptr() const                      - Undefined Reference
    _ZNK7TDesC163PtrEv@euser{000a0000}[100039e5].dll  - Undefined Reference
    TDesC16::Left(int) const                  - Undefined Reference
    _ZNK7TDesC164LeftEi@euser{000a0000}[100039e5].dll  - Undefined Reference
    TDesC16::Compare(const TDesC16&) const    - Undefined Reference
    _ZNK7TDesC167CompareERKS_@euser{000a0000}[100039e5].dll  - Undefined Reference
    QVariant::toInt(bool*) const              - Undefined Reference
    _ZNK8QVariant5toIntEPb@QtCore{00040703}[2001b2dc].dll  - Undefined Reference
    QVariant::isNull() const                  - Undefined Reference
    _ZNK8QVariant6isNullEv@QtCore{00040703}[2001b2dc].dll  - Undefined Reference
    TDataType::Des() const                    - Undefined Reference
    _ZNK9TDataType3DesEv@apmime{000a0000}[10003a1a].dll  - Undefined Reference
    typeinfo for QMediaService                - Undefined Reference
    _ZTI13QMediaService@QtMultimediaKit{00010103}[2002ac77].dll  - Undefined Reference
    typeinfo for QObjectPrivate               - Undefined Reference
    _ZTI14QObjectPrivate@QtCore{00040703}[2001b2dc].dll  - Undefined Reference
    typeinfo for XLeaveException              - Undefined Reference
    _ZTI15XLeaveException@drtaeabi{000a0000}.dll  - Undefined Reference
    typeinfo for QRadioTunerControl           - Undefined Reference
    _ZTI18QRadioTunerControl@QtMultimediaKit{00010103}[2002ac77].dll  - Undefined Reference
    typeinfo for QMediaPlayerControl          - Undefined Reference
    _ZTI19QMediaPlayerControl@QtMultimediaKit{00010103}[2002ac77].dll  - Undefined Reference
    typeinfo for QVideoWidgetControl          - Undefined Reference
    _ZTI19QVideoWidgetControl@QtMultimediaKit{00010103}[2002ac77].dll  - Undefined Reference
    typeinfo for QVideoWindowControl          - Undefined Reference
    _ZTI19QVideoWindowControl@QtMultimediaKit{00010103}[2002ac77].dll  - Undefined Reference
    typeinfo for QAudioEncoderControl         - Undefined Reference
    _ZTI20QAudioEncoderControl@QtMultimediaKit{00010103}[2002ac77].dll  - Undefined Reference
    typeinfo for QMediaStreamsControl         - Undefined Reference
    _ZTI20QMediaStreamsControl@QtMultimediaKit{00010103}[2002ac77].dll  - Undefined Reference
    typeinfo for QAbstractVideoSurface        - Undefined Reference
    _ZTI21QAbstractVideoSurface@QtMultimediaKit{00010103}[2002ac77].dll  - Undefined Reference
    typeinfo for QMediaRecorderControl        - Undefined Reference
    _ZTI21QMediaRecorderControl@QtMultimediaKit{00010103}[2002ac77].dll  - Undefined Reference
    typeinfo for QAudioEndpointSelector       - Undefined Reference
    _ZTI22QAudioEndpointSelector@QtMultimediaKit{00010103}[2002ac77].dll  - Undefined Reference
    typeinfo for QMediaContainerControl       - Undefined Reference
    _ZTI22QMediaContainerControl@QtMultimediaKit{00010103}[2002ac77].dll  - Undefined Reference
    typeinfo for QMetaDataReaderControl       - Undefined Reference
    _ZTI22QMetaDataReaderControl@QtMultimediaKit{00010103}[2002ac77].dll  - Undefined Reference
    typeinfo for QMediaServiceProviderPlugin  - Undefined Reference
    _ZTI27QMediaServiceProviderPlugin@QtMultimediaKit{00010103}[2002ac77].dll  - Undefined Reference
    typeinfo for QObject                      - Undefined Reference
    _ZTI7QObject@QtCore{00040703}[2001b2dc].dll  - Undefined Reference
    typeinfo for QWidget                      - Undefined Reference
    _ZTI7QWidget@QtGui{00040703}[2001b2dd].dll  - Undefined Reference
    typeinfo for std::bad_alloc               - Undefined Reference
    _ZTISt9bad_alloc@stdnew{000a0000}[20022178].dll  - Undefined Reference
    vtable for QMediaServiceProviderPlugin    - Undefined Reference
    _ZTV27QMediaServiceProviderPlugin@QtMultimediaKit{00010103}[2002ac77].dll  - Undefined Reference
    vtable for __cxxabiv1::__class_type_info  - Undefined Reference
    _ZTVN10__cxxabiv117__class_type_infoE@drtaeabi{000a0000}.dll  - Undefined Reference
    vtable for __cxxabiv1::__si_class_type_info  - Undefined Reference
    _ZTVN10__cxxabiv120__si_class_type_infoE@drtaeabi{000a0000}.dll  - Undefined Reference
    vtable for __cxxabiv1::__vmi_class_type_info  - Undefined Reference
    _ZTVN10__cxxabiv121__vmi_class_type_infoE@drtaeabi{000a0000}.dll  - Undefined Reference
    thunk{-8} to QWidget::paintEngine() const  - Undefined Reference
    _ZThn8_NK7QWidget11paintEngineEv@QtGui{00040703}[2001b2dd].dll  - Undefined Reference
    thunk{-8} to QWidget::metric(QPaintDevice::PaintDeviceMetric) const  - Undefined Reference
    _ZThn8_NK7QWidget6metricEN12QPaintDevice17PaintDeviceMetricE@QtGui{00040703}[2001b2dd].dll  - Undefined Reference
    thunk{-8} to QWidget::devType() const     - Undefined Reference
    _ZThn8_NK7QWidget7devTypeEv@QtGui{00040703}[2001b2dd].dll  - Undefined Reference
    operator delete (void*)                   - Undefined Reference
    _ZdlPv@stdnew{000a0000}[20022178].dll     - Undefined Reference
    operator new(unsigned)                    - Undefined Reference
    _Znwj@stdnew{000a0000}[20022178].dll      - Undefined Reference
    __ARM_ll_cmpu                             - Undefined Reference
    __ARM_ll_cmpu@drtrvct2_2{000a0000}.dll    - Undefined Reference
    __ARM_ll_mulls                            - Undefined Reference
    __ARM_ll_mulls@drtrvct2_2{000a0000}.dll   - Undefined Reference
    __ARM_ll_mullu                            - Undefined Reference
    __ARM_ll_mullu@drtrvct2_2{000a0000}.dll   - Undefined Reference
    __aeabi_cdcmpeq                           - Undefined Reference
    __aeabi_cdcmpeq@dfpaeabi{000a0000}.dll    - Undefined Reference
    __aeabi_cfcmpeq                           - Undefined Reference
    __aeabi_cfcmpeq@dfpaeabi{000a0000}.dll    - Undefined Reference
    __aeabi_cfcmple                           - Undefined Reference
    __aeabi_cfcmple@dfpaeabi{000a0000}.dll    - Undefined Reference
    __aeabi_cfrcmple                          - Undefined Reference
    __aeabi_cfrcmple@dfpaeabi{000a0000}.dll   - Undefined Reference
    __aeabi_d2iz                              - Undefined Reference
    __aeabi_d2iz@dfpaeabi{000a0000}.dll       - Undefined Reference
    __aeabi_ddiv                              - Undefined Reference
    __aeabi_ddiv@dfpaeabi{000a0000}.dll       - Undefined Reference
    __aeabi_dmul                              - Undefined Reference
    __aeabi_dmul@dfpaeabi{000a0000}.dll       - Undefined Reference
    __aeabi_f2d                               - Undefined Reference
    __aeabi_f2d@dfpaeabi{000a0000}.dll        - Undefined Reference
    __aeabi_f2iz                              - Undefined Reference
    __aeabi_f2iz@dfpaeabi{000a0000}.dll       - Undefined Reference
    __aeabi_fdiv                              - Undefined Reference
    __aeabi_fdiv@dfpaeabi{000a0000}.dll       - Undefined Reference
    __aeabi_fmul                              - Undefined Reference
    __aeabi_fmul@dfpaeabi{000a0000}.dll       - Undefined Reference
    __aeabi_frsub                             - Undefined Reference
    __aeabi_frsub@dfpaeabi{000a0000}.dll      - Undefined Reference
    __aeabi_fsub                              - Undefined Reference
    __aeabi_fsub@dfpaeabi{000a0000}.dll       - Undefined Reference
    __aeabi_i2d                               - Undefined Reference
    __aeabi_i2d@dfpaeabi{000a0000}.dll        - Undefined Reference
    __aeabi_i2f                               - Undefined Reference
    __aeabi_i2f@dfpaeabi{000a0000}.dll        - Undefined Reference
    __aeabi_idivmod                           - Undefined Reference
    __aeabi_idivmod@drtaeabi{000a0000}.dll    - Undefined Reference
    __aeabi_ldivmod                           - Undefined Reference
    __aeabi_ldivmod@drtaeabi{000a0000}.dll    - Undefined Reference
    __aeabi_memcpy4                           - Undefined Reference
    __aeabi_memcpy4@drtaeabi{000a0000}.dll    - Undefined Reference
    __aeabi_uidivmod                          - Undefined Reference
    __aeabi_uidivmod@drtaeabi{000a0000}.dll   - Undefined Reference
    __aeabi_unwind_cpp_pr0                    - Undefined Reference
    __aeabi_unwind_cpp_pr0@drtaeabi{000a0000}.dll  - Undefined Reference
    __cxa_begin_catch                         - Undefined Reference
    __cxa_begin_catch@drtaeabi{000a0000}.dll  - Undefined Reference
    __cxa_end_catch                           - Undefined Reference
    __cxa_end_catch@drtaeabi{000a0000}.dll    - Undefined Reference
    __cxa_end_cleanup                         - Undefined Reference
    __cxa_end_cleanup@drtaeabi{000a0000}.dll  - Undefined Reference
    __cxa_guard_abort                         - Undefined Reference
    __cxa_guard_abort@drtaeabi{000a0000}.dll  - Undefined Reference
    __cxa_guard_acquire                       - Undefined Reference
    __cxa_guard_acquire@drtaeabi{000a0000}.dll  - Undefined Reference
    __cxa_guard_release                       - Undefined Reference
    __cxa_guard_release@drtaeabi{000a0000}.dll  - Undefined Reference
    __cxa_pure_virtual                        - Undefined Reference
    __cxa_pure_virtual@drtaeabi{000a0000}.dll  - Undefined Reference
    __cxa_rethrow                             - Undefined Reference
    __cxa_rethrow@drtaeabi{000a0000}.dll      - Undefined Reference
    strcmp                                    - Undefined Reference
    strcmp@libc{00010001}[10207369].dll       - Undefined Reference
    Image$$ER_RO$$Base                       0x00008000   Number         0  anon$$obj.o(linker$$defined$$symbols)
    _E32Dll                                  0x00008000   ARM Code      40  uc_dll_.o(.emb_text)
    Symbian$$CPP$$Exception$$Descriptor      0x00008014   Data           0  uc_dll_.o(.emb_text)
    __cpp_initialize__aeabi_                 0x00008028   ARM Code      52  ucppinit.o(.emb_text)
    std::nothrow                             0x0000805c   ARM Code       0  ucppinit.o(.emb_text)
    __PLT                                    0x0000805c   ARM Code       0  anon$$obj.o(.plt)
    S60VideoDisplay::getStaticMetaObject()   0x00008d85   Thumb Code     4  moc_s60videodisplay.o(.text)
    S60VideoDisplay::metaObject() const      0x00008d89   Thumb Code    28  moc_s60videodisplay.o(.text)
    S60VideoDisplay::qt_metacast(const char*) 0x00008da5   Thumb Code    40  moc_s60videodisplay.o(.text)
    S60VideoDisplay::endVideoWindowNativePaint() 0x00008dcd   Thumb Code    18  moc_s60videodisplay.o(.text)
    S60VideoDisplay::beginVideoWindowNativePaint() 0x00008ddf   Thumb Code    18  moc_s60videodisplay.o(.text)
    S60VideoDisplay::rotationChanged(float)  0x00008df1   Thumb Code    32  moc_s60videodisplay.o(.text)
    S60VideoDisplay::paintingEnabledChanged(bool) 0x00008e11   Thumb Code    32  moc_s60videodisplay.o(.text)
    S60VideoDisplay::contentRectChanged(QRect) 0x00008e31   Thumb Code    38  moc_s60videodisplay.o(.text)
    S60VideoDisplay::nativeSizeChanged(QSize) 0x00008e57   Thumb Code    34  moc_s60videodisplay.o(.text)
    S60VideoDisplay::aspectRatioModeChanged(Qt::AspectRatioMode) 0x00008e79   Thumb Code    32  moc_s60videodisplay.o(.text)
    S60VideoDisplay::visibilityChanged(bool) 0x00008e99   Thumb Code    32  moc_s60videodisplay.o(.text)
    S60VideoDisplay::fullScreenChanged(bool) 0x00008eb9   Thumb Code    32  moc_s60videodisplay.o(.text)
    S60VideoDisplay::displayRectChanged(QRect, QRect) 0x00008ed9   Thumb Code    44  moc_s60videodisplay.o(.text)
    S60VideoDisplay::windowHandleChanged(RWindow*) 0x00008f05   Thumb Code    30  moc_s60videodisplay.o(.text)
    S60VideoDisplay::qt_metacall(QMetaObject::Call, int, void**) 0x00008f23   Thumb Code   252  moc_s60videodisplay.o(.text)
    S60VideoWidget::getStaticMetaObject()    0x00009029   Thumb Code     4  moc_s60videowidget.o(.text)
    S60VideoWidget::metaObject() const       0x0000902d   Thumb Code    28  moc_s60videowidget.o(.text)
    S60VideoWidget::qt_metacast(const char*) 0x00009049   Thumb Code    40  moc_s60videowidget.o(.text)
    S60VideoWidget::endVideoWidgetNativePaint() 0x00009071   Thumb Code    18  moc_s60videowidget.o(.text)
    S60VideoWidget::beginVideoWidgetNativePaint() 0x00009083   Thumb Code    18  moc_s60videowidget.o(.text)
    S60VideoWidget::qt_metacall(QMetaObject::Call, int, void**) 0x00009095   Thumb Code   154  moc_s60videowidget.o(.text)
    S60VideoWidgetControl::getStaticMetaObject() 0x00009139   Thumb Code     4  moc_s60videowidgetcontrol.o(.text)
    S60VideoWidgetControl::metaObject() const 0x0000913d   Thumb Code    28  moc_s60videowidgetcontrol.o(.text)
    S60VideoWidgetControl::qt_metacast(const char*) 0x00009159   Thumb Code    40  moc_s60videowidgetcontrol.o(.text)
    S60VideoWidgetControl::nativeSizeChanged() 0x00009181   Thumb Code    18  moc_s60videowidgetcontrol.o(.text)
    S60VideoWidgetControl::qt_metacall(QMetaObject::Call, int, void**) 0x00009193   Thumb Code   258  moc_s60videowidgetcontrol.o(.text)
    S60VideoWidgetDisplay::getStaticMetaObject() 0x0000929d   Thumb Code     4  moc_s60videowidgetdisplay.o(.text)
    S60VideoWidgetDisplay::metaObject() const 0x000092a1   Thumb Code    28  moc_s60videowidgetdisplay.o(.text)
    S60VideoWidgetDisplay::qt_metacast(const char*) 0x000092bd   Thumb Code    40  moc_s60videowidgetdisplay.o(.text)
    S60VideoWidgetDisplay::qt_metacall(QMetaObject::Call, int, void**) 0x000092e5   Thumb Code    36  moc_s60videowidgetdisplay.o(.text)
    S60VideoWindowControl::getStaticMetaObject() 0x00009311   Thumb Code     4  moc_s60videowindowcontrol.o(.text)
    S60VideoWindowControl::metaObject() const 0x00009315   Thumb Code    28  moc_s60videowindowcontrol.o(.text)
    S60VideoWindowControl::qt_metacast(const char*) 0x00009331   Thumb Code    40  moc_s60videowindowcontrol.o(.text)
    S60VideoWindowControl::qt_metacall(QMetaObject::Call, int, void**) 0x00009359   Thumb Code   160  moc_s60videowindowcontrol.o(.text)
    S60MediaPlayerControl::getStaticMetaObject() 0x00009401   Thumb Code     4  moc_s60mediaplayercontrol.o(.text)
    S60MediaPlayerControl::metaObject() const 0x00009405   Thumb Code    28  moc_s60mediaplayercontrol.o(.text)
    S60MediaPlayerControl::qt_metacast(const char*) 0x00009421   Thumb Code    40  moc_s60mediaplayercontrol.o(.text)
    S60MediaPlayerControl::qt_metacall(QMetaObject::Call, int, void**) 0x00009449   Thumb Code    36  moc_s60mediaplayercontrol.o(.text)
    S60MediaPlayerService::getStaticMetaObject() 0x00009475   Thumb Code     4  moc_s60mediaplayerservice.o(.text)
    S60MediaPlayerService::metaObject() const 0x00009479   Thumb Code    28  moc_s60mediaplayerservice.o(.text)
    S60MediaPlayerService::qt_metacast(const char*) 0x00009495   Thumb Code    58  moc_s60mediaplayerservice.o(.text)
    S60MediaPlayerService::qt_metacall(QMetaObject::Call, int, void**) 0x000094cf   Thumb Code    36  moc_s60mediaplayerservice.o(.text)
    S60MediaPlayerSession::getStaticMetaObject() 0x00009515   Thumb Code     4  moc_s60mediaplayersession.o(.text)
    S60MediaPlayerSession::metaObject() const 0x00009519   Thumb Code    28  moc_s60mediaplayersession.o(.text)
    S60MediaPlayerSession::qt_metacast(const char*) 0x00009535   Thumb Code    40  moc_s60mediaplayersession.o(.text)
    S60MediaPlayerSession::mutedChanged(bool) 0x0000955d   Thumb Code    32  moc_s60mediaplayersession.o(.text)
    S60MediaPlayerSession::volumeChanged(int) 0x0000957d   Thumb Code    32  moc_s60mediaplayersession.o(.text)
    S60MediaPlayerSession::playbackRateChanged(float) 0x0000959d   Thumb Code    32  moc_s60mediaplayersession.o(.text)
    S60MediaPlayerSession::mediaChanged()    0x000095bd   Thumb Code    18  moc_s60mediaplayersession.o(.text)
    S60MediaPlayerSession::activeEndpointChanged(const QString&) 0x000095cf   Thumb Code    30  moc_s60mediaplayersession.o(.text)
    S60MediaPlayerSession::error(int, const QString&) 0x000095ed   Thumb Code    40  moc_s60mediaplayersession.o(.text)
    S60MediaPlayerSession::metaDataChanged() 0x00009615   Thumb Code    18  moc_s60mediaplayersession.o(.text)
    S60MediaPlayerSession::availablePlaybackRangesChanged(const QMediaTimeRange&) 0x00009627   Thumb Code    30  moc_s60mediaplayersession.o(.text)
    S60MediaPlayerSession::seekableChanged(bool) 0x00009645   Thumb Code    32  moc_s60mediaplayersession.o(.text)
    S60MediaPlayerSession::bufferStatusChanged(int) 0x00009665   Thumb Code    32  moc_s60mediaplayersession.o(.text)
    S60MediaPlayerSession::audioAvailableChanged(bool) 0x00009685   Thumb Code    32  moc_s60mediaplayersession.o(.text)
    S60MediaPlayerSession::videoAvailableChanged(bool) 0x000096a5   Thumb Code    32  moc_s60mediaplayersession.o(.text)
    S60MediaPlayerSession::mediaStatusChanged(QMediaPlayer::MediaStatus) 0x000096c5   Thumb Code    32  moc_s60mediaplayersession.o(.text)
    S60MediaPlayerSession::stateChanged(QMediaPlayer::State) 0x000096e5   Thumb Code    32  moc_s60mediaplayersession.o(.text)
    S60MediaPlayerSession::positionChanged(long long) 0x00009705   Thumb Code    34  moc_s60mediaplayersession.o(.text)
    S60MediaPlayerSession::durationChanged(long long) 0x00009727   Thumb Code    34  moc_s60mediaplayersession.o(.text)
    S60MediaPlayerSession::qt_metacall(QMetaObject::Call, int, void**) 0x00009749   Thumb Code   292  moc_s60mediaplayersession.o(.text)
    S60MediaMetaDataProvider::getStaticMetaObject() 0x00009875   Thumb Code     4  moc_s60mediametadataprovider.o(.text)
    S60MediaMetaDataProvider::metaObject() const 0x00009879   Thumb Code    28  moc_s60mediametadataprovider.o(.text)
    S60MediaMetaDataProvider::qt_metacast(const char*) 0x00009895   Thumb Code    40  moc_s60mediametadataprovider.o(.text)
    S60MediaMetaDataProvider::qt_metacall(QMetaObject::Call, int, void**) 0x000098bd   Thumb Code    36  moc_s60mediametadataprovider.o(.text)
    S60VideoPlayerSession::getStaticMetaObject() 0x000098e9   Thumb Code     4  moc_s60videoplayersession.o(.text)
    S60VideoPlayerSession::metaObject() const 0x000098ed   Thumb Code    28  moc_s60videoplayersession.o(.text)
    S60VideoPlayerSession::qt_metacast(const char*) 0x00009909   Thumb Code    94  moc_s60videoplayersession.o(.text)
    S60VideoPlayerSession::nativeSizeChanged(QSize) 0x00009967   Thumb Code    32  moc_s60videoplayersession.o(.text)
    S60VideoPlayerSession::qt_metacall(QMetaObject::Call, int, void**) 0x00009987   Thumb Code   120  moc_s60videoplayersession.o(.text)
    S60VideoSurface::getStaticMetaObject()   0x00009a55   Thumb Code     4  moc_s60videosurface.o(.text)
    S60VideoSurface::metaObject() const      0x00009a59   Thumb Code    28  moc_s60videosurface.o(.text)
    S60VideoSurface::qt_metacast(const char*) 0x00009a75   Thumb Code    40  moc_s60videosurface.o(.text)
    S60VideoSurface::qt_metacall(QMetaObject::Call, int, void**) 0x00009a9d   Thumb Code    36  moc_s60videosurface.o(.text)
    S60MediaRecognizer::getStaticMetaObject() 0x00009ac9   Thumb Code     4  moc_s60mediarecognizer.o(.text)
    S60MediaRecognizer::metaObject() const   0x00009acd   Thumb Code    28  moc_s60mediarecognizer.o(.text)
    S60MediaRecognizer::qt_metacast(const char*) 0x00009ae9   Thumb Code    40  moc_s60mediarecognizer.o(.text)
    S60MediaRecognizer::qt_metacall(QMetaObject::Call, int, void**) 0x00009b11   Thumb Code    36  moc_s60mediarecognizer.o(.text)
    S60AudioPlayerSession::getStaticMetaObject() 0x00009b3d   Thumb Code     4  moc_s60audioplayersession.o(.text)
    S60AudioPlayerSession::metaObject() const 0x00009b41   Thumb Code    28  moc_s60audioplayersession.o(.text)
    S60AudioPlayerSession::qt_metacast(const char*) 0x00009b5d   Thumb Code    94  moc_s60audioplayersession.o(.text)
    S60AudioPlayerSession::qt_metacall(QMetaObject::Call, int, void**) 0x00009bbb   Thumb Code    64  moc_s60audioplayersession.o(.text)
    S60MediaPlayerAudioEndpointSelector::getStaticMetaObject() 0x00009c4d   Thumb Code     4  moc_s60mediaplayeraudioendpointselector.o(.text)
    S60MediaPlayerAudioEndpointSelector::metaObject() const 0x00009c51   Thumb Code    28  moc_s60mediaplayeraudioendpointselector.o(.text)
    S60MediaPlayerAudioEndpointSelector::qt_metacast(const char*) 0x00009c6d   Thumb Code    40  moc_s60mediaplayeraudioendpointselector.o(.text)
    S60MediaPlayerAudioEndpointSelector::qt_metacall(QMetaObject::Call, int, void**) 0x00009c95   Thumb Code    62  moc_s60mediaplayeraudioendpointselector.o(.text)
    S60MediaStreamControl::getStaticMetaObject() 0x00009cdd   Thumb Code     4  moc_s60mediastreamcontrol.o(.text)
    S60MediaStreamControl::metaObject() const 0x00009ce1   Thumb Code    28  moc_s60mediastreamcontrol.o(.text)
    S60MediaStreamControl::qt_metacast(const char*) 0x00009cfd   Thumb Code    40  moc_s60mediastreamcontrol.o(.text)
    S60MediaStreamControl::qt_metacall(QMetaObject::Call, int, void**) 0x00009d25   Thumb Code    58  moc_s60mediastreamcontrol.o(.text)
    S60RadioTunerControl::getStaticMetaObject() 0x00009d69   Thumb Code     4  moc_s60radiotunercontrol_since32.o(.text)
    S60RadioTunerControl::metaObject() const 0x00009d6d   Thumb Code    28  moc_s60radiotunercontrol_since32.o(.text)
    S60RadioTunerControl::qt_metacast(const char*) 0x00009d89   Thumb Code    76  moc_s60radiotunercontrol_since32.o(.text)
    S60RadioTunerControl::error(QRadioTuner::Error) const 0x00009dd5   Thumb Code    30  moc_s60radiotunercontrol_since32.o(.text)
    S60RadioTunerControl::qt_metacall(QMetaObject::Call, int, void**) 0x00009df3   Thumb Code    76  moc_s60radiotunercontrol_since32.o(.text)
    S60RadioTunerService::getStaticMetaObject() 0x00009e79   Thumb Code     4  moc_s60radiotunerservice.o(.text)
    S60RadioTunerService::metaObject() const 0x00009e7d   Thumb Code    28  moc_s60radiotunerservice.o(.text)
    S60RadioTunerService::qt_metacast(const char*) 0x00009e99   Thumb Code    40  moc_s60radiotunerservice.o(.text)
    S60RadioTunerService::qt_metacall(QMetaObject::Call, int, void**) 0x00009ec1   Thumb Code    36  moc_s60radiotunerservice.o(.text)
    S60AudioEncoderControl::getStaticMetaObject() 0x00009eed   Thumb Code     4  moc_s60audioencodercontrol.o(.text)
    S60AudioEncoderControl::metaObject() const 0x00009ef1   Thumb Code    28  moc_s60audioencodercontrol.o(.text)
    S60AudioEncoderControl::qt_metacast(const char*) 0x00009f0d   Thumb Code    40  moc_s60audioencodercontrol.o(.text)
    S60AudioEncoderControl::qt_metacall(QMetaObject::Call, int, void**) 0x00009f35   Thumb Code    36  moc_s60audioencodercontrol.o(.text)
    S60AudioMediaRecorderControl::getStaticMetaObject() 0x00009f61   Thumb Code     4  moc_s60audiomediarecordercontrol.o(.text)
    S60AudioMediaRecorderControl::metaObject() const 0x00009f65   Thumb Code    28  moc_s60audiomediarecordercontrol.o(.text)
    S60AudioMediaRecorderControl::qt_metacast(const char*) 0x00009f81   Thumb Code    40  moc_s60audiomediarecordercontrol.o(.text)
    S60AudioMediaRecorderControl::qt_metacall(QMetaObject::Call, int, void**) 0x00009fa9   Thumb Code   116  moc_s60audiomediarecordercontrol.o(.text)
    S60AudioEndpointSelector::getStaticMetaObject() 0x0000a025   Thumb Code     4  moc_s60audioendpointselector.o(.text)
    S60AudioEndpointSelector::metaObject() const 0x0000a029   Thumb Code    28  moc_s60audioendpointselector.o(.text)
    S60AudioEndpointSelector::qt_metacast(const char*) 0x0000a045   Thumb Code    40  moc_s60audioendpointselector.o(.text)
    S60AudioEndpointSelector::qt_metacall(QMetaObject::Call, int, void**) 0x0000a06d   Thumb Code    62  moc_s60audioendpointselector.o(.text)
    S60AudioCaptureService::getStaticMetaObject() 0x0000a0b5   Thumb Code     4  moc_s60audiocaptureservice.o(.text)
    S60AudioCaptureService::metaObject() const 0x0000a0b9   Thumb Code    28  moc_s60audiocaptureservice.o(.text)
    S60AudioCaptureService::qt_metacast(const char*) 0x0000a0d5   Thumb Code    40  moc_s60audiocaptureservice.o(.text)
    S60AudioCaptureService::qt_metacall(QMetaObject::Call, int, void**) 0x0000a0fd   Thumb Code    36  moc_s60audiocaptureservice.o(.text)
    S60AudioCaptureSession::getStaticMetaObject() 0x0000a129   Thumb Code     4  moc_s60audiocapturesession.o(.text)
    S60AudioCaptureSession::metaObject() const 0x0000a12d   Thumb Code    28  moc_s60audiocapturesession.o(.text)
    S60AudioCaptureSession::qt_metacast(const char*) 0x0000a149   Thumb Code    58  moc_s60audiocapturesession.o(.text)
    S60AudioCaptureSession::activeEndpointChanged(const QString&) 0x0000a183   Thumb Code    30  moc_s60audiocapturesession.o(.text)
    S60AudioCaptureSession::error(int, const QString&) 0x0000a1a1   Thumb Code    40  moc_s60audiocapturesession.o(.text)
    S60AudioCaptureSession::positionChanged(long long) 0x0000a1c9   Thumb Code    34  moc_s60audiocapturesession.o(.text)
    S60AudioCaptureSession::stateChanged(S60AudioCaptureSession::TAudioCaptureState) 0x0000a1eb   Thumb Code    30  moc_s60audiocapturesession.o(.text)
    S60AudioCaptureSession::qt_metacall(QMetaObject::Call, int, void**) 0x0000a209   Thumb Code   206  moc_s60audiocapturesession.o(.text)
    S60AudioContainerControl::getStaticMetaObject() 0x0000a301   Thumb Code     4  moc_S60audiocontainercontrol.o(.text)
    S60AudioContainerControl::metaObject() const 0x0000a305   Thumb Code    28  moc_S60audiocontainercontrol.o(.text)
    S60AudioContainerControl::qt_metacast(const char*) 0x0000a321   Thumb Code    40  moc_S60audiocontainercontrol.o(.text)
    S60AudioContainerControl::qt_metacall(QMetaObject::Call, int, void**) 0x0000a349   Thumb Code    36  moc_S60audiocontainercontrol.o(.text)
    S60MediaServicePlugin::getStaticMetaObject() 0x0000a375   Thumb Code     4  moc_s60mediaserviceplugin.o(.text)
    S60MediaServicePlugin::metaObject() const 0x0000a379   Thumb Code    28  moc_s60mediaserviceplugin.o(.text)
    S60MediaServicePlugin::qt_metacast(const char*) 0x0000a395   Thumb Code    76  moc_s60mediaserviceplugin.o(.text)
    S60MediaServicePlugin::qt_metacall(QMetaObject::Call, int, void**) 0x0000a3e1   Thumb Code    36  moc_s60mediaserviceplugin.o(.text)
    qt_plugin_query_verification_data        0x0000a46d   Thumb Code     4  s60mediaserviceplugin.o(.text)
    qt_plugin_instance                       0x0000a471   Thumb Code   120  s60mediaserviceplugin.o(.text)
    S60MediaServicePlugin::keys() const      0x0000a4e9   Thumb Code   112  s60mediaserviceplugin.o(.text)
    thunk{-8} to S60MediaServicePlugin::keys() const 0x0000a559   Thumb Code    18  s60mediaserviceplugin.o(.text)
    S60MediaServicePlugin::create(const QString&) 0x0000a56b   Thumb Code   152  s60mediaserviceplugin.o(.text)
    thunk{-8} to S60MediaServicePlugin::create(const QString&) 0x0000a603   Thumb Code    18  s60mediaserviceplugin.o(.text)
    S60MediaServicePlugin::release(QMediaService*) 0x0000a615   Thumb Code    20  s60mediaserviceplugin.o(.text)
    thunk{-8} to S60MediaServicePlugin::release(QMediaService*) 0x0000a629   Thumb Code    18  s60mediaserviceplugin.o(.text)
    S60MediaServicePlugin::hasSupport(const QString&, const QStringList&) const 0x0000a63b   Thumb Code    14  s60mediaserviceplugin.o(.text)
    thunk{-12} to S60MediaServicePlugin::hasSupport(const QString&, const QStringList&) const 0x0000a649   Thumb Code    22  s60mediaserviceplugin.o(.text)
    S60MediaServicePlugin::supportedMimeTypes() const 0x0000a65f   Thumb Code   262  s60mediaserviceplugin.o(.text)
    thunk{-12} to S60MediaServicePlugin::supportedMimeTypes() const 0x0000a765   Thumb Code    18  s60mediaserviceplugin.o(.text)
    S60FormatSupported::S60FormatSupported() 0x0000a7d5   Thumb Code    24  s60formatsupported.o(.text)
    S60FormatSupported::S60FormatSupported__sub_object() 0x0000a7d5   Thumb Code     0  s60formatsupported.o(.text)
    S60FormatSupported::~S60FormatSupported() 0x0000a7ed   Thumb Code    46  s60formatsupported.o(.text)
    S60FormatSupported::~S60FormatSupported__sub_object() 0x0000a7ed   Thumb Code     0  s60formatsupported.o(.text)
    S60FormatSupported::supportedPlayMimeTypesL() 0x0000a81b   Thumb Code   582  s60formatsupported.o(.text)
    S60AudioEncoderControl::S60AudioEncoderControl(QObject*, QObject*) 0x0000aa75   Thumb Code   280  s60audioencodercontrol.o(.text)
    S60AudioEncoderControl::S60AudioEncoderControl__sub_object(QObject*, QObject*) 0x0000aa75   Thumb Code     0  s60audioencodercontrol.o(.text)
    S60AudioEncoderControl::~S60AudioEncoderControl() 0x0000ab8d   Thumb Code    70  s60audioencodercontrol.o(.text)
    S60AudioEncoderControl::~S60AudioEncoderControl__sub_object() 0x0000ab8d   Thumb Code     0  s60audioencodercontrol.o(.text)
    S60AudioEncoderControl::~S60AudioEncoderControl__deallocating() 0x0000abd3   Thumb Code    22  s60audioencodercontrol.o(.text)
    S60AudioEncoderControl::supportedAudioCodecs() const 0x0000abe9   Thumb Code   308  s60audioencodercontrol.o(.text)
    S60AudioEncoderControl::codecDescription(const QString&) const 0x0000ad1d   Thumb Code    40  s60audioencodercontrol.o(.text)
    S60AudioEncoderControl::supportedSampleRates(const QAudioEncoderSettings&, bool*) const 0x0000ad45   Thumb Code    50  s60audioencodercontrol.o(.text)
    S60AudioEncoderControl::audioSettings() const 0x0000ad77   Thumb Code    40  s60audioencodercontrol.o(.text)
    S60AudioEncoderControl::setQuality(QtMultimediaKit::EncodingQuality, QAudioFormat&) 0x0000ad9f   Thumb Code   176  s60audioencodercontrol.o(.text)
    S60AudioEncoderControl::setAudioSettings(const QAudioEncoderSettings&) 0x0000ae4f   Thumb Code   568  s60audioencodercontrol.o(.text)
    S60AudioEncoderControl::supportedEncodingOptions(const QString&) const 0x0000b087   Thumb Code   152  s60audioencodercontrol.o(.text)
    S60AudioEncoderControl::quality() const  0x0000b11f   Thumb Code    30  s60audioencodercontrol.o(.text)
    S60AudioEncoderControl::encodingOption(const QString&, const QString&) const 0x0000b13d   Thumb Code   310  s60audioencodercontrol.o(.text)
    S60AudioEncoderControl::setEncodingOption(const QString&, const QString&, const QVariant&) 0x0000b273   Thumb Code   542  s60audioencodercontrol.o(.text)
    S60AudioMediaRecorderControl::S60AudioMediaRecorderControl(QObject*, QObject*) 0x0000b4c9   Thumb Code   484  s60audiomediarecordercontrol.o(.text)
    S60AudioMediaRecorderControl::S60AudioMediaRecorderControl__sub_object(QObject*, QObject*) 0x0000b4c9   Thumb Code     0  s60audiomediarecordercontrol.o(.text)
    S60AudioMediaRecorderControl::~S60AudioMediaRecorderControl() 0x0000b6ad   Thumb Code    58  s60audiomediarecordercontrol.o(.text)
    S60AudioMediaRecorderControl::~S60AudioMediaRecorderControl__sub_object() 0x0000b6ad   Thumb Code     0  s60audiomediarecordercontrol.o(.text)
    S60AudioMediaRecorderControl::~S60AudioMediaRecorderControl__deallocating() 0x0000b6e7   Thumb Code    22  s60audiomediarecordercontrol.o(.text)
    S60AudioMediaRecorderControl::outputLocation() const 0x0000b6fd   Thumb Code    36  s60audiomediarecordercontrol.o(.text)
    S60AudioMediaRecorderControl::setOutputLocation(const QUrl&) 0x0000b721   Thumb Code    40  s60audiomediarecordercontrol.o(.text)
    S60AudioMediaRecorderControl::state() const 0x0000b749   Thumb Code    30  s60audiomediarecordercontrol.o(.text)
    S60AudioMediaRecorderControl::duration() const 0x0000b767   Thumb Code    16  s60audiomediarecordercontrol.o(.text)
    S60AudioMediaRecorderControl::isMuted() const 0x0000b777   Thumb Code    36  s60audiomediarecordercontrol.o(.text)
    S60AudioMediaRecorderControl::convertState(S60AudioCaptureSession::TAudioCaptureState) const 0x0000b79b   Thumb Code   416  s60audiomediarecordercontrol.o(.text)
    S60AudioMediaRecorderControl::record()   0x0000b93b   Thumb Code    52  s60audiomediarecordercontrol.o(.text)
    S60AudioMediaRecorderControl::pause()    0x0000b96f   Thumb Code   314  s60audiomediarecordercontrol.o(.text)
    S60AudioMediaRecorderControl::stop()     0x0000baa9   Thumb Code    52  s60audiomediarecordercontrol.o(.text)
    S60AudioMediaRecorderControl::setMuted(bool) 0x0000badd   Thumb Code   102  s60audiomediarecordercontrol.o(.text)
    S60AudioMediaRecorderControl::updateState(S60AudioCaptureSession::TAudioCaptureState) 0x0000bb43   Thumb Code   350  s60audiomediarecordercontrol.o(.text)
    S60AudioEndpointSelector::S60AudioEndpointSelector(QObject*, QObject*) 0x0000bca1   Thumb Code   106  s60audioendpointselector.o(.text)
    S60AudioEndpointSelector::S60AudioEndpointSelector__sub_object(QObject*, QObject*) 0x0000bca1   Thumb Code     0  s60audioendpointselector.o(.text)
    S60AudioEndpointSelector::~S60AudioEndpointSelector() 0x0000bd0b   Thumb Code   330  s60audioendpointselector.o(.text)
    S60AudioEndpointSelector::~S60AudioEndpointSelector__sub_object() 0x0000bd0b   Thumb Code     0  s60audioendpointselector.o(.text)
    S60AudioEndpointSelector::~S60AudioEndpointSelector__deallocating() 0x0000be55   Thumb Code    22  s60audioendpointselector.o(.text)
    S60AudioEndpointSelector::availableEndpoints() const 0x0000be6b   Thumb Code    36  s60audioendpointselector.o(.text)
    S60AudioEndpointSelector::endpointDescription(const QString&) const 0x0000be8f   Thumb Code    40  s60audioendpointselector.o(.text)
    S60AudioEndpointSelector::defaultEndpoint() const 0x0000beb7   Thumb Code    36  s60audioendpointselector.o(.text)
    S60AudioEndpointSelector::activeEndpoint() const 0x0000bedb   Thumb Code    36  s60audioendpointselector.o(.text)
    S60AudioEndpointSelector::setActiveEndpoint(const QString&) 0x0000beff   Thumb Code   338  s60audioendpointselector.o(.text)
    S60AudioCaptureService::S60AudioCaptureService(QObject*) 0x0000c051   Thumb Code   246  s60audiocaptureservice.o(.text)
    S60AudioCaptureService::S60AudioCaptureService__sub_object(QObject*) 0x0000c051   Thumb Code     0  s60audiocaptureservice.o(.text)
    S60AudioCaptureService::~S60AudioCaptureService() 0x0000c147   Thumb Code    58  s60audiocaptureservice.o(.text)
    S60AudioCaptureService::~S60AudioCaptureService__sub_object() 0x0000c147   Thumb Code     0  s60audiocaptureservice.o(.text)
    S60AudioCaptureService::~S60AudioCaptureService__deallocating() 0x0000c181   Thumb Code    22  s60audiocaptureservice.o(.text)
    S60AudioCaptureService::requestControl(const char*) 0x0000c197   Thumb Code   402  s60audiocaptureservice.o(.text)
    S60AudioCaptureService::releaseControl(QMediaControl*) 0x0000c329   Thumb Code    52  s60audiocaptureservice.o(.text)
    S60AudioCaptureSession::stop()           0x0000c42d   Thumb Code    92  s60audiocapturesession.o(.text)
    S60AudioCaptureSession::fromSymbianErrorToMultimediaError(int) 0x0000c489   Thumb Code   200  s60audiocapturesession.o(.text)
    S60AudioCaptureSession::setError(int)    0x0000c551   Thumb Code   490  s60audiocapturesession.o(.text)
    S60AudioCaptureSession::initAudioInputs() 0x0000c73b   Thumb Code   474  s60audiocapturesession.o(.text)
    S60AudioCaptureSession::setDefaultSettings() 0x0000c915   Thumb Code   380  s60audiocapturesession.o(.text)
    S60AudioCaptureSession::populateAudioCodecsDataL() 0x0000ca91   Thumb Code  1074  s60audiocapturesession.o(.text)
    S60AudioCaptureSession::updateAudioContainersL() 0x0000cec3   Thumb Code   622  s60audiocapturesession.o(.text)
    S60AudioCaptureSession::initializeSessionL() 0x0000d131   Thumb Code   396  s60audiocapturesession.o(.text)
    S60AudioCaptureSession::S60AudioCaptureSession(QObject*) 0x0000d2bd   Thumb Code   434  s60audiocapturesession.o(.text)
    S60AudioCaptureSession::S60AudioCaptureSession__sub_object(QObject*) 0x0000d2bd   Thumb Code     0  s60audiocapturesession.o(.text)
    S60AudioCaptureSession::~S60AudioCaptureSession() 0x0000d46f   Thumb Code   206  s60audiocapturesession.o(.text)
    S60AudioCaptureSession::~S60AudioCaptureSession__sub_object() 0x0000d46f   Thumb Code     0  s60audiocapturesession.o(.text)
    S60AudioCaptureSession::~S60AudioCaptureSession__deallocating() 0x0000d53d   Thumb Code    22  s60audiocapturesession.o(.text)
    S60AudioCaptureSession::format() const   0x0000d553   Thumb Code   302  s60audiocapturesession.o(.text)
    S60AudioCaptureSession::setFormat(const QAudioFormat&) 0x0000d681   Thumb Code    60  s60audiocapturesession.o(.text)
    S60AudioCaptureSession::settings() const 0x0000d6bd   Thumb Code    40  s60audiocapturesession.o(.text)
    S60AudioCaptureSession::setEncoderSettings(const QAudioEncoderSettings&) 0x0000d6e5   Thumb Code    60  s60audiocapturesession.o(.text)
    S60AudioCaptureSession::supportedAudioCodecs() const 0x0000d721   Thumb Code   316  s60audiocapturesession.o(.text)
    S60AudioCaptureSession::codecDescription(const QString&) 0x0000d85d   Thumb Code   160  s60audiocapturesession.o(.text)
    S60AudioCaptureSession::setAudioCodec(const QString&) 0x0000d8fd   Thumb Code    92  s60audiocapturesession.o(.text)
    S60AudioCaptureSession::audioCodec() const 0x0000d959   Thumb Code    38  s60audiocapturesession.o(.text)
    S60AudioCaptureSession::audioContainer() const 0x0000d97f   Thumb Code    40  s60audiocapturesession.o(.text)
    S60AudioCaptureSession::supportedAudioContainers() const 0x0000d9a7   Thumb Code   318  s60audiocapturesession.o(.text)
    S60AudioCaptureSession::setAudioContainer(const QString&) 0x0000dae5   Thumb Code   158  s60audiocapturesession.o(.text)
    S60AudioCaptureSession::audioContainerDescription(const QString&) 0x0000db83   Thumb Code   160  s60audiocapturesession.o(.text)
    S60AudioCaptureSession::supportedAudioSampleRates(const QAudioEncoderSettings&) const 0x0000dc23   Thumb Code   454  s60audiocapturesession.o(.text)
    S60AudioCaptureSession::outputLocation() const 0x0000dde9   Thumb Code    40  s60audiocapturesession.o(.text)
    S60AudioCaptureSession::setOutputLocation(const QUrl&) 0x0000de11   Thumb Code   188  s60audiocapturesession.o(.text)
    S60AudioCaptureSession::position() const 0x0000decd   Thumb Code    82  s60audiocapturesession.o(.text)
    S60AudioCaptureSession::prepareSinkL()   0x0000df1f   Thumb Code  1098  s60audiocapturesession.o(.text)
    S60AudioCaptureSession::record()         0x0000e369   Thumb Code   366  s60audiocapturesession.o(.text)
    S60AudioCaptureSession::pause()          0x0000e4d7   Thumb Code    92  s60audiocapturesession.o(.text)
    S60AudioCaptureSession::mute(bool)       0x0000e533   Thumb Code   362  s60audiocapturesession.o(.text)
    S60AudioCaptureSession::muted()          0x0000e69d   Thumb Code    32  s60audiocapturesession.o(.text)
    S60AudioCaptureSession::qStringFromTAudioInputPreference(CAudioInput::TAudioInputPreference) const 0x0000e6bd   Thumb Code    72  s60audiocapturesession.o(.text)
    S60AudioCaptureSession::activeEndpoint() const 0x0000e705   Thumb Code    98  s60audiocapturesession.o(.text)
    S60AudioCaptureSession::defaultEndpoint() const 0x0000e767   Thumb Code    38  s60audiocapturesession.o(.text)
    S60AudioCaptureSession::availableEndpoints() const 0x0000e78d   Thumb Code    38  s60audiocapturesession.o(.text)
    S60AudioCaptureSession::endpointDescription(const QString&) const 0x0000e7b3   Thumb Code   564  s60audiocapturesession.o(.text)
    S60AudioCaptureSession::retrieveSupportedAudioSampleRatesL() 0x0000e9e7   Thumb Code   150  s60audiocapturesession.o(.text)
    S60AudioCaptureSession::determinePCMFormat() 0x0000ea7d   Thumb Code   472  s60audiocapturesession.o(.text)
    S60AudioCaptureSession::doSetAudioInputL(const QString&) 0x0000ec55   Thumb Code   310  s60audiocapturesession.o(.text)
    S60AudioCaptureSession::applyAudioSettingsL() 0x0000ed8b   Thumb Code  1112  s60audiocapturesession.o(.text)
    S60AudioCaptureSession::MoscoStateChangeEventL(CBase*, int, int, int) 0x0000f1e3   Thumb Code   302  s60audiocapturesession.o(.text)
    S60AudioCaptureSession::MoscoStateChangeEvent(CBase*, int, int, int) 0x0000f311   Thumb Code   520  s60audiocapturesession.o(.text)
    thunk{-8} to S60AudioCaptureSession::MoscoStateChangeEvent(CBase*, int, int, int) 0x0000f519   Thumb Code   172  s60audiocapturesession.o(.text)
    S60AudioCaptureSession::setActiveEndpoint(const QString&) 0x0000f5c5   Thumb Code   146  s60audiocapturesession.o(.text)
    S60AudioContainerControl::S60AudioContainerControl(QObject*) 0x0000f735   Thumb Code    66  S60audiocontainercontrol.o(.text)
    S60AudioContainerControl::S60AudioContainerControl__sub_object(QObject*) 0x0000f735   Thumb Code     0  S60audiocontainercontrol.o(.text)
    S60AudioContainerControl::S60AudioContainerControl(QObject*, QObject*) 0x0000f777   Thumb Code    94  S60audiocontainercontrol.o(.text)
    S60AudioContainerControl::S60AudioContainerControl__sub_object(QObject*, QObject*) 0x0000f777   Thumb Code     0  S60audiocontainercontrol.o(.text)
    S60AudioContainerControl::supportedContainers() const 0x0000f7d5   Thumb Code    36  S60audiocontainercontrol.o(.text)
    S60AudioContainerControl::containerMimeType() const 0x0000f7f9   Thumb Code    36  S60audiocontainercontrol.o(.text)
    S60AudioContainerControl::setContainerMimeType(const QString&) 0x0000f81d   Thumb Code    56  S60audiocontainercontrol.o(.text)
    S60AudioContainerControl::containerDescription(const QString&) const 0x0000f855   Thumb Code   296  S60audiocontainercontrol.o(.text)
    S60MediaPlayerControl::S60MediaPlayerControl(MS60MediaPlayerResolver&, QObject*) 0x0000f97d   Thumb Code   160  s60mediaplayercontrol.o(.text)
    S60MediaPlayerControl::S60MediaPlayerControl__sub_object(MS60MediaPlayerResolver&, QObject*) 0x0000f97d   Thumb Code     0  s60mediaplayercontrol.o(.text)
    S60MediaPlayerControl::~S60MediaPlayerControl() 0x0000fa1d   Thumb Code    82  s60mediaplayercontrol.o(.text)
    S60MediaPlayerControl::~S60MediaPlayerControl__sub_object() 0x0000fa1d   Thumb Code     0  s60mediaplayercontrol.o(.text)
    S60MediaPlayerControl::~S60MediaPlayerControl__deallocating() 0x0000fa6f   Thumb Code    22  s60mediaplayercontrol.o(.text)
    S60MediaPlayerControl::state() const     0x0000fa85   Thumb Code    46  s60mediaplayercontrol.o(.text)
    S60MediaPlayerControl::mediaStatus() const 0x0000fab3   Thumb Code   336  s60mediaplayercontrol.o(.text)
    S60MediaPlayerControl::duration() const  0x0000fc03   Thumb Code    28  s60mediaplayercontrol.o(.text)
    S60MediaPlayerControl::position() const  0x0000fc1f   Thumb Code    28  s60mediaplayercontrol.o(.text)
    S60MediaPlayerControl::setPosition(long long) 0x0000fc3b   Thumb Code   134  s60mediaplayercontrol.o(.text)
    S60MediaPlayerControl::volume() const    0x0000fcc1   Thumb Code    52  s60mediaplayercontrol.o(.text)
    S60MediaPlayerControl::setVolume(int)    0x0000fcf5   Thumb Code   444  s60mediaplayercontrol.o(.text)
    S60MediaPlayerControl::isMuted() const   0x0000feb1   Thumb Code    54  s60mediaplayercontrol.o(.text)
    S60MediaPlayerControl::setMuted(bool)    0x0000fee7   Thumb Code   126  s60mediaplayercontrol.o(.text)
    S60MediaPlayerControl::bufferStatus() const 0x0000ff65   Thumb Code    22  s60mediaplayercontrol.o(.text)
    S60MediaPlayerControl::isAudioAvailable() const 0x0000ff7b   Thumb Code    50  s60mediaplayercontrol.o(.text)
    S60MediaPlayerControl::isVideoAvailable() const 0x0000ffad   Thumb Code    50  s60mediaplayercontrol.o(.text)
    S60MediaPlayerControl::isSeekable() const 0x0000ffdf   Thumb Code   322  s60mediaplayercontrol.o(.text)
    S60MediaPlayerControl::availablePlaybackRanges() const 0x00010121   Thumb Code    80  s60mediaplayercontrol.o(.text)
    S60MediaPlayerControl::playbackRate() const 0x00010171   Thumb Code    34  s60mediaplayercontrol.o(.text)
    S60MediaPlayerControl::setPlaybackRate(float) 0x00010193   Thumb Code   202  s60mediaplayercontrol.o(.text)
    S60MediaPlayerControl::media() const     0x0001025d   Thumb Code   296  s60mediaplayercontrol.o(.text)
    S60MediaPlayerControl::mediaStream() const 0x00010385   Thumb Code    30  s60mediaplayercontrol.o(.text)
    S60MediaPlayerControl::setMedia(const QMediaContent&, QIODevice*) 0x000103a3   Thumb Code   358  s60mediaplayercontrol.o(.text)
    S60MediaPlayerControl::play()            0x00010509   Thumb Code    58  s60mediaplayercontrol.o(.text)
    S60MediaPlayerControl::pause()           0x00010543   Thumb Code   338  s60mediaplayercontrol.o(.text)
    S60MediaPlayerControl::stop()            0x00010695   Thumb Code    58  s60mediaplayercontrol.o(.text)
    S60MediaPlayerControl::session()         0x000106cf   Thumb Code    30  s60mediaplayercontrol.o(.text)
    S60MediaPlayerControl::setVideoOutput(QObject*) 0x000106ed   Thumb Code    70  s60mediaplayercontrol.o(.text)
    S60MediaPlayerControl::mediaControlSettings() const 0x00010733   Thumb Code    32  s60mediaplayercontrol.o(.text)
    S60MediaPlayerControl::setAudioEndpoint(const QString&) 0x00010753   Thumb Code   474  s60mediaplayercontrol.o(.text)
    S60MediaPlayerControl::setMediaType(S60MediaSettings::TMediaType) 0x0001092d   Thumb Code    80  s60mediaplayercontrol.o(.text)
    S60MediaPlayerService::S60MediaPlayerService(QObject*) 0x000109f5   Thumb Code   260  s60mediaplayerservice.o(.text)
    S60MediaPlayerService::S60MediaPlayerService__sub_object(QObject*) 0x000109f5   Thumb Code     0  s60mediaplayerservice.o(.text)
    S60MediaPlayerService::~S60MediaPlayerService() 0x00010af9   Thumb Code    62  s60mediaplayerservice.o(.text)
    S60MediaPlayerService::~S60MediaPlayerService__sub_object() 0x00010af9   Thumb Code     0  s60mediaplayerservice.o(.text)
    S60MediaPlayerService::~S60MediaPlayerService__deallocating() 0x00010b37   Thumb Code    22  s60mediaplayerservice.o(.text)
    S60MediaPlayerService::requestControl(const char*) 0x00010b4d   Thumb Code   564  s60mediaplayerservice.o(.text)
    S60MediaPlayerService::releaseControl(QMediaControl*) 0x00010d81   Thumb Code   356  s60mediaplayerservice.o(.text)
    S60MediaPlayerService::PlayerSession()   0x00010ee5   Thumb Code   270  s60mediaplayerservice.o(.text)
    thunk{-12} to S60MediaPlayerService::PlayerSession() 0x00010ff3   Thumb Code    14  s60mediaplayerservice.o(.text)
    S60MediaPlayerService::VideoPlayerSession() 0x00011001   Thumb Code  1112  s60mediaplayerservice.o(.text)
    thunk{-12} to S60MediaPlayerService::VideoPlayerSession() 0x00011459   Thumb Code    14  s60mediaplayerservice.o(.text)
    S60MediaPlayerService::AudioPlayerSession() 0x00011467   Thumb Code   464  s60mediaplayerservice.o(.text)
    thunk{-12} to S60MediaPlayerService::AudioPlayerSession() 0x00011637   Thumb Code    14  s60mediaplayerservice.o(.text)
    S60MediaPlayerSession::S60MediaPlayerSession__sub_object(QObject*) 0x000116e9   Thumb Code   252  s60mediaplayersession.o(.text)
    S60MediaPlayerSession::~S60MediaPlayerSession() 0x000117e5   Thumb Code     0  s60mediaplayersession.o(.text)
    S60MediaPlayerSession::~S60MediaPlayerSession__sub_object() 0x000117e5   Thumb Code    70  s60mediaplayersession.o(.text)
    S60MediaPlayerSession::~S60MediaPlayerSession__deallocating() 0x0001182b   Thumb Code    22  s60mediaplayersession.o(.text)
    S60MediaPlayerSession::state() const     0x00011841   Thumb Code   320  s60mediaplayersession.o(.text)
    S60MediaPlayerSession::mediaStatus() const 0x00011981   Thumb Code    38  s60mediaplayersession.o(.text)
    S60MediaPlayerSession::duration() const  0x000119a7   Thumb Code   152  s60mediaplayersession.o(.text)
    S60MediaPlayerSession::position() const  0x00011a3f   Thumb Code   198  s60mediaplayersession.o(.text)
    S60MediaPlayerSession::startProgressTimer() 0x00011b05   Thumb Code    56  s60mediaplayersession.o(.text)
    S60MediaPlayerSession::stopStalledTimer() 0x00011b3d   Thumb Code    52  s60mediaplayersession.o(.text)
    S60MediaPlayerSession::stopProgressTimer() 0x00011b71   Thumb Code   384  s60mediaplayersession.o(.text)
    S60MediaPlayerSession::setMediaStatus(QMediaPlayer::MediaStatus) 0x00011cf1   Thumb Code    86  s60mediaplayersession.o(.text)
    S60MediaPlayerSession::setState(QMediaPlayer::State) 0x00011d47   Thumb Code    66  s60mediaplayersession.o(.text)
    S60MediaPlayerSession::stop()            0x00011d89   Thumb Code   156  s60mediaplayersession.o(.text)
    S60MediaPlayerSession::fromSymbianErrorToMultimediaError(int) 0x00011e25   Thumb Code   664  s60mediaplayersession.o(.text)
    S60MediaPlayerSession::setError(int, const QString&, bool) 0x000120bd   Thumb Code   262  s60mediaplayersession.o(.text)
    S60MediaPlayerSession::setMuted(bool)    0x000121c3   Thumb Code   228  s60mediaplayersession.o(.text)
    S60MediaPlayerSession::setVolume(int)    0x000122a7   Thumb Code   562  s60mediaplayersession.o(.text)
    S60MediaPlayerSession::play()            0x000124d9   Thumb Code   188  s60mediaplayersession.o(.text)
    S60MediaPlayerSession::pause()           0x00012595   Thumb Code   148  s60mediaplayersession.o(.text)
    S60MediaPlayerSession::setPosition(long long) 0x00012629   Thumb Code   594  s60mediaplayersession.o(.text)
    S60MediaPlayerSession::volume() const    0x0001287b   Thumb Code    38  s60mediaplayersession.o(.text)
    S60MediaPlayerSession::isMuted() const   0x000128a1   Thumb Code    38  s60mediaplayersession.o(.text)
    S60MediaPlayerSession::isSeekable() const 0x000128c7   Thumb Code    44  s60mediaplayersession.o(.text)
    S60MediaPlayerSession::reset()           0x000128f3   Thumb Code   132  s60mediaplayersession.o(.text)
    S60MediaPlayerSession::isMetadataAvailable() const 0x00012977   Thumb Code   314  s60mediaplayersession.o(.text)
    S60MediaPlayerSession::metaData(const QString&) const 0x00012ab1   Thumb Code    42  s60mediaplayersession.o(.text)
    S60MediaPlayerSession::metaDataKeyAsString(QtMultimediaKit::MetaData) const 0x00012adb   Thumb Code   714  s60mediaplayersession.o(.text)
    S60MediaPlayerSession::metaData(QtMultimediaKit::MetaData) const 0x00012da5   Thumb Code    56  s60mediaplayersession.o(.text)
    S60MediaPlayerSession::availableMetaData() const 0x00012ddd   Thumb Code   168  s60mediaplayersession.o(.text)
    S60MediaPlayerSession::availableExtendedMetaData() const 0x00012e85   Thumb Code    78  s60mediaplayersession.o(.text)
    S60MediaPlayerSession::QString2TPtrC(const QString&) 0x00012ed3   Thumb Code    72  s60mediaplayersession.o(.text)
    S60MediaPlayerSession::startStalledTimer() 0x00012f1b   Thumb Code   350  s60mediaplayersession.o(.text)
    S60MediaPlayerSession::load(QUrl)        0x00013079   Thumb Code   336  s60mediaplayersession.o(.text)
    S60MediaPlayerSession::bufferStatus()    0x000131c9   Thumb Code   184  s60mediaplayersession.o(.text)
    S60MediaPlayerSession::setVideoRenderer(QObject*) 0x00013281   Thumb Code    52  s60mediaplayersession.o(.text)
    S60MediaPlayerSession::setAudioEndpoint(const QString&) 0x000132b5   Thumb Code   420  s60mediaplayersession.o(.text)
    S60MediaPlayerSession::error() const     0x00013459   Thumb Code    38  s60mediaplayersession.o(.text)
    S60MediaPlayerSession::setAndEmitError(int) 0x0001347f   Thumb Code    94  s60mediaplayersession.o(.text)
    S60MediaPlayerSession::loaded()          0x000134dd   Thumb Code   246  s60mediaplayersession.o(.text)
    S60MediaPlayerSession::buffering()       0x000135d3   Thumb Code    78  s60mediaplayersession.o(.text)
    S60MediaPlayerSession::buffered()        0x00013621   Thumb Code   364  s60mediaplayersession.o(.text)
    S60MediaPlayerSession::endOfMedia()      0x0001378d   Thumb Code    82  s60mediaplayersession.o(.text)
    S60MediaPlayerSession::metaDataEntries() 0x000137df   Thumb Code    32  s60mediaplayersession.o(.text)
    S60MediaPlayerSession::TDesC2QString(const TDesC16&) 0x000137ff   Thumb Code    60  s60mediaplayersession.o(.text)
    S60MediaPlayerSession::TRect2QRect(const TRect&) 0x0001383b   Thumb Code    96  s60mediaplayersession.o(.text)
    S60MediaPlayerSession::QRect2TRect(const QRect&) 0x0001389b   Thumb Code   104  s60mediaplayersession.o(.text)
    S60MediaPlayerSession::tick()            0x00013903   Thumb Code   390  s60mediaplayersession.o(.text)
    S60MediaPlayerSession::stalled()         0x00013a89   Thumb Code    54  s60mediaplayersession.o(.text)
    S60MediaMetaDataProvider::S60MediaMetaDataProvider(QObject*, QObject*) 0x00013b09   Thumb Code    94  s60mediametadataprovider.o(.text)
    S60MediaMetaDataProvider::S60MediaMetaDataProvider__sub_object(QObject*, QObject*) 0x00013b09   Thumb Code     0  s60mediametadataprovider.o(.text)
    S60MediaMetaDataProvider::~S60MediaMetaDataProvider() 0x00013b67   Thumb Code    58  s60mediametadataprovider.o(.text)
    S60MediaMetaDataProvider::~S60MediaMetaDataProvider__sub_object() 0x00013b67   Thumb Code     0  s60mediametadataprovider.o(.text)
    S60MediaMetaDataProvider::~S60MediaMetaDataProvider__deallocating() 0x00013ba1   Thumb Code    22  s60mediametadataprovider.o(.text)
    S60MediaMetaDataProvider::isMetaDataAvailable() const 0x00013bb7   Thumb Code   338  s60mediametadataprovider.o(.text)
    S60MediaMetaDataProvider::isWritable() const 0x00013d09   Thumb Code    28  s60mediametadataprovider.o(.text)
    S60MediaMetaDataProvider::metaData(QtMultimediaKit::MetaData) const 0x00013d25   Thumb Code    68  s60mediametadataprovider.o(.text)
    S60MediaMetaDataProvider::availableMetaData() const 0x00013d69   Thumb Code    70  s60mediametadataprovider.o(.text)
    S60MediaMetaDataProvider::extendedMetaData(const QString&) const 0x00013daf   Thumb Code    68  s60mediametadataprovider.o(.text)
    S60MediaMetaDataProvider::availableExtendedMetaData() const 0x00013df3   Thumb Code    78  s60mediametadataprovider.o(.text)
    videoRotation(float)                     0x00013f1d   Thumb Code   112  s60videoplayersession.o(.text)
    S60VideoPlayerSession::S60VideoPlayerSession(QMediaService*) 0x00013f8d   Thumb Code   270  s60videoplayersession.o(.text)
    S60VideoPlayerSession::S60VideoPlayerSession__sub_object(QMediaService*) 0x00013f8d   Thumb Code     0  s60videoplayersession.o(.text)
    S60VideoPlayerSession::~S60VideoPlayerSession() 0x0001409b   Thumb Code   140  s60videoplayersession.o(.text)
    S60VideoPlayerSession::~S60VideoPlayerSession__sub_object() 0x0001409b   Thumb Code     0  s60videoplayersession.o(.text)
    S60VideoPlayerSession::~S60VideoPlayerSession__deallocating() 0x00014127   Thumb Code    22  s60videoplayersession.o(.text)
    S60VideoPlayerSession::isVideoAvailable() 0x0001413d   Thumb Code   498  s60videoplayersession.o(.text)
    S60VideoPlayerSession::isAudioAvailable() 0x0001432f   Thumb Code   202  s60videoplayersession.o(.text)
    S60VideoPlayerSession::applyPendingChanges(bool) 0x000143f9   Thumb Code  1290  s60videoplayersession.o(.text)
    S60VideoPlayerSession::windowHandleChanged() 0x00014903   Thumb Code    68  s60videoplayersession.o(.text)
    S60VideoPlayerSession::setVideoRenderer(QObject*) 0x00014947   Thumb Code   794  s60videoplayersession.o(.text)
    S60VideoPlayerSession::MvloLoadingStarted() 0x00014c61   Thumb Code    52  s60videoplayersession.o(.text)
    thunk{-60} to S60VideoPlayerSession::MvloLoadingStarted() 0x00014c95   Thumb Code    14  s60videoplayersession.o(.text)
    S60VideoPlayerSession::MvloLoadingComplete() 0x00014ca3   Thumb Code    52  s60videoplayersession.o(.text)
    thunk{-60} to S60VideoPlayerSession::MvloLoadingComplete() 0x00014cd7   Thumb Code    14  s60videoplayersession.o(.text)
    S60VideoPlayerSession::setPlaybackRate(float) 0x00014ce5   Thumb Code   486  s60videoplayersession.o(.text)
    S60VideoPlayerSession::DefaultAudioOutputChanged(CAudioOutput&, CAudioOutput::TAudioOutputPreference) 0x00014ecb   Thumb Code    58  s60videoplayersession.o(.text)
    thunk{-64} to S60VideoPlayerSession::DefaultAudioOutputChanged(CAudioOutput&, CAudioOutput::TAudioOutputPreference) 0x00014f05   Thumb Code    22  s60videoplayersession.o(.text)
    S60VideoPlayerSession::qStringFromTAudioOutputPreference(CAudioOutput::TAudioOutputPreference) const 0x00014f1b   Thumb Code   378  s60videoplayersession.o(.text)
    S60VideoPlayerSession::activeEndpoint() const 0x00015095   Thumb Code   132  s60videoplayersession.o(.text)
    S60VideoPlayerSession::defaultEndpoint() const 0x00015119   Thumb Code   420  s60videoplayersession.o(.text)
    S60VideoPlayerSession::setActiveEndpoint(const QString&) 0x000152bd   Thumb Code   346  s60videoplayersession.o(.text)
    S60VideoPlayerSession::eventFilter(QObject*, QEvent*) 0x00015417   Thumb Code    82  s60videoplayersession.o(.text)
    S60VideoPlayerSession::doLoadL(const TDesC16&) 0x00015469   Thumb Code   100  s60videoplayersession.o(.text)
    S60VideoPlayerSession::doLoadUrlL(const TDesC16&) 0x000154cd   Thumb Code   440  s60videoplayersession.o(.text)
    S60VideoPlayerSession::doPlay()          0x00015685   Thumb Code    52  s60videoplayersession.o(.text)
    S60VideoPlayerSession::doStop()          0x000156b9   Thumb Code    52  s60videoplayersession.o(.text)
    S60VideoPlayerSession::doClose()         0x000156ed   Thumb Code   106  s60videoplayersession.o(.text)
    S60VideoPlayerSession::doPauseL()        0x00015757   Thumb Code   342  s60videoplayersession.o(.text)
    S60VideoPlayerSession::doSetVolumeL(int) 0x000158ad   Thumb Code   104  s60videoplayersession.o(.text)
    S60VideoPlayerSession::doGetPositionL() const 0x00015915   Thumb Code    34  s60videoplayersession.o(.text)
    S60VideoPlayerSession::doSetPositionL(long long) 0x00015937   Thumb Code    32  s60videoplayersession.o(.text)
    S60VideoPlayerSession::updateMetaDataEntriesL() 0x00015957   Thumb Code   282  s60videoplayersession.o(.text)
    S60VideoPlayerSession::doGetBufferStatusL() const 0x00015a71   Thumb Code    20  s60videoplayersession.o(.text)
    S60VideoPlayerSession::doGetDurationL() const 0x00015a85   Thumb Code    34  s60videoplayersession.o(.text)
    S60VideoPlayerSession::doSetAudioEndpoint(const QString&) 0x00015aa7   Thumb Code   462  s60videoplayersession.o(.text)
    S60VideoPlayerSession::getIsSeekable() const 0x00015c75   Thumb Code   286  s60videoplayersession.o(.text)
    S60VideoPlayerSession::displayRectChanged() 0x00015d93   Thumb Code    68  s60videoplayersession.o(.text)
    S60VideoPlayerSession::aspectRatioChanged() 0x00015dd7   Thumb Code   354  s60videoplayersession.o(.text)
    S60VideoPlayerSession::rotationChanged() 0x00015f39   Thumb Code    40  s60videoplayersession.o(.text)
    S60VideoPlayerSession::MvpuoOpenComplete(int) 0x00015f61   Thumb Code   252  s60videoplayersession.o(.text)
    thunk{-56} to S60VideoPlayerSession::MvpuoOpenComplete(int) 0x0001605d   Thumb Code    18  s60videoplayersession.o(.text)
    S60VideoPlayerSession::MvpuoPrepareComplete(int) 0x0001606f   Thumb Code   686  s60videoplayersession.o(.text)
    thunk{-56} to S60VideoPlayerSession::MvpuoPrepareComplete(int) 0x0001631d   Thumb Code    18  s60videoplayersession.o(.text)
    S60VideoPlayerSession::MvpuoFrameReady(CFbsBitmap&, int) 0x0001632f   Thumb Code    58  s60videoplayersession.o(.text)
    thunk{-56} to S60VideoPlayerSession::MvpuoFrameReady(CFbsBitmap&, int) 0x00016369   Thumb Code    22  s60videoplayersession.o(.text)
    S60VideoPlayerSession::MvpuoPlayComplete(int) 0x0001637f   Thumb Code   394  s60videoplayersession.o(.text)
    thunk{-56} to S60VideoPlayerSession::MvpuoPlayComplete(int) 0x00016509   Thumb Code    18  s60videoplayersession.o(.text)
    S60VideoPlayerSession::MvpuoEvent(const TMMFEvent&) 0x0001651b   Thumb Code    52  s60videoplayersession.o(.text)
    thunk{-56} to S60VideoPlayerSession::MvpuoEvent(const TMMFEvent&) 0x0001654f   Thumb Code    18  s60videoplayersession.o(.text)
    S60VideoSurface::S60VideoSurface(QObject*) 0x000165ed   Thumb Code   170  s60videosurface.o(.text)
    S60VideoSurface::S60VideoSurface__sub_object(QObject*) 0x000165ed   Thumb Code     0  s60videosurface.o(.text)
    S60VideoSurface::~S60VideoSurface()      0x00016697   Thumb Code    82  s60videosurface.o(.text)
    S60VideoSurface::~S60VideoSurface__sub_object() 0x00016697   Thumb Code     0  s60videosurface.o(.text)
    S60VideoSurface::~S60VideoSurface__deallocating() 0x000166e9   Thumb Code    22  s60videosurface.o(.text)
    S60VideoSurface::winId() const           0x000166ff   Thumb Code    30  s60videosurface.o(.text)
    S60VideoSurface::setWinId(CCoeControl*)  0x0001671d   Thumb Code   308  s60videosurface.o(.text)
    S60VideoSurface::displayRect() const     0x00016851   Thumb Code    50  s60videosurface.o(.text)
    S60VideoSurface::setDisplayRect(const QRect&) 0x00016883   Thumb Code    62  s60videosurface.o(.text)
    S60VideoSurface::brightness() const      0x000168c1   Thumb Code    28  s60videosurface.o(.text)
    S60VideoSurface::setBrightness(int)      0x000168dd   Thumb Code    80  s60videosurface.o(.text)
    S60VideoSurface::contrast() const        0x0001692d   Thumb Code   308  s60videosurface.o(.text)
    S60VideoSurface::setContrast(int)        0x00016a61   Thumb Code    80  s60videosurface.o(.text)
    S60VideoSurface::hue() const             0x00016ab1   Thumb Code    28  s60videosurface.o(.text)
    S60VideoSurface::setHue(int)             0x00016acd   Thumb Code    80  s60videosurface.o(.text)
    S60VideoSurface::saturation() const      0x00016b1d   Thumb Code    28  s60videosurface.o(.text)
    S60VideoSurface::setSaturation(int)      0x00016b39   Thumb Code   428  s60videosurface.o(.text)
    S60VideoSurface::supportedPixelFormats(QAbstractVideoBuffer::HandleType) const 0x00016ce5   Thumb Code    62  s60videosurface.o(.text)
    S60VideoSurface::isFormatSupported(const QVideoSurfaceFormat&) const 0x00016d23   Thumb Code    34  s60videosurface.o(.text)
    S60VideoSurface::start(const QVideoSurfaceFormat&) 0x00016d45   Thumb Code    34  s60videosurface.o(.text)
    S60VideoSurface::stop()                  0x00016d67   Thumb Code    46  s60videosurface.o(.text)
    S60VideoSurface::present(const QVideoFrame&) 0x00016d95   Thumb Code    34  s60videosurface.o(.text)
    S60VideoSurface::findPort()              0x00016db7   Thumb Code   290  s60videosurface.o(.text)
    S60VideoSurface::querySupportedFormats() 0x00016ed9   Thumb Code    46  s60videosurface.o(.text)
    S60VideoSurface::getAttribute(const char*, int, int) const 0x00016f07   Thumb Code    66  s60videosurface.o(.text)
    S60VideoSurface::setAttribute(const char*, int, int, int) 0x00016f49   Thumb Code    72  s60videosurface.o(.text)
    S60VideoSurface::redistribute(int, int, int, int, int) 0x00016f91   Thumb Code   384  s60videosurface.o(.text)
    S60MediaRecognizer::S60MediaRecognizer(QObject*) 0x00017111   Thumb Code   120  s60mediarecognizer.o(.text)
    S60MediaRecognizer::S60MediaRecognizer__sub_object(QObject*) 0x00017111   Thumb Code     0  s60mediarecognizer.o(.text)
    S60MediaRecognizer::~S60MediaRecognizer() 0x00017189   Thumb Code    82  s60mediarecognizer.o(.text)
    S60MediaRecognizer::~S60MediaRecognizer__sub_object() 0x00017189   Thumb Code     0  s60mediarecognizer.o(.text)
    S60MediaRecognizer::~S60MediaRecognizer__deallocating() 0x000171db   Thumb Code    22  s60mediarecognizer.o(.text)
    S60MediaRecognizer::QString2TPtrC(const QString&) 0x000171f1   Thumb Code    80  s60mediarecognizer.o(.text)
    S60MediaRecognizer::identifyMediaType(const QString&) 0x00017241   Thumb Code   652  s60mediarecognizer.o(.text)
    S60MediaRecognizer::mediaType(const QUrl&) 0x000174cd   Thumb Code   154  s60mediarecognizer.o(.text)
    S60AudioPlayerSession::S60AudioPlayerSession(QObject*) 0x000175c5   Thumb Code   192  s60audioplayersession.o(.text)
    S60AudioPlayerSession::S60AudioPlayerSession__sub_object(QObject*) 0x000175c5   Thumb Code     0  s60audioplayersession.o(.text)
    S60AudioPlayerSession::~S60AudioPlayerSession() 0x00017685   Thumb Code   140  s60audioplayersession.o(.text)
    S60AudioPlayerSession::~S60AudioPlayerSession__sub_object() 0x00017685   Thumb Code     0  s60audioplayersession.o(.text)
    S60AudioPlayerSession::~S60AudioPlayerSession__deallocating() 0x00017711   Thumb Code    22  s60audioplayersession.o(.text)
    S60AudioPlayerSession::isVideoAvailable() 0x00017727   Thumb Code   302  s60audioplayersession.o(.text)
    S60AudioPlayerSession::isAudioAvailable() 0x00017855   Thumb Code    28  s60audioplayersession.o(.text)
    S60AudioPlayerSession::MaloLoadingStarted() 0x00017871   Thumb Code    52  s60audioplayersession.o(.text)
    thunk{-60} to S60AudioPlayerSession::MaloLoadingStarted() 0x000178a5   Thumb Code    14  s60audioplayersession.o(.text)
    S60AudioPlayerSession::MaloLoadingComplete() 0x000178b3   Thumb Code    52  s60audioplayersession.o(.text)
    thunk{-60} to S60AudioPlayerSession::MaloLoadingComplete() 0x000178e7   Thumb Code    14  s60audioplayersession.o(.text)
    S60AudioPlayerSession::DefaultAudioOutputChanged(CAudioOutput&, CAudioOutput::TAudioOutputPreference) 0x000178f5   Thumb Code   404  s60audioplayersession.o(.text)
    thunk{-64} to S60AudioPlayerSession::DefaultAudioOutputChanged(CAudioOutput&, CAudioOutput::TAudioOutputPreference) 0x00017a89   Thumb Code    22  s60audioplayersession.o(.text)
    S60AudioPlayerSession::qStringFromTAudioOutputPreference(CAudioOutput::TAudioOutputPreference) const 0x00017a9f   Thumb Code   120  s60audioplayersession.o(.text)
    S60AudioPlayerSession::activeEndpoint() const 0x00017b17   Thumb Code   130  s60audioplayersession.o(.text)
    S60AudioPlayerSession::defaultEndpoint() const 0x00017b99   Thumb Code   492  s60audioplayersession.o(.text)
    S60AudioPlayerSession::setPlaybackRate(float) 0x00017d85   Thumb Code   130  s60audioplayersession.o(.text)
    S60AudioPlayerSession::setActiveEndpoint(const QString&) 0x00017e07   Thumb Code   626  s60audioplayersession.o(.text)
    S60AudioPlayerSession::doLoadL(const TDesC16&) 0x00018079   Thumb Code    96  s60audioplayersession.o(.text)
    S60AudioPlayerSession::doPlay()          0x000180d9   Thumb Code    68  s60audioplayersession.o(.text)
    S60AudioPlayerSession::doStop()          0x0001811d   Thumb Code   320  s60audioplayersession.o(.text)
    S60AudioPlayerSession::doClose()         0x0001825d   Thumb Code    92  s60audioplayersession.o(.text)
    S60AudioPlayerSession::doPauseL()        0x000182b9   Thumb Code    52  s60audioplayersession.o(.text)
    S60AudioPlayerSession::doSetVolumeL(int) 0x000182ed   Thumb Code   388  s60audioplayersession.o(.text)
    S60AudioPlayerSession::doGetPositionL() const 0x00018471   Thumb Code    56  s60audioplayersession.o(.text)
    S60AudioPlayerSession::doSetPositionL(long long) 0x000184a9   Thumb Code   140  s60audioplayersession.o(.text)
    S60AudioPlayerSession::updateMetaDataEntriesL() 0x00018535   Thumb Code   592  s60audioplayersession.o(.text)
    S60AudioPlayerSession::doGetBufferStatusL() const 0x00018785   Thumb Code    62  s60audioplayersession.o(.text)
    S60AudioPlayerSession::doGetDurationL() const 0x000187c3   Thumb Code    38  s60audioplayersession.o(.text)
    S60AudioPlayerSession::doSetAudioEndpoint(const QString&) 0x000187e9   Thumb Code    86  s60audioplayersession.o(.text)
    S60AudioPlayerSession::getIsSeekable() const 0x0001883f   Thumb Code   314  s60audioplayersession.o(.text)
    S60AudioPlayerSession::MapcInitComplete(int, const TTimeIntervalMicroSeconds&) 0x00018979   Thumb Code   236  s60audioplayersession.o(.text)
    thunk{-56} to S60AudioPlayerSession::MapcInitComplete(int, const TTimeIntervalMicroSeconds&) 0x00018a65   Thumb Code    22  s60audioplayersession.o(.text)
    S60AudioPlayerSession::MapcPlayComplete(int) 0x00018a7b   Thumb Code   406  s60audioplayersession.o(.text)
    thunk{-56} to S60AudioPlayerSession::MapcPlayComplete(int) 0x00018c11   Thumb Code    18  s60audioplayersession.o(.text)
    S60MediaPlayerAudioEndpointSelector::S60MediaPlayerAudioEndpointSelector(QObject*, QObject*) 0x00018c25   Thumb Code   256  s60mediaplayeraudioendpointselector.o(.text)
    S60MediaPlayerAudioEndpointSelector::S60MediaPlayerAudioEndpointSelector__sub_object(QObject*, QObject*) 0x00018c25   Thumb Code     0  s60mediaplayeraudioendpointselector.o(.text)
    S60MediaPlayerAudioEndpointSelector::~S60MediaPlayerAudioEndpointSelector() 0x00018d25   Thumb Code    86  s60mediaplayeraudioendpointselector.o(.text)
    S60MediaPlayerAudioEndpointSelector::~S60MediaPlayerAudioEndpointSelector__sub_object() 0x00018d25   Thumb Code     0  s60mediaplayeraudioendpointselector.o(.text)
    S60MediaPlayerAudioEndpointSelector::~S60MediaPlayerAudioEndpointSelector__deallocating() 0x00018d7b   Thumb Code    22  s60mediaplayeraudioendpointselector.o(.text)
    S60MediaPlayerAudioEndpointSelector::availableEndpoints() const 0x00018d91   Thumb Code    60  s60mediaplayeraudioendpointselector.o(.text)
    S60MediaPlayerAudioEndpointSelector::endpointDescription(const QString&) const 0x00018dcd   Thumb Code   262  s60mediaplayeraudioendpointselector.o(.text)
    S60MediaPlayerAudioEndpointSelector::defaultEndpoint() const 0x00018ed3   Thumb Code   480  s60mediaplayeraudioendpointselector.o(.text)
    S60MediaPlayerAudioEndpointSelector::activeEndpoint() const 0x000190b3   Thumb Code   184  s60mediaplayeraudioendpointselector.o(.text)
    S60MediaPlayerAudioEndpointSelector::setActiveEndpoint(const QString&) 0x0001916b   Thumb Code   678  s60mediaplayeraudioendpointselector.o(.text)
    S60MediaStreamControl::S60MediaStreamControl(QObject*, QObject*) 0x00019411   Thumb Code   108  s60mediastreamcontrol.o(.text)
    S60MediaStreamControl::S60MediaStreamControl__sub_object(QObject*, QObject*) 0x00019411   Thumb Code     0  s60mediastreamcontrol.o(.text)
    S60MediaStreamControl::~S60MediaStreamControl() 0x0001947d   Thumb Code    58  s60mediastreamcontrol.o(.text)
    S60MediaStreamControl::~S60MediaStreamControl__sub_object() 0x0001947d   Thumb Code     0  s60mediastreamcontrol.o(.text)
    S60MediaStreamControl::~S60MediaStreamControl__deallocating() 0x000194b7   Thumb Code    22  s60mediastreamcontrol.o(.text)
    S60MediaStreamControl::streamCount()     0x000194cd   Thumb Code    92  s60mediastreamcontrol.o(.text)
    S60MediaStreamControl::streamType(int)   0x00019529   Thumb Code   444  s60mediastreamcontrol.o(.text)
    S60MediaStreamControl::metaData(int, QtMultimediaKit::MetaData) 0x000196e5   Thumb Code   126  s60mediastreamcontrol.o(.text)
    S60MediaStreamControl::isActive(int)     0x00019763   Thumb Code   156  s60mediastreamcontrol.o(.text)
    S60MediaStreamControl::setActive(int, bool) 0x000197ff   Thumb Code   384  s60mediastreamcontrol.o(.text)
    S60MediaStreamControl::handleStreamsChanged() 0x0001997f   Thumb Code    52  s60mediastreamcontrol.o(.text)
    S60RadioTunerControl::initRadio()        0x00019a45   Thumb Code   208  s60radiotunercontrol_since32.o(.text)
    S60RadioTunerControl::S60RadioTunerControl(QObject*) 0x00019b15   Thumb Code   616  s60radiotunercontrol_since32.o(.text)
    S60RadioTunerControl::S60RadioTunerControl__sub_object(QObject*) 0x00019b15   Thumb Code     0  s60radiotunercontrol_since32.o(.text)
    S60RadioTunerControl::~S60RadioTunerControl() 0x00019d7d   Thumb Code   118  s60radiotunercontrol_since32.o(.text)
    S60RadioTunerControl::~S60RadioTunerControl__sub_object() 0x00019d7d   Thumb Code     0  s60radiotunercontrol_since32.o(.text)
    S60RadioTunerControl::~S60RadioTunerControl__deallocating() 0x00019df3   Thumb Code    22  s60radiotunercontrol_since32.o(.text)
    S60RadioTunerControl::state() const      0x00019e09   Thumb Code    30  s60radiotunercontrol_since32.o(.text)
    S60RadioTunerControl::band() const       0x00019e27   Thumb Code    30  s60radiotunercontrol_since32.o(.text)
    S60RadioTunerControl::setBand(QRadioTuner::Band) 0x00019e45   Thumb Code   694  s60radiotunercontrol_since32.o(.text)
    S60RadioTunerControl::isBandSupported(QRadioTuner::Band) const 0x0001a0fb   Thumb Code    70  s60radiotunercontrol_since32.o(.text)
    S60RadioTunerControl::frequency() const  0x0001a141   Thumb Code    30  s60radiotunercontrol_since32.o(.text)
    S60RadioTunerControl::frequencyStep(QRadioTuner::Band) const 0x0001a15f   Thumb Code   426  s60radiotunercontrol_since32.o(.text)
    S60RadioTunerControl::frequencyRange(QRadioTuner::Band) const 0x0001a309   Thumb Code   120  s60radiotunercontrol_since32.o(.text)
    S60RadioTunerControl::setFrequency(int)  0x0001a381   Thumb Code    92  s60radiotunercontrol_since32.o(.text)
    S60RadioTunerControl::isStereo() const   0x0001a3dd   Thumb Code    32  s60radiotunercontrol_since32.o(.text)
    S60RadioTunerControl::stereoMode() const 0x0001a3fd   Thumb Code   316  s60radiotunercontrol_since32.o(.text)
    S60RadioTunerControl::setStereoMode(QRadioTuner::StereoMode) 0x0001a539   Thumb Code    96  s60radiotunercontrol_since32.o(.text)
    S60RadioTunerControl::signalStrength() const 0x0001a599   Thumb Code   174  s60radiotunercontrol_since32.o(.text)
    S60RadioTunerControl::volume() const     0x0001a647   Thumb Code   286  s60radiotunercontrol_since32.o(.text)
    S60RadioTunerControl::setVolume(int)     0x0001a765   Thumb Code   210  s60radiotunercontrol_since32.o(.text)
    S60RadioTunerControl::isMuted() const    0x0001a837   Thumb Code    32  s60radiotunercontrol_since32.o(.text)
    S60RadioTunerControl::setMuted(bool)     0x0001a857   Thumb Code   358  s60radiotunercontrol_since32.o(.text)
    S60RadioTunerControl::isSearching() const 0x0001a9bd   Thumb Code    32  s60radiotunercontrol_since32.o(.text)
    S60RadioTunerControl::searchForward()    0x0001a9dd   Thumb Code    68  s60radiotunercontrol_since32.o(.text)
    S60RadioTunerControl::searchBackward()   0x0001aa21   Thumb Code    68  s60radiotunercontrol_since32.o(.text)
    S60RadioTunerControl::cancelSearch()     0x0001aa65   Thumb Code   348  s60radiotunercontrol_since32.o(.text)
    S60RadioTunerControl::isValid() const    0x0001abc1   Thumb Code    32  s60radiotunercontrol_since32.o(.text)
    S60RadioTunerControl::isAvailable() const 0x0001abe1   Thumb Code    32  s60radiotunercontrol_since32.o(.text)
    S60RadioTunerControl::availabilityError() const 0x0001ac01   Thumb Code    40  s60radiotunercontrol_since32.o(.text)
    S60RadioTunerControl::start()            0x0001ac29   Thumb Code    76  s60radiotunercontrol_since32.o(.text)
    S60RadioTunerControl::stop()             0x0001ac75   Thumb Code    64  s60radiotunercontrol_since32.o(.text)
    S60RadioTunerControl::error() const      0x0001acb5   Thumb Code   308  s60radiotunercontrol_since32.o(.text)
    S60RadioTunerControl::errorString() const 0x0001ade9   Thumb Code    76  s60radiotunercontrol_since32.o(.text)
    S60RadioTunerControl::MrpoStateChange(TPlayerState, int) 0x0001ae35   Thumb Code   108  s60radiotunercontrol_since32.o(.text)
    thunk{-12} to S60RadioTunerControl::MrpoStateChange(TPlayerState, int) 0x0001aea1   Thumb Code    22  s60radiotunercontrol_since32.o(.text)
    S60RadioTunerControl::MrpoVolumeChange(int) 0x0001aeb7   Thumb Code   398  s60radiotunercontrol_since32.o(.text)
    thunk{-12} to S60RadioTunerControl::MrpoVolumeChange(int) 0x0001b045   Thumb Code    18  s60radiotunercontrol_since32.o(.text)
    S60RadioTunerControl::MrpoMuteChange(int) 0x0001b057   Thumb Code    98  s60radiotunercontrol_since32.o(.text)
    thunk{-12} to S60RadioTunerControl::MrpoMuteChange(int) 0x0001b0b9   Thumb Code    18  s60radiotunercontrol_since32.o(.text)
    S60RadioTunerControl::MrpoBalanceChange(int, int) 0x0001b0cb   Thumb Code    50  s60radiotunercontrol_since32.o(.text)
    thunk{-12} to S60RadioTunerControl::MrpoBalanceChange(int, int) 0x0001b0fd   Thumb Code    22  s60radiotunercontrol_since32.o(.text)
    S60RadioTunerControl::MrftoRequestTunerControlComplete(int) 0x0001b113   Thumb Code   774  s60radiotunercontrol_since32.o(.text)
    thunk{-16} to S60RadioTunerControl::MrftoRequestTunerControlComplete(int) 0x0001b419   Thumb Code    18  s60radiotunercontrol_since32.o(.text)
    S60RadioTunerControl::MrftoSetFrequencyRangeComplete(int) 0x0001b42b   Thumb Code   526  s60radiotunercontrol_since32.o(.text)
    thunk{-16} to S60RadioTunerControl::MrftoSetFrequencyRangeComplete(int) 0x0001b639   Thumb Code    18  s60radiotunercontrol_since32.o(.text)
    S60RadioTunerControl::MrftoSetFrequencyComplete(int) 0x0001b64b   Thumb Code   150  s60radiotunercontrol_since32.o(.text)
    thunk{-16} to S60RadioTunerControl::MrftoSetFrequencyComplete(int) 0x0001b6e1   Thumb Code    18  s60radiotunercontrol_since32.o(.text)
    S60RadioTunerControl::MrftoStationSeekComplete(int, int) 0x0001b6f3   Thumb Code   516  s60radiotunercontrol_since32.o(.text)
    thunk{-16} to S60RadioTunerControl::MrftoStationSeekComplete(int, int) 0x0001b8f7   Thumb Code    22  s60radiotunercontrol_since32.o(.text)
    S60RadioTunerControl::MrftoFmTransmitterStatusChange(int) 0x0001b90d   Thumb Code    48  s60radiotunercontrol_since32.o(.text)
    thunk{-16} to S60RadioTunerControl::MrftoFmTransmitterStatusChange(int) 0x0001b93d   Thumb Code    18  s60radiotunercontrol_since32.o(.text)
    S60RadioTunerControl::MrftoAntennaStatusChange(int) 0x0001b94f   Thumb Code   446  s60radiotunercontrol_since32.o(.text)
    thunk{-16} to S60RadioTunerControl::MrftoAntennaStatusChange(int) 0x0001bb0d   Thumb Code    18  s60radiotunercontrol_since32.o(.text)
    S60RadioTunerControl::MrftoOfflineModeStatusChange(int) 0x0001bb1f   Thumb Code    48  s60radiotunercontrol_since32.o(.text)
    thunk{-16} to S60RadioTunerControl::MrftoOfflineModeStatusChange(int) 0x0001bb4f   Thumb Code    18  s60radiotunercontrol_since32.o(.text)
    S60RadioTunerControl::MrftoFrequencyRangeChange(TFmRadioFrequencyRange) 0x0001bb61   Thumb Code    62  s60radiotunercontrol_since32.o(.text)
    thunk{-16} to S60RadioTunerControl::MrftoFrequencyRangeChange(TFmRadioFrequencyRange) 0x0001bb9f   Thumb Code    18  s60radiotunercontrol_since32.o(.text)
    S60RadioTunerControl::MrftoFrequencyChange(int) 0x0001bbb1   Thumb Code   492  s60radiotunercontrol_since32.o(.text)
    thunk{-16} to S60RadioTunerControl::MrftoFrequencyChange(int) 0x0001bd9d   Thumb Code    18  s60radiotunercontrol_since32.o(.text)
    S60RadioTunerControl::MrftoForcedMonoChange(int) 0x0001bdaf   Thumb Code   108  s60radiotunercontrol_since32.o(.text)
    thunk{-16} to S60RadioTunerControl::MrftoForcedMonoChange(int) 0x0001be1b   Thumb Code    18  s60radiotunercontrol_since32.o(.text)
    S60RadioTunerControl::MrftoSquelchChange(int) 0x0001be2d   Thumb Code    56  s60radiotunercontrol_since32.o(.text)
    thunk{-16} to S60RadioTunerControl::MrftoSquelchChange(int) 0x0001be65   Thumb Code    18  s60radiotunercontrol_since32.o(.text)
    S60RadioTunerControl::changeSignalStrength() 0x0001be77   Thumb Code    32  s60radiotunercontrol_since32.o(.text)
    S60RadioTunerService::S60RadioTunerService(QObject*) 0x0001bf95   Thumb Code    88  s60radiotunerservice.o(.text)
    S60RadioTunerService::S60RadioTunerService__sub_object(QObject*) 0x0001bf95   Thumb Code     0  s60radiotunerservice.o(.text)
    S60RadioTunerService::~S60RadioTunerService() 0x0001bfed   Thumb Code    74  s60radiotunerservice.o(.text)
    S60RadioTunerService::~S60RadioTunerService__sub_object() 0x0001bfed   Thumb Code     0  s60radiotunerservice.o(.text)
    S60RadioTunerService::~S60RadioTunerService__deallocating() 0x0001c037   Thumb Code    22  s60radiotunerservice.o(.text)
    S60RadioTunerService::requestControl(const char*) 0x0001c04d   Thumb Code   320  s60radiotunerservice.o(.text)
    S60RadioTunerService::releaseControl(QMediaControl*) 0x0001c18d   Thumb Code    52  s60radiotunerservice.o(.text)
    S60VideoDisplay::S60VideoDisplay__sub_object(QObject*) 0x0001c219   Thumb Code   104  s60videodisplay.o(.text)
    S60VideoDisplay::~S60VideoDisplay()      0x0001c281   Thumb Code     0  s60videodisplay.o(.text)
    S60VideoDisplay::~S60VideoDisplay__sub_object() 0x0001c281   Thumb Code    14  s60videodisplay.o(.text)
    S60VideoDisplay::~S60VideoDisplay__deallocating() 0x0001c28f   Thumb Code    22  s60videodisplay.o(.text)
    S60VideoDisplay::windowHandle() const    0x0001c2a5   Thumb Code    36  s60videodisplay.o(.text)
    S60VideoDisplay::clipRect() const        0x0001c2c9   Thumb Code   114  s60videodisplay.o(.text)
    S60VideoDisplay::contentRect() const     0x0001c33b   Thumb Code    16  s60videodisplay.o(.text)
    S60VideoDisplay::setFullScreen(bool)     0x0001c34b   Thumb Code    24  s60videodisplay.o(.text)
    S60VideoDisplay::isFullScreen() const    0x0001c363   Thumb Code     6  s60videodisplay.o(.text)
    S60VideoDisplay::setVisible(bool)        0x0001c369   Thumb Code    24  s60videodisplay.o(.text)
    S60VideoDisplay::isVisible() const       0x0001c381   Thumb Code     6  s60videodisplay.o(.text)
    S60VideoDisplay::setAspectRatioMode(Qt::AspectRatioMode) 0x0001c387   Thumb Code    24  s60videodisplay.o(.text)
    S60VideoDisplay::aspectRatioMode() const 0x0001c39f   Thumb Code     6  s60videodisplay.o(.text)
    S60VideoDisplay::nativeSize() const      0x0001c3a5   Thumb Code     8  s60videodisplay.o(.text)
    S60VideoDisplay::setPaintingEnabled(bool) 0x0001c3ad   Thumb Code    28  s60videodisplay.o(.text)
    S60VideoDisplay::isPaintingEnabled() const 0x0001c3c9   Thumb Code     8  s60videodisplay.o(.text)
    S60VideoDisplay::setRotation(float)      0x0001c3d1   Thumb Code    28  s60videodisplay.o(.text)
    S60VideoDisplay::rotation() const        0x0001c3ed   Thumb Code     6  s60videodisplay.o(.text)
    S60VideoDisplay::setNativeSize(const QSize&) 0x0001c3f3   Thumb Code    54  s60videodisplay.o(.text)
    S60VideoDisplay::updateContentRect()     0x0001c429   Thumb Code   274  s60videodisplay.o(.text)
    S60VideoOutputUtils::setIgnoreFocusChanged(QWidget*) 0x0001c599   Thumb Code    30  s60videooutpututils.o(.text)
    S60VideoOutputUtils::setNativePaintMode(QWidget*, S60VideoOutputUtils::NativePaintMode) 0x0001c5b7   Thumb Code    60  s60videooutpututils.o(.text)
    S60VideoOutputUtils::setNativePaintMode(CCoeControl*, S60VideoOutputUtils::NativePaintMode) 0x0001c5f3   Thumb Code    28  s60videooutpututils.o(.text)
    S60VideoOutputUtils::setReceiveNativePaintEvents(QWidget*, bool) 0x0001c60f   Thumb Code    50  s60videooutpututils.o(.text)
    S60VideoWidget::S60VideoWidget(QWidget*) 0x0001c641   Thumb Code   176  s60videowidget.o(.text)
    S60VideoWidget::S60VideoWidget__sub_object(QWidget*) 0x0001c641   Thumb Code     0  s60videowidget.o(.text)
    S60VideoWidget::~S60VideoWidget()        0x0001c6f1   Thumb Code    14  s60videowidget.o(.text)
    S60VideoWidget::~S60VideoWidget__sub_object() 0x0001c6f1   Thumb Code     0  s60videowidget.o(.text)
    S60VideoWidget::~S60VideoWidget__deallocating() 0x0001c6ff   Thumb Code    22  s60videowidget.o(.text)
    thunk{-8} to S60VideoWidget::~S60VideoWidget__deallocating() 0x0001c715   Thumb Code    14  s60videowidget.o(.text)
    thunk{-8} to S60VideoWidget::~S60VideoWidget() 0x0001c723   Thumb Code    14  s60videowidget.o(.text)
    S60VideoWidget::queueReactivateWindow()  0x0001c731   Thumb Code   206  s60videowidget.o(.text)
    S60VideoWidget::updateOrdinalPosition()  0x0001c7ff   Thumb Code    70  s60videowidget.o(.text)
    S60VideoWidget::event(QEvent*)           0x0001c845   Thumb Code    30  s60videowidget.o(.text)
    S60VideoWidget::paintEvent(QPaintEvent*) 0x0001c863   Thumb Code   238  s60videowidget.o(.text)
    S60VideoWidget::setVisible(bool)         0x0001c951   Thumb Code    22  s60videowidget.o(.text)
    S60VideoWidget::videoWinId() const       0x0001c967   Thumb Code    66  s60videowidget.o(.text)
    S60VideoWidget::setPixmap(const QPixmap*) 0x0001c9a9   Thumb Code    16  s60videowidget.o(.text)
    S60VideoWidget::setWindowBackgroundColor() 0x0001c9b9   Thumb Code    58  s60videowidget.o(.text)
    S60VideoWidget::setTopWinId(CCoeControl*) 0x0001c9f3   Thumb Code   278  s60videowidget.o(.text)
    S60VideoWidget::topWinId() const         0x0001cb09   Thumb Code     6  s60videowidget.o(.text)
    S60VideoWidget::setOrdinalPosition(int)  0x0001cb0f   Thumb Code    16  s60videowidget.o(.text)
    S60VideoWidget::ordinalPosition() const  0x0001cb1f   Thumb Code     6  s60videowidget.o(.text)
    S60VideoWidget::beginNativePaintEvent(const QRect&) 0x0001cb25   Thumb Code    18  s60videowidget.o(.text)
    S60VideoWidget::endNativePaintEvent(const QRect&) 0x0001cb37   Thumb Code    34  s60videowidget.o(.text)
    S60VideoWidget::setPaintingEnabled(bool) 0x0001cb59   Thumb Code    28  s60videowidget.o(.text)
    S60VideoWidget::setFullScreen(bool)      0x0001cb75   Thumb Code    26  s60videowidget.o(.text)
    S60VideoWidget::setContentRect(const QRect&) 0x0001cb8f   Thumb Code    68  s60videowidget.o(.text)
    S60VideoWidget::reactivateWindow(QWidget*) 0x0001cbd3   Thumb Code    14  s60videowidget.o(.text)
    S60VideoWidget::setWindowsNonFading()    0x0001cbe1   Thumb Code    46  s60videowidget.o(.text)
    S60VideoWidgetControl::S60VideoWidgetControl(QObject*) 0x0001cc25   Thumb Code    72  s60videowidgetcontrol.o(.text)
    S60VideoWidgetControl::S60VideoWidgetControl__sub_object(QObject*) 0x0001cc25   Thumb Code     0  s60videowidgetcontrol.o(.text)
    S60VideoWidgetControl::~S60VideoWidgetControl() 0x0001cc6d   Thumb Code    14  s60videowidgetcontrol.o(.text)
    S60VideoWidgetControl::~S60VideoWidgetControl__sub_object() 0x0001cc6d   Thumb Code     0  s60videowidgetcontrol.o(.text)
    S60VideoWidgetControl::~S60VideoWidgetControl__deallocating() 0x0001cc7b   Thumb Code    22  s60videowidgetcontrol.o(.text)
    S60VideoWidgetControl::videoWidget()     0x0001cc91   Thumb Code    12  s60videowidgetcontrol.o(.text)
    S60VideoWidgetControl::aspectRatioMode() const 0x0001cc9d   Thumb Code    12  s60videowidgetcontrol.o(.text)
    S60VideoWidgetControl::setAspectRatioMode(Qt::AspectRatioMode) 0x0001cca9   Thumb Code    16  s60videowidgetcontrol.o(.text)
    S60VideoWidgetControl::isFullScreen() const 0x0001ccb9   Thumb Code    12  s60videowidgetcontrol.o(.text)
    S60VideoWidgetControl::setFullScreen(bool) 0x0001ccc5   Thumb Code    16  s60videowidgetcontrol.o(.text)
    S60VideoWidgetControl::brightness() const 0x0001ccd5   Thumb Code     6  s60videowidgetcontrol.o(.text)
    S60VideoWidgetControl::setBrightness(int) 0x0001ccdb   Thumb Code     6  s60videowidgetcontrol.o(.text)
    S60VideoWidgetControl::contrast() const  0x0001cce1   Thumb Code     6  s60videowidgetcontrol.o(.text)
    S60VideoWidgetControl::setContrast(int)  0x0001cce7   Thumb Code     6  s60videowidgetcontrol.o(.text)
    S60VideoWidgetControl::hue() const       0x0001cced   Thumb Code     6  s60videowidgetcontrol.o(.text)
    S60VideoWidgetControl::setHue(int)       0x0001ccf3   Thumb Code     6  s60videowidgetcontrol.o(.text)
    S60VideoWidgetControl::saturation() const 0x0001ccf9   Thumb Code     6  s60videowidgetcontrol.o(.text)
    S60VideoWidgetControl::setSaturation(int) 0x0001ccff   Thumb Code     6  s60videowidgetcontrol.o(.text)
    S60VideoWidgetControl::display() const   0x0001cd05   Thumb Code     6  s60videowidgetcontrol.o(.text)
    S60VideoWidgetControl::topWinId() const  0x0001cd0b   Thumb Code    12  s60videowidgetcontrol.o(.text)
    S60VideoWidgetControl::setTopWinId(CCoeControl*) 0x0001cd17   Thumb Code    16  s60videowidgetcontrol.o(.text)
    S60VideoWidgetControl::ordinalPosition() const 0x0001cd27   Thumb Code    12  s60videowidgetcontrol.o(.text)
    S60VideoWidgetControl::setOrdinalPosition(int) 0x0001cd33   Thumb Code    16  s60videowidgetcontrol.o(.text)
    S60VideoWidgetControl::extentRect() const 0x0001cd43   Thumb Code    12  s60videowidgetcontrol.o(.text)
    S60VideoWidgetControl::setExtentRect(const QRect&) 0x0001cd4f   Thumb Code    16  s60videowidgetcontrol.o(.text)
    S60VideoWidgetControl::nativeSize() const 0x0001cd5f   Thumb Code    18  s60videowidgetcontrol.o(.text)
    S60VideoWidgetControl::rotation() const  0x0001cd71   Thumb Code    12  s60videowidgetcontrol.o(.text)
    S60VideoWidgetControl::setRotation(float) 0x0001cd7d   Thumb Code    16  s60videowidgetcontrol.o(.text)
    S60VideoWidgetDisplay::S60VideoWidgetDisplay(QObject*) 0x0001cdc5   Thumb Code   150  s60videowidgetdisplay.o(.text)
    S60VideoWidgetDisplay::S60VideoWidgetDisplay__sub_object(QObject*) 0x0001cdc5   Thumb Code     0  s60videowidgetdisplay.o(.text)
    S60VideoWidgetDisplay::~S60VideoWidgetDisplay() 0x0001ce5b   Thumb Code    62  s60videowidgetdisplay.o(.text)
    S60VideoWidgetDisplay::~S60VideoWidgetDisplay__sub_object() 0x0001ce5b   Thumb Code     0  s60videowidgetdisplay.o(.text)
    S60VideoWidgetDisplay::~S60VideoWidgetDisplay__deallocating() 0x0001ce99   Thumb Code    22  s60videowidgetdisplay.o(.text)
    S60VideoWidgetDisplay::eventFilter(QObject*, QEvent*) 0x0001ceaf   Thumb Code   208  s60videowidgetdisplay.o(.text)
    S60VideoWidgetDisplay::winId() const     0x0001cf7f   Thumb Code    22  s60videowidgetdisplay.o(.text)
    S60VideoWidgetDisplay::extentRect() const 0x0001cf95   Thumb Code   150  s60videowidgetdisplay.o(.text)
    S60VideoWidgetDisplay::setFrame(const CFbsBitmap&) 0x0001d02b   Thumb Code    42  s60videowidgetdisplay.o(.text)
    S60VideoWidgetDisplay::widget() const    0x0001d055   Thumb Code     6  s60videowidgetdisplay.o(.text)
    S60VideoWidgetDisplay::topWinId() const  0x0001d05b   Thumb Code    12  s60videowidgetdisplay.o(.text)
    S60VideoWidgetDisplay::setTopWinId(CCoeControl*) 0x0001d067   Thumb Code    16  s60videowidgetdisplay.o(.text)
    S60VideoWidgetDisplay::setOrdinalPosition(int) 0x0001d077   Thumb Code    16  s60videowidgetdisplay.o(.text)
    S60VideoWidgetDisplay::ordinalPosition() const 0x0001d087   Thumb Code    12  s60videowidgetdisplay.o(.text)
    S60VideoWidgetDisplay::explicitExtentRect() const 0x0001d093   Thumb Code     8  s60videowidgetdisplay.o(.text)
    S60VideoWidgetDisplay::setExplicitExtentRect(const QRect&) 0x0001d09b   Thumb Code   106  s60videowidgetdisplay.o(.text)
    S60VideoWindowControl::S60VideoWindowControl(QObject*) 0x0001d1d5   Thumb Code    90  s60videowindowcontrol.o(.text)
    S60VideoWindowControl::S60VideoWindowControl__sub_object(QObject*) 0x0001d1d5   Thumb Code     0  s60videowindowcontrol.o(.text)
    S60VideoWindowControl::~S60VideoWindowControl() 0x0001d22f   Thumb Code    14  s60videowindowcontrol.o(.text)
    S60VideoWindowControl::~S60VideoWindowControl__sub_object() 0x0001d22f   Thumb Code     0  s60videowindowcontrol.o(.text)
    S60VideoWindowControl::~S60VideoWindowControl__deallocating() 0x0001d23d   Thumb Code    22  s60videowindowcontrol.o(.text)
    S60VideoWindowControl::winId() const     0x0001d253   Thumb Code    16  s60videowindowcontrol.o(.text)
    S60VideoWindowControl::setWinId(CCoeControl*) 0x0001d263   Thumb Code    16  s60videowindowcontrol.o(.text)
    S60VideoWindowControl::displayRect() const 0x0001d273   Thumb Code    16  s60videowindowcontrol.o(.text)
    S60VideoWindowControl::setDisplayRect(const QRect&) 0x0001d283   Thumb Code    16  s60videowindowcontrol.o(.text)
    S60VideoWindowControl::isFullScreen() const 0x0001d293   Thumb Code    12  s60videowindowcontrol.o(.text)
    S60VideoWindowControl::setFullScreen(bool) 0x0001d29f   Thumb Code    16  s60videowindowcontrol.o(.text)
    S60VideoWindowControl::repaint()         0x0001d2af   Thumb Code    12  s60videowindowcontrol.o(.text)
    S60VideoWindowControl::nativeSize() const 0x0001d2bb   Thumb Code    18  s60videowindowcontrol.o(.text)
    S60VideoWindowControl::aspectRatioMode() const 0x0001d2cd   Thumb Code    12  s60videowindowcontrol.o(.text)
    S60VideoWindowControl::setAspectRatioMode(Qt::AspectRatioMode) 0x0001d2d9   Thumb Code    16  s60videowindowcontrol.o(.text)
    S60VideoWindowControl::customAspectRatio() const 0x0001d2e9   Thumb Code    22  s60videowindowcontrol.o(.text)
    S60VideoWindowControl::setCustomAspectRatio(const QSize&) 0x0001d2ff   Thumb Code     6  s60videowindowcontrol.o(.text)
    S60VideoWindowControl::brightness() const 0x0001d305   Thumb Code     6  s60videowindowcontrol.o(.text)
    S60VideoWindowControl::setBrightness(int) 0x0001d30b   Thumb Code     6  s60videowindowcontrol.o(.text)
    S60VideoWindowControl::contrast() const  0x0001d311   Thumb Code     6  s60videowindowcontrol.o(.text)
    S60VideoWindowControl::setContrast(int)  0x0001d317   Thumb Code     6  s60videowindowcontrol.o(.text)
    S60VideoWindowControl::hue() const       0x0001d31d   Thumb Code     6  s60videowindowcontrol.o(.text)
    S60VideoWindowControl::setHue(int)       0x0001d323   Thumb Code     6  s60videowindowcontrol.o(.text)
    S60VideoWindowControl::saturation() const 0x0001d329   Thumb Code     6  s60videowindowcontrol.o(.text)
    S60VideoWindowControl::setSaturation(int) 0x0001d32f   Thumb Code     6  s60videowindowcontrol.o(.text)
    S60VideoWindowControl::display() const   0x0001d335   Thumb Code     6  s60videowindowcontrol.o(.text)
    S60VideoWindowControl::rotation() const  0x0001d33b   Thumb Code    12  s60videowindowcontrol.o(.text)
    S60VideoWindowControl::setRotation(float) 0x0001d347   Thumb Code    16  s60videowindowcontrol.o(.text)
    S60VideoWindowControl::refreshDisplay()  0x0001d357   Thumb Code    12  s60videowindowcontrol.o(.text)
    S60VideoWindowDisplay::S60VideoWindowDisplay(QObject*) 0x0001d3b9   Thumb Code    80  s60videowindowdisplay.o(.text)
    S60VideoWindowDisplay::S60VideoWindowDisplay__sub_object(QObject*) 0x0001d3b9   Thumb Code     0  s60videowindowdisplay.o(.text)
    S60VideoWindowDisplay::~S60VideoWindowDisplay() 0x0001d409   Thumb Code    14  s60videowindowdisplay.o(.text)
    S60VideoWindowDisplay::~S60VideoWindowDisplay__sub_object() 0x0001d409   Thumb Code     0  s60videowindowdisplay.o(.text)
    S60VideoWindowDisplay::~S60VideoWindowDisplay__deallocating() 0x0001d417   Thumb Code    22  s60videowindowdisplay.o(.text)
    S60VideoWindowDisplay::winId() const     0x0001d42d   Thumb Code     6  s60videowindowdisplay.o(.text)
    S60VideoWindowDisplay::displayRect() const 0x0001d433   Thumb Code    16  s60videowindowdisplay.o(.text)
    S60VideoWindowDisplay::extentRect() const 0x0001d443   Thumb Code    24  s60videowindowdisplay.o(.text)
    S60VideoWindowDisplay::setFrame(const CFbsBitmap&) 0x0001d45b   Thumb Code   196  s60videowindowdisplay.o(.text)
    S60VideoWindowDisplay::setWinId(CCoeControl*) 0x0001d51f   Thumb Code    76  s60videowindowdisplay.o(.text)
    S60VideoWindowDisplay::setDisplayRect(const QRect&) 0x0001d56b   Thumb Code   232  s60videowindowdisplay.o(.text)
    S60VideoWindowDisplay::repaint()         0x0001d653   Thumb Code     2  s60videowindowdisplay.o(.text)
    S60VideoWindowDisplay::refreshDisplay()  0x0001d655   Thumb Code    50  s60videowindowdisplay.o(.text)
    __ARM_switch8                            0x0001d698   ARM Code      24  switch8.o(.text)
    __rt_switch8                             0x0001d698   ARM Code       0  switch8.o(.text)
    _E32Dll_Body                             0x0001d6b0   ARM Code      76  uc_dll.o(.text)
    __aeabi_atexit                           0x0001d700   ARM Code      40  ucppfini.o(.text)
    __cxa_atexit                             0x0001d728   ARM Code      64  ucppfini.o(.text)
    __cxa_finalize                           0x0001d768   ARM Code      48  ucppfini.o(.text)
    run_static_dtors                         0x0001d798   ARM Code      16  ucppfini.o(.text)
    __DLL_Export_Table__                     0x0001d7b4   ARM Code       4  dllexp.o(.text)
    qStringComparisonHelper(const QString&, const char*) 0x0001f995   Thumb Code    72  s60audiocapturesession.o(i._Z23qStringComparisonHelperRK7QStringPKc)
    qDebug()                                 0x0001f9eb   Thumb Code    92  s60audiocapturesession.o(i._Z6qDebugv)
    qWarning()                               0x0001fa61   Thumb Code   124  s60videowidget.o(i._Z8qWarningv)
    QByteArray::~QByteArray()                0x0001faf9   Thumb Code    24  s60audioencodercontrol.o(i._ZN10QByteArrayD1Ev)
    QByteArray::~QByteArray__sub_object()    0x0001faf9   Thumb Code     0  s60audioencodercontrol.o(i._ZN10QByteArrayD1Ev)
    QMetaObject::invokeMethod(QObject*, const char*, Qt::ConnectionType, QGenericArgument, QGenericArgument, QGenericArgument, QGenericArgument, QGenericArgument, QGenericArgument, QGenericArgument, QGenericArgument, QGenericArgument, QGenericArgument) 0x0001fb11   Thumb Code   130  s60videowidget.o(i._ZN11QMetaObject12invokeMethodEP7QObjectPKcN2Qt14ConnectionTypeE16QGenericArgumentS6_S6_S6_S6_S6_S6_S6_S6_S6_)
    QStringList::QStringList(const QList<QString>&) 0x0001fb93   Thumb Code    18  s60audiocapturesession.o(i._ZN11QStringListC1ERK5QListI7QStringE)
    QStringList::QStringList__sub_object(const QList<QString>&) 0x0001fb93   Thumb Code     0  s60audiocapturesession.o(i._ZN11QStringListC1ERK5QListI7QStringE)
    QStringList::QStringList(const QStringList&) 0x0001fba5   Thumb Code    38  s60formatsupported.o(i._ZN11QStringListC1ERKS_)
    QStringList::QStringList__sub_object(const QStringList&) 0x0001fba5   Thumb Code     0  s60formatsupported.o(i._ZN11QStringListC1ERKS_)
    QStringList::QStringList()               0x0001fbcd   Thumb Code    20  s60mediaserviceplugin.o(i._ZN11QStringListC1Ev)
    QStringList::QStringList__sub_object()   0x0001fbcd   Thumb Code     0  s60mediaserviceplugin.o(i._ZN11QStringListC1Ev)
    QStringList::~QStringList()              0x0001fbe5   Thumb Code    14  s60mediaserviceplugin.o(i._ZN11QStringListD1Ev)
    QStringList::~QStringList__sub_object()  0x0001fbe5   Thumb Code     0  s60mediaserviceplugin.o(i._ZN11QStringListD1Ev)
    QStringList::operator <<(const QString&) 0x0001fbf3   Thumb Code    18  s60audioencodercontrol.o(i._ZN11QStringListlsERK7QString)
    CleanupStack::PopAndDestroy(void*)       0x0001fc05   Thumb Code    16  s60audiocapturesession.o(i._ZN12CleanupStack13PopAndDestroyEPv)
    ControllerData::ControllerData(const ControllerData&) 0x0001fc15   Thumb Code    50  s60audiocapturesession.o(i._ZN14ControllerDataC1ERKS_)
    ControllerData::ControllerData__sub_object(const ControllerData&) 0x0001fc15   Thumb Code     0  s60audiocapturesession.o(i._ZN14ControllerDataC1ERKS_)
    ControllerData::ControllerData()         0x0001fc53   Thumb Code    32  s60audiocapturesession.o(i._ZN14ControllerDataC1Ev)
    ControllerData::ControllerData__sub_object() 0x0001fc53   Thumb Code     0  s60audiocapturesession.o(i._ZN14ControllerDataC1Ev)
    ControllerData::~ControllerData()        0x0001fc7f   Thumb Code    32  s60audiocapturesession.o(i._ZN14ControllerDataD1Ev)
    ControllerData::~ControllerData__sub_object() 0x0001fc7f   Thumb Code     0  s60audiocapturesession.o(i._ZN14ControllerDataD1Ev)
    QBasicAtomicInt::ref()                   0x0001fcab   Thumb Code    24  s60mediaserviceplugin.o(i._ZN15QBasicAtomicInt3refEv)
    QBasicAtomicInt::deref()                 0x0001fcc3   Thumb Code    24  moc_s60mediaserviceplugin.o(i._ZN15QBasicAtomicInt5derefEv)
    S60MediaSettings::~S60MediaSettings()    0x0001fcdb   Thumb Code    20  s60mediaplayercontrol.o(i._ZN16S60MediaSettingsD1Ev)
    S60MediaSettings::~S60MediaSettings__sub_object() 0x0001fcdb   Thumb Code     0  s60mediaplayercontrol.o(i._ZN16S60MediaSettingsD1Ev)
    QFactoryInterface::~QFactoryInterface__deallocating() 0x0001fcef   Thumb Code    18  s60mediaserviceplugin.o(i._ZN17QFactoryInterfaceD0Ev)
    QFactoryInterface::~QFactoryInterface()  0x0001fd01   Thumb Code     0  s60mediaserviceplugin.o(i._ZN17QFactoryInterfaceD2Ev)
    QFactoryInterface::~QFactoryInterface__sub_object() 0x0001fd01   Thumb Code     2  s60mediaserviceplugin.o(i._ZN17QFactoryInterfaceD2Ev)
    QForeachContainer<QStringList>::~QForeachContainer() 0x0001fd03   Thumb Code    14  s60audiocapturesession.o(i._ZN17QForeachContainerI11QStringListED1Ev)
    QForeachContainer<QStringList>::~QForeachContainer__sub_object() 0x0001fd03   Thumb Code     0  s60audiocapturesession.o(i._ZN17QForeachContainerI11QStringListED1Ev)
    S60RadioTunerControl::tr(const char*, const char*) 0x0001fd11   Thumb Code    22  s60radiotunercontrol_since32.o(i._ZN20S60RadioTunerControl2trEPKcS1_)
    S60AudioPlayerSession::doLoadUrlL(const TDesC16&) 0x0001fd2d   Thumb Code     6  moc_s60audioplayersession.o(i._ZN21S60AudioPlayerSession10doLoadUrlLERK7TDesC16)
    S60MediaServicePlugin::S60MediaServicePlugin() 0x0001fd35   Thumb Code    68  s60mediaserviceplugin.o(i._ZN21S60MediaServicePluginC1Ev)
    S60MediaServicePlugin::S60MediaServicePlugin__sub_object() 0x0001fd35   Thumb Code     0  s60mediaserviceplugin.o(i._ZN21S60MediaServicePluginC1Ev)
    S60MediaServicePlugin::~S60MediaServicePlugin__deallocating() 0x0001fda7   Thumb Code    22  moc_s60mediaserviceplugin.o(i._ZN21S60MediaServicePluginD0Ev)
    S60MediaServicePlugin::~S60MediaServicePlugin() 0x0001fdbd   Thumb Code    48  moc_s60mediaserviceplugin.o(i._ZN21S60MediaServicePluginD1Ev)
    S60MediaServicePlugin::~S60MediaServicePlugin__sub_object() 0x0001fdbd   Thumb Code     0  moc_s60mediaserviceplugin.o(i._ZN21S60MediaServicePluginD1Ev)
    QGraphicsEffectPrivate::~QGraphicsEffectPrivate() 0x0001fe07   Thumb Code    14  s60videooutpututils.o(i._ZN22QGraphicsEffectPrivateD1Ev)
    QGraphicsEffectPrivate::~QGraphicsEffectPrivate__sub_object() 0x0001fe07   Thumb Code     0  s60videooutpututils.o(i._ZN22QGraphicsEffectPrivateD1Ev)
    S60AudioContainerControl::~S60AudioContainerControl__deallocating() 0x0001fe15   Thumb Code    28  moc_S60audiocontainercontrol.o(i._ZN24S60AudioContainerControlD0Ev)
    S60AudioContainerControl::~S60AudioContainerControl() 0x0001fe31   Thumb Code    14  moc_S60audiocontainercontrol.o(i._ZN24S60AudioContainerControlD1Ev)
    S60AudioContainerControl::~S60AudioContainerControl__sub_object() 0x0001fe31   Thumb Code     0  moc_S60audiocontainercontrol.o(i._ZN24S60AudioContainerControlD1Ev)
    QGraphicsBlurEffectPrivate::~QGraphicsBlurEffectPrivate__deallocating() 0x0001fe3f   Thumb Code    22  s60videooutpututils.o(i._ZN26QGraphicsBlurEffectPrivateD0Ev)
    QGraphicsBlurEffectPrivate::~QGraphicsBlurEffectPrivate() 0x0001fe55   Thumb Code    34  s60videooutpututils.o(i._ZN26QGraphicsBlurEffectPrivateD1Ev)
    QGraphicsBlurEffectPrivate::~QGraphicsBlurEffectPrivate__sub_object() 0x0001fe55   Thumb Code     0  s60videooutpututils.o(i._ZN26QGraphicsBlurEffectPrivateD1Ev)
    QMediaServiceProviderPlugin::~QMediaServiceProviderPlugin() 0x0001fe87   Thumb Code     0  moc_s60mediaserviceplugin.o(i._ZN27QMediaServiceProviderPluginD2Ev)
    QMediaServiceProviderPlugin::~QMediaServiceProviderPlugin__sub_object() 0x0001fe87   Thumb Code    22  moc_s60mediaserviceplugin.o(i._ZN27QMediaServiceProviderPluginD2Ev)
    S60AudioMediaRecorderControl::applySettings() 0x0001fea1   Thumb Code     2  moc_s60audiomediarecordercontrol.o(i._ZN28S60AudioMediaRecorderControl13applySettingsEv)
    QGraphicsColorizeEffectPrivate::~QGraphicsColorizeEffectPrivate__deallocating() 0x0001fea3   Thumb Code    22  s60videooutpututils.o(i._ZN30QGraphicsColorizeEffectPrivateD0Ev)
    QGraphicsColorizeEffectPrivate::~QGraphicsColorizeEffectPrivate() 0x0001feb9   Thumb Code    34  s60videooutpututils.o(i._ZN30QGraphicsColorizeEffectPrivateD1Ev)
    QGraphicsColorizeEffectPrivate::~QGraphicsColorizeEffectPrivate__sub_object() 0x0001feb9   Thumb Code     0  s60videooutpututils.o(i._ZN30QGraphicsColorizeEffectPrivateD1Ev)
    QGraphicsDropShadowEffectPrivate::~QGraphicsDropShadowEffectPrivate__deallocating() 0x0001feeb   Thumb Code    22  s60videooutpututils.o(i._ZN32QGraphicsDropShadowEffectPrivateD0Ev)
    QGraphicsDropShadowEffectPrivate::~QGraphicsDropShadowEffectPrivate() 0x0001ff01   Thumb Code    34  s60videooutpututils.o(i._ZN32QGraphicsDropShadowEffectPrivateD1Ev)
    QGraphicsDropShadowEffectPrivate::~QGraphicsDropShadowEffectPrivate__sub_object() 0x0001ff01   Thumb Code     0  s60videooutpututils.o(i._ZN32QGraphicsDropShadowEffectPrivateD1Ev)
    QMediaServiceProviderFactoryInterface::~QMediaServiceProviderFactoryInterface__deallocating() 0x0001ff33   Thumb Code    18  s60mediaserviceplugin.o(i._ZN37QMediaServiceProviderFactoryInterfaceD0Ev)
    QMediaServiceProviderFactoryInterface::~QMediaServiceProviderFactoryInterface() 0x0001ff45   Thumb Code     0  s60mediaserviceplugin.o(i._ZN37QMediaServiceProviderFactoryInterfaceD2Ev)
    QMediaServiceProviderFactoryInterface::~QMediaServiceProviderFactoryInterface__sub_object() 0x0001ff45   Thumb Code     2  s60mediaserviceplugin.o(i._ZN37QMediaServiceProviderFactoryInterfaceD2Ev)
    QMediaServiceSupportedFormatsInterface::~QMediaServiceSupportedFormatsInterface__deallocating() 0x0001ff47   Thumb Code    18  s60mediaserviceplugin.o(i._ZN38QMediaServiceSupportedFormatsInterfaceD0Ev)
    QMediaServiceSupportedFormatsInterface::~QMediaServiceSupportedFormatsInterface() 0x0001ff59   Thumb Code     0  moc_s60mediaserviceplugin.o(i._ZN38QMediaServiceSupportedFormatsInterfaceD2Ev)
    QMediaServiceSupportedFormatsInterface::~QMediaServiceSupportedFormatsInterface__sub_object() 0x0001ff59   Thumb Code     2  moc_s60mediaserviceplugin.o(i._ZN38QMediaServiceSupportedFormatsInterfaceD2Ev)
    QRect::QRect()                           0x0001ff5b   Thumb Code    14  s60videosurface.o(i._ZN5QRectC1Ev)
    QRect::QRect__sub_object()               0x0001ff5b   Thumb Code     0  s60videosurface.o(i._ZN5QRectC1Ev)
    QDebug::maybeSpace()                     0x0001ff69   Thumb Code    24  s60audiomediarecordercontrol.o(i._ZN6QDebug10maybeSpaceEv)
    QDebug::~QDebug()                        0x0001ff81   Thumb Code   144  s60audioencodercontrol.o(i._ZN6QDebugD1Ev)
    QDebug::~QDebug__sub_object()            0x0001ff81   Thumb Code     0  s60audioencodercontrol.o(i._ZN6QDebugD1Ev)
    QDebug::operator <<(const char*)         0x00020025   Thumb Code    44  s60audiomediarecordercontrol.o(i._ZN6QDebuglsEPKc)
    QDebug::operator <<(const QString&)      0x0002005b   Thumb Code    38  s60mediaplayersession.o(i._ZN6QDebuglsERK7QString)
    QDebug::operator <<(bool)                0x00020081   Thumb Code    34  s60mediaplayersession.o(i._ZN6QDebuglsEb)
    QDebug::operator <<(int)                 0x000200a9   Thumb Code    22  s60audiocapturesession.o(i._ZN6QDebuglsEi)
    RArray<unsigned>::RArray()               0x000200bf   Thumb Code    14  s60audiocapturesession.o(i._ZN6RArrayIjEC1Ev)
    RArray<unsigned>::RArray__sub_object()   0x000200bf   Thumb Code     0  s60audiocapturesession.o(i._ZN6RArrayIjEC1Ev)
    RArray<unsigned>::operator [](int)       0x000200cd   Thumb Code    16  s60audiocapturesession.o(i._ZN6RArrayIjEixEi)
    QString::append(const char*)             0x000200dd   Thumb Code    40  s60mediaplayersession.o(i._ZN7QString6appendEPKc)
    QString::QString(const char*)            0x0002010f   Thumb Code    22  s60formatsupported.o(i._ZN7QStringC1EPKc)
    QString::QString__sub_object(const char*) 0x0002010f   Thumb Code     0  s60formatsupported.o(i._ZN7QStringC1EPKc)
    QString::QString(const QLatin1String&)   0x00020125   Thumb Code    26  s60mediaserviceplugin.o(i._ZN7QStringC1ERK13QLatin1String)
    QString::QString__sub_object(const QLatin1String&) 0x00020125   Thumb Code     0  s60mediaserviceplugin.o(i._ZN7QStringC1ERK13QLatin1String)
    QString::QString(const QString&)         0x0002013f   Thumb Code    22  s60mediaserviceplugin.o(i._ZN7QStringC1ERKS_)
    QString::QString__sub_object(const QString&) 0x0002013f   Thumb Code     0  s60mediaserviceplugin.o(i._ZN7QStringC1ERKS_)
    QString::QString()                       0x00020155   Thumb Code    18  s60audiocapturesession.o(i._ZN7QStringC1Ev)
    QString::QString__sub_object()           0x00020155   Thumb Code     0  s60audiocapturesession.o(i._ZN7QStringC1Ev)
    QString::~QString()                      0x0002016d   Thumb Code    24  moc_s60mediaserviceplugin.o(i._ZN7QStringD1Ev)
    QString::~QString__sub_object()          0x0002016d   Thumb Code     0  moc_s60mediaserviceplugin.o(i._ZN7QStringD1Ev)
    QVariant::QVariant()                     0x00020185   Thumb Code    38  s60mediametadataprovider.o(i._ZN8QVariantC1Ev)
    QVariant::QVariant__sub_object()         0x00020185   Thumb Code     0  s60mediametadataprovider.o(i._ZN8QVariantC1Ev)
    CodecData::CodecData(const CodecData&)   0x000201ab   Thumb Code    24  s60audiocapturesession.o(i._ZN9CodecDataC1ERKS_)
    CodecData::CodecData__sub_object(const CodecData&) 0x000201ab   Thumb Code     0  s60audiocapturesession.o(i._ZN9CodecDataC1ERKS_)
    CodecData::CodecData()                   0x000201c5   Thumb Code    20  s60audiocapturesession.o(i._ZN9CodecDataC1Ev)
    CodecData::CodecData__sub_object()       0x000201c5   Thumb Code     0  s60audiocapturesession.o(i._ZN9CodecDataC1Ev)
    CodecData::~CodecData()                  0x000201dd   Thumb Code    16  s60audiocapturesession.o(i._ZN9CodecDataD1Ev)
    CodecData::~CodecData__sub_object()      0x000201dd   Thumb Code     0  s60audiocapturesession.o(i._ZN9CodecDataD1Ev)
    CodecData::operator =(const CodecData&)  0x000201ed   Thumb Code    22  s60audiocapturesession.o(i._ZN9CodecDataaSERKS_)
    QHashData::willGrow()                    0x00020203   Thumb Code    32  s60audiocapturesession.o(i._ZN9QHashData8willGrowEv)
    QHashData::firstNode()                   0x00020223   Thumb Code    36  s60audiocapturesession.o(i._ZN9QHashData9firstNodeEv)
    QBasicAtomicInt::operator !=(int) const  0x00020247   Thumb Code    16  s60formatsupported.o(i._ZNK15QBasicAtomicIntneEi)
    S60MediaSettings::audioEndpoint() const  0x00020257   Thumb Code    20  s60mediaplayeraudioendpointselector.o(i._ZNK16S60MediaSettings13audioEndpointEv)
    S60MediaPlayerSession::getIsSeekable() const 0x0002026b   Thumb Code     6  moc_s60mediaplayersession.o(i._ZNK21S60MediaPlayerSession13getIsSeekableEv)
    QBool::operator const void*() const      0x00020271   Thumb Code    16  s60audiocapturesession.o(i._ZNK5QBoolcvPKvEv)
    RArray<unsigned>::Count() const          0x00020281   Thumb Code    12  s60audiocapturesession.o(i._ZNK6RArrayIjE5CountEv)
    QString::operator ==(const char*) const  0x0002028d   Thumb Code    16  s60audiocapturesession.o(i._ZNK7QStringeqEPKc)
    QListData::end() const                   0x0002029d   Thumb Code    16  s60mediaserviceplugin.o(i._ZNK9QListData3endEv)
    QListData::begin() const                 0x000202ad   Thumb Code    16  s60mediaserviceplugin.o(i._ZNK9QListData5beginEv)
    thunk{-12} to S60MediaServicePlugin::~S60MediaServicePlugin__deallocating() 0x000202bd   Thumb Code    14  moc_s60mediaserviceplugin.o(i._ZThn12_N21S60MediaServicePluginD0Ev)
    thunk{-12} to S60MediaServicePlugin::~S60MediaServicePlugin() 0x000202cb   Thumb Code    14  moc_s60mediaserviceplugin.o(i._ZThn12_N21S60MediaServicePluginD1Ev)
    thunk{-8} to S60MediaServicePlugin::~S60MediaServicePlugin__deallocating() 0x000202d9   Thumb Code    14  moc_s60mediaserviceplugin.o(i._ZThn8_N21S60MediaServicePluginD0Ev)
    thunk{-8} to S60MediaServicePlugin::~S60MediaServicePlugin() 0x000202e7   Thumb Code    14  moc_s60mediaserviceplugin.o(i._ZThn8_N21S60MediaServicePluginD1Ev)
    operator delete (void*, void*)           0x000202f5   Thumb Code     2  s60mediaserviceplugin.o(i._ZdlPvS_)
    operator new(unsigned, void*)            0x000202f7   Thumb Code     6  s60mediaserviceplugin.o(i._ZnwjPv)
    qMapLessThanKey<QString>(const T1&, const T1&) 0x000202fd   Thumb Code    16  s60audiocapturesession.o(t._Z15qMapLessThanKeyI7QStringEbRKT_S3_)
    CleanupClosePushL<RArray<unsigned>>(T1&) 0x0002030d   Thumb Code    24  s60audiocapturesession.o(t._Z17CleanupClosePushLI6RArrayIjEEvRT_)
    qAbs<float>(const T1&)                   0x00020329   Thumb Code    28  s60mediaplayercontrol.o(t._Z4qAbsIfET_RKS0_)
    qMakePair<int, int>(const T1&, const T2&) 0x00020345   Thumb Code    22  s60radiotunercontrol_since32.o(t._Z9qMakePairIiiE5QPairIT_T0_ERKS1_RKS2_)
    CleanupClose<RArray<TUid>>::Close(void*) 0x0002035b   Thumb Code    14  s60audiocapturesession.o(t._ZN12CleanupCloseI6RArrayI4TUidEE5CloseEPv)
    CleanupClose<RArray<TFourCC>>::Close(void*) 0x00020369   Thumb Code    14  s60audiocapturesession.o(t._ZN12CleanupCloseI6RArrayI7TFourCCEE5CloseEPv)
    CleanupClose<RArray<unsigned>>::Close(void*) 0x00020377   Thumb Code    14  s60audiocapturesession.o(t._ZN12CleanupCloseI6RArrayIjEE5CloseEPv)
    RPointerArray<CMMFControllerImplementationInformation>::ResetAndDestroy() 0x00020385   Thumb Code    64  s60formatsupported.o(t._ZN13RPointerArrayI39CMMFControllerImplementationInformationE15ResetAndDestroyEv)
    QScopedPointer<S60MediaRecognizer, QScopedPointerDeleter<S60MediaRecognizer>>::~QScopedPointer() 0x000203c5   Thumb Code    28  s60mediaplayerservice.o(t._ZN14QScopedPointerI18S60MediaRecognizer21QScopedPointerDeleterIS0_EED1Ev)
    QScopedPointer<S60MediaRecognizer, QScopedPointerDeleter<S60MediaRecognizer>>::~QScopedPointer__sub_object() 0x000203c5   Thumb Code     0  s60mediaplayerservice.o(t._ZN14QScopedPointerI18S60MediaRecognizer21QScopedPointerDeleterIS0_EED1Ev)
    QScopedPointer<QWidget, QScopedPointerDeleter<QWidget>>::~QScopedPointer() 0x000203e1   Thumb Code    28  s60videowidgetdisplay.o(t._ZN14QScopedPointerI7QWidget21QScopedPointerDeleterIS0_EED1Ev)
    QScopedPointer<QWidget, QScopedPointerDeleter<QWidget>>::~QScopedPointer__sub_object() 0x000203e1   Thumb Code     0  s60videowidgetdisplay.o(t._ZN14QScopedPointerI7QWidget21QScopedPointerDeleterIS0_EED1Ev)
    CleanupResetAndDestroy<RPointerArray<CMMFControllerImplementationInformation>>::ResetAndDestroy(void*) 0x000203fd   Thumb Code    12  s60audiocapturesession.o(t._ZN22CleanupResetAndDestroyI13RPointerArrayI39CMMFControllerImplementationInformationEE15ResetAndDestroyEPv)
    QMap<QString, QVariant>::node_create(QMapData*, QMapData::Node**, const QString&, const QVariant&) 0x00020409   Thumb Code   142  s60videoplayersession.o(t._ZN4QMapI7QString8QVariantE11node_createEP8QMapDataPPNS3_4NodeERKS0_RKS1_)
    QMap<QString, QVariant>::detach_helper() 0x000204bd   Thumb Code   148  s60videoplayersession.o(t._ZN4QMapI7QString8QVariantE13detach_helperEv)
    QMap<QString, QVariant>::clear()         0x00020559   Thumb Code   122  s60videoplayersession.o(t._ZN4QMapI7QString8QVariantE5clearEv)
    QMap<QString, QVariant>::freeData(QMapData*) 0x000205e3   Thumb Code    64  s60mediaplayersession.o(t._ZN4QMapI7QString8QVariantE8freeDataEP8QMapData)
    QMap<QString, QVariant>::~QMap()         0x00020623   Thumb Code    38  s60mediaplayersession.o(t._ZN4QMapI7QString8QVariantED1Ev)
    QMap<QString, QVariant>::~QMap__sub_object() 0x00020623   Thumb Code     0  s60mediaplayersession.o(t._ZN4QMapI7QString8QVariantED1Ev)
    QMap<QString, QString>::node_create(QMapData*, QMapData::Node**, const QString&, const QString&) 0x00020649   Thumb Code   140  s60audiocapturesession.o(t._ZN4QMapI7QStringS0_E11node_createEP8QMapDataPPNS2_4NodeERKS0_S8_)
    QMap<QString, QString>::detach_helper()  0x000206fb   Thumb Code   146  s60audiocapturesession.o(t._ZN4QMapI7QStringS0_E13detach_helperEv)
    QMap<QString, QString>::freeData(QMapData*) 0x00020795   Thumb Code    62  s60audiocapturesession.o(t._ZN4QMapI7QStringS0_E8freeDataEP8QMapData)
    QMap<QString, QString>::~QMap()          0x000207d3   Thumb Code    38  s60audiocapturesession.o(t._ZN4QMapI7QStringS0_ED1Ev)
    QMap<QString, QString>::~QMap__sub_object() 0x000207d3   Thumb Code     0  s60audiocapturesession.o(t._ZN4QMapI7QStringS0_ED1Ev)
    QMap<QString, QString>::operator [](const QString&) 0x000207f9   Thumb Code   100  s60audiocapturesession.o(t._ZN4QMapI7QStringS0_EixERKS0_)
    QHash<QString, ControllerData>::deleteNode2(QHashData::Node*) 0x00020867   Thumb Code    36  s60audiocapturesession.o(t._ZN5QHashI7QString14ControllerDataE11deleteNode2EPN9QHashData4NodeE)
    QHash<QString, ControllerData>::detach_helper() 0x00020899   Thumb Code    52  s60audiocapturesession.o(t._ZN5QHashI7QString14ControllerDataE13detach_helperEv)
    QHash<QString, ControllerData>::duplicateNode(QHashData::Node*, void*) 0x000208d5   Thumb Code    46  s60audiocapturesession.o(t._ZN5QHashI7QString14ControllerDataE13duplicateNodeEPN9QHashData4NodeEPv)
    QHash<QString, ControllerData>::detach() 0x00020911   Thumb Code    28  s60audiocapturesession.o(t._ZN5QHashI7QString14ControllerDataE6detachEv)
    QHash<QString, ControllerData>::freeData(QHashData*) 0x0002092d   Thumb Code    16  s60audiocapturesession.o(t._ZN5QHashI7QString14ControllerDataE8freeDataEP9QHashData)
    QHash<QString, ControllerData>::~QHash() 0x00020941   Thumb Code    30  s60audiocapturesession.o(t._ZN5QHashI7QString14ControllerDataED1Ev)
    QHash<QString, ControllerData>::~QHash__sub_object() 0x00020941   Thumb Code     0  s60audiocapturesession.o(t._ZN5QHashI7QString14ControllerDataED1Ev)
    QHash<QString, ControllerData>::operator [](const QString&) 0x0002095f   Thumb Code   196  s60audiocapturesession.o(t._ZN5QHashI7QString14ControllerDataEixERKS0_)
    QHash<QString, CodecData>::deleteNode2(QHashData::Node*) 0x00020a3b   Thumb Code    36  s60audiocapturesession.o(t._ZN5QHashI7QString9CodecDataE11deleteNode2EPN9QHashData4NodeE)
    QHash<QString, CodecData>::detach_helper() 0x00020a6d   Thumb Code    52  s60audiocapturesession.o(t._ZN5QHashI7QString9CodecDataE13detach_helperEv)
    QHash<QString, CodecData>::duplicateNode(QHashData::Node*, void*) 0x00020aa9   Thumb Code    46  s60audiocapturesession.o(t._ZN5QHashI7QString9CodecDataE13duplicateNodeEPN9QHashData4NodeEPv)
    QHash<QString, CodecData>::detach()      0x00020ae5   Thumb Code    28  s60audiocapturesession.o(t._ZN5QHashI7QString9CodecDataE6detachEv)
    QHash<QString, CodecData>::freeData(QHashData*) 0x00020b01   Thumb Code    16  s60audiocapturesession.o(t._ZN5QHashI7QString9CodecDataE8freeDataEP9QHashData)
    QHash<QString, CodecData>::~QHash()      0x00020b15   Thumb Code    30  s60audiocapturesession.o(t._ZN5QHashI7QString9CodecDataED1Ev)
    QHash<QString, CodecData>::~QHash__sub_object() 0x00020b15   Thumb Code     0  s60audiocapturesession.o(t._ZN5QHashI7QString9CodecDataED1Ev)
    QHash<QString, CodecData>::operator [](const QString&) 0x00020b33   Thumb Code   194  s60audiocapturesession.o(t._ZN5QHashI7QString9CodecDataEixERKS0_)
    QList<QString>::detach_helper(int)       0x00020c0d   Thumb Code    94  s60mediaserviceplugin.o(t._ZN5QListI7QStringE13detach_helperEi)
    QList<QString>::detach_helper()          0x00020c73   Thumb Code    16  s60mediaserviceplugin.o(t._ZN5QListI7QStringE13detach_helperEv)
    QList<QString>::node_destruct(QList<QString>::Node*, QList<QString>::Node*) 0x00020c83   Thumb Code    26  s60mediaserviceplugin.o(t._ZN5QListI7QStringE13node_destructEPNS1_4NodeES3_)
    QList<QString>::node_construct(QList<QString>::Node*, const QString&) 0x00020c9d   Thumb Code    36  s60mediaserviceplugin.o(t._ZN5QListI7QStringE14node_constructEPNS1_4NodeERKS0_)
    QList<QString>::detach_helper_grow(int, int) 0x00020ccf   Thumb Code   208  s60mediaserviceplugin.o(t._ZN5QListI7QStringE18detach_helper_growEii)
    QList<QString>::free(QListData::Data*)   0x00020daf   Thumb Code    58  s60mediaserviceplugin.o(t._ZN5QListI7QStringE4freeEPN9QListData4DataE)
    QList<QString>::clear()                  0x00020de9   Thumb Code    28  s60formatsupported.o(t._ZN5QListI7QStringE5clearEv)
    QList<QString>::append(const QString&)   0x00020e11   Thumb Code   114  s60formatsupported.o(t._ZN5QListI7QStringE6appendERKS0_)
    QList<QString>::reserve(int)             0x00020e97   Thumb Code    46  s60audiocapturesession.o(t._ZN5QListI7QStringE7reserveEi)
    QList<QString>::node_copy(QList<QString>::Node*, QList<QString>::Node*, QList<QString>::Node*) 0x00020ec5   Thumb Code    82  s60mediaserviceplugin.o(t._ZN5QListI7QStringE9node_copyEPNS1_4NodeES3_S3_)
    QList<QString>::QList(const QList<QString>&) 0x00020f2d   Thumb Code    36  s60audiocapturesession.o(t._ZN5QListI7QStringEC1ERKS1_)
    QList<QString>::QList__sub_object(const QList<QString>&) 0x00020f2d   Thumb Code     0  s60audiocapturesession.o(t._ZN5QListI7QStringEC1ERKS1_)
    QList<QString>::QList()                  0x00020f51   Thumb Code    18  s60formatsupported.o(t._ZN5QListI7QStringEC1Ev)
    QList<QString>::QList__sub_object()      0x00020f51   Thumb Code     0  s60formatsupported.o(t._ZN5QListI7QStringEC1Ev)
    QList<QString>::~QList()                 0x00020f69   Thumb Code    32  moc_s60mediaserviceplugin.o(t._ZN5QListI7QStringED1Ev)
    QList<QString>::~QList__sub_object()     0x00020f69   Thumb Code     0  moc_s60mediaserviceplugin.o(t._ZN5QListI7QStringED1Ev)
    QList<QString>::operator =(const QList<QString>&) 0x00020f89   Thumb Code    64  s60formatsupported.o(t._ZN5QListI7QStringEaSERKS1_)
    QList<QString>::operator [](int)         0x00020fc9   Thumb Code    52  s60audiocapturesession.o(t._ZN5QListI7QStringEixEi)
    QList<QString>::operator +=(const QList<QString>&) 0x00020ffd   Thumb Code   154  s60formatsupported.o(t._ZN5QListI7QStringEpLERKS1_)
    QList<QVideoFrame::PixelFormat>::free(QListData::Data*) 0x000210a5   Thumb Code    70  s60videosurface.o(t._ZN5QListIN11QVideoFrame11PixelFormatEE4freeEPN9QListData4DataE)
    QList<QVideoFrame::PixelFormat>::QList() 0x000210ed   Thumb Code    18  s60videosurface.o(t._ZN5QListIN11QVideoFrame11PixelFormatEEC1Ev)
    QList<QVideoFrame::PixelFormat>::QList__sub_object() 0x000210ed   Thumb Code     0  s60videosurface.o(t._ZN5QListIN11QVideoFrame11PixelFormatEEC1Ev)
    QList<QVideoFrame::PixelFormat>::~QList() 0x00021105   Thumb Code    32  s60videosurface.o(t._ZN5QListIN11QVideoFrame11PixelFormatEED1Ev)
    QList<QVideoFrame::PixelFormat>::~QList__sub_object() 0x00021105   Thumb Code     0  s60videosurface.o(t._ZN5QListIN11QVideoFrame11PixelFormatEED1Ev)
    QList<QtMultimediaKit::MetaData>::node_destruct(QList<QtMultimediaKit::MetaData>::Node*, QList<QtMultimediaKit::MetaData>::Node*) 0x00021125   Thumb Code    26  s60mediaplayersession.o(t._ZN5QListIN15QtMultimediaKit8MetaDataEE13node_destructEPNS2_4NodeES4_)
    QList<QtMultimediaKit::MetaData>::node_construct(QList<QtMultimediaKit::MetaData>::Node*, const QtMultimediaKit::MetaData&) 0x0002113f   Thumb Code    30  s60mediaplayersession.o(t._ZN5QListIN15QtMultimediaKit8MetaDataEE14node_constructEPNS2_4NodeERKS1_)
    QList<QtMultimediaKit::MetaData>::detach_helper_grow(int, int) 0x0002115d   Thumb Code   208  s60mediaplayersession.o(t._ZN5QListIN15QtMultimediaKit8MetaDataEE18detach_helper_growEii)
    QList<QtMultimediaKit::MetaData>::free(QListData::Data*) 0x0002123d   Thumb Code    58  s60mediaplayersession.o(t._ZN5QListIN15QtMultimediaKit8MetaDataEE4freeEPN9QListData4DataE)
    QList<QtMultimediaKit::MetaData>::append(const QtMultimediaKit::MetaData&) 0x00021279   Thumb Code   106  s60mediaplayersession.o(t._ZN5QListIN15QtMultimediaKit8MetaDataEE6appendERKS1_)
    QList<QtMultimediaKit::MetaData>::node_copy(QList<QtMultimediaKit::MetaData>::Node*, QList<QtMultimediaKit::MetaData>::Node*, QList<QtMultimediaKit::MetaData>::Node*) 0x000212f7   Thumb Code    78  s60mediaplayersession.o(t._ZN5QListIN15QtMultimediaKit8MetaDataEE9node_copyEPNS2_4NodeES4_S4_)
    QList<QtMultimediaKit::MetaData>::~QList() 0x0002134d   Thumb Code    32  s60mediaplayersession.o(t._ZN5QListIN15QtMultimediaKit8MetaDataEED1Ev)
    QList<QtMultimediaKit::MetaData>::~QList__sub_object() 0x0002134d   Thumb Code     0  s60mediaplayersession.o(t._ZN5QListIN15QtMultimediaKit8MetaDataEED1Ev)
    QList<int>::detach_helper(int)           0x0002136d   Thumb Code    94  s60audiocapturesession.o(t._ZN5QListIiE13detach_helperEi)
    QList<int>::detach_helper()              0x000213d3   Thumb Code    16  s60audiocapturesession.o(t._ZN5QListIiE13detach_helperEv)
    QList<int>::detach_helper_grow(int, int) 0x000213e3   Thumb Code   204  s60audiocapturesession.o(t._ZN5QListIiE18detach_helper_growEii)
    QList<int>::free(QListData::Data*)       0x000214bf   Thumb Code    58  s60audiocapturesession.o(t._ZN5QListIiE4freeEPN9QListData4DataE)
    QList<int>::clear()                      0x000214f9   Thumb Code    28  s60audiocapturesession.o(t._ZN5QListIiE5clearEv)
    QList<int>::append(const int&)           0x00021521   Thumb Code    94  s60audiocapturesession.o(t._ZN5QListIiE6appendERKi)
    QList<int>::node_copy(QList<int>::Node*, QList<int>::Node*, QList<int>::Node*) 0x0002158f   Thumb Code    46  s60audiocapturesession.o(t._ZN5QListIiE9node_copyEPNS0_4NodeES2_S2_)
    QList<int>::QList()                      0x000215bd   Thumb Code    18  s60audiocapturesession.o(t._ZN5QListIiEC1Ev)
    QList<int>::QList__sub_object()          0x000215bd   Thumb Code     0  s60audiocapturesession.o(t._ZN5QListIiEC1Ev)
    QList<int>::~QList()                     0x000215d5   Thumb Code    32  s60audiocapturesession.o(t._ZN5QListIiED1Ev)
    QList<int>::~QList__sub_object()         0x000215d5   Thumb Code     0  s60audiocapturesession.o(t._ZN5QListIiED1Ev)
    QList<int>::operator =(const QList<int>&) 0x000215f5   Thumb Code    64  s60audiocapturesession.o(t._ZN5QListIiEaSERKS0_)
    QList<int>::operator <<(const int&)      0x00021635   Thumb Code    18  s60audiocapturesession.o(t._ZN5QListIiElsERKi)
    QPair<int, int>::QPair()                 0x00021647   Thumb Code     8  s60videosurface.o(t._ZN5QPairIiiEC1Ev)
    QPair<int, int>::QPair__sub_object()     0x00021647   Thumb Code     0  s60videosurface.o(t._ZN5QPairIiiEC1Ev)
    QVector<int>::free(QVectorTypedData<int>*) 0x0002164f   Thumb Code    24  s60videosurface.o(t._ZN7QVectorIiE4freeEP16QVectorTypedDataIiE)
    QVector<int>::~QVector()                 0x00021667   Thumb Code    34  s60videosurface.o(t._ZN7QVectorIiED1Ev)
    QVector<int>::~QVector__sub_object()     0x00021667   Thumb Code     0  s60videosurface.o(t._ZN7QVectorIiED1Ev)
    QPointer<QObject>::~QPointer()           0x00021689   Thumb Code    14  s60mediaserviceplugin.o(t._ZN8QPointerI7QObjectED1Ev)
    QPointer<QObject>::~QPointer__sub_object() 0x00021689   Thumb Code     0  s60mediaserviceplugin.o(t._ZN8QPointerI7QObjectED1Ev)
    QHashNode<QString, ControllerData>::QHashNode(const QString&, const ControllerData&) 0x00021697   Thumb Code    40  s60audiocapturesession.o(t._ZN9QHashNodeI7QString14ControllerDataEC1ERKS0_RKS1_)
    QHashNode<QString, ControllerData>::QHashNode__sub_object(const QString&, const ControllerData&) 0x00021697   Thumb Code     0  s60audiocapturesession.o(t._ZN9QHashNodeI7QString14ControllerDataEC1ERKS0_RKS1_)
    QHashNode<QString, CodecData>::QHashNode(const QString&, const CodecData&) 0x000216cb   Thumb Code    40  s60audiocapturesession.o(t._ZN9QHashNodeI7QString9CodecDataEC1ERKS0_RKS1_)
    QHashNode<QString, CodecData>::QHashNode__sub_object(const QString&, const CodecData&) 0x000216cb   Thumb Code     0  s60audiocapturesession.o(t._ZN9QHashNodeI7QString9CodecDataEC1ERKS0_RKS1_)
    RPointerArray<CMMFFormatImplementationInformation>::operator [](int) const 0x000216ff   Thumb Code    16  s60audiocapturesession.o(t._ZNK13RPointerArrayI35CMMFFormatImplementationInformationEixEi)
    QMap<QString, QVariant>::mutableFindNode(QMapData::Node**, const QString&) const 0x0002170f   Thumb Code   116  s60videoplayersession.o(t._ZNK4QMapI7QString8QVariantE15mutableFindNodeEPPN8QMapData4NodeERKS0_)
    QMap<QString, QVariant>::keys() const    0x00021785   Thumb Code   110  s60mediaplayersession.o(t._ZNK4QMapI7QString8QVariantE4keysEv)
    QMap<QString, QVariant>::value(const QString&) const 0x00021803   Thumb Code   198  s60mediaplayersession.o(t._ZNK4QMapI7QString8QVariantE5valueERKS0_)
    QMap<QString, QString>::mutableFindNode(QMapData::Node**, const QString&) const 0x000218c9   Thumb Code   108  s60audiocapturesession.o(t._ZNK4QMapI7QStringS0_E15mutableFindNodeEPPN8QMapData4NodeERKS0_)
    QMap<QString, QString>::keys() const     0x00021935   Thumb Code   104  s60audiocapturesession.o(t._ZNK4QMapI7QStringS0_E4keysEv)
    QHash<QString, ControllerData>::keys() const 0x000219a7   Thumb Code   108  s60audiocapturesession.o(t._ZNK5QHashI7QString14ControllerDataE4keysEv)
    QHash<QString, ControllerData>::value(const QString&) const 0x00021a1d   Thumb Code    68  s60audiocapturesession.o(t._ZNK5QHashI7QString14ControllerDataE5valueERKS0_)
    QHash<QString, ControllerData>::contains(const QString&) const 0x00021a61   Thumb Code    32  s60audiocapturesession.o(t._ZNK5QHashI7QString14ControllerDataE8containsERKS0_)
    QHash<QString, ControllerData>::findNode(const QString&, unsigned*) const 0x00021a81   Thumb Code   116  s60audiocapturesession.o(t._ZNK5QHashI7QString14ControllerDataE8findNodeERKS0_Pj)
    QHash<QString, CodecData>::keys() const  0x00021af5   Thumb Code   108  s60audiocapturesession.o(t._ZNK5QHashI7QString9CodecDataE4keysEv)
    QHash<QString, CodecData>::value(const QString&) const 0x00021b6b   Thumb Code    66  s60audiocapturesession.o(t._ZNK5QHashI7QString9CodecDataE5valueERKS0_)
    QHash<QString, CodecData>::findNode(const QString&, unsigned*) const 0x00021bad   Thumb Code   116  s60audiocapturesession.o(t._ZNK5QHashI7QString9CodecDataE8findNodeERKS0_Pj)
    QList<QString>::isEmpty() const          0x00021c21   Thumb Code    24  s60formatsupported.o(t._ZNK5QListI7QStringE7isEmptyEv)
    QList<QString>::contains(const QString&) const 0x00021c39   Thumb Code    74  s60audiocapturesession.o(t._ZNK5QListI7QStringE8containsERKS0_)
    S60VideoDisplay::staticMetaObject        0x000259c0   Data          16  moc_s60videodisplay.o(.constdata)
    S60VideoWidget::staticMetaObject         0x00025bcc   Data          16  moc_s60videowidget.o(.constdata)
    S60VideoWidgetControl::staticMetaObject  0x00025ce8   Data          16  moc_s60videowidgetcontrol.o(.constdata)
    S60VideoWidgetDisplay::staticMetaObject  0x00025d4c   Data          16  moc_s60videowidgetdisplay.o(.constdata)
    S60VideoWindowControl::staticMetaObject  0x00025df0   Data          16  moc_s60videowindowcontrol.o(.constdata)
    S60MediaPlayerControl::staticMetaObject  0x00025e54   Data          16  moc_s60mediaplayercontrol.o(.constdata)
    S60MediaPlayerService::staticMetaObject  0x00025eb8   Data          16  moc_s60mediaplayerservice.o(.constdata)
    S60MediaPlayerSession::staticMetaObject  0x000262e8   Data          16  moc_s60mediaplayersession.o(.constdata)
    S60MediaMetaDataProvider::staticMetaObject 0x00026350   Data          16  moc_s60mediametadataprovider.o(.constdata)
    S60VideoPlayerSession::staticMetaObject  0x000264b8   Data          16  moc_s60videoplayersession.o(.constdata)
    S60VideoSurface::staticMetaObject        0x00026518   Data          16  moc_s60videosurface.o(.constdata)
    S60MediaRecognizer::staticMetaObject     0x00026578   Data          16  moc_s60mediarecognizer.o(.constdata)
    S60AudioPlayerSession::staticMetaObject  0x00026610   Data          16  moc_s60audioplayersession.o(.constdata)
    S60MediaPlayerAudioEndpointSelector::staticMetaObject 0x000266b8   Data          16  moc_s60mediaplayeraudioendpointselector.o(.constdata)
    S60MediaStreamControl::staticMetaObject  0x00026748   Data          16  moc_s60mediastreamcontrol.o(.constdata)
    S60RadioTunerControl::staticMetaObject   0x00026804   Data          16  moc_s60radiotunercontrol_since32.o(.constdata)
    S60RadioTunerService::staticMetaObject   0x00026868   Data          16  moc_s60radiotunerservice.o(.constdata)
    S60AudioEncoderControl::staticMetaObject 0x000268cc   Data          16  moc_s60audioencodercontrol.o(.constdata)
    S60AudioMediaRecorderControl::staticMetaObject 0x00026a04   Data          16  moc_s60audiomediarecordercontrol.o(.constdata)
    S60AudioEndpointSelector::staticMetaObject 0x00026aa0   Data          16  moc_s60audioendpointselector.o(.constdata)
    S60AudioCaptureService::staticMetaObject 0x00026b04   Data          16  moc_s60audiocaptureservice.o(.constdata)
    S60AudioCaptureSession::staticMetaObject 0x00026d50   Data          16  moc_s60audiocapturesession.o(.constdata)
    S60AudioContainerControl::staticMetaObject 0x00026db8   Data          16  moc_S60audiocontainercontrol.o(.constdata)
    S60MediaServicePlugin::staticMetaObject  0x00026e1c   Data          16  moc_s60mediaserviceplugin.o(.constdata)
    stlp_priv::_Integer_limits<signed char, (signed char)-128, (signed char)127, (int)-1, (bool)1>::digits 0x00027488   Data           4  moc_s60videodisplay.o(.constdata__ZN9stlp_priv15_Integer_limitsIaLan128ELa127ELin1ELb1EE6digitsE)
    stlp_priv::_Integer_limits<bool, (bool)0, (bool)1, (int)1, (bool)0>::digits 0x0002748c   Data           4  moc_s60videodisplay.o(.constdata__ZN9stlp_priv15_Integer_limitsIbLb0ELb1ELi1ELb0EE6digitsE)
    stlp_priv::_Integer_limits<char, (char)128, (char)127, (int)-1, (bool)1>::digits 0x00027490   Data           4  moc_s60videodisplay.o(.constdata__ZN9stlp_priv15_Integer_limitsIcLc128ELc127ELin1ELb1EE6digitsE)
    stlp_priv::_Integer_limits<unsigned char, (unsigned char)0, (unsigned char)255, (int)-1, (bool)1>::digits 0x00027494   Data           4  moc_s60videodisplay.o(.constdata__ZN9stlp_priv15_Integer_limitsIhLh0ELh255ELin1ELb1EE6digitsE)
    stlp_priv::_Integer_limits<int, (int)-2147483648, (int)2147483647, (int)-1, (bool)1>::digits 0x00027498   Data           4  moc_s60videodisplay.o(.constdata__ZN9stlp_priv15_Integer_limitsIiLin2147483648ELi2147483647ELin1ELb1EE6digitsE)
    stlp_priv::_Integer_limits<int, (int)-2147483648, (int)2147483647, (int)-1, (bool)1>::is_signed 0x0002749c   Data           1  moc_s60videodisplay.o(.constdata__ZN9stlp_priv15_Integer_limitsIiLin2147483648ELi2147483647ELin1ELb1EE9is_signedE)
    stlp_priv::_Integer_limits<unsigned, (unsigned)0, (unsigned)4294967295, (int)-1, (bool)1>::digits 0x000274a0   Data           4  moc_s60videodisplay.o(.constdata__ZN9stlp_priv15_Integer_limitsIjLj0ELj4294967295ELin1ELb1EE6digitsE)
    stlp_priv::_Integer_limits<long, (long)-2147483648, (long)2147483647, (int)-1, (bool)1>::digits 0x000274a4   Data           4  moc_s60videodisplay.o(.constdata__ZN9stlp_priv15_Integer_limitsIlLln2147483648ELl2147483647ELin1ELb1EE6digitsE)
    stlp_priv::_Integer_limits<unsigned long, (unsigned long)0, (unsigned long)4294967295, (int)-1, (bool)1>::digits 0x000274a8   Data           4  moc_s60videodisplay.o(.constdata__ZN9stlp_priv15_Integer_limitsImLm0ELm4294967295ELin1ELb1EE6digitsE)
    stlp_priv::_Integer_limits<short, (short)-32768, (short)32767, (int)-1, (bool)1>::digits 0x000274ac   Data           4  moc_s60videodisplay.o(.constdata__ZN9stlp_priv15_Integer_limitsIsLsn32768ELs32767ELin1ELb1EE6digitsE)
    stlp_priv::_Integer_limits<unsigned short, (unsigned short)0, (unsigned short)65535, (int)-1, (bool)1>::digits 0x000274b0   Data           4  moc_s60videodisplay.o(.constdata__ZN9stlp_priv15_Integer_limitsItLt0ELt65535ELin1ELb1EE6digitsE)
    stlp_priv::_Integer_limits<wchar_t, (wchar_t)0, (wchar_t)65535, (int)-1, (bool)1>::digits 0x000274b4   Data           4  moc_s60videodisplay.o(.constdata__ZN9stlp_priv15_Integer_limitsIwLw0ELw65535ELin1ELb1EE6digitsE)
    stlp_priv::_Integer_limits<long long, (long long)-9223372036854775808, (long long)9223372036854775807, (int)-1, (bool)1>::digits 0x000274b8   Data           4  moc_s60videodisplay.o(.constdata__ZN9stlp_priv15_Integer_limitsIxLxn9223372036854775808ELx9223372036854775807ELin1ELb1EE6digitsE)
    stlp_priv::_Integer_limits<unsigned long long, (unsigned long long)0, (unsigned long long)18446744073709551615, (int)-1, (bool)1>::digits 0x000274bc   Data           4  moc_s60videodisplay.o(.constdata__ZN9stlp_priv15_Integer_limitsIyLy0ELy18446744073709551615ELin1ELb1EE6digitsE)
    typeinfo for S60VideoWidget              0x000274c0   Data          12  moc_s60videowidget.o(.constdata__ZTI14S60VideoWidget)
    typeinfo for S60VideoDisplay             0x000274cc   Data          12  moc_s60videodisplay.o(.constdata__ZTI15S60VideoDisplay)
    typeinfo for S60VideoSurface             0x000274d8   Data          12  moc_s60videosurface.o(.constdata__ZTI15S60VideoSurface)
    typeinfo for QFactoryInterface           0x000274e4   Data           8  s60mediaserviceplugin.o(.constdata__ZTI17QFactoryInterface)
    typeinfo for S60MediaRecognizer          0x000274ec   Data          12  moc_s60mediarecognizer.o(.constdata__ZTI18S60MediaRecognizer)
    typeinfo for MAudioOutputObserver        0x000274f8   Data           8  moc_s60videoplayersession.o(.constdata__ZTI20MAudioOutputObserver)
    typeinfo for MRadioPlayerObserver        0x00027500   Data           8  moc_s60radiotunercontrol_since32.o(.constdata__ZTI20MRadioPlayerObserver)
    typeinfo for S60RadioTunerControl        0x00027508   Data          40  moc_s60radiotunercontrol_since32.o(.constdata__ZTI20S60RadioTunerControl)
    typeinfo for S60RadioTunerService        0x00027530   Data          12  moc_s60radiotunerservice.o(.constdata__ZTI20S60RadioTunerService)
    typeinfo for MAudioLoadingObserver       0x0002753c   Data           8  moc_s60audioplayersession.o(.constdata__ZTI21MAudioLoadingObserver)
    typeinfo for MRadioFmTunerObserver       0x00027544   Data           8  moc_s60radiotunercontrol_since32.o(.constdata__ZTI21MRadioFmTunerObserver)
    typeinfo for MVideoLoadingObserver       0x0002754c   Data           8  moc_s60videoplayersession.o(.constdata__ZTI21MVideoLoadingObserver)
    typeinfo for S60AudioPlayerSession       0x00027554   Data          48  moc_s60audioplayersession.o(.constdata__ZTI21S60AudioPlayerSession)
    typeinfo for S60MediaPlayerControl       0x00027584   Data          12  moc_s60mediaplayercontrol.o(.constdata__ZTI21S60MediaPlayerControl)
    typeinfo for S60MediaPlayerService       0x00027590   Data          32  moc_s60mediaplayerservice.o(.constdata__ZTI21S60MediaPlayerService)
    typeinfo for S60MediaPlayerSession       0x000275b0   Data          12  moc_s60mediaplayersession.o(.constdata__ZTI21S60MediaPlayerSession)
    typeinfo for S60MediaServicePlugin       0x000275bc   Data          32  moc_s60mediaserviceplugin.o(.constdata__ZTI21S60MediaServicePlugin)
    typeinfo for S60MediaStreamControl       0x000275dc   Data          12  moc_s60mediastreamcontrol.o(.constdata__ZTI21S60MediaStreamControl)
    typeinfo for S60VideoPlayerSession       0x000275e8   Data          48  moc_s60videoplayersession.o(.constdata__ZTI21S60VideoPlayerSession)
    typeinfo for S60VideoWidgetControl       0x00027618   Data          12  moc_s60videowidgetcontrol.o(.constdata__ZTI21S60VideoWidgetControl)
    typeinfo for S60VideoWidgetDisplay       0x00027624   Data          12  moc_s60videowidgetdisplay.o(.constdata__ZTI21S60VideoWidgetDisplay)
    typeinfo for S60VideoWindowControl       0x00027630   Data          12  moc_s60videowindowcontrol.o(.constdata__ZTI21S60VideoWindowControl)
    typeinfo for S60VideoWindowDisplay       0x0002763c   Data          12  s60videowindowdisplay.o(.constdata__ZTI21S60VideoWindowDisplay)
    typeinfo for QGraphicsEffectPrivate      0x00027648   Data          12  s60videooutpututils.o(.constdata__ZTI22QGraphicsEffectPrivate)
    typeinfo for S60AudioCaptureService      0x00027654   Data          12  moc_s60audiocaptureservice.o(.constdata__ZTI22S60AudioCaptureService)
    typeinfo for S60AudioCaptureSession      0x00027660   Data          32  moc_s60audiocapturesession.o(.constdata__ZTI22S60AudioCaptureSession)
    typeinfo for S60AudioEncoderControl      0x00027680   Data          12  moc_s60audioencodercontrol.o(.constdata__ZTI22S60AudioEncoderControl)
    typeinfo for MMdaAudioPlayerCallback     0x0002768c   Data           8  moc_s60audioplayersession.o(.constdata__ZTI23MMdaAudioPlayerCallback)
    typeinfo for MS60MediaPlayerResolver     0x00027694   Data           8  moc_s60mediaplayerservice.o(.constdata__ZTI23MS60MediaPlayerResolver)
    typeinfo for S60AudioContainerControl    0x0002769c   Data          12  moc_S60audiocontainercontrol.o(.constdata__ZTI24S60AudioContainerControl)
    typeinfo for S60AudioEndpointSelector    0x000276a8   Data          12  moc_s60audioendpointselector.o(.constdata__ZTI24S60AudioEndpointSelector)
    typeinfo for S60MediaMetaDataProvider    0x000276b4   Data          12  moc_s60mediametadataprovider.o(.constdata__ZTI24S60MediaMetaDataProvider)
    typeinfo for QGraphicsBlurEffectPrivate  0x000276c0   Data          12  s60videooutpututils.o(.constdata__ZTI26QGraphicsBlurEffectPrivate)
    typeinfo for MVideoPlayerUtilityObserver 0x000276cc   Data           8  moc_s60videoplayersession.o(.constdata__ZTI27MVideoPlayerUtilityObserver)
    typeinfo for S60AudioMediaRecorderControl 0x000276d4   Data          12  moc_s60audiomediarecordercontrol.o(.constdata__ZTI28S60AudioMediaRecorderControl)
    typeinfo for MMdaObjectStateChangeObserver 0x000276e0   Data           8  moc_s60audiocapturesession.o(.constdata__ZTI29MMdaObjectStateChangeObserver)
    typeinfo for QGraphicsColorizeEffectPrivate 0x000276e8   Data          12  s60videooutpututils.o(.constdata__ZTI30QGraphicsColorizeEffectPrivate)
    typeinfo for QGraphicsDropShadowEffectPrivate 0x000276f4   Data          12  s60videooutpututils.o(.constdata__ZTI32QGraphicsDropShadowEffectPrivate)
    typeinfo for S60MediaPlayerAudioEndpointSelector 0x00027700   Data          12  moc_s60mediaplayeraudioendpointselector.o(.constdata__ZTI35S60MediaPlayerAudioEndpointSelector)
    typeinfo for QMediaServiceProviderFactoryInterface 0x0002770c   Data          12  s60mediaserviceplugin.o(.constdata__ZTI37QMediaServiceProviderFactoryInterface)
    typeinfo for QMediaServiceSupportedFormatsInterface 0x00027718   Data           8  moc_s60mediaserviceplugin.o(.constdata__ZTI38QMediaServiceSupportedFormatsInterface)
    typeinfo name for S60VideoWidget         0x00027720   Data          17  moc_s60videowidget.o(.constdata__ZTS14S60VideoWidget)
    typeinfo name for S60VideoDisplay        0x00027731   Data          18  moc_s60videodisplay.o(.constdata__ZTS15S60VideoDisplay)
    typeinfo name for S60VideoSurface        0x00027743   Data          18  moc_s60videosurface.o(.constdata__ZTS15S60VideoSurface)
    typeinfo name for QFactoryInterface      0x00027755   Data          20  s60mediaserviceplugin.o(.constdata__ZTS17QFactoryInterface)
    typeinfo name for S60MediaRecognizer     0x00027769   Data          21  moc_s60mediarecognizer.o(.constdata__ZTS18S60MediaRecognizer)
    typeinfo name for MAudioOutputObserver   0x0002777e   Data          23  moc_s60videoplayersession.o(.constdata__ZTS20MAudioOutputObserver)
    typeinfo name for MRadioPlayerObserver   0x00027795   Data          23  moc_s60radiotunercontrol_since32.o(.constdata__ZTS20MRadioPlayerObserver)
    typeinfo name for S60RadioTunerControl   0x000277ac   Data          23  moc_s60radiotunercontrol_since32.o(.constdata__ZTS20S60RadioTunerControl)
    typeinfo name for S60RadioTunerService   0x000277c3   Data          23  moc_s60radiotunerservice.o(.constdata__ZTS20S60RadioTunerService)
    typeinfo name for MAudioLoadingObserver  0x000277da   Data          24  moc_s60audioplayersession.o(.constdata__ZTS21MAudioLoadingObserver)
    typeinfo name for MRadioFmTunerObserver  0x000277f2   Data          24  moc_s60radiotunercontrol_since32.o(.constdata__ZTS21MRadioFmTunerObserver)
    typeinfo name for MVideoLoadingObserver  0x0002780a   Data          24  moc_s60videoplayersession.o(.constdata__ZTS21MVideoLoadingObserver)
    typeinfo name for S60AudioPlayerSession  0x00027822   Data          24  moc_s60audioplayersession.o(.constdata__ZTS21S60AudioPlayerSession)
    typeinfo name for S60MediaPlayerControl  0x0002783a   Data          24  moc_s60mediaplayercontrol.o(.constdata__ZTS21S60MediaPlayerControl)
    typeinfo name for S60MediaPlayerService  0x00027852   Data          24  moc_s60mediaplayerservice.o(.constdata__ZTS21S60MediaPlayerService)
    typeinfo name for S60MediaPlayerSession  0x0002786a   Data          24  moc_s60mediaplayersession.o(.constdata__ZTS21S60MediaPlayerSession)
    typeinfo name for S60MediaServicePlugin  0x00027882   Data          24  moc_s60mediaserviceplugin.o(.constdata__ZTS21S60MediaServicePlugin)
    typeinfo name for S60MediaStreamControl  0x0002789a   Data          24  moc_s60mediastreamcontrol.o(.constdata__ZTS21S60MediaStreamControl)
    typeinfo name for S60VideoPlayerSession  0x000278b2   Data          24  moc_s60videoplayersession.o(.constdata__ZTS21S60VideoPlayerSession)
    typeinfo name for S60VideoWidgetControl  0x000278ca   Data          24  moc_s60videowidgetcontrol.o(.constdata__ZTS21S60VideoWidgetControl)
    typeinfo name for S60VideoWidgetDisplay  0x000278e2   Data          24  moc_s60videowidgetdisplay.o(.constdata__ZTS21S60VideoWidgetDisplay)
    typeinfo name for S60VideoWindowControl  0x000278fa   Data          24  moc_s60videowindowcontrol.o(.constdata__ZTS21S60VideoWindowControl)
    typeinfo name for S60VideoWindowDisplay  0x00027912   Data          24  s60videowindowdisplay.o(.constdata__ZTS21S60VideoWindowDisplay)
    typeinfo name for QGraphicsEffectPrivate 0x0002792a   Data          25  s60videooutpututils.o(.constdata__ZTS22QGraphicsEffectPrivate)
    typeinfo name for S60AudioCaptureService 0x00027943   Data          25  moc_s60audiocaptureservice.o(.constdata__ZTS22S60AudioCaptureService)
    typeinfo name for S60AudioCaptureSession 0x0002795c   Data          25  moc_s60audiocapturesession.o(.constdata__ZTS22S60AudioCaptureSession)
    typeinfo name for S60AudioEncoderControl 0x00027975   Data          25  moc_s60audioencodercontrol.o(.constdata__ZTS22S60AudioEncoderControl)
    typeinfo name for MMdaAudioPlayerCallback 0x0002798e   Data          26  moc_s60audioplayersession.o(.constdata__ZTS23MMdaAudioPlayerCallback)
    typeinfo name for MS60MediaPlayerResolver 0x000279a8   Data          26  moc_s60mediaplayerservice.o(.constdata__ZTS23MS60MediaPlayerResolver)
    typeinfo name for S60AudioContainerControl 0x000279c2   Data          27  moc_S60audiocontainercontrol.o(.constdata__ZTS24S60AudioContainerControl)
    typeinfo name for S60AudioEndpointSelector 0x000279dd   Data          27  moc_s60audioendpointselector.o(.constdata__ZTS24S60AudioEndpointSelector)
    typeinfo name for S60MediaMetaDataProvider 0x000279f8   Data          27  moc_s60mediametadataprovider.o(.constdata__ZTS24S60MediaMetaDataProvider)
    typeinfo name for QGraphicsBlurEffectPrivate 0x00027a13   Data          29  s60videooutpututils.o(.constdata__ZTS26QGraphicsBlurEffectPrivate)
    typeinfo name for MVideoPlayerUtilityObserver 0x00027a30   Data          30  moc_s60videoplayersession.o(.constdata__ZTS27MVideoPlayerUtilityObserver)
    typeinfo name for S60AudioMediaRecorderControl 0x00027a4e   Data          31  moc_s60audiomediarecordercontrol.o(.constdata__ZTS28S60AudioMediaRecorderControl)
    typeinfo name for MMdaObjectStateChangeObserver 0x00027a6d   Data          32  moc_s60audiocapturesession.o(.constdata__ZTS29MMdaObjectStateChangeObserver)
    typeinfo name for QGraphicsColorizeEffectPrivate 0x00027a8d   Data          33  s60videooutpututils.o(.constdata__ZTS30QGraphicsColorizeEffectPrivate)
    typeinfo name for QGraphicsDropShadowEffectPrivate 0x00027aae   Data          35  s60videooutpututils.o(.constdata__ZTS32QGraphicsDropShadowEffectPrivate)
    typeinfo name for S60MediaPlayerAudioEndpointSelector 0x00027ad1   Data          38  moc_s60mediaplayeraudioendpointselector.o(.constdata__ZTS35S60MediaPlayerAudioEndpointSelector)
    typeinfo name for QMediaServiceProviderFactoryInterface 0x00027af7   Data          40  s60mediaserviceplugin.o(.constdata__ZTS37QMediaServiceProviderFactoryInterface)
    typeinfo name for QMediaServiceSupportedFormatsInterface 0x00027b1f   Data          41  moc_s60mediaserviceplugin.o(.constdata__ZTS38QMediaServiceSupportedFormatsInterface)
    vtable for S60VideoWidget                0x00027b48   Data         248  moc_s60videowidget.o(.constdata__ZTV14S60VideoWidget)
    vtable for S60VideoDisplay               0x00027c40   Data          68  moc_s60videodisplay.o(.constdata__ZTV15S60VideoDisplay)
    vtable for S60VideoSurface               0x00027c84   Data          80  moc_s60videosurface.o(.constdata__ZTV15S60VideoSurface)
    vtable for QFactoryInterface             0x00027cd4   Data          20  s60mediaserviceplugin.o(.constdata__ZTV17QFactoryInterface)
    vtable for S60MediaRecognizer            0x00027ce8   Data          56  moc_s60mediarecognizer.o(.constdata__ZTV18S60MediaRecognizer)
    vtable for MAudioOutputObserver          0x00027d20   Data          12  s60videoplayersession.o(.constdata__ZTV20MAudioOutputObserver)
    vtable for MRadioPlayerObserver          0x00027d2c   Data          24  s60radiotunercontrol_since32.o(.constdata__ZTV20MRadioPlayerObserver)
    vtable for S60RadioTunerControl          0x00027d44   Data         296  moc_s60radiotunercontrol_since32.o(.constdata__ZTV20S60RadioTunerControl)
    vtable for S60RadioTunerService          0x00027e6c   Data          64  moc_s60radiotunerservice.o(.constdata__ZTV20S60RadioTunerService)
    vtable for MAudioLoadingObserver         0x00027eac   Data          16  s60audioplayersession.o(.constdata__ZTV21MAudioLoadingObserver)
    vtable for MRadioFmTunerObserver         0x00027ebc   Data          52  s60radiotunercontrol_since32.o(.constdata__ZTV21MRadioFmTunerObserver)
    vtable for MVideoLoadingObserver         0x00027ef0   Data          16  s60videoplayersession.o(.constdata__ZTV21MVideoLoadingObserver)
    vtable for S60AudioPlayerSession         0x00027f00   Data         204  moc_s60audioplayersession.o(.constdata__ZTV21S60AudioPlayerSession)
    vtable for S60MediaPlayerControl         0x00027fcc   Data         144  moc_s60mediaplayercontrol.o(.constdata__ZTV21S60MediaPlayerControl)
    vtable for S60MediaPlayerService         0x0002805c   Data          96  moc_s60mediaplayerservice.o(.constdata__ZTV21S60MediaPlayerService)
    vtable for S60MediaPlayerSession         0x000280bc   Data         140  moc_s60mediaplayersession.o(.constdata__ZTV21S60MediaPlayerSession)
    vtable for S60MediaServicePlugin         0x00028148   Data         128  moc_s60mediaserviceplugin.o(.constdata__ZTV21S60MediaServicePlugin)
    vtable for S60MediaStreamControl         0x000281c8   Data          76  moc_s60mediastreamcontrol.o(.constdata__ZTV21S60MediaStreamControl)
    vtable for S60VideoPlayerSession         0x00028214   Data         228  moc_s60videoplayersession.o(.constdata__ZTV21S60VideoPlayerSession)
    vtable for S60VideoWidgetControl         0x000282f8   Data         108  moc_s60videowidgetcontrol.o(.constdata__ZTV21S60VideoWidgetControl)
    vtable for S60VideoWidgetDisplay         0x00028364   Data          68  moc_s60videowidgetdisplay.o(.constdata__ZTV21S60VideoWidgetDisplay)
    vtable for S60VideoWindowControl         0x000283a8   Data         128  moc_s60videowindowcontrol.o(.constdata__ZTV21S60VideoWindowControl)
    vtable for S60VideoWindowDisplay         0x00028428   Data          68  s60videowindowdisplay.o(.constdata__ZTV21S60VideoWindowDisplay)
    vtable for S60AudioCaptureService        0x0002846c   Data          64  moc_s60audiocaptureservice.o(.constdata__ZTV22S60AudioCaptureService)
    vtable for S60AudioCaptureSession        0x000284ac   Data          72  moc_s60audiocapturesession.o(.constdata__ZTV22S60AudioCaptureSession)
    vtable for S60AudioEncoderControl        0x000284f4   Data          88  moc_s60audioencodercontrol.o(.constdata__ZTV22S60AudioEncoderControl)
    vtable for MMdaAudioPlayerCallback       0x0002854c   Data          16  s60audioplayersession.o(.constdata__ZTV23MMdaAudioPlayerCallback)
    vtable for MS60MediaPlayerResolver       0x0002855c   Data          20  s60mediaplayerservice.o(.constdata__ZTV23MS60MediaPlayerResolver)
    vtable for S60AudioContainerControl      0x00028570   Data          72  moc_S60audiocontainercontrol.o(.constdata__ZTV24S60AudioContainerControl)
    vtable for S60AudioEndpointSelector      0x000285b8   Data          76  moc_s60audioendpointselector.o(.constdata__ZTV24S60AudioEndpointSelector)
    vtable for S60MediaMetaDataProvider      0x00028604   Data          76  moc_s60mediametadataprovider.o(.constdata__ZTV24S60MediaMetaDataProvider)
    vtable for QGraphicsBlurEffectPrivate    0x00028650   Data          16  s60videooutpututils.o(.constdata__ZTV26QGraphicsBlurEffectPrivate)
    vtable for MVideoPlayerUtilityObserver   0x00028660   Data          28  s60videoplayersession.o(.constdata__ZTV27MVideoPlayerUtilityObserver)
    vtable for S60AudioMediaRecorderControl  0x0002867c   Data          96  moc_s60audiomediarecordercontrol.o(.constdata__ZTV28S60AudioMediaRecorderControl)
    vtable for MMdaObjectStateChangeObserver 0x000286dc   Data          12  s60audiocapturesession.o(.constdata__ZTV29MMdaObjectStateChangeObserver)
    vtable for QGraphicsColorizeEffectPrivate 0x000286e8   Data          16  s60videooutpututils.o(.constdata__ZTV30QGraphicsColorizeEffectPrivate)
    vtable for QGraphicsDropShadowEffectPrivate 0x000286f8   Data          16  s60videooutpututils.o(.constdata__ZTV32QGraphicsDropShadowEffectPrivate)
    vtable for S60MediaPlayerAudioEndpointSelector 0x00028708   Data          76  moc_s60mediaplayeraudioendpointselector.o(.constdata__ZTV35S60MediaPlayerAudioEndpointSelector)
    vtable for QMediaServiceProviderFactoryInterface 0x00028754   Data          28  s60mediaserviceplugin.o(.constdata__ZTV37QMediaServiceProviderFactoryInterface)
    vtable for QMediaServiceSupportedFormatsInterface 0x00028770   Data          24  s60mediaserviceplugin.o(.constdata__ZTV38QMediaServiceSupportedFormatsInterface)
    SHT$$INIT_ARRAY$$Base                    0x00028788   Number         0  s60audiocapturesession.o(.init_array)
    .ARM.exidx$$Base                         0x00028790   Number         0  ucppinit.o(.ARM.exidx)
    SHT$$INIT_ARRAY$$Limit                   0x00028790   Data           0  s60videoplayersession.o(.init_array)
    .ARM.exidx$$Limit                        0x00029e28   Number         0  s60audiocapturesession.o(.ARM.exidx)
    Image$$ER_RO$$Limit                      0x00029e28   Number         0  anon$$obj.o(linker$$defined$$symbols)
    S60AudioCaptureSession::microPhone       0x00400008   Data           4  s60audiocapturesession.o(.data)
    S60AudioCaptureSession::voiceCall        0x0040000c   Data           4  s60audiocapturesession.o(.data)
    S60AudioCaptureSession::fmRadio          0x00400010   Data           4  s60audiocapturesession.o(.data)
    __dso_handle                             0x00400018   Data           4  ucppfini.o(.data)
    std::_Atomic_swap_struct<(int)1>::_S_swap_lock 0x0040001c   Data          12  moc_s60videodisplay.o(.data__ZNSt19_Atomic_swap_structILi1EE12_S_swap_lockE)
    dtor_rec                                 0x00400028   Data        2048  ucppfini.o(.bss)

