ARM Linker, RVCT2.2 [Build 686]

================================================================================

Image Symbol Table

    Local Symbols

    Symbol Name                              Value     Ov Type        Size  Object(Section)

    ../../unhosted.s                         0x00000000   Number         0  switch8.o ABSOLUTE
    M:\\epoc32\\build\\euser\\c_e18a23aea4fd210f\\edll_lib\\armv5\\udeb\\uc_dll_.cpp 0x00000000   Number         0  uc_dll_.o ABSOLUTE
    M:\\sf\\os\\kernelhwsrv\\kernel\\eka\\compsupp\\rvct\\ucppinit.cpp 0x00000000   Number         0  ucppinit.o ABSOLUTE
    M:\epoc32\build\euser\c_e18a23aea4fd210f\edll_lib\armv5\udeb\uc_dll_.cpp 0x00000000   Number         0  uc_dll_.o ABSOLUTE
    M:\sf\os\kernelhwsrv\kernel\eka\compsupp\rvct\dllexp.cpp 0x00000000   Number         0  dllexp.o ABSOLUTE
    M:\sf\os\kernelhwsrv\kernel\eka\compsupp\rvct\ucppfini.cpp 0x00000000   Number         0  ucppfini.o ABSOLUTE
    M:\sf\os\kernelhwsrv\kernel\eka\compsupp\rvct\ucppinit.cpp 0x00000000   Number         0  ucppinit.o ABSOLUTE
    M:\sf\os\kernelhwsrv\kernel\eka\euser\epoc\arm\uc_dll.cpp 0x00000000   Number         0  uc_dll.o ABSOLUTE
    S:\sf\mw\qt\src\openvg\qpaintengine_vg.cpp 0x00000000   Number         0  qpaintengine_vg.o ABSOLUTE
    S:\sf\mw\qt\src\openvg\qpixmapdata_vg.cpp 0x00000000   Number         0  qpixmapdata_vg.o ABSOLUTE
    S:\sf\mw\qt\src\openvg\qpixmapfilter_vg.cpp 0x00000000   Number         0  qpixmapfilter_vg.o ABSOLUTE
    S:\sf\mw\qt\src\openvg\qvg_symbian.cpp   0x00000000   Number         0  qvg_symbian.o ABSOLUTE
    S:\sf\mw\qt\src\openvg\qvgimagepool.cpp  0x00000000   Number         0  qvgimagepool.o ABSOLUTE
    S:\sf\mw\qt\src\openvg\qwindowsurface_vg.cpp 0x00000000   Number         0  qwindowsurface_vg.o ABSOLUTE
    S:\sf\mw\qt\src\openvg\qwindowsurface_vgegl.cpp 0x00000000   Number         0  qwindowsurface_vgegl.o ABSOLUTE
    S:\sf\mw\qt\src\openvg\tmp\moc\debug_shared\moc_qpixmapfilter_vg_p.cpp 0x00000000   Number         0  moc_qpixmapfilter_vg_p.o ABSOLUTE
    .emb_text                                0x00008000   Section       40  uc_dll_.o(.emb_text)
    Symbian$$eit_base                        0x00008014   Data           4  uc_dll_.o(.emb_text)
    Symbian$$eit_limit                       0x00008018   Data           4  uc_dll_.o(.emb_text)
    Symbian$$code_seg_base                   0x0000801c   Data           4  uc_dll_.o(.emb_text)
    Symbian$$code_seg_limit                  0x00008020   Data           4  uc_dll_.o(.emb_text)
    Symbian$$reserved                        0x00008024   Data           4  uc_dll_.o(.emb_text)
    .emb_text                                0x00008028   Section       52  ucppinit.o(.emb_text)
    loop                                     0x0000803c   ARM Code       0  ucppinit.o(.emb_text)
    ret                                      0x00008044   ARM Code       0  ucppinit.o(.emb_text)
    base                                     0x00008054   Data           0  ucppinit.o(.emb_text)
    limit                                    0x00008058   Data           0  ucppinit.o(.emb_text)
    qFuzzyCompare(float, float)              0x00008c0d   Thumb Code    76  qpaintengine_vg.o(.text)
    .text                                    0x00008c0c   Section    28272  qpaintengine_vg.o(.text)
    colorizeBitmap(const QImage&, const QColor&) 0x00008c59   Thumb Code   212  qpaintengine_vg.o(.text)
    toVGImage(const QImage&, QFlags<Qt::ImageConversionFlag>) 0x00008d2d   Thumb Code   268  qpaintengine_vg.o(.text)
    toVGImageSubRect(const QImage&, const QRect&, QFlags<Qt::ImageConversionFlag>) 0x00008e39   Thumb Code   292  qpaintengine_vg.o(.text)
    toVGImageWithOpacity(const QImage&, float) 0x00008f5d   Thumb Code   228  qpaintengine_vg.o(.text)
    toVGImageWithOpacitySubRect(const QImage&, float, const QRect&) 0x00009041   Thumb Code   290  qpaintengine_vg.o(.text)
    clipTransformIsSimple(const QTransform&) 0x00009163   Thumb Code   216  qpaintengine_vg.o(.text)
    drawVGImage(QVGPaintEnginePrivate*, const QRectF&, unsigned long, const QSize&, const QRectF&) 0x00009339   Thumb Code   316  qpaintengine_vg.o(.text)
    drawVGImage(QVGPaintEnginePrivate*, const QPointF&, unsigned long) 0x00009475   Thumb Code    72  qpaintengine_vg.o(.text)
    |L1.3544|                                0x000099e4   Data           0  qpaintengine_vg.o(.text)
    |L1.3700|                                0x00009a80   Data           0  qpaintengine_vg.o(.text)
    fillBackgroundRect(const QRect&, QVGPaintEnginePrivate*) 0x00009db9   Thumb Code   128  qpaintengine_vg.o(.text)
    qIsNull(float)                           0x0000fa65   Thumb Code    20  qpaintengine_vg.o(.text)
    .text                                    0x0000fa7c   Section     2900  qpixmapdata_vg.o(.text)
    qFuzzyCompare(float, float)              0x000105d1   Thumb Code    84  qpixmapfilter_vg.o(.text)
    .text                                    0x000105d0   Section     2708  qpixmapfilter_vg.o(.text)
    qIsNull(float)                           0x0001103d   Thumb Code    20  qpixmapfilter_vg.o(.text)
    .text                                    0x00011064   Section      768  qvgimagepool.o(.text)
    .text                                    0x00011364   Section      604  qwindowsurface_vg.o(.text)
    .text                                    0x000115c0   Section     3388  qwindowsurface_vgegl.o(.text)
    isPremultipliedContext(const QEglContext*) 0x00011681   Thumb Code    22  qwindowsurface_vgegl.o(.text)
    sharedContext()                          0x0001176f   Thumb Code   166  qwindowsurface_vgegl.o(.text)
    createContext(QPaintDevice*)             0x00011897   Thumb Code   652  qwindowsurface_vgegl.o(.text)
    qt_vg_destroy_shared_context(QVGSharedContext*) 0x00011b59   Thumb Code    90  qwindowsurface_vgegl.o(.text)
    createBlitCopy(CFbsBitmap*)              0x000122fd   Thumb Code   310  qvg_symbian.o(.text)
    .text                                    0x000122fc   Section     1068  qvg_symbian.o(.text)
    .text                                    0x00012728   Section      468  moc_qpixmapfilter_vg_p.o(.text)
    .text                                    0x000128fc   Section       24  switch8.o(.text)
    .text                                    0x00012914   Section       80  uc_dll.o(.text)
    .text                                    0x00012964   Section      180  ucppfini.o(.text)
    .text                                    0x00012a18   Section        4  dllexp.o(.text)
    .text.clean                              0x00012a1c   Section     1220  qpaintengine_vg.o(.text.clean)
    .text.clean                              0x00012ee0   Section      200  qpixmapdata_vg.o(.text.clean)
    .text.clean                              0x00012fa8   Section       20  qpixmapfilter_vg.o(.text.clean)
    .text.clean                              0x00012fbc   Section       18  qvgimagepool.o(.text.clean)
    .text.clean                              0x00012fce   Section       64  qwindowsurface_vg.o(.text.clean)
    .text.clean                              0x00013010   Section      124  qwindowsurface_vgegl.o(.text.clean)
    .text.clean                              0x0001308c   Section       78  qvg_symbian.o(.text.clean)
    i._Z5qGrayj                              0x000130da   Section       48  qpixmapdata_vg.o(i._Z5qGrayj)
    i._Z6qRoundf                             0x0001310c   Section      156  qpaintengine_vg.o(i._Z6qRoundf)
    i._Z8qWarningv                           0x000131a8   Section      108  qpaintengine_vg.o(i._Z8qWarningv)
    i._Z8qWarningv.clean                     0x00013214   Section       24  qpaintengine_vg.o(i._Z8qWarningv.clean)
    i._ZN10QByteArrayD1Ev                    0x0001322c   Section       24  qpaintengine_vg.o(i._ZN10QByteArrayD1Ev)
    i._ZN10QTransformC1ERKS_                 0x00013244   Section       76  qpaintengine_vg.o(i._ZN10QTransformC1ERKS_)
    i._ZN11QFontEngine10PropertiesD1Ev       0x00013290   Section       22  qpaintengine_vg.o(i._ZN11QFontEngine10PropertiesD1Ev)
    i._ZN11QFontEngine10PropertiesD1Ev.clean 0x000132a6   Section       10  qpaintengine_vg.o(i._ZN11QFontEngine10PropertiesD1Ev.clean)
    i._ZN13QPainterStateC1ERKS_              0x000132b0   Section      416  qpaintengine_vg.o(i._ZN13QPainterStateC1ERKS_)
    i._ZN13QPainterStateC1ERKS_.clean        0x00013450   Section       96  qpaintengine_vg.o(i._ZN13QPainterStateC1ERKS_.clean)
    i._ZN14QEglPropertiesD1Ev                0x000134b0   Section       14  qwindowsurface_vgegl.o(i._ZN14QEglPropertiesD1Ev)
    i._ZN14QPaintEngineEx4syncEv             0x000134be   Section        2  qpaintengine_vg.o(i._ZN14QPaintEngineEx4syncEv)
    i._ZN14QPaintEngineExD2Ev                0x000134c0   Section       14  qpaintengine_vg.o(i._ZN14QPaintEngineExD2Ev)
    i._ZN14QVGPaintEngine5stateEv            0x000134ce   Section       20  qpaintengine_vg.o(i._ZN14QVGPaintEngine5stateEv)
    i._ZN15QBasicAtomicInt3refEv             0x000134e2   Section       24  qpaintengine_vg.o(i._ZN15QBasicAtomicInt3refEv)
    i._ZN15QBasicAtomicInt5derefEv           0x000134fa   Section       24  qpaintengine_vg.o(i._ZN15QBasicAtomicInt5derefEv)
    i._ZN15QtSharedPointer20ExternalRefCountData7destroyEv 0x00013512   Section        6  qpaintengine_vg.o(i._ZN15QtSharedPointer20ExternalRefCountData7destroyEv)
    i._ZN15QtSharedPointer20ExternalRefCountDataD0Ev 0x00013518   Section       22  qpaintengine_vg.o(i._ZN15QtSharedPointer20ExternalRefCountDataD0Ev)
    i._ZN15QtSharedPointer20ExternalRefCountDataD1Ev 0x00013530   Section      108  qpaintengine_vg.o(i._ZN15QtSharedPointer20ExternalRefCountDataD1Ev)
    i._ZN16QPainterClipInfoC1ERKS_           0x0001359c   Section       80  qpaintengine_vg.o(i._ZN16QPainterClipInfoC1ERKS_)
    i._ZN16QPainterClipInfoC1ERKS_.clean     0x000135ec   Section       12  qpaintengine_vg.o(i._ZN16QPainterClipInfoC1ERKS_.clean)
    i._ZN16QPainterClipInfoD1Ev              0x000135f8   Section       32  qpaintengine_vg.o(i._ZN16QPainterClipInfoD1Ev)
    i._ZN16QPainterClipInfoD1Ev.clean        0x00013618   Section       12  qpaintengine_vg.o(i._ZN16QPainterClipInfoD1Ev.clean)
    i._ZN19QPaintEnginePrivate18systemStateChangedEv 0x00013624   Section        2  qpaintengine_vg.o(i._ZN19QPaintEnginePrivate18systemStateChangedEv)
    i._ZN19QPaintEnginePrivateD0Ev           0x00013626   Section       22  qpaintengine_vg.o(i._ZN19QPaintEnginePrivateD0Ev)
    i._ZN19QPaintEnginePrivateD1Ev           0x0001363c   Section       40  qpaintengine_vg.o(i._ZN19QPaintEnginePrivateD1Ev)
    i._ZN19QPaintEnginePrivateD1Ev.clean     0x00013664   Section       12  qpaintengine_vg.o(i._ZN19QPaintEnginePrivateD1Ev.clean)
    i._ZN21QVGPaintEnginePrivate11ensureBrushERK6QBrush 0x00013670   Section      132  qpaintengine_vg.o(i._ZN21QVGPaintEnginePrivate11ensureBrushERK6QBrush)
    i._ZN21QVGPaintEnginePrivate11setFillRuleEl 0x000136f4   Section       36  qpaintengine_vg.o(i._ZN21QVGPaintEnginePrivate11setFillRuleEl)
    i._ZN21QVGPaintEnginePrivate12setBlendModeE11VGBlendMode 0x00013718   Section       40  qpaintengine_vg.o(i._ZN21QVGPaintEnginePrivate12setBlendModeE11VGBlendMode)
    i._ZN21QVGPaintEnginePrivate12setImageModeE11VGImageMode 0x00013740   Section       40  qpaintengine_vg.o(i._ZN21QVGPaintEnginePrivate12setImageModeE11VGImageMode)
    i._ZN21QVGPaintEnginePrivate15setImageQualityE14VGImageQuality 0x00013768   Section       40  qpaintengine_vg.o(i._ZN21QVGPaintEnginePrivate15setImageQualityE14VGImageQuality)
    i._ZN21QVGPaintEnginePrivate19ensurePathTransformEv 0x00013790   Section      160  qpaintengine_vg.o(i._ZN21QVGPaintEnginePrivate19ensurePathTransformEv)
    i._ZN21QVGPaintEnginePrivate19ensurePathTransformEv.clean 0x00013830   Section       14  qpaintengine_vg.o(i._ZN21QVGPaintEnginePrivate19ensurePathTransformEv.clean)
    i._ZN21QVGPaintEnginePrivate9ensurePenERK4QPen 0x00013840   Section      112  qpaintengine_vg.o(i._ZN21QVGPaintEnginePrivate9ensurePenERK4QPen)
    i._ZN21QVGPaintEnginePrivate9ensurePenERK4QPen.clean 0x000138b0   Section       10  qpaintengine_vg.o(i._ZN21QVGPaintEnginePrivate9ensurePenERK4QPen.clean)
    i._ZN22QGraphicsEffectPrivateD1Ev        0x000138ba   Section       14  qwindowsurface_vg.o(i._ZN22QGraphicsEffectPrivateD1Ev)
    i._ZN24QSymbianVGFontGlyphCacheD0Ev      0x000138c8   Section       24  qvg_symbian.o(i._ZN24QSymbianVGFontGlyphCacheD0Ev)
    i._ZN24QSymbianVGFontGlyphCacheD1Ev      0x000138e0   Section       14  qvg_symbian.o(i._ZN24QSymbianVGFontGlyphCacheD1Ev)
    i._ZN26QGraphicsBlurEffectPrivateD0Ev    0x000138ee   Section       22  qwindowsurface_vg.o(i._ZN26QGraphicsBlurEffectPrivateD0Ev)
    i._ZN26QGraphicsBlurEffectPrivateD1Ev    0x00013904   Section       40  qwindowsurface_vg.o(i._ZN26QGraphicsBlurEffectPrivateD1Ev)
    i._ZN26QGraphicsBlurEffectPrivateD1Ev.clean 0x0001392c   Section       10  qwindowsurface_vg.o(i._ZN26QGraphicsBlurEffectPrivateD1Ev.clean)
    i._ZN26QVGEGLWindowSurfacePrivate6scrollEP7QWidgetRK7QRegionii 0x00013936   Section       10  qwindowsurface_vgegl.o(i._ZN26QVGEGLWindowSurfacePrivate6scrollEP7QWidgetRK7QRegionii)
    i._ZN30QGraphicsColorizeEffectPrivateD0Ev 0x00013940   Section       22  qwindowsurface_vg.o(i._ZN30QGraphicsColorizeEffectPrivateD0Ev)
    i._ZN30QGraphicsColorizeEffectPrivateD1Ev 0x00013958   Section       40  qwindowsurface_vg.o(i._ZN30QGraphicsColorizeEffectPrivateD1Ev)
    i._ZN30QGraphicsColorizeEffectPrivateD1Ev.clean 0x00013980   Section       10  qwindowsurface_vg.o(i._ZN30QGraphicsColorizeEffectPrivateD1Ev.clean)
    i._ZN32QGraphicsDropShadowEffectPrivateD0Ev 0x0001398a   Section       22  qwindowsurface_vg.o(i._ZN32QGraphicsDropShadowEffectPrivateD0Ev)
    i._ZN32QGraphicsDropShadowEffectPrivateD1Ev 0x000139a0   Section       40  qwindowsurface_vg.o(i._ZN32QGraphicsDropShadowEffectPrivateD1Ev)
    i._ZN32QGraphicsDropShadowEffectPrivateD1Ev.clean 0x000139c8   Section       10  qwindowsurface_vg.o(i._ZN32QGraphicsDropShadowEffectPrivateD1Ev.clean)
    i._ZN4QSetIjED1Ev                        0x000139d2   Section       14  qpaintengine_vg.o(i._ZN4QSetIjED1Ev)
    i._ZN5CBasenwEj                          0x000139e0   Section       16  qvg_symbian.o(i._ZN5CBasenwEj)
    i._ZN5QRectC1ERKS_                       0x000139f0   Section       18  qpaintengine_vg.o(i._ZN5QRectC1ERKS_)
    i._ZN5QRectC1Eiiii                       0x00013a02   Section       22  qpaintengine_vg.o(i._ZN5QRectC1Eiiii)
    i._ZN5QRectC1Ev                          0x00013a18   Section       14  qpaintengine_vg.o(i._ZN5QRectC1Ev)
    i._ZN6QColorC1ERKS_                      0x00013a26   Section       24  qpaintengine_vg.o(i._ZN6QColorC1ERKS_)
    i._ZN6QDebug10maybeSpaceEv               0x00013a3e   Section       24  qpaintengine_vg.o(i._ZN6QDebug10maybeSpaceEv)
    i._ZN6QDebugD1Ev                         0x00013a56   Section      144  qpaintengine_vg.o(i._ZN6QDebugD1Ev)
    i._ZN6QDebugD1Ev.clean                   0x00013ae6   Section       20  qpaintengine_vg.o(i._ZN6QDebugD1Ev.clean)
    i._ZN6QDebuglsEPKc                       0x00013afa   Section       44  qpaintengine_vg.o(i._ZN6QDebuglsEPKc)
    i._ZN6QDebuglsEPKc.clean                 0x00013b26   Section       10  qpaintengine_vg.o(i._ZN6QDebuglsEPKc.clean)
    i._ZN6QRectFC1ERK5QRect                  0x00013b30   Section       70  qpaintengine_vg.o(i._ZN6QRectFC1ERK5QRect)
    i._ZN6QRectFC1Effff                      0x00013b76   Section       14  qpaintengine_vg.o(i._ZN6QRectFC1Effff)
    i._ZN6QSizeFC1ERK5QSize                  0x00013b84   Section       34  qpaintengine_vg.o(i._ZN6QSizeFC1ERK5QSize)
    i._ZN7QPointFC1ERK6QPoint                0x00013ba6   Section       34  qpaintengine_vg.o(i._ZN7QPointFC1ERK6QPoint)
    i._ZN7QStringD1Ev                        0x00013bc8   Section       24  qpaintengine_vg.o(i._ZN7QStringD1Ev)
    i._ZN8QPainter9drawImageEiiRK6QImageiiii6QFlagsIN2Qt19ImageConversionFlagEE 0x00013be0   Section      192  qpaintengine_vg.o(i._ZN8QPainter9drawImageEiiRK6QImageiiii6QFlagsIN2Qt19ImageConversionFlagEE)
    i._ZN8QPolygonD1Ev                       0x00013ca0   Section       14  qpaintengine_vg.o(i._ZN8QPolygonD1Ev)
    i._ZN9QHashData8willGrowEv               0x00013cae   Section       32  qpaintengine_vg.o(i._ZN9QHashData8willGrowEv)
    i._ZN9QPolygonFD1Ev                      0x00013cce   Section       14  qpaintengine_vg.o(i._ZN9QPolygonFD1Ev)
    i._ZNK10QByteArray7isEmptyEv             0x00013cdc   Section       18  qwindowsurface_vgegl.o(i._ZNK10QByteArray7isEmptyEv)
    i._ZNK11QPixmapData11runtimeDataEv       0x00013cee   Section        6  qpixmapdata_vg.o(i._ZNK11QPixmapData11runtimeDataEv)
    i._ZNK11QVectorPath20convertToPainterPathEv 0x00013cf4   Section      276  qpaintengine_vg.o(i._ZNK11QVectorPath20convertToPainterPathEv)
    i._ZNK11QVectorPath20convertToPainterPathEv.clean 0x00013e08   Section       10  qpaintengine_vg.o(i._ZNK11QVectorPath20convertToPainterPathEv.clean)
    i._ZNK12QPaintDevice5widthEv             0x00013e12   Section       16  qpaintengine_vg.o(i._ZNK12QPaintDevice5widthEv)
    i._ZNK12QPaintDevice6heightEv            0x00013e22   Section       16  qpaintengine_vg.o(i._ZNK12QPaintDevice6heightEv)
    i._ZNK12QPaintDevice7devTypeEv           0x00013e32   Section        6  qwindowsurface_vg.o(i._ZNK12QPaintDevice7devTypeEv)
    i._ZNK12QPainterPath12elementCountEv     0x00013e38   Section       54  qpaintengine_vg.o(i._ZNK12QPainterPath12elementCountEv)
    i._ZNK12QPainterPath9elementAtEi         0x00013e70   Section      324  qpaintengine_vg.o(i._ZNK12QPainterPath9elementAtEi)
    i._ZNK14QPaintEngineEx5flagsEv           0x00013fb4   Section        6  qpaintengine_vg.o(i._ZNK14QPaintEngineEx5flagsEv)
    i._ZNK14QVGPaintEngine4typeEv            0x00013fba   Section        6  qpaintengine_vg.o(i._ZNK14QVGPaintEngine4typeEv)
    i._ZNK15QBasicAtomicInteqEi              0x00013fc0   Section       16  qpaintengine_vg.o(i._ZNK15QBasicAtomicInteqEi)
    i._ZNK15QBasicAtomicIntneEi              0x00013fd0   Section       16  qpaintengine_vg.o(i._ZNK15QBasicAtomicIntneEi)
    i._ZNK25QVGEGLWindowSurfaceDirect11surfaceSizeEv 0x00013fe0   Section       10  qwindowsurface_vgegl.o(i._ZNK25QVGEGLWindowSurfaceDirect11surfaceSizeEv)
    i._ZNK26QVGEGLWindowSurfacePrivate22supportsStaticContentsEv 0x00013fea   Section        6  qwindowsurface_vgegl.o(i._ZNK26QVGEGLWindowSurfacePrivate22supportsStaticContentsEv)
    i._ZNK26QVGEGLWindowSurfaceVGImage11surfaceSizeEv 0x00013ff0   Section       10  qwindowsurface_vgegl.o(i._ZNK26QVGEGLWindowSurfaceVGImage11surfaceSizeEv)
    i._ZNK4QPenneERKS_                       0x00013ffa   Section       20  qpaintengine_vg.o(i._ZNK4QPenneERKS_)
    i._ZNK5QRect4sizeEv                      0x0001400e   Section       38  qpaintengine_vg.o(i._ZNK5QRect4sizeEv)
    i._ZNK5QRect5widthEv                     0x00014034   Section       12  qpaintengine_vg.o(i._ZNK5QRect5widthEv)
    i._ZNK5QRect6heightEv                    0x00014040   Section       12  qpaintengine_vg.o(i._ZNK5QRect6heightEv)
    i._ZNK6QBrush5colorEv                    0x0001404c   Section       14  qpaintengine_vg.o(i._ZNK6QBrush5colorEv)
    i._ZNK6QBrush5styleEv                    0x0001405a   Section       14  qpaintengine_vg.o(i._ZNK6QBrush5styleEv)
    i._ZNK6QFixed5roundEv                    0x00014068   Section       24  qpaintengine_vg.o(i._ZNK6QFixed5roundEv)
    i._ZNK6QFixed6toRealEv                   0x00014080   Section       22  qpaintengine_vg.o(i._ZNK6QFixed6toRealEv)
    i._ZNK6QRectF10bottomLeftEv              0x00014096   Section       30  qpaintengine_vg.o(i._ZNK6QRectF10bottomLeftEv)
    i._ZNK6QRectF11bottomRightEv             0x000140b4   Section       38  qpaintengine_vg.o(i._ZNK6QRectF11bottomRightEv)
    i._ZNK6QRectF6isNullEv                   0x000140dc   Section       68  qpixmapfilter_vg.o(i._ZNK6QRectF6isNullEv)
    i._ZNK6QRectF6toRectEv                   0x00014120   Section       68  qpaintengine_vg.o(i._ZNK6QRectF6toRectEv)
    i._ZNK6QRectF8topRightEv                 0x00014164   Section       30  qpaintengine_vg.o(i._ZNK6QRectF8topRightEv)
    i._ZNK7QPointF6isNullEv                  0x00014182   Section       32  qpaintengine_vg.o(i._ZNK7QPointF6isNullEv)
    i._ZNK9QListData5beginEv                 0x000141a2   Section       16  qpaintengine_vg.o(i._ZNK9QListData5beginEv)
    i._ZdlPvS_                               0x000141b2   Section        2  qpaintengine_vg.o(i._ZdlPvS_)
    i._ZeqRK6QSizeFS1_                       0x000141b4   Section       38  qpaintengine_vg.o(i._ZeqRK6QSizeFS1_)
    i._ZneRK5QSizeS1_                        0x000141da   Section       26  qwindowsurface_vgegl.o(i._ZneRK5QSizeS1_)
    i._ZnwjPv                                0x000141f4   Section        6  qpaintengine_vg.o(i._ZnwjPv)
    t._Z11q_check_ptrI10CFbsBitmapEPT_S2_    0x000141fa   Section       20  qvg_symbian.o(t._Z11q_check_ptrI10CFbsBitmapEPT_S2_)
    t._Z4qAbsIfET_RKS0_                      0x0001420e   Section       28  qpaintengine_vg.o(t._Z4qAbsIfET_RKS0_)
    t._Z4qAbsIiET_RKS0_                      0x0001422a   Section       18  qpixmapdata_vg.o(t._Z4qAbsIiET_RKS0_)
    t._Z4qMinIfERKT_S2_S2_                   0x0001423c   Section       24  qpaintengine_vg.o(t._Z4qMinIfERKT_S2_S2_)
    t._Z4qMinIiERKT_S2_S2_                   0x00014254   Section       18  qpaintengine_vg.o(t._Z4qMinIiERKT_S2_S2_)
    t._ZN14QScopedPointerI13QPixmapFilter21QScopedPointerDeleterIS0_EE5resetEPS0_ 0x00014266   Section       34  qpaintengine_vg.o(t._ZN14QScopedPointerI13QPixmapFilter21QScopedPointerDeleterIS0_EE5resetEPS0_)
    t._ZN14QScopedPointerI13QPixmapFilter21QScopedPointerDeleterIS0_EED1Ev 0x00014288   Section       28  qpaintengine_vg.o(t._ZN14QScopedPointerI13QPixmapFilter21QScopedPointerDeleterIS0_EED1Ev)
    t._ZN14QScopedPointerI19QVGImagePoolPrivate21QScopedPointerDeleterIS0_EED1Ev 0x000142a4   Section       22  qvgimagepool.o(t._ZN14QScopedPointerI19QVGImagePoolPrivate21QScopedPointerDeleterIS0_EED1Ev)
    t._ZN15QVarLengthArrayI11QFixedPointLi256EED1Ev 0x000142ba   Section       26  qpaintengine_vg.o(t._ZN15QVarLengthArrayI11QFixedPointLi256EED1Ev)
    t._ZN15QVarLengthArrayI5QRectLi256EE7reallocEii 0x000142d4   Section      252  qpaintengine_vg.o(t._ZN15QVarLengthArrayI5QRectLi256EE7reallocEii)
    t._ZN15QVarLengthArrayI5QRectLi256EE7reallocEii.clean 0x000143d0   Section       14  qpaintengine_vg.o(t._ZN15QVarLengthArrayI5QRectLi256EE7reallocEii.clean)
    t._ZN15QVarLengthArrayI5QRectLi256EED1Ev 0x000143de   Section       46  qpaintengine_vg.o(t._ZN15QVarLengthArrayI5QRectLi256EED1Ev)
    t._ZN15QVarLengthArrayIfLi16EE6appendERKf 0x0001440c   Section       46  qpaintengine_vg.o(t._ZN15QVarLengthArrayIfLi16EE6appendERKf)
    t._ZN15QVarLengthArrayIfLi16EE7reallocEii 0x0001443c   Section      160  qpaintengine_vg.o(t._ZN15QVarLengthArrayIfLi16EE7reallocEii)
    t._ZN15QVarLengthArrayIfLi16EE7reallocEii.clean 0x000144dc   Section        4  qpaintengine_vg.o(t._ZN15QVarLengthArrayIfLi16EE7reallocEii.clean)
    t._ZN15QVarLengthArrayIfLi16EEC1Ei       0x000144e0   Section       58  qpaintengine_vg.o(t._ZN15QVarLengthArrayIfLi16EEC1Ei)
    t._ZN15QVarLengthArrayIfLi16EED1Ev       0x0001451a   Section       26  qpaintengine_vg.o(t._ZN15QVarLengthArrayIfLi16EED1Ev)
    t._ZN15QVarLengthArrayIfLi256EEC1Ei      0x00014534   Section       64  qpaintengine_vg.o(t._ZN15QVarLengthArrayIfLi256EEC1Ei)
    t._ZN15QVarLengthArrayIfLi256EED1Ev      0x00014574   Section       26  qpaintengine_vg.o(t._ZN15QVarLengthArrayIfLi256EED1Ev)
    t._ZN15QVarLengthArrayIfLi256EEixEi      0x00014590   Section       64  qpaintengine_vg.o(t._ZN15QVarLengthArrayIfLi256EEixEi)
    t._ZN15QVarLengthArrayIfLi48EE6appendERKf 0x000145d0   Section       46  qpaintengine_vg.o(t._ZN15QVarLengthArrayIfLi48EE6appendERKf)
    t._ZN15QVarLengthArrayIfLi48EE7reallocEii 0x00014600   Section      160  qpaintengine_vg.o(t._ZN15QVarLengthArrayIfLi48EE7reallocEii)
    t._ZN15QVarLengthArrayIfLi48EE7reallocEii.clean 0x000146a0   Section        4  qpaintengine_vg.o(t._ZN15QVarLengthArrayIfLi48EE7reallocEii.clean)
    t._ZN15QVarLengthArrayIfLi48EEC1Ei       0x000146a4   Section       58  qpaintengine_vg.o(t._ZN15QVarLengthArrayIfLi48EEC1Ei)
    t._ZN15QVarLengthArrayIfLi48EED1Ev       0x000146de   Section       26  qpaintengine_vg.o(t._ZN15QVarLengthArrayIfLi48EED1Ev)
    t._ZN15QVarLengthArrayIhLi10EE6appendERKh 0x000146f8   Section       44  qpaintengine_vg.o(t._ZN15QVarLengthArrayIhLi10EE6appendERKh)
    t._ZN15QVarLengthArrayIhLi10EE7reallocEii 0x00014724   Section      160  qpaintengine_vg.o(t._ZN15QVarLengthArrayIhLi10EE7reallocEii)
    t._ZN15QVarLengthArrayIhLi10EE7reallocEii.clean 0x000147c4   Section        4  qpaintengine_vg.o(t._ZN15QVarLengthArrayIhLi10EE7reallocEii.clean)
    t._ZN15QVarLengthArrayIhLi10EEC1Ei       0x000147c8   Section       56  qpaintengine_vg.o(t._ZN15QVarLengthArrayIhLi10EEC1Ei)
    t._ZN15QVarLengthArrayIhLi10EED1Ev       0x00014800   Section       26  qpaintengine_vg.o(t._ZN15QVarLengthArrayIhLi10EED1Ev)
    t._ZN15QVarLengthArrayIhLi20EE6appendERKh 0x0001481a   Section       44  qpaintengine_vg.o(t._ZN15QVarLengthArrayIhLi20EE6appendERKh)
    t._ZN15QVarLengthArrayIhLi20EE7reallocEii 0x00014848   Section      160  qpaintengine_vg.o(t._ZN15QVarLengthArrayIhLi20EE7reallocEii)
    t._ZN15QVarLengthArrayIhLi20EE7reallocEii.clean 0x000148e8   Section        4  qpaintengine_vg.o(t._ZN15QVarLengthArrayIhLi20EE7reallocEii.clean)
    t._ZN15QVarLengthArrayIhLi20EEC1Ei       0x000148ec   Section       56  qpaintengine_vg.o(t._ZN15QVarLengthArrayIhLi20EEC1Ei)
    t._ZN15QVarLengthArrayIhLi20EED1Ev       0x00014924   Section       26  qpaintengine_vg.o(t._ZN15QVarLengthArrayIhLi20EED1Ev)
    t._ZN15QVarLengthArrayIiLi256EED1Ev      0x0001493e   Section       26  qwindowsurface_vgegl.o(t._ZN15QVarLengthArrayIiLi256EED1Ev)
    t._ZN15QVarLengthArrayIjLi256EED1Ev      0x00014958   Section       26  qpaintengine_vg.o(t._ZN15QVarLengthArrayIjLi256EED1Ev)
    t._ZN15QVarLengthArrayIlLi256EEC1Ei      0x00014972   Section       64  qpaintengine_vg.o(t._ZN15QVarLengthArrayIlLi256EEC1Ei)
    t._ZN15QVarLengthArrayIlLi256EED1Ev      0x000149b2   Section       26  qpaintengine_vg.o(t._ZN15QVarLengthArrayIlLi256EED1Ev)
    t._ZN15QVarLengthArrayIlLi256EEixEi      0x000149cc   Section       64  qpaintengine_vg.o(t._ZN15QVarLengthArrayIlLi256EEixEi)
    t._ZN15QVarLengthArrayImLi256EE7reallocEii 0x00014a0c   Section      160  qpaintengine_vg.o(t._ZN15QVarLengthArrayImLi256EE7reallocEii)
    t._ZN15QVarLengthArrayImLi256EE7reallocEii.clean 0x00014aac   Section        4  qpaintengine_vg.o(t._ZN15QVarLengthArrayImLi256EE7reallocEii.clean)
    t._ZN15QVarLengthArrayImLi256EED1Ev      0x00014ab0   Section       26  qpaintengine_vg.o(t._ZN15QVarLengthArrayImLi256EED1Ev)
    t._ZN15QVarLengthArrayImLi256EEixEi      0x00014acc   Section       64  qpaintengine_vg.o(t._ZN15QVarLengthArrayImLi256EEixEi)
    t._ZN15QVarLengthArrayIsLi256EE7reallocEii 0x00014b0c   Section      168  qpixmapfilter_vg.o(t._ZN15QVarLengthArrayIsLi256EE7reallocEii)
    t._ZN15QVarLengthArrayIsLi256EE7reallocEii.clean 0x00014bb4   Section        4  qpixmapfilter_vg.o(t._ZN15QVarLengthArrayIsLi256EE7reallocEii.clean)
    t._ZN15QVarLengthArrayIsLi256EED1Ev      0x00014bb8   Section       26  qpixmapfilter_vg.o(t._ZN15QVarLengthArrayIsLi256EED1Ev)
    t._ZN20QGlobalStaticDeleterI16QVGSharedContextED1Ev 0x00014bd2   Section       42  qwindowsurface_vgegl.o(t._ZN20QGlobalStaticDeleterI16QVGSharedContextED1Ev)
    t._ZN5QHashIP11QFontEngineP17QVGFontGlyphCacheE11deleteNode2EPN9QHashData4NodeE 0x00014bfc   Section        6  qpaintengine_vg.o(t._ZN5QHashIP11QFontEngineP17QVGFontGlyphCacheE11deleteNode2EPN9QHashData4NodeE)
    t._ZN5QHashIP11QFontEngineP17QVGFontGlyphCacheE13detach_helperEv 0x00014c04   Section       60  qpaintengine_vg.o(t._ZN5QHashIP11QFontEngineP17QVGFontGlyphCacheE13detach_helperEv)
    t._ZN5QHashIP11QFontEngineP17QVGFontGlyphCacheE13duplicateNodeEPN9QHashData4NodeEPv 0x00014c40   Section       46  qpaintengine_vg.o(t._ZN5QHashIP11QFontEngineP17QVGFontGlyphCacheE13duplicateNodeEPN9QHashData4NodeEPv)
    t._ZN5QHashIP11QFontEngineP17QVGFontGlyphCacheE3endEv 0x00014c6e   Section       18  qpaintengine_vg.o(t._ZN5QHashIP11QFontEngineP17QVGFontGlyphCacheE3endEv)
    t._ZN5QHashIP11QFontEngineP17QVGFontGlyphCacheE5eraseENS4_8iteratorE 0x00014c80   Section      128  qpaintengine_vg.o(t._ZN5QHashIP11QFontEngineP17QVGFontGlyphCacheE5eraseENS4_8iteratorE)
    t._ZN5QHashIP11QFontEngineP17QVGFontGlyphCacheE6detachEv 0x00014d00   Section       28  qpaintengine_vg.o(t._ZN5QHashIP11QFontEngineP17QVGFontGlyphCacheE6detachEv)
    t._ZN5QHashIP11QFontEngineP17QVGFontGlyphCacheE6insertERKS1_RKS3_ 0x00014d1c   Section      182  qpaintengine_vg.o(t._ZN5QHashIP11QFontEngineP17QVGFontGlyphCacheE6insertERKS1_RKS3_)
    t._ZN5QHashIP11QFontEngineP17QVGFontGlyphCacheE6insertERKS1_RKS3_.clean 0x00014dd2   Section        4  qpaintengine_vg.o(t._ZN5QHashIP11QFontEngineP17QVGFontGlyphCacheE6insertERKS1_RKS3_.clean)
    t._ZN5QHashIP11QFontEngineP17QVGFontGlyphCacheE8freeDataEP9QHashData 0x00014dd8   Section       20  qpaintengine_vg.o(t._ZN5QHashIP11QFontEngineP17QVGFontGlyphCacheE8freeDataEP9QHashData)
    t._ZN5QHashIP11QFontEngineP17QVGFontGlyphCacheEC1Ev 0x00014dec   Section       28  qpaintengine_vg.o(t._ZN5QHashIP11QFontEngineP17QVGFontGlyphCacheEC1Ev)
    t._ZN5QHashIP11QFontEngineP17QVGFontGlyphCacheED1Ev 0x00014e08   Section       30  qpaintengine_vg.o(t._ZN5QHashIP11QFontEngineP17QVGFontGlyphCacheED1Ev)
    t._ZN5QHashIj15QHashDummyValueE11deleteNode2EPN9QHashData4NodeE 0x00014e26   Section        6  qpaintengine_vg.o(t._ZN5QHashIj15QHashDummyValueE11deleteNode2EPN9QHashData4NodeE)
    t._ZN5QHashIj15QHashDummyValueE13detach_helperEv 0x00014e2c   Section       60  qpaintengine_vg.o(t._ZN5QHashIj15QHashDummyValueE13detach_helperEv)
    t._ZN5QHashIj15QHashDummyValueE13duplicateNodeEPN9QHashData4NodeEPv 0x00014e68   Section       34  qpaintengine_vg.o(t._ZN5QHashIj15QHashDummyValueE13duplicateNodeEPN9QHashData4NodeEPv)
    t._ZN5QHashIj15QHashDummyValueE6insertERKjRKS0_ 0x00014e8a   Section      184  qpaintengine_vg.o(t._ZN5QHashIj15QHashDummyValueE6insertERKjRKS0_)
    t._ZN5QHashIj15QHashDummyValueE6insertERKjRKS0_.clean 0x00014f42   Section        4  qpaintengine_vg.o(t._ZN5QHashIj15QHashDummyValueE6insertERKjRKS0_.clean)
    t._ZN5QHashIj15QHashDummyValueE8freeDataEP9QHashData 0x00014f48   Section       20  qpaintengine_vg.o(t._ZN5QHashIj15QHashDummyValueE8freeDataEP9QHashData)
    t._ZN5QHashIj15QHashDummyValueED1Ev      0x00014f5c   Section       30  qpaintengine_vg.o(t._ZN5QHashIj15QHashDummyValueED1Ev)
    t._ZN5QHashIjN18QTextureGlyphCache5CoordEE11deleteNode2EPN9QHashData4NodeE 0x00014f7a   Section        6  qpaintengine_vg.o(t._ZN5QHashIjN18QTextureGlyphCache5CoordEE11deleteNode2EPN9QHashData4NodeE)
    t._ZN5QHashIjN18QTextureGlyphCache5CoordEE8freeDataEP9QHashData 0x00014f80   Section       20  qpaintengine_vg.o(t._ZN5QHashIjN18QTextureGlyphCache5CoordEE8freeDataEP9QHashData)
    t._ZN5QHashIjN18QTextureGlyphCache5CoordEED1Ev 0x00014f94   Section       44  qwindowsurface_vg.o(t._ZN5QHashIjN18QTextureGlyphCache5CoordEED1Ev)
    t._ZN5QListI16QPainterClipInfoE13detach_helperEi 0x00014fc0   Section      206  qpaintengine_vg.o(t._ZN5QListI16QPainterClipInfoE13detach_helperEi)
    t._ZN5QListI16QPainterClipInfoE13detach_helperEi.clean 0x0001508e   Section       32  qpaintengine_vg.o(t._ZN5QListI16QPainterClipInfoE13detach_helperEi.clean)
    t._ZN5QListI16QPainterClipInfoE13detach_helperEv 0x000150ae   Section       16  qpaintengine_vg.o(t._ZN5QListI16QPainterClipInfoE13detach_helperEv)
    t._ZN5QListI16QPainterClipInfoE4freeEPN9QListData4DataE 0x000150be   Section       76  qpaintengine_vg.o(t._ZN5QListI16QPainterClipInfoE4freeEPN9QListData4DataE)
    t._ZN5QListI16QPainterClipInfoED1Ev      0x0001510a   Section       32  qpaintengine_vg.o(t._ZN5QListI16QPainterClipInfoED1Ev)
    t._ZN7QVectorI5QPairIf6QColorEE4freeEP16QVectorTypedDataIS2_E 0x0001512a   Section       50  qpaintengine_vg.o(t._ZN7QVectorI5QPairIf6QColorEE4freeEP16QVectorTypedDataIS2_E)
    t._ZN7QVectorI5QPairIf6QColorEED1Ev      0x0001515c   Section       34  qpaintengine_vg.o(t._ZN7QVectorI5QPairIf6QColorEED1Ev)
    t._ZN7QVectorI5QRectE13detach_helperEv   0x0001517e   Section       18  qpaintengine_vg.o(t._ZN7QVectorI5QRectE13detach_helperEv)
    t._ZN7QVectorI5QRectE4freeEP16QVectorTypedDataIS0_E 0x00015190   Section       48  qpaintengine_vg.o(t._ZN7QVectorI5QRectE4freeEP16QVectorTypedDataIS0_E)
    t._ZN7QVectorI5QRectE6mallocEi           0x000151c0   Section       52  qpaintengine_vg.o(t._ZN7QVectorI5QRectE6mallocEi)
    t._ZN7QVectorI5QRectE7reallocEii         0x000151f4   Section      700  qpaintengine_vg.o(t._ZN7QVectorI5QRectE7reallocEii)
    t._ZN7QVectorI5QRectE7reallocEii.clean   0x000154b0   Section       36  qpaintengine_vg.o(t._ZN7QVectorI5QRectE7reallocEii.clean)
    t._ZN7QVectorI5QRectED1Ev                0x000154d4   Section       34  qpaintengine_vg.o(t._ZN7QVectorI5QRectED1Ev)
    t._ZN7QVectorI5QRectEixEi                0x000154f8   Section      180  qpaintengine_vg.o(t._ZN7QVectorI5QRectEixEi)
    t._ZN7QVectorI6QPointE4freeEP16QVectorTypedDataIS0_E 0x000155ac   Section       48  qpaintengine_vg.o(t._ZN7QVectorI6QPointE4freeEP16QVectorTypedDataIS0_E)
    t._ZN7QVectorI6QPointED1Ev               0x000155dc   Section       34  qpaintengine_vg.o(t._ZN7QVectorI6QPointED1Ev)
    t._ZN7QVectorI7QPointFE4freeEP16QVectorTypedDataIS0_E 0x000155fe   Section       48  qpaintengine_vg.o(t._ZN7QVectorI7QPointFE4freeEP16QVectorTypedDataIS0_E)
    t._ZN7QVectorI7QPointFED1Ev              0x0001562e   Section       34  qpaintengine_vg.o(t._ZN7QVectorI7QPointFED1Ev)
    t._ZN7QVectorIN12QPainterPath7ElementEE13detach_helperEv 0x00015650   Section       18  qpaintengine_vg.o(t._ZN7QVectorIN12QPainterPath7ElementEE13detach_helperEv)
    t._ZN7QVectorIN12QPainterPath7ElementEE4freeEP16QVectorTypedDataIS1_E 0x00015662   Section       24  qpaintengine_vg.o(t._ZN7QVectorIN12QPainterPath7ElementEE4freeEP16QVectorTypedDataIS1_E)
    t._ZN7QVectorIN12QPainterPath7ElementEE6appendERKS1_ 0x0001567a   Section      138  qpaintengine_vg.o(t._ZN7QVectorIN12QPainterPath7ElementEE6appendERKS1_)
    t._ZN7QVectorIN12QPainterPath7ElementEE6mallocEi 0x00015704   Section       54  qpaintengine_vg.o(t._ZN7QVectorIN12QPainterPath7ElementEE6mallocEi)
    t._ZN7QVectorIN12QPainterPath7ElementEE7reallocEii 0x0001573c   Section      524  qpaintengine_vg.o(t._ZN7QVectorIN12QPainterPath7ElementEE7reallocEii)
    t._ZN7QVectorIN12QPainterPath7ElementEE7reallocEii.clean 0x00015948   Section        8  qpaintengine_vg.o(t._ZN7QVectorIN12QPainterPath7ElementEE7reallocEii.clean)
    t._ZN7QVectorIN12QPainterPath7ElementEE7reserveEi 0x00015950   Section       54  qpaintengine_vg.o(t._ZN7QVectorIN12QPainterPath7ElementEE7reserveEi)
    t._ZN7QVectorIN12QPainterPath7ElementEEixEi 0x00015988   Section      180  qpaintengine_vg.o(t._ZN7QVectorIN12QPainterPath7ElementEEixEi)
    t._ZN7QVectorIfE13detach_helperEv        0x00015a3c   Section       18  qpaintengine_vg.o(t._ZN7QVectorIfE13detach_helperEv)
    t._ZN7QVectorIfE4dataEv                  0x00015a4e   Section       30  qpaintengine_vg.o(t._ZN7QVectorIfE4dataEv)
    t._ZN7QVectorIfE4freeEP16QVectorTypedDataIfE 0x00015a6c   Section       24  qpaintengine_vg.o(t._ZN7QVectorIfE4freeEP16QVectorTypedDataIfE)
    t._ZN7QVectorIfE6mallocEi                0x00015a84   Section       52  qpaintengine_vg.o(t._ZN7QVectorIfE6mallocEi)
    t._ZN7QVectorIfE7reallocEii              0x00015ab8   Section      516  qpaintengine_vg.o(t._ZN7QVectorIfE7reallocEii)
    t._ZN7QVectorIfE7reallocEii.clean        0x00015cbc   Section        8  qpaintengine_vg.o(t._ZN7QVectorIfE7reallocEii.clean)
    t._ZN7QVectorIfEC1Ei                     0x00015cc4   Section       76  qpaintengine_vg.o(t._ZN7QVectorIfEC1Ei)
    t._ZN7QVectorIfED1Ev                     0x00015d10   Section       34  qpaintengine_vg.o(t._ZN7QVectorIfED1Ev)
    t._ZN7QVectorIfEixEi                     0x00015d34   Section      160  qpaintengine_vg.o(t._ZN7QVectorIfEixEi)
    t._ZNK14QScopedPointerI10QBrushData24QBrushDataPointerDeleterEptEv 0x00015dd4   Section       40  qpaintengine_vg.o(t._ZNK14QScopedPointerI10QBrushData24QBrushDataPointerDeleterEptEv)
    t._ZNK14QScopedPointerI11QObjectData21QScopedPointerDeleterIS0_EEptEv 0x00015dfc   Section       36  moc_qpixmapfilter_vg_p.o(t._ZNK14QScopedPointerI11QObjectData21QScopedPointerDeleterIS0_EEptEv)
    t._ZNK14QScopedPointerI13QPixmapFilter21QScopedPointerDeleterIS0_EEntEv 0x00015e20   Section       16  qpaintengine_vg.o(t._ZNK14QScopedPointerI13QPixmapFilter21QScopedPointerDeleterIS0_EEntEv)
    t._ZNK14QScopedPointerI19QPainterPathPrivate26QPainterPathPrivateDeleterEntEv 0x00015e30   Section       16  qpaintengine_vg.o(t._ZNK14QScopedPointerI19QPainterPathPrivate26QPainterPathPrivateDeleterEntEv)
    t._ZNK14QScopedPointerI19QPainterPathPrivate26QPainterPathPrivateDeleterEptEv 0x00015e40   Section       40  qpaintengine_vg.o(t._ZNK14QScopedPointerI19QPainterPathPrivate26QPainterPathPrivateDeleterEptEv)
    t._ZNK5QHashIP11QFontEngineP17QVGFontGlyphCacheE8findNodeERKS1_Pj 0x00015e68   Section      228  qpaintengine_vg.o(t._ZNK5QHashIP11QFontEngineP17QVGFontGlyphCacheE8findNodeERKS1_Pj)
    t._ZNK5QHashIP11QFontEngineP17QVGFontGlyphCacheE8iteratorneERKS5_ 0x00015f4c   Section       18  qpaintengine_vg.o(t._ZNK5QHashIP11QFontEngineP17QVGFontGlyphCacheE8iteratorneERKS5_)
    t._ZNK5QHashIj15QHashDummyValueE8findNodeERKjPj 0x00015f60   Section      216  qpaintengine_vg.o(t._ZNK5QHashIj15QHashDummyValueE8findNodeERKjPj)
    t._ZNK7QVectorI5QPairIf6QColorEEixEi     0x00016038   Section      160  qpaintengine_vg.o(t._ZNK7QVectorI5QPairIf6QColorEEixEi)
    t._ZNK7QVectorI5QRectE2atEi              0x000160d8   Section      148  qpaintengine_vg.o(t._ZNK7QVectorI5QRectE2atEi)
    .extab._Z14colorizeBitmapRK6QImageRK6QColor 0x0001616c   Data           0  qpaintengine_vg.o(.ARM.extab)
    .extab._Z9toVGImageRK6QImage6QFlagsIN2Qt19ImageConversionFlagEE 0x00016184   Data           0  qpaintengine_vg.o(.ARM.extab)
    .extab._Z16toVGImageSubRectRK6QImageRK5QRect6QFlagsIN2Qt19ImageConversionFlagEE 0x000161b4   Data           0  qpaintengine_vg.o(.ARM.extab)
    .extab._Z20toVGImageWithOpacityRK6QImagef 0x000161dc   Data           0  qpaintengine_vg.o(.ARM.extab)
    .extab._Z27toVGImageWithOpacitySubRectRK6QImagefRK5QRect 0x000161fc   Data           0  qpaintengine_vg.o(.ARM.extab)
    .extab._ZN21QVGPaintEnginePrivate14setupColorRampEPK9QGradientm 0x0001621c   Data           0  qpaintengine_vg.o(.ARM.extab)
    .extab._ZN21QVGPaintEnginePrivate8setBrushEmRK6QBrush12VGMatrixMode11VGPaintType 0x0001623c   Data           0  qpaintengine_vg.o(.ARM.extab)
    .extab._ZN15QVGPainterStateC1ERS_        0x00016274   Data           0  qpaintengine_vg.o(.ARM.extab)
    .extab._ZN15QVGPainterStateC1Ev          0x00016284   Data           0  qpaintengine_vg.o(.ARM.extab)
    .extab._ZN15QVGPainterStateD1Ev          0x00016294   Data           0  qpaintengine_vg.o(.ARM.extab)
    .extab._ZN21QVGPaintEnginePrivateC1EP14QVGPaintEngine 0x000162a4   Data           0  qpaintengine_vg.o(.ARM.extab)
    .extab._ZN14QVGPaintEngineC1Ev           0x000162d4   Data           0  qpaintengine_vg.o(.ARM.extab)
    .extab._ZNK14QVGPaintEngine11createStateEP13QPainterState 0x000162e4   Data           0  qpaintengine_vg.o(.ARM.extab)
    .extab._ZN14QVGPaintEngine13updateScissorEv 0x000162fc   Data           0  qpaintengine_vg.o(.ARM.extab)
    .extab._ZN14QVGPaintEngine5beginEP12QPaintDevice 0x00016368   Data           0  qpaintengine_vg.o(.ARM.extab)
    .extab._ZN21QVGPaintEnginePrivate12setPenParamsERK4QPen 0x00016378   Data           0  qpaintengine_vg.o(.ARM.extab)
    .extab._ZN21QVGPaintEnginePrivate18vectorPathToVGPathERK11QVectorPath 0x00016398   Data           0  qpaintengine_vg.o(.ARM.extab)
    .extab._ZN21QVGPaintEnginePrivate4fillEmRK6QBrushl 0x000163c0   Data           0  qpaintengine_vg.o(.ARM.extab)
    .extab._ZN14QVGPaintEngine4clipERK11QVectorPathN2Qt13ClipOperationE 0x000163e0   Data           0  qpaintengine_vg.o(.ARM.extab)
    .extab._ZN14QVGPaintEngine4clipERK5QRectN2Qt13ClipOperationE 0x000164a0   Data           0  qpaintengine_vg.o(.ARM.extab)
    .extab._ZN14QVGPaintEngine4clipERK7QRegionN2Qt13ClipOperationE 0x00016518   Data           0  qpaintengine_vg.o(.ARM.extab)
    .extab._ZN14QVGPaintEngine22compositionModeChangedEv 0x00016560   Data           0  qpaintengine_vg.o(.ARM.extab)
    .extab._ZN14QVGPaintEngine8fillRectERK6QRectFRK6QColor 0x00016570   Data           0  qpaintengine_vg.o(.ARM.extab)
    .extab._ZN21QVGPaintEnginePrivate19painterPathToVGPathERK12QPainterPath 0x00016580   Data           0  qpaintengine_vg.o(.ARM.extab)
    .extab._ZN14QVGPaintEngine10drawPointsEPK7QPointFi 0x000165a0   Data           0  qpaintengine_vg.o(.ARM.extab)
    .extab._ZN14QVGPaintEngine10drawPointsEPK6QPointi 0x000165b8   Data           0  qpaintengine_vg.o(.ARM.extab)
    .extab._ZN14QVGPaintEngine11drawPolygonEPK7QPointFiN12QPaintEngine15PolygonDrawModeE 0x000165d0   Data           0  qpaintengine_vg.o(.ARM.extab)
    .extab._ZN14QVGPaintEngine11drawPolygonEPK6QPointiN12QPaintEngine15PolygonDrawModeE 0x000165f0   Data           0  qpaintengine_vg.o(.ARM.extab)
    .extab._ZN14QVGPaintEngine15drawTiledPixmapERK6QRectFRK7QPixmapRK7QPointF 0x00016610   Data           0  qpaintengine_vg.o(.ARM.extab)
    .extab._ZN14QVGPaintEngine19drawPixmapFragmentsEPKN8QPainter14PixmapFragmentEiRK7QPixmap6QFlagsINS0_18PixmapFragmentHintEE 0x00016620   Data           0  qpaintengine_vg.o(.ARM.extab)
    .extab._ZN17QVGFontGlyphCache16setScaleFromTextERK5QFontP11QFontEngine 0x00016654   Data           0  qpaintengine_vg.o(.ARM.extab)
    .extab._ZN14QVGPaintEngine16drawCachedGlyphsEiPKjRK5QFontP11QFontEngineRK7QPointFPK11QFixedPoint 0x0001667c   Data           0  qpaintengine_vg.o(.ARM.extab)
    .extab._ZN14QVGPaintEngine12drawTextItemERK7QPointFRK9QTextItem 0x000166c0   Data           0  qpaintengine_vg.o(.ARM.extab)
    .extab._ZN14QVGPaintEngine12pixmapFilterEiPK13QPixmapFilter 0x000166f4   Data           0  qpaintengine_vg.o(.ARM.extab)
    .extab._ZN14QVGPaintEngine10fillRegionERK7QRegionRK6QColorRK5QSize 0x0001671c   Data           0  qpaintengine_vg.o(.ARM.extab)
    .extab._ZN20QVGCompositionHelper14fillBackgroundERK7QRegionRK6QBrush 0x0001672c   Data           0  qpaintengine_vg.o(.ARM.extab)
    .extab._ZN20QVGCompositionHelper16drawCursorPixmapERK7QPixmapRK6QPoint 0x00016744   Data           0  qpaintengine_vg.o(.ARM.extab)
    .extab._ZN20QVGCompositionHelper10setScissorERK7QRegion 0x00016764   Data           0  qpaintengine_vg.o(.ARM.extab)
    .extab._ZN17QVGFontGlyphCacheC1Ev        0x00016788   Data           0  qpaintengine_vg.o(.ARM.extab)
    .extab._ZN17QVGFontGlyphCacheD1Ev        0x00016798   Data           0  qpaintengine_vg.o(.ARM.extab)
    .extab._ZN17QVGFontGlyphCache11cacheGlyphsEP21QVGPaintEnginePrivateP11QFontEnginePKji 0x000167a8   Data           0  qpaintengine_vg.o(.ARM.extab)
    .extab._ZN21QVGPaintEnginePrivate7destroyEv 0x000167d8   Data           0  qpaintengine_vg.o(.ARM.extab)
    .extab._ZN21QVGPaintEnginePrivateD1Ev    0x000167e8   Data           0  qpaintengine_vg.o(.ARM.extab)
    .extab._Z8qWarningv                      0x00016838   Data           0  qpaintengine_vg.o(.ARM.extab)
    .extab._ZN6QDebugD1Ev                    0x00016850   Data           0  qpaintengine_vg.o(.ARM.extab)
    .extab._ZN6QDebuglsEPKc                  0x00016874   Data           0  qpaintengine_vg.o(.ARM.extab)
    .extab._ZN7QVectorIfE7reallocEii         0x00016884   Data           0  qpaintengine_vg.o(.ARM.extab)
    .extab._ZN7QVectorIN12QPainterPath7ElementEE7reallocEii 0x000168a0   Data           0  qpaintengine_vg.o(.ARM.extab)
    .extab._ZN7QVectorI5QRectE7reallocEii    0x000168bc   Data           0  qpaintengine_vg.o(.ARM.extab)
    .extab._ZN19QPaintEnginePrivateD1Ev      0x000168fc   Data           0  qpaintengine_vg.o(.ARM.extab)
    .extab._ZN16QPainterClipInfoC1ERKS_      0x0001690c   Data           0  qpaintengine_vg.o(.ARM.extab)
    .extab._ZN5QListI16QPainterClipInfoE13detach_helperEi 0x0001691c   Data           0  qpaintengine_vg.o(.ARM.extab)
    .extab._ZN13QPainterStateC1ERKS_         0x00016960   Data           0  qpaintengine_vg.o(.ARM.extab)
    .extab._ZNK11QVectorPath20convertToPainterPathEv 0x000169a8   Data           0  qpaintengine_vg.o(.ARM.extab)
    .extab._ZN21QVGPaintEnginePrivate19ensurePathTransformEv 0x000169b8   Data           0  qpaintengine_vg.o(.ARM.extab)
    .extab._ZN21QVGPaintEnginePrivate9ensurePenERK4QPen 0x000169c8   Data           0  qpaintengine_vg.o(.ARM.extab)
    .extab._ZN15QVarLengthArrayI5QRectLi256EE7reallocEii 0x000169d8   Data           0  qpaintengine_vg.o(.ARM.extab)
    .extab._ZN16QPainterClipInfoD1Ev         0x000169e8   Data           0  qpaintengine_vg.o(.ARM.extab)
    .extab._ZN5QHashIP11QFontEngineP17QVGFontGlyphCacheE6insertERKS1_RKS3_ 0x000169f8   Data           0  qpaintengine_vg.o(.ARM.extab)
    .extab._ZN11QFontEngine10PropertiesD1Ev  0x00016a08   Data           0  qpaintengine_vg.o(.ARM.extab)
    .extab._ZN13QVGPixmapDataC1EN11QPixmapData9PixelTypeE 0x00016a18   Data           0  qpixmapdata_vg.o(.ARM.extab)
    .extab._ZN13QVGPixmapDataD1Ev            0x00016a30   Data           0  qpixmapdata_vg.o(.ARM.extab)
    .extab._ZNK13QVGPixmapData26createCompatiblePixmapDataEv 0x00016a48   Data           0  qpixmapdata_vg.o(.ARM.extab)
    .extab._ZN13QVGPixmapData6resizeEii      0x00016a58   Data           0  qpixmapdata_vg.o(.ARM.extab)
    .extab._ZN13QVGPixmapData20createPixmapForImageER6QImage6QFlagsIN2Qt19ImageConversionFlagEEb 0x00016a68   Data           0  qpixmapdata_vg.o(.ARM.extab)
    .extab._ZN13QVGPixmapData9fromImageERK6QImage6QFlagsIN2Qt19ImageConversionFlagEE 0x00016a78   Data           0  qpixmapdata_vg.o(.ARM.extab)
    .extab._ZN13QVGPixmapData15fromImageReaderEP12QImageReader6QFlagsIN2Qt19ImageConversionFlagEE 0x00016a88   Data           0  qpixmapdata_vg.o(.ARM.extab)
    .extab._ZN13QVGPixmapData8fromFileERK7QStringPKc6QFlagsIN2Qt19ImageConversionFlagEE 0x00016aa0   Data           0  qpixmapdata_vg.o(.ARM.extab)
    .extab._ZN13QVGPixmapData8fromDataEPKhjPKc6QFlagsIN2Qt19ImageConversionFlagEE 0x00016ad0   Data           0  qpixmapdata_vg.o(.ARM.extab)
    .extab._ZN13QVGPixmapData4fillERK6QColor 0x00016b38   Data           0  qpixmapdata_vg.o(.ARM.extab)
    .extab._ZN13QVGPixmapData12forceToImageEv 0x00016b48   Data           0  qpixmapdata_vg.o(.ARM.extab)
    .extab._ZN13QVGPixmapData15setAlphaChannelERK7QPixmap 0x00016b58   Data           0  qpixmapdata_vg.o(.ARM.extab)
    .extab._ZNK13QVGPixmapData7toImageEv     0x00016b68   Data           0  qpixmapdata_vg.o(.ARM.extab)
    .extab._ZNK26QVGPixmapConvolutionFilter4drawEP8QPainterRK7QPointFRK7QPixmapRK6QRectF 0x00016b78   Data           0  qpixmapfilter_vg.o(.ARM.extab)
    .extab._ZNK25QVGPixmapDropShadowFilter4drawEP8QPainterRK7QPointFRK7QPixmapRK6QRectF 0x00016b88   Data           0  qpixmapfilter_vg.o(.ARM.extab)
    .extab._ZN12QVGImagePool8instanceEv      0x00016b98   Data           0  qvgimagepool.o(.ARM.extab)
    .extab._ZN16QVGWindowSurfaceC1EP7QWidget 0x00016ba8   Data           0  qwindowsurface_vg.o(.ARM.extab)
    .extab._ZN16QVGWindowSurfaceC1EP7QWidgetP26QVGEGLWindowSurfacePrivate 0x00016bd0   Data           0  qwindowsurface_vg.o(.ARM.extab)
    .extab._ZN16QVGWindowSurfaceD1Ev         0x00016be0   Data           0  qwindowsurface_vg.o(.ARM.extab)
    .extab._ZN30QGraphicsColorizeEffectPrivateD1Ev 0x00016bf8   Data           0  qwindowsurface_vg.o(.ARM.extab)
    .extab._ZN26QGraphicsBlurEffectPrivateD1Ev 0x00016c08   Data           0  qwindowsurface_vg.o(.ARM.extab)
    .extab._ZN32QGraphicsDropShadowEffectPrivateD1Ev 0x00016c18   Data           0  qwindowsurface_vg.o(.ARM.extab)
    .extab._Z13sharedContextv                0x00016c28   Data           0  qwindowsurface_vgegl.o(.ARM.extab)
    .extab._Z25qt_vg_create_paint_enginev    0x00016c40   Data           0  qwindowsurface_vgegl.o(.ARM.extab)
    .extab._Z13createContextP12QPaintDevice  0x00016c50   Data           0  qwindowsurface_vgegl.o(.ARM.extab)
    .extab._ZN26QVGEGLWindowSurfaceVGImageD1Ev 0x00016ccc   Data           0  qwindowsurface_vgegl.o(.ARM.extab)
    .extab._ZN25QVGEGLWindowSurfaceDirectD1Ev 0x00016cdc   Data           0  qwindowsurface_vgegl.o(.ARM.extab)
    .extab._ZN25QVGEGLWindowSurfaceDirect13ensureContextEP7QWidget 0x00016cec   Data           0  qwindowsurface_vgegl.o(.ARM.extab)
    .extab._Z14createBlitCopyP10CFbsBitmap   0x00016d10   Data           0  qvg_symbian.o(.ARM.extab)
    .extab._ZN13QVGPixmapData12toNativeTypeEN11QPixmapData10NativeTypeE 0x00016d70   Data           0  qvg_symbian.o(.ARM.extab)
    .extab._ZN13QVGPixmapData14fromNativeTypeEPvN11QPixmapData10NativeTypeE 0x00016d80   Data           0  qvg_symbian.o(.ARM.extab)
    .extab._ZN13QVGPixmapData7cleanupEv      0x00016db0   Data           0  qvg_symbian.o(.ARM.extab)
    .extab._ZN5CBasenwEj                     0x00016dc0   Data           0  qvg_symbian.o(.ARM.extab)
    .constdata$1                             0x00016dd0   Data           0  qpaintengine_vg.o(.constdata)
    qt_meta_data_QVGFontEngineCleaner        0x00016dd0   Data          80  qpaintengine_vg.o(.constdata)
    .constdata                               0x00016dd0   Section      604  qpaintengine_vg.o(.constdata)
    qt_meta_stringdata_QVGFontEngineCleaner  0x00016e20   Data          45  qpaintengine_vg.o(.constdata)
    segments@_ZN21QVGPaintEnginePrivate11initObjectsEv_0 0x00016e60   Data           5  qpaintengine_vg.o(.constdata)
    .constdata$1                             0x0001702c   Data           0  qpixmapdata_vg.o(.constdata)
    .constdata                               0x0001702c   Section      156  qpixmapdata_vg.o(.constdata)
    .constdata$1                             0x000170c8   Data           0  qpixmapfilter_vg.o(.constdata)
    .constdata                               0x000170c8   Section      148  qpixmapfilter_vg.o(.constdata)
    .constdata$1                             0x0001715c   Data           0  qvgimagepool.o(.constdata)
    .constdata                               0x0001715c   Section      220  qvgimagepool.o(.constdata)
    .constdata$1                             0x00017238   Data           0  qwindowsurface_vg.o(.constdata)
    .constdata                               0x00017238   Section       76  qwindowsurface_vg.o(.constdata)
    .constdata$1                             0x00017284   Data           0  qwindowsurface_vgegl.o(.constdata)
    .constdata                               0x00017284   Section       88  qwindowsurface_vgegl.o(.constdata)
    .constdata$1                             0x000172dc   Data           0  qvg_symbian.o(.constdata)
    .constdata                               0x000172dc   Section       76  qvg_symbian.o(.constdata)
    .constdata$1                             0x00017328   Data           0  moc_qpixmapfilter_vg_p.o(.constdata)
    qt_meta_data_QVGPixmapConvolutionFilter  0x00017328   Data          60  moc_qpixmapfilter_vg_p.o(.constdata)
    .constdata                               0x00017328   Section      560  moc_qpixmapfilter_vg_p.o(.constdata)
    qt_meta_stringdata_QVGPixmapConvolutionFilter 0x00017364   Data          28  moc_qpixmapfilter_vg_p.o(.constdata)
    qt_meta_data_QVGPixmapColorizeFilter     0x00017380   Data          60  moc_qpixmapfilter_vg_p.o(.constdata)
    qt_meta_stringdata_QVGPixmapColorizeFilter 0x000173bc   Data          25  moc_qpixmapfilter_vg_p.o(.constdata)
    qt_meta_data_QVGPixmapDropShadowFilter   0x000173d8   Data          60  moc_qpixmapfilter_vg_p.o(.constdata)
    qt_meta_stringdata_QVGPixmapDropShadowFilter 0x00017414   Data          27  moc_qpixmapfilter_vg_p.o(.constdata)
    qt_meta_data_QVGPixmapBlurFilter         0x00017430   Data          60  moc_qpixmapfilter_vg_p.o(.constdata)
    qt_meta_stringdata_QVGPixmapBlurFilter   0x0001746c   Data          21  moc_qpixmapfilter_vg_p.o(.constdata)
    .constdata__ZN9stlp_priv15_Integer_limitsIaLan128ELa127ELin1ELb1EE6digitsE 0x00017558   Section        4  qpaintengine_vg.o(.constdata__ZN9stlp_priv15_Integer_limitsIaLan128ELa127ELin1ELb1EE6digitsE)
    .constdata__ZN9stlp_priv15_Integer_limitsIbLb0ELb1ELi1ELb0EE6digitsE 0x0001755c   Section        4  qpaintengine_vg.o(.constdata__ZN9stlp_priv15_Integer_limitsIbLb0ELb1ELi1ELb0EE6digitsE)
    .constdata__ZN9stlp_priv15_Integer_limitsIcLc128ELc127ELin1ELb1EE6digitsE 0x00017560   Section        4  qpaintengine_vg.o(.constdata__ZN9stlp_priv15_Integer_limitsIcLc128ELc127ELin1ELb1EE6digitsE)
    .constdata__ZN9stlp_priv15_Integer_limitsIhLh0ELh255ELin1ELb1EE6digitsE 0x00017564   Section        4  qpaintengine_vg.o(.constdata__ZN9stlp_priv15_Integer_limitsIhLh0ELh255ELin1ELb1EE6digitsE)
    .constdata__ZN9stlp_priv15_Integer_limitsIiLin2147483648ELi2147483647ELin1ELb1EE6digitsE 0x00017568   Section        4  qpaintengine_vg.o(.constdata__ZN9stlp_priv15_Integer_limitsIiLin2147483648ELi2147483647ELin1ELb1EE6digitsE)
    .constdata__ZN9stlp_priv15_Integer_limitsIiLin2147483648ELi2147483647ELin1ELb1EE9is_signedE 0x0001756c   Section        1  qpaintengine_vg.o(.constdata__ZN9stlp_priv15_Integer_limitsIiLin2147483648ELi2147483647ELin1ELb1EE9is_signedE)
    .constdata__ZN9stlp_priv15_Integer_limitsIjLj0ELj4294967295ELin1ELb1EE6digitsE 0x00017570   Section        4  qpaintengine_vg.o(.constdata__ZN9stlp_priv15_Integer_limitsIjLj0ELj4294967295ELin1ELb1EE6digitsE)
    .constdata__ZN9stlp_priv15_Integer_limitsIlLln2147483648ELl2147483647ELin1ELb1EE6digitsE 0x00017574   Section        4  qpaintengine_vg.o(.constdata__ZN9stlp_priv15_Integer_limitsIlLln2147483648ELl2147483647ELin1ELb1EE6digitsE)
    .constdata__ZN9stlp_priv15_Integer_limitsImLm0ELm4294967295ELin1ELb1EE6digitsE 0x00017578   Section        4  qpaintengine_vg.o(.constdata__ZN9stlp_priv15_Integer_limitsImLm0ELm4294967295ELin1ELb1EE6digitsE)
    .constdata__ZN9stlp_priv15_Integer_limitsIsLsn32768ELs32767ELin1ELb1EE6digitsE 0x0001757c   Section        4  qpaintengine_vg.o(.constdata__ZN9stlp_priv15_Integer_limitsIsLsn32768ELs32767ELin1ELb1EE6digitsE)
    .constdata__ZN9stlp_priv15_Integer_limitsItLt0ELt65535ELin1ELb1EE6digitsE 0x00017580   Section        4  qpaintengine_vg.o(.constdata__ZN9stlp_priv15_Integer_limitsItLt0ELt65535ELin1ELb1EE6digitsE)
    .constdata__ZN9stlp_priv15_Integer_limitsIwLw0ELw65535ELin1ELb1EE6digitsE 0x00017584   Section        4  qpaintengine_vg.o(.constdata__ZN9stlp_priv15_Integer_limitsIwLw0ELw65535ELin1ELb1EE6digitsE)
    .constdata__ZN9stlp_priv15_Integer_limitsIxLxn9223372036854775808ELx9223372036854775807ELin1ELb1EE6digitsE 0x00017588   Section        4  qpaintengine_vg.o(.constdata__ZN9stlp_priv15_Integer_limitsIxLxn9223372036854775808ELx9223372036854775807ELin1ELb1EE6digitsE)
    .constdata__ZN9stlp_priv15_Integer_limitsIyLy0ELy18446744073709551615ELin1ELb1EE6digitsE 0x0001758c   Section        4  qpaintengine_vg.o(.constdata__ZN9stlp_priv15_Integer_limitsIyLy0ELy18446744073709551615ELin1ELb1EE6digitsE)
    .constdata__ZTI12QVGImagePool            0x00017590   Section        8  qvgimagepool.o(.constdata__ZTI12QVGImagePool)
    .constdata__ZTI13QVGPixmapData           0x00017598   Section       12  qpixmapdata_vg.o(.constdata__ZTI13QVGPixmapData)
    .constdata__ZTI14QVGPaintEngine          0x000175a4   Section       12  qpaintengine_vg.o(.constdata__ZTI14QVGPaintEngine)
    .constdata__ZTI15QVGPainterState         0x000175b0   Section       12  qpaintengine_vg.o(.constdata__ZTI15QVGPainterState)
    .constdata__ZTI16QVGWindowSurface        0x000175bc   Section       32  qwindowsurface_vg.o(.constdata__ZTI16QVGWindowSurface)
    .constdata__ZTI17QVGFontGlyphCache       0x000175dc   Section        8  qpaintengine_vg.o(.constdata__ZTI17QVGFontGlyphCache)
    .constdata__ZTI19QPaintEnginePrivate     0x000175e4   Section        8  qpaintengine_vg.o(.constdata__ZTI19QPaintEnginePrivate)
    .constdata__ZTI19QVGPixmapBlurFilter     0x000175ec   Section       12  moc_qpixmapfilter_vg_p.o(.constdata__ZTI19QVGPixmapBlurFilter)
    .constdata__ZTI20QVGCompositionHelper    0x000175f8   Section        8  qpaintengine_vg.o(.constdata__ZTI20QVGCompositionHelper)
    .constdata__ZTI20QVGFontEngineCleaner    0x00017600   Section       12  qpaintengine_vg.o(.constdata__ZTI20QVGFontEngineCleaner)
    .constdata__ZTI21QVGPaintEnginePrivate   0x0001760c   Section       12  qpaintengine_vg.o(.constdata__ZTI21QVGPaintEnginePrivate)
    .constdata__ZTI22QGraphicsEffectPrivate  0x00017618   Section       12  qwindowsurface_vg.o(.constdata__ZTI22QGraphicsEffectPrivate)
    .constdata__ZTI23QVGPixmapColorizeFilter 0x00017624   Section       12  moc_qpixmapfilter_vg_p.o(.constdata__ZTI23QVGPixmapColorizeFilter)
    .constdata__ZTI24QSymbianVGFontGlyphCache 0x00017630   Section       12  qvg_symbian.o(.constdata__ZTI24QSymbianVGFontGlyphCache)
    .constdata__ZTI25QVGEGLWindowSurfaceDirect 0x0001763c   Section       12  qwindowsurface_vgegl.o(.constdata__ZTI25QVGEGLWindowSurfaceDirect)
    .constdata__ZTI25QVGPixmapDropShadowFilter 0x00017648   Section       12  moc_qpixmapfilter_vg_p.o(.constdata__ZTI25QVGPixmapDropShadowFilter)
    .constdata__ZTI26QGraphicsBlurEffectPrivate 0x00017654   Section       12  qwindowsurface_vg.o(.constdata__ZTI26QGraphicsBlurEffectPrivate)
    .constdata__ZTI26QVGEGLWindowSurfacePrivate 0x00017660   Section        8  qwindowsurface_vgegl.o(.constdata__ZTI26QVGEGLWindowSurfacePrivate)
    .constdata__ZTI26QVGEGLWindowSurfaceVGImage 0x00017668   Section       12  qwindowsurface_vgegl.o(.constdata__ZTI26QVGEGLWindowSurfaceVGImage)
    .constdata__ZTI26QVGPixmapConvolutionFilter 0x00017674   Section       12  moc_qpixmapfilter_vg_p.o(.constdata__ZTI26QVGPixmapConvolutionFilter)
    .constdata__ZTI30QGraphicsColorizeEffectPrivate 0x00017680   Section       12  qwindowsurface_vg.o(.constdata__ZTI30QGraphicsColorizeEffectPrivate)
    .constdata__ZTI32QGraphicsDropShadowEffectPrivate 0x0001768c   Section       12  qwindowsurface_vg.o(.constdata__ZTI32QGraphicsDropShadowEffectPrivate)
    .constdata__ZTIN15QtSharedPointer20ExternalRefCountDataE 0x00017698   Section        8  qpaintengine_vg.o(.constdata__ZTIN15QtSharedPointer20ExternalRefCountDataE)
    .constdata__ZTS12QVGImagePool            0x000176a0   Section       15  qvgimagepool.o(.constdata__ZTS12QVGImagePool)
    .constdata__ZTS13QVGPixmapData           0x000176af   Section       16  qpixmapdata_vg.o(.constdata__ZTS13QVGPixmapData)
    .constdata__ZTS14QVGPaintEngine          0x000176bf   Section       17  qpaintengine_vg.o(.constdata__ZTS14QVGPaintEngine)
    .constdata__ZTS15QVGPainterState         0x000176d0   Section       18  qpaintengine_vg.o(.constdata__ZTS15QVGPainterState)
    .constdata__ZTS16QVGWindowSurface        0x000176e2   Section       19  qwindowsurface_vg.o(.constdata__ZTS16QVGWindowSurface)
    .constdata__ZTS17QVGFontGlyphCache       0x000176f5   Section       20  qpaintengine_vg.o(.constdata__ZTS17QVGFontGlyphCache)
    .constdata__ZTS19QPaintEnginePrivate     0x00017709   Section       22  qpaintengine_vg.o(.constdata__ZTS19QPaintEnginePrivate)
    .constdata__ZTS19QVGPixmapBlurFilter     0x0001771f   Section       22  moc_qpixmapfilter_vg_p.o(.constdata__ZTS19QVGPixmapBlurFilter)
    .constdata__ZTS20QVGCompositionHelper    0x00017735   Section       23  qpaintengine_vg.o(.constdata__ZTS20QVGCompositionHelper)
    .constdata__ZTS20QVGFontEngineCleaner    0x0001774c   Section       23  qpaintengine_vg.o(.constdata__ZTS20QVGFontEngineCleaner)
    .constdata__ZTS21QVGPaintEnginePrivate   0x00017763   Section       24  qpaintengine_vg.o(.constdata__ZTS21QVGPaintEnginePrivate)
    .constdata__ZTS22QGraphicsEffectPrivate  0x0001777b   Section       25  qwindowsurface_vg.o(.constdata__ZTS22QGraphicsEffectPrivate)
    .constdata__ZTS23QVGPixmapColorizeFilter 0x00017794   Section       26  moc_qpixmapfilter_vg_p.o(.constdata__ZTS23QVGPixmapColorizeFilter)
    .constdata__ZTS24QSymbianVGFontGlyphCache 0x000177ae   Section       27  qvg_symbian.o(.constdata__ZTS24QSymbianVGFontGlyphCache)
    .constdata__ZTS25QVGEGLWindowSurfaceDirect 0x000177c9   Section       28  qwindowsurface_vgegl.o(.constdata__ZTS25QVGEGLWindowSurfaceDirect)
    .constdata__ZTS25QVGPixmapDropShadowFilter 0x000177e5   Section       28  moc_qpixmapfilter_vg_p.o(.constdata__ZTS25QVGPixmapDropShadowFilter)
    .constdata__ZTS26QGraphicsBlurEffectPrivate 0x00017801   Section       29  qwindowsurface_vg.o(.constdata__ZTS26QGraphicsBlurEffectPrivate)
    .constdata__ZTS26QVGEGLWindowSurfacePrivate 0x0001781e   Section       29  qwindowsurface_vgegl.o(.constdata__ZTS26QVGEGLWindowSurfacePrivate)
    .constdata__ZTS26QVGEGLWindowSurfaceVGImage 0x0001783b   Section       29  qwindowsurface_vgegl.o(.constdata__ZTS26QVGEGLWindowSurfaceVGImage)
    .constdata__ZTS26QVGPixmapConvolutionFilter 0x00017858   Section       29  moc_qpixmapfilter_vg_p.o(.constdata__ZTS26QVGPixmapConvolutionFilter)
    .constdata__ZTS30QGraphicsColorizeEffectPrivate 0x00017875   Section       33  qwindowsurface_vg.o(.constdata__ZTS30QGraphicsColorizeEffectPrivate)
    .constdata__ZTS32QGraphicsDropShadowEffectPrivate 0x00017896   Section       35  qwindowsurface_vg.o(.constdata__ZTS32QGraphicsDropShadowEffectPrivate)
    .constdata__ZTSN15QtSharedPointer20ExternalRefCountDataE 0x000178b9   Section       42  qpaintengine_vg.o(.constdata__ZTSN15QtSharedPointer20ExternalRefCountDataE)
    .constdata__ZTV12QVGImagePool            0x000178e4   Section       48  qvgimagepool.o(.constdata__ZTV12QVGImagePool)
    .constdata__ZTV13QVGPixmapData           0x00017914   Section      128  qpixmapdata_vg.o(.constdata__ZTV13QVGPixmapData)
    .constdata__ZTV14QVGPaintEngine          0x00017994   Section      212  qpaintengine_vg.o(.constdata__ZTV14QVGPaintEngine)
    .constdata__ZTV15QVGPainterState         0x00017a68   Section       16  qpaintengine_vg.o(.constdata__ZTV15QVGPainterState)
    .constdata__ZTV16QVGWindowSurface        0x00017a78   Section       88  qwindowsurface_vg.o(.constdata__ZTV16QVGWindowSurface)
    .constdata__ZTV17QVGFontGlyphCache       0x00017ad0   Section       20  qpaintengine_vg.o(.constdata__ZTV17QVGFontGlyphCache)
    .constdata__ZTV19QPaintEnginePrivate     0x00017ae4   Section       20  qpaintengine_vg.o(.constdata__ZTV19QPaintEnginePrivate)
    .constdata__ZTV19QVGPixmapBlurFilter     0x00017af8   Section       64  moc_qpixmapfilter_vg_p.o(.constdata__ZTV19QVGPixmapBlurFilter)
    .constdata__ZTV20QVGCompositionHelper    0x00017b38   Section       16  qpaintengine_vg.o(.constdata__ZTV20QVGCompositionHelper)
    .constdata__ZTV20QVGFontEngineCleaner    0x00017b48   Section       56  qpaintengine_vg.o(.constdata__ZTV20QVGFontEngineCleaner)
    .constdata__ZTV21QVGPaintEnginePrivate   0x00017b80   Section       20  qpaintengine_vg.o(.constdata__ZTV21QVGPaintEnginePrivate)
    .constdata__ZTV23QVGPixmapColorizeFilter 0x00017b94   Section       64  moc_qpixmapfilter_vg_p.o(.constdata__ZTV23QVGPixmapColorizeFilter)
    .constdata__ZTV24QSymbianVGFontGlyphCache 0x00017bd4   Section       20  qvg_symbian.o(.constdata__ZTV24QSymbianVGFontGlyphCache)
    .constdata__ZTV25QVGEGLWindowSurfaceDirect 0x00017be8   Section       44  qwindowsurface_vgegl.o(.constdata__ZTV25QVGEGLWindowSurfaceDirect)
    .constdata__ZTV25QVGPixmapDropShadowFilter 0x00017c14   Section       64  moc_qpixmapfilter_vg_p.o(.constdata__ZTV25QVGPixmapDropShadowFilter)
    .constdata__ZTV26QGraphicsBlurEffectPrivate 0x00017c54   Section       16  qwindowsurface_vg.o(.constdata__ZTV26QGraphicsBlurEffectPrivate)
    .constdata__ZTV26QVGEGLWindowSurfacePrivate 0x00017c64   Section       44  qwindowsurface_vgegl.o(.constdata__ZTV26QVGEGLWindowSurfacePrivate)
    .constdata__ZTV26QVGEGLWindowSurfaceVGImage 0x00017c90   Section       44  qwindowsurface_vgegl.o(.constdata__ZTV26QVGEGLWindowSurfaceVGImage)
    .constdata__ZTV26QVGPixmapConvolutionFilter 0x00017cbc   Section       64  moc_qpixmapfilter_vg_p.o(.constdata__ZTV26QVGPixmapConvolutionFilter)
    .constdata__ZTV30QGraphicsColorizeEffectPrivate 0x00017cfc   Section       16  qwindowsurface_vg.o(.constdata__ZTV30QGraphicsColorizeEffectPrivate)
    .constdata__ZTV32QGraphicsDropShadowEffectPrivate 0x00017d0c   Section       16  qwindowsurface_vg.o(.constdata__ZTV32QGraphicsDropShadowEffectPrivate)
    .constdata__ZTVN15QtSharedPointer20ExternalRefCountDataE 0x00017d1c   Section       20  qpaintengine_vg.o(.constdata__ZTVN15QtSharedPointer20ExternalRefCountDataE)
    .ARM.exidx                               0x00017d30   Section        8  ucppinit.o(.ARM.exidx)
    .data$0                                  0x00400000   Data           0  qpaintengine_vg.o(.data)
    segments@_ZN14QVGPaintEngine11drawEllipseERK6QRectF_0 0x00400000   Data           4  qpaintengine_vg.o(.data)
    .data                                    0x00400000   Section       14  qpaintengine_vg.o(.data)
    roundedrect_types@_ZN21QVGPaintEnginePrivate15roundedRectPathERK6QRectFffN2Qt8SizeModeE_0 0x00400004   Data          10  qpaintengine_vg.o(.data)
    .data$0                                  0x00400010   Data           0  qpixmapdata_vg.o(.data)
    qt_vg_pixmap_serial                      0x00400010   Data           4  qpixmapdata_vg.o(.data)
    .data                                    0x00400010   Section        4  qpixmapdata_vg.o(.data)
    .data$0                                  0x00400014   Data           0  qvgimagepool.o(.data)
    qt_vg_image_pool                         0x00400014   Data           4  qvgimagepool.o(.data)
    .data                                    0x00400014   Section        4  qvgimagepool.o(.data)
    .data$0                                  0x00400018   Data           0  qwindowsurface_vgegl.o(.data)
    this_sharedContext                       0x00400018   Data           8  qwindowsurface_vgegl.o(.data)
    .data                                    0x00400018   Section       16  qwindowsurface_vgegl.o(.data)
    _ZGVcleanup@_Z13sharedContextv_0         0x00400020   Data           4  qwindowsurface_vgegl.o(.data)
    cleanup@_Z13sharedContextv_1             0x00400024   Data           4  qwindowsurface_vgegl.o(.data)
    .data$0                                  0x00400028   Data           0  qvg_symbian.o(.data)
    qt_vgCreateEGLImageTargetKHR             0x00400028   Data           4  qvg_symbian.o(.data)
    .data                                    0x00400028   Section        4  qvg_symbian.o(.data)
    .data$0                                  0x0040002c   Data           0  ucppfini.o(.data)
    .data                                    0x0040002c   Section        4  ucppfini.o(.data)
    .data__ZNSt19_Atomic_swap_structILi1EE12_S_swap_lockE 0x00400030   Section       12  qpaintengine_vg.o(.data__ZNSt19_Atomic_swap_structILi1EE12_S_swap_lockE)
    .bss$5                                   0x0040003c   Data           0  ucppfini.o(.bss)
    .bss                                     0x0040003c   Section     2048  ucppfini.o(.bss)

    Global Symbols

    Symbol Name                              Value     Ov Type        Size  Object(Section)

    BuildAttributes$$THUMB_ISAv2$ARM_ISAv5$M$VFPv2$PE$A:L22$X:L11$S22$IEEE1$IW$USESV6$~STKCKD$USESV7$~SHL$OSPACE$ROPI$IEEEJ$EBA8$UX$FPIC$INDIRECT$REQ8$PRES8$EABIv2 0x00000000   Number         0  anon$$obj.o ABSOLUTE
    QtCore{00040703}[2001b2dc].dll           0x00000000   Data           0  anon$$obj.o ABSOLUTE
    QtGui{00040703}[2001b2dd].dll            0x00000000   Data           0  anon$$obj.o ABSOLUTE
    QtOpenVG{00040703}[2001e62f].dll         0x00000000   Data           0  anon$$obj.o ABSOLUTE
    bitgdi{000a0000}[10003b18].dll           0x00000000   Data           0  anon$$obj.o ABSOLUTE
    dfpaeabi{000a0000}.dll                   0x00000000   Data           0  anon$$obj.o ABSOLUTE
    drtaeabi{000a0000}.dll                   0x00000000   Data           0  anon$$obj.o ABSOLUTE
    euser{000a0000}[100039e5].dll            0x00000000   Data           0  anon$$obj.o ABSOLUTE
    fbscli{000a0000}[10003a15].dll           0x00000000   Data           0  anon$$obj.o ABSOLUTE
    libEGL{000a0000}.dll                     0x00000000   Data           0  anon$$obj.o ABSOLUTE
    libOpenVG{000a0000}.dll                  0x00000000   Data           0  anon$$obj.o ABSOLUTE
    libc{00010001}[10207369].dll             0x00000000   Data           0  anon$$obj.o ABSOLUTE
    libm{00010001}[102750d2].dll             0x00000000   Data           0  anon$$obj.o ABSOLUTE
    stdnew{000a0000}[20022178].dll           0x00000000   Data           0  anon$$obj.o ABSOLUTE
    SHT$$INIT_ARRAY$$Base                     - Undefined Weak Reference
    SHT$$INIT_ARRAY$$Limit                    - Undefined Weak Reference
    qt_assert_x(const char*, const char*, const char*, int)  - Undefined Reference
    _Z11qt_assert_xPKcS0_S0_i@QtCore{00040703}[2001b2dc].dll  - Undefined Reference
    qFlagLocation(const char*)                - Undefined Reference
    _Z13qFlagLocationPKc@QtCore{00040703}[2001b2dc].dll  - Undefined Reference
    qt_defaultDpiX()                          - Undefined Reference
    _Z14qt_defaultDpiXv@QtGui{00040703}[2001b2dd].dll  - Undefined Reference
    qt_defaultDpiY()                          - Undefined Reference
    _Z14qt_defaultDpiYv@QtGui{00040703}[2001b2dd].dll  - Undefined Reference
    qt_imageForBrush(int, bool)               - Undefined Reference
    _Z16qt_imageForBrushib@QtGui{00040703}[2001b2dd].dll  - Undefined Reference
    qt_message_output(QtMsgType, const char*)  - Undefined Reference
    _Z17qt_message_output9QtMsgTypePKc@QtCore{00040703}[2001b2dc].dll  - Undefined Reference
    qt_widget_private(QWidget*)               - Undefined Reference
    _Z17qt_widget_privateP7QWidget@QtGui{00040703}[2001b2dd].dll  - Undefined Reference
    qt_scaleForTransform(const QTransform&, float*)  - Undefined Reference
    _Z20qt_scaleForTransformRK10QTransformPf@QtGui{00040703}[2001b2dd].dll  - Undefined Reference
    qt_paint_device_metric(const QPaintDevice*, QPaintDevice::PaintDeviceMetric)  - Undefined Reference
    _Z22qt_paint_device_metricPK12QPaintDeviceNS_17PaintDeviceMetricE@QtGui{00040703}[2001b2dd].dll  - Undefined Reference
    qt_symbian_throwIfError(int)              - Undefined Reference
    _Z23qt_symbian_throwIfErrori@QtCore{00040703}[2001b2dc].dll  - Undefined Reference
    QBasicAtomicPointer_testAndSetOrdered(void*volatile *, void*, void*)  - Undefined Reference
    _Z37QBasicAtomicPointer_testAndSetOrderedPVPvS_S_@QtCore{00040703}[2001b2dc].dll  - Undefined Reference
    qFree(void*)                              - Undefined Reference
    _Z5qFreePv@QtCore{00040703}[2001b2dc].dll  - Undefined Reference
    qMalloc(unsigned)                         - Undefined Reference
    _Z7qMallocj@QtCore{00040703}[2001b2dc].dll  - Undefined Reference
    qMemSet(void*, int, unsigned)             - Undefined Reference
    _Z7qMemSetPvij@QtCore{00040703}[2001b2dc].dll  - Undefined Reference
    qgetenv(const char*)                      - Undefined Reference
    _Z7qgetenvPKc@QtCore{00040703}[2001b2dc].dll  - Undefined Reference
    qMemCopy(void*, const void*, unsigned)    - Undefined Reference
    _Z8qMemCopyPvPKvj@QtCore{00040703}[2001b2dc].dll  - Undefined Reference
    qWarning(const char*, ...)                - Undefined Reference
    _Z8qWarningPKcz@QtCore{00040703}[2001b2dc].dll  - Undefined Reference
    qBadAlloc()                               - Undefined Reference
    _Z9qBadAllocv@QtCore{00040703}[2001b2dc].dll  - Undefined Reference
    qt_assert(const char*, const char*, int)  - Undefined Reference
    _Z9qt_assertPKcS0_i@QtCore{00040703}[2001b2dc].dll  - Undefined Reference
    CFbsBitmap::ScanLineLength(int, TDisplayMode)  - Undefined Reference
    _ZN10CFbsBitmap14ScanLineLengthEi12TDisplayMode@fbscli{000a0000}[10003a15].dll  - Undefined Reference
    CFbsBitmap::Create(const TSize&, TDisplayMode)  - Undefined Reference
    _ZN10CFbsBitmap6CreateERK5TSize12TDisplayMode@fbscli{000a0000}[10003a15].dll  - Undefined Reference
    CFbsBitmap::CFbsBitmap()                  - Undefined Reference
    _ZN10CFbsBitmapC1Ev@fbscli{000a0000}[10003a15].dll  - Undefined Reference
    QByteArray::fromRawData(const char*, int)  - Undefined Reference
    _ZN10QByteArray11fromRawDataEPKci@QtCore{00040703}[2001b2dc].dll  - Undefined Reference
    QByteArray::realloc(int)                  - Undefined Reference
    _ZN10QByteArray7reallocEi@QtCore{00040703}[2001b2dc].dll  - Undefined Reference
    QByteArray::QByteArray(const char*)       - Undefined Reference
    _ZN10QByteArrayC1EPKc@QtCore{00040703}[2001b2dc].dll  - Undefined Reference
    QImageData::convertInPlace(QImage::Format, QFlags<Qt::ImageConversionFlag>)  - Undefined Reference
    _ZN10QImageData14convertInPlaceEN6QImage6FormatE6QFlagsIN2Qt19ImageConversionFlagEE@QtGui{00040703}[2001b2dd].dll  - Undefined Reference
    QTransform::fromTranslate(float, float)   - Undefined Reference
    _ZN10QTransform13fromTranslateEff@QtGui{00040703}[2001b2dd].dll  - Undefined Reference
    QTransform::scale(float, float)           - Undefined Reference
    _ZN10QTransform5scaleEff@QtGui{00040703}[2001b2dd].dll  - Undefined Reference
    QTransform::rotate(float, Qt::Axis)       - Undefined Reference
    _ZN10QTransform6rotateEfN2Qt4AxisE@QtGui{00040703}[2001b2dd].dll  - Undefined Reference
    QTransform::translate(float, float)       - Undefined Reference
    _ZN10QTransform9translateEff@QtGui{00040703}[2001b2dd].dll  - Undefined Reference
    QTransform::QTransform(float, float, float, float, float, float, float, float, float)  - Undefined Reference
    _ZN10QTransformC1Efffffffff@QtGui{00040703}[2001b2dd].dll  - Undefined Reference
    QTransform::QTransform()                  - Undefined Reference
    _ZN10QTransformC1Ev@QtGui{00040703}[2001b2dd].dll  - Undefined Reference
    QTransform::operator =(const QTransform&)  - Undefined Reference
    _ZN10QTransformaSERKS_@QtGui{00040703}[2001b2dd].dll  - Undefined Reference
    QEglContext::doneCurrent()                - Undefined Reference
    _ZN11QEglContext11doneCurrentEv@QtGui{00040703}[2001b2dd].dll  - Undefined Reference
    QEglContext::makeCurrent(int)             - Undefined Reference
    _ZN11QEglContext11makeCurrentEi@QtGui{00040703}[2001b2dd].dll  - Undefined Reference
    QEglContext::swapBuffers(int)             - Undefined Reference
    _ZN11QEglContext11swapBuffersEi@QtGui{00040703}[2001b2dd].dll  - Undefined Reference
    QEglContext::chooseConfig(const QEglProperties&, QEgl::PixelFormatMatch)  - Undefined Reference
    _ZN11QEglContext12chooseConfigERK14QEglPropertiesN4QEgl16PixelFormatMatchE@QtGui{00040703}[2001b2dd].dll  - Undefined Reference
    QEglContext::createContext(QEglContext*, const QEglProperties*)  - Undefined Reference
    _ZN11QEglContext13createContextEPS_PK14QEglProperties@QtGui{00040703}[2001b2dd].dll  - Undefined Reference
    QEglContext::createSurface(QPaintDevice*, const QEglProperties*)  - Undefined Reference
    _ZN11QEglContext13createSurfaceEP12QPaintDevicePK14QEglProperties@QtGui{00040703}[2001b2dd].dll  - Undefined Reference
    QEglContext::destroySurface(int)          - Undefined Reference
    _ZN11QEglContext14destroySurfaceEi@QtGui{00040703}[2001b2dd].dll  - Undefined Reference
    QEglContext::lazyDoneCurrent()            - Undefined Reference
    _ZN11QEglContext15lazyDoneCurrentEv@QtGui{00040703}[2001b2dd].dll  - Undefined Reference
    QEglContext::QEglContext()                - Undefined Reference
    _ZN11QEglContextC1Ev@QtGui{00040703}[2001b2dd].dll  - Undefined Reference
    QEglContext::~QEglContext()               - Undefined Reference
    _ZN11QEglContextD1Ev@QtGui{00040703}[2001b2dd].dll  - Undefined Reference
    QFontEngine::getGlyphPositions(const QGlyphLayout&, const QTransform&, QFlags<QTextItem::RenderFlag>, QVarLengthArray<unsigned, (int)256>&, QVarLengthArray<QFixedPoint, (int)256>&)  - Undefined Reference
    _ZN11QFontEngine17getGlyphPositionsERK12QGlyphLayoutRK10QTransform6QFlagsIN9QTextItem10RenderFlagEER15QVarLengthArrayIjLi256EERSA_I11QFixedPointLi256EE@QtGui{00040703}[2001b2dd].dll  - Undefined Reference
    QPixmapData::setSerialNumber(int)         - Undefined Reference
    _ZN11QPixmapData15setSerialNumberEi@QtGui{00040703}[2001b2dd].dll  - Undefined Reference
    QPixmapData::copy(const QPixmapData*, const QRect&)  - Undefined Reference
    _ZN11QPixmapData4copyEPKS_RK5QRect@QtGui{00040703}[2001b2dd].dll  - Undefined Reference
    QPixmapData::scroll(int, int, const QRect&)  - Undefined Reference
    _ZN11QPixmapData6scrollEiiRK5QRect@QtGui{00040703}[2001b2dd].dll  - Undefined Reference
    QPixmapData::setMask(const QBitmap&)      - Undefined Reference
    _ZN11QPixmapData7setMaskERK7QBitmap@QtGui{00040703}[2001b2dd].dll  - Undefined Reference
    QPixmapData::QPixmapData__sub_object(QPixmapData::PixelType, int)  - Undefined Reference
    _ZN11QPixmapDataC2ENS_9PixelTypeEi@QtGui{00040703}[2001b2dd].dll  - Undefined Reference
    QPixmapData::~QPixmapData__sub_object()   - Undefined Reference
    _ZN11QPixmapDataD2Ev@QtGui{00040703}[2001b2dd].dll  - Undefined Reference
    QTextStream::QTextStream(QString*, QFlags<QIODevice::OpenModeFlag>)  - Undefined Reference
    _ZN11QTextStreamC1EP7QString6QFlagsIN9QIODevice12OpenModeFlagEE@QtCore{00040703}[2001b2dc].dll  - Undefined Reference
    QTextStream::~QTextStream()               - Undefined Reference
    _ZN11QTextStreamD1Ev@QtCore{00040703}[2001b2dc].dll  - Undefined Reference
    QTextStream::operator <<(const QString&)  - Undefined Reference
    _ZN11QTextStreamlsERK7QString@QtCore{00040703}[2001b2dc].dll  - Undefined Reference
    QTextStream::operator <<(char)            - Undefined Reference
    _ZN11QTextStreamlsEc@QtCore{00040703}[2001b2dc].dll  - Undefined Reference
    QTextStream::operator <<(int)             - Undefined Reference
    _ZN11QTextStreamlsEi@QtCore{00040703}[2001b2dc].dll  - Undefined Reference
    QVectorData::reallocate(QVectorData*, int, int, int)  - Undefined Reference
    _ZN11QVectorData10reallocateEPS_iii@QtCore{00040703}[2001b2dc].dll  - Undefined Reference
    QVectorData::free(QVectorData*, int)      - Undefined Reference
    _ZN11QVectorData4freeEPS_i@QtCore{00040703}[2001b2dc].dll  - Undefined Reference
    QVectorData::grow(int, int, int, bool)    - Undefined Reference
    _ZN11QVectorData4growEiiib@QtCore{00040703}[2001b2dc].dll  - Undefined Reference
    QVectorData::allocate(int, int)           - Undefined Reference
    _ZN11QVectorData8allocateEii@QtCore{00040703}[2001b2dc].dll  - Undefined Reference
    QApplication::desktop()                   - Undefined Reference
    _ZN12QApplication7desktopEv@QtGui{00040703}[2001b2dd].dll  - Undefined Reference
    QImageReader::read()                      - Undefined Reference
    _ZN12QImageReader4readEv@QtGui{00040703}[2001b2dd].dll  - Undefined Reference
    QImageReader::QImageReader(QIODevice*, const QByteArray&)  - Undefined Reference
    _ZN12QImageReaderC1EP9QIODeviceRK10QByteArray@QtGui{00040703}[2001b2dd].dll  - Undefined Reference
    QImageReader::QImageReader(const QString&, const QByteArray&)  - Undefined Reference
    _ZN12QImageReaderC1ERK7QStringRK10QByteArray@QtGui{00040703}[2001b2dd].dll  - Undefined Reference
    QImageReader::~QImageReader()             - Undefined Reference
    _ZN12QImageReaderD1Ev@QtGui{00040703}[2001b2dd].dll  - Undefined Reference
    QPaintDevice::QPaintDevice__sub_object()  - Undefined Reference
    _ZN12QPaintDeviceC2Ev@QtGui{00040703}[2001b2dd].dll  - Undefined Reference
    QPaintDevice::~QPaintDevice__sub_object()  - Undefined Reference
    _ZN12QPaintDeviceD2Ev@QtGui{00040703}[2001b2dd].dll  - Undefined Reference
    QPaintEngine::drawTextItem(const QPointF&, const QTextItem&)  - Undefined Reference
    _ZN12QPaintEngine12drawTextItemERK7QPointFRK9QTextItem@QtGui{00040703}[2001b2dd].dll  - Undefined Reference
    QPaintEngine::~QPaintEngine__sub_object()  - Undefined Reference
    _ZN12QPaintEngineD2Ev@QtGui{00040703}[2001b2dd].dll  - Undefined Reference
    QPainterPath::ensureData_helper()         - Undefined Reference
    _ZN12QPainterPath17ensureData_helperEv@QtGui{00040703}[2001b2dd].dll  - Undefined Reference
    QPainterPath::QPainterPath(const QPainterPath&)  - Undefined Reference
    _ZN12QPainterPathC1ERKS_@QtGui{00040703}[2001b2dd].dll  - Undefined Reference
    QPainterPath::QPainterPath()              - Undefined Reference
    _ZN12QPainterPathC1Ev@QtGui{00040703}[2001b2dd].dll  - Undefined Reference
    QPainterPath::~QPainterPath()             - Undefined Reference
    _ZN12QPainterPathD1Ev@QtGui{00040703}[2001b2dd].dll  - Undefined Reference
    QPainterState::QPainterState()            - Undefined Reference
    _ZN13QPainterStateC1Ev@QtGui{00040703}[2001b2dd].dll  - Undefined Reference
    QPainterState::~QPainterState()           - Undefined Reference
    _ZN13QPainterStateD1Ev@QtGui{00040703}[2001b2dd].dll  - Undefined Reference
    QPixmapFilter::~QPixmapFilter__sub_object()  - Undefined Reference
    _ZN13QPixmapFilterD2Ev@QtGui{00040703}[2001b2dd].dll  - Undefined Reference
    QEglProperties::removeValue(int)          - Undefined Reference
    _ZN14QEglProperties11removeValueEi@QtGui{00040703}[2001b2dd].dll  - Undefined Reference
    QEglProperties::setPixelFormat(QImage::Format)  - Undefined Reference
    _ZN14QEglProperties14setPixelFormatEN6QImage6FormatE@QtGui{00040703}[2001b2dd].dll  - Undefined Reference
    QEglProperties::setRenderableType(QEgl::API)  - Undefined Reference
    _ZN14QEglProperties17setRenderableTypeEN4QEgl3APIE@QtGui{00040703}[2001b2dd].dll  - Undefined Reference
    QEglProperties::setPaintDeviceFormat(QPaintDevice*)  - Undefined Reference
    _ZN14QEglProperties20setPaintDeviceFormatEP12QPaintDevice@QtGui{00040703}[2001b2dd].dll  - Undefined Reference
    QEglProperties::setValue(int, int)        - Undefined Reference
    _ZN14QEglProperties8setValueEii@QtGui{00040703}[2001b2dd].dll  - Undefined Reference
    QEglProperties::QEglProperties()          - Undefined Reference
    _ZN14QEglPropertiesC1Ev@QtGui{00040703}[2001b2dd].dll  - Undefined Reference
    QObjectPrivate::~QObjectPrivate()         - Undefined Reference
    _ZN14QObjectPrivateD1Ev@QtCore{00040703}[2001b2dc].dll  - Undefined Reference
    QPaintEngineEx::drawEllipse(const QRectF&)  - Undefined Reference
    _ZN14QPaintEngineEx11drawEllipseERK6QRectF@QtGui{00040703}[2001b2dd].dll  - Undefined Reference
    QPaintEngineEx::updateState(const QPaintEngineState&)  - Undefined Reference
    _ZN14QPaintEngineEx11updateStateERK17QPaintEngineState@QtGui{00040703}[2001b2dd].dll  - Undefined Reference
    QPaintEngineEx::drawRoundedRect(const QRectF&, float, float, Qt::SizeMode)  - Undefined Reference
    _ZN14QPaintEngineEx15drawRoundedRectERK6QRectFffN2Qt8SizeModeE@QtGui{00040703}[2001b2dd].dll  - Undefined Reference
    QPaintEngineEx::drawPixmapFragments(const QPainter::PixmapFragment*, int, const QPixmap&, QFlags<QPainter::PixmapFragmentHint>)  - Undefined Reference
    _ZN14QPaintEngineEx19drawPixmapFragmentsEPKN8QPainter14PixmapFragmentEiRK7QPixmap6QFlagsINS0_18PixmapFragmentHintEE@QtGui{00040703}[2001b2dd].dll  - Undefined Reference
    QPaintEngineEx::clip(const QPainterPath&, Qt::ClipOperation)  - Undefined Reference
    _ZN14QPaintEngineEx4clipERK12QPainterPathN2Qt13ClipOperationE@QtGui{00040703}[2001b2dd].dll  - Undefined Reference
    QPaintEngineEx::setState(QPainterState*)  - Undefined Reference
    _ZN14QPaintEngineEx8setStateEP13QPainterState@QtGui{00040703}[2001b2dd].dll  - Undefined Reference
    QPaintEngineEx::QPaintEngineEx__sub_object(QPaintEngineExPrivate&)  - Undefined Reference
    _ZN14QPaintEngineExC2ER21QPaintEngineExPrivate@QtGui{00040703}[2001b2dd].dll  - Undefined Reference
    QWindowSurface::setGeometry(const QRect&)  - Undefined Reference
    _ZN14QWindowSurface11setGeometryERK5QRect@QtGui{00040703}[2001b2dd].dll  - Undefined Reference
    QWindowSurface::setStaticContentsSupport(bool)  - Undefined Reference
    _ZN14QWindowSurface24setStaticContentsSupportEb@QtGui{00040703}[2001b2dd].dll  - Undefined Reference
    QWindowSurface::buffer(const QWidget*)    - Undefined Reference
    _ZN14QWindowSurface6bufferEPK7QWidget@QtGui{00040703}[2001b2dd].dll  - Undefined Reference
    QWindowSurface::scroll(const QRegion&, int, int)  - Undefined Reference
    _ZN14QWindowSurface6scrollERK7QRegionii@QtGui{00040703}[2001b2dd].dll  - Undefined Reference
    QWindowSurface::QWindowSurface__sub_object(QWidget*)  - Undefined Reference
    _ZN14QWindowSurfaceC2EP7QWidget@QtGui{00040703}[2001b2dd].dll  - Undefined Reference
    QWindowSurface::~QWindowSurface__sub_object()  - Undefined Reference
    _ZN14QWindowSurfaceD2Ev@QtGui{00040703}[2001b2dd].dll  - Undefined Reference
    CFbsBitmapDevice::NewL(CFbsBitmap*)       - Undefined Reference
    _ZN16CFbsBitmapDevice4NewLEP10CFbsBitmap@bitgdi{000a0000}[10003b18].dll  - Undefined Reference
    QPixmapBlurFilter::qt_metacall(QMetaObject::Call, int, void**)  - Undefined Reference
    _ZN17QPixmapBlurFilter11qt_metacallEN11QMetaObject4CallEiPPv@QtGui{00040703}[2001b2dd].dll  - Undefined Reference
    QPixmapBlurFilter::qt_metacast(const char*)  - Undefined Reference
    _ZN17QPixmapBlurFilter11qt_metacastEPKc@QtGui{00040703}[2001b2dd].dll  - Undefined Reference
    QPixmapBlurFilter::staticMetaObject       - Undefined Reference
    _ZN17QPixmapBlurFilter16staticMetaObjectE@QtGui{00040703}[2001b2dd].dll  - Undefined Reference
    QPixmapBlurFilter::QPixmapBlurFilter(QObject*)  - Undefined Reference
    _ZN17QPixmapBlurFilterC1EP7QObject@QtGui{00040703}[2001b2dd].dll  - Undefined Reference
    QPixmapBlurFilter::~QPixmapBlurFilter()   - Undefined Reference
    _ZN17QPixmapBlurFilterD1Ev@QtGui{00040703}[2001b2dd].dll  - Undefined Reference
    QPaintEngineExPrivate::QPaintEngineExPrivate()  - Undefined Reference
    _ZN21QPaintEngineExPrivateC1Ev@QtGui{00040703}[2001b2dd].dll  - Undefined Reference
    QPaintEngineExPrivate::~QPaintEngineExPrivate()  - Undefined Reference
    _ZN21QPaintEngineExPrivateD1Ev@QtGui{00040703}[2001b2dd].dll  - Undefined Reference
    QPixmapColorizeFilter::qt_metacall(QMetaObject::Call, int, void**)  - Undefined Reference
    _ZN21QPixmapColorizeFilter11qt_metacallEN11QMetaObject4CallEiPPv@QtGui{00040703}[2001b2dd].dll  - Undefined Reference
    QPixmapColorizeFilter::qt_metacast(const char*)  - Undefined Reference
    _ZN21QPixmapColorizeFilter11qt_metacastEPKc@QtGui{00040703}[2001b2dd].dll  - Undefined Reference
    QPixmapColorizeFilter::staticMetaObject   - Undefined Reference
    _ZN21QPixmapColorizeFilter16staticMetaObjectE@QtGui{00040703}[2001b2dd].dll  - Undefined Reference
    QPixmapColorizeFilter::QPixmapColorizeFilter(QObject*)  - Undefined Reference
    _ZN21QPixmapColorizeFilterC1EP7QObject@QtGui{00040703}[2001b2dd].dll  - Undefined Reference
    QPixmapDropShadowFilter::qt_metacall(QMetaObject::Call, int, void**)  - Undefined Reference
    _ZN23QPixmapDropShadowFilter11qt_metacallEN11QMetaObject4CallEiPPv@QtGui{00040703}[2001b2dd].dll  - Undefined Reference
    QPixmapDropShadowFilter::qt_metacast(const char*)  - Undefined Reference
    _ZN23QPixmapDropShadowFilter11qt_metacastEPKc@QtGui{00040703}[2001b2dd].dll  - Undefined Reference
    QPixmapDropShadowFilter::staticMetaObject  - Undefined Reference
    _ZN23QPixmapDropShadowFilter16staticMetaObjectE@QtGui{00040703}[2001b2dd].dll  - Undefined Reference
    QPixmapDropShadowFilter::QPixmapDropShadowFilter(QObject*)  - Undefined Reference
    _ZN23QPixmapDropShadowFilterC1EP7QObject@QtGui{00040703}[2001b2dd].dll  - Undefined Reference
    QPixmapDropShadowFilter::~QPixmapDropShadowFilter()  - Undefined Reference
    _ZN23QPixmapDropShadowFilterD1Ev@QtGui{00040703}[2001b2dd].dll  - Undefined Reference
    QPixmapConvolutionFilter::qt_metacall(QMetaObject::Call, int, void**)  - Undefined Reference
    _ZN24QPixmapConvolutionFilter11qt_metacallEN11QMetaObject4CallEiPPv@QtGui{00040703}[2001b2dd].dll  - Undefined Reference
    QPixmapConvolutionFilter::qt_metacast(const char*)  - Undefined Reference
    _ZN24QPixmapConvolutionFilter11qt_metacastEPKc@QtGui{00040703}[2001b2dd].dll  - Undefined Reference
    QPixmapConvolutionFilter::staticMetaObject  - Undefined Reference
    _ZN24QPixmapConvolutionFilter16staticMetaObjectE@QtGui{00040703}[2001b2dd].dll  - Undefined Reference
    QPixmapConvolutionFilter::QPixmapConvolutionFilter(QObject*)  - Undefined Reference
    _ZN24QPixmapConvolutionFilterC1EP7QObject@QtGui{00040703}[2001b2dd].dll  - Undefined Reference
    QPixmapConvolutionFilter::~QPixmapConvolutionFilter()  - Undefined Reference
    _ZN24QPixmapConvolutionFilterD1Ev@QtGui{00040703}[2001b2dd].dll  - Undefined Reference
    QEgl::hasExtension(const char*)           - Undefined Reference
    _ZN4QEgl12hasExtensionEPKc@QtGui{00040703}[2001b2dd].dll  - Undefined Reference
    QEgl::display()                           - Undefined Reference
    _ZN4QEgl7displayEv@QtGui{00040703}[2001b2dd].dll  - Undefined Reference
    QPen::setCapStyle(Qt::PenCapStyle)        - Undefined Reference
    _ZN4QPen11setCapStyleEN2Qt11PenCapStyleE@QtGui{00040703}[2001b2dd].dll  - Undefined Reference
    QPen::QPen(Qt::PenStyle)                  - Undefined Reference
    _ZN4QPenC1EN2Qt8PenStyleE@QtGui{00040703}[2001b2dd].dll  - Undefined Reference
    QPen::QPen(const QPen&)                   - Undefined Reference
    _ZN4QPenC1ERKS_@QtGui{00040703}[2001b2dd].dll  - Undefined Reference
    QPen::QPen()                              - Undefined Reference
    _ZN4QPenC1Ev@QtGui{00040703}[2001b2dd].dll  - Undefined Reference
    QPen::~QPen()                             - Undefined Reference
    _ZN4QPenD1Ev@QtGui{00040703}[2001b2dd].dll  - Undefined Reference
    QPen::operator =(const QPen&)             - Undefined Reference
    _ZN4QPenaSERKS_@QtGui{00040703}[2001b2dd].dll  - Undefined Reference
    User::MarkCleanupStack()                  - Undefined Reference
    _ZN4User16MarkCleanupStackEv@euser{000a0000}[100039e5].dll  - Undefined Reference
    User::UnMarkCleanupStack(TTrapHandler*)   - Undefined Reference
    _ZN4User18UnMarkCleanupStackEP12TTrapHandler@euser{000a0000}[100039e5].dll  - Undefined Reference
    User::AllocZ(int)                         - Undefined Reference
    _ZN4User6AllocZEi@euser{000a0000}[100039e5].dll  - Undefined Reference
    User::Invariant()                         - Undefined Reference
    _ZN4User9InvariantEv@euser{000a0000}[100039e5].dll  - Undefined Reference
    User::LockedDec(int&)                     - Undefined Reference
    _ZN4User9LockedDecERi@euser{000a0000}[100039e5].dll  - Undefined Reference
    User::LockedInc(int&)                     - Undefined Reference
    _ZN4User9LockedIncERi@euser{000a0000}[100039e5].dll  - Undefined Reference
    QFont::QFont(const QFont&)                - Undefined Reference
    _ZN5QFontC1ERKS_@QtGui{00040703}[2001b2dd].dll  - Undefined Reference
    QFont::~QFont()                           - Undefined Reference
    _ZN5QFontD1Ev@QtGui{00040703}[2001b2dd].dll  - Undefined Reference
    QBrush::setTransform(const QTransform&)   - Undefined Reference
    _ZN6QBrush12setTransformERK10QTransform@QtGui{00040703}[2001b2dd].dll  - Undefined Reference
    QBrush::QBrush(const QColor&, Qt::BrushStyle)  - Undefined Reference
    _ZN6QBrushC1ERK6QColorN2Qt10BrushStyleE@QtGui{00040703}[2001b2dd].dll  - Undefined Reference
    QBrush::QBrush(const QColor&, const QPixmap&)  - Undefined Reference
    _ZN6QBrushC1ERK6QColorRK7QPixmap@QtGui{00040703}[2001b2dd].dll  - Undefined Reference
    QBrush::QBrush(const QBrush&)             - Undefined Reference
    _ZN6QBrushC1ERKS_@QtGui{00040703}[2001b2dd].dll  - Undefined Reference
    QBrush::QBrush()                          - Undefined Reference
    _ZN6QBrushC1Ev@QtGui{00040703}[2001b2dd].dll  - Undefined Reference
    QBrush::~QBrush()                         - Undefined Reference
    _ZN6QBrushD1Ev@QtGui{00040703}[2001b2dd].dll  - Undefined Reference
    QBrush::operator =(const QBrush&)         - Undefined Reference
    _ZN6QBrushaSERKS_@QtGui{00040703}[2001b2dd].dll  - Undefined Reference
    QColor::invalidate()                      - Undefined Reference
    _ZN6QColor10invalidateEv@QtGui{00040703}[2001b2dd].dll  - Undefined Reference
    QColor::setAlphaF(float)                  - Undefined Reference
    _ZN6QColor9setAlphaFEf@QtGui{00040703}[2001b2dd].dll  - Undefined Reference
    QColor::QColor(Qt::GlobalColor)           - Undefined Reference
    _ZN6QColorC1EN2Qt11GlobalColorE@QtGui{00040703}[2001b2dd].dll  - Undefined Reference
    QColor::operator =(const QColor&)         - Undefined Reference
    _ZN6QColoraSERKS_@QtGui{00040703}[2001b2dd].dll  - Undefined Reference
    QImage::invertPixels(QImage::InvertMode)  - Undefined Reference
    _ZN6QImage12invertPixelsENS_10InvertModeE@QtGui{00040703}[2001b2dd].dll  - Undefined Reference
    QImage::setAlphaChannel(const QImage&)    - Undefined Reference
    _ZN6QImage15setAlphaChannelERKS_@QtGui{00040703}[2001b2dd].dll  - Undefined Reference
    QImage::fill(unsigned)                    - Undefined Reference
    _ZN6QImage4fillEj@QtGui{00040703}[2001b2dd].dll  - Undefined Reference
    QImage::detach()                          - Undefined Reference
    _ZN6QImage6detachEv@QtGui{00040703}[2001b2dd].dll  - Undefined Reference
    QImage::scanLine(int)                     - Undefined Reference
    _ZN6QImage8scanLineEi@QtGui{00040703}[2001b2dd].dll  - Undefined Reference
    QImage::QImage(unsigned char*, int, int, int, QImage::Format)  - Undefined Reference
    _ZN6QImageC1EPhiiiNS_6FormatE@QtGui{00040703}[2001b2dd].dll  - Undefined Reference
    QImage::QImage(const QSize&, QImage::Format)  - Undefined Reference
    _ZN6QImageC1ERK5QSizeNS_6FormatE@QtGui{00040703}[2001b2dd].dll  - Undefined Reference
    QImage::QImage(const QImage&)             - Undefined Reference
    _ZN6QImageC1ERKS_@QtGui{00040703}[2001b2dd].dll  - Undefined Reference
    QImage::QImage(int, int, QImage::Format)  - Undefined Reference
    _ZN6QImageC1EiiNS_6FormatE@QtGui{00040703}[2001b2dd].dll  - Undefined Reference
    QImage::QImage()                          - Undefined Reference
    _ZN6QImageC1Ev@QtGui{00040703}[2001b2dd].dll  - Undefined Reference
    QImage::~QImage()                         - Undefined Reference
    _ZN6QImageD1Ev@QtGui{00040703}[2001b2dd].dll  - Undefined Reference
    QImage::operator =(const QImage&)         - Undefined Reference
    _ZN6QImageaSERKS_@QtGui{00040703}[2001b2dd].dll  - Undefined Reference
    QBuffer::open(QFlags<QIODevice::OpenModeFlag>)  - Undefined Reference
    _ZN7QBuffer4openE6QFlagsIN9QIODevice12OpenModeFlagEE@QtCore{00040703}[2001b2dc].dll  - Undefined Reference
    QBuffer::QBuffer(QByteArray*, QObject*)   - Undefined Reference
    _ZN7QBufferC1EP10QByteArrayP7QObject@QtCore{00040703}[2001b2dc].dll  - Undefined Reference
    QBuffer::~QBuffer()                       - Undefined Reference
    _ZN7QBufferD1Ev@QtCore{00040703}[2001b2dc].dll  - Undefined Reference
    QMatrix::QMatrix(const QMatrix&)          - Undefined Reference
    _ZN7QMatrixC1ERKS_@QtGui{00040703}[2001b2dd].dll  - Undefined Reference
    QObject::childEvent(QChildEvent*)         - Undefined Reference
    _ZN7QObject10childEventEP11QChildEvent@QtCore{00040703}[2001b2dc].dll  - Undefined Reference
    QObject::timerEvent(QTimerEvent*)         - Undefined Reference
    _ZN7QObject10timerEventEP11QTimerEvent@QtCore{00040703}[2001b2dc].dll  - Undefined Reference
    QObject::customEvent(QEvent*)             - Undefined Reference
    _ZN7QObject11customEventEP6QEvent@QtCore{00040703}[2001b2dc].dll  - Undefined Reference
    QObject::eventFilter(QObject*, QEvent*)   - Undefined Reference
    _ZN7QObject11eventFilterEPS_P6QEvent@QtCore{00040703}[2001b2dc].dll  - Undefined Reference
    QObject::qt_metacall(QMetaObject::Call, int, void**)  - Undefined Reference
    _ZN7QObject11qt_metacallEN11QMetaObject4CallEiPPv@QtCore{00040703}[2001b2dc].dll  - Undefined Reference
    QObject::qt_metacast(const char*)         - Undefined Reference
    _ZN7QObject11qt_metacastEPKc@QtCore{00040703}[2001b2dc].dll  - Undefined Reference
    QObject::connectNotify(const char*)       - Undefined Reference
    _ZN7QObject13connectNotifyEPKc@QtCore{00040703}[2001b2dc].dll  - Undefined Reference
    QObject::disconnectNotify(const char*)    - Undefined Reference
    _ZN7QObject16disconnectNotifyEPKc@QtCore{00040703}[2001b2dc].dll  - Undefined Reference
    QObject::staticMetaObject                 - Undefined Reference
    _ZN7QObject16staticMetaObjectE@QtCore{00040703}[2001b2dc].dll  - Undefined Reference
    QObject::event(QEvent*)                   - Undefined Reference
    _ZN7QObject5eventEP6QEvent@QtCore{00040703}[2001b2dc].dll  - Undefined Reference
    QObject::connect(const QObject*, const char*, const QObject*, const char*, Qt::ConnectionType)  - Undefined Reference
    _ZN7QObject7connectEPKS_PKcS1_S3_N2Qt14ConnectionTypeE@QtCore{00040703}[2001b2dc].dll  - Undefined Reference
    QObject::QObject(QObject*)                - Undefined Reference
    _ZN7QObjectC1EPS_@QtCore{00040703}[2001b2dc].dll  - Undefined Reference
    QObject::~QObject()                       - Undefined Reference
    _ZN7QObjectD1Ev@QtCore{00040703}[2001b2dc].dll  - Undefined Reference
    QPixmap::~QPixmap()                       - Undefined Reference
    _ZN7QPixmapD1Ev@QtGui{00040703}[2001b2dd].dll  - Undefined Reference
    QRegion::QRegion(const QRect&, QRegion::RegionType)  - Undefined Reference
    _ZN7QRegionC1ERK5QRectNS_10RegionTypeE@QtGui{00040703}[2001b2dd].dll  - Undefined Reference
    QRegion::QRegion(const QPolygon&, Qt::FillRule)  - Undefined Reference
    _ZN7QRegionC1ERK8QPolygonN2Qt8FillRuleE@QtGui{00040703}[2001b2dd].dll  - Undefined Reference
    QRegion::QRegion(const QRegion&)          - Undefined Reference
    _ZN7QRegionC1ERKS_@QtGui{00040703}[2001b2dd].dll  - Undefined Reference
    QRegion::QRegion(int, int, int, int, QRegion::RegionType)  - Undefined Reference
    _ZN7QRegionC1EiiiiNS_10RegionTypeE@QtGui{00040703}[2001b2dd].dll  - Undefined Reference
    QRegion::QRegion()                        - Undefined Reference
    _ZN7QRegionC1Ev@QtGui{00040703}[2001b2dd].dll  - Undefined Reference
    QRegion::~QRegion()                       - Undefined Reference
    _ZN7QRegionD1Ev@QtGui{00040703}[2001b2dd].dll  - Undefined Reference
    QRegion::operator =(const QRegion&)       - Undefined Reference
    _ZN7QRegionaSERKS_@QtGui{00040703}[2001b2dd].dll  - Undefined Reference
    QString::shared_null                      - Undefined Reference
    _ZN7QString11shared_nullE@QtCore{00040703}[2001b2dc].dll  - Undefined Reference
    QString::free(QString::Data*)             - Undefined Reference
    _ZN7QString4freeEPNS_4DataE@QtCore{00040703}[2001b2dc].dll  - Undefined Reference
    QString::fromAscii(const char*, int)      - Undefined Reference
    _ZN7QString9fromAsciiEPKci@QtCore{00040703}[2001b2dc].dll  - Undefined Reference
    QPainter::drawPixmap(const QRectF&, const QPixmap&, const QRectF&)  - Undefined Reference
    _ZN8QPainter10drawPixmapERK6QRectFRK7QPixmapS2_@QtGui{00040703}[2001b2dd].dll  - Undefined Reference
    QPainter::setOpacity(float)               - Undefined Reference
    _ZN8QPainter10setOpacityEf@QtGui{00040703}[2001b2dd].dll  - Undefined Reference
    QPainter::end()                           - Undefined Reference
    _ZN8QPainter3endEv@QtGui{00040703}[2001b2dd].dll  - Undefined Reference
    QPainter::begin(QPaintDevice*)            - Undefined Reference
    _ZN8QPainter5beginEP12QPaintDevice@QtGui{00040703}[2001b2dd].dll  - Undefined Reference
    QPainter::drawImage(const QRectF&, const QImage&, const QRectF&, QFlags<Qt::ImageConversionFlag>)  - Undefined Reference
    _ZN8QPainter9drawImageERK6QRectFRK6QImageS2_6QFlagsIN2Qt19ImageConversionFlagEE@QtGui{00040703}[2001b2dd].dll  - Undefined Reference
    QPainter::drawImage(const QPointF&, const QImage&)  - Undefined Reference
    _ZN8QPainter9drawImageERK7QPointFRK6QImage@QtGui{00040703}[2001b2dd].dll  - Undefined Reference
    QPainter::QPainter()                      - Undefined Reference
    _ZN8QPainterC1Ev@QtGui{00040703}[2001b2dd].dll  - Undefined Reference
    QPainter::~QPainter()                     - Undefined Reference
    _ZN8QPainterD1Ev@QtGui{00040703}[2001b2dd].dll  - Undefined Reference
    CFbsBitGc::NewL()                         - Undefined Reference
    _ZN9CFbsBitGc4NewLEv@bitgdi{000a0000}[10003b18].dll  - Undefined Reference
    CFbsBitGc::Activate(CFbsDevice*)          - Undefined Reference
    _ZN9CFbsBitGc8ActivateEP10CFbsDevice@bitgdi{000a0000}[10003b18].dll  - Undefined Reference
    QFontInfo::QFontInfo(const QFont&)        - Undefined Reference
    _ZN9QFontInfoC1ERK5QFont@QtGui{00040703}[2001b2dd].dll  - Undefined Reference
    QFontInfo::~QFontInfo()                   - Undefined Reference
    _ZN9QFontInfoD1Ev@QtGui{00040703}[2001b2dd].dll  - Undefined Reference
    QHashData::free_helper(void(*)(QHashData::Node*))  - Undefined Reference
    _ZN9QHashData11free_helperEPFvPNS_4NodeEE@QtCore{00040703}[2001b2dc].dll  - Undefined Reference
    QHashData::shared_null                    - Undefined Reference
    _ZN9QHashData11shared_nullE@QtCore{00040703}[2001b2dc].dll  - Undefined Reference
    QHashData::allocateNode(int)              - Undefined Reference
    _ZN9QHashData12allocateNodeEi@QtCore{00040703}[2001b2dc].dll  - Undefined Reference
    QHashData::detach_helper2(void(*)(QHashData::Node*, void*), void(*)(QHashData::Node*), int, int)  - Undefined Reference
    _ZN9QHashData14detach_helper2EPFvPNS_4NodeEPvEPFvS1_Eii@QtCore{00040703}[2001b2dc].dll  - Undefined Reference
    QHashData::rehash(int)                    - Undefined Reference
    _ZN9QHashData6rehashEi@QtCore{00040703}[2001b2dc].dll  - Undefined Reference
    QHashData::freeNode(void*)                - Undefined Reference
    _ZN9QHashData8freeNodeEPv@QtCore{00040703}[2001b2dc].dll  - Undefined Reference
    QHashData::nextNode(QHashData::Node*)     - Undefined Reference
    _ZN9QHashData8nextNodeEPNS_4NodeE@QtCore{00040703}[2001b2dc].dll  - Undefined Reference
    QListData::detach(int)                    - Undefined Reference
    _ZN9QListData6detachEi@QtCore{00040703}[2001b2dc].dll  - Undefined Reference
    CFbsBitmap::DataAddress() const           - Undefined Reference
    _ZNK10CFbsBitmap11DataAddressEv@fbscli{000a0000}[10003a15].dll  - Undefined Reference
    CFbsBitmap::DisplayMode() const           - Undefined Reference
    _ZNK10CFbsBitmap11DisplayModeEv@fbscli{000a0000}[10003a15].dll  - Undefined Reference
    CFbsBitmap::SizeInPixels() const          - Undefined Reference
    _ZNK10CFbsBitmap12SizeInPixelsEv@fbscli{000a0000}[10003a15].dll  - Undefined Reference
    CFbsBitmap::EndDataAccess(int) const      - Undefined Reference
    _ZNK10CFbsBitmap13EndDataAccessEi@fbscli{000a0000}[10003a15].dll  - Undefined Reference
    CFbsBitmap::BeginDataAccess() const       - Undefined Reference
    _ZNK10CFbsBitmap15BeginDataAccessEv@fbscli{000a0000}[10003a15].dll  - Undefined Reference
    CFbsBitmap::IsCompressedInRAM() const     - Undefined Reference
    _ZNK10CFbsBitmap17IsCompressedInRAMEv@fbscli{000a0000}[10003a15].dll  - Undefined Reference
    CFbsBitmap::ExtendedBitmapType() const    - Undefined Reference
    _ZNK10CFbsBitmap18ExtendedBitmapTypeEv@fbscli{000a0000}[10003a15].dll  - Undefined Reference
    QByteArray::toInt(bool*, int) const       - Undefined Reference
    _ZNK10QByteArray5toIntEPbi@QtCore{00040703}[2001b2dc].dll  - Undefined Reference
    QImageData::checkForAlphaPixels() const   - Undefined Reference
    _ZNK10QImageData19checkForAlphaPixelsEv@QtGui{00040703}[2001b2dd].dll  - Undefined Reference
    QTransform::map(const QPointF&) const     - Undefined Reference
    _ZNK10QTransform3mapERK7QPointF@QtGui{00040703}[2001b2dd].dll  - Undefined Reference
    QTransform::map(const QRegion&) const     - Undefined Reference
    _ZNK10QTransform3mapERK7QRegion@QtGui{00040703}[2001b2dd].dll  - Undefined Reference
    QTransform::type() const                  - Undefined Reference
    _ZNK10QTransform4typeEv@QtGui{00040703}[2001b2dd].dll  - Undefined Reference
    QTransform::mapRect(const QRectF&) const  - Undefined Reference
    _ZNK10QTransform7mapRectERK6QRectF@QtGui{00040703}[2001b2dd].dll  - Undefined Reference
    QTransform::operator ==(const QTransform&) const  - Undefined Reference
    _ZNK10QTransformeqERKS_@QtGui{00040703}[2001b2dd].dll  - Undefined Reference
    QTransform::operator *(const QTransform&) const  - Undefined Reference
    _ZNK10QTransformmlERKS_@QtGui{00040703}[2001b2dd].dll  - Undefined Reference
    QEglContext::configAttrib(int) const      - Undefined Reference
    _ZNK11QEglContext12configAttribEi@QtGui{00040703}[2001b2dd].dll  - Undefined Reference
    QEglContext::isCurrent() const            - Undefined Reference
    _ZNK11QEglContext9isCurrentEv@QtGui{00040703}[2001b2dd].dll  - Undefined Reference
    QPixmapData::transformed(const QTransform&, Qt::TransformationMode) const  - Undefined Reference
    _ZNK11QPixmapData11transformedERK10QTransformN2Qt18TransformationModeE@QtGui{00040703}[2001b2dd].dll  - Undefined Reference
    QPixmapData::alphaChannel() const         - Undefined Reference
    _ZNK11QPixmapData12alphaChannelEv@QtGui{00040703}[2001b2dd].dll  - Undefined Reference
    QPixmapData::mask() const                 - Undefined Reference
    _ZNK11QPixmapData4maskEv@QtGui{00040703}[2001b2dd].dll  - Undefined Reference
    QPixmapData::toImage(const QRect&) const  - Undefined Reference
    _ZNK11QPixmapData7toImageERK5QRect@QtGui{00040703}[2001b2dd].dll  - Undefined Reference
    QVectorPath::controlPointRect() const     - Undefined Reference
    _ZNK11QVectorPath16controlPointRectEv@QtGui{00040703}[2001b2dd].dll  - Undefined Reference
    QPaintEngine::paintDevice() const         - Undefined Reference
    _ZNK12QPaintEngine11paintDeviceEv@QtGui{00040703}[2001b2dd].dll  - Undefined Reference
    QPaintEngine::coordinateOffset() const    - Undefined Reference
    _ZNK12QPaintEngine16coordinateOffsetEv@QtGui{00040703}[2001b2dd].dll  - Undefined Reference
    QPainterPath::toFillPolygon(const QTransform&) const  - Undefined Reference
    _ZNK12QPainterPath13toFillPolygonERK10QTransform@QtGui{00040703}[2001b2dd].dll  - Undefined Reference
    QPainterPath::fillRule() const            - Undefined Reference
    _ZNK12QPainterPath8fillRuleEv@QtGui{00040703}[2001b2dd].dll  - Undefined Reference
    QPixmapFilter::boundingRectFor(const QRectF&) const  - Undefined Reference
    _ZNK13QPixmapFilter15boundingRectForERK6QRectF@QtGui{00040703}[2001b2dd].dll  - Undefined Reference
    QDesktopWidget::screenGeometry(int) const  - Undefined Reference
    _ZNK14QDesktopWidget14screenGeometryEi@QtGui{00040703}[2001b2dd].dll  - Undefined Reference
    QEglProperties::value(int) const          - Undefined Reference
    _ZNK14QEglProperties5valueEi@QtGui{00040703}[2001b2dd].dll  - Undefined Reference
    QWindowSurface::grabWidget(const QWidget*, const QRect&) const  - Undefined Reference
    _ZNK14QWindowSurface10grabWidgetEPK7QWidgetRK5QRect@QtGui{00040703}[2001b2dd].dll  - Undefined Reference
    QWindowSurface::offset(const QWidget*) const  - Undefined Reference
    _ZNK14QWindowSurface6offsetEPK7QWidget@QtGui{00040703}[2001b2dd].dll  - Undefined Reference
    QWindowSurface::window() const            - Undefined Reference
    _ZNK14QWindowSurface6windowEv@QtGui{00040703}[2001b2dd].dll  - Undefined Reference
    QWindowSurface::geometry() const          - Undefined Reference
    _ZNK14QWindowSurface8geometryEv@QtGui{00040703}[2001b2dd].dll  - Undefined Reference
    QLinearGradient::start() const            - Undefined Reference
    _ZNK15QLinearGradient5startEv@QtGui{00040703}[2001b2dd].dll  - Undefined Reference
    QLinearGradient::finalStop() const        - Undefined Reference
    _ZNK15QLinearGradient9finalStopEv@QtGui{00040703}[2001b2dd].dll  - Undefined Reference
    QRadialGradient::focalPoint() const       - Undefined Reference
    _ZNK15QRadialGradient10focalPointEv@QtGui{00040703}[2001b2dd].dll  - Undefined Reference
    QRadialGradient::center() const           - Undefined Reference
    _ZNK15QRadialGradient6centerEv@QtGui{00040703}[2001b2dd].dll  - Undefined Reference
    QRadialGradient::radius() const           - Undefined Reference
    _ZNK15QRadialGradient6radiusEv@QtGui{00040703}[2001b2dd].dll  - Undefined Reference
    XLeaveException::GetReason() const        - Undefined Reference
    _ZNK15XLeaveException9GetReasonEv@euser{000a0000}[100039e5].dll  - Undefined Reference
    QPaintEngineState::transform() const      - Undefined Reference
    _ZNK17QPaintEngineState9transformEv@QtGui{00040703}[2001b2dd].dll  - Undefined Reference
    QPixmapBlurFilter::boundingRectFor(const QRectF&) const  - Undefined Reference
    _ZNK17QPixmapBlurFilter15boundingRectForERK6QRectF@QtGui{00040703}[2001b2dd].dll  - Undefined Reference
    QPixmapBlurFilter::draw(QPainter*, const QPointF&, const QPixmap&, const QRectF&) const  - Undefined Reference
    _ZNK17QPixmapBlurFilter4drawEP8QPainterRK7QPointFRK7QPixmapRK6QRectF@QtGui{00040703}[2001b2dd].dll  - Undefined Reference
    QPixmapBlurFilter::radius() const         - Undefined Reference
    _ZNK17QPixmapBlurFilter6radiusEv@QtGui{00040703}[2001b2dd].dll  - Undefined Reference
    QPixmapColorizeFilter::draw(QPainter*, const QPointF&, const QPixmap&, const QRectF&) const  - Undefined Reference
    _ZNK21QPixmapColorizeFilter4drawEP8QPainterRK7QPointFRK7QPixmapRK6QRectF@QtGui{00040703}[2001b2dd].dll  - Undefined Reference
    QPixmapColorizeFilter::color() const      - Undefined Reference
    _ZNK21QPixmapColorizeFilter5colorEv@QtGui{00040703}[2001b2dd].dll  - Undefined Reference
    QPixmapColorizeFilter::strength() const   - Undefined Reference
    _ZNK21QPixmapColorizeFilter8strengthEv@QtGui{00040703}[2001b2dd].dll  - Undefined Reference
    QPixmapDropShadowFilter::blurRadius() const  - Undefined Reference
    _ZNK23QPixmapDropShadowFilter10blurRadiusEv@QtGui{00040703}[2001b2dd].dll  - Undefined Reference
    QPixmapDropShadowFilter::boundingRectFor(const QRectF&) const  - Undefined Reference
    _ZNK23QPixmapDropShadowFilter15boundingRectForERK6QRectF@QtGui{00040703}[2001b2dd].dll  - Undefined Reference
    QPixmapDropShadowFilter::draw(QPainter*, const QPointF&, const QPixmap&, const QRectF&) const  - Undefined Reference
    _ZNK23QPixmapDropShadowFilter4drawEP8QPainterRK7QPointFRK7QPixmapRK6QRectF@QtGui{00040703}[2001b2dd].dll  - Undefined Reference
    QPixmapDropShadowFilter::color() const    - Undefined Reference
    _ZNK23QPixmapDropShadowFilter5colorEv@QtGui{00040703}[2001b2dd].dll  - Undefined Reference
    QPixmapDropShadowFilter::offset() const   - Undefined Reference
    _ZNK23QPixmapDropShadowFilter6offsetEv@QtGui{00040703}[2001b2dd].dll  - Undefined Reference
    QPixmapConvolutionFilter::boundingRectFor(const QRectF&) const  - Undefined Reference
    _ZNK24QPixmapConvolutionFilter15boundingRectForERK6QRectF@QtGui{00040703}[2001b2dd].dll  - Undefined Reference
    QPixmapConvolutionFilter::convolutionKernel() const  - Undefined Reference
    _ZNK24QPixmapConvolutionFilter17convolutionKernelEv@QtGui{00040703}[2001b2dd].dll  - Undefined Reference
    QPixmapConvolutionFilter::draw(QPainter*, const QPointF&, const QPixmap&, const QRectF&) const  - Undefined Reference
    _ZNK24QPixmapConvolutionFilter4drawEP8QPainterRK7QPointFRK7QPixmapRK6QRectF@QtGui{00040703}[2001b2dd].dll  - Undefined Reference
    QPixmapConvolutionFilter::rows() const    - Undefined Reference
    _ZNK24QPixmapConvolutionFilter4rowsEv@QtGui{00040703}[2001b2dd].dll  - Undefined Reference
    QPixmapConvolutionFilter::columns() const  - Undefined Reference
    _ZNK24QPixmapConvolutionFilter7columnsEv@QtGui{00040703}[2001b2dd].dll  - Undefined Reference
    QPen::dashOffset() const                  - Undefined Reference
    _ZNK4QPen10dashOffsetEv@QtGui{00040703}[2001b2dd].dll  - Undefined Reference
    QPen::isCosmetic() const                  - Undefined Reference
    _ZNK4QPen10isCosmeticEv@QtGui{00040703}[2001b2dd].dll  - Undefined Reference
    QPen::miterLimit() const                  - Undefined Reference
    _ZNK4QPen10miterLimitEv@QtGui{00040703}[2001b2dd].dll  - Undefined Reference
    QPen::dashPattern() const                 - Undefined Reference
    _ZNK4QPen11dashPatternEv@QtGui{00040703}[2001b2dd].dll  - Undefined Reference
    QPen::brush() const                       - Undefined Reference
    _ZNK4QPen5brushEv@QtGui{00040703}[2001b2dd].dll  - Undefined Reference
    QPen::color() const                       - Undefined Reference
    _ZNK4QPen5colorEv@QtGui{00040703}[2001b2dd].dll  - Undefined Reference
    QPen::style() const                       - Undefined Reference
    _ZNK4QPen5styleEv@QtGui{00040703}[2001b2dd].dll  - Undefined Reference
    QPen::widthF() const                      - Undefined Reference
    _ZNK4QPen6widthFEv@QtGui{00040703}[2001b2dd].dll  - Undefined Reference
    QPen::capStyle() const                    - Undefined Reference
    _ZNK4QPen8capStyleEv@QtGui{00040703}[2001b2dd].dll  - Undefined Reference
    QPen::joinStyle() const                   - Undefined Reference
    _ZNK4QPen9joinStyleEv@QtGui{00040703}[2001b2dd].dll  - Undefined Reference
    QPen::operator ==(const QPen&) const      - Undefined Reference
    _ZNK4QPeneqERKS_@QtGui{00040703}[2001b2dd].dll  - Undefined Reference
    TUid::operator !=(const TUid&) const      - Undefined Reference
    _ZNK4TUidneERKS_@euser{000a0000}[100039e5].dll  - Undefined Reference
    QBrush::texture() const                   - Undefined Reference
    _ZNK6QBrush7textureEv@QtGui{00040703}[2001b2dd].dll  - Undefined Reference
    QBrush::gradient() const                  - Undefined Reference
    _ZNK6QBrush8gradientEv@QtGui{00040703}[2001b2dd].dll  - Undefined Reference
    QBrush::isOpaque() const                  - Undefined Reference
    _ZNK6QBrush8isOpaqueEv@QtGui{00040703}[2001b2dd].dll  - Undefined Reference
    QBrush::operator ==(const QBrush&) const  - Undefined Reference
    _ZNK6QBrusheqERKS_@QtGui{00040703}[2001b2dd].dll  - Undefined Reference
    QColor::redF() const                      - Undefined Reference
    _ZNK6QColor4redFEv@QtGui{00040703}[2001b2dd].dll  - Undefined Reference
    QColor::rgba() const                      - Undefined Reference
    _ZNK6QColor4rgbaEv@QtGui{00040703}[2001b2dd].dll  - Undefined Reference
    QColor::alpha() const                     - Undefined Reference
    _ZNK6QColor5alphaEv@QtGui{00040703}[2001b2dd].dll  - Undefined Reference
    QColor::blueF() const                     - Undefined Reference
    _ZNK6QColor5blueFEv@QtGui{00040703}[2001b2dd].dll  - Undefined Reference
    QColor::alphaF() const                    - Undefined Reference
    _ZNK6QColor6alphaFEv@QtGui{00040703}[2001b2dd].dll  - Undefined Reference
    QColor::greenF() const                    - Undefined Reference
    _ZNK6QColor6greenFEv@QtGui{00040703}[2001b2dd].dll  - Undefined Reference
    QColor::operator !=(const QColor&) const  - Undefined Reference
    _ZNK6QColorneERKS_@QtGui{00040703}[2001b2dd].dll  - Undefined Reference
    QImage::rgbSwapped() const                - Undefined Reference
    _ZNK6QImage10rgbSwappedEv@QtGui{00040703}[2001b2dd].dll  - Undefined Reference
    QImage::paintEngine() const               - Undefined Reference
    _ZNK6QImage11paintEngineEv@QtGui{00040703}[2001b2dd].dll  - Undefined Reference
    QImage::bytesPerLine() const              - Undefined Reference
    _ZNK6QImage12bytesPerLineEv@QtGui{00040703}[2001b2dd].dll  - Undefined Reference
    QImage::constScanLine(int) const          - Undefined Reference
    _ZNK6QImage13constScanLineEi@QtGui{00040703}[2001b2dd].dll  - Undefined Reference
    QImage::convertToFormat(QImage::Format, QFlags<Qt::ImageConversionFlag>) const  - Undefined Reference
    _ZNK6QImage15convertToFormatENS_6FormatE6QFlagsIN2Qt19ImageConversionFlagEE@QtGui{00040703}[2001b2dd].dll  - Undefined Reference
    QImage::hasAlphaChannel() const           - Undefined Reference
    _ZNK6QImage15hasAlphaChannelEv@QtGui{00040703}[2001b2dd].dll  - Undefined Reference
    QImage::bits() const                      - Undefined Reference
    _ZNK6QImage4bitsEv@QtGui{00040703}[2001b2dd].dll  - Undefined Reference
    QImage::copy(const QRect&) const          - Undefined Reference
    _ZNK6QImage4copyERK5QRect@QtGui{00040703}[2001b2dd].dll  - Undefined Reference
    QImage::size() const                      - Undefined Reference
    _ZNK6QImage4sizeEv@QtGui{00040703}[2001b2dd].dll  - Undefined Reference
    QImage::color(int) const                  - Undefined Reference
    _ZNK6QImage5colorEi@QtGui{00040703}[2001b2dd].dll  - Undefined Reference
    QImage::depth() const                     - Undefined Reference
    _ZNK6QImage5depthEv@QtGui{00040703}[2001b2dd].dll  - Undefined Reference
    QImage::width() const                     - Undefined Reference
    _ZNK6QImage5widthEv@QtGui{00040703}[2001b2dd].dll  - Undefined Reference
    QImage::format() const                    - Undefined Reference
    _ZNK6QImage6formatEv@QtGui{00040703}[2001b2dd].dll  - Undefined Reference
    QImage::height() const                    - Undefined Reference
    _ZNK6QImage6heightEv@QtGui{00040703}[2001b2dd].dll  - Undefined Reference
    QImage::isNull() const                    - Undefined Reference
    _ZNK6QImage6isNullEv@QtGui{00040703}[2001b2dd].dll  - Undefined Reference
    QImage::byteCount() const                 - Undefined Reference
    _ZNK6QImage9byteCountEv@QtGui{00040703}[2001b2dd].dll  - Undefined Reference
    QImage::constBits() const                 - Undefined Reference
    _ZNK6QImage9constBitsEv@QtGui{00040703}[2001b2dd].dll  - Undefined Reference
    QObject::sender() const                   - Undefined Reference
    _ZNK7QObject6senderEv@QtCore{00040703}[2001b2dc].dll  - Undefined Reference
    QPixmap::pixmapData() const               - Undefined Reference
    _ZNK7QPixmap10pixmapDataEv@QtGui{00040703}[2001b2dd].dll  - Undefined Reference
    QPixmap::size() const                     - Undefined Reference
    _ZNK7QPixmap4sizeEv@QtGui{00040703}[2001b2dd].dll  - Undefined Reference
    QPixmap::isNull() const                   - Undefined Reference
    _ZNK7QPixmap6isNullEv@QtGui{00040703}[2001b2dd].dll  - Undefined Reference
    QPixmap::toImage() const                  - Undefined Reference
    _ZNK7QPixmap7toImageEv@QtGui{00040703}[2001b2dd].dll  - Undefined Reference
    QRegion::boundingRect() const             - Undefined Reference
    _ZNK7QRegion12boundingRectEv@QtGui{00040703}[2001b2dd].dll  - Undefined Reference
    QRegion::rects() const                    - Undefined Reference
    _ZNK7QRegion5rectsEv@QtGui{00040703}[2001b2dd].dll  - Undefined Reference
    QRegion::unite(const QRegion&) const      - Undefined Reference
    _ZNK7QRegion5uniteERKS_@QtGui{00040703}[2001b2dd].dll  - Undefined Reference
    QRegion::isEmpty() const                  - Undefined Reference
    _ZNK7QRegion7isEmptyEv@QtGui{00040703}[2001b2dd].dll  - Undefined Reference
    QRegion::numRects() const                 - Undefined Reference
    _ZNK7QRegion8numRectsEv@QtGui{00040703}[2001b2dd].dll  - Undefined Reference
    QRegion::intersect(const QRegion&) const  - Undefined Reference
    _ZNK7QRegion9intersectERKS_@QtGui{00040703}[2001b2dd].dll  - Undefined Reference
    QRegion::rectCount() const                - Undefined Reference
    _ZNK7QRegion9rectCountEv@QtGui{00040703}[2001b2dd].dll  - Undefined Reference
    QRegion::operator ==(const QRegion&) const  - Undefined Reference
    _ZNK7QRegioneqERKS_@QtGui{00040703}[2001b2dd].dll  - Undefined Reference
    QString::toLocal8Bit() const              - Undefined Reference
    _ZNK7QString11toLocal8BitEv@QtCore{00040703}[2001b2dc].dll  - Undefined Reference
    QWidget::nativeParentWidget() const       - Undefined Reference
    _ZNK7QWidget18nativeParentWidgetEv@QtGui{00040703}[2001b2dd].dll  - Undefined Reference
    QWidget::testAttribute_helper(Qt::WidgetAttribute) const  - Undefined Reference
    _ZNK7QWidget20testAttribute_helperEN2Qt15WidgetAttributeE@QtGui{00040703}[2001b2dd].dll  - Undefined Reference
    QPainter::paintEngine() const             - Undefined Reference
    _ZNK8QPainter11paintEngineEv@QtGui{00040703}[2001b2dd].dll  - Undefined Reference
    QFontInfo::pixelSize() const              - Undefined Reference
    _ZNK9QFontInfo9pixelSizeEv@QtGui{00040703}[2001b2dd].dll  - Undefined Reference
    QGradient::stops() const                  - Undefined Reference
    _ZNK9QGradient5stopsEv@QtGui{00040703}[2001b2dd].dll  - Undefined Reference
    QPolygonF::toPolygon() const              - Undefined Reference
    _ZNK9QPolygonF9toPolygonEv@QtGui{00040703}[2001b2dd].dll  - Undefined Reference
    QTextItem::font() const                   - Undefined Reference
    _ZNK9QTextItem4fontEv@QtGui{00040703}[2001b2dd].dll  - Undefined Reference
    typeinfo for QPixmapData                  - Undefined Reference
    _ZTI11QPixmapData@QtGui{00040703}[2001b2dd].dll  - Undefined Reference
    typeinfo for QPaintDevice                 - Undefined Reference
    _ZTI12QPaintDevice@QtGui{00040703}[2001b2dd].dll  - Undefined Reference
    typeinfo for QPainterState                - Undefined Reference
    _ZTI13QPainterState@QtGui{00040703}[2001b2dd].dll  - Undefined Reference
    typeinfo for QObjectPrivate               - Undefined Reference
    _ZTI14QObjectPrivate@QtCore{00040703}[2001b2dc].dll  - Undefined Reference
    typeinfo for QPaintEngineEx               - Undefined Reference
    _ZTI14QPaintEngineEx@QtGui{00040703}[2001b2dd].dll  - Undefined Reference
    typeinfo for QWindowSurface               - Undefined Reference
    _ZTI14QWindowSurface@QtGui{00040703}[2001b2dd].dll  - Undefined Reference
    typeinfo for XLeaveException              - Undefined Reference
    _ZTI15XLeaveException@drtaeabi{000a0000}.dll  - Undefined Reference
    typeinfo for QPixmapBlurFilter            - Undefined Reference
    _ZTI17QPixmapBlurFilter@QtGui{00040703}[2001b2dd].dll  - Undefined Reference
    typeinfo for QPaintEngineExPrivate        - Undefined Reference
    _ZTI21QPaintEngineExPrivate@QtGui{00040703}[2001b2dd].dll  - Undefined Reference
    typeinfo for QPixmapColorizeFilter        - Undefined Reference
    _ZTI21QPixmapColorizeFilter@QtGui{00040703}[2001b2dd].dll  - Undefined Reference
    typeinfo for QPixmapDropShadowFilter      - Undefined Reference
    _ZTI23QPixmapDropShadowFilter@QtGui{00040703}[2001b2dd].dll  - Undefined Reference
    typeinfo for QPixmapConvolutionFilter     - Undefined Reference
    _ZTI24QPixmapConvolutionFilter@QtGui{00040703}[2001b2dd].dll  - Undefined Reference
    typeinfo for QObject                      - Undefined Reference
    _ZTI7QObject@QtCore{00040703}[2001b2dc].dll  - Undefined Reference
    typeinfo for std::bad_alloc               - Undefined Reference
    _ZTISt9bad_alloc@stdnew{000a0000}[20022178].dll  - Undefined Reference
    vtable for QPainterState                  - Undefined Reference
    _ZTV13QPainterState@QtGui{00040703}[2001b2dd].dll  - Undefined Reference
    vtable for __cxxabiv1::__class_type_info  - Undefined Reference
    _ZTVN10__cxxabiv117__class_type_infoE@drtaeabi{000a0000}.dll  - Undefined Reference
    vtable for __cxxabiv1::__si_class_type_info  - Undefined Reference
    _ZTVN10__cxxabiv120__si_class_type_infoE@drtaeabi{000a0000}.dll  - Undefined Reference
    vtable for __cxxabiv1::__vmi_class_type_info  - Undefined Reference
    _ZTVN10__cxxabiv121__vmi_class_type_infoE@drtaeabi{000a0000}.dll  - Undefined Reference
    operator delete (void*)                   - Undefined Reference
    _ZdlPv@stdnew{000a0000}[20022178].dll     - Undefined Reference
    operator new(unsigned)                    - Undefined Reference
    _Znwj@stdnew{000a0000}[20022178].dll      - Undefined Reference
    __aeabi_cdcmpeq                           - Undefined Reference
    __aeabi_cdcmpeq@dfpaeabi{000a0000}.dll    - Undefined Reference
    __aeabi_cdrcmple                          - Undefined Reference
    __aeabi_cdrcmple@dfpaeabi{000a0000}.dll   - Undefined Reference
    __aeabi_cfcmpeq                           - Undefined Reference
    __aeabi_cfcmpeq@dfpaeabi{000a0000}.dll    - Undefined Reference
    __aeabi_cfcmple                           - Undefined Reference
    __aeabi_cfcmple@dfpaeabi{000a0000}.dll    - Undefined Reference
    __aeabi_cfrcmple                          - Undefined Reference
    __aeabi_cfrcmple@dfpaeabi{000a0000}.dll   - Undefined Reference
    __aeabi_d2f                               - Undefined Reference
    __aeabi_d2f@dfpaeabi{000a0000}.dll        - Undefined Reference
    __aeabi_d2iz                              - Undefined Reference
    __aeabi_d2iz@dfpaeabi{000a0000}.dll       - Undefined Reference
    __aeabi_dadd                              - Undefined Reference
    __aeabi_dadd@dfpaeabi{000a0000}.dll       - Undefined Reference
    __aeabi_ddiv                              - Undefined Reference
    __aeabi_ddiv@dfpaeabi{000a0000}.dll       - Undefined Reference
    __aeabi_dmul                              - Undefined Reference
    __aeabi_dmul@dfpaeabi{000a0000}.dll       - Undefined Reference
    __aeabi_dsub                              - Undefined Reference
    __aeabi_dsub@dfpaeabi{000a0000}.dll       - Undefined Reference
    __aeabi_f2d                               - Undefined Reference
    __aeabi_f2d@dfpaeabi{000a0000}.dll        - Undefined Reference
    __aeabi_f2iz                              - Undefined Reference
    __aeabi_f2iz@dfpaeabi{000a0000}.dll       - Undefined Reference
    __aeabi_fadd                              - Undefined Reference
    __aeabi_fadd@dfpaeabi{000a0000}.dll       - Undefined Reference
    __aeabi_fdiv                              - Undefined Reference
    __aeabi_fdiv@dfpaeabi{000a0000}.dll       - Undefined Reference
    __aeabi_fmul                              - Undefined Reference
    __aeabi_fmul@dfpaeabi{000a0000}.dll       - Undefined Reference
    __aeabi_frsub                             - Undefined Reference
    __aeabi_frsub@dfpaeabi{000a0000}.dll      - Undefined Reference
    __aeabi_fsub                              - Undefined Reference
    __aeabi_fsub@dfpaeabi{000a0000}.dll       - Undefined Reference
    __aeabi_i2d                               - Undefined Reference
    __aeabi_i2d@dfpaeabi{000a0000}.dll        - Undefined Reference
    __aeabi_i2f                               - Undefined Reference
    __aeabi_i2f@dfpaeabi{000a0000}.dll        - Undefined Reference
    __aeabi_memclr4                           - Undefined Reference
    __aeabi_memclr4@drtaeabi{000a0000}.dll    - Undefined Reference
    __aeabi_memcpy                            - Undefined Reference
    __aeabi_memcpy4                           - Undefined Reference
    __aeabi_memcpy4@drtaeabi{000a0000}.dll    - Undefined Reference
    __aeabi_memcpy@drtaeabi{000a0000}.dll     - Undefined Reference
    __aeabi_uidivmod                          - Undefined Reference
    __aeabi_uidivmod@drtaeabi{000a0000}.dll   - Undefined Reference
    __aeabi_unwind_cpp_pr0                    - Undefined Reference
    __aeabi_unwind_cpp_pr0@drtaeabi{000a0000}.dll  - Undefined Reference
    __aeabi_unwind_cpp_pr1                    - Undefined Reference
    __aeabi_unwind_cpp_pr1@drtaeabi{000a0000}.dll  - Undefined Reference
    __cxa_begin_catch                         - Undefined Reference
    __cxa_begin_catch@drtaeabi{000a0000}.dll  - Undefined Reference
    __cxa_call_unexpected                     - Undefined Reference
    __cxa_call_unexpected@drtaeabi{000a0000}.dll  - Undefined Reference
    __cxa_end_catch                           - Undefined Reference
    __cxa_end_catch@drtaeabi{000a0000}.dll    - Undefined Reference
    __cxa_end_cleanup                         - Undefined Reference
    __cxa_end_cleanup@drtaeabi{000a0000}.dll  - Undefined Reference
    __cxa_guard_abort                         - Undefined Reference
    __cxa_guard_abort@drtaeabi{000a0000}.dll  - Undefined Reference
    __cxa_guard_acquire                       - Undefined Reference
    __cxa_guard_acquire@drtaeabi{000a0000}.dll  - Undefined Reference
    __cxa_guard_release                       - Undefined Reference
    __cxa_guard_release@drtaeabi{000a0000}.dll  - Undefined Reference
    __cxa_pure_virtual                        - Undefined Reference
    __cxa_pure_virtual@drtaeabi{000a0000}.dll  - Undefined Reference
    __cxa_rethrow                             - Undefined Reference
    __cxa_rethrow@drtaeabi{000a0000}.dll      - Undefined Reference
    eglChooseConfig                           - Undefined Reference
    eglChooseConfig@libEGL{000a0000}.dll      - Undefined Reference
    eglCreatePbufferFromClientBuffer          - Undefined Reference
    eglCreatePbufferFromClientBuffer@libEGL{000a0000}.dll  - Undefined Reference
    eglCreatePbufferSurface                   - Undefined Reference
    eglCreatePbufferSurface@libEGL{000a0000}.dll  - Undefined Reference
    eglDestroySurface                         - Undefined Reference
    eglDestroySurface@libEGL{000a0000}.dll    - Undefined Reference
    eglGetConfigAttrib                        - Undefined Reference
    eglGetConfigAttrib@libEGL{000a0000}.dll   - Undefined Reference
    eglGetError                               - Undefined Reference
    eglGetError@libEGL{000a0000}.dll          - Undefined Reference
    eglGetProcAddress                         - Undefined Reference
    eglGetProcAddress@libEGL{000a0000}.dll    - Undefined Reference
    eglSurfaceAttrib                          - Undefined Reference
    eglSurfaceAttrib@libEGL{000a0000}.dll     - Undefined Reference
    eglSwapInterval                           - Undefined Reference
    eglSwapInterval@libEGL{000a0000}.dll      - Undefined Reference
    floorf                                    - Undefined Reference
    floorf@libm{00010001}[102750d2].dll       - Undefined Reference
    memmove                                   - Undefined Reference
    memmove@libc{00010001}[10207369].dll      - Undefined Reference
    strcmp                                    - Undefined Reference
    strcmp@libc{00010001}[10207369].dll       - Undefined Reference
    strstr                                    - Undefined Reference
    strstr@libc{00010001}[10207369].dll       - Undefined Reference
    vgAppendPathData                          - Undefined Reference
    vgAppendPathData@libOpenVG{000a0000}.dll  - Undefined Reference
    vgChildImage                              - Undefined Reference
    vgChildImage@libOpenVG{000a0000}.dll      - Undefined Reference
    vgClear                                   - Undefined Reference
    vgClear@libOpenVG{000a0000}.dll           - Undefined Reference
    vgColorMatrix                             - Undefined Reference
    vgColorMatrix@libOpenVG{000a0000}.dll     - Undefined Reference
    vgConvolve                                - Undefined Reference
    vgConvolve@libOpenVG{000a0000}.dll        - Undefined Reference
    vgCopyPixels                              - Undefined Reference
    vgCopyPixels@libOpenVG{000a0000}.dll      - Undefined Reference
    vgCreateFont                              - Undefined Reference
    vgCreateFont@libOpenVG{000a0000}.dll      - Undefined Reference
    vgCreateImage                             - Undefined Reference
    vgCreateImage@libOpenVG{000a0000}.dll     - Undefined Reference
    vgCreatePaint                             - Undefined Reference
    vgCreatePaint@libOpenVG{000a0000}.dll     - Undefined Reference
    vgCreatePath                              - Undefined Reference
    vgCreatePath@libOpenVG{000a0000}.dll      - Undefined Reference
    vgDestroyFont                             - Undefined Reference
    vgDestroyFont@libOpenVG{000a0000}.dll     - Undefined Reference
    vgDestroyImage                            - Undefined Reference
    vgDestroyImage@libOpenVG{000a0000}.dll    - Undefined Reference
    vgDestroyPaint                            - Undefined Reference
    vgDestroyPaint@libOpenVG{000a0000}.dll    - Undefined Reference
    vgDestroyPath                             - Undefined Reference
    vgDestroyPath@libOpenVG{000a0000}.dll     - Undefined Reference
    vgDrawGlyphs                              - Undefined Reference
    vgDrawGlyphs@libOpenVG{000a0000}.dll      - Undefined Reference
    vgDrawImage                               - Undefined Reference
    vgDrawImage@libOpenVG{000a0000}.dll       - Undefined Reference
    vgDrawPath                                - Undefined Reference
    vgDrawPath@libOpenVG{000a0000}.dll        - Undefined Reference
    vgFlush                                   - Undefined Reference
    vgFlush@libOpenVG{000a0000}.dll           - Undefined Reference
    vgGaussianBlur                            - Undefined Reference
    vgGaussianBlur@libOpenVG{000a0000}.dll    - Undefined Reference
    vgGetString                               - Undefined Reference
    vgGetString@libOpenVG{000a0000}.dll       - Undefined Reference
    vgGeti                                    - Undefined Reference
    vgGeti@libOpenVG{000a0000}.dll            - Undefined Reference
    vgImageSubData                            - Undefined Reference
    vgImageSubData@libOpenVG{000a0000}.dll    - Undefined Reference
    vgLoadIdentity                            - Undefined Reference
    vgLoadIdentity@libOpenVG{000a0000}.dll    - Undefined Reference
    vgLoadMatrix                              - Undefined Reference
    vgLoadMatrix@libOpenVG{000a0000}.dll      - Undefined Reference
    vgMask                                    - Undefined Reference
    vgMask@libOpenVG{000a0000}.dll            - Undefined Reference
    vgModifyPathCoords                        - Undefined Reference
    vgModifyPathCoords@libOpenVG{000a0000}.dll  - Undefined Reference
    vgPaintPattern                            - Undefined Reference
    vgPaintPattern@libOpenVG{000a0000}.dll    - Undefined Reference
    vgSetGlyphToImage                         - Undefined Reference
    vgSetGlyphToImage@libOpenVG{000a0000}.dll  - Undefined Reference
    vgSetPaint                                - Undefined Reference
    vgSetPaint@libOpenVG{000a0000}.dll        - Undefined Reference
    vgSetParameterfv                          - Undefined Reference
    vgSetParameterfv@libOpenVG{000a0000}.dll  - Undefined Reference
    vgSetParameteri                           - Undefined Reference
    vgSetParameteri@libOpenVG{000a0000}.dll   - Undefined Reference
    vgSetPixels                               - Undefined Reference
    vgSetPixels@libOpenVG{000a0000}.dll       - Undefined Reference
    vgSetf                                    - Undefined Reference
    vgSetf@libOpenVG{000a0000}.dll            - Undefined Reference
    vgSetfv                                   - Undefined Reference
    vgSetfv@libOpenVG{000a0000}.dll           - Undefined Reference
    vgSeti                                    - Undefined Reference
    vgSeti@libOpenVG{000a0000}.dll            - Undefined Reference
    vgSetiv                                   - Undefined Reference
    vgSetiv@libOpenVG{000a0000}.dll           - Undefined Reference
    vgWritePixels                             - Undefined Reference
    vgWritePixels@libOpenVG{000a0000}.dll     - Undefined Reference
    Image$$ER_RO$$Base                       0x00008000   Number         0  anon$$obj.o(linker$$defined$$symbols)
    _E32Dll                                  0x00008000   ARM Code      40  uc_dll_.o(.emb_text)
    Symbian$$CPP$$Exception$$Descriptor      0x00008014   Data           0  uc_dll_.o(.emb_text)
    __cpp_initialize__aeabi_                 0x00008028   ARM Code      52  ucppinit.o(.emb_text)
    std::nothrow                             0x0000805c   ARM Code       0  ucppinit.o(.emb_text)
    __PLT                                    0x0000805c   ARM Code       0  anon$$obj.o(.plt)
    QVGPaintEnginePrivate::setImageOptions() 0x0000923b   Thumb Code   150  qpaintengine_vg.o(.text)
    QVGPaintEnginePrivate::setTransform(VGMatrixMode, const QTransform&) 0x000092d1   Thumb Code   104  qpaintengine_vg.o(.text)
    qt_vg_drawVGImage(QPainter*, const QPointF&, unsigned long) 0x000094bd   Thumb Code    44  qpaintengine_vg.o(.text)
    QVGPaintEnginePrivate::setupColorRamp(const QGradient*, unsigned long) 0x000094e9   Thumb Code   306  qpaintengine_vg.o(.text)
    QVGPaintEnginePrivate::setBrushTransform(const QBrush&, VGMatrixMode) 0x0000961b   Thumb Code   362  qpaintengine_vg.o(.text)
    QVGPaintEnginePrivate::setBrush(unsigned long, const QBrush&, VGMatrixMode, VGPaintType) 0x00009785   Thumb Code  1484  qpaintengine_vg.o(.text)
    qt_vg_drawVGImageStencil(QPainter*, const QPointF&, unsigned long, const QBrush&) 0x00009d51   Thumb Code   104  qpaintengine_vg.o(.text)
    qt_vg_image_to_vg_format(QImage::Format) 0x00009e39   Thumb Code    64  qpaintengine_vg.o(.text)
    QVGPainterState::QVGPainterState(QVGPainterState&) 0x00009e79   Thumb Code   168  qpaintengine_vg.o(.text)
    QVGPainterState::QVGPainterState__sub_object(QVGPainterState&) 0x00009e79   Thumb Code     0  qpaintengine_vg.o(.text)
    QVGPainterState::QVGPainterState()       0x00009f21   Thumb Code    60  qpaintengine_vg.o(.text)
    QVGPainterState::QVGPainterState__sub_object() 0x00009f21   Thumb Code     0  qpaintengine_vg.o(.text)
    QVGPainterState::~QVGPainterState()      0x00009f5d   Thumb Code    34  qpaintengine_vg.o(.text)
    QVGPainterState::~QVGPainterState__sub_object() 0x00009f5d   Thumb Code     0  qpaintengine_vg.o(.text)
    QVGPainterState::~QVGPainterState__deallocating() 0x00009f7f   Thumb Code    22  qpaintengine_vg.o(.text)
    QVGPaintEnginePrivate::clearModes()      0x00009f95   Thumb Code    44  qpaintengine_vg.o(.text)
    QVGPaintEnginePrivate::init()            0x00009fc1   Thumb Code   226  qpaintengine_vg.o(.text)
    QVGPaintEnginePrivate::QVGPaintEnginePrivate(QVGPaintEngine*) 0x0000a0a3   Thumb Code   304  qpaintengine_vg.o(.text)
    QVGPaintEnginePrivate::QVGPaintEnginePrivate__sub_object(QVGPaintEngine*) 0x0000a0a3   Thumb Code     0  qpaintengine_vg.o(.text)
    QVGPaintEngine::QVGPaintEngine()         0x0000a1d3   Thumb Code    46  qpaintengine_vg.o(.text)
    QVGPaintEngine::QVGPaintEngine__sub_object() 0x0000a1d3   Thumb Code     0  qpaintengine_vg.o(.text)
    QVGPaintEngine::~QVGPaintEngine()        0x0000a201   Thumb Code    14  qpaintengine_vg.o(.text)
    QVGPaintEngine::~QVGPaintEngine__sub_object() 0x0000a201   Thumb Code     0  qpaintengine_vg.o(.text)
    QVGPaintEngine::~QVGPaintEngine__deallocating() 0x0000a20f   Thumb Code    22  qpaintengine_vg.o(.text)
    QVGPaintEngine::createState(QPainterState*) const 0x0000a225   Thumb Code   144  qpaintengine_vg.o(.text)
    QVGPaintEngine::isDefaultClipRegion(const QRegion&) 0x0000a2b5   Thumb Code   120  qpaintengine_vg.o(.text)
    QVGPaintEngine::updateScissor()          0x0000a32d   Thumb Code   940  qpaintengine_vg.o(.text)
    QVGPaintEngine::restoreState(QFlags<QPaintEngine::DirtyFlag>) 0x0000a6d9   Thumb Code   468  qpaintengine_vg.o(.text)
    QVGPaintEngine::defaultClipRegion()      0x0000a8ad   Thumb Code    50  qpaintengine_vg.o(.text)
    QVGPaintEnginePrivate::initObjects()     0x0000a8df   Thumb Code   360  qpaintengine_vg.o(.text)
    QVGPaintEngine::begin(QPaintDevice*)     0x0000aa47   Thumb Code   126  qpaintengine_vg.o(.text)
    QVGPaintEngine::end()                    0x0000aac5   Thumb Code     6  qpaintengine_vg.o(.text)
    QVGPaintEnginePrivate::setPenParams(const QPen&) 0x0000aacb   Thumb Code   440  qpaintengine_vg.o(.text)
    QVGPaintEnginePrivate::draw(unsigned long, const QPen&, const QBrush&, long) 0x0000ac83   Thumb Code   290  qpaintengine_vg.o(.text)
    QVGPaintEnginePrivate::vectorPathToVGPath(const QVectorPath&) 0x0000ada5   Thumb Code  1142  qpaintengine_vg.o(.text)
    QVGPaintEngine::draw(const QVectorPath&) 0x0000b21b   Thumb Code   102  qpaintengine_vg.o(.text)
    QVGPaintEnginePrivate::fill(unsigned long, const QBrush&, long) 0x0000b281   Thumb Code   112  qpaintengine_vg.o(.text)
    QVGPaintEngine::fill(const QVectorPath&, const QBrush&) 0x0000b2f1   Thumb Code    84  qpaintengine_vg.o(.text)
    QVGPaintEnginePrivate::stroke(unsigned long, const QPen&) 0x0000b345   Thumb Code    44  qpaintengine_vg.o(.text)
    QVGPaintEngine::stroke(const QVectorPath&, const QPen&) 0x0000b371   Thumb Code    50  qpaintengine_vg.o(.text)
    QVGPaintEngine::clip(const QVectorPath&, Qt::ClipOperation) 0x0000b3a3   Thumb Code   562  qpaintengine_vg.o(.text)
    QVGPaintEngine::clip(const QRect&, Qt::ClipOperation) 0x0000b5d5   Thumb Code   310  qpaintengine_vg.o(.text)
    QVGPaintEngine::clip(const QRegion&, Qt::ClipOperation) 0x0000b70b   Thumb Code   248  qpaintengine_vg.o(.text)
    QVGPaintEngine::clip(const QPainterPath&, Qt::ClipOperation) 0x0000b803   Thumb Code    20  qpaintengine_vg.o(.text)
    QVGPaintEngine::clipEnabledChanged()     0x0000b817   Thumb Code    20  qpaintengine_vg.o(.text)
    QVGPaintEngine::penChanged()             0x0000b82b   Thumb Code    34  qpaintengine_vg.o(.text)
    QVGPaintEngine::brushChanged()           0x0000b84d   Thumb Code    34  qpaintengine_vg.o(.text)
    QVGPaintEngine::brushOriginChanged()     0x0000b86f   Thumb Code    66  qpaintengine_vg.o(.text)
    QVGPaintEngine::opacityChanged()         0x0000b8b1   Thumb Code    66  qpaintengine_vg.o(.text)
    QVGPaintEngine::compositionModeChanged() 0x0000b8f3   Thumb Code   324  qpaintengine_vg.o(.text)
    QVGPaintEngine::renderHintsChanged()     0x0000ba37   Thumb Code   174  qpaintengine_vg.o(.text)
    QVGPaintEnginePrivate::updateTransform(QPaintDevice*) 0x0000bae5   Thumb Code   316  qpaintengine_vg.o(.text)
    QVGPaintEngine::transformChanged()       0x0000bc21   Thumb Code   112  qpaintengine_vg.o(.text)
    QVGPaintEngine::clearRect(const QRectF&, const QColor&) 0x0000bc91   Thumb Code   276  qpaintengine_vg.o(.text)
    QVGPaintEngine::fillRect(const QRectF&, const QBrush&) 0x0000bda5   Thumb Code   382  qpaintengine_vg.o(.text)
    QVGPaintEngine::fillRect(const QRectF&, const QColor&) 0x0000bf23   Thumb Code   370  qpaintengine_vg.o(.text)
    QVGPaintEnginePrivate::roundedRectPath(const QRectF&, float, float, Qt::SizeMode) 0x0000c095   Thumb Code   860  qpaintengine_vg.o(.text)
    QVGPaintEngine::drawRoundedRect(const QRectF&, float, float, Qt::SizeMode) 0x0000c3f1   Thumb Code    90  qpaintengine_vg.o(.text)
    QVGPaintEngine::drawRects(const QRect*, int) 0x0000c44b   Thumb Code   544  qpaintengine_vg.o(.text)
    QVGPaintEngine::drawRects(const QRectF*, int) 0x0000c66b   Thumb Code   334  qpaintengine_vg.o(.text)
    QVGPaintEngine::drawLines(const QLine*, int) 0x0000c7b9   Thumb Code   320  qpaintengine_vg.o(.text)
    QVGPaintEngine::drawLines(const QLineF*, int) 0x0000c8f9   Thumb Code   218  qpaintengine_vg.o(.text)
    QVGPaintEngine::drawEllipse(const QRectF&) 0x0000c9d3   Thumb Code   238  qpaintengine_vg.o(.text)
    QVGPaintEngine::drawEllipse(const QRect&) 0x0000cac1   Thumb Code    28  qpaintengine_vg.o(.text)
    QVGPaintEnginePrivate::painterPathToVGPath(const QPainterPath&) 0x0000cadd   Thumb Code   954  qpaintengine_vg.o(.text)
    QVGPaintEngine::drawPath(const QPainterPath&) 0x0000ce97   Thumb Code    96  qpaintengine_vg.o(.text)
    QVGPaintEngine::drawPoints(const QPointF*, int) 0x0000cef7   Thumb Code   198  qpaintengine_vg.o(.text)
    QVGPaintEngine::drawPoints(const QPoint*, int) 0x0000cfbd   Thumb Code   226  qpaintengine_vg.o(.text)
    QVGPaintEngine::drawPolygon(const QPointF*, int, QPaintEngine::PolygonDrawMode) 0x0000d09f   Thumb Code   354  qpaintengine_vg.o(.text)
    QVGPaintEngine::drawPolygon(const QPoint*, int, QPaintEngine::PolygonDrawMode) 0x0000d201   Thumb Code   386  qpaintengine_vg.o(.text)
    QVGPaintEngine::drawPixmap(const QRectF&, const QPixmap&, const QRectF&) 0x0000d383   Thumb Code   284  qpaintengine_vg.o(.text)
    QVGPaintEngine::drawPixmap(const QPointF&, const QPixmap&) 0x0000d49f   Thumb Code   226  qpaintengine_vg.o(.text)
    QVGPaintEngine::canVgWritePixels(const QImage&) const 0x0000d581   Thumb Code   172  qpaintengine_vg.o(.text)
    QVGPaintEngine::drawImage(const QRectF&, const QImage&, const QRectF&, QFlags<Qt::ImageConversionFlag>) 0x0000d62d   Thumb Code   784  qpaintengine_vg.o(.text)
    QVGPaintEngine::drawImage(const QPointF&, const QImage&) 0x0000d93d   Thumb Code   314  qpaintengine_vg.o(.text)
    QVGPaintEngine::drawTiledPixmap(const QRectF&, const QPixmap&, const QPointF&) 0x0000da77   Thumb Code   118  qpaintengine_vg.o(.text)
    QVGPaintEngine::drawPixmapFragments(const QPainter::PixmapFragment*, int, const QPixmap&, QFlags<QPainter::PixmapFragmentHint>) 0x0000daed   Thumb Code  1564  qpaintengine_vg.o(.text)
    QVGFontEngineCleaner::QVGFontEngineCleaner(QVGPaintEnginePrivate*) 0x0000e109   Thumb Code    26  qpaintengine_vg.o(.text)
    QVGFontEngineCleaner::QVGFontEngineCleaner__sub_object(QVGPaintEnginePrivate*) 0x0000e109   Thumb Code     0  qpaintengine_vg.o(.text)
    QVGFontGlyphCache::setScaleFromText(const QFont&, QFontEngine*) 0x0000e123   Thumb Code    94  qpaintengine_vg.o(.text)
    QVGPaintEngine::drawCachedGlyphs(int, const unsigned*, const QFont&, QFontEngine*, const QPointF&, const QFixedPoint*) 0x0000e181   Thumb Code  1096  qpaintengine_vg.o(.text)
    QVGPaintEngine::drawTextItem(const QPointF&, const QTextItem&) 0x0000e5c9   Thumb Code   344  qpaintengine_vg.o(.text)
    QVGPaintEngine::drawStaticTextItem(QStaticTextItem*) 0x0000e721   Thumb Code    50  qpaintengine_vg.o(.text)
    QVGPaintEngine::setState(QPainterState*) 0x0000e753   Thumb Code   138  qpaintengine_vg.o(.text)
    QVGPaintEngine::beginNativePainting()    0x0000e7dd   Thumb Code    92  qpaintengine_vg.o(.text)
    QVGPaintEngine::endNativePainting()      0x0000e839   Thumb Code   170  qpaintengine_vg.o(.text)
    QVGPaintEngine::pixmapFilter(int, const QPixmapFilter*) 0x0000e8e3   Thumb Code   310  qpaintengine_vg.o(.text)
    QVGPaintEngine::fillRegion(const QRegion&, const QColor&, const QSize&) 0x0000ea19   Thumb Code   320  qpaintengine_vg.o(.text)
    QVGPaintEngine::QVGPaintEngine(QVGPaintEnginePrivate&) 0x0000eb59   Thumb Code    24  qpaintengine_vg.o(.text)
    QVGPaintEngine::QVGPaintEngine__sub_object(QVGPaintEnginePrivate&) 0x0000eb59   Thumb Code     0  qpaintengine_vg.o(.text)
    QVGPaintEngine::isDefaultClipRect(const QRect&) 0x0000eb71   Thumb Code   100  qpaintengine_vg.o(.text)
    QVGCompositionHelper::QVGCompositionHelper() 0x0000ebd5   Thumb Code    52  qpaintengine_vg.o(.text)
    QVGCompositionHelper::QVGCompositionHelper__sub_object() 0x0000ebd5   Thumb Code     0  qpaintengine_vg.o(.text)
    QVGCompositionHelper::~QVGCompositionHelper() 0x0000ec09   Thumb Code     2  qpaintengine_vg.o(.text)
    QVGCompositionHelper::~QVGCompositionHelper__sub_object() 0x0000ec09   Thumb Code     0  qpaintengine_vg.o(.text)
    QVGCompositionHelper::~QVGCompositionHelper__deallocating() 0x0000ec0b   Thumb Code    22  qpaintengine_vg.o(.text)
    QVGCompositionHelper::clearScissor()     0x0000ec21   Thumb Code    56  qpaintengine_vg.o(.text)
    QVGCompositionHelper::startCompositing(const QSize&) 0x0000ec59   Thumb Code    30  qpaintengine_vg.o(.text)
    QVGCompositionHelper::endCompositing()   0x0000ec77   Thumb Code    12  qpaintengine_vg.o(.text)
    QVGCompositionHelper::blitWindow(unsigned long, const QSize&, const QRect&, const QPoint&, int) 0x0000ec83   Thumb Code   634  qpaintengine_vg.o(.text)
    QVGCompositionHelper::fillBackground(const QRegion&, const QBrush&) 0x0000eefd   Thumb Code   552  qpaintengine_vg.o(.text)
    QVGCompositionHelper::drawCursorPixmap(const QPixmap&, const QPoint&) 0x0000f125   Thumb Code   360  qpaintengine_vg.o(.text)
    QVGCompositionHelper::setScissor(const QRegion&) 0x0000f28d   Thumb Code   302  qpaintengine_vg.o(.text)
    QVGFontGlyphCache::QVGFontGlyphCache()   0x0000f3bb   Thumb Code    64  qpaintengine_vg.o(.text)
    QVGFontGlyphCache::QVGFontGlyphCache__sub_object() 0x0000f3bb   Thumb Code     0  qpaintengine_vg.o(.text)
    QVGFontGlyphCache::~QVGFontGlyphCache()  0x0000f3fb   Thumb Code    38  qpaintengine_vg.o(.text)
    QVGFontGlyphCache::~QVGFontGlyphCache__sub_object() 0x0000f3fb   Thumb Code     0  qpaintengine_vg.o(.text)
    QVGFontGlyphCache::~QVGFontGlyphCache__deallocating() 0x0000f421   Thumb Code    44  qpaintengine_vg.o(.text)
    QVGFontGlyphCache::cacheGlyphs(QVGPaintEnginePrivate*, QFontEngine*, const unsigned*, int) 0x0000f44d   Thumb Code   710  qpaintengine_vg.o(.text)
    QVGFontEngineCleaner::getStaticMetaObject() 0x0000f713   Thumb Code     4  qpaintengine_vg.o(.text)
    QVGFontEngineCleaner::metaObject() const 0x0000f717   Thumb Code    30  qpaintengine_vg.o(.text)
    QVGFontEngineCleaner::qt_metacast(const char*) 0x0000f735   Thumb Code    40  qpaintengine_vg.o(.text)
    QVGFontEngineCleaner::fontEngineDestroyed() 0x0000f75d   Thumb Code   112  qpaintengine_vg.o(.text)
    QVGFontEngineCleaner::qt_metacall(QMetaObject::Call, int, void**) 0x0000f7cd   Thumb Code    72  qpaintengine_vg.o(.text)
    QVGFontEngineCleaner::~QVGFontEngineCleaner() 0x0000f815   Thumb Code    14  qpaintengine_vg.o(.text)
    QVGFontEngineCleaner::~QVGFontEngineCleaner__sub_object() 0x0000f815   Thumb Code     0  qpaintengine_vg.o(.text)
    QVGFontEngineCleaner::~QVGFontEngineCleaner__deallocating() 0x0000f823   Thumb Code    22  qpaintengine_vg.o(.text)
    QVGPaintEnginePrivate::destroy()         0x0000f839   Thumb Code   370  qpaintengine_vg.o(.text)
    QVGPaintEnginePrivate::~QVGPaintEnginePrivate() 0x0000f9ab   Thumb Code   146  qpaintengine_vg.o(.text)
    QVGPaintEnginePrivate::~QVGPaintEnginePrivate__sub_object() 0x0000f9ab   Thumb Code     0  qpaintengine_vg.o(.text)
    QVGPaintEnginePrivate::~QVGPaintEnginePrivate__deallocating() 0x0000fa3d   Thumb Code    22  qpaintengine_vg.o(.text)
    QVGPaintEnginePrivate::systemStateChanged() 0x0000fa53   Thumb Code    18  qpaintengine_vg.o(.text)
    QVGPixmapData::isValid() const           0x0000fa7d   Thumb Code    22  qpixmapdata_vg.o(.text)
    qPixmapToVGImage(const QPixmap&)         0x0000fa93   Thumb Code    56  qpixmapdata_vg.o(.text)
    QVGPixmapData::QVGPixmapData(QPixmapData::PixelType) 0x0000facb   Thumb Code   134  qpixmapdata_vg.o(.text)
    QVGPixmapData::QVGPixmapData__sub_object(QPixmapData::PixelType) 0x0000facb   Thumb Code     0  qpixmapdata_vg.o(.text)
    QVGPixmapData::destroyImages()           0x0000fb51   Thumb Code    94  qpixmapdata_vg.o(.text)
    QVGPixmapData::destroyImageAndContext()  0x0000fbaf   Thumb Code    80  qpixmapdata_vg.o(.text)
    QVGPixmapData::~QVGPixmapData()          0x0000fbff   Thumb Code    42  qpixmapdata_vg.o(.text)
    QVGPixmapData::~QVGPixmapData__sub_object() 0x0000fbff   Thumb Code     0  qpixmapdata_vg.o(.text)
    QVGPixmapData::~QVGPixmapData__deallocating() 0x0000fc29   Thumb Code    22  qpixmapdata_vg.o(.text)
    QVGPixmapData::createCompatiblePixmapData() const 0x0000fc3f   Thumb Code    48  qpixmapdata_vg.o(.text)
    QVGPixmapData::resize(int, int)          0x0000fc6f   Thumb Code   100  qpixmapdata_vg.o(.text)
    QVGPixmapData::sourceFormat() const      0x0000fcd3   Thumb Code     6  qpixmapdata_vg.o(.text)
    QVGPixmapData::createPixmapForImage(QImage&, QFlags<Qt::ImageConversionFlag>, bool) 0x0000fcd9   Thumb Code   356  qpixmapdata_vg.o(.text)
    QVGPixmapData::fromImage(const QImage&, QFlags<Qt::ImageConversionFlag>) 0x0000fe3d   Thumb Code   148  qpixmapdata_vg.o(.text)
    QVGPixmapData::fromImageReader(QImageReader*, QFlags<Qt::ImageConversionFlag>) 0x0000fed1   Thumb Code    68  qpixmapdata_vg.o(.text)
    QVGPixmapData::fromFile(const QString&, const char*, QFlags<Qt::ImageConversionFlag>) 0x0000ff15   Thumb Code   116  qpixmapdata_vg.o(.text)
    QVGPixmapData::fromData(const unsigned char*, unsigned, const char*, QFlags<Qt::ImageConversionFlag>) 0x0000ff89   Thumb Code   178  qpixmapdata_vg.o(.text)
    QVGPixmapData::fill(const QColor&)       0x0001003b   Thumb Code   264  qpixmapdata_vg.o(.text)
    QVGPixmapData::hasAlphaChannel() const   0x00010143   Thumb Code    34  qpixmapdata_vg.o(.text)
    QVGPixmapData::forceToImage()            0x00010165   Thumb Code    76  qpixmapdata_vg.o(.text)
    QVGPixmapData::setAlphaChannel(const QPixmap&) 0x000101b1   Thumb Code    38  qpixmapdata_vg.o(.text)
    QVGPixmapData::toImage() const           0x000101d7   Thumb Code    98  qpixmapdata_vg.o(.text)
    QVGPixmapData::buffer()                  0x00010239   Thumb Code    16  qpixmapdata_vg.o(.text)
    QVGPixmapData::paintEngine() const       0x00010249   Thumb Code    20  qpixmapdata_vg.o(.text)
    QVGPixmapData::toVGImage()               0x0001025d   Thumb Code   360  qpixmapdata_vg.o(.text)
    QVGPixmapData::toVGImage(float)          0x000103c5   Thumb Code   152  qpixmapdata_vg.o(.text)
    QVGPixmapData::detachImageFromPool()     0x0001045d   Thumb Code    38  qpixmapdata_vg.o(.text)
    QVGPixmapData::hibernate()               0x00010483   Thumb Code    54  qpixmapdata_vg.o(.text)
    QVGPixmapData::reclaimImages()           0x000104b9   Thumb Code    28  qpixmapdata_vg.o(.text)
    QVGPixmapData::metric(QPaintDevice::PaintDeviceMetric) const 0x000104d5   Thumb Code   204  qpixmapdata_vg.o(.text)
    QVGPixmapConvolutionFilter::QVGPixmapConvolutionFilter() 0x00010625   Thumb Code    22  qpixmapfilter_vg.o(.text)
    QVGPixmapConvolutionFilter::QVGPixmapConvolutionFilter__sub_object() 0x00010625   Thumb Code     0  qpixmapfilter_vg.o(.text)
    QVGPixmapConvolutionFilter::~QVGPixmapConvolutionFilter() 0x0001063b   Thumb Code    14  qpixmapfilter_vg.o(.text)
    QVGPixmapConvolutionFilter::~QVGPixmapConvolutionFilter__sub_object() 0x0001063b   Thumb Code     0  qpixmapfilter_vg.o(.text)
    QVGPixmapConvolutionFilter::~QVGPixmapConvolutionFilter__deallocating() 0x00010649   Thumb Code    22  qpixmapfilter_vg.o(.text)
    QVGPixmapConvolutionFilter::draw(QPainter*, const QPointF&, const QPixmap&, const QRectF&) const 0x0001065f   Thumb Code   582  qpixmapfilter_vg.o(.text)
    QVGPixmapColorizeFilter::QVGPixmapColorizeFilter() 0x000108a5   Thumb Code    22  qpixmapfilter_vg.o(.text)
    QVGPixmapColorizeFilter::QVGPixmapColorizeFilter__sub_object() 0x000108a5   Thumb Code     0  qpixmapfilter_vg.o(.text)
    QVGPixmapColorizeFilter::~QVGPixmapColorizeFilter() 0x000108bb   Thumb Code    16  qpixmapfilter_vg.o(.text)
    QVGPixmapColorizeFilter::~QVGPixmapColorizeFilter__sub_object() 0x000108bb   Thumb Code     0  qpixmapfilter_vg.o(.text)
    QVGPixmapColorizeFilter::~QVGPixmapColorizeFilter__deallocating() 0x000108cb   Thumb Code    22  qpixmapfilter_vg.o(.text)
    QVGPixmapColorizeFilter::draw(QPainter*, const QPointF&, const QPixmap&, const QRectF&) const 0x000108e1   Thumb Code   702  qpixmapfilter_vg.o(.text)
    QVGPixmapDropShadowFilter::QVGPixmapDropShadowFilter() 0x00010b9f   Thumb Code    22  qpixmapfilter_vg.o(.text)
    QVGPixmapDropShadowFilter::QVGPixmapDropShadowFilter__sub_object() 0x00010b9f   Thumb Code     0  qpixmapfilter_vg.o(.text)
    QVGPixmapDropShadowFilter::~QVGPixmapDropShadowFilter() 0x00010bb5   Thumb Code    14  qpixmapfilter_vg.o(.text)
    QVGPixmapDropShadowFilter::~QVGPixmapDropShadowFilter__sub_object() 0x00010bb5   Thumb Code     0  qpixmapfilter_vg.o(.text)
    QVGPixmapDropShadowFilter::~QVGPixmapDropShadowFilter__deallocating() 0x00010bc3   Thumb Code    22  qpixmapfilter_vg.o(.text)
    QVGPixmapDropShadowFilter::draw(QPainter*, const QPointF&, const QPixmap&, const QRectF&) const 0x00010bd9   Thumb Code   656  qpixmapfilter_vg.o(.text)
    QVGPixmapBlurFilter::QVGPixmapBlurFilter(QObject*) 0x00010e69   Thumb Code    24  qpixmapfilter_vg.o(.text)
    QVGPixmapBlurFilter::QVGPixmapBlurFilter__sub_object(QObject*) 0x00010e69   Thumb Code     0  qpixmapfilter_vg.o(.text)
    QVGPixmapBlurFilter::~QVGPixmapBlurFilter() 0x00010e81   Thumb Code    14  qpixmapfilter_vg.o(.text)
    QVGPixmapBlurFilter::~QVGPixmapBlurFilter__sub_object() 0x00010e81   Thumb Code     0  qpixmapfilter_vg.o(.text)
    QVGPixmapBlurFilter::~QVGPixmapBlurFilter__deallocating() 0x00010e8f   Thumb Code    22  qpixmapfilter_vg.o(.text)
    QVGPixmapBlurFilter::draw(QPainter*, const QPointF&, const QPixmap&, const QRectF&) const 0x00010ea5   Thumb Code   408  qpixmapfilter_vg.o(.text)
    QVGImagePool::QVGImagePool()             0x00011065   Thumb Code    38  qvgimagepool.o(.text)
    QVGImagePool::QVGImagePool__sub_object() 0x00011065   Thumb Code     0  qvgimagepool.o(.text)
    QVGImagePool::~QVGImagePool()            0x0001108b   Thumb Code    20  qvgimagepool.o(.text)
    QVGImagePool::~QVGImagePool__sub_object() 0x0001108b   Thumb Code     0  qvgimagepool.o(.text)
    QVGImagePool::~QVGImagePool__deallocating() 0x0001109f   Thumb Code    22  qvgimagepool.o(.text)
    QVGImagePool::instance()                 0x000110b5   Thumb Code    44  qvgimagepool.o(.text)
    QVGImagePool::setImagePool(QVGImagePool*) 0x000110e1   Thumb Code    40  qvgimagepool.o(.text)
    QVGImagePool::createTemporaryImage(VGImageFormat, long, long, unsigned long, QVGPixmapData*) 0x00011109   Thumb Code    64  qvgimagepool.o(.text)
    QVGImagePool::removeFromLRU(QVGPixmapData*) 0x00011149   Thumb Code    70  qvgimagepool.o(.text)
    QVGImagePool::moveToHeadOfLRU(QVGPixmapData*) 0x0001118f   Thumb Code    76  qvgimagepool.o(.text)
    QVGImagePool::createImageForPixmap(VGImageFormat, long, long, unsigned long, QVGPixmapData*) 0x000111db   Thumb Code    78  qvgimagepool.o(.text)
    QVGImagePool::createPermanentImage(VGImageFormat, long, long, unsigned long) 0x00011229   Thumb Code    70  qvgimagepool.o(.text)
    QVGImagePool::releaseImage(QVGPixmapData*, unsigned long) 0x0001126f   Thumb Code    28  qvgimagepool.o(.text)
    QVGImagePool::useImage(QVGPixmapData*)   0x0001128b   Thumb Code    16  qvgimagepool.o(.text)
    QVGImagePool::detachImage(QVGPixmapData*) 0x0001129b   Thumb Code    16  qvgimagepool.o(.text)
    QVGImagePool::pixmapLRU()                0x000112ab   Thumb Code    20  qvgimagepool.o(.text)
    QVGImagePool::reclaimSpace(VGImageFormat, long, long, QVGPixmapData*) 0x000112bf   Thumb Code    86  qvgimagepool.o(.text)
    QVGImagePool::hibernate()                0x00011315   Thumb Code     2  qvgimagepool.o(.text)
    QVGWindowSurface::QVGWindowSurface(QWidget*) 0x00011365   Thumb Code    84  qwindowsurface_vg.o(.text)
    QVGWindowSurface::QVGWindowSurface__sub_object(QWidget*) 0x00011365   Thumb Code     0  qwindowsurface_vg.o(.text)
    QVGWindowSurface::QVGWindowSurface(QWidget*, QVGEGLWindowSurfacePrivate*) 0x000113b9   Thumb Code    44  qwindowsurface_vg.o(.text)
    QVGWindowSurface::QVGWindowSurface__sub_object(QWidget*, QVGEGLWindowSurfacePrivate*) 0x000113b9   Thumb Code     0  qwindowsurface_vg.o(.text)
    QVGWindowSurface::~QVGWindowSurface()    0x000113e5   Thumb Code    50  qwindowsurface_vg.o(.text)
    QVGWindowSurface::~QVGWindowSurface__sub_object() 0x000113e5   Thumb Code     0  qwindowsurface_vg.o(.text)
    QVGWindowSurface::~QVGWindowSurface__deallocating() 0x00011417   Thumb Code    22  qwindowsurface_vg.o(.text)
    thunk{-8} to QVGWindowSurface::~QVGWindowSurface__deallocating() 0x0001142d   Thumb Code    14  qwindowsurface_vg.o(.text)
    thunk{-8} to QVGWindowSurface::~QVGWindowSurface() 0x0001143b   Thumb Code    14  qwindowsurface_vg.o(.text)
    QVGWindowSurface::paintDevice()          0x00011449   Thumb Code     8  qwindowsurface_vg.o(.text)
    QVGWindowSurface::flush(QWidget*, const QRegion&, const QPoint&) 0x00011451   Thumb Code    56  qwindowsurface_vg.o(.text)
    QVGWindowSurface::setGeometry(const QRect&) 0x00011489   Thumb Code    16  qwindowsurface_vg.o(.text)
    QVGWindowSurface::scroll(const QRegion&, int, int) 0x00011499   Thumb Code    58  qwindowsurface_vg.o(.text)
    QVGWindowSurface::beginPaint(const QRegion&) 0x000114d3   Thumb Code   148  qwindowsurface_vg.o(.text)
    QVGWindowSurface::endPaint(const QRegion&) 0x00011567   Thumb Code     6  qwindowsurface_vg.o(.text)
    QVGWindowSurface::paintEngine() const    0x0001156d   Thumb Code    12  qwindowsurface_vg.o(.text)
    thunk{-8} to QVGWindowSurface::paintEngine() const 0x00011579   Thumb Code    14  qwindowsurface_vg.o(.text)
    QVGWindowSurface::metric(QPaintDevice::PaintDeviceMetric) const 0x00011587   Thumb Code    34  qwindowsurface_vg.o(.text)
    thunk{-8} to QVGWindowSurface::metric(QPaintDevice::PaintDeviceMetric) const 0x000115a9   Thumb Code    18  qwindowsurface_vg.o(.text)
    qt_vg_config_to_image_format(QEglContext*) 0x000115c1   Thumb Code   174  qwindowsurface_vgegl.o(.text)
    qt_vg_config_to_vg_format(QEglContext*)  0x0001166f   Thumb Code    18  qwindowsurface_vgegl.o(.text)
    qt_vg_shared_surface()                   0x00011697   Thumb Code   100  qwindowsurface_vgegl.o(.text)
    QVGSharedContext::~QVGSharedContext()    0x000116fb   Thumb Code   100  qwindowsurface_vgegl.o(.text)
    QVGSharedContext::~QVGSharedContext__sub_object() 0x000116fb   Thumb Code     0  qwindowsurface_vgegl.o(.text)
    QVGSharedContext::QVGSharedContext()     0x0001175f   Thumb Code    16  qwindowsurface_vgegl.o(.text)
    QVGSharedContext::QVGSharedContext__sub_object() 0x0001175f   Thumb Code     0  qwindowsurface_vgegl.o(.text)
    qt_vg_create_paint_engine()              0x00011815   Thumb Code    44  qwindowsurface_vgegl.o(.text)
    qt_vg_destroy_paint_engine(QVGPaintEngine*) 0x00011841   Thumb Code     6  qwindowsurface_vgegl.o(.text)
    qt_vg_register_pixmap(QVGPixmapData*)    0x00011847   Thumb Code    32  qwindowsurface_vgegl.o(.text)
    qt_vg_unregister_pixmap(QVGPixmapData*)  0x00011867   Thumb Code    48  qwindowsurface_vgegl.o(.text)
    qt_vg_create_context(QPaintDevice*, int) 0x00011b23   Thumb Code    54  qwindowsurface_vgegl.o(.text)
    qt_vg_hibernate_pixmaps(QVGSharedContext*) 0x00011bb3   Thumb Code    80  qwindowsurface_vgegl.o(.text)
    qt_vg_destroy_context(QEglContext*, int) 0x00011c03   Thumb Code    82  qwindowsurface_vgegl.o(.text)
    QVGEGLWindowSurfacePrivate::QVGEGLWindowSurfacePrivate__sub_object(QWindowSurface*) 0x00011c55   Thumb Code    12  qwindowsurface_vgegl.o(.text)
    QVGEGLWindowSurfacePrivate::destroyPaintEngine() 0x00011c61   Thumb Code    22  qwindowsurface_vgegl.o(.text)
    QVGEGLWindowSurfacePrivate::~QVGEGLWindowSurfacePrivate() 0x00011c77   Thumb Code     0  qwindowsurface_vgegl.o(.text)
    QVGEGLWindowSurfacePrivate::~QVGEGLWindowSurfacePrivate__sub_object() 0x00011c77   Thumb Code    18  qwindowsurface_vgegl.o(.text)
    QVGEGLWindowSurfacePrivate::~QVGEGLWindowSurfacePrivate__deallocating() 0x00011c89   Thumb Code    22  qwindowsurface_vgegl.o(.text)
    QVGEGLWindowSurfacePrivate::paintEngine() 0x00011c9f   Thumb Code    20  qwindowsurface_vgegl.o(.text)
    QVGEGLWindowSurfacePrivate::surfaceImage() const 0x00011cb3   Thumb Code     6  qwindowsurface_vgegl.o(.text)
    QVGEGLWindowSurfacePrivate::windowSurfaceSize(QWidget*) const 0x00011cb9   Thumb Code    68  qwindowsurface_vgegl.o(.text)
    QVGEGLWindowSurfaceVGImage::QVGEGLWindowSurfaceVGImage(QWindowSurface*) 0x00011cfd   Thumb Code    56  qwindowsurface_vgegl.o(.text)
    QVGEGLWindowSurfaceVGImage::QVGEGLWindowSurfaceVGImage__sub_object(QWindowSurface*) 0x00011cfd   Thumb Code     0  qwindowsurface_vgegl.o(.text)
    QVGEGLWindowSurfaceVGImage::~QVGEGLWindowSurfaceVGImage() 0x00011d35   Thumb Code    92  qwindowsurface_vgegl.o(.text)
    QVGEGLWindowSurfaceVGImage::~QVGEGLWindowSurfaceVGImage__sub_object() 0x00011d35   Thumb Code     0  qwindowsurface_vgegl.o(.text)
    QVGEGLWindowSurfaceVGImage::~QVGEGLWindowSurfaceVGImage__deallocating() 0x00011d91   Thumb Code    96  qwindowsurface_vgegl.o(.text)
    QVGEGLWindowSurfaceVGImage::ensureContext(QWidget*) 0x00011df1   Thumb Code   116  qwindowsurface_vgegl.o(.text)
    QVGEGLWindowSurfaceVGImage::mainSurface() const 0x00011e65   Thumb Code    20  qwindowsurface_vgegl.o(.text)
    QVGEGLWindowSurfaceVGImage::beginPaint(QWidget*) 0x00011e79   Thumb Code   258  qwindowsurface_vgegl.o(.text)
    QVGEGLWindowSurfaceVGImage::endPaint(QWidget*, const QRegion&, QImage*) 0x00011f7b   Thumb Code    64  qwindowsurface_vgegl.o(.text)
    QVGEGLWindowSurfaceVGImage::surfaceImage() const 0x00011fbb   Thumb Code     6  qwindowsurface_vgegl.o(.text)
    QVGEGLWindowSurfaceDirect::QVGEGLWindowSurfaceDirect(QWindowSurface*) 0x00011fc1   Thumb Code    52  qwindowsurface_vgegl.o(.text)
    QVGEGLWindowSurfaceDirect::QVGEGLWindowSurfaceDirect__sub_object(QWindowSurface*) 0x00011fc1   Thumb Code     0  qwindowsurface_vgegl.o(.text)
    QVGEGLWindowSurfaceDirect::~QVGEGLWindowSurfaceDirect() 0x00011ff5   Thumb Code    52  qwindowsurface_vgegl.o(.text)
    QVGEGLWindowSurfaceDirect::~QVGEGLWindowSurfaceDirect__sub_object() 0x00011ff5   Thumb Code     0  qwindowsurface_vgegl.o(.text)
    QVGEGLWindowSurfaceDirect::~QVGEGLWindowSurfaceDirect__deallocating() 0x00012029   Thumb Code    22  qwindowsurface_vgegl.o(.text)
    QVGEGLWindowSurfaceDirect::ensureContext(QWidget*) 0x0001203f   Thumb Code   376  qwindowsurface_vgegl.o(.text)
    QVGEGLWindowSurfaceDirect::beginPaint(QWidget*) 0x000121b7   Thumb Code    36  qwindowsurface_vgegl.o(.text)
    QVGEGLWindowSurfaceDirect::endPaint(QWidget*, const QRegion&, QImage*) 0x000121db   Thumb Code    94  qwindowsurface_vgegl.o(.text)
    QVGEGLWindowSurfaceDirect::supportsStaticContents() const 0x00012239   Thumb Code     6  qwindowsurface_vgegl.o(.text)
    QVGEGLWindowSurfaceDirect::scroll(QWidget*, const QRegion&, int, int) 0x0001223f   Thumb Code   190  qwindowsurface_vgegl.o(.text)
    QVGPixmapData::toNativeType(QPixmapData::NativeType) 0x00012433   Thumb Code   194  qvg_symbian.o(.text)
    QVGPixmapData::fromNativeType(void*, QPixmapData::NativeType) 0x000124f5   Thumb Code   364  qvg_symbian.o(.text)
    QVGPixmapData::cleanup()                 0x00012661   Thumb Code    44  qvg_symbian.o(.text)
    QSymbianVGFontGlyphCache::QSymbianVGFontGlyphCache() 0x0001268d   Thumb Code    20  qvg_symbian.o(.text)
    QSymbianVGFontGlyphCache::QSymbianVGFontGlyphCache__sub_object() 0x0001268d   Thumb Code     0  qvg_symbian.o(.text)
    QSymbianVGFontGlyphCache::cacheGlyphs(QVGPaintEnginePrivate*, QFontEngine*, const unsigned*, int) 0x000126a1   Thumb Code    30  qvg_symbian.o(.text)
    QVG::vgCreateEGLImageTargetKHR(int)      0x000126bf   Thumb Code    54  qvg_symbian.o(.text)
    QVGPixmapConvolutionFilter::getStaticMetaObject() 0x00012729   Thumb Code     4  moc_qpixmapfilter_vg_p.o(.text)
    QVGPixmapConvolutionFilter::metaObject() const 0x0001272d   Thumb Code    30  moc_qpixmapfilter_vg_p.o(.text)
    QVGPixmapConvolutionFilter::qt_metacast(const char*) 0x0001274b   Thumb Code    40  moc_qpixmapfilter_vg_p.o(.text)
    QVGPixmapConvolutionFilter::qt_metacall(QMetaObject::Call, int, void**) 0x00012773   Thumb Code    36  moc_qpixmapfilter_vg_p.o(.text)
    QVGPixmapColorizeFilter::getStaticMetaObject() 0x00012797   Thumb Code     4  moc_qpixmapfilter_vg_p.o(.text)
    QVGPixmapColorizeFilter::metaObject() const 0x0001279b   Thumb Code    30  moc_qpixmapfilter_vg_p.o(.text)
    QVGPixmapColorizeFilter::qt_metacast(const char*) 0x000127b9   Thumb Code    42  moc_qpixmapfilter_vg_p.o(.text)
    QVGPixmapColorizeFilter::qt_metacall(QMetaObject::Call, int, void**) 0x000127e3   Thumb Code    36  moc_qpixmapfilter_vg_p.o(.text)
    QVGPixmapDropShadowFilter::getStaticMetaObject() 0x00012807   Thumb Code     4  moc_qpixmapfilter_vg_p.o(.text)
    QVGPixmapDropShadowFilter::metaObject() const 0x0001280b   Thumb Code    30  moc_qpixmapfilter_vg_p.o(.text)
    QVGPixmapDropShadowFilter::qt_metacast(const char*) 0x00012829   Thumb Code    42  moc_qpixmapfilter_vg_p.o(.text)
    QVGPixmapDropShadowFilter::qt_metacall(QMetaObject::Call, int, void**) 0x00012853   Thumb Code    36  moc_qpixmapfilter_vg_p.o(.text)
    QVGPixmapBlurFilter::getStaticMetaObject() 0x00012877   Thumb Code     4  moc_qpixmapfilter_vg_p.o(.text)
    QVGPixmapBlurFilter::metaObject() const  0x0001287b   Thumb Code    30  moc_qpixmapfilter_vg_p.o(.text)
    QVGPixmapBlurFilter::qt_metacast(const char*) 0x00012899   Thumb Code    40  moc_qpixmapfilter_vg_p.o(.text)
    QVGPixmapBlurFilter::qt_metacall(QMetaObject::Call, int, void**) 0x000128c1   Thumb Code    36  moc_qpixmapfilter_vg_p.o(.text)
    __ARM_switch8                            0x000128fc   ARM Code      24  switch8.o(.text)
    __rt_switch8                             0x000128fc   ARM Code       0  switch8.o(.text)
    _E32Dll_Body                             0x00012914   ARM Code      76  uc_dll.o(.text)
    __aeabi_atexit                           0x00012964   ARM Code      40  ucppfini.o(.text)
    __cxa_atexit                             0x0001298c   ARM Code      64  ucppfini.o(.text)
    __cxa_finalize                           0x000129cc   ARM Code      48  ucppfini.o(.text)
    run_static_dtors                         0x000129fc   ARM Code      16  ucppfini.o(.text)
    __DLL_Export_Table__                     0x00012a18   ARM Code       4  dllexp.o(.text)
    qGray(unsigned)                          0x000130db   Thumb Code    48  qpixmapdata_vg.o(i._Z5qGrayj)
    qRound(float)                            0x0001310d   Thumb Code   140  qpaintengine_vg.o(i._Z6qRoundf)
    qWarning()                               0x000131a9   Thumb Code   104  qpaintengine_vg.o(i._Z8qWarningv)
    QByteArray::~QByteArray()                0x0001322d   Thumb Code    24  qpaintengine_vg.o(i._ZN10QByteArrayD1Ev)
    QByteArray::~QByteArray__sub_object()    0x0001322d   Thumb Code     0  qpaintengine_vg.o(i._ZN10QByteArrayD1Ev)
    QTransform::QTransform(const QTransform&) 0x00013245   Thumb Code    76  qpaintengine_vg.o(i._ZN10QTransformC1ERKS_)
    QTransform::QTransform__sub_object(const QTransform&) 0x00013245   Thumb Code     0  qpaintengine_vg.o(i._ZN10QTransformC1ERKS_)
    QFontEngine::Properties::~Properties()   0x00013291   Thumb Code    22  qpaintengine_vg.o(i._ZN11QFontEngine10PropertiesD1Ev)
    QFontEngine::Properties::~Properties__sub_object() 0x00013291   Thumb Code     0  qpaintengine_vg.o(i._ZN11QFontEngine10PropertiesD1Ev)
    QPainterState::QPainterState(const QPainterState&) 0x000132b1   Thumb Code   412  qpaintengine_vg.o(i._ZN13QPainterStateC1ERKS_)
    QPainterState::QPainterState__sub_object(const QPainterState&) 0x000132b1   Thumb Code     0  qpaintengine_vg.o(i._ZN13QPainterStateC1ERKS_)
    QEglProperties::~QEglProperties()        0x000134b1   Thumb Code    14  qwindowsurface_vgegl.o(i._ZN14QEglPropertiesD1Ev)
    QEglProperties::~QEglProperties__sub_object() 0x000134b1   Thumb Code     0  qwindowsurface_vgegl.o(i._ZN14QEglPropertiesD1Ev)
    QPaintEngineEx::sync()                   0x000134bf   Thumb Code     2  qpaintengine_vg.o(i._ZN14QPaintEngineEx4syncEv)
    QPaintEngineEx::~QPaintEngineEx()        0x000134c1   Thumb Code     0  qpaintengine_vg.o(i._ZN14QPaintEngineExD2Ev)
    QPaintEngineEx::~QPaintEngineEx__sub_object() 0x000134c1   Thumb Code    14  qpaintengine_vg.o(i._ZN14QPaintEngineExD2Ev)
    QVGPaintEngine::state()                  0x000134cf   Thumb Code    20  qpaintengine_vg.o(i._ZN14QVGPaintEngine5stateEv)
    QBasicAtomicInt::ref()                   0x000134e3   Thumb Code    24  qpaintengine_vg.o(i._ZN15QBasicAtomicInt3refEv)
    QBasicAtomicInt::deref()                 0x000134fb   Thumb Code    24  qpaintengine_vg.o(i._ZN15QBasicAtomicInt5derefEv)
    QtSharedPointer::ExternalRefCountData::destroy() 0x00013513   Thumb Code     6  qpaintengine_vg.o(i._ZN15QtSharedPointer20ExternalRefCountData7destroyEv)
    QtSharedPointer::ExternalRefCountData::~ExternalRefCountData__deallocating() 0x00013519   Thumb Code    22  qpaintengine_vg.o(i._ZN15QtSharedPointer20ExternalRefCountDataD0Ev)
    QtSharedPointer::ExternalRefCountData::~ExternalRefCountData() 0x00013531   Thumb Code    70  qpaintengine_vg.o(i._ZN15QtSharedPointer20ExternalRefCountDataD1Ev)
    QtSharedPointer::ExternalRefCountData::~ExternalRefCountData__sub_object() 0x00013531   Thumb Code     0  qpaintengine_vg.o(i._ZN15QtSharedPointer20ExternalRefCountDataD1Ev)
    QPainterClipInfo::QPainterClipInfo(const QPainterClipInfo&) 0x0001359d   Thumb Code    80  qpaintengine_vg.o(i._ZN16QPainterClipInfoC1ERKS_)
    QPainterClipInfo::QPainterClipInfo__sub_object(const QPainterClipInfo&) 0x0001359d   Thumb Code     0  qpaintengine_vg.o(i._ZN16QPainterClipInfoC1ERKS_)
    QPainterClipInfo::~QPainterClipInfo()    0x000135f9   Thumb Code    32  qpaintengine_vg.o(i._ZN16QPainterClipInfoD1Ev)
    QPainterClipInfo::~QPainterClipInfo__sub_object() 0x000135f9   Thumb Code     0  qpaintengine_vg.o(i._ZN16QPainterClipInfoD1Ev)
    QPaintEnginePrivate::systemStateChanged() 0x00013625   Thumb Code     2  qpaintengine_vg.o(i._ZN19QPaintEnginePrivate18systemStateChangedEv)
    QPaintEnginePrivate::~QPaintEnginePrivate__deallocating() 0x00013627   Thumb Code    22  qpaintengine_vg.o(i._ZN19QPaintEnginePrivateD0Ev)
    QPaintEnginePrivate::~QPaintEnginePrivate() 0x0001363d   Thumb Code    36  qpaintengine_vg.o(i._ZN19QPaintEnginePrivateD1Ev)
    QPaintEnginePrivate::~QPaintEnginePrivate__sub_object() 0x0001363d   Thumb Code     0  qpaintengine_vg.o(i._ZN19QPaintEnginePrivateD1Ev)
    QVGPaintEnginePrivate::ensureBrush(const QBrush&) 0x00013671   Thumb Code   128  qpaintengine_vg.o(i._ZN21QVGPaintEnginePrivate11ensureBrushERK6QBrush)
    QVGPaintEnginePrivate::setFillRule(long) 0x000136f5   Thumb Code    32  qpaintengine_vg.o(i._ZN21QVGPaintEnginePrivate11setFillRuleEl)
    QVGPaintEnginePrivate::setBlendMode(VGBlendMode) 0x00013719   Thumb Code    36  qpaintengine_vg.o(i._ZN21QVGPaintEnginePrivate12setBlendModeE11VGBlendMode)
    QVGPaintEnginePrivate::setImageMode(VGImageMode) 0x00013741   Thumb Code    36  qpaintengine_vg.o(i._ZN21QVGPaintEnginePrivate12setImageModeE11VGImageMode)
    QVGPaintEnginePrivate::setImageQuality(VGImageQuality) 0x00013769   Thumb Code    36  qpaintengine_vg.o(i._ZN21QVGPaintEnginePrivate15setImageQualityE14VGImageQuality)
    QVGPaintEnginePrivate::ensurePathTransform() 0x00013791   Thumb Code   150  qpaintengine_vg.o(i._ZN21QVGPaintEnginePrivate19ensurePathTransformEv)
    QVGPaintEnginePrivate::ensurePen(const QPen&) 0x00013841   Thumb Code   108  qpaintengine_vg.o(i._ZN21QVGPaintEnginePrivate9ensurePenERK4QPen)
    QGraphicsEffectPrivate::~QGraphicsEffectPrivate() 0x000138bb   Thumb Code    14  qwindowsurface_vg.o(i._ZN22QGraphicsEffectPrivateD1Ev)
    QGraphicsEffectPrivate::~QGraphicsEffectPrivate__sub_object() 0x000138bb   Thumb Code     0  qwindowsurface_vg.o(i._ZN22QGraphicsEffectPrivateD1Ev)
    QSymbianVGFontGlyphCache::~QSymbianVGFontGlyphCache__deallocating() 0x000138c9   Thumb Code    24  qvg_symbian.o(i._ZN24QSymbianVGFontGlyphCacheD0Ev)
    QSymbianVGFontGlyphCache::~QSymbianVGFontGlyphCache() 0x000138e1   Thumb Code    14  qvg_symbian.o(i._ZN24QSymbianVGFontGlyphCacheD1Ev)
    QSymbianVGFontGlyphCache::~QSymbianVGFontGlyphCache__sub_object() 0x000138e1   Thumb Code     0  qvg_symbian.o(i._ZN24QSymbianVGFontGlyphCacheD1Ev)
    QGraphicsBlurEffectPrivate::~QGraphicsBlurEffectPrivate__deallocating() 0x000138ef   Thumb Code    22  qwindowsurface_vg.o(i._ZN26QGraphicsBlurEffectPrivateD0Ev)
    QGraphicsBlurEffectPrivate::~QGraphicsBlurEffectPrivate() 0x00013905   Thumb Code    34  qwindowsurface_vg.o(i._ZN26QGraphicsBlurEffectPrivateD1Ev)
    QGraphicsBlurEffectPrivate::~QGraphicsBlurEffectPrivate__sub_object() 0x00013905   Thumb Code     0  qwindowsurface_vg.o(i._ZN26QGraphicsBlurEffectPrivateD1Ev)
    QVGEGLWindowSurfacePrivate::scroll(QWidget*, const QRegion&, int, int) 0x00013937   Thumb Code    10  qwindowsurface_vgegl.o(i._ZN26QVGEGLWindowSurfacePrivate6scrollEP7QWidgetRK7QRegionii)
    QGraphicsColorizeEffectPrivate::~QGraphicsColorizeEffectPrivate__deallocating() 0x00013941   Thumb Code    22  qwindowsurface_vg.o(i._ZN30QGraphicsColorizeEffectPrivateD0Ev)
    QGraphicsColorizeEffectPrivate::~QGraphicsColorizeEffectPrivate() 0x00013959   Thumb Code    34  qwindowsurface_vg.o(i._ZN30QGraphicsColorizeEffectPrivateD1Ev)
    QGraphicsColorizeEffectPrivate::~QGraphicsColorizeEffectPrivate__sub_object() 0x00013959   Thumb Code     0  qwindowsurface_vg.o(i._ZN30QGraphicsColorizeEffectPrivateD1Ev)
    QGraphicsDropShadowEffectPrivate::~QGraphicsDropShadowEffectPrivate__deallocating() 0x0001398b   Thumb Code    22  qwindowsurface_vg.o(i._ZN32QGraphicsDropShadowEffectPrivateD0Ev)
    QGraphicsDropShadowEffectPrivate::~QGraphicsDropShadowEffectPrivate() 0x000139a1   Thumb Code    34  qwindowsurface_vg.o(i._ZN32QGraphicsDropShadowEffectPrivateD1Ev)
    QGraphicsDropShadowEffectPrivate::~QGraphicsDropShadowEffectPrivate__sub_object() 0x000139a1   Thumb Code     0  qwindowsurface_vg.o(i._ZN32QGraphicsDropShadowEffectPrivateD1Ev)
    QSet<unsigned>::~QSet()                  0x000139d3   Thumb Code    14  qpaintengine_vg.o(i._ZN4QSetIjED1Ev)
    QSet<unsigned>::~QSet__sub_object()      0x000139d3   Thumb Code     0  qpaintengine_vg.o(i._ZN4QSetIjED1Ev)
    CBase::operator new(unsigned)            0x000139e1   Thumb Code    16  qvg_symbian.o(i._ZN5CBasenwEj)
    QRect::QRect(const QRect&)               0x000139f1   Thumb Code    18  qpaintengine_vg.o(i._ZN5QRectC1ERKS_)
    QRect::QRect__sub_object(const QRect&)   0x000139f1   Thumb Code     0  qpaintengine_vg.o(i._ZN5QRectC1ERKS_)
    QRect::QRect(int, int, int, int)         0x00013a03   Thumb Code    22  qpaintengine_vg.o(i._ZN5QRectC1Eiiii)
    QRect::QRect__sub_object(int, int, int, int) 0x00013a03   Thumb Code     0  qpaintengine_vg.o(i._ZN5QRectC1Eiiii)
    QRect::QRect()                           0x00013a19   Thumb Code    14  qpaintengine_vg.o(i._ZN5QRectC1Ev)
    QRect::QRect__sub_object()               0x00013a19   Thumb Code     0  qpaintengine_vg.o(i._ZN5QRectC1Ev)
    QColor::QColor(const QColor&)            0x00013a27   Thumb Code    24  qpaintengine_vg.o(i._ZN6QColorC1ERKS_)
    QColor::QColor__sub_object(const QColor&) 0x00013a27   Thumb Code     0  qpaintengine_vg.o(i._ZN6QColorC1ERKS_)
    QDebug::maybeSpace()                     0x00013a3f   Thumb Code    24  qpaintengine_vg.o(i._ZN6QDebug10maybeSpaceEv)
    QDebug::~QDebug()                        0x00013a57   Thumb Code   144  qpaintengine_vg.o(i._ZN6QDebugD1Ev)
    QDebug::~QDebug__sub_object()            0x00013a57   Thumb Code     0  qpaintengine_vg.o(i._ZN6QDebugD1Ev)
    QDebug::operator <<(const char*)         0x00013afb   Thumb Code    44  qpaintengine_vg.o(i._ZN6QDebuglsEPKc)
    QRectF::QRectF(const QRect&)             0x00013b31   Thumb Code    70  qpaintengine_vg.o(i._ZN6QRectFC1ERK5QRect)
    QRectF::QRectF__sub_object(const QRect&) 0x00013b31   Thumb Code     0  qpaintengine_vg.o(i._ZN6QRectFC1ERK5QRect)
    QRectF::QRectF(float, float, float, float) 0x00013b77   Thumb Code    14  qpaintengine_vg.o(i._ZN6QRectFC1Effff)
    QRectF::QRectF__sub_object(float, float, float, float) 0x00013b77   Thumb Code     0  qpaintengine_vg.o(i._ZN6QRectFC1Effff)
    QSizeF::QSizeF(const QSize&)             0x00013b85   Thumb Code    34  qpaintengine_vg.o(i._ZN6QSizeFC1ERK5QSize)
    QSizeF::QSizeF__sub_object(const QSize&) 0x00013b85   Thumb Code     0  qpaintengine_vg.o(i._ZN6QSizeFC1ERK5QSize)
    QPointF::QPointF(const QPoint&)          0x00013ba7   Thumb Code    34  qpaintengine_vg.o(i._ZN7QPointFC1ERK6QPoint)
    QPointF::QPointF__sub_object(const QPoint&) 0x00013ba7   Thumb Code     0  qpaintengine_vg.o(i._ZN7QPointFC1ERK6QPoint)
    QString::~QString()                      0x00013bc9   Thumb Code    24  qpaintengine_vg.o(i._ZN7QStringD1Ev)
    QString::~QString__sub_object()          0x00013bc9   Thumb Code     0  qpaintengine_vg.o(i._ZN7QStringD1Ev)
    QPainter::drawImage(int, int, const QImage&, int, int, int, int, QFlags<Qt::ImageConversionFlag>) 0x00013be1   Thumb Code   186  qpaintengine_vg.o(i._ZN8QPainter9drawImageEiiRK6QImageiiii6QFlagsIN2Qt19ImageConversionFlagEE)
    QPolygon::~QPolygon()                    0x00013ca1   Thumb Code    14  qpaintengine_vg.o(i._ZN8QPolygonD1Ev)
    QPolygon::~QPolygon__sub_object()        0x00013ca1   Thumb Code     0  qpaintengine_vg.o(i._ZN8QPolygonD1Ev)
    QHashData::willGrow()                    0x00013caf   Thumb Code    32  qpaintengine_vg.o(i._ZN9QHashData8willGrowEv)
    QPolygonF::~QPolygonF()                  0x00013ccf   Thumb Code    14  qpaintengine_vg.o(i._ZN9QPolygonFD1Ev)
    QPolygonF::~QPolygonF__sub_object()      0x00013ccf   Thumb Code     0  qpaintengine_vg.o(i._ZN9QPolygonFD1Ev)
    QByteArray::isEmpty() const              0x00013cdd   Thumb Code    18  qwindowsurface_vgegl.o(i._ZNK10QByteArray7isEmptyEv)
    QPixmapData::runtimeData() const         0x00013cef   Thumb Code     6  qpixmapdata_vg.o(i._ZNK11QPixmapData11runtimeDataEv)
    QVectorPath::convertToPainterPath() const 0x00013cf5   Thumb Code   276  qpaintengine_vg.o(i._ZNK11QVectorPath20convertToPainterPathEv)
    QPaintDevice::width() const              0x00013e13   Thumb Code    16  qpaintengine_vg.o(i._ZNK12QPaintDevice5widthEv)
    QPaintDevice::height() const             0x00013e23   Thumb Code    16  qpaintengine_vg.o(i._ZNK12QPaintDevice6heightEv)
    QPaintDevice::devType() const            0x00013e33   Thumb Code     6  qwindowsurface_vg.o(i._ZNK12QPaintDevice7devTypeEv)
    QPainterPath::elementCount() const       0x00013e39   Thumb Code    54  qpaintengine_vg.o(i._ZNK12QPainterPath12elementCountEv)
    QPainterPath::elementAt(int) const       0x00013e71   Thumb Code   118  qpaintengine_vg.o(i._ZNK12QPainterPath9elementAtEi)
    QPaintEngineEx::flags() const            0x00013fb5   Thumb Code     6  qpaintengine_vg.o(i._ZNK14QPaintEngineEx5flagsEv)
    QVGPaintEngine::type() const             0x00013fbb   Thumb Code     6  qpaintengine_vg.o(i._ZNK14QVGPaintEngine4typeEv)
    QBasicAtomicInt::operator ==(int) const  0x00013fc1   Thumb Code    16  qpaintengine_vg.o(i._ZNK15QBasicAtomicInteqEi)
    QBasicAtomicInt::operator !=(int) const  0x00013fd1   Thumb Code    16  qpaintengine_vg.o(i._ZNK15QBasicAtomicIntneEi)
    QVGEGLWindowSurfaceDirect::surfaceSize() const 0x00013fe1   Thumb Code    10  qwindowsurface_vgegl.o(i._ZNK25QVGEGLWindowSurfaceDirect11surfaceSizeEv)
    QVGEGLWindowSurfacePrivate::supportsStaticContents() const 0x00013feb   Thumb Code     6  qwindowsurface_vgegl.o(i._ZNK26QVGEGLWindowSurfacePrivate22supportsStaticContentsEv)
    QVGEGLWindowSurfaceVGImage::surfaceSize() const 0x00013ff1   Thumb Code    10  qwindowsurface_vgegl.o(i._ZNK26QVGEGLWindowSurfaceVGImage11surfaceSizeEv)
    QPen::operator !=(const QPen&) const     0x00013ffb   Thumb Code    20  qpaintengine_vg.o(i._ZNK4QPenneERKS_)
    QRect::size() const                      0x0001400f   Thumb Code    38  qpaintengine_vg.o(i._ZNK5QRect4sizeEv)
    QRect::width() const                     0x00014035   Thumb Code    12  qpaintengine_vg.o(i._ZNK5QRect5widthEv)
    QRect::height() const                    0x00014041   Thumb Code    12  qpaintengine_vg.o(i._ZNK5QRect6heightEv)
    QBrush::color() const                    0x0001404d   Thumb Code    14  qpaintengine_vg.o(i._ZNK6QBrush5colorEv)
    QBrush::style() const                    0x0001405b   Thumb Code    14  qpaintengine_vg.o(i._ZNK6QBrush5styleEv)
    QFixed::round() const                    0x00014069   Thumb Code    24  qpaintengine_vg.o(i._ZNK6QFixed5roundEv)
    QFixed::toReal() const                   0x00014081   Thumb Code    22  qpaintengine_vg.o(i._ZNK6QFixed6toRealEv)
    QRectF::bottomLeft() const               0x00014097   Thumb Code    30  qpaintengine_vg.o(i._ZNK6QRectF10bottomLeftEv)
    QRectF::bottomRight() const              0x000140b5   Thumb Code    38  qpaintengine_vg.o(i._ZNK6QRectF11bottomRightEv)
    QRectF::isNull() const                   0x000140dd   Thumb Code    58  qpixmapfilter_vg.o(i._ZNK6QRectF6isNullEv)
    QRectF::toRect() const                   0x00014121   Thumb Code    68  qpaintengine_vg.o(i._ZNK6QRectF6toRectEv)
    QRectF::topRight() const                 0x00014165   Thumb Code    30  qpaintengine_vg.o(i._ZNK6QRectF8topRightEv)
    QPointF::isNull() const                  0x00014183   Thumb Code    32  qpaintengine_vg.o(i._ZNK7QPointF6isNullEv)
    QListData::begin() const                 0x000141a3   Thumb Code    16  qpaintengine_vg.o(i._ZNK9QListData5beginEv)
    operator delete (void*, void*)           0x000141b3   Thumb Code     2  qpaintengine_vg.o(i._ZdlPvS_)
    operator ==(const QSizeF&, const QSizeF&) 0x000141b5   Thumb Code    38  qpaintengine_vg.o(i._ZeqRK6QSizeFS1_)
    operator !=(const QSize&, const QSize&)  0x000141db   Thumb Code    26  qwindowsurface_vgegl.o(i._ZneRK5QSizeS1_)
    operator new(unsigned, void*)            0x000141f5   Thumb Code     6  qpaintengine_vg.o(i._ZnwjPv)
    q_check_ptr<CFbsBitmap>(T1*)             0x000141fb   Thumb Code    20  qvg_symbian.o(t._Z11q_check_ptrI10CFbsBitmapEPT_S2_)
    qAbs<float>(const T1&)                   0x0001420f   Thumb Code    28  qpaintengine_vg.o(t._Z4qAbsIfET_RKS0_)
    qAbs<int>(const T1&)                     0x0001422b   Thumb Code    18  qpixmapdata_vg.o(t._Z4qAbsIiET_RKS0_)
    qMin<float>(const T1&, const T1&)        0x0001423d   Thumb Code    24  qpaintengine_vg.o(t._Z4qMinIfERKT_S2_S2_)
    qMin<int>(const T1&, const T1&)          0x00014255   Thumb Code    18  qpaintengine_vg.o(t._Z4qMinIiERKT_S2_S2_)
    QScopedPointer<QPixmapFilter, QScopedPointerDeleter<QPixmapFilter>>::reset(QPixmapFilter*) 0x00014267   Thumb Code    34  qpaintengine_vg.o(t._ZN14QScopedPointerI13QPixmapFilter21QScopedPointerDeleterIS0_EE5resetEPS0_)
    QScopedPointer<QPixmapFilter, QScopedPointerDeleter<QPixmapFilter>>::~QScopedPointer() 0x00014289   Thumb Code    28  qpaintengine_vg.o(t._ZN14QScopedPointerI13QPixmapFilter21QScopedPointerDeleterIS0_EED1Ev)
    QScopedPointer<QPixmapFilter, QScopedPointerDeleter<QPixmapFilter>>::~QScopedPointer__sub_object() 0x00014289   Thumb Code     0  qpaintengine_vg.o(t._ZN14QScopedPointerI13QPixmapFilter21QScopedPointerDeleterIS0_EED1Ev)
    QScopedPointer<QVGImagePoolPrivate, QScopedPointerDeleter<QVGImagePoolPrivate>>::~QScopedPointer() 0x000142a5   Thumb Code    22  qvgimagepool.o(t._ZN14QScopedPointerI19QVGImagePoolPrivate21QScopedPointerDeleterIS0_EED1Ev)
    QScopedPointer<QVGImagePoolPrivate, QScopedPointerDeleter<QVGImagePoolPrivate>>::~QScopedPointer__sub_object() 0x000142a5   Thumb Code     0  qvgimagepool.o(t._ZN14QScopedPointerI19QVGImagePoolPrivate21QScopedPointerDeleterIS0_EED1Ev)
    QVarLengthArray<QFixedPoint, (int)256>::~QVarLengthArray() 0x000142bb   Thumb Code    26  qpaintengine_vg.o(t._ZN15QVarLengthArrayI11QFixedPointLi256EED1Ev)
    QVarLengthArray<QFixedPoint, (int)256>::~QVarLengthArray__sub_object() 0x000142bb   Thumb Code     0  qpaintengine_vg.o(t._ZN15QVarLengthArrayI11QFixedPointLi256EED1Ev)
    QVarLengthArray<QRect, (int)256>::realloc(int, int) 0x000142d5   Thumb Code   230  qpaintengine_vg.o(t._ZN15QVarLengthArrayI5QRectLi256EE7reallocEii)
    QVarLengthArray<QRect, (int)256>::~QVarLengthArray() 0x000143df   Thumb Code    46  qpaintengine_vg.o(t._ZN15QVarLengthArrayI5QRectLi256EED1Ev)
    QVarLengthArray<QRect, (int)256>::~QVarLengthArray__sub_object() 0x000143df   Thumb Code     0  qpaintengine_vg.o(t._ZN15QVarLengthArrayI5QRectLi256EED1Ev)
    QVarLengthArray<float, (int)16>::append(const float&) 0x0001440d   Thumb Code    46  qpaintengine_vg.o(t._ZN15QVarLengthArrayIfLi16EE6appendERKf)
    QVarLengthArray<float, (int)16>::realloc(int, int) 0x0001443d   Thumb Code   138  qpaintengine_vg.o(t._ZN15QVarLengthArrayIfLi16EE7reallocEii)
    QVarLengthArray<float, (int)16>::QVarLengthArray(int) 0x000144e1   Thumb Code    58  qpaintengine_vg.o(t._ZN15QVarLengthArrayIfLi16EEC1Ei)
    QVarLengthArray<float, (int)16>::QVarLengthArray__sub_object(int) 0x000144e1   Thumb Code     0  qpaintengine_vg.o(t._ZN15QVarLengthArrayIfLi16EEC1Ei)
    QVarLengthArray<float, (int)16>::~QVarLengthArray() 0x0001451b   Thumb Code    26  qpaintengine_vg.o(t._ZN15QVarLengthArrayIfLi16EED1Ev)
    QVarLengthArray<float, (int)16>::~QVarLengthArray__sub_object() 0x0001451b   Thumb Code     0  qpaintengine_vg.o(t._ZN15QVarLengthArrayIfLi16EED1Ev)
    QVarLengthArray<float, (int)256>::QVarLengthArray(int) 0x00014535   Thumb Code    64  qpaintengine_vg.o(t._ZN15QVarLengthArrayIfLi256EEC1Ei)
    QVarLengthArray<float, (int)256>::QVarLengthArray__sub_object(int) 0x00014535   Thumb Code     0  qpaintengine_vg.o(t._ZN15QVarLengthArrayIfLi256EEC1Ei)
    QVarLengthArray<float, (int)256>::~QVarLengthArray() 0x00014575   Thumb Code    26  qpaintengine_vg.o(t._ZN15QVarLengthArrayIfLi256EED1Ev)
    QVarLengthArray<float, (int)256>::~QVarLengthArray__sub_object() 0x00014575   Thumb Code     0  qpaintengine_vg.o(t._ZN15QVarLengthArrayIfLi256EED1Ev)
    QVarLengthArray<float, (int)256>::operator [](int) 0x00014591   Thumb Code    40  qpaintengine_vg.o(t._ZN15QVarLengthArrayIfLi256EEixEi)
    QVarLengthArray<float, (int)48>::append(const float&) 0x000145d1   Thumb Code    46  qpaintengine_vg.o(t._ZN15QVarLengthArrayIfLi48EE6appendERKf)
    QVarLengthArray<float, (int)48>::realloc(int, int) 0x00014601   Thumb Code   138  qpaintengine_vg.o(t._ZN15QVarLengthArrayIfLi48EE7reallocEii)
    QVarLengthArray<float, (int)48>::QVarLengthArray(int) 0x000146a5   Thumb Code    58  qpaintengine_vg.o(t._ZN15QVarLengthArrayIfLi48EEC1Ei)
    QVarLengthArray<float, (int)48>::QVarLengthArray__sub_object(int) 0x000146a5   Thumb Code     0  qpaintengine_vg.o(t._ZN15QVarLengthArrayIfLi48EEC1Ei)
    QVarLengthArray<float, (int)48>::~QVarLengthArray() 0x000146df   Thumb Code    26  qpaintengine_vg.o(t._ZN15QVarLengthArrayIfLi48EED1Ev)
    QVarLengthArray<float, (int)48>::~QVarLengthArray__sub_object() 0x000146df   Thumb Code     0  qpaintengine_vg.o(t._ZN15QVarLengthArrayIfLi48EED1Ev)
    QVarLengthArray<unsigned char, (int)10>::append(const unsigned char&) 0x000146f9   Thumb Code    44  qpaintengine_vg.o(t._ZN15QVarLengthArrayIhLi10EE6appendERKh)
    QVarLengthArray<unsigned char, (int)10>::realloc(int, int) 0x00014725   Thumb Code   138  qpaintengine_vg.o(t._ZN15QVarLengthArrayIhLi10EE7reallocEii)
    QVarLengthArray<unsigned char, (int)10>::QVarLengthArray(int) 0x000147c9   Thumb Code    56  qpaintengine_vg.o(t._ZN15QVarLengthArrayIhLi10EEC1Ei)
    QVarLengthArray<unsigned char, (int)10>::QVarLengthArray__sub_object(int) 0x000147c9   Thumb Code     0  qpaintengine_vg.o(t._ZN15QVarLengthArrayIhLi10EEC1Ei)
    QVarLengthArray<unsigned char, (int)10>::~QVarLengthArray() 0x00014801   Thumb Code    26  qpaintengine_vg.o(t._ZN15QVarLengthArrayIhLi10EED1Ev)
    QVarLengthArray<unsigned char, (int)10>::~QVarLengthArray__sub_object() 0x00014801   Thumb Code     0  qpaintengine_vg.o(t._ZN15QVarLengthArrayIhLi10EED1Ev)
    QVarLengthArray<unsigned char, (int)20>::append(const unsigned char&) 0x0001481b   Thumb Code    44  qpaintengine_vg.o(t._ZN15QVarLengthArrayIhLi20EE6appendERKh)
    QVarLengthArray<unsigned char, (int)20>::realloc(int, int) 0x00014849   Thumb Code   138  qpaintengine_vg.o(t._ZN15QVarLengthArrayIhLi20EE7reallocEii)
    QVarLengthArray<unsigned char, (int)20>::QVarLengthArray(int) 0x000148ed   Thumb Code    56  qpaintengine_vg.o(t._ZN15QVarLengthArrayIhLi20EEC1Ei)
    QVarLengthArray<unsigned char, (int)20>::QVarLengthArray__sub_object(int) 0x000148ed   Thumb Code     0  qpaintengine_vg.o(t._ZN15QVarLengthArrayIhLi20EEC1Ei)
    QVarLengthArray<unsigned char, (int)20>::~QVarLengthArray() 0x00014925   Thumb Code    26  qpaintengine_vg.o(t._ZN15QVarLengthArrayIhLi20EED1Ev)
    QVarLengthArray<unsigned char, (int)20>::~QVarLengthArray__sub_object() 0x00014925   Thumb Code     0  qpaintengine_vg.o(t._ZN15QVarLengthArrayIhLi20EED1Ev)
    QVarLengthArray<int, (int)256>::~QVarLengthArray() 0x0001493f   Thumb Code    26  qwindowsurface_vgegl.o(t._ZN15QVarLengthArrayIiLi256EED1Ev)
    QVarLengthArray<int, (int)256>::~QVarLengthArray__sub_object() 0x0001493f   Thumb Code     0  qwindowsurface_vgegl.o(t._ZN15QVarLengthArrayIiLi256EED1Ev)
    QVarLengthArray<unsigned, (int)256>::~QVarLengthArray() 0x00014959   Thumb Code    26  qpaintengine_vg.o(t._ZN15QVarLengthArrayIjLi256EED1Ev)
    QVarLengthArray<unsigned, (int)256>::~QVarLengthArray__sub_object() 0x00014959   Thumb Code     0  qpaintengine_vg.o(t._ZN15QVarLengthArrayIjLi256EED1Ev)
    QVarLengthArray<long, (int)256>::QVarLengthArray(int) 0x00014973   Thumb Code    64  qpaintengine_vg.o(t._ZN15QVarLengthArrayIlLi256EEC1Ei)
    QVarLengthArray<long, (int)256>::QVarLengthArray__sub_object(int) 0x00014973   Thumb Code     0  qpaintengine_vg.o(t._ZN15QVarLengthArrayIlLi256EEC1Ei)
    QVarLengthArray<long, (int)256>::~QVarLengthArray() 0x000149b3   Thumb Code    26  qpaintengine_vg.o(t._ZN15QVarLengthArrayIlLi256EED1Ev)
    QVarLengthArray<long, (int)256>::~QVarLengthArray__sub_object() 0x000149b3   Thumb Code     0  qpaintengine_vg.o(t._ZN15QVarLengthArrayIlLi256EED1Ev)
    QVarLengthArray<long, (int)256>::operator [](int) 0x000149cd   Thumb Code    40  qpaintengine_vg.o(t._ZN15QVarLengthArrayIlLi256EEixEi)
    QVarLengthArray<unsigned long, (int)256>::realloc(int, int) 0x00014a0d   Thumb Code   138  qpaintengine_vg.o(t._ZN15QVarLengthArrayImLi256EE7reallocEii)
    QVarLengthArray<unsigned long, (int)256>::~QVarLengthArray() 0x00014ab1   Thumb Code    26  qpaintengine_vg.o(t._ZN15QVarLengthArrayImLi256EED1Ev)
    QVarLengthArray<unsigned long, (int)256>::~QVarLengthArray__sub_object() 0x00014ab1   Thumb Code     0  qpaintengine_vg.o(t._ZN15QVarLengthArrayImLi256EED1Ev)
    QVarLengthArray<unsigned long, (int)256>::operator [](int) 0x00014acd   Thumb Code    40  qpaintengine_vg.o(t._ZN15QVarLengthArrayImLi256EEixEi)
    QVarLengthArray<short, (int)256>::realloc(int, int) 0x00014b0d   Thumb Code   146  qpixmapfilter_vg.o(t._ZN15QVarLengthArrayIsLi256EE7reallocEii)
    QVarLengthArray<short, (int)256>::~QVarLengthArray() 0x00014bb9   Thumb Code    26  qpixmapfilter_vg.o(t._ZN15QVarLengthArrayIsLi256EED1Ev)
    QVarLengthArray<short, (int)256>::~QVarLengthArray__sub_object() 0x00014bb9   Thumb Code     0  qpixmapfilter_vg.o(t._ZN15QVarLengthArrayIsLi256EED1Ev)
    QGlobalStaticDeleter<QVGSharedContext>::~QGlobalStaticDeleter() 0x00014bd3   Thumb Code    42  qwindowsurface_vgegl.o(t._ZN20QGlobalStaticDeleterI16QVGSharedContextED1Ev)
    QGlobalStaticDeleter<QVGSharedContext>::~QGlobalStaticDeleter__sub_object() 0x00014bd3   Thumb Code     0  qwindowsurface_vgegl.o(t._ZN20QGlobalStaticDeleterI16QVGSharedContextED1Ev)
    QHash<QFontEngine*, QVGFontGlyphCache*>::deleteNode2(QHashData::Node*) 0x00014bfd   Thumb Code     6  qpaintengine_vg.o(t._ZN5QHashIP11QFontEngineP17QVGFontGlyphCacheE11deleteNode2EPN9QHashData4NodeE)
    QHash<QFontEngine*, QVGFontGlyphCache*>::detach_helper() 0x00014c05   Thumb Code    52  qpaintengine_vg.o(t._ZN5QHashIP11QFontEngineP17QVGFontGlyphCacheE13detach_helperEv)
    QHash<QFontEngine*, QVGFontGlyphCache*>::duplicateNode(QHashData::Node*, void*) 0x00014c41   Thumb Code    46  qpaintengine_vg.o(t._ZN5QHashIP11QFontEngineP17QVGFontGlyphCacheE13duplicateNodeEPN9QHashData4NodeEPv)
    QHash<QFontEngine*, QVGFontGlyphCache*>::end() 0x00014c6f   Thumb Code    18  qpaintengine_vg.o(t._ZN5QHashIP11QFontEngineP17QVGFontGlyphCacheE3endEv)
    QHash<QFontEngine*, QVGFontGlyphCache*>::erase(QHash<QFontEngine*, QVGFontGlyphCache*>::iterator) 0x00014c81   Thumb Code   128  qpaintengine_vg.o(t._ZN5QHashIP11QFontEngineP17QVGFontGlyphCacheE5eraseENS4_8iteratorE)
    QHash<QFontEngine*, QVGFontGlyphCache*>::detach() 0x00014d01   Thumb Code    28  qpaintengine_vg.o(t._ZN5QHashIP11QFontEngineP17QVGFontGlyphCacheE6detachEv)
    QHash<QFontEngine*, QVGFontGlyphCache*>::insert(QFontEngine*const &, QVGFontGlyphCache*const &) 0x00014d1d   Thumb Code   182  qpaintengine_vg.o(t._ZN5QHashIP11QFontEngineP17QVGFontGlyphCacheE6insertERKS1_RKS3_)
    QHash<QFontEngine*, QVGFontGlyphCache*>::freeData(QHashData*) 0x00014dd9   Thumb Code    16  qpaintengine_vg.o(t._ZN5QHashIP11QFontEngineP17QVGFontGlyphCacheE8freeDataEP9QHashData)
    QHash<QFontEngine*, QVGFontGlyphCache*>::QHash() 0x00014ded   Thumb Code    22  qpaintengine_vg.o(t._ZN5QHashIP11QFontEngineP17QVGFontGlyphCacheEC1Ev)
    QHash<QFontEngine*, QVGFontGlyphCache*>::QHash__sub_object() 0x00014ded   Thumb Code     0  qpaintengine_vg.o(t._ZN5QHashIP11QFontEngineP17QVGFontGlyphCacheEC1Ev)
    QHash<QFontEngine*, QVGFontGlyphCache*>::~QHash() 0x00014e09   Thumb Code    30  qpaintengine_vg.o(t._ZN5QHashIP11QFontEngineP17QVGFontGlyphCacheED1Ev)
    QHash<QFontEngine*, QVGFontGlyphCache*>::~QHash__sub_object() 0x00014e09   Thumb Code     0  qpaintengine_vg.o(t._ZN5QHashIP11QFontEngineP17QVGFontGlyphCacheED1Ev)
    QHash<unsigned, QHashDummyValue>::deleteNode2(QHashData::Node*) 0x00014e27   Thumb Code     6  qpaintengine_vg.o(t._ZN5QHashIj15QHashDummyValueE11deleteNode2EPN9QHashData4NodeE)
    QHash<unsigned, QHashDummyValue>::detach_helper() 0x00014e2d   Thumb Code    52  qpaintengine_vg.o(t._ZN5QHashIj15QHashDummyValueE13detach_helperEv)
    QHash<unsigned, QHashDummyValue>::duplicateNode(QHashData::Node*, void*) 0x00014e69   Thumb Code    34  qpaintengine_vg.o(t._ZN5QHashIj15QHashDummyValueE13duplicateNodeEPN9QHashData4NodeEPv)
    QHash<unsigned, QHashDummyValue>::insert(const unsigned&, const QHashDummyValue&) 0x00014e8b   Thumb Code   184  qpaintengine_vg.o(t._ZN5QHashIj15QHashDummyValueE6insertERKjRKS0_)
    QHash<unsigned, QHashDummyValue>::freeData(QHashData*) 0x00014f49   Thumb Code    16  qpaintengine_vg.o(t._ZN5QHashIj15QHashDummyValueE8freeDataEP9QHashData)
    QHash<unsigned, QHashDummyValue>::~QHash() 0x00014f5d   Thumb Code    30  qpaintengine_vg.o(t._ZN5QHashIj15QHashDummyValueED1Ev)
    QHash<unsigned, QHashDummyValue>::~QHash__sub_object() 0x00014f5d   Thumb Code     0  qpaintengine_vg.o(t._ZN5QHashIj15QHashDummyValueED1Ev)
    QHash<unsigned, QTextureGlyphCache::Coord>::deleteNode2(QHashData::Node*) 0x00014f7b   Thumb Code     6  qpaintengine_vg.o(t._ZN5QHashIjN18QTextureGlyphCache5CoordEE11deleteNode2EPN9QHashData4NodeE)
    QHash<unsigned, QTextureGlyphCache::Coord>::freeData(QHashData*) 0x00014f81   Thumb Code    16  qpaintengine_vg.o(t._ZN5QHashIjN18QTextureGlyphCache5CoordEE8freeDataEP9QHashData)
    QHash<unsigned, QTextureGlyphCache::Coord>::~QHash() 0x00014f95   Thumb Code    44  qwindowsurface_vg.o(t._ZN5QHashIjN18QTextureGlyphCache5CoordEED1Ev)
    QHash<unsigned, QTextureGlyphCache::Coord>::~QHash__sub_object() 0x00014f95   Thumb Code     0  qwindowsurface_vg.o(t._ZN5QHashIjN18QTextureGlyphCache5CoordEED1Ev)
    QList<QPainterClipInfo>::detach_helper(int) 0x00014fc1   Thumb Code   206  qpaintengine_vg.o(t._ZN5QListI16QPainterClipInfoE13detach_helperEi)
    QList<QPainterClipInfo>::detach_helper() 0x000150af   Thumb Code    16  qpaintengine_vg.o(t._ZN5QListI16QPainterClipInfoE13detach_helperEv)
    QList<QPainterClipInfo>::free(QListData::Data*) 0x000150bf   Thumb Code    76  qpaintengine_vg.o(t._ZN5QListI16QPainterClipInfoE4freeEPN9QListData4DataE)
    QList<QPainterClipInfo>::~QList()        0x0001510b   Thumb Code    32  qpaintengine_vg.o(t._ZN5QListI16QPainterClipInfoED1Ev)
    QList<QPainterClipInfo>::~QList__sub_object() 0x0001510b   Thumb Code     0  qpaintengine_vg.o(t._ZN5QListI16QPainterClipInfoED1Ev)
    QVector<QPair<float, QColor>>::free(QVectorTypedData<QPair<float, QColor>>*) 0x0001512b   Thumb Code    50  qpaintengine_vg.o(t._ZN7QVectorI5QPairIf6QColorEE4freeEP16QVectorTypedDataIS2_E)
    QVector<QPair<float, QColor>>::~QVector() 0x0001515d   Thumb Code    34  qpaintengine_vg.o(t._ZN7QVectorI5QPairIf6QColorEED1Ev)
    QVector<QPair<float, QColor>>::~QVector__sub_object() 0x0001515d   Thumb Code     0  qpaintengine_vg.o(t._ZN7QVectorI5QPairIf6QColorEED1Ev)
    QVector<QRect>::detach_helper()          0x0001517f   Thumb Code    18  qpaintengine_vg.o(t._ZN7QVectorI5QRectE13detach_helperEv)
    QVector<QRect>::free(QVectorTypedData<QRect>*) 0x00015191   Thumb Code    48  qpaintengine_vg.o(t._ZN7QVectorI5QRectE4freeEP16QVectorTypedDataIS0_E)
    QVector<QRect>::malloc(int)              0x000151c1   Thumb Code    52  qpaintengine_vg.o(t._ZN7QVectorI5QRectE6mallocEi)
    QVector<QRect>::realloc(int, int)        0x000151f5   Thumb Code   620  qpaintengine_vg.o(t._ZN7QVectorI5QRectE7reallocEii)
    QVector<QRect>::~QVector()               0x000154d5   Thumb Code    34  qpaintengine_vg.o(t._ZN7QVectorI5QRectED1Ev)
    QVector<QRect>::~QVector__sub_object()   0x000154d5   Thumb Code     0  qpaintengine_vg.o(t._ZN7QVectorI5QRectED1Ev)
    QVector<QRect>::operator [](int)         0x000154f9   Thumb Code    70  qpaintengine_vg.o(t._ZN7QVectorI5QRectEixEi)
    QVector<QPoint>::free(QVectorTypedData<QPoint>*) 0x000155ad   Thumb Code    48  qpaintengine_vg.o(t._ZN7QVectorI6QPointE4freeEP16QVectorTypedDataIS0_E)
    QVector<QPoint>::~QVector()              0x000155dd   Thumb Code    34  qpaintengine_vg.o(t._ZN7QVectorI6QPointED1Ev)
    QVector<QPoint>::~QVector__sub_object()  0x000155dd   Thumb Code     0  qpaintengine_vg.o(t._ZN7QVectorI6QPointED1Ev)
    QVector<QPointF>::free(QVectorTypedData<QPointF>*) 0x000155ff   Thumb Code    48  qpaintengine_vg.o(t._ZN7QVectorI7QPointFE4freeEP16QVectorTypedDataIS0_E)
    QVector<QPointF>::~QVector()             0x0001562f   Thumb Code    34  qpaintengine_vg.o(t._ZN7QVectorI7QPointFED1Ev)
    QVector<QPointF>::~QVector__sub_object() 0x0001562f   Thumb Code     0  qpaintengine_vg.o(t._ZN7QVectorI7QPointFED1Ev)
    QVector<QPainterPath::Element>::detach_helper() 0x00015651   Thumb Code    18  qpaintengine_vg.o(t._ZN7QVectorIN12QPainterPath7ElementEE13detach_helperEv)
    QVector<QPainterPath::Element>::free(QVectorTypedData<QPainterPath::Element>*) 0x00015663   Thumb Code    24  qpaintengine_vg.o(t._ZN7QVectorIN12QPainterPath7ElementEE4freeEP16QVectorTypedDataIS1_E)
    QVector<QPainterPath::Element>::append(const QPainterPath::Element&) 0x0001567b   Thumb Code   138  qpaintengine_vg.o(t._ZN7QVectorIN12QPainterPath7ElementEE6appendERKS1_)
    QVector<QPainterPath::Element>::malloc(int) 0x00015705   Thumb Code    54  qpaintengine_vg.o(t._ZN7QVectorIN12QPainterPath7ElementEE6mallocEi)
    QVector<QPainterPath::Element>::realloc(int, int) 0x0001573d   Thumb Code   444  qpaintengine_vg.o(t._ZN7QVectorIN12QPainterPath7ElementEE7reallocEii)
    QVector<QPainterPath::Element>::reserve(int) 0x00015951   Thumb Code    54  qpaintengine_vg.o(t._ZN7QVectorIN12QPainterPath7ElementEE7reserveEi)
    QVector<QPainterPath::Element>::operator [](int) 0x00015989   Thumb Code    72  qpaintengine_vg.o(t._ZN7QVectorIN12QPainterPath7ElementEEixEi)
    QVector<float>::detach_helper()          0x00015a3d   Thumb Code    18  qpaintengine_vg.o(t._ZN7QVectorIfE13detach_helperEv)
    QVector<float>::data()                   0x00015a4f   Thumb Code    30  qpaintengine_vg.o(t._ZN7QVectorIfE4dataEv)
    QVector<float>::free(QVectorTypedData<float>*) 0x00015a6d   Thumb Code    24  qpaintengine_vg.o(t._ZN7QVectorIfE4freeEP16QVectorTypedDataIfE)
    QVector<float>::malloc(int)              0x00015a85   Thumb Code    52  qpaintengine_vg.o(t._ZN7QVectorIfE6mallocEi)
    QVector<float>::realloc(int, int)        0x00015ab9   Thumb Code   436  qpaintengine_vg.o(t._ZN7QVectorIfE7reallocEii)
    QVector<float>::QVector(int)             0x00015cc5   Thumb Code    76  qpaintengine_vg.o(t._ZN7QVectorIfEC1Ei)
    QVector<float>::QVector__sub_object(int) 0x00015cc5   Thumb Code     0  qpaintengine_vg.o(t._ZN7QVectorIfEC1Ei)
    QVector<float>::~QVector()               0x00015d11   Thumb Code    34  qpaintengine_vg.o(t._ZN7QVectorIfED1Ev)
    QVector<float>::~QVector__sub_object()   0x00015d11   Thumb Code     0  qpaintengine_vg.o(t._ZN7QVectorIfED1Ev)
    QVector<float>::operator [](int)         0x00015d35   Thumb Code    50  qpaintengine_vg.o(t._ZN7QVectorIfEixEi)
    QScopedPointer<QBrushData, QBrushDataPointerDeleter>::operator ->() const 0x00015dd5   Thumb Code    30  qpaintengine_vg.o(t._ZNK14QScopedPointerI10QBrushData24QBrushDataPointerDeleterEptEv)
    QScopedPointer<QObjectData, QScopedPointerDeleter<QObjectData>>::operator ->() const 0x00015dfd   Thumb Code    30  moc_qpixmapfilter_vg_p.o(t._ZNK14QScopedPointerI11QObjectData21QScopedPointerDeleterIS0_EEptEv)
    QScopedPointer<QPixmapFilter, QScopedPointerDeleter<QPixmapFilter>>::operator !() const 0x00015e21   Thumb Code    16  qpaintengine_vg.o(t._ZNK14QScopedPointerI13QPixmapFilter21QScopedPointerDeleterIS0_EEntEv)
    QScopedPointer<QPainterPathPrivate, QPainterPathPrivateDeleter>::operator !() const 0x00015e31   Thumb Code    16  qpaintengine_vg.o(t._ZNK14QScopedPointerI19QPainterPathPrivate26QPainterPathPrivateDeleterEntEv)
    QScopedPointer<QPainterPathPrivate, QPainterPathPrivateDeleter>::operator ->() const 0x00015e41   Thumb Code    30  qpaintengine_vg.o(t._ZNK14QScopedPointerI19QPainterPathPrivate26QPainterPathPrivateDeleterEptEv)
    QHash<QFontEngine*, QVGFontGlyphCache*>::findNode(QFontEngine*const &, unsigned*) const 0x00015e69   Thumb Code   138  qpaintengine_vg.o(t._ZNK5QHashIP11QFontEngineP17QVGFontGlyphCacheE8findNodeERKS1_Pj)
    QHash<QFontEngine*, QVGFontGlyphCache*>::iterator::operator !=(const QHash<QFontEngine*, QVGFontGlyphCache*>::iterator&) const 0x00015f4d   Thumb Code    18  qpaintengine_vg.o(t._ZNK5QHashIP11QFontEngineP17QVGFontGlyphCacheE8iteratorneERKS5_)
    QHash<unsigned, QHashDummyValue>::findNode(const unsigned&, unsigned*) const 0x00015f61   Thumb Code   128  qpaintengine_vg.o(t._ZNK5QHashIj15QHashDummyValueE8findNodeERKjPj)
    QVector<QPair<float, QColor>>::operator [](int) const 0x00016039   Thumb Code    50  qpaintengine_vg.o(t._ZNK7QVectorI5QPairIf6QColorEEixEi)
    QVector<QRect>::at(int) const            0x000160d9   Thumb Code    48  qpaintengine_vg.o(t._ZNK7QVectorI5QRectE2atEi)
    QVGFontEngineCleaner::staticMetaObject   0x00016e50   Data          16  qpaintengine_vg.o(.constdata)
    QVGPixmapConvolutionFilter::staticMetaObject 0x00017484   Data          16  moc_qpixmapfilter_vg_p.o(.constdata)
    QVGPixmapColorizeFilter::staticMetaObject 0x00017494   Data          16  moc_qpixmapfilter_vg_p.o(.constdata)
    QVGPixmapDropShadowFilter::staticMetaObject 0x000174a4   Data          16  moc_qpixmapfilter_vg_p.o(.constdata)
    QVGPixmapBlurFilter::staticMetaObject    0x000174b4   Data          16  moc_qpixmapfilter_vg_p.o(.constdata)
    stlp_priv::_Integer_limits<signed char, (signed char)-128, (signed char)127, (int)-1, (bool)1>::digits 0x00017558   Data           4  qpaintengine_vg.o(.constdata__ZN9stlp_priv15_Integer_limitsIaLan128ELa127ELin1ELb1EE6digitsE)
    stlp_priv::_Integer_limits<bool, (bool)0, (bool)1, (int)1, (bool)0>::digits 0x0001755c   Data           4  qpaintengine_vg.o(.constdata__ZN9stlp_priv15_Integer_limitsIbLb0ELb1ELi1ELb0EE6digitsE)
    stlp_priv::_Integer_limits<char, (char)128, (char)127, (int)-1, (bool)1>::digits 0x00017560   Data           4  qpaintengine_vg.o(.constdata__ZN9stlp_priv15_Integer_limitsIcLc128ELc127ELin1ELb1EE6digitsE)
    stlp_priv::_Integer_limits<unsigned char, (unsigned char)0, (unsigned char)255, (int)-1, (bool)1>::digits 0x00017564   Data           4  qpaintengine_vg.o(.constdata__ZN9stlp_priv15_Integer_limitsIhLh0ELh255ELin1ELb1EE6digitsE)
    stlp_priv::_Integer_limits<int, (int)-2147483648, (int)2147483647, (int)-1, (bool)1>::digits 0x00017568   Data           4  qpaintengine_vg.o(.constdata__ZN9stlp_priv15_Integer_limitsIiLin2147483648ELi2147483647ELin1ELb1EE6digitsE)
    stlp_priv::_Integer_limits<int, (int)-2147483648, (int)2147483647, (int)-1, (bool)1>::is_signed 0x0001756c   Data           1  qpaintengine_vg.o(.constdata__ZN9stlp_priv15_Integer_limitsIiLin2147483648ELi2147483647ELin1ELb1EE9is_signedE)
    stlp_priv::_Integer_limits<unsigned, (unsigned)0, (unsigned)4294967295, (int)-1, (bool)1>::digits 0x00017570   Data           4  qpaintengine_vg.o(.constdata__ZN9stlp_priv15_Integer_limitsIjLj0ELj4294967295ELin1ELb1EE6digitsE)
    stlp_priv::_Integer_limits<long, (long)-2147483648, (long)2147483647, (int)-1, (bool)1>::digits 0x00017574   Data           4  qpaintengine_vg.o(.constdata__ZN9stlp_priv15_Integer_limitsIlLln2147483648ELl2147483647ELin1ELb1EE6digitsE)
    stlp_priv::_Integer_limits<unsigned long, (unsigned long)0, (unsigned long)4294967295, (int)-1, (bool)1>::digits 0x00017578   Data           4  qpaintengine_vg.o(.constdata__ZN9stlp_priv15_Integer_limitsImLm0ELm4294967295ELin1ELb1EE6digitsE)
    stlp_priv::_Integer_limits<short, (short)-32768, (short)32767, (int)-1, (bool)1>::digits 0x0001757c   Data           4  qpaintengine_vg.o(.constdata__ZN9stlp_priv15_Integer_limitsIsLsn32768ELs32767ELin1ELb1EE6digitsE)
    stlp_priv::_Integer_limits<unsigned short, (unsigned short)0, (unsigned short)65535, (int)-1, (bool)1>::digits 0x00017580   Data           4  qpaintengine_vg.o(.constdata__ZN9stlp_priv15_Integer_limitsItLt0ELt65535ELin1ELb1EE6digitsE)
    stlp_priv::_Integer_limits<wchar_t, (wchar_t)0, (wchar_t)65535, (int)-1, (bool)1>::digits 0x00017584   Data           4  qpaintengine_vg.o(.constdata__ZN9stlp_priv15_Integer_limitsIwLw0ELw65535ELin1ELb1EE6digitsE)
    stlp_priv::_Integer_limits<long long, (long long)-9223372036854775808, (long long)9223372036854775807, (int)-1, (bool)1>::digits 0x00017588   Data           4  qpaintengine_vg.o(.constdata__ZN9stlp_priv15_Integer_limitsIxLxn9223372036854775808ELx9223372036854775807ELin1ELb1EE6digitsE)
    stlp_priv::_Integer_limits<unsigned long long, (unsigned long long)0, (unsigned long long)18446744073709551615, (int)-1, (bool)1>::digits 0x0001758c   Data           4  qpaintengine_vg.o(.constdata__ZN9stlp_priv15_Integer_limitsIyLy0ELy18446744073709551615ELin1ELb1EE6digitsE)
    typeinfo for QVGImagePool                0x00017590   Data           8  qvgimagepool.o(.constdata__ZTI12QVGImagePool)
    typeinfo for QVGPixmapData               0x00017598   Data          12  qpixmapdata_vg.o(.constdata__ZTI13QVGPixmapData)
    typeinfo for QVGPaintEngine              0x000175a4   Data          12  qpaintengine_vg.o(.constdata__ZTI14QVGPaintEngine)
    typeinfo for QVGPainterState             0x000175b0   Data          12  qpaintengine_vg.o(.constdata__ZTI15QVGPainterState)
    typeinfo for QVGWindowSurface            0x000175bc   Data          32  qwindowsurface_vg.o(.constdata__ZTI16QVGWindowSurface)
    typeinfo for QVGFontGlyphCache           0x000175dc   Data           8  qpaintengine_vg.o(.constdata__ZTI17QVGFontGlyphCache)
    typeinfo for QPaintEnginePrivate         0x000175e4   Data           8  qpaintengine_vg.o(.constdata__ZTI19QPaintEnginePrivate)
    typeinfo for QVGPixmapBlurFilter         0x000175ec   Data          12  moc_qpixmapfilter_vg_p.o(.constdata__ZTI19QVGPixmapBlurFilter)
    typeinfo for QVGCompositionHelper        0x000175f8   Data           8  qpaintengine_vg.o(.constdata__ZTI20QVGCompositionHelper)
    typeinfo for QVGFontEngineCleaner        0x00017600   Data          12  qpaintengine_vg.o(.constdata__ZTI20QVGFontEngineCleaner)
    typeinfo for QVGPaintEnginePrivate       0x0001760c   Data          12  qpaintengine_vg.o(.constdata__ZTI21QVGPaintEnginePrivate)
    typeinfo for QGraphicsEffectPrivate      0x00017618   Data          12  qwindowsurface_vg.o(.constdata__ZTI22QGraphicsEffectPrivate)
    typeinfo for QVGPixmapColorizeFilter     0x00017624   Data          12  moc_qpixmapfilter_vg_p.o(.constdata__ZTI23QVGPixmapColorizeFilter)
    typeinfo for QSymbianVGFontGlyphCache    0x00017630   Data          12  qvg_symbian.o(.constdata__ZTI24QSymbianVGFontGlyphCache)
    typeinfo for QVGEGLWindowSurfaceDirect   0x0001763c   Data          12  qwindowsurface_vgegl.o(.constdata__ZTI25QVGEGLWindowSurfaceDirect)
    typeinfo for QVGPixmapDropShadowFilter   0x00017648   Data          12  moc_qpixmapfilter_vg_p.o(.constdata__ZTI25QVGPixmapDropShadowFilter)
    typeinfo for QGraphicsBlurEffectPrivate  0x00017654   Data          12  qwindowsurface_vg.o(.constdata__ZTI26QGraphicsBlurEffectPrivate)
    typeinfo for QVGEGLWindowSurfacePrivate  0x00017660   Data           8  qwindowsurface_vgegl.o(.constdata__ZTI26QVGEGLWindowSurfacePrivate)
    typeinfo for QVGEGLWindowSurfaceVGImage  0x00017668   Data          12  qwindowsurface_vgegl.o(.constdata__ZTI26QVGEGLWindowSurfaceVGImage)
    typeinfo for QVGPixmapConvolutionFilter  0x00017674   Data          12  moc_qpixmapfilter_vg_p.o(.constdata__ZTI26QVGPixmapConvolutionFilter)
    typeinfo for QGraphicsColorizeEffectPrivate 0x00017680   Data          12  qwindowsurface_vg.o(.constdata__ZTI30QGraphicsColorizeEffectPrivate)
    typeinfo for QGraphicsDropShadowEffectPrivate 0x0001768c   Data          12  qwindowsurface_vg.o(.constdata__ZTI32QGraphicsDropShadowEffectPrivate)
    typeinfo for QtSharedPointer::ExternalRefCountData 0x00017698   Data           8  qpaintengine_vg.o(.constdata__ZTIN15QtSharedPointer20ExternalRefCountDataE)
    typeinfo name for QVGImagePool           0x000176a0   Data          15  qvgimagepool.o(.constdata__ZTS12QVGImagePool)
    typeinfo name for QVGPixmapData          0x000176af   Data          16  qpixmapdata_vg.o(.constdata__ZTS13QVGPixmapData)
    typeinfo name for QVGPaintEngine         0x000176bf   Data          17  qpaintengine_vg.o(.constdata__ZTS14QVGPaintEngine)
    typeinfo name for QVGPainterState        0x000176d0   Data          18  qpaintengine_vg.o(.constdata__ZTS15QVGPainterState)
    typeinfo name for QVGWindowSurface       0x000176e2   Data          19  qwindowsurface_vg.o(.constdata__ZTS16QVGWindowSurface)
    typeinfo name for QVGFontGlyphCache      0x000176f5   Data          20  qpaintengine_vg.o(.constdata__ZTS17QVGFontGlyphCache)
    typeinfo name for QPaintEnginePrivate    0x00017709   Data          22  qpaintengine_vg.o(.constdata__ZTS19QPaintEnginePrivate)
    typeinfo name for QVGPixmapBlurFilter    0x0001771f   Data          22  moc_qpixmapfilter_vg_p.o(.constdata__ZTS19QVGPixmapBlurFilter)
    typeinfo name for QVGCompositionHelper   0x00017735   Data          23  qpaintengine_vg.o(.constdata__ZTS20QVGCompositionHelper)
    typeinfo name for QVGFontEngineCleaner   0x0001774c   Data          23  qpaintengine_vg.o(.constdata__ZTS20QVGFontEngineCleaner)
    typeinfo name for QVGPaintEnginePrivate  0x00017763   Data          24  qpaintengine_vg.o(.constdata__ZTS21QVGPaintEnginePrivate)
    typeinfo name for QGraphicsEffectPrivate 0x0001777b   Data          25  qwindowsurface_vg.o(.constdata__ZTS22QGraphicsEffectPrivate)
    typeinfo name for QVGPixmapColorizeFilter 0x00017794   Data          26  moc_qpixmapfilter_vg_p.o(.constdata__ZTS23QVGPixmapColorizeFilter)
    typeinfo name for QSymbianVGFontGlyphCache 0x000177ae   Data          27  qvg_symbian.o(.constdata__ZTS24QSymbianVGFontGlyphCache)
    typeinfo name for QVGEGLWindowSurfaceDirect 0x000177c9   Data          28  qwindowsurface_vgegl.o(.constdata__ZTS25QVGEGLWindowSurfaceDirect)
    typeinfo name for QVGPixmapDropShadowFilter 0x000177e5   Data          28  moc_qpixmapfilter_vg_p.o(.constdata__ZTS25QVGPixmapDropShadowFilter)
    typeinfo name for QGraphicsBlurEffectPrivate 0x00017801   Data          29  qwindowsurface_vg.o(.constdata__ZTS26QGraphicsBlurEffectPrivate)
    typeinfo name for QVGEGLWindowSurfacePrivate 0x0001781e   Data          29  qwindowsurface_vgegl.o(.constdata__ZTS26QVGEGLWindowSurfacePrivate)
    typeinfo name for QVGEGLWindowSurfaceVGImage 0x0001783b   Data          29  qwindowsurface_vgegl.o(.constdata__ZTS26QVGEGLWindowSurfaceVGImage)
    typeinfo name for QVGPixmapConvolutionFilter 0x00017858   Data          29  moc_qpixmapfilter_vg_p.o(.constdata__ZTS26QVGPixmapConvolutionFilter)
    typeinfo name for QGraphicsColorizeEffectPrivate 0x00017875   Data          33  qwindowsurface_vg.o(.constdata__ZTS30QGraphicsColorizeEffectPrivate)
    typeinfo name for QGraphicsDropShadowEffectPrivate 0x00017896   Data          35  qwindowsurface_vg.o(.constdata__ZTS32QGraphicsDropShadowEffectPrivate)
    typeinfo name for QtSharedPointer::ExternalRefCountData 0x000178b9   Data          42  qpaintengine_vg.o(.constdata__ZTSN15QtSharedPointer20ExternalRefCountDataE)
    vtable for QVGImagePool                  0x000178e4   Data          48  qvgimagepool.o(.constdata__ZTV12QVGImagePool)
    vtable for QVGPixmapData                 0x00017914   Data         128  qpixmapdata_vg.o(.constdata__ZTV13QVGPixmapData)
    vtable for QVGPaintEngine                0x00017994   Data         212  qpaintengine_vg.o(.constdata__ZTV14QVGPaintEngine)
    vtable for QVGPainterState               0x00017a68   Data          16  qpaintengine_vg.o(.constdata__ZTV15QVGPainterState)
    vtable for QVGWindowSurface              0x00017a78   Data          88  qwindowsurface_vg.o(.constdata__ZTV16QVGWindowSurface)
    vtable for QVGFontGlyphCache             0x00017ad0   Data          20  qpaintengine_vg.o(.constdata__ZTV17QVGFontGlyphCache)
    vtable for QPaintEnginePrivate           0x00017ae4   Data          20  qpaintengine_vg.o(.constdata__ZTV19QPaintEnginePrivate)
    vtable for QVGPixmapBlurFilter           0x00017af8   Data          64  moc_qpixmapfilter_vg_p.o(.constdata__ZTV19QVGPixmapBlurFilter)
    vtable for QVGCompositionHelper          0x00017b38   Data          16  qpaintengine_vg.o(.constdata__ZTV20QVGCompositionHelper)
    vtable for QVGFontEngineCleaner          0x00017b48   Data          56  qpaintengine_vg.o(.constdata__ZTV20QVGFontEngineCleaner)
    vtable for QVGPaintEnginePrivate         0x00017b80   Data          20  qpaintengine_vg.o(.constdata__ZTV21QVGPaintEnginePrivate)
    vtable for QVGPixmapColorizeFilter       0x00017b94   Data          64  moc_qpixmapfilter_vg_p.o(.constdata__ZTV23QVGPixmapColorizeFilter)
    vtable for QSymbianVGFontGlyphCache      0x00017bd4   Data          20  qvg_symbian.o(.constdata__ZTV24QSymbianVGFontGlyphCache)
    vtable for QVGEGLWindowSurfaceDirect     0x00017be8   Data          44  qwindowsurface_vgegl.o(.constdata__ZTV25QVGEGLWindowSurfaceDirect)
    vtable for QVGPixmapDropShadowFilter     0x00017c14   Data          64  moc_qpixmapfilter_vg_p.o(.constdata__ZTV25QVGPixmapDropShadowFilter)
    vtable for QGraphicsBlurEffectPrivate    0x00017c54   Data          16  qwindowsurface_vg.o(.constdata__ZTV26QGraphicsBlurEffectPrivate)
    vtable for QVGEGLWindowSurfacePrivate    0x00017c64   Data          44  qwindowsurface_vgegl.o(.constdata__ZTV26QVGEGLWindowSurfacePrivate)
    vtable for QVGEGLWindowSurfaceVGImage    0x00017c90   Data          44  qwindowsurface_vgegl.o(.constdata__ZTV26QVGEGLWindowSurfaceVGImage)
    vtable for QVGPixmapConvolutionFilter    0x00017cbc   Data          64  moc_qpixmapfilter_vg_p.o(.constdata__ZTV26QVGPixmapConvolutionFilter)
    vtable for QGraphicsColorizeEffectPrivate 0x00017cfc   Data          16  qwindowsurface_vg.o(.constdata__ZTV30QGraphicsColorizeEffectPrivate)
    vtable for QGraphicsDropShadowEffectPrivate 0x00017d0c   Data          16  qwindowsurface_vg.o(.constdata__ZTV32QGraphicsDropShadowEffectPrivate)
    vtable for QtSharedPointer::ExternalRefCountData 0x00017d1c   Data          20  qpaintengine_vg.o(.constdata__ZTVN15QtSharedPointer20ExternalRefCountDataE)
    .ARM.exidx$$Base                         0x00017d30   Number         0  ucppinit.o(.ARM.exidx)
    .ARM.exidx$$Limit                        0x00018930   Number         0  qpaintengine_vg.o(.ARM.exidx)
    Image$$ER_RO$$Limit                      0x00018930   Number         0  anon$$obj.o(linker$$defined$$symbols)
    __dso_handle                             0x0040002c   Data           4  ucppfini.o(.data)
    std::_Atomic_swap_struct<(int)1>::_S_swap_lock 0x00400030   Data          12  qpaintengine_vg.o(.data__ZNSt19_Atomic_swap_structILi1EE12_S_swap_lockE)
    dtor_rec                                 0x0040003c   Data        2048  ucppfini.o(.bss)

