ARM Linker, RVCT2.2 [Build 686]

================================================================================

Image Symbol Table

    Local Symbols

    Symbol Name                              Value     Ov Type        Size  Object(Section)

    ../../unhosted.s                         0x00000000   Number         0  switch8.o ABSOLUTE
    M:\\epoc32\\build\\euser\\c_e18a23aea4fd210f\\edll_lib\\armv5\\udeb\\uc_dll_.cpp 0x00000000   Number         0  uc_dll_.o ABSOLUTE
    M:\\sf\\os\\kernelhwsrv\\kernel\\eka\\compsupp\\rvct\\ucppinit.cpp 0x00000000   Number         0  ucppinit.o ABSOLUTE
    M:\epoc32\build\euser\c_e18a23aea4fd210f\edll_lib\armv5\udeb\uc_dll_.cpp 0x00000000   Number         0  uc_dll_.o ABSOLUTE
    M:\sf\os\kernelhwsrv\kernel\eka\compsupp\rvct\dllexp.cpp 0x00000000   Number         0  dllexp.o ABSOLUTE
    M:\sf\os\kernelhwsrv\kernel\eka\compsupp\rvct\ucppfini.cpp 0x00000000   Number         0  ucppfini.o ABSOLUTE
    M:\sf\os\kernelhwsrv\kernel\eka\compsupp\rvct\ucppinit.cpp 0x00000000   Number         0  ucppinit.o ABSOLUTE
    M:\sf\os\kernelhwsrv\kernel\eka\euser\epoc\arm\uc_dll.cpp 0x00000000   Number         0  uc_dll.o ABSOLUTE
    S:\sf\mw\qtmobility\build\Release\qtorganizer_symbian\moc\moc_qorganizeritemrequestqueue.cpp 0x00000000   Number         0  moc_qorganizeritemrequestqueue.o ABSOLUTE
    S:\sf\mw\qtmobility\build\Release\qtorganizer_symbian\moc\moc_qorganizersymbian_p.cpp 0x00000000   Number         0  moc_qorganizersymbian_p.o ABSOLUTE
    S:\sf\mw\qtmobility\plugins\organizer\symbian\organizeritemrequestserviceprovider.cpp 0x00000000   Number         0  organizeritemrequestserviceprovider.o ABSOLUTE
    S:\sf\mw\qtmobility\plugins\organizer\symbian\organizeritemtransform.cpp 0x00000000   Number         0  organizeritemtransform.o ABSOLUTE
    S:\sf\mw\qtmobility\plugins\organizer\symbian\organizersymbiancollection.cpp 0x00000000   Number         0  organizersymbiancollection.o ABSOLUTE
    S:\sf\mw\qtmobility\plugins\organizer\symbian\organizersymbianutils.cpp 0x00000000   Number         0  organizersymbianutils.o ABSOLUTE
    S:\sf\mw\qtmobility\plugins\organizer\symbian\qorganizeritemrequestqueue.cpp 0x00000000   Number         0  qorganizeritemrequestqueue.o ABSOLUTE
    S:\sf\mw\qtmobility\plugins\organizer\symbian\qorganizersymbian.cpp 0x00000000   Number         0  qorganizersymbian.o ABSOLUTE
    S:\sf\mw\qtmobility\plugins\organizer\symbian\transform\organizereventtimerangetransform.cpp 0x00000000   Number         0  organizereventtimerangetransform.o ABSOLUTE
    S:\sf\mw\qtmobility\plugins\organizer\symbian\transform\organizeritemdescriptiontransform.cpp 0x00000000   Number         0  organizeritemdescriptiontransform.o ABSOLUTE
    S:\sf\mw\qtmobility\plugins\organizer\symbian\transform\organizeritemdetailtransform.cpp 0x00000000   Number         0  organizeritemdetailtransform.o ABSOLUTE
    S:\sf\mw\qtmobility\plugins\organizer\symbian\transform\organizeritemdisplaylabeltransform.cpp 0x00000000   Number         0  organizeritemdisplaylabeltransform.o ABSOLUTE
    S:\sf\mw\qtmobility\plugins\organizer\symbian\transform\organizeritemguidtransform.cpp 0x00000000   Number         0  organizeritemguidtransform.o ABSOLUTE
    S:\sf\mw\qtmobility\plugins\organizer\symbian\transform\organizeritemlocationtransform.cpp 0x00000000   Number         0  organizeritemlocationtransform.o ABSOLUTE
    S:\sf\mw\qtmobility\plugins\organizer\symbian\transform\organizeritemparenttransform.cpp 0x00000000   Number         0  organizeritemparenttransform.o ABSOLUTE
    S:\sf\mw\qtmobility\plugins\organizer\symbian\transform\organizeritemprioritytransform.cpp 0x00000000   Number         0  organizeritemprioritytransform.o ABSOLUTE
    S:\sf\mw\qtmobility\plugins\organizer\symbian\transform\organizeritemrecurrencetransform.cpp 0x00000000   Number         0  organizeritemrecurrencetransform.o ABSOLUTE
    S:\sf\mw\qtmobility\plugins\organizer\symbian\transform\organizeritemremindertransform.cpp 0x00000000   Number         0  organizeritemremindertransform.o ABSOLUTE
    S:\sf\mw\qtmobility\plugins\organizer\symbian\transform\organizeritemtimestamptransform.cpp 0x00000000   Number         0  organizeritemtimestamptransform.o ABSOLUTE
    S:\sf\mw\qtmobility\plugins\organizer\symbian\transform\organizeritemtypetransform.cpp 0x00000000   Number         0  organizeritemtypetransform.o ABSOLUTE
    S:\sf\mw\qtmobility\plugins\organizer\symbian\transform\organizerjournaltimerangetransform.cpp 0x00000000   Number         0  organizerjournaltimerangetransform.o ABSOLUTE
    S:\sf\mw\qtmobility\plugins\organizer\symbian\transform\organizertodoprogresstransform.cpp 0x00000000   Number         0  organizertodoprogresstransform.o ABSOLUTE
    S:\sf\mw\qtmobility\plugins\organizer\symbian\transform\organizertodotimerangetransform.cpp 0x00000000   Number         0  organizertodotimerangetransform.o ABSOLUTE
    .emb_text                                0x00008000   Section       40  uc_dll_.o(.emb_text)
    Symbian$$eit_base                        0x00008014   Data           4  uc_dll_.o(.emb_text)
    Symbian$$eit_limit                       0x00008018   Data           4  uc_dll_.o(.emb_text)
    Symbian$$code_seg_base                   0x0000801c   Data           4  uc_dll_.o(.emb_text)
    Symbian$$code_seg_limit                  0x00008020   Data           4  uc_dll_.o(.emb_text)
    Symbian$$reserved                        0x00008024   Data           4  uc_dll_.o(.emb_text)
    .emb_text                                0x00008028   Section       52  ucppinit.o(.emb_text)
    loop                                     0x0000803c   ARM Code       0  ucppinit.o(.emb_text)
    ret                                      0x00008044   ARM Code       0  ucppinit.o(.emb_text)
    base                                     0x00008054   Data           0  ucppinit.o(.emb_text)
    limit                                    0x00008058   Data           0  ucppinit.o(.emb_text)
    .text                                    0x00008fdc   Section      116  moc_qorganizeritemrequestqueue.o(.text)
    .text                                    0x00009050   Section      396  moc_qorganizersymbian_p.o(.text)
    .text                                    0x000091dc   Section      896  qorganizeritemrequestqueue.o(.text)
    .text                                    0x0000955c   Section     4192  organizeritemrequestserviceprovider.o(.text)
    |L1.980|                                 0x00009930   Data           0  organizeritemrequestserviceprovider.o(.text)
    |L1.1016|                                0x00009954   Data           0  organizeritemrequestserviceprovider.o(.text)
    |L1.1064|                                0x00009984   Data           0  organizeritemrequestserviceprovider.o(.text)
    .text                                    0x0000a5bc   Section    14384  qorganizersymbian.o(.text)
    .text                                    0x0000ddec   Section     1660  organizersymbiancollection.o(.text)
    |L1.1036|                                0x0000e1f8   Data           0  organizersymbiancollection.o(.text)
    .text                                    0x0000e468   Section     3776  organizersymbianutils.o(.text)
    .text                                    0x0000f328   Section     4060  organizeritemtransform.o(.text)
    .text                                    0x00010304   Section       80  organizeritemdetailtransform.o(.text)
    .text                                    0x00010354   Section      880  organizereventtimerangetransform.o(.text)
    .text                                    0x000106c4   Section      152  organizeritemdescriptiontransform.o(.text)
    .text                                    0x0001075c   Section      496  organizeritemdisplaylabeltransform.o(.text)
    .text                                    0x0001094c   Section      292  organizeritemguidtransform.o(.text)
    .text                                    0x00010a70   Section       56  organizeritemparenttransform.o(.text)
    .text                                    0x00010aa8   Section     1640  organizeritemlocationtransform.o(.text)
    .text                                    0x00011110   Section      356  organizeritemprioritytransform.o(.text)
    .text                                    0x00011274   Section     5424  organizeritemrecurrencetransform.o(.text)
    .text                                    0x000127a4   Section      360  organizeritemtimestamptransform.o(.text)
    .text                                    0x0001290c   Section      744  organizeritemtypetransform.o(.text)
    .text                                    0x00012bf4   Section      376  organizerjournaltimerangetransform.o(.text)
    .text                                    0x00012d6c   Section     1440  organizertodoprogresstransform.o(.text)
    .text                                    0x0001330c   Section      848  organizertodotimerangetransform.o(.text)
    .text                                    0x0001365c   Section     1192  organizeritemremindertransform.o(.text)
    .text                                    0x00013b04   Section       24  switch8.o(.text)
    .text                                    0x00013b1c   Section       80  uc_dll.o(.text)
    .text                                    0x00013b6c   Section      180  ucppfini.o(.text)
    .text                                    0x00013c20   Section        4  dllexp.o(.text)
    .text.clean                              0x00013c24   Section      100  qorganizeritemrequestqueue.o(.text.clean)
    .text.clean                              0x00013c88   Section      532  organizeritemrequestserviceprovider.o(.text.clean)
    .text.clean                              0x00013e9c   Section     2008  qorganizersymbian.o(.text.clean)
    .text.clean                              0x00014674   Section      172  organizersymbiancollection.o(.text.clean)
    .text.clean                              0x00014720   Section      568  organizersymbianutils.o(.text.clean)
    .text.clean                              0x00014958   Section      672  organizeritemtransform.o(.text.clean)
    .text.clean                              0x00014bf8   Section      166  organizereventtimerangetransform.o(.text.clean)
    .text.clean                              0x00014c9e   Section       28  organizeritemdescriptiontransform.o(.text.clean)
    .text.clean                              0x00014cba   Section       70  organizeritemdisplaylabeltransform.o(.text.clean)
    .text.clean                              0x00014d00   Section       36  organizeritemguidtransform.o(.text.clean)
    .text.clean                              0x00014d24   Section      202  organizeritemlocationtransform.o(.text.clean)
    .text.clean                              0x00014dee   Section       50  organizeritemprioritytransform.o(.text.clean)
    .text.clean                              0x00014e20   Section      496  organizeritemrecurrencetransform.o(.text.clean)
    .text.clean                              0x00015010   Section       78  organizeritemtimestamptransform.o(.text.clean)
    .text.clean                              0x0001505e   Section       48  organizeritemtypetransform.o(.text.clean)
    .text.clean                              0x0001508e   Section       68  organizerjournaltimerangetransform.o(.text.clean)
    .text.clean                              0x000150d2   Section      182  organizertodoprogresstransform.o(.text.clean)
    .text.clean                              0x00015188   Section      168  organizertodotimerangetransform.o(.text.clean)
    .text.clean                              0x00015230   Section      140  organizeritemremindertransform.o(.text.clean)
    i._Z20qvariant_cast_helperRK8QVariantNS_4TypeEPv 0x000152bc   Section       32  organizertodoprogresstransform.o(i._Z20qvariant_cast_helperRK8QVariantNS_4TypeEPv)
    i._Z6qDebugv                             0x000152dc   Section      112  organizeritemtransform.o(i._Z6qDebugv)
    i._Z6qDebugv.clean                       0x0001534c   Section       24  organizeritemtransform.o(i._Z6qDebugv.clean)
    i._ZN10QByteArrayD1Ev                    0x00015364   Section       24  organizersymbianutils.o(i._ZN10QByteArrayD1Ev)
    i._ZN10QtMobility15QOrganizerEventD1Ev   0x0001537c   Section       14  qorganizersymbian.o(i._ZN10QtMobility15QOrganizerEventD1Ev)
    i._ZN10QtMobility18QOrganizerTodoTime14setDueDateTimeERK9QDateTime 0x0001538c   Section       48  organizertodotimerangetransform.o(i._ZN10QtMobility18QOrganizerTodoTime14setDueDateTimeERK9QDateTime)
    i._ZN10QtMobility18QOrganizerTodoTime14setDueDateTimeERK9QDateTime.clean 0x000153bc   Section       10  organizertodotimerangetransform.o(i._ZN10QtMobility18QOrganizerTodoTime14setDueDateTimeERK9QDateTime.clean)
    i._ZN10QtMobility18QOrganizerTodoTime16setStartDateTimeERK9QDateTime 0x000153c8   Section       48  organizertodotimerangetransform.o(i._ZN10QtMobility18QOrganizerTodoTime16setStartDateTimeERK9QDateTime)
    i._ZN10QtMobility18QOrganizerTodoTime16setStartDateTimeERK9QDateTime.clean 0x000153f8   Section       10  organizertodotimerangetransform.o(i._ZN10QtMobility18QOrganizerTodoTime16setStartDateTimeERK9QDateTime.clean)
    i._ZN10QtMobility18QOrganizerTodoTimeC1Ev 0x00015404   Section       28  organizertodotimerangetransform.o(i._ZN10QtMobility18QOrganizerTodoTimeC1Ev)
    i._ZN10QtMobility18QOrganizerTodoTimeD1Ev 0x00015420   Section       14  organizeritemrecurrencetransform.o(i._ZN10QtMobility18QOrganizerTodoTimeD1Ev)
    i._ZN10QtMobility19QOrganizerEventTime14setEndDateTimeERK9QDateTime 0x00015430   Section       48  organizereventtimerangetransform.o(i._ZN10QtMobility19QOrganizerEventTime14setEndDateTimeERK9QDateTime)
    i._ZN10QtMobility19QOrganizerEventTime14setEndDateTimeERK9QDateTime.clean 0x00015460   Section       10  organizereventtimerangetransform.o(i._ZN10QtMobility19QOrganizerEventTime14setEndDateTimeERK9QDateTime.clean)
    i._ZN10QtMobility19QOrganizerEventTime16setStartDateTimeERK9QDateTime 0x0001546c   Section       48  organizereventtimerangetransform.o(i._ZN10QtMobility19QOrganizerEventTime16setStartDateTimeERK9QDateTime)
    i._ZN10QtMobility19QOrganizerEventTime16setStartDateTimeERK9QDateTime.clean 0x0001549c   Section       10  organizereventtimerangetransform.o(i._ZN10QtMobility19QOrganizerEventTime16setStartDateTimeERK9QDateTime.clean)
    i._ZN10QtMobility19QOrganizerEventTimeC1Ev 0x000154a8   Section       28  organizereventtimerangetransform.o(i._ZN10QtMobility19QOrganizerEventTimeC1Ev)
    i._ZN10QtMobility19QOrganizerEventTimeD1Ev 0x000154c4   Section       14  organizereventtimerangetransform.o(i._ZN10QtMobility19QOrganizerEventTimeD1Ev)
    i._ZN10QtMobility20QOrganizerItemParent11setParentIdERKNS_16QOrganizerItemIdE 0x000154d4   Section       68  qorganizersymbian.o(i._ZN10QtMobility20QOrganizerItemParent11setParentIdERKNS_16QOrganizerItemIdE)
    i._ZN10QtMobility20QOrganizerItemParent11setParentIdERKNS_16QOrganizerItemIdE.clean 0x00015518   Section       10  qorganizersymbian.o(i._ZN10QtMobility20QOrganizerItemParent11setParentIdERKNS_16QOrganizerItemIdE.clean)
    i._ZN10QtMobility20QOrganizerItemParent15setOriginalDateERK5QDate 0x00015524   Section       48  qorganizersymbian.o(i._ZN10QtMobility20QOrganizerItemParent15setOriginalDateERK5QDate)
    i._ZN10QtMobility20QOrganizerItemParent15setOriginalDateERK5QDate.clean 0x00015554   Section       10  qorganizersymbian.o(i._ZN10QtMobility20QOrganizerItemParent15setOriginalDateERK5QDate.clean)
    i._ZN10QtMobility20QOrganizerItemParentD1Ev 0x0001555e   Section       14  qorganizersymbian.o(i._ZN10QtMobility20QOrganizerItemParentD1Ev)
    i._ZN10QtMobility21QOrganizerJournalTimeD1Ev 0x0001556c   Section       14  organizerjournaltimerangetransform.o(i._ZN10QtMobility21QOrganizerJournalTimeD1Ev)
    i._ZN10QtMobility22QOrganizerItemEngineIdC2Ev 0x0001557c   Section       24  qorganizersymbian.o(i._ZN10QtMobility22QOrganizerItemEngineIdC2Ev)
    i._ZN10QtMobility22QOrganizerItemEngineIdD0Ev 0x00015594   Section       18  qorganizersymbian.o(i._ZN10QtMobility22QOrganizerItemEngineIdD0Ev)
    i._ZN10QtMobility22QOrganizerItemEngineIdD2Ev 0x000155a6   Section        2  qorganizersymbian.o(i._ZN10QtMobility22QOrganizerItemEngineIdD2Ev)
    i._ZN10QtMobility22QOrganizerItemIdFilterD1Ev 0x000155a8   Section       14  organizeritemrequestserviceprovider.o(i._ZN10QtMobility22QOrganizerItemIdFilterD1Ev)
    i._ZN10QtMobility22QOrganizerItemLocationD1Ev 0x000155b6   Section       14  organizeritemlocationtransform.o(i._ZN10QtMobility22QOrganizerItemLocationD1Ev)
    i._ZN10QtMobility22QOrganizerItemPriorityD1Ev 0x000155c4   Section       14  organizeritemprioritytransform.o(i._ZN10QtMobility22QOrganizerItemPriorityD1Ev)
    i._ZN10QtMobility22QOrganizerItemReminderD1Ev 0x000155d2   Section       14  organizeritemremindertransform.o(i._ZN10QtMobility22QOrganizerItemReminderD1Ev)
    i._ZN10QtMobility22QOrganizerTodoProgress9setStatusENS0_6StatusE 0x000155e0   Section       48  organizertodoprogresstransform.o(i._ZN10QtMobility22QOrganizerTodoProgress9setStatusENS0_6StatusE)
    i._ZN10QtMobility22QOrganizerTodoProgress9setStatusENS0_6StatusE.clean 0x00015610   Section       10  organizertodoprogresstransform.o(i._ZN10QtMobility22QOrganizerTodoProgress9setStatusENS0_6StatusE.clean)
    i._ZN10QtMobility22QOrganizerTodoProgressD1Ev 0x0001561a   Section       14  organizertodoprogresstransform.o(i._ZN10QtMobility22QOrganizerTodoProgressD1Ev)
    i._ZN10QtMobility23QOrganizerItemTimestampD1Ev 0x00015628   Section       14  organizeritemtimestamptransform.o(i._ZN10QtMobility23QOrganizerItemTimestampD1Ev)
    i._ZN10QtMobility23QOrganizerManagerEngineD2Ev 0x00015636   Section       14  qorganizersymbian.o(i._ZN10QtMobility23QOrganizerManagerEngineD2Ev)
    i._ZN10QtMobility24QOrganizerItemRecurrenceD1Ev 0x00015644   Section       14  organizeritemrecurrencetransform.o(i._ZN10QtMobility24QOrganizerItemRecurrenceD1Ev)
    i._ZN10QtMobility25QOrganizerItemUnionFilterD1Ev 0x00015652   Section       14  qorganizersymbian.o(i._ZN10QtMobility25QOrganizerItemUnionFilterD1Ev)
    i._ZN10QtMobility28QOrganizerCollectionEngineIdC2Ev 0x00015660   Section       24  qorganizersymbian.o(i._ZN10QtMobility28QOrganizerCollectionEngineIdC2Ev)
    i._ZN10QtMobility28QOrganizerCollectionEngineIdD0Ev 0x00015678   Section       18  qorganizersymbian.o(i._ZN10QtMobility28QOrganizerCollectionEngineIdD0Ev)
    i._ZN10QtMobility28QOrganizerCollectionEngineIdD2Ev 0x0001568a   Section        2  qorganizersymbian.o(i._ZN10QtMobility28QOrganizerCollectionEngineIdD2Ev)
    i._ZN10QtMobility30QOrganizerItemCollectionFilterD1Ev 0x0001568c   Section       14  qorganizersymbian.o(i._ZN10QtMobility30QOrganizerItemCollectionFilterD1Ev)
    i._ZN11QStringListD1Ev                   0x0001569a   Section       14  organizeritemrequestserviceprovider.o(i._ZN11QStringListD1Ev)
    i._ZN12CleanupStack13PopAndDestroyEPv    0x000156a8   Section       16  qorganizersymbian.o(i._ZN12CleanupStack13PopAndDestroyEPv)
    i._ZN12QMapIteratorIPN10QtMobility25QOrganizerAbstractRequestEP37COrganizerItemRequestsServiceProviderED1Ev 0x000156b8   Section       14  qorganizeritemrequestqueue.o(i._ZN12QMapIteratorIPN10QtMobility25QOrganizerAbstractRequestEP37COrganizerItemRequestsServiceProviderED1Ev)
    i._ZN15QBasicAtomicInt3refEv             0x000156c6   Section       24  qorganizeritemrequestqueue.o(i._ZN15QBasicAtomicInt3refEv)
    i._ZN15QBasicAtomicInt5derefEv           0x000156de   Section       24  qorganizeritemrequestqueue.o(i._ZN15QBasicAtomicInt5derefEv)
    i._ZN15QtSharedPointer20ExternalRefCountData7destroyEv 0x000156f6   Section        6  organizeritemrequestserviceprovider.o(i._ZN15QtSharedPointer20ExternalRefCountData7destroyEv)
    i._ZN15QtSharedPointer20ExternalRefCountDataD0Ev 0x000156fc   Section       22  organizeritemrequestserviceprovider.o(i._ZN15QtSharedPointer20ExternalRefCountDataD0Ev)
    i._ZN15QtSharedPointer20ExternalRefCountDataD1Ev 0x00015714   Section      156  organizeritemrequestserviceprovider.o(i._ZN15QtSharedPointer20ExternalRefCountDataD1Ev)
    i._ZN17QForeachContainerI4QMapIN10QtMobility22QOrganizerCollectionIdE26OrganizerSymbianCollectionEED1Ev 0x000157b0   Section       14  qorganizersymbian.o(i._ZN17QForeachContainerI4QMapIN10QtMobility22QOrganizerCollectionIdE26OrganizerSymbianCollectionEED1Ev)
    i._ZN17QForeachContainerI4QSetI5QDateEED1Ev 0x000157be   Section       14  organizeritemrecurrencetransform.o(i._ZN17QForeachContainerI4QSetI5QDateEED1Ev)
    i._ZN17QForeachContainerI4QSetIN10QtMobility24QOrganizerRecurrenceRule5MonthEEED1Ev 0x000157cc   Section       14  organizeritemrecurrencetransform.o(i._ZN17QForeachContainerI4QSetIN10QtMobility24QOrganizerRecurrenceRule5MonthEEED1Ev)
    i._ZN17QForeachContainerI4QSetIN2Qt9DayOfWeekEEED1Ev 0x000157da   Section       14  organizeritemrecurrencetransform.o(i._ZN17QForeachContainerI4QSetIN2Qt9DayOfWeekEEED1Ev)
    i._ZN17QForeachContainerI4QSetIiEED1Ev   0x000157e8   Section       14  organizeritemrecurrencetransform.o(i._ZN17QForeachContainerI4QSetIiEED1Ev)
    i._ZN17QForeachContainerI5QListI26OrganizerSymbianCollectionEED1Ev 0x000157f6   Section       14  qorganizersymbian.o(i._ZN17QForeachContainerI5QListI26OrganizerSymbianCollectionEED1Ev)
    i._ZN17QForeachContainerI5QListI7QStringEED1Ev 0x00015804   Section       14  organizersymbianutils.o(i._ZN17QForeachContainerI5QListI7QStringEED1Ev)
    i._ZN17QForeachContainerI5QListIN10QtMobility14QOrganizerItemEEED1Ev 0x00015812   Section       14  qorganizersymbian.o(i._ZN17QForeachContainerI5QListIN10QtMobility14QOrganizerItemEEED1Ev)
    i._ZN17QForeachContainerI5QListIN10QtMobility16QOrganizerItemIdEEED1Ev 0x00015820   Section       14  qorganizersymbian.o(i._ZN17QForeachContainerI5QListIN10QtMobility16QOrganizerItemIdEEED1Ev)
    i._ZN17QForeachContainerI5QListIN10QtMobility20QOrganizerItemFilterEEED1Ev 0x0001582e   Section       14  qorganizersymbian.o(i._ZN17QForeachContainerI5QListIN10QtMobility20QOrganizerItemFilterEEED1Ev)
    i._ZN17QForeachContainerI5QListIN10QtMobility22QOrganizerCollectionIdEEED1Ev 0x0001583c   Section       14  qorganizersymbian.o(i._ZN17QForeachContainerI5QListIN10QtMobility22QOrganizerCollectionIdEEED1Ev)
    i._ZN17QForeachContainerI5QListIP28OrganizerItemDetailTransformEED1Ev 0x0001584a   Section       14  organizeritemtransform.o(i._ZN17QForeachContainerI5QListIP28OrganizerItemDetailTransformEED1Ev)
    i._ZN17QForeachContainerI5QListIiEED1Ev  0x00015858   Section       14  organizeritemrequestserviceprovider.o(i._ZN17QForeachContainerI5QListIiEED1Ev)
    i._ZN26OrganizerItemGuidTransformD0Ev    0x00015866   Section       24  organizeritemguidtransform.o(i._ZN26OrganizerItemGuidTransformD0Ev)
    i._ZN26OrganizerItemGuidTransformD1Ev    0x0001587e   Section       14  organizeritemguidtransform.o(i._ZN26OrganizerItemGuidTransformD1Ev)
    i._ZN26OrganizerItemTypeTransformD0Ev    0x0001588c   Section       24  organizeritemtypetransform.o(i._ZN26OrganizerItemTypeTransformD0Ev)
    i._ZN26OrganizerItemTypeTransformD1Ev    0x000158a4   Section       14  organizeritemtypetransform.o(i._ZN26OrganizerItemTypeTransformD1Ev)
    i._ZN26OrganizerSymbianCollectionD1Ev    0x000158b2   Section       14  qorganizersymbian.o(i._ZN26OrganizerSymbianCollectionD1Ev)
    i._ZN26OrganizerSymbianCollectionaSERKS_ 0x000158c0   Section       72  qorganizersymbian.o(i._ZN26OrganizerSymbianCollectionaSERKS_)
    i._ZN26OrganizerTodoTimeTransformD0Ev    0x00015908   Section       24  organizertodotimerangetransform.o(i._ZN26OrganizerTodoTimeTransformD0Ev)
    i._ZN26OrganizerTodoTimeTransformD1Ev    0x00015920   Section       14  organizertodotimerangetransform.o(i._ZN26OrganizerTodoTimeTransformD1Ev)
    i._ZN27OrganizerEventTimeTransformD0Ev   0x0001592e   Section       24  organizereventtimerangetransform.o(i._ZN27OrganizerEventTimeTransformD0Ev)
    i._ZN27OrganizerEventTimeTransformD1Ev   0x00015946   Section       14  organizereventtimerangetransform.o(i._ZN27OrganizerEventTimeTransformD1Ev)
    i._ZN28OrganizerItemParentTransformD0Ev  0x00015954   Section       24  organizeritemparenttransform.o(i._ZN28OrganizerItemParentTransformD0Ev)
    i._ZN28OrganizerItemParentTransformD1Ev  0x0001596c   Section       14  organizeritemparenttransform.o(i._ZN28OrganizerItemParentTransformD1Ev)
    i._ZN28QOrganizerItemSymbianFactoryD0Ev  0x0001597a   Section       22  moc_qorganizersymbian_p.o(i._ZN28QOrganizerItemSymbianFactoryD0Ev)
    i._ZN28QOrganizerItemSymbianFactoryD1Ev  0x00015990   Section       26  moc_qorganizersymbian_p.o(i._ZN28QOrganizerItemSymbianFactoryD1Ev)
    i._ZN28QOrganizerItemSymbianFactoryD1Ev.clean 0x000159aa   Section       10  moc_qorganizersymbian_p.o(i._ZN28QOrganizerItemSymbianFactoryD1Ev.clean)
    i._ZN29OrganizerJournalTimeTransformD0Ev 0x000159b4   Section       24  organizerjournaltimerangetransform.o(i._ZN29OrganizerJournalTimeTransformD0Ev)
    i._ZN29OrganizerJournalTimeTransformD1Ev 0x000159cc   Section       14  organizerjournaltimerangetransform.o(i._ZN29OrganizerJournalTimeTransformD1Ev)
    i._ZN30OrganizerItemLocationTransformD0Ev 0x000159da   Section       24  organizeritemlocationtransform.o(i._ZN30OrganizerItemLocationTransformD0Ev)
    i._ZN30OrganizerItemLocationTransformD1Ev 0x000159f2   Section       14  organizeritemlocationtransform.o(i._ZN30OrganizerItemLocationTransformD1Ev)
    i._ZN30OrganizerItemPriorityTransformD0Ev 0x00015a00   Section       24  organizeritemprioritytransform.o(i._ZN30OrganizerItemPriorityTransformD0Ev)
    i._ZN30OrganizerItemPriorityTransformD1Ev 0x00015a18   Section       14  organizeritemprioritytransform.o(i._ZN30OrganizerItemPriorityTransformD1Ev)
    i._ZN30OrganizerItemReminderTransformD0Ev 0x00015a26   Section       24  organizeritemremindertransform.o(i._ZN30OrganizerItemReminderTransformD0Ev)
    i._ZN30OrganizerItemReminderTransformD1Ev 0x00015a3e   Section       14  organizeritemremindertransform.o(i._ZN30OrganizerItemReminderTransformD1Ev)
    i._ZN30OrganizerTodoProgressTransformD0Ev 0x00015a4c   Section       24  organizertodoprogresstransform.o(i._ZN30OrganizerTodoProgressTransformD0Ev)
    i._ZN30OrganizerTodoProgressTransformD1Ev 0x00015a64   Section       14  organizertodoprogresstransform.o(i._ZN30OrganizerTodoProgressTransformD1Ev)
    i._ZN31OrganizerItemTimeStampTransformD0Ev 0x00015a72   Section       24  organizeritemtimestamptransform.o(i._ZN31OrganizerItemTimeStampTransformD0Ev)
    i._ZN31OrganizerItemTimeStampTransformD1Ev 0x00015a8a   Section       14  organizeritemtimestamptransform.o(i._ZN31OrganizerItemTimeStampTransformD1Ev)
    i._ZN32OrganizerItemRecurrenceTransformD0Ev 0x00015a98   Section       24  organizeritemrecurrencetransform.o(i._ZN32OrganizerItemRecurrenceTransformD0Ev)
    i._ZN32OrganizerItemRecurrenceTransformD1Ev 0x00015ab0   Section       14  organizeritemrecurrencetransform.o(i._ZN32OrganizerItemRecurrenceTransformD1Ev)
    i._ZN33OrganizerItemDescriptionTransformD0Ev 0x00015abe   Section       24  organizeritemdescriptiontransform.o(i._ZN33OrganizerItemDescriptionTransformD0Ev)
    i._ZN33OrganizerItemDescriptionTransformD1Ev 0x00015ad6   Section       14  organizeritemdescriptiontransform.o(i._ZN33OrganizerItemDescriptionTransformD1Ev)
    i._ZN34OrganizerItemDisplayLabelTransformD0Ev 0x00015ae4   Section       24  organizeritemdisplaylabeltransform.o(i._ZN34OrganizerItemDisplayLabelTransformD0Ev)
    i._ZN34OrganizerItemDisplayLabelTransformD1Ev 0x00015afc   Section       14  organizeritemdisplaylabeltransform.o(i._ZN34OrganizerItemDisplayLabelTransformD1Ev)
    i._ZN4QSetI5QDateED1Ev                   0x00015b0a   Section       14  organizeritemrecurrencetransform.o(i._ZN4QSetI5QDateED1Ev)
    i._ZN4QSetIN10QtMobility16QOrganizerItemIdEED1Ev 0x00015b18   Section       14  qorganizersymbian.o(i._ZN4QSetIN10QtMobility16QOrganizerItemIdEED1Ev)
    i._ZN4QSetIN10QtMobility22QOrganizerCollectionIdEED1Ev 0x00015b26   Section       14  qorganizersymbian.o(i._ZN4QSetIN10QtMobility22QOrganizerCollectionIdEED1Ev)
    i._ZN4QSetIN10QtMobility24QOrganizerRecurrenceRule5MonthEED1Ev 0x00015b34   Section       14  organizeritemrecurrencetransform.o(i._ZN4QSetIN10QtMobility24QOrganizerRecurrenceRule5MonthEED1Ev)
    i._ZN4QSetIN10QtMobility24QOrganizerRecurrenceRuleEED1Ev 0x00015b42   Section       14  organizeritemrecurrencetransform.o(i._ZN4QSetIN10QtMobility24QOrganizerRecurrenceRuleEED1Ev)
    i._ZN4QSetIN2Qt9DayOfWeekEED1Ev          0x00015b50   Section       14  organizeritemrecurrencetransform.o(i._ZN4QSetIN2Qt9DayOfWeekEED1Ev)
    i._ZN4QSetIiED1Ev                        0x00015b5e   Section       14  organizeritemrecurrencetransform.o(i._ZN4QSetIiED1Ev)
    i._ZN5CBasenwEj                          0x00015b6c   Section       16  organizersymbiancollection.o(i._ZN5CBasenwEj)
    i._ZN6QColorC1ERKS_                      0x00015b7c   Section       24  organizersymbianutils.o(i._ZN6QColorC1ERKS_)
    i._ZN6QDebug10maybeSpaceEv               0x00015b94   Section       24  qorganizersymbian.o(i._ZN6QDebug10maybeSpaceEv)
    i._ZN6QDebugC1ERKS_                      0x00015bac   Section       16  organizeritemtransform.o(i._ZN6QDebugC1ERKS_)
    i._ZN6QDebugD1Ev                         0x00015bbc   Section      154  organizeritemtransform.o(i._ZN6QDebugD1Ev)
    i._ZN6QDebugD1Ev.clean                   0x00015c56   Section       20  organizeritemtransform.o(i._ZN6QDebugD1Ev.clean)
    i._ZN6QDebuglsEPKc                       0x00015c6a   Section       44  qorganizersymbian.o(i._ZN6QDebuglsEPKc)
    i._ZN6QDebuglsEPKc.clean                 0x00015c96   Section       10  qorganizersymbian.o(i._ZN6QDebuglsEPKc.clean)
    i._ZN6QDebuglsERK7QString                0x00015ca0   Section       38  organizeritemtransform.o(i._ZN6QDebuglsERK7QString)
    i._ZN6QDebuglsEi                         0x00015cc6   Section       22  organizeritemtransform.o(i._ZN6QDebuglsEi)
    i._ZN6QDebuglsEy                         0x00015cdc   Section       48  qorganizersymbian.o(i._ZN6QDebuglsEy)
    i._ZN6QDebuglsEy.clean                   0x00015d0c   Section       10  qorganizersymbian.o(i._ZN6QDebuglsEy.clean)
    i._ZN7QStringC1EPKc                      0x00015d16   Section       22  organizeritemtransform.o(i._ZN7QStringC1EPKc)
    i._ZN7QStringC1ERK13QLatin1String        0x00015d2c   Section       26  qorganizersymbian.o(i._ZN7QStringC1ERK13QLatin1String)
    i._ZN7QStringC1ERKS_                     0x00015d46   Section       22  qorganizersymbian.o(i._ZN7QStringC1ERKS_)
    i._ZN7QStringC1Ev                        0x00015d5c   Section       24  organizeritemtypetransform.o(i._ZN7QStringC1Ev)
    i._ZN7QStringD1Ev                        0x00015d74   Section       24  organizeritemrequestserviceprovider.o(i._ZN7QStringD1Ev)
    i._ZN7QStringaSERK13QLatin1String        0x00015d8c   Section       42  organizeritemtypetransform.o(i._ZN7QStringaSERK13QLatin1String)
    i._ZN7QStringaSERK13QLatin1String.clean  0x00015db6   Section       10  organizeritemtypetransform.o(i._ZN7QStringaSERK13QLatin1String.clean)
    i._ZN9QHashData8willGrowEv               0x00015dc0   Section       32  qorganizersymbian.o(i._ZN9QHashData8willGrowEv)
    i._ZN9QHashData9firstNodeEv              0x00015de0   Section       36  qorganizersymbian.o(i._ZN9QHashData9firstNodeEv)
    i._ZNK10QtMobility18QOrganizerTodoTime11dueDateTimeEv 0x00015e04   Section       32  organizertodotimerangetransform.o(i._ZNK10QtMobility18QOrganizerTodoTime11dueDateTimeEv)
    i._ZNK10QtMobility18QOrganizerTodoTime13startDateTimeEv 0x00015e24   Section       32  organizertodotimerangetransform.o(i._ZNK10QtMobility18QOrganizerTodoTime13startDateTimeEv)
    i._ZNK10QtMobility19QOrganizerEventTime11endDateTimeEv 0x00015e44   Section       32  organizereventtimerangetransform.o(i._ZNK10QtMobility19QOrganizerEventTime11endDateTimeEv)
    i._ZNK10QtMobility19QOrganizerEventTime13startDateTimeEv 0x00015e64   Section       32  organizereventtimerangetransform.o(i._ZNK10QtMobility19QOrganizerEventTime13startDateTimeEv)
    i._ZNK10QtMobility20QOrganizerItemParent12originalDateEv 0x00015e84   Section       52  qorganizersymbian.o(i._ZNK10QtMobility20QOrganizerItemParent12originalDateEv)
    i._ZNK10QtMobility20QOrganizerItemParent12originalDateEv.clean 0x00015eb8   Section       10  qorganizersymbian.o(i._ZNK10QtMobility20QOrganizerItemParent12originalDateEv.clean)
    i._ZNK10QtMobility20QOrganizerItemParent8parentIdEv 0x00015ec4   Section      160  qorganizersymbian.o(i._ZNK10QtMobility20QOrganizerItemParent8parentIdEv)
    i._ZNK10QtMobility20QOrganizerItemParent8parentIdEv.clean 0x00015f64   Section       20  qorganizersymbian.o(i._ZNK10QtMobility20QOrganizerItemParent8parentIdEv.clean)
    i._ZNK10QtMobility22QOrganizerItemLocation5labelEv 0x00015f78   Section       32  organizeritemlocationtransform.o(i._ZNK10QtMobility22QOrganizerItemLocation5labelEv)
    i._ZNK10QtMobility22QOrganizerItemReminder18secondsBeforeStartEv 0x00015f98   Section      128  organizeritemremindertransform.o(i._ZNK10QtMobility22QOrganizerItemReminder18secondsBeforeStartEv)
    i._ZNK10QtMobility22QOrganizerItemReminder18secondsBeforeStartEv.clean 0x00016018   Section       10  organizeritemremindertransform.o(i._ZNK10QtMobility22QOrganizerItemReminder18secondsBeforeStartEv.clean)
    i._ZNK10QtMobility22QOrganizerTodoProgress16finishedDateTimeEv 0x00016024   Section       32  organizertodoprogresstransform.o(i._ZNK10QtMobility22QOrganizerTodoProgress16finishedDateTimeEv)
    i._ZNK10QtMobility22QOrganizerTodoProgress6statusEv 0x00016044   Section      116  organizertodoprogresstransform.o(i._ZNK10QtMobility22QOrganizerTodoProgress6statusEv)
    i._ZNK10QtMobility22QOrganizerTodoProgress6statusEv.clean 0x000160b8   Section       10  organizertodoprogresstransform.o(i._ZNK10QtMobility22QOrganizerTodoProgress6statusEv.clean)
    i._ZNK10QtMobility23QOrganizerItemTimestamp7createdEv 0x000160c4   Section       32  organizeritemtimestamptransform.o(i._ZNK10QtMobility23QOrganizerItemTimestamp7createdEv)
    i._ZNK15QBasicAtomicInteqEi              0x000160e4   Section       16  organizeritemrequestserviceprovider.o(i._ZNK15QBasicAtomicInteqEi)
    i._ZNK15QBasicAtomicIntneEi              0x000160f4   Section       16  qorganizeritemrequestqueue.o(i._ZNK15QBasicAtomicIntneEi)
    i._ZNK5TTimeneES_                        0x00016104   Section       28  organizereventtimerangetransform.o(i._ZNK5TTimeneES_)
    i._ZNK7QString7isEmptyEv                 0x00016120   Section       18  qorganizersymbian.o(i._ZNK7QString7isEmptyEv)
    i._ZNK7QStringneERKS_                    0x00016132   Section       20  qorganizersymbian.o(i._ZNK7QStringneERKS_)
    i._ZNK9QListData2atEi                    0x00016146   Section       20  organizeritemrequestserviceprovider.o(i._ZNK9QListData2atEi)
    i._ZNK9QListData3endEv                   0x0001615a   Section       16  qorganizeritemrequestqueue.o(i._ZNK9QListData3endEv)
    i._ZNK9QListData4sizeEv                  0x0001616a   Section       14  organizeritemrequestserviceprovider.o(i._ZNK9QListData4sizeEv)
    i._ZNK9QListData5beginEv                 0x00016178   Section       16  qorganizeritemrequestqueue.o(i._ZNK9QListData5beginEv)
    i._ZThn8_N28QOrganizerItemSymbianFactoryD0Ev 0x00016188   Section       14  moc_qorganizersymbian_p.o(i._ZThn8_N28QOrganizerItemSymbianFactoryD0Ev)
    i._ZThn8_N28QOrganizerItemSymbianFactoryD1Ev 0x00016196   Section       14  moc_qorganizersymbian_p.o(i._ZThn8_N28QOrganizerItemSymbianFactoryD1Ev)
    i._ZdlPvS_                               0x000161a4   Section        2  organizeritemrequestserviceprovider.o(i._ZdlPvS_)
    i._ZnwjPv                                0x000161a6   Section        6  qorganizeritemrequestqueue.o(i._ZnwjPv)
    t._Z15qMapLessThanKeyI7QStringEbRKT_S3_  0x000161ac   Section       16  qorganizersymbian.o(t._Z15qMapLessThanKeyI7QStringEbRKT_S3_)
    t._Z15qMapLessThanKeyIN10QtMobility22QOrganizerCollectionIdEEbRKT_S4_ 0x000161bc   Section       16  qorganizersymbian.o(t._Z15qMapLessThanKeyIN10QtMobility22QOrganizerCollectionIdEEbRKT_S4_)
    t._Z15qMapLessThanKeyIPN10QtMobility25QOrganizerAbstractRequestEEbRKT_S5_ 0x000161cc   Section       18  qorganizeritemrequestqueue.o(t._Z15qMapLessThanKeyIPN10QtMobility25QOrganizerAbstractRequestEEbRKT_S5_)
    t._Z15qMapLessThanKeyIiEbRKT_S2_         0x000161de   Section       18  organizeritemrequestserviceprovider.o(t._Z15qMapLessThanKeyIiEbRKT_S2_)
    t._Z17CleanupClosePushLI6RArrayI4TDayEEvRT_ 0x000161f0   Section       28  organizeritemrecurrencetransform.o(t._Z17CleanupClosePushLI6RArrayI4TDayEEvRT_)
    t._Z17CleanupClosePushLI6RArrayI6TMonthEEvRT_ 0x0001620c   Section       28  organizeritemrecurrencetransform.o(t._Z17CleanupClosePushLI6RArrayI6TMonthEEvRT_)
    t._Z17CleanupClosePushLI6RArrayI8TCalTimeEEvRT_ 0x00016228   Section       28  organizeritemrecurrencetransform.o(t._Z17CleanupClosePushLI6RArrayI8TCalTimeEEvRT_)
    t._Z17CleanupClosePushLI6RArrayIN9TCalRRule11TDayOfMonthEEEvRT_ 0x00016244   Section       28  organizeritemrecurrencetransform.o(t._Z17CleanupClosePushLI6RArrayIN9TCalRRule11TDayOfMonthEEEvRT_)
    t._Z17CleanupClosePushLI6RArrayIiEEvRT_  0x00016260   Section       28  organizeritemrecurrencetransform.o(t._Z17CleanupClosePushLI6RArrayIiEEvRT_)
    t._Z17qRegisterMetaTypeIN10QtMobility16QOrganizerItemIdEEiPKcPT_ 0x0001627c   Section       64  qorganizersymbian.o(t._Z17qRegisterMetaTypeIN10QtMobility16QOrganizerItemIdEEiPKcPT_)
    t._Z20qForeachContainerNewI4QMapIN10QtMobility22QOrganizerCollectionIdE26OrganizerSymbianCollectionEE17QForeachContainerIT_ERKS6_ 0x000162bc   Section       92  qorganizersymbian.o(t._Z20qForeachContainerNewI4QMapIN10QtMobility22QOrganizerCollectionIdE26OrganizerSymbianCollectionEE17QForeachContainerIT_ERKS6_)
    t._Z20qForeachContainerNewI4QMapIN10QtMobility22QOrganizerCollectionIdE26OrganizerSymbianCollectionEE17QForeachContainerIT_ERKS6_.clean 0x00016318   Section        4  qorganizersymbian.o(t._Z20qForeachContainerNewI4QMapIN10QtMobility22QOrganizerCollectionIdE26OrganizerSymbianCollectionEE17QForeachContainerIT_ERKS6_.clean)
    t._Z20qForeachContainerNewI4QSetIN2Qt9DayOfWeekEEE17QForeachContainerIT_ERKS5_ 0x0001631c   Section      152  organizeritemrecurrencetransform.o(t._Z20qForeachContainerNewI4QSetIN2Qt9DayOfWeekEEE17QForeachContainerIT_ERKS5_)
    t._Z20qForeachContainerNewI4QSetIN2Qt9DayOfWeekEEE17QForeachContainerIT_ERKS5_.clean 0x000163b4   Section       10  organizeritemrecurrencetransform.o(t._Z20qForeachContainerNewI4QSetIN2Qt9DayOfWeekEEE17QForeachContainerIT_ERKS5_.clean)
    t._Z20qForeachContainerNewI4QSetIiEE17QForeachContainerIT_ERKS3_ 0x000163be   Section      152  organizeritemrecurrencetransform.o(t._Z20qForeachContainerNewI4QSetIiEE17QForeachContainerIT_ERKS3_)
    t._Z20qForeachContainerNewI4QSetIiEE17QForeachContainerIT_ERKS3_.clean 0x00016456   Section       10  organizeritemrecurrencetransform.o(t._Z20qForeachContainerNewI4QSetIiEE17QForeachContainerIT_ERKS3_.clean)
    t._Z20qForeachContainerNewI5QListI26OrganizerSymbianCollectionEE17QForeachContainerIT_ERKS4_ 0x00016460   Section      102  qorganizersymbian.o(t._Z20qForeachContainerNewI5QListI26OrganizerSymbianCollectionEE17QForeachContainerIT_ERKS4_)
    t._Z20qForeachContainerNewI5QListI26OrganizerSymbianCollectionEE17QForeachContainerIT_ERKS4_.clean 0x000164c6   Section       10  qorganizersymbian.o(t._Z20qForeachContainerNewI5QListI26OrganizerSymbianCollectionEE17QForeachContainerIT_ERKS4_.clean)
    t._Z20qForeachContainerNewI5QListI7QStringEE17QForeachContainerIT_ERKS4_ 0x000164d0   Section      126  organizeritemtransform.o(t._Z20qForeachContainerNewI5QListI7QStringEE17QForeachContainerIT_ERKS4_)
    t._Z20qForeachContainerNewI5QListI7QStringEE17QForeachContainerIT_ERKS4_.clean 0x0001654e   Section       10  organizeritemtransform.o(t._Z20qForeachContainerNewI5QListI7QStringEE17QForeachContainerIT_ERKS4_.clean)
    t._Z20qForeachContainerNewI5QListIN10QtMobility14QOrganizerItemEEE17QForeachContainerIT_ERKS5_ 0x00016558   Section      102  qorganizersymbian.o(t._Z20qForeachContainerNewI5QListIN10QtMobility14QOrganizerItemEEE17QForeachContainerIT_ERKS5_)
    t._Z20qForeachContainerNewI5QListIN10QtMobility14QOrganizerItemEEE17QForeachContainerIT_ERKS5_.clean 0x000165be   Section       10  qorganizersymbian.o(t._Z20qForeachContainerNewI5QListIN10QtMobility14QOrganizerItemEEE17QForeachContainerIT_ERKS5_.clean)
    t._Z20qForeachContainerNewI5QListIN10QtMobility16QOrganizerItemIdEEE17QForeachContainerIT_ERKS5_ 0x000165c8   Section      102  qorganizersymbian.o(t._Z20qForeachContainerNewI5QListIN10QtMobility16QOrganizerItemIdEEE17QForeachContainerIT_ERKS5_)
    t._Z20qForeachContainerNewI5QListIN10QtMobility16QOrganizerItemIdEEE17QForeachContainerIT_ERKS5_.clean 0x0001662e   Section       10  qorganizersymbian.o(t._Z20qForeachContainerNewI5QListIN10QtMobility16QOrganizerItemIdEEE17QForeachContainerIT_ERKS5_.clean)
    t._Z20qForeachContainerNewI5QListIN10QtMobility22QOrganizerCollectionIdEEE17QForeachContainerIT_ERKS5_ 0x00016638   Section      126  qorganizersymbian.o(t._Z20qForeachContainerNewI5QListIN10QtMobility22QOrganizerCollectionIdEEE17QForeachContainerIT_ERKS5_)
    t._Z20qForeachContainerNewI5QListIN10QtMobility22QOrganizerCollectionIdEEE17QForeachContainerIT_ERKS5_.clean 0x000166b6   Section       10  qorganizersymbian.o(t._Z20qForeachContainerNewI5QListIN10QtMobility22QOrganizerCollectionIdEEE17QForeachContainerIT_ERKS5_.clean)
    t._Z20qForeachContainerNewI5QListIP28OrganizerItemDetailTransformEE17QForeachContainerIT_ERKS5_ 0x000166c0   Section      126  organizeritemtransform.o(t._Z20qForeachContainerNewI5QListIP28OrganizerItemDetailTransformEE17QForeachContainerIT_ERKS5_)
    t._Z20qForeachContainerNewI5QListIP28OrganizerItemDetailTransformEE17QForeachContainerIT_ERKS5_.clean 0x0001673e   Section       10  organizeritemtransform.o(t._Z20qForeachContainerNewI5QListIP28OrganizerItemDetailTransformEE17QForeachContainerIT_ERKS5_.clean)
    t._Z21qMetaTypeDeleteHelperIN10QtMobility16QOrganizerItemIdEEvPT_ 0x00016748   Section       22  qorganizersymbian.o(t._Z21qMetaTypeDeleteHelperIN10QtMobility16QOrganizerItemIdEEvPT_)
    t._Z24qMetaTypeConstructHelperIN10QtMobility16QOrganizerItemIdEEPvPKT_ 0x0001675e   Section       80  qorganizersymbian.o(t._Z24qMetaTypeConstructHelperIN10QtMobility16QOrganizerItemIdEEPvPKT_)
    t._Z24qMetaTypeConstructHelperIN10QtMobility16QOrganizerItemIdEEPvPKT_.clean 0x000167ae   Section       28  qorganizersymbian.o(t._Z24qMetaTypeConstructHelperIN10QtMobility16QOrganizerItemIdEEPvPKT_.clean)
    t._Z27CleanupResetAndDestroyPushLI13RPointerArrayI12CCalInstanceEEvRT_ 0x000167cc   Section       28  qorganizersymbian.o(t._Z27CleanupResetAndDestroyPushLI13RPointerArrayI12CCalInstanceEEvRT_)
    t._ZN10QtMobilityeqILi10EEEbRK7QStringRKNS_15QLatin1ConstantIXT_EEE 0x000167e8   Section       24  organizersymbianutils.o(t._ZN10QtMobilityeqILi10EEEbRK7QStringRKNS_15QLatin1ConstantIXT_EEE)
    t._ZN10QtMobilityeqILi11EEEbRK7QStringRKNS_15QLatin1ConstantIXT_EEE 0x00016800   Section       24  organizersymbianutils.o(t._ZN10QtMobilityeqILi11EEEbRK7QStringRKNS_15QLatin1ConstantIXT_EEE)
    t._ZN10QtMobilityeqILi13EEEbRK7QStringRKNS_15QLatin1ConstantIXT_EEE 0x00016818   Section       24  organizersymbianutils.o(t._ZN10QtMobilityeqILi13EEEbRK7QStringRKNS_15QLatin1ConstantIXT_EEE)
    t._ZN10QtMobilityeqILi15EEEbRK7QStringRKNS_15QLatin1ConstantIXT_EEE 0x00016830   Section       24  qorganizersymbian.o(t._ZN10QtMobilityeqILi15EEEbRK7QStringRKNS_15QLatin1ConstantIXT_EEE)
    t._ZN10QtMobilityeqILi16EEEbRK7QStringRKNS_15QLatin1ConstantIXT_EEE 0x00016848   Section       24  qorganizersymbian.o(t._ZN10QtMobilityeqILi16EEEbRK7QStringRKNS_15QLatin1ConstantIXT_EEE)
    t._ZN10QtMobilityeqILi17EEEbRK7QStringRKNS_15QLatin1ConstantIXT_EEE 0x00016860   Section       24  organizersymbianutils.o(t._ZN10QtMobilityeqILi17EEEbRK7QStringRKNS_15QLatin1ConstantIXT_EEE)
    t._ZN10QtMobilityeqILi23EEEbRK7QStringRKNS_15QLatin1ConstantIXT_EEE 0x00016878   Section       24  organizersymbianutils.o(t._ZN10QtMobilityeqILi23EEEbRK7QStringRKNS_15QLatin1ConstantIXT_EEE)
    t._ZN10QtMobilityeqILi5EEEbRK7QStringRKNS_15QLatin1ConstantIXT_EEE 0x00016890   Section       24  qorganizersymbian.o(t._ZN10QtMobilityeqILi5EEEbRK7QStringRKNS_15QLatin1ConstantIXT_EEE)
    t._ZN10QtMobilityeqILi5EEEbRKNS_15QLatin1ConstantIXT_EEERK7QString 0x000168a8   Section       24  organizeritemrecurrencetransform.o(t._ZN10QtMobilityeqILi5EEEbRKNS_15QLatin1ConstantIXT_EEERK7QString)
    t._ZN10QtMobilityeqILi6EEEbRK7QStringRKNS_15QLatin1ConstantIXT_EEE 0x000168c0   Section       24  qorganizersymbian.o(t._ZN10QtMobilityeqILi6EEEbRK7QStringRKNS_15QLatin1ConstantIXT_EEE)
    t._ZN10QtMobilityeqILi8EEEbRK7QStringRKNS_15QLatin1ConstantIXT_EEE 0x000168d8   Section       24  organizerjournaltimerangetransform.o(t._ZN10QtMobilityeqILi8EEEbRK7QStringRKNS_15QLatin1ConstantIXT_EEE)
    t._ZN10QtMobilityneILi5EEEbRKNS_15QLatin1ConstantIXT_EEERK7QString 0x000168f0   Section       28  organizeritemdisplaylabeltransform.o(t._ZN10QtMobilityneILi5EEEbRKNS_15QLatin1ConstantIXT_EEERK7QString)
    t._ZN12CleanupCloseI13RPointerArrayI9CCalEntryEE5CloseEPv 0x0001690c   Section       14  qorganizersymbian.o(t._ZN12CleanupCloseI13RPointerArrayI9CCalEntryEE5CloseEPv)
    t._ZN12CleanupCloseI6RArrayI4TDayEE5CloseEPv 0x0001691a   Section       14  organizeritemrecurrencetransform.o(t._ZN12CleanupCloseI6RArrayI4TDayEE5CloseEPv)
    t._ZN12CleanupCloseI6RArrayI6TMonthEE5CloseEPv 0x00016928   Section       14  organizeritemrecurrencetransform.o(t._ZN12CleanupCloseI6RArrayI6TMonthEE5CloseEPv)
    t._ZN12CleanupCloseI6RArrayI8TCalTimeEE5CloseEPv 0x00016936   Section       14  organizeritemrecurrencetransform.o(t._ZN12CleanupCloseI6RArrayI8TCalTimeEE5CloseEPv)
    t._ZN12CleanupCloseI6RArrayIN9TCalRRule11TDayOfMonthEEE5CloseEPv 0x00016944   Section       14  organizeritemrecurrencetransform.o(t._ZN12CleanupCloseI6RArrayIN9TCalRRule11TDayOfMonthEEE5CloseEPv)
    t._ZN12CleanupCloseI6RArrayIiEE5CloseEPv 0x00016952   Section       14  organizeritemrecurrencetransform.o(t._ZN12CleanupCloseI6RArrayIiEE5CloseEPv)
    t._ZN12CleanupCloseI6RArrayImEE5CloseEPv 0x00016960   Section       14  qorganizersymbian.o(t._ZN12CleanupCloseI6RArrayImEE5CloseEPv)
    t._ZN12QMetaTypeId2IN10QtMobility16QOrganizerItemIdEE14qt_metatype_idEv 0x00016970   Section      100  qorganizersymbian.o(t._ZN12QMetaTypeId2IN10QtMobility16QOrganizerItemIdEE14qt_metatype_idEv)
    t._ZN12QWeakPointerIN10QtMobility25QOrganizerAbstractRequestEED1Ev 0x000169d4   Section       42  organizeritemrequestserviceprovider.o(t._ZN12QWeakPointerIN10QtMobility25QOrganizerAbstractRequestEED1Ev)
    t._ZN12TAlignedBuf8ILi4EEC1Ei            0x000169fe   Section       20  organizersymbianutils.o(t._ZN12TAlignedBuf8ILi4EEC1Ei)
    t._ZN13RPointerArrayI12CCalInstanceE15ResetAndDestroyEv 0x00016a12   Section       64  qorganizersymbian.o(t._ZN13RPointerArrayI12CCalInstanceE15ResetAndDestroyEv)
    t._ZN13RPointerArrayI9CCalEntryE15ResetAndDestroyEv 0x00016a52   Section       64  qorganizersymbian.o(t._ZN13RPointerArrayI9CCalEntryE15ResetAndDestroyEv)
    t._ZN14QHashDummyNodeIN10QtMobility16QOrganizerItemIdE15QHashDummyValueEC1ERKS1_ 0x00016a92   Section       24  qorganizersymbian.o(t._ZN14QHashDummyNodeIN10QtMobility16QOrganizerItemIdE15QHashDummyValueEC1ERKS1_)
    t._ZN14QHashDummyNodeIN10QtMobility22QOrganizerCollectionIdE15QHashDummyValueEC1ERKS1_ 0x00016aaa   Section       24  qorganizersymbian.o(t._ZN14QHashDummyNodeIN10QtMobility22QOrganizerCollectionIdE15QHashDummyValueEC1ERKS1_)
    t._ZN14QHashDummyNodeIN10QtMobility24QOrganizerRecurrenceRuleE15QHashDummyValueEC1ERKS1_ 0x00016ac2   Section       24  organizeritemrecurrencetransform.o(t._ZN14QHashDummyNodeIN10QtMobility24QOrganizerRecurrenceRuleE15QHashDummyValueEC1ERKS1_)
    t._ZN21OrganizerSymbianUtils19getCalInfoPropertyLI5TTimeEET_RK16CCalCalendarInfo17TCalenPropertyUid 0x00016ada   Section      102  qorganizersymbian.o(t._ZN21OrganizerSymbianUtils19getCalInfoPropertyLI5TTimeEET_RK16CCalCalendarInfo17TCalenPropertyUid)
    t._ZN21OrganizerSymbianUtils19getCalInfoPropertyLI5TTimeEET_RK16CCalCalendarInfo17TCalenPropertyUid.clean 0x00016b40   Section        4  qorganizersymbian.o(t._ZN21OrganizerSymbianUtils19getCalInfoPropertyLI5TTimeEET_RK16CCalCalendarInfo17TCalenPropertyUid.clean)
    t._ZN21OrganizerSymbianUtils19getCalInfoPropertyLIiEET_RK16CCalCalendarInfo17TCalenPropertyUid 0x00016b44   Section       84  qorganizersymbian.o(t._ZN21OrganizerSymbianUtils19getCalInfoPropertyLIiEET_RK16CCalCalendarInfo17TCalenPropertyUid)
    t._ZN21OrganizerSymbianUtils19setCalInfoPropertyLI5TTimeEEvP16CCalCalendarInfo17TCalenPropertyUidRKT_ 0x00016b98   Section       58  qorganizersymbian.o(t._ZN21OrganizerSymbianUtils19setCalInfoPropertyLI5TTimeEEvP16CCalCalendarInfo17TCalenPropertyUidRKT_)
    t._ZN21OrganizerSymbianUtils19setCalInfoPropertyLI5TTrueEEvP16CCalCalendarInfo17TCalenPropertyUidRKT_ 0x00016bd2   Section       58  qorganizersymbian.o(t._ZN21OrganizerSymbianUtils19setCalInfoPropertyLI5TTrueEEvP16CCalCalendarInfo17TCalenPropertyUidRKT_)
    t._ZN21OrganizerSymbianUtils19setCalInfoPropertyLI6TFalseEEvP16CCalCalendarInfo17TCalenPropertyUidRKT_ 0x00016c0c   Section       58  qorganizersymbian.o(t._ZN21OrganizerSymbianUtils19setCalInfoPropertyLI6TFalseEEvP16CCalCalendarInfo17TCalenPropertyUidRKT_)
    t._ZN21OrganizerSymbianUtils19setCalInfoPropertyLIiEEvP16CCalCalendarInfo17TCalenPropertyUidRKT_ 0x00016c46   Section       64  organizersymbianutils.o(t._ZN21OrganizerSymbianUtils19setCalInfoPropertyLIiEEvP16CCalCalendarInfo17TCalenPropertyUidRKT_)
    t._ZN21OrganizerSymbianUtils19setCalInfoPropertyLIjEEvP16CCalCalendarInfo17TCalenPropertyUidRKT_ 0x00016c86   Section       64  organizersymbianutils.o(t._ZN21OrganizerSymbianUtils19setCalInfoPropertyLIjEEvP16CCalCalendarInfo17TCalenPropertyUidRKT_)
    t._ZN22CleanupResetAndDestroyI13RPointerArrayI12CCalInstanceEE15ResetAndDestroyEPv 0x00016cc6   Section       12  qorganizersymbian.o(t._ZN22CleanupResetAndDestroyI13RPointerArrayI12CCalInstanceEE15ResetAndDestroyEPv)
    t._ZN22CleanupResetAndDestroyI13RPointerArrayI9CCalEntryEE15ResetAndDestroyEPv 0x00016cd2   Section       12  qorganizersymbian.o(t._ZN22CleanupResetAndDestroyI13RPointerArrayI9CCalEntryEE15ResetAndDestroyEPv)
    t._ZN28QExplicitlySharedDataPointerI33OrganizerSymbianCollectionPrivateEC1EPS0_ 0x00016cde   Section       26  organizersymbiancollection.o(t._ZN28QExplicitlySharedDataPointerI33OrganizerSymbianCollectionPrivateEC1EPS0_)
    t._ZN28QExplicitlySharedDataPointerI33OrganizerSymbianCollectionPrivateED1Ev 0x00016cf8   Section       44  qorganizersymbian.o(t._ZN28QExplicitlySharedDataPointerI33OrganizerSymbianCollectionPrivateED1Ev)
    t._ZN28QExplicitlySharedDataPointerI33OrganizerSymbianCollectionPrivateEaSEPS0_ 0x00016d24   Section       62  organizersymbiancollection.o(t._ZN28QExplicitlySharedDataPointerI33OrganizerSymbianCollectionPrivateEaSEPS0_)
    t._ZN4QMapI7QString8QVariantE11node_createEP8QMapDataPPNS3_4NodeERKS0_RKS1_ 0x00016d62   Section      142  organizersymbianutils.o(t._ZN4QMapI7QString8QVariantE11node_createEP8QMapDataPPNS3_4NodeERKS0_RKS1_)
    t._ZN4QMapI7QString8QVariantE11node_createEP8QMapDataPPNS3_4NodeERKS0_RKS1_.clean 0x00016df0   Section       38  organizersymbianutils.o(t._ZN4QMapI7QString8QVariantE11node_createEP8QMapDataPPNS3_4NodeERKS0_RKS1_.clean)
    t._ZN4QMapI7QString8QVariantE13detach_helperEv 0x00016e16   Section      148  organizersymbianutils.o(t._ZN4QMapI7QString8QVariantE13detach_helperEv)
    t._ZN4QMapI7QString8QVariantE13detach_helperEv.clean 0x00016eaa   Section        8  organizersymbianutils.o(t._ZN4QMapI7QString8QVariantE13detach_helperEv.clean)
    t._ZN4QMapI7QString8QVariantE6detachEv   0x00016eb2   Section       28  organizersymbianutils.o(t._ZN4QMapI7QString8QVariantE6detachEv)
    t._ZN4QMapI7QString8QVariantE6insertERKS0_RKS1_ 0x00016ece   Section       82  organizersymbianutils.o(t._ZN4QMapI7QString8QVariantE6insertERKS0_RKS1_)
    t._ZN4QMapI7QString8QVariantE6removeERKS0_ 0x00016f20   Section      266  organizersymbianutils.o(t._ZN4QMapI7QString8QVariantE6removeERKS0_)
    t._ZN4QMapI7QString8QVariantE8freeDataEP8QMapData 0x0001702a   Section       64  qorganizersymbian.o(t._ZN4QMapI7QString8QVariantE8freeDataEP8QMapData)
    t._ZN4QMapI7QString8QVariantED1Ev        0x0001706a   Section       38  qorganizersymbian.o(t._ZN4QMapI7QString8QVariantED1Ev)
    t._ZN4QMapI7QStringN10QtMobility30QOrganizerItemDetailDefinitionEE11node_createEP8QMapDataPPNS4_4NodeERKS0_RKS2_ 0x00017090   Section      140  organizeritemrequestserviceprovider.o(t._ZN4QMapI7QStringN10QtMobility30QOrganizerItemDetailDefinitionEE11node_createEP8QMapDataPPNS4_4NodeERKS0_RKS2_)
    t._ZN4QMapI7QStringN10QtMobility30QOrganizerItemDetailDefinitionEE11node_createEP8QMapDataPPNS4_4NodeERKS0_RKS2_.clean 0x0001711c   Section       38  organizeritemrequestserviceprovider.o(t._ZN4QMapI7QStringN10QtMobility30QOrganizerItemDetailDefinitionEE11node_createEP8QMapDataPPNS4_4NodeERKS0_RKS2_.clean)
    t._ZN4QMapI7QStringN10QtMobility30QOrganizerItemDetailDefinitionEE13detach_helperEv 0x00017142   Section      146  organizeritemrequestserviceprovider.o(t._ZN4QMapI7QStringN10QtMobility30QOrganizerItemDetailDefinitionEE13detach_helperEv)
    t._ZN4QMapI7QStringN10QtMobility30QOrganizerItemDetailDefinitionEE13detach_helperEv.clean 0x000171d4   Section        8  organizeritemrequestserviceprovider.o(t._ZN4QMapI7QStringN10QtMobility30QOrganizerItemDetailDefinitionEE13detach_helperEv.clean)
    t._ZN4QMapI7QStringN10QtMobility30QOrganizerItemDetailDefinitionEE6detachEv 0x000171dc   Section       28  organizeritemtransform.o(t._ZN4QMapI7QStringN10QtMobility30QOrganizerItemDetailDefinitionEE6detachEv)
    t._ZN4QMapI7QStringN10QtMobility30QOrganizerItemDetailDefinitionEE6removeERKS0_ 0x000171f8   Section      264  organizeritemtransform.o(t._ZN4QMapI7QStringN10QtMobility30QOrganizerItemDetailDefinitionEE6removeERKS0_)
    t._ZN4QMapI7QStringN10QtMobility30QOrganizerItemDetailDefinitionEE8freeDataEP8QMapData 0x00017300   Section       62  organizeritemrequestserviceprovider.o(t._ZN4QMapI7QStringN10QtMobility30QOrganizerItemDetailDefinitionEE8freeDataEP8QMapData)
    t._ZN4QMapI7QStringN10QtMobility30QOrganizerItemDetailDefinitionEEC1ERKS3_ 0x0001733e   Section       40  organizeritemtransform.o(t._ZN4QMapI7QStringN10QtMobility30QOrganizerItemDetailDefinitionEEC1ERKS3_)
    t._ZN4QMapI7QStringN10QtMobility30QOrganizerItemDetailDefinitionEEC1Ev 0x00017368   Section       28  qorganizersymbian.o(t._ZN4QMapI7QStringN10QtMobility30QOrganizerItemDetailDefinitionEEC1Ev)
    t._ZN4QMapI7QStringN10QtMobility30QOrganizerItemDetailDefinitionEED1Ev 0x00017384   Section       38  organizeritemrequestserviceprovider.o(t._ZN4QMapI7QStringN10QtMobility30QOrganizerItemDetailDefinitionEED1Ev)
    t._ZN4QMapI7QStringN10QtMobility35QOrganizerItemDetailFieldDefinitionEE11node_createEP8QMapDataPPNS4_4NodeERKS0_RKS2_ 0x000173aa   Section      140  organizeritemlocationtransform.o(t._ZN4QMapI7QStringN10QtMobility35QOrganizerItemDetailFieldDefinitionEE11node_createEP8QMapDataPPNS4_4NodeERKS0_RKS2_)
    t._ZN4QMapI7QStringN10QtMobility35QOrganizerItemDetailFieldDefinitionEE11node_createEP8QMapDataPPNS4_4NodeERKS0_RKS2_.clean 0x00017436   Section       38  organizeritemlocationtransform.o(t._ZN4QMapI7QStringN10QtMobility35QOrganizerItemDetailFieldDefinitionEE11node_createEP8QMapDataPPNS4_4NodeERKS0_RKS2_.clean)
    t._ZN4QMapI7QStringN10QtMobility35QOrganizerItemDetailFieldDefinitionEE13detach_helperEv 0x0001745c   Section      146  organizeritemlocationtransform.o(t._ZN4QMapI7QStringN10QtMobility35QOrganizerItemDetailFieldDefinitionEE13detach_helperEv)
    t._ZN4QMapI7QStringN10QtMobility35QOrganizerItemDetailFieldDefinitionEE13detach_helperEv.clean 0x000174ee   Section        8  organizeritemlocationtransform.o(t._ZN4QMapI7QStringN10QtMobility35QOrganizerItemDetailFieldDefinitionEE13detach_helperEv.clean)
    t._ZN4QMapI7QStringN10QtMobility35QOrganizerItemDetailFieldDefinitionEE6insertERKS0_RKS2_ 0x000174f6   Section      100  organizeritemlocationtransform.o(t._ZN4QMapI7QStringN10QtMobility35QOrganizerItemDetailFieldDefinitionEE6insertERKS0_RKS2_)
    t._ZN4QMapI7QStringN10QtMobility35QOrganizerItemDetailFieldDefinitionEE8freeDataEP8QMapData 0x0001755a   Section       62  organizeritemtransform.o(t._ZN4QMapI7QStringN10QtMobility35QOrganizerItemDetailFieldDefinitionEE8freeDataEP8QMapData)
    t._ZN4QMapI7QStringN10QtMobility35QOrganizerItemDetailFieldDefinitionEED1Ev 0x00017598   Section       38  organizeritemtransform.o(t._ZN4QMapI7QStringN10QtMobility35QOrganizerItemDetailFieldDefinitionEED1Ev)
    t._ZN4QMapI7QStringS_IS0_N10QtMobility30QOrganizerItemDetailDefinitionEEE11node_createEP8QMapDataPPNS5_4NodeERKS0_RKS3_ 0x000175be   Section      140  qorganizersymbian.o(t._ZN4QMapI7QStringS_IS0_N10QtMobility30QOrganizerItemDetailDefinitionEEE11node_createEP8QMapDataPPNS5_4NodeERKS0_RKS3_)
    t._ZN4QMapI7QStringS_IS0_N10QtMobility30QOrganizerItemDetailDefinitionEEE11node_createEP8QMapDataPPNS5_4NodeERKS0_RKS3_.clean 0x0001764a   Section       38  qorganizersymbian.o(t._ZN4QMapI7QStringS_IS0_N10QtMobility30QOrganizerItemDetailDefinitionEEE11node_createEP8QMapDataPPNS5_4NodeERKS0_RKS3_.clean)
    t._ZN4QMapI7QStringS_IS0_N10QtMobility30QOrganizerItemDetailDefinitionEEE13detach_helperEv 0x00017670   Section      146  qorganizersymbian.o(t._ZN4QMapI7QStringS_IS0_N10QtMobility30QOrganizerItemDetailDefinitionEEE13detach_helperEv)
    t._ZN4QMapI7QStringS_IS0_N10QtMobility30QOrganizerItemDetailDefinitionEEE13detach_helperEv.clean 0x00017702   Section        8  qorganizersymbian.o(t._ZN4QMapI7QStringS_IS0_N10QtMobility30QOrganizerItemDetailDefinitionEEE13detach_helperEv.clean)
    t._ZN4QMapI7QStringS_IS0_N10QtMobility30QOrganizerItemDetailDefinitionEEE6removeERKS0_ 0x0001770a   Section      286  organizeritemtypetransform.o(t._ZN4QMapI7QStringS_IS0_N10QtMobility30QOrganizerItemDetailDefinitionEEE6removeERKS0_)
    t._ZN4QMapI7QStringS_IS0_N10QtMobility30QOrganizerItemDetailDefinitionEEE8freeDataEP8QMapData 0x00017828   Section       62  organizeritemtransform.o(t._ZN4QMapI7QStringS_IS0_N10QtMobility30QOrganizerItemDetailDefinitionEEE8freeDataEP8QMapData)
    t._ZN4QMapI7QStringS_IS0_N10QtMobility30QOrganizerItemDetailDefinitionEEED1Ev 0x00017866   Section       38  qorganizersymbian.o(t._ZN4QMapI7QStringS_IS0_N10QtMobility30QOrganizerItemDetailDefinitionEEED1Ev)
    t._ZN4QMapI7QStringS_IS0_N10QtMobility30QOrganizerItemDetailDefinitionEEEaSERKS4_ 0x0001788c   Section       70  qorganizersymbian.o(t._ZN4QMapI7QStringS_IS0_N10QtMobility30QOrganizerItemDetailDefinitionEEEaSERKS4_)
    t._ZN4QMapI7QStringS_IS0_N10QtMobility30QOrganizerItemDetailDefinitionEEEixERKS0_ 0x000178d2   Section      100  organizeritemremindertransform.o(t._ZN4QMapI7QStringS_IS0_N10QtMobility30QOrganizerItemDetailDefinitionEEEixERKS0_)
    t._ZN4QMapI7QStringS_IS0_N10QtMobility30QOrganizerItemDetailDefinitionEEEixERKS0_.clean 0x00017936   Section       10  organizeritemremindertransform.o(t._ZN4QMapI7QStringS_IS0_N10QtMobility30QOrganizerItemDetailDefinitionEEEixERKS0_.clean)
    t._ZN4QMapIN10QtMobility22QOrganizerCollectionIdE26OrganizerSymbianCollectionE11node_createEP8QMapDataPPNS4_4NodeERKS1_RKS2_ 0x00017940   Section      140  qorganizersymbian.o(t._ZN4QMapIN10QtMobility22QOrganizerCollectionIdE26OrganizerSymbianCollectionE11node_createEP8QMapDataPPNS4_4NodeERKS1_RKS2_)
    t._ZN4QMapIN10QtMobility22QOrganizerCollectionIdE26OrganizerSymbianCollectionE11node_createEP8QMapDataPPNS4_4NodeERKS1_RKS2_.clean 0x000179cc   Section       38  qorganizersymbian.o(t._ZN4QMapIN10QtMobility22QOrganizerCollectionIdE26OrganizerSymbianCollectionE11node_createEP8QMapDataPPNS4_4NodeERKS1_RKS2_.clean)
    t._ZN4QMapIN10QtMobility22QOrganizerCollectionIdE26OrganizerSymbianCollectionE13detach_helperEv 0x000179f2   Section      146  qorganizersymbian.o(t._ZN4QMapIN10QtMobility22QOrganizerCollectionIdE26OrganizerSymbianCollectionE13detach_helperEv)
    t._ZN4QMapIN10QtMobility22QOrganizerCollectionIdE26OrganizerSymbianCollectionE13detach_helperEv.clean 0x00017a84   Section        8  qorganizersymbian.o(t._ZN4QMapIN10QtMobility22QOrganizerCollectionIdE26OrganizerSymbianCollectionE13detach_helperEv.clean)
    t._ZN4QMapIN10QtMobility22QOrganizerCollectionIdE26OrganizerSymbianCollectionE6detachEv 0x00017a8c   Section       28  qorganizersymbian.o(t._ZN4QMapIN10QtMobility22QOrganizerCollectionIdE26OrganizerSymbianCollectionE6detachEv)
    t._ZN4QMapIN10QtMobility22QOrganizerCollectionIdE26OrganizerSymbianCollectionE6insertERKS1_RKS2_ 0x00017aa8   Section       80  qorganizersymbian.o(t._ZN4QMapIN10QtMobility22QOrganizerCollectionIdE26OrganizerSymbianCollectionE6insertERKS1_RKS2_)
    t._ZN4QMapIN10QtMobility22QOrganizerCollectionIdE26OrganizerSymbianCollectionE6removeERKS1_ 0x00017af8   Section      264  qorganizersymbian.o(t._ZN4QMapIN10QtMobility22QOrganizerCollectionIdE26OrganizerSymbianCollectionE6removeERKS1_)
    t._ZN4QMapIN10QtMobility22QOrganizerCollectionIdE26OrganizerSymbianCollectionE8freeDataEP8QMapData 0x00017c00   Section       62  qorganizersymbian.o(t._ZN4QMapIN10QtMobility22QOrganizerCollectionIdE26OrganizerSymbianCollectionE8freeDataEP8QMapData)
    t._ZN4QMapIN10QtMobility22QOrganizerCollectionIdE26OrganizerSymbianCollectionED1Ev 0x00017c3e   Section       38  qorganizersymbian.o(t._ZN4QMapIN10QtMobility22QOrganizerCollectionIdE26OrganizerSymbianCollectionED1Ev)
    t._ZN4QMapIN10QtMobility22QOrganizerCollectionIdE26OrganizerSymbianCollectionEixERKS1_ 0x00017c64   Section       82  qorganizersymbian.o(t._ZN4QMapIN10QtMobility22QOrganizerCollectionIdE26OrganizerSymbianCollectionEixERKS1_)
    t._ZN4QMapIN10QtMobility22QOrganizerCollectionIdE26OrganizerSymbianCollectionEixERKS1_.clean 0x00017cb6   Section       10  qorganizersymbian.o(t._ZN4QMapIN10QtMobility22QOrganizerCollectionIdE26OrganizerSymbianCollectionEixERKS1_.clean)
    t._ZN4QMapIPN10QtMobility25QOrganizerAbstractRequestEP37COrganizerItemRequestsServiceProviderE11node_createEP8QMapDataPPNS6_4NodeERKS2_RKS4_ 0x00017cc0   Section       82  qorganizeritemrequestqueue.o(t._ZN4QMapIPN10QtMobility25QOrganizerAbstractRequestEP37COrganizerItemRequestsServiceProviderE11node_createEP8QMapDataPPNS6_4NodeERKS2_RKS4_)
    t._ZN4QMapIPN10QtMobility25QOrganizerAbstractRequestEP37COrganizerItemRequestsServiceProviderE11node_createEP8QMapDataPPNS6_4NodeERKS2_RKS4_.clean 0x00017d12   Section        4  qorganizeritemrequestqueue.o(t._ZN4QMapIPN10QtMobility25QOrganizerAbstractRequestEP37COrganizerItemRequestsServiceProviderE11node_createEP8QMapDataPPNS6_4NodeERKS2_RKS4_.clean)
    t._ZN4QMapIPN10QtMobility25QOrganizerAbstractRequestEP37COrganizerItemRequestsServiceProviderE13detach_helperEv 0x00017d16   Section      146  qorganizeritemrequestqueue.o(t._ZN4QMapIPN10QtMobility25QOrganizerAbstractRequestEP37COrganizerItemRequestsServiceProviderE13detach_helperEv)
    t._ZN4QMapIPN10QtMobility25QOrganizerAbstractRequestEP37COrganizerItemRequestsServiceProviderE13detach_helperEv.clean 0x00017da8   Section        8  qorganizeritemrequestqueue.o(t._ZN4QMapIPN10QtMobility25QOrganizerAbstractRequestEP37COrganizerItemRequestsServiceProviderE13detach_helperEv.clean)
    t._ZN4QMapIPN10QtMobility25QOrganizerAbstractRequestEP37COrganizerItemRequestsServiceProviderE6detachEv 0x00017db0   Section       28  qorganizeritemrequestqueue.o(t._ZN4QMapIPN10QtMobility25QOrganizerAbstractRequestEP37COrganizerItemRequestsServiceProviderE6detachEv)
    t._ZN4QMapIPN10QtMobility25QOrganizerAbstractRequestEP37COrganizerItemRequestsServiceProviderE6removeERKS2_ 0x00017dcc   Section      246  qorganizeritemrequestqueue.o(t._ZN4QMapIPN10QtMobility25QOrganizerAbstractRequestEP37COrganizerItemRequestsServiceProviderE6removeERKS2_)
    t._ZN4QMapIPN10QtMobility25QOrganizerAbstractRequestEP37COrganizerItemRequestsServiceProviderE8freeDataEP8QMapData 0x00017ec2   Section       24  qorganizeritemrequestqueue.o(t._ZN4QMapIPN10QtMobility25QOrganizerAbstractRequestEP37COrganizerItemRequestsServiceProviderE8freeDataEP8QMapData)
    t._ZN4QMapIPN10QtMobility25QOrganizerAbstractRequestEP37COrganizerItemRequestsServiceProviderEC1Ev 0x00017edc   Section       28  qorganizeritemrequestqueue.o(t._ZN4QMapIPN10QtMobility25QOrganizerAbstractRequestEP37COrganizerItemRequestsServiceProviderEC1Ev)
    t._ZN4QMapIPN10QtMobility25QOrganizerAbstractRequestEP37COrganizerItemRequestsServiceProviderED1Ev 0x00017ef8   Section       38  qorganizeritemrequestqueue.o(t._ZN4QMapIPN10QtMobility25QOrganizerAbstractRequestEP37COrganizerItemRequestsServiceProviderED1Ev)
    t._ZN4QMapIPN10QtMobility25QOrganizerAbstractRequestEP37COrganizerItemRequestsServiceProviderEixERKS2_ 0x00017f1e   Section       70  qorganizeritemrequestqueue.o(t._ZN4QMapIPN10QtMobility25QOrganizerAbstractRequestEP37COrganizerItemRequestsServiceProviderEixERKS2_)
    t._ZN4QMapIiN10QtMobility17QOrganizerManager5ErrorEE11node_createEP8QMapDataPPNS4_4NodeERKiRKS2_ 0x00017f64   Section       82  organizeritemrequestserviceprovider.o(t._ZN4QMapIiN10QtMobility17QOrganizerManager5ErrorEE11node_createEP8QMapDataPPNS4_4NodeERKiRKS2_)
    t._ZN4QMapIiN10QtMobility17QOrganizerManager5ErrorEE11node_createEP8QMapDataPPNS4_4NodeERKiRKS2_.clean 0x00017fb6   Section        4  organizeritemrequestserviceprovider.o(t._ZN4QMapIiN10QtMobility17QOrganizerManager5ErrorEE11node_createEP8QMapDataPPNS4_4NodeERKiRKS2_.clean)
    t._ZN4QMapIiN10QtMobility17QOrganizerManager5ErrorEE13detach_helperEv 0x00017fba   Section      146  organizeritemrequestserviceprovider.o(t._ZN4QMapIiN10QtMobility17QOrganizerManager5ErrorEE13detach_helperEv)
    t._ZN4QMapIiN10QtMobility17QOrganizerManager5ErrorEE13detach_helperEv.clean 0x0001804c   Section        8  organizeritemrequestserviceprovider.o(t._ZN4QMapIiN10QtMobility17QOrganizerManager5ErrorEE13detach_helperEv.clean)
    t._ZN4QMapIiN10QtMobility17QOrganizerManager5ErrorEE6insertERKiRKS2_ 0x00018054   Section       92  organizeritemrequestserviceprovider.o(t._ZN4QMapIiN10QtMobility17QOrganizerManager5ErrorEE6insertERKiRKS2_)
    t._ZN4QMapIiN10QtMobility17QOrganizerManager5ErrorEE8freeDataEP8QMapData 0x000180b0   Section       48  organizeritemrequestserviceprovider.o(t._ZN4QMapIiN10QtMobility17QOrganizerManager5ErrorEE8freeDataEP8QMapData)
    t._ZN4QMapIiN10QtMobility17QOrganizerManager5ErrorEEC1Ev 0x000180e0   Section       28  organizeritemrequestserviceprovider.o(t._ZN4QMapIiN10QtMobility17QOrganizerManager5ErrorEEC1Ev)
    t._ZN4QMapIiN10QtMobility17QOrganizerManager5ErrorEED1Ev 0x000180fc   Section       38  organizeritemrequestserviceprovider.o(t._ZN4QMapIiN10QtMobility17QOrganizerManager5ErrorEED1Ev)
    t._ZN4QSetI5QDateE6insertERKS0_          0x00018122   Section      196  organizeritemrecurrencetransform.o(t._ZN4QSetI5QDateE6insertERKS0_)
    t._ZN4QSetI5QDateE6insertERKS0_.clean    0x000181e6   Section        4  organizeritemrecurrencetransform.o(t._ZN4QSetI5QDateE6insertERKS0_.clean)
    t._ZN4QSetIN10QtMobility16QOrganizerItemIdEElsERKS1_ 0x000181ea   Section       50  qorganizersymbian.o(t._ZN4QSetIN10QtMobility16QOrganizerItemIdEElsERKS1_)
    t._ZN4QSetIN10QtMobility22QOrganizerCollectionIdEEC1Ev 0x0001821c   Section       28  qorganizersymbian.o(t._ZN4QSetIN10QtMobility22QOrganizerCollectionIdEEC1Ev)
    t._ZN4QSetIN10QtMobility22QOrganizerCollectionIdEElsERKS1_ 0x00018238   Section       50  qorganizersymbian.o(t._ZN4QSetIN10QtMobility22QOrganizerCollectionIdEElsERKS1_)
    t._ZN4QSetIN10QtMobility24QOrganizerRecurrenceRule5MonthEE6insertERKS2_ 0x0001826a   Section      200  organizeritemrecurrencetransform.o(t._ZN4QSetIN10QtMobility24QOrganizerRecurrenceRule5MonthEE6insertERKS2_)
    t._ZN4QSetIN10QtMobility24QOrganizerRecurrenceRule5MonthEE6insertERKS2_.clean 0x00018332   Section        4  organizeritemrecurrencetransform.o(t._ZN4QSetIN10QtMobility24QOrganizerRecurrenceRule5MonthEE6insertERKS2_.clean)
    t._ZN4QSetIN2Qt9DayOfWeekEE14const_iteratorppEv 0x00018336   Section       20  organizeritemrecurrencetransform.o(t._ZN4QSetIN2Qt9DayOfWeekEE14const_iteratorppEv)
    t._ZN4QSetIN2Qt9DayOfWeekEE6insertERKS1_ 0x0001834a   Section      200  organizeritemrecurrencetransform.o(t._ZN4QSetIN2Qt9DayOfWeekEE6insertERKS1_)
    t._ZN4QSetIN2Qt9DayOfWeekEE6insertERKS1_.clean 0x00018412   Section        4  organizeritemrecurrencetransform.o(t._ZN4QSetIN2Qt9DayOfWeekEE6insertERKS1_.clean)
    t._ZN4QSetIiE14const_iteratorppEv        0x00018416   Section       20  organizeritemrecurrencetransform.o(t._ZN4QSetIiE14const_iteratorppEv)
    t._ZN4QSetIiE6insertERKi                 0x0001842a   Section      196  organizeritemrecurrencetransform.o(t._ZN4QSetIiE6insertERKi)
    t._ZN4QSetIiE6insertERKi.clean           0x000184ee   Section        4  organizeritemrecurrencetransform.o(t._ZN4QSetIiE6insertERKi.clean)
    t._ZN4QSetIiEC1Ev                        0x000184f4   Section       28  organizeritemrecurrencetransform.o(t._ZN4QSetIiEC1Ev)
    t._ZN4QSetIiElsERKi                      0x00018510   Section       20  organizeritemrecurrencetransform.o(t._ZN4QSetIiElsERKi)
    t._ZN5QHashI5QDate15QHashDummyValueE11deleteNode2EPN9QHashData4NodeE 0x00018524   Section        6  organizeritemrecurrencetransform.o(t._ZN5QHashI5QDate15QHashDummyValueE11deleteNode2EPN9QHashData4NodeE)
    t._ZN5QHashI5QDate15QHashDummyValueE13detach_helperEv 0x0001852c   Section       60  organizeritemrecurrencetransform.o(t._ZN5QHashI5QDate15QHashDummyValueE13detach_helperEv)
    t._ZN5QHashI5QDate15QHashDummyValueE13duplicateNodeEPN9QHashData4NodeEPv 0x00018568   Section       42  organizeritemrecurrencetransform.o(t._ZN5QHashI5QDate15QHashDummyValueE13duplicateNodeEPN9QHashData4NodeEPv)
    t._ZN5QHashI5QDate15QHashDummyValueE6detachEv 0x00018592   Section       28  organizeritemrecurrencetransform.o(t._ZN5QHashI5QDate15QHashDummyValueE6detachEv)
    t._ZN5QHashI5QDate15QHashDummyValueE8freeDataEP9QHashData 0x000185b0   Section       20  organizeritemrecurrencetransform.o(t._ZN5QHashI5QDate15QHashDummyValueE8freeDataEP9QHashData)
    t._ZN5QHashI5QDate15QHashDummyValueED1Ev 0x000185c4   Section       30  organizeritemrecurrencetransform.o(t._ZN5QHashI5QDate15QHashDummyValueED1Ev)
    t._ZN5QHashIN10QtMobility16QOrganizerItemIdE15QHashDummyValueE11deleteNode2EPN9QHashData4NodeE 0x000185e2   Section       24  qorganizersymbian.o(t._ZN5QHashIN10QtMobility16QOrganizerItemIdE15QHashDummyValueE11deleteNode2EPN9QHashData4NodeE)
    t._ZN5QHashIN10QtMobility16QOrganizerItemIdE15QHashDummyValueE13detach_helperEv 0x000185fc   Section       60  qorganizersymbian.o(t._ZN5QHashIN10QtMobility16QOrganizerItemIdE15QHashDummyValueE13detach_helperEv)
    t._ZN5QHashIN10QtMobility16QOrganizerItemIdE15QHashDummyValueE13duplicateNodeEPN9QHashData4NodeEPv 0x00018638   Section       44  qorganizersymbian.o(t._ZN5QHashIN10QtMobility16QOrganizerItemIdE15QHashDummyValueE13duplicateNodeEPN9QHashData4NodeEPv)
    t._ZN5QHashIN10QtMobility16QOrganizerItemIdE15QHashDummyValueE13duplicateNodeEPN9QHashData4NodeEPv.clean 0x00018664   Section       12  qorganizersymbian.o(t._ZN5QHashIN10QtMobility16QOrganizerItemIdE15QHashDummyValueE13duplicateNodeEPN9QHashData4NodeEPv.clean)
    t._ZN5QHashIN10QtMobility16QOrganizerItemIdE15QHashDummyValueE6insertERKS1_RKS2_ 0x00018670   Section      186  qorganizersymbian.o(t._ZN5QHashIN10QtMobility16QOrganizerItemIdE15QHashDummyValueE6insertERKS1_RKS2_)
    t._ZN5QHashIN10QtMobility16QOrganizerItemIdE15QHashDummyValueE6insertERKS1_RKS2_.clean 0x0001872a   Section       12  qorganizersymbian.o(t._ZN5QHashIN10QtMobility16QOrganizerItemIdE15QHashDummyValueE6insertERKS1_RKS2_.clean)
    t._ZN5QHashIN10QtMobility16QOrganizerItemIdE15QHashDummyValueE8freeDataEP9QHashData 0x00018738   Section       20  qorganizersymbian.o(t._ZN5QHashIN10QtMobility16QOrganizerItemIdE15QHashDummyValueE8freeDataEP9QHashData)
    t._ZN5QHashIN10QtMobility16QOrganizerItemIdE15QHashDummyValueED1Ev 0x0001874c   Section       30  qorganizersymbian.o(t._ZN5QHashIN10QtMobility16QOrganizerItemIdE15QHashDummyValueED1Ev)
    t._ZN5QHashIN10QtMobility22QOrganizerCollectionIdE15QHashDummyValueE11deleteNode2EPN9QHashData4NodeE 0x0001876a   Section       24  qorganizersymbian.o(t._ZN5QHashIN10QtMobility22QOrganizerCollectionIdE15QHashDummyValueE11deleteNode2EPN9QHashData4NodeE)
    t._ZN5QHashIN10QtMobility22QOrganizerCollectionIdE15QHashDummyValueE13detach_helperEv 0x00018784   Section       60  qorganizersymbian.o(t._ZN5QHashIN10QtMobility22QOrganizerCollectionIdE15QHashDummyValueE13detach_helperEv)
    t._ZN5QHashIN10QtMobility22QOrganizerCollectionIdE15QHashDummyValueE13duplicateNodeEPN9QHashData4NodeEPv 0x000187c0   Section       44  qorganizersymbian.o(t._ZN5QHashIN10QtMobility22QOrganizerCollectionIdE15QHashDummyValueE13duplicateNodeEPN9QHashData4NodeEPv)
    t._ZN5QHashIN10QtMobility22QOrganizerCollectionIdE15QHashDummyValueE13duplicateNodeEPN9QHashData4NodeEPv.clean 0x000187ec   Section       12  qorganizersymbian.o(t._ZN5QHashIN10QtMobility22QOrganizerCollectionIdE15QHashDummyValueE13duplicateNodeEPN9QHashData4NodeEPv.clean)
    t._ZN5QHashIN10QtMobility22QOrganizerCollectionIdE15QHashDummyValueE6insertERKS1_RKS2_ 0x000187f8   Section      186  qorganizersymbian.o(t._ZN5QHashIN10QtMobility22QOrganizerCollectionIdE15QHashDummyValueE6insertERKS1_RKS2_)
    t._ZN5QHashIN10QtMobility22QOrganizerCollectionIdE15QHashDummyValueE6insertERKS1_RKS2_.clean 0x000188b2   Section       12  qorganizersymbian.o(t._ZN5QHashIN10QtMobility22QOrganizerCollectionIdE15QHashDummyValueE6insertERKS1_RKS2_.clean)
    t._ZN5QHashIN10QtMobility22QOrganizerCollectionIdE15QHashDummyValueE8freeDataEP9QHashData 0x000188c0   Section       20  qorganizersymbian.o(t._ZN5QHashIN10QtMobility22QOrganizerCollectionIdE15QHashDummyValueE8freeDataEP9QHashData)
    t._ZN5QHashIN10QtMobility22QOrganizerCollectionIdE15QHashDummyValueED1Ev 0x000188d4   Section       30  qorganizersymbian.o(t._ZN5QHashIN10QtMobility22QOrganizerCollectionIdE15QHashDummyValueED1Ev)
    t._ZN5QHashIN10QtMobility24QOrganizerRecurrenceRule5MonthE15QHashDummyValueE11deleteNode2EPN9QHashData4NodeE 0x000188f2   Section        6  organizeritemrecurrencetransform.o(t._ZN5QHashIN10QtMobility24QOrganizerRecurrenceRule5MonthE15QHashDummyValueE11deleteNode2EPN9QHashData4NodeE)
    t._ZN5QHashIN10QtMobility24QOrganizerRecurrenceRule5MonthE15QHashDummyValueE13detach_helperEv 0x000188f8   Section       60  organizeritemrecurrencetransform.o(t._ZN5QHashIN10QtMobility24QOrganizerRecurrenceRule5MonthE15QHashDummyValueE13detach_helperEv)
    t._ZN5QHashIN10QtMobility24QOrganizerRecurrenceRule5MonthE15QHashDummyValueE13duplicateNodeEPN9QHashData4NodeEPv 0x00018934   Section       40  organizeritemrecurrencetransform.o(t._ZN5QHashIN10QtMobility24QOrganizerRecurrenceRule5MonthE15QHashDummyValueE13duplicateNodeEPN9QHashData4NodeEPv)
    t._ZN5QHashIN10QtMobility24QOrganizerRecurrenceRule5MonthE15QHashDummyValueE6detachEv 0x0001895c   Section       28  organizeritemrecurrencetransform.o(t._ZN5QHashIN10QtMobility24QOrganizerRecurrenceRule5MonthE15QHashDummyValueE6detachEv)
    t._ZN5QHashIN10QtMobility24QOrganizerRecurrenceRule5MonthE15QHashDummyValueE8freeDataEP9QHashData 0x00018978   Section       20  organizeritemrecurrencetransform.o(t._ZN5QHashIN10QtMobility24QOrganizerRecurrenceRule5MonthE15QHashDummyValueE8freeDataEP9QHashData)
    t._ZN5QHashIN10QtMobility24QOrganizerRecurrenceRule5MonthE15QHashDummyValueED1Ev 0x0001898c   Section       30  organizeritemrecurrencetransform.o(t._ZN5QHashIN10QtMobility24QOrganizerRecurrenceRule5MonthE15QHashDummyValueED1Ev)
    t._ZN5QHashIN10QtMobility24QOrganizerRecurrenceRuleE15QHashDummyValueE11deleteNode2EPN9QHashData4NodeE 0x000189aa   Section       24  organizeritemrecurrencetransform.o(t._ZN5QHashIN10QtMobility24QOrganizerRecurrenceRuleE15QHashDummyValueE11deleteNode2EPN9QHashData4NodeE)
    t._ZN5QHashIN10QtMobility24QOrganizerRecurrenceRuleE15QHashDummyValueE13detach_helperEv 0x000189c4   Section       60  organizeritemrecurrencetransform.o(t._ZN5QHashIN10QtMobility24QOrganizerRecurrenceRuleE15QHashDummyValueE13detach_helperEv)
    t._ZN5QHashIN10QtMobility24QOrganizerRecurrenceRuleE15QHashDummyValueE13duplicateNodeEPN9QHashData4NodeEPv 0x00018a00   Section       44  organizeritemrecurrencetransform.o(t._ZN5QHashIN10QtMobility24QOrganizerRecurrenceRuleE15QHashDummyValueE13duplicateNodeEPN9QHashData4NodeEPv)
    t._ZN5QHashIN10QtMobility24QOrganizerRecurrenceRuleE15QHashDummyValueE13duplicateNodeEPN9QHashData4NodeEPv.clean 0x00018a2c   Section       12  organizeritemrecurrencetransform.o(t._ZN5QHashIN10QtMobility24QOrganizerRecurrenceRuleE15QHashDummyValueE13duplicateNodeEPN9QHashData4NodeEPv.clean)
    t._ZN5QHashIN10QtMobility24QOrganizerRecurrenceRuleE15QHashDummyValueE6insertERKS1_RKS2_ 0x00018a38   Section      186  organizeritemrecurrencetransform.o(t._ZN5QHashIN10QtMobility24QOrganizerRecurrenceRuleE15QHashDummyValueE6insertERKS1_RKS2_)
    t._ZN5QHashIN10QtMobility24QOrganizerRecurrenceRuleE15QHashDummyValueE6insertERKS1_RKS2_.clean 0x00018af2   Section       12  organizeritemrecurrencetransform.o(t._ZN5QHashIN10QtMobility24QOrganizerRecurrenceRuleE15QHashDummyValueE6insertERKS1_RKS2_.clean)
    t._ZN5QHashIN10QtMobility24QOrganizerRecurrenceRuleE15QHashDummyValueE8freeDataEP9QHashData 0x00018b00   Section       20  organizeritemrecurrencetransform.o(t._ZN5QHashIN10QtMobility24QOrganizerRecurrenceRuleE15QHashDummyValueE8freeDataEP9QHashData)
    t._ZN5QHashIN10QtMobility24QOrganizerRecurrenceRuleE15QHashDummyValueED1Ev 0x00018b14   Section       30  organizeritemrecurrencetransform.o(t._ZN5QHashIN10QtMobility24QOrganizerRecurrenceRuleE15QHashDummyValueED1Ev)
    t._ZN5QHashIN2Qt9DayOfWeekE15QHashDummyValueE11deleteNode2EPN9QHashData4NodeE 0x00018b32   Section        6  organizeritemrecurrencetransform.o(t._ZN5QHashIN2Qt9DayOfWeekE15QHashDummyValueE11deleteNode2EPN9QHashData4NodeE)
    t._ZN5QHashIN2Qt9DayOfWeekE15QHashDummyValueE13detach_helperEv 0x00018b38   Section       60  organizeritemrecurrencetransform.o(t._ZN5QHashIN2Qt9DayOfWeekE15QHashDummyValueE13detach_helperEv)
    t._ZN5QHashIN2Qt9DayOfWeekE15QHashDummyValueE13duplicateNodeEPN9QHashData4NodeEPv 0x00018b74   Section       40  organizeritemrecurrencetransform.o(t._ZN5QHashIN2Qt9DayOfWeekE15QHashDummyValueE13duplicateNodeEPN9QHashData4NodeEPv)
    t._ZN5QHashIN2Qt9DayOfWeekE15QHashDummyValueE6detachEv 0x00018b9c   Section       28  organizeritemrecurrencetransform.o(t._ZN5QHashIN2Qt9DayOfWeekE15QHashDummyValueE6detachEv)
    t._ZN5QHashIN2Qt9DayOfWeekE15QHashDummyValueE8freeDataEP9QHashData 0x00018bb8   Section       20  organizeritemrecurrencetransform.o(t._ZN5QHashIN2Qt9DayOfWeekE15QHashDummyValueE8freeDataEP9QHashData)
    t._ZN5QHashIN2Qt9DayOfWeekE15QHashDummyValueED1Ev 0x00018bcc   Section       30  organizeritemrecurrencetransform.o(t._ZN5QHashIN2Qt9DayOfWeekE15QHashDummyValueED1Ev)
    t._ZN5QHashIi15QHashDummyValueE11deleteNode2EPN9QHashData4NodeE 0x00018bea   Section        6  organizeritemrecurrencetransform.o(t._ZN5QHashIi15QHashDummyValueE11deleteNode2EPN9QHashData4NodeE)
    t._ZN5QHashIi15QHashDummyValueE13detach_helperEv 0x00018bf0   Section       60  organizeritemrecurrencetransform.o(t._ZN5QHashIi15QHashDummyValueE13detach_helperEv)
    t._ZN5QHashIi15QHashDummyValueE13duplicateNodeEPN9QHashData4NodeEPv 0x00018c2c   Section       34  organizeritemrecurrencetransform.o(t._ZN5QHashIi15QHashDummyValueE13duplicateNodeEPN9QHashData4NodeEPv)
    t._ZN5QHashIi15QHashDummyValueE6detachEv 0x00018c4e   Section       28  organizeritemrecurrencetransform.o(t._ZN5QHashIi15QHashDummyValueE6detachEv)
    t._ZN5QHashIi15QHashDummyValueE8freeDataEP9QHashData 0x00018c6c   Section       20  organizeritemrecurrencetransform.o(t._ZN5QHashIi15QHashDummyValueE8freeDataEP9QHashData)
    t._ZN5QHashIi15QHashDummyValueED1Ev      0x00018c80   Section       30  organizeritemrecurrencetransform.o(t._ZN5QHashIi15QHashDummyValueED1Ev)
    t._ZN5QListI26OrganizerSymbianCollectionE13detach_helperEi 0x00018c9e   Section       94  qorganizersymbian.o(t._ZN5QListI26OrganizerSymbianCollectionE13detach_helperEi)
    t._ZN5QListI26OrganizerSymbianCollectionE13detach_helperEi.clean 0x00018cfc   Section        8  qorganizersymbian.o(t._ZN5QListI26OrganizerSymbianCollectionE13detach_helperEi.clean)
    t._ZN5QListI26OrganizerSymbianCollectionE13detach_helperEv 0x00018d04   Section       16  qorganizersymbian.o(t._ZN5QListI26OrganizerSymbianCollectionE13detach_helperEv)
    t._ZN5QListI26OrganizerSymbianCollectionE13node_destructEPNS1_4NodeES3_ 0x00018d14   Section       38  qorganizersymbian.o(t._ZN5QListI26OrganizerSymbianCollectionE13node_destructEPNS1_4NodeES3_)
    t._ZN5QListI26OrganizerSymbianCollectionE14node_constructEPNS1_4NodeERKS0_ 0x00018d3a   Section       34  qorganizersymbian.o(t._ZN5QListI26OrganizerSymbianCollectionE14node_constructEPNS1_4NodeERKS0_)
    t._ZN5QListI26OrganizerSymbianCollectionE14node_constructEPNS1_4NodeERKS0_.clean 0x00018d5c   Section       14  qorganizersymbian.o(t._ZN5QListI26OrganizerSymbianCollectionE14node_constructEPNS1_4NodeERKS0_.clean)
    t._ZN5QListI26OrganizerSymbianCollectionE18detach_helper_growEii 0x00018d6a   Section      208  qorganizersymbian.o(t._ZN5QListI26OrganizerSymbianCollectionE18detach_helper_growEii)
    t._ZN5QListI26OrganizerSymbianCollectionE18detach_helper_growEii.clean 0x00018e3a   Section       16  qorganizersymbian.o(t._ZN5QListI26OrganizerSymbianCollectionE18detach_helper_growEii.clean)
    t._ZN5QListI26OrganizerSymbianCollectionE4freeEPN9QListData4DataE 0x00018e4a   Section       52  qorganizersymbian.o(t._ZN5QListI26OrganizerSymbianCollectionE4freeEPN9QListData4DataE)
    t._ZN5QListI26OrganizerSymbianCollectionE6appendERKS0_ 0x00018e80   Section      112  qorganizersymbian.o(t._ZN5QListI26OrganizerSymbianCollectionE6appendERKS0_)
    t._ZN5QListI26OrganizerSymbianCollectionE6appendERKS0_.clean 0x00018ef0   Section       14  qorganizersymbian.o(t._ZN5QListI26OrganizerSymbianCollectionE6appendERKS0_.clean)
    t._ZN5QListI26OrganizerSymbianCollectionE7reserveEi 0x00018efe   Section       46  qorganizersymbian.o(t._ZN5QListI26OrganizerSymbianCollectionE7reserveEi)
    t._ZN5QListI26OrganizerSymbianCollectionE9node_copyEPNS1_4NodeES3_S3_ 0x00018f2c   Section       92  qorganizersymbian.o(t._ZN5QListI26OrganizerSymbianCollectionE9node_copyEPNS1_4NodeES3_S3_)
    t._ZN5QListI26OrganizerSymbianCollectionE9node_copyEPNS1_4NodeES3_S3_.clean 0x00018f88   Section       22  qorganizersymbian.o(t._ZN5QListI26OrganizerSymbianCollectionE9node_copyEPNS1_4NodeES3_S3_.clean)
    t._ZN5QListI26OrganizerSymbianCollectionEC1ERKS1_ 0x00018f9e   Section       36  qorganizersymbian.o(t._ZN5QListI26OrganizerSymbianCollectionEC1ERKS1_)
    t._ZN5QListI26OrganizerSymbianCollectionEC1Ev 0x00018fc4   Section       24  qorganizersymbian.o(t._ZN5QListI26OrganizerSymbianCollectionEC1Ev)
    t._ZN5QListI26OrganizerSymbianCollectionED1Ev 0x00018fdc   Section       32  qorganizersymbian.o(t._ZN5QListI26OrganizerSymbianCollectionED1Ev)
    t._ZN5QListI7QStringE13detach_helperEi   0x00018ffc   Section       94  qorganizersymbian.o(t._ZN5QListI7QStringE13detach_helperEi)
    t._ZN5QListI7QStringE13detach_helperEi.clean 0x0001905a   Section        8  qorganizersymbian.o(t._ZN5QListI7QStringE13detach_helperEi.clean)
    t._ZN5QListI7QStringE13detach_helperEv   0x00019062   Section       16  qorganizersymbian.o(t._ZN5QListI7QStringE13detach_helperEv)
    t._ZN5QListI7QStringE13node_destructEPNS1_4NodeES3_ 0x00019072   Section       26  qorganizersymbian.o(t._ZN5QListI7QStringE13node_destructEPNS1_4NodeES3_)
    t._ZN5QListI7QStringE14node_constructEPNS1_4NodeERKS0_ 0x0001908c   Section       36  qorganizersymbian.o(t._ZN5QListI7QStringE14node_constructEPNS1_4NodeERKS0_)
    t._ZN5QListI7QStringE14node_constructEPNS1_4NodeERKS0_.clean 0x000190b0   Section       14  qorganizersymbian.o(t._ZN5QListI7QStringE14node_constructEPNS1_4NodeERKS0_.clean)
    t._ZN5QListI7QStringE18detach_helper_growEii 0x000190be   Section      208  qorganizersymbian.o(t._ZN5QListI7QStringE18detach_helper_growEii)
    t._ZN5QListI7QStringE18detach_helper_growEii.clean 0x0001918e   Section       16  qorganizersymbian.o(t._ZN5QListI7QStringE18detach_helper_growEii.clean)
    t._ZN5QListI7QStringE4freeEPN9QListData4DataE 0x0001919e   Section       52  qorganizersymbian.o(t._ZN5QListI7QStringE4freeEPN9QListData4DataE)
    t._ZN5QListI7QStringE6appendERKS0_       0x000191d4   Section      120  qorganizersymbian.o(t._ZN5QListI7QStringE6appendERKS0_)
    t._ZN5QListI7QStringE6appendERKS0_.clean 0x0001924c   Section       14  qorganizersymbian.o(t._ZN5QListI7QStringE6appendERKS0_.clean)
    t._ZN5QListI7QStringE7reserveEi          0x0001925a   Section       46  qorganizersymbian.o(t._ZN5QListI7QStringE7reserveEi)
    t._ZN5QListI7QStringE9node_copyEPNS1_4NodeES3_S3_ 0x00019288   Section       82  qorganizersymbian.o(t._ZN5QListI7QStringE9node_copyEPNS1_4NodeES3_S3_)
    t._ZN5QListI7QStringE9node_copyEPNS1_4NodeES3_S3_.clean 0x000192da   Section       22  qorganizersymbian.o(t._ZN5QListI7QStringE9node_copyEPNS1_4NodeES3_S3_.clean)
    t._ZN5QListI7QStringEC1ERKS1_            0x000192f0   Section       36  qorganizersymbian.o(t._ZN5QListI7QStringEC1ERKS1_)
    t._ZN5QListI7QStringEC1Ev                0x00019314   Section       24  organizeritemtransform.o(t._ZN5QListI7QStringEC1Ev)
    t._ZN5QListI7QStringED1Ev                0x0001932c   Section       32  organizeritemrequestserviceprovider.o(t._ZN5QListI7QStringED1Ev)
    t._ZN5QListI7QStringEixEi                0x0001934c   Section       42  qorganizersymbian.o(t._ZN5QListI7QStringEixEi)
    t._ZN5QListI8QVariantE4freeEPN9QListData4DataE 0x00019376   Section       82  organizeritemlocationtransform.o(t._ZN5QListI8QVariantE4freeEPN9QListData4DataE)
    t._ZN5QListI8QVariantED1Ev               0x000193c8   Section       32  organizeritemlocationtransform.o(t._ZN5QListI8QVariantED1Ev)
    t._ZN5QListIN10QtMobility14QOrganizerItemEE13detach_helperEi 0x000193e8   Section       94  organizeritemrequestserviceprovider.o(t._ZN5QListIN10QtMobility14QOrganizerItemEE13detach_helperEi)
    t._ZN5QListIN10QtMobility14QOrganizerItemEE13detach_helperEi.clean 0x00019446   Section        8  organizeritemrequestserviceprovider.o(t._ZN5QListIN10QtMobility14QOrganizerItemEE13detach_helperEi.clean)
    t._ZN5QListIN10QtMobility14QOrganizerItemEE13detach_helperEv 0x0001944e   Section       16  organizeritemrequestserviceprovider.o(t._ZN5QListIN10QtMobility14QOrganizerItemEE13detach_helperEv)
    t._ZN5QListIN10QtMobility14QOrganizerItemEE13node_destructEPNS2_4NodeES4_ 0x0001945e   Section       26  organizeritemrequestserviceprovider.o(t._ZN5QListIN10QtMobility14QOrganizerItemEE13node_destructEPNS2_4NodeES4_)
    t._ZN5QListIN10QtMobility14QOrganizerItemEE14node_constructEPNS2_4NodeERKS1_ 0x00019478   Section       36  organizeritemrequestserviceprovider.o(t._ZN5QListIN10QtMobility14QOrganizerItemEE14node_constructEPNS2_4NodeERKS1_)
    t._ZN5QListIN10QtMobility14QOrganizerItemEE14node_constructEPNS2_4NodeERKS1_.clean 0x0001949c   Section       14  organizeritemrequestserviceprovider.o(t._ZN5QListIN10QtMobility14QOrganizerItemEE14node_constructEPNS2_4NodeERKS1_.clean)
    t._ZN5QListIN10QtMobility14QOrganizerItemEE18detach_helper_growEii 0x000194aa   Section      208  organizeritemrequestserviceprovider.o(t._ZN5QListIN10QtMobility14QOrganizerItemEE18detach_helper_growEii)
    t._ZN5QListIN10QtMobility14QOrganizerItemEE18detach_helper_growEii.clean 0x0001957a   Section       16  organizeritemrequestserviceprovider.o(t._ZN5QListIN10QtMobility14QOrganizerItemEE18detach_helper_growEii.clean)
    t._ZN5QListIN10QtMobility14QOrganizerItemEE4freeEPN9QListData4DataE 0x0001958a   Section       52  organizeritemrequestserviceprovider.o(t._ZN5QListIN10QtMobility14QOrganizerItemEE4freeEPN9QListData4DataE)
    t._ZN5QListIN10QtMobility14QOrganizerItemEE6appendERKS1_ 0x000195c0   Section      120  organizeritemrequestserviceprovider.o(t._ZN5QListIN10QtMobility14QOrganizerItemEE6appendERKS1_)
    t._ZN5QListIN10QtMobility14QOrganizerItemEE6appendERKS1_.clean 0x00019638   Section       14  organizeritemrequestserviceprovider.o(t._ZN5QListIN10QtMobility14QOrganizerItemEE6appendERKS1_.clean)
    t._ZN5QListIN10QtMobility14QOrganizerItemEE6detachEv 0x00019646   Section       24  organizeritemrequestserviceprovider.o(t._ZN5QListIN10QtMobility14QOrganizerItemEE6detachEv)
    t._ZN5QListIN10QtMobility14QOrganizerItemEE9node_copyEPNS2_4NodeES4_S4_ 0x0001965e   Section       82  organizeritemrequestserviceprovider.o(t._ZN5QListIN10QtMobility14QOrganizerItemEE9node_copyEPNS2_4NodeES4_S4_)
    t._ZN5QListIN10QtMobility14QOrganizerItemEE9node_copyEPNS2_4NodeES4_S4_.clean 0x000196b0   Section       22  organizeritemrequestserviceprovider.o(t._ZN5QListIN10QtMobility14QOrganizerItemEE9node_copyEPNS2_4NodeES4_S4_.clean)
    t._ZN5QListIN10QtMobility14QOrganizerItemEEC1ERKS2_ 0x000196c6   Section       36  qorganizersymbian.o(t._ZN5QListIN10QtMobility14QOrganizerItemEEC1ERKS2_)
    t._ZN5QListIN10QtMobility14QOrganizerItemEEC1Ev 0x000196ec   Section       24  organizeritemrequestserviceprovider.o(t._ZN5QListIN10QtMobility14QOrganizerItemEEC1Ev)
    t._ZN5QListIN10QtMobility14QOrganizerItemEED1Ev 0x00019704   Section       32  organizeritemrequestserviceprovider.o(t._ZN5QListIN10QtMobility14QOrganizerItemEED1Ev)
    t._ZN5QListIN10QtMobility14QOrganizerItemEEaSERKS2_ 0x00019724   Section       64  organizeritemrequestserviceprovider.o(t._ZN5QListIN10QtMobility14QOrganizerItemEEaSERKS2_)
    t._ZN5QListIN10QtMobility14QOrganizerItemEEixEi 0x00019764   Section      140  organizeritemrequestserviceprovider.o(t._ZN5QListIN10QtMobility14QOrganizerItemEEixEi)
    t._ZN5QListIN10QtMobility14QOrganizerItemEEpLERKS2_ 0x000197f0   Section      152  organizeritemrequestserviceprovider.o(t._ZN5QListIN10QtMobility14QOrganizerItemEEpLERKS2_)
    t._ZN5QListIN10QtMobility14QOrganizerItemEEpLERKS2_.clean 0x00019888   Section        8  organizeritemrequestserviceprovider.o(t._ZN5QListIN10QtMobility14QOrganizerItemEEpLERKS2_.clean)
    t._ZN5QListIN10QtMobility16QOrganizerItemIdEE13detach_helperEi 0x00019890   Section       94  qorganizersymbian.o(t._ZN5QListIN10QtMobility16QOrganizerItemIdEE13detach_helperEi)
    t._ZN5QListIN10QtMobility16QOrganizerItemIdEE13detach_helperEi.clean 0x000198ee   Section        8  qorganizersymbian.o(t._ZN5QListIN10QtMobility16QOrganizerItemIdEE13detach_helperEi.clean)
    t._ZN5QListIN10QtMobility16QOrganizerItemIdEE13detach_helperEv 0x000198f6   Section       16  organizeritemrequestserviceprovider.o(t._ZN5QListIN10QtMobility16QOrganizerItemIdEE13detach_helperEv)
    t._ZN5QListIN10QtMobility16QOrganizerItemIdEE13node_destructEPNS2_4NodeES4_ 0x00019906   Section       26  qorganizersymbian.o(t._ZN5QListIN10QtMobility16QOrganizerItemIdEE13node_destructEPNS2_4NodeES4_)
    t._ZN5QListIN10QtMobility16QOrganizerItemIdEE14node_constructEPNS2_4NodeERKS1_ 0x00019920   Section       36  qorganizersymbian.o(t._ZN5QListIN10QtMobility16QOrganizerItemIdEE14node_constructEPNS2_4NodeERKS1_)
    t._ZN5QListIN10QtMobility16QOrganizerItemIdEE14node_constructEPNS2_4NodeERKS1_.clean 0x00019944   Section       14  qorganizersymbian.o(t._ZN5QListIN10QtMobility16QOrganizerItemIdEE14node_constructEPNS2_4NodeERKS1_.clean)
    t._ZN5QListIN10QtMobility16QOrganizerItemIdEE18detach_helper_growEii 0x00019952   Section      208  qorganizersymbian.o(t._ZN5QListIN10QtMobility16QOrganizerItemIdEE18detach_helper_growEii)
    t._ZN5QListIN10QtMobility16QOrganizerItemIdEE18detach_helper_growEii.clean 0x00019a22   Section       16  qorganizersymbian.o(t._ZN5QListIN10QtMobility16QOrganizerItemIdEE18detach_helper_growEii.clean)
    t._ZN5QListIN10QtMobility16QOrganizerItemIdEE4freeEPN9QListData4DataE 0x00019a32   Section       52  qorganizersymbian.o(t._ZN5QListIN10QtMobility16QOrganizerItemIdEE4freeEPN9QListData4DataE)
    t._ZN5QListIN10QtMobility16QOrganizerItemIdEE5clearEv 0x00019a66   Section       28  organizeritemrequestserviceprovider.o(t._ZN5QListIN10QtMobility16QOrganizerItemIdEE5clearEv)
    t._ZN5QListIN10QtMobility16QOrganizerItemIdEE5clearEv.clean 0x00019a82   Section       10  organizeritemrequestserviceprovider.o(t._ZN5QListIN10QtMobility16QOrganizerItemIdEE5clearEv.clean)
    t._ZN5QListIN10QtMobility16QOrganizerItemIdEE6appendERKS1_ 0x00019a8c   Section      120  qorganizersymbian.o(t._ZN5QListIN10QtMobility16QOrganizerItemIdEE6appendERKS1_)
    t._ZN5QListIN10QtMobility16QOrganizerItemIdEE6appendERKS1_.clean 0x00019b04   Section       14  qorganizersymbian.o(t._ZN5QListIN10QtMobility16QOrganizerItemIdEE6appendERKS1_.clean)
    t._ZN5QListIN10QtMobility16QOrganizerItemIdEE7reserveEi 0x00019b12   Section       46  qorganizersymbian.o(t._ZN5QListIN10QtMobility16QOrganizerItemIdEE7reserveEi)
    t._ZN5QListIN10QtMobility16QOrganizerItemIdEE9node_copyEPNS2_4NodeES4_S4_ 0x00019b40   Section       82  qorganizersymbian.o(t._ZN5QListIN10QtMobility16QOrganizerItemIdEE9node_copyEPNS2_4NodeES4_S4_)
    t._ZN5QListIN10QtMobility16QOrganizerItemIdEE9node_copyEPNS2_4NodeES4_S4_.clean 0x00019b92   Section       22  qorganizersymbian.o(t._ZN5QListIN10QtMobility16QOrganizerItemIdEE9node_copyEPNS2_4NodeES4_S4_.clean)
    t._ZN5QListIN10QtMobility16QOrganizerItemIdEEC1ERKS2_ 0x00019ba8   Section       36  qorganizersymbian.o(t._ZN5QListIN10QtMobility16QOrganizerItemIdEEC1ERKS2_)
    t._ZN5QListIN10QtMobility16QOrganizerItemIdEEC1Ev 0x00019bcc   Section       24  organizeritemrequestserviceprovider.o(t._ZN5QListIN10QtMobility16QOrganizerItemIdEEC1Ev)
    t._ZN5QListIN10QtMobility16QOrganizerItemIdEED1Ev 0x00019be4   Section       32  organizeritemrequestserviceprovider.o(t._ZN5QListIN10QtMobility16QOrganizerItemIdEED1Ev)
    t._ZN5QListIN10QtMobility16QOrganizerItemIdEEaSERKS2_ 0x00019c04   Section       64  organizeritemrequestserviceprovider.o(t._ZN5QListIN10QtMobility16QOrganizerItemIdEEaSERKS2_)
    t._ZN5QListIN10QtMobility17QOrganizerManager5ErrorEE13detach_helperEi 0x00019c44   Section       94  organizeritemrequestserviceprovider.o(t._ZN5QListIN10QtMobility17QOrganizerManager5ErrorEE13detach_helperEi)
    t._ZN5QListIN10QtMobility17QOrganizerManager5ErrorEE13detach_helperEi.clean 0x00019ca2   Section        8  organizeritemrequestserviceprovider.o(t._ZN5QListIN10QtMobility17QOrganizerManager5ErrorEE13detach_helperEi.clean)
    t._ZN5QListIN10QtMobility17QOrganizerManager5ErrorEE13node_destructEPNS3_4NodeES5_ 0x00019caa   Section       26  organizeritemrequestserviceprovider.o(t._ZN5QListIN10QtMobility17QOrganizerManager5ErrorEE13node_destructEPNS3_4NodeES5_)
    t._ZN5QListIN10QtMobility17QOrganizerManager5ErrorEE14node_constructEPNS3_4NodeERKS2_ 0x00019cc4   Section       30  organizeritemrequestserviceprovider.o(t._ZN5QListIN10QtMobility17QOrganizerManager5ErrorEE14node_constructEPNS3_4NodeERKS2_)
    t._ZN5QListIN10QtMobility17QOrganizerManager5ErrorEE18detach_helper_growEii 0x00019ce2   Section      208  organizeritemrequestserviceprovider.o(t._ZN5QListIN10QtMobility17QOrganizerManager5ErrorEE18detach_helper_growEii)
    t._ZN5QListIN10QtMobility17QOrganizerManager5ErrorEE18detach_helper_growEii.clean 0x00019db2   Section       16  organizeritemrequestserviceprovider.o(t._ZN5QListIN10QtMobility17QOrganizerManager5ErrorEE18detach_helper_growEii.clean)
    t._ZN5QListIN10QtMobility17QOrganizerManager5ErrorEE4freeEPN9QListData4DataE 0x00019dc2   Section       52  organizeritemrequestserviceprovider.o(t._ZN5QListIN10QtMobility17QOrganizerManager5ErrorEE4freeEPN9QListData4DataE)
    t._ZN5QListIN10QtMobility17QOrganizerManager5ErrorEE6appendERKS2_ 0x00019df8   Section      112  organizeritemrequestserviceprovider.o(t._ZN5QListIN10QtMobility17QOrganizerManager5ErrorEE6appendERKS2_)
    t._ZN5QListIN10QtMobility17QOrganizerManager5ErrorEE6appendERKS2_.clean 0x00019e68   Section       14  organizeritemrequestserviceprovider.o(t._ZN5QListIN10QtMobility17QOrganizerManager5ErrorEE6appendERKS2_.clean)
    t._ZN5QListIN10QtMobility17QOrganizerManager5ErrorEE7reserveEi 0x00019e76   Section       46  organizeritemrequestserviceprovider.o(t._ZN5QListIN10QtMobility17QOrganizerManager5ErrorEE7reserveEi)
    t._ZN5QListIN10QtMobility17QOrganizerManager5ErrorEE9node_copyEPNS3_4NodeES5_S5_ 0x00019ea4   Section       78  organizeritemrequestserviceprovider.o(t._ZN5QListIN10QtMobility17QOrganizerManager5ErrorEE9node_copyEPNS3_4NodeES5_S5_)
    t._ZN5QListIN10QtMobility17QOrganizerManager5ErrorEE9node_copyEPNS3_4NodeES5_S5_.clean 0x00019ef2   Section        8  organizeritemrequestserviceprovider.o(t._ZN5QListIN10QtMobility17QOrganizerManager5ErrorEE9node_copyEPNS3_4NodeES5_S5_.clean)
    t._ZN5QListIN10QtMobility17QOrganizerManager5ErrorEED1Ev 0x00019efa   Section       32  organizeritemrequestserviceprovider.o(t._ZN5QListIN10QtMobility17QOrganizerManager5ErrorEED1Ev)
    t._ZN5QListIN10QtMobility20QOrganizerCollectionEE13detach_helperEi 0x00019f1a   Section       94  qorganizersymbian.o(t._ZN5QListIN10QtMobility20QOrganizerCollectionEE13detach_helperEi)
    t._ZN5QListIN10QtMobility20QOrganizerCollectionEE13detach_helperEi.clean 0x00019f78   Section        8  qorganizersymbian.o(t._ZN5QListIN10QtMobility20QOrganizerCollectionEE13detach_helperEi.clean)
    t._ZN5QListIN10QtMobility20QOrganizerCollectionEE13detach_helperEv 0x00019f80   Section       16  organizeritemrequestserviceprovider.o(t._ZN5QListIN10QtMobility20QOrganizerCollectionEE13detach_helperEv)
    t._ZN5QListIN10QtMobility20QOrganizerCollectionEE13node_destructEPNS2_4NodeES4_ 0x00019f90   Section       26  qorganizersymbian.o(t._ZN5QListIN10QtMobility20QOrganizerCollectionEE13node_destructEPNS2_4NodeES4_)
    t._ZN5QListIN10QtMobility20QOrganizerCollectionEE14node_constructEPNS2_4NodeERKS1_ 0x00019faa   Section       36  qorganizersymbian.o(t._ZN5QListIN10QtMobility20QOrganizerCollectionEE14node_constructEPNS2_4NodeERKS1_)
    t._ZN5QListIN10QtMobility20QOrganizerCollectionEE14node_constructEPNS2_4NodeERKS1_.clean 0x00019fce   Section       14  qorganizersymbian.o(t._ZN5QListIN10QtMobility20QOrganizerCollectionEE14node_constructEPNS2_4NodeERKS1_.clean)
    t._ZN5QListIN10QtMobility20QOrganizerCollectionEE18detach_helper_growEii 0x00019fdc   Section      208  qorganizersymbian.o(t._ZN5QListIN10QtMobility20QOrganizerCollectionEE18detach_helper_growEii)
    t._ZN5QListIN10QtMobility20QOrganizerCollectionEE18detach_helper_growEii.clean 0x0001a0ac   Section       16  qorganizersymbian.o(t._ZN5QListIN10QtMobility20QOrganizerCollectionEE18detach_helper_growEii.clean)
    t._ZN5QListIN10QtMobility20QOrganizerCollectionEE4freeEPN9QListData4DataE 0x0001a0bc   Section       52  qorganizersymbian.o(t._ZN5QListIN10QtMobility20QOrganizerCollectionEE4freeEPN9QListData4DataE)
    t._ZN5QListIN10QtMobility20QOrganizerCollectionEE6appendERKS1_ 0x0001a0f0   Section      120  qorganizersymbian.o(t._ZN5QListIN10QtMobility20QOrganizerCollectionEE6appendERKS1_)
    t._ZN5QListIN10QtMobility20QOrganizerCollectionEE6appendERKS1_.clean 0x0001a168   Section       14  qorganizersymbian.o(t._ZN5QListIN10QtMobility20QOrganizerCollectionEE6appendERKS1_.clean)
    t._ZN5QListIN10QtMobility20QOrganizerCollectionEE9node_copyEPNS2_4NodeES4_S4_ 0x0001a176   Section       82  qorganizersymbian.o(t._ZN5QListIN10QtMobility20QOrganizerCollectionEE9node_copyEPNS2_4NodeES4_S4_)
    t._ZN5QListIN10QtMobility20QOrganizerCollectionEE9node_copyEPNS2_4NodeES4_S4_.clean 0x0001a1c8   Section       22  qorganizersymbian.o(t._ZN5QListIN10QtMobility20QOrganizerCollectionEE9node_copyEPNS2_4NodeES4_S4_.clean)
    t._ZN5QListIN10QtMobility20QOrganizerCollectionEEC1Ev 0x0001a1e0   Section       24  qorganizersymbian.o(t._ZN5QListIN10QtMobility20QOrganizerCollectionEEC1Ev)
    t._ZN5QListIN10QtMobility20QOrganizerCollectionEED1Ev 0x0001a1f8   Section       32  organizeritemrequestserviceprovider.o(t._ZN5QListIN10QtMobility20QOrganizerCollectionEED1Ev)
    t._ZN5QListIN10QtMobility20QOrganizerItemFilterEE13detach_helperEi 0x0001a218   Section       94  qorganizersymbian.o(t._ZN5QListIN10QtMobility20QOrganizerItemFilterEE13detach_helperEi)
    t._ZN5QListIN10QtMobility20QOrganizerItemFilterEE13detach_helperEi.clean 0x0001a276   Section        8  qorganizersymbian.o(t._ZN5QListIN10QtMobility20QOrganizerItemFilterEE13detach_helperEi.clean)
    t._ZN5QListIN10QtMobility20QOrganizerItemFilterEE13detach_helperEv 0x0001a27e   Section       16  qorganizersymbian.o(t._ZN5QListIN10QtMobility20QOrganizerItemFilterEE13detach_helperEv)
    t._ZN5QListIN10QtMobility20QOrganizerItemFilterEE13node_destructEPNS2_4NodeES4_ 0x0001a28e   Section       26  qorganizersymbian.o(t._ZN5QListIN10QtMobility20QOrganizerItemFilterEE13node_destructEPNS2_4NodeES4_)
    t._ZN5QListIN10QtMobility20QOrganizerItemFilterEE14node_constructEPNS2_4NodeERKS1_ 0x0001a2a8   Section       36  qorganizersymbian.o(t._ZN5QListIN10QtMobility20QOrganizerItemFilterEE14node_constructEPNS2_4NodeERKS1_)
    t._ZN5QListIN10QtMobility20QOrganizerItemFilterEE14node_constructEPNS2_4NodeERKS1_.clean 0x0001a2cc   Section       14  qorganizersymbian.o(t._ZN5QListIN10QtMobility20QOrganizerItemFilterEE14node_constructEPNS2_4NodeERKS1_.clean)
    t._ZN5QListIN10QtMobility20QOrganizerItemFilterEE18detach_helper_growEii 0x0001a2da   Section      208  qorganizersymbian.o(t._ZN5QListIN10QtMobility20QOrganizerItemFilterEE18detach_helper_growEii)
    t._ZN5QListIN10QtMobility20QOrganizerItemFilterEE18detach_helper_growEii.clean 0x0001a3aa   Section       16  qorganizersymbian.o(t._ZN5QListIN10QtMobility20QOrganizerItemFilterEE18detach_helper_growEii.clean)
    t._ZN5QListIN10QtMobility20QOrganizerItemFilterEE4freeEPN9QListData4DataE 0x0001a3ba   Section       52  qorganizersymbian.o(t._ZN5QListIN10QtMobility20QOrganizerItemFilterEE4freeEPN9QListData4DataE)
    t._ZN5QListIN10QtMobility20QOrganizerItemFilterEE6appendERKS1_ 0x0001a3f0   Section      120  qorganizersymbian.o(t._ZN5QListIN10QtMobility20QOrganizerItemFilterEE6appendERKS1_)
    t._ZN5QListIN10QtMobility20QOrganizerItemFilterEE6appendERKS1_.clean 0x0001a468   Section       14  qorganizersymbian.o(t._ZN5QListIN10QtMobility20QOrganizerItemFilterEE6appendERKS1_.clean)
    t._ZN5QListIN10QtMobility20QOrganizerItemFilterEE9node_copyEPNS2_4NodeES4_S4_ 0x0001a476   Section       82  qorganizersymbian.o(t._ZN5QListIN10QtMobility20QOrganizerItemFilterEE9node_copyEPNS2_4NodeES4_S4_)
    t._ZN5QListIN10QtMobility20QOrganizerItemFilterEE9node_copyEPNS2_4NodeES4_S4_.clean 0x0001a4c8   Section       22  qorganizersymbian.o(t._ZN5QListIN10QtMobility20QOrganizerItemFilterEE9node_copyEPNS2_4NodeES4_S4_.clean)
    t._ZN5QListIN10QtMobility20QOrganizerItemFilterEED1Ev 0x0001a4de   Section       32  qorganizersymbian.o(t._ZN5QListIN10QtMobility20QOrganizerItemFilterEED1Ev)
    t._ZN5QListIN10QtMobility22QOrganizerCollectionIdEE13detach_helperEi 0x0001a4fe   Section       94  qorganizersymbian.o(t._ZN5QListIN10QtMobility22QOrganizerCollectionIdEE13detach_helperEi)
    t._ZN5QListIN10QtMobility22QOrganizerCollectionIdEE13detach_helperEi.clean 0x0001a55c   Section        8  qorganizersymbian.o(t._ZN5QListIN10QtMobility22QOrganizerCollectionIdEE13detach_helperEi.clean)
    t._ZN5QListIN10QtMobility22QOrganizerCollectionIdEE13detach_helperEv 0x0001a564   Section       16  qorganizersymbian.o(t._ZN5QListIN10QtMobility22QOrganizerCollectionIdEE13detach_helperEv)
    t._ZN5QListIN10QtMobility22QOrganizerCollectionIdEE13node_destructEPNS2_4NodeES4_ 0x0001a574   Section       26  qorganizersymbian.o(t._ZN5QListIN10QtMobility22QOrganizerCollectionIdEE13node_destructEPNS2_4NodeES4_)
    t._ZN5QListIN10QtMobility22QOrganizerCollectionIdEE14node_constructEPNS2_4NodeERKS1_ 0x0001a58e   Section       36  qorganizersymbian.o(t._ZN5QListIN10QtMobility22QOrganizerCollectionIdEE14node_constructEPNS2_4NodeERKS1_)
    t._ZN5QListIN10QtMobility22QOrganizerCollectionIdEE14node_constructEPNS2_4NodeERKS1_.clean 0x0001a5b2   Section       14  qorganizersymbian.o(t._ZN5QListIN10QtMobility22QOrganizerCollectionIdEE14node_constructEPNS2_4NodeERKS1_.clean)
    t._ZN5QListIN10QtMobility22QOrganizerCollectionIdEE18detach_helper_growEii 0x0001a5c0   Section      208  qorganizersymbian.o(t._ZN5QListIN10QtMobility22QOrganizerCollectionIdEE18detach_helper_growEii)
    t._ZN5QListIN10QtMobility22QOrganizerCollectionIdEE18detach_helper_growEii.clean 0x0001a690   Section       16  qorganizersymbian.o(t._ZN5QListIN10QtMobility22QOrganizerCollectionIdEE18detach_helper_growEii.clean)
    t._ZN5QListIN10QtMobility22QOrganizerCollectionIdEE4freeEPN9QListData4DataE 0x0001a6a0   Section       52  qorganizersymbian.o(t._ZN5QListIN10QtMobility22QOrganizerCollectionIdEE4freeEPN9QListData4DataE)
    t._ZN5QListIN10QtMobility22QOrganizerCollectionIdEE6appendERKS1_ 0x0001a6d4   Section      120  qorganizersymbian.o(t._ZN5QListIN10QtMobility22QOrganizerCollectionIdEE6appendERKS1_)
    t._ZN5QListIN10QtMobility22QOrganizerCollectionIdEE6appendERKS1_.clean 0x0001a74c   Section       14  qorganizersymbian.o(t._ZN5QListIN10QtMobility22QOrganizerCollectionIdEE6appendERKS1_.clean)
    t._ZN5QListIN10QtMobility22QOrganizerCollectionIdEE7reserveEi 0x0001a75a   Section       46  qorganizersymbian.o(t._ZN5QListIN10QtMobility22QOrganizerCollectionIdEE7reserveEi)
    t._ZN5QListIN10QtMobility22QOrganizerCollectionIdEE9node_copyEPNS2_4NodeES4_S4_ 0x0001a788   Section       82  qorganizersymbian.o(t._ZN5QListIN10QtMobility22QOrganizerCollectionIdEE9node_copyEPNS2_4NodeES4_S4_)
    t._ZN5QListIN10QtMobility22QOrganizerCollectionIdEE9node_copyEPNS2_4NodeES4_S4_.clean 0x0001a7da   Section       22  qorganizersymbian.o(t._ZN5QListIN10QtMobility22QOrganizerCollectionIdEE9node_copyEPNS2_4NodeES4_S4_.clean)
    t._ZN5QListIN10QtMobility22QOrganizerCollectionIdEEC1Ev 0x0001a7f0   Section       24  qorganizersymbian.o(t._ZN5QListIN10QtMobility22QOrganizerCollectionIdEEC1Ev)
    t._ZN5QListIN10QtMobility22QOrganizerCollectionIdEED1Ev 0x0001a808   Section       32  organizeritemrequestserviceprovider.o(t._ZN5QListIN10QtMobility22QOrganizerCollectionIdEED1Ev)
    t._ZN5QListIN10QtMobility22QOrganizerCollectionIdEEpLERKS2_ 0x0001a828   Section      200  qorganizersymbian.o(t._ZN5QListIN10QtMobility22QOrganizerCollectionIdEEpLERKS2_)
    t._ZN5QListIN10QtMobility22QOrganizerCollectionIdEEpLERKS2_.clean 0x0001a8f0   Section        8  qorganizersymbian.o(t._ZN5QListIN10QtMobility22QOrganizerCollectionIdEEpLERKS2_.clean)
    t._ZN5QListIN10QtMobility23QOrganizerItemSortOrderEE4freeEPN9QListData4DataE 0x0001a8f8   Section       64  organizeritemrequestserviceprovider.o(t._ZN5QListIN10QtMobility23QOrganizerItemSortOrderEE4freeEPN9QListData4DataE)
    t._ZN5QListIN10QtMobility23QOrganizerItemSortOrderEED1Ev 0x0001a938   Section       32  organizeritemrequestserviceprovider.o(t._ZN5QListIN10QtMobility23QOrganizerItemSortOrderEED1Ev)
    t._ZN5QListIN10QtMobility24QOrganizerRecurrenceRuleEE13detach_helperEi 0x0001a958   Section       94  organizeritemrecurrencetransform.o(t._ZN5QListIN10QtMobility24QOrganizerRecurrenceRuleEE13detach_helperEi)
    t._ZN5QListIN10QtMobility24QOrganizerRecurrenceRuleEE13detach_helperEi.clean 0x0001a9b6   Section        8  organizeritemrecurrencetransform.o(t._ZN5QListIN10QtMobility24QOrganizerRecurrenceRuleEE13detach_helperEi.clean)
    t._ZN5QListIN10QtMobility24QOrganizerRecurrenceRuleEE13detach_helperEv 0x0001a9be   Section       16  organizeritemrecurrencetransform.o(t._ZN5QListIN10QtMobility24QOrganizerRecurrenceRuleEE13detach_helperEv)
    t._ZN5QListIN10QtMobility24QOrganizerRecurrenceRuleEE13node_destructEPNS2_4NodeES4_ 0x0001a9ce   Section       26  organizeritemrecurrencetransform.o(t._ZN5QListIN10QtMobility24QOrganizerRecurrenceRuleEE13node_destructEPNS2_4NodeES4_)
    t._ZN5QListIN10QtMobility24QOrganizerRecurrenceRuleEE14node_constructEPNS2_4NodeERKS1_ 0x0001a9e8   Section       36  organizeritemrecurrencetransform.o(t._ZN5QListIN10QtMobility24QOrganizerRecurrenceRuleEE14node_constructEPNS2_4NodeERKS1_)
    t._ZN5QListIN10QtMobility24QOrganizerRecurrenceRuleEE14node_constructEPNS2_4NodeERKS1_.clean 0x0001aa0c   Section       14  organizeritemrecurrencetransform.o(t._ZN5QListIN10QtMobility24QOrganizerRecurrenceRuleEE14node_constructEPNS2_4NodeERKS1_.clean)
    t._ZN5QListIN10QtMobility24QOrganizerRecurrenceRuleEE18detach_helper_growEii 0x0001aa1a   Section      208  organizeritemrecurrencetransform.o(t._ZN5QListIN10QtMobility24QOrganizerRecurrenceRuleEE18detach_helper_growEii)
    t._ZN5QListIN10QtMobility24QOrganizerRecurrenceRuleEE18detach_helper_growEii.clean 0x0001aaea   Section       16  organizeritemrecurrencetransform.o(t._ZN5QListIN10QtMobility24QOrganizerRecurrenceRuleEE18detach_helper_growEii.clean)
    t._ZN5QListIN10QtMobility24QOrganizerRecurrenceRuleEE4freeEPN9QListData4DataE 0x0001aafa   Section       58  organizeritemrecurrencetransform.o(t._ZN5QListIN10QtMobility24QOrganizerRecurrenceRuleEE4freeEPN9QListData4DataE)
    t._ZN5QListIN10QtMobility24QOrganizerRecurrenceRuleEE6appendERKS1_ 0x0001ab34   Section      120  organizeritemrecurrencetransform.o(t._ZN5QListIN10QtMobility24QOrganizerRecurrenceRuleEE6appendERKS1_)
    t._ZN5QListIN10QtMobility24QOrganizerRecurrenceRuleEE6appendERKS1_.clean 0x0001abac   Section       14  organizeritemrecurrencetransform.o(t._ZN5QListIN10QtMobility24QOrganizerRecurrenceRuleEE6appendERKS1_.clean)
    t._ZN5QListIN10QtMobility24QOrganizerRecurrenceRuleEE7reserveEi 0x0001abba   Section       46  organizeritemrecurrencetransform.o(t._ZN5QListIN10QtMobility24QOrganizerRecurrenceRuleEE7reserveEi)
    t._ZN5QListIN10QtMobility24QOrganizerRecurrenceRuleEE9node_copyEPNS2_4NodeES4_S4_ 0x0001abe8   Section       82  organizeritemrecurrencetransform.o(t._ZN5QListIN10QtMobility24QOrganizerRecurrenceRuleEE9node_copyEPNS2_4NodeES4_S4_)
    t._ZN5QListIN10QtMobility24QOrganizerRecurrenceRuleEE9node_copyEPNS2_4NodeES4_S4_.clean 0x0001ac3a   Section       22  organizeritemrecurrencetransform.o(t._ZN5QListIN10QtMobility24QOrganizerRecurrenceRuleEE9node_copyEPNS2_4NodeES4_S4_.clean)
    t._ZN5QListIN10QtMobility24QOrganizerRecurrenceRuleEED1Ev 0x0001ac50   Section       32  organizeritemrecurrencetransform.o(t._ZN5QListIN10QtMobility24QOrganizerRecurrenceRuleEED1Ev)
    t._ZN5QListIN10QtMobility30QOrganizerItemDetailDefinitionEE4freeEPN9QListData4DataE 0x0001ac70   Section       64  organizeritemrequestserviceprovider.o(t._ZN5QListIN10QtMobility30QOrganizerItemDetailDefinitionEE4freeEPN9QListData4DataE)
    t._ZN5QListIN10QtMobility30QOrganizerItemDetailDefinitionEED1Ev 0x0001acb0   Section       32  organizeritemrequestserviceprovider.o(t._ZN5QListIN10QtMobility30QOrganizerItemDetailDefinitionEED1Ev)
    t._ZN5QListIP28OrganizerItemDetailTransformE13detach_helperEi 0x0001acd0   Section       94  organizeritemtransform.o(t._ZN5QListIP28OrganizerItemDetailTransformE13detach_helperEi)
    t._ZN5QListIP28OrganizerItemDetailTransformE13detach_helperEi.clean 0x0001ad2e   Section        8  organizeritemtransform.o(t._ZN5QListIP28OrganizerItemDetailTransformE13detach_helperEi.clean)
    t._ZN5QListIP28OrganizerItemDetailTransformE13detach_helperEv 0x0001ad36   Section       16  organizeritemtransform.o(t._ZN5QListIP28OrganizerItemDetailTransformE13detach_helperEv)
    t._ZN5QListIP28OrganizerItemDetailTransformE18detach_helper_growEii 0x0001ad46   Section      204  organizeritemtransform.o(t._ZN5QListIP28OrganizerItemDetailTransformE18detach_helper_growEii)
    t._ZN5QListIP28OrganizerItemDetailTransformE18detach_helper_growEii.clean 0x0001ae12   Section       16  organizeritemtransform.o(t._ZN5QListIP28OrganizerItemDetailTransformE18detach_helper_growEii.clean)
    t._ZN5QListIP28OrganizerItemDetailTransformE4freeEPN9QListData4DataE 0x0001ae22   Section       58  organizeritemtransform.o(t._ZN5QListIP28OrganizerItemDetailTransformE4freeEPN9QListData4DataE)
    t._ZN5QListIP28OrganizerItemDetailTransformE6appendERKS1_ 0x0001ae5c   Section      100  organizeritemtransform.o(t._ZN5QListIP28OrganizerItemDetailTransformE6appendERKS1_)
    t._ZN5QListIP28OrganizerItemDetailTransformE6appendERKS1_.clean 0x0001aec0   Section       10  organizeritemtransform.o(t._ZN5QListIP28OrganizerItemDetailTransformE6appendERKS1_.clean)
    t._ZN5QListIP28OrganizerItemDetailTransformE9node_copyEPNS2_4NodeES4_S4_ 0x0001aeca   Section       46  organizeritemtransform.o(t._ZN5QListIP28OrganizerItemDetailTransformE9node_copyEPNS2_4NodeES4_S4_)
    t._ZN5QListIP28OrganizerItemDetailTransformED1Ev 0x0001aef8   Section       32  organizeritemtransform.o(t._ZN5QListIP28OrganizerItemDetailTransformED1Ev)
    t._ZN5QListIPN10QtMobility25QOrganizerAbstractRequestEE13detach_helperEi 0x0001af18   Section       94  qorganizeritemrequestqueue.o(t._ZN5QListIPN10QtMobility25QOrganizerAbstractRequestEE13detach_helperEi)
    t._ZN5QListIPN10QtMobility25QOrganizerAbstractRequestEE13detach_helperEi.clean 0x0001af76   Section        8  qorganizeritemrequestqueue.o(t._ZN5QListIPN10QtMobility25QOrganizerAbstractRequestEE13detach_helperEi.clean)
    t._ZN5QListIPN10QtMobility25QOrganizerAbstractRequestEE18detach_helper_growEii 0x0001af7e   Section      204  qorganizeritemrequestqueue.o(t._ZN5QListIPN10QtMobility25QOrganizerAbstractRequestEE18detach_helper_growEii)
    t._ZN5QListIPN10QtMobility25QOrganizerAbstractRequestEE18detach_helper_growEii.clean 0x0001b04a   Section       16  qorganizeritemrequestqueue.o(t._ZN5QListIPN10QtMobility25QOrganizerAbstractRequestEE18detach_helper_growEii.clean)
    t._ZN5QListIPN10QtMobility25QOrganizerAbstractRequestEE4freeEPN9QListData4DataE 0x0001b05a   Section       58  qorganizeritemrequestqueue.o(t._ZN5QListIPN10QtMobility25QOrganizerAbstractRequestEE4freeEPN9QListData4DataE)
    t._ZN5QListIPN10QtMobility25QOrganizerAbstractRequestEE6appendERKS2_ 0x0001b094   Section      100  qorganizeritemrequestqueue.o(t._ZN5QListIPN10QtMobility25QOrganizerAbstractRequestEE6appendERKS2_)
    t._ZN5QListIPN10QtMobility25QOrganizerAbstractRequestEE6appendERKS2_.clean 0x0001b0f8   Section       10  qorganizeritemrequestqueue.o(t._ZN5QListIPN10QtMobility25QOrganizerAbstractRequestEE6appendERKS2_.clean)
    t._ZN5QListIPN10QtMobility25QOrganizerAbstractRequestEE7reserveEi 0x0001b102   Section       46  qorganizeritemrequestqueue.o(t._ZN5QListIPN10QtMobility25QOrganizerAbstractRequestEE7reserveEi)
    t._ZN5QListIPN10QtMobility25QOrganizerAbstractRequestEE9node_copyEPNS3_4NodeES5_S5_ 0x0001b130   Section       46  qorganizeritemrequestqueue.o(t._ZN5QListIPN10QtMobility25QOrganizerAbstractRequestEE9node_copyEPNS3_4NodeES5_S5_)
    t._ZN5QListIPN10QtMobility25QOrganizerAbstractRequestEED1Ev 0x0001b15e   Section       32  qorganizeritemrequestqueue.o(t._ZN5QListIPN10QtMobility25QOrganizerAbstractRequestEED1Ev)
    t._ZN5QListIiE13detach_helperEi          0x0001b17e   Section       94  organizeritemrequestserviceprovider.o(t._ZN5QListIiE13detach_helperEi)
    t._ZN5QListIiE13detach_helperEi.clean    0x0001b1dc   Section        8  organizeritemrequestserviceprovider.o(t._ZN5QListIiE13detach_helperEi.clean)
    t._ZN5QListIiE13detach_helperEv          0x0001b1e4   Section       16  organizeritemrequestserviceprovider.o(t._ZN5QListIiE13detach_helperEv)
    t._ZN5QListIiE18detach_helper_growEii    0x0001b1f4   Section      204  organizeritemrequestserviceprovider.o(t._ZN5QListIiE18detach_helper_growEii)
    t._ZN5QListIiE18detach_helper_growEii.clean 0x0001b2c0   Section       16  organizeritemrequestserviceprovider.o(t._ZN5QListIiE18detach_helper_growEii.clean)
    t._ZN5QListIiE4freeEPN9QListData4DataE   0x0001b2d0   Section       52  organizeritemrequestserviceprovider.o(t._ZN5QListIiE4freeEPN9QListData4DataE)
    t._ZN5QListIiE6appendERKi                0x0001b304   Section      100  organizeritemrequestserviceprovider.o(t._ZN5QListIiE6appendERKi)
    t._ZN5QListIiE6appendERKi.clean          0x0001b368   Section       10  organizeritemrequestserviceprovider.o(t._ZN5QListIiE6appendERKi.clean)
    t._ZN5QListIiE7reserveEi                 0x0001b372   Section       46  organizeritemrequestserviceprovider.o(t._ZN5QListIiE7reserveEi)
    t._ZN5QListIiE9node_copyEPNS0_4NodeES2_S2_ 0x0001b3a0   Section       46  organizeritemrequestserviceprovider.o(t._ZN5QListIiE9node_copyEPNS0_4NodeES2_S2_)
    t._ZN5QListIiED1Ev                       0x0001b3ce   Section       32  organizeritemrequestserviceprovider.o(t._ZN5QListIiED1Ev)
    t._ZN5TBuf8ILi32EEC1Ev                   0x0001b3ee   Section       16  qorganizersymbian.o(t._ZN5TBuf8ILi32EEC1Ev)
    t._ZN6RArrayI4TDayE7AppendLERKS0_        0x0001b3fe   Section       24  organizeritemrecurrencetransform.o(t._ZN6RArrayI4TDayE7AppendLERKS0_)
    t._ZN6RArrayI8TCalTimeEC1Ev              0x0001b416   Section       16  organizeritemrecurrencetransform.o(t._ZN6RArrayI8TCalTimeEC1Ev)
    t._ZN8QPointerI7QObjectED1Ev             0x0001b426   Section       14  qorganizersymbian.o(t._ZN8QPointerI7QObjectED1Ev)
    t._ZN8TPckgBufI5TTimeEC1Ev               0x0001b434   Section       42  organizersymbianutils.o(t._ZN8TPckgBufI5TTimeEC1Ev)
    t._ZN8TPckgBufI5TTimeEC1Ev.clean         0x0001b45e   Section        4  organizersymbianutils.o(t._ZN8TPckgBufI5TTimeEC1Ev.clean)
    t._ZN8TPckgBufIiEC1Ev                    0x0001b462   Section       28  organizersymbianutils.o(t._ZN8TPckgBufIiEC1Ev)
    t._ZN8TPckgBufIjEC1Ev                    0x0001b47e   Section       28  organizersymbianutils.o(t._ZN8TPckgBufIjEC1Ev)
    t._ZNK10QtMobility14QOrganizerItem6detailINS_20QOrganizerItemParentEEET_v 0x0001b49c   Section       56  qorganizersymbian.o(t._ZNK10QtMobility14QOrganizerItem6detailINS_20QOrganizerItemParentEEET_v)
    t._ZNK10QtMobility14QOrganizerItem6detailINS_20QOrganizerItemParentEEET_v.clean 0x0001b4d4   Section       10  qorganizersymbian.o(t._ZNK10QtMobility14QOrganizerItem6detailINS_20QOrganizerItemParentEEET_v.clean)
    t._ZNK10QtMobility14QOrganizerItem6detailINS_23QOrganizerItemTimestampEEET_v 0x0001b4e0   Section       56  organizeritemtimestamptransform.o(t._ZNK10QtMobility14QOrganizerItem6detailINS_23QOrganizerItemTimestampEEET_v)
    t._ZNK10QtMobility14QOrganizerItem6detailINS_23QOrganizerItemTimestampEEET_v.clean 0x0001b518   Section       10  organizeritemtimestamptransform.o(t._ZNK10QtMobility14QOrganizerItem6detailINS_23QOrganizerItemTimestampEEET_v.clean)
    t._ZNK10QtMobility15QLatin1ConstantILi6EEcv7QStringEv 0x0001b522   Section       18  organizersymbianutils.o(t._ZNK10QtMobility15QLatin1ConstantILi6EEcv7QStringEv)
    t._ZNK10QtMobility15QLatin1ConstantILi8EEcv7QStringEv 0x0001b534   Section       18  organizersymbianutils.o(t._ZNK10QtMobility15QLatin1ConstantILi8EEcv7QStringEv)
    t._ZNK10QtMobility15QLatin1ConstantILi9EEcv7QStringEv 0x0001b546   Section       18  qorganizersymbian.o(t._ZNK10QtMobility15QLatin1ConstantILi9EEcv7QStringEv)
    t._ZNK10QtMobility20QOrganizerItemDetail5valueI9QDateTimeEET_PKc 0x0001b558   Section      138  organizertodoprogresstransform.o(t._ZNK10QtMobility20QOrganizerItemDetail5valueI9QDateTimeEET_PKc)
    t._ZNK10QtMobility20QOrganizerItemDetail5valueI9QDateTimeEET_PKc.clean 0x0001b5e2   Section       20  organizertodoprogresstransform.o(t._ZNK10QtMobility20QOrganizerItemDetail5valueI9QDateTimeEET_PKc.clean)
    t._ZNK10QtMobility20QOrganizerItemDetail5valueIdEET_PKc 0x0001b5f8   Section      140  organizeritemlocationtransform.o(t._ZNK10QtMobility20QOrganizerItemDetail5valueIdEET_PKc)
    t._ZNK10QtMobility20QOrganizerItemDetail5valueIdEET_PKc.clean 0x0001b684   Section       10  organizeritemlocationtransform.o(t._ZNK10QtMobility20QOrganizerItemDetail5valueIdEET_PKc.clean)
    t._ZNK17QForeachContainerI4QMapIN10QtMobility22QOrganizerCollectionIdE26OrganizerSymbianCollectionEE9conditionEv 0x0001b68e   Section       38  qorganizersymbian.o(t._ZNK17QForeachContainerI4QMapIN10QtMobility22QOrganizerCollectionIdE26OrganizerSymbianCollectionEE9conditionEv)
    t._ZNK17QForeachContainerI4QSetIN2Qt9DayOfWeekEEE9conditionEv 0x0001b6b4   Section       44  organizeritemrecurrencetransform.o(t._ZNK17QForeachContainerI4QSetIN2Qt9DayOfWeekEEE9conditionEv)
    t._ZNK17QForeachContainerI4QSetIiEE9conditionEv 0x0001b6e0   Section       44  organizeritemrecurrencetransform.o(t._ZNK17QForeachContainerI4QSetIiEE9conditionEv)
    t._ZNK17QForeachContainerI5QListI26OrganizerSymbianCollectionEE9conditionEv 0x0001b70c   Section       40  qorganizersymbian.o(t._ZNK17QForeachContainerI5QListI26OrganizerSymbianCollectionEE9conditionEv)
    t._ZNK17QForeachContainerI5QListI7QStringEE9conditionEv 0x0001b734   Section       40  organizeritemtransform.o(t._ZNK17QForeachContainerI5QListI7QStringEE9conditionEv)
    t._ZNK17QForeachContainerI5QListIN10QtMobility14QOrganizerItemEEE9conditionEv 0x0001b75c   Section       40  qorganizersymbian.o(t._ZNK17QForeachContainerI5QListIN10QtMobility14QOrganizerItemEEE9conditionEv)
    t._ZNK17QForeachContainerI5QListIN10QtMobility16QOrganizerItemIdEEE9conditionEv 0x0001b784   Section       40  qorganizersymbian.o(t._ZNK17QForeachContainerI5QListIN10QtMobility16QOrganizerItemIdEEE9conditionEv)
    t._ZNK17QForeachContainerI5QListIN10QtMobility22QOrganizerCollectionIdEEE9conditionEv 0x0001b7ac   Section       40  qorganizersymbian.o(t._ZNK17QForeachContainerI5QListIN10QtMobility22QOrganizerCollectionIdEEE9conditionEv)
    t._ZNK17QForeachContainerI5QListIP28OrganizerItemDetailTransformEE9conditionEv 0x0001b7d4   Section       40  organizeritemtransform.o(t._ZNK17QForeachContainerI5QListIP28OrganizerItemDetailTransformEE9conditionEv)
    t._ZNK4QMapI7QString8QVariantE15mutableFindNodeEPPN8QMapData4NodeERKS0_ 0x0001b7fc   Section      108  organizersymbianutils.o(t._ZNK4QMapI7QString8QVariantE15mutableFindNodeEPPN8QMapData4NodeERKS0_)
    t._ZNK4QMapI7QString8QVariantE4keysEv    0x0001b868   Section      116  organizersymbianutils.o(t._ZNK4QMapI7QString8QVariantE4keysEv)
    t._ZNK4QMapI7QString8QVariantE4keysEv.clean 0x0001b8dc   Section       10  organizersymbianutils.o(t._ZNK4QMapI7QString8QVariantE4keysEv.clean)
    t._ZNK4QMapI7QString8QVariantE5valueERKS0_ 0x0001b8e6   Section      196  organizersymbianutils.o(t._ZNK4QMapI7QString8QVariantE5valueERKS0_)
    t._ZNK4QMapI7QString8QVariantE8containsERKS0_ 0x0001b9aa   Section      122  qorganizersymbian.o(t._ZNK4QMapI7QString8QVariantE8containsERKS0_)
    t._ZNK4QMapI7QStringN10QtMobility30QOrganizerItemDetailDefinitionEE15mutableFindNodeEPPN8QMapData4NodeERKS0_ 0x0001ba24   Section      108  organizeritemlocationtransform.o(t._ZNK4QMapI7QStringN10QtMobility30QOrganizerItemDetailDefinitionEE15mutableFindNodeEPPN8QMapData4NodeERKS0_)
    t._ZNK4QMapI7QStringN10QtMobility30QOrganizerItemDetailDefinitionEE4keysEv 0x0001ba90   Section      104  organizeritemtransform.o(t._ZNK4QMapI7QStringN10QtMobility30QOrganizerItemDetailDefinitionEE4keysEv)
    t._ZNK4QMapI7QStringN10QtMobility30QOrganizerItemDetailDefinitionEE4keysEv.clean 0x0001baf8   Section       10  organizeritemtransform.o(t._ZNK4QMapI7QStringN10QtMobility30QOrganizerItemDetailDefinitionEE4keysEv.clean)
    t._ZNK4QMapI7QStringN10QtMobility30QOrganizerItemDetailDefinitionEE8findNodeERKS0_ 0x0001bb02   Section      104  organizeritemrecurrencetransform.o(t._ZNK4QMapI7QStringN10QtMobility30QOrganizerItemDetailDefinitionEE8findNodeERKS0_)
    t._ZNK4QMapI7QStringN10QtMobility35QOrganizerItemDetailFieldDefinitionEE15mutableFindNodeEPPN8QMapData4NodeERKS0_ 0x0001bb6a   Section      108  organizeritemlocationtransform.o(t._ZNK4QMapI7QStringN10QtMobility35QOrganizerItemDetailFieldDefinitionEE15mutableFindNodeEPPN8QMapData4NodeERKS0_)
    t._ZNK4QMapI7QStringN10QtMobility35QOrganizerItemDetailFieldDefinitionEE4keysEv 0x0001bbd6   Section      104  organizeritemtransform.o(t._ZNK4QMapI7QStringN10QtMobility35QOrganizerItemDetailFieldDefinitionEE4keysEv)
    t._ZNK4QMapI7QStringN10QtMobility35QOrganizerItemDetailFieldDefinitionEE4keysEv.clean 0x0001bc3e   Section       10  organizeritemtransform.o(t._ZNK4QMapI7QStringN10QtMobility35QOrganizerItemDetailFieldDefinitionEE4keysEv.clean)
    t._ZNK4QMapI7QStringS_IS0_N10QtMobility30QOrganizerItemDetailDefinitionEEE15mutableFindNodeEPPN8QMapData4NodeERKS0_ 0x0001bc48   Section      108  organizeritemtransform.o(t._ZNK4QMapI7QStringS_IS0_N10QtMobility30QOrganizerItemDetailDefinitionEEE15mutableFindNodeEPPN8QMapData4NodeERKS0_)
    t._ZNK4QMapI7QStringS_IS0_N10QtMobility30QOrganizerItemDetailDefinitionEEE4keysEv 0x0001bcb4   Section      104  organizeritemtransform.o(t._ZNK4QMapI7QStringS_IS0_N10QtMobility30QOrganizerItemDetailDefinitionEEE4keysEv)
    t._ZNK4QMapI7QStringS_IS0_N10QtMobility30QOrganizerItemDetailDefinitionEEE4keysEv.clean 0x0001bd1c   Section       10  organizeritemtransform.o(t._ZNK4QMapI7QStringS_IS0_N10QtMobility30QOrganizerItemDetailDefinitionEEE4keysEv.clean)
    t._ZNK4QMapI7QStringS_IS0_N10QtMobility30QOrganizerItemDetailDefinitionEEE5valueERKS0_ 0x0001bd26   Section      160  organizeritemtransform.o(t._ZNK4QMapI7QStringS_IS0_N10QtMobility30QOrganizerItemDetailDefinitionEEE5valueERKS0_)
    t._ZNK4QMapI7QStringS_IS0_N10QtMobility30QOrganizerItemDetailDefinitionEEE7isEmptyEv 0x0001bdc6   Section       18  qorganizersymbian.o(t._ZNK4QMapI7QStringS_IS0_N10QtMobility30QOrganizerItemDetailDefinitionEEE7isEmptyEv)
    t._ZNK4QMapI7QStringS_IS0_N10QtMobility30QOrganizerItemDetailDefinitionEEE8findNodeERKS0_ 0x0001bdd8   Section      104  qorganizersymbian.o(t._ZNK4QMapI7QStringS_IS0_N10QtMobility30QOrganizerItemDetailDefinitionEEE8findNodeERKS0_)
    t._ZNK4QMapIN10QtMobility22QOrganizerCollectionIdE26OrganizerSymbianCollectionE14const_iteratorneERKS4_ 0x0001be40   Section       18  qorganizersymbian.o(t._ZNK4QMapIN10QtMobility22QOrganizerCollectionIdE26OrganizerSymbianCollectionE14const_iteratorneERKS4_)
    t._ZNK4QMapIN10QtMobility22QOrganizerCollectionIdE26OrganizerSymbianCollectionE15mutableFindNodeEPPN8QMapData4NodeERKS1_ 0x0001be52   Section      108  qorganizersymbian.o(t._ZNK4QMapIN10QtMobility22QOrganizerCollectionIdE26OrganizerSymbianCollectionE15mutableFindNodeEPPN8QMapData4NodeERKS1_)
    t._ZNK4QMapIN10QtMobility22QOrganizerCollectionIdE26OrganizerSymbianCollectionE4keysEv 0x0001bebe   Section       98  qorganizersymbian.o(t._ZNK4QMapIN10QtMobility22QOrganizerCollectionIdE26OrganizerSymbianCollectionE4keysEv)
    t._ZNK4QMapIN10QtMobility22QOrganizerCollectionIdE26OrganizerSymbianCollectionE4keysEv.clean 0x0001bf20   Section       10  qorganizersymbian.o(t._ZNK4QMapIN10QtMobility22QOrganizerCollectionIdE26OrganizerSymbianCollectionE4keysEv.clean)
    t._ZNK4QMapIN10QtMobility22QOrganizerCollectionIdE26OrganizerSymbianCollectionE6valuesEv 0x0001bf2a   Section       98  qorganizersymbian.o(t._ZNK4QMapIN10QtMobility22QOrganizerCollectionIdE26OrganizerSymbianCollectionE6valuesEv)
    t._ZNK4QMapIN10QtMobility22QOrganizerCollectionIdE26OrganizerSymbianCollectionE6valuesEv.clean 0x0001bf8c   Section       10  qorganizersymbian.o(t._ZNK4QMapIN10QtMobility22QOrganizerCollectionIdE26OrganizerSymbianCollectionE6valuesEv.clean)
    t._ZNK4QMapIN10QtMobility22QOrganizerCollectionIdE26OrganizerSymbianCollectionE8containsERKS1_ 0x0001bf96   Section       28  qorganizersymbian.o(t._ZNK4QMapIN10QtMobility22QOrganizerCollectionIdE26OrganizerSymbianCollectionE8containsERKS1_)
    t._ZNK4QMapIN10QtMobility22QOrganizerCollectionIdE26OrganizerSymbianCollectionE8findNodeERKS1_ 0x0001bfb2   Section      104  qorganizersymbian.o(t._ZNK4QMapIN10QtMobility22QOrganizerCollectionIdE26OrganizerSymbianCollectionE8findNodeERKS1_)
    t._ZNK4QMapIN10QtMobility22QOrganizerCollectionIdE26OrganizerSymbianCollectionEixERKS1_ 0x0001c01a   Section       70  qorganizersymbian.o(t._ZNK4QMapIN10QtMobility22QOrganizerCollectionIdE26OrganizerSymbianCollectionEixERKS1_)
    t._ZNK4QMapIPN10QtMobility25QOrganizerAbstractRequestEP37COrganizerItemRequestsServiceProviderE14const_iteratorneERKS6_ 0x0001c060   Section       18  qorganizeritemrequestqueue.o(t._ZNK4QMapIPN10QtMobility25QOrganizerAbstractRequestEP37COrganizerItemRequestsServiceProviderE14const_iteratorneERKS6_)
    t._ZNK4QMapIPN10QtMobility25QOrganizerAbstractRequestEP37COrganizerItemRequestsServiceProviderE15mutableFindNodeEPPN8QMapData4NodeERKS2_ 0x0001c072   Section      108  qorganizeritemrequestqueue.o(t._ZNK4QMapIPN10QtMobility25QOrganizerAbstractRequestEP37COrganizerItemRequestsServiceProviderE15mutableFindNodeEPPN8QMapData4NodeERKS2_)
    t._ZNK4QMapIPN10QtMobility25QOrganizerAbstractRequestEP37COrganizerItemRequestsServiceProviderE4keysEv 0x0001c0e0   Section      108  qorganizeritemrequestqueue.o(t._ZNK4QMapIPN10QtMobility25QOrganizerAbstractRequestEP37COrganizerItemRequestsServiceProviderE4keysEv)
    t._ZNK4QMapIPN10QtMobility25QOrganizerAbstractRequestEP37COrganizerItemRequestsServiceProviderE4keysEv.clean 0x0001c14c   Section       10  qorganizeritemrequestqueue.o(t._ZNK4QMapIPN10QtMobility25QOrganizerAbstractRequestEP37COrganizerItemRequestsServiceProviderE4keysEv.clean)
    t._ZNK4QMapIiN10QtMobility17QOrganizerManager5ErrorEE14const_iteratorneERKS4_ 0x0001c156   Section       18  organizeritemrequestserviceprovider.o(t._ZNK4QMapIiN10QtMobility17QOrganizerManager5ErrorEE14const_iteratorneERKS4_)
    t._ZNK4QMapIiN10QtMobility17QOrganizerManager5ErrorEE15mutableFindNodeEPPN8QMapData4NodeERKi 0x0001c168   Section      108  organizeritemrequestserviceprovider.o(t._ZNK4QMapIiN10QtMobility17QOrganizerManager5ErrorEE15mutableFindNodeEPPN8QMapData4NodeERKi)
    t._ZNK4QMapIiN10QtMobility17QOrganizerManager5ErrorEE4keysEv 0x0001c1d4   Section      108  organizeritemrequestserviceprovider.o(t._ZNK4QMapIiN10QtMobility17QOrganizerManager5ErrorEE4keysEv)
    t._ZNK4QMapIiN10QtMobility17QOrganizerManager5ErrorEE4keysEv.clean 0x0001c240   Section       10  organizeritemrequestserviceprovider.o(t._ZNK4QMapIiN10QtMobility17QOrganizerManager5ErrorEE4keysEv.clean)
    t._ZNK4QMapIiN10QtMobility17QOrganizerManager5ErrorEE6valuesEv 0x0001c24c   Section      108  organizeritemrequestserviceprovider.o(t._ZNK4QMapIiN10QtMobility17QOrganizerManager5ErrorEE6valuesEv)
    t._ZNK4QMapIiN10QtMobility17QOrganizerManager5ErrorEE6valuesEv.clean 0x0001c2b8   Section       10  organizeritemrequestserviceprovider.o(t._ZNK4QMapIiN10QtMobility17QOrganizerManager5ErrorEE6valuesEv.clean)
    t._ZNK4QSetIN10QtMobility16QOrganizerItemIdEE6toListEv 0x0001c2c2   Section      158  qorganizersymbian.o(t._ZNK4QSetIN10QtMobility16QOrganizerItemIdEE6toListEv)
    t._ZNK4QSetIN10QtMobility16QOrganizerItemIdEE6toListEv.clean 0x0001c360   Section       10  qorganizersymbian.o(t._ZNK4QSetIN10QtMobility16QOrganizerItemIdEE6toListEv.clean)
    t._ZNK4QSetIN10QtMobility22QOrganizerCollectionIdEE6toListEv 0x0001c36a   Section      158  qorganizersymbian.o(t._ZNK4QSetIN10QtMobility22QOrganizerCollectionIdEE6toListEv)
    t._ZNK4QSetIN10QtMobility22QOrganizerCollectionIdEE6toListEv.clean 0x0001c408   Section       10  qorganizersymbian.o(t._ZNK4QSetIN10QtMobility22QOrganizerCollectionIdEE6toListEv.clean)
    t._ZNK4QSetIN10QtMobility24QOrganizerRecurrenceRuleEE6toListEv 0x0001c414   Section      168  organizeritemrecurrencetransform.o(t._ZNK4QSetIN10QtMobility24QOrganizerRecurrenceRuleEE6toListEv)
    t._ZNK4QSetIN10QtMobility24QOrganizerRecurrenceRuleEE6toListEv.clean 0x0001c4bc   Section       10  organizeritemrecurrencetransform.o(t._ZNK4QSetIN10QtMobility24QOrganizerRecurrenceRuleEE6toListEv.clean)
    t._ZNK4QSetIN2Qt9DayOfWeekEE7isEmptyEv   0x0001c4c6   Section       20  organizeritemrecurrencetransform.o(t._ZNK4QSetIN2Qt9DayOfWeekEE7isEmptyEv)
    t._ZNK4QSetIiE7isEmptyEv                 0x0001c4da   Section       20  organizeritemrecurrencetransform.o(t._ZNK4QSetIiE7isEmptyEv)
    t._ZNK5QHashI5QDate15QHashDummyValueE8findNodeERKS0_Pj 0x0001c4ee   Section      114  organizeritemrecurrencetransform.o(t._ZNK5QHashI5QDate15QHashDummyValueE8findNodeERKS0_Pj)
    t._ZNK5QHashIN10QtMobility16QOrganizerItemIdE15QHashDummyValueE8findNodeERKS1_Pj 0x0001c560   Section      116  qorganizersymbian.o(t._ZNK5QHashIN10QtMobility16QOrganizerItemIdE15QHashDummyValueE8findNodeERKS1_Pj)
    t._ZNK5QHashIN10QtMobility22QOrganizerCollectionIdE15QHashDummyValueE8findNodeERKS1_Pj 0x0001c5d4   Section      116  qorganizersymbian.o(t._ZNK5QHashIN10QtMobility22QOrganizerCollectionIdE15QHashDummyValueE8findNodeERKS1_Pj)
    t._ZNK5QHashIN10QtMobility24QOrganizerRecurrenceRule5MonthE15QHashDummyValueE8findNodeERKS2_Pj 0x0001c648   Section      100  organizeritemrecurrencetransform.o(t._ZNK5QHashIN10QtMobility24QOrganizerRecurrenceRule5MonthE15QHashDummyValueE8findNodeERKS2_Pj)
    t._ZNK5QHashIN10QtMobility24QOrganizerRecurrenceRuleE15QHashDummyValueE8findNodeERKS1_Pj 0x0001c6ac   Section      116  organizeritemrecurrencetransform.o(t._ZNK5QHashIN10QtMobility24QOrganizerRecurrenceRuleE15QHashDummyValueE8findNodeERKS1_Pj)
    t._ZNK5QHashIN2Qt9DayOfWeekE15QHashDummyValueE8findNodeERKS1_Pj 0x0001c720   Section      100  organizeritemrecurrencetransform.o(t._ZNK5QHashIN2Qt9DayOfWeekE15QHashDummyValueE8findNodeERKS1_Pj)
    t._ZNK5QHashIi15QHashDummyValueE8findNodeERKiPj 0x0001c784   Section       94  organizeritemrecurrencetransform.o(t._ZNK5QHashIi15QHashDummyValueE8findNodeERKiPj)
    t._ZNK5QListI7QStringE8containsERKS0_    0x0001c7e2   Section       74  organizersymbianutils.o(t._ZNK5QListI7QStringE8containsERKS0_)
    t._ZNK5QListIN10QtMobility14QOrganizerItemEE7isEmptyEv 0x0001c82c   Section       24  organizeritemrequestserviceprovider.o(t._ZNK5QListIN10QtMobility14QOrganizerItemEE7isEmptyEv)
    t._ZNK5QListIN10QtMobility16QOrganizerItemIdEE2atEi 0x0001c844   Section      128  organizeritemrequestserviceprovider.o(t._ZNK5QListIN10QtMobility16QOrganizerItemIdEE2atEi)
    t._ZNK5QListIN10QtMobility16QOrganizerItemIdEE5countEv 0x0001c8c4   Section       12  organizeritemrequestserviceprovider.o(t._ZNK5QListIN10QtMobility16QOrganizerItemIdEE5countEv)
    t._ZNK5QListIN10QtMobility17QOrganizerManager5ErrorEE2atEi 0x0001c8d0   Section      128  organizeritemrequestserviceprovider.o(t._ZNK5QListIN10QtMobility17QOrganizerManager5ErrorEE2atEi)
    t._ZNK5QListIN10QtMobility22QOrganizerCollectionIdEE7isEmptyEv 0x0001c950   Section       24  qorganizersymbian.o(t._ZNK5QListIN10QtMobility22QOrganizerCollectionIdEE7isEmptyEv)
    t._ZNK5QListIPN10QtMobility25QOrganizerAbstractRequestEE8containsERKS2_ 0x0001c968   Section       66  qorganizeritemrequestqueue.o(t._ZNK5QListIPN10QtMobility25QOrganizerAbstractRequestEE8containsERKS2_)
    .extab._ZN28QOrganizerItemSymbianFactoryD1Ev 0x0001c9ac   Data           0  moc_qorganizersymbian_p.o(.ARM.extab)
    .extab._ZN26QOrganizerItemRequestQueueC1ER27QOrganizerItemSymbianEngine 0x0001c9bc   Data           0  qorganizeritemrequestqueue.o(.ARM.extab)
    .extab._ZN26QOrganizerItemRequestQueue8instanceER27QOrganizerItemSymbianEngine 0x0001c9cc   Data           0  qorganizeritemrequestqueue.o(.ARM.extab)
    .extab._ZN26QOrganizerItemRequestQueueD1Ev 0x0001c9dc   Data           0  qorganizeritemrequestqueue.o(.ARM.extab)
    .extab._ZN26QOrganizerItemRequestQueue12startRequestEPN10QtMobility25QOrganizerAbstractRequestE 0x0001ca0c   Data           0  qorganizeritemrequestqueue.o(.ARM.extab)
    .extab._ZN26QOrganizerItemRequestQueue22waitForRequestFinishedEPN10QtMobility25QOrganizerAbstractRequestEi 0x0001ca3c   Data           0  qorganizeritemrequestqueue.o(.ARM.extab)
    .extab._ZN4QMapIPN10QtMobility25QOrganizerAbstractRequestEP37COrganizerItemRequestsServiceProviderE13detach_helperEv 0x0001ca54   Data           0  qorganizeritemrequestqueue.o(.ARM.extab)
    .extab._ZN5QListIPN10QtMobility25QOrganizerAbstractRequestEE18detach_helper_growEii 0x0001ca70   Data           0  qorganizeritemrequestqueue.o(.ARM.extab)
    .extab._ZN5QListIPN10QtMobility25QOrganizerAbstractRequestEE6appendERKS2_ 0x0001caa0   Data           0  qorganizeritemrequestqueue.o(.ARM.extab)
    .extab._ZN5QListIPN10QtMobility25QOrganizerAbstractRequestEE13detach_helperEi 0x0001cabc   Data           0  qorganizeritemrequestqueue.o(.ARM.extab)
    .extab._ZNK4QMapIPN10QtMobility25QOrganizerAbstractRequestEP37COrganizerItemRequestsServiceProviderE4keysEv 0x0001cad8   Data           0  qorganizeritemrequestqueue.o(.ARM.extab)
    .extab._ZN37COrganizerItemRequestsServiceProviderC1ER27QOrganizerItemSymbianEngine 0x0001cae8   Data           0  organizeritemrequestserviceprovider.o(.ARM.extab)
    .extab._ZN37COrganizerItemRequestsServiceProviderD1Ev 0x0001cb08   Data           0  organizeritemrequestserviceprovider.o(.ARM.extab)
    .extab._ZN37COrganizerItemRequestsServiceProvider5ResetEv 0x0001cb28   Data           0  organizeritemrequestserviceprovider.o(.ARM.extab)
    .extab._ZN37COrganizerItemRequestsServiceProvider12StartRequestEPN10QtMobility25QOrganizerAbstractRequestE 0x0001cb38   Data           0  organizeritemrequestserviceprovider.o(.ARM.extab)
    .extab._ZN37COrganizerItemRequestsServiceProvider15SaveCollectionsEv 0x0001cb68   Data           0  organizeritemrequestserviceprovider.o(.ARM.extab)
    .extab._ZN37COrganizerItemRequestsServiceProvider17RemoveCollectionsEv 0x0001cb88   Data           0  organizeritemrequestserviceprovider.o(.ARM.extab)
    .extab._ZN37COrganizerItemRequestsServiceProvider16FetchCollectionsEv 0x0001cba8   Data           0  organizeritemrequestserviceprovider.o(.ARM.extab)
    .extab._ZN37COrganizerItemRequestsServiceProvider21FetchDetailDefinitionEv 0x0001cbb8   Data           0  organizeritemrequestserviceprovider.o(.ARM.extab)
    .extab._ZN37COrganizerItemRequestsServiceProvider8SaveItemEv 0x0001cc58   Data           0  organizeritemrequestserviceprovider.o(.ARM.extab)
    .extab._ZN37COrganizerItemRequestsServiceProvider10RemoveItemEv 0x0001ccc0   Data           0  organizeritemrequestserviceprovider.o(.ARM.extab)
    .extab._ZN37COrganizerItemRequestsServiceProvider12FetchItemIdsEv 0x0001cce0   Data           0  organizeritemrequestserviceprovider.o(.ARM.extab)
    .extab._ZN37COrganizerItemRequestsServiceProvider19FetchItemsandFilterEv 0x0001cd28   Data           0  organizeritemrequestserviceprovider.o(.ARM.extab)
    .extab._ZN37COrganizerItemRequestsServiceProvider15FetchItemsByIdsEv 0x0001cd90   Data           0  organizeritemrequestserviceprovider.o(.ARM.extab)
    .extab._ZN37COrganizerItemRequestsServiceProvider19FetchItemsForExportEv 0x0001ce00   Data           0  organizeritemrequestserviceprovider.o(.ARM.extab)
    .extab._ZN37COrganizerItemRequestsServiceProvider10FetchItemsEv 0x0001ce68   Data           0  organizeritemrequestserviceprovider.o(.ARM.extab)
    .extab._ZN5QListIiE13detach_helperEi     0x0001cec0   Data           0  organizeritemrequestserviceprovider.o(.ARM.extab)
    .extab._ZN5QListIN10QtMobility16QOrganizerItemIdEE5clearEv 0x0001cedc   Data           0  organizeritemrequestserviceprovider.o(.ARM.extab)
    .extab._ZN4QMapIiN10QtMobility17QOrganizerManager5ErrorEE13detach_helperEv 0x0001ceec   Data           0  organizeritemrequestserviceprovider.o(.ARM.extab)
    .extab._ZN4QMapI7QStringN10QtMobility30QOrganizerItemDetailDefinitionEE11node_createEP8QMapDataPPNS4_4NodeERKS0_RKS2_ 0x0001cf08   Data           0  organizeritemrequestserviceprovider.o(.ARM.extab)
    .extab._ZN4QMapI7QStringN10QtMobility30QOrganizerItemDetailDefinitionEE13detach_helperEv 0x0001cf54   Data           0  organizeritemrequestserviceprovider.o(.ARM.extab)
    .extab._ZN5QListIN10QtMobility14QOrganizerItemEE9node_copyEPNS2_4NodeES4_S4_ 0x0001cf70   Data           0  organizeritemrequestserviceprovider.o(.ARM.extab)
    .extab._ZN5QListIN10QtMobility14QOrganizerItemEE13detach_helperEi 0x0001cf94   Data           0  organizeritemrequestserviceprovider.o(.ARM.extab)
    .extab._ZN5QListIiE18detach_helper_growEii 0x0001cfb0   Data           0  organizeritemrequestserviceprovider.o(.ARM.extab)
    .extab._ZN5QListIiE6appendERKi           0x0001cfe0   Data           0  organizeritemrequestserviceprovider.o(.ARM.extab)
    .extab._ZNK4QMapIiN10QtMobility17QOrganizerManager5ErrorEE4keysEv 0x0001cffc   Data           0  organizeritemrequestserviceprovider.o(.ARM.extab)
    .extab._ZN5QListIN10QtMobility17QOrganizerManager5ErrorEE9node_copyEPNS3_4NodeES5_S5_ 0x0001d00c   Data           0  organizeritemrequestserviceprovider.o(.ARM.extab)
    .extab._ZN5QListIN10QtMobility17QOrganizerManager5ErrorEE18detach_helper_growEii 0x0001d028   Data           0  organizeritemrequestserviceprovider.o(.ARM.extab)
    .extab._ZN5QListIN10QtMobility17QOrganizerManager5ErrorEE6appendERKS2_ 0x0001d058   Data           0  organizeritemrequestserviceprovider.o(.ARM.extab)
    .extab._ZN5QListIN10QtMobility17QOrganizerManager5ErrorEE13detach_helperEi 0x0001d088   Data           0  organizeritemrequestserviceprovider.o(.ARM.extab)
    .extab._ZNK4QMapIiN10QtMobility17QOrganizerManager5ErrorEE6valuesEv 0x0001d0a4   Data           0  organizeritemrequestserviceprovider.o(.ARM.extab)
    .extab._ZN5QListIN10QtMobility14QOrganizerItemEE18detach_helper_growEii 0x0001d0b4   Data           0  organizeritemrequestserviceprovider.o(.ARM.extab)
    .extab._ZN5QListIN10QtMobility14QOrganizerItemEEpLERKS2_ 0x0001d0e4   Data           0  organizeritemrequestserviceprovider.o(.ARM.extab)
    .extab._ZN5QListIN10QtMobility14QOrganizerItemEE14node_constructEPNS2_4NodeERKS1_ 0x0001d100   Data           0  organizeritemrequestserviceprovider.o(.ARM.extab)
    .extab._ZN5QListIN10QtMobility14QOrganizerItemEE6appendERKS1_ 0x0001d110   Data           0  organizeritemrequestserviceprovider.o(.ARM.extab)
    .extab.qt_plugin_instance                0x0001d140   Data           0  qorganizersymbian.o(.ARM.extab)
    .extab._ZNK35QOrganizerCollectionSymbianEngineId10managerUriEv 0x0001d158   Data           0  qorganizersymbian.o(.ARM.extab)
    .extab._ZNK35QOrganizerCollectionSymbianEngineId5cloneEv 0x0001d170   Data           0  qorganizersymbian.o(.ARM.extab)
    .extab._ZNK29QOrganizerItemSymbianEngineId10managerUriEv 0x0001d180   Data           0  qorganizersymbian.o(.ARM.extab)
    .extab._ZNK29QOrganizerItemSymbianEngineId5cloneEv 0x0001d198   Data           0  qorganizersymbian.o(.ARM.extab)
    .extab._ZNK29QOrganizerItemSymbianEngineId8toStringEv 0x0001d1a8   Data           0  qorganizersymbian.o(.ARM.extab)
    .extab._ZN27QOrganizerItemSymbianEngine11initializeLEv 0x0001d1c8   Data           0  qorganizersymbian.o(.ARM.extab)
    .extab._ZN27QOrganizerItemSymbianEngineC1Ev 0x0001d240   Data           0  qorganizersymbian.o(.ARM.extab)
    .extab._ZN28QOrganizerItemSymbianFactory6engineERK4QMapI7QStringS1_EPN10QtMobility17QOrganizerManager5ErrorE 0x0001d268   Data           0  qorganizersymbian.o(.ARM.extab)
    .extab._ZNK28QOrganizerItemSymbianFactory18createItemEngineIdERK4QMapI7QStringS1_ERKS1_ 0x0001d2a0   Data           0  qorganizersymbian.o(.ARM.extab)
    .extab._ZNK28QOrganizerItemSymbianFactory24createCollectionEngineIdERK4QMapI7QStringS1_ERKS1_ 0x0001d2e8   Data           0  qorganizersymbian.o(.ARM.extab)
    .extab._ZN27QOrganizerItemSymbianEngineD1Ev 0x0001d2f8   Data           0  qorganizersymbian.o(.ARM.extab)
    .extab._ZNK27QOrganizerItemSymbianEngine10entryViewLERKN10QtMobility22QOrganizerCollectionIdE 0x0001d328   Data           0  qorganizersymbian.o(.ARM.extab)
    .extab._ZNK27QOrganizerItemSymbianEngine17findParentEntryLCERKN10QtMobility22QOrganizerCollectionIdERKNS0_14QOrganizerItemERK6TDesC8 0x0001d358   Data           0  qorganizersymbian.o(.ARM.extab)
    .extab._ZNK27QOrganizerItemSymbianEngine18toItemOccurrencesLERK13RPointerArrayI12CCalInstanceEN10QtMobility14QOrganizerItemEiNS5_22QOrganizerCollectionIdER5QListIS6_E 0x0001d3b8   Data           0  qorganizersymbian.o(.ARM.extab)
    .extab._ZNK27QOrganizerItemSymbianEngine16itemOccurrencesLERKN10QtMobility16QOrganizerItemIdERK9QDateTimeS6_iRKNS0_23QOrganizerItemFetchHintE 0x0001d448   Data           0  qorganizersymbian.o(.ARM.extab)
    .extab._ZNK27QOrganizerItemSymbianEngine15itemOccurrencesERKN10QtMobility14QOrganizerItemERK9QDateTimeS6_iRKNS0_23QOrganizerItemFetchHintEPNS0_17QOrganizerManager5ErrorE 0x0001d4d8   Data           0  qorganizersymbian.o(.ARM.extab)
    .extab._ZNK27QOrganizerItemSymbianEngine15slowFilterItemsERK5QListIN10QtMobility14QOrganizerItemEERKNS1_20QOrganizerItemFilterERKS0_INS1_23QOrganizerItemSortOrderEE 0x0001d530   Data           0  qorganizersymbian.o(.ARM.extab)
    .extab._ZNK27QOrganizerItemSymbianEngine27filteredSymbianCollectionsLERKN10QtMobility20QOrganizerItemFilterE 0x0001d550   Data           0  qorganizersymbian.o(.ARM.extab)
    .extab._ZNK27QOrganizerItemSymbianEngine16itemOccurrencesLERK9QDateTimeS2_RKN10QtMobility20QOrganizerItemFilterERK5QListINS3_23QOrganizerItemSortOrderEERKNS3_23QOrganizerItemFetchHintE 0x0001d618   Data           0  qorganizersymbian.o(.ARM.extab)
    .extab._ZNK27QOrganizerItemSymbianEngine5itemsERK9QDateTimeS2_RKN10QtMobility20QOrganizerItemFilterERK5QListINS3_23QOrganizerItemSortOrderEERKNS3_23QOrganizerItemFetchHintEPNS3_17QOrganizerManager5ErrorE 0x0001d678   Data           0  qorganizersymbian.o(.ARM.extab)
    .extab._ZNK27QOrganizerItemSymbianEngine5itemLERKN10QtMobility16QOrganizerItemIdERKNS0_23QOrganizerItemFetchHintE 0x0001d6c0   Data           0  qorganizersymbian.o(.ARM.extab)
    .extab._ZNK27QOrganizerItemSymbianEngine14slowFilterIdsLERK5QListIN10QtMobility16QOrganizerItemIdEERKNS1_20QOrganizerItemFilterERKS0_INS1_23QOrganizerItemSortOrderEE 0x0001d770   Data           0  qorganizersymbian.o(.ARM.extab)
    .extab._ZNK27QOrganizerItemSymbianEngine8itemIdsLERK5QListI26OrganizerSymbianCollectionERK9QDateTimeS7_ 0x0001d7e0   Data           0  qorganizersymbian.o(.ARM.extab)
    .extab._ZNK27QOrganizerItemSymbianEngine8itemIdsLERK9QDateTimeS2_RKN10QtMobility20QOrganizerItemFilterERK5QListINS3_23QOrganizerItemSortOrderEE 0x0001d830   Data           0  qorganizersymbian.o(.ARM.extab)
    .extab._ZNK27QOrganizerItemSymbianEngine7itemIdsERK9QDateTimeS2_RKN10QtMobility20QOrganizerItemFilterERK5QListINS3_23QOrganizerItemSortOrderEEPNS3_17QOrganizerManager5ErrorE 0x0001d850   Data           0  qorganizersymbian.o(.ARM.extab)
    .extab._ZNK27QOrganizerItemSymbianEngine21slowFilterIdsToItemsLERK5QListIN10QtMobility16QOrganizerItemIdEERKNS1_20QOrganizerItemFilterERKS0_INS1_23QOrganizerItemSortOrderEE 0x0001d898   Data           0  qorganizersymbian.o(.ARM.extab)
    .extab._ZNK27QOrganizerItemSymbianEngine15itemsForExportLERK9QDateTimeS2_RKN10QtMobility20QOrganizerItemFilterERK5QListINS3_23QOrganizerItemSortOrderEE 0x0001d8d8   Data           0  qorganizersymbian.o(.ARM.extab)
    .extab._ZNK27QOrganizerItemSymbianEngine14itemsForExportERK9QDateTimeS2_RKN10QtMobility20QOrganizerItemFilterERK5QListINS3_23QOrganizerItemSortOrderEERKNS3_23QOrganizerItemFetchHintEPNS3_17QOrganizerManager5ErrorE 0x0001d8f8   Data           0  qorganizersymbian.o(.ARM.extab)
    .extab._ZNK27QOrganizerItemSymbianEngine4itemERKN10QtMobility16QOrganizerItemIdERKNS0_23QOrganizerItemFetchHintEPNS0_17QOrganizerManager5ErrorE 0x0001d940   Data           0  qorganizersymbian.o(.ARM.extab)
    .extab._ZNK27QOrganizerItemSymbianEngine10findEntryLERKN10QtMobility22QOrganizerCollectionIdERKNS0_16QOrganizerItemIdE7QString 0x0001d988   Data           0  qorganizersymbian.o(.ARM.extab)
    .extab._ZNK27QOrganizerItemSymbianEngine13entryForItemLERKN10QtMobility22QOrganizerCollectionIdERKNS0_14QOrganizerItemERb 0x0001d998   Data           0  qorganizersymbian.o(.ARM.extab)
    .extab._ZNK27QOrganizerItemSymbianEngine23entryForItemOccurrenceLERKN10QtMobility22QOrganizerCollectionIdERKNS0_14QOrganizerItemERb 0x0001d9c8   Data           0  qorganizersymbian.o(.ARM.extab)
    .extab._ZNK27QOrganizerItemSymbianEngine13collectionIdLERKN10QtMobility14QOrganizerItemERKNS0_22QOrganizerCollectionIdE 0x0001da50   Data           0  qorganizersymbian.o(.ARM.extab)
    .extab._ZN27QOrganizerItemSymbianEngine9saveItemLEPN10QtMobility14QOrganizerItemEPNS0_23QOrganizerItemChangeSetE 0x0001da70   Data           0  qorganizersymbian.o(.ARM.extab)
    .extab._ZN27QOrganizerItemSymbianEngine8saveItemEPN10QtMobility14QOrganizerItemEPNS0_17QOrganizerManager5ErrorE 0x0001db20   Data           0  qorganizersymbian.o(.ARM.extab)
    .extab._ZN27QOrganizerItemSymbianEngine9saveItemsEP5QListIN10QtMobility14QOrganizerItemEEP4QMapIiNS1_17QOrganizerManager5ErrorEEPS7_ 0x0001db60   Data           0  qorganizersymbian.o(.ARM.extab)
    .extab._ZN27QOrganizerItemSymbianEngine11removeItemLERKN10QtMobility16QOrganizerItemIdE 0x0001dbb8   Data           0  qorganizersymbian.o(.ARM.extab)
    .extab._ZN27QOrganizerItemSymbianEngine10removeItemERKN10QtMobility16QOrganizerItemIdEPNS0_17QOrganizerManager5ErrorE 0x0001dbe0   Data           0  qorganizersymbian.o(.ARM.extab)
    .extab._ZN27QOrganizerItemSymbianEngine11removeItemsERK5QListIN10QtMobility16QOrganizerItemIdEEP4QMapIiNS1_17QOrganizerManager5ErrorEEPS8_ 0x0001dc18   Data           0  qorganizersymbian.o(.ARM.extab)
    .extab._ZNK27QOrganizerItemSymbianEngine10collectionERKN10QtMobility22QOrganizerCollectionIdEPNS0_17QOrganizerManager5ErrorE 0x0001dc58   Data           0  qorganizersymbian.o(.ARM.extab)
    .extab._ZNK27QOrganizerItemSymbianEngine12collectionsLEv 0x0001dc68   Data           0  qorganizersymbian.o(.ARM.extab)
    .extab._ZNK27QOrganizerItemSymbianEngine11collectionsEPN10QtMobility17QOrganizerManager5ErrorE 0x0001dcb8   Data           0  qorganizersymbian.o(.ARM.extab)
    .extab._ZN27QOrganizerItemSymbianEngine15saveCollectionLEPN10QtMobility20QOrganizerCollectionE 0x0001dd00   Data           0  qorganizersymbian.o(.ARM.extab)
    .extab._ZN27QOrganizerItemSymbianEngine14saveCollectionEPN10QtMobility20QOrganizerCollectionEPNS0_17QOrganizerManager5ErrorE 0x0001de48   Data           0  qorganizersymbian.o(.ARM.extab)
    .extab._ZN27QOrganizerItemSymbianEngine17removeCollectionLERKN10QtMobility22QOrganizerCollectionIdE 0x0001de98   Data           0  qorganizersymbian.o(.ARM.extab)
    .extab._ZN27QOrganizerItemSymbianEngine16removeCollectionERKN10QtMobility22QOrganizerCollectionIdEPNS0_17QOrganizerManager5ErrorE 0x0001df10   Data           0  qorganizersymbian.o(.ARM.extab)
    .extab._ZNK27QOrganizerItemSymbianEngine14compatibleItemERKN10QtMobility14QOrganizerItemEPNS0_17QOrganizerManager5ErrorE 0x0001df48   Data           0  qorganizersymbian.o(.ARM.extab)
    .extab._ZNK27QOrganizerItemSymbianEngine25isCollectionNameAvailableE7QString 0x0001df80   Data           0  qorganizersymbian.o(.ARM.extab)
    .extab._ZNK27QOrganizerItemSymbianEngine20compatibleCollectionERKN10QtMobility20QOrganizerCollectionEPNS0_17QOrganizerManager5ErrorE 0x0001dfc0   Data           0  qorganizersymbian.o(.ARM.extab)
    .extab._ZNK27QOrganizerItemSymbianEngine17detailDefinitionsERK7QStringPN10QtMobility17QOrganizerManager5ErrorE 0x0001e0a8   Data           0  qorganizersymbian.o(.ARM.extab)
    .extab._ZNK27QOrganizerItemSymbianEngine18supportedDataTypesEv 0x0001e0b8   Data           0  qorganizersymbian.o(.ARM.extab)
    .extab._ZNK27QOrganizerItemSymbianEngine18supportedItemTypesEv 0x0001e0c8   Data           0  qorganizersymbian.o(.ARM.extab)
    .extab._ZN27QOrganizerItemSymbianEngine31CalendarInfoChangeNotificationLER13RPointerArrayI18CCalFileChangeInfoE 0x0001e0e0   Data           0  qorganizersymbian.o(.ARM.extab)
    .extab._ZNK27QOrganizerItemSymbianEngine13instanceViewLERKN10QtMobility22QOrganizerCollectionIdE 0x0001e1f0   Data           0  qorganizersymbian.o(.ARM.extab)
    .extab._Z24qMetaTypeConstructHelperIN10QtMobility16QOrganizerItemIdEEPvPKT_ 0x0001e220   Data           0  qorganizersymbian.o(.ARM.extab)
    .extab._ZN5QListI26OrganizerSymbianCollectionE9node_copyEPNS1_4NodeES3_S3_ 0x0001e238   Data           0  qorganizersymbian.o(.ARM.extab)
    .extab._ZN5QListI26OrganizerSymbianCollectionE13detach_helperEi 0x0001e25c   Data           0  qorganizersymbian.o(.ARM.extab)
    .extab._Z20qForeachContainerNewI5QListI26OrganizerSymbianCollectionEE17QForeachContainerIT_ERKS4_ 0x0001e278   Data           0  qorganizersymbian.o(.ARM.extab)
    .extab._ZN5QListIN10QtMobility16QOrganizerItemIdEE9node_copyEPNS2_4NodeES4_S4_ 0x0001e288   Data           0  qorganizersymbian.o(.ARM.extab)
    .extab._ZN5QListIN10QtMobility16QOrganizerItemIdEE13detach_helperEi 0x0001e2ac   Data           0  qorganizersymbian.o(.ARM.extab)
    .extab._Z20qForeachContainerNewI5QListIN10QtMobility16QOrganizerItemIdEEE17QForeachContainerIT_ERKS5_ 0x0001e2c8   Data           0  qorganizersymbian.o(.ARM.extab)
    .extab._Z20qForeachContainerNewI5QListIN10QtMobility14QOrganizerItemEEE17QForeachContainerIT_ERKS5_ 0x0001e2d8   Data           0  qorganizersymbian.o(.ARM.extab)
    .extab._ZN5QListIN10QtMobility20QOrganizerItemFilterEE9node_copyEPNS2_4NodeES4_S4_ 0x0001e2e8   Data           0  qorganizersymbian.o(.ARM.extab)
    .extab._ZN5QListIN10QtMobility20QOrganizerItemFilterEE13detach_helperEi 0x0001e30c   Data           0  qorganizersymbian.o(.ARM.extab)
    .extab._ZN5QListIN10QtMobility22QOrganizerCollectionIdEE9node_copyEPNS2_4NodeES4_S4_ 0x0001e328   Data           0  qorganizersymbian.o(.ARM.extab)
    .extab._ZN5QListIN10QtMobility22QOrganizerCollectionIdEE13detach_helperEi 0x0001e34c   Data           0  qorganizersymbian.o(.ARM.extab)
    .extab._Z20qForeachContainerNewI5QListIN10QtMobility22QOrganizerCollectionIdEEE17QForeachContainerIT_ERKS5_ 0x0001e368   Data           0  qorganizersymbian.o(.ARM.extab)
    .extab._ZN4QMapIN10QtMobility22QOrganizerCollectionIdE26OrganizerSymbianCollectionE11node_createEP8QMapDataPPNS4_4NodeERKS1_RKS2_ 0x0001e378   Data           0  qorganizersymbian.o(.ARM.extab)
    .extab._ZN4QMapIN10QtMobility22QOrganizerCollectionIdE26OrganizerSymbianCollectionE13detach_helperEv 0x0001e3c4   Data           0  qorganizersymbian.o(.ARM.extab)
    .extab._ZN5QListI7QStringE9node_copyEPNS1_4NodeES3_S3_ 0x0001e3e0   Data           0  qorganizersymbian.o(.ARM.extab)
    .extab._ZN5QListI7QStringE13detach_helperEi 0x0001e404   Data           0  qorganizersymbian.o(.ARM.extab)
    .extab._ZN5QListI7QStringE14node_constructEPNS1_4NodeERKS0_ 0x0001e420   Data           0  qorganizersymbian.o(.ARM.extab)
    .extab._ZN5QListI7QStringE18detach_helper_growEii 0x0001e430   Data           0  qorganizersymbian.o(.ARM.extab)
    .extab._ZN5QListI7QStringE6appendERKS0_  0x0001e460   Data           0  qorganizersymbian.o(.ARM.extab)
    .extab._ZN6QDebuglsEPKc                  0x0001e490   Data           0  qorganizersymbian.o(.ARM.extab)
    .extab._ZN6QDebuglsEy                    0x0001e4a0   Data           0  qorganizersymbian.o(.ARM.extab)
    .extab._ZN10QtMobility20QOrganizerItemParent15setOriginalDateERK5QDate 0x0001e4b0   Data           0  qorganizersymbian.o(.ARM.extab)
    .extab._ZN10QtMobility20QOrganizerItemParent11setParentIdERKNS_16QOrganizerItemIdE 0x0001e4c0   Data           0  qorganizersymbian.o(.ARM.extab)
    .extab._ZNK10QtMobility14QOrganizerItem6detailINS_20QOrganizerItemParentEEET_v 0x0001e4d0   Data           0  qorganizersymbian.o(.ARM.extab)
    .extab._ZNK10QtMobility20QOrganizerItemParent8parentIdEv 0x0001e4e0   Data           0  qorganizersymbian.o(.ARM.extab)
    .extab._ZN5QListI26OrganizerSymbianCollectionE14node_constructEPNS1_4NodeERKS0_ 0x0001e4f8   Data           0  qorganizersymbian.o(.ARM.extab)
    .extab._ZN5QListI26OrganizerSymbianCollectionE18detach_helper_growEii 0x0001e508   Data           0  qorganizersymbian.o(.ARM.extab)
    .extab._ZN5QListI26OrganizerSymbianCollectionE6appendERKS0_ 0x0001e538   Data           0  qorganizersymbian.o(.ARM.extab)
    .extab._ZNK4QMapIN10QtMobility22QOrganizerCollectionIdE26OrganizerSymbianCollectionE6valuesEv 0x0001e568   Data           0  qorganizersymbian.o(.ARM.extab)
    .extab._ZN5QListIN10QtMobility22QOrganizerCollectionIdEE14node_constructEPNS2_4NodeERKS1_ 0x0001e578   Data           0  qorganizersymbian.o(.ARM.extab)
    .extab._ZN5QListIN10QtMobility22QOrganizerCollectionIdEE18detach_helper_growEii 0x0001e588   Data           0  qorganizersymbian.o(.ARM.extab)
    .extab._ZN5QListIN10QtMobility22QOrganizerCollectionIdEE6appendERKS1_ 0x0001e5b8   Data           0  qorganizersymbian.o(.ARM.extab)
    .extab._ZNK4QSetIN10QtMobility22QOrganizerCollectionIdEE6toListEv 0x0001e5e8   Data           0  qorganizersymbian.o(.ARM.extab)
    .extab._ZN5QListIN10QtMobility22QOrganizerCollectionIdEEpLERKS2_ 0x0001e5f8   Data           0  qorganizersymbian.o(.ARM.extab)
    .extab._ZN5QListIN10QtMobility20QOrganizerItemFilterEE14node_constructEPNS2_4NodeERKS1_ 0x0001e614   Data           0  qorganizersymbian.o(.ARM.extab)
    .extab._ZN5QListIN10QtMobility20QOrganizerItemFilterEE18detach_helper_growEii 0x0001e624   Data           0  qorganizersymbian.o(.ARM.extab)
    .extab._ZN5QListIN10QtMobility20QOrganizerItemFilterEE6appendERKS1_ 0x0001e654   Data           0  qorganizersymbian.o(.ARM.extab)
    .extab._ZN5QListIN10QtMobility16QOrganizerItemIdEE14node_constructEPNS2_4NodeERKS1_ 0x0001e684   Data           0  qorganizersymbian.o(.ARM.extab)
    .extab._ZN5QListIN10QtMobility16QOrganizerItemIdEE18detach_helper_growEii 0x0001e694   Data           0  qorganizersymbian.o(.ARM.extab)
    .extab._ZN5QListIN10QtMobility16QOrganizerItemIdEE6appendERKS1_ 0x0001e6c4   Data           0  qorganizersymbian.o(.ARM.extab)
    .extab._ZNK4QSetIN10QtMobility16QOrganizerItemIdEE6toListEv 0x0001e6f4   Data           0  qorganizersymbian.o(.ARM.extab)
    .extab._ZN4QMapIN10QtMobility22QOrganizerCollectionIdE26OrganizerSymbianCollectionEixERKS1_ 0x0001e704   Data           0  qorganizersymbian.o(.ARM.extab)
    .extab._ZNK10QtMobility20QOrganizerItemParent12originalDateEv 0x0001e714   Data           0  qorganizersymbian.o(.ARM.extab)
    .extab._ZN5QListIN10QtMobility20QOrganizerCollectionEE14node_constructEPNS2_4NodeERKS1_ 0x0001e724   Data           0  qorganizersymbian.o(.ARM.extab)
    .extab._ZN5QListIN10QtMobility20QOrganizerCollectionEE9node_copyEPNS2_4NodeES4_S4_ 0x0001e734   Data           0  qorganizersymbian.o(.ARM.extab)
    .extab._ZN5QListIN10QtMobility20QOrganizerCollectionEE18detach_helper_growEii 0x0001e758   Data           0  qorganizersymbian.o(.ARM.extab)
    .extab._ZN5QListIN10QtMobility20QOrganizerCollectionEE6appendERKS1_ 0x0001e788   Data           0  qorganizersymbian.o(.ARM.extab)
    .extab._ZNK4QMapIN10QtMobility22QOrganizerCollectionIdE26OrganizerSymbianCollectionE4keysEv 0x0001e7b8   Data           0  qorganizersymbian.o(.ARM.extab)
    .extab._ZN5QListIN10QtMobility20QOrganizerCollectionEE13detach_helperEi 0x0001e7c8   Data           0  qorganizersymbian.o(.ARM.extab)
    .extab._ZN4QMapI7QStringS_IS0_N10QtMobility30QOrganizerItemDetailDefinitionEEE13detach_helperEv 0x0001e7e4   Data           0  qorganizersymbian.o(.ARM.extab)
    .extab._ZN5QHashIN10QtMobility16QOrganizerItemIdE15QHashDummyValueE13duplicateNodeEPN9QHashData4NodeEPv 0x0001e800   Data           0  qorganizersymbian.o(.ARM.extab)
    .extab._ZN4QMapI7QStringS_IS0_N10QtMobility30QOrganizerItemDetailDefinitionEEE11node_createEP8QMapDataPPNS5_4NodeERKS0_RKS3_ 0x0001e810   Data           0  qorganizersymbian.o(.ARM.extab)
    .extab._ZN5QHashIN10QtMobility22QOrganizerCollectionIdE15QHashDummyValueE13duplicateNodeEPN9QHashData4NodeEPv 0x0001e85c   Data           0  qorganizersymbian.o(.ARM.extab)
    .extab._ZN5QHashIN10QtMobility16QOrganizerItemIdE15QHashDummyValueE6insertERKS1_RKS2_ 0x0001e86c   Data           0  qorganizersymbian.o(.ARM.extab)
    .extab._ZN5QHashIN10QtMobility22QOrganizerCollectionIdE15QHashDummyValueE6insertERKS1_RKS2_ 0x0001e87c   Data           0  qorganizersymbian.o(.ARM.extab)
    .extab._ZN33OrganizerSymbianCollectionPrivateC1Ev 0x0001e88c   Data           0  organizersymbiancollection.o(.ARM.extab)
    .extab._ZN33OrganizerSymbianCollectionPrivateD1Ev 0x0001e8a4   Data           0  organizersymbiancollection.o(.ARM.extab)
    .extab._ZN33OrganizerSymbianCollectionPrivate21CalChangeNotificationER6RArrayI15TCalChangeEntryE 0x0001e8bc   Data           0  organizersymbiancollection.o(.ARM.extab)
    .extab._ZN26OrganizerSymbianCollectionC1Ev 0x0001e8dc   Data           0  organizersymbiancollection.o(.ARM.extab)
    .extab._ZN26OrganizerSymbianCollectionC1EPN10QtMobility23QOrganizerManagerEngineE 0x0001e8f4   Data           0  organizersymbiancollection.o(.ARM.extab)
    .extab._ZN26OrganizerSymbianCollection5openLERK7TDesC16PK16CCalCalendarInfo 0x0001e90c   Data           0  organizersymbiancollection.o(.ARM.extab)
    .extab._ZNK26OrganizerSymbianCollection20isMarkedForDeletionLEv 0x0001e94c   Data           0  organizersymbiancollection.o(.ARM.extab)
    .extab._ZNK26OrganizerSymbianCollection23toQOrganizerCollectionLEv 0x0001e97c   Data           0  organizersymbiancollection.o(.ARM.extab)
    .extab._ZN5CBasenwEj                     0x0001e9ac   Data           0  organizersymbiancollection.o(.ARM.extab)
    .extab._ZN21OrganizerSymbianUtils7toTTimeERK9QDateTimeN2Qt8TimeSpecE 0x0001e9bc   Data           0  organizersymbianutils.o(.ARM.extab)
    .extab._ZN21OrganizerSymbianUtils11toTCalTimeLERK5QDate 0x0001e9cc   Data           0  organizersymbianutils.o(.ARM.extab)
    .extab._ZN21OrganizerSymbianUtils11toQDateTimeERK5TTimeN2Qt8TimeSpecE 0x0001e9dc   Data           0  organizersymbianutils.o(.ARM.extab)
    .extab._ZN21OrganizerSymbianUtils14toCollectionIdEy 0x0001e9ec   Data           0  organizersymbianutils.o(.ARM.extab)
    .extab._ZN21OrganizerSymbianUtils8toItemIdEyj 0x0001e9fc   Data           0  organizersymbianutils.o(.ARM.extab)
    .extab._ZN21OrganizerSymbianUtils19setCalInfoPropertyLEP16CCalCalendarInfo17TCalenPropertyUidRK7QString 0x0001ea0c   Data           0  organizersymbianutils.o(.ARM.extab)
    .extab._ZN21OrganizerSymbianUtils11toMetaDataLERK16CCalCalendarInfo 0x0001ea1c   Data           0  organizersymbianutils.o(.ARM.extab)
    .extab._ZN21OrganizerSymbianUtils11toCalInfoLCE4QMapI7QString8QVariantE 0x0001ecbc   Data           0  organizersymbianutils.o(.ARM.extab)
    .extab._ZN4QMapI7QString8QVariantE11node_createEP8QMapDataPPNS3_4NodeERKS0_RKS1_ 0x0001ee7c   Data           0  organizersymbianutils.o(.ARM.extab)
    .extab._ZN4QMapI7QString8QVariantE13detach_helperEv 0x0001eec8   Data           0  organizersymbianutils.o(.ARM.extab)
    .extab._ZNK4QMapI7QString8QVariantE4keysEv 0x0001eee4   Data           0  organizersymbianutils.o(.ARM.extab)
    .extab._Z11debugEntryLRK9CCalEntry       0x0001eef4   Data           0  organizeritemtransform.o(.ARM.extab)
    .extab._Z14debugInstanceLRK12CCalInstance 0x0001f00c   Data           0  organizeritemtransform.o(.ARM.extab)
    .extab._Z15debugSchemaDefsRK4QMapI7QStringS_IS0_N10QtMobility30QOrganizerItemDetailDefinitionEEE 0x0001f0bc   Data           0  organizeritemtransform.o(.ARM.extab)
    .extab._ZN22OrganizerItemTransformC1Ev   0x0001f1a4   Data           0  organizeritemtransform.o(.ARM.extab)
    .extab._ZN22OrganizerItemTransformD1Ev   0x0001f28c   Data           0  organizeritemtransform.o(.ARM.extab)
    .extab._ZNK22OrganizerItemTransform27modifyBaseSchemaDefinitionsER4QMapI7QStringS0_IS1_N10QtMobility30QOrganizerItemDetailDefinitionEEE 0x0001f2ac   Data           0  organizeritemtransform.o(.ARM.extab)
    .extab._ZN22OrganizerItemTransform8toEntryLERKN10QtMobility14QOrganizerItemEP9CCalEntry 0x0001f364   Data           0  organizeritemtransform.o(.ARM.extab)
    .extab._ZNK22OrganizerItemTransform7toItemLERK9CCalEntryPN10QtMobility14QOrganizerItemE 0x0001f374   Data           0  organizeritemtransform.o(.ARM.extab)
    .extab._ZNK22OrganizerItemTransform15toItemPostSaveLERK9CCalEntryPN10QtMobility14QOrganizerItemE7QString 0x0001f384   Data           0  organizeritemtransform.o(.ARM.extab)
    .extab._ZNK22OrganizerItemTransform17toItemOccurrenceLERK12CCalInstancePN10QtMobility14QOrganizerItemE 0x0001f394   Data           0  organizeritemtransform.o(.ARM.extab)
    .extab._Z6qDebugv                        0x0001f3a4   Data           0  organizeritemtransform.o(.ARM.extab)
    .extab._ZN6QDebugD1Ev                    0x0001f3bc   Data           0  organizeritemtransform.o(.ARM.extab)
    .extab._ZNK4QMapI7QStringN10QtMobility35QOrganizerItemDetailFieldDefinitionEE4keysEv 0x0001f3e0   Data           0  organizeritemtransform.o(.ARM.extab)
    .extab._Z20qForeachContainerNewI5QListI7QStringEE17QForeachContainerIT_ERKS4_ 0x0001f3f0   Data           0  organizeritemtransform.o(.ARM.extab)
    .extab._ZNK4QMapI7QStringN10QtMobility30QOrganizerItemDetailDefinitionEE4keysEv 0x0001f400   Data           0  organizeritemtransform.o(.ARM.extab)
    .extab._ZNK4QMapI7QStringS_IS0_N10QtMobility30QOrganizerItemDetailDefinitionEEE4keysEv 0x0001f410   Data           0  organizeritemtransform.o(.ARM.extab)
    .extab._ZN5QListIP28OrganizerItemDetailTransformE13detach_helperEi 0x0001f420   Data           0  organizeritemtransform.o(.ARM.extab)
    .extab._Z20qForeachContainerNewI5QListIP28OrganizerItemDetailTransformEE17QForeachContainerIT_ERKS5_ 0x0001f43c   Data           0  organizeritemtransform.o(.ARM.extab)
    .extab._ZN5QListIP28OrganizerItemDetailTransformE18detach_helper_growEii 0x0001f44c   Data           0  organizeritemtransform.o(.ARM.extab)
    .extab._ZN5QListIP28OrganizerItemDetailTransformE6appendERKS1_ 0x0001f47c   Data           0  organizeritemtransform.o(.ARM.extab)
    .extab._ZN27OrganizerEventTimeTransform18transformToDetailLERK9CCalEntryPN10QtMobility14QOrganizerItemE 0x0001f498   Data           0  organizereventtimerangetransform.o(.ARM.extab)
    .extab._ZN27OrganizerEventTimeTransform18transformToDetailLERK12CCalInstancePN10QtMobility14QOrganizerItemE 0x0001f4e0   Data           0  organizereventtimerangetransform.o(.ARM.extab)
    .extab._ZN27OrganizerEventTimeTransform17transformToEntryLERKN10QtMobility14QOrganizerItemEP9CCalEntry 0x0001f528   Data           0  organizereventtimerangetransform.o(.ARM.extab)
    .extab._ZN10QtMobility19QOrganizerEventTime14setEndDateTimeERK9QDateTime 0x0001f5b8   Data           0  organizereventtimerangetransform.o(.ARM.extab)
    .extab._ZN10QtMobility19QOrganizerEventTime16setStartDateTimeERK9QDateTime 0x0001f5c8   Data           0  organizereventtimerangetransform.o(.ARM.extab)
    .extab._ZN33OrganizerItemDescriptionTransform18transformToDetailLERK9CCalEntryPN10QtMobility14QOrganizerItemE 0x0001f5d8   Data           0  organizeritemdescriptiontransform.o(.ARM.extab)
    .extab._ZN33OrganizerItemDescriptionTransform17transformToEntryLERKN10QtMobility14QOrganizerItemEP9CCalEntry 0x0001f5e8   Data           0  organizeritemdescriptiontransform.o(.ARM.extab)
    .extab._ZN34OrganizerItemDisplayLabelTransform18transformToDetailLERK9CCalEntryPN10QtMobility14QOrganizerItemE 0x0001f600   Data           0  organizeritemdisplaylabeltransform.o(.ARM.extab)
    .extab._ZN34OrganizerItemDisplayLabelTransform17transformToEntryLERKN10QtMobility14QOrganizerItemEP9CCalEntry 0x0001f610   Data           0  organizeritemdisplaylabeltransform.o(.ARM.extab)
    .extab._ZNK34OrganizerItemDisplayLabelTransform27modifyBaseSchemaDefinitionsER4QMapI7QStringS0_IS1_N10QtMobility30QOrganizerItemDetailDefinitionEEE 0x0001f630   Data           0  organizeritemdisplaylabeltransform.o(.ARM.extab)
    .extab._ZN26OrganizerItemGuidTransformC1Ev 0x0001f660   Data           0  organizeritemguidtransform.o(.ARM.extab)
    .extab._ZN26OrganizerItemGuidTransform18transformToDetailLERK9CCalEntryPN10QtMobility14QOrganizerItemE 0x0001f670   Data           0  organizeritemguidtransform.o(.ARM.extab)
    .extab._ZN26OrganizerItemGuidTransform6guidLCERKN10QtMobility14QOrganizerItemE 0x0001f680   Data           0  organizeritemguidtransform.o(.ARM.extab)
    .extab._ZNK30OrganizerItemLocationTransform27modifyBaseSchemaDefinitionsER4QMapI7QStringS0_IS1_N10QtMobility30QOrganizerItemDetailDefinitionEEE 0x0001f6a8   Data           0  organizeritemlocationtransform.o(.ARM.extab)
    .extab._ZN30OrganizerItemLocationTransform18transformToDetailLERK9CCalEntryPN10QtMobility14QOrganizerItemE 0x0001f798   Data           0  organizeritemlocationtransform.o(.ARM.extab)
    .extab._ZN30OrganizerItemLocationTransform17transformToEntryLERKN10QtMobility14QOrganizerItemEP9CCalEntry 0x0001f7d0   Data           0  organizeritemlocationtransform.o(.ARM.extab)
    .extab._ZN4QMapI7QStringN10QtMobility35QOrganizerItemDetailFieldDefinitionEE11node_createEP8QMapDataPPNS4_4NodeERKS0_RKS2_ 0x0001f808   Data           0  organizeritemlocationtransform.o(.ARM.extab)
    .extab._ZN4QMapI7QStringN10QtMobility35QOrganizerItemDetailFieldDefinitionEE13detach_helperEv 0x0001f854   Data           0  organizeritemlocationtransform.o(.ARM.extab)
    .extab._ZNK10QtMobility20QOrganizerItemDetail5valueIdEET_PKc 0x0001f870   Data           0  organizeritemlocationtransform.o(.ARM.extab)
    .extab._ZN30OrganizerItemPriorityTransform18transformToDetailLERK9CCalEntryPN10QtMobility14QOrganizerItemE 0x0001f880   Data           0  organizeritemprioritytransform.o(.ARM.extab)
    .extab._ZN30OrganizerItemPriorityTransform17transformToEntryLERKN10QtMobility14QOrganizerItemEP9CCalEntry 0x0001f898   Data           0  organizeritemprioritytransform.o(.ARM.extab)
    .extab._ZNK32OrganizerItemRecurrenceTransform27modifyBaseSchemaDefinitionsER4QMapI7QStringS0_IS1_N10QtMobility30QOrganizerItemDetailDefinitionEEE 0x0001f8b8   Data           0  organizeritemrecurrencetransform.o(.ARM.extab)
    .extab._ZNK32OrganizerItemRecurrenceTransform9toQDatesLERK6RArrayI8TCalTimeE 0x0001f950   Data           0  organizeritemrecurrencetransform.o(.ARM.extab)
    .extab._ZNK32OrganizerItemRecurrenceTransform22toItemRecurrenceRulesLERK9TCalRRule 0x0001f970   Data           0  organizeritemrecurrencetransform.o(.ARM.extab)
    .extab._ZN32OrganizerItemRecurrenceTransform18transformToDetailLERK9CCalEntryPN10QtMobility14QOrganizerItemE 0x0001f9f0   Data           0  organizeritemrecurrencetransform.o(.ARM.extab)
    .extab._ZNK32OrganizerItemRecurrenceTransform12toTCalTimesLERK4QSetI5QDateER6RArrayI8TCalTimeE 0x0001fa30   Data           0  organizeritemrecurrencetransform.o(.ARM.extab)
    .extab._ZNK32OrganizerItemRecurrenceTransform10toTMonthsLE4QSetIN10QtMobility24QOrganizerRecurrenceRule5MonthEER9TCalRRule 0x0001fa58   Data           0  organizeritemrecurrencetransform.o(.ARM.extab)
    .extab._ZNK32OrganizerItemRecurrenceTransform14toDaysOfMonthLE4QSetIN2Qt9DayOfWeekEES0_IiER9TCalRRule 0x0001fa70   Data           0  organizeritemrecurrencetransform.o(.ARM.extab)
    .extab._ZNK32OrganizerItemRecurrenceTransform12toMonthDaysLE4QSetIiER9TCalRRule 0x0001fa90   Data           0  organizeritemrecurrencetransform.o(.ARM.extab)
    .extab._ZNK32OrganizerItemRecurrenceTransform7toDaysLE4QSetIN2Qt9DayOfWeekEE9QDateTimeR9TCalRRule 0x0001faa0   Data           0  organizeritemrecurrencetransform.o(.ARM.extab)
    .extab._ZNK32OrganizerItemRecurrenceTransform11toCalRRuleLE4QSetIN10QtMobility24QOrganizerRecurrenceRuleEE9QDateTime 0x0001fab0   Data           0  organizeritemrecurrencetransform.o(.ARM.extab)
    .extab._ZN32OrganizerItemRecurrenceTransform17transformToEntryLERKN10QtMobility14QOrganizerItemEP9CCalEntry 0x0001fb98   Data           0  organizeritemrecurrencetransform.o(.ARM.extab)
    .extab._Z20qForeachContainerNewI4QSetIN2Qt9DayOfWeekEEE17QForeachContainerIT_ERKS5_ 0x0001fc80   Data           0  organizeritemrecurrencetransform.o(.ARM.extab)
    .extab._Z20qForeachContainerNewI4QSetIiEE17QForeachContainerIT_ERKS3_ 0x0001fc90   Data           0  organizeritemrecurrencetransform.o(.ARM.extab)
    .extab._ZN5QListIN10QtMobility24QOrganizerRecurrenceRuleEE14node_constructEPNS2_4NodeERKS1_ 0x0001fca0   Data           0  organizeritemrecurrencetransform.o(.ARM.extab)
    .extab._ZN5QListIN10QtMobility24QOrganizerRecurrenceRuleEE9node_copyEPNS2_4NodeES4_S4_ 0x0001fcb0   Data           0  organizeritemrecurrencetransform.o(.ARM.extab)
    .extab._ZN5QListIN10QtMobility24QOrganizerRecurrenceRuleEE18detach_helper_growEii 0x0001fcd4   Data           0  organizeritemrecurrencetransform.o(.ARM.extab)
    .extab._ZN5QListIN10QtMobility24QOrganizerRecurrenceRuleEE6appendERKS1_ 0x0001fd04   Data           0  organizeritemrecurrencetransform.o(.ARM.extab)
    .extab._ZN5QListIN10QtMobility24QOrganizerRecurrenceRuleEE13detach_helperEi 0x0001fd34   Data           0  organizeritemrecurrencetransform.o(.ARM.extab)
    .extab._ZNK4QSetIN10QtMobility24QOrganizerRecurrenceRuleEE6toListEv 0x0001fd50   Data           0  organizeritemrecurrencetransform.o(.ARM.extab)
    .extab._ZN5QHashIN10QtMobility24QOrganizerRecurrenceRuleE15QHashDummyValueE13duplicateNodeEPN9QHashData4NodeEPv 0x0001fd60   Data           0  organizeritemrecurrencetransform.o(.ARM.extab)
    .extab._ZN5QHashIN10QtMobility24QOrganizerRecurrenceRuleE15QHashDummyValueE6insertERKS1_RKS2_ 0x0001fd70   Data           0  organizeritemrecurrencetransform.o(.ARM.extab)
    .extab._ZN31OrganizerItemTimeStampTransform18transformToDetailLERK9CCalEntryPN10QtMobility14QOrganizerItemE 0x0001fd80   Data           0  organizeritemtimestamptransform.o(.ARM.extab)
    .extab._ZN31OrganizerItemTimeStampTransform17transformToEntryLERKN10QtMobility14QOrganizerItemEP9CCalEntry 0x0001fdc0   Data           0  organizeritemtimestamptransform.o(.ARM.extab)
    .extab._ZNK10QtMobility14QOrganizerItem6detailINS_23QOrganizerItemTimestampEEET_v 0x0001fe00   Data           0  organizeritemtimestamptransform.o(.ARM.extab)
    .extab._ZNK26OrganizerItemTypeTransform27modifyBaseSchemaDefinitionsER4QMapI7QStringS0_IS1_N10QtMobility30QOrganizerItemDetailDefinitionEEE 0x0001fe10   Data           0  organizeritemtypetransform.o(.ARM.extab)
    .extab._ZN26OrganizerItemTypeTransform18transformToDetailLERK9CCalEntryPN10QtMobility14QOrganizerItemE 0x0001fe28   Data           0  organizeritemtypetransform.o(.ARM.extab)
    .extab._ZN26OrganizerItemTypeTransform18transformToDetailLERK12CCalInstancePN10QtMobility14QOrganizerItemE 0x0001fe38   Data           0  organizeritemtypetransform.o(.ARM.extab)
    .extab._ZN26OrganizerItemTypeTransform10entryTypeLERKN10QtMobility14QOrganizerItemE 0x0001fe48   Data           0  organizeritemtypetransform.o(.ARM.extab)
    .extab._ZN7QStringaSERK13QLatin1String   0x0001fe58   Data           0  organizeritemtypetransform.o(.ARM.extab)
    .extab._ZN29OrganizerJournalTimeTransform18transformToDetailLERK9CCalEntryPN10QtMobility14QOrganizerItemE 0x0001fe68   Data           0  organizerjournaltimerangetransform.o(.ARM.extab)
    .extab._ZN29OrganizerJournalTimeTransform17transformToEntryLERKN10QtMobility14QOrganizerItemEP9CCalEntry 0x0001fe98   Data           0  organizerjournaltimerangetransform.o(.ARM.extab)
    .extab._ZNK30OrganizerTodoProgressTransform27modifyBaseSchemaDefinitionsER4QMapI7QStringS0_IS1_N10QtMobility30QOrganizerItemDetailDefinitionEEE 0x0001fec8   Data           0  organizertodoprogresstransform.o(.ARM.extab)
    .extab._ZN30OrganizerTodoProgressTransform18transformToDetailLERK9CCalEntryPN10QtMobility14QOrganizerItemE 0x0001ff60   Data           0  organizertodoprogresstransform.o(.ARM.extab)
    .extab._ZN30OrganizerTodoProgressTransform17transformToEntryLERKN10QtMobility14QOrganizerItemEP9CCalEntry 0x0001ffa8   Data           0  organizertodoprogresstransform.o(.ARM.extab)
    .extab._ZN10QtMobility22QOrganizerTodoProgress9setStatusENS0_6StatusE 0x00020000   Data           0  organizertodoprogresstransform.o(.ARM.extab)
    .extab._ZNK10QtMobility22QOrganizerTodoProgress6statusEv 0x00020010   Data           0  organizertodoprogresstransform.o(.ARM.extab)
    .extab._ZNK10QtMobility20QOrganizerItemDetail5valueI9QDateTimeEET_PKc 0x00020020   Data           0  organizertodoprogresstransform.o(.ARM.extab)
    .extab._ZN26OrganizerTodoTimeTransform18transformToDetailLERK9CCalEntryPN10QtMobility14QOrganizerItemE 0x00020038   Data           0  organizertodotimerangetransform.o(.ARM.extab)
    .extab._ZN26OrganizerTodoTimeTransform18transformToDetailLERK12CCalInstancePN10QtMobility14QOrganizerItemE 0x00020080   Data           0  organizertodotimerangetransform.o(.ARM.extab)
    .extab._ZN26OrganizerTodoTimeTransform17transformToEntryLERKN10QtMobility14QOrganizerItemEP9CCalEntry 0x000200c8   Data           0  organizertodotimerangetransform.o(.ARM.extab)
    .extab._ZN10QtMobility18QOrganizerTodoTime14setDueDateTimeERK9QDateTime 0x00020160   Data           0  organizertodotimerangetransform.o(.ARM.extab)
    .extab._ZN10QtMobility18QOrganizerTodoTime16setStartDateTimeERK9QDateTime 0x00020170   Data           0  organizertodotimerangetransform.o(.ARM.extab)
    .extab._ZNK30OrganizerItemReminderTransform27modifyBaseSchemaDefinitionsER4QMapI7QStringS0_IS1_N10QtMobility30QOrganizerItemDetailDefinitionEEE 0x00020180   Data           0  organizeritemremindertransform.o(.ARM.extab)
    .extab._ZN30OrganizerItemReminderTransform18transformToDetailLERK9CCalEntryPN10QtMobility14QOrganizerItemE 0x00020230   Data           0  organizeritemremindertransform.o(.ARM.extab)
    .extab._ZN30OrganizerItemReminderTransform17transformToEntryLERKN10QtMobility14QOrganizerItemEP9CCalEntry 0x00020248   Data           0  organizeritemremindertransform.o(.ARM.extab)
    .extab._ZN4QMapI7QStringS_IS0_N10QtMobility30QOrganizerItemDetailDefinitionEEEixERKS0_ 0x00020270   Data           0  organizeritemremindertransform.o(.ARM.extab)
    .extab._ZNK10QtMobility22QOrganizerItemReminder18secondsBeforeStartEv 0x00020280   Data           0  organizeritemremindertransform.o(.ARM.extab)
    .constdata$1                             0x00020290   Data           0  moc_qorganizeritemrequestqueue.o(.constdata)
    qt_meta_data_QOrganizerItemRequestQueue  0x00020290   Data          60  moc_qorganizeritemrequestqueue.o(.constdata)
    .constdata                               0x00020290   Section      104  moc_qorganizeritemrequestqueue.o(.constdata)
    qt_meta_stringdata_QOrganizerItemRequestQueue 0x000202cc   Data          28  moc_qorganizeritemrequestqueue.o(.constdata)
    .constdata$1                             0x000202f8   Data           0  moc_qorganizersymbian_p.o(.constdata)
    qt_meta_data_QOrganizerItemSymbianFactory 0x000202f8   Data          60  moc_qorganizersymbian_p.o(.constdata)
    .constdata                               0x000202f8   Section      216  moc_qorganizersymbian_p.o(.constdata)
    qt_meta_stringdata_QOrganizerItemSymbianFactory 0x00020334   Data          30  moc_qorganizersymbian_p.o(.constdata)
    qt_meta_data_QOrganizerItemSymbianEngine 0x00020354   Data          60  moc_qorganizersymbian_p.o(.constdata)
    qt_meta_stringdata_QOrganizerItemSymbianEngine 0x00020390   Data          29  moc_qorganizersymbian_p.o(.constdata)
    .constdata$1                             0x000203d0   Data           0  organizeritemrequestserviceprovider.o(.constdata)
    .constdata                               0x000203d0   Section      364  organizeritemrequestserviceprovider.o(.constdata)
    .constdata$1                             0x0002053c   Data           0  qorganizersymbian.o(.constdata)
    KNullDesC                                0x0002053c   Data           8  qorganizersymbian.o(.constdata)
    .constdata                               0x0002053c   Section       99  qorganizersymbian.o(.constdata)
    qt_plugin_verification_data              0x00020544   Data          91  qorganizersymbian.o(.constdata)
    .constdata$1                             0x0002059f   Data           0  organizersymbiancollection.o(.constdata)
    .constdata                               0x0002059f   Section      149  organizersymbiancollection.o(.constdata)
    .constdata__ZN9stlp_priv15_Integer_limitsIaLan128ELa127ELin1ELb1EE6digitsE 0x00020634   Section        4  moc_qorganizeritemrequestqueue.o(.constdata__ZN9stlp_priv15_Integer_limitsIaLan128ELa127ELin1ELb1EE6digitsE)
    .constdata__ZN9stlp_priv15_Integer_limitsIbLb0ELb1ELi1ELb0EE6digitsE 0x00020638   Section        4  moc_qorganizeritemrequestqueue.o(.constdata__ZN9stlp_priv15_Integer_limitsIbLb0ELb1ELi1ELb0EE6digitsE)
    .constdata__ZN9stlp_priv15_Integer_limitsIcLc128ELc127ELin1ELb1EE6digitsE 0x0002063c   Section        4  moc_qorganizeritemrequestqueue.o(.constdata__ZN9stlp_priv15_Integer_limitsIcLc128ELc127ELin1ELb1EE6digitsE)
    .constdata__ZN9stlp_priv15_Integer_limitsIhLh0ELh255ELin1ELb1EE6digitsE 0x00020640   Section        4  moc_qorganizeritemrequestqueue.o(.constdata__ZN9stlp_priv15_Integer_limitsIhLh0ELh255ELin1ELb1EE6digitsE)
    .constdata__ZN9stlp_priv15_Integer_limitsIiLin2147483648ELi2147483647ELin1ELb1EE6digitsE 0x00020644   Section        4  moc_qorganizeritemrequestqueue.o(.constdata__ZN9stlp_priv15_Integer_limitsIiLin2147483648ELi2147483647ELin1ELb1EE6digitsE)
    .constdata__ZN9stlp_priv15_Integer_limitsIiLin2147483648ELi2147483647ELin1ELb1EE9is_signedE 0x00020648   Section        1  moc_qorganizeritemrequestqueue.o(.constdata__ZN9stlp_priv15_Integer_limitsIiLin2147483648ELi2147483647ELin1ELb1EE9is_signedE)
    .constdata__ZN9stlp_priv15_Integer_limitsIjLj0ELj4294967295ELin1ELb1EE6digitsE 0x0002064c   Section        4  moc_qorganizeritemrequestqueue.o(.constdata__ZN9stlp_priv15_Integer_limitsIjLj0ELj4294967295ELin1ELb1EE6digitsE)
    .constdata__ZN9stlp_priv15_Integer_limitsIlLln2147483648ELl2147483647ELin1ELb1EE6digitsE 0x00020650   Section        4  moc_qorganizeritemrequestqueue.o(.constdata__ZN9stlp_priv15_Integer_limitsIlLln2147483648ELl2147483647ELin1ELb1EE6digitsE)
    .constdata__ZN9stlp_priv15_Integer_limitsImLm0ELm4294967295ELin1ELb1EE6digitsE 0x00020654   Section        4  moc_qorganizeritemrequestqueue.o(.constdata__ZN9stlp_priv15_Integer_limitsImLm0ELm4294967295ELin1ELb1EE6digitsE)
    .constdata__ZN9stlp_priv15_Integer_limitsIsLsn32768ELs32767ELin1ELb1EE6digitsE 0x00020658   Section        4  moc_qorganizeritemrequestqueue.o(.constdata__ZN9stlp_priv15_Integer_limitsIsLsn32768ELs32767ELin1ELb1EE6digitsE)
    .constdata__ZN9stlp_priv15_Integer_limitsItLt0ELt65535ELin1ELb1EE6digitsE 0x0002065c   Section        4  moc_qorganizeritemrequestqueue.o(.constdata__ZN9stlp_priv15_Integer_limitsItLt0ELt65535ELin1ELb1EE6digitsE)
    .constdata__ZN9stlp_priv15_Integer_limitsIwLw0ELw65535ELin1ELb1EE6digitsE 0x00020660   Section        4  moc_qorganizeritemrequestqueue.o(.constdata__ZN9stlp_priv15_Integer_limitsIwLw0ELw65535ELin1ELb1EE6digitsE)
    .constdata__ZN9stlp_priv15_Integer_limitsIxLxn9223372036854775808ELx9223372036854775807ELin1ELb1EE6digitsE 0x00020664   Section        4  moc_qorganizeritemrequestqueue.o(.constdata__ZN9stlp_priv15_Integer_limitsIxLxn9223372036854775808ELx9223372036854775807ELin1ELb1EE6digitsE)
    .constdata__ZN9stlp_priv15_Integer_limitsIyLy0ELy18446744073709551615ELin1ELb1EE6digitsE 0x00020668   Section        4  moc_qorganizeritemrequestqueue.o(.constdata__ZN9stlp_priv15_Integer_limitsIyLy0ELy18446744073709551615ELin1ELb1EE6digitsE)
    .constdata__ZTI11QSharedData             0x0002066c   Section        8  qorganizersymbian.o(.constdata__ZTI11QSharedData)
    .constdata__ZTI19MCalChangeCallBack2     0x00020674   Section        8  organizersymbiancollection.o(.constdata__ZTI19MCalChangeCallBack2)
    .constdata__ZTI20MCalProgressCallBack    0x0002067c   Section        8  organizersymbiancollection.o(.constdata__ZTI20MCalProgressCallBack)
    .constdata__ZTI22MCalFileChangeObserver  0x00020684   Section        8  moc_qorganizersymbian_p.o(.constdata__ZTI22MCalFileChangeObserver)
    .constdata__ZTI26OrganizerItemGuidTransform 0x0002068c   Section       12  organizeritemguidtransform.o(.constdata__ZTI26OrganizerItemGuidTransform)
    .constdata__ZTI26OrganizerItemTypeTransform 0x00020698   Section       12  organizeritemtypetransform.o(.constdata__ZTI26OrganizerItemTypeTransform)
    .constdata__ZTI26OrganizerTodoTimeTransform 0x000206a4   Section       12  organizertodotimerangetransform.o(.constdata__ZTI26OrganizerTodoTimeTransform)
    .constdata__ZTI26QOrganizerItemRequestQueue 0x000206b0   Section       12  moc_qorganizeritemrequestqueue.o(.constdata__ZTI26QOrganizerItemRequestQueue)
    .constdata__ZTI27OrganizerEventTimeTransform 0x000206bc   Section       12  organizereventtimerangetransform.o(.constdata__ZTI27OrganizerEventTimeTransform)
    .constdata__ZTI27QOrganizerItemSymbianEngine 0x000206c8   Section       32  moc_qorganizersymbian_p.o(.constdata__ZTI27QOrganizerItemSymbianEngine)
    .constdata__ZTI28OrganizerItemDetailTransform 0x000206e8   Section        8  organizeritemdetailtransform.o(.constdata__ZTI28OrganizerItemDetailTransform)
    .constdata__ZTI28OrganizerItemParentTransform 0x000206f0   Section       12  organizeritemparenttransform.o(.constdata__ZTI28OrganizerItemParentTransform)
    .constdata__ZTI28QOrganizerItemSymbianFactory 0x000206fc   Section       32  moc_qorganizersymbian_p.o(.constdata__ZTI28QOrganizerItemSymbianFactory)
    .constdata__ZTI29OrganizerJournalTimeTransform 0x0002071c   Section       12  organizerjournaltimerangetransform.o(.constdata__ZTI29OrganizerJournalTimeTransform)
    .constdata__ZTI29QOrganizerItemSymbianEngineId 0x00020728   Section       12  qorganizersymbian.o(.constdata__ZTI29QOrganizerItemSymbianEngineId)
    .constdata__ZTI30OrganizerItemLocationTransform 0x00020734   Section       12  organizeritemlocationtransform.o(.constdata__ZTI30OrganizerItemLocationTransform)
    .constdata__ZTI30OrganizerItemPriorityTransform 0x00020740   Section       12  organizeritemprioritytransform.o(.constdata__ZTI30OrganizerItemPriorityTransform)
    .constdata__ZTI30OrganizerItemReminderTransform 0x0002074c   Section       12  organizeritemremindertransform.o(.constdata__ZTI30OrganizerItemReminderTransform)
    .constdata__ZTI30OrganizerTodoProgressTransform 0x00020758   Section       12  organizertodoprogresstransform.o(.constdata__ZTI30OrganizerTodoProgressTransform)
    .constdata__ZTI31OrganizerItemTimeStampTransform 0x00020764   Section       12  organizeritemtimestamptransform.o(.constdata__ZTI31OrganizerItemTimeStampTransform)
    .constdata__ZTI32OrganizerItemRecurrenceTransform 0x00020770   Section       12  organizeritemrecurrencetransform.o(.constdata__ZTI32OrganizerItemRecurrenceTransform)
    .constdata__ZTI33OrganizerItemDescriptionTransform 0x0002077c   Section       12  organizeritemdescriptiontransform.o(.constdata__ZTI33OrganizerItemDescriptionTransform)
    .constdata__ZTI33OrganizerSymbianCollectionPrivate 0x00020788   Section       40  organizersymbiancollection.o(.constdata__ZTI33OrganizerSymbianCollectionPrivate)
    .constdata__ZTI34OrganizerItemDisplayLabelTransform 0x000207b0   Section       12  organizeritemdisplaylabeltransform.o(.constdata__ZTI34OrganizerItemDisplayLabelTransform)
    .constdata__ZTI35QOrganizerCollectionSymbianEngineId 0x000207bc   Section       12  qorganizersymbian.o(.constdata__ZTI35QOrganizerCollectionSymbianEngineId)
    .constdata__ZTI37COrganizerItemRequestsServiceProvider 0x000207c8   Section       12  organizeritemrequestserviceprovider.o(.constdata__ZTI37COrganizerItemRequestsServiceProvider)
    .constdata__ZTIN10QtMobility22QOrganizerItemEngineIdE 0x000207d4   Section       24  qorganizersymbian.o(.constdata__ZTIN10QtMobility22QOrganizerItemEngineIdE)
    .constdata__ZTIN10QtMobility28QOrganizerCollectionEngineIdE 0x000207ec   Section       24  qorganizersymbian.o(.constdata__ZTIN10QtMobility28QOrganizerCollectionEngineIdE)
    .constdata__ZTIN15QtSharedPointer20ExternalRefCountDataE 0x00020804   Section        8  organizeritemrequestserviceprovider.o(.constdata__ZTIN15QtSharedPointer20ExternalRefCountDataE)
    .constdata__ZTS11QSharedData             0x0002080c   Section       14  qorganizersymbian.o(.constdata__ZTS11QSharedData)
    .constdata__ZTS19MCalChangeCallBack2     0x0002081a   Section       22  organizersymbiancollection.o(.constdata__ZTS19MCalChangeCallBack2)
    .constdata__ZTS20MCalProgressCallBack    0x00020830   Section       23  organizersymbiancollection.o(.constdata__ZTS20MCalProgressCallBack)
    .constdata__ZTS22MCalFileChangeObserver  0x00020847   Section       25  moc_qorganizersymbian_p.o(.constdata__ZTS22MCalFileChangeObserver)
    .constdata__ZTS26OrganizerItemGuidTransform 0x00020860   Section       29  organizeritemguidtransform.o(.constdata__ZTS26OrganizerItemGuidTransform)
    .constdata__ZTS26OrganizerItemTypeTransform 0x0002087d   Section       29  organizeritemtypetransform.o(.constdata__ZTS26OrganizerItemTypeTransform)
    .constdata__ZTS26OrganizerTodoTimeTransform 0x0002089a   Section       29  organizertodotimerangetransform.o(.constdata__ZTS26OrganizerTodoTimeTransform)
    .constdata__ZTS26QOrganizerItemRequestQueue 0x000208b7   Section       29  moc_qorganizeritemrequestqueue.o(.constdata__ZTS26QOrganizerItemRequestQueue)
    .constdata__ZTS27OrganizerEventTimeTransform 0x000208d4   Section       30  organizereventtimerangetransform.o(.constdata__ZTS27OrganizerEventTimeTransform)
    .constdata__ZTS27QOrganizerItemSymbianEngine 0x000208f2   Section       30  moc_qorganizersymbian_p.o(.constdata__ZTS27QOrganizerItemSymbianEngine)
    .constdata__ZTS28OrganizerItemDetailTransform 0x00020910   Section       31  organizeritemdetailtransform.o(.constdata__ZTS28OrganizerItemDetailTransform)
    .constdata__ZTS28OrganizerItemParentTransform 0x0002092f   Section       31  organizeritemparenttransform.o(.constdata__ZTS28OrganizerItemParentTransform)
    .constdata__ZTS28QOrganizerItemSymbianFactory 0x0002094e   Section       31  moc_qorganizersymbian_p.o(.constdata__ZTS28QOrganizerItemSymbianFactory)
    .constdata__ZTS29OrganizerJournalTimeTransform 0x0002096d   Section       32  organizerjournaltimerangetransform.o(.constdata__ZTS29OrganizerJournalTimeTransform)
    .constdata__ZTS29QOrganizerItemSymbianEngineId 0x0002098d   Section       32  qorganizersymbian.o(.constdata__ZTS29QOrganizerItemSymbianEngineId)
    .constdata__ZTS30OrganizerItemLocationTransform 0x000209ad   Section       33  organizeritemlocationtransform.o(.constdata__ZTS30OrganizerItemLocationTransform)
    .constdata__ZTS30OrganizerItemPriorityTransform 0x000209ce   Section       33  organizeritemprioritytransform.o(.constdata__ZTS30OrganizerItemPriorityTransform)
    .constdata__ZTS30OrganizerItemReminderTransform 0x000209ef   Section       33  organizeritemremindertransform.o(.constdata__ZTS30OrganizerItemReminderTransform)
    .constdata__ZTS30OrganizerTodoProgressTransform 0x00020a10   Section       33  organizertodoprogresstransform.o(.constdata__ZTS30OrganizerTodoProgressTransform)
    .constdata__ZTS31OrganizerItemTimeStampTransform 0x00020a31   Section       34  organizeritemtimestamptransform.o(.constdata__ZTS31OrganizerItemTimeStampTransform)
    .constdata__ZTS32OrganizerItemRecurrenceTransform 0x00020a53   Section       35  organizeritemrecurrencetransform.o(.constdata__ZTS32OrganizerItemRecurrenceTransform)
    .constdata__ZTS33OrganizerItemDescriptionTransform 0x00020a76   Section       36  organizeritemdescriptiontransform.o(.constdata__ZTS33OrganizerItemDescriptionTransform)
    .constdata__ZTS33OrganizerSymbianCollectionPrivate 0x00020a9a   Section       36  organizersymbiancollection.o(.constdata__ZTS33OrganizerSymbianCollectionPrivate)
    .constdata__ZTS34OrganizerItemDisplayLabelTransform 0x00020abe   Section       37  organizeritemdisplaylabeltransform.o(.constdata__ZTS34OrganizerItemDisplayLabelTransform)
    .constdata__ZTS35QOrganizerCollectionSymbianEngineId 0x00020ae3   Section       38  qorganizersymbian.o(.constdata__ZTS35QOrganizerCollectionSymbianEngineId)
    .constdata__ZTS37COrganizerItemRequestsServiceProvider 0x00020b09   Section       40  organizeritemrequestserviceprovider.o(.constdata__ZTS37COrganizerItemRequestsServiceProvider)
    .constdata__ZTSN10QtMobility22QOrganizerItemEngineIdE 0x00020b31   Section       39  qorganizersymbian.o(.constdata__ZTSN10QtMobility22QOrganizerItemEngineIdE)
    .constdata__ZTSN10QtMobility28QOrganizerCollectionEngineIdE 0x00020b58   Section       45  qorganizersymbian.o(.constdata__ZTSN10QtMobility28QOrganizerCollectionEngineIdE)
    .constdata__ZTSN15QtSharedPointer20ExternalRefCountDataE 0x00020b85   Section       42  organizeritemrequestserviceprovider.o(.constdata__ZTSN15QtSharedPointer20ExternalRefCountDataE)
    .constdata__ZTV19MCalChangeCallBack2     0x00020bb0   Section       12  organizersymbiancollection.o(.constdata__ZTV19MCalChangeCallBack2)
    .constdata__ZTV20MCalProgressCallBack    0x00020bbc   Section       20  organizersymbiancollection.o(.constdata__ZTV20MCalProgressCallBack)
    .constdata__ZTV22MCalFileChangeObserver  0x00020bd0   Section       12  qorganizersymbian.o(.constdata__ZTV22MCalFileChangeObserver)
    .constdata__ZTV26OrganizerItemGuidTransform 0x00020bdc   Section       40  organizeritemguidtransform.o(.constdata__ZTV26OrganizerItemGuidTransform)
    .constdata__ZTV26OrganizerItemTypeTransform 0x00020c04   Section       40  organizeritemtypetransform.o(.constdata__ZTV26OrganizerItemTypeTransform)
    .constdata__ZTV26OrganizerTodoTimeTransform 0x00020c2c   Section       40  organizertodotimerangetransform.o(.constdata__ZTV26OrganizerTodoTimeTransform)
    .constdata__ZTV26QOrganizerItemRequestQueue 0x00020c54   Section       56  moc_qorganizeritemrequestqueue.o(.constdata__ZTV26QOrganizerItemRequestQueue)
    .constdata__ZTV27OrganizerEventTimeTransform 0x00020c8c   Section       40  organizereventtimerangetransform.o(.constdata__ZTV27OrganizerEventTimeTransform)
    .constdata__ZTV27QOrganizerItemSymbianEngine 0x00020cb4   Section      204  moc_qorganizersymbian_p.o(.constdata__ZTV27QOrganizerItemSymbianEngine)
    .constdata__ZTV28OrganizerItemDetailTransform 0x00020d80   Section       40  organizeritemdetailtransform.o(.constdata__ZTV28OrganizerItemDetailTransform)
    .constdata__ZTV28OrganizerItemParentTransform 0x00020da8   Section       40  organizeritemparenttransform.o(.constdata__ZTV28OrganizerItemParentTransform)
    .constdata__ZTV28QOrganizerItemSymbianFactory 0x00020dd0   Section      108  moc_qorganizersymbian_p.o(.constdata__ZTV28QOrganizerItemSymbianFactory)
    .constdata__ZTV29OrganizerJournalTimeTransform 0x00020e3c   Section       40  organizerjournaltimerangetransform.o(.constdata__ZTV29OrganizerJournalTimeTransform)
    .constdata__ZTV29QOrganizerItemSymbianEngineId 0x00020e64   Section       44  qorganizersymbian.o(.constdata__ZTV29QOrganizerItemSymbianEngineId)
    .constdata__ZTV30OrganizerItemLocationTransform 0x00020e90   Section       40  organizeritemlocationtransform.o(.constdata__ZTV30OrganizerItemLocationTransform)
    .constdata__ZTV30OrganizerItemPriorityTransform 0x00020eb8   Section       40  organizeritemprioritytransform.o(.constdata__ZTV30OrganizerItemPriorityTransform)
    .constdata__ZTV30OrganizerItemReminderTransform 0x00020ee0   Section       40  organizeritemremindertransform.o(.constdata__ZTV30OrganizerItemReminderTransform)
    .constdata__ZTV30OrganizerTodoProgressTransform 0x00020f08   Section       40  organizertodoprogresstransform.o(.constdata__ZTV30OrganizerTodoProgressTransform)
    .constdata__ZTV31OrganizerItemTimeStampTransform 0x00020f30   Section       40  organizeritemtimestamptransform.o(.constdata__ZTV31OrganizerItemTimeStampTransform)
    .constdata__ZTV32OrganizerItemRecurrenceTransform 0x00020f58   Section       40  organizeritemrecurrencetransform.o(.constdata__ZTV32OrganizerItemRecurrenceTransform)
    .constdata__ZTV33OrganizerItemDescriptionTransform 0x00020f80   Section       40  organizeritemdescriptiontransform.o(.constdata__ZTV33OrganizerItemDescriptionTransform)
    .constdata__ZTV33OrganizerSymbianCollectionPrivate 0x00020fa8   Section       36  organizersymbiancollection.o(.constdata__ZTV33OrganizerSymbianCollectionPrivate)
    .constdata__ZTV34OrganizerItemDisplayLabelTransform 0x00020fcc   Section       40  organizeritemdisplaylabeltransform.o(.constdata__ZTV34OrganizerItemDisplayLabelTransform)
    .constdata__ZTV35QOrganizerCollectionSymbianEngineId 0x00020ff4   Section       44  qorganizersymbian.o(.constdata__ZTV35QOrganizerCollectionSymbianEngineId)
    .constdata__ZTV37COrganizerItemRequestsServiceProvider 0x00021020   Section       32  organizeritemrequestserviceprovider.o(.constdata__ZTV37COrganizerItemRequestsServiceProvider)
    .constdata__ZTVN10QtMobility22QOrganizerItemEngineIdE 0x00021040   Section       44  qorganizersymbian.o(.constdata__ZTVN10QtMobility22QOrganizerItemEngineIdE)
    .constdata__ZTVN10QtMobility28QOrganizerCollectionEngineIdE 0x0002106c   Section       44  qorganizersymbian.o(.constdata__ZTVN10QtMobility28QOrganizerCollectionEngineIdE)
    .constdata__ZTVN15QtSharedPointer20ExternalRefCountDataE 0x00021098   Section       20  organizeritemrequestserviceprovider.o(.constdata__ZTVN15QtSharedPointer20ExternalRefCountDataE)
    .ARM.exidx                               0x000210ac   Section        8  ucppinit.o(.ARM.exidx)
    .data$0                                  0x00400000   Data           0  qorganizersymbian.o(.data)
    _ZGV_instance@qt_plugin_instance_0       0x00400000   Data           4  qorganizersymbian.o(.data)
    .data                                    0x00400000   Section       24  qorganizersymbian.o(.data)
    _instance@qt_plugin_instance_1           0x00400004   Data           4  qorganizersymbian.o(.data)
    _ZGVmanagerUri@_ZNK35QOrganizerCollectionSymbianEngineId10managerUriEv_0 0x00400008   Data           4  qorganizersymbian.o(.data)
    managerUri@_ZNK35QOrganizerCollectionSymbianEngineId10managerUriEv_1 0x0040000c   Data           4  qorganizersymbian.o(.data)
    _ZGVmanagerUri@_ZNK29QOrganizerItemSymbianEngineId10managerUriEv_0 0x00400010   Data           4  qorganizersymbian.o(.data)
    managerUri@_ZNK29QOrganizerItemSymbianEngineId10managerUriEv_1 0x00400014   Data           4  qorganizersymbian.o(.data)
    .data$0                                  0x00400018   Data           0  ucppfini.o(.data)
    .data                                    0x00400018   Section        4  ucppfini.o(.data)
    .data__ZNSt19_Atomic_swap_structILi1EE12_S_swap_lockE 0x0040001c   Section       12  moc_qorganizeritemrequestqueue.o(.data__ZNSt19_Atomic_swap_structILi1EE12_S_swap_lockE)
    .data__ZZN11QMetaTypeIdIN10QtMobility16QOrganizerItemIdEE14qt_metatype_idEvE11metatype_id 0x00400028   Section        4  qorganizersymbian.o(.data__ZZN11QMetaTypeIdIN10QtMobility16QOrganizerItemIdEE14qt_metatype_idEvE11metatype_id)
    .bss$5                                   0x0040002c   Data           0  ucppfini.o(.bss)
    .bss                                     0x0040002c   Section     2048  ucppfini.o(.bss)

    Global Symbols

    Symbol Name                              Value     Ov Type        Size  Object(Section)

    BuildAttributes$$THUMB_ISAv2$ARM_ISAv5$M$VFPv2$PE$A:L22$X:L11$S22$IEEE1$IW$USESV6$~STKCKD$USESV7$~SHL$OSPACE$ROPI$IEEEJ$EBA8$UX$FPIC$INDIRECT$REQ8$PRES8$EABIv2 0x00000000   Number         0  anon$$obj.o ABSOLUTE
    QtCore{00040703}[2001b2dc].dll           0x00000000   Data           0  anon$$obj.o ABSOLUTE
    QtGui{00040703}[2001b2dd].dll            0x00000000   Data           0  anon$$obj.o ABSOLUTE
    QtOrganizer{00010103}[2002bfcd].dll      0x00000000   Data           0  anon$$obj.o ABSOLUTE
    calinterimapi{000a0000}[102075e4].dll    0x00000000   Data           0  anon$$obj.o ABSOLUTE
    drtaeabi{000a0000}.dll                   0x00000000   Data           0  anon$$obj.o ABSOLUTE
    drtrvct2_2{000a0000}.dll                 0x00000000   Data           0  anon$$obj.o ABSOLUTE
    euser{000a0000}[100039e5].dll            0x00000000   Data           0  anon$$obj.o ABSOLUTE
    libc{00010001}[10207369].dll             0x00000000   Data           0  anon$$obj.o ABSOLUTE
    qtorganizer_symbian{000a0000}[2002bfc9].dll 0x00000000   Data           0  anon$$obj.o ABSOLUTE
    stdnew{000a0000}[20022178].dll           0x00000000   Data           0  anon$$obj.o ABSOLUTE
    SHT$$INIT_ARRAY$$Base                     - Undefined Weak Reference
    SHT$$INIT_ARRAY$$Limit                    - Undefined Weak Reference
    qt_assert_x(const char*, const char*, const char*, int)  - Undefined Reference
    _Z11qt_assert_xPKcS0_S0_i@QtCore{00040703}[2001b2dc].dll  - Undefined Reference
    qt_message_output(QtMsgType, const char*)  - Undefined Reference
    _Z17qt_message_output9QtMsgTypePKc@QtCore{00040703}[2001b2dc].dll  - Undefined Reference
    qFree(void*)                              - Undefined Reference
    _Z5qFreePv@QtCore{00040703}[2001b2dc].dll  - Undefined Reference
    qrand()                                   - Undefined Reference
    _Z5qrandv@QtCore{00040703}[2001b2dc].dll  - Undefined Reference
    qsrand(unsigned)                          - Undefined Reference
    _Z6qsrandj@QtCore{00040703}[2001b2dc].dll  - Undefined Reference
    qt_assert(const char*, const char*, int)  - Undefined Reference
    _Z9qt_assertPKcS0_i@QtCore{00040703}[2001b2dc].dll  - Undefined Reference
    QByteArray::realloc(int)                  - Undefined Reference
    _ZN10QByteArray7reallocEi@QtCore{00040703}[2001b2dc].dll  - Undefined Reference
    QByteArray::QByteArray(const char*, int)  - Undefined Reference
    _ZN10QByteArrayC1EPKci@QtCore{00040703}[2001b2dc].dll  - Undefined Reference
    QEventLoop::exec(QFlags<QEventLoop::ProcessEventsFlag>)  - Undefined Reference
    _ZN10QEventLoop4execE6QFlagsINS_17ProcessEventsFlagEE@QtCore{00040703}[2001b2dc].dll  - Undefined Reference
    QEventLoop::QEventLoop(QObject*)          - Undefined Reference
    _ZN10QEventLoopC1EP7QObject@QtCore{00040703}[2001b2dc].dll  - Undefined Reference
    QtMobility::QOrganizerItem::saveDetail(QtMobility::QOrganizerItemDetail*)  - Undefined Reference
    _ZN10QtMobility14QOrganizerItem10saveDetailEPNS_20QOrganizerItemDetailE@QtOrganizer{00010103}[2002bfcd].dll  - Undefined Reference
    QtMobility::QOrganizerItem::setDescription(const QString&)  - Undefined Reference
    _ZN10QtMobility14QOrganizerItem14setDescriptionERK7QString@QtOrganizer{00010103}[2002bfcd].dll  - Undefined Reference
    QtMobility::QOrganizerItem::setCollectionId(const QtMobility::QOrganizerCollectionId&)  - Undefined Reference
    _ZN10QtMobility14QOrganizerItem15setCollectionIdERKNS_22QOrganizerCollectionIdE@QtOrganizer{00010103}[2002bfcd].dll  - Undefined Reference
    QtMobility::QOrganizerItem::setDisplayLabel(const QString&)  - Undefined Reference
    _ZN10QtMobility14QOrganizerItem15setDisplayLabelERK7QString@QtOrganizer{00010103}[2002bfcd].dll  - Undefined Reference
    QtMobility::QOrganizerItem::setId(const QtMobility::QOrganizerItemId&)  - Undefined Reference
    _ZN10QtMobility14QOrganizerItem5setIdERKNS_16QOrganizerItemIdE@QtOrganizer{00010103}[2002bfcd].dll  - Undefined Reference
    QtMobility::QOrganizerItem::setGuid(const QString&)  - Undefined Reference
    _ZN10QtMobility14QOrganizerItem7setGuidERK7QString@QtOrganizer{00010103}[2002bfcd].dll  - Undefined Reference
    QtMobility::QOrganizerItem::setType(const QString&)  - Undefined Reference
    _ZN10QtMobility14QOrganizerItem7setTypeERK7QString@QtOrganizer{00010103}[2002bfcd].dll  - Undefined Reference
    QtMobility::QOrganizerItem::QOrganizerItem(const QtMobility::QOrganizerItem&)  - Undefined Reference
    _ZN10QtMobility14QOrganizerItemC1ERKS0_@QtOrganizer{00010103}[2002bfcd].dll  - Undefined Reference
    QtMobility::QOrganizerItem::QOrganizerItem(const QtMobility::QOrganizerItem&, const char*)  - Undefined Reference
    _ZN10QtMobility14QOrganizerItemC1ERKS0_PKc@QtOrganizer{00010103}[2002bfcd].dll  - Undefined Reference
    QtMobility::QOrganizerItem::QOrganizerItem()  - Undefined Reference
    _ZN10QtMobility14QOrganizerItemC1Ev@QtOrganizer{00010103}[2002bfcd].dll  - Undefined Reference
    QtMobility::QOrganizerItem::~QOrganizerItem()  - Undefined Reference
    _ZN10QtMobility14QOrganizerItemD1Ev@QtOrganizer{00010103}[2002bfcd].dll  - Undefined Reference
    QtMobility::QOrganizerItem::operator =(const QtMobility::QOrganizerItem&)  - Undefined Reference
    _ZN10QtMobility14QOrganizerItemaSERKS0_@QtOrganizer{00010103}[2002bfcd].dll  - Undefined Reference
    QtMobility::QOrganizerEvent::setStartDateTime(const QDateTime&)  - Undefined Reference
    _ZN10QtMobility15QOrganizerEvent16setStartDateTimeERK9QDateTime@QtOrganizer{00010103}[2002bfcd].dll  - Undefined Reference
    QtMobility::QOrganizerItemId::QOrganizerItemId(QtMobility::QOrganizerItemEngineId*)  - Undefined Reference
    _ZN10QtMobility16QOrganizerItemIdC1EPNS_22QOrganizerItemEngineIdE@QtOrganizer{00010103}[2002bfcd].dll  - Undefined Reference
    QtMobility::QOrganizerItemId::QOrganizerItemId(const QtMobility::QOrganizerItemId&)  - Undefined Reference
    _ZN10QtMobility16QOrganizerItemIdC1ERKS0_@QtOrganizer{00010103}[2002bfcd].dll  - Undefined Reference
    QtMobility::QOrganizerItemId::QOrganizerItemId()  - Undefined Reference
    _ZN10QtMobility16QOrganizerItemIdC1Ev@QtOrganizer{00010103}[2002bfcd].dll  - Undefined Reference
    QtMobility::QOrganizerItemId::~QOrganizerItemId()  - Undefined Reference
    _ZN10QtMobility16QOrganizerItemIdD1Ev@QtOrganizer{00010103}[2002bfcd].dll  - Undefined Reference
    QtMobility::QOrganizerItemGuid::DefinitionName  - Undefined Reference
    _ZN10QtMobility18QOrganizerItemGuid14DefinitionNameE@QtOrganizer{00010103}[2002bfcd].dll  - Undefined Reference
    QtMobility::QOrganizerItemType::TypeJournal  - Undefined Reference
    _ZN10QtMobility18QOrganizerItemType11TypeJournalE@QtOrganizer{00010103}[2002bfcd].dll  - Undefined Reference
    QtMobility::QOrganizerItemType::DefinitionName  - Undefined Reference
    _ZN10QtMobility18QOrganizerItemType14DefinitionNameE@QtOrganizer{00010103}[2002bfcd].dll  - Undefined Reference
    QtMobility::QOrganizerItemType::TypeTodoOccurrence  - Undefined Reference
    _ZN10QtMobility18QOrganizerItemType18TypeTodoOccurrenceE@QtOrganizer{00010103}[2002bfcd].dll  - Undefined Reference
    QtMobility::QOrganizerItemType::TypeEventOccurrence  - Undefined Reference
    _ZN10QtMobility18QOrganizerItemType19TypeEventOccurrenceE@QtOrganizer{00010103}[2002bfcd].dll  - Undefined Reference
    QtMobility::QOrganizerItemType::TypeNote  - Undefined Reference
    _ZN10QtMobility18QOrganizerItemType8TypeNoteE@QtOrganizer{00010103}[2002bfcd].dll  - Undefined Reference
    QtMobility::QOrganizerItemType::TypeTodo  - Undefined Reference
    _ZN10QtMobility18QOrganizerItemType8TypeTodoE@QtOrganizer{00010103}[2002bfcd].dll  - Undefined Reference
    QtMobility::QOrganizerItemType::TypeEvent  - Undefined Reference
    _ZN10QtMobility18QOrganizerItemType9TypeEventE@QtOrganizer{00010103}[2002bfcd].dll  - Undefined Reference
    QtMobility::QOrganizerTodoTime::DefinitionName  - Undefined Reference
    _ZN10QtMobility18QOrganizerTodoTime14DefinitionNameE@QtOrganizer{00010103}[2002bfcd].dll  - Undefined Reference
    QtMobility::QOrganizerTodoTime::FieldDueDateTime  - Undefined Reference
    _ZN10QtMobility18QOrganizerTodoTime16FieldDueDateTimeE@QtOrganizer{00010103}[2002bfcd].dll  - Undefined Reference
    QtMobility::QOrganizerTodoTime::FieldStartDateTime  - Undefined Reference
    _ZN10QtMobility18QOrganizerTodoTime18FieldStartDateTimeE@QtOrganizer{00010103}[2002bfcd].dll  - Undefined Reference
    QtMobility::QOrganizerEventTime::DefinitionName  - Undefined Reference
    _ZN10QtMobility19QOrganizerEventTime14DefinitionNameE@QtOrganizer{00010103}[2002bfcd].dll  - Undefined Reference
    QtMobility::QOrganizerEventTime::FieldEndDateTime  - Undefined Reference
    _ZN10QtMobility19QOrganizerEventTime16FieldEndDateTimeE@QtOrganizer{00010103}[2002bfcd].dll  - Undefined Reference
    QtMobility::QOrganizerEventTime::FieldStartDateTime  - Undefined Reference
    _ZN10QtMobility19QOrganizerEventTime18FieldStartDateTimeE@QtOrganizer{00010103}[2002bfcd].dll  - Undefined Reference
    QtMobility::QOrganizerCollection::setMetaData(const QMap<QString, QVariant>&)  - Undefined Reference
    _ZN10QtMobility20QOrganizerCollection11setMetaDataERK4QMapI7QString8QVariantE@QtOrganizer{00010103}[2002bfcd].dll  - Undefined Reference
    QtMobility::QOrganizerCollection::setMetaData(const QString&, const QVariant&)  - Undefined Reference
    _ZN10QtMobility20QOrganizerCollection11setMetaDataERK7QStringRK8QVariant@QtOrganizer{00010103}[2002bfcd].dll  - Undefined Reference
    QtMobility::QOrganizerCollection::KeyDescription  - Undefined Reference
    _ZN10QtMobility20QOrganizerCollection14KeyDescriptionE@QtOrganizer{00010103}[2002bfcd].dll  - Undefined Reference
    QtMobility::QOrganizerCollection::setId(const QtMobility::QOrganizerCollectionId&)  - Undefined Reference
    _ZN10QtMobility20QOrganizerCollection5setIdERKNS_22QOrganizerCollectionIdE@QtOrganizer{00010103}[2002bfcd].dll  - Undefined Reference
    QtMobility::QOrganizerCollection::KeyName  - Undefined Reference
    _ZN10QtMobility20QOrganizerCollection7KeyNameE@QtOrganizer{00010103}[2002bfcd].dll  - Undefined Reference
    QtMobility::QOrganizerCollection::KeyColor  - Undefined Reference
    _ZN10QtMobility20QOrganizerCollection8KeyColorE@QtOrganizer{00010103}[2002bfcd].dll  - Undefined Reference
    QtMobility::QOrganizerCollection::QOrganizerCollection(const QtMobility::QOrganizerCollection&)  - Undefined Reference
    _ZN10QtMobility20QOrganizerCollectionC1ERKS0_@QtOrganizer{00010103}[2002bfcd].dll  - Undefined Reference
    QtMobility::QOrganizerCollection::QOrganizerCollection()  - Undefined Reference
    _ZN10QtMobility20QOrganizerCollectionC1Ev@QtOrganizer{00010103}[2002bfcd].dll  - Undefined Reference
    QtMobility::QOrganizerCollection::~QOrganizerCollection()  - Undefined Reference
    _ZN10QtMobility20QOrganizerCollectionD1Ev@QtOrganizer{00010103}[2002bfcd].dll  - Undefined Reference
    QtMobility::QOrganizerCollection::operator =(const QtMobility::QOrganizerCollection&)  - Undefined Reference
    _ZN10QtMobility20QOrganizerCollectionaSERKS0_@QtOrganizer{00010103}[2002bfcd].dll  - Undefined Reference
    QtMobility::QOrganizerItemDetail::setValue(const char*, const QVariant&)  - Undefined Reference
    _ZN10QtMobility20QOrganizerItemDetail8setValueEPKcRK8QVariant@QtOrganizer{00010103}[2002bfcd].dll  - Undefined Reference
    QtMobility::QOrganizerItemDetail::QOrganizerItemDetail(const char*)  - Undefined Reference
    _ZN10QtMobility20QOrganizerItemDetailC1EPKc@QtOrganizer{00010103}[2002bfcd].dll  - Undefined Reference
    QtMobility::QOrganizerItemDetail::QOrganizerItemDetail(const QtMobility::QOrganizerItemDetail&)  - Undefined Reference
    _ZN10QtMobility20QOrganizerItemDetailC1ERKS0_@QtOrganizer{00010103}[2002bfcd].dll  - Undefined Reference
    QtMobility::QOrganizerItemDetail::QOrganizerItemDetail(const QtMobility::QOrganizerItemDetail&, const char*)  - Undefined Reference
    _ZN10QtMobility20QOrganizerItemDetailC1ERKS0_PKc@QtOrganizer{00010103}[2002bfcd].dll  - Undefined Reference
    QtMobility::QOrganizerItemDetail::~QOrganizerItemDetail()  - Undefined Reference
    _ZN10QtMobility20QOrganizerItemDetailD1Ev@QtOrganizer{00010103}[2002bfcd].dll  - Undefined Reference
    QtMobility::QOrganizerItemFilter::QOrganizerItemFilter(const QtMobility::QOrganizerItemFilter&)  - Undefined Reference
    _ZN10QtMobility20QOrganizerItemFilterC1ERKS0_@QtOrganizer{00010103}[2002bfcd].dll  - Undefined Reference
    QtMobility::QOrganizerItemFilter::QOrganizerItemFilter()  - Undefined Reference
    _ZN10QtMobility20QOrganizerItemFilterC1Ev@QtOrganizer{00010103}[2002bfcd].dll  - Undefined Reference
    QtMobility::QOrganizerItemFilter::~QOrganizerItemFilter()  - Undefined Reference
    _ZN10QtMobility20QOrganizerItemFilterD1Ev@QtOrganizer{00010103}[2002bfcd].dll  - Undefined Reference
    QtMobility::QOrganizerItemParent::FieldParentId  - Undefined Reference
    _ZN10QtMobility20QOrganizerItemParent13FieldParentIdE@QtOrganizer{00010103}[2002bfcd].dll  - Undefined Reference
    QtMobility::QOrganizerItemParent::DefinitionName  - Undefined Reference
    _ZN10QtMobility20QOrganizerItemParent14DefinitionNameE@QtOrganizer{00010103}[2002bfcd].dll  - Undefined Reference
    QtMobility::QOrganizerItemParent::FieldOriginalDate  - Undefined Reference
    _ZN10QtMobility20QOrganizerItemParent17FieldOriginalDateE@QtOrganizer{00010103}[2002bfcd].dll  - Undefined Reference
    QtMobility::QOrganizerJournalTime::DefinitionName  - Undefined Reference
    _ZN10QtMobility21QOrganizerJournalTime14DefinitionNameE@QtOrganizer{00010103}[2002bfcd].dll  - Undefined Reference
    QtMobility::QOrganizerJournalTime::FieldEntryDateTime  - Undefined Reference
    _ZN10QtMobility21QOrganizerJournalTime18FieldEntryDateTimeE@QtOrganizer{00010103}[2002bfcd].dll  - Undefined Reference
    QtMobility::QOrganizerCollectionId::QOrganizerCollectionId(QtMobility::QOrganizerCollectionEngineId*)  - Undefined Reference
    _ZN10QtMobility22QOrganizerCollectionIdC1EPNS_28QOrganizerCollectionEngineIdE@QtOrganizer{00010103}[2002bfcd].dll  - Undefined Reference
    QtMobility::QOrganizerCollectionId::QOrganizerCollectionId(const QtMobility::QOrganizerCollectionId&)  - Undefined Reference
    _ZN10QtMobility22QOrganizerCollectionIdC1ERKS0_@QtOrganizer{00010103}[2002bfcd].dll  - Undefined Reference
    QtMobility::QOrganizerCollectionId::QOrganizerCollectionId()  - Undefined Reference
    _ZN10QtMobility22QOrganizerCollectionIdC1Ev@QtOrganizer{00010103}[2002bfcd].dll  - Undefined Reference
    QtMobility::QOrganizerCollectionId::~QOrganizerCollectionId()  - Undefined Reference
    _ZN10QtMobility22QOrganizerCollectionIdD1Ev@QtOrganizer{00010103}[2002bfcd].dll  - Undefined Reference
    QtMobility::QOrganizerCollectionId::operator =(const QtMobility::QOrganizerCollectionId&)  - Undefined Reference
    _ZN10QtMobility22QOrganizerCollectionIdaSERKS0_@QtOrganizer{00010103}[2002bfcd].dll  - Undefined Reference
    QtMobility::QOrganizerItemIdFilter::QOrganizerItemIdFilter(const QtMobility::QOrganizerItemFilter&)  - Undefined Reference
    _ZN10QtMobility22QOrganizerItemIdFilterC1ERKNS_20QOrganizerItemFilterE@QtOrganizer{00010103}[2002bfcd].dll  - Undefined Reference
    QtMobility::QOrganizerItemLocation::FieldLabel  - Undefined Reference
    _ZN10QtMobility22QOrganizerItemLocation10FieldLabelE@QtOrganizer{00010103}[2002bfcd].dll  - Undefined Reference
    QtMobility::QOrganizerItemLocation::FieldLatitude  - Undefined Reference
    _ZN10QtMobility22QOrganizerItemLocation13FieldLatitudeE@QtOrganizer{00010103}[2002bfcd].dll  - Undefined Reference
    QtMobility::QOrganizerItemLocation::DefinitionName  - Undefined Reference
    _ZN10QtMobility22QOrganizerItemLocation14DefinitionNameE@QtOrganizer{00010103}[2002bfcd].dll  - Undefined Reference
    QtMobility::QOrganizerItemLocation::FieldLongitude  - Undefined Reference
    _ZN10QtMobility22QOrganizerItemLocation14FieldLongitudeE@QtOrganizer{00010103}[2002bfcd].dll  - Undefined Reference
    QtMobility::QOrganizerItemPriority::FieldPriority  - Undefined Reference
    _ZN10QtMobility22QOrganizerItemPriority13FieldPriorityE@QtOrganizer{00010103}[2002bfcd].dll  - Undefined Reference
    QtMobility::QOrganizerItemPriority::DefinitionName  - Undefined Reference
    _ZN10QtMobility22QOrganizerItemPriority14DefinitionNameE@QtOrganizer{00010103}[2002bfcd].dll  - Undefined Reference
    QtMobility::QOrganizerItemReminder::DefinitionName  - Undefined Reference
    _ZN10QtMobility22QOrganizerItemReminder14DefinitionNameE@QtOrganizer{00010103}[2002bfcd].dll  - Undefined Reference
    QtMobility::QOrganizerItemReminder::FieldRepetitionCount  - Undefined Reference
    _ZN10QtMobility22QOrganizerItemReminder20FieldRepetitionCountE@QtOrganizer{00010103}[2002bfcd].dll  - Undefined Reference
    QtMobility::QOrganizerItemReminder::FieldRepetitionDelay  - Undefined Reference
    _ZN10QtMobility22QOrganizerItemReminder20FieldRepetitionDelayE@QtOrganizer{00010103}[2002bfcd].dll  - Undefined Reference
    QtMobility::QOrganizerItemReminder::FieldSecondsBeforeStart  - Undefined Reference
    _ZN10QtMobility22QOrganizerItemReminder23FieldSecondsBeforeStartE@QtOrganizer{00010103}[2002bfcd].dll  - Undefined Reference
    QtMobility::QOrganizerTodoProgress::FieldStatus  - Undefined Reference
    _ZN10QtMobility22QOrganizerTodoProgress11FieldStatusE@QtOrganizer{00010103}[2002bfcd].dll  - Undefined Reference
    QtMobility::QOrganizerTodoProgress::DefinitionName  - Undefined Reference
    _ZN10QtMobility22QOrganizerTodoProgress14DefinitionNameE@QtOrganizer{00010103}[2002bfcd].dll  - Undefined Reference
    QtMobility::QOrganizerTodoProgress::FieldFinishedDateTime  - Undefined Reference
    _ZN10QtMobility22QOrganizerTodoProgress21FieldFinishedDateTimeE@QtOrganizer{00010103}[2002bfcd].dll  - Undefined Reference
    QtMobility::QOrganizerTodoProgress::FieldPercentageComplete  - Undefined Reference
    _ZN10QtMobility22QOrganizerTodoProgress23FieldPercentageCompleteE@QtOrganizer{00010103}[2002bfcd].dll  - Undefined Reference
    QtMobility::QOrganizerItemChangeSet::emitSignals(QtMobility::QOrganizerManagerEngine*)  - Undefined Reference
    _ZN10QtMobility23QOrganizerItemChangeSet11emitSignalsEPNS_23QOrganizerManagerEngineE@QtOrganizer{00010103}[2002bfcd].dll  - Undefined Reference
    QtMobility::QOrganizerItemChangeSet::setDataChanged(bool)  - Undefined Reference
    _ZN10QtMobility23QOrganizerItemChangeSet14setDataChangedEb@QtOrganizer{00010103}[2002bfcd].dll  - Undefined Reference
    QtMobility::QOrganizerItemChangeSet::insertAddedItem(const QtMobility::QOrganizerItemId&)  - Undefined Reference
    _ZN10QtMobility23QOrganizerItemChangeSet15insertAddedItemERKNS_16QOrganizerItemIdE@QtOrganizer{00010103}[2002bfcd].dll  - Undefined Reference
    QtMobility::QOrganizerItemChangeSet::insertChangedItem(const QtMobility::QOrganizerItemId&)  - Undefined Reference
    _ZN10QtMobility23QOrganizerItemChangeSet17insertChangedItemERKNS_16QOrganizerItemIdE@QtOrganizer{00010103}[2002bfcd].dll  - Undefined Reference
    QtMobility::QOrganizerItemChangeSet::insertRemovedItem(const QtMobility::QOrganizerItemId&)  - Undefined Reference
    _ZN10QtMobility23QOrganizerItemChangeSet17insertRemovedItemERKNS_16QOrganizerItemIdE@QtOrganizer{00010103}[2002bfcd].dll  - Undefined Reference
    QtMobility::QOrganizerItemChangeSet::QOrganizerItemChangeSet()  - Undefined Reference
    _ZN10QtMobility23QOrganizerItemChangeSetC1Ev@QtOrganizer{00010103}[2002bfcd].dll  - Undefined Reference
    QtMobility::QOrganizerItemChangeSet::~QOrganizerItemChangeSet()  - Undefined Reference
    _ZN10QtMobility23QOrganizerItemChangeSetD1Ev@QtOrganizer{00010103}[2002bfcd].dll  - Undefined Reference
    QtMobility::QOrganizerItemFetchHint::QOrganizerItemFetchHint()  - Undefined Reference
    _ZN10QtMobility23QOrganizerItemFetchHintC1Ev@QtOrganizer{00010103}[2002bfcd].dll  - Undefined Reference
    QtMobility::QOrganizerItemFetchHint::~QOrganizerItemFetchHint()  - Undefined Reference
    _ZN10QtMobility23QOrganizerItemFetchHintD1Ev@QtOrganizer{00010103}[2002bfcd].dll  - Undefined Reference
    QtMobility::QOrganizerItemSortOrder::~QOrganizerItemSortOrder()  - Undefined Reference
    _ZN10QtMobility23QOrganizerItemSortOrderD1Ev@QtOrganizer{00010103}[2002bfcd].dll  - Undefined Reference
    QtMobility::QOrganizerItemTimestamp::DefinitionName  - Undefined Reference
    _ZN10QtMobility23QOrganizerItemTimestamp14DefinitionNameE@QtOrganizer{00010103}[2002bfcd].dll  - Undefined Reference
    QtMobility::QOrganizerItemTimestamp::FieldCreationTimestamp  - Undefined Reference
    _ZN10QtMobility23QOrganizerItemTimestamp22FieldCreationTimestampE@QtOrganizer{00010103}[2002bfcd].dll  - Undefined Reference
    QtMobility::QOrganizerItemTimestamp::FieldModificationTimestamp  - Undefined Reference
    _ZN10QtMobility23QOrganizerItemTimestamp26FieldModificationTimestampE@QtOrganizer{00010103}[2002bfcd].dll  - Undefined Reference
    QtMobility::QOrganizerManagerEngine::testFilter(const QtMobility::QOrganizerItemFilter&, const QtMobility::QOrganizerItem&)  - Undefined Reference
    _ZN10QtMobility23QOrganizerManagerEngine10testFilterERKNS_20QOrganizerItemFilterERKNS_14QOrganizerItemE@QtOrganizer{00010103}[2002bfcd].dll  - Undefined Reference
    QtMobility::QOrganizerManagerEngine::qt_metacall(QMetaObject::Call, int, void**)  - Undefined Reference
    _ZN10QtMobility23QOrganizerManagerEngine11qt_metacallEN11QMetaObject4CallEiPPv@QtOrganizer{00010103}[2002bfcd].dll  - Undefined Reference
    QtMobility::QOrganizerManagerEngine::qt_metacast(const char*)  - Undefined Reference
    _ZN10QtMobility23QOrganizerManagerEngine11qt_metacastEPKc@QtOrganizer{00010103}[2002bfcd].dll  - Undefined Reference
    QtMobility::QOrganizerManagerEngine::engineItemId(const QtMobility::QOrganizerItemId&)  - Undefined Reference
    _ZN10QtMobility23QOrganizerManagerEngine12engineItemIdERKNS_16QOrganizerItemIdE@QtOrganizer{00010103}[2002bfcd].dll  - Undefined Reference
    QtMobility::QOrganizerManagerEngine::collectionsAdded(const QList<QtMobility::QOrganizerCollectionId>&)  - Undefined Reference
    _ZN10QtMobility23QOrganizerManagerEngine16collectionsAddedERK5QListINS_22QOrganizerCollectionIdEE@QtOrganizer{00010103}[2002bfcd].dll  - Undefined Reference
    QtMobility::QOrganizerManagerEngine::staticMetaObject  - Undefined Reference
    _ZN10QtMobility23QOrganizerManagerEngine16staticMetaObjectE@QtOrganizer{00010103}[2002bfcd].dll  - Undefined Reference
    QtMobility::QOrganizerManagerEngine::schemaDefinitions(int)  - Undefined Reference
    _ZN10QtMobility23QOrganizerManagerEngine17schemaDefinitionsEi@QtOrganizer{00010103}[2002bfcd].dll  - Undefined Reference
    QtMobility::QOrganizerManagerEngine::collectionsChanged(const QList<QtMobility::QOrganizerCollectionId>&)  - Undefined Reference
    _ZN10QtMobility23QOrganizerManagerEngine18collectionsChangedERK5QListINS_22QOrganizerCollectionIdEE@QtOrganizer{00010103}[2002bfcd].dll  - Undefined Reference
    QtMobility::QOrganizerManagerEngine::collectionsRemoved(const QList<QtMobility::QOrganizerCollectionId>&)  - Undefined Reference
    _ZN10QtMobility23QOrganizerManagerEngine18collectionsRemovedERK5QListINS_22QOrganizerCollectionIdEE@QtOrganizer{00010103}[2002bfcd].dll  - Undefined Reference
    QtMobility::QOrganizerManagerEngine::updateRequestState(QtMobility::QOrganizerAbstractRequest*, QtMobility::QOrganizerAbstractRequest::State)  - Undefined Reference
    _ZN10QtMobility23QOrganizerManagerEngine18updateRequestStateEPNS_25QOrganizerAbstractRequestENS1_5StateE@QtOrganizer{00010103}[2002bfcd].dll  - Undefined Reference
    QtMobility::QOrganizerManagerEngine::saveDetailDefinition(const QtMobility::QOrganizerItemDetailDefinition&, const QString&, QtMobility::QOrganizerManager::Error*)  - Undefined Reference
    _ZN10QtMobility23QOrganizerManagerEngine20saveDetailDefinitionERKNS_30QOrganizerItemDetailDefinitionERK7QStringPNS_17QOrganizerManager5ErrorE@QtOrganizer{00010103}[2002bfcd].dll  - Undefined Reference
    QtMobility::QOrganizerManagerEngine::updateItemSaveRequest(QtMobility::QOrganizerItemSaveRequest*, const QList<QtMobility::QOrganizerItem>&, QtMobility::QOrganizerManager::Error, const QMap<int, QtMobility::QOrganizerManager::Error>&, QtMobility::QOrganizerAbstractRequest::State)  - Undefined Reference
    _ZN10QtMobility23QOrganizerManagerEngine21updateItemSaveRequestEPNS_25QOrganizerItemSaveRequestERK5QListINS_14QOrganizerItemEENS_17QOrganizerManager5ErrorERK4QMapIiS9_ENS_25QOrganizerAbstractRequest5StateE@QtOrganizer{00010103}[2002bfcd].dll  - Undefined Reference
    QtMobility::QOrganizerManagerEngine::removeDetailDefinition(const QString&, const QString&, QtMobility::QOrganizerManager::Error*)  - Undefined Reference
    _ZN10QtMobility23QOrganizerManagerEngine22removeDetailDefinitionERK7QStringS3_PNS_17QOrganizerManager5ErrorE@QtOrganizer{00010103}[2002bfcd].dll  - Undefined Reference
    QtMobility::QOrganizerManagerEngine::updateItemFetchRequest(QtMobility::QOrganizerItemFetchRequest*, const QList<QtMobility::QOrganizerItem>&, QtMobility::QOrganizerManager::Error, QtMobility::QOrganizerAbstractRequest::State)  - Undefined Reference
    _ZN10QtMobility23QOrganizerManagerEngine22updateItemFetchRequestEPNS_26QOrganizerItemFetchRequestERK5QListINS_14QOrganizerItemEENS_17QOrganizerManager5ErrorENS_25QOrganizerAbstractRequest5StateE@QtOrganizer{00010103}[2002bfcd].dll  - Undefined Reference
    QtMobility::QOrganizerManagerEngine::updateItemRemoveRequest(QtMobility::QOrganizerItemRemoveRequest*, QtMobility::QOrganizerManager::Error, const QMap<int, QtMobility::QOrganizerManager::Error>&, QtMobility::QOrganizerAbstractRequest::State)  - Undefined Reference
    _ZN10QtMobility23QOrganizerManagerEngine23updateItemRemoveRequestEPNS_27QOrganizerItemRemoveRequestENS_17QOrganizerManager5ErrorERK4QMapIiS4_ENS_25QOrganizerAbstractRequest5StateE@QtOrganizer{00010103}[2002bfcd].dll  - Undefined Reference
    QtMobility::QOrganizerManagerEngine::updateItemIdFetchRequest(QtMobility::QOrganizerItemIdFetchRequest*, const QList<QtMobility::QOrganizerItemId>&, QtMobility::QOrganizerManager::Error, QtMobility::QOrganizerAbstractRequest::State)  - Undefined Reference
    _ZN10QtMobility23QOrganizerManagerEngine24updateItemIdFetchRequestEPNS_28QOrganizerItemIdFetchRequestERK5QListINS_16QOrganizerItemIdEENS_17QOrganizerManager5ErrorENS_25QOrganizerAbstractRequest5StateE@QtOrganizer{00010103}[2002bfcd].dll  - Undefined Reference
    QtMobility::QOrganizerManagerEngine::updateCollectionSaveRequest(QtMobility::QOrganizerCollectionSaveRequest*, const QList<QtMobility::QOrganizerCollection>&, QtMobility::QOrganizerManager::Error, const QMap<int, QtMobility::QOrganizerManager::Error>&, QtMobility::QOrganizerAbstractRequest::State)  - Undefined Reference
    _ZN10QtMobility23QOrganizerManagerEngine27updateCollectionSaveRequestEPNS_31QOrganizerCollectionSaveRequestERK5QListINS_20QOrganizerCollectionEENS_17QOrganizerManager5ErrorERK4QMapIiS9_ENS_25QOrganizerAbstractRequest5StateE@QtOrganizer{00010103}[2002bfcd].dll  - Undefined Reference
    QtMobility::QOrganizerManagerEngine::updateDefinitionSaveRequest(QtMobility::QOrganizerItemDetailDefinitionSaveRequest*, const QList<QtMobility::QOrganizerItemDetailDefinition>&, QtMobility::QOrganizerManager::Error, const QMap<int, QtMobility::QOrganizerManager::Error>&, QtMobility::QOrganizerAbstractRequest::State)  - Undefined Reference
    _ZN10QtMobility23QOrganizerManagerEngine27updateDefinitionSaveRequestEPNS_41QOrganizerItemDetailDefinitionSaveRequestERK5QListINS_30QOrganizerItemDetailDefinitionEENS_17QOrganizerManager5ErrorERK4QMapIiS9_ENS_25QOrganizerAbstractRequest5StateE@QtOrganizer{00010103}[2002bfcd].dll  - Undefined Reference
    QtMobility::QOrganizerManagerEngine::updateCollectionFetchRequest(QtMobility::QOrganizerCollectionFetchRequest*, const QList<QtMobility::QOrganizerCollection>&, QtMobility::QOrganizerManager::Error, QtMobility::QOrganizerAbstractRequest::State)  - Undefined Reference
    _ZN10QtMobility23QOrganizerManagerEngine28updateCollectionFetchRequestEPNS_32QOrganizerCollectionFetchRequestERK5QListINS_20QOrganizerCollectionEENS_17QOrganizerManager5ErrorENS_25QOrganizerAbstractRequest5StateE@QtOrganizer{00010103}[2002bfcd].dll  - Undefined Reference
    QtMobility::QOrganizerManagerEngine::updateDefinitionFetchRequest(QtMobility::QOrganizerItemDetailDefinitionFetchRequest*, const QMap<QString, QtMobility::QOrganizerItemDetailDefinition>&, QtMobility::QOrganizerManager::Error, QMap<int, QtMobility::QOrganizerManager::Error>&, QtMobility::QOrganizerAbstractRequest::State)  - Undefined Reference
    _ZN10QtMobility23QOrganizerManagerEngine28updateDefinitionFetchRequestEPNS_42QOrganizerItemDetailDefinitionFetchRequestERK4QMapI7QStringNS_30QOrganizerItemDetailDefinitionEENS_17QOrganizerManager5ErrorERKS3_IiSA_ENS_25QOrganizerAbstractRequest5StateE@QtOrganizer{00010103}[2002bfcd].dll  - Undefined Reference
    QtMobility::QOrganizerManagerEngine::updateCollectionRemoveRequest(QtMobility::QOrganizerCollectionRemoveRequest*, QtMobility::QOrganizerManager::Error, const QMap<int, QtMobility::QOrganizerManager::Error>&, QtMobility::QOrganizerAbstractRequest::State)  - Undefined Reference
    _ZN10QtMobility23QOrganizerManagerEngine29updateCollectionRemoveRequestEPNS_33QOrganizerCollectionRemoveRequestENS_17QOrganizerManager5ErrorERK4QMapIiS4_ENS_25QOrganizerAbstractRequest5StateE@QtOrganizer{00010103}[2002bfcd].dll  - Undefined Reference
    QtMobility::QOrganizerManagerEngine::updateDefinitionRemoveRequest(QtMobility::QOrganizerItemDetailDefinitionRemoveRequest*, QtMobility::QOrganizerManager::Error, const QMap<int, QtMobility::QOrganizerManager::Error>&, QtMobility::QOrganizerAbstractRequest::State)  - Undefined Reference
    _ZN10QtMobility23QOrganizerManagerEngine29updateDefinitionRemoveRequestEPNS_43QOrganizerItemDetailDefinitionRemoveRequestENS_17QOrganizerManager5ErrorERK4QMapIiS4_ENS_25QOrganizerAbstractRequest5StateE@QtOrganizer{00010103}[2002bfcd].dll  - Undefined Reference
    QtMobility::QOrganizerManagerEngine::updateItemFetchForExportRequest(QtMobility::QOrganizerItemFetchForExportRequest*, const QList<QtMobility::QOrganizerItem>&, QtMobility::QOrganizerManager::Error, QtMobility::QOrganizerAbstractRequest::State)  - Undefined Reference
    _ZN10QtMobility23QOrganizerManagerEngine31updateItemFetchForExportRequestEPNS_35QOrganizerItemFetchForExportRequestERK5QListINS_14QOrganizerItemEENS_17QOrganizerManager5ErrorENS_25QOrganizerAbstractRequest5StateE@QtOrganizer{00010103}[2002bfcd].dll  - Undefined Reference
    QtMobility::QOrganizerManagerEngine::addSorted(QList<QtMobility::QOrganizerItem>*, const QtMobility::QOrganizerItem&, QList<QtMobility::QOrganizerItemSortOrder>&)  - Undefined Reference
    _ZN10QtMobility23QOrganizerManagerEngine9addSortedEP5QListINS_14QOrganizerItemEERKS2_RKS1_INS_23QOrganizerItemSortOrderEE@QtOrganizer{00010103}[2002bfcd].dll  - Undefined Reference
    QtMobility::QOrganizerItemRecurrence::DefinitionName  - Undefined Reference
    _ZN10QtMobility24QOrganizerItemRecurrence14DefinitionNameE@QtOrganizer{00010103}[2002bfcd].dll  - Undefined Reference
    QtMobility::QOrganizerItemRecurrence::setExceptionDates(const QSet<QDate>&)  - Undefined Reference
    _ZN10QtMobility24QOrganizerItemRecurrence17setExceptionDatesERK4QSetI5QDateE@QtOrganizer{00010103}[2002bfcd].dll  - Undefined Reference
    QtMobility::QOrganizerItemRecurrence::setRecurrenceDates(const QSet<QDate>&)  - Undefined Reference
    _ZN10QtMobility24QOrganizerItemRecurrence18setRecurrenceDatesERK4QSetI5QDateE@QtOrganizer{00010103}[2002bfcd].dll  - Undefined Reference
    QtMobility::QOrganizerItemRecurrence::setRecurrenceRules(const QSet<QtMobility::QOrganizerRecurrenceRule>&)  - Undefined Reference
    _ZN10QtMobility24QOrganizerItemRecurrence18setRecurrenceRulesERK4QSetINS_24QOrganizerRecurrenceRuleEE@QtOrganizer{00010103}[2002bfcd].dll  - Undefined Reference
    QtMobility::QOrganizerItemRecurrence::FieldExceptionRules  - Undefined Reference
    _ZN10QtMobility24QOrganizerItemRecurrence19FieldExceptionRulesE@QtOrganizer{00010103}[2002bfcd].dll  - Undefined Reference
    QtMobility::QOrganizerRecurrenceRule::setInterval(int)  - Undefined Reference
    _ZN10QtMobility24QOrganizerRecurrenceRule11setIntervalEi@QtOrganizer{00010103}[2002bfcd].dll  - Undefined Reference
    QtMobility::QOrganizerRecurrenceRule::setFrequency(QtMobility::QOrganizerRecurrenceRule::Frequency)  - Undefined Reference
    _ZN10QtMobility24QOrganizerRecurrenceRule12setFrequencyENS0_9FrequencyE@QtOrganizer{00010103}[2002bfcd].dll  - Undefined Reference
    QtMobility::QOrganizerRecurrenceRule::setPositions(const QSet<int>&)  - Undefined Reference
    _ZN10QtMobility24QOrganizerRecurrenceRule12setPositionsERK4QSetIiE@QtOrganizer{00010103}[2002bfcd].dll  - Undefined Reference
    QtMobility::QOrganizerRecurrenceRule::setDaysOfWeek(const QSet<Qt::DayOfWeek>&)  - Undefined Reference
    _ZN10QtMobility24QOrganizerRecurrenceRule13setDaysOfWeekERK4QSetIN2Qt9DayOfWeekEE@QtOrganizer{00010103}[2002bfcd].dll  - Undefined Reference
    QtMobility::QOrganizerRecurrenceRule::setDaysOfMonth(const QSet<int>&)  - Undefined Reference
    _ZN10QtMobility24QOrganizerRecurrenceRule14setDaysOfMonthERK4QSetIiE@QtOrganizer{00010103}[2002bfcd].dll  - Undefined Reference
    QtMobility::QOrganizerRecurrenceRule::setMonthsOfYear(const QSet<QtMobility::QOrganizerRecurrenceRule::Month>&)  - Undefined Reference
    _ZN10QtMobility24QOrganizerRecurrenceRule15setMonthsOfYearERK4QSetINS0_5MonthEE@QtOrganizer{00010103}[2002bfcd].dll  - Undefined Reference
    QtMobility::QOrganizerRecurrenceRule::setFirstDayOfWeek(Qt::DayOfWeek)  - Undefined Reference
    _ZN10QtMobility24QOrganizerRecurrenceRule17setFirstDayOfWeekEN2Qt9DayOfWeekE@QtOrganizer{00010103}[2002bfcd].dll  - Undefined Reference
    QtMobility::QOrganizerRecurrenceRule::setLimit(const QDate&)  - Undefined Reference
    _ZN10QtMobility24QOrganizerRecurrenceRule8setLimitERK5QDate@QtOrganizer{00010103}[2002bfcd].dll  - Undefined Reference
    QtMobility::QOrganizerRecurrenceRule::setLimit(int)  - Undefined Reference
    _ZN10QtMobility24QOrganizerRecurrenceRule8setLimitEi@QtOrganizer{00010103}[2002bfcd].dll  - Undefined Reference
    QtMobility::QOrganizerRecurrenceRule::QOrganizerRecurrenceRule(const QtMobility::QOrganizerRecurrenceRule&)  - Undefined Reference
    _ZN10QtMobility24QOrganizerRecurrenceRuleC1ERKS0_@QtOrganizer{00010103}[2002bfcd].dll  - Undefined Reference
    QtMobility::QOrganizerRecurrenceRule::QOrganizerRecurrenceRule()  - Undefined Reference
    _ZN10QtMobility24QOrganizerRecurrenceRuleC1Ev@QtOrganizer{00010103}[2002bfcd].dll  - Undefined Reference
    QtMobility::QOrganizerRecurrenceRule::~QOrganizerRecurrenceRule()  - Undefined Reference
    _ZN10QtMobility24QOrganizerRecurrenceRuleD1Ev@QtOrganizer{00010103}[2002bfcd].dll  - Undefined Reference
    QtMobility::QOrganizerItemDescription::DefinitionName  - Undefined Reference
    _ZN10QtMobility25QOrganizerItemDescription14DefinitionNameE@QtOrganizer{00010103}[2002bfcd].dll  - Undefined Reference
    QtMobility::QOrganizerItemSaveRequest::setItems(const QList<QtMobility::QOrganizerItem>&)  - Undefined Reference
    _ZN10QtMobility25QOrganizerItemSaveRequest8setItemsERK5QListINS_14QOrganizerItemEE@QtOrganizer{00010103}[2002bfcd].dll  - Undefined Reference
    QtMobility::QOrganizerItemUnionFilter::QOrganizerItemUnionFilter(const QtMobility::QOrganizerItemFilter&)  - Undefined Reference
    _ZN10QtMobility25QOrganizerItemUnionFilterC1ERKNS_20QOrganizerItemFilterE@QtOrganizer{00010103}[2002bfcd].dll  - Undefined Reference
    QtMobility::QOrganizerItemDisplayLabel::DefinitionName  - Undefined Reference
    _ZN10QtMobility26QOrganizerItemDisplayLabel14DefinitionNameE@QtOrganizer{00010103}[2002bfcd].dll  - Undefined Reference
    QtMobility::QOrganizerCollectionChangeSet::emitSignals(QtMobility::QOrganizerManagerEngine*)  - Undefined Reference
    _ZN10QtMobility29QOrganizerCollectionChangeSet11emitSignalsEPNS_23QOrganizerManagerEngineE@QtOrganizer{00010103}[2002bfcd].dll  - Undefined Reference
    QtMobility::QOrganizerCollectionChangeSet::insertAddedCollection(const QtMobility::QOrganizerCollectionId&)  - Undefined Reference
    _ZN10QtMobility29QOrganizerCollectionChangeSet21insertAddedCollectionERKNS_22QOrganizerCollectionIdE@QtOrganizer{00010103}[2002bfcd].dll  - Undefined Reference
    QtMobility::QOrganizerCollectionChangeSet::insertRemovedCollection(const QtMobility::QOrganizerCollectionId&)  - Undefined Reference
    _ZN10QtMobility29QOrganizerCollectionChangeSet23insertRemovedCollectionERKNS_22QOrganizerCollectionIdE@QtOrganizer{00010103}[2002bfcd].dll  - Undefined Reference
    QtMobility::QOrganizerCollectionChangeSet::QOrganizerCollectionChangeSet()  - Undefined Reference
    _ZN10QtMobility29QOrganizerCollectionChangeSetC1Ev@QtOrganizer{00010103}[2002bfcd].dll  - Undefined Reference
    QtMobility::QOrganizerCollectionChangeSet::~QOrganizerCollectionChangeSet()  - Undefined Reference
    _ZN10QtMobility29QOrganizerCollectionChangeSetD1Ev@QtOrganizer{00010103}[2002bfcd].dll  - Undefined Reference
    QtMobility::QOrganizerItemCollectionFilter::QOrganizerItemCollectionFilter(const QtMobility::QOrganizerItemFilter&)  - Undefined Reference
    _ZN10QtMobility30QOrganizerItemCollectionFilterC1ERKNS_20QOrganizerItemFilterE@QtOrganizer{00010103}[2002bfcd].dll  - Undefined Reference
    QtMobility::QOrganizerItemDetailDefinition::removeField(const QString&)  - Undefined Reference
    _ZN10QtMobility30QOrganizerItemDetailDefinition11removeFieldERK7QString@QtOrganizer{00010103}[2002bfcd].dll  - Undefined Reference
    QtMobility::QOrganizerItemDetailDefinition::setName(const QString&)  - Undefined Reference
    _ZN10QtMobility30QOrganizerItemDetailDefinition7setNameERK7QString@QtOrganizer{00010103}[2002bfcd].dll  - Undefined Reference
    QtMobility::QOrganizerItemDetailDefinition::setFields(const QMap<QString, QtMobility::QOrganizerItemDetailFieldDefinition>&)  - Undefined Reference
    _ZN10QtMobility30QOrganizerItemDetailDefinition9setFieldsERK4QMapI7QStringNS_35QOrganizerItemDetailFieldDefinitionEE@QtOrganizer{00010103}[2002bfcd].dll  - Undefined Reference
    QtMobility::QOrganizerItemDetailDefinition::setUnique(bool)  - Undefined Reference
    _ZN10QtMobility30QOrganizerItemDetailDefinition9setUniqueEb@QtOrganizer{00010103}[2002bfcd].dll  - Undefined Reference
    QtMobility::QOrganizerItemDetailDefinition::QOrganizerItemDetailDefinition(const QtMobility::QOrganizerItemDetailDefinition&)  - Undefined Reference
    _ZN10QtMobility30QOrganizerItemDetailDefinitionC1ERKS0_@QtOrganizer{00010103}[2002bfcd].dll  - Undefined Reference
    QtMobility::QOrganizerItemDetailDefinition::QOrganizerItemDetailDefinition()  - Undefined Reference
    _ZN10QtMobility30QOrganizerItemDetailDefinitionC1Ev@QtOrganizer{00010103}[2002bfcd].dll  - Undefined Reference
    QtMobility::QOrganizerItemDetailDefinition::~QOrganizerItemDetailDefinition()  - Undefined Reference
    _ZN10QtMobility30QOrganizerItemDetailDefinitionD1Ev@QtOrganizer{00010103}[2002bfcd].dll  - Undefined Reference
    QtMobility::QOrganizerItemDetailDefinition::operator =(const QtMobility::QOrganizerItemDetailDefinition&)  - Undefined Reference
    _ZN10QtMobility30QOrganizerItemDetailDefinitionaSERKS0_@QtOrganizer{00010103}[2002bfcd].dll  - Undefined Reference
    QtMobility::QOrganizerManagerEngineFactory::~QOrganizerManagerEngineFactory__sub_object()  - Undefined Reference
    _ZN10QtMobility30QOrganizerManagerEngineFactoryD2Ev@QtOrganizer{00010103}[2002bfcd].dll  - Undefined Reference
    QtMobility::QOrganizerItemDetailFieldDefinition::setDataType(int)  - Undefined Reference
    _ZN10QtMobility35QOrganizerItemDetailFieldDefinition11setDataTypeEi@QtOrganizer{00010103}[2002bfcd].dll  - Undefined Reference
    QtMobility::QOrganizerItemDetailFieldDefinition::setAllowableValues(QList<QVariant>)  - Undefined Reference
    _ZN10QtMobility35QOrganizerItemDetailFieldDefinition18setAllowableValuesE5QListI8QVariantE@QtOrganizer{00010103}[2002bfcd].dll  - Undefined Reference
    QtMobility::QOrganizerItemDetailFieldDefinition::QOrganizerItemDetailFieldDefinition(const QtMobility::QOrganizerItemDetailFieldDefinition&)  - Undefined Reference
    _ZN10QtMobility35QOrganizerItemDetailFieldDefinitionC1ERKS0_@QtOrganizer{00010103}[2002bfcd].dll  - Undefined Reference
    QtMobility::QOrganizerItemDetailFieldDefinition::QOrganizerItemDetailFieldDefinition()  - Undefined Reference
    _ZN10QtMobility35QOrganizerItemDetailFieldDefinitionC1Ev@QtOrganizer{00010103}[2002bfcd].dll  - Undefined Reference
    QtMobility::QOrganizerItemDetailFieldDefinition::~QOrganizerItemDetailFieldDefinition()  - Undefined Reference
    _ZN10QtMobility35QOrganizerItemDetailFieldDefinitionD1Ev@QtOrganizer{00010103}[2002bfcd].dll  - Undefined Reference
    QtMobility::QOrganizerItemDetailFieldDefinition::operator =(const QtMobility::QOrganizerItemDetailFieldDefinition&)  - Undefined Reference
    _ZN10QtMobility35QOrganizerItemDetailFieldDefinitionaSERKS0_@QtOrganizer{00010103}[2002bfcd].dll  - Undefined Reference
    QtMobility::qHash(const QtMobility::QOrganizerItemId&)  - Undefined Reference
    _ZN10QtMobility5qHashERKNS_16QOrganizerItemIdE@QtOrganizer{00010103}[2002bfcd].dll  - Undefined Reference
    QtMobility::qHash(const QtMobility::QOrganizerCollectionId&)  - Undefined Reference
    _ZN10QtMobility5qHashERKNS_22QOrganizerCollectionIdE@QtOrganizer{00010103}[2002bfcd].dll  - Undefined Reference
    QtMobility::qHash(const QtMobility::QOrganizerRecurrenceRule&)  - Undefined Reference
    _ZN10QtMobility5qHashERKNS_24QOrganizerRecurrenceRuleE@QtOrganizer{00010103}[2002bfcd].dll  - Undefined Reference
    RArrayBase::Close()                       - Undefined Reference
    _ZN10RArrayBase5CloseEv@euser{000a0000}[100039e5].dll  - Undefined Reference
    RArrayBase::Append(const void*)           - Undefined Reference
    _ZN10RArrayBase6AppendEPKv@euser{000a0000}[100039e5].dll  - Undefined Reference
    RArrayBase::RArrayBase(int)               - Undefined Reference
    _ZN10RArrayBaseC1Ei@euser{000a0000}[100039e5].dll  - Undefined Reference
    CCalSession::StopChangeNotification()     - Undefined Reference
    _ZN11CCalSession22StopChangeNotificationEv@calinterimapi{000a0000}[102075e4].dll  - Undefined Reference
    CCalSession::StartChangeNotification(MCalChangeCallBack2&, const CCalChangeNotificationFilter&)  - Undefined Reference
    _ZN11CCalSession23StartChangeNotificationER19MCalChangeCallBack2RK28CCalChangeNotificationFilter@calinterimapi{000a0000}[102075e4].dll  - Undefined Reference
    CCalSession::StartFileChangeNotificationL(MCalFileChangeObserver&)  - Undefined Reference
    _ZN11CCalSession28StartFileChangeNotificationLER22MCalFileChangeObserver@calinterimapi{000a0000}[102075e4].dll  - Undefined Reference
    CCalSession::NewL()                       - Undefined Reference
    _ZN11CCalSession4NewLEv@calinterimapi{000a0000}[102075e4].dll  - Undefined Reference
    QMetaObject::changeGuard(QObject**, QObject*)  - Undefined Reference
    _ZN11QMetaObject11changeGuardEPP7QObjectS1_@QtCore{00040703}[2001b2dc].dll  - Undefined Reference
    QMetaObject::removeGuard(QObject**)       - Undefined Reference
    _ZN11QMetaObject11removeGuardEPP7QObject@QtCore{00040703}[2001b2dc].dll  - Undefined Reference
    QTextStream::QTextStream(QString*, QFlags<QIODevice::OpenModeFlag>)  - Undefined Reference
    _ZN11QTextStreamC1EP7QString6QFlagsIN9QIODevice12OpenModeFlagEE@QtCore{00040703}[2001b2dc].dll  - Undefined Reference
    QTextStream::~QTextStream()               - Undefined Reference
    _ZN11QTextStreamD1Ev@QtCore{00040703}[2001b2dc].dll  - Undefined Reference
    QTextStream::operator <<(const QString&)  - Undefined Reference
    _ZN11QTextStreamlsERK7QString@QtCore{00040703}[2001b2dc].dll  - Undefined Reference
    QTextStream::operator <<(char)            - Undefined Reference
    _ZN11QTextStreamlsEc@QtCore{00040703}[2001b2dc].dll  - Undefined Reference
    QTextStream::operator <<(int)             - Undefined Reference
    _ZN11QTextStreamlsEi@QtCore{00040703}[2001b2dc].dll  - Undefined Reference
    QTextStream::operator <<(unsigned)        - Undefined Reference
    _ZN11QTextStreamlsEj@QtCore{00040703}[2001b2dc].dll  - Undefined Reference
    CCalGeoValue::SetLatLongL(const double&, const double&)  - Undefined Reference
    _ZN12CCalGeoValue11SetLatLongLERKdS1_@calinterimapi{000a0000}[102075e4].dll  - Undefined Reference
    CCalGeoValue::NewL()                      - Undefined Reference
    _ZN12CCalGeoValue4NewLEv@calinterimapi{000a0000}[102075e4].dll  - Undefined Reference
    CleanupStack::PopAndDestroy()             - Undefined Reference
    _ZN12CleanupStack13PopAndDestroyEv@euser{000a0000}[100039e5].dll  - Undefined Reference
    CleanupStack::Pop()                       - Undefined Reference
    _ZN12CleanupStack3PopEv@euser{000a0000}[100039e5].dll  - Undefined Reference
    CleanupStack::Check(void*)                - Undefined Reference
    _ZN12CleanupStack5CheckEPv@euser{000a0000}[100039e5].dll  - Undefined Reference
    CleanupStack::PushL(TCleanupItem)         - Undefined Reference
    _ZN12CleanupStack5PushLE12TCleanupItem@euser{000a0000}[100039e5].dll  - Undefined Reference
    CleanupStack::PushL(CBase*)               - Undefined Reference
    _ZN12CleanupStack5PushLEP5CBase@euser{000a0000}[100039e5].dll  - Undefined Reference
    CCalEntryView::NewL(CCalSession&, MCalProgressCallBack&)  - Undefined Reference
    _ZN13CCalEntryView4NewLER11CCalSessionR20MCalProgressCallBack@calinterimapi{000a0000}[102075e4].dll  - Undefined Reference
    CCalEntryView::StoreL(const RPointerArray<CCalEntry>&, int&)  - Undefined Reference
    _ZN13CCalEntryView6StoreLERK13RPointerArrayI9CCalEntryERi@calinterimapi{000a0000}[102075e4].dll  - Undefined Reference
    CCalEntryView::DeleteL(const CCalEntry&)  - Undefined Reference
    _ZN13CCalEntryView7DeleteLERK9CCalEntry@calinterimapi{000a0000}[102075e4].dll  - Undefined Reference
    QtSharedPointer::ExternalRefCountData::getAndRef(const QObject*)  - Undefined Reference
    _ZN15QtSharedPointer20ExternalRefCountData9getAndRefEPK7QObject@QtCore{00040703}[2001b2dc].dll  - Undefined Reference
    CActiveScheduler::Add(CActive*)           - Undefined Reference
    _ZN16CActiveScheduler3AddEP7CActive@euser{000a0000}[100039e5].dll  - Undefined Reference
    CCalCalendarInfo::SetEnabled(int)         - Undefined Reference
    _ZN16CCalCalendarInfo10SetEnabledEi@calinterimapi{000a0000}[102075e4].dll  - Undefined Reference
    CCalCalendarInfo::SetPropertyL(const TDesC8&, const TDesC8&)  - Undefined Reference
    _ZN16CCalCalendarInfo12SetPropertyLERK6TDesC8S2_@calinterimapi{000a0000}[102075e4].dll  - Undefined Reference
    CCalCalendarInfo::SetDescriptionL(const TDesC16&)  - Undefined Reference
    _ZN16CCalCalendarInfo15SetDescriptionLERK7TDesC16@calinterimapi{000a0000}[102075e4].dll  - Undefined Reference
    CCalCalendarInfo::NewL()                  - Undefined Reference
    _ZN16CCalCalendarInfo4NewLEv@calinterimapi{000a0000}[102075e4].dll  - Undefined Reference
    CCalCalendarInfo::SetColor(TRgb)          - Undefined Reference
    _ZN16CCalCalendarInfo8SetColorE4TRgb@calinterimapi{000a0000}[102075e4].dll  - Undefined Reference
    CCalCalendarInfo::SetNameL(const TDesC16&)  - Undefined Reference
    _ZN16CCalCalendarInfo8SetNameLERK7TDesC16@calinterimapi{000a0000}[102075e4].dll  - Undefined Reference
    CCalInstanceView::NewL(CCalSession&, MCalProgressCallBack&)  - Undefined Reference
    _ZN16CCalInstanceView4NewLER11CCalSessionR20MCalProgressCallBack@calinterimapi{000a0000}[102075e4].dll  - Undefined Reference
    RPointerArrayBase::Close()                - Undefined Reference
    _ZN17RPointerArrayBase5CloseEv@euser{000a0000}[100039e5].dll  - Undefined Reference
    RPointerArrayBase::Reset()                - Undefined Reference
    _ZN17RPointerArrayBase5ResetEv@euser{000a0000}[100039e5].dll  - Undefined Reference
    RPointerArrayBase::Append(const void*)    - Undefined Reference
    _ZN17RPointerArrayBase6AppendEPKv@euser{000a0000}[100039e5].dll  - Undefined Reference
    RPointerArrayBase::Remove(int)            - Undefined Reference
    _ZN17RPointerArrayBase6RemoveEi@euser{000a0000}[100039e5].dll  - Undefined Reference
    RPointerArrayBase::RPointerArrayBase()    - Undefined Reference
    _ZN17RPointerArrayBaseC1Ev@euser{000a0000}[100039e5].dll  - Undefined Reference
    CActiveSchedulerWait::Start()             - Undefined Reference
    _ZN20CActiveSchedulerWait5StartEv@euser{000a0000}[100039e5].dll  - Undefined Reference
    CActiveSchedulerWait::AsyncStop()         - Undefined Reference
    _ZN20CActiveSchedulerWait9AsyncStopEv@euser{000a0000}[100039e5].dll  - Undefined Reference
    CActiveSchedulerWait::CActiveSchedulerWait()  - Undefined Reference
    _ZN20CActiveSchedulerWaitC1Ev@euser{000a0000}[100039e5].dll  - Undefined Reference
    CCalCalendarIterator::NewL(CCalSession&)  - Undefined Reference
    _ZN20CCalCalendarIterator4NewLER11CCalSession@calinterimapi{000a0000}[102075e4].dll  - Undefined Reference
    CCalCalendarIterator::NextL()             - Undefined Reference
    _ZN20CCalCalendarIterator5NextLEv@calinterimapi{000a0000}[102075e4].dll  - Undefined Reference
    CCalCalendarIterator::FirstL()            - Undefined Reference
    _ZN20CCalCalendarIterator6FirstLEv@calinterimapi{000a0000}[102075e4].dll  - Undefined Reference
    CCalChangeNotificationFilter::NewL(MCalChangeCallBack2::TChangeEntryType, int, const CalCommon::TCalTimeRange&)  - Undefined Reference
    _ZN28CCalChangeNotificationFilter4NewLEN19MCalChangeCallBack216TChangeEntryTypeEiRKN9CalCommon13TCalTimeRangeE@calinterimapi{000a0000}[102075e4].dll  - Undefined Reference
    CCalChangeNotificationFilter::~CCalChangeNotificationFilter()  - Undefined Reference
    _ZN28CCalChangeNotificationFilterD1Ev@calinterimapi{000a0000}[102075e4].dll  - Undefined Reference
    Time::NullTTime()                         - Undefined Reference
    _ZN4Time9NullTTimeEv@euser{000a0000}[100039e5].dll  - Undefined Reference
    User::LeaveIfError(int)                   - Undefined Reference
    _ZN4User12LeaveIfErrorEi@euser{000a0000}[100039e5].dll  - Undefined Reference
    User::RequestComplete(TRequestStatus*&, int)  - Undefined Reference
    _ZN4User15RequestCompleteERP14TRequestStatusi@euser{000a0000}[100039e5].dll  - Undefined Reference
    User::MarkCleanupStack()                  - Undefined Reference
    _ZN4User16MarkCleanupStackEv@euser{000a0000}[100039e5].dll  - Undefined Reference
    User::UnMarkCleanupStack(TTrapHandler*)   - Undefined Reference
    _ZN4User18UnMarkCleanupStackEP12TTrapHandler@euser{000a0000}[100039e5].dll  - Undefined Reference
    User::Leave(int)                          - Undefined Reference
    _ZN4User5LeaveEi@euser{000a0000}[100039e5].dll  - Undefined Reference
    User::AllocZ(int)                         - Undefined Reference
    _ZN4User6AllocZEi@euser{000a0000}[100039e5].dll  - Undefined Reference
    User::AllocZL(int)                        - Undefined Reference
    _ZN4User7AllocZLEi@euser{000a0000}[100039e5].dll  - Undefined Reference
    User::Invariant()                         - Undefined Reference
    _ZN4User9InvariantEv@euser{000a0000}[100039e5].dll  - Undefined Reference
    User::LockedDec(int&)                     - Undefined Reference
    _ZN4User9LockedDecERi@euser{000a0000}[100039e5].dll  - Undefined Reference
    User::LockedInc(int&)                     - Undefined Reference
    _ZN4User9LockedIncERi@euser{000a0000}[100039e5].dll  - Undefined Reference
    QDate::QDate(int, int, int)               - Undefined Reference
    _ZN5QDateC1Eiii@QtCore{00040703}[2001b2dc].dll  - Undefined Reference
    QTime::QTime(int, int, int, int)          - Undefined Reference
    _ZN5QTimeC1Eiiii@QtCore{00040703}[2001b2dc].dll  - Undefined Reference
    TDes8::Num(long long)                     - Undefined Reference
    _ZN5TDes83NumEx@euser{000a0000}[100039e5].dll  - Undefined Reference
    TDes8::Copy(const TDesC8&)                - Undefined Reference
    _ZN5TDes84CopyERK6TDesC8@euser{000a0000}[100039e5].dll  - Undefined Reference
    TDes8::AppendNum(long long)               - Undefined Reference
    _ZN5TDes89AppendNumEx@euser{000a0000}[100039e5].dll  - Undefined Reference
    TTime::UniversalTime()                    - Undefined Reference
    _ZN5TTime13UniversalTimeEv@euser{000a0000}[100039e5].dll  - Undefined Reference
    TTime::HomeTime()                         - Undefined Reference
    _ZN5TTime8HomeTimeEv@euser{000a0000}[100039e5].dll  - Undefined Reference
    TTime::TTime(const TDateTime&)            - Undefined Reference
    _ZN5TTimeC1ERK9TDateTime@euser{000a0000}[100039e5].dll  - Undefined Reference
    HBufC8::Des()                             - Undefined Reference
    _ZN6HBufC83DesEv@euser{000a0000}[100039e5].dll  - Undefined Reference
    HBufC8::NewLC(int)                        - Undefined Reference
    _ZN6HBufC85NewLCEi@euser{000a0000}[100039e5].dll  - Undefined Reference
    QColor::invalidate()                      - Undefined Reference
    _ZN6QColor10invalidateEv@QtGui{00040703}[2001b2dd].dll  - Undefined Reference
    QColor::setRgb(int, int, int, int)        - Undefined Reference
    _ZN6QColor6setRgbEiiii@QtGui{00040703}[2001b2dd].dll  - Undefined Reference
    QTimer::singleShot(int, QObject*, const char*)  - Undefined Reference
    _ZN6QTimer10singleShotEiP7QObjectPKc@QtCore{00040703}[2001b2dc].dll  - Undefined Reference
    TPtrC8::TPtrC8(const unsigned char*, int)  - Undefined Reference
    _ZN6TPtrC8C1EPKhi@euser{000a0000}[100039e5].dll  - Undefined Reference
    TPtrC8::TPtrC8(const TDesC8&)             - Undefined Reference
    _ZN6TPtrC8C1ERK6TDesC8@euser{000a0000}[100039e5].dll  - Undefined Reference
    CActive::Extension_(unsigned, void*&, void*)  - Undefined Reference
    _ZN7CActive10Extension_EjRPvS0_@euser{000a0000}[100039e5].dll  - Undefined Reference
    CActive::Cancel()                         - Undefined Reference
    _ZN7CActive6CancelEv@euser{000a0000}[100039e5].dll  - Undefined Reference
    CActive::SetActive()                      - Undefined Reference
    _ZN7CActive9SetActiveEv@euser{000a0000}[100039e5].dll  - Undefined Reference
    CActive::CActive__sub_object(int)         - Undefined Reference
    _ZN7CActiveC2Ei@euser{000a0000}[100039e5].dll  - Undefined Reference
    CActive::~CActive__sub_object()           - Undefined Reference
    _ZN7CActiveD2Ev@euser{000a0000}[100039e5].dll  - Undefined Reference
    QObject::childEvent(QChildEvent*)         - Undefined Reference
    _ZN7QObject10childEventEP11QChildEvent@QtCore{00040703}[2001b2dc].dll  - Undefined Reference
    QObject::disconnect(const QObject*, const char*, const QObject*, const char*)  - Undefined Reference
    _ZN7QObject10disconnectEPKS_PKcS1_S3_@QtCore{00040703}[2001b2dc].dll  - Undefined Reference
    QObject::timerEvent(QTimerEvent*)         - Undefined Reference
    _ZN7QObject10timerEventEP11QTimerEvent@QtCore{00040703}[2001b2dc].dll  - Undefined Reference
    QObject::customEvent(QEvent*)             - Undefined Reference
    _ZN7QObject11customEventEP6QEvent@QtCore{00040703}[2001b2dc].dll  - Undefined Reference
    QObject::deleteLater()                    - Undefined Reference
    _ZN7QObject11deleteLaterEv@QtCore{00040703}[2001b2dc].dll  - Undefined Reference
    QObject::eventFilter(QObject*, QEvent*)   - Undefined Reference
    _ZN7QObject11eventFilterEPS_P6QEvent@QtCore{00040703}[2001b2dc].dll  - Undefined Reference
    QObject::qt_metacall(QMetaObject::Call, int, void**)  - Undefined Reference
    _ZN7QObject11qt_metacallEN11QMetaObject4CallEiPPv@QtCore{00040703}[2001b2dc].dll  - Undefined Reference
    QObject::qt_metacast(const char*)         - Undefined Reference
    _ZN7QObject11qt_metacastEPKc@QtCore{00040703}[2001b2dc].dll  - Undefined Reference
    QObject::connectNotify(const char*)       - Undefined Reference
    _ZN7QObject13connectNotifyEPKc@QtCore{00040703}[2001b2dc].dll  - Undefined Reference
    QObject::disconnectNotify(const char*)    - Undefined Reference
    _ZN7QObject16disconnectNotifyEPKc@QtCore{00040703}[2001b2dc].dll  - Undefined Reference
    QObject::staticMetaObject                 - Undefined Reference
    _ZN7QObject16staticMetaObjectE@QtCore{00040703}[2001b2dc].dll  - Undefined Reference
    QObject::event(QEvent*)                   - Undefined Reference
    _ZN7QObject5eventEP6QEvent@QtCore{00040703}[2001b2dc].dll  - Undefined Reference
    QObject::connect(const QObject*, const char*, const QObject*, const char*, Qt::ConnectionType)  - Undefined Reference
    _ZN7QObject7connectEPKS_PKcS1_S3_N2Qt14ConnectionTypeE@QtCore{00040703}[2001b2dc].dll  - Undefined Reference
    QObject::QObject(QObject*)                - Undefined Reference
    _ZN7QObjectC1EPS_@QtCore{00040703}[2001b2dc].dll  - Undefined Reference
    QObject::~QObject()                       - Undefined Reference
    _ZN7QObjectD1Ev@QtCore{00040703}[2001b2dc].dll  - Undefined Reference
    QString::fromLatin1(const char*, int)     - Undefined Reference
    _ZN7QString10fromLatin1EPKci@QtCore{00040703}[2001b2dc].dll  - Undefined Reference
    QString::shared_null                      - Undefined Reference
    _ZN7QString11shared_nullE@QtCore{00040703}[2001b2dc].dll  - Undefined Reference
    QString::fromAscii_helper(const char*, int)  - Undefined Reference
    _ZN7QString16fromAscii_helperEPKci@QtCore{00040703}[2001b2dc].dll  - Undefined Reference
    QString::fromLatin1_helper(const char*, int)  - Undefined Reference
    _ZN7QString17fromLatin1_helperEPKci@QtCore{00040703}[2001b2dc].dll  - Undefined Reference
    QString::free(QString::Data*)             - Undefined Reference
    _ZN7QString4freeEPNS_4DataE@QtCore{00040703}[2001b2dc].dll  - Undefined Reference
    QString::append(const QString&)           - Undefined Reference
    _ZN7QString6appendERKS_@QtCore{00040703}[2001b2dc].dll  - Undefined Reference
    QString::number(int, int)                 - Undefined Reference
    _ZN7QString6numberEii@QtCore{00040703}[2001b2dc].dll  - Undefined Reference
    QString::number(unsigned long long, int)  - Undefined Reference
    _ZN7QString6numberEyi@QtCore{00040703}[2001b2dc].dll  - Undefined Reference
    QString::fromUtf8(const char*, int)       - Undefined Reference
    _ZN7QString8fromUtf8EPKci@QtCore{00040703}[2001b2dc].dll  - Undefined Reference
    QString::fromAscii(const char*, int)      - Undefined Reference
    _ZN7QString9fromAsciiEPKci@QtCore{00040703}[2001b2dc].dll  - Undefined Reference
    QString::fromUtf16(const unsigned short*, int)  - Undefined Reference
    _ZN7QString9fromUtf16EPKti@QtCore{00040703}[2001b2dc].dll  - Undefined Reference
    QString::operator =(const QString&)       - Undefined Reference
    _ZN7QStringaSERKS_@QtCore{00040703}[2001b2dc].dll  - Undefined Reference
    TPtrC16::TPtrC16(const unsigned short*, int)  - Undefined Reference
    _ZN7TPtrC16C1EPKti@euser{000a0000}[100039e5].dll  - Undefined Reference
    QMapData::createData(int)                 - Undefined Reference
    _ZN8QMapData10createDataEi@QtCore{00040703}[2001b2dc].dll  - Undefined Reference
    QMapData::node_create(QMapData::Node**, int, int)  - Undefined Reference
    _ZN8QMapData11node_createEPPNS_4NodeEii@QtCore{00040703}[2001b2dc].dll  - Undefined Reference
    QMapData::node_delete(QMapData::Node**, int, QMapData::Node*)  - Undefined Reference
    _ZN8QMapData11node_deleteEPPNS_4NodeEiS1_@QtCore{00040703}[2001b2dc].dll  - Undefined Reference
    QMapData::shared_null                     - Undefined Reference
    _ZN8QMapData11shared_nullE@QtCore{00040703}[2001b2dc].dll  - Undefined Reference
    QMapData::continueFreeData(int)           - Undefined Reference
    _ZN8QMapData16continueFreeDataEi@QtCore{00040703}[2001b2dc].dll  - Undefined Reference
    QVariant::handler                         - Undefined Reference
    _ZN8QVariant7handlerE@QtCore{00040703}[2001b2dc].dll  - Undefined Reference
    QVariant::QVariant(const QByteArray&)     - Undefined Reference
    _ZN8QVariantC1ERK10QByteArray@QtCore{00040703}[2001b2dc].dll  - Undefined Reference
    QVariant::QVariant(const QDate&)          - Undefined Reference
    _ZN8QVariantC1ERK5QDate@QtCore{00040703}[2001b2dc].dll  - Undefined Reference
    QVariant::QVariant(const QString&)        - Undefined Reference
    _ZN8QVariantC1ERK7QString@QtCore{00040703}[2001b2dc].dll  - Undefined Reference
    QVariant::QVariant(const QDateTime&)      - Undefined Reference
    _ZN8QVariantC1ERK9QDateTime@QtCore{00040703}[2001b2dc].dll  - Undefined Reference
    QVariant::QVariant(const QVariant&)       - Undefined Reference
    _ZN8QVariantC1ERKS_@QtCore{00040703}[2001b2dc].dll  - Undefined Reference
    QVariant::QVariant(bool)                  - Undefined Reference
    _ZN8QVariantC1Eb@QtCore{00040703}[2001b2dc].dll  - Undefined Reference
    QVariant::QVariant(double)                - Undefined Reference
    _ZN8QVariantC1Ed@QtCore{00040703}[2001b2dc].dll  - Undefined Reference
    QVariant::QVariant(int)                   - Undefined Reference
    _ZN8QVariantC1Ei@QtCore{00040703}[2001b2dc].dll  - Undefined Reference
    QVariant::QVariant(int, const void*, unsigned)  - Undefined Reference
    _ZN8QVariantC1EiPKvj@QtCore{00040703}[2001b2dc].dll  - Undefined Reference
    QVariant::QVariant(unsigned)              - Undefined Reference
    _ZN8QVariantC1Ej@QtCore{00040703}[2001b2dc].dll  - Undefined Reference
    QVariant::~QVariant()                     - Undefined Reference
    _ZN8QVariantD1Ev@QtCore{00040703}[2001b2dc].dll  - Undefined Reference
    QVariant::operator =(const QVariant&)     - Undefined Reference
    _ZN8QVariantaSERKS_@QtCore{00040703}[2001b2dc].dll  - Undefined Reference
    TCalTime::SetTimeUtcL(const TTime&)       - Undefined Reference
    _ZN8TCalTime11SetTimeUtcLERK5TTime@calinterimapi{000a0000}[102075e4].dll  - Undefined Reference
    TCalTime::SetTimeLocalL(const TTime&)     - Undefined Reference
    _ZN8TCalTime13SetTimeLocalLERK5TTime@calinterimapi{000a0000}[102075e4].dll  - Undefined Reference
    TCalTime::MaxTime()                       - Undefined Reference
    _ZN8TCalTime7MaxTimeEv@calinterimapi{000a0000}[102075e4].dll  - Undefined Reference
    TCalTime::MinTime()                       - Undefined Reference
    _ZN8TCalTime7MinTimeEv@calinterimapi{000a0000}[102075e4].dll  - Undefined Reference
    TCalTime::TCalTime()                      - Undefined Reference
    _ZN8TCalTimeC1Ev@calinterimapi{000a0000}[102075e4].dll  - Undefined Reference
    CCalAlarm::SetTimeOffset(TTimeIntervalMinutes)  - Undefined Reference
    _ZN9CCalAlarm13SetTimeOffsetE20TTimeIntervalMinutes@calinterimapi{000a0000}[102075e4].dll  - Undefined Reference
    CCalAlarm::NewL()                         - Undefined Reference
    _ZN9CCalAlarm4NewLEv@calinterimapi{000a0000}[102075e4].dll  - Undefined Reference
    CCalEntry::SetRDatesL(const RArray<TCalTime>&)  - Undefined Reference
    _ZN9CCalEntry10SetRDatesLERK6RArrayI8TCalTimeE@calinterimapi{000a0000}[102075e4].dll  - Undefined Reference
    CCalEntry::SetStatusL(CCalEntry::TStatus)  - Undefined Reference
    _ZN9CCalEntry10SetStatusLENS_7TStatusE@calinterimapi{000a0000}[102075e4].dll  - Undefined Reference
    CCalEntry::SetDTStampL(const TCalTime&)   - Undefined Reference
    _ZN9CCalEntry11SetDTStampLERK8TCalTime@calinterimapi{000a0000}[102075e4].dll  - Undefined Reference
    CCalEntry::SetSummaryL(const TDesC16&)    - Undefined Reference
    _ZN9CCalEntry11SetSummaryLERK7TDesC16@calinterimapi{000a0000}[102075e4].dll  - Undefined Reference
    CCalEntry::SetGeoValueL(const CCalGeoValue&)  - Undefined Reference
    _ZN9CCalEntry12SetGeoValueLERK12CCalGeoValue@calinterimapi{000a0000}[102075e4].dll  - Undefined Reference
    CCalEntry::SetLocationL(const TDesC16&)   - Undefined Reference
    _ZN9CCalEntry12SetLocationLERK7TDesC16@calinterimapi{000a0000}[102075e4].dll  - Undefined Reference
    CCalEntry::SetPriorityL(unsigned)         - Undefined Reference
    _ZN9CCalEntry12SetPriorityLEj@calinterimapi{000a0000}[102075e4].dll  - Undefined Reference
    CCalEntry::SetCompletedL(int, const TCalTime&)  - Undefined Reference
    _ZN9CCalEntry13SetCompletedLEiRK8TCalTime@calinterimapi{000a0000}[102075e4].dll  - Undefined Reference
    CCalEntry::SetDescriptionL(const TDesC16&)  - Undefined Reference
    _ZN9CCalEntry15SetDescriptionLERK7TDesC16@calinterimapi{000a0000}[102075e4].dll  - Undefined Reference
    CCalEntry::SetExceptionDatesL(const RArray<TCalTime>&)  - Undefined Reference
    _ZN9CCalEntry18SetExceptionDatesLERK6RArrayI8TCalTimeE@calinterimapi{000a0000}[102075e4].dll  - Undefined Reference
    CCalEntry::SetStartAndEndTimeL(const TCalTime&, const TCalTime&)  - Undefined Reference
    _ZN9CCalEntry19SetStartAndEndTimeLERK8TCalTimeS2_@calinterimapi{000a0000}[102075e4].dll  - Undefined Reference
    CCalEntry::SetLastModifiedDateL()         - Undefined Reference
    _ZN9CCalEntry20SetLastModifiedDateLEv@calinterimapi{000a0000}[102075e4].dll  - Undefined Reference
    CCalEntry::ClearRepeatingPropertiesL()    - Undefined Reference
    _ZN9CCalEntry25ClearRepeatingPropertiesLEv@calinterimapi{000a0000}[102075e4].dll  - Undefined Reference
    CCalEntry::NewL(CCalEntry::TType, HBufC8*, CCalEntry::TMethod, unsigned)  - Undefined Reference
    _ZN9CCalEntry4NewLENS_5TTypeEP6HBufC8NS_7TMethodEj@calinterimapi{000a0000}[102075e4].dll  - Undefined Reference
    CCalEntry::NewL(CCalEntry::TType, HBufC8*, CCalEntry::TMethod, unsigned, const TCalTime&, CalCommon::TRecurrenceRange)  - Undefined Reference
    _ZN9CCalEntry4NewLENS_5TTypeEP6HBufC8NS_7TMethodEjRK8TCalTimeN9CalCommon16TRecurrenceRangeE@calinterimapi{000a0000}[102075e4].dll  - Undefined Reference
    CCalEntry::SetAlarmL(CCalAlarm*)          - Undefined Reference
    _ZN9CCalEntry9SetAlarmLEP9CCalAlarm@calinterimapi{000a0000}[102075e4].dll  - Undefined Reference
    CCalEntry::SetRRuleL(const TCalRRule&)    - Undefined Reference
    _ZN9CCalEntry9SetRRuleLERK9TCalRRule@calinterimapi{000a0000}[102075e4].dll  - Undefined Reference
    CalCommon::TCalTimeRange::TCalTimeRange(TCalTime, TCalTime)  - Undefined Reference
    _ZN9CalCommon13TCalTimeRangeC1E8TCalTimeS1_@calinterimapi{000a0000}[102075e4].dll  - Undefined Reference
    QDateTime::setTimeSpec(Qt::TimeSpec)      - Undefined Reference
    _ZN9QDateTime11setTimeSpecEN2Qt8TimeSpecE@QtCore{00040703}[2001b2dc].dll  - Undefined Reference
    QDateTime::currentDateTime()              - Undefined Reference
    _ZN9QDateTime15currentDateTimeEv@QtCore{00040703}[2001b2dc].dll  - Undefined Reference
    QDateTime::setDate(const QDate&)          - Undefined Reference
    _ZN9QDateTime7setDateERK5QDate@QtCore{00040703}[2001b2dc].dll  - Undefined Reference
    QDateTime::setTime(const QTime&)          - Undefined Reference
    _ZN9QDateTime7setTimeERK5QTime@QtCore{00040703}[2001b2dc].dll  - Undefined Reference
    QDateTime::QDateTime(const QDate&)        - Undefined Reference
    _ZN9QDateTimeC1ERK5QDate@QtCore{00040703}[2001b2dc].dll  - Undefined Reference
    QDateTime::QDateTime(const QDate&, const QTime&, Qt::TimeSpec)  - Undefined Reference
    _ZN9QDateTimeC1ERK5QDateRK5QTimeN2Qt8TimeSpecE@QtCore{00040703}[2001b2dc].dll  - Undefined Reference
    QDateTime::QDateTime(const QDateTime&)    - Undefined Reference
    _ZN9QDateTimeC1ERKS_@QtCore{00040703}[2001b2dc].dll  - Undefined Reference
    QDateTime::QDateTime()                    - Undefined Reference
    _ZN9QDateTimeC1Ev@QtCore{00040703}[2001b2dc].dll  - Undefined Reference
    QDateTime::~QDateTime()                   - Undefined Reference
    _ZN9QDateTimeD1Ev@QtCore{00040703}[2001b2dc].dll  - Undefined Reference
    QDateTime::operator =(const QDateTime&)   - Undefined Reference
    _ZN9QDateTimeaSERKS_@QtCore{00040703}[2001b2dc].dll  - Undefined Reference
    QHashData::free_helper(void(*)(QHashData::Node*))  - Undefined Reference
    _ZN9QHashData11free_helperEPFvPNS_4NodeEE@QtCore{00040703}[2001b2dc].dll  - Undefined Reference
    QHashData::shared_null                    - Undefined Reference
    _ZN9QHashData11shared_nullE@QtCore{00040703}[2001b2dc].dll  - Undefined Reference
    QHashData::allocateNode(int)              - Undefined Reference
    _ZN9QHashData12allocateNodeEi@QtCore{00040703}[2001b2dc].dll  - Undefined Reference
    QHashData::detach_helper2(void(*)(QHashData::Node*, void*), void(*)(QHashData::Node*), int, int)  - Undefined Reference
    _ZN9QHashData14detach_helper2EPFvPNS_4NodeEPvEPFvS1_Eii@QtCore{00040703}[2001b2dc].dll  - Undefined Reference
    QHashData::rehash(int)                    - Undefined Reference
    _ZN9QHashData6rehashEi@QtCore{00040703}[2001b2dc].dll  - Undefined Reference
    QHashData::nextNode(QHashData::Node*)     - Undefined Reference
    _ZN9QHashData8nextNodeEPNS_4NodeE@QtCore{00040703}[2001b2dc].dll  - Undefined Reference
    QListData::detach_grow(int*, int)         - Undefined Reference
    _ZN9QListData11detach_growEPii@QtCore{00040703}[2001b2dc].dll  - Undefined Reference
    QListData::shared_null                    - Undefined Reference
    _ZN9QListData11shared_nullE@QtCore{00040703}[2001b2dc].dll  - Undefined Reference
    QListData::append()                       - Undefined Reference
    _ZN9QListData6appendEv@QtCore{00040703}[2001b2dc].dll  - Undefined Reference
    QListData::detach(int)                    - Undefined Reference
    _ZN9QListData6detachEi@QtCore{00040703}[2001b2dc].dll  - Undefined Reference
    QListData::remove(int)                    - Undefined Reference
    _ZN9QListData6removeEi@QtCore{00040703}[2001b2dc].dll  - Undefined Reference
    QListData::append2(const QListData&)      - Undefined Reference
    _ZN9QListData7append2ERKS_@QtCore{00040703}[2001b2dc].dll  - Undefined Reference
    QListData::realloc(int)                   - Undefined Reference
    _ZN9QListData7reallocEi@QtCore{00040703}[2001b2dc].dll  - Undefined Reference
    QMetaType::registerType(const char*, void(*)(void*), void*(*)(const void*))  - Undefined Reference
    _ZN9QMetaType12registerTypeEPKcPFvPvEPFS2_PKvE@QtCore{00040703}[2001b2dc].dll  - Undefined Reference
    QMetaType::registerTypedef(const char*, int)  - Undefined Reference
    _ZN9QMetaType15registerTypedefEPKci@QtCore{00040703}[2001b2dc].dll  - Undefined Reference
    QtPrivate::QStringList_contains(const QStringList*, const QString&, Qt::CaseSensitivity)  - Undefined Reference
    _ZN9QtPrivate20QStringList_containsEPK11QStringListRK7QStringN2Qt15CaseSensitivityE@QtCore{00040703}[2001b2dc].dll  - Undefined Reference
    TBufBase8::TBufBase8(int)                 - Undefined Reference
    _ZN9TBufBase8C1Ei@euser{000a0000}[100039e5].dll  - Undefined Reference
    TBufBase8::TBufBase8(int, int)            - Undefined Reference
    _ZN9TBufBase8C1Eii@euser{000a0000}[100039e5].dll  - Undefined Reference
    TCalRRule::SetByMonth(RArray<TMonth>)     - Undefined Reference
    _ZN9TCalRRule10SetByMonthE6RArrayI6TMonthE@calinterimapi{000a0000}[102075e4].dll  - Undefined Reference
    TCalRRule::SetDtStart(const TCalTime&)    - Undefined Reference
    _ZN9TCalRRule10SetDtStartERK8TCalTime@calinterimapi{000a0000}[102075e4].dll  - Undefined Reference
    TCalRRule::SetInterval(int)               - Undefined Reference
    _ZN9TCalRRule11SetIntervalEi@calinterimapi{000a0000}[102075e4].dll  - Undefined Reference
    TCalRRule::TDayOfMonth::TDayOfMonth(TDay, signed char)  - Undefined Reference
    _ZN9TCalRRule11TDayOfMonthC1E4TDaya@calinterimapi{000a0000}[102075e4].dll  - Undefined Reference
    TCalRRule::SetByMonthDay(const RArray<int>&)  - Undefined Reference
    _ZN9TCalRRule13SetByMonthDayERK6RArrayIiE@calinterimapi{000a0000}[102075e4].dll  - Undefined Reference
    TCalRRule::SetType(TCalRRule::TType)      - Undefined Reference
    _ZN9TCalRRule7SetTypeENS_5TTypeE@calinterimapi{000a0000}[102075e4].dll  - Undefined Reference
    TCalRRule::SetWkSt(TDay)                  - Undefined Reference
    _ZN9TCalRRule7SetWkStE4TDay@calinterimapi{000a0000}[102075e4].dll  - Undefined Reference
    TCalRRule::SetByDay(const RArray<TDay>&)  - Undefined Reference
    _ZN9TCalRRule8SetByDayERK6RArrayI4TDayE@calinterimapi{000a0000}[102075e4].dll  - Undefined Reference
    TCalRRule::SetByDay(const RArray<TCalRRule::TDayOfMonth>&)  - Undefined Reference
    _ZN9TCalRRule8SetByDayERK6RArrayINS_11TDayOfMonthEE@calinterimapi{000a0000}[102075e4].dll  - Undefined Reference
    TCalRRule::SetCount(unsigned)             - Undefined Reference
    _ZN9TCalRRule8SetCountEj@calinterimapi{000a0000}[102075e4].dll  - Undefined Reference
    TCalRRule::SetUntil(const TCalTime&)      - Undefined Reference
    _ZN9TCalRRule8SetUntilERK8TCalTime@calinterimapi{000a0000}[102075e4].dll  - Undefined Reference
    TCalRRule::TCalRRule()                    - Undefined Reference
    _ZN9TCalRRuleC1Ev@calinterimapi{000a0000}[102075e4].dll  - Undefined Reference
    TDateTime::TDateTime(int, TMonth, int, int, int, int, int)  - Undefined Reference
    _ZN9TDateTimeC1Ei6TMonthiiiii@euser{000a0000}[100039e5].dll  - Undefined Reference
    QtMobility::QOrganizerItem::description() const  - Undefined Reference
    _ZNK10QtMobility14QOrganizerItem11descriptionEv@QtOrganizer{00010103}[2002bfcd].dll  - Undefined Reference
    QtMobility::QOrganizerItem::collectionId() const  - Undefined Reference
    _ZNK10QtMobility14QOrganizerItem12collectionIdEv@QtOrganizer{00010103}[2002bfcd].dll  - Undefined Reference
    QtMobility::QOrganizerItem::displayLabel() const  - Undefined Reference
    _ZNK10QtMobility14QOrganizerItem12displayLabelEv@QtOrganizer{00010103}[2002bfcd].dll  - Undefined Reference
    QtMobility::QOrganizerItem::id() const    - Undefined Reference
    _ZNK10QtMobility14QOrganizerItem2idEv@QtOrganizer{00010103}[2002bfcd].dll  - Undefined Reference
    QtMobility::QOrganizerItem::guid() const  - Undefined Reference
    _ZNK10QtMobility14QOrganizerItem4guidEv@QtOrganizer{00010103}[2002bfcd].dll  - Undefined Reference
    QtMobility::QOrganizerItem::type() const  - Undefined Reference
    _ZNK10QtMobility14QOrganizerItem4typeEv@QtOrganizer{00010103}[2002bfcd].dll  - Undefined Reference
    QtMobility::QOrganizerItem::detail(const char*) const  - Undefined Reference
    _ZNK10QtMobility14QOrganizerItem6detailEPKc@QtOrganizer{00010103}[2002bfcd].dll  - Undefined Reference
    QtMobility::QOrganizerItem::isEmpty() const  - Undefined Reference
    _ZNK10QtMobility14QOrganizerItem7isEmptyEv@QtOrganizer{00010103}[2002bfcd].dll  - Undefined Reference
    QtMobility::QOrganizerEvent::startDateTime() const  - Undefined Reference
    _ZNK10QtMobility15QOrganizerEvent13startDateTimeEv@QtOrganizer{00010103}[2002bfcd].dll  - Undefined Reference
    QtMobility::QOrganizerItemId::managerUri() const  - Undefined Reference
    _ZNK10QtMobility16QOrganizerItemId10managerUriEv@QtOrganizer{00010103}[2002bfcd].dll  - Undefined Reference
    QtMobility::QOrganizerItemId::isNull() const  - Undefined Reference
    _ZNK10QtMobility16QOrganizerItemId6isNullEv@QtOrganizer{00010103}[2002bfcd].dll  - Undefined Reference
    QtMobility::QOrganizerItemId::operator ==(const QtMobility::QOrganizerItemId&) const  - Undefined Reference
    _ZNK10QtMobility16QOrganizerItemIdeqERKS0_@QtOrganizer{00010103}[2002bfcd].dll  - Undefined Reference
    QtMobility::QOrganizerCollection::id() const  - Undefined Reference
    _ZNK10QtMobility20QOrganizerCollection2idEv@QtOrganizer{00010103}[2002bfcd].dll  - Undefined Reference
    QtMobility::QOrganizerCollection::metaData(const QString&) const  - Undefined Reference
    _ZNK10QtMobility20QOrganizerCollection8metaDataERK7QString@QtOrganizer{00010103}[2002bfcd].dll  - Undefined Reference
    QtMobility::QOrganizerCollection::metaData() const  - Undefined Reference
    _ZNK10QtMobility20QOrganizerCollection8metaDataEv@QtOrganizer{00010103}[2002bfcd].dll  - Undefined Reference
    QtMobility::QOrganizerItemDetail::variantValue(const char*) const  - Undefined Reference
    _ZNK10QtMobility20QOrganizerItemDetail12variantValueEPKc@QtOrganizer{00010103}[2002bfcd].dll  - Undefined Reference
    QtMobility::QOrganizerItemDetail::value(const char*) const  - Undefined Reference
    _ZNK10QtMobility20QOrganizerItemDetail5valueEPKc@QtOrganizer{00010103}[2002bfcd].dll  - Undefined Reference
    QtMobility::QOrganizerItemDetail::isEmpty() const  - Undefined Reference
    _ZNK10QtMobility20QOrganizerItemDetail7isEmptyEv@QtOrganizer{00010103}[2002bfcd].dll  - Undefined Reference
    QtMobility::QOrganizerItemDetail::hasValue(const char*) const  - Undefined Reference
    _ZNK10QtMobility20QOrganizerItemDetail8hasValueEPKc@QtOrganizer{00010103}[2002bfcd].dll  - Undefined Reference
    QtMobility::QOrganizerItemFilter::type() const  - Undefined Reference
    _ZNK10QtMobility20QOrganizerItemFilter4typeEv@QtOrganizer{00010103}[2002bfcd].dll  - Undefined Reference
    QtMobility::QOrganizerCollectionId::managerUri() const  - Undefined Reference
    _ZNK10QtMobility22QOrganizerCollectionId10managerUriEv@QtOrganizer{00010103}[2002bfcd].dll  - Undefined Reference
    QtMobility::QOrganizerCollectionId::isNull() const  - Undefined Reference
    _ZNK10QtMobility22QOrganizerCollectionId6isNullEv@QtOrganizer{00010103}[2002bfcd].dll  - Undefined Reference
    QtMobility::QOrganizerCollectionId::operator ==(const QtMobility::QOrganizerCollectionId&) const  - Undefined Reference
    _ZNK10QtMobility22QOrganizerCollectionIdeqERKS0_@QtOrganizer{00010103}[2002bfcd].dll  - Undefined Reference
    QtMobility::QOrganizerCollectionId::operator <(const QtMobility::QOrganizerCollectionId&) const  - Undefined Reference
    _ZNK10QtMobility22QOrganizerCollectionIdltERKS0_@QtOrganizer{00010103}[2002bfcd].dll  - Undefined Reference
    QtMobility::QOrganizerCollectionId::operator !=(const QtMobility::QOrganizerCollectionId&) const  - Undefined Reference
    _ZNK10QtMobility22QOrganizerCollectionIdneERKS0_@QtOrganizer{00010103}[2002bfcd].dll  - Undefined Reference
    QtMobility::QOrganizerItemIdFilter::ids() const  - Undefined Reference
    _ZNK10QtMobility22QOrganizerItemIdFilter3idsEv@QtOrganizer{00010103}[2002bfcd].dll  - Undefined Reference
    QtMobility::QOrganizerManagerEngine::managerUri() const  - Undefined Reference
    _ZNK10QtMobility23QOrganizerManagerEngine10managerUriEv@QtOrganizer{00010103}[2002bfcd].dll  - Undefined Reference
    QtMobility::QOrganizerManagerEngine::validateItem(const QtMobility::QOrganizerItem&, QtMobility::QOrganizerManager::Error*) const  - Undefined Reference
    _ZNK10QtMobility23QOrganizerManagerEngine12validateItemERKNS_14QOrganizerItemEPNS_17QOrganizerManager5ErrorE@QtOrganizer{00010103}[2002bfcd].dll  - Undefined Reference
    QtMobility::QOrganizerManagerEngine::detailDefinition(const QString&, const QString&, QtMobility::QOrganizerManager::Error*) const  - Undefined Reference
    _ZNK10QtMobility23QOrganizerManagerEngine16detailDefinitionERK7QStringS3_PNS_17QOrganizerManager5ErrorE@QtOrganizer{00010103}[2002bfcd].dll  - Undefined Reference
    QtMobility::QOrganizerManagerEngine::validateCollection(const QtMobility::QOrganizerCollection&, QtMobility::QOrganizerManager::Error*) const  - Undefined Reference
    _ZNK10QtMobility23QOrganizerManagerEngine18validateCollectionERKNS_20QOrganizerCollectionEPNS_17QOrganizerManager5ErrorE@QtOrganizer{00010103}[2002bfcd].dll  - Undefined Reference
    QtMobility::QOrganizerManagerEngine::validateDefinition(const QtMobility::QOrganizerItemDetailDefinition&, QtMobility::QOrganizerManager::Error*) const  - Undefined Reference
    _ZNK10QtMobility23QOrganizerManagerEngine18validateDefinitionERKNS_30QOrganizerItemDetailDefinitionEPNS_17QOrganizerManager5ErrorE@QtOrganizer{00010103}[2002bfcd].dll  - Undefined Reference
    QtMobility::QOrganizerItemRecurrence::exceptionDates() const  - Undefined Reference
    _ZNK10QtMobility24QOrganizerItemRecurrence14exceptionDatesEv@QtOrganizer{00010103}[2002bfcd].dll  - Undefined Reference
    QtMobility::QOrganizerItemRecurrence::recurrenceDates() const  - Undefined Reference
    _ZNK10QtMobility24QOrganizerItemRecurrence15recurrenceDatesEv@QtOrganizer{00010103}[2002bfcd].dll  - Undefined Reference
    QtMobility::QOrganizerItemRecurrence::recurrenceRules() const  - Undefined Reference
    _ZNK10QtMobility24QOrganizerItemRecurrence15recurrenceRulesEv@QtOrganizer{00010103}[2002bfcd].dll  - Undefined Reference
    QtMobility::QOrganizerRecurrenceRule::daysOfWeek() const  - Undefined Reference
    _ZNK10QtMobility24QOrganizerRecurrenceRule10daysOfWeekEv@QtOrganizer{00010103}[2002bfcd].dll  - Undefined Reference
    QtMobility::QOrganizerRecurrenceRule::daysOfYear() const  - Undefined Reference
    _ZNK10QtMobility24QOrganizerRecurrenceRule10daysOfYearEv@QtOrganizer{00010103}[2002bfcd].dll  - Undefined Reference
    QtMobility::QOrganizerRecurrenceRule::limitCount() const  - Undefined Reference
    _ZNK10QtMobility24QOrganizerRecurrenceRule10limitCountEv@QtOrganizer{00010103}[2002bfcd].dll  - Undefined Reference
    QtMobility::QOrganizerRecurrenceRule::daysOfMonth() const  - Undefined Reference
    _ZNK10QtMobility24QOrganizerRecurrenceRule11daysOfMonthEv@QtOrganizer{00010103}[2002bfcd].dll  - Undefined Reference
    QtMobility::QOrganizerRecurrenceRule::weeksOfYear() const  - Undefined Reference
    _ZNK10QtMobility24QOrganizerRecurrenceRule11weeksOfYearEv@QtOrganizer{00010103}[2002bfcd].dll  - Undefined Reference
    QtMobility::QOrganizerRecurrenceRule::monthsOfYear() const  - Undefined Reference
    _ZNK10QtMobility24QOrganizerRecurrenceRule12monthsOfYearEv@QtOrganizer{00010103}[2002bfcd].dll  - Undefined Reference
    QtMobility::QOrganizerRecurrenceRule::firstDayOfWeek() const  - Undefined Reference
    _ZNK10QtMobility24QOrganizerRecurrenceRule14firstDayOfWeekEv@QtOrganizer{00010103}[2002bfcd].dll  - Undefined Reference
    QtMobility::QOrganizerRecurrenceRule::interval() const  - Undefined Reference
    _ZNK10QtMobility24QOrganizerRecurrenceRule8intervalEv@QtOrganizer{00010103}[2002bfcd].dll  - Undefined Reference
    QtMobility::QOrganizerRecurrenceRule::frequency() const  - Undefined Reference
    _ZNK10QtMobility24QOrganizerRecurrenceRule9frequencyEv@QtOrganizer{00010103}[2002bfcd].dll  - Undefined Reference
    QtMobility::QOrganizerRecurrenceRule::limitDate() const  - Undefined Reference
    _ZNK10QtMobility24QOrganizerRecurrenceRule9limitDateEv@QtOrganizer{00010103}[2002bfcd].dll  - Undefined Reference
    QtMobility::QOrganizerRecurrenceRule::positions() const  - Undefined Reference
    _ZNK10QtMobility24QOrganizerRecurrenceRule9positionsEv@QtOrganizer{00010103}[2002bfcd].dll  - Undefined Reference
    QtMobility::QOrganizerRecurrenceRule::operator ==(const QtMobility::QOrganizerRecurrenceRule&) const  - Undefined Reference
    _ZNK10QtMobility24QOrganizerRecurrenceRuleeqERKS0_@QtOrganizer{00010103}[2002bfcd].dll  - Undefined Reference
    QtMobility::QOrganizerAbstractRequest::type() const  - Undefined Reference
    _ZNK10QtMobility25QOrganizerAbstractRequest4typeEv@QtOrganizer{00010103}[2002bfcd].dll  - Undefined Reference
    QtMobility::QOrganizerAbstractRequest::error() const  - Undefined Reference
    _ZNK10QtMobility25QOrganizerAbstractRequest5errorEv@QtOrganizer{00010103}[2002bfcd].dll  - Undefined Reference
    QtMobility::QOrganizerAbstractRequest::state() const  - Undefined Reference
    _ZNK10QtMobility25QOrganizerAbstractRequest5stateEv@QtOrganizer{00010103}[2002bfcd].dll  - Undefined Reference
    QtMobility::QOrganizerItemSaveRequest::items() const  - Undefined Reference
    _ZNK10QtMobility25QOrganizerItemSaveRequest5itemsEv@QtOrganizer{00010103}[2002bfcd].dll  - Undefined Reference
    QtMobility::QOrganizerItemUnionFilter::filters() const  - Undefined Reference
    _ZNK10QtMobility25QOrganizerItemUnionFilter7filtersEv@QtOrganizer{00010103}[2002bfcd].dll  - Undefined Reference
    QtMobility::QOrganizerItemFetchRequest::filter() const  - Undefined Reference
    _ZNK10QtMobility26QOrganizerItemFetchRequest6filterEv@QtOrganizer{00010103}[2002bfcd].dll  - Undefined Reference
    QtMobility::QOrganizerItemFetchRequest::endDate() const  - Undefined Reference
    _ZNK10QtMobility26QOrganizerItemFetchRequest7endDateEv@QtOrganizer{00010103}[2002bfcd].dll  - Undefined Reference
    QtMobility::QOrganizerItemFetchRequest::sorting() const  - Undefined Reference
    _ZNK10QtMobility26QOrganizerItemFetchRequest7sortingEv@QtOrganizer{00010103}[2002bfcd].dll  - Undefined Reference
    QtMobility::QOrganizerItemFetchRequest::fetchHint() const  - Undefined Reference
    _ZNK10QtMobility26QOrganizerItemFetchRequest9fetchHintEv@QtOrganizer{00010103}[2002bfcd].dll  - Undefined Reference
    QtMobility::QOrganizerItemFetchRequest::startDate() const  - Undefined Reference
    _ZNK10QtMobility26QOrganizerItemFetchRequest9startDateEv@QtOrganizer{00010103}[2002bfcd].dll  - Undefined Reference
    QtMobility::QOrganizerItemRemoveRequest::itemIds() const  - Undefined Reference
    _ZNK10QtMobility27QOrganizerItemRemoveRequest7itemIdsEv@QtOrganizer{00010103}[2002bfcd].dll  - Undefined Reference
    QtMobility::QOrganizerItemIdFetchRequest::filter() const  - Undefined Reference
    _ZNK10QtMobility28QOrganizerItemIdFetchRequest6filterEv@QtOrganizer{00010103}[2002bfcd].dll  - Undefined Reference
    QtMobility::QOrganizerItemIdFetchRequest::endDate() const  - Undefined Reference
    _ZNK10QtMobility28QOrganizerItemIdFetchRequest7endDateEv@QtOrganizer{00010103}[2002bfcd].dll  - Undefined Reference
    QtMobility::QOrganizerItemIdFetchRequest::sorting() const  - Undefined Reference
    _ZNK10QtMobility28QOrganizerItemIdFetchRequest7sortingEv@QtOrganizer{00010103}[2002bfcd].dll  - Undefined Reference
    QtMobility::QOrganizerItemIdFetchRequest::startDate() const  - Undefined Reference
    _ZNK10QtMobility28QOrganizerItemIdFetchRequest9startDateEv@QtOrganizer{00010103}[2002bfcd].dll  - Undefined Reference
    QtMobility::QOrganizerItemCollectionFilter::collectionIds() const  - Undefined Reference
    _ZNK10QtMobility30QOrganizerItemCollectionFilter13collectionIdsEv@QtOrganizer{00010103}[2002bfcd].dll  - Undefined Reference
    QtMobility::QOrganizerItemDetailDefinition::name() const  - Undefined Reference
    _ZNK10QtMobility30QOrganizerItemDetailDefinition4nameEv@QtOrganizer{00010103}[2002bfcd].dll  - Undefined Reference
    QtMobility::QOrganizerItemDetailDefinition::fields() const  - Undefined Reference
    _ZNK10QtMobility30QOrganizerItemDetailDefinition6fieldsEv@QtOrganizer{00010103}[2002bfcd].dll  - Undefined Reference
    QtMobility::QOrganizerManagerEngineFactory::supportedImplementationVersions() const  - Undefined Reference
    _ZNK10QtMobility30QOrganizerManagerEngineFactory31supportedImplementationVersionsEv@QtOrganizer{00010103}[2002bfcd].dll  - Undefined Reference
    QtMobility::QOrganizerCollectionSaveRequest::collections() const  - Undefined Reference
    _ZNK10QtMobility31QOrganizerCollectionSaveRequest11collectionsEv@QtOrganizer{00010103}[2002bfcd].dll  - Undefined Reference
    QtMobility::QOrganizerCollectionRemoveRequest::collectionIds() const  - Undefined Reference
    _ZNK10QtMobility33QOrganizerCollectionRemoveRequest13collectionIdsEv@QtOrganizer{00010103}[2002bfcd].dll  - Undefined Reference
    QtMobility::QOrganizerItemFetchForExportRequest::items() const  - Undefined Reference
    _ZNK10QtMobility35QOrganizerItemFetchForExportRequest5itemsEv@QtOrganizer{00010103}[2002bfcd].dll  - Undefined Reference
    QtMobility::QOrganizerItemFetchForExportRequest::filter() const  - Undefined Reference
    _ZNK10QtMobility35QOrganizerItemFetchForExportRequest6filterEv@QtOrganizer{00010103}[2002bfcd].dll  - Undefined Reference
    QtMobility::QOrganizerItemFetchForExportRequest::endDate() const  - Undefined Reference
    _ZNK10QtMobility35QOrganizerItemFetchForExportRequest7endDateEv@QtOrganizer{00010103}[2002bfcd].dll  - Undefined Reference
    QtMobility::QOrganizerItemFetchForExportRequest::sorting() const  - Undefined Reference
    _ZNK10QtMobility35QOrganizerItemFetchForExportRequest7sortingEv@QtOrganizer{00010103}[2002bfcd].dll  - Undefined Reference
    QtMobility::QOrganizerItemFetchForExportRequest::fetchHint() const  - Undefined Reference
    _ZNK10QtMobility35QOrganizerItemFetchForExportRequest9fetchHintEv@QtOrganizer{00010103}[2002bfcd].dll  - Undefined Reference
    QtMobility::QOrganizerItemFetchForExportRequest::startDate() const  - Undefined Reference
    _ZNK10QtMobility35QOrganizerItemFetchForExportRequest9startDateEv@QtOrganizer{00010103}[2002bfcd].dll  - Undefined Reference
    QtMobility::QOrganizerItemDetailDefinitionFetchRequest::definitionNames() const  - Undefined Reference
    _ZNK10QtMobility42QOrganizerItemDetailDefinitionFetchRequest15definitionNamesEv@QtOrganizer{00010103}[2002bfcd].dll  - Undefined Reference
    QtMobility::QOrganizerItemDetailDefinitionFetchRequest::itemType() const  - Undefined Reference
    _ZNK10QtMobility42QOrganizerItemDetailDefinitionFetchRequest8itemTypeEv@QtOrganizer{00010103}[2002bfcd].dll  - Undefined Reference
    RArrayBase::At(int) const                 - Undefined Reference
    _ZNK10RArrayBase2AtEi@euser{000a0000}[100039e5].dll  - Undefined Reference
    RArrayBase::Count() const                 - Undefined Reference
    _ZNK10RArrayBase5CountEv@euser{000a0000}[100039e5].dll  - Undefined Reference
    CCalSession::CalendarInfoL() const        - Undefined Reference
    _ZNK11CCalSession13CalendarInfoLEv@calinterimapi{000a0000}[102075e4].dll  - Undefined Reference
    CCalSession::CreateCalFileL(const TDesC16&) const  - Undefined Reference
    _ZNK11CCalSession14CreateCalFileLERK7TDesC16@calinterimapi{000a0000}[102075e4].dll  - Undefined Reference
    CCalSession::CreateCalFileL(const TDesC16&, const CCalCalendarInfo&) const  - Undefined Reference
    _ZNK11CCalSession14CreateCalFileLERK7TDesC16RK16CCalCalendarInfo@calinterimapi{000a0000}[102075e4].dll  - Undefined Reference
    CCalSession::DeleteCalFileL(const TDesC16&) const  - Undefined Reference
    _ZNK11CCalSession14DeleteCalFileLERK7TDesC16@calinterimapi{000a0000}[102075e4].dll  - Undefined Reference
    CCalSession::SetCalendarInfoL(const CCalCalendarInfo&) const  - Undefined Reference
    _ZNK11CCalSession16SetCalendarInfoLERK16CCalCalendarInfo@calinterimapi{000a0000}[102075e4].dll  - Undefined Reference
    CCalSession::OpenL(const TDesC16&) const  - Undefined Reference
    _ZNK11CCalSession5OpenLERK7TDesC16@calinterimapi{000a0000}[102075e4].dll  - Undefined Reference
    CCalSession::FileIdL(long long&) const    - Undefined Reference
    _ZNK11CCalSession7FileIdLERx@calinterimapi{000a0000}[102075e4].dll  - Undefined Reference
    CCalGeoValue::GetLatLong(double&, double&) const  - Undefined Reference
    _ZNK12CCalGeoValue10GetLatLongERdS0_@calinterimapi{000a0000}[102075e4].dll  - Undefined Reference
    CCalInstance::StartTimeL() const          - Undefined Reference
    _ZNK12CCalInstance10StartTimeLEv@calinterimapi{000a0000}[102075e4].dll  - Undefined Reference
    CCalInstance::Time() const                - Undefined Reference
    _ZNK12CCalInstance4TimeEv@calinterimapi{000a0000}[102075e4].dll  - Undefined Reference
    CCalInstance::Entry() const               - Undefined Reference
    _ZNK12CCalInstance5EntryEv@calinterimapi{000a0000}[102075e4].dll  - Undefined Reference
    CCalInstance::EndTimeL() const            - Undefined Reference
    _ZNK12CCalInstance8EndTimeLEv@calinterimapi{000a0000}[102075e4].dll  - Undefined Reference
    CCalEntryView::GetIdsModifiedSinceDateL(const TCalTime&, RArray<unsigned long>&) const  - Undefined Reference
    _ZNK13CCalEntryView24GetIdsModifiedSinceDateLERK8TCalTimeR6RArrayImE@calinterimapi{000a0000}[102075e4].dll  - Undefined Reference
    CCalEntryView::FetchL(const TDesC8&, RPointerArray<CCalEntry>&) const  - Undefined Reference
    _ZNK13CCalEntryView6FetchLERK6TDesC8R13RPointerArrayI9CCalEntryE@calinterimapi{000a0000}[102075e4].dll  - Undefined Reference
    CCalEntryView::FetchL(unsigned long) const  - Undefined Reference
    _ZNK13CCalEntryView6FetchLEm@calinterimapi{000a0000}[102075e4].dll  - Undefined Reference
    XLeaveException::GetReason() const        - Undefined Reference
    _ZNK15XLeaveException9GetReasonEv@euser{000a0000}[100039e5].dll  - Undefined Reference
    CCalCalendarInfo::DescriptionL() const    - Undefined Reference
    _ZNK16CCalCalendarInfo12DescriptionLEv@calinterimapi{000a0000}[102075e4].dll  - Undefined Reference
    CCalCalendarInfo::PropertyKeysL() const   - Undefined Reference
    _ZNK16CCalCalendarInfo13PropertyKeysLEv@calinterimapi{000a0000}[102075e4].dll  - Undefined Reference
    CCalCalendarInfo::PropertyValueL(const TDesC8&) const  - Undefined Reference
    _ZNK16CCalCalendarInfo14PropertyValueLERK6TDesC8@calinterimapi{000a0000}[102075e4].dll  - Undefined Reference
    CCalCalendarInfo::Color() const           - Undefined Reference
    _ZNK16CCalCalendarInfo5ColorEv@calinterimapi{000a0000}[102075e4].dll  - Undefined Reference
    CCalCalendarInfo::NameL() const           - Undefined Reference
    _ZNK16CCalCalendarInfo5NameLEv@calinterimapi{000a0000}[102075e4].dll  - Undefined Reference
    CCalCalendarInfo::Enabled() const         - Undefined Reference
    _ZNK16CCalCalendarInfo7EnabledEv@calinterimapi{000a0000}[102075e4].dll  - Undefined Reference
    CCalCalendarInfo::IsValid() const         - Undefined Reference
    _ZNK16CCalCalendarInfo7IsValidEv@calinterimapi{000a0000}[102075e4].dll  - Undefined Reference
    CCalCalendarInfo::FileNameL() const       - Undefined Reference
    _ZNK16CCalCalendarInfo9FileNameLEv@calinterimapi{000a0000}[102075e4].dll  - Undefined Reference
    CCalInstanceView::FindInstanceL(RPointerArray<CCalInstance>&, unsigned, const CalCommon::TCalTimeRange&) const  - Undefined Reference
    _ZNK16CCalInstanceView13FindInstanceLER13RPointerArrayI12CCalInstanceEjRKN9CalCommon13TCalTimeRangeE@calinterimapi{000a0000}[102075e4].dll  - Undefined Reference
    RPointerArrayBase::At(int) const          - Undefined Reference
    _ZNK17RPointerArrayBase2AtEi@euser{000a0000}[100039e5].dll  - Undefined Reference
    RPointerArrayBase::Count() const          - Undefined Reference
    _ZNK17RPointerArrayBase5CountEv@euser{000a0000}[100039e5].dll  - Undefined Reference
    CCalFileChangeInfo::ChangeType() const    - Undefined Reference
    _ZNK18CCalFileChangeInfo10ChangeTypeEv@calinterimapi{000a0000}[102075e4].dll  - Undefined Reference
    CCalFileChangeInfo::FileNameL() const     - Undefined Reference
    _ZNK18CCalFileChangeInfo9FileNameLEv@calinterimapi{000a0000}[102075e4].dll  - Undefined Reference
    QDate::day() const                        - Undefined Reference
    _ZNK5QDate3dayEv@QtCore{00040703}[2001b2dc].dll  - Undefined Reference
    QDate::year() const                       - Undefined Reference
    _ZNK5QDate4yearEv@QtCore{00040703}[2001b2dc].dll  - Undefined Reference
    QDate::month() const                      - Undefined Reference
    _ZNK5QDate5monthEv@QtCore{00040703}[2001b2dc].dll  - Undefined Reference
    QDate::addDays(int) const                 - Undefined Reference
    _ZNK5QDate7addDaysEi@QtCore{00040703}[2001b2dc].dll  - Undefined Reference
    QDate::isValid() const                    - Undefined Reference
    _ZNK5QDate7isValidEv@QtCore{00040703}[2001b2dc].dll  - Undefined Reference
    QDate::dayOfWeek() const                  - Undefined Reference
    _ZNK5QDate9dayOfWeekEv@QtCore{00040703}[2001b2dc].dll  - Undefined Reference
    QTime::hour() const                       - Undefined Reference
    _ZNK5QTime4hourEv@QtCore{00040703}[2001b2dc].dll  - Undefined Reference
    QTime::msec() const                       - Undefined Reference
    _ZNK5QTime4msecEv@QtCore{00040703}[2001b2dc].dll  - Undefined Reference
    QTime::minute() const                     - Undefined Reference
    _ZNK5QTime6minuteEv@QtCore{00040703}[2001b2dc].dll  - Undefined Reference
    QTime::second() const                     - Undefined Reference
    _ZNK5QTime6secondEv@QtCore{00040703}[2001b2dc].dll  - Undefined Reference
    TTime::DateTime() const                   - Undefined Reference
    _ZNK5TTime8DateTimeEv@euser{000a0000}[100039e5].dll  - Undefined Reference
    QColor::red() const                       - Undefined Reference
    _ZNK6QColor3redEv@QtGui{00040703}[2001b2dd].dll  - Undefined Reference
    QColor::blue() const                      - Undefined Reference
    _ZNK6QColor4blueEv@QtGui{00040703}[2001b2dd].dll  - Undefined Reference
    QColor::alpha() const                     - Undefined Reference
    _ZNK6QColor5alphaEv@QtGui{00040703}[2001b2dd].dll  - Undefined Reference
    QColor::green() const                     - Undefined Reference
    _ZNK6QColor5greenEv@QtGui{00040703}[2001b2dd].dll  - Undefined Reference
    QColor::operator QVariant() const         - Undefined Reference
    _ZNK6QColorcv8QVariantEv@QtGui{00040703}[2001b2dd].dll  - Undefined Reference
    TDesC8::Ptr() const                       - Undefined Reference
    _ZNK6TDesC83PtrEv@euser{000a0000}[100039e5].dll  - Undefined Reference
    TDesC8::Compare(const TDesC8&) const      - Undefined Reference
    _ZNK6TDesC87CompareERKS_@euser{000a0000}[100039e5].dll  - Undefined Reference
    QString::toLocal8Bit() const              - Undefined Reference
    _ZNK7QString11toLocal8BitEv@QtCore{00040703}[2001b2dc].dll  - Undefined Reference
    QString::toULongLong(bool*, int) const    - Undefined Reference
    _ZNK7QString11toULongLongEPbi@QtCore{00040703}[2001b2dc].dll  - Undefined Reference
    QString::arg(const QString&, int, const QChar&) const  - Undefined Reference
    _ZNK7QString3argERKS_iRK5QChar@QtCore{00040703}[2001b2dc].dll  - Undefined Reference
    QString::arg(unsigned long long, int, int, const QChar&) const  - Undefined Reference
    _ZNK7QString3argEyiiRK5QChar@QtCore{00040703}[2001b2dc].dll  - Undefined Reference
    QString::split(const QString&, QString::SplitBehavior, Qt::CaseSensitivity) const  - Undefined Reference
    _ZNK7QString5splitERKS_NS_13SplitBehaviorEN2Qt15CaseSensitivityE@QtCore{00040703}[2001b2dc].dll  - Undefined Reference
    QString::toInt(bool*, int) const          - Undefined Reference
    _ZNK7QString5toIntEPbi@QtCore{00040703}[2001b2dc].dll  - Undefined Reference
    QString::utf16() const                    - Undefined Reference
    _ZNK7QString5utf16Ev@QtCore{00040703}[2001b2dc].dll  - Undefined Reference
    QString::toUInt(bool*, int) const         - Undefined Reference
    _ZNK7QString6toUIntEPbi@QtCore{00040703}[2001b2dc].dll  - Undefined Reference
    QString::toUtf8() const                   - Undefined Reference
    _ZNK7QString6toUtf8Ev@QtCore{00040703}[2001b2dc].dll  - Undefined Reference
    QString::compare(const QString&, Qt::CaseSensitivity) const  - Undefined Reference
    _ZNK7QString7compareERKS_N2Qt15CaseSensitivityE@QtCore{00040703}[2001b2dc].dll  - Undefined Reference
    QString::operator ==(const QLatin1String&) const  - Undefined Reference
    _ZNK7QStringeqERK13QLatin1String@QtCore{00040703}[2001b2dc].dll  - Undefined Reference
    QString::operator ==(const QString&) const  - Undefined Reference
    _ZNK7QStringeqERKS_@QtCore{00040703}[2001b2dc].dll  - Undefined Reference
    QString::operator <(const QString&) const  - Undefined Reference
    _ZNK7QStringltERKS_@QtCore{00040703}[2001b2dc].dll  - Undefined Reference
    TDesC16::Ptr() const                      - Undefined Reference
    _ZNK7TDesC163PtrEv@euser{000a0000}[100039e5].dll  - Undefined Reference
    QVariant::toByteArray() const             - Undefined Reference
    _ZNK8QVariant11toByteArrayEv@QtCore{00040703}[2001b2dc].dll  - Undefined Reference
    QVariant::toBool() const                  - Undefined Reference
    _ZNK8QVariant6toBoolEv@QtCore{00040703}[2001b2dc].dll  - Undefined Reference
    QVariant::toDate() const                  - Undefined Reference
    _ZNK8QVariant6toDateEv@QtCore{00040703}[2001b2dc].dll  - Undefined Reference
    QVariant::toUInt(bool*) const             - Undefined Reference
    _ZNK8QVariant6toUIntEPb@QtCore{00040703}[2001b2dc].dll  - Undefined Reference
    QVariant::toString() const                - Undefined Reference
    _ZNK8QVariant8toStringEv@QtCore{00040703}[2001b2dc].dll  - Undefined Reference
    QVariant::userType() const                - Undefined Reference
    _ZNK8QVariant8userTypeEv@QtCore{00040703}[2001b2dc].dll  - Undefined Reference
    QVariant::constData() const               - Undefined Reference
    _ZNK8QVariant9constDataEv@QtCore{00040703}[2001b2dc].dll  - Undefined Reference
    TCalTime::TimeLocalL() const              - Undefined Reference
    _ZNK8TCalTime10TimeLocalLEv@calinterimapi{000a0000}[102075e4].dll  - Undefined Reference
    TCalTime::TimeUtcL() const                - Undefined Reference
    _ZNK8TCalTime8TimeUtcLEv@calinterimapi{000a0000}[102075e4].dll  - Undefined Reference
    CCalAlarm::TimeOffset() const             - Undefined Reference
    _ZNK9CCalAlarm10TimeOffsetEv@calinterimapi{000a0000}[102075e4].dll  - Undefined Reference
    CCalEntry::EntryTypeL() const             - Undefined Reference
    _ZNK9CCalEntry10EntryTypeLEv@calinterimapi{000a0000}[102075e4].dll  - Undefined Reference
    CCalEntry::GetRDatesL(RArray<TCalTime>&) const  - Undefined Reference
    _ZNK9CCalEntry10GetRDatesLER6RArrayI8TCalTimeE@calinterimapi{000a0000}[102075e4].dll  - Undefined Reference
    CCalEntry::StartTimeL() const             - Undefined Reference
    _ZNK9CCalEntry10StartTimeLEv@calinterimapi{000a0000}[102075e4].dll  - Undefined Reference
    CCalEntry::DescriptionL() const           - Undefined Reference
    _ZNK9CCalEntry12DescriptionLEv@calinterimapi{000a0000}[102075e4].dll  - Undefined Reference
    CCalEntry::RecurrenceIdL() const          - Undefined Reference
    _ZNK9CCalEntry13RecurrenceIdLEv@calinterimapi{000a0000}[102075e4].dll  - Undefined Reference
    CCalEntry::CompletedTimeL() const         - Undefined Reference
    _ZNK9CCalEntry14CompletedTimeLEv@calinterimapi{000a0000}[102075e4].dll  - Undefined Reference
    CCalEntry::SequenceNumberL() const        - Undefined Reference
    _ZNK9CCalEntry15SequenceNumberLEv@calinterimapi{000a0000}[102075e4].dll  - Undefined Reference
    CCalEntry::RecurrenceRangeL() const       - Undefined Reference
    _ZNK9CCalEntry16RecurrenceRangeLEv@calinterimapi{000a0000}[102075e4].dll  - Undefined Reference
    CCalEntry::LastModifiedDateL() const      - Undefined Reference
    _ZNK9CCalEntry17LastModifiedDateLEv@calinterimapi{000a0000}[102075e4].dll  - Undefined Reference
    CCalEntry::GetExceptionDatesL(RArray<TCalTime>&) const  - Undefined Reference
    _ZNK9CCalEntry18GetExceptionDatesLER6RArrayI8TCalTimeE@calinterimapi{000a0000}[102075e4].dll  - Undefined Reference
    CCalEntry::UidL() const                   - Undefined Reference
    _ZNK9CCalEntry4UidLEv@calinterimapi{000a0000}[102075e4].dll  - Undefined Reference
    CCalEntry::AlarmL() const                 - Undefined Reference
    _ZNK9CCalEntry6AlarmLEv@calinterimapi{000a0000}[102075e4].dll  - Undefined Reference
    CCalEntry::MethodL() const                - Undefined Reference
    _ZNK9CCalEntry7MethodLEv@calinterimapi{000a0000}[102075e4].dll  - Undefined Reference
    CCalEntry::StatusL() const                - Undefined Reference
    _ZNK9CCalEntry7StatusLEv@calinterimapi{000a0000}[102075e4].dll  - Undefined Reference
    CCalEntry::DTStampL() const               - Undefined Reference
    _ZNK9CCalEntry8DTStampLEv@calinterimapi{000a0000}[102075e4].dll  - Undefined Reference
    CCalEntry::EndTimeL() const               - Undefined Reference
    _ZNK9CCalEntry8EndTimeLEv@calinterimapi{000a0000}[102075e4].dll  - Undefined Reference
    CCalEntry::SummaryL() const               - Undefined Reference
    _ZNK9CCalEntry8SummaryLEv@calinterimapi{000a0000}[102075e4].dll  - Undefined Reference
    CCalEntry::GeoValueL() const              - Undefined Reference
    _ZNK9CCalEntry9GeoValueLEv@calinterimapi{000a0000}[102075e4].dll  - Undefined Reference
    CCalEntry::GetRRuleL(TCalRRule&) const    - Undefined Reference
    _ZNK9CCalEntry9GetRRuleLER9TCalRRule@calinterimapi{000a0000}[102075e4].dll  - Undefined Reference
    CCalEntry::LocalUidL() const              - Undefined Reference
    _ZNK9CCalEntry9LocalUidLEv@calinterimapi{000a0000}[102075e4].dll  - Undefined Reference
    CCalEntry::LocationL() const              - Undefined Reference
    _ZNK9CCalEntry9LocationLEv@calinterimapi{000a0000}[102075e4].dll  - Undefined Reference
    CCalEntry::PriorityL() const              - Undefined Reference
    _ZNK9CCalEntry9PriorityLEv@calinterimapi{000a0000}[102075e4].dll  - Undefined Reference
    QDateTime::toTimeSpec(Qt::TimeSpec) const  - Undefined Reference
    _ZNK9QDateTime10toTimeSpecEN2Qt8TimeSpecE@QtCore{00040703}[2001b2dc].dll  - Undefined Reference
    QDateTime::date() const                   - Undefined Reference
    _ZNK9QDateTime4dateEv@QtCore{00040703}[2001b2dc].dll  - Undefined Reference
    QDateTime::time() const                   - Undefined Reference
    _ZNK9QDateTime4timeEv@QtCore{00040703}[2001b2dc].dll  - Undefined Reference
    QDateTime::isNull() const                 - Undefined Reference
    _ZNK9QDateTime6isNullEv@QtCore{00040703}[2001b2dc].dll  - Undefined Reference
    QDateTime::isValid() const                - Undefined Reference
    _ZNK9QDateTime7isValidEv@QtCore{00040703}[2001b2dc].dll  - Undefined Reference
    QDateTime::toString(Qt::DateFormat) const  - Undefined Reference
    _ZNK9QDateTime8toStringEN2Qt10DateFormatE@QtCore{00040703}[2001b2dc].dll  - Undefined Reference
    QDateTime::operator <(const QDateTime&) const  - Undefined Reference
    _ZNK9QDateTimeltERKS_@QtCore{00040703}[2001b2dc].dll  - Undefined Reference
    TCalRRule::GetByMonthL(RArray<TMonth>&) const  - Undefined Reference
    _ZNK9TCalRRule11GetByMonthLER6RArrayI6TMonthE@calinterimapi{000a0000}[102075e4].dll  - Undefined Reference
    TCalRRule::TDayOfMonth::WeekInMonth() const  - Undefined Reference
    _ZNK9TCalRRule11TDayOfMonth11WeekInMonthEv@calinterimapi{000a0000}[102075e4].dll  - Undefined Reference
    TCalRRule::TDayOfMonth::Day() const       - Undefined Reference
    _ZNK9TCalRRule11TDayOfMonth3DayEv@calinterimapi{000a0000}[102075e4].dll  - Undefined Reference
    TCalRRule::GetByMonthDayL(RArray<int>&) const  - Undefined Reference
    _ZNK9TCalRRule14GetByMonthDayLER6RArrayIiE@calinterimapi{000a0000}[102075e4].dll  - Undefined Reference
    TCalRRule::Type() const                   - Undefined Reference
    _ZNK9TCalRRule4TypeEv@calinterimapi{000a0000}[102075e4].dll  - Undefined Reference
    TCalRRule::WkSt() const                   - Undefined Reference
    _ZNK9TCalRRule4WkStEv@calinterimapi{000a0000}[102075e4].dll  - Undefined Reference
    TCalRRule::Count() const                  - Undefined Reference
    _ZNK9TCalRRule5CountEv@calinterimapi{000a0000}[102075e4].dll  - Undefined Reference
    TCalRRule::Until() const                  - Undefined Reference
    _ZNK9TCalRRule5UntilEv@calinterimapi{000a0000}[102075e4].dll  - Undefined Reference
    TCalRRule::Interval() const               - Undefined Reference
    _ZNK9TCalRRule8IntervalEv@calinterimapi{000a0000}[102075e4].dll  - Undefined Reference
    TCalRRule::GetByDayL(RArray<TDay>&) const  - Undefined Reference
    _ZNK9TCalRRule9GetByDayLER6RArrayI4TDayE@calinterimapi{000a0000}[102075e4].dll  - Undefined Reference
    TCalRRule::GetByDayL(RArray<TCalRRule::TDayOfMonth>&) const  - Undefined Reference
    _ZNK9TCalRRule9GetByDayLER6RArrayINS_11TDayOfMonthEE@calinterimapi{000a0000}[102075e4].dll  - Undefined Reference
    typeinfo for XLeaveException              - Undefined Reference
    _ZTI15XLeaveException@drtaeabi{000a0000}.dll  - Undefined Reference
    typeinfo for CActive                      - Undefined Reference
    _ZTI7CActive@euser{000a0000}[100039e5].dll  - Undefined Reference
    typeinfo for QObject                      - Undefined Reference
    _ZTI7QObject@QtCore{00040703}[2001b2dc].dll  - Undefined Reference
    typeinfo for QtMobility::QOrganizerManagerEngine  - Undefined Reference
    _ZTIN10QtMobility23QOrganizerManagerEngineE@QtOrganizer{00010103}[2002bfcd].dll  - Undefined Reference
    typeinfo for QtMobility::QOrganizerManagerEngineFactory  - Undefined Reference
    _ZTIN10QtMobility30QOrganizerManagerEngineFactoryE@QtOrganizer{00010103}[2002bfcd].dll  - Undefined Reference
    typeinfo for std::bad_alloc               - Undefined Reference
    _ZTISt9bad_alloc@stdnew{000a0000}[20022178].dll  - Undefined Reference
    vtable for QtMobility::QOrganizerManagerEngine  - Undefined Reference
    _ZTVN10QtMobility23QOrganizerManagerEngineE@QtOrganizer{00010103}[2002bfcd].dll  - Undefined Reference
    vtable for QtMobility::QOrganizerManagerEngineFactory  - Undefined Reference
    _ZTVN10QtMobility30QOrganizerManagerEngineFactoryE@QtOrganizer{00010103}[2002bfcd].dll  - Undefined Reference
    vtable for __cxxabiv1::__class_type_info  - Undefined Reference
    _ZTVN10__cxxabiv117__class_type_infoE@drtaeabi{000a0000}.dll  - Undefined Reference
    vtable for __cxxabiv1::__si_class_type_info  - Undefined Reference
    _ZTVN10__cxxabiv120__si_class_type_infoE@drtaeabi{000a0000}.dll  - Undefined Reference
    vtable for __cxxabiv1::__vmi_class_type_info  - Undefined Reference
    _ZTVN10__cxxabiv121__vmi_class_type_infoE@drtaeabi{000a0000}.dll  - Undefined Reference
    operator delete (void*)                   - Undefined Reference
    _ZdlPv@stdnew{000a0000}[20022178].dll     - Undefined Reference
    operator <<(QDebug, const QDateTime&)     - Undefined Reference
    _Zls6QDebugRK9QDateTime@QtCore{00040703}[2001b2dc].dll  - Undefined Reference
    operator new(unsigned)                    - Undefined Reference
    _Znwj@stdnew{000a0000}[20022178].dll      - Undefined Reference
    __ARM_ll_addlu                            - Undefined Reference
    __ARM_ll_addlu@drtrvct2_2{000a0000}.dll   - Undefined Reference
    __ARM_ll_cmpu                             - Undefined Reference
    __ARM_ll_cmpu@drtrvct2_2{000a0000}.dll    - Undefined Reference
    __aeabi_idivmod                           - Undefined Reference
    __aeabi_idivmod@drtaeabi{000a0000}.dll    - Undefined Reference
    __aeabi_memcpy                            - Undefined Reference
    __aeabi_memcpy4                           - Undefined Reference
    __aeabi_memcpy4@drtaeabi{000a0000}.dll    - Undefined Reference
    __aeabi_memcpy@drtaeabi{000a0000}.dll     - Undefined Reference
    __aeabi_uidivmod                          - Undefined Reference
    __aeabi_uidivmod@drtaeabi{000a0000}.dll   - Undefined Reference
    __aeabi_unwind_cpp_pr0                    - Undefined Reference
    __aeabi_unwind_cpp_pr0@drtaeabi{000a0000}.dll  - Undefined Reference
    __cxa_begin_catch                         - Undefined Reference
    __cxa_begin_catch@drtaeabi{000a0000}.dll  - Undefined Reference
    __cxa_call_unexpected                     - Undefined Reference
    __cxa_call_unexpected@drtaeabi{000a0000}.dll  - Undefined Reference
    __cxa_end_catch                           - Undefined Reference
    __cxa_end_catch@drtaeabi{000a0000}.dll    - Undefined Reference
    __cxa_end_cleanup                         - Undefined Reference
    __cxa_end_cleanup@drtaeabi{000a0000}.dll  - Undefined Reference
    __cxa_guard_abort                         - Undefined Reference
    __cxa_guard_abort@drtaeabi{000a0000}.dll  - Undefined Reference
    __cxa_guard_acquire                       - Undefined Reference
    __cxa_guard_acquire@drtaeabi{000a0000}.dll  - Undefined Reference
    __cxa_guard_release                       - Undefined Reference
    __cxa_guard_release@drtaeabi{000a0000}.dll  - Undefined Reference
    __cxa_pure_virtual                        - Undefined Reference
    __cxa_pure_virtual@drtaeabi{000a0000}.dll  - Undefined Reference
    __cxa_rethrow                             - Undefined Reference
    __cxa_rethrow@drtaeabi{000a0000}.dll      - Undefined Reference
    strcmp                                    - Undefined Reference
    strcmp@libc{00010001}[10207369].dll       - Undefined Reference
    Image$$ER_RO$$Base                       0x00008000   Number         0  anon$$obj.o(linker$$defined$$symbols)
    _E32Dll                                  0x00008000   ARM Code      40  uc_dll_.o(.emb_text)
    Symbian$$CPP$$Exception$$Descriptor      0x00008014   Data           0  uc_dll_.o(.emb_text)
    __cpp_initialize__aeabi_                 0x00008028   ARM Code      52  ucppinit.o(.emb_text)
    std::nothrow                             0x0000805c   ARM Code       0  ucppinit.o(.emb_text)
    __PLT                                    0x0000805c   ARM Code       0  anon$$obj.o(.plt)
    QOrganizerItemRequestQueue::getStaticMetaObject() 0x00008fdd   Thumb Code     4  moc_qorganizeritemrequestqueue.o(.text)
    QOrganizerItemRequestQueue::metaObject() const 0x00008fe1   Thumb Code    28  moc_qorganizeritemrequestqueue.o(.text)
    QOrganizerItemRequestQueue::qt_metacast(const char*) 0x00008ffd   Thumb Code    40  moc_qorganizeritemrequestqueue.o(.text)
    QOrganizerItemRequestQueue::qt_metacall(QMetaObject::Call, int, void**) 0x00009025   Thumb Code    36  moc_qorganizeritemrequestqueue.o(.text)
    QOrganizerItemSymbianFactory::getStaticMetaObject() 0x00009051   Thumb Code     4  moc_qorganizersymbian_p.o(.text)
    QOrganizerItemSymbianFactory::metaObject() const 0x00009055   Thumb Code    28  moc_qorganizersymbian_p.o(.text)
    QOrganizerItemSymbianFactory::qt_metacast(const char*) 0x00009071   Thumb Code    76  moc_qorganizersymbian_p.o(.text)
    QOrganizerItemSymbianFactory::qt_metacall(QMetaObject::Call, int, void**) 0x000090bd   Thumb Code    36  moc_qorganizersymbian_p.o(.text)
    QOrganizerItemSymbianEngine::getStaticMetaObject() 0x000090e1   Thumb Code     4  moc_qorganizersymbian_p.o(.text)
    QOrganizerItemSymbianEngine::metaObject() const 0x000090e5   Thumb Code    28  moc_qorganizersymbian_p.o(.text)
    QOrganizerItemSymbianEngine::qt_metacast(const char*) 0x00009101   Thumb Code    60  moc_qorganizersymbian_p.o(.text)
    QOrganizerItemSymbianEngine::qt_metacall(QMetaObject::Call, int, void**) 0x0000913d   Thumb Code    36  moc_qorganizersymbian_p.o(.text)
    QOrganizerItemRequestQueue::QOrganizerItemRequestQueue(QOrganizerItemSymbianEngine&) 0x000091dd   Thumb Code    38  qorganizeritemrequestqueue.o(.text)
    QOrganizerItemRequestQueue::QOrganizerItemRequestQueue__sub_object(QOrganizerItemSymbianEngine&) 0x000091dd   Thumb Code     0  qorganizeritemrequestqueue.o(.text)
    QOrganizerItemRequestQueue::instance(QOrganizerItemSymbianEngine&) 0x00009203   Thumb Code    32  qorganizeritemrequestqueue.o(.text)
    QOrganizerItemRequestQueue::~QOrganizerItemRequestQueue() 0x00009223   Thumb Code   278  qorganizeritemrequestqueue.o(.text)
    QOrganizerItemRequestQueue::~QOrganizerItemRequestQueue__sub_object() 0x00009223   Thumb Code     0  qorganizeritemrequestqueue.o(.text)
    QOrganizerItemRequestQueue::~QOrganizerItemRequestQueue__deallocating() 0x00009339   Thumb Code    22  qorganizeritemrequestqueue.o(.text)
    QOrganizerItemRequestQueue::startRequest(QtMobility::QOrganizerAbstractRequest*) 0x0000934f   Thumb Code   176  qorganizeritemrequestqueue.o(.text)
    QOrganizerItemRequestQueue::cancelRequest(QtMobility::QOrganizerAbstractRequest*) 0x000093ff   Thumb Code    32  qorganizeritemrequestqueue.o(.text)
    QOrganizerItemRequestQueue::waitForRequestFinished(QtMobility::QOrganizerAbstractRequest*, int) 0x0000941f   Thumb Code   208  qorganizeritemrequestqueue.o(.text)
    QOrganizerItemRequestQueue::requestDestroyed(QtMobility::QOrganizerAbstractRequest*) 0x000094ef   Thumb Code    48  qorganizeritemrequestqueue.o(.text)
    COrganizerItemRequestsServiceProvider::COrganizerItemRequestsServiceProvider(QOrganizerItemSymbianEngine&) 0x0000955d   Thumb Code    64  organizeritemrequestserviceprovider.o(.text)
    COrganizerItemRequestsServiceProvider::COrganizerItemRequestsServiceProvider__sub_object(QOrganizerItemSymbianEngine&) 0x0000955d   Thumb Code     0  organizeritemrequestserviceprovider.o(.text)
    COrganizerItemRequestsServiceProvider::NewL(QOrganizerItemSymbianEngine&) 0x0000959d   Thumb Code    28  organizeritemrequestserviceprovider.o(.text)
    COrganizerItemRequestsServiceProvider::~COrganizerItemRequestsServiceProvider() 0x000095b9   Thumb Code    48  organizeritemrequestserviceprovider.o(.text)
    COrganizerItemRequestsServiceProvider::~COrganizerItemRequestsServiceProvider__sub_object() 0x000095b9   Thumb Code     0  organizeritemrequestserviceprovider.o(.text)
    COrganizerItemRequestsServiceProvider::~COrganizerItemRequestsServiceProvider__deallocating() 0x000095e9   Thumb Code    22  organizeritemrequestserviceprovider.o(.text)
    COrganizerItemRequestsServiceProvider::SelfComplete() 0x000095ff   Thumb Code    24  organizeritemrequestserviceprovider.o(.text)
    COrganizerItemRequestsServiceProvider::Reset() 0x00009617   Thumb Code   100  organizeritemrequestserviceprovider.o(.text)
    COrganizerItemRequestsServiceProvider::StartRequest(QtMobility::QOrganizerAbstractRequest*) 0x0000967b   Thumb Code   250  organizeritemrequestserviceprovider.o(.text)
    COrganizerItemRequestsServiceProvider::CancelRequest() 0x00009775   Thumb Code    14  organizeritemrequestserviceprovider.o(.text)
    COrganizerItemRequestsServiceProvider::SaveCollections() 0x00009783   Thumb Code   222  organizeritemrequestserviceprovider.o(.text)
    COrganizerItemRequestsServiceProvider::RemoveCollections() 0x00009861   Thumb Code   308  organizeritemrequestserviceprovider.o(.text)
    COrganizerItemRequestsServiceProvider::FetchCollections() 0x00009995   Thumb Code    74  organizeritemrequestserviceprovider.o(.text)
    COrganizerItemRequestsServiceProvider::FetchDetailDefinition() 0x000099df   Thumb Code   480  organizeritemrequestserviceprovider.o(.text)
    COrganizerItemRequestsServiceProvider::SaveItem() 0x00009bbf   Thumb Code   766  organizeritemrequestserviceprovider.o(.text)
    COrganizerItemRequestsServiceProvider::RemoveItem() 0x00009ebd   Thumb Code   208  organizeritemrequestserviceprovider.o(.text)
    COrganizerItemRequestsServiceProvider::FetchItemIds() 0x00009f8d   Thumb Code   144  organizeritemrequestserviceprovider.o(.text)
    COrganizerItemRequestsServiceProvider::FetchItemsandFilter() 0x0000a01d   Thumb Code   314  organizeritemrequestserviceprovider.o(.text)
    COrganizerItemRequestsServiceProvider::FetchItemsByIds() 0x0000a157   Thumb Code   582  organizeritemrequestserviceprovider.o(.text)
    COrganizerItemRequestsServiceProvider::FetchItemsForExport() 0x0000a39d   Thumb Code   236  organizeritemrequestserviceprovider.o(.text)
    COrganizerItemRequestsServiceProvider::FetchItems() 0x0000a489   Thumb Code   134  organizeritemrequestserviceprovider.o(.text)
    COrganizerItemRequestsServiceProvider::RunL() 0x0000a50f   Thumb Code   112  organizeritemrequestserviceprovider.o(.text)
    COrganizerItemRequestsServiceProvider::DoCancel() 0x0000a57f   Thumb Code    14  organizeritemrequestserviceprovider.o(.text)
    COrganizerItemRequestsServiceProvider::RunError(int) 0x0000a58d   Thumb Code    42  organizeritemrequestserviceprovider.o(.text)
    qt_plugin_query_verification_data        0x0000a5bd   Thumb Code     4  qorganizersymbian.o(.text)
    qt_plugin_instance                       0x0000a5c1   Thumb Code   142  qorganizersymbian.o(.text)
    QOrganizerCollectionSymbianEngineId::QOrganizerCollectionSymbianEngineId() 0x0000a64f   Thumb Code    36  qorganizersymbian.o(.text)
    QOrganizerCollectionSymbianEngineId::QOrganizerCollectionSymbianEngineId__sub_object() 0x0000a64f   Thumb Code     0  qorganizersymbian.o(.text)
    QOrganizerCollectionSymbianEngineId::QOrganizerCollectionSymbianEngineId(unsigned long long) 0x0000a673   Thumb Code    38  qorganizersymbian.o(.text)
    QOrganizerCollectionSymbianEngineId::QOrganizerCollectionSymbianEngineId__sub_object(unsigned long long) 0x0000a673   Thumb Code     0  qorganizersymbian.o(.text)
    QOrganizerCollectionSymbianEngineId::~QOrganizerCollectionSymbianEngineId() 0x0000a699   Thumb Code     4  qorganizersymbian.o(.text)
    QOrganizerCollectionSymbianEngineId::~QOrganizerCollectionSymbianEngineId__sub_object() 0x0000a699   Thumb Code     0  qorganizersymbian.o(.text)
    QOrganizerCollectionSymbianEngineId::~QOrganizerCollectionSymbianEngineId__deallocating() 0x0000a69d   Thumb Code    22  qorganizersymbian.o(.text)
    QOrganizerCollectionSymbianEngineId::QOrganizerCollectionSymbianEngineId(const QOrganizerCollectionSymbianEngineId&) 0x0000a6b3   Thumb Code    38  qorganizersymbian.o(.text)
    QOrganizerCollectionSymbianEngineId::QOrganizerCollectionSymbianEngineId__sub_object(const QOrganizerCollectionSymbianEngineId&) 0x0000a6b3   Thumb Code     0  qorganizersymbian.o(.text)
    QOrganizerCollectionSymbianEngineId::isEqualTo(const QtMobility::QOrganizerCollectionEngineId*) const 0x0000a6d9   Thumb Code    36  qorganizersymbian.o(.text)
    QOrganizerCollectionSymbianEngineId::isLessThan(const QtMobility::QOrganizerCollectionEngineId*) const 0x0000a6fd   Thumb Code    36  qorganizersymbian.o(.text)
    QOrganizerCollectionSymbianEngineId::managerUri() const 0x0000a721   Thumb Code    78  qorganizersymbian.o(.text)
    QOrganizerCollectionSymbianEngineId::clone() const 0x0000a76f   Thumb Code    56  qorganizersymbian.o(.text)
    QOrganizerCollectionSymbianEngineId::toString() const 0x0000a7a7   Thumb Code    22  qorganizersymbian.o(.text)
    QOrganizerCollectionSymbianEngineId::debugStreamOut(QDebug&) const 0x0000a7bd   Thumb Code    56  qorganizersymbian.o(.text)
    QOrganizerCollectionSymbianEngineId::hash() const 0x0000a7f5   Thumb Code    62  qorganizersymbian.o(.text)
    QOrganizerItemSymbianEngineId::QOrganizerItemSymbianEngineId() 0x0000a833   Thumb Code    40  qorganizersymbian.o(.text)
    QOrganizerItemSymbianEngineId::QOrganizerItemSymbianEngineId__sub_object() 0x0000a833   Thumb Code     0  qorganizersymbian.o(.text)
    QOrganizerItemSymbianEngineId::QOrganizerItemSymbianEngineId(unsigned long long, unsigned) 0x0000a85b   Thumb Code    42  qorganizersymbian.o(.text)
    QOrganizerItemSymbianEngineId::QOrganizerItemSymbianEngineId__sub_object(unsigned long long, unsigned) 0x0000a85b   Thumb Code     0  qorganizersymbian.o(.text)
    QOrganizerItemSymbianEngineId::~QOrganizerItemSymbianEngineId() 0x0000a885   Thumb Code     4  qorganizersymbian.o(.text)
    QOrganizerItemSymbianEngineId::~QOrganizerItemSymbianEngineId__sub_object() 0x0000a885   Thumb Code     0  qorganizersymbian.o(.text)
    QOrganizerItemSymbianEngineId::~QOrganizerItemSymbianEngineId__deallocating() 0x0000a889   Thumb Code    22  qorganizersymbian.o(.text)
    QOrganizerItemSymbianEngineId::QOrganizerItemSymbianEngineId(const QOrganizerItemSymbianEngineId&) 0x0000a89f   Thumb Code    42  qorganizersymbian.o(.text)
    QOrganizerItemSymbianEngineId::QOrganizerItemSymbianEngineId__sub_object(const QOrganizerItemSymbianEngineId&) 0x0000a89f   Thumb Code     0  qorganizersymbian.o(.text)
    QOrganizerItemSymbianEngineId::isEqualTo(const QtMobility::QOrganizerItemEngineId*) const 0x0000a8c9   Thumb Code    48  qorganizersymbian.o(.text)
    QOrganizerItemSymbianEngineId::isLessThan(const QtMobility::QOrganizerItemEngineId*) const 0x0000a8f9   Thumb Code    66  qorganizersymbian.o(.text)
    QOrganizerItemSymbianEngineId::managerUri() const 0x0000a93b   Thumb Code   198  qorganizersymbian.o(.text)
    QOrganizerItemSymbianEngineId::clone() const 0x0000aa01   Thumb Code    64  qorganizersymbian.o(.text)
    QOrganizerItemSymbianEngineId::toString() const 0x0000aa41   Thumb Code   130  qorganizersymbian.o(.text)
    QOrganizerItemSymbianEngineId::debugStreamOut(QDebug&) const 0x0000aac3   Thumb Code    90  qorganizersymbian.o(.text)
    QOrganizerItemSymbianEngineId::hash() const 0x0000ab1d   Thumb Code    30  qorganizersymbian.o(.text)
    QOrganizerItemSymbianEngine::transformError(int, QtMobility::QOrganizerManager::Error*) 0x0000ab3b   Thumb Code   150  qorganizersymbian.o(.text)
    QOrganizerItemSymbianEngine::initializeL() 0x0000abd1   Thumb Code   374  qorganizersymbian.o(.text)
    QOrganizerItemSymbianEngine::QOrganizerItemSymbianEngine() 0x0000ad47   Thumb Code   110  qorganizersymbian.o(.text)
    QOrganizerItemSymbianEngine::QOrganizerItemSymbianEngine__sub_object() 0x0000ad47   Thumb Code     0  qorganizersymbian.o(.text)
    QOrganizerItemSymbianFactory::engine(const QMap<QString, QString>&, QtMobility::QOrganizerManager::Error*) 0x0000adb5   Thumb Code   204  qorganizersymbian.o(.text)
    thunk{-8} to QOrganizerItemSymbianFactory::engine(const QMap<QString, QString>&, QtMobility::QOrganizerManager::Error*) 0x0000ae81   Thumb Code    22  qorganizersymbian.o(.text)
    QOrganizerItemSymbianFactory::managerName() const 0x0000ae97   Thumb Code    24  qorganizersymbian.o(.text)
    thunk{-8} to QOrganizerItemSymbianFactory::managerName() const 0x0000aeaf   Thumb Code    18  qorganizersymbian.o(.text)
    QOrganizerItemSymbianFactory::createItemEngineId(const QMap<QString, QString>&, const QString&) const 0x0000aec1   Thumb Code   220  qorganizersymbian.o(.text)
    thunk{-8} to QOrganizerItemSymbianFactory::createItemEngineId(const QMap<QString, QString>&, const QString&) const 0x0000af9d   Thumb Code    22  qorganizersymbian.o(.text)
    QOrganizerItemSymbianFactory::createCollectionEngineId(const QMap<QString, QString>&, const QString&) const 0x0000afb3   Thumb Code    70  qorganizersymbian.o(.text)
    thunk{-8} to QOrganizerItemSymbianFactory::createCollectionEngineId(const QMap<QString, QString>&, const QString&) const 0x0000aff9   Thumb Code    22  qorganizersymbian.o(.text)
    QOrganizerItemSymbianEngine::~QOrganizerItemSymbianEngine() 0x0000b00f   Thumb Code    88  qorganizersymbian.o(.text)
    QOrganizerItemSymbianEngine::~QOrganizerItemSymbianEngine__sub_object() 0x0000b00f   Thumb Code     0  qorganizersymbian.o(.text)
    QOrganizerItemSymbianEngine::~QOrganizerItemSymbianEngine__deallocating() 0x0000b067   Thumb Code    22  qorganizersymbian.o(.text)
    QOrganizerItemSymbianEngine::managerName() const 0x0000b07d   Thumb Code    24  qorganizersymbian.o(.text)
    QOrganizerItemSymbianEngine::managerParameters() const 0x0000b095   Thumb Code    26  qorganizersymbian.o(.text)
    QOrganizerItemSymbianEngine::managerVersion() const 0x0000b0af   Thumb Code     6  qorganizersymbian.o(.text)
    QOrganizerItemSymbianEngine::entryViewL(const QtMobility::QOrganizerCollectionId&) const 0x0000b0b5   Thumb Code   108  qorganizersymbian.o(.text)
    QOrganizerItemSymbianEngine::findEntryL(const QtMobility::QOrganizerCollectionId&, const TDesC8&) const 0x0000b121   Thumb Code   128  qorganizersymbian.o(.text)
    QOrganizerItemSymbianEngine::findParentEntryLC(const QtMobility::QOrganizerCollectionId&, const QtMobility::QOrganizerItem&, const TDesC8&) const 0x0000b1a1   Thumb Code   370  qorganizersymbian.o(.text)
    QOrganizerItemSymbianEngine::toItemOccurrencesL(const RPointerArray<CCalInstance>&, QtMobility::QOrganizerItem, int, QtMobility::QOrganizerCollectionId, QList<QtMobility::QOrganizerItem>&) const 0x0000b313   Thumb Code   590  qorganizersymbian.o(.text)
    QOrganizerItemSymbianEngine::itemOccurrencesL(const QtMobility::QOrganizerItemId&, const QDateTime&, const QDateTime&, int, const QtMobility::QOrganizerItemFetchHint&) const 0x0000b561   Thumb Code   474  qorganizersymbian.o(.text)
    QOrganizerItemSymbianEngine::itemOccurrences(const QtMobility::QOrganizerItem&, const QDateTime&, const QDateTime&, int, const QtMobility::QOrganizerItemFetchHint&, QtMobility::QOrganizerManager::Error*) const 0x0000b73b   Thumb Code   122  qorganizersymbian.o(.text)
    QOrganizerItemSymbianEngine::addFilteredAndSorted(QList<QtMobility::QOrganizerItem>*, const QtMobility::QOrganizerItem&, const QtMobility::QOrganizerItemFilter&, QList<QtMobility::QOrganizerItemSortOrder>&) const 0x0000b7b5   Thumb Code    60  qorganizersymbian.o(.text)
    QOrganizerItemSymbianEngine::slowFilterItems(const QList<QtMobility::QOrganizerItem>&, const QtMobility::QOrganizerItemFilter&, QList<QtMobility::QOrganizerItemSortOrder>&) const 0x0000b7f1   Thumb Code   196  qorganizersymbian.o(.text)
    QOrganizerItemSymbianEngine::filteredSymbianCollectionsL(const QtMobility::QOrganizerItemFilter&) const 0x0000b8b5   Thumb Code   732  qorganizersymbian.o(.text)
    QOrganizerItemSymbianEngine::itemOccurrencesL(const QDateTime&, const QDateTime&, const QtMobility::QOrganizerItemFilter&, const QList<QtMobility::QOrganizerItemSortOrder>&, const QtMobility::QOrganizerItemFetchHint&) const 0x0000bb91   Thumb Code   424  qorganizersymbian.o(.text)
    QOrganizerItemSymbianEngine::items(const QDateTime&, const QDateTime&, const QtMobility::QOrganizerItemFilter&, const QList<QtMobility::QOrganizerItemSortOrder>&, const QtMobility::QOrganizerItemFetchHint&, QtMobility::QOrganizerManager::Error*) const 0x0000bd39   Thumb Code   106  qorganizersymbian.o(.text)
    QOrganizerItemSymbianEngine::itemL(const QtMobility::QOrganizerItemId&, const QtMobility::QOrganizerItemFetchHint&) const 0x0000bda3   Thumb Code   456  qorganizersymbian.o(.text)
    QOrganizerItemSymbianEngine::slowFilterIdsL(const QList<QtMobility::QOrganizerItemId>&, const QtMobility::QOrganizerItemFilter&, QList<QtMobility::QOrganizerItemSortOrder>&) const 0x0000bf6b   Thumb Code   348  qorganizersymbian.o(.text)
    QOrganizerItemSymbianEngine::itemIdsL(const QList<OrganizerSymbianCollection>&, const QDateTime&, const QDateTime&) const 0x0000c0c7   Thumb Code   664  qorganizersymbian.o(.text)
    QOrganizerItemSymbianEngine::itemIdsL(const QDateTime&, const QDateTime&, const QtMobility::QOrganizerItemFilter&, const QList<QtMobility::QOrganizerItemSortOrder>&) const 0x0000c35f   Thumb Code    66  qorganizersymbian.o(.text)
    QOrganizerItemSymbianEngine::itemIds(const QDateTime&, const QDateTime&, const QtMobility::QOrganizerItemFilter&, const QList<QtMobility::QOrganizerItemSortOrder>&, QtMobility::QOrganizerManager::Error*) const 0x0000c3a1   Thumb Code   164  qorganizersymbian.o(.text)
    QOrganizerItemSymbianEngine::slowFilterIdsToItemsL(const QList<QtMobility::QOrganizerItemId>&, const QtMobility::QOrganizerItemFilter&, QList<QtMobility::QOrganizerItemSortOrder>&) const 0x0000c445   Thumb Code   188  qorganizersymbian.o(.text)
    QOrganizerItemSymbianEngine::itemsForExportL(const QDateTime&, const QDateTime&, const QtMobility::QOrganizerItemFilter&, const QList<QtMobility::QOrganizerItemSortOrder>&) const 0x0000c501   Thumb Code    66  qorganizersymbian.o(.text)
    QOrganizerItemSymbianEngine::itemsForExport(const QDateTime&, const QDateTime&, const QtMobility::QOrganizerItemFilter&, const QList<QtMobility::QOrganizerItemSortOrder>&, const QtMobility::QOrganizerItemFetchHint&, QtMobility::QOrganizerManager::Error*) const 0x0000c543   Thumb Code   110  qorganizersymbian.o(.text)
    QOrganizerItemSymbianEngine::item(const QtMobility::QOrganizerItemId&, const QtMobility::QOrganizerItemFetchHint&, QtMobility::QOrganizerManager::Error*) const 0x0000c5b1   Thumb Code   104  qorganizersymbian.o(.text)
    QOrganizerItemSymbianEngine::findEntryL(const QtMobility::QOrganizerCollectionId&, const QtMobility::QOrganizerItemId&, QString) const 0x0000c619   Thumb Code   108  qorganizersymbian.o(.text)
    QOrganizerItemSymbianEngine::entryForItemL(const QtMobility::QOrganizerCollectionId&, const QtMobility::QOrganizerItem&, bool&) const 0x0000c685   Thumb Code   152  qorganizersymbian.o(.text)
    QOrganizerItemSymbianEngine::entryForItemOccurrenceL(const QtMobility::QOrganizerCollectionId&, const QtMobility::QOrganizerItem&, bool&) const 0x0000c71d   Thumb Code   474  qorganizersymbian.o(.text)
    QOrganizerItemSymbianEngine::collectionIdL(const QtMobility::QOrganizerItem&, const QtMobility::QOrganizerCollectionId&) const 0x0000c8f7   Thumb Code   134  qorganizersymbian.o(.text)
    QOrganizerItemSymbianEngine::saveItemL(QtMobility::QOrganizerItem*, QtMobility::QOrganizerItemChangeSet*) 0x0000c97d   Thumb Code   508  qorganizersymbian.o(.text)
    QOrganizerItemSymbianEngine::saveItem(QtMobility::QOrganizerItem*, QtMobility::QOrganizerManager::Error*) 0x0000cb79   Thumb Code   134  qorganizersymbian.o(.text)
    QOrganizerItemSymbianEngine::saveItems(QList<QtMobility::QOrganizerItem>*, QMap<int, QtMobility::QOrganizerManager::Error>*, QtMobility::QOrganizerManager::Error*) 0x0000cbff   Thumb Code   274  qorganizersymbian.o(.text)
    QOrganizerItemSymbianEngine::removeItemL(const QtMobility::QOrganizerItemId&) 0x0000cd11   Thumb Code   160  qorganizersymbian.o(.text)
    QOrganizerItemSymbianEngine::removeItem(const QtMobility::QOrganizerItemId&, QtMobility::QOrganizerManager::Error*) 0x0000cdb1   Thumb Code   128  qorganizersymbian.o(.text)
    QOrganizerItemSymbianEngine::removeItems(const QList<QtMobility::QOrganizerItemId>&, QMap<int, QtMobility::QOrganizerManager::Error>*, QtMobility::QOrganizerManager::Error*) 0x0000ce31   Thumb Code   220  qorganizersymbian.o(.text)
    QOrganizerItemSymbianEngine::defaultCollection(QtMobility::QOrganizerManager::Error*) const 0x0000cf0d   Thumb Code    24  qorganizersymbian.o(.text)
    QOrganizerItemSymbianEngine::collection(const QtMobility::QOrganizerCollectionId&, QtMobility::QOrganizerManager::Error*) const 0x0000cf25   Thumb Code    66  qorganizersymbian.o(.text)
    QOrganizerItemSymbianEngine::collectionsL() const 0x0000cf67   Thumb Code   172  qorganizersymbian.o(.text)
    QOrganizerItemSymbianEngine::collections(QtMobility::QOrganizerManager::Error*) const 0x0000d013   Thumb Code   152  qorganizersymbian.o(.text)
    QOrganizerItemSymbianEngine::saveCollectionL(QtMobility::QOrganizerCollection*) 0x0000d0ab   Thumb Code   656  qorganizersymbian.o(.text)
    QOrganizerItemSymbianEngine::saveCollection(QtMobility::QOrganizerCollection*, QtMobility::QOrganizerManager::Error*) 0x0000d33b   Thumb Code   180  qorganizersymbian.o(.text)
    QOrganizerItemSymbianEngine::removeCollectionL(const QtMobility::QOrganizerCollectionId&) 0x0000d3ef   Thumb Code   406  qorganizersymbian.o(.text)
    QOrganizerItemSymbianEngine::removeCollection(const QtMobility::QOrganizerCollectionId&, QtMobility::QOrganizerManager::Error*) 0x0000d585   Thumb Code   128  qorganizersymbian.o(.text)
    QOrganizerItemSymbianEngine::compatibleItem(const QtMobility::QOrganizerItem&, QtMobility::QOrganizerManager::Error*) const 0x0000d605   Thumb Code   152  qorganizersymbian.o(.text)
    QOrganizerItemSymbianEngine::isCollectionNameAvailable(QString) const 0x0000d69d   Thumb Code   200  qorganizersymbian.o(.text)
    QOrganizerItemSymbianEngine::compatibleCollection(const QtMobility::QOrganizerCollection&, QtMobility::QOrganizerManager::Error*) const 0x0000d765   Thumb Code   364  qorganizersymbian.o(.text)
    QOrganizerItemSymbianEngine::detailDefinitions(const QString&, QtMobility::QOrganizerManager::Error*) const 0x0000d8d1   Thumb Code   184  qorganizersymbian.o(.text)
    QOrganizerItemSymbianEngine::hasFeature(QtMobility::QOrganizerManager::ManagerFeature, const QString&) const 0x0000d989   Thumb Code    36  qorganizersymbian.o(.text)
    QOrganizerItemSymbianEngine::isFilterSupported(const QtMobility::QOrganizerItemFilter&) const 0x0000d9ad   Thumb Code    32  qorganizersymbian.o(.text)
    QOrganizerItemSymbianEngine::supportedDataTypes() const 0x0000d9cd   Thumb Code    78  qorganizersymbian.o(.text)
    QOrganizerItemSymbianEngine::supportedItemTypes() const 0x0000da1b   Thumb Code    86  qorganizersymbian.o(.text)
    QOrganizerItemSymbianEngine::requestDestroyed(QtMobility::QOrganizerAbstractRequest*) 0x0000da71   Thumb Code    16  qorganizersymbian.o(.text)
    QOrganizerItemSymbianEngine::startRequest(QtMobility::QOrganizerAbstractRequest*) 0x0000da81   Thumb Code    16  qorganizersymbian.o(.text)
    QOrganizerItemSymbianEngine::cancelRequest(QtMobility::QOrganizerAbstractRequest*) 0x0000da91   Thumb Code    16  qorganizersymbian.o(.text)
    QOrganizerItemSymbianEngine::waitForRequestFinished(QtMobility::QOrganizerAbstractRequest*, int) 0x0000daa1   Thumb Code    20  qorganizersymbian.o(.text)
    QOrganizerItemSymbianEngine::CalendarInfoChangeNotificationL(RPointerArray<CCalFileChangeInfo>&) 0x0000dab5   Thumb Code   694  qorganizersymbian.o(.text)
    thunk{-8} to QOrganizerItemSymbianEngine::CalendarInfoChangeNotificationL(RPointerArray<CCalFileChangeInfo>&) 0x0000dd6b   Thumb Code    22  qorganizersymbian.o(.text)
    QOrganizerItemSymbianEngine::instanceViewL(const QtMobility::QOrganizerCollectionId&) const 0x0000dd81   Thumb Code   108  qorganizersymbian.o(.text)
    OrganizerSymbianCollectionPrivate::OrganizerSymbianCollectionPrivate() 0x0000dded   Thumb Code   116  organizersymbiancollection.o(.text)
    OrganizerSymbianCollectionPrivate::OrganizerSymbianCollectionPrivate__sub_object() 0x0000dded   Thumb Code     0  organizersymbiancollection.o(.text)
    OrganizerSymbianCollectionPrivate::~OrganizerSymbianCollectionPrivate() 0x0000de61   Thumb Code   116  organizersymbiancollection.o(.text)
    OrganizerSymbianCollectionPrivate::~OrganizerSymbianCollectionPrivate__sub_object() 0x0000de61   Thumb Code     0  organizersymbiancollection.o(.text)
    OrganizerSymbianCollectionPrivate::Progress(int) 0x0000ded5   Thumb Code     2  organizersymbiancollection.o(.text)
    OrganizerSymbianCollectionPrivate::Completed(int) 0x0000ded7   Thumb Code    16  organizersymbiancollection.o(.text)
    OrganizerSymbianCollectionPrivate::NotifyProgress() 0x0000dee7   Thumb Code     6  organizersymbiancollection.o(.text)
    OrganizerSymbianCollectionPrivate::CalChangeNotification(RArray<TCalChangeEntry>&) 0x0000deed   Thumb Code   158  organizersymbiancollection.o(.text)
    thunk{-8} to OrganizerSymbianCollectionPrivate::CalChangeNotification(RArray<TCalChangeEntry>&) 0x0000df8b   Thumb Code    18  organizersymbiancollection.o(.text)
    OrganizerSymbianCollection::OrganizerSymbianCollection() 0x0000df9d   Thumb Code    46  organizersymbiancollection.o(.text)
    OrganizerSymbianCollection::OrganizerSymbianCollection__sub_object() 0x0000df9d   Thumb Code     0  organizersymbiancollection.o(.text)
    OrganizerSymbianCollection::OrganizerSymbianCollection(QtMobility::QOrganizerManagerEngine*) 0x0000dfcb   Thumb Code    54  organizersymbiancollection.o(.text)
    OrganizerSymbianCollection::OrganizerSymbianCollection__sub_object(QtMobility::QOrganizerManagerEngine*) 0x0000dfcb   Thumb Code     0  organizersymbiancollection.o(.text)
    OrganizerSymbianCollection::OrganizerSymbianCollection(const OrganizerSymbianCollection&) 0x0000e001   Thumb Code    30  organizersymbiancollection.o(.text)
    OrganizerSymbianCollection::OrganizerSymbianCollection__sub_object(const OrganizerSymbianCollection&) 0x0000e001   Thumb Code     0  organizersymbiancollection.o(.text)
    OrganizerSymbianCollection::openL(const TDesC16&, const CCalCalendarInfo*) 0x0000e01f   Thumb Code   616  organizersymbiancollection.o(.text)
    OrganizerSymbianCollection::createViewsL() 0x0000e287   Thumb Code    98  organizersymbiancollection.o(.text)
    OrganizerSymbianCollection::id() const   0x0000e2e9   Thumb Code    26  organizersymbiancollection.o(.text)
    OrganizerSymbianCollection::calCollectionId() const 0x0000e303   Thumb Code    12  organizersymbiancollection.o(.text)
    OrganizerSymbianCollection::calSession() const 0x0000e30f   Thumb Code    10  organizersymbiancollection.o(.text)
    OrganizerSymbianCollection::calEntryView() const 0x0000e319   Thumb Code    10  organizersymbiancollection.o(.text)
    OrganizerSymbianCollection::calInstanceView() const 0x0000e323   Thumb Code    10  organizersymbiancollection.o(.text)
    OrganizerSymbianCollection::fileName() const 0x0000e32d   Thumb Code    30  organizersymbiancollection.o(.text)
    OrganizerSymbianCollection::isValid() const 0x0000e34b   Thumb Code    34  organizersymbiancollection.o(.text)
    OrganizerSymbianCollection::isMarkedForDeletionL() const 0x0000e36d   Thumb Code   102  organizersymbiancollection.o(.text)
    OrganizerSymbianCollection::toQOrganizerCollectionL() const 0x0000e3d3   Thumb Code   146  organizersymbiancollection.o(.text)
    OrganizerSymbianUtils::toQString(const TDesC8&) 0x0000e469   Thumb Code    36  organizersymbianutils.o(.text)
    OrganizerSymbianUtils::toQString(const TDesC16&) 0x0000e48d   Thumb Code    36  organizersymbianutils.o(.text)
    OrganizerSymbianUtils::toPtrC8(const QByteArray&) 0x0000e4b1   Thumb Code    38  organizersymbianutils.o(.text)
    OrganizerSymbianUtils::toPtrC16(const QString&) 0x0000e4d7   Thumb Code    40  organizersymbianutils.o(.text)
    OrganizerSymbianUtils::toTTime(const QDateTime&, Qt::TimeSpec) 0x0000e4ff   Thumb Code   214  organizersymbianutils.o(.text)
    OrganizerSymbianUtils::toTCalTimeL(const QDateTime&) 0x0000e5d5   Thumb Code    70  organizersymbianutils.o(.text)
    OrganizerSymbianUtils::toTCalTimeL(const QDate&) 0x0000e61b   Thumb Code    92  organizersymbianutils.o(.text)
    OrganizerSymbianUtils::toQDateTime(const TTime&, Qt::TimeSpec) 0x0000e677   Thumb Code   168  organizersymbianutils.o(.text)
    OrganizerSymbianUtils::toQDateTimeL(const TCalTime&) 0x0000e71f   Thumb Code    26  organizersymbianutils.o(.text)
    OrganizerSymbianUtils::toCollectionId(unsigned long long) 0x0000e739   Thumb Code    40  organizersymbianutils.o(.text)
    OrganizerSymbianUtils::toItemId(unsigned long long, unsigned) 0x0000e761   Thumb Code    50  organizersymbianutils.o(.text)
    OrganizerSymbianUtils::toTCalLocalUid(const QtMobility::QOrganizerItemId&) 0x0000e793   Thumb Code    16  organizersymbianutils.o(.text)
    OrganizerSymbianUtils::toTCalCollectionId(const QtMobility::QOrganizerItemId&) 0x0000e7a3   Thumb Code    22  organizersymbianutils.o(.text)
    OrganizerSymbianUtils::getCollectionId(const QtMobility::QOrganizerItemId&) 0x0000e7b9   Thumb Code    34  organizersymbianutils.o(.text)
    OrganizerSymbianUtils::setCalInfoPropertyL(CCalCalendarInfo*, TCalenPropertyUid, const QString&) 0x0000e7db   Thumb Code    72  organizersymbianutils.o(.text)
    OrganizerSymbianUtils::toMetaDataL(const CCalCalendarInfo&) 0x0000e823   Thumb Code  1402  organizersymbianutils.o(.text)
    OrganizerSymbianUtils::toCalInfoLC(QMap<QString, QVariant>) 0x0000ed9d   Thumb Code  1382  organizersymbianutils.o(.text)
    debugEntryL(const CCalEntry&)            0x0000f329   Thumb Code   646  organizeritemtransform.o(.text)
    debugInstanceL(const CCalInstance&)      0x0000f5af   Thumb Code   554  organizeritemtransform.o(.text)
    debugSchemaDefs(const QMap<QString, QMap<QString, QtMobility::QOrganizerItemDetailDefinition>>&) 0x0000f7d9   Thumb Code   764  organizeritemtransform.o(.text)
    OrganizerItemTransform::OrganizerItemTransform() 0x0000fad5   Thumb Code   764  organizeritemtransform.o(.text)
    OrganizerItemTransform::OrganizerItemTransform__sub_object() 0x0000fad5   Thumb Code     0  organizeritemtransform.o(.text)
    OrganizerItemTransform::~OrganizerItemTransform() 0x0000fdd1   Thumb Code   120  organizeritemtransform.o(.text)
    OrganizerItemTransform::~OrganizerItemTransform__sub_object() 0x0000fdd1   Thumb Code     0  organizeritemtransform.o(.text)
    OrganizerItemTransform::modifyBaseSchemaDefinitions(QMap<QString, QMap<QString, QtMobility::QOrganizerItemDetailDefinition>>&) const 0x0000fe49   Thumb Code   730  organizeritemtransform.o(.text)
    OrganizerItemTransform::toEntryL(const QtMobility::QOrganizerItem&, CCalEntry*) 0x00010123   Thumb Code   124  organizeritemtransform.o(.text)
    OrganizerItemTransform::toItemL(const CCalEntry&, QtMobility::QOrganizerItem*) const 0x0001019f   Thumb Code   118  organizeritemtransform.o(.text)
    OrganizerItemTransform::toItemPostSaveL(const CCalEntry&, QtMobility::QOrganizerItem*, QString) const 0x00010215   Thumb Code   122  organizeritemtransform.o(.text)
    OrganizerItemTransform::toItemOccurrenceL(const CCalInstance&, QtMobility::QOrganizerItem*) const 0x0001028f   Thumb Code   118  organizeritemtransform.o(.text)
    OrganizerItemDetailTransform::OrganizerItemDetailTransform__sub_object() 0x00010305   Thumb Code     6  organizeritemdetailtransform.o(.text)
    OrganizerItemDetailTransform::~OrganizerItemDetailTransform() 0x0001030b   Thumb Code     0  organizeritemdetailtransform.o(.text)
    OrganizerItemDetailTransform::~OrganizerItemDetailTransform__sub_object() 0x0001030b   Thumb Code     2  organizeritemdetailtransform.o(.text)
    OrganizerItemDetailTransform::~OrganizerItemDetailTransform__deallocating() 0x0001030d   Thumb Code    22  organizeritemdetailtransform.o(.text)
    OrganizerItemDetailTransform::modifyBaseSchemaDefinitions(QMap<QString, QMap<QString, QtMobility::QOrganizerItemDetailDefinition>>&) const 0x00010323   Thumb Code     6  organizeritemdetailtransform.o(.text)
    OrganizerItemDetailTransform::transformToDetailL(const CCalInstance&, QtMobility::QOrganizerItem*) 0x00010329   Thumb Code    30  organizeritemdetailtransform.o(.text)
    OrganizerItemDetailTransform::transformToDetailPostSaveL(const CCalEntry&, QtMobility::QOrganizerItem*) 0x00010347   Thumb Code    10  organizeritemdetailtransform.o(.text)
    OrganizerEventTimeTransform::transformToDetailL(const CCalEntry&, QtMobility::QOrganizerItem*) 0x00010355   Thumb Code   266  organizereventtimerangetransform.o(.text)
    OrganizerEventTimeTransform::transformToDetailL(const CCalInstance&, QtMobility::QOrganizerItem*) 0x0001045f   Thumb Code   266  organizereventtimerangetransform.o(.text)
    OrganizerEventTimeTransform::transformToEntryL(const QtMobility::QOrganizerItem&, CCalEntry*) 0x00010569   Thumb Code   314  organizereventtimerangetransform.o(.text)
    OrganizerEventTimeTransform::detailDefinitionName() 0x000106a3   Thumb Code    22  organizereventtimerangetransform.o(.text)
    OrganizerItemDescriptionTransform::transformToDetailL(const CCalEntry&, QtMobility::QOrganizerItem*) 0x000106c5   Thumb Code    50  organizeritemdescriptiontransform.o(.text)
    OrganizerItemDescriptionTransform::transformToEntryL(const QtMobility::QOrganizerItem&, CCalEntry*) 0x000106f7   Thumb Code    76  organizeritemdescriptiontransform.o(.text)
    OrganizerItemDescriptionTransform::detailDefinitionName() 0x00010743   Thumb Code    22  organizeritemdescriptiontransform.o(.text)
    OrganizerItemDisplayLabelTransform::transformToDetailL(const CCalEntry&, QtMobility::QOrganizerItem*) 0x0001075d   Thumb Code    50  organizeritemdisplaylabeltransform.o(.text)
    OrganizerItemDisplayLabelTransform::transformToEntryL(const QtMobility::QOrganizerItem&, CCalEntry*) 0x0001078f   Thumb Code   104  organizeritemdisplaylabeltransform.o(.text)
    OrganizerItemDisplayLabelTransform::detailDefinitionName() 0x000107f7   Thumb Code    22  organizeritemdisplaylabeltransform.o(.text)
    OrganizerItemDisplayLabelTransform::modifyBaseSchemaDefinitions(QMap<QString, QMap<QString, QtMobility::QOrganizerItemDetailDefinition>>&) const 0x0001080d   Thumb Code   308  organizeritemdisplaylabeltransform.o(.text)
    OrganizerItemGuidTransform::OrganizerItemGuidTransform() 0x0001094d   Thumb Code    42  organizeritemguidtransform.o(.text)
    OrganizerItemGuidTransform::OrganizerItemGuidTransform__sub_object() 0x0001094d   Thumb Code     0  organizeritemguidtransform.o(.text)
    OrganizerItemGuidTransform::transformToDetailL(const CCalEntry&, QtMobility::QOrganizerItem*) 0x00010977   Thumb Code    50  organizeritemguidtransform.o(.text)
    OrganizerItemGuidTransform::transformToDetailPostSaveL(const CCalEntry&, QtMobility::QOrganizerItem*) 0x000109a9   Thumb Code    22  organizeritemguidtransform.o(.text)
    OrganizerItemGuidTransform::transformToEntryL(const QtMobility::QOrganizerItem&, CCalEntry*) 0x000109bf   Thumb Code    10  organizeritemguidtransform.o(.text)
    OrganizerItemGuidTransform::detailDefinitionName() 0x000109c9   Thumb Code    22  organizeritemguidtransform.o(.text)
    OrganizerItemGuidTransform::guidLC(const QtMobility::QOrganizerItem&) 0x000109df   Thumb Code   138  organizeritemguidtransform.o(.text)
    OrganizerItemParentTransform::transformToDetailL(const CCalEntry&, QtMobility::QOrganizerItem*) 0x00010a71   Thumb Code    10  organizeritemparenttransform.o(.text)
    OrganizerItemParentTransform::transformToDetailL(const CCalInstance&, QtMobility::QOrganizerItem*) 0x00010a7b   Thumb Code    10  organizeritemparenttransform.o(.text)
    OrganizerItemParentTransform::transformToEntryL(const QtMobility::QOrganizerItem&, CCalEntry*) 0x00010a85   Thumb Code    10  organizeritemparenttransform.o(.text)
    OrganizerItemParentTransform::detailDefinitionName() 0x00010a8f   Thumb Code    22  organizeritemparenttransform.o(.text)
    OrganizerItemLocationTransform::modifyBaseSchemaDefinitions(QMap<QString, QMap<QString, QtMobility::QOrganizerItemDetailDefinition>>&) const 0x00010aa9   Thumb Code  1084  organizeritemlocationtransform.o(.text)
    OrganizerItemLocationTransform::transformToDetailL(const CCalEntry&, QtMobility::QOrganizerItem*) 0x00010ee5   Thumb Code   244  organizeritemlocationtransform.o(.text)
    OrganizerItemLocationTransform::transformToEntryL(const QtMobility::QOrganizerItem&, CCalEntry*) 0x00010fd9   Thumb Code   272  organizeritemlocationtransform.o(.text)
    OrganizerItemLocationTransform::detailDefinitionName() 0x000110e9   Thumb Code    22  organizeritemlocationtransform.o(.text)
    OrganizerItemPriorityTransform::transformToDetailL(const CCalEntry&, QtMobility::QOrganizerItem*) 0x00011111   Thumb Code   118  organizeritemprioritytransform.o(.text)
    OrganizerItemPriorityTransform::transformToEntryL(const QtMobility::QOrganizerItem&, CCalEntry*) 0x00011187   Thumb Code   204  organizeritemprioritytransform.o(.text)
    OrganizerItemPriorityTransform::detailDefinitionName() 0x00011253   Thumb Code    22  organizeritemprioritytransform.o(.text)
    OrganizerItemRecurrenceTransform::modifyBaseSchemaDefinitions(QMap<QString, QMap<QString, QtMobility::QOrganizerItemDetailDefinition>>&) const 0x00011275   Thumb Code   846  organizeritemrecurrencetransform.o(.text)
    OrganizerItemRecurrenceTransform::toQDatesL(const RArray<TCalTime>&) const 0x000115c3   Thumb Code    98  organizeritemrecurrencetransform.o(.text)
    OrganizerItemRecurrenceTransform::toDayOfWeekL(TDay) const 0x00011625   Thumb Code    66  organizeritemrecurrencetransform.o(.text)
    OrganizerItemRecurrenceTransform::toMonthL(TMonth) const 0x00011667   Thumb Code    90  organizeritemrecurrencetransform.o(.text)
    OrganizerItemRecurrenceTransform::toFrequencyL(TCalRRule::TType) const 0x000116c1   Thumb Code    52  organizeritemrecurrencetransform.o(.text)
    OrganizerItemRecurrenceTransform::toItemRecurrenceRulesL(const TCalRRule&) const 0x000116f5   Thumb Code   892  organizeritemrecurrencetransform.o(.text)
    OrganizerItemRecurrenceTransform::transformToDetailL(const CCalEntry&, QtMobility::QOrganizerItem*) 0x00011a71   Thumb Code   238  organizeritemrecurrencetransform.o(.text)
    OrganizerItemRecurrenceTransform::transformToDetailL(const CCalInstance&, QtMobility::QOrganizerItem*) 0x00011b5f   Thumb Code    10  organizeritemrecurrencetransform.o(.text)
    OrganizerItemRecurrenceTransform::toTCalTimesL(const QSet<QDate>&, RArray<TCalTime>&) const 0x00011b69   Thumb Code   356  organizeritemrecurrencetransform.o(.text)
    OrganizerItemRecurrenceTransform::toTDayL(Qt::DayOfWeek) const 0x00011ccd   Thumb Code    66  organizeritemrecurrencetransform.o(.text)
    OrganizerItemRecurrenceTransform::toTMonthL(QtMobility::QOrganizerRecurrenceRule::Month) const 0x00011d0f   Thumb Code    92  organizeritemrecurrencetransform.o(.text)
    OrganizerItemRecurrenceTransform::toTMonthsL(QSet<QtMobility::QOrganizerRecurrenceRule::Month>, TCalRRule&) const 0x00011d6b   Thumb Code   420  organizeritemrecurrencetransform.o(.text)
    OrganizerItemRecurrenceTransform::toDaysOfMonthL(QSet<Qt::DayOfWeek>, QSet<int>, TCalRRule&) const 0x00011f0f   Thumb Code   374  organizeritemrecurrencetransform.o(.text)
    OrganizerItemRecurrenceTransform::toMonthDaysL(QSet<int>, TCalRRule&) const 0x00012085   Thumb Code   172  organizeritemrecurrencetransform.o(.text)
    OrganizerItemRecurrenceTransform::toDaysL(QSet<Qt::DayOfWeek>, QDateTime, TCalRRule&) const 0x00012131   Thumb Code   204  organizeritemrecurrencetransform.o(.text)
    OrganizerItemRecurrenceTransform::toTypeL(QtMobility::QOrganizerRecurrenceRule::Frequency) const 0x000121fd   Thumb Code    52  organizeritemrecurrencetransform.o(.text)
    OrganizerItemRecurrenceTransform::toCalRRuleL(QSet<QtMobility::QOrganizerRecurrenceRule>, QDateTime) const 0x00012231   Thumb Code   762  organizeritemrecurrencetransform.o(.text)
    OrganizerItemRecurrenceTransform::transformToEntryL(const QtMobility::QOrganizerItem&, CCalEntry*) 0x0001252b   Thumb Code   584  organizeritemrecurrencetransform.o(.text)
    OrganizerItemRecurrenceTransform::detailDefinitionName() 0x00012773   Thumb Code    22  organizeritemrecurrencetransform.o(.text)
    OrganizerItemTimeStampTransform::transformToDetailL(const CCalEntry&, QtMobility::QOrganizerItem*) 0x000127a5   Thumb Code   146  organizeritemtimestamptransform.o(.text)
    OrganizerItemTimeStampTransform::transformToDetailPostSaveL(const CCalEntry&, QtMobility::QOrganizerItem*) 0x00012837   Thumb Code    22  organizeritemtimestamptransform.o(.text)
    OrganizerItemTimeStampTransform::transformToEntryL(const QtMobility::QOrganizerItem&, CCalEntry*) 0x0001284d   Thumb Code   158  organizeritemtimestamptransform.o(.text)
    OrganizerItemTimeStampTransform::detailDefinitionName() 0x000128eb   Thumb Code    22  organizeritemtimestamptransform.o(.text)
    OrganizerItemTypeTransform::modifyBaseSchemaDefinitions(QMap<QString, QMap<QString, QtMobility::QOrganizerItemDetailDefinition>>&) const 0x0001290d   Thumb Code    64  organizeritemtypetransform.o(.text)
    OrganizerItemTypeTransform::transformToDetailL(const CCalEntry&, QtMobility::QOrganizerItem*) 0x0001294d   Thumb Code   270  organizeritemtypetransform.o(.text)
    OrganizerItemTypeTransform::transformToDetailL(const CCalInstance&, QtMobility::QOrganizerItem*) 0x00012a5b   Thumb Code   258  organizeritemtypetransform.o(.text)
    OrganizerItemTypeTransform::transformToEntryL(const QtMobility::QOrganizerItem&, CCalEntry*) 0x00012b5d   Thumb Code    10  organizeritemtypetransform.o(.text)
    OrganizerItemTypeTransform::detailDefinitionName() 0x00012b67   Thumb Code    22  organizeritemtypetransform.o(.text)
    OrganizerItemTypeTransform::entryTypeL(const QtMobility::QOrganizerItem&) 0x00012b7d   Thumb Code    90  organizeritemtypetransform.o(.text)
    OrganizerJournalTimeTransform::transformToDetailL(const CCalEntry&, QtMobility::QOrganizerItem*) 0x00012bf5   Thumb Code   182  organizerjournaltimerangetransform.o(.text)
    OrganizerJournalTimeTransform::transformToEntryL(const QtMobility::QOrganizerItem&, CCalEntry*) 0x00012cab   Thumb Code   158  organizerjournaltimerangetransform.o(.text)
    OrganizerJournalTimeTransform::detailDefinitionName() 0x00012d49   Thumb Code    22  organizerjournaltimerangetransform.o(.text)
    OrganizerTodoProgressTransform::modifyBaseSchemaDefinitions(QMap<QString, QMap<QString, QtMobility::QOrganizerItemDetailDefinition>>&) const 0x00012d6d   Thumb Code   846  organizertodoprogresstransform.o(.text)
    OrganizerTodoProgressTransform::transformToDetailL(const CCalEntry&, QtMobility::QOrganizerItem*) 0x000130bb   Thumb Code   246  organizertodoprogresstransform.o(.text)
    OrganizerTodoProgressTransform::transformToEntryL(const QtMobility::QOrganizerItem&, CCalEntry*) 0x000131b1   Thumb Code   320  organizertodoprogresstransform.o(.text)
    OrganizerTodoProgressTransform::detailDefinitionName() 0x000132f1   Thumb Code    22  organizertodoprogresstransform.o(.text)
    OrganizerTodoTimeTransform::transformToDetailL(const CCalEntry&, QtMobility::QOrganizerItem*) 0x0001330d   Thumb Code   236  organizertodotimerangetransform.o(.text)
    OrganizerTodoTimeTransform::transformToDetailL(const CCalInstance&, QtMobility::QOrganizerItem*) 0x000133f9   Thumb Code   236  organizertodotimerangetransform.o(.text)
    OrganizerTodoTimeTransform::transformToEntryL(const QtMobility::QOrganizerItem&, CCalEntry*) 0x000134e5   Thumb Code   340  organizertodotimerangetransform.o(.text)
    OrganizerTodoTimeTransform::detailDefinitionName() 0x00013639   Thumb Code    22  organizertodotimerangetransform.o(.text)
    OrganizerItemReminderTransform::modifyBaseSchemaDefinitions(QMap<QString, QMap<QString, QtMobility::QOrganizerItemDetailDefinition>>&) const 0x0001365d   Thumb Code   814  organizeritemremindertransform.o(.text)
    OrganizerItemReminderTransform::transformToDetailL(const CCalEntry&, QtMobility::QOrganizerItem*) 0x0001398b   Thumb Code   130  organizeritemremindertransform.o(.text)
    OrganizerItemReminderTransform::transformToEntryL(const QtMobility::QOrganizerItem&, CCalEntry*) 0x00013a0d   Thumb Code   228  organizeritemremindertransform.o(.text)
    OrganizerItemReminderTransform::detailDefinitionName() 0x00013af1   Thumb Code    16  organizeritemremindertransform.o(.text)
    __ARM_switch8                            0x00013b04   ARM Code      24  switch8.o(.text)
    __rt_switch8                             0x00013b04   ARM Code       0  switch8.o(.text)
    _E32Dll_Body                             0x00013b1c   ARM Code      76  uc_dll.o(.text)
    __aeabi_atexit                           0x00013b6c   ARM Code      40  ucppfini.o(.text)
    __cxa_atexit                             0x00013b94   ARM Code      64  ucppfini.o(.text)
    __cxa_finalize                           0x00013bd4   ARM Code      48  ucppfini.o(.text)
    run_static_dtors                         0x00013c04   ARM Code      16  ucppfini.o(.text)
    __DLL_Export_Table__                     0x00013c20   ARM Code       4  dllexp.o(.text)
    qvariant_cast_helper(const QVariant&, QVariant::Type, void*) 0x000152bd   Thumb Code    26  organizertodoprogresstransform.o(i._Z20qvariant_cast_helperRK8QVariantNS_4TypeEPv)
    qDebug()                                 0x000152dd   Thumb Code   108  organizeritemtransform.o(i._Z6qDebugv)
    QByteArray::~QByteArray()                0x00015365   Thumb Code    24  organizersymbianutils.o(i._ZN10QByteArrayD1Ev)
    QByteArray::~QByteArray__sub_object()    0x00015365   Thumb Code     0  organizersymbianutils.o(i._ZN10QByteArrayD1Ev)
    QtMobility::QOrganizerEvent::~QOrganizerEvent() 0x0001537d   Thumb Code    14  qorganizersymbian.o(i._ZN10QtMobility15QOrganizerEventD1Ev)
    QtMobility::QOrganizerEvent::~QOrganizerEvent__sub_object() 0x0001537d   Thumb Code     0  qorganizersymbian.o(i._ZN10QtMobility15QOrganizerEventD1Ev)
    QtMobility::QOrganizerTodoTime::setDueDateTime(const QDateTime&) 0x0001538d   Thumb Code    44  organizertodotimerangetransform.o(i._ZN10QtMobility18QOrganizerTodoTime14setDueDateTimeERK9QDateTime)
    QtMobility::QOrganizerTodoTime::setStartDateTime(const QDateTime&) 0x000153c9   Thumb Code    44  organizertodotimerangetransform.o(i._ZN10QtMobility18QOrganizerTodoTime16setStartDateTimeERK9QDateTime)
    QtMobility::QOrganizerTodoTime::QOrganizerTodoTime() 0x00015405   Thumb Code    22  organizertodotimerangetransform.o(i._ZN10QtMobility18QOrganizerTodoTimeC1Ev)
    QtMobility::QOrganizerTodoTime::QOrganizerTodoTime__sub_object() 0x00015405   Thumb Code     0  organizertodotimerangetransform.o(i._ZN10QtMobility18QOrganizerTodoTimeC1Ev)
    QtMobility::QOrganizerTodoTime::~QOrganizerTodoTime() 0x00015421   Thumb Code    14  organizeritemrecurrencetransform.o(i._ZN10QtMobility18QOrganizerTodoTimeD1Ev)
    QtMobility::QOrganizerTodoTime::~QOrganizerTodoTime__sub_object() 0x00015421   Thumb Code     0  organizeritemrecurrencetransform.o(i._ZN10QtMobility18QOrganizerTodoTimeD1Ev)
    QtMobility::QOrganizerEventTime::setEndDateTime(const QDateTime&) 0x00015431   Thumb Code    44  organizereventtimerangetransform.o(i._ZN10QtMobility19QOrganizerEventTime14setEndDateTimeERK9QDateTime)
    QtMobility::QOrganizerEventTime::setStartDateTime(const QDateTime&) 0x0001546d   Thumb Code    44  organizereventtimerangetransform.o(i._ZN10QtMobility19QOrganizerEventTime16setStartDateTimeERK9QDateTime)
    QtMobility::QOrganizerEventTime::QOrganizerEventTime() 0x000154a9   Thumb Code    22  organizereventtimerangetransform.o(i._ZN10QtMobility19QOrganizerEventTimeC1Ev)
    QtMobility::QOrganizerEventTime::QOrganizerEventTime__sub_object() 0x000154a9   Thumb Code     0  organizereventtimerangetransform.o(i._ZN10QtMobility19QOrganizerEventTimeC1Ev)
    QtMobility::QOrganizerEventTime::~QOrganizerEventTime() 0x000154c5   Thumb Code    14  organizereventtimerangetransform.o(i._ZN10QtMobility19QOrganizerEventTimeD1Ev)
    QtMobility::QOrganizerEventTime::~QOrganizerEventTime__sub_object() 0x000154c5   Thumb Code     0  organizereventtimerangetransform.o(i._ZN10QtMobility19QOrganizerEventTimeD1Ev)
    QtMobility::QOrganizerItemParent::setParentId(const QtMobility::QOrganizerItemId&) 0x000154d5   Thumb Code    64  qorganizersymbian.o(i._ZN10QtMobility20QOrganizerItemParent11setParentIdERKNS_16QOrganizerItemIdE)
    QtMobility::QOrganizerItemParent::setOriginalDate(const QDate&) 0x00015525   Thumb Code    44  qorganizersymbian.o(i._ZN10QtMobility20QOrganizerItemParent15setOriginalDateERK5QDate)
    QtMobility::QOrganizerItemParent::~QOrganizerItemParent() 0x0001555f   Thumb Code    14  qorganizersymbian.o(i._ZN10QtMobility20QOrganizerItemParentD1Ev)
    QtMobility::QOrganizerItemParent::~QOrganizerItemParent__sub_object() 0x0001555f   Thumb Code     0  qorganizersymbian.o(i._ZN10QtMobility20QOrganizerItemParentD1Ev)
    QtMobility::QOrganizerJournalTime::~QOrganizerJournalTime() 0x0001556d   Thumb Code    14  organizerjournaltimerangetransform.o(i._ZN10QtMobility21QOrganizerJournalTimeD1Ev)
    QtMobility::QOrganizerJournalTime::~QOrganizerJournalTime__sub_object() 0x0001556d   Thumb Code     0  organizerjournaltimerangetransform.o(i._ZN10QtMobility21QOrganizerJournalTimeD1Ev)
    QtMobility::QOrganizerItemEngineId::QOrganizerItemEngineId__sub_object() 0x0001557d   Thumb Code    18  qorganizersymbian.o(i._ZN10QtMobility22QOrganizerItemEngineIdC2Ev)
    QtMobility::QOrganizerItemEngineId::~QOrganizerItemEngineId__deallocating() 0x00015595   Thumb Code    18  qorganizersymbian.o(i._ZN10QtMobility22QOrganizerItemEngineIdD0Ev)
    QtMobility::QOrganizerItemEngineId::~QOrganizerItemEngineId() 0x000155a7   Thumb Code     0  qorganizersymbian.o(i._ZN10QtMobility22QOrganizerItemEngineIdD2Ev)
    QtMobility::QOrganizerItemEngineId::~QOrganizerItemEngineId__sub_object() 0x000155a7   Thumb Code     2  qorganizersymbian.o(i._ZN10QtMobility22QOrganizerItemEngineIdD2Ev)
    QtMobility::QOrganizerItemIdFilter::~QOrganizerItemIdFilter() 0x000155a9   Thumb Code    14  organizeritemrequestserviceprovider.o(i._ZN10QtMobility22QOrganizerItemIdFilterD1Ev)
    QtMobility::QOrganizerItemIdFilter::~QOrganizerItemIdFilter__sub_object() 0x000155a9   Thumb Code     0  organizeritemrequestserviceprovider.o(i._ZN10QtMobility22QOrganizerItemIdFilterD1Ev)
    QtMobility::QOrganizerItemLocation::~QOrganizerItemLocation() 0x000155b7   Thumb Code    14  organizeritemlocationtransform.o(i._ZN10QtMobility22QOrganizerItemLocationD1Ev)
    QtMobility::QOrganizerItemLocation::~QOrganizerItemLocation__sub_object() 0x000155b7   Thumb Code     0  organizeritemlocationtransform.o(i._ZN10QtMobility22QOrganizerItemLocationD1Ev)
    QtMobility::QOrganizerItemPriority::~QOrganizerItemPriority() 0x000155c5   Thumb Code    14  organizeritemprioritytransform.o(i._ZN10QtMobility22QOrganizerItemPriorityD1Ev)
    QtMobility::QOrganizerItemPriority::~QOrganizerItemPriority__sub_object() 0x000155c5   Thumb Code     0  organizeritemprioritytransform.o(i._ZN10QtMobility22QOrganizerItemPriorityD1Ev)
    QtMobility::QOrganizerItemReminder::~QOrganizerItemReminder() 0x000155d3   Thumb Code    14  organizeritemremindertransform.o(i._ZN10QtMobility22QOrganizerItemReminderD1Ev)
    QtMobility::QOrganizerItemReminder::~QOrganizerItemReminder__sub_object() 0x000155d3   Thumb Code     0  organizeritemremindertransform.o(i._ZN10QtMobility22QOrganizerItemReminderD1Ev)
    QtMobility::QOrganizerTodoProgress::setStatus(QtMobility::QOrganizerTodoProgress::Status) 0x000155e1   Thumb Code    44  organizertodoprogresstransform.o(i._ZN10QtMobility22QOrganizerTodoProgress9setStatusENS0_6StatusE)
    QtMobility::QOrganizerTodoProgress::~QOrganizerTodoProgress() 0x0001561b   Thumb Code    14  organizertodoprogresstransform.o(i._ZN10QtMobility22QOrganizerTodoProgressD1Ev)
    QtMobility::QOrganizerTodoProgress::~QOrganizerTodoProgress__sub_object() 0x0001561b   Thumb Code     0  organizertodoprogresstransform.o(i._ZN10QtMobility22QOrganizerTodoProgressD1Ev)
    QtMobility::QOrganizerItemTimestamp::~QOrganizerItemTimestamp() 0x00015629   Thumb Code    14  organizeritemtimestamptransform.o(i._ZN10QtMobility23QOrganizerItemTimestampD1Ev)
    QtMobility::QOrganizerItemTimestamp::~QOrganizerItemTimestamp__sub_object() 0x00015629   Thumb Code     0  organizeritemtimestamptransform.o(i._ZN10QtMobility23QOrganizerItemTimestampD1Ev)
    QtMobility::QOrganizerManagerEngine::~QOrganizerManagerEngine() 0x00015637   Thumb Code     0  qorganizersymbian.o(i._ZN10QtMobility23QOrganizerManagerEngineD2Ev)
    QtMobility::QOrganizerManagerEngine::~QOrganizerManagerEngine__sub_object() 0x00015637   Thumb Code    14  qorganizersymbian.o(i._ZN10QtMobility23QOrganizerManagerEngineD2Ev)
    QtMobility::QOrganizerItemRecurrence::~QOrganizerItemRecurrence() 0x00015645   Thumb Code    14  organizeritemrecurrencetransform.o(i._ZN10QtMobility24QOrganizerItemRecurrenceD1Ev)
    QtMobility::QOrganizerItemRecurrence::~QOrganizerItemRecurrence__sub_object() 0x00015645   Thumb Code     0  organizeritemrecurrencetransform.o(i._ZN10QtMobility24QOrganizerItemRecurrenceD1Ev)
    QtMobility::QOrganizerItemUnionFilter::~QOrganizerItemUnionFilter() 0x00015653   Thumb Code    14  qorganizersymbian.o(i._ZN10QtMobility25QOrganizerItemUnionFilterD1Ev)
    QtMobility::QOrganizerItemUnionFilter::~QOrganizerItemUnionFilter__sub_object() 0x00015653   Thumb Code     0  qorganizersymbian.o(i._ZN10QtMobility25QOrganizerItemUnionFilterD1Ev)
    QtMobility::QOrganizerCollectionEngineId::QOrganizerCollectionEngineId__sub_object() 0x00015661   Thumb Code    18  qorganizersymbian.o(i._ZN10QtMobility28QOrganizerCollectionEngineIdC2Ev)
    QtMobility::QOrganizerCollectionEngineId::~QOrganizerCollectionEngineId__deallocating() 0x00015679   Thumb Code    18  qorganizersymbian.o(i._ZN10QtMobility28QOrganizerCollectionEngineIdD0Ev)
    QtMobility::QOrganizerCollectionEngineId::~QOrganizerCollectionEngineId() 0x0001568b   Thumb Code     0  qorganizersymbian.o(i._ZN10QtMobility28QOrganizerCollectionEngineIdD2Ev)
    QtMobility::QOrganizerCollectionEngineId::~QOrganizerCollectionEngineId__sub_object() 0x0001568b   Thumb Code     2  qorganizersymbian.o(i._ZN10QtMobility28QOrganizerCollectionEngineIdD2Ev)
    QtMobility::QOrganizerItemCollectionFilter::~QOrganizerItemCollectionFilter() 0x0001568d   Thumb Code    14  qorganizersymbian.o(i._ZN10QtMobility30QOrganizerItemCollectionFilterD1Ev)
    QtMobility::QOrganizerItemCollectionFilter::~QOrganizerItemCollectionFilter__sub_object() 0x0001568d   Thumb Code     0  qorganizersymbian.o(i._ZN10QtMobility30QOrganizerItemCollectionFilterD1Ev)
    QStringList::~QStringList()              0x0001569b   Thumb Code    14  organizeritemrequestserviceprovider.o(i._ZN11QStringListD1Ev)
    QStringList::~QStringList__sub_object()  0x0001569b   Thumb Code     0  organizeritemrequestserviceprovider.o(i._ZN11QStringListD1Ev)
    CleanupStack::PopAndDestroy(void*)       0x000156a9   Thumb Code    16  qorganizersymbian.o(i._ZN12CleanupStack13PopAndDestroyEPv)
    QMapIterator<QtMobility::QOrganizerAbstractRequest*, COrganizerItemRequestsServiceProvider*>::~QMapIterator() 0x000156b9   Thumb Code    14  qorganizeritemrequestqueue.o(i._ZN12QMapIteratorIPN10QtMobility25QOrganizerAbstractRequestEP37COrganizerItemRequestsServiceProviderED1Ev)
    QMapIterator<QtMobility::QOrganizerAbstractRequest*, COrganizerItemRequestsServiceProvider*>::~QMapIterator__sub_object() 0x000156b9   Thumb Code     0  qorganizeritemrequestqueue.o(i._ZN12QMapIteratorIPN10QtMobility25QOrganizerAbstractRequestEP37COrganizerItemRequestsServiceProviderED1Ev)
    QBasicAtomicInt::ref()                   0x000156c7   Thumb Code    24  qorganizeritemrequestqueue.o(i._ZN15QBasicAtomicInt3refEv)
    QBasicAtomicInt::deref()                 0x000156df   Thumb Code    24  qorganizeritemrequestqueue.o(i._ZN15QBasicAtomicInt5derefEv)
    QtSharedPointer::ExternalRefCountData::destroy() 0x000156f7   Thumb Code     6  organizeritemrequestserviceprovider.o(i._ZN15QtSharedPointer20ExternalRefCountData7destroyEv)
    QtSharedPointer::ExternalRefCountData::~ExternalRefCountData__deallocating() 0x000156fd   Thumb Code    22  organizeritemrequestserviceprovider.o(i._ZN15QtSharedPointer20ExternalRefCountDataD0Ev)
    QtSharedPointer::ExternalRefCountData::~ExternalRefCountData() 0x00015715   Thumb Code    70  organizeritemrequestserviceprovider.o(i._ZN15QtSharedPointer20ExternalRefCountDataD1Ev)
    QtSharedPointer::ExternalRefCountData::~ExternalRefCountData__sub_object() 0x00015715   Thumb Code     0  organizeritemrequestserviceprovider.o(i._ZN15QtSharedPointer20ExternalRefCountDataD1Ev)
    QForeachContainer<QMap<QtMobility::QOrganizerCollectionId, OrganizerSymbianCollection>>::~QForeachContainer() 0x000157b1   Thumb Code    14  qorganizersymbian.o(i._ZN17QForeachContainerI4QMapIN10QtMobility22QOrganizerCollectionIdE26OrganizerSymbianCollectionEED1Ev)
    QForeachContainer<QMap<QtMobility::QOrganizerCollectionId, OrganizerSymbianCollection>>::~QForeachContainer__sub_object() 0x000157b1   Thumb Code     0  qorganizersymbian.o(i._ZN17QForeachContainerI4QMapIN10QtMobility22QOrganizerCollectionIdE26OrganizerSymbianCollectionEED1Ev)
    QForeachContainer<QSet<QDate>>::~QForeachContainer() 0x000157bf   Thumb Code    14  organizeritemrecurrencetransform.o(i._ZN17QForeachContainerI4QSetI5QDateEED1Ev)
    QForeachContainer<QSet<QDate>>::~QForeachContainer__sub_object() 0x000157bf   Thumb Code     0  organizeritemrecurrencetransform.o(i._ZN17QForeachContainerI4QSetI5QDateEED1Ev)
    QForeachContainer<QSet<QtMobility::QOrganizerRecurrenceRule::Month>>::~QForeachContainer() 0x000157cd   Thumb Code    14  organizeritemrecurrencetransform.o(i._ZN17QForeachContainerI4QSetIN10QtMobility24QOrganizerRecurrenceRule5MonthEEED1Ev)
    QForeachContainer<QSet<QtMobility::QOrganizerRecurrenceRule::Month>>::~QForeachContainer__sub_object() 0x000157cd   Thumb Code     0  organizeritemrecurrencetransform.o(i._ZN17QForeachContainerI4QSetIN10QtMobility24QOrganizerRecurrenceRule5MonthEEED1Ev)
    QForeachContainer<QSet<Qt::DayOfWeek>>::~QForeachContainer() 0x000157db   Thumb Code    14  organizeritemrecurrencetransform.o(i._ZN17QForeachContainerI4QSetIN2Qt9DayOfWeekEEED1Ev)
    QForeachContainer<QSet<Qt::DayOfWeek>>::~QForeachContainer__sub_object() 0x000157db   Thumb Code     0  organizeritemrecurrencetransform.o(i._ZN17QForeachContainerI4QSetIN2Qt9DayOfWeekEEED1Ev)
    QForeachContainer<QSet<int>>::~QForeachContainer() 0x000157e9   Thumb Code    14  organizeritemrecurrencetransform.o(i._ZN17QForeachContainerI4QSetIiEED1Ev)
    QForeachContainer<QSet<int>>::~QForeachContainer__sub_object() 0x000157e9   Thumb Code     0  organizeritemrecurrencetransform.o(i._ZN17QForeachContainerI4QSetIiEED1Ev)
    QForeachContainer<QList<OrganizerSymbianCollection>>::~QForeachContainer() 0x000157f7   Thumb Code    14  qorganizersymbian.o(i._ZN17QForeachContainerI5QListI26OrganizerSymbianCollectionEED1Ev)
    QForeachContainer<QList<OrganizerSymbianCollection>>::~QForeachContainer__sub_object() 0x000157f7   Thumb Code     0  qorganizersymbian.o(i._ZN17QForeachContainerI5QListI26OrganizerSymbianCollectionEED1Ev)
    QForeachContainer<QList<QString>>::~QForeachContainer() 0x00015805   Thumb Code    14  organizersymbianutils.o(i._ZN17QForeachContainerI5QListI7QStringEED1Ev)
    QForeachContainer<QList<QString>>::~QForeachContainer__sub_object() 0x00015805   Thumb Code     0  organizersymbianutils.o(i._ZN17QForeachContainerI5QListI7QStringEED1Ev)
    QForeachContainer<QList<QtMobility::QOrganizerItem>>::~QForeachContainer() 0x00015813   Thumb Code    14  qorganizersymbian.o(i._ZN17QForeachContainerI5QListIN10QtMobility14QOrganizerItemEEED1Ev)
    QForeachContainer<QList<QtMobility::QOrganizerItem>>::~QForeachContainer__sub_object() 0x00015813   Thumb Code     0  qorganizersymbian.o(i._ZN17QForeachContainerI5QListIN10QtMobility14QOrganizerItemEEED1Ev)
    QForeachContainer<QList<QtMobility::QOrganizerItemId>>::~QForeachContainer() 0x00015821   Thumb Code    14  qorganizersymbian.o(i._ZN17QForeachContainerI5QListIN10QtMobility16QOrganizerItemIdEEED1Ev)
    QForeachContainer<QList<QtMobility::QOrganizerItemId>>::~QForeachContainer__sub_object() 0x00015821   Thumb Code     0  qorganizersymbian.o(i._ZN17QForeachContainerI5QListIN10QtMobility16QOrganizerItemIdEEED1Ev)
    QForeachContainer<QList<QtMobility::QOrganizerItemFilter>>::~QForeachContainer() 0x0001582f   Thumb Code    14  qorganizersymbian.o(i._ZN17QForeachContainerI5QListIN10QtMobility20QOrganizerItemFilterEEED1Ev)
    QForeachContainer<QList<QtMobility::QOrganizerItemFilter>>::~QForeachContainer__sub_object() 0x0001582f   Thumb Code     0  qorganizersymbian.o(i._ZN17QForeachContainerI5QListIN10QtMobility20QOrganizerItemFilterEEED1Ev)
    QForeachContainer<QList<QtMobility::QOrganizerCollectionId>>::~QForeachContainer() 0x0001583d   Thumb Code    14  qorganizersymbian.o(i._ZN17QForeachContainerI5QListIN10QtMobility22QOrganizerCollectionIdEEED1Ev)
    QForeachContainer<QList<QtMobility::QOrganizerCollectionId>>::~QForeachContainer__sub_object() 0x0001583d   Thumb Code     0  qorganizersymbian.o(i._ZN17QForeachContainerI5QListIN10QtMobility22QOrganizerCollectionIdEEED1Ev)
    QForeachContainer<QList<OrganizerItemDetailTransform*>>::~QForeachContainer() 0x0001584b   Thumb Code    14  organizeritemtransform.o(i._ZN17QForeachContainerI5QListIP28OrganizerItemDetailTransformEED1Ev)
    QForeachContainer<QList<OrganizerItemDetailTransform*>>::~QForeachContainer__sub_object() 0x0001584b   Thumb Code     0  organizeritemtransform.o(i._ZN17QForeachContainerI5QListIP28OrganizerItemDetailTransformEED1Ev)
    QForeachContainer<QList<int>>::~QForeachContainer() 0x00015859   Thumb Code    14  organizeritemrequestserviceprovider.o(i._ZN17QForeachContainerI5QListIiEED1Ev)
    QForeachContainer<QList<int>>::~QForeachContainer__sub_object() 0x00015859   Thumb Code     0  organizeritemrequestserviceprovider.o(i._ZN17QForeachContainerI5QListIiEED1Ev)
    OrganizerItemGuidTransform::~OrganizerItemGuidTransform__deallocating() 0x00015867   Thumb Code    24  organizeritemguidtransform.o(i._ZN26OrganizerItemGuidTransformD0Ev)
    OrganizerItemGuidTransform::~OrganizerItemGuidTransform() 0x0001587f   Thumb Code    14  organizeritemguidtransform.o(i._ZN26OrganizerItemGuidTransformD1Ev)
    OrganizerItemGuidTransform::~OrganizerItemGuidTransform__sub_object() 0x0001587f   Thumb Code     0  organizeritemguidtransform.o(i._ZN26OrganizerItemGuidTransformD1Ev)
    OrganizerItemTypeTransform::~OrganizerItemTypeTransform__deallocating() 0x0001588d   Thumb Code    24  organizeritemtypetransform.o(i._ZN26OrganizerItemTypeTransformD0Ev)
    OrganizerItemTypeTransform::~OrganizerItemTypeTransform() 0x000158a5   Thumb Code    14  organizeritemtypetransform.o(i._ZN26OrganizerItemTypeTransformD1Ev)
    OrganizerItemTypeTransform::~OrganizerItemTypeTransform__sub_object() 0x000158a5   Thumb Code     0  organizeritemtypetransform.o(i._ZN26OrganizerItemTypeTransformD1Ev)
    OrganizerSymbianCollection::~OrganizerSymbianCollection() 0x000158b3   Thumb Code    14  qorganizersymbian.o(i._ZN26OrganizerSymbianCollectionD1Ev)
    OrganizerSymbianCollection::~OrganizerSymbianCollection__sub_object() 0x000158b3   Thumb Code     0  qorganizersymbian.o(i._ZN26OrganizerSymbianCollectionD1Ev)
    OrganizerSymbianCollection::operator =(const OrganizerSymbianCollection&) 0x000158c1   Thumb Code    72  qorganizersymbian.o(i._ZN26OrganizerSymbianCollectionaSERKS_)
    OrganizerTodoTimeTransform::~OrganizerTodoTimeTransform__deallocating() 0x00015909   Thumb Code    24  organizertodotimerangetransform.o(i._ZN26OrganizerTodoTimeTransformD0Ev)
    OrganizerTodoTimeTransform::~OrganizerTodoTimeTransform() 0x00015921   Thumb Code    14  organizertodotimerangetransform.o(i._ZN26OrganizerTodoTimeTransformD1Ev)
    OrganizerTodoTimeTransform::~OrganizerTodoTimeTransform__sub_object() 0x00015921   Thumb Code     0  organizertodotimerangetransform.o(i._ZN26OrganizerTodoTimeTransformD1Ev)
    OrganizerEventTimeTransform::~OrganizerEventTimeTransform__deallocating() 0x0001592f   Thumb Code    24  organizereventtimerangetransform.o(i._ZN27OrganizerEventTimeTransformD0Ev)
    OrganizerEventTimeTransform::~OrganizerEventTimeTransform() 0x00015947   Thumb Code    14  organizereventtimerangetransform.o(i._ZN27OrganizerEventTimeTransformD1Ev)
    OrganizerEventTimeTransform::~OrganizerEventTimeTransform__sub_object() 0x00015947   Thumb Code     0  organizereventtimerangetransform.o(i._ZN27OrganizerEventTimeTransformD1Ev)
    OrganizerItemParentTransform::~OrganizerItemParentTransform__deallocating() 0x00015955   Thumb Code    24  organizeritemparenttransform.o(i._ZN28OrganizerItemParentTransformD0Ev)
    OrganizerItemParentTransform::~OrganizerItemParentTransform() 0x0001596d   Thumb Code    14  organizeritemparenttransform.o(i._ZN28OrganizerItemParentTransformD1Ev)
    OrganizerItemParentTransform::~OrganizerItemParentTransform__sub_object() 0x0001596d   Thumb Code     0  organizeritemparenttransform.o(i._ZN28OrganizerItemParentTransformD1Ev)
    QOrganizerItemSymbianFactory::~QOrganizerItemSymbianFactory__deallocating() 0x0001597b   Thumb Code    22  moc_qorganizersymbian_p.o(i._ZN28QOrganizerItemSymbianFactoryD0Ev)
    QOrganizerItemSymbianFactory::~QOrganizerItemSymbianFactory() 0x00015991   Thumb Code    26  moc_qorganizersymbian_p.o(i._ZN28QOrganizerItemSymbianFactoryD1Ev)
    QOrganizerItemSymbianFactory::~QOrganizerItemSymbianFactory__sub_object() 0x00015991   Thumb Code     0  moc_qorganizersymbian_p.o(i._ZN28QOrganizerItemSymbianFactoryD1Ev)
    OrganizerJournalTimeTransform::~OrganizerJournalTimeTransform__deallocating() 0x000159b5   Thumb Code    24  organizerjournaltimerangetransform.o(i._ZN29OrganizerJournalTimeTransformD0Ev)
    OrganizerJournalTimeTransform::~OrganizerJournalTimeTransform() 0x000159cd   Thumb Code    14  organizerjournaltimerangetransform.o(i._ZN29OrganizerJournalTimeTransformD1Ev)
    OrganizerJournalTimeTransform::~OrganizerJournalTimeTransform__sub_object() 0x000159cd   Thumb Code     0  organizerjournaltimerangetransform.o(i._ZN29OrganizerJournalTimeTransformD1Ev)
    OrganizerItemLocationTransform::~OrganizerItemLocationTransform__deallocating() 0x000159db   Thumb Code    24  organizeritemlocationtransform.o(i._ZN30OrganizerItemLocationTransformD0Ev)
    OrganizerItemLocationTransform::~OrganizerItemLocationTransform() 0x000159f3   Thumb Code    14  organizeritemlocationtransform.o(i._ZN30OrganizerItemLocationTransformD1Ev)
    OrganizerItemLocationTransform::~OrganizerItemLocationTransform__sub_object() 0x000159f3   Thumb Code     0  organizeritemlocationtransform.o(i._ZN30OrganizerItemLocationTransformD1Ev)
    OrganizerItemPriorityTransform::~OrganizerItemPriorityTransform__deallocating() 0x00015a01   Thumb Code    24  organizeritemprioritytransform.o(i._ZN30OrganizerItemPriorityTransformD0Ev)
    OrganizerItemPriorityTransform::~OrganizerItemPriorityTransform() 0x00015a19   Thumb Code    14  organizeritemprioritytransform.o(i._ZN30OrganizerItemPriorityTransformD1Ev)
    OrganizerItemPriorityTransform::~OrganizerItemPriorityTransform__sub_object() 0x00015a19   Thumb Code     0  organizeritemprioritytransform.o(i._ZN30OrganizerItemPriorityTransformD1Ev)
    OrganizerItemReminderTransform::~OrganizerItemReminderTransform__deallocating() 0x00015a27   Thumb Code    24  organizeritemremindertransform.o(i._ZN30OrganizerItemReminderTransformD0Ev)
    OrganizerItemReminderTransform::~OrganizerItemReminderTransform() 0x00015a3f   Thumb Code    14  organizeritemremindertransform.o(i._ZN30OrganizerItemReminderTransformD1Ev)
    OrganizerItemReminderTransform::~OrganizerItemReminderTransform__sub_object() 0x00015a3f   Thumb Code     0  organizeritemremindertransform.o(i._ZN30OrganizerItemReminderTransformD1Ev)
    OrganizerTodoProgressTransform::~OrganizerTodoProgressTransform__deallocating() 0x00015a4d   Thumb Code    24  organizertodoprogresstransform.o(i._ZN30OrganizerTodoProgressTransformD0Ev)
    OrganizerTodoProgressTransform::~OrganizerTodoProgressTransform() 0x00015a65   Thumb Code    14  organizertodoprogresstransform.o(i._ZN30OrganizerTodoProgressTransformD1Ev)
    OrganizerTodoProgressTransform::~OrganizerTodoProgressTransform__sub_object() 0x00015a65   Thumb Code     0  organizertodoprogresstransform.o(i._ZN30OrganizerTodoProgressTransformD1Ev)
    OrganizerItemTimeStampTransform::~OrganizerItemTimeStampTransform__deallocating() 0x00015a73   Thumb Code    24  organizeritemtimestamptransform.o(i._ZN31OrganizerItemTimeStampTransformD0Ev)
    OrganizerItemTimeStampTransform::~OrganizerItemTimeStampTransform() 0x00015a8b   Thumb Code    14  organizeritemtimestamptransform.o(i._ZN31OrganizerItemTimeStampTransformD1Ev)
    OrganizerItemTimeStampTransform::~OrganizerItemTimeStampTransform__sub_object() 0x00015a8b   Thumb Code     0  organizeritemtimestamptransform.o(i._ZN31OrganizerItemTimeStampTransformD1Ev)
    OrganizerItemRecurrenceTransform::~OrganizerItemRecurrenceTransform__deallocating() 0x00015a99   Thumb Code    24  organizeritemrecurrencetransform.o(i._ZN32OrganizerItemRecurrenceTransformD0Ev)
    OrganizerItemRecurrenceTransform::~OrganizerItemRecurrenceTransform() 0x00015ab1   Thumb Code    14  organizeritemrecurrencetransform.o(i._ZN32OrganizerItemRecurrenceTransformD1Ev)
    OrganizerItemRecurrenceTransform::~OrganizerItemRecurrenceTransform__sub_object() 0x00015ab1   Thumb Code     0  organizeritemrecurrencetransform.o(i._ZN32OrganizerItemRecurrenceTransformD1Ev)
    OrganizerItemDescriptionTransform::~OrganizerItemDescriptionTransform__deallocating() 0x00015abf   Thumb Code    24  organizeritemdescriptiontransform.o(i._ZN33OrganizerItemDescriptionTransformD0Ev)
    OrganizerItemDescriptionTransform::~OrganizerItemDescriptionTransform() 0x00015ad7   Thumb Code    14  organizeritemdescriptiontransform.o(i._ZN33OrganizerItemDescriptionTransformD1Ev)
    OrganizerItemDescriptionTransform::~OrganizerItemDescriptionTransform__sub_object() 0x00015ad7   Thumb Code     0  organizeritemdescriptiontransform.o(i._ZN33OrganizerItemDescriptionTransformD1Ev)
    OrganizerItemDisplayLabelTransform::~OrganizerItemDisplayLabelTransform__deallocating() 0x00015ae5   Thumb Code    24  organizeritemdisplaylabeltransform.o(i._ZN34OrganizerItemDisplayLabelTransformD0Ev)
    OrganizerItemDisplayLabelTransform::~OrganizerItemDisplayLabelTransform() 0x00015afd   Thumb Code    14  organizeritemdisplaylabeltransform.o(i._ZN34OrganizerItemDisplayLabelTransformD1Ev)
    OrganizerItemDisplayLabelTransform::~OrganizerItemDisplayLabelTransform__sub_object() 0x00015afd   Thumb Code     0  organizeritemdisplaylabeltransform.o(i._ZN34OrganizerItemDisplayLabelTransformD1Ev)
    QSet<QDate>::~QSet()                     0x00015b0b   Thumb Code    14  organizeritemrecurrencetransform.o(i._ZN4QSetI5QDateED1Ev)
    QSet<QDate>::~QSet__sub_object()         0x00015b0b   Thumb Code     0  organizeritemrecurrencetransform.o(i._ZN4QSetI5QDateED1Ev)
    QSet<QtMobility::QOrganizerItemId>::~QSet() 0x00015b19   Thumb Code    14  qorganizersymbian.o(i._ZN4QSetIN10QtMobility16QOrganizerItemIdEED1Ev)
    QSet<QtMobility::QOrganizerItemId>::~QSet__sub_object() 0x00015b19   Thumb Code     0  qorganizersymbian.o(i._ZN4QSetIN10QtMobility16QOrganizerItemIdEED1Ev)
    QSet<QtMobility::QOrganizerCollectionId>::~QSet() 0x00015b27   Thumb Code    14  qorganizersymbian.o(i._ZN4QSetIN10QtMobility22QOrganizerCollectionIdEED1Ev)
    QSet<QtMobility::QOrganizerCollectionId>::~QSet__sub_object() 0x00015b27   Thumb Code     0  qorganizersymbian.o(i._ZN4QSetIN10QtMobility22QOrganizerCollectionIdEED1Ev)
    QSet<QtMobility::QOrganizerRecurrenceRule::Month>::~QSet() 0x00015b35   Thumb Code    14  organizeritemrecurrencetransform.o(i._ZN4QSetIN10QtMobility24QOrganizerRecurrenceRule5MonthEED1Ev)
    QSet<QtMobility::QOrganizerRecurrenceRule::Month>::~QSet__sub_object() 0x00015b35   Thumb Code     0  organizeritemrecurrencetransform.o(i._ZN4QSetIN10QtMobility24QOrganizerRecurrenceRule5MonthEED1Ev)
    QSet<QtMobility::QOrganizerRecurrenceRule>::~QSet() 0x00015b43   Thumb Code    14  organizeritemrecurrencetransform.o(i._ZN4QSetIN10QtMobility24QOrganizerRecurrenceRuleEED1Ev)
    QSet<QtMobility::QOrganizerRecurrenceRule>::~QSet__sub_object() 0x00015b43   Thumb Code     0  organizeritemrecurrencetransform.o(i._ZN4QSetIN10QtMobility24QOrganizerRecurrenceRuleEED1Ev)
    QSet<Qt::DayOfWeek>::~QSet()             0x00015b51   Thumb Code    14  organizeritemrecurrencetransform.o(i._ZN4QSetIN2Qt9DayOfWeekEED1Ev)
    QSet<Qt::DayOfWeek>::~QSet__sub_object() 0x00015b51   Thumb Code     0  organizeritemrecurrencetransform.o(i._ZN4QSetIN2Qt9DayOfWeekEED1Ev)
    QSet<int>::~QSet()                       0x00015b5f   Thumb Code    14  organizeritemrecurrencetransform.o(i._ZN4QSetIiED1Ev)
    QSet<int>::~QSet__sub_object()           0x00015b5f   Thumb Code     0  organizeritemrecurrencetransform.o(i._ZN4QSetIiED1Ev)
    CBase::operator new(unsigned)            0x00015b6d   Thumb Code    16  organizersymbiancollection.o(i._ZN5CBasenwEj)
    QColor::QColor(const QColor&)            0x00015b7d   Thumb Code    24  organizersymbianutils.o(i._ZN6QColorC1ERKS_)
    QColor::QColor__sub_object(const QColor&) 0x00015b7d   Thumb Code     0  organizersymbianutils.o(i._ZN6QColorC1ERKS_)
    QDebug::maybeSpace()                     0x00015b95   Thumb Code    24  qorganizersymbian.o(i._ZN6QDebug10maybeSpaceEv)
    QDebug::QDebug(const QDebug&)            0x00015bad   Thumb Code    16  organizeritemtransform.o(i._ZN6QDebugC1ERKS_)
    QDebug::QDebug__sub_object(const QDebug&) 0x00015bad   Thumb Code     0  organizeritemtransform.o(i._ZN6QDebugC1ERKS_)
    QDebug::~QDebug()                        0x00015bbd   Thumb Code   154  organizeritemtransform.o(i._ZN6QDebugD1Ev)
    QDebug::~QDebug__sub_object()            0x00015bbd   Thumb Code     0  organizeritemtransform.o(i._ZN6QDebugD1Ev)
    QDebug::operator <<(const char*)         0x00015c6b   Thumb Code    44  qorganizersymbian.o(i._ZN6QDebuglsEPKc)
    QDebug::operator <<(const QString&)      0x00015ca1   Thumb Code    38  organizeritemtransform.o(i._ZN6QDebuglsERK7QString)
    QDebug::operator <<(int)                 0x00015cc7   Thumb Code    22  organizeritemtransform.o(i._ZN6QDebuglsEi)
    QDebug::operator <<(unsigned long long)  0x00015cdd   Thumb Code    48  qorganizersymbian.o(i._ZN6QDebuglsEy)
    QString::QString(const char*)            0x00015d17   Thumb Code    22  organizeritemtransform.o(i._ZN7QStringC1EPKc)
    QString::QString__sub_object(const char*) 0x00015d17   Thumb Code     0  organizeritemtransform.o(i._ZN7QStringC1EPKc)
    QString::QString(const QLatin1String&)   0x00015d2d   Thumb Code    26  qorganizersymbian.o(i._ZN7QStringC1ERK13QLatin1String)
    QString::QString__sub_object(const QLatin1String&) 0x00015d2d   Thumb Code     0  qorganizersymbian.o(i._ZN7QStringC1ERK13QLatin1String)
    QString::QString(const QString&)         0x00015d47   Thumb Code    22  qorganizersymbian.o(i._ZN7QStringC1ERKS_)
    QString::QString__sub_object(const QString&) 0x00015d47   Thumb Code     0  qorganizersymbian.o(i._ZN7QStringC1ERKS_)
    QString::QString()                       0x00015d5d   Thumb Code    18  organizeritemtypetransform.o(i._ZN7QStringC1Ev)
    QString::QString__sub_object()           0x00015d5d   Thumb Code     0  organizeritemtypetransform.o(i._ZN7QStringC1Ev)
    QString::~QString()                      0x00015d75   Thumb Code    24  organizeritemrequestserviceprovider.o(i._ZN7QStringD1Ev)
    QString::~QString__sub_object()          0x00015d75   Thumb Code     0  organizeritemrequestserviceprovider.o(i._ZN7QStringD1Ev)
    QString::operator =(const QLatin1String&) 0x00015d8d   Thumb Code    42  organizeritemtypetransform.o(i._ZN7QStringaSERK13QLatin1String)
    QHashData::willGrow()                    0x00015dc1   Thumb Code    32  qorganizersymbian.o(i._ZN9QHashData8willGrowEv)
    QHashData::firstNode()                   0x00015de1   Thumb Code    36  qorganizersymbian.o(i._ZN9QHashData9firstNodeEv)
    QtMobility::QOrganizerTodoTime::dueDateTime() const 0x00015e05   Thumb Code    28  organizertodotimerangetransform.o(i._ZNK10QtMobility18QOrganizerTodoTime11dueDateTimeEv)
    QtMobility::QOrganizerTodoTime::startDateTime() const 0x00015e25   Thumb Code    28  organizertodotimerangetransform.o(i._ZNK10QtMobility18QOrganizerTodoTime13startDateTimeEv)
    QtMobility::QOrganizerEventTime::endDateTime() const 0x00015e45   Thumb Code    28  organizereventtimerangetransform.o(i._ZNK10QtMobility19QOrganizerEventTime11endDateTimeEv)
    QtMobility::QOrganizerEventTime::startDateTime() const 0x00015e65   Thumb Code    28  organizereventtimerangetransform.o(i._ZNK10QtMobility19QOrganizerEventTime13startDateTimeEv)
    QtMobility::QOrganizerItemParent::originalDate() const 0x00015e85   Thumb Code    48  qorganizersymbian.o(i._ZNK10QtMobility20QOrganizerItemParent12originalDateEv)
    QtMobility::QOrganizerItemParent::parentId() const 0x00015ec5   Thumb Code   152  qorganizersymbian.o(i._ZNK10QtMobility20QOrganizerItemParent8parentIdEv)
    QtMobility::QOrganizerItemLocation::label() const 0x00015f79   Thumb Code    28  organizeritemlocationtransform.o(i._ZNK10QtMobility22QOrganizerItemLocation5labelEv)
    QtMobility::QOrganizerItemReminder::secondsBeforeStart() const 0x00015f99   Thumb Code   118  organizeritemremindertransform.o(i._ZNK10QtMobility22QOrganizerItemReminder18secondsBeforeStartEv)
    QtMobility::QOrganizerTodoProgress::finishedDateTime() const 0x00016025   Thumb Code    28  organizertodoprogresstransform.o(i._ZNK10QtMobility22QOrganizerTodoProgress16finishedDateTimeEv)
    QtMobility::QOrganizerTodoProgress::status() const 0x00016045   Thumb Code   110  organizertodoprogresstransform.o(i._ZNK10QtMobility22QOrganizerTodoProgress6statusEv)
    QtMobility::QOrganizerItemTimestamp::created() const 0x000160c5   Thumb Code    28  organizeritemtimestamptransform.o(i._ZNK10QtMobility23QOrganizerItemTimestamp7createdEv)
    QBasicAtomicInt::operator ==(int) const  0x000160e5   Thumb Code    16  organizeritemrequestserviceprovider.o(i._ZNK15QBasicAtomicInteqEi)
    QBasicAtomicInt::operator !=(int) const  0x000160f5   Thumb Code    16  qorganizeritemrequestqueue.o(i._ZNK15QBasicAtomicIntneEi)
    TTime::operator !=(TTime) const          0x00016105   Thumb Code    28  organizereventtimerangetransform.o(i._ZNK5TTimeneES_)
    QString::isEmpty() const                 0x00016121   Thumb Code    18  qorganizersymbian.o(i._ZNK7QString7isEmptyEv)
    QString::operator !=(const QString&) const 0x00016133   Thumb Code    20  qorganizersymbian.o(i._ZNK7QStringneERKS_)
    QListData::at(int) const                 0x00016147   Thumb Code    20  organizeritemrequestserviceprovider.o(i._ZNK9QListData2atEi)
    QListData::end() const                   0x0001615b   Thumb Code    16  qorganizeritemrequestqueue.o(i._ZNK9QListData3endEv)
    QListData::size() const                  0x0001616b   Thumb Code    14  organizeritemrequestserviceprovider.o(i._ZNK9QListData4sizeEv)
    QListData::begin() const                 0x00016179   Thumb Code    16  qorganizeritemrequestqueue.o(i._ZNK9QListData5beginEv)
    thunk{-8} to QOrganizerItemSymbianFactory::~QOrganizerItemSymbianFactory__deallocating() 0x00016189   Thumb Code    14  moc_qorganizersymbian_p.o(i._ZThn8_N28QOrganizerItemSymbianFactoryD0Ev)
    thunk{-8} to QOrganizerItemSymbianFactory::~QOrganizerItemSymbianFactory() 0x00016197   Thumb Code    14  moc_qorganizersymbian_p.o(i._ZThn8_N28QOrganizerItemSymbianFactoryD1Ev)
    operator delete (void*, void*)           0x000161a5   Thumb Code     2  organizeritemrequestserviceprovider.o(i._ZdlPvS_)
    operator new(unsigned, void*)            0x000161a7   Thumb Code     6  qorganizeritemrequestqueue.o(i._ZnwjPv)
    qMapLessThanKey<QString>(const T1&, const T1&) 0x000161ad   Thumb Code    16  qorganizersymbian.o(t._Z15qMapLessThanKeyI7QStringEbRKT_S3_)
    qMapLessThanKey<QtMobility::QOrganizerCollectionId>(const T1&, const T1&) 0x000161bd   Thumb Code    16  qorganizersymbian.o(t._Z15qMapLessThanKeyIN10QtMobility22QOrganizerCollectionIdEEbRKT_S4_)
    qMapLessThanKey<QtMobility::QOrganizerAbstractRequest*>(const T1&, const T1&) 0x000161cd   Thumb Code    18  qorganizeritemrequestqueue.o(t._Z15qMapLessThanKeyIPN10QtMobility25QOrganizerAbstractRequestEEbRKT_S5_)
    qMapLessThanKey<int>(const T1&, const T1&) 0x000161df   Thumb Code    18  organizeritemrequestserviceprovider.o(t._Z15qMapLessThanKeyIiEbRKT_S2_)
    CleanupClosePushL<RArray<TDay>>(T1&)     0x000161f1   Thumb Code    24  organizeritemrecurrencetransform.o(t._Z17CleanupClosePushLI6RArrayI4TDayEEvRT_)
    CleanupClosePushL<RArray<TMonth>>(T1&)   0x0001620d   Thumb Code    24  organizeritemrecurrencetransform.o(t._Z17CleanupClosePushLI6RArrayI6TMonthEEvRT_)
    CleanupClosePushL<RArray<TCalTime>>(T1&) 0x00016229   Thumb Code    24  organizeritemrecurrencetransform.o(t._Z17CleanupClosePushLI6RArrayI8TCalTimeEEvRT_)
    CleanupClosePushL<RArray<TCalRRule::TDayOfMonth>>(T1&) 0x00016245   Thumb Code    24  organizeritemrecurrencetransform.o(t._Z17CleanupClosePushLI6RArrayIN9TCalRRule11TDayOfMonthEEEvRT_)
    CleanupClosePushL<RArray<int>>(T1&)      0x00016261   Thumb Code    24  organizeritemrecurrencetransform.o(t._Z17CleanupClosePushLI6RArrayIiEEvRT_)
    qRegisterMetaType<QtMobility::QOrganizerItemId>(const char*, T1*) 0x0001627d   Thumb Code    56  qorganizersymbian.o(t._Z17qRegisterMetaTypeIN10QtMobility16QOrganizerItemIdEEiPKcPT_)
    qForeachContainerNew<QMap<QtMobility::QOrganizerCollectionId, OrganizerSymbianCollection>>(const T1&) 0x000162bd   Thumb Code    92  qorganizersymbian.o(t._Z20qForeachContainerNewI4QMapIN10QtMobility22QOrganizerCollectionIdE26OrganizerSymbianCollectionEE17QForeachContainerIT_ERKS6_)
    qForeachContainerNew<QSet<Qt::DayOfWeek>>(const T1&) 0x0001631d   Thumb Code   152  organizeritemrecurrencetransform.o(t._Z20qForeachContainerNewI4QSetIN2Qt9DayOfWeekEEE17QForeachContainerIT_ERKS5_)
    qForeachContainerNew<QSet<int>>(const T1&) 0x000163bf   Thumb Code   152  organizeritemrecurrencetransform.o(t._Z20qForeachContainerNewI4QSetIiEE17QForeachContainerIT_ERKS3_)
    qForeachContainerNew<QList<OrganizerSymbianCollection>>(const T1&) 0x00016461   Thumb Code   102  qorganizersymbian.o(t._Z20qForeachContainerNewI5QListI26OrganizerSymbianCollectionEE17QForeachContainerIT_ERKS4_)
    qForeachContainerNew<QList<QString>>(const T1&) 0x000164d1   Thumb Code   126  organizeritemtransform.o(t._Z20qForeachContainerNewI5QListI7QStringEE17QForeachContainerIT_ERKS4_)
    qForeachContainerNew<QList<QtMobility::QOrganizerItem>>(const T1&) 0x00016559   Thumb Code   102  qorganizersymbian.o(t._Z20qForeachContainerNewI5QListIN10QtMobility14QOrganizerItemEEE17QForeachContainerIT_ERKS5_)
    qForeachContainerNew<QList<QtMobility::QOrganizerItemId>>(const T1&) 0x000165c9   Thumb Code   102  qorganizersymbian.o(t._Z20qForeachContainerNewI5QListIN10QtMobility16QOrganizerItemIdEEE17QForeachContainerIT_ERKS5_)
    qForeachContainerNew<QList<QtMobility::QOrganizerCollectionId>>(const T1&) 0x00016639   Thumb Code   126  qorganizersymbian.o(t._Z20qForeachContainerNewI5QListIN10QtMobility22QOrganizerCollectionIdEEE17QForeachContainerIT_ERKS5_)
    qForeachContainerNew<QList<OrganizerItemDetailTransform*>>(const T1&) 0x000166c1   Thumb Code   126  organizeritemtransform.o(t._Z20qForeachContainerNewI5QListIP28OrganizerItemDetailTransformEE17QForeachContainerIT_ERKS5_)
    qMetaTypeDeleteHelper<QtMobility::QOrganizerItemId>(T1*) 0x00016749   Thumb Code    22  qorganizersymbian.o(t._Z21qMetaTypeDeleteHelperIN10QtMobility16QOrganizerItemIdEEvPT_)
    qMetaTypeConstructHelper<QtMobility::QOrganizerItemId>(const T1*) 0x0001675f   Thumb Code    80  qorganizersymbian.o(t._Z24qMetaTypeConstructHelperIN10QtMobility16QOrganizerItemIdEEPvPKT_)
    CleanupResetAndDestroyPushL<RPointerArray<CCalInstance>>(T1&) 0x000167cd   Thumb Code    24  qorganizersymbian.o(t._Z27CleanupResetAndDestroyPushLI13RPointerArrayI12CCalInstanceEEvRT_)
    QtMobility::operator ==<(int)10>(const QString&, const QtMobility::QLatin1Constant<T1>&) 0x000167e9   Thumb Code    24  organizersymbianutils.o(t._ZN10QtMobilityeqILi10EEEbRK7QStringRKNS_15QLatin1ConstantIXT_EEE)
    QtMobility::operator ==<(int)11>(const QString&, const QtMobility::QLatin1Constant<T1>&) 0x00016801   Thumb Code    24  organizersymbianutils.o(t._ZN10QtMobilityeqILi11EEEbRK7QStringRKNS_15QLatin1ConstantIXT_EEE)
    QtMobility::operator ==<(int)13>(const QString&, const QtMobility::QLatin1Constant<T1>&) 0x00016819   Thumb Code    24  organizersymbianutils.o(t._ZN10QtMobilityeqILi13EEEbRK7QStringRKNS_15QLatin1ConstantIXT_EEE)
    QtMobility::operator ==<(int)15>(const QString&, const QtMobility::QLatin1Constant<T1>&) 0x00016831   Thumb Code    24  qorganizersymbian.o(t._ZN10QtMobilityeqILi15EEEbRK7QStringRKNS_15QLatin1ConstantIXT_EEE)
    QtMobility::operator ==<(int)16>(const QString&, const QtMobility::QLatin1Constant<T1>&) 0x00016849   Thumb Code    24  qorganizersymbian.o(t._ZN10QtMobilityeqILi16EEEbRK7QStringRKNS_15QLatin1ConstantIXT_EEE)
    QtMobility::operator ==<(int)17>(const QString&, const QtMobility::QLatin1Constant<T1>&) 0x00016861   Thumb Code    24  organizersymbianutils.o(t._ZN10QtMobilityeqILi17EEEbRK7QStringRKNS_15QLatin1ConstantIXT_EEE)
    QtMobility::operator ==<(int)23>(const QString&, const QtMobility::QLatin1Constant<T1>&) 0x00016879   Thumb Code    24  organizersymbianutils.o(t._ZN10QtMobilityeqILi23EEEbRK7QStringRKNS_15QLatin1ConstantIXT_EEE)
    QtMobility::operator ==<(int)5>(const QString&, const QtMobility::QLatin1Constant<T1>&) 0x00016891   Thumb Code    24  qorganizersymbian.o(t._ZN10QtMobilityeqILi5EEEbRK7QStringRKNS_15QLatin1ConstantIXT_EEE)
    QtMobility::operator ==<(int)5>(const QtMobility::QLatin1Constant<T1>&, const QString&) 0x000168a9   Thumb Code    24  organizeritemrecurrencetransform.o(t._ZN10QtMobilityeqILi5EEEbRKNS_15QLatin1ConstantIXT_EEERK7QString)
    QtMobility::operator ==<(int)6>(const QString&, const QtMobility::QLatin1Constant<T1>&) 0x000168c1   Thumb Code    24  qorganizersymbian.o(t._ZN10QtMobilityeqILi6EEEbRK7QStringRKNS_15QLatin1ConstantIXT_EEE)
    QtMobility::operator ==<(int)8>(const QString&, const QtMobility::QLatin1Constant<T1>&) 0x000168d9   Thumb Code    24  organizerjournaltimerangetransform.o(t._ZN10QtMobilityeqILi8EEEbRK7QStringRKNS_15QLatin1ConstantIXT_EEE)
    QtMobility::operator !=<(int)5>(const QtMobility::QLatin1Constant<T1>&, const QString&) 0x000168f1   Thumb Code    28  organizeritemdisplaylabeltransform.o(t._ZN10QtMobilityneILi5EEEbRKNS_15QLatin1ConstantIXT_EEERK7QString)
    CleanupClose<RPointerArray<CCalEntry>>::Close(void*) 0x0001690d   Thumb Code    14  qorganizersymbian.o(t._ZN12CleanupCloseI13RPointerArrayI9CCalEntryEE5CloseEPv)
    CleanupClose<RArray<TDay>>::Close(void*) 0x0001691b   Thumb Code    14  organizeritemrecurrencetransform.o(t._ZN12CleanupCloseI6RArrayI4TDayEE5CloseEPv)
    CleanupClose<RArray<TMonth>>::Close(void*) 0x00016929   Thumb Code    14  organizeritemrecurrencetransform.o(t._ZN12CleanupCloseI6RArrayI6TMonthEE5CloseEPv)
    CleanupClose<RArray<TCalTime>>::Close(void*) 0x00016937   Thumb Code    14  organizeritemrecurrencetransform.o(t._ZN12CleanupCloseI6RArrayI8TCalTimeEE5CloseEPv)
    CleanupClose<RArray<TCalRRule::TDayOfMonth>>::Close(void*) 0x00016945   Thumb Code    14  organizeritemrecurrencetransform.o(t._ZN12CleanupCloseI6RArrayIN9TCalRRule11TDayOfMonthEEE5CloseEPv)
    CleanupClose<RArray<int>>::Close(void*)  0x00016953   Thumb Code    14  organizeritemrecurrencetransform.o(t._ZN12CleanupCloseI6RArrayIiEE5CloseEPv)
    CleanupClose<RArray<unsigned long>>::Close(void*) 0x00016961   Thumb Code    14  qorganizersymbian.o(t._ZN12CleanupCloseI6RArrayImEE5CloseEPv)
    QMetaTypeId2<QtMobility::QOrganizerItemId>::qt_metatype_id() 0x00016971   Thumb Code    54  qorganizersymbian.o(t._ZN12QMetaTypeId2IN10QtMobility16QOrganizerItemIdEE14qt_metatype_idEv)
    QWeakPointer<QtMobility::QOrganizerAbstractRequest>::~QWeakPointer() 0x000169d5   Thumb Code    42  organizeritemrequestserviceprovider.o(t._ZN12QWeakPointerIN10QtMobility25QOrganizerAbstractRequestEED1Ev)
    QWeakPointer<QtMobility::QOrganizerAbstractRequest>::~QWeakPointer__sub_object() 0x000169d5   Thumb Code     0  organizeritemrequestserviceprovider.o(t._ZN12QWeakPointerIN10QtMobility25QOrganizerAbstractRequestEED1Ev)
    TAlignedBuf8<(int)4>::TAlignedBuf8(int)  0x000169ff   Thumb Code    20  organizersymbianutils.o(t._ZN12TAlignedBuf8ILi4EEC1Ei)
    TAlignedBuf8<(int)4>::TAlignedBuf8__sub_object(int) 0x000169ff   Thumb Code     0  organizersymbianutils.o(t._ZN12TAlignedBuf8ILi4EEC1Ei)
    RPointerArray<CCalInstance>::ResetAndDestroy() 0x00016a13   Thumb Code    64  qorganizersymbian.o(t._ZN13RPointerArrayI12CCalInstanceE15ResetAndDestroyEv)
    RPointerArray<CCalEntry>::ResetAndDestroy() 0x00016a53   Thumb Code    64  qorganizersymbian.o(t._ZN13RPointerArrayI9CCalEntryE15ResetAndDestroyEv)
    QHashDummyNode<QtMobility::QOrganizerItemId, QHashDummyValue>::QHashDummyNode(const QtMobility::QOrganizerItemId&) 0x00016a93   Thumb Code    24  qorganizersymbian.o(t._ZN14QHashDummyNodeIN10QtMobility16QOrganizerItemIdE15QHashDummyValueEC1ERKS1_)
    QHashDummyNode<QtMobility::QOrganizerItemId, QHashDummyValue>::QHashDummyNode__sub_object(const QtMobility::QOrganizerItemId&) 0x00016a93   Thumb Code     0  qorganizersymbian.o(t._ZN14QHashDummyNodeIN10QtMobility16QOrganizerItemIdE15QHashDummyValueEC1ERKS1_)
    QHashDummyNode<QtMobility::QOrganizerCollectionId, QHashDummyValue>::QHashDummyNode(const QtMobility::QOrganizerCollectionId&) 0x00016aab   Thumb Code    24  qorganizersymbian.o(t._ZN14QHashDummyNodeIN10QtMobility22QOrganizerCollectionIdE15QHashDummyValueEC1ERKS1_)
    QHashDummyNode<QtMobility::QOrganizerCollectionId, QHashDummyValue>::QHashDummyNode__sub_object(const QtMobility::QOrganizerCollectionId&) 0x00016aab   Thumb Code     0  qorganizersymbian.o(t._ZN14QHashDummyNodeIN10QtMobility22QOrganizerCollectionIdE15QHashDummyValueEC1ERKS1_)
    QHashDummyNode<QtMobility::QOrganizerRecurrenceRule, QHashDummyValue>::QHashDummyNode(const QtMobility::QOrganizerRecurrenceRule&) 0x00016ac3   Thumb Code    24  organizeritemrecurrencetransform.o(t._ZN14QHashDummyNodeIN10QtMobility24QOrganizerRecurrenceRuleE15QHashDummyValueEC1ERKS1_)
    QHashDummyNode<QtMobility::QOrganizerRecurrenceRule, QHashDummyValue>::QHashDummyNode__sub_object(const QtMobility::QOrganizerRecurrenceRule&) 0x00016ac3   Thumb Code     0  organizeritemrecurrencetransform.o(t._ZN14QHashDummyNodeIN10QtMobility24QOrganizerRecurrenceRuleE15QHashDummyValueEC1ERKS1_)
    OrganizerSymbianUtils::getCalInfoPropertyL<TTime>(const CCalCalendarInfo&, TCalenPropertyUid) 0x00016adb   Thumb Code   102  qorganizersymbian.o(t._ZN21OrganizerSymbianUtils19getCalInfoPropertyLI5TTimeEET_RK16CCalCalendarInfo17TCalenPropertyUid)
    OrganizerSymbianUtils::getCalInfoPropertyL<int>(const CCalCalendarInfo&, TCalenPropertyUid) 0x00016b45   Thumb Code    84  qorganizersymbian.o(t._ZN21OrganizerSymbianUtils19getCalInfoPropertyLIiEET_RK16CCalCalendarInfo17TCalenPropertyUid)
    OrganizerSymbianUtils::setCalInfoPropertyL<TTime>(CCalCalendarInfo*, TCalenPropertyUid, const T1&) 0x00016b99   Thumb Code    58  qorganizersymbian.o(t._ZN21OrganizerSymbianUtils19setCalInfoPropertyLI5TTimeEEvP16CCalCalendarInfo17TCalenPropertyUidRKT_)
    OrganizerSymbianUtils::setCalInfoPropertyL<TTrue>(CCalCalendarInfo*, TCalenPropertyUid, const T1&) 0x00016bd3   Thumb Code    58  qorganizersymbian.o(t._ZN21OrganizerSymbianUtils19setCalInfoPropertyLI5TTrueEEvP16CCalCalendarInfo17TCalenPropertyUidRKT_)
    OrganizerSymbianUtils::setCalInfoPropertyL<TFalse>(CCalCalendarInfo*, TCalenPropertyUid, const T1&) 0x00016c0d   Thumb Code    58  qorganizersymbian.o(t._ZN21OrganizerSymbianUtils19setCalInfoPropertyLI6TFalseEEvP16CCalCalendarInfo17TCalenPropertyUidRKT_)
    OrganizerSymbianUtils::setCalInfoPropertyL<int>(CCalCalendarInfo*, TCalenPropertyUid, const T1&) 0x00016c47   Thumb Code    64  organizersymbianutils.o(t._ZN21OrganizerSymbianUtils19setCalInfoPropertyLIiEEvP16CCalCalendarInfo17TCalenPropertyUidRKT_)
    OrganizerSymbianUtils::setCalInfoPropertyL<unsigned>(CCalCalendarInfo*, TCalenPropertyUid, const T1&) 0x00016c87   Thumb Code    64  organizersymbianutils.o(t._ZN21OrganizerSymbianUtils19setCalInfoPropertyLIjEEvP16CCalCalendarInfo17TCalenPropertyUidRKT_)
    CleanupResetAndDestroy<RPointerArray<CCalInstance>>::ResetAndDestroy(void*) 0x00016cc7   Thumb Code    12  qorganizersymbian.o(t._ZN22CleanupResetAndDestroyI13RPointerArrayI12CCalInstanceEE15ResetAndDestroyEPv)
    CleanupResetAndDestroy<RPointerArray<CCalEntry>>::ResetAndDestroy(void*) 0x00016cd3   Thumb Code    12  qorganizersymbian.o(t._ZN22CleanupResetAndDestroyI13RPointerArrayI9CCalEntryEE15ResetAndDestroyEPv)
    QExplicitlySharedDataPointer<OrganizerSymbianCollectionPrivate>::QExplicitlySharedDataPointer(OrganizerSymbianCollectionPrivate*) 0x00016cdf   Thumb Code    26  organizersymbiancollection.o(t._ZN28QExplicitlySharedDataPointerI33OrganizerSymbianCollectionPrivateEC1EPS0_)
    QExplicitlySharedDataPointer<OrganizerSymbianCollectionPrivate>::QExplicitlySharedDataPointer__sub_object(OrganizerSymbianCollectionPrivate*) 0x00016cdf   Thumb Code     0  organizersymbiancollection.o(t._ZN28QExplicitlySharedDataPointerI33OrganizerSymbianCollectionPrivateEC1EPS0_)
    QExplicitlySharedDataPointer<OrganizerSymbianCollectionPrivate>::~QExplicitlySharedDataPointer() 0x00016cf9   Thumb Code    44  qorganizersymbian.o(t._ZN28QExplicitlySharedDataPointerI33OrganizerSymbianCollectionPrivateED1Ev)
    QExplicitlySharedDataPointer<OrganizerSymbianCollectionPrivate>::~QExplicitlySharedDataPointer__sub_object() 0x00016cf9   Thumb Code     0  qorganizersymbian.o(t._ZN28QExplicitlySharedDataPointerI33OrganizerSymbianCollectionPrivateED1Ev)
    QExplicitlySharedDataPointer<OrganizerSymbianCollectionPrivate>::operator =(OrganizerSymbianCollectionPrivate*) 0x00016d25   Thumb Code    62  organizersymbiancollection.o(t._ZN28QExplicitlySharedDataPointerI33OrganizerSymbianCollectionPrivateEaSEPS0_)
    QMap<QString, QVariant>::node_create(QMapData*, QMapData::Node**, const QString&, const QVariant&) 0x00016d63   Thumb Code   142  organizersymbianutils.o(t._ZN4QMapI7QString8QVariantE11node_createEP8QMapDataPPNS3_4NodeERKS0_RKS1_)
    QMap<QString, QVariant>::detach_helper() 0x00016e17   Thumb Code   148  organizersymbianutils.o(t._ZN4QMapI7QString8QVariantE13detach_helperEv)
    QMap<QString, QVariant>::detach()        0x00016eb3   Thumb Code    28  organizersymbianutils.o(t._ZN4QMapI7QString8QVariantE6detachEv)
    QMap<QString, QVariant>::insert(const QString&, const QVariant&) 0x00016ecf   Thumb Code    82  organizersymbianutils.o(t._ZN4QMapI7QString8QVariantE6insertERKS0_RKS1_)
    QMap<QString, QVariant>::remove(const QString&) 0x00016f21   Thumb Code   266  organizersymbianutils.o(t._ZN4QMapI7QString8QVariantE6removeERKS0_)
    QMap<QString, QVariant>::freeData(QMapData*) 0x0001702b   Thumb Code    64  qorganizersymbian.o(t._ZN4QMapI7QString8QVariantE8freeDataEP8QMapData)
    QMap<QString, QVariant>::~QMap()         0x0001706b   Thumb Code    38  qorganizersymbian.o(t._ZN4QMapI7QString8QVariantED1Ev)
    QMap<QString, QVariant>::~QMap__sub_object() 0x0001706b   Thumb Code     0  qorganizersymbian.o(t._ZN4QMapI7QString8QVariantED1Ev)
    QMap<QString, QtMobility::QOrganizerItemDetailDefinition>::node_create(QMapData*, QMapData::Node**, const QString&, const QtMobility::QOrganizerItemDetailDefinition&) 0x00017091   Thumb Code   140  organizeritemrequestserviceprovider.o(t._ZN4QMapI7QStringN10QtMobility30QOrganizerItemDetailDefinitionEE11node_createEP8QMapDataPPNS4_4NodeERKS0_RKS2_)
    QMap<QString, QtMobility::QOrganizerItemDetailDefinition>::detach_helper() 0x00017143   Thumb Code   146  organizeritemrequestserviceprovider.o(t._ZN4QMapI7QStringN10QtMobility30QOrganizerItemDetailDefinitionEE13detach_helperEv)
    QMap<QString, QtMobility::QOrganizerItemDetailDefinition>::detach() 0x000171dd   Thumb Code    28  organizeritemtransform.o(t._ZN4QMapI7QStringN10QtMobility30QOrganizerItemDetailDefinitionEE6detachEv)
    QMap<QString, QtMobility::QOrganizerItemDetailDefinition>::remove(const QString&) 0x000171f9   Thumb Code   264  organizeritemtransform.o(t._ZN4QMapI7QStringN10QtMobility30QOrganizerItemDetailDefinitionEE6removeERKS0_)
    QMap<QString, QtMobility::QOrganizerItemDetailDefinition>::freeData(QMapData*) 0x00017301   Thumb Code    62  organizeritemrequestserviceprovider.o(t._ZN4QMapI7QStringN10QtMobility30QOrganizerItemDetailDefinitionEE8freeDataEP8QMapData)
    QMap<QString, QtMobility::QOrganizerItemDetailDefinition>::QMap(const QMap<QString, QtMobility::QOrganizerItemDetailDefinition>&) 0x0001733f   Thumb Code    40  organizeritemtransform.o(t._ZN4QMapI7QStringN10QtMobility30QOrganizerItemDetailDefinitionEEC1ERKS3_)
    QMap<QString, QtMobility::QOrganizerItemDetailDefinition>::QMap__sub_object(const QMap<QString, QtMobility::QOrganizerItemDetailDefinition>&) 0x0001733f   Thumb Code     0  organizeritemtransform.o(t._ZN4QMapI7QStringN10QtMobility30QOrganizerItemDetailDefinitionEEC1ERKS3_)
    QMap<QString, QtMobility::QOrganizerItemDetailDefinition>::QMap() 0x00017369   Thumb Code    22  qorganizersymbian.o(t._ZN4QMapI7QStringN10QtMobility30QOrganizerItemDetailDefinitionEEC1Ev)
    QMap<QString, QtMobility::QOrganizerItemDetailDefinition>::QMap__sub_object() 0x00017369   Thumb Code     0  qorganizersymbian.o(t._ZN4QMapI7QStringN10QtMobility30QOrganizerItemDetailDefinitionEEC1Ev)
    QMap<QString, QtMobility::QOrganizerItemDetailDefinition>::~QMap() 0x00017385   Thumb Code    38  organizeritemrequestserviceprovider.o(t._ZN4QMapI7QStringN10QtMobility30QOrganizerItemDetailDefinitionEED1Ev)
    QMap<QString, QtMobility::QOrganizerItemDetailDefinition>::~QMap__sub_object() 0x00017385   Thumb Code     0  organizeritemrequestserviceprovider.o(t._ZN4QMapI7QStringN10QtMobility30QOrganizerItemDetailDefinitionEED1Ev)
    QMap<QString, QtMobility::QOrganizerItemDetailFieldDefinition>::node_create(QMapData*, QMapData::Node**, const QString&, const QtMobility::QOrganizerItemDetailFieldDefinition&) 0x000173ab   Thumb Code   140  organizeritemlocationtransform.o(t._ZN4QMapI7QStringN10QtMobility35QOrganizerItemDetailFieldDefinitionEE11node_createEP8QMapDataPPNS4_4NodeERKS0_RKS2_)
    QMap<QString, QtMobility::QOrganizerItemDetailFieldDefinition>::detach_helper() 0x0001745d   Thumb Code   146  organizeritemlocationtransform.o(t._ZN4QMapI7QStringN10QtMobility35QOrganizerItemDetailFieldDefinitionEE13detach_helperEv)
    QMap<QString, QtMobility::QOrganizerItemDetailFieldDefinition>::insert(const QString&, const QtMobility::QOrganizerItemDetailFieldDefinition&) 0x000174f7   Thumb Code   100  organizeritemlocationtransform.o(t._ZN4QMapI7QStringN10QtMobility35QOrganizerItemDetailFieldDefinitionEE6insertERKS0_RKS2_)
    QMap<QString, QtMobility::QOrganizerItemDetailFieldDefinition>::freeData(QMapData*) 0x0001755b   Thumb Code    62  organizeritemtransform.o(t._ZN4QMapI7QStringN10QtMobility35QOrganizerItemDetailFieldDefinitionEE8freeDataEP8QMapData)
    QMap<QString, QtMobility::QOrganizerItemDetailFieldDefinition>::~QMap() 0x00017599   Thumb Code    38  organizeritemtransform.o(t._ZN4QMapI7QStringN10QtMobility35QOrganizerItemDetailFieldDefinitionEED1Ev)
    QMap<QString, QtMobility::QOrganizerItemDetailFieldDefinition>::~QMap__sub_object() 0x00017599   Thumb Code     0  organizeritemtransform.o(t._ZN4QMapI7QStringN10QtMobility35QOrganizerItemDetailFieldDefinitionEED1Ev)
    QMap<QString, QMap<QString, QtMobility::QOrganizerItemDetailDefinition>>::node_create(QMapData*, QMapData::Node**, const QString&, const QMap<QString, QtMobility::QOrganizerItemDetailDefinition>&) 0x000175bf   Thumb Code   140  qorganizersymbian.o(t._ZN4QMapI7QStringS_IS0_N10QtMobility30QOrganizerItemDetailDefinitionEEE11node_createEP8QMapDataPPNS5_4NodeERKS0_RKS3_)
    QMap<QString, QMap<QString, QtMobility::QOrganizerItemDetailDefinition>>::detach_helper() 0x00017671   Thumb Code   146  qorganizersymbian.o(t._ZN4QMapI7QStringS_IS0_N10QtMobility30QOrganizerItemDetailDefinitionEEE13detach_helperEv)
    QMap<QString, QMap<QString, QtMobility::QOrganizerItemDetailDefinition>>::remove(const QString&) 0x0001770b   Thumb Code   286  organizeritemtypetransform.o(t._ZN4QMapI7QStringS_IS0_N10QtMobility30QOrganizerItemDetailDefinitionEEE6removeERKS0_)
    QMap<QString, QMap<QString, QtMobility::QOrganizerItemDetailDefinition>>::freeData(QMapData*) 0x00017829   Thumb Code    62  organizeritemtransform.o(t._ZN4QMapI7QStringS_IS0_N10QtMobility30QOrganizerItemDetailDefinitionEEE8freeDataEP8QMapData)
    QMap<QString, QMap<QString, QtMobility::QOrganizerItemDetailDefinition>>::~QMap() 0x00017867   Thumb Code    38  qorganizersymbian.o(t._ZN4QMapI7QStringS_IS0_N10QtMobility30QOrganizerItemDetailDefinitionEEED1Ev)
    QMap<QString, QMap<QString, QtMobility::QOrganizerItemDetailDefinition>>::~QMap__sub_object() 0x00017867   Thumb Code     0  qorganizersymbian.o(t._ZN4QMapI7QStringS_IS0_N10QtMobility30QOrganizerItemDetailDefinitionEEED1Ev)
    QMap<QString, QMap<QString, QtMobility::QOrganizerItemDetailDefinition>>::operator =(const QMap<QString, QMap<QString, QtMobility::QOrganizerItemDetailDefinition>>&) 0x0001788d   Thumb Code    70  qorganizersymbian.o(t._ZN4QMapI7QStringS_IS0_N10QtMobility30QOrganizerItemDetailDefinitionEEEaSERKS4_)
    QMap<QString, QMap<QString, QtMobility::QOrganizerItemDetailDefinition>>::operator [](const QString&) 0x000178d3   Thumb Code   100  organizeritemremindertransform.o(t._ZN4QMapI7QStringS_IS0_N10QtMobility30QOrganizerItemDetailDefinitionEEEixERKS0_)
    QMap<QtMobility::QOrganizerCollectionId, OrganizerSymbianCollection>::node_create(QMapData*, QMapData::Node**, const QtMobility::QOrganizerCollectionId&, const OrganizerSymbianCollection&) 0x00017941   Thumb Code   140  qorganizersymbian.o(t._ZN4QMapIN10QtMobility22QOrganizerCollectionIdE26OrganizerSymbianCollectionE11node_createEP8QMapDataPPNS4_4NodeERKS1_RKS2_)
    QMap<QtMobility::QOrganizerCollectionId, OrganizerSymbianCollection>::detach_helper() 0x000179f3   Thumb Code   146  qorganizersymbian.o(t._ZN4QMapIN10QtMobility22QOrganizerCollectionIdE26OrganizerSymbianCollectionE13detach_helperEv)
    QMap<QtMobility::QOrganizerCollectionId, OrganizerSymbianCollection>::detach() 0x00017a8d   Thumb Code    28  qorganizersymbian.o(t._ZN4QMapIN10QtMobility22QOrganizerCollectionIdE26OrganizerSymbianCollectionE6detachEv)
    QMap<QtMobility::QOrganizerCollectionId, OrganizerSymbianCollection>::insert(const QtMobility::QOrganizerCollectionId&, const OrganizerSymbianCollection&) 0x00017aa9   Thumb Code    80  qorganizersymbian.o(t._ZN4QMapIN10QtMobility22QOrganizerCollectionIdE26OrganizerSymbianCollectionE6insertERKS1_RKS2_)
    QMap<QtMobility::QOrganizerCollectionId, OrganizerSymbianCollection>::remove(const QtMobility::QOrganizerCollectionId&) 0x00017af9   Thumb Code   264  qorganizersymbian.o(t._ZN4QMapIN10QtMobility22QOrganizerCollectionIdE26OrganizerSymbianCollectionE6removeERKS1_)
    QMap<QtMobility::QOrganizerCollectionId, OrganizerSymbianCollection>::freeData(QMapData*) 0x00017c01   Thumb Code    62  qorganizersymbian.o(t._ZN4QMapIN10QtMobility22QOrganizerCollectionIdE26OrganizerSymbianCollectionE8freeDataEP8QMapData)
    QMap<QtMobility::QOrganizerCollectionId, OrganizerSymbianCollection>::~QMap() 0x00017c3f   Thumb Code    38  qorganizersymbian.o(t._ZN4QMapIN10QtMobility22QOrganizerCollectionIdE26OrganizerSymbianCollectionED1Ev)
    QMap<QtMobility::QOrganizerCollectionId, OrganizerSymbianCollection>::~QMap__sub_object() 0x00017c3f   Thumb Code     0  qorganizersymbian.o(t._ZN4QMapIN10QtMobility22QOrganizerCollectionIdE26OrganizerSymbianCollectionED1Ev)
    QMap<QtMobility::QOrganizerCollectionId, OrganizerSymbianCollection>::operator [](const QtMobility::QOrganizerCollectionId&) 0x00017c65   Thumb Code    82  qorganizersymbian.o(t._ZN4QMapIN10QtMobility22QOrganizerCollectionIdE26OrganizerSymbianCollectionEixERKS1_)
    QMap<QtMobility::QOrganizerAbstractRequest*, COrganizerItemRequestsServiceProvider*>::node_create(QMapData*, QMapData::Node**, QtMobility::QOrganizerAbstractRequest*const &, COrganizerItemRequestsServiceProvider*const &) 0x00017cc1   Thumb Code    82  qorganizeritemrequestqueue.o(t._ZN4QMapIPN10QtMobility25QOrganizerAbstractRequestEP37COrganizerItemRequestsServiceProviderE11node_createEP8QMapDataPPNS6_4NodeERKS2_RKS4_)
    QMap<QtMobility::QOrganizerAbstractRequest*, COrganizerItemRequestsServiceProvider*>::detach_helper() 0x00017d17   Thumb Code   146  qorganizeritemrequestqueue.o(t._ZN4QMapIPN10QtMobility25QOrganizerAbstractRequestEP37COrganizerItemRequestsServiceProviderE13detach_helperEv)
    QMap<QtMobility::QOrganizerAbstractRequest*, COrganizerItemRequestsServiceProvider*>::detach() 0x00017db1   Thumb Code    28  qorganizeritemrequestqueue.o(t._ZN4QMapIPN10QtMobility25QOrganizerAbstractRequestEP37COrganizerItemRequestsServiceProviderE6detachEv)
    QMap<QtMobility::QOrganizerAbstractRequest*, COrganizerItemRequestsServiceProvider*>::remove(QtMobility::QOrganizerAbstractRequest*const &) 0x00017dcd   Thumb Code   246  qorganizeritemrequestqueue.o(t._ZN4QMapIPN10QtMobility25QOrganizerAbstractRequestEP37COrganizerItemRequestsServiceProviderE6removeERKS2_)
    QMap<QtMobility::QOrganizerAbstractRequest*, COrganizerItemRequestsServiceProvider*>::freeData(QMapData*) 0x00017ec3   Thumb Code    24  qorganizeritemrequestqueue.o(t._ZN4QMapIPN10QtMobility25QOrganizerAbstractRequestEP37COrganizerItemRequestsServiceProviderE8freeDataEP8QMapData)
    QMap<QtMobility::QOrganizerAbstractRequest*, COrganizerItemRequestsServiceProvider*>::QMap() 0x00017edd   Thumb Code    22  qorganizeritemrequestqueue.o(t._ZN4QMapIPN10QtMobility25QOrganizerAbstractRequestEP37COrganizerItemRequestsServiceProviderEC1Ev)
    QMap<QtMobility::QOrganizerAbstractRequest*, COrganizerItemRequestsServiceProvider*>::QMap__sub_object() 0x00017edd   Thumb Code     0  qorganizeritemrequestqueue.o(t._ZN4QMapIPN10QtMobility25QOrganizerAbstractRequestEP37COrganizerItemRequestsServiceProviderEC1Ev)
    QMap<QtMobility::QOrganizerAbstractRequest*, COrganizerItemRequestsServiceProvider*>::~QMap() 0x00017ef9   Thumb Code    38  qorganizeritemrequestqueue.o(t._ZN4QMapIPN10QtMobility25QOrganizerAbstractRequestEP37COrganizerItemRequestsServiceProviderED1Ev)
    QMap<QtMobility::QOrganizerAbstractRequest*, COrganizerItemRequestsServiceProvider*>::~QMap__sub_object() 0x00017ef9   Thumb Code     0  qorganizeritemrequestqueue.o(t._ZN4QMapIPN10QtMobility25QOrganizerAbstractRequestEP37COrganizerItemRequestsServiceProviderED1Ev)
    QMap<QtMobility::QOrganizerAbstractRequest*, COrganizerItemRequestsServiceProvider*>::operator [](QtMobility::QOrganizerAbstractRequest*const &) 0x00017f1f   Thumb Code    70  qorganizeritemrequestqueue.o(t._ZN4QMapIPN10QtMobility25QOrganizerAbstractRequestEP37COrganizerItemRequestsServiceProviderEixERKS2_)
    QMap<int, QtMobility::QOrganizerManager::Error>::node_create(QMapData*, QMapData::Node**, const int&, const QtMobility::QOrganizerManager::Error&) 0x00017f65   Thumb Code    82  organizeritemrequestserviceprovider.o(t._ZN4QMapIiN10QtMobility17QOrganizerManager5ErrorEE11node_createEP8QMapDataPPNS4_4NodeERKiRKS2_)
    QMap<int, QtMobility::QOrganizerManager::Error>::detach_helper() 0x00017fbb   Thumb Code   146  organizeritemrequestserviceprovider.o(t._ZN4QMapIiN10QtMobility17QOrganizerManager5ErrorEE13detach_helperEv)
    QMap<int, QtMobility::QOrganizerManager::Error>::insert(const int&, const QtMobility::QOrganizerManager::Error&) 0x00018055   Thumb Code    92  organizeritemrequestserviceprovider.o(t._ZN4QMapIiN10QtMobility17QOrganizerManager5ErrorEE6insertERKiRKS2_)
    QMap<int, QtMobility::QOrganizerManager::Error>::freeData(QMapData*) 0x000180b1   Thumb Code    48  organizeritemrequestserviceprovider.o(t._ZN4QMapIiN10QtMobility17QOrganizerManager5ErrorEE8freeDataEP8QMapData)
    QMap<int, QtMobility::QOrganizerManager::Error>::QMap() 0x000180e1   Thumb Code    22  organizeritemrequestserviceprovider.o(t._ZN4QMapIiN10QtMobility17QOrganizerManager5ErrorEEC1Ev)
    QMap<int, QtMobility::QOrganizerManager::Error>::QMap__sub_object() 0x000180e1   Thumb Code     0  organizeritemrequestserviceprovider.o(t._ZN4QMapIiN10QtMobility17QOrganizerManager5ErrorEEC1Ev)
    QMap<int, QtMobility::QOrganizerManager::Error>::~QMap() 0x000180fd   Thumb Code    38  organizeritemrequestserviceprovider.o(t._ZN4QMapIiN10QtMobility17QOrganizerManager5ErrorEED1Ev)
    QMap<int, QtMobility::QOrganizerManager::Error>::~QMap__sub_object() 0x000180fd   Thumb Code     0  organizeritemrequestserviceprovider.o(t._ZN4QMapIiN10QtMobility17QOrganizerManager5ErrorEED1Ev)
    QSet<QDate>::insert(const QDate&)        0x00018123   Thumb Code   196  organizeritemrecurrencetransform.o(t._ZN4QSetI5QDateE6insertERKS0_)
    QSet<QtMobility::QOrganizerItemId>::operator <<(const QtMobility::QOrganizerItemId&) 0x000181eb   Thumb Code    50  qorganizersymbian.o(t._ZN4QSetIN10QtMobility16QOrganizerItemIdEElsERKS1_)
    QSet<QtMobility::QOrganizerCollectionId>::QSet() 0x0001821d   Thumb Code    24  qorganizersymbian.o(t._ZN4QSetIN10QtMobility22QOrganizerCollectionIdEEC1Ev)
    QSet<QtMobility::QOrganizerCollectionId>::QSet__sub_object() 0x0001821d   Thumb Code     0  qorganizersymbian.o(t._ZN4QSetIN10QtMobility22QOrganizerCollectionIdEEC1Ev)
    QSet<QtMobility::QOrganizerCollectionId>::operator <<(const QtMobility::QOrganizerCollectionId&) 0x00018239   Thumb Code    50  qorganizersymbian.o(t._ZN4QSetIN10QtMobility22QOrganizerCollectionIdEElsERKS1_)
    QSet<QtMobility::QOrganizerRecurrenceRule::Month>::insert(const QtMobility::QOrganizerRecurrenceRule::Month&) 0x0001826b   Thumb Code   200  organizeritemrecurrencetransform.o(t._ZN4QSetIN10QtMobility24QOrganizerRecurrenceRule5MonthEE6insertERKS2_)
    QSet<Qt::DayOfWeek>::const_iterator::operator ++() 0x00018337   Thumb Code    20  organizeritemrecurrencetransform.o(t._ZN4QSetIN2Qt9DayOfWeekEE14const_iteratorppEv)
    QSet<Qt::DayOfWeek>::insert(const Qt::DayOfWeek&) 0x0001834b   Thumb Code   200  organizeritemrecurrencetransform.o(t._ZN4QSetIN2Qt9DayOfWeekEE6insertERKS1_)
    QSet<int>::const_iterator::operator ++() 0x00018417   Thumb Code    20  organizeritemrecurrencetransform.o(t._ZN4QSetIiE14const_iteratorppEv)
    QSet<int>::insert(const int&)            0x0001842b   Thumb Code   196  organizeritemrecurrencetransform.o(t._ZN4QSetIiE6insertERKi)
    QSet<int>::QSet()                        0x000184f5   Thumb Code    24  organizeritemrecurrencetransform.o(t._ZN4QSetIiEC1Ev)
    QSet<int>::QSet__sub_object()            0x000184f5   Thumb Code     0  organizeritemrecurrencetransform.o(t._ZN4QSetIiEC1Ev)
    QSet<int>::operator <<(const int&)       0x00018511   Thumb Code    20  organizeritemrecurrencetransform.o(t._ZN4QSetIiElsERKi)
    QHash<QDate, QHashDummyValue>::deleteNode2(QHashData::Node*) 0x00018525   Thumb Code     6  organizeritemrecurrencetransform.o(t._ZN5QHashI5QDate15QHashDummyValueE11deleteNode2EPN9QHashData4NodeE)
    QHash<QDate, QHashDummyValue>::detach_helper() 0x0001852d   Thumb Code    52  organizeritemrecurrencetransform.o(t._ZN5QHashI5QDate15QHashDummyValueE13detach_helperEv)
    QHash<QDate, QHashDummyValue>::duplicateNode(QHashData::Node*, void*) 0x00018569   Thumb Code    42  organizeritemrecurrencetransform.o(t._ZN5QHashI5QDate15QHashDummyValueE13duplicateNodeEPN9QHashData4NodeEPv)
    QHash<QDate, QHashDummyValue>::detach()  0x00018593   Thumb Code    28  organizeritemrecurrencetransform.o(t._ZN5QHashI5QDate15QHashDummyValueE6detachEv)
    QHash<QDate, QHashDummyValue>::freeData(QHashData*) 0x000185b1   Thumb Code    16  organizeritemrecurrencetransform.o(t._ZN5QHashI5QDate15QHashDummyValueE8freeDataEP9QHashData)
    QHash<QDate, QHashDummyValue>::~QHash()  0x000185c5   Thumb Code    30  organizeritemrecurrencetransform.o(t._ZN5QHashI5QDate15QHashDummyValueED1Ev)
    QHash<QDate, QHashDummyValue>::~QHash__sub_object() 0x000185c5   Thumb Code     0  organizeritemrecurrencetransform.o(t._ZN5QHashI5QDate15QHashDummyValueED1Ev)
    QHash<QtMobility::QOrganizerItemId, QHashDummyValue>::deleteNode2(QHashData::Node*) 0x000185e3   Thumb Code    24  qorganizersymbian.o(t._ZN5QHashIN10QtMobility16QOrganizerItemIdE15QHashDummyValueE11deleteNode2EPN9QHashData4NodeE)
    QHash<QtMobility::QOrganizerItemId, QHashDummyValue>::detach_helper() 0x000185fd   Thumb Code    52  qorganizersymbian.o(t._ZN5QHashIN10QtMobility16QOrganizerItemIdE15QHashDummyValueE13detach_helperEv)
    QHash<QtMobility::QOrganizerItemId, QHashDummyValue>::duplicateNode(QHashData::Node*, void*) 0x00018639   Thumb Code    44  qorganizersymbian.o(t._ZN5QHashIN10QtMobility16QOrganizerItemIdE15QHashDummyValueE13duplicateNodeEPN9QHashData4NodeEPv)
    QHash<QtMobility::QOrganizerItemId, QHashDummyValue>::insert(const QtMobility::QOrganizerItemId&, const QHashDummyValue&) 0x00018671   Thumb Code   186  qorganizersymbian.o(t._ZN5QHashIN10QtMobility16QOrganizerItemIdE15QHashDummyValueE6insertERKS1_RKS2_)
    QHash<QtMobility::QOrganizerItemId, QHashDummyValue>::freeData(QHashData*) 0x00018739   Thumb Code    16  qorganizersymbian.o(t._ZN5QHashIN10QtMobility16QOrganizerItemIdE15QHashDummyValueE8freeDataEP9QHashData)
    QHash<QtMobility::QOrganizerItemId, QHashDummyValue>::~QHash() 0x0001874d   Thumb Code    30  qorganizersymbian.o(t._ZN5QHashIN10QtMobility16QOrganizerItemIdE15QHashDummyValueED1Ev)
    QHash<QtMobility::QOrganizerItemId, QHashDummyValue>::~QHash__sub_object() 0x0001874d   Thumb Code     0  qorganizersymbian.o(t._ZN5QHashIN10QtMobility16QOrganizerItemIdE15QHashDummyValueED1Ev)
    QHash<QtMobility::QOrganizerCollectionId, QHashDummyValue>::deleteNode2(QHashData::Node*) 0x0001876b   Thumb Code    24  qorganizersymbian.o(t._ZN5QHashIN10QtMobility22QOrganizerCollectionIdE15QHashDummyValueE11deleteNode2EPN9QHashData4NodeE)
    QHash<QtMobility::QOrganizerCollectionId, QHashDummyValue>::detach_helper() 0x00018785   Thumb Code    52  qorganizersymbian.o(t._ZN5QHashIN10QtMobility22QOrganizerCollectionIdE15QHashDummyValueE13detach_helperEv)
    QHash<QtMobility::QOrganizerCollectionId, QHashDummyValue>::duplicateNode(QHashData::Node*, void*) 0x000187c1   Thumb Code    44  qorganizersymbian.o(t._ZN5QHashIN10QtMobility22QOrganizerCollectionIdE15QHashDummyValueE13duplicateNodeEPN9QHashData4NodeEPv)
    QHash<QtMobility::QOrganizerCollectionId, QHashDummyValue>::insert(const QtMobility::QOrganizerCollectionId&, const QHashDummyValue&) 0x000187f9   Thumb Code   186  qorganizersymbian.o(t._ZN5QHashIN10QtMobility22QOrganizerCollectionIdE15QHashDummyValueE6insertERKS1_RKS2_)
    QHash<QtMobility::QOrganizerCollectionId, QHashDummyValue>::freeData(QHashData*) 0x000188c1   Thumb Code    16  qorganizersymbian.o(t._ZN5QHashIN10QtMobility22QOrganizerCollectionIdE15QHashDummyValueE8freeDataEP9QHashData)
    QHash<QtMobility::QOrganizerCollectionId, QHashDummyValue>::~QHash() 0x000188d5   Thumb Code    30  qorganizersymbian.o(t._ZN5QHashIN10QtMobility22QOrganizerCollectionIdE15QHashDummyValueED1Ev)
    QHash<QtMobility::QOrganizerCollectionId, QHashDummyValue>::~QHash__sub_object() 0x000188d5   Thumb Code     0  qorganizersymbian.o(t._ZN5QHashIN10QtMobility22QOrganizerCollectionIdE15QHashDummyValueED1Ev)
    QHash<QtMobility::QOrganizerRecurrenceRule::Month, QHashDummyValue>::deleteNode2(QHashData::Node*) 0x000188f3   Thumb Code     6  organizeritemrecurrencetransform.o(t._ZN5QHashIN10QtMobility24QOrganizerRecurrenceRule5MonthE15QHashDummyValueE11deleteNode2EPN9QHashData4NodeE)
    QHash<QtMobility::QOrganizerRecurrenceRule::Month, QHashDummyValue>::detach_helper() 0x000188f9   Thumb Code    52  organizeritemrecurrencetransform.o(t._ZN5QHashIN10QtMobility24QOrganizerRecurrenceRule5MonthE15QHashDummyValueE13detach_helperEv)
    QHash<QtMobility::QOrganizerRecurrenceRule::Month, QHashDummyValue>::duplicateNode(QHashData::Node*, void*) 0x00018935   Thumb Code    40  organizeritemrecurrencetransform.o(t._ZN5QHashIN10QtMobility24QOrganizerRecurrenceRule5MonthE15QHashDummyValueE13duplicateNodeEPN9QHashData4NodeEPv)
    QHash<QtMobility::QOrganizerRecurrenceRule::Month, QHashDummyValue>::detach() 0x0001895d   Thumb Code    28  organizeritemrecurrencetransform.o(t._ZN5QHashIN10QtMobility24QOrganizerRecurrenceRule5MonthE15QHashDummyValueE6detachEv)
    QHash<QtMobility::QOrganizerRecurrenceRule::Month, QHashDummyValue>::freeData(QHashData*) 0x00018979   Thumb Code    16  organizeritemrecurrencetransform.o(t._ZN5QHashIN10QtMobility24QOrganizerRecurrenceRule5MonthE15QHashDummyValueE8freeDataEP9QHashData)
    QHash<QtMobility::QOrganizerRecurrenceRule::Month, QHashDummyValue>::~QHash() 0x0001898d   Thumb Code    30  organizeritemrecurrencetransform.o(t._ZN5QHashIN10QtMobility24QOrganizerRecurrenceRule5MonthE15QHashDummyValueED1Ev)
    QHash<QtMobility::QOrganizerRecurrenceRule::Month, QHashDummyValue>::~QHash__sub_object() 0x0001898d   Thumb Code     0  organizeritemrecurrencetransform.o(t._ZN5QHashIN10QtMobility24QOrganizerRecurrenceRule5MonthE15QHashDummyValueED1Ev)
    QHash<QtMobility::QOrganizerRecurrenceRule, QHashDummyValue>::deleteNode2(QHashData::Node*) 0x000189ab   Thumb Code    24  organizeritemrecurrencetransform.o(t._ZN5QHashIN10QtMobility24QOrganizerRecurrenceRuleE15QHashDummyValueE11deleteNode2EPN9QHashData4NodeE)
    QHash<QtMobility::QOrganizerRecurrenceRule, QHashDummyValue>::detach_helper() 0x000189c5   Thumb Code    52  organizeritemrecurrencetransform.o(t._ZN5QHashIN10QtMobility24QOrganizerRecurrenceRuleE15QHashDummyValueE13detach_helperEv)
    QHash<QtMobility::QOrganizerRecurrenceRule, QHashDummyValue>::duplicateNode(QHashData::Node*, void*) 0x00018a01   Thumb Code    44  organizeritemrecurrencetransform.o(t._ZN5QHashIN10QtMobility24QOrganizerRecurrenceRuleE15QHashDummyValueE13duplicateNodeEPN9QHashData4NodeEPv)
    QHash<QtMobility::QOrganizerRecurrenceRule, QHashDummyValue>::insert(const QtMobility::QOrganizerRecurrenceRule&, const QHashDummyValue&) 0x00018a39   Thumb Code   186  organizeritemrecurrencetransform.o(t._ZN5QHashIN10QtMobility24QOrganizerRecurrenceRuleE15QHashDummyValueE6insertERKS1_RKS2_)
    QHash<QtMobility::QOrganizerRecurrenceRule, QHashDummyValue>::freeData(QHashData*) 0x00018b01   Thumb Code    16  organizeritemrecurrencetransform.o(t._ZN5QHashIN10QtMobility24QOrganizerRecurrenceRuleE15QHashDummyValueE8freeDataEP9QHashData)
    QHash<QtMobility::QOrganizerRecurrenceRule, QHashDummyValue>::~QHash() 0x00018b15   Thumb Code    30  organizeritemrecurrencetransform.o(t._ZN5QHashIN10QtMobility24QOrganizerRecurrenceRuleE15QHashDummyValueED1Ev)
    QHash<QtMobility::QOrganizerRecurrenceRule, QHashDummyValue>::~QHash__sub_object() 0x00018b15   Thumb Code     0  organizeritemrecurrencetransform.o(t._ZN5QHashIN10QtMobility24QOrganizerRecurrenceRuleE15QHashDummyValueED1Ev)
    QHash<Qt::DayOfWeek, QHashDummyValue>::deleteNode2(QHashData::Node*) 0x00018b33   Thumb Code     6  organizeritemrecurrencetransform.o(t._ZN5QHashIN2Qt9DayOfWeekE15QHashDummyValueE11deleteNode2EPN9QHashData4NodeE)
    QHash<Qt::DayOfWeek, QHashDummyValue>::detach_helper() 0x00018b39   Thumb Code    52  organizeritemrecurrencetransform.o(t._ZN5QHashIN2Qt9DayOfWeekE15QHashDummyValueE13detach_helperEv)
    QHash<Qt::DayOfWeek, QHashDummyValue>::duplicateNode(QHashData::Node*, void*) 0x00018b75   Thumb Code    40  organizeritemrecurrencetransform.o(t._ZN5QHashIN2Qt9DayOfWeekE15QHashDummyValueE13duplicateNodeEPN9QHashData4NodeEPv)
    QHash<Qt::DayOfWeek, QHashDummyValue>::detach() 0x00018b9d   Thumb Code    28  organizeritemrecurrencetransform.o(t._ZN5QHashIN2Qt9DayOfWeekE15QHashDummyValueE6detachEv)
    QHash<Qt::DayOfWeek, QHashDummyValue>::freeData(QHashData*) 0x00018bb9   Thumb Code    16  organizeritemrecurrencetransform.o(t._ZN5QHashIN2Qt9DayOfWeekE15QHashDummyValueE8freeDataEP9QHashData)
    QHash<Qt::DayOfWeek, QHashDummyValue>::~QHash() 0x00018bcd   Thumb Code    30  organizeritemrecurrencetransform.o(t._ZN5QHashIN2Qt9DayOfWeekE15QHashDummyValueED1Ev)
    QHash<Qt::DayOfWeek, QHashDummyValue>::~QHash__sub_object() 0x00018bcd   Thumb Code     0  organizeritemrecurrencetransform.o(t._ZN5QHashIN2Qt9DayOfWeekE15QHashDummyValueED1Ev)
    QHash<int, QHashDummyValue>::deleteNode2(QHashData::Node*) 0x00018beb   Thumb Code     6  organizeritemrecurrencetransform.o(t._ZN5QHashIi15QHashDummyValueE11deleteNode2EPN9QHashData4NodeE)
    QHash<int, QHashDummyValue>::detach_helper() 0x00018bf1   Thumb Code    52  organizeritemrecurrencetransform.o(t._ZN5QHashIi15QHashDummyValueE13detach_helperEv)
    QHash<int, QHashDummyValue>::duplicateNode(QHashData::Node*, void*) 0x00018c2d   Thumb Code    34  organizeritemrecurrencetransform.o(t._ZN5QHashIi15QHashDummyValueE13duplicateNodeEPN9QHashData4NodeEPv)
    QHash<int, QHashDummyValue>::detach()    0x00018c4f   Thumb Code    28  organizeritemrecurrencetransform.o(t._ZN5QHashIi15QHashDummyValueE6detachEv)
    QHash<int, QHashDummyValue>::freeData(QHashData*) 0x00018c6d   Thumb Code    16  organizeritemrecurrencetransform.o(t._ZN5QHashIi15QHashDummyValueE8freeDataEP9QHashData)
    QHash<int, QHashDummyValue>::~QHash()    0x00018c81   Thumb Code    30  organizeritemrecurrencetransform.o(t._ZN5QHashIi15QHashDummyValueED1Ev)
    QHash<int, QHashDummyValue>::~QHash__sub_object() 0x00018c81   Thumb Code     0  organizeritemrecurrencetransform.o(t._ZN5QHashIi15QHashDummyValueED1Ev)
    QList<OrganizerSymbianCollection>::detach_helper(int) 0x00018c9f   Thumb Code    94  qorganizersymbian.o(t._ZN5QListI26OrganizerSymbianCollectionE13detach_helperEi)
    QList<OrganizerSymbianCollection>::detach_helper() 0x00018d05   Thumb Code    16  qorganizersymbian.o(t._ZN5QListI26OrganizerSymbianCollectionE13detach_helperEv)
    QList<OrganizerSymbianCollection>::node_destruct(QList<OrganizerSymbianCollection>::Node*, QList<OrganizerSymbianCollection>::Node*) 0x00018d15   Thumb Code    38  qorganizersymbian.o(t._ZN5QListI26OrganizerSymbianCollectionE13node_destructEPNS1_4NodeES3_)
    QList<OrganizerSymbianCollection>::node_construct(QList<OrganizerSymbianCollection>::Node*, const OrganizerSymbianCollection&) 0x00018d3b   Thumb Code    34  qorganizersymbian.o(t._ZN5QListI26OrganizerSymbianCollectionE14node_constructEPNS1_4NodeERKS0_)
    QList<OrganizerSymbianCollection>::detach_helper_grow(int, int) 0x00018d6b   Thumb Code   208  qorganizersymbian.o(t._ZN5QListI26OrganizerSymbianCollectionE18detach_helper_growEii)
    QList<OrganizerSymbianCollection>::free(QListData::Data*) 0x00018e4b   Thumb Code    52  qorganizersymbian.o(t._ZN5QListI26OrganizerSymbianCollectionE4freeEPN9QListData4DataE)
    QList<OrganizerSymbianCollection>::append(const OrganizerSymbianCollection&) 0x00018e81   Thumb Code   106  qorganizersymbian.o(t._ZN5QListI26OrganizerSymbianCollectionE6appendERKS0_)
    QList<OrganizerSymbianCollection>::reserve(int) 0x00018eff   Thumb Code    46  qorganizersymbian.o(t._ZN5QListI26OrganizerSymbianCollectionE7reserveEi)
    QList<OrganizerSymbianCollection>::node_copy(QList<OrganizerSymbianCollection>::Node*, QList<OrganizerSymbianCollection>::Node*, QList<OrganizerSymbianCollection>::Node*) 0x00018f2d   Thumb Code    92  qorganizersymbian.o(t._ZN5QListI26OrganizerSymbianCollectionE9node_copyEPNS1_4NodeES3_S3_)
    QList<OrganizerSymbianCollection>::QList(const QList<OrganizerSymbianCollection>&) 0x00018f9f   Thumb Code    36  qorganizersymbian.o(t._ZN5QListI26OrganizerSymbianCollectionEC1ERKS1_)
    QList<OrganizerSymbianCollection>::QList__sub_object(const QList<OrganizerSymbianCollection>&) 0x00018f9f   Thumb Code     0  qorganizersymbian.o(t._ZN5QListI26OrganizerSymbianCollectionEC1ERKS1_)
    QList<OrganizerSymbianCollection>::QList() 0x00018fc5   Thumb Code    18  qorganizersymbian.o(t._ZN5QListI26OrganizerSymbianCollectionEC1Ev)
    QList<OrganizerSymbianCollection>::QList__sub_object() 0x00018fc5   Thumb Code     0  qorganizersymbian.o(t._ZN5QListI26OrganizerSymbianCollectionEC1Ev)
    QList<OrganizerSymbianCollection>::~QList() 0x00018fdd   Thumb Code    32  qorganizersymbian.o(t._ZN5QListI26OrganizerSymbianCollectionED1Ev)
    QList<OrganizerSymbianCollection>::~QList__sub_object() 0x00018fdd   Thumb Code     0  qorganizersymbian.o(t._ZN5QListI26OrganizerSymbianCollectionED1Ev)
    QList<QString>::detach_helper(int)       0x00018ffd   Thumb Code    94  qorganizersymbian.o(t._ZN5QListI7QStringE13detach_helperEi)
    QList<QString>::detach_helper()          0x00019063   Thumb Code    16  qorganizersymbian.o(t._ZN5QListI7QStringE13detach_helperEv)
    QList<QString>::node_destruct(QList<QString>::Node*, QList<QString>::Node*) 0x00019073   Thumb Code    26  qorganizersymbian.o(t._ZN5QListI7QStringE13node_destructEPNS1_4NodeES3_)
    QList<QString>::node_construct(QList<QString>::Node*, const QString&) 0x0001908d   Thumb Code    36  qorganizersymbian.o(t._ZN5QListI7QStringE14node_constructEPNS1_4NodeERKS0_)
    QList<QString>::detach_helper_grow(int, int) 0x000190bf   Thumb Code   208  qorganizersymbian.o(t._ZN5QListI7QStringE18detach_helper_growEii)
    QList<QString>::free(QListData::Data*)   0x0001919f   Thumb Code    52  qorganizersymbian.o(t._ZN5QListI7QStringE4freeEPN9QListData4DataE)
    QList<QString>::append(const QString&)   0x000191d5   Thumb Code   114  qorganizersymbian.o(t._ZN5QListI7QStringE6appendERKS0_)
    QList<QString>::reserve(int)             0x0001925b   Thumb Code    46  qorganizersymbian.o(t._ZN5QListI7QStringE7reserveEi)
    QList<QString>::node_copy(QList<QString>::Node*, QList<QString>::Node*, QList<QString>::Node*) 0x00019289   Thumb Code    82  qorganizersymbian.o(t._ZN5QListI7QStringE9node_copyEPNS1_4NodeES3_S3_)
    QList<QString>::QList(const QList<QString>&) 0x000192f1   Thumb Code    36  qorganizersymbian.o(t._ZN5QListI7QStringEC1ERKS1_)
    QList<QString>::QList__sub_object(const QList<QString>&) 0x000192f1   Thumb Code     0  qorganizersymbian.o(t._ZN5QListI7QStringEC1ERKS1_)
    QList<QString>::QList()                  0x00019315   Thumb Code    18  organizeritemtransform.o(t._ZN5QListI7QStringEC1Ev)
    QList<QString>::QList__sub_object()      0x00019315   Thumb Code     0  organizeritemtransform.o(t._ZN5QListI7QStringEC1Ev)
    QList<QString>::~QList()                 0x0001932d   Thumb Code    32  organizeritemrequestserviceprovider.o(t._ZN5QListI7QStringED1Ev)
    QList<QString>::~QList__sub_object()     0x0001932d   Thumb Code     0  organizeritemrequestserviceprovider.o(t._ZN5QListI7QStringED1Ev)
    QList<QString>::operator [](int)         0x0001934d   Thumb Code    42  qorganizersymbian.o(t._ZN5QListI7QStringEixEi)
    QList<QVariant>::free(QListData::Data*)  0x00019377   Thumb Code    82  organizeritemlocationtransform.o(t._ZN5QListI8QVariantE4freeEPN9QListData4DataE)
    QList<QVariant>::~QList()                0x000193c9   Thumb Code    32  organizeritemlocationtransform.o(t._ZN5QListI8QVariantED1Ev)
    QList<QVariant>::~QList__sub_object()    0x000193c9   Thumb Code     0  organizeritemlocationtransform.o(t._ZN5QListI8QVariantED1Ev)
    QList<QtMobility::QOrganizerItem>::detach_helper(int) 0x000193e9   Thumb Code    94  organizeritemrequestserviceprovider.o(t._ZN5QListIN10QtMobility14QOrganizerItemEE13detach_helperEi)
    QList<QtMobility::QOrganizerItem>::detach_helper() 0x0001944f   Thumb Code    16  organizeritemrequestserviceprovider.o(t._ZN5QListIN10QtMobility14QOrganizerItemEE13detach_helperEv)
    QList<QtMobility::QOrganizerItem>::node_destruct(QList<QtMobility::QOrganizerItem>::Node*, QList<QtMobility::QOrganizerItem>::Node*) 0x0001945f   Thumb Code    26  organizeritemrequestserviceprovider.o(t._ZN5QListIN10QtMobility14QOrganizerItemEE13node_destructEPNS2_4NodeES4_)
    QList<QtMobility::QOrganizerItem>::node_construct(QList<QtMobility::QOrganizerItem>::Node*, const QtMobility::QOrganizerItem&) 0x00019479   Thumb Code    36  organizeritemrequestserviceprovider.o(t._ZN5QListIN10QtMobility14QOrganizerItemEE14node_constructEPNS2_4NodeERKS1_)
    QList<QtMobility::QOrganizerItem>::detach_helper_grow(int, int) 0x000194ab   Thumb Code   208  organizeritemrequestserviceprovider.o(t._ZN5QListIN10QtMobility14QOrganizerItemEE18detach_helper_growEii)
    QList<QtMobility::QOrganizerItem>::free(QListData::Data*) 0x0001958b   Thumb Code    52  organizeritemrequestserviceprovider.o(t._ZN5QListIN10QtMobility14QOrganizerItemEE4freeEPN9QListData4DataE)
    QList<QtMobility::QOrganizerItem>::append(const QtMobility::QOrganizerItem&) 0x000195c1   Thumb Code   114  organizeritemrequestserviceprovider.o(t._ZN5QListIN10QtMobility14QOrganizerItemEE6appendERKS1_)
    QList<QtMobility::QOrganizerItem>::detach() 0x00019647   Thumb Code    24  organizeritemrequestserviceprovider.o(t._ZN5QListIN10QtMobility14QOrganizerItemEE6detachEv)
    QList<QtMobility::QOrganizerItem>::node_copy(QList<QtMobility::QOrganizerItem>::Node*, QList<QtMobility::QOrganizerItem>::Node*, QList<QtMobility::QOrganizerItem>::Node*) 0x0001965f   Thumb Code    82  organizeritemrequestserviceprovider.o(t._ZN5QListIN10QtMobility14QOrganizerItemEE9node_copyEPNS2_4NodeES4_S4_)
    QList<QtMobility::QOrganizerItem>::QList(const QList<QtMobility::QOrganizerItem>&) 0x000196c7   Thumb Code    36  qorganizersymbian.o(t._ZN5QListIN10QtMobility14QOrganizerItemEEC1ERKS2_)
    QList<QtMobility::QOrganizerItem>::QList__sub_object(const QList<QtMobility::QOrganizerItem>&) 0x000196c7   Thumb Code     0  qorganizersymbian.o(t._ZN5QListIN10QtMobility14QOrganizerItemEEC1ERKS2_)
    QList<QtMobility::QOrganizerItem>::QList() 0x000196ed   Thumb Code    18  organizeritemrequestserviceprovider.o(t._ZN5QListIN10QtMobility14QOrganizerItemEEC1Ev)
    QList<QtMobility::QOrganizerItem>::QList__sub_object() 0x000196ed   Thumb Code     0  organizeritemrequestserviceprovider.o(t._ZN5QListIN10QtMobility14QOrganizerItemEEC1Ev)
    QList<QtMobility::QOrganizerItem>::~QList() 0x00019705   Thumb Code    32  organizeritemrequestserviceprovider.o(t._ZN5QListIN10QtMobility14QOrganizerItemEED1Ev)
    QList<QtMobility::QOrganizerItem>::~QList__sub_object() 0x00019705   Thumb Code     0  organizeritemrequestserviceprovider.o(t._ZN5QListIN10QtMobility14QOrganizerItemEED1Ev)
    QList<QtMobility::QOrganizerItem>::operator =(const QList<QtMobility::QOrganizerItem>&) 0x00019725   Thumb Code    64  organizeritemrequestserviceprovider.o(t._ZN5QListIN10QtMobility14QOrganizerItemEEaSERKS2_)
    QList<QtMobility::QOrganizerItem>::operator [](int) 0x00019765   Thumb Code    60  organizeritemrequestserviceprovider.o(t._ZN5QListIN10QtMobility14QOrganizerItemEEixEi)
    QList<QtMobility::QOrganizerItem>::operator +=(const QList<QtMobility::QOrganizerItem>&) 0x000197f1   Thumb Code   146  organizeritemrequestserviceprovider.o(t._ZN5QListIN10QtMobility14QOrganizerItemEEpLERKS2_)
    QList<QtMobility::QOrganizerItemId>::detach_helper(int) 0x00019891   Thumb Code    94  qorganizersymbian.o(t._ZN5QListIN10QtMobility16QOrganizerItemIdEE13detach_helperEi)
    QList<QtMobility::QOrganizerItemId>::detach_helper() 0x000198f7   Thumb Code    16  organizeritemrequestserviceprovider.o(t._ZN5QListIN10QtMobility16QOrganizerItemIdEE13detach_helperEv)
    QList<QtMobility::QOrganizerItemId>::node_destruct(QList<QtMobility::QOrganizerItemId>::Node*, QList<QtMobility::QOrganizerItemId>::Node*) 0x00019907   Thumb Code    26  qorganizersymbian.o(t._ZN5QListIN10QtMobility16QOrganizerItemIdEE13node_destructEPNS2_4NodeES4_)
    QList<QtMobility::QOrganizerItemId>::node_construct(QList<QtMobility::QOrganizerItemId>::Node*, const QtMobility::QOrganizerItemId&) 0x00019921   Thumb Code    36  qorganizersymbian.o(t._ZN5QListIN10QtMobility16QOrganizerItemIdEE14node_constructEPNS2_4NodeERKS1_)
    QList<QtMobility::QOrganizerItemId>::detach_helper_grow(int, int) 0x00019953   Thumb Code   208  qorganizersymbian.o(t._ZN5QListIN10QtMobility16QOrganizerItemIdEE18detach_helper_growEii)
    QList<QtMobility::QOrganizerItemId>::free(QListData::Data*) 0x00019a33   Thumb Code    52  qorganizersymbian.o(t._ZN5QListIN10QtMobility16QOrganizerItemIdEE4freeEPN9QListData4DataE)
    QList<QtMobility::QOrganizerItemId>::clear() 0x00019a67   Thumb Code    28  organizeritemrequestserviceprovider.o(t._ZN5QListIN10QtMobility16QOrganizerItemIdEE5clearEv)
    QList<QtMobility::QOrganizerItemId>::append(const QtMobility::QOrganizerItemId&) 0x00019a8d   Thumb Code   114  qorganizersymbian.o(t._ZN5QListIN10QtMobility16QOrganizerItemIdEE6appendERKS1_)
    QList<QtMobility::QOrganizerItemId>::reserve(int) 0x00019b13   Thumb Code    46  qorganizersymbian.o(t._ZN5QListIN10QtMobility16QOrganizerItemIdEE7reserveEi)
    QList<QtMobility::QOrganizerItemId>::node_copy(QList<QtMobility::QOrganizerItemId>::Node*, QList<QtMobility::QOrganizerItemId>::Node*, QList<QtMobility::QOrganizerItemId>::Node*) 0x00019b41   Thumb Code    82  qorganizersymbian.o(t._ZN5QListIN10QtMobility16QOrganizerItemIdEE9node_copyEPNS2_4NodeES4_S4_)
    QList<QtMobility::QOrganizerItemId>::QList(const QList<QtMobility::QOrganizerItemId>&) 0x00019ba9   Thumb Code    36  qorganizersymbian.o(t._ZN5QListIN10QtMobility16QOrganizerItemIdEEC1ERKS2_)
    QList<QtMobility::QOrganizerItemId>::QList__sub_object(const QList<QtMobility::QOrganizerItemId>&) 0x00019ba9   Thumb Code     0  qorganizersymbian.o(t._ZN5QListIN10QtMobility16QOrganizerItemIdEEC1ERKS2_)
    QList<QtMobility::QOrganizerItemId>::QList() 0x00019bcd   Thumb Code    18  organizeritemrequestserviceprovider.o(t._ZN5QListIN10QtMobility16QOrganizerItemIdEEC1Ev)
    QList<QtMobility::QOrganizerItemId>::QList__sub_object() 0x00019bcd   Thumb Code     0  organizeritemrequestserviceprovider.o(t._ZN5QListIN10QtMobility16QOrganizerItemIdEEC1Ev)
    QList<QtMobility::QOrganizerItemId>::~QList() 0x00019be5   Thumb Code    32  organizeritemrequestserviceprovider.o(t._ZN5QListIN10QtMobility16QOrganizerItemIdEED1Ev)
    QList<QtMobility::QOrganizerItemId>::~QList__sub_object() 0x00019be5   Thumb Code     0  organizeritemrequestserviceprovider.o(t._ZN5QListIN10QtMobility16QOrganizerItemIdEED1Ev)
    QList<QtMobility::QOrganizerItemId>::operator =(const QList<QtMobility::QOrganizerItemId>&) 0x00019c05   Thumb Code    64  organizeritemrequestserviceprovider.o(t._ZN5QListIN10QtMobility16QOrganizerItemIdEEaSERKS2_)
    QList<QtMobility::QOrganizerManager::Error>::detach_helper(int) 0x00019c45   Thumb Code    94  organizeritemrequestserviceprovider.o(t._ZN5QListIN10QtMobility17QOrganizerManager5ErrorEE13detach_helperEi)
    QList<QtMobility::QOrganizerManager::Error>::node_destruct(QList<QtMobility::QOrganizerManager::Error>::Node*, QList<QtMobility::QOrganizerManager::Error>::Node*) 0x00019cab   Thumb Code    26  organizeritemrequestserviceprovider.o(t._ZN5QListIN10QtMobility17QOrganizerManager5ErrorEE13node_destructEPNS3_4NodeES5_)
    QList<QtMobility::QOrganizerManager::Error>::node_construct(QList<QtMobility::QOrganizerManager::Error>::Node*, const QtMobility::QOrganizerManager::Error&) 0x00019cc5   Thumb Code    30  organizeritemrequestserviceprovider.o(t._ZN5QListIN10QtMobility17QOrganizerManager5ErrorEE14node_constructEPNS3_4NodeERKS2_)
    QList<QtMobility::QOrganizerManager::Error>::detach_helper_grow(int, int) 0x00019ce3   Thumb Code   208  organizeritemrequestserviceprovider.o(t._ZN5QListIN10QtMobility17QOrganizerManager5ErrorEE18detach_helper_growEii)
    QList<QtMobility::QOrganizerManager::Error>::free(QListData::Data*) 0x00019dc3   Thumb Code    52  organizeritemrequestserviceprovider.o(t._ZN5QListIN10QtMobility17QOrganizerManager5ErrorEE4freeEPN9QListData4DataE)
    QList<QtMobility::QOrganizerManager::Error>::append(const QtMobility::QOrganizerManager::Error&) 0x00019df9   Thumb Code   106  organizeritemrequestserviceprovider.o(t._ZN5QListIN10QtMobility17QOrganizerManager5ErrorEE6appendERKS2_)
    QList<QtMobility::QOrganizerManager::Error>::reserve(int) 0x00019e77   Thumb Code    46  organizeritemrequestserviceprovider.o(t._ZN5QListIN10QtMobility17QOrganizerManager5ErrorEE7reserveEi)
    QList<QtMobility::QOrganizerManager::Error>::node_copy(QList<QtMobility::QOrganizerManager::Error>::Node*, QList<QtMobility::QOrganizerManager::Error>::Node*, QList<QtMobility::QOrganizerManager::Error>::Node*) 0x00019ea5   Thumb Code    78  organizeritemrequestserviceprovider.o(t._ZN5QListIN10QtMobility17QOrganizerManager5ErrorEE9node_copyEPNS3_4NodeES5_S5_)
    QList<QtMobility::QOrganizerManager::Error>::~QList() 0x00019efb   Thumb Code    32  organizeritemrequestserviceprovider.o(t._ZN5QListIN10QtMobility17QOrganizerManager5ErrorEED1Ev)
    QList<QtMobility::QOrganizerManager::Error>::~QList__sub_object() 0x00019efb   Thumb Code     0  organizeritemrequestserviceprovider.o(t._ZN5QListIN10QtMobility17QOrganizerManager5ErrorEED1Ev)
    QList<QtMobility::QOrganizerCollection>::detach_helper(int) 0x00019f1b   Thumb Code    94  qorganizersymbian.o(t._ZN5QListIN10QtMobility20QOrganizerCollectionEE13detach_helperEi)
    QList<QtMobility::QOrganizerCollection>::detach_helper() 0x00019f81   Thumb Code    16  organizeritemrequestserviceprovider.o(t._ZN5QListIN10QtMobility20QOrganizerCollectionEE13detach_helperEv)
    QList<QtMobility::QOrganizerCollection>::node_destruct(QList<QtMobility::QOrganizerCollection>::Node*, QList<QtMobility::QOrganizerCollection>::Node*) 0x00019f91   Thumb Code    26  qorganizersymbian.o(t._ZN5QListIN10QtMobility20QOrganizerCollectionEE13node_destructEPNS2_4NodeES4_)
    QList<QtMobility::QOrganizerCollection>::node_construct(QList<QtMobility::QOrganizerCollection>::Node*, const QtMobility::QOrganizerCollection&) 0x00019fab   Thumb Code    36  qorganizersymbian.o(t._ZN5QListIN10QtMobility20QOrganizerCollectionEE14node_constructEPNS2_4NodeERKS1_)
    QList<QtMobility::QOrganizerCollection>::detach_helper_grow(int, int) 0x00019fdd   Thumb Code   208  qorganizersymbian.o(t._ZN5QListIN10QtMobility20QOrganizerCollectionEE18detach_helper_growEii)
    QList<QtMobility::QOrganizerCollection>::free(QListData::Data*) 0x0001a0bd   Thumb Code    52  qorganizersymbian.o(t._ZN5QListIN10QtMobility20QOrganizerCollectionEE4freeEPN9QListData4DataE)
    QList<QtMobility::QOrganizerCollection>::append(const QtMobility::QOrganizerCollection&) 0x0001a0f1   Thumb Code   114  qorganizersymbian.o(t._ZN5QListIN10QtMobility20QOrganizerCollectionEE6appendERKS1_)
    QList<QtMobility::QOrganizerCollection>::node_copy(QList<QtMobility::QOrganizerCollection>::Node*, QList<QtMobility::QOrganizerCollection>::Node*, QList<QtMobility::QOrganizerCollection>::Node*) 0x0001a177   Thumb Code    82  qorganizersymbian.o(t._ZN5QListIN10QtMobility20QOrganizerCollectionEE9node_copyEPNS2_4NodeES4_S4_)
    QList<QtMobility::QOrganizerCollection>::QList() 0x0001a1e1   Thumb Code    18  qorganizersymbian.o(t._ZN5QListIN10QtMobility20QOrganizerCollectionEEC1Ev)
    QList<QtMobility::QOrganizerCollection>::QList__sub_object() 0x0001a1e1   Thumb Code     0  qorganizersymbian.o(t._ZN5QListIN10QtMobility20QOrganizerCollectionEEC1Ev)
    QList<QtMobility::QOrganizerCollection>::~QList() 0x0001a1f9   Thumb Code    32  organizeritemrequestserviceprovider.o(t._ZN5QListIN10QtMobility20QOrganizerCollectionEED1Ev)
    QList<QtMobility::QOrganizerCollection>::~QList__sub_object() 0x0001a1f9   Thumb Code     0  organizeritemrequestserviceprovider.o(t._ZN5QListIN10QtMobility20QOrganizerCollectionEED1Ev)
    QList<QtMobility::QOrganizerItemFilter>::detach_helper(int) 0x0001a219   Thumb Code    94  qorganizersymbian.o(t._ZN5QListIN10QtMobility20QOrganizerItemFilterEE13detach_helperEi)
    QList<QtMobility::QOrganizerItemFilter>::detach_helper() 0x0001a27f   Thumb Code    16  qorganizersymbian.o(t._ZN5QListIN10QtMobility20QOrganizerItemFilterEE13detach_helperEv)
    QList<QtMobility::QOrganizerItemFilter>::node_destruct(QList<QtMobility::QOrganizerItemFilter>::Node*, QList<QtMobility::QOrganizerItemFilter>::Node*) 0x0001a28f   Thumb Code    26  qorganizersymbian.o(t._ZN5QListIN10QtMobility20QOrganizerItemFilterEE13node_destructEPNS2_4NodeES4_)
    QList<QtMobility::QOrganizerItemFilter>::node_construct(QList<QtMobility::QOrganizerItemFilter>::Node*, const QtMobility::QOrganizerItemFilter&) 0x0001a2a9   Thumb Code    36  qorganizersymbian.o(t._ZN5QListIN10QtMobility20QOrganizerItemFilterEE14node_constructEPNS2_4NodeERKS1_)
    QList<QtMobility::QOrganizerItemFilter>::detach_helper_grow(int, int) 0x0001a2db   Thumb Code   208  qorganizersymbian.o(t._ZN5QListIN10QtMobility20QOrganizerItemFilterEE18detach_helper_growEii)
    QList<QtMobility::QOrganizerItemFilter>::free(QListData::Data*) 0x0001a3bb   Thumb Code    52  qorganizersymbian.o(t._ZN5QListIN10QtMobility20QOrganizerItemFilterEE4freeEPN9QListData4DataE)
    QList<QtMobility::QOrganizerItemFilter>::append(const QtMobility::QOrganizerItemFilter&) 0x0001a3f1   Thumb Code   114  qorganizersymbian.o(t._ZN5QListIN10QtMobility20QOrganizerItemFilterEE6appendERKS1_)
    QList<QtMobility::QOrganizerItemFilter>::node_copy(QList<QtMobility::QOrganizerItemFilter>::Node*, QList<QtMobility::QOrganizerItemFilter>::Node*, QList<QtMobility::QOrganizerItemFilter>::Node*) 0x0001a477   Thumb Code    82  qorganizersymbian.o(t._ZN5QListIN10QtMobility20QOrganizerItemFilterEE9node_copyEPNS2_4NodeES4_S4_)
    QList<QtMobility::QOrganizerItemFilter>::~QList() 0x0001a4df   Thumb Code    32  qorganizersymbian.o(t._ZN5QListIN10QtMobility20QOrganizerItemFilterEED1Ev)
    QList<QtMobility::QOrganizerItemFilter>::~QList__sub_object() 0x0001a4df   Thumb Code     0  qorganizersymbian.o(t._ZN5QListIN10QtMobility20QOrganizerItemFilterEED1Ev)
    QList<QtMobility::QOrganizerCollectionId>::detach_helper(int) 0x0001a4ff   Thumb Code    94  qorganizersymbian.o(t._ZN5QListIN10QtMobility22QOrganizerCollectionIdEE13detach_helperEi)
    QList<QtMobility::QOrganizerCollectionId>::detach_helper() 0x0001a565   Thumb Code    16  qorganizersymbian.o(t._ZN5QListIN10QtMobility22QOrganizerCollectionIdEE13detach_helperEv)
    QList<QtMobility::QOrganizerCollectionId>::node_destruct(QList<QtMobility::QOrganizerCollectionId>::Node*, QList<QtMobility::QOrganizerCollectionId>::Node*) 0x0001a575   Thumb Code    26  qorganizersymbian.o(t._ZN5QListIN10QtMobility22QOrganizerCollectionIdEE13node_destructEPNS2_4NodeES4_)
    QList<QtMobility::QOrganizerCollectionId>::node_construct(QList<QtMobility::QOrganizerCollectionId>::Node*, const QtMobility::QOrganizerCollectionId&) 0x0001a58f   Thumb Code    36  qorganizersymbian.o(t._ZN5QListIN10QtMobility22QOrganizerCollectionIdEE14node_constructEPNS2_4NodeERKS1_)
    QList<QtMobility::QOrganizerCollectionId>::detach_helper_grow(int, int) 0x0001a5c1   Thumb Code   208  qorganizersymbian.o(t._ZN5QListIN10QtMobility22QOrganizerCollectionIdEE18detach_helper_growEii)
    QList<QtMobility::QOrganizerCollectionId>::free(QListData::Data*) 0x0001a6a1   Thumb Code    52  qorganizersymbian.o(t._ZN5QListIN10QtMobility22QOrganizerCollectionIdEE4freeEPN9QListData4DataE)
    QList<QtMobility::QOrganizerCollectionId>::append(const QtMobility::QOrganizerCollectionId&) 0x0001a6d5   Thumb Code   114  qorganizersymbian.o(t._ZN5QListIN10QtMobility22QOrganizerCollectionIdEE6appendERKS1_)
    QList<QtMobility::QOrganizerCollectionId>::reserve(int) 0x0001a75b   Thumb Code    46  qorganizersymbian.o(t._ZN5QListIN10QtMobility22QOrganizerCollectionIdEE7reserveEi)
    QList<QtMobility::QOrganizerCollectionId>::node_copy(QList<QtMobility::QOrganizerCollectionId>::Node*, QList<QtMobility::QOrganizerCollectionId>::Node*, QList<QtMobility::QOrganizerCollectionId>::Node*) 0x0001a789   Thumb Code    82  qorganizersymbian.o(t._ZN5QListIN10QtMobility22QOrganizerCollectionIdEE9node_copyEPNS2_4NodeES4_S4_)
    QList<QtMobility::QOrganizerCollectionId>::QList() 0x0001a7f1   Thumb Code    18  qorganizersymbian.o(t._ZN5QListIN10QtMobility22QOrganizerCollectionIdEEC1Ev)
    QList<QtMobility::QOrganizerCollectionId>::QList__sub_object() 0x0001a7f1   Thumb Code     0  qorganizersymbian.o(t._ZN5QListIN10QtMobility22QOrganizerCollectionIdEEC1Ev)
    QList<QtMobility::QOrganizerCollectionId>::~QList() 0x0001a809   Thumb Code    32  organizeritemrequestserviceprovider.o(t._ZN5QListIN10QtMobility22QOrganizerCollectionIdEED1Ev)
    QList<QtMobility::QOrganizerCollectionId>::~QList__sub_object() 0x0001a809   Thumb Code     0  organizeritemrequestserviceprovider.o(t._ZN5QListIN10QtMobility22QOrganizerCollectionIdEED1Ev)
    QList<QtMobility::QOrganizerCollectionId>::operator +=(const QList<QtMobility::QOrganizerCollectionId>&) 0x0001a829   Thumb Code   196  qorganizersymbian.o(t._ZN5QListIN10QtMobility22QOrganizerCollectionIdEEpLERKS2_)
    QList<QtMobility::QOrganizerItemSortOrder>::free(QListData::Data*) 0x0001a8f9   Thumb Code    64  organizeritemrequestserviceprovider.o(t._ZN5QListIN10QtMobility23QOrganizerItemSortOrderEE4freeEPN9QListData4DataE)
    QList<QtMobility::QOrganizerItemSortOrder>::~QList() 0x0001a939   Thumb Code    32  organizeritemrequestserviceprovider.o(t._ZN5QListIN10QtMobility23QOrganizerItemSortOrderEED1Ev)
    QList<QtMobility::QOrganizerItemSortOrder>::~QList__sub_object() 0x0001a939   Thumb Code     0  organizeritemrequestserviceprovider.o(t._ZN5QListIN10QtMobility23QOrganizerItemSortOrderEED1Ev)
    QList<QtMobility::QOrganizerRecurrenceRule>::detach_helper(int) 0x0001a959   Thumb Code    94  organizeritemrecurrencetransform.o(t._ZN5QListIN10QtMobility24QOrganizerRecurrenceRuleEE13detach_helperEi)
    QList<QtMobility::QOrganizerRecurrenceRule>::detach_helper() 0x0001a9bf   Thumb Code    16  organizeritemrecurrencetransform.o(t._ZN5QListIN10QtMobility24QOrganizerRecurrenceRuleEE13detach_helperEv)
    QList<QtMobility::QOrganizerRecurrenceRule>::node_destruct(QList<QtMobility::QOrganizerRecurrenceRule>::Node*, QList<QtMobility::QOrganizerRecurrenceRule>::Node*) 0x0001a9cf   Thumb Code    26  organizeritemrecurrencetransform.o(t._ZN5QListIN10QtMobility24QOrganizerRecurrenceRuleEE13node_destructEPNS2_4NodeES4_)
    QList<QtMobility::QOrganizerRecurrenceRule>::node_construct(QList<QtMobility::QOrganizerRecurrenceRule>::Node*, const QtMobility::QOrganizerRecurrenceRule&) 0x0001a9e9   Thumb Code    36  organizeritemrecurrencetransform.o(t._ZN5QListIN10QtMobility24QOrganizerRecurrenceRuleEE14node_constructEPNS2_4NodeERKS1_)
    QList<QtMobility::QOrganizerRecurrenceRule>::detach_helper_grow(int, int) 0x0001aa1b   Thumb Code   208  organizeritemrecurrencetransform.o(t._ZN5QListIN10QtMobility24QOrganizerRecurrenceRuleEE18detach_helper_growEii)
    QList<QtMobility::QOrganizerRecurrenceRule>::free(QListData::Data*) 0x0001aafb   Thumb Code    58  organizeritemrecurrencetransform.o(t._ZN5QListIN10QtMobility24QOrganizerRecurrenceRuleEE4freeEPN9QListData4DataE)
    QList<QtMobility::QOrganizerRecurrenceRule>::append(const QtMobility::QOrganizerRecurrenceRule&) 0x0001ab35   Thumb Code   114  organizeritemrecurrencetransform.o(t._ZN5QListIN10QtMobility24QOrganizerRecurrenceRuleEE6appendERKS1_)
    QList<QtMobility::QOrganizerRecurrenceRule>::reserve(int) 0x0001abbb   Thumb Code    46  organizeritemrecurrencetransform.o(t._ZN5QListIN10QtMobility24QOrganizerRecurrenceRuleEE7reserveEi)
    QList<QtMobility::QOrganizerRecurrenceRule>::node_copy(QList<QtMobility::QOrganizerRecurrenceRule>::Node*, QList<QtMobility::QOrganizerRecurrenceRule>::Node*, QList<QtMobility::QOrganizerRecurrenceRule>::Node*) 0x0001abe9   Thumb Code    82  organizeritemrecurrencetransform.o(t._ZN5QListIN10QtMobility24QOrganizerRecurrenceRuleEE9node_copyEPNS2_4NodeES4_S4_)
    QList<QtMobility::QOrganizerRecurrenceRule>::~QList() 0x0001ac51   Thumb Code    32  organizeritemrecurrencetransform.o(t._ZN5QListIN10QtMobility24QOrganizerRecurrenceRuleEED1Ev)
    QList<QtMobility::QOrganizerRecurrenceRule>::~QList__sub_object() 0x0001ac51   Thumb Code     0  organizeritemrecurrencetransform.o(t._ZN5QListIN10QtMobility24QOrganizerRecurrenceRuleEED1Ev)
    QList<QtMobility::QOrganizerItemDetailDefinition>::free(QListData::Data*) 0x0001ac71   Thumb Code    64  organizeritemrequestserviceprovider.o(t._ZN5QListIN10QtMobility30QOrganizerItemDetailDefinitionEE4freeEPN9QListData4DataE)
    QList<QtMobility::QOrganizerItemDetailDefinition>::~QList() 0x0001acb1   Thumb Code    32  organizeritemrequestserviceprovider.o(t._ZN5QListIN10QtMobility30QOrganizerItemDetailDefinitionEED1Ev)
    QList<QtMobility::QOrganizerItemDetailDefinition>::~QList__sub_object() 0x0001acb1   Thumb Code     0  organizeritemrequestserviceprovider.o(t._ZN5QListIN10QtMobility30QOrganizerItemDetailDefinitionEED1Ev)
    QList<OrganizerItemDetailTransform*>::detach_helper(int) 0x0001acd1   Thumb Code    94  organizeritemtransform.o(t._ZN5QListIP28OrganizerItemDetailTransformE13detach_helperEi)
    QList<OrganizerItemDetailTransform*>::detach_helper() 0x0001ad37   Thumb Code    16  organizeritemtransform.o(t._ZN5QListIP28OrganizerItemDetailTransformE13detach_helperEv)
    QList<OrganizerItemDetailTransform*>::detach_helper_grow(int, int) 0x0001ad47   Thumb Code   204  organizeritemtransform.o(t._ZN5QListIP28OrganizerItemDetailTransformE18detach_helper_growEii)
    QList<OrganizerItemDetailTransform*>::free(QListData::Data*) 0x0001ae23   Thumb Code    58  organizeritemtransform.o(t._ZN5QListIP28OrganizerItemDetailTransformE4freeEPN9QListData4DataE)
    QList<OrganizerItemDetailTransform*>::append(OrganizerItemDetailTransform*const &) 0x0001ae5d   Thumb Code    94  organizeritemtransform.o(t._ZN5QListIP28OrganizerItemDetailTransformE6appendERKS1_)
    QList<OrganizerItemDetailTransform*>::node_copy(QList<OrganizerItemDetailTransform*>::Node*, QList<OrganizerItemDetailTransform*>::Node*, QList<OrganizerItemDetailTransform*>::Node*) 0x0001aecb   Thumb Code    46  organizeritemtransform.o(t._ZN5QListIP28OrganizerItemDetailTransformE9node_copyEPNS2_4NodeES4_S4_)
    QList<OrganizerItemDetailTransform*>::~QList() 0x0001aef9   Thumb Code    32  organizeritemtransform.o(t._ZN5QListIP28OrganizerItemDetailTransformED1Ev)
    QList<OrganizerItemDetailTransform*>::~QList__sub_object() 0x0001aef9   Thumb Code     0  organizeritemtransform.o(t._ZN5QListIP28OrganizerItemDetailTransformED1Ev)
    QList<QtMobility::QOrganizerAbstractRequest*>::detach_helper(int) 0x0001af19   Thumb Code    94  qorganizeritemrequestqueue.o(t._ZN5QListIPN10QtMobility25QOrganizerAbstractRequestEE13detach_helperEi)
    QList<QtMobility::QOrganizerAbstractRequest*>::detach_helper_grow(int, int) 0x0001af7f   Thumb Code   204  qorganizeritemrequestqueue.o(t._ZN5QListIPN10QtMobility25QOrganizerAbstractRequestEE18detach_helper_growEii)
    QList<QtMobility::QOrganizerAbstractRequest*>::free(QListData::Data*) 0x0001b05b   Thumb Code    58  qorganizeritemrequestqueue.o(t._ZN5QListIPN10QtMobility25QOrganizerAbstractRequestEE4freeEPN9QListData4DataE)
    QList<QtMobility::QOrganizerAbstractRequest*>::append(QtMobility::QOrganizerAbstractRequest*const &) 0x0001b095   Thumb Code    94  qorganizeritemrequestqueue.o(t._ZN5QListIPN10QtMobility25QOrganizerAbstractRequestEE6appendERKS2_)
    QList<QtMobility::QOrganizerAbstractRequest*>::reserve(int) 0x0001b103   Thumb Code    46  qorganizeritemrequestqueue.o(t._ZN5QListIPN10QtMobility25QOrganizerAbstractRequestEE7reserveEi)
    QList<QtMobility::QOrganizerAbstractRequest*>::node_copy(QList<QtMobility::QOrganizerAbstractRequest*>::Node*, QList<QtMobility::QOrganizerAbstractRequest*>::Node*, QList<QtMobility::QOrganizerAbstractRequest*>::Node*) 0x0001b131   Thumb Code    46  qorganizeritemrequestqueue.o(t._ZN5QListIPN10QtMobility25QOrganizerAbstractRequestEE9node_copyEPNS3_4NodeES5_S5_)
    QList<QtMobility::QOrganizerAbstractRequest*>::~QList() 0x0001b15f   Thumb Code    32  qorganizeritemrequestqueue.o(t._ZN5QListIPN10QtMobility25QOrganizerAbstractRequestEED1Ev)
    QList<QtMobility::QOrganizerAbstractRequest*>::~QList__sub_object() 0x0001b15f   Thumb Code     0  qorganizeritemrequestqueue.o(t._ZN5QListIPN10QtMobility25QOrganizerAbstractRequestEED1Ev)
    QList<int>::detach_helper(int)           0x0001b17f   Thumb Code    94  organizeritemrequestserviceprovider.o(t._ZN5QListIiE13detach_helperEi)
    QList<int>::detach_helper()              0x0001b1e5   Thumb Code    16  organizeritemrequestserviceprovider.o(t._ZN5QListIiE13detach_helperEv)
    QList<int>::detach_helper_grow(int, int) 0x0001b1f5   Thumb Code   204  organizeritemrequestserviceprovider.o(t._ZN5QListIiE18detach_helper_growEii)
    QList<int>::free(QListData::Data*)       0x0001b2d1   Thumb Code    52  organizeritemrequestserviceprovider.o(t._ZN5QListIiE4freeEPN9QListData4DataE)
    QList<int>::append(const int&)           0x0001b305   Thumb Code    94  organizeritemrequestserviceprovider.o(t._ZN5QListIiE6appendERKi)
    QList<int>::reserve(int)                 0x0001b373   Thumb Code    46  organizeritemrequestserviceprovider.o(t._ZN5QListIiE7reserveEi)
    QList<int>::node_copy(QList<int>::Node*, QList<int>::Node*, QList<int>::Node*) 0x0001b3a1   Thumb Code    46  organizeritemrequestserviceprovider.o(t._ZN5QListIiE9node_copyEPNS0_4NodeES2_S2_)
    QList<int>::~QList()                     0x0001b3cf   Thumb Code    32  organizeritemrequestserviceprovider.o(t._ZN5QListIiED1Ev)
    QList<int>::~QList__sub_object()         0x0001b3cf   Thumb Code     0  organizeritemrequestserviceprovider.o(t._ZN5QListIiED1Ev)
    TBuf8<(int)32>::TBuf8()                  0x0001b3ef   Thumb Code    16  qorganizersymbian.o(t._ZN5TBuf8ILi32EEC1Ev)
    TBuf8<(int)32>::TBuf8__sub_object()      0x0001b3ef   Thumb Code     0  qorganizersymbian.o(t._ZN5TBuf8ILi32EEC1Ev)
    RArray<TDay>::AppendL(const TDay&)       0x0001b3ff   Thumb Code    24  organizeritemrecurrencetransform.o(t._ZN6RArrayI4TDayE7AppendLERKS0_)
    RArray<TCalTime>::RArray()               0x0001b417   Thumb Code    16  organizeritemrecurrencetransform.o(t._ZN6RArrayI8TCalTimeEC1Ev)
    RArray<TCalTime>::RArray__sub_object()   0x0001b417   Thumb Code     0  organizeritemrecurrencetransform.o(t._ZN6RArrayI8TCalTimeEC1Ev)
    QPointer<QObject>::~QPointer()           0x0001b427   Thumb Code    14  qorganizersymbian.o(t._ZN8QPointerI7QObjectED1Ev)
    QPointer<QObject>::~QPointer__sub_object() 0x0001b427   Thumb Code     0  qorganizersymbian.o(t._ZN8QPointerI7QObjectED1Ev)
    TPckgBuf<TTime>::TPckgBuf()              0x0001b435   Thumb Code    42  organizersymbianutils.o(t._ZN8TPckgBufI5TTimeEC1Ev)
    TPckgBuf<TTime>::TPckgBuf__sub_object()  0x0001b435   Thumb Code     0  organizersymbianutils.o(t._ZN8TPckgBufI5TTimeEC1Ev)
    TPckgBuf<int>::TPckgBuf()                0x0001b463   Thumb Code    28  organizersymbianutils.o(t._ZN8TPckgBufIiEC1Ev)
    TPckgBuf<int>::TPckgBuf__sub_object()    0x0001b463   Thumb Code     0  organizersymbianutils.o(t._ZN8TPckgBufIiEC1Ev)
    TPckgBuf<unsigned>::TPckgBuf()           0x0001b47f   Thumb Code    28  organizersymbianutils.o(t._ZN8TPckgBufIjEC1Ev)
    TPckgBuf<unsigned>::TPckgBuf__sub_object() 0x0001b47f   Thumb Code     0  organizersymbianutils.o(t._ZN8TPckgBufIjEC1Ev)
    QtMobility::QOrganizerItem::detail<QtMobility::QOrganizerItemParent>() const 0x0001b49d   Thumb Code    50  qorganizersymbian.o(t._ZNK10QtMobility14QOrganizerItem6detailINS_20QOrganizerItemParentEEET_v)
    QtMobility::QOrganizerItem::detail<QtMobility::QOrganizerItemTimestamp>() const 0x0001b4e1   Thumb Code    50  organizeritemtimestamptransform.o(t._ZNK10QtMobility14QOrganizerItem6detailINS_23QOrganizerItemTimestampEEET_v)
    QtMobility::QLatin1Constant<(int)6>::operator QString() const 0x0001b523   Thumb Code    18  organizersymbianutils.o(t._ZNK10QtMobility15QLatin1ConstantILi6EEcv7QStringEv)
    QtMobility::QLatin1Constant<(int)8>::operator QString() const 0x0001b535   Thumb Code    18  organizersymbianutils.o(t._ZNK10QtMobility15QLatin1ConstantILi8EEcv7QStringEv)
    QtMobility::QLatin1Constant<(int)9>::operator QString() const 0x0001b547   Thumb Code    18  qorganizersymbian.o(t._ZNK10QtMobility15QLatin1ConstantILi9EEcv7QStringEv)
    QtMobility::QOrganizerItemDetail::value<QDateTime>(const char*) const 0x0001b559   Thumb Code   138  organizertodoprogresstransform.o(t._ZNK10QtMobility20QOrganizerItemDetail5valueI9QDateTimeEET_PKc)
    QtMobility::QOrganizerItemDetail::value<double>(const char*) const 0x0001b5f9   Thumb Code   128  organizeritemlocationtransform.o(t._ZNK10QtMobility20QOrganizerItemDetail5valueIdEET_PKc)
    QForeachContainer<QMap<QtMobility::QOrganizerCollectionId, OrganizerSymbianCollection>>::condition() const 0x0001b68f   Thumb Code    38  qorganizersymbian.o(t._ZNK17QForeachContainerI4QMapIN10QtMobility22QOrganizerCollectionIdE26OrganizerSymbianCollectionEE9conditionEv)
    QForeachContainer<QSet<Qt::DayOfWeek>>::condition() const 0x0001b6b5   Thumb Code    44  organizeritemrecurrencetransform.o(t._ZNK17QForeachContainerI4QSetIN2Qt9DayOfWeekEEE9conditionEv)
    QForeachContainer<QSet<int>>::condition() const 0x0001b6e1   Thumb Code    44  organizeritemrecurrencetransform.o(t._ZNK17QForeachContainerI4QSetIiEE9conditionEv)
    QForeachContainer<QList<OrganizerSymbianCollection>>::condition() const 0x0001b70d   Thumb Code    40  qorganizersymbian.o(t._ZNK17QForeachContainerI5QListI26OrganizerSymbianCollectionEE9conditionEv)
    QForeachContainer<QList<QString>>::condition() const 0x0001b735   Thumb Code    40  organizeritemtransform.o(t._ZNK17QForeachContainerI5QListI7QStringEE9conditionEv)
    QForeachContainer<QList<QtMobility::QOrganizerItem>>::condition() const 0x0001b75d   Thumb Code    40  qorganizersymbian.o(t._ZNK17QForeachContainerI5QListIN10QtMobility14QOrganizerItemEEE9conditionEv)
    QForeachContainer<QList<QtMobility::QOrganizerItemId>>::condition() const 0x0001b785   Thumb Code    40  qorganizersymbian.o(t._ZNK17QForeachContainerI5QListIN10QtMobility16QOrganizerItemIdEEE9conditionEv)
    QForeachContainer<QList<QtMobility::QOrganizerCollectionId>>::condition() const 0x0001b7ad   Thumb Code    40  qorganizersymbian.o(t._ZNK17QForeachContainerI5QListIN10QtMobility22QOrganizerCollectionIdEEE9conditionEv)
    QForeachContainer<QList<OrganizerItemDetailTransform*>>::condition() const 0x0001b7d5   Thumb Code    40  organizeritemtransform.o(t._ZNK17QForeachContainerI5QListIP28OrganizerItemDetailTransformEE9conditionEv)
    QMap<QString, QVariant>::mutableFindNode(QMapData::Node**, const QString&) const 0x0001b7fd   Thumb Code   108  organizersymbianutils.o(t._ZNK4QMapI7QString8QVariantE15mutableFindNodeEPPN8QMapData4NodeERKS0_)
    QMap<QString, QVariant>::keys() const    0x0001b869   Thumb Code   110  organizersymbianutils.o(t._ZNK4QMapI7QString8QVariantE4keysEv)
    QMap<QString, QVariant>::value(const QString&) const 0x0001b8e7   Thumb Code   196  organizersymbianutils.o(t._ZNK4QMapI7QString8QVariantE5valueERKS0_)
    QMap<QString, QVariant>::contains(const QString&) const 0x0001b9ab   Thumb Code   122  qorganizersymbian.o(t._ZNK4QMapI7QString8QVariantE8containsERKS0_)
    QMap<QString, QtMobility::QOrganizerItemDetailDefinition>::mutableFindNode(QMapData::Node**, const QString&) const 0x0001ba25   Thumb Code   108  organizeritemlocationtransform.o(t._ZNK4QMapI7QStringN10QtMobility30QOrganizerItemDetailDefinitionEE15mutableFindNodeEPPN8QMapData4NodeERKS0_)
    QMap<QString, QtMobility::QOrganizerItemDetailDefinition>::keys() const 0x0001ba91   Thumb Code   104  organizeritemtransform.o(t._ZNK4QMapI7QStringN10QtMobility30QOrganizerItemDetailDefinitionEE4keysEv)
    QMap<QString, QtMobility::QOrganizerItemDetailDefinition>::findNode(const QString&) const 0x0001bb03   Thumb Code   104  organizeritemrecurrencetransform.o(t._ZNK4QMapI7QStringN10QtMobility30QOrganizerItemDetailDefinitionEE8findNodeERKS0_)
    QMap<QString, QtMobility::QOrganizerItemDetailFieldDefinition>::mutableFindNode(QMapData::Node**, const QString&) const 0x0001bb6b   Thumb Code   108  organizeritemlocationtransform.o(t._ZNK4QMapI7QStringN10QtMobility35QOrganizerItemDetailFieldDefinitionEE15mutableFindNodeEPPN8QMapData4NodeERKS0_)
    QMap<QString, QtMobility::QOrganizerItemDetailFieldDefinition>::keys() const 0x0001bbd7   Thumb Code   104  organizeritemtransform.o(t._ZNK4QMapI7QStringN10QtMobility35QOrganizerItemDetailFieldDefinitionEE4keysEv)
    QMap<QString, QMap<QString, QtMobility::QOrganizerItemDetailDefinition>>::mutableFindNode(QMapData::Node**, const QString&) const 0x0001bc49   Thumb Code   108  organizeritemtransform.o(t._ZNK4QMapI7QStringS_IS0_N10QtMobility30QOrganizerItemDetailDefinitionEEE15mutableFindNodeEPPN8QMapData4NodeERKS0_)
    QMap<QString, QMap<QString, QtMobility::QOrganizerItemDetailDefinition>>::keys() const 0x0001bcb5   Thumb Code   104  organizeritemtransform.o(t._ZNK4QMapI7QStringS_IS0_N10QtMobility30QOrganizerItemDetailDefinitionEEE4keysEv)
    QMap<QString, QMap<QString, QtMobility::QOrganizerItemDetailDefinition>>::value(const QString&) const 0x0001bd27   Thumb Code   160  organizeritemtransform.o(t._ZNK4QMapI7QStringS_IS0_N10QtMobility30QOrganizerItemDetailDefinitionEEE5valueERKS0_)
    QMap<QString, QMap<QString, QtMobility::QOrganizerItemDetailDefinition>>::isEmpty() const 0x0001bdc7   Thumb Code    18  qorganizersymbian.o(t._ZNK4QMapI7QStringS_IS0_N10QtMobility30QOrganizerItemDetailDefinitionEEE7isEmptyEv)
    QMap<QString, QMap<QString, QtMobility::QOrganizerItemDetailDefinition>>::findNode(const QString&) const 0x0001bdd9   Thumb Code   104  qorganizersymbian.o(t._ZNK4QMapI7QStringS_IS0_N10QtMobility30QOrganizerItemDetailDefinitionEEE8findNodeERKS0_)
    QMap<QtMobility::QOrganizerCollectionId, OrganizerSymbianCollection>::const_iterator::operator !=(const QMap<QtMobility::QOrganizerCollectionId, OrganizerSymbianCollection>::const_iterator&) const 0x0001be41   Thumb Code    18  qorganizersymbian.o(t._ZNK4QMapIN10QtMobility22QOrganizerCollectionIdE26OrganizerSymbianCollectionE14const_iteratorneERKS4_)
    QMap<QtMobility::QOrganizerCollectionId, OrganizerSymbianCollection>::mutableFindNode(QMapData::Node**, const QtMobility::QOrganizerCollectionId&) const 0x0001be53   Thumb Code   108  qorganizersymbian.o(t._ZNK4QMapIN10QtMobility22QOrganizerCollectionIdE26OrganizerSymbianCollectionE15mutableFindNodeEPPN8QMapData4NodeERKS1_)
    QMap<QtMobility::QOrganizerCollectionId, OrganizerSymbianCollection>::keys() const 0x0001bebf   Thumb Code    98  qorganizersymbian.o(t._ZNK4QMapIN10QtMobility22QOrganizerCollectionIdE26OrganizerSymbianCollectionE4keysEv)
    QMap<QtMobility::QOrganizerCollectionId, OrganizerSymbianCollection>::values() const 0x0001bf2b   Thumb Code    98  qorganizersymbian.o(t._ZNK4QMapIN10QtMobility22QOrganizerCollectionIdE26OrganizerSymbianCollectionE6valuesEv)
    QMap<QtMobility::QOrganizerCollectionId, OrganizerSymbianCollection>::contains(const QtMobility::QOrganizerCollectionId&) const 0x0001bf97   Thumb Code    28  qorganizersymbian.o(t._ZNK4QMapIN10QtMobility22QOrganizerCollectionIdE26OrganizerSymbianCollectionE8containsERKS1_)
    QMap<QtMobility::QOrganizerCollectionId, OrganizerSymbianCollection>::findNode(const QtMobility::QOrganizerCollectionId&) const 0x0001bfb3   Thumb Code   104  qorganizersymbian.o(t._ZNK4QMapIN10QtMobility22QOrganizerCollectionIdE26OrganizerSymbianCollectionE8findNodeERKS1_)
    QMap<QtMobility::QOrganizerCollectionId, OrganizerSymbianCollection>::operator [](const QtMobility::QOrganizerCollectionId&) const 0x0001c01b   Thumb Code    70  qorganizersymbian.o(t._ZNK4QMapIN10QtMobility22QOrganizerCollectionIdE26OrganizerSymbianCollectionEixERKS1_)
    QMap<QtMobility::QOrganizerAbstractRequest*, COrganizerItemRequestsServiceProvider*>::const_iterator::operator !=(const QMap<QtMobility::QOrganizerAbstractRequest*, COrganizerItemRequestsServiceProvider*>::const_iterator&) const 0x0001c061   Thumb Code    18  qorganizeritemrequestqueue.o(t._ZNK4QMapIPN10QtMobility25QOrganizerAbstractRequestEP37COrganizerItemRequestsServiceProviderE14const_iteratorneERKS6_)
    QMap<QtMobility::QOrganizerAbstractRequest*, COrganizerItemRequestsServiceProvider*>::mutableFindNode(QMapData::Node**, QtMobility::QOrganizerAbstractRequest*const &) const 0x0001c073   Thumb Code   108  qorganizeritemrequestqueue.o(t._ZNK4QMapIPN10QtMobility25QOrganizerAbstractRequestEP37COrganizerItemRequestsServiceProviderE15mutableFindNodeEPPN8QMapData4NodeERKS2_)
    QMap<QtMobility::QOrganizerAbstractRequest*, COrganizerItemRequestsServiceProvider*>::keys() const 0x0001c0e1   Thumb Code   104  qorganizeritemrequestqueue.o(t._ZNK4QMapIPN10QtMobility25QOrganizerAbstractRequestEP37COrganizerItemRequestsServiceProviderE4keysEv)
    QMap<int, QtMobility::QOrganizerManager::Error>::const_iterator::operator !=(const QMap<int, QtMobility::QOrganizerManager::Error>::const_iterator&) const 0x0001c157   Thumb Code    18  organizeritemrequestserviceprovider.o(t._ZNK4QMapIiN10QtMobility17QOrganizerManager5ErrorEE14const_iteratorneERKS4_)
    QMap<int, QtMobility::QOrganizerManager::Error>::mutableFindNode(QMapData::Node**, const int&) const 0x0001c169   Thumb Code   108  organizeritemrequestserviceprovider.o(t._ZNK4QMapIiN10QtMobility17QOrganizerManager5ErrorEE15mutableFindNodeEPPN8QMapData4NodeERKi)
    QMap<int, QtMobility::QOrganizerManager::Error>::keys() const 0x0001c1d5   Thumb Code   104  organizeritemrequestserviceprovider.o(t._ZNK4QMapIiN10QtMobility17QOrganizerManager5ErrorEE4keysEv)
    QMap<int, QtMobility::QOrganizerManager::Error>::values() const 0x0001c24d   Thumb Code   104  organizeritemrequestserviceprovider.o(t._ZNK4QMapIiN10QtMobility17QOrganizerManager5ErrorEE6valuesEv)
    QSet<QtMobility::QOrganizerItemId>::toList() const 0x0001c2c3   Thumb Code   158  qorganizersymbian.o(t._ZNK4QSetIN10QtMobility16QOrganizerItemIdEE6toListEv)
    QSet<QtMobility::QOrganizerCollectionId>::toList() const 0x0001c36b   Thumb Code   158  qorganizersymbian.o(t._ZNK4QSetIN10QtMobility22QOrganizerCollectionIdEE6toListEv)
    QSet<QtMobility::QOrganizerRecurrenceRule>::toList() const 0x0001c415   Thumb Code   164  organizeritemrecurrencetransform.o(t._ZNK4QSetIN10QtMobility24QOrganizerRecurrenceRuleEE6toListEv)
    QSet<Qt::DayOfWeek>::isEmpty() const     0x0001c4c7   Thumb Code    20  organizeritemrecurrencetransform.o(t._ZNK4QSetIN2Qt9DayOfWeekEE7isEmptyEv)
    QSet<int>::isEmpty() const               0x0001c4db   Thumb Code    20  organizeritemrecurrencetransform.o(t._ZNK4QSetIiE7isEmptyEv)
    QHash<QDate, QHashDummyValue>::findNode(const QDate&, unsigned*) const 0x0001c4ef   Thumb Code   114  organizeritemrecurrencetransform.o(t._ZNK5QHashI5QDate15QHashDummyValueE8findNodeERKS0_Pj)
    QHash<QtMobility::QOrganizerItemId, QHashDummyValue>::findNode(const QtMobility::QOrganizerItemId&, unsigned*) const 0x0001c561   Thumb Code   116  qorganizersymbian.o(t._ZNK5QHashIN10QtMobility16QOrganizerItemIdE15QHashDummyValueE8findNodeERKS1_Pj)
    QHash<QtMobility::QOrganizerCollectionId, QHashDummyValue>::findNode(const QtMobility::QOrganizerCollectionId&, unsigned*) const 0x0001c5d5   Thumb Code   116  qorganizersymbian.o(t._ZNK5QHashIN10QtMobility22QOrganizerCollectionIdE15QHashDummyValueE8findNodeERKS1_Pj)
    QHash<QtMobility::QOrganizerRecurrenceRule::Month, QHashDummyValue>::findNode(const QtMobility::QOrganizerRecurrenceRule::Month&, unsigned*) const 0x0001c649   Thumb Code   100  organizeritemrecurrencetransform.o(t._ZNK5QHashIN10QtMobility24QOrganizerRecurrenceRule5MonthE15QHashDummyValueE8findNodeERKS2_Pj)
    QHash<QtMobility::QOrganizerRecurrenceRule, QHashDummyValue>::findNode(const QtMobility::QOrganizerRecurrenceRule&, unsigned*) const 0x0001c6ad   Thumb Code   116  organizeritemrecurrencetransform.o(t._ZNK5QHashIN10QtMobility24QOrganizerRecurrenceRuleE15QHashDummyValueE8findNodeERKS1_Pj)
    QHash<Qt::DayOfWeek, QHashDummyValue>::findNode(const Qt::DayOfWeek&, unsigned*) const 0x0001c721   Thumb Code   100  organizeritemrecurrencetransform.o(t._ZNK5QHashIN2Qt9DayOfWeekE15QHashDummyValueE8findNodeERKS1_Pj)
    QHash<int, QHashDummyValue>::findNode(const int&, unsigned*) const 0x0001c785   Thumb Code    94  organizeritemrecurrencetransform.o(t._ZNK5QHashIi15QHashDummyValueE8findNodeERKiPj)
    QList<QString>::contains(const QString&) const 0x0001c7e3   Thumb Code    74  organizersymbianutils.o(t._ZNK5QListI7QStringE8containsERKS0_)
    QList<QtMobility::QOrganizerItem>::isEmpty() const 0x0001c82d   Thumb Code    24  organizeritemrequestserviceprovider.o(t._ZNK5QListIN10QtMobility14QOrganizerItemEE7isEmptyEv)
    QList<QtMobility::QOrganizerItemId>::at(int) const 0x0001c845   Thumb Code    54  organizeritemrequestserviceprovider.o(t._ZNK5QListIN10QtMobility16QOrganizerItemIdEE2atEi)
    QList<QtMobility::QOrganizerItemId>::count() const 0x0001c8c5   Thumb Code    12  organizeritemrequestserviceprovider.o(t._ZNK5QListIN10QtMobility16QOrganizerItemIdEE5countEv)
    QList<QtMobility::QOrganizerManager::Error>::at(int) const 0x0001c8d1   Thumb Code    54  organizeritemrequestserviceprovider.o(t._ZNK5QListIN10QtMobility17QOrganizerManager5ErrorEE2atEi)
    QList<QtMobility::QOrganizerCollectionId>::isEmpty() const 0x0001c951   Thumb Code    24  qorganizersymbian.o(t._ZNK5QListIN10QtMobility22QOrganizerCollectionIdEE7isEmptyEv)
    QList<QtMobility::QOrganizerAbstractRequest*>::contains(QtMobility::QOrganizerAbstractRequest*const &) const 0x0001c969   Thumb Code    66  qorganizeritemrequestqueue.o(t._ZNK5QListIPN10QtMobility25QOrganizerAbstractRequestEE8containsERKS2_)
    QOrganizerItemRequestQueue::staticMetaObject 0x000202e8   Data          16  moc_qorganizeritemrequestqueue.o(.constdata)
    QOrganizerItemSymbianFactory::staticMetaObject 0x000203b0   Data          16  moc_qorganizersymbian_p.o(.constdata)
    QOrganizerItemSymbianEngine::staticMetaObject 0x000203c0   Data          16  moc_qorganizersymbian_p.o(.constdata)
    OrganizerSymbianCollection::KeyIsValid   0x0002059f   Data           8  organizersymbiancollection.o(.constdata)
    OrganizerSymbianCollection::KeyFileName  0x000205a7   Data           9  organizersymbiancollection.o(.constdata)
    OrganizerSymbianCollection::KeyEnabled   0x000205b0   Data           8  organizersymbiancollection.o(.constdata)
    OrganizerSymbianCollection::KeyFolderLUID 0x000205b8   Data          11  organizersymbiancollection.o(.constdata)
    OrganizerSymbianCollection::KeyCreationTime 0x000205c3   Data          13  organizersymbiancollection.o(.constdata)
    OrganizerSymbianCollection::KeyModificationTime 0x000205d0   Data          17  organizersymbiancollection.o(.constdata)
    OrganizerSymbianCollection::KeySyncStatus 0x000205e1   Data          11  organizersymbiancollection.o(.constdata)
    OrganizerSymbianCollection::KeyIsSharedFolder 0x000205ec   Data          15  organizersymbiancollection.o(.constdata)
    OrganizerSymbianCollection::KeyGlobalUUID 0x000205fb   Data          11  organizersymbiancollection.o(.constdata)
    OrganizerSymbianCollection::KeyDeviceSyncServiceOwner 0x00020606   Data          23  organizersymbiancollection.o(.constdata)
    OrganizerSymbianCollection::KeyOwnerName 0x0002061d   Data          10  organizersymbiancollection.o(.constdata)
    OrganizerSymbianCollection::KeyMarkAsDelete 0x00020627   Data          13  organizersymbiancollection.o(.constdata)
    stlp_priv::_Integer_limits<signed char, (signed char)-128, (signed char)127, (int)-1, (bool)1>::digits 0x00020634   Data           4  moc_qorganizeritemrequestqueue.o(.constdata__ZN9stlp_priv15_Integer_limitsIaLan128ELa127ELin1ELb1EE6digitsE)
    stlp_priv::_Integer_limits<bool, (bool)0, (bool)1, (int)1, (bool)0>::digits 0x00020638   Data           4  moc_qorganizeritemrequestqueue.o(.constdata__ZN9stlp_priv15_Integer_limitsIbLb0ELb1ELi1ELb0EE6digitsE)
    stlp_priv::_Integer_limits<char, (char)128, (char)127, (int)-1, (bool)1>::digits 0x0002063c   Data           4  moc_qorganizeritemrequestqueue.o(.constdata__ZN9stlp_priv15_Integer_limitsIcLc128ELc127ELin1ELb1EE6digitsE)
    stlp_priv::_Integer_limits<unsigned char, (unsigned char)0, (unsigned char)255, (int)-1, (bool)1>::digits 0x00020640   Data           4  moc_qorganizeritemrequestqueue.o(.constdata__ZN9stlp_priv15_Integer_limitsIhLh0ELh255ELin1ELb1EE6digitsE)
    stlp_priv::_Integer_limits<int, (int)-2147483648, (int)2147483647, (int)-1, (bool)1>::digits 0x00020644   Data           4  moc_qorganizeritemrequestqueue.o(.constdata__ZN9stlp_priv15_Integer_limitsIiLin2147483648ELi2147483647ELin1ELb1EE6digitsE)
    stlp_priv::_Integer_limits<int, (int)-2147483648, (int)2147483647, (int)-1, (bool)1>::is_signed 0x00020648   Data           1  moc_qorganizeritemrequestqueue.o(.constdata__ZN9stlp_priv15_Integer_limitsIiLin2147483648ELi2147483647ELin1ELb1EE9is_signedE)
    stlp_priv::_Integer_limits<unsigned, (unsigned)0, (unsigned)4294967295, (int)-1, (bool)1>::digits 0x0002064c   Data           4  moc_qorganizeritemrequestqueue.o(.constdata__ZN9stlp_priv15_Integer_limitsIjLj0ELj4294967295ELin1ELb1EE6digitsE)
    stlp_priv::_Integer_limits<long, (long)-2147483648, (long)2147483647, (int)-1, (bool)1>::digits 0x00020650   Data           4  moc_qorganizeritemrequestqueue.o(.constdata__ZN9stlp_priv15_Integer_limitsIlLln2147483648ELl2147483647ELin1ELb1EE6digitsE)
    stlp_priv::_Integer_limits<unsigned long, (unsigned long)0, (unsigned long)4294967295, (int)-1, (bool)1>::digits 0x00020654   Data           4  moc_qorganizeritemrequestqueue.o(.constdata__ZN9stlp_priv15_Integer_limitsImLm0ELm4294967295ELin1ELb1EE6digitsE)
    stlp_priv::_Integer_limits<short, (short)-32768, (short)32767, (int)-1, (bool)1>::digits 0x00020658   Data           4  moc_qorganizeritemrequestqueue.o(.constdata__ZN9stlp_priv15_Integer_limitsIsLsn32768ELs32767ELin1ELb1EE6digitsE)
    stlp_priv::_Integer_limits<unsigned short, (unsigned short)0, (unsigned short)65535, (int)-1, (bool)1>::digits 0x0002065c   Data           4  moc_qorganizeritemrequestqueue.o(.constdata__ZN9stlp_priv15_Integer_limitsItLt0ELt65535ELin1ELb1EE6digitsE)
    stlp_priv::_Integer_limits<wchar_t, (wchar_t)0, (wchar_t)65535, (int)-1, (bool)1>::digits 0x00020660   Data           4  moc_qorganizeritemrequestqueue.o(.constdata__ZN9stlp_priv15_Integer_limitsIwLw0ELw65535ELin1ELb1EE6digitsE)
    stlp_priv::_Integer_limits<long long, (long long)-9223372036854775808, (long long)9223372036854775807, (int)-1, (bool)1>::digits 0x00020664   Data           4  moc_qorganizeritemrequestqueue.o(.constdata__ZN9stlp_priv15_Integer_limitsIxLxn9223372036854775808ELx9223372036854775807ELin1ELb1EE6digitsE)
    stlp_priv::_Integer_limits<unsigned long long, (unsigned long long)0, (unsigned long long)18446744073709551615, (int)-1, (bool)1>::digits 0x00020668   Data           4  moc_qorganizeritemrequestqueue.o(.constdata__ZN9stlp_priv15_Integer_limitsIyLy0ELy18446744073709551615ELin1ELb1EE6digitsE)
    typeinfo for QSharedData                 0x0002066c   Data           8  qorganizersymbian.o(.constdata__ZTI11QSharedData)
    typeinfo for MCalChangeCallBack2         0x00020674   Data           8  organizersymbiancollection.o(.constdata__ZTI19MCalChangeCallBack2)
    typeinfo for MCalProgressCallBack        0x0002067c   Data           8  organizersymbiancollection.o(.constdata__ZTI20MCalProgressCallBack)
    typeinfo for MCalFileChangeObserver      0x00020684   Data           8  moc_qorganizersymbian_p.o(.constdata__ZTI22MCalFileChangeObserver)
    typeinfo for OrganizerItemGuidTransform  0x0002068c   Data          12  organizeritemguidtransform.o(.constdata__ZTI26OrganizerItemGuidTransform)
    typeinfo for OrganizerItemTypeTransform  0x00020698   Data          12  organizeritemtypetransform.o(.constdata__ZTI26OrganizerItemTypeTransform)
    typeinfo for OrganizerTodoTimeTransform  0x000206a4   Data          12  organizertodotimerangetransform.o(.constdata__ZTI26OrganizerTodoTimeTransform)
    typeinfo for QOrganizerItemRequestQueue  0x000206b0   Data          12  moc_qorganizeritemrequestqueue.o(.constdata__ZTI26QOrganizerItemRequestQueue)
    typeinfo for OrganizerEventTimeTransform 0x000206bc   Data          12  organizereventtimerangetransform.o(.constdata__ZTI27OrganizerEventTimeTransform)
    typeinfo for QOrganizerItemSymbianEngine 0x000206c8   Data          32  moc_qorganizersymbian_p.o(.constdata__ZTI27QOrganizerItemSymbianEngine)
    typeinfo for OrganizerItemDetailTransform 0x000206e8   Data           8  organizeritemdetailtransform.o(.constdata__ZTI28OrganizerItemDetailTransform)
    typeinfo for OrganizerItemParentTransform 0x000206f0   Data          12  organizeritemparenttransform.o(.constdata__ZTI28OrganizerItemParentTransform)
    typeinfo for QOrganizerItemSymbianFactory 0x000206fc   Data          32  moc_qorganizersymbian_p.o(.constdata__ZTI28QOrganizerItemSymbianFactory)
    typeinfo for OrganizerJournalTimeTransform 0x0002071c   Data          12  organizerjournaltimerangetransform.o(.constdata__ZTI29OrganizerJournalTimeTransform)
    typeinfo for QOrganizerItemSymbianEngineId 0x00020728   Data          12  qorganizersymbian.o(.constdata__ZTI29QOrganizerItemSymbianEngineId)
    typeinfo for OrganizerItemLocationTransform 0x00020734   Data          12  organizeritemlocationtransform.o(.constdata__ZTI30OrganizerItemLocationTransform)
    typeinfo for OrganizerItemPriorityTransform 0x00020740   Data          12  organizeritemprioritytransform.o(.constdata__ZTI30OrganizerItemPriorityTransform)
    typeinfo for OrganizerItemReminderTransform 0x0002074c   Data          12  organizeritemremindertransform.o(.constdata__ZTI30OrganizerItemReminderTransform)
    typeinfo for OrganizerTodoProgressTransform 0x00020758   Data          12  organizertodoprogresstransform.o(.constdata__ZTI30OrganizerTodoProgressTransform)
    typeinfo for OrganizerItemTimeStampTransform 0x00020764   Data          12  organizeritemtimestamptransform.o(.constdata__ZTI31OrganizerItemTimeStampTransform)
    typeinfo for OrganizerItemRecurrenceTransform 0x00020770   Data          12  organizeritemrecurrencetransform.o(.constdata__ZTI32OrganizerItemRecurrenceTransform)
    typeinfo for OrganizerItemDescriptionTransform 0x0002077c   Data          12  organizeritemdescriptiontransform.o(.constdata__ZTI33OrganizerItemDescriptionTransform)
    typeinfo for OrganizerSymbianCollectionPrivate 0x00020788   Data          40  organizersymbiancollection.o(.constdata__ZTI33OrganizerSymbianCollectionPrivate)
    typeinfo for OrganizerItemDisplayLabelTransform 0x000207b0   Data          12  organizeritemdisplaylabeltransform.o(.constdata__ZTI34OrganizerItemDisplayLabelTransform)
    typeinfo for QOrganizerCollectionSymbianEngineId 0x000207bc   Data          12  qorganizersymbian.o(.constdata__ZTI35QOrganizerCollectionSymbianEngineId)
    typeinfo for COrganizerItemRequestsServiceProvider 0x000207c8   Data          12  organizeritemrequestserviceprovider.o(.constdata__ZTI37COrganizerItemRequestsServiceProvider)
    typeinfo for QtMobility::QOrganizerItemEngineId 0x000207d4   Data          24  qorganizersymbian.o(.constdata__ZTIN10QtMobility22QOrganizerItemEngineIdE)
    typeinfo for QtMobility::QOrganizerCollectionEngineId 0x000207ec   Data          24  qorganizersymbian.o(.constdata__ZTIN10QtMobility28QOrganizerCollectionEngineIdE)
    typeinfo for QtSharedPointer::ExternalRefCountData 0x00020804   Data           8  organizeritemrequestserviceprovider.o(.constdata__ZTIN15QtSharedPointer20ExternalRefCountDataE)
    typeinfo name for QSharedData            0x0002080c   Data          14  qorganizersymbian.o(.constdata__ZTS11QSharedData)
    typeinfo name for MCalChangeCallBack2    0x0002081a   Data          22  organizersymbiancollection.o(.constdata__ZTS19MCalChangeCallBack2)
    typeinfo name for MCalProgressCallBack   0x00020830   Data          23  organizersymbiancollection.o(.constdata__ZTS20MCalProgressCallBack)
    typeinfo name for MCalFileChangeObserver 0x00020847   Data          25  moc_qorganizersymbian_p.o(.constdata__ZTS22MCalFileChangeObserver)
    typeinfo name for OrganizerItemGuidTransform 0x00020860   Data          29  organizeritemguidtransform.o(.constdata__ZTS26OrganizerItemGuidTransform)
    typeinfo name for OrganizerItemTypeTransform 0x0002087d   Data          29  organizeritemtypetransform.o(.constdata__ZTS26OrganizerItemTypeTransform)
    typeinfo name for OrganizerTodoTimeTransform 0x0002089a   Data          29  organizertodotimerangetransform.o(.constdata__ZTS26OrganizerTodoTimeTransform)
    typeinfo name for QOrganizerItemRequestQueue 0x000208b7   Data          29  moc_qorganizeritemrequestqueue.o(.constdata__ZTS26QOrganizerItemRequestQueue)
    typeinfo name for OrganizerEventTimeTransform 0x000208d4   Data          30  organizereventtimerangetransform.o(.constdata__ZTS27OrganizerEventTimeTransform)
    typeinfo name for QOrganizerItemSymbianEngine 0x000208f2   Data          30  moc_qorganizersymbian_p.o(.constdata__ZTS27QOrganizerItemSymbianEngine)
    typeinfo name for OrganizerItemDetailTransform 0x00020910   Data          31  organizeritemdetailtransform.o(.constdata__ZTS28OrganizerItemDetailTransform)
    typeinfo name for OrganizerItemParentTransform 0x0002092f   Data          31  organizeritemparenttransform.o(.constdata__ZTS28OrganizerItemParentTransform)
    typeinfo name for QOrganizerItemSymbianFactory 0x0002094e   Data          31  moc_qorganizersymbian_p.o(.constdata__ZTS28QOrganizerItemSymbianFactory)
    typeinfo name for OrganizerJournalTimeTransform 0x0002096d   Data          32  organizerjournaltimerangetransform.o(.constdata__ZTS29OrganizerJournalTimeTransform)
    typeinfo name for QOrganizerItemSymbianEngineId 0x0002098d   Data          32  qorganizersymbian.o(.constdata__ZTS29QOrganizerItemSymbianEngineId)
    typeinfo name for OrganizerItemLocationTransform 0x000209ad   Data          33  organizeritemlocationtransform.o(.constdata__ZTS30OrganizerItemLocationTransform)
    typeinfo name for OrganizerItemPriorityTransform 0x000209ce   Data          33  organizeritemprioritytransform.o(.constdata__ZTS30OrganizerItemPriorityTransform)
    typeinfo name for OrganizerItemReminderTransform 0x000209ef   Data          33  organizeritemremindertransform.o(.constdata__ZTS30OrganizerItemReminderTransform)
    typeinfo name for OrganizerTodoProgressTransform 0x00020a10   Data          33  organizertodoprogresstransform.o(.constdata__ZTS30OrganizerTodoProgressTransform)
    typeinfo name for OrganizerItemTimeStampTransform 0x00020a31   Data          34  organizeritemtimestamptransform.o(.constdata__ZTS31OrganizerItemTimeStampTransform)
    typeinfo name for OrganizerItemRecurrenceTransform 0x00020a53   Data          35  organizeritemrecurrencetransform.o(.constdata__ZTS32OrganizerItemRecurrenceTransform)
    typeinfo name for OrganizerItemDescriptionTransform 0x00020a76   Data          36  organizeritemdescriptiontransform.o(.constdata__ZTS33OrganizerItemDescriptionTransform)
    typeinfo name for OrganizerSymbianCollectionPrivate 0x00020a9a   Data          36  organizersymbiancollection.o(.constdata__ZTS33OrganizerSymbianCollectionPrivate)
    typeinfo name for OrganizerItemDisplayLabelTransform 0x00020abe   Data          37  organizeritemdisplaylabeltransform.o(.constdata__ZTS34OrganizerItemDisplayLabelTransform)
    typeinfo name for QOrganizerCollectionSymbianEngineId 0x00020ae3   Data          38  qorganizersymbian.o(.constdata__ZTS35QOrganizerCollectionSymbianEngineId)
    typeinfo name for COrganizerItemRequestsServiceProvider 0x00020b09   Data          40  organizeritemrequestserviceprovider.o(.constdata__ZTS37COrganizerItemRequestsServiceProvider)
    typeinfo name for QtMobility::QOrganizerItemEngineId 0x00020b31   Data          39  qorganizersymbian.o(.constdata__ZTSN10QtMobility22QOrganizerItemEngineIdE)
    typeinfo name for QtMobility::QOrganizerCollectionEngineId 0x00020b58   Data          45  qorganizersymbian.o(.constdata__ZTSN10QtMobility28QOrganizerCollectionEngineIdE)
    typeinfo name for QtSharedPointer::ExternalRefCountData 0x00020b85   Data          42  organizeritemrequestserviceprovider.o(.constdata__ZTSN15QtSharedPointer20ExternalRefCountDataE)
    vtable for MCalChangeCallBack2           0x00020bb0   Data          12  organizersymbiancollection.o(.constdata__ZTV19MCalChangeCallBack2)
    vtable for MCalProgressCallBack          0x00020bbc   Data          20  organizersymbiancollection.o(.constdata__ZTV20MCalProgressCallBack)
    vtable for MCalFileChangeObserver        0x00020bd0   Data          12  qorganizersymbian.o(.constdata__ZTV22MCalFileChangeObserver)
    vtable for OrganizerItemGuidTransform    0x00020bdc   Data          40  organizeritemguidtransform.o(.constdata__ZTV26OrganizerItemGuidTransform)
    vtable for OrganizerItemTypeTransform    0x00020c04   Data          40  organizeritemtypetransform.o(.constdata__ZTV26OrganizerItemTypeTransform)
    vtable for OrganizerTodoTimeTransform    0x00020c2c   Data          40  organizertodotimerangetransform.o(.constdata__ZTV26OrganizerTodoTimeTransform)
    vtable for QOrganizerItemRequestQueue    0x00020c54   Data          56  moc_qorganizeritemrequestqueue.o(.constdata__ZTV26QOrganizerItemRequestQueue)
    vtable for OrganizerEventTimeTransform   0x00020c8c   Data          40  organizereventtimerangetransform.o(.constdata__ZTV27OrganizerEventTimeTransform)
    vtable for QOrganizerItemSymbianEngine   0x00020cb4   Data         204  moc_qorganizersymbian_p.o(.constdata__ZTV27QOrganizerItemSymbianEngine)
    vtable for OrganizerItemDetailTransform  0x00020d80   Data          40  organizeritemdetailtransform.o(.constdata__ZTV28OrganizerItemDetailTransform)
    vtable for OrganizerItemParentTransform  0x00020da8   Data          40  organizeritemparenttransform.o(.constdata__ZTV28OrganizerItemParentTransform)
    vtable for QOrganizerItemSymbianFactory  0x00020dd0   Data         108  moc_qorganizersymbian_p.o(.constdata__ZTV28QOrganizerItemSymbianFactory)
    vtable for OrganizerJournalTimeTransform 0x00020e3c   Data          40  organizerjournaltimerangetransform.o(.constdata__ZTV29OrganizerJournalTimeTransform)
    vtable for QOrganizerItemSymbianEngineId 0x00020e64   Data          44  qorganizersymbian.o(.constdata__ZTV29QOrganizerItemSymbianEngineId)
    vtable for OrganizerItemLocationTransform 0x00020e90   Data          40  organizeritemlocationtransform.o(.constdata__ZTV30OrganizerItemLocationTransform)
    vtable for OrganizerItemPriorityTransform 0x00020eb8   Data          40  organizeritemprioritytransform.o(.constdata__ZTV30OrganizerItemPriorityTransform)
    vtable for OrganizerItemReminderTransform 0x00020ee0   Data          40  organizeritemremindertransform.o(.constdata__ZTV30OrganizerItemReminderTransform)
    vtable for OrganizerTodoProgressTransform 0x00020f08   Data          40  organizertodoprogresstransform.o(.constdata__ZTV30OrganizerTodoProgressTransform)
    vtable for OrganizerItemTimeStampTransform 0x00020f30   Data          40  organizeritemtimestamptransform.o(.constdata__ZTV31OrganizerItemTimeStampTransform)
    vtable for OrganizerItemRecurrenceTransform 0x00020f58   Data          40  organizeritemrecurrencetransform.o(.constdata__ZTV32OrganizerItemRecurrenceTransform)
    vtable for OrganizerItemDescriptionTransform 0x00020f80   Data          40  organizeritemdescriptiontransform.o(.constdata__ZTV33OrganizerItemDescriptionTransform)
    vtable for OrganizerSymbianCollectionPrivate 0x00020fa8   Data          36  organizersymbiancollection.o(.constdata__ZTV33OrganizerSymbianCollectionPrivate)
    vtable for OrganizerItemDisplayLabelTransform 0x00020fcc   Data          40  organizeritemdisplaylabeltransform.o(.constdata__ZTV34OrganizerItemDisplayLabelTransform)
    vtable for QOrganizerCollectionSymbianEngineId 0x00020ff4   Data          44  qorganizersymbian.o(.constdata__ZTV35QOrganizerCollectionSymbianEngineId)
    vtable for COrganizerItemRequestsServiceProvider 0x00021020   Data          32  organizeritemrequestserviceprovider.o(.constdata__ZTV37COrganizerItemRequestsServiceProvider)
    vtable for QtMobility::QOrganizerItemEngineId 0x00021040   Data          44  qorganizersymbian.o(.constdata__ZTVN10QtMobility22QOrganizerItemEngineIdE)
    vtable for QtMobility::QOrganizerCollectionEngineId 0x0002106c   Data          44  qorganizersymbian.o(.constdata__ZTVN10QtMobility28QOrganizerCollectionEngineIdE)
    vtable for QtSharedPointer::ExternalRefCountData 0x00021098   Data          20  organizeritemrequestserviceprovider.o(.constdata__ZTVN15QtSharedPointer20ExternalRefCountDataE)
    .ARM.exidx$$Base                         0x000210ac   Number         0  ucppinit.o(.ARM.exidx)
