ARM Linker, RVCT2.2 [Build 686]

================================================================================

Image Symbol Table

    Local Symbols

    Symbol Name                              Value     Ov Type        Size  Object(Section)

    ../../unhosted.s                         0x00000000   Number         0  switch8.o ABSOLUTE
    M:\\epoc32\\build\\euser\\c_e18a23aea4fd210f\\edll_lib\\armv5\\udeb\\uc_dll_.cpp 0x00000000   Number         0  uc_dll_.o ABSOLUTE
    M:\\sf\\os\\kernelhwsrv\\kernel\\eka\\compsupp\\rvct\\ucppinit.cpp 0x00000000   Number         0  ucppinit.o ABSOLUTE
    M:\epoc32\build\euser\c_e18a23aea4fd210f\edll_lib\armv5\udeb\uc_dll_.cpp 0x00000000   Number         0  uc_dll_.o ABSOLUTE
    M:\sf\os\kernelhwsrv\kernel\eka\compsupp\rvct\dllexp.cpp 0x00000000   Number         0  dllexp.o ABSOLUTE
    M:\sf\os\kernelhwsrv\kernel\eka\compsupp\rvct\ucppfini.cpp 0x00000000   Number         0  ucppfini.o ABSOLUTE
    M:\sf\os\kernelhwsrv\kernel\eka\compsupp\rvct\ucppinit.cpp 0x00000000   Number         0  ucppinit.o ABSOLUTE
    M:\sf\os\kernelhwsrv\kernel\eka\euser\epoc\arm\uc_dll.cpp 0x00000000   Number         0  uc_dll.o ABSOLUTE
    S:\sf\mw\qtmobility\src\organizer\details\qorganizeritemdetails.cpp 0x00000000   Number         0  qorganizeritemdetails.o ABSOLUTE
    S:\sf\mw\qtmobility\src\organizer\engines\qorganizeriteminvalidbackend.cpp 0x00000000   Number         0  qorganizeriteminvalidbackend.o ABSOLUTE
    S:\sf\mw\qtmobility\src\organizer\engines\qorganizeritemmemorybackend.cpp 0x00000000   Number         0  qorganizeritemmemorybackend.o ABSOLUTE
    S:\sf\mw\qtmobility\src\organizer\filters\qorganizeritemchangelogfilter.cpp 0x00000000   Number         0  qorganizeritemchangelogfilter.o ABSOLUTE
    S:\sf\mw\qtmobility\src\organizer\filters\qorganizeritemcollectionfilter.cpp 0x00000000   Number         0  qorganizeritemcollectionfilter.o ABSOLUTE
    S:\sf\mw\qtmobility\src\organizer\filters\qorganizeritemdetailfilter.cpp 0x00000000   Number         0  qorganizeritemdetailfilter.o ABSOLUTE
    S:\sf\mw\qtmobility\src\organizer\filters\qorganizeritemdetailrangefilter.cpp 0x00000000   Number         0  qorganizeritemdetailrangefilter.o ABSOLUTE
    S:\sf\mw\qtmobility\src\organizer\filters\qorganizeritemidfilter.cpp 0x00000000   Number         0  qorganizeritemidfilter.o ABSOLUTE
    S:\sf\mw\qtmobility\src\organizer\filters\qorganizeritemintersectionfilter.cpp 0x00000000   Number         0  qorganizeritemintersectionfilter.o ABSOLUTE
    S:\sf\mw\qtmobility\src\organizer\filters\qorganizeriteminvalidfilter.cpp 0x00000000   Number         0  qorganizeriteminvalidfilter.o ABSOLUTE
    S:\sf\mw\qtmobility\src\organizer\filters\qorganizeritemunionfilter.cpp 0x00000000   Number         0  qorganizeritemunionfilter.o ABSOLUTE
    S:\sf\mw\qtmobility\src\organizer\items\qorganizerevent.cpp 0x00000000   Number         0  qorganizerevent.o ABSOLUTE
    S:\sf\mw\qtmobility\src\organizer\items\qorganizereventoccurrence.cpp 0x00000000   Number         0  qorganizereventoccurrence.o ABSOLUTE
    S:\sf\mw\qtmobility\src\organizer\items\qorganizerjournal.cpp 0x00000000   Number         0  qorganizerjournal.o ABSOLUTE
    S:\sf\mw\qtmobility\src\organizer\items\qorganizernote.cpp 0x00000000   Number         0  qorganizernote.o ABSOLUTE
    S:\sf\mw\qtmobility\src\organizer\items\qorganizertodo.cpp 0x00000000   Number         0  qorganizertodo.o ABSOLUTE
    S:\sf\mw\qtmobility\src\organizer\items\qorganizertodooccurrence.cpp 0x00000000   Number         0  qorganizertodooccurrence.o ABSOLUTE
    S:\sf\mw\qtmobility\src\organizer\qorganizerabstractrequest.cpp 0x00000000   Number         0  qorganizerabstractrequest.o ABSOLUTE
    S:\sf\mw\qtmobility\src\organizer\qorganizercollection.cpp 0x00000000   Number         0  qorganizercollection.o ABSOLUTE
    S:\sf\mw\qtmobility\src\organizer\qorganizercollectionchangeset.cpp 0x00000000   Number         0  qorganizercollectionchangeset.o ABSOLUTE
    S:\sf\mw\qtmobility\src\organizer\qorganizercollectionengineid.cpp 0x00000000   Number         0  qorganizercollectionengineid.o ABSOLUTE
    S:\sf\mw\qtmobility\src\organizer\qorganizercollectionid.cpp 0x00000000   Number         0  qorganizercollectionid.o ABSOLUTE
    S:\sf\mw\qtmobility\src\organizer\qorganizeritem.cpp 0x00000000   Number         0  qorganizeritem.o ABSOLUTE
    S:\sf\mw\qtmobility\src\organizer\qorganizeritemchangeset.cpp 0x00000000   Number         0  qorganizeritemchangeset.o ABSOLUTE
    S:\sf\mw\qtmobility\src\organizer\qorganizeritemdetail.cpp 0x00000000   Number         0  qorganizeritemdetail.o ABSOLUTE
    S:\sf\mw\qtmobility\src\organizer\qorganizeritemdetaildefinition.cpp 0x00000000   Number         0  qorganizeritemdetaildefinition.o ABSOLUTE
    S:\sf\mw\qtmobility\src\organizer\qorganizeritemdetailfielddefinition.cpp 0x00000000   Number         0  qorganizeritemdetailfielddefinition.o ABSOLUTE
    S:\sf\mw\qtmobility\src\organizer\qorganizeritemengineid.cpp 0x00000000   Number         0  qorganizeritemengineid.o ABSOLUTE
    S:\sf\mw\qtmobility\src\organizer\qorganizeritemfetchhint.cpp 0x00000000   Number         0  qorganizeritemfetchhint.o ABSOLUTE
    S:\sf\mw\qtmobility\src\organizer\qorganizeritemfilter.cpp 0x00000000   Number         0  qorganizeritemfilter.o ABSOLUTE
    S:\sf\mw\qtmobility\src\organizer\qorganizeritemid.cpp 0x00000000   Number         0  qorganizeritemid.o ABSOLUTE
    S:\sf\mw\qtmobility\src\organizer\qorganizeritemsortorder.cpp 0x00000000   Number         0  qorganizeritemsortorder.o ABSOLUTE
    S:\sf\mw\qtmobility\src\organizer\qorganizermanager.cpp 0x00000000   Number         0  qorganizermanager.o ABSOLUTE
    S:\sf\mw\qtmobility\src\organizer\qorganizermanager_p.cpp 0x00000000   Number         0  qorganizermanager_p.o ABSOLUTE
    S:\sf\mw\qtmobility\src\organizer\qorganizermanagerengine.cpp 0x00000000   Number         0  qorganizermanagerengine.o ABSOLUTE
    S:\sf\mw\qtmobility\src\organizer\qorganizermanagerenginefactory.cpp 0x00000000   Number         0  qorganizermanagerenginefactory.o ABSOLUTE
    S:\sf\mw\qtmobility\src\organizer\qorganizerrecurrencerule.cpp 0x00000000   Number         0  qorganizerrecurrencerule.o ABSOLUTE
    S:\sf\mw\qtmobility\src\organizer\requests\qorganizercollectionfetchrequest.cpp 0x00000000   Number         0  qorganizercollectionfetchrequest.o ABSOLUTE
    S:\sf\mw\qtmobility\src\organizer\requests\qorganizercollectionremoverequest.cpp 0x00000000   Number         0  qorganizercollectionremoverequest.o ABSOLUTE
    S:\sf\mw\qtmobility\src\organizer\requests\qorganizercollectionsaverequest.cpp 0x00000000   Number         0  qorganizercollectionsaverequest.o ABSOLUTE
    S:\sf\mw\qtmobility\src\organizer\requests\qorganizeritemdetaildefinitionfetchrequest.cpp 0x00000000   Number         0  qorganizeritemdetaildefinitionfetchrequest.o ABSOLUTE
    S:\sf\mw\qtmobility\src\organizer\requests\qorganizeritemdetaildefinitionremoverequest.cpp 0x00000000   Number         0  qorganizeritemdetaildefinitionremoverequest.o ABSOLUTE
    S:\sf\mw\qtmobility\src\organizer\requests\qorganizeritemdetaildefinitionsaverequest.cpp 0x00000000   Number         0  qorganizeritemdetaildefinitionsaverequest.o ABSOLUTE
    S:\sf\mw\qtmobility\src\organizer\requests\qorganizeritemfetchforexportrequest.cpp 0x00000000   Number         0  qorganizeritemfetchforexportrequest.o ABSOLUTE
    S:\sf\mw\qtmobility\src\organizer\requests\qorganizeritemfetchrequest.cpp 0x00000000   Number         0  qorganizeritemfetchrequest.o ABSOLUTE
    S:\sf\mw\qtmobility\src\organizer\requests\qorganizeritemidfetchrequest.cpp 0x00000000   Number         0  qorganizeritemidfetchrequest.o ABSOLUTE
    S:\sf\mw\qtmobility\src\organizer\requests\qorganizeritemoccurrencefetchrequest.cpp 0x00000000   Number         0  qorganizeritemoccurrencefetchrequest.o ABSOLUTE
    S:\sf\mw\qtmobility\src\organizer\requests\qorganizeritemremoverequest.cpp 0x00000000   Number         0  qorganizeritemremoverequest.o ABSOLUTE
    S:\sf\mw\qtmobility\src\organizer\requests\qorganizeritemsaverequest.cpp 0x00000000   Number         0  qorganizeritemsaverequest.o ABSOLUTE
    .emb_text                                0x00008000   Section       40  uc_dll_.o(.emb_text)
    Symbian$$eit_base                        0x00008014   Data           4  uc_dll_.o(.emb_text)
    Symbian$$eit_limit                       0x00008018   Data           4  uc_dll_.o(.emb_text)
    Symbian$$code_seg_base                   0x0000801c   Data           4  uc_dll_.o(.emb_text)
    Symbian$$code_seg_limit                  0x00008020   Data           4  uc_dll_.o(.emb_text)
    Symbian$$reserved                        0x00008024   Data           4  uc_dll_.o(.emb_text)
    .emb_text                                0x00008028   Section       52  ucppinit.o(.emb_text)
    loop                                     0x0000803c   ARM Code       0  ucppinit.o(.emb_text)
    ret                                      0x00008044   ARM Code       0  ucppinit.o(.emb_text)
    base                                     0x00008054   Data           0  ucppinit.o(.emb_text)
    limit                                    0x00008058   Data           0  ucppinit.o(.emb_text)
    .text                                    0x0000867c   Section     1514  qorganizercollection.o(.text)
    .text                                    0x00008c66   Section     1084  qorganizercollectionchangeset.o(.text)
    .text                                    0x000090a4   Section     1128  qorganizercollectionid.o(.text)
    .text                                    0x0000950c   Section     1196  qorganizerabstractrequest.o(.text)
    .text                                    0x000099b8   Section     1084  qorganizeritemchangeset.o(.text)
    .text                                    0x00009df4   Section     4908  qorganizeritem.o(.text)
    .text                                    0x0000b120   Section     2884  qorganizeritemdetail.o(.text)
    QtMobility::qClearAllocatedStringHash()  0x0000b793   Thumb Code   262  qorganizeritemdetail.o(.text)
    __sti___24_qorganizeritemdetail_cpp      0x0000bc0d   Thumb Code    54  qorganizeritemdetail.o(.text)
    .text                                    0x0000bc64   Section      806  qorganizeritemdetaildefinition.o(.text)
    .text                                    0x0000bf8a   Section      500  qorganizeritemdetailfielddefinition.o(.text)
    .text                                    0x0000c17e   Section      460  qorganizeritemfetchhint.o(.text)
    .text                                    0x0000c34a   Section      856  qorganizeritemfilter.o(.text)
    .text                                    0x0000c6a4   Section     1124  qorganizeritemid.o(.text)
    .text                                    0x0000cb08   Section     5864  qorganizermanager.o(.text)
    |L1.1880|                                0x0000d260   Data           0  qorganizermanager.o(.text)
    |L1.1972|                                0x0000d2bc   Data           0  qorganizermanager.o(.text)
    |L1.1984|                                0x0000d2c8   Data           0  qorganizermanager.o(.text)
    |L1.3460|                                0x0000d88c   Data           0  qorganizermanager.o(.text)
    .text                                    0x0000e1f0   Section    30400  qorganizermanagerengine.o(.text)
    .text                                    0x000158b0   Section       64  qorganizermanagerenginefactory.o(.text)
    .text                                    0x000158f0   Section     2460  qorganizerrecurrencerule.o(.text)
    .text                                    0x0001628c   Section      846  qorganizeritemsortorder.o(.text)
    QtMobility::qSymbian_CheckDir(const QDir&, RFs&) 0x000165dd   Thumb Code    86  qorganizermanager_p.o(.text)
    .text                                    0x000165dc   Section     3076  qorganizermanager_p.o(.text)
    QtMobility::qOrganizerItemsCleanEngines() 0x00016633   Thumb Code   160  qorganizermanager_p.o(.text)
    |L1.896|                                 0x0001695c   Data           0  qorganizermanager_p.o(.text)
    |L1.992|                                 0x000169bc   Data           0  qorganizermanager_p.o(.text)
    |L1.1064|                                0x00016a04   Data           0  qorganizermanager_p.o(.text)
    QtMobility::parameterValue(const QMap<QString, QString>&, const char*, int) 0x00016d81   Thumb Code   228  qorganizermanager_p.o(.text)
    __sti___23_qorganizermanager_p_cpp       0x0001716d   Thumb Code    36  qorganizermanager_p.o(.text)
    .text                                    0x000171e0   Section     1424  qorganizeritemdetails.o(.text)
    .text                                    0x00017770   Section       80  qorganizeriteminvalidbackend.o(.text)
    .text                                    0x000177c0   Section    20172  qorganizeritemmemorybackend.o(.text)
    __sti___31_qorganizeritemmemorybackend_cpp 0x0001c65d   Thumb Code    32  qorganizeritemmemorybackend.o(.text)
    .text                                    0x0001c68c   Section      156  qorganizeritemchangelogfilter.o(.text)
    .text                                    0x0001c728   Section      266  qorganizeritemdetailfilter.o(.text)
    .text                                    0x0001c832   Section      358  qorganizeritemdetailrangefilter.o(.text)
    .text                                    0x0001c998   Section      358  qorganizeritemintersectionfilter.o(.text)
    .text                                    0x0001cafe   Section       80  qorganizeriteminvalidfilter.o(.text)
    .text                                    0x0001cb4e   Section      222  qorganizeritemidfilter.o(.text)
    .text                                    0x0001cc2c   Section      158  qorganizeritemcollectionfilter.o(.text)
    .text                                    0x0001ccca   Section      358  qorganizeritemunionfilter.o(.text)
    .text                                    0x0001ce30   Section     1364  qorganizerevent.o(.text)
    .text                                    0x0001d384   Section      832  qorganizereventoccurrence.o(.text)
    .text                                    0x0001d6c4   Section      120  qorganizerjournal.o(.text)
    .text                                    0x0001d73c   Section     1440  qorganizertodo.o(.text)
    .text                                    0x0001dcdc   Section      988  qorganizertodooccurrence.o(.text)
    .text                                    0x0001e0b8   Section      248  qorganizercollectionfetchrequest.o(.text)
    .text                                    0x0001e1b0   Section      404  qorganizercollectionremoverequest.o(.text)
    .text                                    0x0001e344   Section      404  qorganizercollectionsaverequest.o(.text)
    .text                                    0x0001e4d8   Section      588  qorganizeritemdetaildefinitionfetchrequest.o(.text)
    .text                                    0x0001e724   Section      500  qorganizeritemdetaildefinitionremoverequest.o(.text)
    .text                                    0x0001e918   Section      484  qorganizeritemdetaildefinitionsaverequest.o(.text)
    .text                                    0x0001eafc   Section      720  qorganizeritemfetchrequest.o(.text)
    .text                                    0x0001edcc   Section      720  qorganizeritemfetchforexportrequest.o(.text)
    .text                                    0x0001f09c   Section      620  qorganizeritemoccurrencefetchrequest.o(.text)
    .text                                    0x0001f308   Section      636  qorganizeritemidfetchrequest.o(.text)
    .text                                    0x0001f584   Section      404  qorganizeritemremoverequest.o(.text)
    .text                                    0x0001f718   Section      404  qorganizeritemsaverequest.o(.text)
    .text                                    0x0001f8ac   Section       24  switch8.o(.text)
    .text                                    0x0001f8c4   Section       80  uc_dll.o(.text)
    .text                                    0x0001f914   Section      180  ucppfini.o(.text)
    .text                                    0x0001f9c8   Section        4  dllexp.o(.text)
    .text.clean                              0x0001f9cc   Section      166  qorganizercollection.o(.text.clean)
    .text.clean                              0x0001fa72   Section       94  qorganizercollectionchangeset.o(.text.clean)
    .text.clean                              0x0001fad0   Section      154  qorganizercollectionid.o(.text.clean)
    .text.clean                              0x0001fb6a   Section       64  qorganizerabstractrequest.o(.text.clean)
    .text.clean                              0x0001fbaa   Section       94  qorganizeritemchangeset.o(.text.clean)
    .text.clean                              0x0001fc08   Section      688  qorganizeritem.o(.text.clean)
    .text.clean                              0x0001feb8   Section      374  qorganizeritemdetail.o(.text.clean)
    .text.clean                              0x0002002e   Section       56  qorganizeritemdetaildefinition.o(.text.clean)
    .text.clean                              0x00020066   Section       40  qorganizeritemdetailfielddefinition.o(.text.clean)
    .text.clean                              0x0002008e   Section       38  qorganizeritemfetchhint.o(.text.clean)
    .text.clean                              0x000200b4   Section      102  qorganizeritemfilter.o(.text.clean)
    .text.clean                              0x0002011a   Section      154  qorganizeritemid.o(.text.clean)
    .text.clean                              0x000201b4   Section      620  qorganizermanager.o(.text.clean)
    .text.clean                              0x00020420   Section     5590  qorganizermanagerengine.o(.text.clean)
    .text.clean                              0x000219f6   Section      132  qorganizerrecurrencerule.o(.text.clean)
    .text.clean                              0x00021a7a   Section       58  qorganizeritemsortorder.o(.text.clean)
    .text.clean                              0x00021ab4   Section      368  qorganizermanager_p.o(.text.clean)
    .text.clean                              0x00021c24   Section      354  qorganizeritemdetails.o(.text.clean)
    .text.clean                              0x00021d86   Section     2962  qorganizeritemmemorybackend.o(.text.clean)
    .text.clean                              0x00022918   Section       24  qorganizeritemchangelogfilter.o(.text.clean)
    .text.clean                              0x00022930   Section       24  qorganizeritemdetailfilter.o(.text.clean)
    .text.clean                              0x00022948   Section       24  qorganizeritemdetailrangefilter.o(.text.clean)
    .text.clean                              0x00022960   Section       38  qorganizeritemintersectionfilter.o(.text.clean)
    .text.clean                              0x00022986   Section       28  qorganizeriteminvalidfilter.o(.text.clean)
    .text.clean                              0x000229a2   Section       24  qorganizeritemidfilter.o(.text.clean)
    .text.clean                              0x000229ba   Section       24  qorganizeritemcollectionfilter.o(.text.clean)
    .text.clean                              0x000229d2   Section       38  qorganizeritemunionfilter.o(.text.clean)
    .text.clean                              0x000229f8   Section      310  qorganizerevent.o(.text.clean)
    .text.clean                              0x00022b2e   Section      200  qorganizereventoccurrence.o(.text.clean)
    .text.clean                              0x00022bf6   Section       30  qorganizerjournal.o(.text.clean)
    .text.clean                              0x00022c14   Section      340  qorganizertodo.o(.text.clean)
    .text.clean                              0x00022d68   Section      250  qorganizertodooccurrence.o(.text.clean)
    .text.clean                              0x00022e62   Section       24  qorganizercollectionfetchrequest.o(.text.clean)
    .text.clean                              0x00022e7a   Section       54  qorganizercollectionremoverequest.o(.text.clean)
    .text.clean                              0x00022eb0   Section       54  qorganizercollectionsaverequest.o(.text.clean)
    .text.clean                              0x00022ee6   Section       84  qorganizeritemdetaildefinitionfetchrequest.o(.text.clean)
    .text.clean                              0x00022f3a   Section       74  qorganizeritemdetaildefinitionremoverequest.o(.text.clean)
    .text.clean                              0x00022f84   Section       74  qorganizeritemdetaildefinitionsaverequest.o(.text.clean)
    .text.clean                              0x00022fce   Section      124  qorganizeritemfetchrequest.o(.text.clean)
    .text.clean                              0x0002304a   Section      124  qorganizeritemfetchforexportrequest.o(.text.clean)
    .text.clean                              0x000230c6   Section      104  qorganizeritemoccurrencefetchrequest.o(.text.clean)
    .text.clean                              0x0002312e   Section      104  qorganizeritemidfetchrequest.o(.text.clean)
    .text.clean                              0x00023196   Section       54  qorganizeritemremoverequest.o(.text.clean)
    .text.clean                              0x000231cc   Section       54  qorganizeritemsaverequest.o(.text.clean)
    i._Z20qvariant_cast_helperRK8QVariantNS_4TypeEPv 0x00023204   Section       32  qorganizeritemdetails.o(i._Z20qvariant_cast_helperRK8QVariantNS_4TypeEPv)
    i._Z8qWarningv                           0x00023224   Section       88  qorganizermanager_p.o(i._Z8qWarningv)
    i._Z8qWarningv.clean                     0x0002327c   Section       24  qorganizermanager_p.o(i._Z8qWarningv.clean)
    i._ZN10QByteArrayD1Ev                    0x00023294   Section       24  qorganizercollection.o(i._ZN10QByteArrayD1Ev)
    i._ZN10QMultiHashIN10QtMobility16QOrganizerItemIdES1_ED1Ev 0x000232ac   Section       14  qorganizeritemmemorybackend.o(i._ZN10QMultiHashIN10QtMobility16QOrganizerItemIdES1_ED1Ev)
    i._ZN10QStringRefD1Ev                    0x000232ba   Section        2  qorganizermanagerengine.o(i._ZN10QStringRefD1Ev)
    i._ZN10QtMobility13buildIdStringERK7QStringRK4QMapIS0_S0_ES2_ 0x000232bc   Section      904  qorganizercollectionid.o(i._ZN10QtMobility13buildIdStringERK7QStringRK4QMapIS0_S0_ES2_)
    i._ZN10QtMobility13buildIdStringERK7QStringRK4QMapIS0_S0_ES2_.clean 0x00023644   Section       84  qorganizercollectionid.o(i._ZN10QtMobility13buildIdStringERK7QStringRK4QMapIS0_S0_ES2_.clean)
    i._ZN10QtMobility13parseIdStringERK7QStringPS0_P4QMapIS0_S0_ES3_ 0x00023698   Section     1008  qorganizercollectionid.o(i._ZN10QtMobility13parseIdStringERK7QStringPS0_P4QMapIS0_S0_ES3_)
    i._ZN10QtMobility13parseIdStringERK7QStringPS0_P4QMapIS0_S0_ES3_.clean 0x00023a88   Section       92  qorganizercollectionid.o(i._ZN10QtMobility13parseIdStringERK7QStringPS0_P4QMapIS0_S0_ES3_.clean)
    i._ZN10QtMobility14QOrganizerTodoC1ERKNS_14QOrganizerItemE 0x00023ae4   Section       32  qorganizeritemmemorybackend.o(i._ZN10QtMobility14QOrganizerTodoC1ERKNS_14QOrganizerItemE)
    i._ZN10QtMobility14QOrganizerTodoD1Ev    0x00023b04   Section       14  qorganizeritemmemorybackend.o(i._ZN10QtMobility14QOrganizerTodoD1Ev)
    i._ZN10QtMobility15QOrganizerEventC1ERKNS_14QOrganizerItemE 0x00023b14   Section       32  qorganizeritemmemorybackend.o(i._ZN10QtMobility15QOrganizerEventC1ERKNS_14QOrganizerItemE)
    i._ZN10QtMobility15QOrganizerEventD1Ev   0x00023b34   Section       14  qorganizeritemmemorybackend.o(i._ZN10QtMobility15QOrganizerEventD1Ev)
    i._ZN10QtMobility15mobilityPluginsERK7QString 0x00023b44   Section      716  qorganizermanager_p.o(i._ZN10QtMobility15mobilityPluginsERK7QString)
    i._ZN10QtMobility15mobilityPluginsERK7QString.clean 0x00023e10   Section      124  qorganizermanager_p.o(i._ZN10QtMobility15mobilityPluginsERK7QString.clean)
    i._ZN10QtMobility17QOrganizerJournalD1Ev 0x00023e8c   Section       14  qorganizermanagerengine.o(i._ZN10QtMobility17QOrganizerJournalD1Ev)
    i._ZN10QtMobility18QOrganizerItemDataC1Ev 0x00023e9a   Section       76  qorganizeritem.o(i._ZN10QtMobility18QOrganizerItemDataC1Ev)
    i._ZN10QtMobility18QOrganizerItemDataC1Ev.clean 0x00023ee6   Section       40  qorganizeritem.o(i._ZN10QtMobility18QOrganizerItemDataC1Ev.clean)
    i._ZN10QtMobility18QOrganizerItemDataD1Ev 0x00023f0e   Section       40  qorganizeritem.o(i._ZN10QtMobility18QOrganizerItemDataD1Ev)
    i._ZN10QtMobility18QOrganizerItemDataD1Ev.clean 0x00023f36   Section       22  qorganizeritem.o(i._ZN10QtMobility18QOrganizerItemDataD1Ev.clean)
    i._ZN10QtMobility18QOrganizerItemGuidD1Ev 0x00023f4c   Section       14  qorganizeritem.o(i._ZN10QtMobility18QOrganizerItemGuidD1Ev)
    i._ZN10QtMobility18QOrganizerItemType7setTypeERK7QString 0x00023f5c   Section       48  qorganizeritem.o(i._ZN10QtMobility18QOrganizerItemType7setTypeERK7QString)
    i._ZN10QtMobility18QOrganizerItemType7setTypeERK7QString.clean 0x00023f8c   Section       10  qorganizeritem.o(i._ZN10QtMobility18QOrganizerItemType7setTypeERK7QString.clean)
    i._ZN10QtMobility18QOrganizerItemTypeC1Ev 0x00023f98   Section       28  qorganizeritem.o(i._ZN10QtMobility18QOrganizerItemTypeC1Ev)
    i._ZN10QtMobility18QOrganizerItemTypeD1Ev 0x00023fb4   Section       14  qorganizeritem.o(i._ZN10QtMobility18QOrganizerItemTypeD1Ev)
    i._ZN10QtMobility18QOrganizerTodoTimeD1Ev 0x00023fc2   Section       14  qorganizermanagerengine.o(i._ZN10QtMobility18QOrganizerTodoTimeD1Ev)
    i._ZN10QtMobility19QOrganizerEventTimeD1Ev 0x00023fd0   Section       14  qorganizermanagerengine.o(i._ZN10QtMobility19QOrganizerEventTimeD1Ev)
    i._ZN10QtMobility20QOrganizerItemParent11setParentIdERKNS_16QOrganizerItemIdE 0x00023fe0   Section       68  qorganizeritemmemorybackend.o(i._ZN10QtMobility20QOrganizerItemParent11setParentIdERKNS_16QOrganizerItemIdE)
    i._ZN10QtMobility20QOrganizerItemParent11setParentIdERKNS_16QOrganizerItemIdE.clean 0x00024024   Section       10  qorganizeritemmemorybackend.o(i._ZN10QtMobility20QOrganizerItemParent11setParentIdERKNS_16QOrganizerItemIdE.clean)
    i._ZN10QtMobility20QOrganizerItemParentD1Ev 0x0002402e   Section       14  qorganizeritemmemorybackend.o(i._ZN10QtMobility20QOrganizerItemParentD1Ev)
    i._ZN10QtMobility21QOrganizerItemCommentC1ERKS0_ 0x0002403c   Section       18  qorganizeritem.o(i._ZN10QtMobility21QOrganizerItemCommentC1ERKS0_)
    i._ZN10QtMobility21QOrganizerItemCommentD1Ev 0x0002404e   Section       14  qorganizeritem.o(i._ZN10QtMobility21QOrganizerItemCommentD1Ev)
    i._ZN10QtMobility21QOrganizerJournalTimeD1Ev 0x0002405c   Section       14  qorganizerjournal.o(i._ZN10QtMobility21QOrganizerJournalTimeD1Ev)
    i._ZN10QtMobility21QOrganizerManagerDataC1Ev 0x0002406a   Section       26  qorganizermanager.o(i._ZN10QtMobility21QOrganizerManagerDataC1Ev)
    i._ZN10QtMobility22QOrganizerItemEngineIdC2Ev 0x00024084   Section       24  qorganizeritemmemorybackend.o(i._ZN10QtMobility22QOrganizerItemEngineIdC2Ev)
    i._ZN10QtMobility22QOrganizerItemEngineIdD0Ev 0x0002409c   Section       18  qorganizeritemmemorybackend.o(i._ZN10QtMobility22QOrganizerItemEngineIdD0Ev)
    i._ZN10QtMobility22QOrganizerItemEngineIdD2Ev 0x000240ae   Section        2  qorganizeritemmemorybackend.o(i._ZN10QtMobility22QOrganizerItemEngineIdD2Ev)
    i._ZN10QtMobility22QOrganizerItemIdFilter6d_funcEv 0x000240b0   Section       38  qorganizeritemidfilter.o(i._ZN10QtMobility22QOrganizerItemIdFilter6d_funcEv)
    i._ZN10QtMobility22QOrganizerItemIdFilterD1Ev 0x000240d6   Section       14  qorganizeritemfilter.o(i._ZN10QtMobility22QOrganizerItemIdFilterD1Ev)
    i._ZN10QtMobility22QOrganizerItemLocationD1Ev 0x000240e4   Section       14  qorganizerevent.o(i._ZN10QtMobility22QOrganizerItemLocationD1Ev)
    i._ZN10QtMobility22QOrganizerItemPriorityD1Ev 0x000240f2   Section       14  qorganizerevent.o(i._ZN10QtMobility22QOrganizerItemPriorityD1Ev)
    i._ZN10QtMobility22QOrganizerTodoProgressD1Ev 0x00024100   Section       14  qorganizertodo.o(i._ZN10QtMobility22QOrganizerTodoProgressD1Ev)
    i._ZN10QtMobility23QOrganizerItemTimestamp15setLastModifiedERK9QDateTime 0x00024110   Section       48  qorganizeritemmemorybackend.o(i._ZN10QtMobility23QOrganizerItemTimestamp15setLastModifiedERK9QDateTime)
    i._ZN10QtMobility23QOrganizerItemTimestamp15setLastModifiedERK9QDateTime.clean 0x00024140   Section       10  qorganizeritemmemorybackend.o(i._ZN10QtMobility23QOrganizerItemTimestamp15setLastModifiedERK9QDateTime.clean)
    i._ZN10QtMobility23QOrganizerItemTimestampC1ERKNS_20QOrganizerItemDetailE 0x0002414c   Section       32  qorganizeritemmemorybackend.o(i._ZN10QtMobility23QOrganizerItemTimestampC1ERKNS_20QOrganizerItemDetailE)
    i._ZN10QtMobility23QOrganizerItemTimestampD1Ev 0x0002416c   Section       14  qorganizermanagerengine.o(i._ZN10QtMobility23QOrganizerItemTimestampD1Ev)
    i._ZN10QtMobility23QOrganizerManagerEngineD0Ev 0x0002417a   Section       24  qorganizermanagerengine.o(i._ZN10QtMobility23QOrganizerManagerEngineD0Ev)
    i._ZN10QtMobility23QOrganizerManagerEngineD2Ev 0x00024192   Section       14  qorganizermanagerengine.o(i._ZN10QtMobility23QOrganizerManagerEngineD2Ev)
    i._ZN10QtMobility24QOrganizerCollectionDataD1Ev 0x000241a0   Section       52  qorganizercollection.o(i._ZN10QtMobility24QOrganizerCollectionDataD1Ev)
    i._ZN10QtMobility24QOrganizerCollectionDataD1Ev.clean 0x000241d4   Section       34  qorganizercollection.o(i._ZN10QtMobility24QOrganizerCollectionDataD1Ev.clean)
    i._ZN10QtMobility24QOrganizerItemRecurrenceC1ERKNS_20QOrganizerItemDetailE 0x000241f8   Section       32  qorganizeritemdetail.o(i._ZN10QtMobility24QOrganizerItemRecurrenceC1ERKNS_20QOrganizerItemDetailE)
    i._ZN10QtMobility24QOrganizerItemRecurrenceD1Ev 0x00024218   Section       14  qorganizeritemdetail.o(i._ZN10QtMobility24QOrganizerItemRecurrenceD1Ev)
    i._ZN10QtMobility24QOrganizerTodoOccurrenceD1Ev 0x00024226   Section       14  qorganizeritemmemorybackend.o(i._ZN10QtMobility24QOrganizerTodoOccurrenceD1Ev)
    i._ZN10QtMobility25QOrganizerEventOccurrenceD1Ev 0x00024234   Section       14  qorganizeritemmemorybackend.o(i._ZN10QtMobility25QOrganizerEventOccurrenceD1Ev)
    i._ZN10QtMobility25QOrganizerItemDescription14setDescriptionERK7QString 0x00024244   Section       48  qorganizeritem.o(i._ZN10QtMobility25QOrganizerItemDescription14setDescriptionERK7QString)
    i._ZN10QtMobility25QOrganizerItemDescription14setDescriptionERK7QString.clean 0x00024274   Section       10  qorganizeritem.o(i._ZN10QtMobility25QOrganizerItemDescription14setDescriptionERK7QString.clean)
    i._ZN10QtMobility25QOrganizerItemDescriptionD1Ev 0x0002427e   Section       14  qorganizeritem.o(i._ZN10QtMobility25QOrganizerItemDescriptionD1Ev)
    i._ZN10QtMobility25QOrganizerItemSaveRequestD0Ev 0x0002428c   Section       24  qorganizeritemsaverequest.o(i._ZN10QtMobility25QOrganizerItemSaveRequestD0Ev)
    i._ZN10QtMobility25QOrganizerItemSaveRequestD1Ev 0x000242a4   Section       14  qorganizeritemsaverequest.o(i._ZN10QtMobility25QOrganizerItemSaveRequestD1Ev)
    i._ZN10QtMobility25QOrganizerItemUnionFilter6d_funcEv 0x000242b2   Section       38  qorganizeritemunionfilter.o(i._ZN10QtMobility25QOrganizerItemUnionFilter6d_funcEv)
    i._ZN10QtMobility25QOrganizerItemUnionFilterD1Ev 0x000242d8   Section       14  qorganizeritemfilter.o(i._ZN10QtMobility25QOrganizerItemUnionFilterD1Ev)
    i._ZN10QtMobility26QOrganizerItemDetailFilter6d_funcEv 0x000242e6   Section       44  qorganizeritemdetailfilter.o(i._ZN10QtMobility26QOrganizerItemDetailFilter6d_funcEv)
    i._ZN10QtMobility26QOrganizerItemDetailFilterD1Ev 0x00024312   Section       14  qorganizeritemfilter.o(i._ZN10QtMobility26QOrganizerItemDetailFilterD1Ev)
    i._ZN10QtMobility26QOrganizerItemDisplayLabel8setLabelERK7QString 0x00024320   Section       48  qorganizeritem.o(i._ZN10QtMobility26QOrganizerItemDisplayLabel8setLabelERK7QString)
    i._ZN10QtMobility26QOrganizerItemDisplayLabel8setLabelERK7QString.clean 0x00024350   Section       10  qorganizeritem.o(i._ZN10QtMobility26QOrganizerItemDisplayLabel8setLabelERK7QString.clean)
    i._ZN10QtMobility26QOrganizerItemDisplayLabelD1Ev 0x0002435a   Section       14  qorganizeritem.o(i._ZN10QtMobility26QOrganizerItemDisplayLabelD1Ev)
    i._ZN10QtMobility26QOrganizerItemFetchRequestD0Ev 0x00024368   Section       24  qorganizeritemfetchrequest.o(i._ZN10QtMobility26QOrganizerItemFetchRequestD0Ev)
    i._ZN10QtMobility26QOrganizerItemFetchRequestD1Ev 0x00024380   Section       14  qorganizeritemfetchrequest.o(i._ZN10QtMobility26QOrganizerItemFetchRequestD1Ev)
    i._ZN10QtMobility26QOrganizerItemStringHolderC1ERK7QString 0x0002438e   Section       18  qorganizeritemdetail.o(i._ZN10QtMobility26QOrganizerItemStringHolderC1ERK7QString)
    i._ZN10QtMobility26QOrganizerItemStringHolderD1Ev 0x000243a0   Section        2  qorganizeritem.o(i._ZN10QtMobility26QOrganizerItemStringHolderD1Ev)
    i._ZN10QtMobility26QOrganizerItemStringHolderaSERK7QString 0x000243a4   Section       84  qorganizeritemdetail.o(i._ZN10QtMobility26QOrganizerItemStringHolderaSERK7QString)
    i._ZN10QtMobility26QOrganizerItemStringHolderaSERK7QString.clean 0x000243f8   Section       10  qorganizeritemdetail.o(i._ZN10QtMobility26QOrganizerItemStringHolderaSERK7QString.clean)
    i._ZN10QtMobility27QOrganizerItemChangeSetDataD1Ev 0x00024402   Section       44  qorganizeritemchangeset.o(i._ZN10QtMobility27QOrganizerItemChangeSetDataD1Ev)
    i._ZN10QtMobility27QOrganizerItemChangeSetDataD1Ev.clean 0x0002442e   Section       24  qorganizeritemchangeset.o(i._ZN10QtMobility27QOrganizerItemChangeSetDataD1Ev.clean)
    i._ZN10QtMobility27QOrganizerItemDetailPrivateC1Ev 0x00024448   Section       88  qorganizeritemdetail.o(i._ZN10QtMobility27QOrganizerItemDetailPrivateC1Ev)
    i._ZN10QtMobility27QOrganizerItemDetailPrivateC1Ev.clean 0x000244a0   Section       12  qorganizeritemdetail.o(i._ZN10QtMobility27QOrganizerItemDetailPrivateC1Ev.clean)
    i._ZN10QtMobility27QOrganizerItemDetailPrivateD1Ev 0x000244ac   Section       28  qorganizeritemdetail.o(i._ZN10QtMobility27QOrganizerItemDetailPrivateD1Ev)
    i._ZN10QtMobility27QOrganizerItemDetailPrivateD1Ev.clean 0x000244c8   Section       12  qorganizeritemdetail.o(i._ZN10QtMobility27QOrganizerItemDetailPrivateD1Ev.clean)
    i._ZN10QtMobility27QOrganizerItemFilterPrivateD0Ev 0x000244d4   Section       18  qorganizeritemchangelogfilter.o(i._ZN10QtMobility27QOrganizerItemFilterPrivateD0Ev)
    i._ZN10QtMobility27QOrganizerItemFilterPrivateD2Ev 0x000244e6   Section        2  qorganizeritemchangelogfilter.o(i._ZN10QtMobility27QOrganizerItemFilterPrivateD2Ev)
    i._ZN10QtMobility27QOrganizerItemInvalidEngineD0Ev 0x000244e8   Section       22  qorganizeriteminvalidbackend.o(i._ZN10QtMobility27QOrganizerItemInvalidEngineD0Ev)
    i._ZN10QtMobility27QOrganizerItemInvalidEngineD1Ev 0x000244fe   Section       16  qorganizeriteminvalidbackend.o(i._ZN10QtMobility27QOrganizerItemInvalidEngineD1Ev)
    i._ZN10QtMobility27QOrganizerItemInvalidFilterD1Ev 0x0002450e   Section       14  qorganizeritemfilter.o(i._ZN10QtMobility27QOrganizerItemInvalidFilterD1Ev)
    i._ZN10QtMobility27QOrganizerItemRemoveRequestD0Ev 0x0002451c   Section       24  qorganizeritemremoverequest.o(i._ZN10QtMobility27QOrganizerItemRemoveRequestD0Ev)
    i._ZN10QtMobility27QOrganizerItemRemoveRequestD1Ev 0x00024534   Section       14  qorganizeritemremoverequest.o(i._ZN10QtMobility27QOrganizerItemRemoveRequestD1Ev)
    i._ZN10QtMobility28QOrganizerCollectionEngineIdC2Ev 0x00024544   Section       24  qorganizeritemmemorybackend.o(i._ZN10QtMobility28QOrganizerCollectionEngineIdC2Ev)
    i._ZN10QtMobility28QOrganizerCollectionEngineIdD0Ev 0x0002455c   Section       18  qorganizeritemmemorybackend.o(i._ZN10QtMobility28QOrganizerCollectionEngineIdD0Ev)
    i._ZN10QtMobility28QOrganizerCollectionEngineIdD2Ev 0x0002456e   Section        2  qorganizeritemmemorybackend.o(i._ZN10QtMobility28QOrganizerCollectionEngineIdD2Ev)
    i._ZN10QtMobility28QOrganizerItemIdFetchRequestD0Ev 0x00024570   Section       24  qorganizeritemidfetchrequest.o(i._ZN10QtMobility28QOrganizerItemIdFetchRequestD0Ev)
    i._ZN10QtMobility28QOrganizerItemIdFetchRequestD1Ev 0x00024588   Section       14  qorganizeritemidfetchrequest.o(i._ZN10QtMobility28QOrganizerItemIdFetchRequestD1Ev)
    i._ZN10QtMobility29QOrganizerItemChangeLogFilter6d_funcEv 0x00024596   Section       44  qorganizeritemchangelogfilter.o(i._ZN10QtMobility29QOrganizerItemChangeLogFilter6d_funcEv)
    i._ZN10QtMobility29QOrganizerItemChangeLogFilterD1Ev 0x000245c2   Section       14  qorganizeritemfilter.o(i._ZN10QtMobility29QOrganizerItemChangeLogFilterD1Ev)
    i._ZN10QtMobility29QOrganizerItemIdFilterPrivate14copyIfPossibleER18QSharedDataPointerINS_27QOrganizerItemFilterPrivateEERKNS_20QOrganizerItemFilterE 0x000245d0   Section      168  qorganizeritemidfilter.o(i._ZN10QtMobility29QOrganizerItemIdFilterPrivate14copyIfPossibleER18QSharedDataPointerINS_27QOrganizerItemFilterPrivateEERKNS_20QOrganizerItemFilterE)
    i._ZN10QtMobility29QOrganizerItemIdFilterPrivate14copyIfPossibleER18QSharedDataPointerINS_27QOrganizerItemFilterPrivateEERKNS_20QOrganizerItemFilterE.clean 0x00024678   Section       14  qorganizeritemidfilter.o(i._ZN10QtMobility29QOrganizerItemIdFilterPrivate14copyIfPossibleER18QSharedDataPointerINS_27QOrganizerItemFilterPrivateEERKNS_20QOrganizerItemFilterE.clean)
    i._ZN10QtMobility29QOrganizerItemIdFilterPrivate15inputFromStreamER11QDataStreamh 0x00024686   Section       26  qorganizeritemidfilter.o(i._ZN10QtMobility29QOrganizerItemIdFilterPrivate15inputFromStreamER11QDataStreamh)
    i._ZN10QtMobility29QOrganizerItemIdFilterPrivateC1Ev 0x000246a0   Section       52  qorganizeritemidfilter.o(i._ZN10QtMobility29QOrganizerItemIdFilterPrivateC1Ev)
    i._ZN10QtMobility29QOrganizerItemIdFilterPrivateC1Ev.clean 0x000246d4   Section       10  qorganizeritemidfilter.o(i._ZN10QtMobility29QOrganizerItemIdFilterPrivateC1Ev.clean)
    i._ZN10QtMobility29QOrganizerItemIdFilterPrivateD0Ev 0x000246de   Section       22  qorganizeritemidfilter.o(i._ZN10QtMobility29QOrganizerItemIdFilterPrivateD0Ev)
    i._ZN10QtMobility29QOrganizerItemIdFilterPrivateD1Ev 0x000246f4   Section       28  qorganizeritemidfilter.o(i._ZN10QtMobility29QOrganizerItemIdFilterPrivateD1Ev)
    i._ZN10QtMobility29QOrganizerItemIdFilterPrivateD1Ev.clean 0x00024710   Section       10  qorganizeritemidfilter.o(i._ZN10QtMobility29QOrganizerItemIdFilterPrivateD1Ev.clean)
    i._ZN10QtMobility30QOrganizerItemCollectionFilter6d_funcEv 0x0002471a   Section       38  qorganizeritemcollectionfilter.o(i._ZN10QtMobility30QOrganizerItemCollectionFilter6d_funcEv)
    i._ZN10QtMobility30QOrganizerItemCollectionFilterD1Ev 0x00024740   Section       14  qorganizermanagerengine.o(i._ZN10QtMobility30QOrganizerItemCollectionFilterD1Ev)
    i._ZN10QtMobility30QOrganizerItemFetchHintPrivateD1Ev 0x0002474e   Section       16  qorganizeritemfetchhint.o(i._ZN10QtMobility30QOrganizerItemFetchHintPrivateD1Ev)
    i._ZN10QtMobility30QOrganizerItemMemoryEngineData17emitSharedSignalsEPNS_23QOrganizerItemChangeSetE 0x0002475e   Section      276  qorganizeritemmemorybackend.o(i._ZN10QtMobility30QOrganizerItemMemoryEngineData17emitSharedSignalsEPNS_23QOrganizerItemChangeSetE)
    i._ZN10QtMobility30QOrganizerItemMemoryEngineData17emitSharedSignalsEPNS_23QOrganizerItemChangeSetE.clean 0x00024872   Section       20  qorganizeritemmemorybackend.o(i._ZN10QtMobility30QOrganizerItemMemoryEngineData17emitSharedSignalsEPNS_23QOrganizerItemChangeSetE.clean)
    i._ZN10QtMobility30QOrganizerItemMemoryEngineDataD1Ev 0x00024886   Section      132  qorganizeritemmemorybackend.o(i._ZN10QtMobility30QOrganizerItemMemoryEngineDataD1Ev)
    i._ZN10QtMobility30QOrganizerItemMemoryEngineDataD1Ev.clean 0x0002490a   Section      108  qorganizeritemmemorybackend.o(i._ZN10QtMobility30QOrganizerItemMemoryEngineDataD1Ev.clean)
    i._ZN10QtMobility30QOrganizerItemSortOrderPrivateD1Ev 0x00024976   Section       32  qorganizeritemsortorder.o(i._ZN10QtMobility30QOrganizerItemSortOrderPrivateD1Ev)
    i._ZN10QtMobility30QOrganizerItemSortOrderPrivateD1Ev.clean 0x00024996   Section       12  qorganizeritemsortorder.o(i._ZN10QtMobility30QOrganizerItemSortOrderPrivateD1Ev.clean)
    i._ZN10QtMobility31QOrganizerCollectionSaveRequestD0Ev 0x000249a2   Section       24  qorganizercollectionsaverequest.o(i._ZN10QtMobility31QOrganizerCollectionSaveRequestD0Ev)
    i._ZN10QtMobility31QOrganizerCollectionSaveRequestD1Ev 0x000249ba   Section       14  qorganizercollectionsaverequest.o(i._ZN10QtMobility31QOrganizerCollectionSaveRequestD1Ev)
    i._ZN10QtMobility31QOrganizerItemDetailRangeFilter6d_funcEv 0x000249c8   Section       44  qorganizeritemdetailrangefilter.o(i._ZN10QtMobility31QOrganizerItemDetailRangeFilter6d_funcEv)
    i._ZN10QtMobility31QOrganizerItemDetailRangeFilterD1Ev 0x000249f4   Section       14  qorganizeritemfilter.o(i._ZN10QtMobility31QOrganizerItemDetailRangeFilterD1Ev)
    i._ZN10QtMobility31QOrganizerRecurrenceRulePrivateC1ERKS0_ 0x00024a02   Section      144  qorganizerrecurrencerule.o(i._ZN10QtMobility31QOrganizerRecurrenceRulePrivateC1ERKS0_)
    i._ZN10QtMobility31QOrganizerRecurrenceRulePrivateC1ERKS0_.clean 0x00024a92   Section       60  qorganizerrecurrencerule.o(i._ZN10QtMobility31QOrganizerRecurrenceRulePrivateC1ERKS0_.clean)
    i._ZN10QtMobility31QOrganizerRecurrenceRulePrivateC1Ev 0x00024ad0   Section      156  qorganizerrecurrencerule.o(i._ZN10QtMobility31QOrganizerRecurrenceRulePrivateC1Ev)
    i._ZN10QtMobility31QOrganizerRecurrenceRulePrivateC1Ev.clean 0x00024b6c   Section       60  qorganizerrecurrencerule.o(i._ZN10QtMobility31QOrganizerRecurrenceRulePrivateC1Ev.clean)
    i._ZN10QtMobility31QOrganizerRecurrenceRulePrivateD1Ev 0x00024ba8   Section       80  qorganizerrecurrencerule.o(i._ZN10QtMobility31QOrganizerRecurrenceRulePrivateD1Ev)
    i._ZN10QtMobility31QOrganizerRecurrenceRulePrivateD1Ev.clean 0x00024bf8   Section       60  qorganizerrecurrencerule.o(i._ZN10QtMobility31QOrganizerRecurrenceRulePrivateD1Ev.clean)
    i._ZN10QtMobility32QOrganizerAbstractRequestPrivateD0Ev 0x00024c34   Section       22  qorganizerabstractrequest.o(i._ZN10QtMobility32QOrganizerAbstractRequestPrivateD0Ev)
    i._ZN10QtMobility32QOrganizerAbstractRequestPrivateD1Ev 0x00024c4c   Section       56  qorganizerabstractrequest.o(i._ZN10QtMobility32QOrganizerAbstractRequestPrivateD1Ev)
    i._ZN10QtMobility32QOrganizerAbstractRequestPrivateD1Ev.clean 0x00024c84   Section       24  qorganizerabstractrequest.o(i._ZN10QtMobility32QOrganizerAbstractRequestPrivateD1Ev.clean)
    i._ZN10QtMobility32QOrganizerCollectionFetchRequestD0Ev 0x00024c9c   Section       24  qorganizercollectionfetchrequest.o(i._ZN10QtMobility32QOrganizerCollectionFetchRequestD0Ev)
    i._ZN10QtMobility32QOrganizerCollectionFetchRequestD1Ev 0x00024cb4   Section       14  qorganizercollectionfetchrequest.o(i._ZN10QtMobility32QOrganizerCollectionFetchRequestD1Ev)
    i._ZN10QtMobility32QOrganizerItemIntersectionFilter6d_funcEv 0x00024cc2   Section       38  qorganizeritemintersectionfilter.o(i._ZN10QtMobility32QOrganizerItemIntersectionFilter6d_funcEv)
    i._ZN10QtMobility32QOrganizerItemIntersectionFilterD1Ev 0x00024ce8   Section       14  qorganizeritemfilter.o(i._ZN10QtMobility32QOrganizerItemIntersectionFilterD1Ev)
    i._ZN10QtMobility32QOrganizerItemSaveRequestPrivateC1Ev 0x00024cf8   Section      120  qorganizeritemsaverequest.o(i._ZN10QtMobility32QOrganizerItemSaveRequestPrivateC1Ev)
    i._ZN10QtMobility32QOrganizerItemSaveRequestPrivateC1Ev.clean 0x00024d70   Section       46  qorganizeritemsaverequest.o(i._ZN10QtMobility32QOrganizerItemSaveRequestPrivateC1Ev.clean)
    i._ZN10QtMobility32QOrganizerItemSaveRequestPrivateD0Ev 0x00024d9e   Section       22  qorganizermanagerengine.o(i._ZN10QtMobility32QOrganizerItemSaveRequestPrivateD0Ev)
    i._ZN10QtMobility32QOrganizerItemSaveRequestPrivateD1Ev 0x00024db4   Section       48  qorganizermanagerengine.o(i._ZN10QtMobility32QOrganizerItemSaveRequestPrivateD1Ev)
    i._ZN10QtMobility32QOrganizerItemSaveRequestPrivateD1Ev.clean 0x00024de4   Section       22  qorganizermanagerengine.o(i._ZN10QtMobility32QOrganizerItemSaveRequestPrivateD1Ev.clean)
    i._ZN10QtMobility32QOrganizerItemUnionFilterPrivate14copyIfPossibleER18QSharedDataPointerINS_27QOrganizerItemFilterPrivateEERKNS_20QOrganizerItemFilterE 0x00024dfa   Section      168  qorganizeritemunionfilter.o(i._ZN10QtMobility32QOrganizerItemUnionFilterPrivate14copyIfPossibleER18QSharedDataPointerINS_27QOrganizerItemFilterPrivateEERKNS_20QOrganizerItemFilterE)
    i._ZN10QtMobility32QOrganizerItemUnionFilterPrivate14copyIfPossibleER18QSharedDataPointerINS_27QOrganizerItemFilterPrivateEERKNS_20QOrganizerItemFilterE.clean 0x00024ea2   Section       14  qorganizeritemunionfilter.o(i._ZN10QtMobility32QOrganizerItemUnionFilterPrivate14copyIfPossibleER18QSharedDataPointerINS_27QOrganizerItemFilterPrivateEERKNS_20QOrganizerItemFilterE.clean)
    i._ZN10QtMobility32QOrganizerItemUnionFilterPrivate15inputFromStreamER11QDataStreamh 0x00024eb0   Section       26  qorganizeritemunionfilter.o(i._ZN10QtMobility32QOrganizerItemUnionFilterPrivate15inputFromStreamER11QDataStreamh)
    i._ZN10QtMobility32QOrganizerItemUnionFilterPrivateC1Ev 0x00024ecc   Section       52  qorganizeritemunionfilter.o(i._ZN10QtMobility32QOrganizerItemUnionFilterPrivateC1Ev)
    i._ZN10QtMobility32QOrganizerItemUnionFilterPrivateC1Ev.clean 0x00024f00   Section       10  qorganizeritemunionfilter.o(i._ZN10QtMobility32QOrganizerItemUnionFilterPrivateC1Ev.clean)
    i._ZN10QtMobility32QOrganizerItemUnionFilterPrivateD0Ev 0x00024f0a   Section       22  qorganizeritemunionfilter.o(i._ZN10QtMobility32QOrganizerItemUnionFilterPrivateD0Ev)
    i._ZN10QtMobility32QOrganizerItemUnionFilterPrivateD1Ev 0x00024f20   Section       28  qorganizeritemunionfilter.o(i._ZN10QtMobility32QOrganizerItemUnionFilterPrivateD1Ev)
    i._ZN10QtMobility32QOrganizerItemUnionFilterPrivateD1Ev.clean 0x00024f3c   Section       10  qorganizeritemunionfilter.o(i._ZN10QtMobility32QOrganizerItemUnionFilterPrivateD1Ev.clean)
    i._ZN10QtMobility33QOrganizerCollectionChangeSetDataD1Ev 0x00024f46   Section       44  qorganizercollectionchangeset.o(i._ZN10QtMobility33QOrganizerCollectionChangeSetDataD1Ev)
    i._ZN10QtMobility33QOrganizerCollectionChangeSetDataD1Ev.clean 0x00024f72   Section       24  qorganizercollectionchangeset.o(i._ZN10QtMobility33QOrganizerCollectionChangeSetDataD1Ev.clean)
    i._ZN10QtMobility33QOrganizerCollectionRemoveRequestD0Ev 0x00024f8a   Section       24  qorganizercollectionremoverequest.o(i._ZN10QtMobility33QOrganizerCollectionRemoveRequestD0Ev)
    i._ZN10QtMobility33QOrganizerCollectionRemoveRequestD1Ev 0x00024fa2   Section       14  qorganizercollectionremoverequest.o(i._ZN10QtMobility33QOrganizerCollectionRemoveRequestD1Ev)
    i._ZN10QtMobility33QOrganizerItemDetailFilterPrivate14copyIfPossibleER18QSharedDataPointerINS_27QOrganizerItemFilterPrivateEERKNS_20QOrganizerItemFilterE 0x00024fb0   Section      168  qorganizeritemdetailfilter.o(i._ZN10QtMobility33QOrganizerItemDetailFilterPrivate14copyIfPossibleER18QSharedDataPointerINS_27QOrganizerItemFilterPrivateEERKNS_20QOrganizerItemFilterE)
    i._ZN10QtMobility33QOrganizerItemDetailFilterPrivate14copyIfPossibleER18QSharedDataPointerINS_27QOrganizerItemFilterPrivateEERKNS_20QOrganizerItemFilterE.clean 0x00025058   Section       14  qorganizeritemdetailfilter.o(i._ZN10QtMobility33QOrganizerItemDetailFilterPrivate14copyIfPossibleER18QSharedDataPointerINS_27QOrganizerItemFilterPrivateEERKNS_20QOrganizerItemFilterE.clean)
    i._ZN10QtMobility33QOrganizerItemDetailFilterPrivate15inputFromStreamER11QDataStreamh 0x00025066   Section       90  qorganizeritemdetailfilter.o(i._ZN10QtMobility33QOrganizerItemDetailFilterPrivate15inputFromStreamER11QDataStreamh)
    i._ZN10QtMobility33QOrganizerItemDetailFilterPrivateC1Ev 0x000250c0   Section      120  qorganizeritemdetailfilter.o(i._ZN10QtMobility33QOrganizerItemDetailFilterPrivateC1Ev)
    i._ZN10QtMobility33QOrganizerItemDetailFilterPrivateC1Ev.clean 0x00025138   Section       22  qorganizeritemdetailfilter.o(i._ZN10QtMobility33QOrganizerItemDetailFilterPrivateC1Ev.clean)
    i._ZN10QtMobility33QOrganizerItemDetailFilterPrivateD0Ev 0x0002514e   Section       22  qorganizeritemdetailfilter.o(i._ZN10QtMobility33QOrganizerItemDetailFilterPrivateD0Ev)
    i._ZN10QtMobility33QOrganizerItemDetailFilterPrivateD1Ev 0x00025164   Section       52  qorganizeritemdetailfilter.o(i._ZN10QtMobility33QOrganizerItemDetailFilterPrivateD1Ev)
    i._ZN10QtMobility33QOrganizerItemDetailFilterPrivateD1Ev.clean 0x00025198   Section       34  qorganizeritemdetailfilter.o(i._ZN10QtMobility33QOrganizerItemDetailFilterPrivateD1Ev.clean)
    i._ZN10QtMobility33QOrganizerItemFetchRequestPrivateC1Ev 0x000251bc   Section      168  qorganizeritemfetchrequest.o(i._ZN10QtMobility33QOrganizerItemFetchRequestPrivateC1Ev)
    i._ZN10QtMobility33QOrganizerItemFetchRequestPrivateC1Ev.clean 0x00025264   Section       94  qorganizeritemfetchrequest.o(i._ZN10QtMobility33QOrganizerItemFetchRequestPrivateC1Ev.clean)
    i._ZN10QtMobility33QOrganizerItemFetchRequestPrivateD0Ev 0x000252c2   Section       22  qorganizermanagerengine.o(i._ZN10QtMobility33QOrganizerItemFetchRequestPrivateD0Ev)
    i._ZN10QtMobility33QOrganizerItemFetchRequestPrivateD1Ev 0x000252d8   Section       96  qorganizermanagerengine.o(i._ZN10QtMobility33QOrganizerItemFetchRequestPrivateD1Ev)
    i._ZN10QtMobility33QOrganizerItemFetchRequestPrivateD1Ev.clean 0x00025338   Section       70  qorganizermanagerengine.o(i._ZN10QtMobility33QOrganizerItemFetchRequestPrivateD1Ev.clean)
    i._ZN10QtMobility34QOrganizerItemDetailDefinitionDataD1Ev 0x0002537e   Section       28  qorganizeritemdetaildefinition.o(i._ZN10QtMobility34QOrganizerItemDetailDefinitionDataD1Ev)
    i._ZN10QtMobility34QOrganizerItemDetailDefinitionDataD1Ev.clean 0x0002539a   Section       10  qorganizeritemdetaildefinition.o(i._ZN10QtMobility34QOrganizerItemDetailDefinitionDataD1Ev.clean)
    i._ZN10QtMobility34QOrganizerItemInvalidFilterPrivate15inputFromStreamER11QDataStreamh 0x000253a4   Section       12  qorganizeriteminvalidfilter.o(i._ZN10QtMobility34QOrganizerItemInvalidFilterPrivate15inputFromStreamER11QDataStreamh)
    i._ZN10QtMobility34QOrganizerItemInvalidFilterPrivateC1Ev 0x000253b0   Section       76  qorganizeriteminvalidfilter.o(i._ZN10QtMobility34QOrganizerItemInvalidFilterPrivateC1Ev)
    i._ZN10QtMobility34QOrganizerItemInvalidFilterPrivateC1Ev.clean 0x000253fc   Section       10  qorganizeriteminvalidfilter.o(i._ZN10QtMobility34QOrganizerItemInvalidFilterPrivateC1Ev.clean)
    i._ZN10QtMobility34QOrganizerItemInvalidFilterPrivateD0Ev 0x00025406   Section       22  qorganizeriteminvalidfilter.o(i._ZN10QtMobility34QOrganizerItemInvalidFilterPrivateD0Ev)
    i._ZN10QtMobility34QOrganizerItemInvalidFilterPrivateD1Ev 0x0002541c   Section       28  qorganizeriteminvalidfilter.o(i._ZN10QtMobility34QOrganizerItemInvalidFilterPrivateD1Ev)
    i._ZN10QtMobility34QOrganizerItemInvalidFilterPrivateD1Ev.clean 0x00025438   Section       10  qorganizeriteminvalidfilter.o(i._ZN10QtMobility34QOrganizerItemInvalidFilterPrivateD1Ev.clean)
    i._ZN10QtMobility34QOrganizerItemRemoveRequestPrivateC1Ev 0x00025444   Section      120  qorganizeritemremoverequest.o(i._ZN10QtMobility34QOrganizerItemRemoveRequestPrivateC1Ev)
    i._ZN10QtMobility34QOrganizerItemRemoveRequestPrivateC1Ev.clean 0x000254bc   Section       46  qorganizeritemremoverequest.o(i._ZN10QtMobility34QOrganizerItemRemoveRequestPrivateC1Ev.clean)
    i._ZN10QtMobility34QOrganizerItemRemoveRequestPrivateD0Ev 0x000254ea   Section       22  qorganizermanagerengine.o(i._ZN10QtMobility34QOrganizerItemRemoveRequestPrivateD0Ev)
    i._ZN10QtMobility34QOrganizerItemRemoveRequestPrivateD1Ev 0x00025500   Section       48  qorganizermanagerengine.o(i._ZN10QtMobility34QOrganizerItemRemoveRequestPrivateD1Ev)
    i._ZN10QtMobility34QOrganizerItemRemoveRequestPrivateD1Ev.clean 0x00025530   Section       22  qorganizermanagerengine.o(i._ZN10QtMobility34QOrganizerItemRemoveRequestPrivateD1Ev.clean)
    i._ZN10QtMobility35QOrganizerItemFetchForExportRequestD0Ev 0x00025546   Section       24  qorganizeritemfetchforexportrequest.o(i._ZN10QtMobility35QOrganizerItemFetchForExportRequestD0Ev)
    i._ZN10QtMobility35QOrganizerItemFetchForExportRequestD1Ev 0x0002555e   Section       14  qorganizeritemfetchforexportrequest.o(i._ZN10QtMobility35QOrganizerItemFetchForExportRequestD1Ev)
    i._ZN10QtMobility35QOrganizerItemIdFetchRequestPrivateC1Ev 0x0002556c   Section      156  qorganizeritemidfetchrequest.o(i._ZN10QtMobility35QOrganizerItemIdFetchRequestPrivateC1Ev)
    i._ZN10QtMobility35QOrganizerItemIdFetchRequestPrivateC1Ev.clean 0x00025608   Section       82  qorganizeritemidfetchrequest.o(i._ZN10QtMobility35QOrganizerItemIdFetchRequestPrivateC1Ev.clean)
    i._ZN10QtMobility35QOrganizerItemIdFetchRequestPrivateD0Ev 0x0002565a   Section       22  qorganizermanagerengine.o(i._ZN10QtMobility35QOrganizerItemIdFetchRequestPrivateD0Ev)
    i._ZN10QtMobility35QOrganizerItemIdFetchRequestPrivateD1Ev 0x00025670   Section       84  qorganizermanagerengine.o(i._ZN10QtMobility35QOrganizerItemIdFetchRequestPrivateD1Ev)
    i._ZN10QtMobility35QOrganizerItemIdFetchRequestPrivateD1Ev.clean 0x000256c4   Section       58  qorganizermanagerengine.o(i._ZN10QtMobility35QOrganizerItemIdFetchRequestPrivateD1Ev.clean)
    i._ZN10QtMobility36QOrganizerItemChangeLogFilterPrivate14copyIfPossibleER18QSharedDataPointerINS_27QOrganizerItemFilterPrivateEERKNS_20QOrganizerItemFilterE 0x000256fe   Section      170  qorganizeritemchangelogfilter.o(i._ZN10QtMobility36QOrganizerItemChangeLogFilterPrivate14copyIfPossibleER18QSharedDataPointerINS_27QOrganizerItemFilterPrivateEERKNS_20QOrganizerItemFilterE)
    i._ZN10QtMobility36QOrganizerItemChangeLogFilterPrivate14copyIfPossibleER18QSharedDataPointerINS_27QOrganizerItemFilterPrivateEERKNS_20QOrganizerItemFilterE.clean 0x000257a8   Section       14  qorganizeritemchangelogfilter.o(i._ZN10QtMobility36QOrganizerItemChangeLogFilterPrivate14copyIfPossibleER18QSharedDataPointerINS_27QOrganizerItemFilterPrivateEERKNS_20QOrganizerItemFilterE.clean)
    i._ZN10QtMobility36QOrganizerItemChangeLogFilterPrivate15inputFromStreamER11QDataStreamh 0x000257b6   Section       42  qorganizeritemchangelogfilter.o(i._ZN10QtMobility36QOrganizerItemChangeLogFilterPrivate15inputFromStreamER11QDataStreamh)
    i._ZN10QtMobility36QOrganizerItemChangeLogFilterPrivateC1ENS_29QOrganizerItemChangeLogFilter9EventTypeE 0x000257e0   Section       56  qorganizeritemchangelogfilter.o(i._ZN10QtMobility36QOrganizerItemChangeLogFilterPrivateC1ENS_29QOrganizerItemChangeLogFilter9EventTypeE)
    i._ZN10QtMobility36QOrganizerItemChangeLogFilterPrivateC1ENS_29QOrganizerItemChangeLogFilter9EventTypeE.clean 0x00025818   Section       10  qorganizeritemchangelogfilter.o(i._ZN10QtMobility36QOrganizerItemChangeLogFilterPrivateC1ENS_29QOrganizerItemChangeLogFilter9EventTypeE.clean)
    i._ZN10QtMobility36QOrganizerItemChangeLogFilterPrivateD0Ev 0x00025822   Section       22  qorganizeritemchangelogfilter.o(i._ZN10QtMobility36QOrganizerItemChangeLogFilterPrivateD0Ev)
    i._ZN10QtMobility36QOrganizerItemChangeLogFilterPrivateD1Ev 0x00025838   Section       28  qorganizeritemchangelogfilter.o(i._ZN10QtMobility36QOrganizerItemChangeLogFilterPrivateD1Ev)
    i._ZN10QtMobility36QOrganizerItemChangeLogFilterPrivateD1Ev.clean 0x00025854   Section       10  qorganizeritemchangelogfilter.o(i._ZN10QtMobility36QOrganizerItemChangeLogFilterPrivateD1Ev.clean)
    i._ZN10QtMobility36QOrganizerItemOccurrenceFetchRequestD0Ev 0x0002585e   Section       24  qorganizeritemoccurrencefetchrequest.o(i._ZN10QtMobility36QOrganizerItemOccurrenceFetchRequestD0Ev)
    i._ZN10QtMobility36QOrganizerItemOccurrenceFetchRequestD1Ev 0x00025876   Section       14  qorganizeritemoccurrencefetchrequest.o(i._ZN10QtMobility36QOrganizerItemOccurrenceFetchRequestD1Ev)
    i._ZN10QtMobility37QOrganizerItemCollectionFilterPrivate14copyIfPossibleER18QSharedDataPointerINS_27QOrganizerItemFilterPrivateEERKNS_20QOrganizerItemFilterE 0x00025884   Section      168  qorganizeritemcollectionfilter.o(i._ZN10QtMobility37QOrganizerItemCollectionFilterPrivate14copyIfPossibleER18QSharedDataPointerINS_27QOrganizerItemFilterPrivateEERKNS_20QOrganizerItemFilterE)
    i._ZN10QtMobility37QOrganizerItemCollectionFilterPrivate14copyIfPossibleER18QSharedDataPointerINS_27QOrganizerItemFilterPrivateEERKNS_20QOrganizerItemFilterE.clean 0x0002592c   Section       14  qorganizeritemcollectionfilter.o(i._ZN10QtMobility37QOrganizerItemCollectionFilterPrivate14copyIfPossibleER18QSharedDataPointerINS_27QOrganizerItemFilterPrivateEERKNS_20QOrganizerItemFilterE.clean)
    i._ZN10QtMobility37QOrganizerItemCollectionFilterPrivate15inputFromStreamER11QDataStreamh 0x0002593a   Section       26  qorganizeritemcollectionfilter.o(i._ZN10QtMobility37QOrganizerItemCollectionFilterPrivate15inputFromStreamER11QDataStreamh)
    i._ZN10QtMobility37QOrganizerItemCollectionFilterPrivateC1Ev 0x00025954   Section       56  qorganizeritemcollectionfilter.o(i._ZN10QtMobility37QOrganizerItemCollectionFilterPrivateC1Ev)
    i._ZN10QtMobility37QOrganizerItemCollectionFilterPrivateC1Ev.clean 0x0002598c   Section       10  qorganizeritemcollectionfilter.o(i._ZN10QtMobility37QOrganizerItemCollectionFilterPrivateC1Ev.clean)
    i._ZN10QtMobility37QOrganizerItemCollectionFilterPrivateD0Ev 0x00025996   Section       22  qorganizeritemcollectionfilter.o(i._ZN10QtMobility37QOrganizerItemCollectionFilterPrivateD0Ev)
    i._ZN10QtMobility37QOrganizerItemCollectionFilterPrivateD1Ev 0x000259ac   Section       28  qorganizeritemcollectionfilter.o(i._ZN10QtMobility37QOrganizerItemCollectionFilterPrivateD1Ev)
    i._ZN10QtMobility37QOrganizerItemCollectionFilterPrivateD1Ev.clean 0x000259c8   Section       10  qorganizeritemcollectionfilter.o(i._ZN10QtMobility37QOrganizerItemCollectionFilterPrivateD1Ev.clean)
    i._ZN10QtMobility38QOrganizerCollectionSaveRequestPrivateC1Ev 0x000259d4   Section      120  qorganizercollectionsaverequest.o(i._ZN10QtMobility38QOrganizerCollectionSaveRequestPrivateC1Ev)
    i._ZN10QtMobility38QOrganizerCollectionSaveRequestPrivateC1Ev.clean 0x00025a4c   Section       46  qorganizercollectionsaverequest.o(i._ZN10QtMobility38QOrganizerCollectionSaveRequestPrivateC1Ev.clean)
    i._ZN10QtMobility38QOrganizerCollectionSaveRequestPrivateD0Ev 0x00025a7a   Section       22  qorganizermanagerengine.o(i._ZN10QtMobility38QOrganizerCollectionSaveRequestPrivateD0Ev)
    i._ZN10QtMobility38QOrganizerCollectionSaveRequestPrivateD1Ev 0x00025a90   Section       48  qorganizermanagerengine.o(i._ZN10QtMobility38QOrganizerCollectionSaveRequestPrivateD1Ev)
    i._ZN10QtMobility38QOrganizerCollectionSaveRequestPrivateD1Ev.clean 0x00025ac0   Section       22  qorganizermanagerengine.o(i._ZN10QtMobility38QOrganizerCollectionSaveRequestPrivateD1Ev.clean)
    i._ZN10QtMobility38QOrganizerItemDetailRangeFilterPrivate14copyIfPossibleER18QSharedDataPointerINS_27QOrganizerItemFilterPrivateEERKNS_20QOrganizerItemFilterE 0x00025ad6   Section      168  qorganizeritemdetailrangefilter.o(i._ZN10QtMobility38QOrganizerItemDetailRangeFilterPrivate14copyIfPossibleER18QSharedDataPointerINS_27QOrganizerItemFilterPrivateEERKNS_20QOrganizerItemFilterE)
    i._ZN10QtMobility38QOrganizerItemDetailRangeFilterPrivate14copyIfPossibleER18QSharedDataPointerINS_27QOrganizerItemFilterPrivateEERKNS_20QOrganizerItemFilterE.clean 0x00025b7e   Section       14  qorganizeritemdetailrangefilter.o(i._ZN10QtMobility38QOrganizerItemDetailRangeFilterPrivate14copyIfPossibleER18QSharedDataPointerINS_27QOrganizerItemFilterPrivateEERKNS_20QOrganizerItemFilterE.clean)
    i._ZN10QtMobility38QOrganizerItemDetailRangeFilterPrivate15inputFromStreamER11QDataStreamh 0x00025b8c   Section      140  qorganizeritemdetailrangefilter.o(i._ZN10QtMobility38QOrganizerItemDetailRangeFilterPrivate15inputFromStreamER11QDataStreamh)
    i._ZN10QtMobility38QOrganizerItemDetailRangeFilterPrivateC1ERKS0_ 0x00025c18   Section      136  qorganizeritemdetailrangefilter.o(i._ZN10QtMobility38QOrganizerItemDetailRangeFilterPrivateC1ERKS0_)
    i._ZN10QtMobility38QOrganizerItemDetailRangeFilterPrivateC1ERKS0_.clean 0x00025ca0   Section       46  qorganizeritemdetailrangefilter.o(i._ZN10QtMobility38QOrganizerItemDetailRangeFilterPrivateC1ERKS0_.clean)
    i._ZN10QtMobility38QOrganizerItemDetailRangeFilterPrivateC1Ev 0x00025cd0   Section      112  qorganizeritemdetailrangefilter.o(i._ZN10QtMobility38QOrganizerItemDetailRangeFilterPrivateC1Ev)
    i._ZN10QtMobility38QOrganizerItemDetailRangeFilterPrivateC1Ev.clean 0x00025d40   Section       46  qorganizeritemdetailrangefilter.o(i._ZN10QtMobility38QOrganizerItemDetailRangeFilterPrivateC1Ev.clean)
    i._ZN10QtMobility38QOrganizerItemDetailRangeFilterPrivateD0Ev 0x00025d6e   Section       22  qorganizeritemdetailrangefilter.o(i._ZN10QtMobility38QOrganizerItemDetailRangeFilterPrivateD0Ev)
    i._ZN10QtMobility38QOrganizerItemDetailRangeFilterPrivateD1Ev 0x00025d84   Section       64  qorganizeritemdetailrangefilter.o(i._ZN10QtMobility38QOrganizerItemDetailRangeFilterPrivateD1Ev)
    i._ZN10QtMobility38QOrganizerItemDetailRangeFilterPrivateD1Ev.clean 0x00025dc4   Section       46  qorganizeritemdetailrangefilter.o(i._ZN10QtMobility38QOrganizerItemDetailRangeFilterPrivateD1Ev.clean)
    i._ZN10QtMobility39QOrganizerCollectionFetchRequestPrivateC1Ev 0x00025df4   Section      104  qorganizercollectionfetchrequest.o(i._ZN10QtMobility39QOrganizerCollectionFetchRequestPrivateC1Ev)
    i._ZN10QtMobility39QOrganizerCollectionFetchRequestPrivateC1Ev.clean 0x00025e5c   Section       34  qorganizercollectionfetchrequest.o(i._ZN10QtMobility39QOrganizerCollectionFetchRequestPrivateC1Ev.clean)
    i._ZN10QtMobility39QOrganizerCollectionFetchRequestPrivateD0Ev 0x00025e7e   Section       22  qorganizercollectionfetchrequest.o(i._ZN10QtMobility39QOrganizerCollectionFetchRequestPrivateD0Ev)
    i._ZN10QtMobility39QOrganizerCollectionFetchRequestPrivateD1Ev 0x00025e94   Section       36  qorganizercollectionfetchrequest.o(i._ZN10QtMobility39QOrganizerCollectionFetchRequestPrivateD1Ev)
    i._ZN10QtMobility39QOrganizerCollectionFetchRequestPrivateD1Ev.clean 0x00025eb8   Section       10  qorganizercollectionfetchrequest.o(i._ZN10QtMobility39QOrganizerCollectionFetchRequestPrivateD1Ev.clean)
    i._ZN10QtMobility39QOrganizerItemIntersectionFilterPrivate14copyIfPossibleER18QSharedDataPointerINS_27QOrganizerItemFilterPrivateEERKNS_20QOrganizerItemFilterE 0x00025ec2   Section      168  qorganizeritemintersectionfilter.o(i._ZN10QtMobility39QOrganizerItemIntersectionFilterPrivate14copyIfPossibleER18QSharedDataPointerINS_27QOrganizerItemFilterPrivateEERKNS_20QOrganizerItemFilterE)
    i._ZN10QtMobility39QOrganizerItemIntersectionFilterPrivate14copyIfPossibleER18QSharedDataPointerINS_27QOrganizerItemFilterPrivateEERKNS_20QOrganizerItemFilterE.clean 0x00025f6a   Section       14  qorganizeritemintersectionfilter.o(i._ZN10QtMobility39QOrganizerItemIntersectionFilterPrivate14copyIfPossibleER18QSharedDataPointerINS_27QOrganizerItemFilterPrivateEERKNS_20QOrganizerItemFilterE.clean)
    i._ZN10QtMobility39QOrganizerItemIntersectionFilterPrivate15inputFromStreamER11QDataStreamh 0x00025f78   Section       26  qorganizeritemintersectionfilter.o(i._ZN10QtMobility39QOrganizerItemIntersectionFilterPrivate15inputFromStreamER11QDataStreamh)
    i._ZN10QtMobility39QOrganizerItemIntersectionFilterPrivateC1Ev 0x00025f94   Section       52  qorganizeritemintersectionfilter.o(i._ZN10QtMobility39QOrganizerItemIntersectionFilterPrivateC1Ev)
    i._ZN10QtMobility39QOrganizerItemIntersectionFilterPrivateC1Ev.clean 0x00025fc8   Section       10  qorganizeritemintersectionfilter.o(i._ZN10QtMobility39QOrganizerItemIntersectionFilterPrivateC1Ev.clean)
    i._ZN10QtMobility39QOrganizerItemIntersectionFilterPrivateD0Ev 0x00025fd2   Section       22  qorganizeritemintersectionfilter.o(i._ZN10QtMobility39QOrganizerItemIntersectionFilterPrivateD0Ev)
    i._ZN10QtMobility39QOrganizerItemIntersectionFilterPrivateD1Ev 0x00025fe8   Section       28  qorganizeritemintersectionfilter.o(i._ZN10QtMobility39QOrganizerItemIntersectionFilterPrivateD1Ev)
    i._ZN10QtMobility39QOrganizerItemIntersectionFilterPrivateD1Ev.clean 0x00026004   Section       10  qorganizeritemintersectionfilter.o(i._ZN10QtMobility39QOrganizerItemIntersectionFilterPrivateD1Ev.clean)
    i._ZN10QtMobility39qClearAllocatedStringHash__dest_class__D1Ev 0x0002600e   Section       12  qorganizeritemdetail.o(i._ZN10QtMobility39qClearAllocatedStringHash__dest_class__D1Ev)
    i._ZN10QtMobility40QOrganizerCollectionRemoveRequestPrivateC1Ev 0x0002601c   Section      120  qorganizercollectionremoverequest.o(i._ZN10QtMobility40QOrganizerCollectionRemoveRequestPrivateC1Ev)
    i._ZN10QtMobility40QOrganizerCollectionRemoveRequestPrivateC1Ev.clean 0x00026094   Section       46  qorganizercollectionremoverequest.o(i._ZN10QtMobility40QOrganizerCollectionRemoveRequestPrivateC1Ev.clean)
    i._ZN10QtMobility40QOrganizerCollectionRemoveRequestPrivateD0Ev 0x000260c2   Section       22  qorganizermanagerengine.o(i._ZN10QtMobility40QOrganizerCollectionRemoveRequestPrivateD0Ev)
    i._ZN10QtMobility40QOrganizerCollectionRemoveRequestPrivateD1Ev 0x000260d8   Section       48  qorganizermanagerengine.o(i._ZN10QtMobility40QOrganizerCollectionRemoveRequestPrivateD1Ev)
    i._ZN10QtMobility40QOrganizerCollectionRemoveRequestPrivateD1Ev.clean 0x00026108   Section       22  qorganizermanagerengine.o(i._ZN10QtMobility40QOrganizerCollectionRemoveRequestPrivateD1Ev.clean)
    i._ZN10QtMobility41QOrganizerItemDetailDefinitionSaveRequestD0Ev 0x0002611e   Section       24  qorganizeritemdetaildefinitionsaverequest.o(i._ZN10QtMobility41QOrganizerItemDetailDefinitionSaveRequestD0Ev)
    i._ZN10QtMobility41QOrganizerItemDetailDefinitionSaveRequestD1Ev 0x00026136   Section       14  qorganizeritemdetaildefinitionsaverequest.o(i._ZN10QtMobility41QOrganizerItemDetailDefinitionSaveRequestD1Ev)
    i._ZN10QtMobility42QOrganizerItemDetailDefinitionFetchRequestD0Ev 0x00026144   Section       24  qorganizeritemdetaildefinitionfetchrequest.o(i._ZN10QtMobility42QOrganizerItemDetailDefinitionFetchRequestD0Ev)
    i._ZN10QtMobility42QOrganizerItemDetailDefinitionFetchRequestD1Ev 0x0002615c   Section       14  qorganizeritemdetaildefinitionfetchrequest.o(i._ZN10QtMobility42QOrganizerItemDetailDefinitionFetchRequestD1Ev)
    i._ZN10QtMobility42QOrganizerItemDetailFieldDefinitionPrivateD1Ev 0x0002616a   Section       16  qorganizeritemdetailfielddefinition.o(i._ZN10QtMobility42QOrganizerItemDetailFieldDefinitionPrivateD1Ev)
    i._ZN10QtMobility42QOrganizerItemFetchForExportRequestPrivateC1Ev 0x0002617c   Section      168  qorganizeritemfetchforexportrequest.o(i._ZN10QtMobility42QOrganizerItemFetchForExportRequestPrivateC1Ev)
    i._ZN10QtMobility42QOrganizerItemFetchForExportRequestPrivateC1Ev.clean 0x00026224   Section       94  qorganizeritemfetchforexportrequest.o(i._ZN10QtMobility42QOrganizerItemFetchForExportRequestPrivateC1Ev.clean)
    i._ZN10QtMobility42QOrganizerItemFetchForExportRequestPrivateD0Ev 0x00026282   Section       22  qorganizermanagerengine.o(i._ZN10QtMobility42QOrganizerItemFetchForExportRequestPrivateD0Ev)
    i._ZN10QtMobility42QOrganizerItemFetchForExportRequestPrivateD1Ev 0x00026298   Section       96  qorganizermanagerengine.o(i._ZN10QtMobility42QOrganizerItemFetchForExportRequestPrivateD1Ev)
    i._ZN10QtMobility42QOrganizerItemFetchForExportRequestPrivateD1Ev.clean 0x000262f8   Section       70  qorganizermanagerengine.o(i._ZN10QtMobility42QOrganizerItemFetchForExportRequestPrivateD1Ev.clean)
    i._ZN10QtMobility43QOrganizerItemDetailDefinitionRemoveRequestD0Ev 0x0002633e   Section       24  qorganizeritemdetaildefinitionremoverequest.o(i._ZN10QtMobility43QOrganizerItemDetailDefinitionRemoveRequestD0Ev)
    i._ZN10QtMobility43QOrganizerItemDetailDefinitionRemoveRequestD1Ev 0x00026356   Section       14  qorganizeritemdetaildefinitionremoverequest.o(i._ZN10QtMobility43QOrganizerItemDetailDefinitionRemoveRequestD1Ev)
    i._ZN10QtMobility43QOrganizerItemOccurrenceFetchRequestPrivateC1Ev 0x00026364   Section      156  qorganizeritemoccurrencefetchrequest.o(i._ZN10QtMobility43QOrganizerItemOccurrenceFetchRequestPrivateC1Ev)
    i._ZN10QtMobility43QOrganizerItemOccurrenceFetchRequestPrivateC1Ev.clean 0x00026400   Section       82  qorganizeritemoccurrencefetchrequest.o(i._ZN10QtMobility43QOrganizerItemOccurrenceFetchRequestPrivateC1Ev.clean)
    i._ZN10QtMobility43QOrganizerItemOccurrenceFetchRequestPrivateD0Ev 0x00026452   Section       22  qorganizermanagerengine.o(i._ZN10QtMobility43QOrganizerItemOccurrenceFetchRequestPrivateD0Ev)
    i._ZN10QtMobility43QOrganizerItemOccurrenceFetchRequestPrivateD1Ev 0x00026468   Section       84  qorganizermanagerengine.o(i._ZN10QtMobility43QOrganizerItemOccurrenceFetchRequestPrivateD1Ev)
    i._ZN10QtMobility43QOrganizerItemOccurrenceFetchRequestPrivateD1Ev.clean 0x000264bc   Section       58  qorganizermanagerengine.o(i._ZN10QtMobility43QOrganizerItemOccurrenceFetchRequestPrivateD1Ev.clean)
    i._ZN10QtMobility48QOrganizerItemDetailDefinitionSaveRequestPrivateC1Ev 0x000264f8   Section      196  qorganizeritemdetaildefinitionsaverequest.o(i._ZN10QtMobility48QOrganizerItemDetailDefinitionSaveRequestPrivateC1Ev)
    i._ZN10QtMobility48QOrganizerItemDetailDefinitionSaveRequestPrivateC1Ev.clean 0x000265bc   Section       78  qorganizeritemdetaildefinitionsaverequest.o(i._ZN10QtMobility48QOrganizerItemDetailDefinitionSaveRequestPrivateC1Ev.clean)
    i._ZN10QtMobility48QOrganizerItemDetailDefinitionSaveRequestPrivateD0Ev 0x0002660a   Section       22  qorganizermanagerengine.o(i._ZN10QtMobility48QOrganizerItemDetailDefinitionSaveRequestPrivateD0Ev)
    i._ZN10QtMobility48QOrganizerItemDetailDefinitionSaveRequestPrivateD1Ev 0x00026620   Section       72  qorganizermanagerengine.o(i._ZN10QtMobility48QOrganizerItemDetailDefinitionSaveRequestPrivateD1Ev)
    i._ZN10QtMobility48QOrganizerItemDetailDefinitionSaveRequestPrivateD1Ev.clean 0x00026668   Section       46  qorganizermanagerengine.o(i._ZN10QtMobility48QOrganizerItemDetailDefinitionSaveRequestPrivateD1Ev.clean)
    i._ZN10QtMobility49QOrganizerItemDetailDefinitionFetchRequestPrivateC1Ev 0x00026698   Section      220  qorganizeritemdetaildefinitionfetchrequest.o(i._ZN10QtMobility49QOrganizerItemDetailDefinitionFetchRequestPrivateC1Ev)
    i._ZN10QtMobility49QOrganizerItemDetailDefinitionFetchRequestPrivateC1Ev.clean 0x00026774   Section       90  qorganizeritemdetaildefinitionfetchrequest.o(i._ZN10QtMobility49QOrganizerItemDetailDefinitionFetchRequestPrivateC1Ev.clean)
    i._ZN10QtMobility49QOrganizerItemDetailDefinitionFetchRequestPrivateD0Ev 0x000267ce   Section       22  qorganizermanagerengine.o(i._ZN10QtMobility49QOrganizerItemDetailDefinitionFetchRequestPrivateD0Ev)
    i._ZN10QtMobility49QOrganizerItemDetailDefinitionFetchRequestPrivateD1Ev 0x000267e4   Section       84  qorganizermanagerengine.o(i._ZN10QtMobility49QOrganizerItemDetailDefinitionFetchRequestPrivateD1Ev)
    i._ZN10QtMobility49QOrganizerItemDetailDefinitionFetchRequestPrivateD1Ev.clean 0x00026838   Section       58  qorganizermanagerengine.o(i._ZN10QtMobility49QOrganizerItemDetailDefinitionFetchRequestPrivateD1Ev.clean)
    i._ZN10QtMobility50QOrganizerItemDetailDefinitionRemoveRequestPrivateC1Ev 0x00026874   Section      200  qorganizeritemdetaildefinitionremoverequest.o(i._ZN10QtMobility50QOrganizerItemDetailDefinitionRemoveRequestPrivateC1Ev)
    i._ZN10QtMobility50QOrganizerItemDetailDefinitionRemoveRequestPrivateC1Ev.clean 0x0002693c   Section       78  qorganizeritemdetaildefinitionremoverequest.o(i._ZN10QtMobility50QOrganizerItemDetailDefinitionRemoveRequestPrivateC1Ev.clean)
    i._ZN10QtMobility50QOrganizerItemDetailDefinitionRemoveRequestPrivateD0Ev 0x0002698a   Section       22  qorganizermanagerengine.o(i._ZN10QtMobility50QOrganizerItemDetailDefinitionRemoveRequestPrivateD0Ev)
    i._ZN10QtMobility50QOrganizerItemDetailDefinitionRemoveRequestPrivateD1Ev 0x000269a0   Section       72  qorganizermanagerengine.o(i._ZN10QtMobility50QOrganizerItemDetailDefinitionRemoveRequestPrivateD1Ev)
    i._ZN10QtMobility50QOrganizerItemDetailDefinitionRemoveRequestPrivateD1Ev.clean 0x000269e8   Section       46  qorganizermanagerengine.o(i._ZN10QtMobility50QOrganizerItemDetailDefinitionRemoveRequestPrivateD1Ev.clean)
    i._ZN11QDataStreamlsEj                   0x00026a16   Section       16  qorganizeritemdetail.o(i._ZN11QDataStreamlsEj)
    i._ZN11QStringListC1ERKS_                0x00026a26   Section       38  qorganizeritemfetchhint.o(i._ZN11QStringListC1ERKS_)
    i._ZN11QStringListC1Ev                   0x00026a4c   Section       14  qorganizeritemfetchhint.o(i._ZN11QStringListC1Ev)
    i._ZN11QStringListD1Ev                   0x00026a5a   Section       14  qorganizercollectionid.o(i._ZN11QStringListD1Ev)
    i._ZN11QStringListaSERKS_                0x00026a68   Section       66  qorganizermanager_p.o(i._ZN11QStringListaSERKS_)
    i._ZN12QMapIteratorI7QString8QVariantED1Ev 0x00026aaa   Section       14  qorganizercollection.o(i._ZN12QMapIteratorI7QString8QVariantED1Ev)
    i._ZN12QMapIteratorI7QStringN10QtMobility35QOrganizerItemDetailFieldDefinitionEED1Ev 0x00026ab8   Section       14  qorganizermanagerengine.o(i._ZN12QMapIteratorI7QStringN10QtMobility35QOrganizerItemDetailFieldDefinitionEED1Ev)
    i._ZN12QMutexLocker6unlockEv             0x00026ac6   Section       38  qorganizerabstractrequest.o(i._ZN12QMutexLocker6unlockEv)
    i._ZN12QMutexLockerC1EP6QMutex           0x00026aec   Section       34  qorganizerabstractrequest.o(i._ZN12QMutexLockerC1EP6QMutex)
    i._ZN12QMutexLockerD1Ev                  0x00026b0e   Section       14  qorganizerabstractrequest.o(i._ZN12QMutexLockerD1Ev)
    i._ZN13QConcatenableI11QLatin1CharE8appendToES0_RP5QChar 0x00026b1c   Section       30  qorganizeritemmemorybackend.o(i._ZN13QConcatenableI11QLatin1CharE8appendToES0_RP5QChar)
    i._ZN13QConcatenableI7QStringE8appendToERKS0_RP5QChar 0x00026b3a   Section       42  qorganizeritemmemorybackend.o(i._ZN13QConcatenableI7QStringE8appendToERKS0_RP5QChar)
    i._ZN13QListIteratorI8QVariantED1Ev      0x00026b64   Section       14  qorganizermanagerengine.o(i._ZN13QListIteratorI8QVariantED1Ev)
    i._ZN15QBasicAtomicInt3refEv             0x00026b72   Section       24  qorganizercollection.o(i._ZN15QBasicAtomicInt3refEv)
    i._ZN15QBasicAtomicInt5derefEv           0x00026b8a   Section       24  qorganizercollection.o(i._ZN15QBasicAtomicInt5derefEv)
    i._ZN17QForeachContainerI4QSetI5QDateEED1Ev 0x00026ba2   Section       14  qorganizeritemmemorybackend.o(i._ZN17QForeachContainerI4QSetI5QDateEED1Ev)
    i._ZN17QForeachContainerI4QSetIN10QtMobility24QOrganizerRecurrenceRule5MonthEEED1Ev 0x00026bb0   Section       14  qorganizerrecurrencerule.o(i._ZN17QForeachContainerI4QSetIN10QtMobility24QOrganizerRecurrenceRule5MonthEEED1Ev)
    i._ZN17QForeachContainerI4QSetIN10QtMobility24QOrganizerRecurrenceRuleEEED1Ev 0x00026bbe   Section       14  qorganizeritemmemorybackend.o(i._ZN17QForeachContainerI4QSetIN10QtMobility24QOrganizerRecurrenceRuleEEED1Ev)
    i._ZN17QForeachContainerI4QSetIN2Qt9DayOfWeekEEED1Ev 0x00026bcc   Section       14  qorganizerrecurrencerule.o(i._ZN17QForeachContainerI4QSetIN2Qt9DayOfWeekEEED1Ev)
    i._ZN17QForeachContainerI4QSetIiEED1Ev   0x00026bda   Section       14  qorganizerrecurrencerule.o(i._ZN17QForeachContainerI4QSetIiEED1Ev)
    i._ZN17QForeachContainerI5QHashIN10QtMobility16QOrganizerItemIdENS1_14QOrganizerItemEEED1Ev 0x00026be8   Section       14  qorganizeritemmemorybackend.o(i._ZN17QForeachContainerI5QHashIN10QtMobility16QOrganizerItemIdENS1_14QOrganizerItemEEED1Ev)
    i._ZN17QForeachContainerI5QListI5QDateEED1Ev 0x00026bf6   Section       14  qorganizeritemmemorybackend.o(i._ZN17QForeachContainerI5QListI5QDateEED1Ev)
    i._ZN17QForeachContainerI5QListI9QDateTimeEED1Ev 0x00026c04   Section       14  qorganizeritemmemorybackend.o(i._ZN17QForeachContainerI5QListI9QDateTimeEED1Ev)
    i._ZN17QForeachContainerI5QListIN10QtMobility14QOrganizerItemEEED1Ev 0x00026c12   Section       14  qorganizermanager.o(i._ZN17QForeachContainerI5QListIN10QtMobility14QOrganizerItemEEED1Ev)
    i._ZN17QForeachContainerI5QListIN10QtMobility16QOrganizerItemIdEEED1Ev 0x00026c20   Section       14  qorganizeritemchangeset.o(i._ZN17QForeachContainerI5QListIN10QtMobility16QOrganizerItemIdEEED1Ev)
    i._ZN17QForeachContainerI5QListIN10QtMobility20QOrganizerItemDetailEEED1Ev 0x00026c2e   Section       14  qorganizeritem.o(i._ZN17QForeachContainerI5QListIN10QtMobility20QOrganizerItemDetailEEED1Ev)
    i._ZN17QForeachContainerI5QListIN10QtMobility21QOrganizerItemCommentEEED1Ev 0x00026c3c   Section       14  qorganizeritem.o(i._ZN17QForeachContainerI5QListIN10QtMobility21QOrganizerItemCommentEEED1Ev)
    i._ZN17QForeachContainerI5QListIN10QtMobility22QOrganizerCollectionIdEEED1Ev 0x00026c4a   Section       14  qorganizercollectionchangeset.o(i._ZN17QForeachContainerI5QListIN10QtMobility22QOrganizerCollectionIdEEED1Ev)
    i._ZN17QForeachContainerI5QListIPN10QtMobility23QOrganizerManagerEngineEEED1Ev 0x00026c58   Section       14  qorganizeritemmemorybackend.o(i._ZN17QForeachContainerI5QListIPN10QtMobility23QOrganizerManagerEngineEEED1Ev)
    i._ZN17QForeachContainerI5QListIPN10QtMobility30QOrganizerManagerEngineFactoryEEED1Ev 0x00026c66   Section       14  qorganizermanager_p.o(i._ZN17QForeachContainerI5QListIPN10QtMobility30QOrganizerManagerEngineFactoryEEED1Ev)
    i._ZN17QForeachContainerI5QListIiEED1Ev  0x00026c74   Section       14  qorganizermanager_p.o(i._ZN17QForeachContainerI5QListIiEED1Ev)
    i._ZN4QSetI5QDateED1Ev                   0x00026c82   Section       14  qorganizeritemdetails.o(i._ZN4QSetI5QDateED1Ev)
    i._ZN4QSetI7QStringED1Ev                 0x00026c90   Section       14  qorganizermanager_p.o(i._ZN4QSetI7QStringED1Ev)
    i._ZN4QSetIN10QtMobility16QOrganizerItemIdEED1Ev 0x00026c9e   Section       14  qorganizeritemchangeset.o(i._ZN4QSetIN10QtMobility16QOrganizerItemIdEED1Ev)
    i._ZN4QSetIN10QtMobility22QOrganizerCollectionIdEED1Ev 0x00026cac   Section       14  qorganizercollectionchangeset.o(i._ZN4QSetIN10QtMobility22QOrganizerCollectionIdEED1Ev)
    i._ZN4QSetIN10QtMobility24QOrganizerRecurrenceRule5MonthEED1Ev 0x00026cba   Section       14  qorganizerrecurrencerule.o(i._ZN4QSetIN10QtMobility24QOrganizerRecurrenceRule5MonthEED1Ev)
    i._ZN4QSetIN10QtMobility24QOrganizerRecurrenceRuleEED1Ev 0x00026cc8   Section       14  qorganizeritemdetails.o(i._ZN4QSetIN10QtMobility24QOrganizerRecurrenceRuleEED1Ev)
    i._ZN4QSetIN2Qt9DayOfWeekEED1Ev          0x00026cd6   Section       14  qorganizerrecurrencerule.o(i._ZN4QSetIN2Qt9DayOfWeekEED1Ev)
    i._ZN4QSetIiED1Ev                        0x00026ce4   Section       14  qorganizerrecurrencerule.o(i._ZN4QSetIiED1Ev)
    i._ZN6QDebug10maybeSpaceEv               0x00026cf2   Section       24  qorganizercollection.o(i._ZN6QDebug10maybeSpaceEv)
    i._ZN6QDebugC1ERKS_                      0x00026d0a   Section       16  qorganizercollection.o(i._ZN6QDebugC1ERKS_)
    i._ZN6QDebugD1Ev                         0x00026d1a   Section      144  qorganizeritemdetail.o(i._ZN6QDebugD1Ev)
    i._ZN6QDebugD1Ev.clean                   0x00026daa   Section       20  qorganizeritemdetail.o(i._ZN6QDebugD1Ev.clean)
    i._ZN6QDebuglsEPKc                       0x00026dbe   Section       44  qorganizercollection.o(i._ZN6QDebuglsEPKc)
    i._ZN6QDebuglsEPKc.clean                 0x00026dea   Section       10  qorganizercollection.o(i._ZN6QDebuglsEPKc.clean)
    i._ZN6QDebuglsERK7QString                0x00026df4   Section       38  qorganizeritemdetail.o(i._ZN6QDebuglsERK7QString)
    i._ZN6QDebuglsEc                         0x00026e1a   Section       22  qorganizercollection.o(i._ZN6QDebuglsEc)
    i._ZN6QDebuglsEj                         0x00026e30   Section       22  qorganizeritemmemorybackend.o(i._ZN6QDebuglsEj)
    i._ZN7QString4dataEv                     0x00026e46   Section       40  qorganizeritemmemorybackend.o(i._ZN7QString4dataEv)
    i._ZN7QString5clearEv                    0x00026e70   Section       56  qorganizeritemsortorder.o(i._ZN7QString5clearEv)
    i._ZN7QString5clearEv.clean              0x00026ea8   Section       10  qorganizeritemsortorder.o(i._ZN7QString5clearEv.clean)
    i._ZN7QString7compareERKS_RK10QStringRefN2Qt15CaseSensitivityE 0x00026eb4   Section       88  qorganizermanagerengine.o(i._ZN7QString7compareERKS_RK10QStringRefN2Qt15CaseSensitivityE)
    i._ZN7QStringC1ERK13QLatin1String        0x00026f0c   Section       26  qorganizercollectionid.o(i._ZN7QStringC1ERK13QLatin1String)
    i._ZN7QStringC1ERKS_                     0x00026f26   Section       22  qorganizercollection.o(i._ZN7QStringC1ERKS_)
    i._ZN7QStringC1Ev                        0x00026f3c   Section       24  qorganizercollection.o(i._ZN7QStringC1Ev)
    i._ZN7QStringD1Ev                        0x00026f54   Section       24  qorganizercollection.o(i._ZN7QStringD1Ev)
    i._ZN8QVariantC1Ev                       0x00026f6c   Section       38  qorganizercollection.o(i._ZN8QVariantC1Ev)
    i._ZN9QHashData8willGrowEv               0x00026f92   Section       32  qorganizeritemdetail.o(i._ZN9QHashData8willGrowEv)
    i._ZN9QHashData9firstNodeEv              0x00026fb2   Section       36  qorganizeritemdetail.o(i._ZN9QHashData9firstNodeEv)
    i._ZN9QHashData9hasShrunkEv              0x00026fd6   Section       82  qorganizeritemmemorybackend.o(i._ZN9QHashData9hasShrunkEv)
    i._ZN9QMultiMapIN10QtMobility22QOrganizerCollectionIdENS0_16QOrganizerItemIdEED1Ev 0x00027028   Section       14  qorganizeritemmemorybackend.o(i._ZN9QMultiMapIN10QtMobility22QOrganizerCollectionIdENS0_16QOrganizerItemIdEED1Ev)
    i._ZNK10QtMobility18QOrganizerItemType4typeEv 0x00027038   Section       32  qorganizeritem.o(i._ZNK10QtMobility18QOrganizerItemType4typeEv)
    i._ZNK10QtMobility20QOrganizerItemParent12originalDateEv 0x00027058   Section       52  qorganizeritemmemorybackend.o(i._ZNK10QtMobility20QOrganizerItemParent12originalDateEv)
    i._ZNK10QtMobility20QOrganizerItemParent12originalDateEv.clean 0x0002708c   Section       10  qorganizeritemmemorybackend.o(i._ZNK10QtMobility20QOrganizerItemParent12originalDateEv.clean)
    i._ZNK10QtMobility20QOrganizerItemParent8parentIdEv 0x00027098   Section      148  qorganizeritemmemorybackend.o(i._ZNK10QtMobility20QOrganizerItemParent8parentIdEv)
    i._ZNK10QtMobility20QOrganizerItemParent8parentIdEv.clean 0x0002712c   Section       20  qorganizeritemmemorybackend.o(i._ZNK10QtMobility20QOrganizerItemParent8parentIdEv.clean)
    i._ZNK10QtMobility25QOrganizerItemDescription11descriptionEv 0x00027140   Section       32  qorganizeritem.o(i._ZNK10QtMobility25QOrganizerItemDescription11descriptionEv)
    i._ZNK10QtMobility26QOrganizerItemDisplayLabel5labelEv 0x00027160   Section       32  qorganizeritem.o(i._ZNK10QtMobility26QOrganizerItemDisplayLabel5labelEv)
    i._ZNK10QtMobility26QOrganizerItemMemoryEngine12validateItemERKNS_14QOrganizerItemEPNS_17QOrganizerManager5ErrorE 0x00027180   Section       20  qorganizeritemmemorybackend.o(i._ZNK10QtMobility26QOrganizerItemMemoryEngine12validateItemERKNS_14QOrganizerItemEPNS_17QOrganizerManager5ErrorE)
    i._ZNK10QtMobility26QOrganizerItemMemoryEngine14compatibleItemERKNS_14QOrganizerItemEPNS_17QOrganizerManager5ErrorE 0x00027194   Section       24  qorganizeritemmemorybackend.o(i._ZNK10QtMobility26QOrganizerItemMemoryEngine14compatibleItemERKNS_14QOrganizerItemEPNS_17QOrganizerManager5ErrorE)
    i._ZNK10QtMobility26QOrganizerItemMemoryEngine14managerVersionEv 0x000271ac   Section        6  qorganizeritemmemorybackend.o(i._ZNK10QtMobility26QOrganizerItemMemoryEngine14managerVersionEv)
    i._ZNK10QtMobility26QOrganizerItemMemoryEngine16detailDefinitionERK7QStringS3_PNS_17QOrganizerManager5ErrorE 0x000271b2   Section       30  qorganizeritemmemorybackend.o(i._ZNK10QtMobility26QOrganizerItemMemoryEngine16detailDefinitionERK7QStringS3_PNS_17QOrganizerManager5ErrorE)
    i._ZNK10QtMobility26QOrganizerItemMemoryEngine18supportedItemTypesEv 0x000271d0   Section       16  qorganizeritemmemorybackend.o(i._ZNK10QtMobility26QOrganizerItemMemoryEngine18supportedItemTypesEv)
    i._ZNK10QtMobility26QOrganizerItemMemoryEngine18validateCollectionERKNS_20QOrganizerCollectionEPNS_17QOrganizerManager5ErrorE 0x000271e0   Section       14  qorganizeritemmemorybackend.o(i._ZNK10QtMobility26QOrganizerItemMemoryEngine18validateCollectionERKNS_20QOrganizerCollectionEPNS_17QOrganizerManager5ErrorE)
    i._ZNK10QtMobility26QOrganizerItemMemoryEngine18validateDefinitionERKNS_30QOrganizerItemDetailDefinitionEPNS_17QOrganizerManager5ErrorE 0x000271ee   Section       20  qorganizeritemmemorybackend.o(i._ZNK10QtMobility26QOrganizerItemMemoryEngine18validateDefinitionERKNS_30QOrganizerItemDetailDefinitionEPNS_17QOrganizerManager5ErrorE)
    i._ZNK10QtMobility26QOrganizerItemStringHolder9toQStringEv 0x00027204   Section      128  qorganizeritemdetail.o(i._ZNK10QtMobility26QOrganizerItemStringHolder9toQStringEv)
    i._ZNK10QtMobility26QOrganizerItemStringHolder9toQStringEv.clean 0x00027284   Section       16  qorganizeritemdetail.o(i._ZNK10QtMobility26QOrganizerItemStringHolder9toQStringEv.clean)
    i._ZNK10QtMobility26QOrganizerItemStringHoldereqEPKc 0x00027294   Section       32  qorganizeritem.o(i._ZNK10QtMobility26QOrganizerItemStringHoldereqEPKc)
    i._ZNK10QtMobility26QOrganizerItemStringHoldereqERK7QString 0x000272b4   Section       56  qorganizeritemdetail.o(i._ZNK10QtMobility26QOrganizerItemStringHoldereqERK7QString)
    i._ZNK10QtMobility26QOrganizerItemStringHoldereqERKS0_ 0x000272ec   Section       34  qorganizeritem.o(i._ZNK10QtMobility26QOrganizerItemStringHoldereqERKS0_)
    i._ZNK10QtMobility27QOrganizerItemInvalidEngine14compatibleItemERKNS_14QOrganizerItemEPNS_17QOrganizerManager5ErrorE 0x0002730e   Section       24  qorganizeriteminvalidbackend.o(i._ZNK10QtMobility27QOrganizerItemInvalidEngine14compatibleItemERKNS_14QOrganizerItemEPNS_17QOrganizerManager5ErrorE)
    i._ZNK10QtMobility27QOrganizerItemInvalidEngine14managerVersionEv 0x00027326   Section        6  qorganizeriteminvalidbackend.o(i._ZNK10QtMobility27QOrganizerItemInvalidEngine14managerVersionEv)
    i._ZNK10QtMobility27QOrganizerItemInvalidEngine23synthesizedDisplayLabelERKNS_14QOrganizerItemEPNS_17QOrganizerManager5ErrorE 0x0002732c   Section       48  qorganizeriteminvalidbackend.o(i._ZNK10QtMobility27QOrganizerItemInvalidEngine23synthesizedDisplayLabelERKNS_14QOrganizerItemEPNS_17QOrganizerManager5ErrorE)
    i._ZNK10QtMobility29QOrganizerItemIdFilterPrivate14outputToStreamER11QDataStreamh 0x0002735c   Section       26  qorganizeritemidfilter.o(i._ZNK10QtMobility29QOrganizerItemIdFilterPrivate14outputToStreamER11QDataStreamh)
    i._ZNK10QtMobility29QOrganizerItemIdFilterPrivate4typeEv 0x00027376   Section        6  qorganizeritemidfilter.o(i._ZNK10QtMobility29QOrganizerItemIdFilterPrivate4typeEv)
    i._ZNK10QtMobility29QOrganizerItemIdFilterPrivate5cloneEv 0x0002737c   Section       88  qorganizeritemidfilter.o(i._ZNK10QtMobility29QOrganizerItemIdFilterPrivate5cloneEv)
    i._ZNK10QtMobility29QOrganizerItemIdFilterPrivate5cloneEv.clean 0x000273d4   Section       24  qorganizeritemidfilter.o(i._ZNK10QtMobility29QOrganizerItemIdFilterPrivate5cloneEv.clean)
    i._ZNK10QtMobility29QOrganizerItemIdFilterPrivate7compareEPKNS_27QOrganizerItemFilterPrivateE 0x000273ec   Section       44  qorganizeritemidfilter.o(i._ZNK10QtMobility29QOrganizerItemIdFilterPrivate7compareEPKNS_27QOrganizerItemFilterPrivateE)
    i._ZNK10QtMobility32QOrganizerAbstractRequestPrivate4typeEv 0x00027418   Section        6  qorganizerabstractrequest.o(i._ZNK10QtMobility32QOrganizerAbstractRequestPrivate4typeEv)
    i._ZNK10QtMobility32QOrganizerItemSaveRequestPrivate4typeEv 0x0002741e   Section        6  qorganizermanagerengine.o(i._ZNK10QtMobility32QOrganizerItemSaveRequestPrivate4typeEv)
    i._ZNK10QtMobility32QOrganizerItemUnionFilterPrivate14outputToStreamER11QDataStreamh 0x00027424   Section       26  qorganizeritemunionfilter.o(i._ZNK10QtMobility32QOrganizerItemUnionFilterPrivate14outputToStreamER11QDataStreamh)
    i._ZNK10QtMobility32QOrganizerItemUnionFilterPrivate4typeEv 0x0002743e   Section        6  qorganizeritemunionfilter.o(i._ZNK10QtMobility32QOrganizerItemUnionFilterPrivate4typeEv)
    i._ZNK10QtMobility32QOrganizerItemUnionFilterPrivate5cloneEv 0x00027444   Section       88  qorganizeritemunionfilter.o(i._ZNK10QtMobility32QOrganizerItemUnionFilterPrivate5cloneEv)
    i._ZNK10QtMobility32QOrganizerItemUnionFilterPrivate5cloneEv.clean 0x0002749c   Section       24  qorganizeritemunionfilter.o(i._ZNK10QtMobility32QOrganizerItemUnionFilterPrivate5cloneEv.clean)
    i._ZNK10QtMobility32QOrganizerItemUnionFilterPrivate7compareEPKNS_27QOrganizerItemFilterPrivateE 0x000274b4   Section       44  qorganizeritemunionfilter.o(i._ZNK10QtMobility32QOrganizerItemUnionFilterPrivate7compareEPKNS_27QOrganizerItemFilterPrivateE)
    i._ZNK10QtMobility33QOrganizerItemDetailFilterPrivate14outputToStreamER11QDataStreamh 0x000274e0   Section       62  qorganizeritemdetailfilter.o(i._ZNK10QtMobility33QOrganizerItemDetailFilterPrivate14outputToStreamER11QDataStreamh)
    i._ZNK10QtMobility33QOrganizerItemDetailFilterPrivate4typeEv 0x0002751e   Section        6  qorganizeritemdetailfilter.o(i._ZNK10QtMobility33QOrganizerItemDetailFilterPrivate4typeEv)
    i._ZNK10QtMobility33QOrganizerItemDetailFilterPrivate5cloneEv 0x00027524   Section      140  qorganizeritemdetailfilter.o(i._ZNK10QtMobility33QOrganizerItemDetailFilterPrivate5cloneEv)
    i._ZNK10QtMobility33QOrganizerItemDetailFilterPrivate5cloneEv.clean 0x000275b0   Section       48  qorganizeritemdetailfilter.o(i._ZNK10QtMobility33QOrganizerItemDetailFilterPrivate5cloneEv.clean)
    i._ZNK10QtMobility33QOrganizerItemDetailFilterPrivate7compareEPKNS_27QOrganizerItemFilterPrivateE 0x000275e0   Section      100  qorganizeritemdetailfilter.o(i._ZNK10QtMobility33QOrganizerItemDetailFilterPrivate7compareEPKNS_27QOrganizerItemFilterPrivateE)
    i._ZNK10QtMobility33QOrganizerItemFetchRequestPrivate4typeEv 0x00027644   Section        6  qorganizermanagerengine.o(i._ZNK10QtMobility33QOrganizerItemFetchRequestPrivate4typeEv)
    i._ZNK10QtMobility34QOrganizerItemInvalidFilterPrivate14outputToStreamER11QDataStreamh 0x0002764a   Section       12  qorganizeriteminvalidfilter.o(i._ZNK10QtMobility34QOrganizerItemInvalidFilterPrivate14outputToStreamER11QDataStreamh)
    i._ZNK10QtMobility34QOrganizerItemInvalidFilterPrivate4typeEv 0x00027656   Section        6  qorganizeriteminvalidfilter.o(i._ZNK10QtMobility34QOrganizerItemInvalidFilterPrivate4typeEv)
    i._ZNK10QtMobility34QOrganizerItemInvalidFilterPrivate5cloneEv 0x0002765c   Section       30  qorganizeriteminvalidfilter.o(i._ZNK10QtMobility34QOrganizerItemInvalidFilterPrivate5cloneEv)
    i._ZNK10QtMobility34QOrganizerItemInvalidFilterPrivate5cloneEv.clean 0x0002767a   Section       14  qorganizeriteminvalidfilter.o(i._ZNK10QtMobility34QOrganizerItemInvalidFilterPrivate5cloneEv.clean)
    i._ZNK10QtMobility34QOrganizerItemInvalidFilterPrivate7compareEPKNS_27QOrganizerItemFilterPrivateE 0x00027688   Section        6  qorganizeriteminvalidfilter.o(i._ZNK10QtMobility34QOrganizerItemInvalidFilterPrivate7compareEPKNS_27QOrganizerItemFilterPrivateE)
    i._ZNK10QtMobility34QOrganizerItemRemoveRequestPrivate4typeEv 0x0002768e   Section        6  qorganizermanagerengine.o(i._ZNK10QtMobility34QOrganizerItemRemoveRequestPrivate4typeEv)
    i._ZNK10QtMobility35QOrganizerItemIdFetchRequestPrivate4typeEv 0x00027694   Section        6  qorganizermanagerengine.o(i._ZNK10QtMobility35QOrganizerItemIdFetchRequestPrivate4typeEv)
    i._ZNK10QtMobility36QOrganizerItemChangeLogFilterPrivate14outputToStreamER11QDataStreamh 0x0002769a   Section       38  qorganizeritemchangelogfilter.o(i._ZNK10QtMobility36QOrganizerItemChangeLogFilterPrivate14outputToStreamER11QDataStreamh)
    i._ZNK10QtMobility36QOrganizerItemChangeLogFilterPrivate4typeEv 0x000276c0   Section        6  qorganizeritemchangelogfilter.o(i._ZNK10QtMobility36QOrganizerItemChangeLogFilterPrivate4typeEv)
    i._ZNK10QtMobility36QOrganizerItemChangeLogFilterPrivate5cloneEv 0x000276c8   Section       96  qorganizeritemchangelogfilter.o(i._ZNK10QtMobility36QOrganizerItemChangeLogFilterPrivate5cloneEv)
    i._ZNK10QtMobility36QOrganizerItemChangeLogFilterPrivate5cloneEv.clean 0x00027728   Section       24  qorganizeritemchangelogfilter.o(i._ZNK10QtMobility36QOrganizerItemChangeLogFilterPrivate5cloneEv.clean)
    i._ZNK10QtMobility36QOrganizerItemChangeLogFilterPrivate7compareEPKNS_27QOrganizerItemFilterPrivateE 0x00027740   Section       56  qorganizeritemchangelogfilter.o(i._ZNK10QtMobility36QOrganizerItemChangeLogFilterPrivate7compareEPKNS_27QOrganizerItemFilterPrivateE)
    i._ZNK10QtMobility37QOrganizerItemCollectionFilterPrivate14outputToStreamER11QDataStreamh 0x00027778   Section       26  qorganizeritemcollectionfilter.o(i._ZNK10QtMobility37QOrganizerItemCollectionFilterPrivate14outputToStreamER11QDataStreamh)
    i._ZNK10QtMobility37QOrganizerItemCollectionFilterPrivate4typeEv 0x00027792   Section        6  qorganizeritemcollectionfilter.o(i._ZNK10QtMobility37QOrganizerItemCollectionFilterPrivate4typeEv)
    i._ZNK10QtMobility37QOrganizerItemCollectionFilterPrivate5cloneEv 0x00027798   Section       88  qorganizeritemcollectionfilter.o(i._ZNK10QtMobility37QOrganizerItemCollectionFilterPrivate5cloneEv)
    i._ZNK10QtMobility37QOrganizerItemCollectionFilterPrivate5cloneEv.clean 0x000277f0   Section       24  qorganizeritemcollectionfilter.o(i._ZNK10QtMobility37QOrganizerItemCollectionFilterPrivate5cloneEv.clean)
    i._ZNK10QtMobility37QOrganizerItemCollectionFilterPrivate7compareEPKNS_27QOrganizerItemFilterPrivateE 0x00027808   Section       48  qorganizeritemcollectionfilter.o(i._ZNK10QtMobility37QOrganizerItemCollectionFilterPrivate7compareEPKNS_27QOrganizerItemFilterPrivateE)
    i._ZNK10QtMobility38QOrganizerCollectionSaveRequestPrivate4typeEv 0x00027838   Section        6  qorganizermanagerengine.o(i._ZNK10QtMobility38QOrganizerCollectionSaveRequestPrivate4typeEv)
    i._ZNK10QtMobility38QOrganizerItemDetailRangeFilterPrivate14outputToStreamER11QDataStreamh 0x0002783e   Section       90  qorganizeritemdetailrangefilter.o(i._ZNK10QtMobility38QOrganizerItemDetailRangeFilterPrivate14outputToStreamER11QDataStreamh)
    i._ZNK10QtMobility38QOrganizerItemDetailRangeFilterPrivate4typeEv 0x00027898   Section        6  qorganizeritemdetailrangefilter.o(i._ZNK10QtMobility38QOrganizerItemDetailRangeFilterPrivate4typeEv)
    i._ZNK10QtMobility38QOrganizerItemDetailRangeFilterPrivate5cloneEv 0x0002789e   Section       32  qorganizeritemdetailrangefilter.o(i._ZNK10QtMobility38QOrganizerItemDetailRangeFilterPrivate5cloneEv)
    i._ZNK10QtMobility38QOrganizerItemDetailRangeFilterPrivate5cloneEv.clean 0x000278be   Section       14  qorganizeritemdetailrangefilter.o(i._ZNK10QtMobility38QOrganizerItemDetailRangeFilterPrivate5cloneEv.clean)
    i._ZNK10QtMobility38QOrganizerItemDetailRangeFilterPrivate7compareEPKNS_27QOrganizerItemFilterPrivateE 0x000278cc   Section      128  qorganizeritemdetailrangefilter.o(i._ZNK10QtMobility38QOrganizerItemDetailRangeFilterPrivate7compareEPKNS_27QOrganizerItemFilterPrivateE)
    i._ZNK10QtMobility39QOrganizerCollectionFetchRequestPrivate4typeEv 0x0002794c   Section        6  qorganizercollectionfetchrequest.o(i._ZNK10QtMobility39QOrganizerCollectionFetchRequestPrivate4typeEv)
    i._ZNK10QtMobility39QOrganizerItemIntersectionFilterPrivate14outputToStreamER11QDataStreamh 0x00027952   Section       26  qorganizeritemintersectionfilter.o(i._ZNK10QtMobility39QOrganizerItemIntersectionFilterPrivate14outputToStreamER11QDataStreamh)
    i._ZNK10QtMobility39QOrganizerItemIntersectionFilterPrivate4typeEv 0x0002796c   Section        6  qorganizeritemintersectionfilter.o(i._ZNK10QtMobility39QOrganizerItemIntersectionFilterPrivate4typeEv)
    i._ZNK10QtMobility39QOrganizerItemIntersectionFilterPrivate5cloneEv 0x00027974   Section       88  qorganizeritemintersectionfilter.o(i._ZNK10QtMobility39QOrganizerItemIntersectionFilterPrivate5cloneEv)
    i._ZNK10QtMobility39QOrganizerItemIntersectionFilterPrivate5cloneEv.clean 0x000279cc   Section       24  qorganizeritemintersectionfilter.o(i._ZNK10QtMobility39QOrganizerItemIntersectionFilterPrivate5cloneEv.clean)
    i._ZNK10QtMobility39QOrganizerItemIntersectionFilterPrivate7compareEPKNS_27QOrganizerItemFilterPrivateE 0x000279e4   Section       44  qorganizeritemintersectionfilter.o(i._ZNK10QtMobility39QOrganizerItemIntersectionFilterPrivate7compareEPKNS_27QOrganizerItemFilterPrivateE)
    i._ZNK10QtMobility40QOrganizerCollectionRemoveRequestPrivate4typeEv 0x00027a10   Section        6  qorganizermanagerengine.o(i._ZNK10QtMobility40QOrganizerCollectionRemoveRequestPrivate4typeEv)
    i._ZNK10QtMobility42QOrganizerItemFetchForExportRequestPrivate4typeEv 0x00027a16   Section        6  qorganizermanagerengine.o(i._ZNK10QtMobility42QOrganizerItemFetchForExportRequestPrivate4typeEv)
    i._ZNK10QtMobility43QOrganizerItemOccurrenceFetchRequestPrivate4typeEv 0x00027a1c   Section        6  qorganizermanagerengine.o(i._ZNK10QtMobility43QOrganizerItemOccurrenceFetchRequestPrivate4typeEv)
    i._ZNK10QtMobility48QOrganizerItemDetailDefinitionSaveRequestPrivate4typeEv 0x00027a22   Section        6  qorganizermanagerengine.o(i._ZNK10QtMobility48QOrganizerItemDetailDefinitionSaveRequestPrivate4typeEv)
    i._ZNK10QtMobility49QOrganizerItemDetailDefinitionFetchRequestPrivate4typeEv 0x00027a28   Section        6  qorganizermanagerengine.o(i._ZNK10QtMobility49QOrganizerItemDetailDefinitionFetchRequestPrivate4typeEv)
    i._ZNK10QtMobility50QOrganizerItemDetailDefinitionRemoveRequestPrivate4typeEv 0x00027a2e   Section        6  qorganizermanagerengine.o(i._ZNK10QtMobility50QOrganizerItemDetailDefinitionRemoveRequestPrivate4typeEv)
    i._ZNK11QStringList8containsERK7QStringN2Qt15CaseSensitivityE 0x00027a34   Section       22  qorganizermanager.o(i._ZNK11QStringList8containsERK7QStringN2Qt15CaseSensitivityE)
    i._ZNK15QBasicAtomicInteqEi              0x00027a4a   Section       16  qorganizermanagerengine.o(i._ZNK15QBasicAtomicInteqEi)
    i._ZNK15QBasicAtomicIntneEi              0x00027a5a   Section       16  qorganizercollection.o(i._ZNK15QBasicAtomicIntneEi)
    i._ZNK15QBasicAtomicIntntEv              0x00027a6a   Section       16  qorganizermanagerengine.o(i._ZNK15QBasicAtomicIntntEv)
    i._ZNK5QBoolcvPKvEv                      0x00027a7a   Section       16  qorganizermanager.o(i._ZNK5QBoolcvPKvEv)
    i._ZNK5QDateeqERKS_                      0x00027a8a   Section       18  qorganizeritemdetails.o(i._ZNK5QDateeqERKS_)
    i._ZNK5QDategeERKS_                      0x00027a9c   Section       18  qorganizeritemmemorybackend.o(i._ZNK5QDategeERKS_)
    i._ZNK5QDateleERKS_                      0x00027aae   Section       18  qorganizeritemmemorybackend.o(i._ZNK5QDateleERKS_)
    i._ZNK5QDateltERKS_                      0x00027ac0   Section       18  qorganizeritemmemorybackend.o(i._ZNK5QDateltERKS_)
    i._ZNK7QString7isEmptyEv                 0x00027ad2   Section       18  qorganizercollectionid.o(i._ZNK7QString7isEmptyEv)
    i._ZNK7QStringneERK13QLatin1String       0x00027ae4   Section       20  qorganizermanager_p.o(i._ZNK7QStringneERK13QLatin1String)
    i._ZNK7QStringneERKS_                    0x00027af8   Section       20  qorganizeritemmemorybackend.o(i._ZNK7QStringneERKS_)
    i._ZNK8QVariant7isValidEv                0x00027b0c   Section       18  qorganizeritemdetail.o(i._ZNK8QVariant7isValidEv)
    i._ZNK8QVariantneERKS_                   0x00027b1e   Section       20  qorganizeritemdetailrangefilter.o(i._ZNK8QVariantneERKS_)
    i._ZNK9QDateTimegeERKS_                  0x00027b32   Section       20  qorganizermanagerengine.o(i._ZNK9QDateTimegeERKS_)
    i._ZNK9QDateTimeleERKS_                  0x00027b46   Section       20  qorganizermanagerengine.o(i._ZNK9QDateTimeleERKS_)
    i._ZNK9QListData2atEi                    0x00027b5a   Section       20  qorganizercollectionid.o(i._ZNK9QListData2atEi)
    i._ZNK9QListData3endEv                   0x00027b6e   Section       16  qorganizercollectionchangeset.o(i._ZNK9QListData3endEv)
    i._ZNK9QListData4sizeEv                  0x00027b7e   Section       14  qorganizeritem.o(i._ZNK9QListData4sizeEv)
    i._ZNK9QListData5beginEv                 0x00027b8c   Section       16  qorganizercollection.o(i._ZNK9QListData5beginEv)
    i._ZNK9QListData7isEmptyEv               0x00027b9c   Section       22  qorganizermanager.o(i._ZNK9QListData7isEmptyEv)
    i._ZdlPvS_                               0x00027bb2   Section        2  qorganizercollection.o(i._ZdlPvS_)
    i._ZnwjPv                                0x00027bb4   Section        6  qorganizercollection.o(i._ZnwjPv)
    i._ZplRK7QString5QChar                   0x00027bba   Section      128  qorganizercollectionid.o(i._ZplRK7QString5QChar)
    i._ZplRK7QString5QChar.clean             0x00027c3a   Section       10  qorganizercollectionid.o(i._ZplRK7QString5QChar.clean)
    i._ZplRK7QStringS1_                      0x00027c44   Section       44  qorganizermanager.o(i._ZplRK7QStringS1_)
    i._ZplRK7QStringS1_.clean                0x00027c70   Section       10  qorganizermanager.o(i._ZplRK7QStringS1_.clean)
    t._Z11qBinaryFindI5QListI9QDateTimeES1_ENT_14const_iteratorERKS3_RKT0_ 0x00027c7a   Section       70  qorganizeritemmemorybackend.o(t._Z11qBinaryFindI5QListI9QDateTimeES1_ENT_14const_iteratorERKS3_RKT0_)
    t._Z12qobject_castIPN10QtMobility30QOrganizerManagerEngineFactoryEET_P7QObject 0x00027cc0   Section       80  qorganizermanager_p.o(t._Z12qobject_castIPN10QtMobility30QOrganizerManagerEngineFactoryEET_P7QObject)
    t._Z15qMapLessThanKeyI7QStringEbRKT_S3_  0x00027d10   Section       16  qorganizercollection.o(t._Z15qMapLessThanKeyI7QStringEbRKT_S3_)
    t._Z15qMapLessThanKeyIN10QtMobility22QOrganizerCollectionIdEEbRKT_S4_ 0x00027d20   Section       16  qorganizeritemmemorybackend.o(t._Z15qMapLessThanKeyIN10QtMobility22QOrganizerCollectionIdEEbRKT_S4_)
    t._Z15qMapLessThanKeyIiEbRKT_S2_         0x00027d30   Section       18  qorganizeritemmemorybackend.o(t._Z15qMapLessThanKeyIiEbRKT_S2_)
    t._Z17qRegisterMetaTypeI4QSetI5QDateEEiPKcPT_ 0x00027d44   Section       64  qorganizermanagerengine.o(t._Z17qRegisterMetaTypeI4QSetI5QDateEEiPKcPT_)
    t._Z17qRegisterMetaTypeI4QSetIN10QtMobility24QOrganizerRecurrenceRuleEEEiPKcPT_ 0x00027d84   Section       64  qorganizermanagerengine.o(t._Z17qRegisterMetaTypeI4QSetIN10QtMobility24QOrganizerRecurrenceRuleEEEiPKcPT_)
    t._Z17qRegisterMetaTypeIN10QtMobility16QOrganizerItemIdEEiPKcPT_ 0x00027dc4   Section       64  qorganizermanagerengine.o(t._Z17qRegisterMetaTypeIN10QtMobility16QOrganizerItemIdEEiPKcPT_)
    t._Z20qForeachContainerNewI4QSetI5QDateEE17QForeachContainerIT_ERKS4_ 0x00027e04   Section      152  qorganizeritemmemorybackend.o(t._Z20qForeachContainerNewI4QSetI5QDateEE17QForeachContainerIT_ERKS4_)
    t._Z20qForeachContainerNewI4QSetI5QDateEE17QForeachContainerIT_ERKS4_.clean 0x00027e9c   Section       10  qorganizeritemmemorybackend.o(t._Z20qForeachContainerNewI4QSetI5QDateEE17QForeachContainerIT_ERKS4_.clean)
    t._Z20qForeachContainerNewI4QSetIN10QtMobility24QOrganizerRecurrenceRuleEEE17QForeachContainerIT_ERKS5_ 0x00027ea6   Section      172  qorganizeritemmemorybackend.o(t._Z20qForeachContainerNewI4QSetIN10QtMobility24QOrganizerRecurrenceRuleEEE17QForeachContainerIT_ERKS5_)
    t._Z20qForeachContainerNewI4QSetIN10QtMobility24QOrganizerRecurrenceRuleEEE17QForeachContainerIT_ERKS5_.clean 0x00027f52   Section       10  qorganizeritemmemorybackend.o(t._Z20qForeachContainerNewI4QSetIN10QtMobility24QOrganizerRecurrenceRuleEEE17QForeachContainerIT_ERKS5_.clean)
    t._Z20qForeachContainerNewI4QSetIiEE17QForeachContainerIT_ERKS3_ 0x00027f5c   Section      118  qorganizerrecurrencerule.o(t._Z20qForeachContainerNewI4QSetIiEE17QForeachContainerIT_ERKS3_)
    t._Z20qForeachContainerNewI4QSetIiEE17QForeachContainerIT_ERKS3_.clean 0x00027fd2   Section       10  qorganizerrecurrencerule.o(t._Z20qForeachContainerNewI4QSetIiEE17QForeachContainerIT_ERKS3_.clean)
    t._Z20qForeachContainerNewI5QHashIN10QtMobility16QOrganizerItemIdENS1_14QOrganizerItemEEE17QForeachContainerIT_ERKS6_ 0x00027fdc   Section      106  qorganizeritemmemorybackend.o(t._Z20qForeachContainerNewI5QHashIN10QtMobility16QOrganizerItemIdENS1_14QOrganizerItemEEE17QForeachContainerIT_ERKS6_)
    t._Z20qForeachContainerNewI5QHashIN10QtMobility16QOrganizerItemIdENS1_14QOrganizerItemEEE17QForeachContainerIT_ERKS6_.clean 0x00028046   Section       10  qorganizeritemmemorybackend.o(t._Z20qForeachContainerNewI5QHashIN10QtMobility16QOrganizerItemIdENS1_14QOrganizerItemEEE17QForeachContainerIT_ERKS6_.clean)
    t._Z20qForeachContainerNewI5QListI9QDateTimeEE17QForeachContainerIT_ERKS4_ 0x00028050   Section      126  qorganizeritemmemorybackend.o(t._Z20qForeachContainerNewI5QListI9QDateTimeEE17QForeachContainerIT_ERKS4_)
    t._Z20qForeachContainerNewI5QListI9QDateTimeEE17QForeachContainerIT_ERKS4_.clean 0x000280ce   Section       10  qorganizeritemmemorybackend.o(t._Z20qForeachContainerNewI5QListI9QDateTimeEE17QForeachContainerIT_ERKS4_.clean)
    t._Z20qForeachContainerNewI5QListIN10QtMobility14QOrganizerItemEEE17QForeachContainerIT_ERKS5_ 0x000280d8   Section      102  qorganizeritemmemorybackend.o(t._Z20qForeachContainerNewI5QListIN10QtMobility14QOrganizerItemEEE17QForeachContainerIT_ERKS5_)
    t._Z20qForeachContainerNewI5QListIN10QtMobility14QOrganizerItemEEE17QForeachContainerIT_ERKS5_.clean 0x0002813e   Section       10  qorganizeritemmemorybackend.o(t._Z20qForeachContainerNewI5QListIN10QtMobility14QOrganizerItemEEE17QForeachContainerIT_ERKS5_.clean)
    t._Z20qForeachContainerNewI5QListIN10QtMobility16QOrganizerItemIdEEE17QForeachContainerIT_ERKS5_ 0x00028148   Section      126  qorganizeritemchangeset.o(t._Z20qForeachContainerNewI5QListIN10QtMobility16QOrganizerItemIdEEE17QForeachContainerIT_ERKS5_)
    t._Z20qForeachContainerNewI5QListIN10QtMobility16QOrganizerItemIdEEE17QForeachContainerIT_ERKS5_.clean 0x000281c6   Section       10  qorganizeritemchangeset.o(t._Z20qForeachContainerNewI5QListIN10QtMobility16QOrganizerItemIdEEE17QForeachContainerIT_ERKS5_.clean)
    t._Z20qForeachContainerNewI5QListIN10QtMobility20QOrganizerItemDetailEEE17QForeachContainerIT_ERKS5_ 0x000281d0   Section      102  qorganizeritem.o(t._Z20qForeachContainerNewI5QListIN10QtMobility20QOrganizerItemDetailEEE17QForeachContainerIT_ERKS5_)
    t._Z20qForeachContainerNewI5QListIN10QtMobility20QOrganizerItemDetailEEE17QForeachContainerIT_ERKS5_.clean 0x00028236   Section       10  qorganizeritem.o(t._Z20qForeachContainerNewI5QListIN10QtMobility20QOrganizerItemDetailEEE17QForeachContainerIT_ERKS5_.clean)
    t._Z20qForeachContainerNewI5QListIN10QtMobility21QOrganizerItemCommentEEE17QForeachContainerIT_ERKS5_ 0x00028240   Section      126  qorganizeritem.o(t._Z20qForeachContainerNewI5QListIN10QtMobility21QOrganizerItemCommentEEE17QForeachContainerIT_ERKS5_)
    t._Z20qForeachContainerNewI5QListIN10QtMobility21QOrganizerItemCommentEEE17QForeachContainerIT_ERKS5_.clean 0x000282be   Section       10  qorganizeritem.o(t._Z20qForeachContainerNewI5QListIN10QtMobility21QOrganizerItemCommentEEE17QForeachContainerIT_ERKS5_.clean)
    t._Z20qForeachContainerNewI5QListIN10QtMobility22QOrganizerCollectionIdEEE17QForeachContainerIT_ERKS5_ 0x000282c8   Section      126  qorganizercollectionchangeset.o(t._Z20qForeachContainerNewI5QListIN10QtMobility22QOrganizerCollectionIdEEE17QForeachContainerIT_ERKS5_)
    t._Z20qForeachContainerNewI5QListIN10QtMobility22QOrganizerCollectionIdEEE17QForeachContainerIT_ERKS5_.clean 0x00028346   Section       10  qorganizercollectionchangeset.o(t._Z20qForeachContainerNewI5QListIN10QtMobility22QOrganizerCollectionIdEEE17QForeachContainerIT_ERKS5_.clean)
    t._Z20qForeachContainerNewI5QListIPN10QtMobility30QOrganizerManagerEngineFactoryEEE17QForeachContainerIT_ERKS6_ 0x00028350   Section      126  qorganizermanager_p.o(t._Z20qForeachContainerNewI5QListIPN10QtMobility30QOrganizerManagerEngineFactoryEEE17QForeachContainerIT_ERKS6_)
    t._Z20qForeachContainerNewI5QListIPN10QtMobility30QOrganizerManagerEngineFactoryEEE17QForeachContainerIT_ERKS6_.clean 0x000283ce   Section       10  qorganizermanager_p.o(t._Z20qForeachContainerNewI5QListIPN10QtMobility30QOrganizerManagerEngineFactoryEEE17QForeachContainerIT_ERKS6_.clean)
    t._Z21qMetaTypeDeleteHelperI4QSetI5QDateEEvPT_ 0x000283d8   Section       22  qorganizeritemdetails.o(t._Z21qMetaTypeDeleteHelperI4QSetI5QDateEEvPT_)
    t._Z21qMetaTypeDeleteHelperI4QSetIN10QtMobility24QOrganizerRecurrenceRuleEEEvPT_ 0x000283ee   Section       22  qorganizeritemdetails.o(t._Z21qMetaTypeDeleteHelperI4QSetIN10QtMobility24QOrganizerRecurrenceRuleEEEvPT_)
    t._Z21qMetaTypeDeleteHelperIN10QtMobility16QOrganizerItemIdEEvPT_ 0x00028404   Section       22  qorganizermanagerengine.o(t._Z21qMetaTypeDeleteHelperIN10QtMobility16QOrganizerItemIdEEvPT_)
    t._Z24qMetaTypeConstructHelperI4QSetI5QDateEEPvPKT_ 0x0002841a   Section       80  qorganizeritemdetails.o(t._Z24qMetaTypeConstructHelperI4QSetI5QDateEEPvPKT_)
    t._Z24qMetaTypeConstructHelperI4QSetI5QDateEEPvPKT_.clean 0x0002846a   Section       28  qorganizeritemdetails.o(t._Z24qMetaTypeConstructHelperI4QSetI5QDateEEPvPKT_.clean)
    t._Z24qMetaTypeConstructHelperI4QSetIN10QtMobility24QOrganizerRecurrenceRuleEEEPvPKT_ 0x00028486   Section       80  qorganizeritemdetails.o(t._Z24qMetaTypeConstructHelperI4QSetIN10QtMobility24QOrganizerRecurrenceRuleEEEPvPKT_)
    t._Z24qMetaTypeConstructHelperI4QSetIN10QtMobility24QOrganizerRecurrenceRuleEEEPvPKT_.clean 0x000284d6   Section       28  qorganizeritemdetails.o(t._Z24qMetaTypeConstructHelperI4QSetIN10QtMobility24QOrganizerRecurrenceRuleEEEPvPKT_.clean)
    t._Z24qMetaTypeConstructHelperIN10QtMobility16QOrganizerItemIdEEPvPKT_ 0x000284f2   Section       80  qorganizermanagerengine.o(t._Z24qMetaTypeConstructHelperIN10QtMobility16QOrganizerItemIdEEPvPKT_)
    t._Z24qMetaTypeConstructHelperIN10QtMobility16QOrganizerItemIdEEPvPKT_.clean 0x00028542   Section       28  qorganizermanagerengine.o(t._Z24qMetaTypeConstructHelperIN10QtMobility16QOrganizerItemIdEEPvPKT_.clean)
    t._Z5qSwapI9QDateTimeEvRT_S2_            0x0002855e   Section       38  qorganizeritemmemorybackend.o(t._Z5qSwapI9QDateTimeEvRT_S2_)
    t._Z5qSwapI9QDateTimeEvRT_S2_.clean      0x00028584   Section       10  qorganizeritemmemorybackend.o(t._Z5qSwapI9QDateTimeEvRT_S2_.clean)
    t._ZN10QtMobilityeqILi14EEEbRK7QStringRKNS_15QLatin1ConstantIXT_EEE 0x0002858e   Section       24  qorganizeritemdetails.o(t._ZN10QtMobilityeqILi14EEEbRK7QStringRKNS_15QLatin1ConstantIXT_EEE)
    t._ZN10QtMobilityeqILi15EEEbRK7QStringRKNS_15QLatin1ConstantIXT_EEE 0x000285a6   Section       24  qorganizermanagerengine.o(t._ZN10QtMobilityeqILi15EEEbRK7QStringRKNS_15QLatin1ConstantIXT_EEE)
    t._ZN10QtMobilityeqILi16EEEbRK7QStringRKNS_15QLatin1ConstantIXT_EEE 0x000285be   Section       24  qorganizermanagerengine.o(t._ZN10QtMobilityeqILi16EEEbRK7QStringRKNS_15QLatin1ConstantIXT_EEE)
    t._ZN10QtMobilityeqILi5EEEbRK7QStringRKNS_15QLatin1ConstantIXT_EEE 0x000285d6   Section       24  qorganizermanagerengine.o(t._ZN10QtMobilityeqILi5EEEbRK7QStringRKNS_15QLatin1ConstantIXT_EEE)
    t._ZN10QtMobilityeqILi6EEEbRK7QStringRKNS_15QLatin1ConstantIXT_EEE 0x000285ee   Section       24  qorganizermanagerengine.o(t._ZN10QtMobilityeqILi6EEEbRK7QStringRKNS_15QLatin1ConstantIXT_EEE)
    t._ZN10QtMobilityeqILi8EEEbRK7QStringRKNS_15QLatin1ConstantIXT_EEE 0x00028606   Section       24  qorganizermanagerengine.o(t._ZN10QtMobilityeqILi8EEEbRK7QStringRKNS_15QLatin1ConstantIXT_EEE)
    t._ZN10QtMobilityneILi10EEEbRK7QStringRKNS_15QLatin1ConstantIXT_EEE 0x0002861e   Section       24  qorganizeritemmemorybackend.o(t._ZN10QtMobilityneILi10EEEbRK7QStringRKNS_15QLatin1ConstantIXT_EEE)
    t._ZN10QtMobilityneILi11EEEbRK7QStringRKNS_15QLatin1ConstantIXT_EEE 0x00028636   Section       24  qorganizeritemmemorybackend.o(t._ZN10QtMobilityneILi11EEEbRK7QStringRKNS_15QLatin1ConstantIXT_EEE)
    t._ZN10QtMobilityneILi5EEEbRK7QStringRKNS_15QLatin1ConstantIXT_EEE 0x0002864e   Section       24  qorganizeritemmemorybackend.o(t._ZN10QtMobilityneILi5EEEbRK7QStringRKNS_15QLatin1ConstantIXT_EEE)
    t._ZN10QtMobilityneILi9EEEbRK7QStringRKNS_15QLatin1ConstantIXT_EEE 0x00028666   Section       24  qorganizeritemmemorybackend.o(t._ZN10QtMobilityneILi9EEEbRK7QStringRKNS_15QLatin1ConstantIXT_EEE)
    t._ZN12QMapIteratorI7QString8QVariantEC1ERK4QMapIS0_S1_E 0x0002867e   Section       98  qorganizermanagerengine.o(t._ZN12QMapIteratorI7QString8QVariantEC1ERK4QMapIS0_S1_E)
    t._ZN12QMapIteratorI7QString8QVariantEC1ERK4QMapIS0_S1_E.clean 0x000286e0   Section        4  qorganizermanagerengine.o(t._ZN12QMapIteratorI7QString8QVariantEC1ERK4QMapIS0_S1_E.clean)
    t._ZN12QMetaTypeId2I4QSetI5QDateEE14qt_metatype_idEv 0x000286e4   Section       60  qorganizermanagerengine.o(t._ZN12QMetaTypeId2I4QSetI5QDateEE14qt_metatype_idEv)
    t._ZN12QMetaTypeId2I4QSetIN10QtMobility24QOrganizerRecurrenceRuleEEE14qt_metatype_idEv 0x00028720   Section      104  qorganizermanagerengine.o(t._ZN12QMetaTypeId2I4QSetIN10QtMobility24QOrganizerRecurrenceRuleEEE14qt_metatype_idEv)
    t._ZN12QMetaTypeId2IN10QtMobility16QOrganizerItemIdEE14qt_metatype_idEv 0x00028788   Section       88  qorganizermanagerengine.o(t._ZN12QMetaTypeId2IN10QtMobility16QOrganizerItemIdEE14qt_metatype_idEv)
    t._ZN12QWeakPointerIN10QtMobility25QOrganizerAbstractRequestEED1Ev 0x000287e0   Section       42  qorganizeritemmemorybackend.o(t._ZN12QWeakPointerIN10QtMobility25QOrganizerAbstractRequestEED1Ev)
    t._ZN12QWeakPointerIN10QtMobility25QOrganizerItemSaveRequestEED1Ev 0x0002880a   Section       42  qorganizermanagerengine.o(t._ZN12QWeakPointerIN10QtMobility25QOrganizerItemSaveRequestEED1Ev)
    t._ZN12QWeakPointerIN10QtMobility26QOrganizerItemFetchRequestEED1Ev 0x00028834   Section       42  qorganizermanagerengine.o(t._ZN12QWeakPointerIN10QtMobility26QOrganizerItemFetchRequestEED1Ev)
    t._ZN12QWeakPointerIN10QtMobility27QOrganizerItemRemoveRequestEED1Ev 0x0002885e   Section       42  qorganizermanagerengine.o(t._ZN12QWeakPointerIN10QtMobility27QOrganizerItemRemoveRequestEED1Ev)
    t._ZN12QWeakPointerIN10QtMobility28QOrganizerItemIdFetchRequestEED1Ev 0x00028888   Section       42  qorganizermanagerengine.o(t._ZN12QWeakPointerIN10QtMobility28QOrganizerItemIdFetchRequestEED1Ev)
    t._ZN12QWeakPointerIN10QtMobility31QOrganizerCollectionSaveRequestEED1Ev 0x000288b2   Section       42  qorganizermanagerengine.o(t._ZN12QWeakPointerIN10QtMobility31QOrganizerCollectionSaveRequestEED1Ev)
    t._ZN12QWeakPointerIN10QtMobility32QOrganizerCollectionFetchRequestEED1Ev 0x000288dc   Section       42  qorganizermanagerengine.o(t._ZN12QWeakPointerIN10QtMobility32QOrganizerCollectionFetchRequestEED1Ev)
    t._ZN12QWeakPointerIN10QtMobility33QOrganizerCollectionRemoveRequestEED1Ev 0x00028906   Section       42  qorganizermanagerengine.o(t._ZN12QWeakPointerIN10QtMobility33QOrganizerCollectionRemoveRequestEED1Ev)
    t._ZN12QWeakPointerIN10QtMobility35QOrganizerItemFetchForExportRequestEED1Ev 0x00028930   Section       42  qorganizermanagerengine.o(t._ZN12QWeakPointerIN10QtMobility35QOrganizerItemFetchForExportRequestEED1Ev)
    t._ZN12QWeakPointerIN10QtMobility36QOrganizerItemOccurrenceFetchRequestEED1Ev 0x0002895a   Section       42  qorganizermanagerengine.o(t._ZN12QWeakPointerIN10QtMobility36QOrganizerItemOccurrenceFetchRequestEED1Ev)
    t._ZN12QWeakPointerIN10QtMobility41QOrganizerItemDetailDefinitionSaveRequestEED1Ev 0x00028984   Section       42  qorganizermanagerengine.o(t._ZN12QWeakPointerIN10QtMobility41QOrganizerItemDetailDefinitionSaveRequestEED1Ev)
    t._ZN12QWeakPointerIN10QtMobility42QOrganizerItemDetailDefinitionFetchRequestEED1Ev 0x000289ae   Section       42  qorganizermanagerengine.o(t._ZN12QWeakPointerIN10QtMobility42QOrganizerItemDetailDefinitionFetchRequestEED1Ev)
    t._ZN12QWeakPointerIN10QtMobility43QOrganizerItemDetailDefinitionRemoveRequestEED1Ev 0x000289d8   Section       42  qorganizermanagerengine.o(t._ZN12QWeakPointerIN10QtMobility43QOrganizerItemDetailDefinitionRemoveRequestEED1Ev)
    t._ZN13QConcatenableI14QStringBuilderIS0_I7QString11QLatin1CharES1_EE4sizeERKS4_ 0x00028a02   Section       40  qorganizeritemmemorybackend.o(t._ZN13QConcatenableI14QStringBuilderIS0_I7QString11QLatin1CharES1_EE4sizeERKS4_)
    t._ZN13QConcatenableI14QStringBuilderIS0_I7QString11QLatin1CharES1_EE8appendToERKS4_RP5QChar 0x00028a2a   Section       38  qorganizeritemmemorybackend.o(t._ZN13QConcatenableI14QStringBuilderIS0_I7QString11QLatin1CharES1_EE8appendToERKS4_RP5QChar)
    t._ZN14QHashDummyNodeI7QString15QHashDummyValueEC1ERKS0_ 0x00028a50   Section       24  qorganizermanager_p.o(t._ZN14QHashDummyNodeI7QString15QHashDummyValueEC1ERKS0_)
    t._ZN14QHashDummyNodeIN10QtMobility16QOrganizerItemIdE15QHashDummyValueEC1ERKS1_ 0x00028a68   Section       24  qorganizeritemchangeset.o(t._ZN14QHashDummyNodeIN10QtMobility16QOrganizerItemIdE15QHashDummyValueEC1ERKS1_)
    t._ZN14QHashDummyNodeIN10QtMobility22QOrganizerCollectionIdE15QHashDummyValueEC1ERKS1_ 0x00028a80   Section       24  qorganizercollectionchangeset.o(t._ZN14QHashDummyNodeIN10QtMobility22QOrganizerCollectionIdE15QHashDummyValueEC1ERKS1_)
    t._ZN14QHashDummyNodeIN10QtMobility24QOrganizerRecurrenceRuleE15QHashDummyValueEC1ERKS1_ 0x00028a98   Section       24  qorganizerevent.o(t._ZN14QHashDummyNodeIN10QtMobility24QOrganizerRecurrenceRuleE15QHashDummyValueEC1ERKS1_)
    t._ZN18QAlgorithmsPrivate11qSortHelperIN5QListI9QDateTimeE8iteratorES2_5qLessIS2_EEEvT_S7_RKT0_T1_ 0x00028ab0   Section      662  qorganizeritemmemorybackend.o(t._ZN18QAlgorithmsPrivate11qSortHelperIN5QListI9QDateTimeE8iteratorES2_5qLessIS2_EEEvT_S7_RKT0_T1_)
    t._ZN18QAlgorithmsPrivate17qBinaryFindHelperIN5QListI9QDateTimeE14const_iteratorES2_5qLessIS2_EEET_S7_S7_RKT0_T1_ 0x00028d46   Section      108  qorganizeritemmemorybackend.o(t._ZN18QAlgorithmsPrivate17qBinaryFindHelperIN5QListI9QDateTimeE14const_iteratorES2_5qLessIS2_EEET_S7_S7_RKT0_T1_)
    t._ZN18QAlgorithmsPrivate17qLowerBoundHelperIN5QListI9QDateTimeE14const_iteratorES2_5qLessIS2_EEET_S7_S7_RKT0_T1_ 0x00028db2   Section      138  qorganizeritemmemorybackend.o(t._ZN18QAlgorithmsPrivate17qLowerBoundHelperIN5QListI9QDateTimeE14const_iteratorES2_5qLessIS2_EEET_S7_S7_RKT0_T1_)
    t._ZN18QSharedDataPointerIN10QtMobility18QOrganizerItemDataEE13detach_helperEv 0x00028e3c   Section      146  qorganizeritem.o(t._ZN18QSharedDataPointerIN10QtMobility18QOrganizerItemDataEE13detach_helperEv)
    t._ZN18QSharedDataPointerIN10QtMobility18QOrganizerItemDataEE13detach_helperEv.clean 0x00028ece   Section       40  qorganizeritem.o(t._ZN18QSharedDataPointerIN10QtMobility18QOrganizerItemDataEE13detach_helperEv.clean)
    t._ZN18QSharedDataPointerIN10QtMobility18QOrganizerItemDataEED1Ev 0x00028ef6   Section       42  qorganizeritem.o(t._ZN18QSharedDataPointerIN10QtMobility18QOrganizerItemDataEED1Ev)
    t._ZN18QSharedDataPointerIN10QtMobility18QOrganizerItemDataEEaSEPS1_ 0x00028f20   Section       62  qorganizeritem.o(t._ZN18QSharedDataPointerIN10QtMobility18QOrganizerItemDataEEaSEPS1_)
    t._ZN18QSharedDataPointerIN10QtMobility18QOrganizerItemDataEEaSERKS2_ 0x00028f5e   Section       68  qorganizeritem.o(t._ZN18QSharedDataPointerIN10QtMobility18QOrganizerItemDataEEaSERKS2_)
    t._ZN18QSharedDataPointerIN10QtMobility18QOrganizerItemDataEEptEv 0x00028fa2   Section       34  qorganizeritem.o(t._ZN18QSharedDataPointerIN10QtMobility18QOrganizerItemDataEEptEv)
    t._ZN18QSharedDataPointerIN10QtMobility22QOrganizerItemEngineIdEE5cloneEv 0x00028fc4   Section       26  qorganizeritemid.o(t._ZN18QSharedDataPointerIN10QtMobility22QOrganizerItemEngineIdEE5cloneEv)
    t._ZN18QSharedDataPointerIN10QtMobility22QOrganizerItemEngineIdEEC1EPS1_ 0x00028fde   Section       26  qorganizeritemid.o(t._ZN18QSharedDataPointerIN10QtMobility22QOrganizerItemEngineIdEEC1EPS1_)
    t._ZN18QSharedDataPointerIN10QtMobility22QOrganizerItemEngineIdEED1Ev 0x00028ff8   Section       42  qorganizeritemid.o(t._ZN18QSharedDataPointerIN10QtMobility22QOrganizerItemEngineIdEED1Ev)
    t._ZN18QSharedDataPointerIN10QtMobility24QOrganizerCollectionDataEE13detach_helperEv 0x00029022   Section       50  qorganizercollection.o(t._ZN18QSharedDataPointerIN10QtMobility24QOrganizerCollectionDataEE13detach_helperEv)
    t._ZN18QSharedDataPointerIN10QtMobility24QOrganizerCollectionDataEE5cloneEv 0x00029054   Section      152  qorganizercollection.o(t._ZN18QSharedDataPointerIN10QtMobility24QOrganizerCollectionDataEE5cloneEv)
    t._ZN18QSharedDataPointerIN10QtMobility24QOrganizerCollectionDataEE5cloneEv.clean 0x000290ec   Section       50  qorganizercollection.o(t._ZN18QSharedDataPointerIN10QtMobility24QOrganizerCollectionDataEE5cloneEv.clean)
    t._ZN18QSharedDataPointerIN10QtMobility24QOrganizerCollectionDataEED1Ev 0x0002911e   Section       42  qorganizercollection.o(t._ZN18QSharedDataPointerIN10QtMobility24QOrganizerCollectionDataEED1Ev)
    t._ZN18QSharedDataPointerIN10QtMobility24QOrganizerCollectionDataEEptEv 0x00029148   Section       34  qorganizercollection.o(t._ZN18QSharedDataPointerIN10QtMobility24QOrganizerCollectionDataEEptEv)
    t._ZN18QSharedDataPointerIN10QtMobility27QOrganizerItemChangeSetDataEE13detach_helperEv 0x0002916a   Section      154  qorganizeritemchangeset.o(t._ZN18QSharedDataPointerIN10QtMobility27QOrganizerItemChangeSetDataEE13detach_helperEv)
    t._ZN18QSharedDataPointerIN10QtMobility27QOrganizerItemChangeSetDataEE13detach_helperEv.clean 0x00029204   Section       40  qorganizeritemchangeset.o(t._ZN18QSharedDataPointerIN10QtMobility27QOrganizerItemChangeSetDataEE13detach_helperEv.clean)
    t._ZN18QSharedDataPointerIN10QtMobility27QOrganizerItemChangeSetDataEED1Ev 0x0002922c   Section       42  qorganizeritemchangeset.o(t._ZN18QSharedDataPointerIN10QtMobility27QOrganizerItemChangeSetDataEED1Ev)
    t._ZN18QSharedDataPointerIN10QtMobility27QOrganizerItemChangeSetDataEEptEv 0x00029256   Section       34  qorganizeritemchangeset.o(t._ZN18QSharedDataPointerIN10QtMobility27QOrganizerItemChangeSetDataEEptEv)
    t._ZN18QSharedDataPointerIN10QtMobility27QOrganizerItemDetailPrivateEE13detach_helperEv 0x00029278   Section       68  qorganizeritem.o(t._ZN18QSharedDataPointerIN10QtMobility27QOrganizerItemDetailPrivateEE13detach_helperEv)
    t._ZN18QSharedDataPointerIN10QtMobility27QOrganizerItemDetailPrivateEE13detach_helperEv.clean 0x000292bc   Section       12  qorganizeritem.o(t._ZN18QSharedDataPointerIN10QtMobility27QOrganizerItemDetailPrivateEE13detach_helperEv.clean)
    t._ZN18QSharedDataPointerIN10QtMobility27QOrganizerItemDetailPrivateEE5cloneEv 0x000292c8   Section      178  qorganizeritem.o(t._ZN18QSharedDataPointerIN10QtMobility27QOrganizerItemDetailPrivateEE5cloneEv)
    t._ZN18QSharedDataPointerIN10QtMobility27QOrganizerItemDetailPrivateEE5cloneEv.clean 0x0002937a   Section       26  qorganizeritem.o(t._ZN18QSharedDataPointerIN10QtMobility27QOrganizerItemDetailPrivateEE5cloneEv.clean)
    t._ZN18QSharedDataPointerIN10QtMobility27QOrganizerItemDetailPrivateEEC1EPS1_ 0x00029394   Section       24  qorganizeritemdetail.o(t._ZN18QSharedDataPointerIN10QtMobility27QOrganizerItemDetailPrivateEEC1EPS1_)
    t._ZN18QSharedDataPointerIN10QtMobility27QOrganizerItemDetailPrivateEED1Ev 0x000293ac   Section       42  qorganizeritemdetail.o(t._ZN18QSharedDataPointerIN10QtMobility27QOrganizerItemDetailPrivateEED1Ev)
    t._ZN18QSharedDataPointerIN10QtMobility27QOrganizerItemDetailPrivateEEaSEPS1_ 0x000293d6   Section       62  qorganizeritemdetail.o(t._ZN18QSharedDataPointerIN10QtMobility27QOrganizerItemDetailPrivateEEaSEPS1_)
    t._ZN18QSharedDataPointerIN10QtMobility27QOrganizerItemDetailPrivateEEaSERKS2_ 0x00029414   Section       68  qorganizeritemdetail.o(t._ZN18QSharedDataPointerIN10QtMobility27QOrganizerItemDetailPrivateEEaSERKS2_)
    t._ZN18QSharedDataPointerIN10QtMobility27QOrganizerItemDetailPrivateEEptEv 0x00029458   Section       34  qorganizeritem.o(t._ZN18QSharedDataPointerIN10QtMobility27QOrganizerItemDetailPrivateEEptEv)
    t._ZN18QSharedDataPointerIN10QtMobility27QOrganizerItemFilterPrivateEE13detach_helperEv 0x0002947a   Section       50  qorganizeritemfilter.o(t._ZN18QSharedDataPointerIN10QtMobility27QOrganizerItemFilterPrivateEE13detach_helperEv)
    t._ZN18QSharedDataPointerIN10QtMobility27QOrganizerItemFilterPrivateEE5cloneEv 0x000294ac   Section       16  qorganizeritemfilter.o(t._ZN18QSharedDataPointerIN10QtMobility27QOrganizerItemFilterPrivateEE5cloneEv)
    t._ZN18QSharedDataPointerIN10QtMobility27QOrganizerItemFilterPrivateEE6detachEv 0x000294bc   Section       38  qorganizeritemfilter.o(t._ZN18QSharedDataPointerIN10QtMobility27QOrganizerItemFilterPrivateEE6detachEv)
    t._ZN18QSharedDataPointerIN10QtMobility27QOrganizerItemFilterPrivateEEC1EPS1_ 0x000294e2   Section       26  qorganizeritemfilter.o(t._ZN18QSharedDataPointerIN10QtMobility27QOrganizerItemFilterPrivateEEC1EPS1_)
    t._ZN18QSharedDataPointerIN10QtMobility27QOrganizerItemFilterPrivateEED1Ev 0x000294fc   Section       42  qorganizeritemfilter.o(t._ZN18QSharedDataPointerIN10QtMobility27QOrganizerItemFilterPrivateEED1Ev)
    t._ZN18QSharedDataPointerIN10QtMobility28QOrganizerCollectionEngineIdEE5cloneEv 0x00029526   Section       26  qorganizercollectionid.o(t._ZN18QSharedDataPointerIN10QtMobility28QOrganizerCollectionEngineIdEE5cloneEv)
    t._ZN18QSharedDataPointerIN10QtMobility28QOrganizerCollectionEngineIdEEC1EPS1_ 0x00029540   Section       26  qorganizercollectionid.o(t._ZN18QSharedDataPointerIN10QtMobility28QOrganizerCollectionEngineIdEEC1EPS1_)
    t._ZN18QSharedDataPointerIN10QtMobility28QOrganizerCollectionEngineIdEED1Ev 0x0002955a   Section       42  qorganizercollectionid.o(t._ZN18QSharedDataPointerIN10QtMobility28QOrganizerCollectionEngineIdEED1Ev)
    t._ZN18QSharedDataPointerIN10QtMobility30QOrganizerItemFetchHintPrivateEE13detach_helperEv 0x00029584   Section      134  qorganizeritemfetchhint.o(t._ZN18QSharedDataPointerIN10QtMobility30QOrganizerItemFetchHintPrivateEE13detach_helperEv)
    t._ZN18QSharedDataPointerIN10QtMobility30QOrganizerItemFetchHintPrivateEE13detach_helperEv.clean 0x0002960a   Section       20  qorganizeritemfetchhint.o(t._ZN18QSharedDataPointerIN10QtMobility30QOrganizerItemFetchHintPrivateEE13detach_helperEv.clean)
    t._ZN18QSharedDataPointerIN10QtMobility30QOrganizerItemFetchHintPrivateEED1Ev 0x0002961e   Section       42  qorganizeritemfetchhint.o(t._ZN18QSharedDataPointerIN10QtMobility30QOrganizerItemFetchHintPrivateEED1Ev)
    t._ZN18QSharedDataPointerIN10QtMobility30QOrganizerItemFetchHintPrivateEEptEv 0x00029648   Section       34  qorganizeritemfetchhint.o(t._ZN18QSharedDataPointerIN10QtMobility30QOrganizerItemFetchHintPrivateEEptEv)
    t._ZN18QSharedDataPointerIN10QtMobility30QOrganizerItemSortOrderPrivateEE13detach_helperEv 0x0002966a   Section      150  qorganizeritemsortorder.o(t._ZN18QSharedDataPointerIN10QtMobility30QOrganizerItemSortOrderPrivateEE13detach_helperEv)
    t._ZN18QSharedDataPointerIN10QtMobility30QOrganizerItemSortOrderPrivateEE13detach_helperEv.clean 0x00029700   Section       28  qorganizeritemsortorder.o(t._ZN18QSharedDataPointerIN10QtMobility30QOrganizerItemSortOrderPrivateEE13detach_helperEv.clean)
    t._ZN18QSharedDataPointerIN10QtMobility30QOrganizerItemSortOrderPrivateEED1Ev 0x0002971c   Section       42  qorganizeritemsortorder.o(t._ZN18QSharedDataPointerIN10QtMobility30QOrganizerItemSortOrderPrivateEED1Ev)
    t._ZN18QSharedDataPointerIN10QtMobility30QOrganizerItemSortOrderPrivateEEptEv 0x00029746   Section       40  qorganizeritemsortorder.o(t._ZN18QSharedDataPointerIN10QtMobility30QOrganizerItemSortOrderPrivateEEptEv)
    t._ZN18QSharedDataPointerIN10QtMobility31QOrganizerRecurrenceRulePrivateEE13detach_helperEv 0x0002976e   Section       82  qorganizerrecurrencerule.o(t._ZN18QSharedDataPointerIN10QtMobility31QOrganizerRecurrenceRulePrivateEE13detach_helperEv)
    t._ZN18QSharedDataPointerIN10QtMobility31QOrganizerRecurrenceRulePrivateEE13detach_helperEv.clean 0x000297c0   Section       16  qorganizerrecurrencerule.o(t._ZN18QSharedDataPointerIN10QtMobility31QOrganizerRecurrenceRulePrivateEE13detach_helperEv.clean)
    t._ZN18QSharedDataPointerIN10QtMobility31QOrganizerRecurrenceRulePrivateEED1Ev 0x000297d0   Section       42  qorganizerrecurrencerule.o(t._ZN18QSharedDataPointerIN10QtMobility31QOrganizerRecurrenceRulePrivateEED1Ev)
    t._ZN18QSharedDataPointerIN10QtMobility31QOrganizerRecurrenceRulePrivateEEptEv 0x000297fa   Section       34  qorganizerrecurrencerule.o(t._ZN18QSharedDataPointerIN10QtMobility31QOrganizerRecurrenceRulePrivateEEptEv)
    t._ZN18QSharedDataPointerIN10QtMobility33QOrganizerCollectionChangeSetDataEE13detach_helperEv 0x0002981c   Section      154  qorganizercollectionchangeset.o(t._ZN18QSharedDataPointerIN10QtMobility33QOrganizerCollectionChangeSetDataEE13detach_helperEv)
    t._ZN18QSharedDataPointerIN10QtMobility33QOrganizerCollectionChangeSetDataEE13detach_helperEv.clean 0x000298b6   Section       40  qorganizercollectionchangeset.o(t._ZN18QSharedDataPointerIN10QtMobility33QOrganizerCollectionChangeSetDataEE13detach_helperEv.clean)
    t._ZN18QSharedDataPointerIN10QtMobility33QOrganizerCollectionChangeSetDataEED1Ev 0x000298de   Section       42  qorganizercollectionchangeset.o(t._ZN18QSharedDataPointerIN10QtMobility33QOrganizerCollectionChangeSetDataEED1Ev)
    t._ZN18QSharedDataPointerIN10QtMobility33QOrganizerCollectionChangeSetDataEEptEv 0x00029908   Section       34  qorganizercollectionchangeset.o(t._ZN18QSharedDataPointerIN10QtMobility33QOrganizerCollectionChangeSetDataEEptEv)
    t._ZN18QSharedDataPointerIN10QtMobility34QOrganizerItemDetailDefinitionDataEE13detach_helperEv 0x0002992a   Section      138  qorganizeritemdetaildefinition.o(t._ZN18QSharedDataPointerIN10QtMobility34QOrganizerItemDetailDefinitionDataEE13detach_helperEv)
    t._ZN18QSharedDataPointerIN10QtMobility34QOrganizerItemDetailDefinitionDataEE13detach_helperEv.clean 0x000299b4   Section       28  qorganizeritemdetaildefinition.o(t._ZN18QSharedDataPointerIN10QtMobility34QOrganizerItemDetailDefinitionDataEE13detach_helperEv.clean)
    t._ZN18QSharedDataPointerIN10QtMobility34QOrganizerItemDetailDefinitionDataEED1Ev 0x000299d0   Section       42  qorganizeritemdetaildefinition.o(t._ZN18QSharedDataPointerIN10QtMobility34QOrganizerItemDetailDefinitionDataEED1Ev)
    t._ZN18QSharedDataPointerIN10QtMobility34QOrganizerItemDetailDefinitionDataEEptEv 0x000299fa   Section       34  qorganizeritemdetaildefinition.o(t._ZN18QSharedDataPointerIN10QtMobility34QOrganizerItemDetailDefinitionDataEEptEv)
    t._ZN18QSharedDataPointerIN10QtMobility42QOrganizerItemDetailFieldDefinitionPrivateEE13detach_helperEv 0x00029a1c   Section      124  qorganizeritemdetailfielddefinition.o(t._ZN18QSharedDataPointerIN10QtMobility42QOrganizerItemDetailFieldDefinitionPrivateEE13detach_helperEv)
    t._ZN18QSharedDataPointerIN10QtMobility42QOrganizerItemDetailFieldDefinitionPrivateEE13detach_helperEv.clean 0x00029a98   Section       16  qorganizeritemdetailfielddefinition.o(t._ZN18QSharedDataPointerIN10QtMobility42QOrganizerItemDetailFieldDefinitionPrivateEE13detach_helperEv.clean)
    t._ZN18QSharedDataPointerIN10QtMobility42QOrganizerItemDetailFieldDefinitionPrivateEED1Ev 0x00029aa8   Section       42  qorganizeritemdetailfielddefinition.o(t._ZN18QSharedDataPointerIN10QtMobility42QOrganizerItemDetailFieldDefinitionPrivateEED1Ev)
    t._ZN18QSharedDataPointerIN10QtMobility42QOrganizerItemDetailFieldDefinitionPrivateEEptEv 0x00029ad2   Section       34  qorganizeritemdetailfielddefinition.o(t._ZN18QSharedDataPointerIN10QtMobility42QOrganizerItemDetailFieldDefinitionPrivateEEptEv)
    t._ZN20QMutableListIteratorI8QVariantED1Ev 0x00029af4   Section       16  qorganizermanagerengine.o(t._ZN20QMutableListIteratorI8QVariantED1Ev)
    t._ZN4QMapI7QString8QVariantE11node_createEP8QMapDataPPNS3_4NodeERKS0_RKS1_ 0x00029b04   Section      142  qorganizercollection.o(t._ZN4QMapI7QString8QVariantE11node_createEP8QMapDataPPNS3_4NodeERKS0_RKS1_)
    t._ZN4QMapI7QString8QVariantE11node_createEP8QMapDataPPNS3_4NodeERKS0_RKS1_.clean 0x00029b92   Section       38  qorganizercollection.o(t._ZN4QMapI7QString8QVariantE11node_createEP8QMapDataPPNS3_4NodeERKS0_RKS1_.clean)
    t._ZN4QMapI7QString8QVariantE13detach_helperEv 0x00029bb8   Section      148  qorganizercollection.o(t._ZN4QMapI7QString8QVariantE13detach_helperEv)
    t._ZN4QMapI7QString8QVariantE13detach_helperEv.clean 0x00029c4c   Section        8  qorganizercollection.o(t._ZN4QMapI7QString8QVariantE13detach_helperEv.clean)
    t._ZN4QMapI7QString8QVariantE5clearEv    0x00029c54   Section       28  qorganizercollection.o(t._ZN4QMapI7QString8QVariantE5clearEv)
    t._ZN4QMapI7QString8QVariantE5clearEv.clean 0x00029c70   Section       10  qorganizercollection.o(t._ZN4QMapI7QString8QVariantE5clearEv.clean)
    t._ZN4QMapI7QString8QVariantE6detachEv   0x00029c7a   Section       28  qorganizercollection.o(t._ZN4QMapI7QString8QVariantE6detachEv)
    t._ZN4QMapI7QString8QVariantE8freeDataEP8QMapData 0x00029c96   Section       64  qorganizercollection.o(t._ZN4QMapI7QString8QVariantE8freeDataEP8QMapData)
    t._ZN4QMapI7QString8QVariantEC1ERKS2_    0x00029cd6   Section       40  qorganizercollection.o(t._ZN4QMapI7QString8QVariantEC1ERKS2_)
    t._ZN4QMapI7QString8QVariantEC1Ev        0x00029d00   Section       28  qorganizercollection.o(t._ZN4QMapI7QString8QVariantEC1Ev)
    t._ZN4QMapI7QString8QVariantED1Ev        0x00029d1c   Section       38  qorganizercollection.o(t._ZN4QMapI7QString8QVariantED1Ev)
    t._ZN4QMapI7QString8QVariantEaSERKS2_    0x00029d42   Section       70  qorganizercollection.o(t._ZN4QMapI7QString8QVariantEaSERKS2_)
    t._ZN4QMapI7QStringN10QtMobility30QOrganizerItemDetailDefinitionEE11node_createEP8QMapDataPPNS4_4NodeERKS0_RKS2_ 0x00029d88   Section      140  qorganizermanagerengine.o(t._ZN4QMapI7QStringN10QtMobility30QOrganizerItemDetailDefinitionEE11node_createEP8QMapDataPPNS4_4NodeERKS0_RKS2_)
    t._ZN4QMapI7QStringN10QtMobility30QOrganizerItemDetailDefinitionEE11node_createEP8QMapDataPPNS4_4NodeERKS0_RKS2_.clean 0x00029e14   Section       38  qorganizermanagerengine.o(t._ZN4QMapI7QStringN10QtMobility30QOrganizerItemDetailDefinitionEE11node_createEP8QMapDataPPNS4_4NodeERKS0_RKS2_.clean)
    t._ZN4QMapI7QStringN10QtMobility30QOrganizerItemDetailDefinitionEE13detach_helperEv 0x00029e3a   Section      146  qorganizermanagerengine.o(t._ZN4QMapI7QStringN10QtMobility30QOrganizerItemDetailDefinitionEE13detach_helperEv)
    t._ZN4QMapI7QStringN10QtMobility30QOrganizerItemDetailDefinitionEE13detach_helperEv.clean 0x00029ecc   Section        8  qorganizermanagerengine.o(t._ZN4QMapI7QStringN10QtMobility30QOrganizerItemDetailDefinitionEE13detach_helperEv.clean)
    t._ZN4QMapI7QStringN10QtMobility30QOrganizerItemDetailDefinitionEE5clearEv 0x00029ed4   Section       28  qorganizermanagerengine.o(t._ZN4QMapI7QStringN10QtMobility30QOrganizerItemDetailDefinitionEE5clearEv)
    t._ZN4QMapI7QStringN10QtMobility30QOrganizerItemDetailDefinitionEE5clearEv.clean 0x00029ef0   Section       10  qorganizermanagerengine.o(t._ZN4QMapI7QStringN10QtMobility30QOrganizerItemDetailDefinitionEE5clearEv.clean)
    t._ZN4QMapI7QStringN10QtMobility30QOrganizerItemDetailDefinitionEE6detachEv 0x00029efa   Section       28  qorganizermanagerengine.o(t._ZN4QMapI7QStringN10QtMobility30QOrganizerItemDetailDefinitionEE6detachEv)
    t._ZN4QMapI7QStringN10QtMobility30QOrganizerItemDetailDefinitionEE6insertERKS0_RKS2_ 0x00029f16   Section       80  qorganizermanagerengine.o(t._ZN4QMapI7QStringN10QtMobility30QOrganizerItemDetailDefinitionEE6insertERKS0_RKS2_)
    t._ZN4QMapI7QStringN10QtMobility30QOrganizerItemDetailDefinitionEE6removeERKS0_ 0x00029f66   Section      264  qorganizeritemmemorybackend.o(t._ZN4QMapI7QStringN10QtMobility30QOrganizerItemDetailDefinitionEE6removeERKS0_)
    t._ZN4QMapI7QStringN10QtMobility30QOrganizerItemDetailDefinitionEE8freeDataEP8QMapData 0x0002a06e   Section       62  qorganizermanagerengine.o(t._ZN4QMapI7QStringN10QtMobility30QOrganizerItemDetailDefinitionEE8freeDataEP8QMapData)
    t._ZN4QMapI7QStringN10QtMobility30QOrganizerItemDetailDefinitionEEC1ERKS3_ 0x0002a0ac   Section       40  qorganizeritemmemorybackend.o(t._ZN4QMapI7QStringN10QtMobility30QOrganizerItemDetailDefinitionEEC1ERKS3_)
    t._ZN4QMapI7QStringN10QtMobility30QOrganizerItemDetailDefinitionEEC1Ev 0x0002a0d4   Section       28  qorganizermanagerengine.o(t._ZN4QMapI7QStringN10QtMobility30QOrganizerItemDetailDefinitionEEC1Ev)
    t._ZN4QMapI7QStringN10QtMobility30QOrganizerItemDetailDefinitionEED1Ev 0x0002a0f0   Section       38  qorganizermanagerengine.o(t._ZN4QMapI7QStringN10QtMobility30QOrganizerItemDetailDefinitionEED1Ev)
    t._ZN4QMapI7QStringN10QtMobility30QOrganizerItemDetailDefinitionEEaSERKS3_ 0x0002a116   Section       70  qorganizermanagerengine.o(t._ZN4QMapI7QStringN10QtMobility30QOrganizerItemDetailDefinitionEEaSERKS3_)
    t._ZN4QMapI7QStringN10QtMobility35QOrganizerItemDetailFieldDefinitionEE11node_createEP8QMapDataPPNS4_4NodeERKS0_RKS2_ 0x0002a15c   Section      140  qorganizeritemdetaildefinition.o(t._ZN4QMapI7QStringN10QtMobility35QOrganizerItemDetailFieldDefinitionEE11node_createEP8QMapDataPPNS4_4NodeERKS0_RKS2_)
    t._ZN4QMapI7QStringN10QtMobility35QOrganizerItemDetailFieldDefinitionEE11node_createEP8QMapDataPPNS4_4NodeERKS0_RKS2_.clean 0x0002a1e8   Section       38  qorganizeritemdetaildefinition.o(t._ZN4QMapI7QStringN10QtMobility35QOrganizerItemDetailFieldDefinitionEE11node_createEP8QMapDataPPNS4_4NodeERKS0_RKS2_.clean)
    t._ZN4QMapI7QStringN10QtMobility35QOrganizerItemDetailFieldDefinitionEE13detach_helperEv 0x0002a20e   Section      146  qorganizeritemdetaildefinition.o(t._ZN4QMapI7QStringN10QtMobility35QOrganizerItemDetailFieldDefinitionEE13detach_helperEv)
    t._ZN4QMapI7QStringN10QtMobility35QOrganizerItemDetailFieldDefinitionEE13detach_helperEv.clean 0x0002a2a0   Section        8  qorganizeritemdetaildefinition.o(t._ZN4QMapI7QStringN10QtMobility35QOrganizerItemDetailFieldDefinitionEE13detach_helperEv.clean)
    t._ZN4QMapI7QStringN10QtMobility35QOrganizerItemDetailFieldDefinitionEE5clearEv 0x0002a2a8   Section       28  qorganizeritemdetaildefinition.o(t._ZN4QMapI7QStringN10QtMobility35QOrganizerItemDetailFieldDefinitionEE5clearEv)
    t._ZN4QMapI7QStringN10QtMobility35QOrganizerItemDetailFieldDefinitionEE5clearEv.clean 0x0002a2c4   Section       10  qorganizeritemdetaildefinition.o(t._ZN4QMapI7QStringN10QtMobility35QOrganizerItemDetailFieldDefinitionEE5clearEv.clean)
    t._ZN4QMapI7QStringN10QtMobility35QOrganizerItemDetailFieldDefinitionEE6detachEv 0x0002a2ce   Section       28  qorganizeritemdetaildefinition.o(t._ZN4QMapI7QStringN10QtMobility35QOrganizerItemDetailFieldDefinitionEE6detachEv)
    t._ZN4QMapI7QStringN10QtMobility35QOrganizerItemDetailFieldDefinitionEE6insertERKS0_RKS2_ 0x0002a2ea   Section       80  qorganizermanagerengine.o(t._ZN4QMapI7QStringN10QtMobility35QOrganizerItemDetailFieldDefinitionEE6insertERKS0_RKS2_)
    t._ZN4QMapI7QStringN10QtMobility35QOrganizerItemDetailFieldDefinitionEE6removeERKS0_ 0x0002a33a   Section      264  qorganizeritemdetaildefinition.o(t._ZN4QMapI7QStringN10QtMobility35QOrganizerItemDetailFieldDefinitionEE6removeERKS0_)
    t._ZN4QMapI7QStringN10QtMobility35QOrganizerItemDetailFieldDefinitionEE8freeDataEP8QMapData 0x0002a442   Section       62  qorganizeritemdetaildefinition.o(t._ZN4QMapI7QStringN10QtMobility35QOrganizerItemDetailFieldDefinitionEE8freeDataEP8QMapData)
    t._ZN4QMapI7QStringN10QtMobility35QOrganizerItemDetailFieldDefinitionEEC1ERKS3_ 0x0002a480   Section       40  qorganizeritemdetaildefinition.o(t._ZN4QMapI7QStringN10QtMobility35QOrganizerItemDetailFieldDefinitionEEC1ERKS3_)
    t._ZN4QMapI7QStringN10QtMobility35QOrganizerItemDetailFieldDefinitionEEC1Ev 0x0002a4a8   Section       28  qorganizeritemdetaildefinition.o(t._ZN4QMapI7QStringN10QtMobility35QOrganizerItemDetailFieldDefinitionEEC1Ev)
    t._ZN4QMapI7QStringN10QtMobility35QOrganizerItemDetailFieldDefinitionEED1Ev 0x0002a4c4   Section       38  qorganizeritemdetaildefinition.o(t._ZN4QMapI7QStringN10QtMobility35QOrganizerItemDetailFieldDefinitionEED1Ev)
    t._ZN4QMapI7QStringN10QtMobility35QOrganizerItemDetailFieldDefinitionEEaSERKS3_ 0x0002a4ea   Section       70  qorganizeritemdetaildefinition.o(t._ZN4QMapI7QStringN10QtMobility35QOrganizerItemDetailFieldDefinitionEEaSERKS3_)
    t._ZN4QMapI7QStringPN10QtMobility30QOrganizerItemMemoryEngineDataEE11node_createEP8QMapDataPPNS5_4NodeERKS0_RKS3_ 0x0002a530   Section      118  qorganizeritemmemorybackend.o(t._ZN4QMapI7QStringPN10QtMobility30QOrganizerItemMemoryEngineDataEE11node_createEP8QMapDataPPNS5_4NodeERKS0_RKS3_)
    t._ZN4QMapI7QStringPN10QtMobility30QOrganizerItemMemoryEngineDataEE11node_createEP8QMapDataPPNS5_4NodeERKS0_RKS3_.clean 0x0002a5a6   Section       20  qorganizeritemmemorybackend.o(t._ZN4QMapI7QStringPN10QtMobility30QOrganizerItemMemoryEngineDataEE11node_createEP8QMapDataPPNS5_4NodeERKS0_RKS3_.clean)
    t._ZN4QMapI7QStringPN10QtMobility30QOrganizerItemMemoryEngineDataEE13detach_helperEv 0x0002a5ba   Section      146  qorganizeritemmemorybackend.o(t._ZN4QMapI7QStringPN10QtMobility30QOrganizerItemMemoryEngineDataEE13detach_helperEv)
    t._ZN4QMapI7QStringPN10QtMobility30QOrganizerItemMemoryEngineDataEE13detach_helperEv.clean 0x0002a64c   Section        8  qorganizeritemmemorybackend.o(t._ZN4QMapI7QStringPN10QtMobility30QOrganizerItemMemoryEngineDataEE13detach_helperEv.clean)
    t._ZN4QMapI7QStringPN10QtMobility30QOrganizerItemMemoryEngineDataEE6detachEv 0x0002a654   Section       28  qorganizeritemmemorybackend.o(t._ZN4QMapI7QStringPN10QtMobility30QOrganizerItemMemoryEngineDataEE6detachEv)
    t._ZN4QMapI7QStringPN10QtMobility30QOrganizerItemMemoryEngineDataEE6removeERKS0_ 0x0002a670   Section      254  qorganizeritemmemorybackend.o(t._ZN4QMapI7QStringPN10QtMobility30QOrganizerItemMemoryEngineDataEE6removeERKS0_)
    t._ZN4QMapI7QStringPN10QtMobility30QOrganizerItemMemoryEngineDataEE8freeDataEP8QMapData 0x0002a76e   Section       56  qorganizeritemmemorybackend.o(t._ZN4QMapI7QStringPN10QtMobility30QOrganizerItemMemoryEngineDataEE8freeDataEP8QMapData)
    t._ZN4QMapI7QStringPN10QtMobility30QOrganizerItemMemoryEngineDataEED1Ev 0x0002a7a6   Section       38  qorganizeritemmemorybackend.o(t._ZN4QMapI7QStringPN10QtMobility30QOrganizerItemMemoryEngineDataEED1Ev)
    t._ZN4QMapI7QStringS0_E11node_createEP8QMapDataPPNS2_4NodeERKS0_S8_ 0x0002a7cc   Section      140  qorganizercollectionid.o(t._ZN4QMapI7QStringS0_E11node_createEP8QMapDataPPNS2_4NodeERKS0_S8_)
    t._ZN4QMapI7QStringS0_E11node_createEP8QMapDataPPNS2_4NodeERKS0_S8_.clean 0x0002a858   Section       38  qorganizercollectionid.o(t._ZN4QMapI7QStringS0_E11node_createEP8QMapDataPPNS2_4NodeERKS0_S8_.clean)
    t._ZN4QMapI7QStringS0_E13detach_helperEv 0x0002a87e   Section      146  qorganizercollectionid.o(t._ZN4QMapI7QStringS0_E13detach_helperEv)
    t._ZN4QMapI7QStringS0_E13detach_helperEv.clean 0x0002a910   Section        8  qorganizercollectionid.o(t._ZN4QMapI7QStringS0_E13detach_helperEv.clean)
    t._ZN4QMapI7QStringS0_E6detachEv         0x0002a918   Section       28  qorganizermanager.o(t._ZN4QMapI7QStringS0_E6detachEv)
    t._ZN4QMapI7QStringS0_E6removeERKS0_     0x0002a934   Section      264  qorganizermanager.o(t._ZN4QMapI7QStringS0_E6removeERKS0_)
    t._ZN4QMapI7QStringS0_E8freeDataEP8QMapData 0x0002aa3c   Section       62  qorganizercollectionid.o(t._ZN4QMapI7QStringS0_E8freeDataEP8QMapData)
    t._ZN4QMapI7QStringS0_EC1Ev              0x0002aa7c   Section       28  qorganizercollectionid.o(t._ZN4QMapI7QStringS0_EC1Ev)
    t._ZN4QMapI7QStringS0_ED1Ev              0x0002aa98   Section       38  qorganizercollectionid.o(t._ZN4QMapI7QStringS0_ED1Ev)
    t._ZN4QMapI7QStringS_IS0_N10QtMobility30QOrganizerItemDetailDefinitionEEE11node_createEP8QMapDataPPNS5_4NodeERKS0_RKS3_ 0x0002aabe   Section      140  qorganizeritemmemorybackend.o(t._ZN4QMapI7QStringS_IS0_N10QtMobility30QOrganizerItemDetailDefinitionEEE11node_createEP8QMapDataPPNS5_4NodeERKS0_RKS3_)
    t._ZN4QMapI7QStringS_IS0_N10QtMobility30QOrganizerItemDetailDefinitionEEE11node_createEP8QMapDataPPNS5_4NodeERKS0_RKS3_.clean 0x0002ab4a   Section       38  qorganizeritemmemorybackend.o(t._ZN4QMapI7QStringS_IS0_N10QtMobility30QOrganizerItemDetailDefinitionEEE11node_createEP8QMapDataPPNS5_4NodeERKS0_RKS3_.clean)
    t._ZN4QMapI7QStringS_IS0_N10QtMobility30QOrganizerItemDetailDefinitionEEE13detach_helperEv 0x0002ab70   Section      146  qorganizermanagerengine.o(t._ZN4QMapI7QStringS_IS0_N10QtMobility30QOrganizerItemDetailDefinitionEEE13detach_helperEv)
    t._ZN4QMapI7QStringS_IS0_N10QtMobility30QOrganizerItemDetailDefinitionEEE13detach_helperEv.clean 0x0002ac02   Section        8  qorganizermanagerengine.o(t._ZN4QMapI7QStringS_IS0_N10QtMobility30QOrganizerItemDetailDefinitionEEE13detach_helperEv.clean)
    t._ZN4QMapI7QStringS_IS0_N10QtMobility30QOrganizerItemDetailDefinitionEEE6detachEv 0x0002ac0a   Section       28  qorganizermanagerengine.o(t._ZN4QMapI7QStringS_IS0_N10QtMobility30QOrganizerItemDetailDefinitionEEE6detachEv)
    t._ZN4QMapI7QStringS_IS0_N10QtMobility30QOrganizerItemDetailDefinitionEEE6insertERKS0_RKS3_ 0x0002ac26   Section       80  qorganizermanagerengine.o(t._ZN4QMapI7QStringS_IS0_N10QtMobility30QOrganizerItemDetailDefinitionEEE6insertERKS0_RKS3_)
    t._ZN4QMapI7QStringS_IS0_N10QtMobility30QOrganizerItemDetailDefinitionEEE8freeDataEP8QMapData 0x0002ac76   Section       62  qorganizermanagerengine.o(t._ZN4QMapI7QStringS_IS0_N10QtMobility30QOrganizerItemDetailDefinitionEEE8freeDataEP8QMapData)
    t._ZN4QMapI7QStringS_IS0_N10QtMobility30QOrganizerItemDetailDefinitionEEEC1ERKS4_ 0x0002acb4   Section       40  qorganizermanagerengine.o(t._ZN4QMapI7QStringS_IS0_N10QtMobility30QOrganizerItemDetailDefinitionEEEC1ERKS4_)
    t._ZN4QMapI7QStringS_IS0_N10QtMobility30QOrganizerItemDetailDefinitionEEEC1Ev 0x0002acdc   Section       28  qorganizermanagerengine.o(t._ZN4QMapI7QStringS_IS0_N10QtMobility30QOrganizerItemDetailDefinitionEEEC1Ev)
    t._ZN4QMapI7QStringS_IS0_N10QtMobility30QOrganizerItemDetailDefinitionEEED1Ev 0x0002acf8   Section       38  qorganizermanagerengine.o(t._ZN4QMapI7QStringS_IS0_N10QtMobility30QOrganizerItemDetailDefinitionEEED1Ev)
    t._ZN4QMapIN10QtMobility22QOrganizerCollectionIdENS0_16QOrganizerItemIdEE11node_createEP8QMapDataPPNS4_4NodeERKS1_RKS2_ 0x0002ad1e   Section      140  qorganizeritemmemorybackend.o(t._ZN4QMapIN10QtMobility22QOrganizerCollectionIdENS0_16QOrganizerItemIdEE11node_createEP8QMapDataPPNS4_4NodeERKS1_RKS2_)
    t._ZN4QMapIN10QtMobility22QOrganizerCollectionIdENS0_16QOrganizerItemIdEE11node_createEP8QMapDataPPNS4_4NodeERKS1_RKS2_.clean 0x0002adaa   Section       38  qorganizeritemmemorybackend.o(t._ZN4QMapIN10QtMobility22QOrganizerCollectionIdENS0_16QOrganizerItemIdEE11node_createEP8QMapDataPPNS4_4NodeERKS1_RKS2_.clean)
    t._ZN4QMapIN10QtMobility22QOrganizerCollectionIdENS0_16QOrganizerItemIdEE13detach_helperEv 0x0002add0   Section      146  qorganizeritemmemorybackend.o(t._ZN4QMapIN10QtMobility22QOrganizerCollectionIdENS0_16QOrganizerItemIdEE13detach_helperEv)
    t._ZN4QMapIN10QtMobility22QOrganizerCollectionIdENS0_16QOrganizerItemIdEE13detach_helperEv.clean 0x0002ae62   Section        8  qorganizeritemmemorybackend.o(t._ZN4QMapIN10QtMobility22QOrganizerCollectionIdENS0_16QOrganizerItemIdEE13detach_helperEv.clean)
    t._ZN4QMapIN10QtMobility22QOrganizerCollectionIdENS0_16QOrganizerItemIdEE5eraseENS3_8iteratorE 0x0002ae6a   Section      274  qorganizeritemmemorybackend.o(t._ZN4QMapIN10QtMobility22QOrganizerCollectionIdENS0_16QOrganizerItemIdEE5eraseENS3_8iteratorE)
    t._ZN4QMapIN10QtMobility22QOrganizerCollectionIdENS0_16QOrganizerItemIdEE6detachEv 0x0002af7c   Section       28  qorganizeritemmemorybackend.o(t._ZN4QMapIN10QtMobility22QOrganizerCollectionIdENS0_16QOrganizerItemIdEE6detachEv)
    t._ZN4QMapIN10QtMobility22QOrganizerCollectionIdENS0_16QOrganizerItemIdEE6removeERKS1_ 0x0002af98   Section      264  qorganizeritemmemorybackend.o(t._ZN4QMapIN10QtMobility22QOrganizerCollectionIdENS0_16QOrganizerItemIdEE6removeERKS1_)
    t._ZN4QMapIN10QtMobility22QOrganizerCollectionIdENS0_16QOrganizerItemIdEE8freeDataEP8QMapData 0x0002b0a0   Section       62  qorganizeritemmemorybackend.o(t._ZN4QMapIN10QtMobility22QOrganizerCollectionIdENS0_16QOrganizerItemIdEE8freeDataEP8QMapData)
    t._ZN4QMapIN10QtMobility22QOrganizerCollectionIdENS0_16QOrganizerItemIdEED1Ev 0x0002b0de   Section       38  qorganizeritemmemorybackend.o(t._ZN4QMapIN10QtMobility22QOrganizerCollectionIdENS0_16QOrganizerItemIdEED1Ev)
    t._ZN4QMapIiN10QtMobility17QOrganizerManager5ErrorEE11node_createEP8QMapDataPPNS4_4NodeERKiRKS2_ 0x0002b104   Section       82  qorganizeritemmemorybackend.o(t._ZN4QMapIiN10QtMobility17QOrganizerManager5ErrorEE11node_createEP8QMapDataPPNS4_4NodeERKiRKS2_)
    t._ZN4QMapIiN10QtMobility17QOrganizerManager5ErrorEE11node_createEP8QMapDataPPNS4_4NodeERKiRKS2_.clean 0x0002b156   Section        4  qorganizeritemmemorybackend.o(t._ZN4QMapIiN10QtMobility17QOrganizerManager5ErrorEE11node_createEP8QMapDataPPNS4_4NodeERKiRKS2_.clean)
    t._ZN4QMapIiN10QtMobility17QOrganizerManager5ErrorEE13detach_helperEv 0x0002b15a   Section      146  qorganizeritemmemorybackend.o(t._ZN4QMapIiN10QtMobility17QOrganizerManager5ErrorEE13detach_helperEv)
    t._ZN4QMapIiN10QtMobility17QOrganizerManager5ErrorEE13detach_helperEv.clean 0x0002b1ec   Section        8  qorganizeritemmemorybackend.o(t._ZN4QMapIiN10QtMobility17QOrganizerManager5ErrorEE13detach_helperEv.clean)
    t._ZN4QMapIiN10QtMobility17QOrganizerManager5ErrorEE5beginEv 0x0002b1f4   Section       38  qorganizermanagerengine.o(t._ZN4QMapIiN10QtMobility17QOrganizerManager5ErrorEE5beginEv)
    t._ZN4QMapIiN10QtMobility17QOrganizerManager5ErrorEE5clearEv 0x0002b21a   Section       82  qorganizermanager.o(t._ZN4QMapIiN10QtMobility17QOrganizerManager5ErrorEE5clearEv)
    t._ZN4QMapIiN10QtMobility17QOrganizerManager5ErrorEE5clearEv.clean 0x0002b26c   Section       10  qorganizermanager.o(t._ZN4QMapIiN10QtMobility17QOrganizerManager5ErrorEE5clearEv.clean)
    t._ZN4QMapIiN10QtMobility17QOrganizerManager5ErrorEE6insertERKiRKS2_ 0x0002b276   Section       92  qorganizeritemmemorybackend.o(t._ZN4QMapIiN10QtMobility17QOrganizerManager5ErrorEE6insertERKiRKS2_)
    t._ZN4QMapIiN10QtMobility17QOrganizerManager5ErrorEE8freeDataEP8QMapData 0x0002b2d2   Section       48  qorganizermanager.o(t._ZN4QMapIiN10QtMobility17QOrganizerManager5ErrorEE8freeDataEP8QMapData)
    t._ZN4QMapIiN10QtMobility17QOrganizerManager5ErrorEEC1Ev 0x0002b304   Section       28  qorganizermanager.o(t._ZN4QMapIiN10QtMobility17QOrganizerManager5ErrorEEC1Ev)
    t._ZN4QMapIiN10QtMobility17QOrganizerManager5ErrorEED1Ev 0x0002b320   Section       38  qorganizermanager.o(t._ZN4QMapIiN10QtMobility17QOrganizerManager5ErrorEED1Ev)
    t._ZN4QMapIiN10QtMobility17QOrganizerManager5ErrorEEaSERKS3_ 0x0002b346   Section       70  qorganizermanagerengine.o(t._ZN4QMapIiN10QtMobility17QOrganizerManager5ErrorEEaSERKS3_)
    t._ZN4QSetI5QDateE14const_iteratorppEv   0x0002b38c   Section       20  qorganizeritemmemorybackend.o(t._ZN4QSetI5QDateE14const_iteratorppEv)
    t._ZN4QSetI5QDateE6insertERKS0_          0x0002b3a0   Section      196  qorganizeritemmemorybackend.o(t._ZN4QSetI5QDateE6insertERKS0_)
    t._ZN4QSetI5QDateE6insertERKS0_.clean    0x0002b464   Section        4  qorganizeritemmemorybackend.o(t._ZN4QSetI5QDateE6insertERKS0_.clean)
    t._ZN4QSetI5QDateEC1ERKS1_               0x0002b468   Section       62  qorganizeritemdetails.o(t._ZN4QSetI5QDateEC1ERKS1_)
    t._ZN4QSetI5QDateEC1Ev                   0x0002b4a8   Section       28  qorganizeritemdetails.o(t._ZN4QSetI5QDateEC1Ev)
    t._ZN4QSetI5QDateElsERKS0_               0x0002b4c4   Section       50  qorganizerevent.o(t._ZN4QSetI5QDateElsERKS0_)
    t._ZN4QSetI7QStringE6insertERKS0_        0x0002b4f6   Section       46  qorganizermanager_p.o(t._ZN4QSetI7QStringE6insertERKS0_)
    t._ZN4QSetIN10QtMobility16QOrganizerItemIdEE5clearEv 0x0002b524   Section       86  qorganizeritemchangeset.o(t._ZN4QSetIN10QtMobility16QOrganizerItemIdEE5clearEv)
    t._ZN4QSetIN10QtMobility16QOrganizerItemIdEE5clearEv.clean 0x0002b57a   Section       10  qorganizeritemchangeset.o(t._ZN4QSetIN10QtMobility16QOrganizerItemIdEE5clearEv.clean)
    t._ZN4QSetIN10QtMobility16QOrganizerItemIdEE6insertERKS1_ 0x0002b584   Section       46  qorganizeritemchangeset.o(t._ZN4QSetIN10QtMobility16QOrganizerItemIdEE6insertERKS1_)
    t._ZN4QSetIN10QtMobility16QOrganizerItemIdEEC1ERKS2_ 0x0002b5b2   Section       42  qorganizeritemchangeset.o(t._ZN4QSetIN10QtMobility16QOrganizerItemIdEEC1ERKS2_)
    t._ZN4QSetIN10QtMobility16QOrganizerItemIdEEC1Ev 0x0002b5dc   Section       14  qorganizeritemchangeset.o(t._ZN4QSetIN10QtMobility16QOrganizerItemIdEEC1Ev)
    t._ZN4QSetIN10QtMobility22QOrganizerCollectionIdEE5clearEv 0x0002b5ea   Section       32  qorganizeritemcollectionfilter.o(t._ZN4QSetIN10QtMobility22QOrganizerCollectionIdEE5clearEv)
    t._ZN4QSetIN10QtMobility22QOrganizerCollectionIdEE5clearEv.clean 0x0002b60a   Section       10  qorganizeritemcollectionfilter.o(t._ZN4QSetIN10QtMobility22QOrganizerCollectionIdEE5clearEv.clean)
    t._ZN4QSetIN10QtMobility22QOrganizerCollectionIdEE6insertERKS1_ 0x0002b614   Section       46  qorganizercollectionchangeset.o(t._ZN4QSetIN10QtMobility22QOrganizerCollectionIdEE6insertERKS1_)
    t._ZN4QSetIN10QtMobility22QOrganizerCollectionIdEEC1ERKS2_ 0x0002b642   Section       42  qorganizercollectionchangeset.o(t._ZN4QSetIN10QtMobility22QOrganizerCollectionIdEEC1ERKS2_)
    t._ZN4QSetIN10QtMobility22QOrganizerCollectionIdEEC1Ev 0x0002b66c   Section       14  qorganizercollectionchangeset.o(t._ZN4QSetIN10QtMobility22QOrganizerCollectionIdEEC1Ev)
    t._ZN4QSetIN10QtMobility24QOrganizerRecurrenceRule5MonthEEC1ERKS3_ 0x0002b67a   Section       62  qorganizerrecurrencerule.o(t._ZN4QSetIN10QtMobility24QOrganizerRecurrenceRule5MonthEEC1ERKS3_)
    t._ZN4QSetIN10QtMobility24QOrganizerRecurrenceRuleEE14const_iteratorppEv 0x0002b6b8   Section       20  qorganizeritemmemorybackend.o(t._ZN4QSetIN10QtMobility24QOrganizerRecurrenceRuleEE14const_iteratorppEv)
    t._ZN4QSetIN10QtMobility24QOrganizerRecurrenceRuleEE5beginEv 0x0002b6cc   Section       74  qorganizerevent.o(t._ZN4QSetIN10QtMobility24QOrganizerRecurrenceRuleEE5beginEv)
    t._ZN4QSetIN10QtMobility24QOrganizerRecurrenceRuleEEC1ERKS2_ 0x0002b716   Section       62  qorganizeritemdetails.o(t._ZN4QSetIN10QtMobility24QOrganizerRecurrenceRuleEEC1ERKS2_)
    t._ZN4QSetIN10QtMobility24QOrganizerRecurrenceRuleEEC1Ev 0x0002b754   Section       28  qorganizeritemdetails.o(t._ZN4QSetIN10QtMobility24QOrganizerRecurrenceRuleEEC1Ev)
    t._ZN4QSetIN10QtMobility24QOrganizerRecurrenceRuleEElsERKS1_ 0x0002b770   Section       50  qorganizerevent.o(t._ZN4QSetIN10QtMobility24QOrganizerRecurrenceRuleEElsERKS1_)
    t._ZN4QSetIN2Qt9DayOfWeekEEC1ERKS2_      0x0002b7a2   Section       62  qorganizerrecurrencerule.o(t._ZN4QSetIN2Qt9DayOfWeekEEC1ERKS2_)
    t._ZN4QSetIN2Qt9DayOfWeekEEC1Ev          0x0002b7e0   Section       28  qorganizeritemmemorybackend.o(t._ZN4QSetIN2Qt9DayOfWeekEEC1Ev)
    t._ZN4QSetIN2Qt9DayOfWeekEElsERKS1_      0x0002b7fc   Section       50  qorganizeritemmemorybackend.o(t._ZN4QSetIN2Qt9DayOfWeekEElsERKS1_)
    t._ZN4QSetIiE14const_iteratorppEv        0x0002b82e   Section       20  qorganizerrecurrencerule.o(t._ZN4QSetIiE14const_iteratorppEv)
    t._ZN4QSetIiEC1ERKS0_                    0x0002b842   Section       62  qorganizerrecurrencerule.o(t._ZN4QSetIiEC1ERKS0_)
    t._ZN4QSetIiEC1Ev                        0x0002b880   Section       28  qorganizerrecurrencerule.o(t._ZN4QSetIiEC1Ev)
    t._ZN4QSetIiEaSERKS0_                    0x0002b89c   Section       74  qorganizerrecurrencerule.o(t._ZN4QSetIiEaSERKS0_)
    t._ZN4QSetIiElsERKi                      0x0002b8e6   Section      200  qorganizeritemmemorybackend.o(t._ZN4QSetIiElsERKi)
    t._ZN4QSetIiElsERKi.clean                0x0002b9ae   Section        4  qorganizeritemmemorybackend.o(t._ZN4QSetIiElsERKi.clean)
    t._ZN5QHashI5QDate15QHashDummyValueE11deleteNode2EPN9QHashData4NodeE 0x0002b9b2   Section        6  qorganizermanagerengine.o(t._ZN5QHashI5QDate15QHashDummyValueE11deleteNode2EPN9QHashData4NodeE)
    t._ZN5QHashI5QDate15QHashDummyValueE13detach_helperEv 0x0002b9b8   Section       60  qorganizermanagerengine.o(t._ZN5QHashI5QDate15QHashDummyValueE13detach_helperEv)
    t._ZN5QHashI5QDate15QHashDummyValueE13duplicateNodeEPN9QHashData4NodeEPv 0x0002b9f4   Section       42  qorganizermanagerengine.o(t._ZN5QHashI5QDate15QHashDummyValueE13duplicateNodeEPN9QHashData4NodeEPv)
    t._ZN5QHashI5QDate15QHashDummyValueE6detachEv 0x0002ba1e   Section       28  qorganizeritemmemorybackend.o(t._ZN5QHashI5QDate15QHashDummyValueE6detachEv)
    t._ZN5QHashI5QDate15QHashDummyValueE6insertERKS0_RKS1_ 0x0002ba3a   Section      184  qorganizerevent.o(t._ZN5QHashI5QDate15QHashDummyValueE6insertERKS0_RKS1_)
    t._ZN5QHashI5QDate15QHashDummyValueE6insertERKS0_RKS1_.clean 0x0002baf2   Section        4  qorganizerevent.o(t._ZN5QHashI5QDate15QHashDummyValueE6insertERKS0_RKS1_.clean)
    t._ZN5QHashI5QDate15QHashDummyValueE8freeDataEP9QHashData 0x0002baf8   Section       20  qorganizermanagerengine.o(t._ZN5QHashI5QDate15QHashDummyValueE8freeDataEP9QHashData)
    t._ZN5QHashI5QDate15QHashDummyValueED1Ev 0x0002bb0c   Section       30  qorganizermanagerengine.o(t._ZN5QHashI5QDate15QHashDummyValueED1Ev)
    t._ZN5QHashI7QString15QHashDummyValueE11deleteNode2EPN9QHashData4NodeE 0x0002bb2a   Section       24  qorganizermanager_p.o(t._ZN5QHashI7QString15QHashDummyValueE11deleteNode2EPN9QHashData4NodeE)
    t._ZN5QHashI7QString15QHashDummyValueE13detach_helperEv 0x0002bb44   Section       60  qorganizermanager_p.o(t._ZN5QHashI7QString15QHashDummyValueE13detach_helperEv)
    t._ZN5QHashI7QString15QHashDummyValueE13duplicateNodeEPN9QHashData4NodeEPv 0x0002bb80   Section       44  qorganizermanager_p.o(t._ZN5QHashI7QString15QHashDummyValueE13duplicateNodeEPN9QHashData4NodeEPv)
    t._ZN5QHashI7QString15QHashDummyValueE13duplicateNodeEPN9QHashData4NodeEPv.clean 0x0002bbac   Section       12  qorganizermanager_p.o(t._ZN5QHashI7QString15QHashDummyValueE13duplicateNodeEPN9QHashData4NodeEPv.clean)
    t._ZN5QHashI7QString15QHashDummyValueE6insertERKS0_RKS1_ 0x0002bbb8   Section      186  qorganizermanager_p.o(t._ZN5QHashI7QString15QHashDummyValueE6insertERKS0_RKS1_)
    t._ZN5QHashI7QString15QHashDummyValueE6insertERKS0_RKS1_.clean 0x0002bc72   Section       12  qorganizermanager_p.o(t._ZN5QHashI7QString15QHashDummyValueE6insertERKS0_RKS1_.clean)
    t._ZN5QHashI7QString15QHashDummyValueE8freeDataEP9QHashData 0x0002bc80   Section       20  qorganizermanager_p.o(t._ZN5QHashI7QString15QHashDummyValueE8freeDataEP9QHashData)
    t._ZN5QHashI7QString15QHashDummyValueED1Ev 0x0002bc94   Section       30  qorganizermanager_p.o(t._ZN5QHashI7QString15QHashDummyValueED1Ev)
    t._ZN5QHashI7QStringPN10QtMobility30QOrganizerManagerEngineFactoryEE11deleteNode2EPN9QHashData4NodeE 0x0002bcb2   Section       24  qorganizermanager_p.o(t._ZN5QHashI7QStringPN10QtMobility30QOrganizerManagerEngineFactoryEE11deleteNode2EPN9QHashData4NodeE)
    t._ZN5QHashI7QStringPN10QtMobility30QOrganizerManagerEngineFactoryEE11insertMultiERKS0_RKS3_ 0x0002bcca   Section      156  qorganizermanager_p.o(t._ZN5QHashI7QStringPN10QtMobility30QOrganizerManagerEngineFactoryEE11insertMultiERKS0_RKS3_)
    t._ZN5QHashI7QStringPN10QtMobility30QOrganizerManagerEngineFactoryEE11insertMultiERKS0_RKS3_.clean 0x0002bd66   Section       14  qorganizermanager_p.o(t._ZN5QHashI7QStringPN10QtMobility30QOrganizerManagerEngineFactoryEE11insertMultiERKS0_RKS3_.clean)
    t._ZN5QHashI7QStringPN10QtMobility30QOrganizerManagerEngineFactoryEE13detach_helperEv 0x0002bd74   Section       60  qorganizermanager_p.o(t._ZN5QHashI7QStringPN10QtMobility30QOrganizerManagerEngineFactoryEE13detach_helperEv)
    t._ZN5QHashI7QStringPN10QtMobility30QOrganizerManagerEngineFactoryEE13duplicateNodeEPN9QHashData4NodeEPv 0x0002bdb0   Section       46  qorganizermanager_p.o(t._ZN5QHashI7QStringPN10QtMobility30QOrganizerManagerEngineFactoryEE13duplicateNodeEPN9QHashData4NodeEPv)
    t._ZN5QHashI7QStringPN10QtMobility30QOrganizerManagerEngineFactoryEE13duplicateNodeEPN9QHashData4NodeEPv.clean 0x0002bdde   Section       14  qorganizermanager_p.o(t._ZN5QHashI7QStringPN10QtMobility30QOrganizerManagerEngineFactoryEE13duplicateNodeEPN9QHashData4NodeEPv.clean)
    t._ZN5QHashI7QStringPN10QtMobility30QOrganizerManagerEngineFactoryEE8freeDataEP9QHashData 0x0002bdec   Section       20  qorganizermanager_p.o(t._ZN5QHashI7QStringPN10QtMobility30QOrganizerManagerEngineFactoryEE8freeDataEP9QHashData)
    t._ZN5QHashI7QStringPN10QtMobility30QOrganizerManagerEngineFactoryEEC1Ev 0x0002be00   Section       28  qorganizermanager_p.o(t._ZN5QHashI7QStringPN10QtMobility30QOrganizerManagerEngineFactoryEEC1Ev)
    t._ZN5QHashI7QStringPN10QtMobility30QOrganizerManagerEngineFactoryEED1Ev 0x0002be1c   Section       30  qorganizermanager_p.o(t._ZN5QHashI7QStringPN10QtMobility30QOrganizerManagerEngineFactoryEED1Ev)
    t._ZN5QHashI7QStringPcE11deleteNode2EPN9QHashData4NodeE 0x0002be3a   Section       24  qorganizeritemdetail.o(t._ZN5QHashI7QStringPcE11deleteNode2EPN9QHashData4NodeE)
    t._ZN5QHashI7QStringPcE13detach_helperEv 0x0002be54   Section       60  qorganizeritemdetail.o(t._ZN5QHashI7QStringPcE13detach_helperEv)
    t._ZN5QHashI7QStringPcE13duplicateNodeEPN9QHashData4NodeEPv 0x0002be90   Section       46  qorganizeritemdetail.o(t._ZN5QHashI7QStringPcE13duplicateNodeEPN9QHashData4NodeEPv)
    t._ZN5QHashI7QStringPcE13duplicateNodeEPN9QHashData4NodeEPv.clean 0x0002bebe   Section       14  qorganizeritemdetail.o(t._ZN5QHashI7QStringPcE13duplicateNodeEPN9QHashData4NodeEPv.clean)
    t._ZN5QHashI7QStringPcE6insertERKS0_RKS1_ 0x0002becc   Section      194  qorganizeritemdetail.o(t._ZN5QHashI7QStringPcE6insertERKS0_RKS1_)
    t._ZN5QHashI7QStringPcE6insertERKS0_RKS1_.clean 0x0002bf8e   Section       14  qorganizeritemdetail.o(t._ZN5QHashI7QStringPcE6insertERKS0_RKS1_.clean)
    t._ZN5QHashI7QStringPcE8freeDataEP9QHashData 0x0002bf9c   Section       20  qorganizeritemdetail.o(t._ZN5QHashI7QStringPcE8freeDataEP9QHashData)
    t._ZN5QHashI7QStringPcEC1Ev              0x0002bfb0   Section       28  qorganizeritemdetail.o(t._ZN5QHashI7QStringPcEC1Ev)
    t._ZN5QHashI7QStringPcED1Ev              0x0002bfcc   Section       30  qorganizeritemdetail.o(t._ZN5QHashI7QStringPcED1Ev)
    t._ZN5QHashIN10QtMobility16QOrganizerItemIdE15QHashDummyValueE11deleteNode2EPN9QHashData4NodeE 0x0002bfea   Section       24  qorganizeritemchangeset.o(t._ZN5QHashIN10QtMobility16QOrganizerItemIdE15QHashDummyValueE11deleteNode2EPN9QHashData4NodeE)
    t._ZN5QHashIN10QtMobility16QOrganizerItemIdE15QHashDummyValueE13detach_helperEv 0x0002c004   Section       60  qorganizeritemchangeset.o(t._ZN5QHashIN10QtMobility16QOrganizerItemIdE15QHashDummyValueE13detach_helperEv)
    t._ZN5QHashIN10QtMobility16QOrganizerItemIdE15QHashDummyValueE13duplicateNodeEPN9QHashData4NodeEPv 0x0002c040   Section       44  qorganizeritemchangeset.o(t._ZN5QHashIN10QtMobility16QOrganizerItemIdE15QHashDummyValueE13duplicateNodeEPN9QHashData4NodeEPv)
    t._ZN5QHashIN10QtMobility16QOrganizerItemIdE15QHashDummyValueE13duplicateNodeEPN9QHashData4NodeEPv.clean 0x0002c06c   Section       12  qorganizeritemchangeset.o(t._ZN5QHashIN10QtMobility16QOrganizerItemIdE15QHashDummyValueE13duplicateNodeEPN9QHashData4NodeEPv.clean)
    t._ZN5QHashIN10QtMobility16QOrganizerItemIdE15QHashDummyValueE6detachEv 0x0002c078   Section       28  qorganizeritemchangeset.o(t._ZN5QHashIN10QtMobility16QOrganizerItemIdE15QHashDummyValueE6detachEv)
    t._ZN5QHashIN10QtMobility16QOrganizerItemIdE15QHashDummyValueE6insertERKS1_RKS2_ 0x0002c094   Section      186  qorganizeritemmemorybackend.o(t._ZN5QHashIN10QtMobility16QOrganizerItemIdE15QHashDummyValueE6insertERKS1_RKS2_)
    t._ZN5QHashIN10QtMobility16QOrganizerItemIdE15QHashDummyValueE6insertERKS1_RKS2_.clean 0x0002c14e   Section       12  qorganizeritemmemorybackend.o(t._ZN5QHashIN10QtMobility16QOrganizerItemIdE15QHashDummyValueE6insertERKS1_RKS2_.clean)
    t._ZN5QHashIN10QtMobility16QOrganizerItemIdE15QHashDummyValueE8freeDataEP9QHashData 0x0002c15c   Section       20  qorganizeritemchangeset.o(t._ZN5QHashIN10QtMobility16QOrganizerItemIdE15QHashDummyValueE8freeDataEP9QHashData)
    t._ZN5QHashIN10QtMobility16QOrganizerItemIdE15QHashDummyValueEC1Ev 0x0002c170   Section       28  qorganizeritemchangeset.o(t._ZN5QHashIN10QtMobility16QOrganizerItemIdE15QHashDummyValueEC1Ev)
    t._ZN5QHashIN10QtMobility16QOrganizerItemIdE15QHashDummyValueED1Ev 0x0002c18c   Section       30  qorganizeritemchangeset.o(t._ZN5QHashIN10QtMobility16QOrganizerItemIdE15QHashDummyValueED1Ev)
    t._ZN5QHashIN10QtMobility16QOrganizerItemIdENS0_14QOrganizerItemEE11deleteNode2EPN9QHashData4NodeE 0x0002c1aa   Section       36  qorganizeritemmemorybackend.o(t._ZN5QHashIN10QtMobility16QOrganizerItemIdENS0_14QOrganizerItemEE11deleteNode2EPN9QHashData4NodeE)
    t._ZN5QHashIN10QtMobility16QOrganizerItemIdENS0_14QOrganizerItemEE11deleteNode2EPN9QHashData4NodeE.clean 0x0002c1ce   Section       12  qorganizeritemmemorybackend.o(t._ZN5QHashIN10QtMobility16QOrganizerItemIdENS0_14QOrganizerItemEE11deleteNode2EPN9QHashData4NodeE.clean)
    t._ZN5QHashIN10QtMobility16QOrganizerItemIdENS0_14QOrganizerItemEE13detach_helperEv 0x0002c1dc   Section       60  qorganizeritemmemorybackend.o(t._ZN5QHashIN10QtMobility16QOrganizerItemIdENS0_14QOrganizerItemEE13detach_helperEv)
    t._ZN5QHashIN10QtMobility16QOrganizerItemIdENS0_14QOrganizerItemEE13duplicateNodeEPN9QHashData4NodeEPv 0x0002c218   Section       46  qorganizeritemmemorybackend.o(t._ZN5QHashIN10QtMobility16QOrganizerItemIdENS0_14QOrganizerItemEE13duplicateNodeEPN9QHashData4NodeEPv)
    t._ZN5QHashIN10QtMobility16QOrganizerItemIdENS0_14QOrganizerItemEE13duplicateNodeEPN9QHashData4NodeEPv.clean 0x0002c246   Section       14  qorganizeritemmemorybackend.o(t._ZN5QHashIN10QtMobility16QOrganizerItemIdENS0_14QOrganizerItemEE13duplicateNodeEPN9QHashData4NodeEPv.clean)
    t._ZN5QHashIN10QtMobility16QOrganizerItemIdENS0_14QOrganizerItemEE14const_iteratorppEv 0x0002c254   Section       16  qorganizeritemmemorybackend.o(t._ZN5QHashIN10QtMobility16QOrganizerItemIdENS0_14QOrganizerItemEE14const_iteratorppEv)
    t._ZN5QHashIN10QtMobility16QOrganizerItemIdENS0_14QOrganizerItemEE4findERKS1_ 0x0002c264   Section       30  qorganizeritemmemorybackend.o(t._ZN5QHashIN10QtMobility16QOrganizerItemIdENS0_14QOrganizerItemEE4findERKS1_)
    t._ZN5QHashIN10QtMobility16QOrganizerItemIdENS0_14QOrganizerItemEE6detachEv 0x0002c282   Section       28  qorganizeritemmemorybackend.o(t._ZN5QHashIN10QtMobility16QOrganizerItemIdENS0_14QOrganizerItemEE6detachEv)
    t._ZN5QHashIN10QtMobility16QOrganizerItemIdENS0_14QOrganizerItemEE6insertERKS1_RKS2_ 0x0002c29e   Section      182  qorganizeritemmemorybackend.o(t._ZN5QHashIN10QtMobility16QOrganizerItemIdENS0_14QOrganizerItemEE6insertERKS1_RKS2_)
    t._ZN5QHashIN10QtMobility16QOrganizerItemIdENS0_14QOrganizerItemEE6insertERKS1_RKS2_.clean 0x0002c354   Section       14  qorganizeritemmemorybackend.o(t._ZN5QHashIN10QtMobility16QOrganizerItemIdENS0_14QOrganizerItemEE6insertERKS1_RKS2_.clean)
    t._ZN5QHashIN10QtMobility16QOrganizerItemIdENS0_14QOrganizerItemEE6removeERKS1_ 0x0002c362   Section      164  qorganizeritemmemorybackend.o(t._ZN5QHashIN10QtMobility16QOrganizerItemIdENS0_14QOrganizerItemEE6removeERKS1_)
    t._ZN5QHashIN10QtMobility16QOrganizerItemIdENS0_14QOrganizerItemEE8freeDataEP9QHashData 0x0002c408   Section       20  qorganizeritemmemorybackend.o(t._ZN5QHashIN10QtMobility16QOrganizerItemIdENS0_14QOrganizerItemEE8freeDataEP9QHashData)
    t._ZN5QHashIN10QtMobility16QOrganizerItemIdENS0_14QOrganizerItemEED1Ev 0x0002c41c   Section       30  qorganizeritemmemorybackend.o(t._ZN5QHashIN10QtMobility16QOrganizerItemIdENS0_14QOrganizerItemEED1Ev)
    t._ZN5QHashIN10QtMobility16QOrganizerItemIdES1_E10deleteNodeEP9QHashNodeIS1_S1_E 0x0002c43a   Section       22  qorganizeritemmemorybackend.o(t._ZN5QHashIN10QtMobility16QOrganizerItemIdES1_E10deleteNodeEP9QHashNodeIS1_S1_E)
    t._ZN5QHashIN10QtMobility16QOrganizerItemIdES1_E11deleteNode2EPN9QHashData4NodeE 0x0002c450   Section       36  qorganizeritemmemorybackend.o(t._ZN5QHashIN10QtMobility16QOrganizerItemIdES1_E11deleteNode2EPN9QHashData4NodeE)
    t._ZN5QHashIN10QtMobility16QOrganizerItemIdES1_E11deleteNode2EPN9QHashData4NodeE.clean 0x0002c474   Section       12  qorganizeritemmemorybackend.o(t._ZN5QHashIN10QtMobility16QOrganizerItemIdES1_E11deleteNode2EPN9QHashData4NodeE.clean)
    t._ZN5QHashIN10QtMobility16QOrganizerItemIdES1_E13detach_helperEv 0x0002c480   Section       60  qorganizeritemmemorybackend.o(t._ZN5QHashIN10QtMobility16QOrganizerItemIdES1_E13detach_helperEv)
    t._ZN5QHashIN10QtMobility16QOrganizerItemIdES1_E13duplicateNodeEPN9QHashData4NodeEPv 0x0002c4bc   Section       46  qorganizeritemmemorybackend.o(t._ZN5QHashIN10QtMobility16QOrganizerItemIdES1_E13duplicateNodeEPN9QHashData4NodeEPv)
    t._ZN5QHashIN10QtMobility16QOrganizerItemIdES1_E13duplicateNodeEPN9QHashData4NodeEPv.clean 0x0002c4ea   Section       14  qorganizeritemmemorybackend.o(t._ZN5QHashIN10QtMobility16QOrganizerItemIdES1_E13duplicateNodeEPN9QHashData4NodeEPv.clean)
    t._ZN5QHashIN10QtMobility16QOrganizerItemIdES1_E5eraseENS2_8iteratorE 0x0002c4f8   Section      118  qorganizeritemmemorybackend.o(t._ZN5QHashIN10QtMobility16QOrganizerItemIdES1_E5eraseENS2_8iteratorE)
    t._ZN5QHashIN10QtMobility16QOrganizerItemIdES1_E6detachEv 0x0002c56e   Section       28  qorganizeritemmemorybackend.o(t._ZN5QHashIN10QtMobility16QOrganizerItemIdES1_E6detachEv)
    t._ZN5QHashIN10QtMobility16QOrganizerItemIdES1_E6removeERKS1_ 0x0002c58a   Section      152  qorganizeritemmemorybackend.o(t._ZN5QHashIN10QtMobility16QOrganizerItemIdES1_E6removeERKS1_)
    t._ZN5QHashIN10QtMobility16QOrganizerItemIdES1_E8freeDataEP9QHashData 0x0002c624   Section       20  qorganizeritemmemorybackend.o(t._ZN5QHashIN10QtMobility16QOrganizerItemIdES1_E8freeDataEP9QHashData)
    t._ZN5QHashIN10QtMobility16QOrganizerItemIdES1_ED1Ev 0x0002c638   Section       30  qorganizeritemmemorybackend.o(t._ZN5QHashIN10QtMobility16QOrganizerItemIdES1_ED1Ev)
    t._ZN5QHashIN10QtMobility22QOrganizerCollectionIdE15QHashDummyValueE11deleteNode2EPN9QHashData4NodeE 0x0002c656   Section       24  qorganizercollectionchangeset.o(t._ZN5QHashIN10QtMobility22QOrganizerCollectionIdE15QHashDummyValueE11deleteNode2EPN9QHashData4NodeE)
    t._ZN5QHashIN10QtMobility22QOrganizerCollectionIdE15QHashDummyValueE13detach_helperEv 0x0002c670   Section       60  qorganizercollectionchangeset.o(t._ZN5QHashIN10QtMobility22QOrganizerCollectionIdE15QHashDummyValueE13detach_helperEv)
    t._ZN5QHashIN10QtMobility22QOrganizerCollectionIdE15QHashDummyValueE13duplicateNodeEPN9QHashData4NodeEPv 0x0002c6ac   Section       44  qorganizercollectionchangeset.o(t._ZN5QHashIN10QtMobility22QOrganizerCollectionIdE15QHashDummyValueE13duplicateNodeEPN9QHashData4NodeEPv)
    t._ZN5QHashIN10QtMobility22QOrganizerCollectionIdE15QHashDummyValueE13duplicateNodeEPN9QHashData4NodeEPv.clean 0x0002c6d8   Section       12  qorganizercollectionchangeset.o(t._ZN5QHashIN10QtMobility22QOrganizerCollectionIdE15QHashDummyValueE13duplicateNodeEPN9QHashData4NodeEPv.clean)
    t._ZN5QHashIN10QtMobility22QOrganizerCollectionIdE15QHashDummyValueE6detachEv 0x0002c6e4   Section       28  qorganizercollectionchangeset.o(t._ZN5QHashIN10QtMobility22QOrganizerCollectionIdE15QHashDummyValueE6detachEv)
    t._ZN5QHashIN10QtMobility22QOrganizerCollectionIdE15QHashDummyValueE6insertERKS1_RKS2_ 0x0002c700   Section      190  qorganizercollectionchangeset.o(t._ZN5QHashIN10QtMobility22QOrganizerCollectionIdE15QHashDummyValueE6insertERKS1_RKS2_)
    t._ZN5QHashIN10QtMobility22QOrganizerCollectionIdE15QHashDummyValueE6insertERKS1_RKS2_.clean 0x0002c7be   Section       12  qorganizercollectionchangeset.o(t._ZN5QHashIN10QtMobility22QOrganizerCollectionIdE15QHashDummyValueE6insertERKS1_RKS2_.clean)
    t._ZN5QHashIN10QtMobility22QOrganizerCollectionIdE15QHashDummyValueE8freeDataEP9QHashData 0x0002c7cc   Section       20  qorganizercollectionchangeset.o(t._ZN5QHashIN10QtMobility22QOrganizerCollectionIdE15QHashDummyValueE8freeDataEP9QHashData)
    t._ZN5QHashIN10QtMobility22QOrganizerCollectionIdE15QHashDummyValueEC1Ev 0x0002c7e0   Section       28  qorganizercollectionchangeset.o(t._ZN5QHashIN10QtMobility22QOrganizerCollectionIdE15QHashDummyValueEC1Ev)
    t._ZN5QHashIN10QtMobility22QOrganizerCollectionIdE15QHashDummyValueED1Ev 0x0002c7fc   Section       30  qorganizercollectionchangeset.o(t._ZN5QHashIN10QtMobility22QOrganizerCollectionIdE15QHashDummyValueED1Ev)
    t._ZN5QHashIN10QtMobility22QOrganizerCollectionIdE15QHashDummyValueEaSERKS3_ 0x0002c81a   Section       70  qorganizeritemcollectionfilter.o(t._ZN5QHashIN10QtMobility22QOrganizerCollectionIdE15QHashDummyValueEaSERKS3_)
    t._ZN5QHashIN10QtMobility24QOrganizerRecurrenceRule5MonthE15QHashDummyValueE11deleteNode2EPN9QHashData4NodeE 0x0002c860   Section        6  qorganizerrecurrencerule.o(t._ZN5QHashIN10QtMobility24QOrganizerRecurrenceRule5MonthE15QHashDummyValueE11deleteNode2EPN9QHashData4NodeE)
    t._ZN5QHashIN10QtMobility24QOrganizerRecurrenceRule5MonthE15QHashDummyValueE13detach_helperEv 0x0002c868   Section       60  qorganizerrecurrencerule.o(t._ZN5QHashIN10QtMobility24QOrganizerRecurrenceRule5MonthE15QHashDummyValueE13detach_helperEv)
    t._ZN5QHashIN10QtMobility24QOrganizerRecurrenceRule5MonthE15QHashDummyValueE13duplicateNodeEPN9QHashData4NodeEPv 0x0002c8a4   Section       40  qorganizeritemmemorybackend.o(t._ZN5QHashIN10QtMobility24QOrganizerRecurrenceRule5MonthE15QHashDummyValueE13duplicateNodeEPN9QHashData4NodeEPv)
    t._ZN5QHashIN10QtMobility24QOrganizerRecurrenceRule5MonthE15QHashDummyValueE6insertERKS2_RKS3_ 0x0002c8cc   Section      188  qorganizeritemmemorybackend.o(t._ZN5QHashIN10QtMobility24QOrganizerRecurrenceRule5MonthE15QHashDummyValueE6insertERKS2_RKS3_)
    t._ZN5QHashIN10QtMobility24QOrganizerRecurrenceRule5MonthE15QHashDummyValueE6insertERKS2_RKS3_.clean 0x0002c988   Section        4  qorganizeritemmemorybackend.o(t._ZN5QHashIN10QtMobility24QOrganizerRecurrenceRule5MonthE15QHashDummyValueE6insertERKS2_RKS3_.clean)
    t._ZN5QHashIN10QtMobility24QOrganizerRecurrenceRule5MonthE15QHashDummyValueE8freeDataEP9QHashData 0x0002c98c   Section       20  qorganizerrecurrencerule.o(t._ZN5QHashIN10QtMobility24QOrganizerRecurrenceRule5MonthE15QHashDummyValueE8freeDataEP9QHashData)
    t._ZN5QHashIN10QtMobility24QOrganizerRecurrenceRule5MonthE15QHashDummyValueED1Ev 0x0002c9a0   Section       30  qorganizerrecurrencerule.o(t._ZN5QHashIN10QtMobility24QOrganizerRecurrenceRule5MonthE15QHashDummyValueED1Ev)
    t._ZN5QHashIN10QtMobility24QOrganizerRecurrenceRuleE15QHashDummyValueE11deleteNode2EPN9QHashData4NodeE 0x0002c9be   Section       24  qorganizermanagerengine.o(t._ZN5QHashIN10QtMobility24QOrganizerRecurrenceRuleE15QHashDummyValueE11deleteNode2EPN9QHashData4NodeE)
    t._ZN5QHashIN10QtMobility24QOrganizerRecurrenceRuleE15QHashDummyValueE13detach_helperEv 0x0002c9d8   Section       60  qorganizermanagerengine.o(t._ZN5QHashIN10QtMobility24QOrganizerRecurrenceRuleE15QHashDummyValueE13detach_helperEv)
    t._ZN5QHashIN10QtMobility24QOrganizerRecurrenceRuleE15QHashDummyValueE13duplicateNodeEPN9QHashData4NodeEPv 0x0002ca14   Section       44  qorganizerevent.o(t._ZN5QHashIN10QtMobility24QOrganizerRecurrenceRuleE15QHashDummyValueE13duplicateNodeEPN9QHashData4NodeEPv)
    t._ZN5QHashIN10QtMobility24QOrganizerRecurrenceRuleE15QHashDummyValueE13duplicateNodeEPN9QHashData4NodeEPv.clean 0x0002ca40   Section       12  qorganizerevent.o(t._ZN5QHashIN10QtMobility24QOrganizerRecurrenceRuleE15QHashDummyValueE13duplicateNodeEPN9QHashData4NodeEPv.clean)
    t._ZN5QHashIN10QtMobility24QOrganizerRecurrenceRuleE15QHashDummyValueE6detachEv 0x0002ca4c   Section       28  qorganizerevent.o(t._ZN5QHashIN10QtMobility24QOrganizerRecurrenceRuleE15QHashDummyValueE6detachEv)
    t._ZN5QHashIN10QtMobility24QOrganizerRecurrenceRuleE15QHashDummyValueE6insertERKS1_RKS2_ 0x0002ca68   Section      168  qorganizerevent.o(t._ZN5QHashIN10QtMobility24QOrganizerRecurrenceRuleE15QHashDummyValueE6insertERKS1_RKS2_)
    t._ZN5QHashIN10QtMobility24QOrganizerRecurrenceRuleE15QHashDummyValueE6insertERKS1_RKS2_.clean 0x0002cb10   Section       12  qorganizerevent.o(t._ZN5QHashIN10QtMobility24QOrganizerRecurrenceRuleE15QHashDummyValueE6insertERKS1_RKS2_.clean)
    t._ZN5QHashIN10QtMobility24QOrganizerRecurrenceRuleE15QHashDummyValueE8freeDataEP9QHashData 0x0002cb1c   Section       20  qorganizermanagerengine.o(t._ZN5QHashIN10QtMobility24QOrganizerRecurrenceRuleE15QHashDummyValueE8freeDataEP9QHashData)
    t._ZN5QHashIN10QtMobility24QOrganizerRecurrenceRuleE15QHashDummyValueED1Ev 0x0002cb30   Section       30  qorganizermanagerengine.o(t._ZN5QHashIN10QtMobility24QOrganizerRecurrenceRuleE15QHashDummyValueED1Ev)
    t._ZN5QHashIN10QtMobility26QOrganizerItemStringHolderE8QVariantE11deleteNode2EPN9QHashData4NodeE 0x0002cb4e   Section       32  qorganizeritem.o(t._ZN5QHashIN10QtMobility26QOrganizerItemStringHolderE8QVariantE11deleteNode2EPN9QHashData4NodeE)
    t._ZN5QHashIN10QtMobility26QOrganizerItemStringHolderE8QVariantE11deleteNode2EPN9QHashData4NodeE.clean 0x0002cb6e   Section       12  qorganizeritem.o(t._ZN5QHashIN10QtMobility26QOrganizerItemStringHolderE8QVariantE11deleteNode2EPN9QHashData4NodeE.clean)
    t._ZN5QHashIN10QtMobility26QOrganizerItemStringHolderE8QVariantE13detach_helperEv 0x0002cb7c   Section       60  qorganizeritem.o(t._ZN5QHashIN10QtMobility26QOrganizerItemStringHolderE8QVariantE13detach_helperEv)
    t._ZN5QHashIN10QtMobility26QOrganizerItemStringHolderE8QVariantE13duplicateNodeEPN9QHashData4NodeEPv 0x0002cbb8   Section       48  qorganizeritemdetail.o(t._ZN5QHashIN10QtMobility26QOrganizerItemStringHolderE8QVariantE13duplicateNodeEPN9QHashData4NodeEPv)
    t._ZN5QHashIN10QtMobility26QOrganizerItemStringHolderE8QVariantE13duplicateNodeEPN9QHashData4NodeEPv.clean 0x0002cbe8   Section       14  qorganizeritemdetail.o(t._ZN5QHashIN10QtMobility26QOrganizerItemStringHolderE8QVariantE13duplicateNodeEPN9QHashData4NodeEPv.clean)
    t._ZN5QHashIN10QtMobility26QOrganizerItemStringHolderE8QVariantE14const_iteratorppEv 0x0002cbf6   Section       16  qorganizeritemdetail.o(t._ZN5QHashIN10QtMobility26QOrganizerItemStringHolderE8QVariantE14const_iteratorppEv)
    t._ZN5QHashIN10QtMobility26QOrganizerItemStringHolderE8QVariantE6detachEv 0x0002cc06   Section       28  qorganizeritemdetail.o(t._ZN5QHashIN10QtMobility26QOrganizerItemStringHolderE8QVariantE6detachEv)
    t._ZN5QHashIN10QtMobility26QOrganizerItemStringHolderE8QVariantE6insertERKS1_RKS2_ 0x0002cc22   Section      182  qorganizeritemdetail.o(t._ZN5QHashIN10QtMobility26QOrganizerItemStringHolderE8QVariantE6insertERKS1_RKS2_)
    t._ZN5QHashIN10QtMobility26QOrganizerItemStringHolderE8QVariantE6insertERKS1_RKS2_.clean 0x0002ccd8   Section       14  qorganizeritemdetail.o(t._ZN5QHashIN10QtMobility26QOrganizerItemStringHolderE8QVariantE6insertERKS1_RKS2_.clean)
    t._ZN5QHashIN10QtMobility26QOrganizerItemStringHolderE8QVariantE6removeERKS1_ 0x0002cce6   Section      236  qorganizeritemdetail.o(t._ZN5QHashIN10QtMobility26QOrganizerItemStringHolderE8QVariantE6removeERKS1_)
    t._ZN5QHashIN10QtMobility26QOrganizerItemStringHolderE8QVariantE8freeDataEP9QHashData 0x0002cdd4   Section       20  qorganizeritem.o(t._ZN5QHashIN10QtMobility26QOrganizerItemStringHolderE8QVariantE8freeDataEP9QHashData)
    t._ZN5QHashIN10QtMobility26QOrganizerItemStringHolderE8QVariantED1Ev 0x0002cde8   Section       30  qorganizeritem.o(t._ZN5QHashIN10QtMobility26QOrganizerItemStringHolderE8QVariantED1Ev)
    t._ZN5QHashIN2Qt9DayOfWeekE15QHashDummyValueE11deleteNode2EPN9QHashData4NodeE 0x0002ce06   Section        6  qorganizerrecurrencerule.o(t._ZN5QHashIN2Qt9DayOfWeekE15QHashDummyValueE11deleteNode2EPN9QHashData4NodeE)
    t._ZN5QHashIN2Qt9DayOfWeekE15QHashDummyValueE13detach_helperEv 0x0002ce0c   Section       60  qorganizerrecurrencerule.o(t._ZN5QHashIN2Qt9DayOfWeekE15QHashDummyValueE13detach_helperEv)
    t._ZN5QHashIN2Qt9DayOfWeekE15QHashDummyValueE13duplicateNodeEPN9QHashData4NodeEPv 0x0002ce48   Section       40  qorganizeritemmemorybackend.o(t._ZN5QHashIN2Qt9DayOfWeekE15QHashDummyValueE13duplicateNodeEPN9QHashData4NodeEPv)
    t._ZN5QHashIN2Qt9DayOfWeekE15QHashDummyValueE6insertERKS1_RKS2_ 0x0002ce70   Section      188  qorganizeritemmemorybackend.o(t._ZN5QHashIN2Qt9DayOfWeekE15QHashDummyValueE6insertERKS1_RKS2_)
    t._ZN5QHashIN2Qt9DayOfWeekE15QHashDummyValueE6insertERKS1_RKS2_.clean 0x0002cf2c   Section        4  qorganizeritemmemorybackend.o(t._ZN5QHashIN2Qt9DayOfWeekE15QHashDummyValueE6insertERKS1_RKS2_.clean)
    t._ZN5QHashIN2Qt9DayOfWeekE15QHashDummyValueE8freeDataEP9QHashData 0x0002cf30   Section       20  qorganizerrecurrencerule.o(t._ZN5QHashIN2Qt9DayOfWeekE15QHashDummyValueE8freeDataEP9QHashData)
    t._ZN5QHashIN2Qt9DayOfWeekE15QHashDummyValueED1Ev 0x0002cf44   Section       30  qorganizerrecurrencerule.o(t._ZN5QHashIN2Qt9DayOfWeekE15QHashDummyValueED1Ev)
    t._ZN5QHashIPKc7QStringE11deleteNode2EPN9QHashData4NodeE 0x0002cf62   Section       24  qorganizeritemdetail.o(t._ZN5QHashIPKc7QStringE11deleteNode2EPN9QHashData4NodeE)
    t._ZN5QHashIPKc7QStringE13detach_helperEv 0x0002cf7c   Section       60  qorganizeritemdetail.o(t._ZN5QHashIPKc7QStringE13detach_helperEv)
    t._ZN5QHashIPKc7QStringE13duplicateNodeEPN9QHashData4NodeEPv 0x0002cfb8   Section       46  qorganizeritemdetail.o(t._ZN5QHashIPKc7QStringE13duplicateNodeEPN9QHashData4NodeEPv)
    t._ZN5QHashIPKc7QStringE13duplicateNodeEPN9QHashData4NodeEPv.clean 0x0002cfe6   Section       14  qorganizeritemdetail.o(t._ZN5QHashIPKc7QStringE13duplicateNodeEPN9QHashData4NodeEPv.clean)
    t._ZN5QHashIPKc7QStringE6insertERKS1_RKS2_ 0x0002cff4   Section      200  qorganizeritemdetail.o(t._ZN5QHashIPKc7QStringE6insertERKS1_RKS2_)
    t._ZN5QHashIPKc7QStringE6insertERKS1_RKS2_.clean 0x0002d0bc   Section       14  qorganizeritemdetail.o(t._ZN5QHashIPKc7QStringE6insertERKS1_RKS2_.clean)
    t._ZN5QHashIPKc7QStringE8freeDataEP9QHashData 0x0002d0cc   Section       20  qorganizeritemdetail.o(t._ZN5QHashIPKc7QStringE8freeDataEP9QHashData)
    t._ZN5QHashIPKc7QStringEC1Ev             0x0002d0e0   Section       28  qorganizeritemdetail.o(t._ZN5QHashIPKc7QStringEC1Ev)
    t._ZN5QHashIPKc7QStringED1Ev             0x0002d0fc   Section       30  qorganizeritemdetail.o(t._ZN5QHashIPKc7QStringED1Ev)
    t._ZN5QHashIi15QHashDummyValueE11deleteNode2EPN9QHashData4NodeE 0x0002d11a   Section        6  qorganizerrecurrencerule.o(t._ZN5QHashIi15QHashDummyValueE11deleteNode2EPN9QHashData4NodeE)
    t._ZN5QHashIi15QHashDummyValueE13detach_helperEv 0x0002d120   Section       60  qorganizerrecurrencerule.o(t._ZN5QHashIi15QHashDummyValueE13detach_helperEv)
    t._ZN5QHashIi15QHashDummyValueE13duplicateNodeEPN9QHashData4NodeEPv 0x0002d15c   Section       34  qorganizeritemmemorybackend.o(t._ZN5QHashIi15QHashDummyValueE13duplicateNodeEPN9QHashData4NodeEPv)
    t._ZN5QHashIi15QHashDummyValueE6detachEv 0x0002d17e   Section       28  qorganizeritemmemorybackend.o(t._ZN5QHashIi15QHashDummyValueE6detachEv)
    t._ZN5QHashIi15QHashDummyValueE8freeDataEP9QHashData 0x0002d19c   Section       20  qorganizerrecurrencerule.o(t._ZN5QHashIi15QHashDummyValueE8freeDataEP9QHashData)
    t._ZN5QHashIi15QHashDummyValueED1Ev      0x0002d1b0   Section       30  qorganizerrecurrencerule.o(t._ZN5QHashIi15QHashDummyValueED1Ev)
    t._ZN5QListI5QDateE13detach_helperEi     0x0002d1ce   Section       94  qorganizeritemmemorybackend.o(t._ZN5QListI5QDateE13detach_helperEi)
    t._ZN5QListI5QDateE13detach_helperEi.clean 0x0002d22c   Section        8  qorganizeritemmemorybackend.o(t._ZN5QListI5QDateE13detach_helperEi.clean)
    t._ZN5QListI5QDateE13detach_helperEv     0x0002d234   Section       16  qorganizeritemmemorybackend.o(t._ZN5QListI5QDateE13detach_helperEv)
    t._ZN5QListI5QDateE14node_constructEPNS1_4NodeERKS0_ 0x0002d244   Section       30  qorganizeritemmemorybackend.o(t._ZN5QListI5QDateE14node_constructEPNS1_4NodeERKS0_)
    t._ZN5QListI5QDateE18detach_helper_growEii 0x0002d262   Section      212  qorganizeritemmemorybackend.o(t._ZN5QListI5QDateE18detach_helper_growEii)
    t._ZN5QListI5QDateE18detach_helper_growEii.clean 0x0002d336   Section       16  qorganizeritemmemorybackend.o(t._ZN5QListI5QDateE18detach_helper_growEii.clean)
    t._ZN5QListI5QDateE4freeEPN9QListData4DataE 0x0002d346   Section       58  qorganizeritemmemorybackend.o(t._ZN5QListI5QDateE4freeEPN9QListData4DataE)
    t._ZN5QListI5QDateE6appendERKS0_         0x0002d380   Section      116  qorganizeritemmemorybackend.o(t._ZN5QListI5QDateE6appendERKS0_)
    t._ZN5QListI5QDateE6appendERKS0_.clean   0x0002d3f4   Section       14  qorganizeritemmemorybackend.o(t._ZN5QListI5QDateE6appendERKS0_.clean)
    t._ZN5QListI5QDateE9node_copyEPNS1_4NodeES3_S3_ 0x0002d402   Section       44  qorganizeritemmemorybackend.o(t._ZN5QListI5QDateE9node_copyEPNS1_4NodeES3_S3_)
    t._ZN5QListI5QDateEC1ERKS1_              0x0002d42e   Section       36  qorganizeritemmemorybackend.o(t._ZN5QListI5QDateEC1ERKS1_)
    t._ZN5QListI5QDateEC1Ev                  0x0002d454   Section       24  qorganizeritemmemorybackend.o(t._ZN5QListI5QDateEC1Ev)
    t._ZN5QListI5QDateED1Ev                  0x0002d46c   Section       32  qorganizeritemmemorybackend.o(t._ZN5QListI5QDateED1Ev)
    t._ZN5QListI7QStringE13detach_helperEi   0x0002d48c   Section       94  qorganizercollectionid.o(t._ZN5QListI7QStringE13detach_helperEi)
    t._ZN5QListI7QStringE13detach_helperEi.clean 0x0002d4ea   Section        8  qorganizercollectionid.o(t._ZN5QListI7QStringE13detach_helperEi.clean)
    t._ZN5QListI7QStringE13detach_helperEv   0x0002d4f2   Section       16  qorganizercollectionid.o(t._ZN5QListI7QStringE13detach_helperEv)
    t._ZN5QListI7QStringE13node_destructEPNS1_4NodeES3_ 0x0002d502   Section       26  qorganizercollectionid.o(t._ZN5QListI7QStringE13node_destructEPNS1_4NodeES3_)
    t._ZN5QListI7QStringE14node_constructEPNS1_4NodeERKS0_ 0x0002d51c   Section       36  qorganizercollectionid.o(t._ZN5QListI7QStringE14node_constructEPNS1_4NodeERKS0_)
    t._ZN5QListI7QStringE14node_constructEPNS1_4NodeERKS0_.clean 0x0002d540   Section       14  qorganizercollectionid.o(t._ZN5QListI7QStringE14node_constructEPNS1_4NodeERKS0_.clean)
    t._ZN5QListI7QStringE18detach_helper_growEii 0x0002d54e   Section      208  qorganizercollectionid.o(t._ZN5QListI7QStringE18detach_helper_growEii)
    t._ZN5QListI7QStringE18detach_helper_growEii.clean 0x0002d61e   Section       16  qorganizercollectionid.o(t._ZN5QListI7QStringE18detach_helper_growEii.clean)
    t._ZN5QListI7QStringE4freeEPN9QListData4DataE 0x0002d62e   Section       52  qorganizermanagerengine.o(t._ZN5QListI7QStringE4freeEPN9QListData4DataE)
    t._ZN5QListI7QStringE5clearEv            0x0002d662   Section       28  qorganizeritemfetchhint.o(t._ZN5QListI7QStringE5clearEv)
    t._ZN5QListI7QStringE5clearEv.clean      0x0002d67e   Section       10  qorganizeritemfetchhint.o(t._ZN5QListI7QStringE5clearEv.clean)
    t._ZN5QListI7QStringE6appendERKS0_       0x0002d688   Section      120  qorganizercollectionid.o(t._ZN5QListI7QStringE6appendERKS0_)
    t._ZN5QListI7QStringE6appendERKS0_.clean 0x0002d700   Section       14  qorganizercollectionid.o(t._ZN5QListI7QStringE6appendERKS0_.clean)
    t._ZN5QListI7QStringE7reserveEi          0x0002d70e   Section       46  qorganizercollectionid.o(t._ZN5QListI7QStringE7reserveEi)
    t._ZN5QListI7QStringE9node_copyEPNS1_4NodeES3_S3_ 0x0002d73c   Section       82  qorganizercollectionid.o(t._ZN5QListI7QStringE9node_copyEPNS1_4NodeES3_S3_)
    t._ZN5QListI7QStringE9node_copyEPNS1_4NodeES3_S3_.clean 0x0002d78e   Section       22  qorganizercollectionid.o(t._ZN5QListI7QStringE9node_copyEPNS1_4NodeES3_S3_.clean)
    t._ZN5QListI7QStringE9removeAllERKS0_    0x0002d7a4   Section      132  qorganizermanager.o(t._ZN5QListI7QStringE9removeAllERKS0_)
    t._ZN5QListI7QStringE9removeAllERKS0_.clean 0x0002d828   Section       10  qorganizermanager.o(t._ZN5QListI7QStringE9removeAllERKS0_.clean)
    t._ZN5QListI7QStringEC1Ev                0x0002d834   Section       24  qorganizercollectionid.o(t._ZN5QListI7QStringEC1Ev)
    t._ZN5QListI7QStringED1Ev                0x0002d84c   Section       32  qorganizercollectionid.o(t._ZN5QListI7QStringED1Ev)
    t._ZN5QListI7QStringEaSERKS1_            0x0002d86c   Section       64  qorganizeritemfetchhint.o(t._ZN5QListI7QStringEaSERKS1_)
    t._ZN5QListI7QStringEpLERKS1_            0x0002d8ac   Section      204  qorganizermanager.o(t._ZN5QListI7QStringEpLERKS1_)
    t._ZN5QListI7QStringEpLERKS1_.clean      0x0002d978   Section        8  qorganizermanager.o(t._ZN5QListI7QStringEpLERKS1_.clean)
    t._ZN5QListI8QVariantE11setSharableEb    0x0002d980   Section       22  qorganizermanagerengine.o(t._ZN5QListI8QVariantE11setSharableEb)
    t._ZN5QListI8QVariantE13detach_helperEi  0x0002d996   Section       94  qorganizeritemdetailfielddefinition.o(t._ZN5QListI8QVariantE13detach_helperEi)
    t._ZN5QListI8QVariantE13detach_helperEi.clean 0x0002d9f4   Section        8  qorganizeritemdetailfielddefinition.o(t._ZN5QListI8QVariantE13detach_helperEi.clean)
    t._ZN5QListI8QVariantE13detach_helperEv  0x0002d9fc   Section       16  qorganizeritemdetailfielddefinition.o(t._ZN5QListI8QVariantE13detach_helperEv)
    t._ZN5QListI8QVariantE13node_destructEPNS1_4NodeE 0x0002da0c   Section       28  qorganizermanagerengine.o(t._ZN5QListI8QVariantE13node_destructEPNS1_4NodeE)
    t._ZN5QListI8QVariantE13node_destructEPNS1_4NodeES3_ 0x0002da28   Section       38  qorganizeritemdetailfielddefinition.o(t._ZN5QListI8QVariantE13node_destructEPNS1_4NodeES3_)
    t._ZN5QListI8QVariantE14node_constructEPNS1_4NodeERKS0_ 0x0002da4e   Section       34  qorganizeritemdetailfielddefinition.o(t._ZN5QListI8QVariantE14node_constructEPNS1_4NodeERKS0_)
    t._ZN5QListI8QVariantE14node_constructEPNS1_4NodeERKS0_.clean 0x0002da70   Section       14  qorganizeritemdetailfielddefinition.o(t._ZN5QListI8QVariantE14node_constructEPNS1_4NodeERKS0_.clean)
    t._ZN5QListI8QVariantE18detach_helper_growEii 0x0002da7e   Section      208  qorganizeritemdetailfielddefinition.o(t._ZN5QListI8QVariantE18detach_helper_growEii)
    t._ZN5QListI8QVariantE18detach_helper_growEii.clean 0x0002db4e   Section       16  qorganizeritemdetailfielddefinition.o(t._ZN5QListI8QVariantE18detach_helper_growEii.clean)
    t._ZN5QListI8QVariantE3endEv             0x0002db5e   Section       26  qorganizermanagerengine.o(t._ZN5QListI8QVariantE3endEv)
    t._ZN5QListI8QVariantE4freeEPN9QListData4DataE 0x0002db78   Section       52  qorganizermanagerengine.o(t._ZN5QListI8QVariantE4freeEPN9QListData4DataE)
    t._ZN5QListI8QVariantE5clearEv           0x0002dbac   Section       28  qorganizeritemdetailfielddefinition.o(t._ZN5QListI8QVariantE5clearEv)
    t._ZN5QListI8QVariantE5clearEv.clean     0x0002dbc8   Section       10  qorganizeritemdetailfielddefinition.o(t._ZN5QListI8QVariantE5clearEv.clean)
    t._ZN5QListI8QVariantE6appendERKS0_      0x0002dbd4   Section      112  qorganizeritemdetailfielddefinition.o(t._ZN5QListI8QVariantE6appendERKS0_)
    t._ZN5QListI8QVariantE6appendERKS0_.clean 0x0002dc44   Section       14  qorganizeritemdetailfielddefinition.o(t._ZN5QListI8QVariantE6appendERKS0_.clean)
    t._ZN5QListI8QVariantE6detachEv          0x0002dc52   Section       24  qorganizermanagerengine.o(t._ZN5QListI8QVariantE6detachEv)
    t._ZN5QListI8QVariantE7reserveEi         0x0002dc6a   Section       46  qorganizeritemdetailfielddefinition.o(t._ZN5QListI8QVariantE7reserveEi)
    t._ZN5QListI8QVariantE9node_copyEPNS1_4NodeES3_S3_ 0x0002dc98   Section       92  qorganizeritemdetailfielddefinition.o(t._ZN5QListI8QVariantE9node_copyEPNS1_4NodeES3_S3_)
    t._ZN5QListI8QVariantE9node_copyEPNS1_4NodeES3_S3_.clean 0x0002dcf4   Section       22  qorganizeritemdetailfielddefinition.o(t._ZN5QListI8QVariantE9node_copyEPNS1_4NodeES3_S3_.clean)
    t._ZN5QListI8QVariantEC1ERKS1_           0x0002dd0a   Section       36  qorganizeritemdetailfielddefinition.o(t._ZN5QListI8QVariantEC1ERKS1_)
    t._ZN5QListI8QVariantEC1Ev               0x0002dd30   Section       24  qorganizeritemdetailfielddefinition.o(t._ZN5QListI8QVariantEC1Ev)
    t._ZN5QListI8QVariantED1Ev               0x0002dd48   Section       32  qorganizeritemdetailfielddefinition.o(t._ZN5QListI8QVariantED1Ev)
    t._ZN5QListI8QVariantEaSERKS1_           0x0002dd68   Section       64  qorganizeritemdetailfielddefinition.o(t._ZN5QListI8QVariantEaSERKS1_)
    t._ZN5QListI8QVariantElsERKS0_           0x0002dda8   Section       18  qorganizermanagerengine.o(t._ZN5QListI8QVariantElsERKS0_)
    t._ZN5QListI9QDateTimeE13detach_helperEi 0x0002ddba   Section       94  qorganizeritemmemorybackend.o(t._ZN5QListI9QDateTimeE13detach_helperEi)
    t._ZN5QListI9QDateTimeE13detach_helperEi.clean 0x0002de18   Section        8  qorganizeritemmemorybackend.o(t._ZN5QListI9QDateTimeE13detach_helperEi.clean)
    t._ZN5QListI9QDateTimeE13detach_helperEv 0x0002de20   Section       16  qorganizeritemmemorybackend.o(t._ZN5QListI9QDateTimeE13detach_helperEv)
    t._ZN5QListI9QDateTimeE13node_destructEPNS1_4NodeES3_ 0x0002de30   Section       26  qorganizeritemmemorybackend.o(t._ZN5QListI9QDateTimeE13node_destructEPNS1_4NodeES3_)
    t._ZN5QListI9QDateTimeE14node_constructEPNS1_4NodeERKS0_ 0x0002de4a   Section       36  qorganizeritemmemorybackend.o(t._ZN5QListI9QDateTimeE14node_constructEPNS1_4NodeERKS0_)
    t._ZN5QListI9QDateTimeE14node_constructEPNS1_4NodeERKS0_.clean 0x0002de6e   Section       14  qorganizeritemmemorybackend.o(t._ZN5QListI9QDateTimeE14node_constructEPNS1_4NodeERKS0_.clean)
    t._ZN5QListI9QDateTimeE18detach_helper_growEii 0x0002de7c   Section      208  qorganizeritemmemorybackend.o(t._ZN5QListI9QDateTimeE18detach_helper_growEii)
    t._ZN5QListI9QDateTimeE18detach_helper_growEii.clean 0x0002df4c   Section       16  qorganizeritemmemorybackend.o(t._ZN5QListI9QDateTimeE18detach_helper_growEii.clean)
    t._ZN5QListI9QDateTimeE4freeEPN9QListData4DataE 0x0002df5c   Section       52  qorganizeritemmemorybackend.o(t._ZN5QListI9QDateTimeE4freeEPN9QListData4DataE)
    t._ZN5QListI9QDateTimeE5beginEv          0x0002df90   Section       26  qorganizeritemmemorybackend.o(t._ZN5QListI9QDateTimeE5beginEv)
    t._ZN5QListI9QDateTimeE6appendERKS0_     0x0002dfac   Section      120  qorganizeritemmemorybackend.o(t._ZN5QListI9QDateTimeE6appendERKS0_)
    t._ZN5QListI9QDateTimeE6appendERKS0_.clean 0x0002e024   Section       14  qorganizeritemmemorybackend.o(t._ZN5QListI9QDateTimeE6appendERKS0_.clean)
    t._ZN5QListI9QDateTimeE6detachEv         0x0002e032   Section       24  qorganizeritemmemorybackend.o(t._ZN5QListI9QDateTimeE6detachEv)
    t._ZN5QListI9QDateTimeE9node_copyEPNS1_4NodeES3_S3_ 0x0002e04a   Section       82  qorganizeritemmemorybackend.o(t._ZN5QListI9QDateTimeE9node_copyEPNS1_4NodeES3_S3_)
    t._ZN5QListI9QDateTimeE9node_copyEPNS1_4NodeES3_S3_.clean 0x0002e09c   Section       22  qorganizeritemmemorybackend.o(t._ZN5QListI9QDateTimeE9node_copyEPNS1_4NodeES3_S3_.clean)
    t._ZN5QListI9QDateTimeEC1Ev              0x0002e0b4   Section       24  qorganizeritemmemorybackend.o(t._ZN5QListI9QDateTimeEC1Ev)
    t._ZN5QListI9QDateTimeED1Ev              0x0002e0cc   Section       32  qorganizeritemmemorybackend.o(t._ZN5QListI9QDateTimeED1Ev)
    t._ZN5QListI9QDateTimeEpLERKS1_          0x0002e0ec   Section      204  qorganizeritemmemorybackend.o(t._ZN5QListI9QDateTimeEpLERKS1_)
    t._ZN5QListI9QDateTimeEpLERKS1_.clean    0x0002e1b8   Section        8  qorganizeritemmemorybackend.o(t._ZN5QListI9QDateTimeEpLERKS1_.clean)
    t._ZN5QListIN10QtMobility14QOrganizerItemEE13detach_helperEi 0x0002e1c0   Section       94  qorganizermanagerengine.o(t._ZN5QListIN10QtMobility14QOrganizerItemEE13detach_helperEi)
    t._ZN5QListIN10QtMobility14QOrganizerItemEE13detach_helperEi.clean 0x0002e21e   Section        8  qorganizermanagerengine.o(t._ZN5QListIN10QtMobility14QOrganizerItemEE13detach_helperEi.clean)
    t._ZN5QListIN10QtMobility14QOrganizerItemEE13detach_helperEv 0x0002e226   Section       16  qorganizermanager.o(t._ZN5QListIN10QtMobility14QOrganizerItemEE13detach_helperEv)
    t._ZN5QListIN10QtMobility14QOrganizerItemEE13node_destructEPNS2_4NodeES4_ 0x0002e236   Section       26  qorganizermanagerengine.o(t._ZN5QListIN10QtMobility14QOrganizerItemEE13node_destructEPNS2_4NodeES4_)
    t._ZN5QListIN10QtMobility14QOrganizerItemEE14node_constructEPNS2_4NodeERKS1_ 0x0002e250   Section       36  qorganizermanagerengine.o(t._ZN5QListIN10QtMobility14QOrganizerItemEE14node_constructEPNS2_4NodeERKS1_)
    t._ZN5QListIN10QtMobility14QOrganizerItemEE14node_constructEPNS2_4NodeERKS1_.clean 0x0002e274   Section       14  qorganizermanagerengine.o(t._ZN5QListIN10QtMobility14QOrganizerItemEE14node_constructEPNS2_4NodeERKS1_.clean)
    t._ZN5QListIN10QtMobility14QOrganizerItemEE18detach_helper_growEii 0x0002e282   Section      208  qorganizermanagerengine.o(t._ZN5QListIN10QtMobility14QOrganizerItemEE18detach_helper_growEii)
    t._ZN5QListIN10QtMobility14QOrganizerItemEE18detach_helper_growEii.clean 0x0002e352   Section       16  qorganizermanagerengine.o(t._ZN5QListIN10QtMobility14QOrganizerItemEE18detach_helper_growEii.clean)
    t._ZN5QListIN10QtMobility14QOrganizerItemEE4freeEPN9QListData4DataE 0x0002e362   Section       52  qorganizermanagerengine.o(t._ZN5QListIN10QtMobility14QOrganizerItemEE4freeEPN9QListData4DataE)
    t._ZN5QListIN10QtMobility14QOrganizerItemEE5clearEv 0x0002e396   Section       28  qorganizeritemsaverequest.o(t._ZN5QListIN10QtMobility14QOrganizerItemEE5clearEv)
    t._ZN5QListIN10QtMobility14QOrganizerItemEE5clearEv.clean 0x0002e3b2   Section       10  qorganizeritemsaverequest.o(t._ZN5QListIN10QtMobility14QOrganizerItemEE5clearEv.clean)
    t._ZN5QListIN10QtMobility14QOrganizerItemEE6appendERKS1_ 0x0002e3bc   Section      120  qorganizermanagerengine.o(t._ZN5QListIN10QtMobility14QOrganizerItemEE6appendERKS1_)
    t._ZN5QListIN10QtMobility14QOrganizerItemEE6appendERKS1_.clean 0x0002e434   Section       14  qorganizermanagerengine.o(t._ZN5QListIN10QtMobility14QOrganizerItemEE6appendERKS1_.clean)
    t._ZN5QListIN10QtMobility14QOrganizerItemEE7reserveEi 0x0002e442   Section       46  qorganizeritemmemorybackend.o(t._ZN5QListIN10QtMobility14QOrganizerItemEE7reserveEi)
    t._ZN5QListIN10QtMobility14QOrganizerItemEE9node_copyEPNS2_4NodeES4_S4_ 0x0002e470   Section       82  qorganizermanagerengine.o(t._ZN5QListIN10QtMobility14QOrganizerItemEE9node_copyEPNS2_4NodeES4_S4_)
    t._ZN5QListIN10QtMobility14QOrganizerItemEE9node_copyEPNS2_4NodeES4_S4_.clean 0x0002e4c2   Section       22  qorganizermanagerengine.o(t._ZN5QListIN10QtMobility14QOrganizerItemEE9node_copyEPNS2_4NodeES4_S4_.clean)
    t._ZN5QListIN10QtMobility14QOrganizerItemEEC1ERKS2_ 0x0002e4d8   Section       36  qorganizeritemmemorybackend.o(t._ZN5QListIN10QtMobility14QOrganizerItemEEC1ERKS2_)
    t._ZN5QListIN10QtMobility14QOrganizerItemEEC1Ev 0x0002e4fc   Section       24  qorganizermanagerengine.o(t._ZN5QListIN10QtMobility14QOrganizerItemEEC1Ev)
    t._ZN5QListIN10QtMobility14QOrganizerItemEED1Ev 0x0002e514   Section       32  qorganizermanager.o(t._ZN5QListIN10QtMobility14QOrganizerItemEED1Ev)
    t._ZN5QListIN10QtMobility14QOrganizerItemEEaSERKS2_ 0x0002e534   Section       64  qorganizermanagerengine.o(t._ZN5QListIN10QtMobility14QOrganizerItemEEaSERKS2_)
    t._ZN5QListIN10QtMobility16QOrganizerItemIdEE13detach_helperEi 0x0002e574   Section       94  qorganizeritemchangeset.o(t._ZN5QListIN10QtMobility16QOrganizerItemIdEE13detach_helperEi)
    t._ZN5QListIN10QtMobility16QOrganizerItemIdEE13detach_helperEi.clean 0x0002e5d2   Section        8  qorganizeritemchangeset.o(t._ZN5QListIN10QtMobility16QOrganizerItemIdEE13detach_helperEi.clean)
    t._ZN5QListIN10QtMobility16QOrganizerItemIdEE13detach_helperEv 0x0002e5da   Section       16  qorganizercollection.o(t._ZN5QListIN10QtMobility16QOrganizerItemIdEE13detach_helperEv)
    t._ZN5QListIN10QtMobility16QOrganizerItemIdEE13node_destructEPNS2_4NodeES4_ 0x0002e5ea   Section       26  qorganizeritemchangeset.o(t._ZN5QListIN10QtMobility16QOrganizerItemIdEE13node_destructEPNS2_4NodeES4_)
    t._ZN5QListIN10QtMobility16QOrganizerItemIdEE14node_constructEPNS2_4NodeERKS1_ 0x0002e604   Section       36  qorganizeritemchangeset.o(t._ZN5QListIN10QtMobility16QOrganizerItemIdEE14node_constructEPNS2_4NodeERKS1_)
    t._ZN5QListIN10QtMobility16QOrganizerItemIdEE14node_constructEPNS2_4NodeERKS1_.clean 0x0002e628   Section       14  qorganizeritemchangeset.o(t._ZN5QListIN10QtMobility16QOrganizerItemIdEE14node_constructEPNS2_4NodeERKS1_.clean)
    t._ZN5QListIN10QtMobility16QOrganizerItemIdEE18detach_helper_growEii 0x0002e636   Section      208  qorganizeritemchangeset.o(t._ZN5QListIN10QtMobility16QOrganizerItemIdEE18detach_helper_growEii)
    t._ZN5QListIN10QtMobility16QOrganizerItemIdEE18detach_helper_growEii.clean 0x0002e706   Section       16  qorganizeritemchangeset.o(t._ZN5QListIN10QtMobility16QOrganizerItemIdEE18detach_helper_growEii.clean)
    t._ZN5QListIN10QtMobility16QOrganizerItemIdEE4freeEPN9QListData4DataE 0x0002e716   Section       52  qorganizermanagerengine.o(t._ZN5QListIN10QtMobility16QOrganizerItemIdEE4freeEPN9QListData4DataE)
    t._ZN5QListIN10QtMobility16QOrganizerItemIdEE5clearEv 0x0002e74a   Section       28  qorganizeritemidfilter.o(t._ZN5QListIN10QtMobility16QOrganizerItemIdEE5clearEv)
    t._ZN5QListIN10QtMobility16QOrganizerItemIdEE5clearEv.clean 0x0002e766   Section       10  qorganizeritemidfilter.o(t._ZN5QListIN10QtMobility16QOrganizerItemIdEE5clearEv.clean)
    t._ZN5QListIN10QtMobility16QOrganizerItemIdEE6appendERKS1_ 0x0002e770   Section      120  qorganizeritemchangeset.o(t._ZN5QListIN10QtMobility16QOrganizerItemIdEE6appendERKS1_)
    t._ZN5QListIN10QtMobility16QOrganizerItemIdEE6appendERKS1_.clean 0x0002e7e8   Section       14  qorganizeritemchangeset.o(t._ZN5QListIN10QtMobility16QOrganizerItemIdEE6appendERKS1_.clean)
    t._ZN5QListIN10QtMobility16QOrganizerItemIdEE7reserveEi 0x0002e7f6   Section       46  qorganizeritemchangeset.o(t._ZN5QListIN10QtMobility16QOrganizerItemIdEE7reserveEi)
    t._ZN5QListIN10QtMobility16QOrganizerItemIdEE9node_copyEPNS2_4NodeES4_S4_ 0x0002e824   Section       82  qorganizeritemchangeset.o(t._ZN5QListIN10QtMobility16QOrganizerItemIdEE9node_copyEPNS2_4NodeES4_S4_)
    t._ZN5QListIN10QtMobility16QOrganizerItemIdEE9node_copyEPNS2_4NodeES4_S4_.clean 0x0002e876   Section       22  qorganizeritemchangeset.o(t._ZN5QListIN10QtMobility16QOrganizerItemIdEE9node_copyEPNS2_4NodeES4_S4_.clean)
    t._ZN5QListIN10QtMobility16QOrganizerItemIdEE9removeAllERKS1_ 0x0002e88c   Section      132  qorganizeritemidfilter.o(t._ZN5QListIN10QtMobility16QOrganizerItemIdEE9removeAllERKS1_)
    t._ZN5QListIN10QtMobility16QOrganizerItemIdEE9removeAllERKS1_.clean 0x0002e910   Section       10  qorganizeritemidfilter.o(t._ZN5QListIN10QtMobility16QOrganizerItemIdEE9removeAllERKS1_.clean)
    t._ZN5QListIN10QtMobility16QOrganizerItemIdEEC1ERKS2_ 0x0002e91a   Section       36  qorganizeritemidfilter.o(t._ZN5QListIN10QtMobility16QOrganizerItemIdEEC1ERKS2_)
    t._ZN5QListIN10QtMobility16QOrganizerItemIdEEC1Ev 0x0002e940   Section       24  qorganizermanagerengine.o(t._ZN5QListIN10QtMobility16QOrganizerItemIdEEC1Ev)
    t._ZN5QListIN10QtMobility16QOrganizerItemIdEED1Ev 0x0002e958   Section       32  qorganizercollection.o(t._ZN5QListIN10QtMobility16QOrganizerItemIdEED1Ev)
    t._ZN5QListIN10QtMobility16QOrganizerItemIdEEaSERKS2_ 0x0002e978   Section       64  qorganizeritemidfilter.o(t._ZN5QListIN10QtMobility16QOrganizerItemIdEEaSERKS2_)
    t._ZN5QListIN10QtMobility20QOrganizerCollectionEE13detach_helperEi 0x0002e9b8   Section       94  qorganizeritemmemorybackend.o(t._ZN5QListIN10QtMobility20QOrganizerCollectionEE13detach_helperEi)
    t._ZN5QListIN10QtMobility20QOrganizerCollectionEE13detach_helperEi.clean 0x0002ea16   Section        8  qorganizeritemmemorybackend.o(t._ZN5QListIN10QtMobility20QOrganizerCollectionEE13detach_helperEi.clean)
    t._ZN5QListIN10QtMobility20QOrganizerCollectionEE13detach_helperEv 0x0002ea1e   Section       16  qorganizermanagerengine.o(t._ZN5QListIN10QtMobility20QOrganizerCollectionEE13detach_helperEv)
    t._ZN5QListIN10QtMobility20QOrganizerCollectionEE13node_destructEPNS2_4NodeES4_ 0x0002ea2e   Section       26  qorganizeritemmemorybackend.o(t._ZN5QListIN10QtMobility20QOrganizerCollectionEE13node_destructEPNS2_4NodeES4_)
    t._ZN5QListIN10QtMobility20QOrganizerCollectionEE14node_constructEPNS2_4NodeERKS1_ 0x0002ea48   Section       36  qorganizeritemmemorybackend.o(t._ZN5QListIN10QtMobility20QOrganizerCollectionEE14node_constructEPNS2_4NodeERKS1_)
    t._ZN5QListIN10QtMobility20QOrganizerCollectionEE14node_constructEPNS2_4NodeERKS1_.clean 0x0002ea6c   Section       14  qorganizeritemmemorybackend.o(t._ZN5QListIN10QtMobility20QOrganizerCollectionEE14node_constructEPNS2_4NodeERKS1_.clean)
    t._ZN5QListIN10QtMobility20QOrganizerCollectionEE18detach_helper_growEii 0x0002ea7a   Section      208  qorganizeritemmemorybackend.o(t._ZN5QListIN10QtMobility20QOrganizerCollectionEE18detach_helper_growEii)
    t._ZN5QListIN10QtMobility20QOrganizerCollectionEE18detach_helper_growEii.clean 0x0002eb4a   Section       16  qorganizeritemmemorybackend.o(t._ZN5QListIN10QtMobility20QOrganizerCollectionEE18detach_helper_growEii.clean)
    t._ZN5QListIN10QtMobility20QOrganizerCollectionEE4freeEPN9QListData4DataE 0x0002eb5a   Section       52  qorganizeritemmemorybackend.o(t._ZN5QListIN10QtMobility20QOrganizerCollectionEE4freeEPN9QListData4DataE)
    t._ZN5QListIN10QtMobility20QOrganizerCollectionEE5clearEv 0x0002eb8e   Section       28  qorganizercollectionsaverequest.o(t._ZN5QListIN10QtMobility20QOrganizerCollectionEE5clearEv)
    t._ZN5QListIN10QtMobility20QOrganizerCollectionEE5clearEv.clean 0x0002ebaa   Section       10  qorganizercollectionsaverequest.o(t._ZN5QListIN10QtMobility20QOrganizerCollectionEE5clearEv.clean)
    t._ZN5QListIN10QtMobility20QOrganizerCollectionEE6appendERKS1_ 0x0002ebb4   Section      120  qorganizeritemmemorybackend.o(t._ZN5QListIN10QtMobility20QOrganizerCollectionEE6appendERKS1_)
    t._ZN5QListIN10QtMobility20QOrganizerCollectionEE6appendERKS1_.clean 0x0002ec2c   Section       14  qorganizeritemmemorybackend.o(t._ZN5QListIN10QtMobility20QOrganizerCollectionEE6appendERKS1_.clean)
    t._ZN5QListIN10QtMobility20QOrganizerCollectionEE6detachEv 0x0002ec3a   Section       24  qorganizeritemmemorybackend.o(t._ZN5QListIN10QtMobility20QOrganizerCollectionEE6detachEv)
    t._ZN5QListIN10QtMobility20QOrganizerCollectionEE9node_copyEPNS2_4NodeES4_S4_ 0x0002ec52   Section       82  qorganizeritemmemorybackend.o(t._ZN5QListIN10QtMobility20QOrganizerCollectionEE9node_copyEPNS2_4NodeES4_S4_)
    t._ZN5QListIN10QtMobility20QOrganizerCollectionEE9node_copyEPNS2_4NodeES4_S4_.clean 0x0002eca4   Section       22  qorganizeritemmemorybackend.o(t._ZN5QListIN10QtMobility20QOrganizerCollectionEE9node_copyEPNS2_4NodeES4_S4_.clean)
    t._ZN5QListIN10QtMobility20QOrganizerCollectionEEC1Ev 0x0002ecbc   Section       24  qorganizeritemmemorybackend.o(t._ZN5QListIN10QtMobility20QOrganizerCollectionEEC1Ev)
    t._ZN5QListIN10QtMobility20QOrganizerCollectionEED1Ev 0x0002ecd4   Section       32  qorganizermanagerengine.o(t._ZN5QListIN10QtMobility20QOrganizerCollectionEED1Ev)
    t._ZN5QListIN10QtMobility20QOrganizerCollectionEEaSERKS2_ 0x0002ecf4   Section       64  qorganizermanagerengine.o(t._ZN5QListIN10QtMobility20QOrganizerCollectionEEaSERKS2_)
    t._ZN5QListIN10QtMobility20QOrganizerItemDetailEE13detach_helperEi 0x0002ed34   Section       94  qorganizeritem.o(t._ZN5QListIN10QtMobility20QOrganizerItemDetailEE13detach_helperEi)
    t._ZN5QListIN10QtMobility20QOrganizerItemDetailEE13detach_helperEi.clean 0x0002ed92   Section        8  qorganizeritem.o(t._ZN5QListIN10QtMobility20QOrganizerItemDetailEE13detach_helperEi.clean)
    t._ZN5QListIN10QtMobility20QOrganizerItemDetailEE13detach_helperEv 0x0002ed9a   Section       16  qorganizeritem.o(t._ZN5QListIN10QtMobility20QOrganizerItemDetailEE13detach_helperEv)
    t._ZN5QListIN10QtMobility20QOrganizerItemDetailEE13node_destructEPNS2_4NodeES4_ 0x0002edaa   Section       26  qorganizeritem.o(t._ZN5QListIN10QtMobility20QOrganizerItemDetailEE13node_destructEPNS2_4NodeES4_)
    t._ZN5QListIN10QtMobility20QOrganizerItemDetailEE14node_constructEPNS2_4NodeERKS1_ 0x0002edc4   Section       36  qorganizeritem.o(t._ZN5QListIN10QtMobility20QOrganizerItemDetailEE14node_constructEPNS2_4NodeERKS1_)
    t._ZN5QListIN10QtMobility20QOrganizerItemDetailEE14node_constructEPNS2_4NodeERKS1_.clean 0x0002ede8   Section       14  qorganizeritem.o(t._ZN5QListIN10QtMobility20QOrganizerItemDetailEE14node_constructEPNS2_4NodeERKS1_.clean)
    t._ZN5QListIN10QtMobility20QOrganizerItemDetailEE18detach_helper_growEii 0x0002edf6   Section      208  qorganizeritem.o(t._ZN5QListIN10QtMobility20QOrganizerItemDetailEE18detach_helper_growEii)
    t._ZN5QListIN10QtMobility20QOrganizerItemDetailEE18detach_helper_growEii.clean 0x0002eec6   Section       16  qorganizeritem.o(t._ZN5QListIN10QtMobility20QOrganizerItemDetailEE18detach_helper_growEii.clean)
    t._ZN5QListIN10QtMobility20QOrganizerItemDetailEE4freeEPN9QListData4DataE 0x0002eed6   Section       52  qorganizeritemmemorybackend.o(t._ZN5QListIN10QtMobility20QOrganizerItemDetailEE4freeEPN9QListData4DataE)
    t._ZN5QListIN10QtMobility20QOrganizerItemDetailEE5clearEv 0x0002ef0a   Section       28  qorganizeritem.o(t._ZN5QListIN10QtMobility20QOrganizerItemDetailEE5clearEv)
    t._ZN5QListIN10QtMobility20QOrganizerItemDetailEE5clearEv.clean 0x0002ef26   Section       10  qorganizeritem.o(t._ZN5QListIN10QtMobility20QOrganizerItemDetailEE5clearEv.clean)
    t._ZN5QListIN10QtMobility20QOrganizerItemDetailEE6appendERKS1_ 0x0002ef30   Section      120  qorganizeritem.o(t._ZN5QListIN10QtMobility20QOrganizerItemDetailEE6appendERKS1_)
    t._ZN5QListIN10QtMobility20QOrganizerItemDetailEE6appendERKS1_.clean 0x0002efa8   Section       14  qorganizeritem.o(t._ZN5QListIN10QtMobility20QOrganizerItemDetailEE6appendERKS1_.clean)
    t._ZN5QListIN10QtMobility20QOrganizerItemDetailEE6detachEv 0x0002efb6   Section       24  qorganizeritem.o(t._ZN5QListIN10QtMobility20QOrganizerItemDetailEE6detachEv)
    t._ZN5QListIN10QtMobility20QOrganizerItemDetailEE7replaceEiRKS1_ 0x0002efce   Section       38  qorganizeritem.o(t._ZN5QListIN10QtMobility20QOrganizerItemDetailEE7replaceEiRKS1_)
    t._ZN5QListIN10QtMobility20QOrganizerItemDetailEE7reserveEi 0x0002eff4   Section       46  qorganizeritem.o(t._ZN5QListIN10QtMobility20QOrganizerItemDetailEE7reserveEi)
    t._ZN5QListIN10QtMobility20QOrganizerItemDetailEE9node_copyEPNS2_4NodeES4_S4_ 0x0002f022   Section       82  qorganizeritem.o(t._ZN5QListIN10QtMobility20QOrganizerItemDetailEE9node_copyEPNS2_4NodeES4_S4_)
    t._ZN5QListIN10QtMobility20QOrganizerItemDetailEE9node_copyEPNS2_4NodeES4_S4_.clean 0x0002f074   Section       22  qorganizeritem.o(t._ZN5QListIN10QtMobility20QOrganizerItemDetailEE9node_copyEPNS2_4NodeES4_S4_.clean)
    t._ZN5QListIN10QtMobility20QOrganizerItemDetailEEC1ERKS2_ 0x0002f08a   Section       36  qorganizeritem.o(t._ZN5QListIN10QtMobility20QOrganizerItemDetailEEC1ERKS2_)
    t._ZN5QListIN10QtMobility20QOrganizerItemDetailEEC1Ev 0x0002f0b0   Section       24  qorganizeritem.o(t._ZN5QListIN10QtMobility20QOrganizerItemDetailEEC1Ev)
    t._ZN5QListIN10QtMobility20QOrganizerItemDetailEED1Ev 0x0002f0c8   Section       32  qorganizeritem.o(t._ZN5QListIN10QtMobility20QOrganizerItemDetailEED1Ev)
    t._ZN5QListIN10QtMobility20QOrganizerItemDetailEEaSERKS2_ 0x0002f0e8   Section       64  qorganizeritem.o(t._ZN5QListIN10QtMobility20QOrganizerItemDetailEEaSERKS2_)
    t._ZN5QListIN10QtMobility20QOrganizerItemDetailEEixEi 0x0002f128   Section       28  qorganizeritem.o(t._ZN5QListIN10QtMobility20QOrganizerItemDetailEEixEi)
    t._ZN5QListIN10QtMobility20QOrganizerItemFilterEE13detach_helperEi 0x0002f144   Section       94  qorganizeritemintersectionfilter.o(t._ZN5QListIN10QtMobility20QOrganizerItemFilterEE13detach_helperEi)
    t._ZN5QListIN10QtMobility20QOrganizerItemFilterEE13detach_helperEi.clean 0x0002f1a2   Section        8  qorganizeritemintersectionfilter.o(t._ZN5QListIN10QtMobility20QOrganizerItemFilterEE13detach_helperEi.clean)
    t._ZN5QListIN10QtMobility20QOrganizerItemFilterEE13detach_helperEv 0x0002f1aa   Section       16  qorganizermanagerengine.o(t._ZN5QListIN10QtMobility20QOrganizerItemFilterEE13detach_helperEv)
    t._ZN5QListIN10QtMobility20QOrganizerItemFilterEE13node_destructEPNS2_4NodeES4_ 0x0002f1ba   Section       26  qorganizeritemintersectionfilter.o(t._ZN5QListIN10QtMobility20QOrganizerItemFilterEE13node_destructEPNS2_4NodeES4_)
    t._ZN5QListIN10QtMobility20QOrganizerItemFilterEE14node_constructEPNS2_4NodeERKS1_ 0x0002f1d4   Section       36  qorganizeritemintersectionfilter.o(t._ZN5QListIN10QtMobility20QOrganizerItemFilterEE14node_constructEPNS2_4NodeERKS1_)
    t._ZN5QListIN10QtMobility20QOrganizerItemFilterEE14node_constructEPNS2_4NodeERKS1_.clean 0x0002f1f8   Section       14  qorganizeritemintersectionfilter.o(t._ZN5QListIN10QtMobility20QOrganizerItemFilterEE14node_constructEPNS2_4NodeERKS1_.clean)
    t._ZN5QListIN10QtMobility20QOrganizerItemFilterEE18detach_helper_growEii 0x0002f206   Section      208  qorganizeritemintersectionfilter.o(t._ZN5QListIN10QtMobility20QOrganizerItemFilterEE18detach_helper_growEii)
    t._ZN5QListIN10QtMobility20QOrganizerItemFilterEE18detach_helper_growEii.clean 0x0002f2d6   Section       16  qorganizeritemintersectionfilter.o(t._ZN5QListIN10QtMobility20QOrganizerItemFilterEE18detach_helper_growEii.clean)
    t._ZN5QListIN10QtMobility20QOrganizerItemFilterEE3endEv 0x0002f2e6   Section       26  qorganizermanagerengine.o(t._ZN5QListIN10QtMobility20QOrganizerItemFilterEE3endEv)
    t._ZN5QListIN10QtMobility20QOrganizerItemFilterEE4freeEPN9QListData4DataE 0x0002f300   Section       58  qorganizeritemintersectionfilter.o(t._ZN5QListIN10QtMobility20QOrganizerItemFilterEE4freeEPN9QListData4DataE)
    t._ZN5QListIN10QtMobility20QOrganizerItemFilterEE5beginEv 0x0002f33a   Section       26  qorganizermanagerengine.o(t._ZN5QListIN10QtMobility20QOrganizerItemFilterEE5beginEv)
    t._ZN5QListIN10QtMobility20QOrganizerItemFilterEE5clearEv 0x0002f354   Section       28  qorganizeritemintersectionfilter.o(t._ZN5QListIN10QtMobility20QOrganizerItemFilterEE5clearEv)
    t._ZN5QListIN10QtMobility20QOrganizerItemFilterEE5clearEv.clean 0x0002f370   Section       10  qorganizeritemintersectionfilter.o(t._ZN5QListIN10QtMobility20QOrganizerItemFilterEE5clearEv.clean)
    t._ZN5QListIN10QtMobility20QOrganizerItemFilterEE5eraseENS2_8iteratorE 0x0002f37a   Section       36  qorganizermanagerengine.o(t._ZN5QListIN10QtMobility20QOrganizerItemFilterEE5eraseENS2_8iteratorE)
    t._ZN5QListIN10QtMobility20QOrganizerItemFilterEE5firstEv 0x0002f39e   Section       22  qorganizermanagerengine.o(t._ZN5QListIN10QtMobility20QOrganizerItemFilterEE5firstEv)
    t._ZN5QListIN10QtMobility20QOrganizerItemFilterEE6appendERKS1_ 0x0002f3b4   Section      120  qorganizeritemintersectionfilter.o(t._ZN5QListIN10QtMobility20QOrganizerItemFilterEE6appendERKS1_)
    t._ZN5QListIN10QtMobility20QOrganizerItemFilterEE6appendERKS1_.clean 0x0002f42c   Section       14  qorganizeritemintersectionfilter.o(t._ZN5QListIN10QtMobility20QOrganizerItemFilterEE6appendERKS1_.clean)
    t._ZN5QListIN10QtMobility20QOrganizerItemFilterEE6detachEv 0x0002f43a   Section       24  qorganizermanagerengine.o(t._ZN5QListIN10QtMobility20QOrganizerItemFilterEE6detachEv)
    t._ZN5QListIN10QtMobility20QOrganizerItemFilterEE7reserveEi 0x0002f452   Section       46  qorganizeritemintersectionfilter.o(t._ZN5QListIN10QtMobility20QOrganizerItemFilterEE7reserveEi)
    t._ZN5QListIN10QtMobility20QOrganizerItemFilterEE9node_copyEPNS2_4NodeES4_S4_ 0x0002f480   Section       82  qorganizeritemintersectionfilter.o(t._ZN5QListIN10QtMobility20QOrganizerItemFilterEE9node_copyEPNS2_4NodeES4_S4_)
    t._ZN5QListIN10QtMobility20QOrganizerItemFilterEE9node_copyEPNS2_4NodeES4_S4_.clean 0x0002f4d2   Section       22  qorganizeritemintersectionfilter.o(t._ZN5QListIN10QtMobility20QOrganizerItemFilterEE9node_copyEPNS2_4NodeES4_S4_.clean)
    t._ZN5QListIN10QtMobility20QOrganizerItemFilterEE9removeAllERKS1_ 0x0002f4e8   Section      132  qorganizeritemintersectionfilter.o(t._ZN5QListIN10QtMobility20QOrganizerItemFilterEE9removeAllERKS1_)
    t._ZN5QListIN10QtMobility20QOrganizerItemFilterEE9removeAllERKS1_.clean 0x0002f56c   Section       10  qorganizeritemintersectionfilter.o(t._ZN5QListIN10QtMobility20QOrganizerItemFilterEE9removeAllERKS1_.clean)
    t._ZN5QListIN10QtMobility20QOrganizerItemFilterEEC1ERKS2_ 0x0002f576   Section       36  qorganizeritemintersectionfilter.o(t._ZN5QListIN10QtMobility20QOrganizerItemFilterEEC1ERKS2_)
    t._ZN5QListIN10QtMobility20QOrganizerItemFilterEEC1Ev 0x0002f59c   Section       24  qorganizeritemintersectionfilter.o(t._ZN5QListIN10QtMobility20QOrganizerItemFilterEEC1Ev)
    t._ZN5QListIN10QtMobility20QOrganizerItemFilterEED1Ev 0x0002f5b4   Section       32  qorganizermanagerengine.o(t._ZN5QListIN10QtMobility20QOrganizerItemFilterEED1Ev)
    t._ZN5QListIN10QtMobility20QOrganizerItemFilterEEaSERKS2_ 0x0002f5d4   Section       64  qorganizeritemintersectionfilter.o(t._ZN5QListIN10QtMobility20QOrganizerItemFilterEEaSERKS2_)
    t._ZN5QListIN10QtMobility21QOrganizerItemCommentEE13detach_helperEi 0x0002f614   Section       94  qorganizeritem.o(t._ZN5QListIN10QtMobility21QOrganizerItemCommentEE13detach_helperEi)
    t._ZN5QListIN10QtMobility21QOrganizerItemCommentEE13detach_helperEi.clean 0x0002f672   Section        8  qorganizeritem.o(t._ZN5QListIN10QtMobility21QOrganizerItemCommentEE13detach_helperEi.clean)
    t._ZN5QListIN10QtMobility21QOrganizerItemCommentEE13detach_helperEv 0x0002f67a   Section       16  qorganizeritem.o(t._ZN5QListIN10QtMobility21QOrganizerItemCommentEE13detach_helperEv)
    t._ZN5QListIN10QtMobility21QOrganizerItemCommentEE13node_destructEPNS2_4NodeES4_ 0x0002f68a   Section       38  qorganizeritem.o(t._ZN5QListIN10QtMobility21QOrganizerItemCommentEE13node_destructEPNS2_4NodeES4_)
    t._ZN5QListIN10QtMobility21QOrganizerItemCommentEE14node_constructEPNS2_4NodeERKS1_ 0x0002f6b0   Section       34  qorganizeritem.o(t._ZN5QListIN10QtMobility21QOrganizerItemCommentEE14node_constructEPNS2_4NodeERKS1_)
    t._ZN5QListIN10QtMobility21QOrganizerItemCommentEE14node_constructEPNS2_4NodeERKS1_.clean 0x0002f6d2   Section       14  qorganizeritem.o(t._ZN5QListIN10QtMobility21QOrganizerItemCommentEE14node_constructEPNS2_4NodeERKS1_.clean)
    t._ZN5QListIN10QtMobility21QOrganizerItemCommentEE18detach_helper_growEii 0x0002f6e0   Section      208  qorganizeritem.o(t._ZN5QListIN10QtMobility21QOrganizerItemCommentEE18detach_helper_growEii)
    t._ZN5QListIN10QtMobility21QOrganizerItemCommentEE18detach_helper_growEii.clean 0x0002f7b0   Section       16  qorganizeritem.o(t._ZN5QListIN10QtMobility21QOrganizerItemCommentEE18detach_helper_growEii.clean)
    t._ZN5QListIN10QtMobility21QOrganizerItemCommentEE4freeEPN9QListData4DataE 0x0002f7c0   Section       58  qorganizeritem.o(t._ZN5QListIN10QtMobility21QOrganizerItemCommentEE4freeEPN9QListData4DataE)
    t._ZN5QListIN10QtMobility21QOrganizerItemCommentEE6appendERKS1_ 0x0002f7fc   Section      112  qorganizeritem.o(t._ZN5QListIN10QtMobility21QOrganizerItemCommentEE6appendERKS1_)
    t._ZN5QListIN10QtMobility21QOrganizerItemCommentEE6appendERKS1_.clean 0x0002f86c   Section       14  qorganizeritem.o(t._ZN5QListIN10QtMobility21QOrganizerItemCommentEE6appendERKS1_.clean)
    t._ZN5QListIN10QtMobility21QOrganizerItemCommentEE9node_copyEPNS2_4NodeES4_S4_ 0x0002f87a   Section       92  qorganizeritem.o(t._ZN5QListIN10QtMobility21QOrganizerItemCommentEE9node_copyEPNS2_4NodeES4_S4_)
    t._ZN5QListIN10QtMobility21QOrganizerItemCommentEE9node_copyEPNS2_4NodeES4_S4_.clean 0x0002f8d6   Section       22  qorganizeritem.o(t._ZN5QListIN10QtMobility21QOrganizerItemCommentEE9node_copyEPNS2_4NodeES4_S4_.clean)
    t._ZN5QListIN10QtMobility21QOrganizerItemCommentEED1Ev 0x0002f8ec   Section       32  qorganizeritem.o(t._ZN5QListIN10QtMobility21QOrganizerItemCommentEED1Ev)
    t._ZN5QListIN10QtMobility22QOrganizerCollectionIdEE13detach_helperEi 0x0002f90c   Section       94  qorganizercollectionchangeset.o(t._ZN5QListIN10QtMobility22QOrganizerCollectionIdEE13detach_helperEi)
    t._ZN5QListIN10QtMobility22QOrganizerCollectionIdEE13detach_helperEi.clean 0x0002f96a   Section        8  qorganizercollectionchangeset.o(t._ZN5QListIN10QtMobility22QOrganizerCollectionIdEE13detach_helperEi.clean)
    t._ZN5QListIN10QtMobility22QOrganizerCollectionIdEE13detach_helperEv 0x0002f972   Section       16  qorganizercollectionchangeset.o(t._ZN5QListIN10QtMobility22QOrganizerCollectionIdEE13detach_helperEv)
    t._ZN5QListIN10QtMobility22QOrganizerCollectionIdEE13node_destructEPNS2_4NodeES4_ 0x0002f982   Section       26  qorganizercollectionchangeset.o(t._ZN5QListIN10QtMobility22QOrganizerCollectionIdEE13node_destructEPNS2_4NodeES4_)
    t._ZN5QListIN10QtMobility22QOrganizerCollectionIdEE14node_constructEPNS2_4NodeERKS1_ 0x0002f99c   Section       36  qorganizercollectionchangeset.o(t._ZN5QListIN10QtMobility22QOrganizerCollectionIdEE14node_constructEPNS2_4NodeERKS1_)
    t._ZN5QListIN10QtMobility22QOrganizerCollectionIdEE14node_constructEPNS2_4NodeERKS1_.clean 0x0002f9c0   Section       14  qorganizercollectionchangeset.o(t._ZN5QListIN10QtMobility22QOrganizerCollectionIdEE14node_constructEPNS2_4NodeERKS1_.clean)
    t._ZN5QListIN10QtMobility22QOrganizerCollectionIdEE18detach_helper_growEii 0x0002f9ce   Section      208  qorganizercollectionchangeset.o(t._ZN5QListIN10QtMobility22QOrganizerCollectionIdEE18detach_helper_growEii)
    t._ZN5QListIN10QtMobility22QOrganizerCollectionIdEE18detach_helper_growEii.clean 0x0002fa9e   Section       16  qorganizercollectionchangeset.o(t._ZN5QListIN10QtMobility22QOrganizerCollectionIdEE18detach_helper_growEii.clean)
    t._ZN5QListIN10QtMobility22QOrganizerCollectionIdEE4freeEPN9QListData4DataE 0x0002faae   Section       52  qorganizeritemmemorybackend.o(t._ZN5QListIN10QtMobility22QOrganizerCollectionIdEE4freeEPN9QListData4DataE)
    t._ZN5QListIN10QtMobility22QOrganizerCollectionIdEE5clearEv 0x0002fae2   Section       28  qorganizercollectionremoverequest.o(t._ZN5QListIN10QtMobility22QOrganizerCollectionIdEE5clearEv)
    t._ZN5QListIN10QtMobility22QOrganizerCollectionIdEE5clearEv.clean 0x0002fafe   Section       10  qorganizercollectionremoverequest.o(t._ZN5QListIN10QtMobility22QOrganizerCollectionIdEE5clearEv.clean)
    t._ZN5QListIN10QtMobility22QOrganizerCollectionIdEE6appendERKS1_ 0x0002fb08   Section      120  qorganizercollectionchangeset.o(t._ZN5QListIN10QtMobility22QOrganizerCollectionIdEE6appendERKS1_)
    t._ZN5QListIN10QtMobility22QOrganizerCollectionIdEE6appendERKS1_.clean 0x0002fb80   Section       14  qorganizercollectionchangeset.o(t._ZN5QListIN10QtMobility22QOrganizerCollectionIdEE6appendERKS1_.clean)
    t._ZN5QListIN10QtMobility22QOrganizerCollectionIdEE7reserveEi 0x0002fb8e   Section       46  qorganizercollectionchangeset.o(t._ZN5QListIN10QtMobility22QOrganizerCollectionIdEE7reserveEi)
    t._ZN5QListIN10QtMobility22QOrganizerCollectionIdEE9node_copyEPNS2_4NodeES4_S4_ 0x0002fbbc   Section       82  qorganizercollectionchangeset.o(t._ZN5QListIN10QtMobility22QOrganizerCollectionIdEE9node_copyEPNS2_4NodeES4_S4_)
    t._ZN5QListIN10QtMobility22QOrganizerCollectionIdEE9node_copyEPNS2_4NodeES4_S4_.clean 0x0002fc0e   Section       22  qorganizercollectionchangeset.o(t._ZN5QListIN10QtMobility22QOrganizerCollectionIdEE9node_copyEPNS2_4NodeES4_S4_.clean)
    t._ZN5QListIN10QtMobility22QOrganizerCollectionIdEEC1Ev 0x0002fc24   Section       24  qorganizercollectionremoverequest.o(t._ZN5QListIN10QtMobility22QOrganizerCollectionIdEEC1Ev)
    t._ZN5QListIN10QtMobility22QOrganizerCollectionIdEED1Ev 0x0002fc3c   Section       32  qorganizercollectionchangeset.o(t._ZN5QListIN10QtMobility22QOrganizerCollectionIdEED1Ev)
    t._ZN5QListIN10QtMobility22QOrganizerCollectionIdEEaSERKS2_ 0x0002fc5c   Section       64  qorganizercollectionremoverequest.o(t._ZN5QListIN10QtMobility22QOrganizerCollectionIdEEaSERKS2_)
    t._ZN5QListIN10QtMobility23QOrganizerItemSortOrderEE13detach_helperEi 0x0002fc9c   Section      176  qorganizermanagerengine.o(t._ZN5QListIN10QtMobility23QOrganizerItemSortOrderEE13detach_helperEi)
    t._ZN5QListIN10QtMobility23QOrganizerItemSortOrderEE13detach_helperEi.clean 0x0002fd4c   Section       30  qorganizermanagerengine.o(t._ZN5QListIN10QtMobility23QOrganizerItemSortOrderEE13detach_helperEi.clean)
    t._ZN5QListIN10QtMobility23QOrganizerItemSortOrderEE13detach_helperEv 0x0002fd6a   Section       16  qorganizermanagerengine.o(t._ZN5QListIN10QtMobility23QOrganizerItemSortOrderEE13detach_helperEv)
    t._ZN5QListIN10QtMobility23QOrganizerItemSortOrderEE4freeEPN9QListData4DataE 0x0002fd7a   Section       64  qorganizermanagerengine.o(t._ZN5QListIN10QtMobility23QOrganizerItemSortOrderEE4freeEPN9QListData4DataE)
    t._ZN5QListIN10QtMobility23QOrganizerItemSortOrderEE5beginEv 0x0002fdba   Section       40  qorganizermanagerengine.o(t._ZN5QListIN10QtMobility23QOrganizerItemSortOrderEE5beginEv)
    t._ZN5QListIN10QtMobility23QOrganizerItemSortOrderEED1Ev 0x0002fde2   Section       32  qorganizermanagerengine.o(t._ZN5QListIN10QtMobility23QOrganizerItemSortOrderEED1Ev)
    t._ZN5QListIN10QtMobility30QOrganizerItemDetailDefinitionEE13detach_helperEi 0x0002fe02   Section       94  qorganizeritemdetaildefinitionsaverequest.o(t._ZN5QListIN10QtMobility30QOrganizerItemDetailDefinitionEE13detach_helperEi)
    t._ZN5QListIN10QtMobility30QOrganizerItemDetailDefinitionEE13detach_helperEi.clean 0x0002fe60   Section        8  qorganizeritemdetaildefinitionsaverequest.o(t._ZN5QListIN10QtMobility30QOrganizerItemDetailDefinitionEE13detach_helperEi.clean)
    t._ZN5QListIN10QtMobility30QOrganizerItemDetailDefinitionEE13detach_helperEv 0x0002fe68   Section       16  qorganizermanagerengine.o(t._ZN5QListIN10QtMobility30QOrganizerItemDetailDefinitionEE13detach_helperEv)
    t._ZN5QListIN10QtMobility30QOrganizerItemDetailDefinitionEE13node_destructEPNS2_4NodeES4_ 0x0002fe78   Section       26  qorganizeritemmemorybackend.o(t._ZN5QListIN10QtMobility30QOrganizerItemDetailDefinitionEE13node_destructEPNS2_4NodeES4_)
    t._ZN5QListIN10QtMobility30QOrganizerItemDetailDefinitionEE14node_constructEPNS2_4NodeERKS1_ 0x0002fe92   Section       36  qorganizeritemmemorybackend.o(t._ZN5QListIN10QtMobility30QOrganizerItemDetailDefinitionEE14node_constructEPNS2_4NodeERKS1_)
    t._ZN5QListIN10QtMobility30QOrganizerItemDetailDefinitionEE14node_constructEPNS2_4NodeERKS1_.clean 0x0002feb6   Section       14  qorganizeritemmemorybackend.o(t._ZN5QListIN10QtMobility30QOrganizerItemDetailDefinitionEE14node_constructEPNS2_4NodeERKS1_.clean)
    t._ZN5QListIN10QtMobility30QOrganizerItemDetailDefinitionEE18detach_helper_growEii 0x0002fec4   Section      208  qorganizeritemmemorybackend.o(t._ZN5QListIN10QtMobility30QOrganizerItemDetailDefinitionEE18detach_helper_growEii)
    t._ZN5QListIN10QtMobility30QOrganizerItemDetailDefinitionEE18detach_helper_growEii.clean 0x0002ff94   Section       16  qorganizeritemmemorybackend.o(t._ZN5QListIN10QtMobility30QOrganizerItemDetailDefinitionEE18detach_helper_growEii.clean)
    t._ZN5QListIN10QtMobility30QOrganizerItemDetailDefinitionEE4freeEPN9QListData4DataE 0x0002ffa4   Section       52  qorganizeritemmemorybackend.o(t._ZN5QListIN10QtMobility30QOrganizerItemDetailDefinitionEE4freeEPN9QListData4DataE)
    t._ZN5QListIN10QtMobility30QOrganizerItemDetailDefinitionEE5clearEv 0x0002ffd8   Section       28  qorganizeritemdetaildefinitionsaverequest.o(t._ZN5QListIN10QtMobility30QOrganizerItemDetailDefinitionEE5clearEv)
    t._ZN5QListIN10QtMobility30QOrganizerItemDetailDefinitionEE5clearEv.clean 0x0002fff4   Section       10  qorganizeritemdetaildefinitionsaverequest.o(t._ZN5QListIN10QtMobility30QOrganizerItemDetailDefinitionEE5clearEv.clean)
    t._ZN5QListIN10QtMobility30QOrganizerItemDetailDefinitionEE6appendERKS1_ 0x00030000   Section      120  qorganizeritemmemorybackend.o(t._ZN5QListIN10QtMobility30QOrganizerItemDetailDefinitionEE6appendERKS1_)
    t._ZN5QListIN10QtMobility30QOrganizerItemDetailDefinitionEE6appendERKS1_.clean 0x00030078   Section       14  qorganizeritemmemorybackend.o(t._ZN5QListIN10QtMobility30QOrganizerItemDetailDefinitionEE6appendERKS1_.clean)
    t._ZN5QListIN10QtMobility30QOrganizerItemDetailDefinitionEE9node_copyEPNS2_4NodeES4_S4_ 0x00030086   Section       82  qorganizeritemmemorybackend.o(t._ZN5QListIN10QtMobility30QOrganizerItemDetailDefinitionEE9node_copyEPNS2_4NodeES4_S4_)
    t._ZN5QListIN10QtMobility30QOrganizerItemDetailDefinitionEE9node_copyEPNS2_4NodeES4_S4_.clean 0x000300d8   Section       22  qorganizeritemmemorybackend.o(t._ZN5QListIN10QtMobility30QOrganizerItemDetailDefinitionEE9node_copyEPNS2_4NodeES4_S4_.clean)
    t._ZN5QListIN10QtMobility30QOrganizerItemDetailDefinitionEEC1Ev 0x000300f0   Section       24  qorganizeritemdetaildefinitionsaverequest.o(t._ZN5QListIN10QtMobility30QOrganizerItemDetailDefinitionEEC1Ev)
    t._ZN5QListIN10QtMobility30QOrganizerItemDetailDefinitionEED1Ev 0x00030108   Section       32  qorganizermanagerengine.o(t._ZN5QListIN10QtMobility30QOrganizerItemDetailDefinitionEED1Ev)
    t._ZN5QListIN10QtMobility30QOrganizerItemDetailDefinitionEEaSERKS2_ 0x00030128   Section       64  qorganizeritemdetaildefinitionsaverequest.o(t._ZN5QListIN10QtMobility30QOrganizerItemDetailDefinitionEEaSERKS2_)
    t._ZN5QListIP7QObjectE4freeEPN9QListData4DataE 0x00030168   Section       52  qorganizermanager_p.o(t._ZN5QListIP7QObjectE4freeEPN9QListData4DataE)
    t._ZN5QListIP7QObjectED1Ev               0x0003019c   Section       32  qorganizermanager_p.o(t._ZN5QListIP7QObjectED1Ev)
    t._ZN5QListIPN10QtMobility23QOrganizerManagerEngineEE13detach_helperEi 0x000301bc   Section       94  qorganizeritemmemorybackend.o(t._ZN5QListIPN10QtMobility23QOrganizerManagerEngineEE13detach_helperEi)
    t._ZN5QListIPN10QtMobility23QOrganizerManagerEngineEE13detach_helperEi.clean 0x0003021a   Section        8  qorganizeritemmemorybackend.o(t._ZN5QListIPN10QtMobility23QOrganizerManagerEngineEE13detach_helperEi.clean)
    t._ZN5QListIPN10QtMobility23QOrganizerManagerEngineEE13detach_helperEv 0x00030222   Section       16  qorganizeritemmemorybackend.o(t._ZN5QListIPN10QtMobility23QOrganizerManagerEngineEE13detach_helperEv)
    t._ZN5QListIPN10QtMobility23QOrganizerManagerEngineEE18detach_helper_growEii 0x00030232   Section      204  qorganizeritemmemorybackend.o(t._ZN5QListIPN10QtMobility23QOrganizerManagerEngineEE18detach_helper_growEii)
    t._ZN5QListIPN10QtMobility23QOrganizerManagerEngineEE18detach_helper_growEii.clean 0x000302fe   Section       16  qorganizeritemmemorybackend.o(t._ZN5QListIPN10QtMobility23QOrganizerManagerEngineEE18detach_helper_growEii.clean)
    t._ZN5QListIPN10QtMobility23QOrganizerManagerEngineEE4freeEPN9QListData4DataE 0x0003030e   Section       52  qorganizeritemmemorybackend.o(t._ZN5QListIPN10QtMobility23QOrganizerManagerEngineEE4freeEPN9QListData4DataE)
    t._ZN5QListIPN10QtMobility23QOrganizerManagerEngineEE6appendERKS2_ 0x00030344   Section      100  qorganizeritemmemorybackend.o(t._ZN5QListIPN10QtMobility23QOrganizerManagerEngineEE6appendERKS2_)
    t._ZN5QListIPN10QtMobility23QOrganizerManagerEngineEE6appendERKS2_.clean 0x000303a8   Section       10  qorganizeritemmemorybackend.o(t._ZN5QListIPN10QtMobility23QOrganizerManagerEngineEE6appendERKS2_.clean)
    t._ZN5QListIPN10QtMobility23QOrganizerManagerEngineEE9node_copyEPNS3_4NodeES5_S5_ 0x000303b2   Section       46  qorganizeritemmemorybackend.o(t._ZN5QListIPN10QtMobility23QOrganizerManagerEngineEE9node_copyEPNS3_4NodeES5_S5_)
    t._ZN5QListIPN10QtMobility23QOrganizerManagerEngineEE9removeAllERKS2_ 0x000303e0   Section      108  qorganizeritemmemorybackend.o(t._ZN5QListIPN10QtMobility23QOrganizerManagerEngineEE9removeAllERKS2_)
    t._ZN5QListIPN10QtMobility23QOrganizerManagerEngineEED1Ev 0x0003044c   Section       32  qorganizeritemmemorybackend.o(t._ZN5QListIPN10QtMobility23QOrganizerManagerEngineEED1Ev)
    t._ZN5QListIPN10QtMobility30QOrganizerManagerEngineFactoryEE13detach_helperEi 0x0003046c   Section       94  qorganizermanager_p.o(t._ZN5QListIPN10QtMobility30QOrganizerManagerEngineFactoryEE13detach_helperEi)
    t._ZN5QListIPN10QtMobility30QOrganizerManagerEngineFactoryEE13detach_helperEi.clean 0x000304ca   Section        8  qorganizermanager_p.o(t._ZN5QListIPN10QtMobility30QOrganizerManagerEngineFactoryEE13detach_helperEi.clean)
    t._ZN5QListIPN10QtMobility30QOrganizerManagerEngineFactoryEE13detach_helperEv 0x000304d2   Section       16  qorganizermanager_p.o(t._ZN5QListIPN10QtMobility30QOrganizerManagerEngineFactoryEE13detach_helperEv)
    t._ZN5QListIPN10QtMobility30QOrganizerManagerEngineFactoryEE18detach_helper_growEii 0x000304e2   Section      204  qorganizermanager_p.o(t._ZN5QListIPN10QtMobility30QOrganizerManagerEngineFactoryEE18detach_helper_growEii)
    t._ZN5QListIPN10QtMobility30QOrganizerManagerEngineFactoryEE18detach_helper_growEii.clean 0x000305ae   Section       16  qorganizermanager_p.o(t._ZN5QListIPN10QtMobility30QOrganizerManagerEngineFactoryEE18detach_helper_growEii.clean)
    t._ZN5QListIPN10QtMobility30QOrganizerManagerEngineFactoryEE4freeEPN9QListData4DataE 0x000305be   Section       52  qorganizermanager_p.o(t._ZN5QListIPN10QtMobility30QOrganizerManagerEngineFactoryEE4freeEPN9QListData4DataE)
    t._ZN5QListIPN10QtMobility30QOrganizerManagerEngineFactoryEE6appendERKS2_ 0x000305f4   Section      100  qorganizermanager_p.o(t._ZN5QListIPN10QtMobility30QOrganizerManagerEngineFactoryEE6appendERKS2_)
    t._ZN5QListIPN10QtMobility30QOrganizerManagerEngineFactoryEE6appendERKS2_.clean 0x00030658   Section       10  qorganizermanager_p.o(t._ZN5QListIPN10QtMobility30QOrganizerManagerEngineFactoryEE6appendERKS2_.clean)
    t._ZN5QListIPN10QtMobility30QOrganizerManagerEngineFactoryEE7reserveEi 0x00030662   Section       46  qorganizermanager_p.o(t._ZN5QListIPN10QtMobility30QOrganizerManagerEngineFactoryEE7reserveEi)
    t._ZN5QListIPN10QtMobility30QOrganizerManagerEngineFactoryEE9node_copyEPNS3_4NodeES5_S5_ 0x00030690   Section       46  qorganizermanager_p.o(t._ZN5QListIPN10QtMobility30QOrganizerManagerEngineFactoryEE9node_copyEPNS3_4NodeES5_S5_)
    t._ZN5QListIPN10QtMobility30QOrganizerManagerEngineFactoryEEC1Ev 0x000306c0   Section       24  qorganizermanager_p.o(t._ZN5QListIPN10QtMobility30QOrganizerManagerEngineFactoryEEC1Ev)
    t._ZN5QListIPN10QtMobility30QOrganizerManagerEngineFactoryEED1Ev 0x000306d8   Section       32  qorganizermanager_p.o(t._ZN5QListIPN10QtMobility30QOrganizerManagerEngineFactoryEED1Ev)
    t._ZN5QListIiE13detach_helperEi          0x000306f8   Section      128  qorganizermanager_p.o(t._ZN5QListIiE13detach_helperEi)
    t._ZN5QListIiE13detach_helperEi.clean    0x00030778   Section        8  qorganizermanager_p.o(t._ZN5QListIiE13detach_helperEi.clean)
    t._ZN5QListIiE13detach_helperEv          0x00030780   Section       16  qorganizermanager_p.o(t._ZN5QListIiE13detach_helperEv)
    t._ZN5QListIiE4freeEPN9QListData4DataE   0x00030790   Section       52  qorganizermanager_p.o(t._ZN5QListIiE4freeEPN9QListData4DataE)
    t._ZN5QListIiED1Ev                       0x000307c4   Section       32  qorganizermanager_p.o(t._ZN5QListIiED1Ev)
    t._ZN8QPointerIN10QtMobility17QOrganizerManagerEED1Ev 0x000307e4   Section       14  qorganizerabstractrequest.o(t._ZN8QPointerIN10QtMobility17QOrganizerManagerEED1Ev)
    t._ZN8QPointerIN10QtMobility23QOrganizerManagerEngineEED1Ev 0x000307f2   Section       14  qorganizerabstractrequest.o(t._ZN8QPointerIN10QtMobility23QOrganizerManagerEngineEED1Ev)
    t._ZN8QVariant9fromValueI4QSetI5QDateEEES_RKT_ 0x00030800   Section       34  qorganizeritemdetails.o(t._ZN8QVariant9fromValueI4QSetI5QDateEEES_RKT_)
    t._ZN8QVariant9fromValueI4QSetIN10QtMobility24QOrganizerRecurrenceRuleEEEES_RKT_ 0x00030822   Section       34  qorganizeritemdetails.o(t._ZN8QVariant9fromValueI4QSetIN10QtMobility24QOrganizerRecurrenceRuleEEEES_RKT_)
    t._ZN9QHashNodeI7QStringPN10QtMobility30QOrganizerManagerEngineFactoryEEC1ERKS0_RKS3_ 0x00030844   Section       30  qorganizermanager_p.o(t._ZN9QHashNodeI7QStringPN10QtMobility30QOrganizerManagerEngineFactoryEEC1ERKS0_RKS3_)
    t._ZN9QHashNodeI7QStringPcEC1ERKS0_RKS1_ 0x00030862   Section       30  qorganizeritemdetail.o(t._ZN9QHashNodeI7QStringPcEC1ERKS0_RKS1_)
    t._ZN9QHashNodeIN10QtMobility16QOrganizerItemIdENS0_14QOrganizerItemEEC1ERKS1_RKS2_ 0x00030880   Section       40  qorganizeritemmemorybackend.o(t._ZN9QHashNodeIN10QtMobility16QOrganizerItemIdENS0_14QOrganizerItemEEC1ERKS1_RKS2_)
    t._ZN9QHashNodeIN10QtMobility16QOrganizerItemIdENS0_14QOrganizerItemEEC1ERKS1_RKS2_.clean 0x000308a8   Section       12  qorganizeritemmemorybackend.o(t._ZN9QHashNodeIN10QtMobility16QOrganizerItemIdENS0_14QOrganizerItemEEC1ERKS1_RKS2_.clean)
    t._ZN9QHashNodeIN10QtMobility16QOrganizerItemIdES1_EC1ERKS1_S4_ 0x000308b4   Section       40  qorganizeritemmemorybackend.o(t._ZN9QHashNodeIN10QtMobility16QOrganizerItemIdES1_EC1ERKS1_S4_)
    t._ZN9QHashNodeIN10QtMobility16QOrganizerItemIdES1_EC1ERKS1_S4_.clean 0x000308dc   Section       12  qorganizeritemmemorybackend.o(t._ZN9QHashNodeIN10QtMobility16QOrganizerItemIdES1_EC1ERKS1_S4_.clean)
    t._ZN9QHashNodeIN10QtMobility26QOrganizerItemStringHolderE8QVariantEC1ERKS1_RKS2_ 0x000308e8   Section       38  qorganizeritemdetail.o(t._ZN9QHashNodeIN10QtMobility26QOrganizerItemStringHolderE8QVariantEC1ERKS1_RKS2_)
    t._ZN9QHashNodeIN10QtMobility26QOrganizerItemStringHolderE8QVariantEC1ERKS1_RKS2_.clean 0x0003090e   Section       12  qorganizeritemdetail.o(t._ZN9QHashNodeIN10QtMobility26QOrganizerItemStringHolderE8QVariantEC1ERKS1_RKS2_.clean)
    t._ZN9QHashNodeIPKc7QStringEC1ERKS1_RKS2_ 0x0003091a   Section       30  qorganizeritemdetail.o(t._ZN9QHashNodeIPKc7QStringEC1ERKS1_RKS2_)
    t._ZN9QMultiMapIN10QtMobility22QOrganizerCollectionIdENS0_16QOrganizerItemIdEE6removeERKS1_RKS2_ 0x00030938   Section      164  qorganizeritemmemorybackend.o(t._ZN9QMultiMapIN10QtMobility22QOrganizerCollectionIdENS0_16QOrganizerItemIdEE6removeERKS1_RKS2_)
    t._ZNK10QtMobility14QOrganizerItem6detailINS_18QOrganizerItemGuidEEET_v 0x000309dc   Section       56  qorganizeritem.o(t._ZNK10QtMobility14QOrganizerItem6detailINS_18QOrganizerItemGuidEEET_v)
    t._ZNK10QtMobility14QOrganizerItem6detailINS_18QOrganizerItemGuidEEET_v.clean 0x00030a14   Section       10  qorganizeritem.o(t._ZNK10QtMobility14QOrganizerItem6detailINS_18QOrganizerItemGuidEEET_v.clean)
    t._ZNK10QtMobility14QOrganizerItem6detailINS_18QOrganizerItemTypeEEET_v 0x00030a20   Section       56  qorganizeritem.o(t._ZNK10QtMobility14QOrganizerItem6detailINS_18QOrganizerItemTypeEEET_v)
    t._ZNK10QtMobility14QOrganizerItem6detailINS_18QOrganizerItemTypeEEET_v.clean 0x00030a58   Section       10  qorganizeritem.o(t._ZNK10QtMobility14QOrganizerItem6detailINS_18QOrganizerItemTypeEEET_v.clean)
    t._ZNK10QtMobility14QOrganizerItem6detailINS_18QOrganizerTodoTimeEEET_v 0x00030a64   Section       56  qorganizertodo.o(t._ZNK10QtMobility14QOrganizerItem6detailINS_18QOrganizerTodoTimeEEET_v)
    t._ZNK10QtMobility14QOrganizerItem6detailINS_18QOrganizerTodoTimeEEET_v.clean 0x00030a9c   Section       10  qorganizertodo.o(t._ZNK10QtMobility14QOrganizerItem6detailINS_18QOrganizerTodoTimeEEET_v.clean)
    t._ZNK10QtMobility14QOrganizerItem6detailINS_19QOrganizerEventTimeEEET_v 0x00030aa8   Section       56  qorganizerevent.o(t._ZNK10QtMobility14QOrganizerItem6detailINS_19QOrganizerEventTimeEEET_v)
    t._ZNK10QtMobility14QOrganizerItem6detailINS_19QOrganizerEventTimeEEET_v.clean 0x00030ae0   Section       10  qorganizerevent.o(t._ZNK10QtMobility14QOrganizerItem6detailINS_19QOrganizerEventTimeEEET_v.clean)
    t._ZNK10QtMobility14QOrganizerItem6detailINS_20QOrganizerItemParentEEET_v 0x00030aec   Section       56  qorganizeritemmemorybackend.o(t._ZNK10QtMobility14QOrganizerItem6detailINS_20QOrganizerItemParentEEET_v)
    t._ZNK10QtMobility14QOrganizerItem6detailINS_20QOrganizerItemParentEEET_v.clean 0x00030b24   Section       10  qorganizeritemmemorybackend.o(t._ZNK10QtMobility14QOrganizerItem6detailINS_20QOrganizerItemParentEEET_v.clean)
    t._ZNK10QtMobility14QOrganizerItem6detailINS_21QOrganizerJournalTimeEEET_v 0x00030b30   Section       56  qorganizerjournal.o(t._ZNK10QtMobility14QOrganizerItem6detailINS_21QOrganizerJournalTimeEEET_v)
    t._ZNK10QtMobility14QOrganizerItem6detailINS_21QOrganizerJournalTimeEEET_v.clean 0x00030b68   Section       10  qorganizerjournal.o(t._ZNK10QtMobility14QOrganizerItem6detailINS_21QOrganizerJournalTimeEEET_v.clean)
    t._ZNK10QtMobility14QOrganizerItem6detailINS_22QOrganizerItemLocationEEET_v 0x00030b74   Section       56  qorganizerevent.o(t._ZNK10QtMobility14QOrganizerItem6detailINS_22QOrganizerItemLocationEEET_v)
    t._ZNK10QtMobility14QOrganizerItem6detailINS_22QOrganizerItemLocationEEET_v.clean 0x00030bac   Section       10  qorganizerevent.o(t._ZNK10QtMobility14QOrganizerItem6detailINS_22QOrganizerItemLocationEEET_v.clean)
    t._ZNK10QtMobility14QOrganizerItem6detailINS_22QOrganizerItemPriorityEEET_v 0x00030bb8   Section       56  qorganizerevent.o(t._ZNK10QtMobility14QOrganizerItem6detailINS_22QOrganizerItemPriorityEEET_v)
    t._ZNK10QtMobility14QOrganizerItem6detailINS_22QOrganizerItemPriorityEEET_v.clean 0x00030bf0   Section       10  qorganizerevent.o(t._ZNK10QtMobility14QOrganizerItem6detailINS_22QOrganizerItemPriorityEEET_v.clean)
    t._ZNK10QtMobility14QOrganizerItem6detailINS_22QOrganizerTodoProgressEEET_v 0x00030bfc   Section       56  qorganizertodo.o(t._ZNK10QtMobility14QOrganizerItem6detailINS_22QOrganizerTodoProgressEEET_v)
    t._ZNK10QtMobility14QOrganizerItem6detailINS_22QOrganizerTodoProgressEEET_v.clean 0x00030c34   Section       10  qorganizertodo.o(t._ZNK10QtMobility14QOrganizerItem6detailINS_22QOrganizerTodoProgressEEET_v.clean)
    t._ZNK10QtMobility14QOrganizerItem6detailINS_24QOrganizerItemRecurrenceEEET_v 0x00030c40   Section       56  qorganizerevent.o(t._ZNK10QtMobility14QOrganizerItem6detailINS_24QOrganizerItemRecurrenceEEET_v)
    t._ZNK10QtMobility14QOrganizerItem6detailINS_24QOrganizerItemRecurrenceEEET_v.clean 0x00030c78   Section       10  qorganizerevent.o(t._ZNK10QtMobility14QOrganizerItem6detailINS_24QOrganizerItemRecurrenceEEET_v.clean)
    t._ZNK10QtMobility14QOrganizerItem6detailINS_25QOrganizerItemDescriptionEEET_v 0x00030c84   Section       56  qorganizeritem.o(t._ZNK10QtMobility14QOrganizerItem6detailINS_25QOrganizerItemDescriptionEEET_v)
    t._ZNK10QtMobility14QOrganizerItem6detailINS_25QOrganizerItemDescriptionEEET_v.clean 0x00030cbc   Section       10  qorganizeritem.o(t._ZNK10QtMobility14QOrganizerItem6detailINS_25QOrganizerItemDescriptionEEET_v.clean)
    t._ZNK10QtMobility14QOrganizerItem6detailINS_26QOrganizerItemDisplayLabelEEET_v 0x00030cc8   Section       56  qorganizeritem.o(t._ZNK10QtMobility14QOrganizerItem6detailINS_26QOrganizerItemDisplayLabelEEET_v)
    t._ZNK10QtMobility14QOrganizerItem6detailINS_26QOrganizerItemDisplayLabelEEET_v.clean 0x00030d00   Section       10  qorganizeritem.o(t._ZNK10QtMobility14QOrganizerItem6detailINS_26QOrganizerItemDisplayLabelEEET_v.clean)
    t._ZNK10QtMobility14QOrganizerItem7detailsINS_21QOrganizerItemCommentEEE5QListIT_Ev 0x00030d0c   Section      124  qorganizeritem.o(t._ZNK10QtMobility14QOrganizerItem7detailsINS_21QOrganizerItemCommentEEE5QListIT_Ev)
    t._ZNK10QtMobility14QOrganizerItem7detailsINS_21QOrganizerItemCommentEEE5QListIT_Ev.clean 0x00030d88   Section       22  qorganizeritem.o(t._ZNK10QtMobility14QOrganizerItem7detailsINS_21QOrganizerItemCommentEEE5QListIT_Ev.clean)
    t._ZNK10QtMobility15QLatin1ConstantILi10EEcv7QStringEv 0x00030d9e   Section       18  qorganizermanagerengine.o(t._ZNK10QtMobility15QLatin1ConstantILi10EEcv7QStringEv)
    t._ZNK10QtMobility15QLatin1ConstantILi11EEcv7QStringEv 0x00030db0   Section       18  qorganizermanagerengine.o(t._ZNK10QtMobility15QLatin1ConstantILi11EEcv7QStringEv)
    t._ZNK10QtMobility15QLatin1ConstantILi12EEcv7QStringEv 0x00030dc2   Section       18  qorganizermanagerengine.o(t._ZNK10QtMobility15QLatin1ConstantILi12EEcv7QStringEv)
    t._ZNK10QtMobility15QLatin1ConstantILi13EEcv7QStringEv 0x00030dd4   Section       18  qorganizermanagerengine.o(t._ZNK10QtMobility15QLatin1ConstantILi13EEcv7QStringEv)
    t._ZNK10QtMobility15QLatin1ConstantILi14EEcv7QStringEv 0x00030de6   Section       18  qorganizermanagerengine.o(t._ZNK10QtMobility15QLatin1ConstantILi14EEcv7QStringEv)
    t._ZNK10QtMobility15QLatin1ConstantILi15EEcv7QStringEv 0x00030df8   Section       18  qorganizermanagerengine.o(t._ZNK10QtMobility15QLatin1ConstantILi15EEcv7QStringEv)
    t._ZNK10QtMobility15QLatin1ConstantILi16EEcv7QStringEv 0x00030e0a   Section       18  qorganizermanagerengine.o(t._ZNK10QtMobility15QLatin1ConstantILi16EEcv7QStringEv)
    t._ZNK10QtMobility15QLatin1ConstantILi18EEcv7QStringEv 0x00030e1c   Section       18  qorganizermanagerengine.o(t._ZNK10QtMobility15QLatin1ConstantILi18EEcv7QStringEv)
    t._ZNK10QtMobility15QLatin1ConstantILi19EEcv7QStringEv 0x00030e2e   Section       18  qorganizermanagerengine.o(t._ZNK10QtMobility15QLatin1ConstantILi19EEcv7QStringEv)
    t._ZNK10QtMobility15QLatin1ConstantILi22EEcv7QStringEv 0x00030e40   Section       18  qorganizermanagerengine.o(t._ZNK10QtMobility15QLatin1ConstantILi22EEcv7QStringEv)
    t._ZNK10QtMobility15QLatin1ConstantILi4EEcv7QStringEv 0x00030e52   Section       18  qorganizermanagerengine.o(t._ZNK10QtMobility15QLatin1ConstantILi4EEcv7QStringEv)
    t._ZNK10QtMobility15QLatin1ConstantILi5EEcv7QStringEv 0x00030e64   Section       18  qorganizermanagerengine.o(t._ZNK10QtMobility15QLatin1ConstantILi5EEcv7QStringEv)
    t._ZNK10QtMobility15QLatin1ConstantILi6EEcv7QStringEv 0x00030e76   Section       18  qorganizermanagerengine.o(t._ZNK10QtMobility15QLatin1ConstantILi6EEcv7QStringEv)
    t._ZNK10QtMobility15QLatin1ConstantILi7EEcv7QStringEv 0x00030e88   Section       18  qorganizermanagerengine.o(t._ZNK10QtMobility15QLatin1ConstantILi7EEcv7QStringEv)
    t._ZNK10QtMobility15QLatin1ConstantILi8EEcv7QStringEv 0x00030e9a   Section       18  qorganizermanagerengine.o(t._ZNK10QtMobility15QLatin1ConstantILi8EEcv7QStringEv)
    t._ZNK10QtMobility15QLatin1ConstantILi9EEcv7QStringEv 0x00030eac   Section       18  qorganizermanagerengine.o(t._ZNK10QtMobility15QLatin1ConstantILi9EEcv7QStringEv)
    t._ZNK10QtMobility20QOrganizerItemDetail5valueI9QDateTimeEET_PKc 0x00030ebe   Section      138  qorganizeritemmemorybackend.o(t._ZNK10QtMobility20QOrganizerItemDetail5valueI9QDateTimeEET_PKc)
    t._ZNK10QtMobility20QOrganizerItemDetail5valueI9QDateTimeEET_PKc.clean 0x00030f48   Section       20  qorganizeritemmemorybackend.o(t._ZNK10QtMobility20QOrganizerItemDetail5valueI9QDateTimeEET_PKc.clean)
    t._ZNK10QtMobility20QOrganizerItemDetail5valueIiEET_PKc 0x00030f5c   Section      102  qorganizertodo.o(t._ZNK10QtMobility20QOrganizerItemDetail5valueIiEET_PKc)
    t._ZNK10QtMobility20QOrganizerItemDetail5valueIiEET_PKc.clean 0x00030fc2   Section       10  qorganizertodo.o(t._ZNK10QtMobility20QOrganizerItemDetail5valueIiEET_PKc.clean)
    t._ZNK12QMapIteratorI7QString8QVariantE7hasNextEv 0x00030fcc   Section       30  qorganizermanagerengine.o(t._ZNK12QMapIteratorI7QString8QVariantE7hasNextEv)
    t._ZNK12QWeakPointerIN10QtMobility25QOrganizerItemSaveRequestEE4dataEv 0x00030fea   Section       34  qorganizermanagerengine.o(t._ZNK12QWeakPointerIN10QtMobility25QOrganizerItemSaveRequestEE4dataEv)
    t._ZNK12QWeakPointerIN10QtMobility26QOrganizerItemFetchRequestEE4dataEv 0x0003100c   Section       34  qorganizermanagerengine.o(t._ZNK12QWeakPointerIN10QtMobility26QOrganizerItemFetchRequestEE4dataEv)
    t._ZNK12QWeakPointerIN10QtMobility27QOrganizerItemRemoveRequestEE4dataEv 0x0003102e   Section       34  qorganizermanagerengine.o(t._ZNK12QWeakPointerIN10QtMobility27QOrganizerItemRemoveRequestEE4dataEv)
    t._ZNK12QWeakPointerIN10QtMobility28QOrganizerItemIdFetchRequestEE4dataEv 0x00031050   Section       34  qorganizermanagerengine.o(t._ZNK12QWeakPointerIN10QtMobility28QOrganizerItemIdFetchRequestEE4dataEv)
    t._ZNK12QWeakPointerIN10QtMobility31QOrganizerCollectionSaveRequestEE4dataEv 0x00031072   Section       34  qorganizermanagerengine.o(t._ZNK12QWeakPointerIN10QtMobility31QOrganizerCollectionSaveRequestEE4dataEv)
    t._ZNK12QWeakPointerIN10QtMobility32QOrganizerCollectionFetchRequestEE4dataEv 0x00031094   Section       34  qorganizermanagerengine.o(t._ZNK12QWeakPointerIN10QtMobility32QOrganizerCollectionFetchRequestEE4dataEv)
    t._ZNK12QWeakPointerIN10QtMobility33QOrganizerCollectionRemoveRequestEE4dataEv 0x000310b6   Section       34  qorganizermanagerengine.o(t._ZNK12QWeakPointerIN10QtMobility33QOrganizerCollectionRemoveRequestEE4dataEv)
    t._ZNK12QWeakPointerIN10QtMobility35QOrganizerItemFetchForExportRequestEE4dataEv 0x000310d8   Section       34  qorganizermanagerengine.o(t._ZNK12QWeakPointerIN10QtMobility35QOrganizerItemFetchForExportRequestEE4dataEv)
    t._ZNK12QWeakPointerIN10QtMobility36QOrganizerItemOccurrenceFetchRequestEE4dataEv 0x000310fa   Section       34  qorganizermanagerengine.o(t._ZNK12QWeakPointerIN10QtMobility36QOrganizerItemOccurrenceFetchRequestEE4dataEv)
    t._ZNK12QWeakPointerIN10QtMobility41QOrganizerItemDetailDefinitionSaveRequestEE4dataEv 0x0003111c   Section       34  qorganizermanagerengine.o(t._ZNK12QWeakPointerIN10QtMobility41QOrganizerItemDetailDefinitionSaveRequestEE4dataEv)
    t._ZNK12QWeakPointerIN10QtMobility42QOrganizerItemDetailDefinitionFetchRequestEE4dataEv 0x0003113e   Section       34  qorganizermanagerengine.o(t._ZNK12QWeakPointerIN10QtMobility42QOrganizerItemDetailDefinitionFetchRequestEE4dataEv)
    t._ZNK12QWeakPointerIN10QtMobility43QOrganizerItemDetailDefinitionRemoveRequestEE4dataEv 0x00031160   Section       34  qorganizermanagerengine.o(t._ZNK12QWeakPointerIN10QtMobility43QOrganizerItemDetailDefinitionRemoveRequestEE4dataEv)
    t._ZNK17QForeachContainerI4QSetI5QDateEE9conditionEv 0x00031182   Section       44  qorganizeritemmemorybackend.o(t._ZNK17QForeachContainerI4QSetI5QDateEE9conditionEv)
    t._ZNK17QForeachContainerI4QSetIN10QtMobility24QOrganizerRecurrenceRuleEEE9conditionEv 0x000311ae   Section       44  qorganizeritemmemorybackend.o(t._ZNK17QForeachContainerI4QSetIN10QtMobility24QOrganizerRecurrenceRuleEEE9conditionEv)
    t._ZNK17QForeachContainerI4QSetIiEE9conditionEv 0x000311da   Section       42  qorganizerrecurrencerule.o(t._ZNK17QForeachContainerI4QSetIiEE9conditionEv)
    t._ZNK17QForeachContainerI5QHashIN10QtMobility16QOrganizerItemIdENS1_14QOrganizerItemEEE9conditionEv 0x00031204   Section       38  qorganizeritemmemorybackend.o(t._ZNK17QForeachContainerI5QHashIN10QtMobility16QOrganizerItemIdENS1_14QOrganizerItemEEE9conditionEv)
    t._ZNK17QForeachContainerI5QListI9QDateTimeEE9conditionEv 0x0003122a   Section       40  qorganizeritemmemorybackend.o(t._ZNK17QForeachContainerI5QListI9QDateTimeEE9conditionEv)
    t._ZNK17QForeachContainerI5QListIN10QtMobility14QOrganizerItemEEE9conditionEv 0x00031252   Section       40  qorganizeritemmemorybackend.o(t._ZNK17QForeachContainerI5QListIN10QtMobility14QOrganizerItemEEE9conditionEv)
    t._ZNK17QForeachContainerI5QListIN10QtMobility16QOrganizerItemIdEEE9conditionEv 0x0003127a   Section       40  qorganizeritemchangeset.o(t._ZNK17QForeachContainerI5QListIN10QtMobility16QOrganizerItemIdEEE9conditionEv)
    t._ZNK17QForeachContainerI5QListIN10QtMobility20QOrganizerItemDetailEEE9conditionEv 0x000312a2   Section       40  qorganizeritem.o(t._ZNK17QForeachContainerI5QListIN10QtMobility20QOrganizerItemDetailEEE9conditionEv)
    t._ZNK17QForeachContainerI5QListIN10QtMobility21QOrganizerItemCommentEEE9conditionEv 0x000312ca   Section       40  qorganizeritem.o(t._ZNK17QForeachContainerI5QListIN10QtMobility21QOrganizerItemCommentEEE9conditionEv)
    t._ZNK17QForeachContainerI5QListIN10QtMobility22QOrganizerCollectionIdEEE9conditionEv 0x000312f2   Section       40  qorganizercollectionchangeset.o(t._ZNK17QForeachContainerI5QListIN10QtMobility22QOrganizerCollectionIdEEE9conditionEv)
    t._ZNK17QForeachContainerI5QListIPN10QtMobility30QOrganizerManagerEngineFactoryEEE9conditionEv 0x0003131a   Section       40  qorganizermanager_p.o(t._ZNK17QForeachContainerI5QListIPN10QtMobility30QOrganizerManagerEngineFactoryEEE9conditionEv)
    t._ZNK18QSharedDataPointerIN10QtMobility27QOrganizerItemFilterPrivateEEntEv 0x00031342   Section       16  qorganizeritemfilter.o(t._ZNK18QSharedDataPointerIN10QtMobility27QOrganizerItemFilterPrivateEEntEv)
    t._ZNK4QMapI7QString8QVariantE14const_iteratorneERKS3_ 0x00031352   Section       18  qorganizercollection.o(t._ZNK4QMapI7QString8QVariantE14const_iteratorneERKS3_)
    t._ZNK4QMapI7QString8QVariantE15mutableFindNodeEPPN8QMapData4NodeERKS0_ 0x00031364   Section      108  qorganizercollection.o(t._ZNK4QMapI7QString8QVariantE15mutableFindNodeEPPN8QMapData4NodeERKS0_)
    t._ZNK4QMapI7QString8QVariantE8containsERKS0_ 0x000313d0   Section      122  qorganizermanagerengine.o(t._ZNK4QMapI7QString8QVariantE8containsERKS0_)
    t._ZNK4QMapI7QStringN10QtMobility30QOrganizerItemDetailDefinitionEE15mutableFindNodeEPPN8QMapData4NodeERKS0_ 0x0003144a   Section      108  qorganizermanagerengine.o(t._ZNK4QMapI7QStringN10QtMobility30QOrganizerItemDetailDefinitionEE15mutableFindNodeEPPN8QMapData4NodeERKS0_)
    t._ZNK4QMapI7QStringN10QtMobility30QOrganizerItemDetailDefinitionEE4keysEv 0x000314b6   Section      104  qorganizeritemmemorybackend.o(t._ZNK4QMapI7QStringN10QtMobility30QOrganizerItemDetailDefinitionEE4keysEv)
    t._ZNK4QMapI7QStringN10QtMobility30QOrganizerItemDetailDefinitionEE4keysEv.clean 0x0003151e   Section       10  qorganizeritemmemorybackend.o(t._ZNK4QMapI7QStringN10QtMobility30QOrganizerItemDetailDefinitionEE4keysEv.clean)
    t._ZNK4QMapI7QStringN10QtMobility30QOrganizerItemDetailDefinitionEE8findNodeERKS0_ 0x00031528   Section      104  qorganizermanagerengine.o(t._ZNK4QMapI7QStringN10QtMobility30QOrganizerItemDetailDefinitionEE8findNodeERKS0_)
    t._ZNK4QMapI7QStringN10QtMobility35QOrganizerItemDetailFieldDefinitionEE14const_iteratorneERKS4_ 0x00031590   Section       18  qorganizeritemdetaildefinition.o(t._ZNK4QMapI7QStringN10QtMobility35QOrganizerItemDetailFieldDefinitionEE14const_iteratorneERKS4_)
    t._ZNK4QMapI7QStringN10QtMobility35QOrganizerItemDetailFieldDefinitionEE15mutableFindNodeEPPN8QMapData4NodeERKS0_ 0x000315a2   Section      108  qorganizeritemdetaildefinition.o(t._ZNK4QMapI7QStringN10QtMobility35QOrganizerItemDetailFieldDefinitionEE15mutableFindNodeEPPN8QMapData4NodeERKS0_)
    t._ZNK4QMapI7QStringN10QtMobility35QOrganizerItemDetailFieldDefinitionEE5valueERKS0_ 0x0003160e   Section       62  qorganizermanagerengine.o(t._ZNK4QMapI7QStringN10QtMobility35QOrganizerItemDetailFieldDefinitionEE5valueERKS0_)
    t._ZNK4QMapI7QStringN10QtMobility35QOrganizerItemDetailFieldDefinitionEE8containsERKS0_ 0x0003164c   Section       28  qorganizermanagerengine.o(t._ZNK4QMapI7QStringN10QtMobility35QOrganizerItemDetailFieldDefinitionEE8containsERKS0_)
    t._ZNK4QMapI7QStringN10QtMobility35QOrganizerItemDetailFieldDefinitionEE8findNodeERKS0_ 0x00031668   Section      104  qorganizermanagerengine.o(t._ZNK4QMapI7QStringN10QtMobility35QOrganizerItemDetailFieldDefinitionEE8findNodeERKS0_)
    t._ZNK4QMapI7QStringN10QtMobility35QOrganizerItemDetailFieldDefinitionEEeqERKS3_ 0x000316d0   Section      228  qorganizeritemdetaildefinition.o(t._ZNK4QMapI7QStringN10QtMobility35QOrganizerItemDetailFieldDefinitionEEeqERKS3_)
    t._ZNK4QMapI7QStringPN10QtMobility30QOrganizerItemMemoryEngineDataEE15mutableFindNodeEPPN8QMapData4NodeERKS0_ 0x000317b4   Section      108  qorganizeritemmemorybackend.o(t._ZNK4QMapI7QStringPN10QtMobility30QOrganizerItemMemoryEngineDataEE15mutableFindNodeEPPN8QMapData4NodeERKS0_)
    t._ZNK4QMapI7QStringS0_E15mutableFindNodeEPPN8QMapData4NodeERKS0_ 0x00031820   Section      108  qorganizercollectionid.o(t._ZNK4QMapI7QStringS0_E15mutableFindNodeEPPN8QMapData4NodeERKS0_)
    t._ZNK4QMapI7QStringS0_E4keysEv          0x0003188c   Section      104  qorganizercollectionid.o(t._ZNK4QMapI7QStringS0_E4keysEv)
    t._ZNK4QMapI7QStringS0_E4keysEv.clean    0x000318f4   Section       10  qorganizercollectionid.o(t._ZNK4QMapI7QStringS0_E4keysEv.clean)
    t._ZNK4QMapI7QStringS0_E8findNodeERKS0_  0x000318fe   Section      108  qorganizermanager_p.o(t._ZNK4QMapI7QStringS0_E8findNodeERKS0_)
    t._ZNK4QMapI7QStringS_IS0_N10QtMobility30QOrganizerItemDetailDefinitionEEE15mutableFindNodeEPPN8QMapData4NodeERKS0_ 0x0003196a   Section      108  qorganizermanagerengine.o(t._ZNK4QMapI7QStringS_IS0_N10QtMobility30QOrganizerItemDetailDefinitionEEE15mutableFindNodeEPPN8QMapData4NodeERKS0_)
    t._ZNK4QMapI7QStringS_IS0_N10QtMobility30QOrganizerItemDetailDefinitionEEE5valueERKS0_ 0x000319d6   Section      160  qorganizeritemmemorybackend.o(t._ZNK4QMapI7QStringS_IS0_N10QtMobility30QOrganizerItemDetailDefinitionEEE5valueERKS0_)
    t._ZNK4QMapIN10QtMobility22QOrganizerCollectionIdENS0_16QOrganizerItemIdEE15mutableFindNodeEPPN8QMapData4NodeERKS1_ 0x00031a76   Section      108  qorganizeritemmemorybackend.o(t._ZNK4QMapIN10QtMobility22QOrganizerCollectionIdENS0_16QOrganizerItemIdEE15mutableFindNodeEPPN8QMapData4NodeERKS1_)
    t._ZNK4QMapIN10QtMobility22QOrganizerCollectionIdENS0_16QOrganizerItemIdEE3keyERKS2_ 0x00031ae2   Section       36  qorganizeritemmemorybackend.o(t._ZNK4QMapIN10QtMobility22QOrganizerCollectionIdENS0_16QOrganizerItemIdEE3keyERKS2_)
    t._ZNK4QMapIN10QtMobility22QOrganizerCollectionIdENS0_16QOrganizerItemIdEE3keyERKS2_.clean 0x00031b06   Section       10  qorganizeritemmemorybackend.o(t._ZNK4QMapIN10QtMobility22QOrganizerCollectionIdENS0_16QOrganizerItemIdEE3keyERKS2_.clean)
    t._ZNK4QMapIN10QtMobility22QOrganizerCollectionIdENS0_16QOrganizerItemIdEE3keyERKS2_RKS1_ 0x00031b10   Section      126  qorganizeritemmemorybackend.o(t._ZNK4QMapIN10QtMobility22QOrganizerCollectionIdENS0_16QOrganizerItemIdEE3keyERKS2_RKS1_)
    t._ZNK4QMapIN10QtMobility22QOrganizerCollectionIdENS0_16QOrganizerItemIdEE6valuesERKS1_ 0x00031b8e   Section       82  qorganizeritemmemorybackend.o(t._ZNK4QMapIN10QtMobility22QOrganizerCollectionIdENS0_16QOrganizerItemIdEE6valuesERKS1_)
    t._ZNK4QMapIN10QtMobility22QOrganizerCollectionIdENS0_16QOrganizerItemIdEE6valuesERKS1_.clean 0x00031be0   Section       10  qorganizeritemmemorybackend.o(t._ZNK4QMapIN10QtMobility22QOrganizerCollectionIdENS0_16QOrganizerItemIdEE6valuesERKS1_.clean)
    t._ZNK4QMapIN10QtMobility22QOrganizerCollectionIdENS0_16QOrganizerItemIdEE8findNodeERKS1_ 0x00031bea   Section      104  qorganizeritemmemorybackend.o(t._ZNK4QMapIN10QtMobility22QOrganizerCollectionIdENS0_16QOrganizerItemIdEE8findNodeERKS1_)
    t._ZNK4QMapIiN10QtMobility17QOrganizerManager5ErrorEE15mutableFindNodeEPPN8QMapData4NodeERKi 0x00031c52   Section      108  qorganizeritemmemorybackend.o(t._ZNK4QMapIiN10QtMobility17QOrganizerManager5ErrorEE15mutableFindNodeEPPN8QMapData4NodeERKi)
    t._ZNK4QMapIiN10QtMobility17QOrganizerManager5ErrorEE7isEmptyEv 0x00031cbe   Section       18  qorganizeritemmemorybackend.o(t._ZNK4QMapIiN10QtMobility17QOrganizerManager5ErrorEE7isEmptyEv)
    t._ZNK4QSetI5QDateE8containsERKS0_       0x00031cd0   Section       34  qorganizeritemmemorybackend.o(t._ZNK4QSetI5QDateE8containsERKS0_)
    t._ZNK4QSetI7QStringE8containsERKS0_     0x00031cf2   Section       34  qorganizermanager_p.o(t._ZNK4QSetI7QStringE8containsERKS0_)
    t._ZNK4QSetIN10QtMobility16QOrganizerItemIdEE6toListEv 0x00031d14   Section      208  qorganizeritemchangeset.o(t._ZNK4QSetIN10QtMobility16QOrganizerItemIdEE6toListEv)
    t._ZNK4QSetIN10QtMobility16QOrganizerItemIdEE6toListEv.clean 0x00031de4   Section       10  qorganizeritemchangeset.o(t._ZNK4QSetIN10QtMobility16QOrganizerItemIdEE6toListEv.clean)
    t._ZNK4QSetIN10QtMobility16QOrganizerItemIdEE7isEmptyEv 0x00031dee   Section       20  qorganizeritemchangeset.o(t._ZNK4QSetIN10QtMobility16QOrganizerItemIdEE7isEmptyEv)
    t._ZNK4QSetIN10QtMobility22QOrganizerCollectionIdEE6toListEv 0x00031e04   Section      208  qorganizercollectionchangeset.o(t._ZNK4QSetIN10QtMobility22QOrganizerCollectionIdEE6toListEv)
    t._ZNK4QSetIN10QtMobility22QOrganizerCollectionIdEE6toListEv.clean 0x00031ed4   Section       10  qorganizercollectionchangeset.o(t._ZNK4QSetIN10QtMobility22QOrganizerCollectionIdEE6toListEv.clean)
    t._ZNK4QSetIN10QtMobility22QOrganizerCollectionIdEE7isEmptyEv 0x00031ede   Section       20  qorganizercollectionchangeset.o(t._ZNK4QSetIN10QtMobility22QOrganizerCollectionIdEE7isEmptyEv)
    t._ZNK4QSetIN10QtMobility24QOrganizerRecurrenceRule5MonthEE7isEmptyEv 0x00031ef2   Section       20  qorganizeritemmemorybackend.o(t._ZNK4QSetIN10QtMobility24QOrganizerRecurrenceRule5MonthEE7isEmptyEv)
    t._ZNK4QSetIN10QtMobility24QOrganizerRecurrenceRuleEE7isEmptyEv 0x00031f06   Section       20  qorganizerevent.o(t._ZNK4QSetIN10QtMobility24QOrganizerRecurrenceRuleEE7isEmptyEv)
    t._ZNK4QSetIN2Qt9DayOfWeekEE7isEmptyEv   0x00031f1a   Section       20  qorganizeritemmemorybackend.o(t._ZNK4QSetIN2Qt9DayOfWeekEE7isEmptyEv)
    t._ZNK4QSetIiE7isEmptyEv                 0x00031f2e   Section       20  qorganizeritemmemorybackend.o(t._ZNK4QSetIiE7isEmptyEv)
    t._ZNK4QSetIiE8containsERKi              0x00031f42   Section       34  qorganizeritemmemorybackend.o(t._ZNK4QSetIiE8containsERKi)
    t._ZNK4QSetIiEeqERKS0_                   0x00031f64   Section       16  qorganizerrecurrencerule.o(t._ZNK4QSetIiEeqERKS0_)
    t._ZNK5QHashI5QDate15QHashDummyValueE14const_iteratorneERKS3_ 0x00031f74   Section       18  qorganizeritemdetails.o(t._ZNK5QHashI5QDate15QHashDummyValueE14const_iteratorneERKS3_)
    t._ZNK5QHashI5QDate15QHashDummyValueE8findNodeERKS0_Pj 0x00031f86   Section      114  qorganizerevent.o(t._ZNK5QHashI5QDate15QHashDummyValueE8findNodeERKS0_Pj)
    t._ZNK5QHashI5QDate15QHashDummyValueEeqERKS2_ 0x00031ff8   Section      236  qorganizeritemdetails.o(t._ZNK5QHashI5QDate15QHashDummyValueEeqERKS2_)
    t._ZNK5QHashI7QString15QHashDummyValueE8findNodeERKS0_Pj 0x000320e4   Section      116  qorganizermanager_p.o(t._ZNK5QHashI7QString15QHashDummyValueE8findNodeERKS0_Pj)
    t._ZNK5QHashI7QStringPN10QtMobility30QOrganizerManagerEngineFactoryEE14const_iteratorneERKS5_ 0x00032158   Section       18  qorganizermanager_p.o(t._ZNK5QHashI7QStringPN10QtMobility30QOrganizerManagerEngineFactoryEE14const_iteratorneERKS5_)
    t._ZNK5QHashI7QStringPN10QtMobility30QOrganizerManagerEngineFactoryEE4keysEv 0x0003216a   Section       94  qorganizermanager_p.o(t._ZNK5QHashI7QStringPN10QtMobility30QOrganizerManagerEngineFactoryEE4keysEv)
    t._ZNK5QHashI7QStringPN10QtMobility30QOrganizerManagerEngineFactoryEE4keysEv.clean 0x000321c8   Section       10  qorganizermanager_p.o(t._ZNK5QHashI7QStringPN10QtMobility30QOrganizerManagerEngineFactoryEE4keysEv.clean)
    t._ZNK5QHashI7QStringPN10QtMobility30QOrganizerManagerEngineFactoryEE5beginEv 0x000321d2   Section       44  qorganizermanager_p.o(t._ZNK5QHashI7QStringPN10QtMobility30QOrganizerManagerEngineFactoryEE5beginEv)
    t._ZNK5QHashI7QStringPN10QtMobility30QOrganizerManagerEngineFactoryEE5valueERKS0_ 0x000321fe   Section       40  qorganizermanager_p.o(t._ZNK5QHashI7QStringPN10QtMobility30QOrganizerManagerEngineFactoryEE5valueERKS0_)
    t._ZNK5QHashI7QStringPN10QtMobility30QOrganizerManagerEngineFactoryEE6valuesERKS0_ 0x00032226   Section       72  qorganizermanager_p.o(t._ZNK5QHashI7QStringPN10QtMobility30QOrganizerManagerEngineFactoryEE6valuesERKS0_)
    t._ZNK5QHashI7QStringPN10QtMobility30QOrganizerManagerEngineFactoryEE6valuesERKS0_.clean 0x0003226e   Section       10  qorganizermanager_p.o(t._ZNK5QHashI7QStringPN10QtMobility30QOrganizerManagerEngineFactoryEE6valuesERKS0_.clean)
    t._ZNK5QHashI7QStringPN10QtMobility30QOrganizerManagerEngineFactoryEE6valuesEv 0x00032278   Section       94  qorganizermanager_p.o(t._ZNK5QHashI7QStringPN10QtMobility30QOrganizerManagerEngineFactoryEE6valuesEv)
    t._ZNK5QHashI7QStringPN10QtMobility30QOrganizerManagerEngineFactoryEE6valuesEv.clean 0x000322d6   Section       10  qorganizermanager_p.o(t._ZNK5QHashI7QStringPN10QtMobility30QOrganizerManagerEngineFactoryEE6valuesEv.clean)
    t._ZNK5QHashI7QStringPN10QtMobility30QOrganizerManagerEngineFactoryEE8findNodeERKS0_Pj 0x000322e0   Section      116  qorganizermanager_p.o(t._ZNK5QHashI7QStringPN10QtMobility30QOrganizerManagerEngineFactoryEE8findNodeERKS0_Pj)
    t._ZNK5QHashI7QStringPcE5valueERKS0_RKS1_ 0x00032354   Section       42  qorganizeritemdetail.o(t._ZNK5QHashI7QStringPcE5valueERKS0_RKS1_)
    t._ZNK5QHashI7QStringPcE8findNodeERKS0_Pj 0x0003237e   Section      116  qorganizeritem.o(t._ZNK5QHashI7QStringPcE8findNodeERKS0_Pj)
    t._ZNK5QHashIN10QtMobility16QOrganizerItemIdE15QHashDummyValueE8findNodeERKS1_Pj 0x000323f2   Section      116  qorganizeritemchangeset.o(t._ZNK5QHashIN10QtMobility16QOrganizerItemIdE15QHashDummyValueE8findNodeERKS1_Pj)
    t._ZNK5QHashIN10QtMobility16QOrganizerItemIdENS0_14QOrganizerItemEE14const_iteratorneERKS4_ 0x00032466   Section       18  qorganizeritemmemorybackend.o(t._ZNK5QHashIN10QtMobility16QOrganizerItemIdENS0_14QOrganizerItemEE14const_iteratorneERKS4_)
    t._ZNK5QHashIN10QtMobility16QOrganizerItemIdENS0_14QOrganizerItemEE4keysEv 0x00032478   Section       94  qorganizeritemmemorybackend.o(t._ZNK5QHashIN10QtMobility16QOrganizerItemIdENS0_14QOrganizerItemEE4keysEv)
    t._ZNK5QHashIN10QtMobility16QOrganizerItemIdENS0_14QOrganizerItemEE4keysEv.clean 0x000324d6   Section       10  qorganizeritemmemorybackend.o(t._ZNK5QHashIN10QtMobility16QOrganizerItemIdENS0_14QOrganizerItemEE4keysEv.clean)
    t._ZNK5QHashIN10QtMobility16QOrganizerItemIdENS0_14QOrganizerItemEE8findNodeERKS1_Pj 0x000324e0   Section      116  qorganizeritemmemorybackend.o(t._ZNK5QHashIN10QtMobility16QOrganizerItemIdENS0_14QOrganizerItemEE8findNodeERKS1_Pj)
    t._ZNK5QHashIN10QtMobility16QOrganizerItemIdES1_E6valuesERKS1_ 0x00032554   Section       72  qorganizeritemmemorybackend.o(t._ZNK5QHashIN10QtMobility16QOrganizerItemIdES1_E6valuesERKS1_)
    t._ZNK5QHashIN10QtMobility16QOrganizerItemIdES1_E6valuesERKS1_.clean 0x0003259c   Section       10  qorganizeritemmemorybackend.o(t._ZNK5QHashIN10QtMobility16QOrganizerItemIdES1_E6valuesERKS1_.clean)
    t._ZNK5QHashIN10QtMobility16QOrganizerItemIdES1_E8findNodeERKS1_Pj 0x000325a6   Section      116  qorganizeritemmemorybackend.o(t._ZNK5QHashIN10QtMobility16QOrganizerItemIdES1_E8findNodeERKS1_Pj)
    t._ZNK5QHashIN10QtMobility22QOrganizerCollectionIdE15QHashDummyValueE14const_iteratorneERKS4_ 0x0003261a   Section       18  qorganizeritemcollectionfilter.o(t._ZNK5QHashIN10QtMobility22QOrganizerCollectionIdE15QHashDummyValueE14const_iteratorneERKS4_)
    t._ZNK5QHashIN10QtMobility22QOrganizerCollectionIdE15QHashDummyValueE8findNodeERKS1_Pj 0x0003262c   Section      116  qorganizercollectionchangeset.o(t._ZNK5QHashIN10QtMobility22QOrganizerCollectionIdE15QHashDummyValueE8findNodeERKS1_Pj)
    t._ZNK5QHashIN10QtMobility22QOrganizerCollectionIdE15QHashDummyValueEeqERKS3_ 0x000326a0   Section      236  qorganizeritemcollectionfilter.o(t._ZNK5QHashIN10QtMobility22QOrganizerCollectionIdE15QHashDummyValueEeqERKS3_)
    t._ZNK5QHashIN10QtMobility24QOrganizerRecurrenceRule5MonthE15QHashDummyValueE14const_iteratorneERKS5_ 0x0003278c   Section       18  qorganizerrecurrencerule.o(t._ZNK5QHashIN10QtMobility24QOrganizerRecurrenceRule5MonthE15QHashDummyValueE14const_iteratorneERKS5_)
    t._ZNK5QHashIN10QtMobility24QOrganizerRecurrenceRule5MonthE15QHashDummyValueE8findNodeERKS2_Pj 0x0003279e   Section      100  qorganizerrecurrencerule.o(t._ZNK5QHashIN10QtMobility24QOrganizerRecurrenceRule5MonthE15QHashDummyValueE8findNodeERKS2_Pj)
    t._ZNK5QHashIN10QtMobility24QOrganizerRecurrenceRule5MonthE15QHashDummyValueEeqERKS4_ 0x00032802   Section      230  qorganizerrecurrencerule.o(t._ZNK5QHashIN10QtMobility24QOrganizerRecurrenceRule5MonthE15QHashDummyValueEeqERKS4_)
    t._ZNK5QHashIN10QtMobility24QOrganizerRecurrenceRuleE15QHashDummyValueE14const_iteratorneERKS4_ 0x000328e8   Section       18  qorganizeritemdetails.o(t._ZNK5QHashIN10QtMobility24QOrganizerRecurrenceRuleE15QHashDummyValueE14const_iteratorneERKS4_)
    t._ZNK5QHashIN10QtMobility24QOrganizerRecurrenceRuleE15QHashDummyValueE8findNodeERKS1_Pj 0x000328fa   Section      116  qorganizeritemdetails.o(t._ZNK5QHashIN10QtMobility24QOrganizerRecurrenceRuleE15QHashDummyValueE8findNodeERKS1_Pj)
    t._ZNK5QHashIN10QtMobility24QOrganizerRecurrenceRuleE15QHashDummyValueEeqERKS3_ 0x0003296e   Section      236  qorganizeritemdetails.o(t._ZNK5QHashIN10QtMobility24QOrganizerRecurrenceRuleE15QHashDummyValueEeqERKS3_)
    t._ZNK5QHashIN10QtMobility26QOrganizerItemStringHolderE8QVariantE10constBeginEv 0x00032a5a   Section       18  qorganizeritemdetail.o(t._ZNK5QHashIN10QtMobility26QOrganizerItemStringHolderE8QVariantE10constBeginEv)
    t._ZNK5QHashIN10QtMobility26QOrganizerItemStringHolderE8QVariantE14const_iteratorneERKS4_ 0x00032a6c   Section       18  qorganizeritemdetail.o(t._ZNK5QHashIN10QtMobility26QOrganizerItemStringHolderE8QVariantE14const_iteratorneERKS4_)
    t._ZNK5QHashIN10QtMobility26QOrganizerItemStringHolderE8QVariantE5valueERKS1_ 0x00032a7e   Section       58  qorganizeritemdetail.o(t._ZNK5QHashIN10QtMobility26QOrganizerItemStringHolderE8QVariantE5valueERKS1_)
    t._ZNK5QHashIN10QtMobility26QOrganizerItemStringHolderE8QVariantE7isEmptyEv 0x00032ab8   Section       18  qorganizeritemdetail.o(t._ZNK5QHashIN10QtMobility26QOrganizerItemStringHolderE8QVariantE7isEmptyEv)
    t._ZNK5QHashIN10QtMobility26QOrganizerItemStringHolderE8QVariantE8containsERKS1_ 0x00032aca   Section       32  qorganizeritemdetail.o(t._ZNK5QHashIN10QtMobility26QOrganizerItemStringHolderE8QVariantE8containsERKS1_)
    t._ZNK5QHashIN10QtMobility26QOrganizerItemStringHolderE8QVariantE8findNodeERKS1_Pj 0x00032aea   Section      116  qorganizeritemdetail.o(t._ZNK5QHashIN10QtMobility26QOrganizerItemStringHolderE8QVariantE8findNodeERKS1_Pj)
    t._ZNK5QHashIN10QtMobility26QOrganizerItemStringHolderE8QVariantEeqERKS3_ 0x00032b5e   Section      256  qorganizeritemdetail.o(t._ZNK5QHashIN10QtMobility26QOrganizerItemStringHolderE8QVariantEeqERKS3_)
    t._ZNK5QHashIN2Qt9DayOfWeekE15QHashDummyValueE14const_iteratorneERKS4_ 0x00032c5e   Section       18  qorganizerrecurrencerule.o(t._ZNK5QHashIN2Qt9DayOfWeekE15QHashDummyValueE14const_iteratorneERKS4_)
    t._ZNK5QHashIN2Qt9DayOfWeekE15QHashDummyValueE8findNodeERKS1_Pj 0x00032c70   Section      100  qorganizerrecurrencerule.o(t._ZNK5QHashIN2Qt9DayOfWeekE15QHashDummyValueE8findNodeERKS1_Pj)
    t._ZNK5QHashIN2Qt9DayOfWeekE15QHashDummyValueEeqERKS3_ 0x00032cd4   Section      230  qorganizerrecurrencerule.o(t._ZNK5QHashIN2Qt9DayOfWeekE15QHashDummyValueEeqERKS3_)
    t._ZNK5QHashIPKc7QStringE8findNodeERKS1_Pj 0x00032dba   Section      104  qorganizeritemdetail.o(t._ZNK5QHashIPKc7QStringE8findNodeERKS1_Pj)
    t._ZNK5QHashIi15QHashDummyValueE14const_iteratorneERKS2_ 0x00032e22   Section       18  qorganizerrecurrencerule.o(t._ZNK5QHashIi15QHashDummyValueE14const_iteratorneERKS2_)
    t._ZNK5QHashIi15QHashDummyValueE8findNodeERKiPj 0x00032e34   Section       94  qorganizerrecurrencerule.o(t._ZNK5QHashIi15QHashDummyValueE8findNodeERKiPj)
    t._ZNK5QHashIi15QHashDummyValueEeqERKS1_ 0x00032e92   Section      230  qorganizerrecurrencerule.o(t._ZNK5QHashIi15QHashDummyValueEeqERKS1_)
    t._ZNK5QListI5QDateE8containsERKS0_      0x00032f78   Section       74  qorganizeritemmemorybackend.o(t._ZNK5QListI5QDateE8containsERKS0_)
    t._ZNK5QListI7QStringE2atEi              0x00032fc2   Section       22  qorganizermanager_p.o(t._ZNK5QListI7QStringE2atEi)
    t._ZNK5QListI7QStringE5countEv           0x00032fd8   Section       12  qorganizermanager_p.o(t._ZNK5QListI7QStringE5countEv)
    t._ZNK5QListI7QStringE5valueEi           0x00032fe4   Section       58  qorganizermanager.o(t._ZNK5QListI7QStringE5valueEi)
    t._ZNK5QListI7QStringE8containsERKS0_    0x0003301e   Section       74  qorganizermanagerengine.o(t._ZNK5QListI7QStringE8containsERKS0_)
    t._ZNK5QListI7QStringEeqERKS1_           0x00033068   Section      108  qorganizermanager_p.o(t._ZNK5QListI7QStringEeqERKS1_)
    t._ZNK5QListI8QVariantE14const_iteratorneERKS2_ 0x000330d4   Section       18  qorganizermanagerengine.o(t._ZNK5QListI8QVariantE14const_iteratorneERKS2_)
    t._ZNK5QListI8QVariantE7isEmptyEv        0x000330e6   Section       24  qorganizermanagerengine.o(t._ZNK5QListI8QVariantE7isEmptyEv)
    t._ZNK5QListI8QVariantE8containsERKS0_   0x000330fe   Section       72  qorganizermanagerengine.o(t._ZNK5QListI8QVariantE8containsERKS0_)
    t._ZNK5QListI8QVariantEeqERKS1_          0x00033146   Section      118  qorganizeritemdetailfielddefinition.o(t._ZNK5QListI8QVariantEeqERKS1_)
    t._ZNK5QListI9QDateTimeE14const_iteratoreqERKS2_ 0x000331bc   Section       18  qorganizeritemmemorybackend.o(t._ZNK5QListI9QDateTimeE14const_iteratoreqERKS2_)
    t._ZNK5QListI9QDateTimeE8iteratorltERKS2_ 0x000331ce   Section       18  qorganizeritemmemorybackend.o(t._ZNK5QListI9QDateTimeE8iteratorltERKS2_)
    t._ZNK5QListIN10QtMobility14QOrganizerItemEE3midEii 0x000331e0   Section      158  qorganizeritemmemorybackend.o(t._ZNK5QListIN10QtMobility14QOrganizerItemEE3midEii)
    t._ZNK5QListIN10QtMobility14QOrganizerItemEE3midEii.clean 0x0003327e   Section       16  qorganizeritemmemorybackend.o(t._ZNK5QListIN10QtMobility14QOrganizerItemEE3midEii.clean)
    t._ZNK5QListIN10QtMobility14QOrganizerItemEE5valueEi 0x0003328e   Section       58  qorganizermanagerengine.o(t._ZNK5QListIN10QtMobility14QOrganizerItemEE5valueEi)
    t._ZNK5QListIN10QtMobility16QOrganizerItemIdEE8containsERKS1_ 0x000332c8   Section       74  qorganizermanagerengine.o(t._ZNK5QListIN10QtMobility16QOrganizerItemIdEE8containsERKS1_)
    t._ZNK5QListIN10QtMobility16QOrganizerItemIdEEeqERKS2_ 0x00033312   Section      108  qorganizeritemidfilter.o(t._ZNK5QListIN10QtMobility16QOrganizerItemIdEEeqERKS2_)
    t._ZNK5QListIN10QtMobility20QOrganizerCollectionEE2atEi 0x0003337e   Section       22  qorganizeritemmemorybackend.o(t._ZNK5QListIN10QtMobility20QOrganizerCollectionEE2atEi)
    t._ZNK5QListIN10QtMobility20QOrganizerCollectionEE4sizeEv 0x00033394   Section       12  qorganizeritemmemorybackend.o(t._ZNK5QListIN10QtMobility20QOrganizerCollectionEE4sizeEv)
    t._ZNK5QListIN10QtMobility20QOrganizerItemDetailEE2atEi 0x000333a0   Section       22  qorganizeritem.o(t._ZNK5QListIN10QtMobility20QOrganizerItemDetailEE2atEi)
    t._ZNK5QListIN10QtMobility20QOrganizerItemDetailEE4sizeEv 0x000333b6   Section       12  qorganizeritem.o(t._ZNK5QListIN10QtMobility20QOrganizerItemDetailEE4sizeEv)
    t._ZNK5QListIN10QtMobility20QOrganizerItemDetailEE5countEv 0x000333c2   Section       12  qorganizermanagerengine.o(t._ZNK5QListIN10QtMobility20QOrganizerItemDetailEE5countEv)
    t._ZNK5QListIN10QtMobility20QOrganizerItemDetailEE5firstEv 0x000333ce   Section       16  qorganizeritem.o(t._ZNK5QListIN10QtMobility20QOrganizerItemDetailEE5firstEv)
    t._ZNK5QListIN10QtMobility20QOrganizerItemDetailEE8containsERKS1_ 0x000333de   Section       74  qorganizeritem.o(t._ZNK5QListIN10QtMobility20QOrganizerItemDetailEE8containsERKS1_)
    t._ZNK5QListIN10QtMobility20QOrganizerItemDetailEEeqERKS2_ 0x00033428   Section      108  qorganizeritem.o(t._ZNK5QListIN10QtMobility20QOrganizerItemDetailEEeqERKS2_)
    t._ZNK5QListIN10QtMobility20QOrganizerItemFilterEE5countEv 0x00033494   Section       12  qorganizermanagerengine.o(t._ZNK5QListIN10QtMobility20QOrganizerItemFilterEE5countEv)
    t._ZNK5QListIN10QtMobility20QOrganizerItemFilterEE8iteratorneERKS3_ 0x000334a0   Section       18  qorganizermanagerengine.o(t._ZNK5QListIN10QtMobility20QOrganizerItemFilterEE8iteratorneERKS3_)
    t._ZNK5QListIN10QtMobility20QOrganizerItemFilterEEeqERKS2_ 0x000334b2   Section      108  qorganizeritemintersectionfilter.o(t._ZNK5QListIN10QtMobility20QOrganizerItemFilterEEeqERKS2_)
    t._ZNK5QListIN10QtMobility22QOrganizerCollectionIdEE8containsERKS1_ 0x0003351e   Section       74  qorganizeritemmemorybackend.o(t._ZNK5QListIN10QtMobility22QOrganizerCollectionIdEE8containsERKS1_)
    t._ZNK5QListIiE8containsERKi             0x00033568   Section       66  qorganizermanager_p.o(t._ZNK5QListIiE8containsERKi)
    t._ZNK5qLessI9QDateTimeEclERKS0_S3_      0x000335aa   Section       18  qorganizeritemmemorybackend.o(t._ZNK5qLessI9QDateTimeEclERKS0_S3_)
    t._ZNK8QVariant5valueI4QSetI5QDateEEET_v 0x000335bc   Section      112  qorganizeritemdetails.o(t._ZNK8QVariant5valueI4QSetI5QDateEEET_v)
    t._ZNK8QVariant5valueI4QSetI5QDateEEET_v.clean 0x0003362c   Section       10  qorganizeritemdetails.o(t._ZNK8QVariant5valueI4QSetI5QDateEEET_v.clean)
    t._ZNK8QVariant5valueI4QSetIN10QtMobility24QOrganizerRecurrenceRuleEEEET_v 0x00033636   Section      112  qorganizeritemdetails.o(t._ZNK8QVariant5valueI4QSetIN10QtMobility24QOrganizerRecurrenceRuleEEEET_v)
    t._ZNK8QVariant5valueI4QSetIN10QtMobility24QOrganizerRecurrenceRuleEEEET_v.clean 0x000336a6   Section       10  qorganizeritemdetails.o(t._ZNK8QVariant5valueI4QSetIN10QtMobility24QOrganizerRecurrenceRuleEEEET_v.clean)
    t._ZlsI7QString8QVariantER11QDataStreamS3_RK4QMapIT_T0_E 0x000336b0   Section      114  qorganizercollection.o(t._ZlsI7QString8QVariantER11QDataStreamS3_RK4QMapIT_T0_E)
    t._ZlsI7QStringER11QDataStreamS2_RK5QListIT_E 0x00033722   Section      100  qorganizeritemfetchhint.o(t._ZlsI7QStringER11QDataStreamS2_RK5QListIT_E)
    t._ZlsI7QStringN10QtMobility35QOrganizerItemDetailFieldDefinitionEER11QDataStreamS4_RK4QMapIT_T0_E 0x00033786   Section      114  qorganizeritemdetaildefinition.o(t._ZlsI7QStringN10QtMobility35QOrganizerItemDetailFieldDefinitionEER11QDataStreamS4_RK4QMapIT_T0_E)
    t._ZlsI8QVariantER11QDataStreamS2_RK5QListIT_E 0x000337f8   Section       98  qorganizeritemdetailfielddefinition.o(t._ZlsI8QVariantER11QDataStreamS2_RK5QListIT_E)
    t._ZlsIN10QtMobility16QOrganizerItemIdEER11QDataStreamS3_RK5QListIT_E 0x0003385a   Section       74  qorganizeritemidfilter.o(t._ZlsIN10QtMobility16QOrganizerItemIdEER11QDataStreamS3_RK5QListIT_E)
    t._ZlsIN10QtMobility20QOrganizerItemDetailEER11QDataStreamS3_RK5QListIT_E 0x000338a4   Section       60  qorganizeritem.o(t._ZlsIN10QtMobility20QOrganizerItemDetailEER11QDataStreamS3_RK5QListIT_E)
    t._ZlsIN10QtMobility20QOrganizerItemFilterEER11QDataStreamS3_RK5QListIT_E 0x000338e0   Section       74  qorganizeritemintersectionfilter.o(t._ZlsIN10QtMobility20QOrganizerItemFilterEER11QDataStreamS3_RK5QListIT_E)
    t._ZlsIN10QtMobility22QOrganizerCollectionIdEER11QDataStreamS3_RK4QSetIT_E 0x0003392a   Section      142  qorganizeritemcollectionfilter.o(t._ZlsIN10QtMobility22QOrganizerCollectionIdEER11QDataStreamS3_RK4QSetIT_E)
    t._ZrmI14QStringBuilderI7QString11QLatin1CharES1_ES0_IN13QConcatenableIT_E4typeENS4_IT0_E4typeEERKS5_RKS8_ 0x000339b8   Section       18  qorganizeritemmemorybackend.o(t._ZrmI14QStringBuilderI7QString11QLatin1CharES1_ES0_IN13QConcatenableIT_E4typeENS4_IT0_E4typeEERKS5_RKS8_)
    t._ZrmI14QStringBuilderIS0_I7QString11QLatin1CharES1_ES2_ES0_IN13QConcatenableIT_E4typeENS5_IT0_E4typeEERKS6_RKS9_ 0x000339ca   Section       18  qorganizeritemmemorybackend.o(t._ZrmI14QStringBuilderIS0_I7QString11QLatin1CharES1_ES2_ES0_IN13QConcatenableIT_E4typeENS5_IT0_E4typeEERKS6_RKS9_)
    t._ZrmI14QStringBuilderIS0_IS0_I7QString11QLatin1CharES1_ES2_ES1_ES0_IN13QConcatenableIT_E4typeENS6_IT0_E4typeEERKS7_RKSA_ 0x000339dc   Section       18  qorganizeritemmemorybackend.o(t._ZrmI14QStringBuilderIS0_IS0_I7QString11QLatin1CharES1_ES2_ES1_ES0_IN13QConcatenableIT_E4typeENS6_IT0_E4typeEERKS7_RKSA_)
    t._ZrmI7QString11QLatin1CharE14QStringBuilderIN13QConcatenableIT_E4typeENS3_IT0_E4typeEERKS4_RKS7_ 0x000339ee   Section       18  qorganizeritemmemorybackend.o(t._ZrmI7QString11QLatin1CharE14QStringBuilderIN13QConcatenableIT_E4typeENS3_IT0_E4typeEERKS4_RKS7_)
    t._ZrsI7QString8QVariantER11QDataStreamS3_R4QMapIT_T0_E 0x00033a00   Section      222  qorganizercollection.o(t._ZrsI7QString8QVariantER11QDataStreamS3_R4QMapIT_T0_E)
    t._ZrsI7QString8QVariantER11QDataStreamS3_R4QMapIT_T0_E.clean 0x00033ade   Section       16  qorganizercollection.o(t._ZrsI7QString8QVariantER11QDataStreamS3_R4QMapIT_T0_E.clean)
    t._ZrsI7QStringER11QDataStreamS2_R5QListIT_E 0x00033af0   Section      108  qorganizeritemfetchhint.o(t._ZrsI7QStringER11QDataStreamS2_R5QListIT_E)
    t._ZrsI7QStringER11QDataStreamS2_R5QListIT_E.clean 0x00033b5c   Section       10  qorganizeritemfetchhint.o(t._ZrsI7QStringER11QDataStreamS2_R5QListIT_E.clean)
    t._ZrsI7QStringN10QtMobility35QOrganizerItemDetailFieldDefinitionEER11QDataStreamS4_R4QMapIT_T0_E 0x00033b66   Section      222  qorganizeritemdetaildefinition.o(t._ZrsI7QStringN10QtMobility35QOrganizerItemDetailFieldDefinitionEER11QDataStreamS4_R4QMapIT_T0_E)
    t._ZrsI7QStringN10QtMobility35QOrganizerItemDetailFieldDefinitionEER11QDataStreamS4_R4QMapIT_T0_E.clean 0x00033c44   Section       16  qorganizeritemdetaildefinition.o(t._ZrsI7QStringN10QtMobility35QOrganizerItemDetailFieldDefinitionEER11QDataStreamS4_R4QMapIT_T0_E.clean)
    t._ZrsI8QVariantER11QDataStreamS2_R5QListIT_E 0x00033c54   Section      134  qorganizeritemdetailfielddefinition.o(t._ZrsI8QVariantER11QDataStreamS2_R5QListIT_E)
    t._ZrsI8QVariantER11QDataStreamS2_R5QListIT_E.clean 0x00033cda   Section       10  qorganizeritemdetailfielddefinition.o(t._ZrsI8QVariantER11QDataStreamS2_R5QListIT_E.clean)
    t._ZrsIN10QtMobility16QOrganizerItemIdEER11QDataStreamS3_R5QListIT_E 0x00033ce4   Section       94  qorganizeritemidfilter.o(t._ZrsIN10QtMobility16QOrganizerItemIdEER11QDataStreamS3_R5QListIT_E)
    t._ZrsIN10QtMobility16QOrganizerItemIdEER11QDataStreamS3_R5QListIT_E.clean 0x00033d42   Section       10  qorganizeritemidfilter.o(t._ZrsIN10QtMobility16QOrganizerItemIdEER11QDataStreamS3_R5QListIT_E.clean)
    t._ZrsIN10QtMobility20QOrganizerItemDetailEER11QDataStreamS3_R5QListIT_E 0x00033d4c   Section       94  qorganizeritem.o(t._ZrsIN10QtMobility20QOrganizerItemDetailEER11QDataStreamS3_R5QListIT_E)
    t._ZrsIN10QtMobility20QOrganizerItemDetailEER11QDataStreamS3_R5QListIT_E.clean 0x00033daa   Section       10  qorganizeritem.o(t._ZrsIN10QtMobility20QOrganizerItemDetailEER11QDataStreamS3_R5QListIT_E.clean)
    t._ZrsIN10QtMobility20QOrganizerItemFilterEER11QDataStreamS3_R5QListIT_E 0x00033db4   Section       94  qorganizeritemintersectionfilter.o(t._ZrsIN10QtMobility20QOrganizerItemFilterEER11QDataStreamS3_R5QListIT_E)
    t._ZrsIN10QtMobility20QOrganizerItemFilterEER11QDataStreamS3_R5QListIT_E.clean 0x00033e12   Section       10  qorganizeritemintersectionfilter.o(t._ZrsIN10QtMobility20QOrganizerItemFilterEER11QDataStreamS3_R5QListIT_E.clean)
    t._ZrsIN10QtMobility22QOrganizerCollectionIdEER11QDataStreamS3_R4QSetIT_E 0x00033e1c   Section       92  qorganizeritemcollectionfilter.o(t._ZrsIN10QtMobility22QOrganizerCollectionIdEER11QDataStreamS3_R4QSetIT_E)
    t._ZrsIN10QtMobility22QOrganizerCollectionIdEER11QDataStreamS3_R4QSetIT_E.clean 0x00033e78   Section       10  qorganizeritemcollectionfilter.o(t._ZrsIN10QtMobility22QOrganizerCollectionIdEER11QDataStreamS3_R4QSetIT_E.clean)
    .extab._ZN10QtMobility20QOrganizerCollectionC1Ev 0x00033e84   Data           0  qorganizercollection.o(.ARM.extab)
    .extab._ZN10QtMobility5qHashERKNS_20QOrganizerCollectionE 0x00033eac   Data           0  qorganizercollection.o(.ARM.extab)
    .extab._ZN10QtMobilitylsE6QDebugRKNS_20QOrganizerCollectionE 0x00033ed4   Data           0  qorganizercollection.o(.ARM.extab)
    .extab._ZN10QtMobilitylsER11QDataStreamRKNS_20QOrganizerCollectionE 0x00033f0c   Data           0  qorganizercollection.o(.ARM.extab)
    .extab._ZN10QtMobilityrsER11QDataStreamRNS_20QOrganizerCollectionE 0x00033f3c   Data           0  qorganizercollection.o(.ARM.extab)
    .extab._ZN4QMapI7QString8QVariantE11node_createEP8QMapDataPPNS3_4NodeERKS0_RKS1_ 0x00033f8c   Data           0  qorganizercollection.o(.ARM.extab)
    .extab._ZN4QMapI7QString8QVariantE13detach_helperEv 0x00033fd8   Data           0  qorganizercollection.o(.ARM.extab)
    .extab._ZN4QMapI7QString8QVariantE5clearEv 0x00033ff4   Data           0  qorganizercollection.o(.ARM.extab)
    .extab._ZrsI7QString8QVariantER11QDataStreamS3_R4QMapIT_T0_E 0x00034004   Data           0  qorganizercollection.o(.ARM.extab)
    .extab._ZN6QDebuglsEPKc                  0x00034024   Data           0  qorganizercollection.o(.ARM.extab)
    .extab._ZN10QtMobility24QOrganizerCollectionDataD1Ev 0x00034034   Data           0  qorganizercollection.o(.ARM.extab)
    .extab._ZN18QSharedDataPointerIN10QtMobility24QOrganizerCollectionDataEE5cloneEv 0x00034054   Data           0  qorganizercollection.o(.ARM.extab)
    .extab._ZN10QtMobility29QOrganizerCollectionChangeSetC1Ev 0x0003407c   Data           0  qorganizercollectionchangeset.o(.ARM.extab)
    .extab._ZN10QtMobility29QOrganizerCollectionChangeSet22insertAddedCollectionsERK5QListINS_22QOrganizerCollectionIdEE 0x0003409c   Data           0  qorganizercollectionchangeset.o(.ARM.extab)
    .extab._ZN10QtMobility29QOrganizerCollectionChangeSet24insertChangedCollectionsERK5QListINS_22QOrganizerCollectionIdEE 0x000340ac   Data           0  qorganizercollectionchangeset.o(.ARM.extab)
    .extab._ZN10QtMobility29QOrganizerCollectionChangeSet24insertRemovedCollectionsERK5QListINS_22QOrganizerCollectionIdEE 0x000340bc   Data           0  qorganizercollectionchangeset.o(.ARM.extab)
    .extab._ZN10QtMobility29QOrganizerCollectionChangeSet11emitSignalsEPNS_23QOrganizerManagerEngineE 0x000340cc   Data           0  qorganizercollectionchangeset.o(.ARM.extab)
    .extab._ZN5QListIN10QtMobility22QOrganizerCollectionIdEE9node_copyEPNS2_4NodeES4_S4_ 0x000340ec   Data           0  qorganizercollectionchangeset.o(.ARM.extab)
    .extab._ZN5QListIN10QtMobility22QOrganizerCollectionIdEE13detach_helperEi 0x00034110   Data           0  qorganizercollectionchangeset.o(.ARM.extab)
    .extab._Z20qForeachContainerNewI5QListIN10QtMobility22QOrganizerCollectionIdEEE17QForeachContainerIT_ERKS5_ 0x0003412c   Data           0  qorganizercollectionchangeset.o(.ARM.extab)
    .extab._ZN5QListIN10QtMobility22QOrganizerCollectionIdEE14node_constructEPNS2_4NodeERKS1_ 0x0003413c   Data           0  qorganizercollectionchangeset.o(.ARM.extab)
    .extab._ZN5QListIN10QtMobility22QOrganizerCollectionIdEE18detach_helper_growEii 0x0003414c   Data           0  qorganizercollectionchangeset.o(.ARM.extab)
    .extab._ZN5QListIN10QtMobility22QOrganizerCollectionIdEE6appendERKS1_ 0x0003417c   Data           0  qorganizercollectionchangeset.o(.ARM.extab)
    .extab._ZN10QtMobility33QOrganizerCollectionChangeSetDataD1Ev 0x000341ac   Data           0  qorganizercollectionchangeset.o(.ARM.extab)
    .extab._ZN18QSharedDataPointerIN10QtMobility33QOrganizerCollectionChangeSetDataEE13detach_helperEv 0x000341c4   Data           0  qorganizercollectionchangeset.o(.ARM.extab)
    .extab._ZNK4QSetIN10QtMobility22QOrganizerCollectionIdEE6toListEv 0x000341e4   Data           0  qorganizercollectionchangeset.o(.ARM.extab)
    .extab._ZN5QHashIN10QtMobility22QOrganizerCollectionIdE15QHashDummyValueE13duplicateNodeEPN9QHashData4NodeEPv 0x000341f4   Data           0  qorganizercollectionchangeset.o(.ARM.extab)
    .extab._ZN5QHashIN10QtMobility22QOrganizerCollectionIdE15QHashDummyValueE6insertERKS1_RKS2_ 0x00034204   Data           0  qorganizercollectionchangeset.o(.ARM.extab)
    .extab._ZNK10QtMobility22QOrganizerCollectionIdeqERKS0_ 0x00034214   Data           0  qorganizercollectionid.o(.ARM.extab)
    .extab._ZNK10QtMobility22QOrganizerCollectionIdltERKS0_ 0x00034234   Data           0  qorganizercollectionid.o(.ARM.extab)
    .extab._ZNK10QtMobility22QOrganizerCollectionId10managerUriEv 0x0003426c   Data           0  qorganizercollectionid.o(.ARM.extab)
    .extab._ZNK10QtMobility22QOrganizerCollectionId8toStringEv 0x0003428c   Data           0  qorganizercollectionid.o(.ARM.extab)
    .extab._ZN10QtMobility22QOrganizerCollectionId10fromStringERK7QString 0x000342dc   Data           0  qorganizercollectionid.o(.ARM.extab)
    .extab._ZN10QtMobilitylsER11QDataStreamRKNS_22QOrganizerCollectionIdE 0x00034324   Data           0  qorganizercollectionid.o(.ARM.extab)
    .extab._ZN10QtMobilityrsER11QDataStreamRNS_22QOrganizerCollectionIdE 0x00034334   Data           0  qorganizercollectionid.o(.ARM.extab)
    .extab._ZN5QListI7QStringE9node_copyEPNS1_4NodeES3_S3_ 0x00034354   Data           0  qorganizercollectionid.o(.ARM.extab)
    .extab._ZN5QListI7QStringE13detach_helperEi 0x00034378   Data           0  qorganizercollectionid.o(.ARM.extab)
    .extab._ZN5QListI7QStringE14node_constructEPNS1_4NodeERKS0_ 0x00034394   Data           0  qorganizercollectionid.o(.ARM.extab)
    .extab._ZN5QListI7QStringE18detach_helper_growEii 0x000343a4   Data           0  qorganizercollectionid.o(.ARM.extab)
    .extab._ZN5QListI7QStringE6appendERKS0_  0x000343d4   Data           0  qorganizercollectionid.o(.ARM.extab)
    .extab._ZN4QMapI7QStringS0_E11node_createEP8QMapDataPPNS2_4NodeERKS0_S8_ 0x00034404   Data           0  qorganizercollectionid.o(.ARM.extab)
    .extab._ZN4QMapI7QStringS0_E13detach_helperEv 0x00034450   Data           0  qorganizercollectionid.o(.ARM.extab)
    .extab._ZNK4QMapI7QStringS0_E4keysEv     0x0003446c   Data           0  qorganizercollectionid.o(.ARM.extab)
    .extab._ZN10QtMobility13buildIdStringERK7QStringRK4QMapIS0_S0_ES2_ 0x0003447c   Data           0  qorganizercollectionid.o(.ARM.extab)
    .extab._ZN10QtMobility13parseIdStringERK7QStringPS0_P4QMapIS0_S0_ES3_ 0x00034534   Data           0  qorganizercollectionid.o(.ARM.extab)
    .extab._ZplRK7QString5QChar              0x000346a4   Data           0  qorganizercollectionid.o(.ARM.extab)
    .extab._ZN10QtMobility25QOrganizerAbstractRequest15waitForFinishedEi 0x000346b4   Data           0  qorganizerabstractrequest.o(.ARM.extab)
    .extab._ZN10QtMobility25QOrganizerAbstractRequest6cancelEv 0x000346c4   Data           0  qorganizerabstractrequest.o(.ARM.extab)
    .extab._ZN10QtMobility25QOrganizerAbstractRequest5startEv 0x000346d4   Data           0  qorganizerabstractrequest.o(.ARM.extab)
    .extab._ZN10QtMobility25QOrganizerAbstractRequestD1Ev 0x000346e4   Data           0  qorganizerabstractrequest.o(.ARM.extab)
    .extab._ZNK10QtMobility25QOrganizerAbstractRequest4typeEv 0x000346f4   Data           0  qorganizerabstractrequest.o(.ARM.extab)
    .extab._ZN10QtMobility25QOrganizerAbstractRequest10setManagerEPNS_17QOrganizerManagerE 0x00034704   Data           0  qorganizerabstractrequest.o(.ARM.extab)
    .extab._ZN10QtMobility32QOrganizerAbstractRequestPrivateD1Ev 0x00034714   Data           0  qorganizerabstractrequest.o(.ARM.extab)
    .extab._ZN10QtMobility23QOrganizerItemChangeSetC1Ev 0x0003472c   Data           0  qorganizeritemchangeset.o(.ARM.extab)
    .extab._ZN10QtMobility23QOrganizerItemChangeSet16insertAddedItemsERK5QListINS_16QOrganizerItemIdEE 0x0003474c   Data           0  qorganizeritemchangeset.o(.ARM.extab)
    .extab._ZN10QtMobility23QOrganizerItemChangeSet18insertChangedItemsERK5QListINS_16QOrganizerItemIdEE 0x0003475c   Data           0  qorganizeritemchangeset.o(.ARM.extab)
    .extab._ZN10QtMobility23QOrganizerItemChangeSet18insertRemovedItemsERK5QListINS_16QOrganizerItemIdEE 0x0003476c   Data           0  qorganizeritemchangeset.o(.ARM.extab)
    .extab._ZN10QtMobility23QOrganizerItemChangeSet11emitSignalsEPNS_23QOrganizerManagerEngineE 0x0003477c   Data           0  qorganizeritemchangeset.o(.ARM.extab)
    .extab._ZN5QListIN10QtMobility16QOrganizerItemIdEE9node_copyEPNS2_4NodeES4_S4_ 0x0003479c   Data           0  qorganizeritemchangeset.o(.ARM.extab)
    .extab._ZN5QListIN10QtMobility16QOrganizerItemIdEE13detach_helperEi 0x000347c0   Data           0  qorganizeritemchangeset.o(.ARM.extab)
    .extab._Z20qForeachContainerNewI5QListIN10QtMobility16QOrganizerItemIdEEE17QForeachContainerIT_ERKS5_ 0x000347dc   Data           0  qorganizeritemchangeset.o(.ARM.extab)
    .extab._ZN5QListIN10QtMobility16QOrganizerItemIdEE14node_constructEPNS2_4NodeERKS1_ 0x000347ec   Data           0  qorganizeritemchangeset.o(.ARM.extab)
    .extab._ZN5QListIN10QtMobility16QOrganizerItemIdEE18detach_helper_growEii 0x000347fc   Data           0  qorganizeritemchangeset.o(.ARM.extab)
    .extab._ZN5QListIN10QtMobility16QOrganizerItemIdEE6appendERKS1_ 0x0003482c   Data           0  qorganizeritemchangeset.o(.ARM.extab)
    .extab._ZN10QtMobility27QOrganizerItemChangeSetDataD1Ev 0x0003485c   Data           0  qorganizeritemchangeset.o(.ARM.extab)
    .extab._ZN18QSharedDataPointerIN10QtMobility27QOrganizerItemChangeSetDataEE13detach_helperEv 0x00034874   Data           0  qorganizeritemchangeset.o(.ARM.extab)
    .extab._ZN4QSetIN10QtMobility16QOrganizerItemIdEE5clearEv 0x00034894   Data           0  qorganizeritemchangeset.o(.ARM.extab)
    .extab._ZNK4QSetIN10QtMobility16QOrganizerItemIdEE6toListEv 0x000348a4   Data           0  qorganizeritemchangeset.o(.ARM.extab)
    .extab._ZN5QHashIN10QtMobility16QOrganizerItemIdE15QHashDummyValueE13duplicateNodeEPN9QHashData4NodeEPv 0x000348b4   Data           0  qorganizeritemchangeset.o(.ARM.extab)
    .extab._ZN10QtMobility14QOrganizerItem12clearDetailsEv 0x000348c4   Data           0  qorganizeritem.o(.ARM.extab)
    .extab._ZN10QtMobility14QOrganizerItemC1Ev 0x0003491c   Data           0  qorganizeritem.o(.ARM.extab)
    .extab._ZNK10QtMobility14QOrganizerItem7detailsERK7QString 0x0003492c   Data           0  qorganizeritem.o(.ARM.extab)
    .extab._ZNK10QtMobility14QOrganizerItem7detailsERK7QStringS3_S3_ 0x0003493c   Data           0  qorganizeritem.o(.ARM.extab)
    .extab._ZNK10QtMobility14QOrganizerItem7detailsEPKc 0x0003496c   Data           0  qorganizeritem.o(.ARM.extab)
    .extab._ZNK10QtMobility14QOrganizerItem7detailsEPKcS2_RK7QString 0x0003497c   Data           0  qorganizeritem.o(.ARM.extab)
    .extab._ZN10QtMobility14QOrganizerItem10saveDetailEPNS_20QOrganizerItemDetailE 0x000349ac   Data           0  qorganizeritem.o(.ARM.extab)
    .extab._ZNK10QtMobility14QOrganizerItem4typeEv 0x00034a2c   Data           0  qorganizeritem.o(.ARM.extab)
    .extab._ZN10QtMobility14QOrganizerItem7setTypeERK7QString 0x00034a3c   Data           0  qorganizeritem.o(.ARM.extab)
    .extab._ZN10QtMobility14QOrganizerItem7setTypeERKNS_18QOrganizerItemTypeE 0x00034a4c   Data           0  qorganizeritem.o(.ARM.extab)
    .extab._ZNK10QtMobility14QOrganizerItem12displayLabelEv 0x00034a6c   Data           0  qorganizeritem.o(.ARM.extab)
    .extab._ZN10QtMobility14QOrganizerItem15setDisplayLabelERK7QString 0x00034a7c   Data           0  qorganizeritem.o(.ARM.extab)
    .extab._ZN10QtMobility14QOrganizerItem15setDisplayLabelERKNS_26QOrganizerItemDisplayLabelE 0x00034a8c   Data           0  qorganizeritem.o(.ARM.extab)
    .extab._ZNK10QtMobility14QOrganizerItem11descriptionEv 0x00034aac   Data           0  qorganizeritem.o(.ARM.extab)
    .extab._ZN10QtMobility14QOrganizerItem14setDescriptionERK7QString 0x00034abc   Data           0  qorganizeritem.o(.ARM.extab)
    .extab._ZN10QtMobility14QOrganizerItem14setDescriptionERKNS_25QOrganizerItemDescriptionE 0x00034acc   Data           0  qorganizeritem.o(.ARM.extab)
    .extab._ZNK10QtMobility14QOrganizerItem8commentsEv 0x00034aec   Data           0  qorganizeritem.o(.ARM.extab)
    .extab._ZN10QtMobility14QOrganizerItem13clearCommentsEv 0x00034b24   Data           0  qorganizeritem.o(.ARM.extab)
    .extab._ZN10QtMobility14QOrganizerItem10addCommentERK7QString 0x00034b54   Data           0  qorganizeritem.o(.ARM.extab)
    .extab._ZNK10QtMobility14QOrganizerItem4guidEv 0x00034b6c   Data           0  qorganizeritem.o(.ARM.extab)
    .extab._ZN10QtMobility14QOrganizerItem7setGuidERK7QString 0x00034b7c   Data           0  qorganizeritem.o(.ARM.extab)
    .extab._ZN10QtMobility14QOrganizerItemC1EPKc 0x00034b94   Data           0  qorganizeritem.o(.ARM.extab)
    .extab._ZN10QtMobility14QOrganizerItemC1ERKS0_PKc 0x00034bc4   Data           0  qorganizeritem.o(.ARM.extab)
    .extab._ZN10QtMobility14QOrganizerItem6assignERKS0_PKc 0x00034c14   Data           0  qorganizeritem.o(.ARM.extab)
    .extab._ZN10QtMobility5qHashERKNS_14QOrganizerItemE 0x00034c44   Data           0  qorganizeritem.o(.ARM.extab)
    .extab._ZN10QtMobilitylsE6QDebugRKNS_14QOrganizerItemE 0x00034c7c   Data           0  qorganizeritem.o(.ARM.extab)
    .extab._ZN10QtMobilitylsER11QDataStreamRKNS_14QOrganizerItemE 0x00034d0c   Data           0  qorganizeritem.o(.ARM.extab)
    .extab._ZN10QtMobilityrsER11QDataStreamRNS_14QOrganizerItemE 0x00034d6c   Data           0  qorganizeritem.o(.ARM.extab)
    .extab._ZN5QListIN10QtMobility20QOrganizerItemDetailEE9node_copyEPNS2_4NodeES4_S4_ 0x00034dc4   Data           0  qorganizeritem.o(.ARM.extab)
    .extab._ZN5QListIN10QtMobility20QOrganizerItemDetailEE13detach_helperEi 0x00034de8   Data           0  qorganizeritem.o(.ARM.extab)
    .extab._Z20qForeachContainerNewI5QListIN10QtMobility20QOrganizerItemDetailEEE17QForeachContainerIT_ERKS5_ 0x00034e04   Data           0  qorganizeritem.o(.ARM.extab)
    .extab._ZN5QListIN10QtMobility20QOrganizerItemDetailEE14node_constructEPNS2_4NodeERKS1_ 0x00034e14   Data           0  qorganizeritem.o(.ARM.extab)
    .extab._ZN5QListIN10QtMobility20QOrganizerItemDetailEE18detach_helper_growEii 0x00034e24   Data           0  qorganizeritem.o(.ARM.extab)
    .extab._ZN5QListIN10QtMobility20QOrganizerItemDetailEE6appendERKS1_ 0x00034e54   Data           0  qorganizeritem.o(.ARM.extab)
    .extab._ZN5QListIN10QtMobility20QOrganizerItemDetailEE5clearEv 0x00034e84   Data           0  qorganizeritem.o(.ARM.extab)
    .extab._ZrsIN10QtMobility20QOrganizerItemDetailEER11QDataStreamS3_R5QListIT_E 0x00034e94   Data           0  qorganizeritem.o(.ARM.extab)
    .extab._ZN5QListIN10QtMobility21QOrganizerItemCommentEE9node_copyEPNS2_4NodeES4_S4_ 0x00034ea4   Data           0  qorganizeritem.o(.ARM.extab)
    .extab._ZN5QListIN10QtMobility21QOrganizerItemCommentEE13detach_helperEi 0x00034ec8   Data           0  qorganizeritem.o(.ARM.extab)
    .extab._Z20qForeachContainerNewI5QListIN10QtMobility21QOrganizerItemCommentEEE17QForeachContainerIT_ERKS5_ 0x00034ee4   Data           0  qorganizeritem.o(.ARM.extab)
    .extab._ZN5QListIN10QtMobility21QOrganizerItemCommentEE14node_constructEPNS2_4NodeERKS1_ 0x00034ef4   Data           0  qorganizeritem.o(.ARM.extab)
    .extab._ZN5QListIN10QtMobility21QOrganizerItemCommentEE18detach_helper_growEii 0x00034f04   Data           0  qorganizeritem.o(.ARM.extab)
    .extab._ZN5QListIN10QtMobility21QOrganizerItemCommentEE6appendERKS1_ 0x00034f34   Data           0  qorganizeritem.o(.ARM.extab)
    .extab._ZN18QSharedDataPointerIN10QtMobility27QOrganizerItemDetailPrivateEE13detach_helperEv 0x00034f64   Data           0  qorganizeritem.o(.ARM.extab)
    .extab._ZN10QtMobility18QOrganizerItemType7setTypeERK7QString 0x00034f74   Data           0  qorganizeritem.o(.ARM.extab)
    .extab._ZN10QtMobility26QOrganizerItemDisplayLabel8setLabelERK7QString 0x00034f84   Data           0  qorganizeritem.o(.ARM.extab)
    .extab._ZN10QtMobility25QOrganizerItemDescription14setDescriptionERK7QString 0x00034f94   Data           0  qorganizeritem.o(.ARM.extab)
    .extab._ZN10QtMobility18QOrganizerItemDataD1Ev 0x00034fa4   Data           0  qorganizeritem.o(.ARM.extab)
    .extab._ZN18QSharedDataPointerIN10QtMobility18QOrganizerItemDataEE13detach_helperEv 0x00034fbc   Data           0  qorganizeritem.o(.ARM.extab)
    .extab._ZN10QtMobility18QOrganizerItemDataC1Ev 0x00034fdc   Data           0  qorganizeritem.o(.ARM.extab)
    .extab._ZNK10QtMobility14QOrganizerItem6detailINS_18QOrganizerItemTypeEEET_v 0x0003500c   Data           0  qorganizeritem.o(.ARM.extab)
    .extab._ZNK10QtMobility14QOrganizerItem6detailINS_26QOrganizerItemDisplayLabelEEET_v 0x0003501c   Data           0  qorganizeritem.o(.ARM.extab)
    .extab._ZNK10QtMobility14QOrganizerItem6detailINS_25QOrganizerItemDescriptionEEET_v 0x0003502c   Data           0  qorganizeritem.o(.ARM.extab)
    .extab._ZNK10QtMobility14QOrganizerItem7detailsINS_21QOrganizerItemCommentEEE5QListIT_Ev 0x0003503c   Data           0  qorganizeritem.o(.ARM.extab)
    .extab._ZNK10QtMobility14QOrganizerItem6detailINS_18QOrganizerItemGuidEEET_v 0x00035064   Data           0  qorganizeritem.o(.ARM.extab)
    .extab._ZN5QHashIN10QtMobility26QOrganizerItemStringHolderE8QVariantE11deleteNode2EPN9QHashData4NodeE 0x00035074   Data           0  qorganizeritem.o(.ARM.extab)
    .extab._ZN18QSharedDataPointerIN10QtMobility27QOrganizerItemDetailPrivateEE5cloneEv 0x00035084   Data           0  qorganizeritem.o(.ARM.extab)
    .extab._ZN10QtMobility20QOrganizerItemDetailC1Ev 0x0003509c   Data           0  qorganizeritemdetail.o(.ARM.extab)
    .extab._ZN10QtMobility20QOrganizerItemDetailC1EPKc 0x000350ac   Data           0  qorganizeritemdetail.o(.ARM.extab)
    .extab._ZN10QtMobility20QOrganizerItemDetailC1ERK7QString 0x000350bc   Data           0  qorganizeritemdetail.o(.ARM.extab)
    .extab._ZN10QtMobility20QOrganizerItemDetailC1ERKS0_PKc 0x000350cc   Data           0  qorganizeritemdetail.o(.ARM.extab)
    .extab._ZNK10QtMobility20QOrganizerItemDetaileqERKS0_ 0x000350ec   Data           0  qorganizeritemdetail.o(.ARM.extab)
    .extab._ZNK10QtMobility20QOrganizerItemDetail5valueERK7QString 0x00035114   Data           0  qorganizeritemdetail.o(.ARM.extab)
    .extab._ZN10QtMobility20QOrganizerItemDetail11removeValueERK7QString 0x00035134   Data           0  qorganizeritemdetail.o(.ARM.extab)
    .extab._ZN10QtMobility20QOrganizerItemDetail8setValueERK7QStringRK8QVariant 0x00035144   Data           0  qorganizeritemdetail.o(.ARM.extab)
    .extab._ZNK10QtMobility20QOrganizerItemDetail8hasValueERK7QString 0x00035154   Data           0  qorganizeritemdetail.o(.ARM.extab)
    .extab._ZNK10QtMobility20QOrganizerItemDetail13variantValuesEv 0x00035164   Data           0  qorganizeritemdetail.o(.ARM.extab)
    .extab._ZNK10QtMobility20QOrganizerItemDetail12variantValueERK7QString 0x00035184   Data           0  qorganizeritemdetail.o(.ARM.extab)
    .extab._ZNK10QtMobility20QOrganizerItemDetail5valueEPKc 0x00035194   Data           0  qorganizeritemdetail.o(.ARM.extab)
    .extab._ZN10QtMobility20QOrganizerItemDetail11removeValueEPKc 0x000351b4   Data           0  qorganizeritemdetail.o(.ARM.extab)
    .extab._ZN10QtMobility20QOrganizerItemDetail8setValueEPKcRK8QVariant 0x000351c4   Data           0  qorganizeritemdetail.o(.ARM.extab)
    .extab._ZNK10QtMobility20QOrganizerItemDetail8hasValueEPKc 0x000351d4   Data           0  qorganizeritemdetail.o(.ARM.extab)
    .extab._ZNK10QtMobility20QOrganizerItemDetail12variantValueEPKc 0x000351e4   Data           0  qorganizeritemdetail.o(.ARM.extab)
    .extab._ZN10QtMobility20QOrganizerItemDetailC1ERKS0_RK7QString 0x000351f4   Data           0  qorganizeritemdetail.o(.ARM.extab)
    .extab._ZN10QtMobility20QOrganizerItemDetail6assignERKS0_RK7QString 0x00035214   Data           0  qorganizeritemdetail.o(.ARM.extab)
    .extab._ZN10QtMobility20QOrganizerItemDetail6assignERKS0_PKc 0x00035224   Data           0  qorganizeritemdetail.o(.ARM.extab)
    .extab._ZN10QtMobility25qClearAllocatedStringHashEv 0x00035234   Data           0  qorganizeritemdetail.o(.ARM.extab)
    .extab._ZN10QtMobility5qHashERKNS_20QOrganizerItemDetailE 0x0003524c   Data           0  qorganizeritemdetail.o(.ARM.extab)
    .extab._ZN10QtMobilitylsE6QDebugRKNS_20QOrganizerItemDetailE 0x0003525c   Data           0  qorganizeritemdetail.o(.ARM.extab)
    .extab._ZN10QtMobilitylsER11QDataStreamRKNS_20QOrganizerItemDetailE 0x00035284   Data           0  qorganizeritemdetail.o(.ARM.extab)
    .extab._ZN10QtMobilityrsER11QDataStreamRNS_20QOrganizerItemDetailE 0x000352a4   Data           0  qorganizeritemdetail.o(.ARM.extab)
    .extab.__sti___24_qorganizeritemdetail_cpp 0x000352e4   Data           0  qorganizeritemdetail.o(.ARM.extab)
    .extab._ZN6QDebugD1Ev                    0x00035304   Data           0  qorganizeritemdetail.o(.ARM.extab)
    .extab._ZN9QHashNodeIN10QtMobility26QOrganizerItemStringHolderE8QVariantEC1ERKS1_RKS2_ 0x00035328   Data           0  qorganizeritemdetail.o(.ARM.extab)
    .extab._ZN10QtMobility27QOrganizerItemDetailPrivateC1Ev 0x00035338   Data           0  qorganizeritemdetail.o(.ARM.extab)
    .extab._ZN10QtMobility26QOrganizerItemStringHolderaSERK7QString 0x00035348   Data           0  qorganizeritemdetail.o(.ARM.extab)
    .extab._ZNK10QtMobility26QOrganizerItemStringHolder9toQStringEv 0x00035358   Data           0  qorganizeritemdetail.o(.ARM.extab)
    .extab._ZN5QHashIN10QtMobility26QOrganizerItemStringHolderE8QVariantE6insertERKS1_RKS2_ 0x00035378   Data           0  qorganizeritemdetail.o(.ARM.extab)
    .extab._ZN5QHashIN10QtMobility26QOrganizerItemStringHolderE8QVariantE6removeERKS1_ 0x00035390   Data           0  qorganizeritemdetail.o(.ARM.extab)
    .extab._ZN5QHashI7QStringPcE13duplicateNodeEPN9QHashData4NodeEPv 0x000353a4   Data           0  qorganizeritemdetail.o(.ARM.extab)
    .extab._ZN5QHashI7QStringPcE6insertERKS0_RKS1_ 0x000353b4   Data           0  qorganizeritemdetail.o(.ARM.extab)
    .extab._ZN5QHashIPKc7QStringE13duplicateNodeEPN9QHashData4NodeEPv 0x000353cc   Data           0  qorganizeritemdetail.o(.ARM.extab)
    .extab._ZN5QHashIPKc7QStringE6insertERKS1_RKS2_ 0x000353dc   Data           0  qorganizeritemdetail.o(.ARM.extab)
    .extab._ZN10QtMobility27QOrganizerItemDetailPrivateD1Ev 0x000353f4   Data           0  qorganizeritemdetail.o(.ARM.extab)
    .extab._ZN5QHashIN10QtMobility26QOrganizerItemStringHolderE8QVariantE13duplicateNodeEPN9QHashData4NodeEPv 0x00035404   Data           0  qorganizeritemdetail.o(.ARM.extab)
    .extab._ZN10QtMobility30QOrganizerItemDetailDefinitionC1Ev 0x00035414   Data           0  qorganizeritemdetaildefinition.o(.ARM.extab)
    .extab._ZN10QtMobilitylsER11QDataStreamRKNS_30QOrganizerItemDetailDefinitionE 0x0003542c   Data           0  qorganizeritemdetaildefinition.o(.ARM.extab)
    .extab._ZN10QtMobilityrsER11QDataStreamRNS_30QOrganizerItemDetailDefinitionE 0x0003544c   Data           0  qorganizeritemdetaildefinition.o(.ARM.extab)
    .extab._ZN4QMapI7QStringN10QtMobility35QOrganizerItemDetailFieldDefinitionEE11node_createEP8QMapDataPPNS4_4NodeERKS0_RKS2_ 0x0003546c   Data           0  qorganizeritemdetaildefinition.o(.ARM.extab)
    .extab._ZN4QMapI7QStringN10QtMobility35QOrganizerItemDetailFieldDefinitionEE13detach_helperEv 0x000354b8   Data           0  qorganizeritemdetaildefinition.o(.ARM.extab)
    .extab._ZN4QMapI7QStringN10QtMobility35QOrganizerItemDetailFieldDefinitionEE5clearEv 0x000354d4   Data           0  qorganizeritemdetaildefinition.o(.ARM.extab)
    .extab._ZrsI7QStringN10QtMobility35QOrganizerItemDetailFieldDefinitionEER11QDataStreamS4_R4QMapIT_T0_E 0x000354e4   Data           0  qorganizeritemdetaildefinition.o(.ARM.extab)
    .extab._ZN18QSharedDataPointerIN10QtMobility34QOrganizerItemDetailDefinitionDataEE13detach_helperEv 0x00035504   Data           0  qorganizeritemdetaildefinition.o(.ARM.extab)
    .extab._ZN10QtMobility34QOrganizerItemDetailDefinitionDataD1Ev 0x0003551c   Data           0  qorganizeritemdetaildefinition.o(.ARM.extab)
    .extab._ZN10QtMobility35QOrganizerItemDetailFieldDefinitionC1Ev 0x0003552c   Data           0  qorganizeritemdetailfielddefinition.o(.ARM.extab)
    .extab._ZN10QtMobilitylsER11QDataStreamRKNS_35QOrganizerItemDetailFieldDefinitionE 0x0003553c   Data           0  qorganizeritemdetailfielddefinition.o(.ARM.extab)
    .extab._ZN10QtMobilityrsER11QDataStreamRNS_35QOrganizerItemDetailFieldDefinitionE 0x0003554c   Data           0  qorganizeritemdetailfielddefinition.o(.ARM.extab)
    .extab._ZN5QListI8QVariantE14node_constructEPNS1_4NodeERKS0_ 0x0003556c   Data           0  qorganizeritemdetailfielddefinition.o(.ARM.extab)
    .extab._ZN5QListI8QVariantE9node_copyEPNS1_4NodeES3_S3_ 0x0003557c   Data           0  qorganizeritemdetailfielddefinition.o(.ARM.extab)
    .extab._ZN5QListI8QVariantE18detach_helper_growEii 0x000355a0   Data           0  qorganizeritemdetailfielddefinition.o(.ARM.extab)
    .extab._ZN5QListI8QVariantE6appendERKS0_ 0x000355d0   Data           0  qorganizeritemdetailfielddefinition.o(.ARM.extab)
    .extab._ZN5QListI8QVariantE13detach_helperEi 0x00035600   Data           0  qorganizeritemdetailfielddefinition.o(.ARM.extab)
    .extab._ZN5QListI8QVariantE5clearEv      0x0003561c   Data           0  qorganizeritemdetailfielddefinition.o(.ARM.extab)
    .extab._ZrsI8QVariantER11QDataStreamS2_R5QListIT_E 0x0003562c   Data           0  qorganizeritemdetailfielddefinition.o(.ARM.extab)
    .extab._ZN18QSharedDataPointerIN10QtMobility42QOrganizerItemDetailFieldDefinitionPrivateEE13detach_helperEv 0x0003563c   Data           0  qorganizeritemdetailfielddefinition.o(.ARM.extab)
    .extab._ZN10QtMobility23QOrganizerItemFetchHintC1Ev 0x0003564c   Data           0  qorganizeritemfetchhint.o(.ARM.extab)
    .extab._ZN10QtMobilitylsER11QDataStreamRKNS_23QOrganizerItemFetchHintE 0x0003565c   Data           0  qorganizeritemfetchhint.o(.ARM.extab)
    .extab._ZN10QtMobilityrsER11QDataStreamRNS_23QOrganizerItemFetchHintE 0x0003566c   Data           0  qorganizeritemfetchhint.o(.ARM.extab)
    .extab._ZN5QListI7QStringE5clearEv       0x0003567c   Data           0  qorganizeritemfetchhint.o(.ARM.extab)
    .extab._ZrsI7QStringER11QDataStreamS2_R5QListIT_E 0x0003568c   Data           0  qorganizeritemfetchhint.o(.ARM.extab)
    .extab._ZN18QSharedDataPointerIN10QtMobility30QOrganizerItemFetchHintPrivateEE13detach_helperEv 0x0003569c   Data           0  qorganizeritemfetchhint.o(.ARM.extab)
    .extab._ZN10QtMobilityrsER11QDataStreamRNS_20QOrganizerItemFilterE 0x000356ac   Data           0  qorganizeritemfilter.o(.ARM.extab)
    .extab._ZN10QtMobilityanERKNS_20QOrganizerItemFilterES2_ 0x000356f4   Data           0  qorganizeritemfilter.o(.ARM.extab)
    .extab._ZN10QtMobilityorERKNS_20QOrganizerItemFilterES2_ 0x00035704   Data           0  qorganizeritemfilter.o(.ARM.extab)
    .extab._ZNK10QtMobility16QOrganizerItemIdeqERKS0_ 0x00035724   Data           0  qorganizeritemid.o(.ARM.extab)
    .extab._ZNK10QtMobility16QOrganizerItemIdltERKS0_ 0x00035744   Data           0  qorganizeritemid.o(.ARM.extab)
    .extab._ZNK10QtMobility16QOrganizerItemId10managerUriEv 0x0003577c   Data           0  qorganizeritemid.o(.ARM.extab)
    .extab._ZNK10QtMobility16QOrganizerItemId8toStringEv 0x0003579c   Data           0  qorganizeritemid.o(.ARM.extab)
    .extab._ZN10QtMobility16QOrganizerItemId10fromStringERK7QString 0x000357ec   Data           0  qorganizeritemid.o(.ARM.extab)
    .extab._ZN10QtMobilitylsER11QDataStreamRKNS_16QOrganizerItemIdE 0x00035834   Data           0  qorganizeritemid.o(.ARM.extab)
    .extab._ZN10QtMobilityrsER11QDataStreamRNS_16QOrganizerItemIdE 0x00035844   Data           0  qorganizeritemid.o(.ARM.extab)
    .extab._ZN10QtMobility17QOrganizerManagerC1ERK7QStringRK4QMapIS1_S1_EP7QObject 0x00035864   Data           0  qorganizermanager.o(.ARM.extab)
    .extab._ZN10QtMobility17QOrganizerManagerC1ERK7QStringiRK4QMapIS1_S1_EP7QObject 0x00035884   Data           0  qorganizermanager.o(.ARM.extab)
    .extab._ZN10QtMobility17QOrganizerManagerC1EP7QObject 0x000358dc   Data           0  qorganizermanager.o(.ARM.extab)
    .extab._ZN10QtMobility17QOrganizerManager8parseUriERK7QStringPS1_P4QMapIS1_S1_E 0x0003591c   Data           0  qorganizermanager.o(.ARM.extab)
    .extab._ZN10QtMobility17QOrganizerManager7fromUriERK7QStringP7QObject 0x00035ae4   Data           0  qorganizermanager.o(.ARM.extab)
    .extab._ZN10QtMobility17QOrganizerManagerD1Ev 0x00035b6c   Data           0  qorganizermanager.o(.ARM.extab)
    .extab._ZNK10QtMobility17QOrganizerManager17managerParametersEv 0x00035b84   Data           0  qorganizermanager.o(.ARM.extab)
    .extab._ZN10QtMobility17QOrganizerManager8buildUriERK7QStringRK4QMapIS1_S1_Ei 0x00035bb4   Data           0  qorganizermanager.o(.ARM.extab)
    .extab._ZNK10QtMobility17QOrganizerManager7itemIdsERKNS_20QOrganizerItemFilterERK5QListINS_23QOrganizerItemSortOrderEE 0x00035c84   Data           0  qorganizermanager.o(.ARM.extab)
    .extab._ZNK10QtMobility17QOrganizerManager5itemsERKNS_20QOrganizerItemFilterERK5QListINS_23QOrganizerItemSortOrderEERKNS_23QOrganizerItemFetchHintE 0x00035ca4   Data           0  qorganizermanager.o(.ARM.extab)
    .extab._ZNK10QtMobility17QOrganizerManager17detailDefinitionsERK7QString 0x00035cc4   Data           0  qorganizermanager.o(.ARM.extab)
    .extab._ZNK10QtMobility17QOrganizerManager16detailDefinitionERK7QStringS3_ 0x00035cd4   Data           0  qorganizermanager.o(.ARM.extab)
    .extab._ZN10QtMobility17QOrganizerManager20saveDetailDefinitionERKNS_30QOrganizerItemDetailDefinitionERK7QString 0x00035ce4   Data           0  qorganizermanager.o(.ARM.extab)
    .extab._ZN10QtMobility17QOrganizerManager22removeDetailDefinitionERK7QStringS3_ 0x00035cf4   Data           0  qorganizermanager.o(.ARM.extab)
    .extab._ZN10QtMobility17QOrganizerManager17availableManagersEv 0x00035d04   Data           0  qorganizermanager.o(.ARM.extab)
    .extab._ZN10QtMobility17QOrganizerManager10extractIdsERK5QListINS_14QOrganizerItemEE 0x00035d9c   Data           0  qorganizermanager.o(.ARM.extab)
    .extab._ZplRK7QStringS1_                 0x00035dd4   Data           0  qorganizermanager.o(.ARM.extab)
    .extab._ZN5QListI7QStringEpLERKS1_       0x00035de4   Data           0  qorganizermanager.o(.ARM.extab)
    .extab._ZN5QListI7QStringE9removeAllERKS0_ 0x00035e00   Data           0  qorganizermanager.o(.ARM.extab)
    .extab._ZN4QMapIiN10QtMobility17QOrganizerManager5ErrorEE5clearEv 0x00035e10   Data           0  qorganizermanager.o(.ARM.extab)
    .extab._ZNK10QtMobility23QOrganizerManagerEngine10managerUriEv 0x00035e20   Data           0  qorganizermanagerengine.o(.ARM.extab)
    .extab._ZN10QtMobility23QOrganizerManagerEngine8saveItemEPNS_14QOrganizerItemEPNS_17QOrganizerManager5ErrorE 0x00035e40   Data           0  qorganizermanagerengine.o(.ARM.extab)
    .extab._ZN10QtMobility23QOrganizerManagerEngine10removeItemERKNS_16QOrganizerItemIdEPNS_17QOrganizerManager5ErrorE 0x00035e70   Data           0  qorganizermanagerengine.o(.ARM.extab)
    .extab._ZNK10QtMobility23QOrganizerManagerEngine14compatibleItemERKNS_14QOrganizerItemEPNS_17QOrganizerManager5ErrorE 0x00035e90   Data           0  qorganizermanagerengine.o(.ARM.extab)
    .extab._ZNK10QtMobility23QOrganizerManagerEngine12validateItemERKNS_14QOrganizerItemEPNS_17QOrganizerManager5ErrorE 0x00036030   Data           0  qorganizermanagerengine.o(.ARM.extab)
    .extab._ZNK10QtMobility23QOrganizerManagerEngine18validateDefinitionERKNS_30QOrganizerItemDetailDefinitionEPNS_17QOrganizerManager5ErrorE 0x00036258   Data           0  qorganizermanagerengine.o(.ARM.extab)
    .extab._ZNK10QtMobility23QOrganizerManagerEngine16detailDefinitionERK7QStringS3_PNS_17QOrganizerManager5ErrorE 0x000362a8   Data           0  qorganizermanagerengine.o(.ARM.extab)
    .extab._ZNK10QtMobility23QOrganizerManagerEngine18supportedItemTypesEv 0x000362c0   Data           0  qorganizermanagerengine.o(.ARM.extab)
    .extab._ZN10QtMobility23QOrganizerManagerEngine17schemaDefinitionsEi 0x00036340   Data           0  qorganizermanagerengine.o(.ARM.extab)
    .extab._ZN10QtMobility23QOrganizerManagerEngine18updateRequestStateEPNS_25QOrganizerAbstractRequestENS1_5StateE 0x00038448   Data           0  qorganizermanagerengine.o(.ARM.extab)
    .extab._ZN10QtMobility23QOrganizerManagerEngine32updateItemOccurrenceFetchRequestEPNS_36QOrganizerItemOccurrenceFetchRequestERK5QListINS_14QOrganizerItemEENS_17QOrganizerManager5ErrorENS_25QOrganizerAbstractRequest5StateE 0x00038458   Data           0  qorganizermanagerengine.o(.ARM.extab)
    .extab._ZN10QtMobility23QOrganizerManagerEngine24updateItemIdFetchRequestEPNS_28QOrganizerItemIdFetchRequestERK5QListINS_16QOrganizerItemIdEENS_17QOrganizerManager5ErrorENS_25QOrganizerAbstractRequest5StateE 0x00038478   Data           0  qorganizermanagerengine.o(.ARM.extab)
    .extab._ZN10QtMobility23QOrganizerManagerEngine22updateItemFetchRequestEPNS_26QOrganizerItemFetchRequestERK5QListINS_14QOrganizerItemEENS_17QOrganizerManager5ErrorENS_25QOrganizerAbstractRequest5StateE 0x00038498   Data           0  qorganizermanagerengine.o(.ARM.extab)
    .extab._ZN10QtMobility23QOrganizerManagerEngine31updateItemFetchForExportRequestEPNS_35QOrganizerItemFetchForExportRequestERK5QListINS_14QOrganizerItemEENS_17QOrganizerManager5ErrorENS_25QOrganizerAbstractRequest5StateE 0x000384b8   Data           0  qorganizermanagerengine.o(.ARM.extab)
    .extab._ZN10QtMobility23QOrganizerManagerEngine23updateItemRemoveRequestEPNS_27QOrganizerItemRemoveRequestENS_17QOrganizerManager5ErrorERK4QMapIiS4_ENS_25QOrganizerAbstractRequest5StateE 0x000384d8   Data           0  qorganizermanagerengine.o(.ARM.extab)
    .extab._ZN10QtMobility23QOrganizerManagerEngine21updateItemSaveRequestEPNS_25QOrganizerItemSaveRequestERK5QListINS_14QOrganizerItemEENS_17QOrganizerManager5ErrorERK4QMapIiS9_ENS_25QOrganizerAbstractRequest5StateE 0x000384f8   Data           0  qorganizermanagerengine.o(.ARM.extab)
    .extab._ZN10QtMobility23QOrganizerManagerEngine27updateDefinitionSaveRequestEPNS_41QOrganizerItemDetailDefinitionSaveRequestERK5QListINS_30QOrganizerItemDetailDefinitionEENS_17QOrganizerManager5ErrorERK4QMapIiS9_ENS_25QOrganizerAbstractRequest5StateE 0x00038518   Data           0  qorganizermanagerengine.o(.ARM.extab)
    .extab._ZN10QtMobility23QOrganizerManagerEngine29updateDefinitionRemoveRequestEPNS_43QOrganizerItemDetailDefinitionRemoveRequestENS_17QOrganizerManager5ErrorERK4QMapIiS4_ENS_25QOrganizerAbstractRequest5StateE 0x00038538   Data           0  qorganizermanagerengine.o(.ARM.extab)
    .extab._ZN10QtMobility23QOrganizerManagerEngine28updateDefinitionFetchRequestEPNS_42QOrganizerItemDetailDefinitionFetchRequestERK4QMapI7QStringNS_30QOrganizerItemDetailDefinitionEENS_17QOrganizerManager5ErrorERKS3_IiSA_ENS_25QOrganizerAbstractRequest5StateE 0x00038558   Data           0  qorganizermanagerengine.o(.ARM.extab)
    .extab._ZN10QtMobility23QOrganizerManagerEngine28updateCollectionFetchRequestEPNS_32QOrganizerCollectionFetchRequestERK5QListINS_20QOrganizerCollectionEENS_17QOrganizerManager5ErrorENS_25QOrganizerAbstractRequest5StateE 0x00038578   Data           0  qorganizermanagerengine.o(.ARM.extab)
    .extab._ZN10QtMobility23QOrganizerManagerEngine29updateCollectionRemoveRequestEPNS_33QOrganizerCollectionRemoveRequestENS_17QOrganizerManager5ErrorERK4QMapIiS4_ENS_25QOrganizerAbstractRequest5StateE 0x00038598   Data           0  qorganizermanagerengine.o(.ARM.extab)
    .extab._ZN10QtMobility23QOrganizerManagerEngine27updateCollectionSaveRequestEPNS_31QOrganizerCollectionSaveRequestERK5QListINS_20QOrganizerCollectionEENS_17QOrganizerManager5ErrorERK4QMapIiS9_ENS_25QOrganizerAbstractRequest5StateE 0x000385b8   Data           0  qorganizermanagerengine.o(.ARM.extab)
    .extab._ZN10QtMobility23QOrganizerManagerEngine18isItemBetweenDatesERKNS_14QOrganizerItemERK9QDateTimeS6_ 0x000385d8   Data           0  qorganizermanagerengine.o(.ARM.extab)
    .extab._ZN10QtMobility23QOrganizerManagerEngine14compareVariantERK8QVariantS3_N2Qt15CaseSensitivityE 0x00038740   Data           0  qorganizermanagerengine.o(.ARM.extab)
    .extab._ZN10QtMobility23QOrganizerManagerEngine11compareItemERKNS_14QOrganizerItemES3_RK5QListINS_23QOrganizerItemSortOrderEE 0x00038778   Data           0  qorganizermanagerengine.o(.ARM.extab)
    .extab._ZN10QtMobility23QOrganizerManagerEngine9addSortedEP5QListINS_14QOrganizerItemEERKS2_RKS1_INS_23QOrganizerItemSortOrderEE 0x000388d0   Data           0  qorganizermanagerengine.o(.ARM.extab)
    .extab._ZN10QtMobility23QOrganizerManagerEngine10testFilterERKNS_20QOrganizerItemFilterERKNS_14QOrganizerItemE 0x00038900   Data           0  qorganizermanagerengine.o(.ARM.extab)
    .extab._ZN10QtMobility23QOrganizerManagerEngine19canonicalizedFilterERKNS_20QOrganizerItemFilterE 0x00038e70   Data           0  qorganizermanagerengine.o(.ARM.extab)
    .extab._Z24qMetaTypeConstructHelperIN10QtMobility16QOrganizerItemIdEEPvPKT_ 0x00039090   Data           0  qorganizermanagerengine.o(.ARM.extab)
    .extab._ZN5QListIN10QtMobility23QOrganizerItemSortOrderEE13detach_helperEi 0x000390a8   Data           0  qorganizermanagerengine.o(.ARM.extab)
    .extab._ZN4QMapI7QStringN10QtMobility30QOrganizerItemDetailDefinitionEE11node_createEP8QMapDataPPNS4_4NodeERKS0_RKS2_ 0x000390ec   Data           0  qorganizermanagerengine.o(.ARM.extab)
    .extab._ZN4QMapI7QStringN10QtMobility30QOrganizerItemDetailDefinitionEE13detach_helperEv 0x00039138   Data           0  qorganizermanagerengine.o(.ARM.extab)
    .extab._ZN4QMapI7QStringS_IS0_N10QtMobility30QOrganizerItemDetailDefinitionEEE13detach_helperEv 0x00039154   Data           0  qorganizermanagerengine.o(.ARM.extab)
    .extab._ZN5QListIN10QtMobility14QOrganizerItemEE14node_constructEPNS2_4NodeERKS1_ 0x00039170   Data           0  qorganizermanagerengine.o(.ARM.extab)
    .extab._ZN5QListIN10QtMobility14QOrganizerItemEE9node_copyEPNS2_4NodeES4_S4_ 0x00039180   Data           0  qorganizermanagerengine.o(.ARM.extab)
    .extab._ZN5QListIN10QtMobility14QOrganizerItemEE18detach_helper_growEii 0x000391a4   Data           0  qorganizermanagerengine.o(.ARM.extab)
    .extab._ZN5QListIN10QtMobility14QOrganizerItemEE6appendERKS1_ 0x000391d4   Data           0  qorganizermanagerengine.o(.ARM.extab)
    .extab._ZN4QMapI7QStringN10QtMobility30QOrganizerItemDetailDefinitionEE5clearEv 0x00039204   Data           0  qorganizermanagerengine.o(.ARM.extab)
    .extab._ZN5QListIN10QtMobility14QOrganizerItemEE13detach_helperEi 0x00039214   Data           0  qorganizermanagerengine.o(.ARM.extab)
    .extab._ZN10QtMobility32QOrganizerItemSaveRequestPrivateD1Ev 0x00039230   Data           0  qorganizermanagerengine.o(.ARM.extab)
    .extab._ZN10QtMobility33QOrganizerItemFetchRequestPrivateD1Ev 0x00039248   Data           0  qorganizermanagerengine.o(.ARM.extab)
    .extab._ZN10QtMobility42QOrganizerItemFetchForExportRequestPrivateD1Ev 0x00039280   Data           0  qorganizermanagerengine.o(.ARM.extab)
    .extab._ZN10QtMobility43QOrganizerItemOccurrenceFetchRequestPrivateD1Ev 0x000392b8   Data           0  qorganizermanagerengine.o(.ARM.extab)
    .extab._ZN10QtMobility34QOrganizerItemRemoveRequestPrivateD1Ev 0x000392e8   Data           0  qorganizermanagerengine.o(.ARM.extab)
    .extab._ZN10QtMobility35QOrganizerItemIdFetchRequestPrivateD1Ev 0x00039300   Data           0  qorganizermanagerengine.o(.ARM.extab)
    .extab._ZN10QtMobility49QOrganizerItemDetailDefinitionFetchRequestPrivateD1Ev 0x00039330   Data           0  qorganizermanagerengine.o(.ARM.extab)
    .extab._ZN10QtMobility48QOrganizerItemDetailDefinitionSaveRequestPrivateD1Ev 0x00039360   Data           0  qorganizermanagerengine.o(.ARM.extab)
    .extab._ZN10QtMobility50QOrganizerItemDetailDefinitionRemoveRequestPrivateD1Ev 0x00039388   Data           0  qorganizermanagerengine.o(.ARM.extab)
    .extab._ZN10QtMobility40QOrganizerCollectionRemoveRequestPrivateD1Ev 0x000393b0   Data           0  qorganizermanagerengine.o(.ARM.extab)
    .extab._ZN10QtMobility38QOrganizerCollectionSaveRequestPrivateD1Ev 0x000393c8   Data           0  qorganizermanagerengine.o(.ARM.extab)
    .extab._ZN10QtMobility24QOrganizerRecurrenceRuleC1Ev 0x000393e0   Data           0  qorganizerrecurrencerule.o(.ARM.extab)
    .extab._ZN10QtMobility5qHashERKNS_24QOrganizerRecurrenceRuleE 0x000393f0   Data           0  qorganizerrecurrencerule.o(.ARM.extab)
    .extab._Z20qForeachContainerNewI4QSetIiEE17QForeachContainerIT_ERKS3_ 0x00039468   Data           0  qorganizerrecurrencerule.o(.ARM.extab)
    .extab._ZN10QtMobility31QOrganizerRecurrenceRulePrivateD1Ev 0x00039478   Data           0  qorganizerrecurrencerule.o(.ARM.extab)
    .extab._ZN18QSharedDataPointerIN10QtMobility31QOrganizerRecurrenceRulePrivateEE13detach_helperEv 0x000394a8   Data           0  qorganizerrecurrencerule.o(.ARM.extab)
    .extab._ZN10QtMobility31QOrganizerRecurrenceRulePrivateC1Ev 0x000394b8   Data           0  qorganizerrecurrencerule.o(.ARM.extab)
    .extab._ZN10QtMobility31QOrganizerRecurrenceRulePrivateC1ERKS0_ 0x000394e8   Data           0  qorganizerrecurrencerule.o(.ARM.extab)
    .extab._ZN10QtMobility23QOrganizerItemSortOrderC1Ev 0x00039518   Data           0  qorganizeritemsortorder.o(.ARM.extab)
    .extab._ZN10QtMobilitylsER11QDataStreamRKNS_23QOrganizerItemSortOrderE 0x00039530   Data           0  qorganizeritemsortorder.o(.ARM.extab)
    .extab._ZN10QtMobilityrsER11QDataStreamRNS_23QOrganizerItemSortOrderE 0x00039550   Data           0  qorganizeritemsortorder.o(.ARM.extab)
    .extab._ZN7QString5clearEv               0x00039570   Data           0  qorganizeritemsortorder.o(.ARM.extab)
    .extab._ZN18QSharedDataPointerIN10QtMobility30QOrganizerItemSortOrderPrivateEE13detach_helperEv 0x00039580   Data           0  qorganizeritemsortorder.o(.ARM.extab)
    .extab._ZN10QtMobility30QOrganizerItemSortOrderPrivateD1Ev 0x00039598   Data           0  qorganizeritemsortorder.o(.ARM.extab)
    .extab._ZN10QtMobility17qSymbian_CheckDirERK4QDirR3RFs 0x000395a8   Data           0  qorganizermanager_p.o(.ARM.extab)
    .extab._ZN10QtMobility27qOrganizerItemsCleanEnginesEv 0x000395c0   Data           0  qorganizermanager_p.o(.ARM.extab)
    .extab._ZN10QtMobility21QOrganizerManagerData19loadStaticFactoriesEv 0x000395d8   Data           0  qorganizermanager_p.o(.ARM.extab)
    .extab._ZN10QtMobility21QOrganizerManagerData13loadFactoriesEv 0x00039628   Data           0  qorganizermanager_p.o(.ARM.extab)
    .extab._ZN10QtMobility14parameterValueERK4QMapI7QStringS1_EPKci 0x00039790   Data           0  qorganizermanager_p.o(.ARM.extab)
    .extab._ZN10QtMobility21QOrganizerManagerData12createEngineERK7QStringRK4QMapIS1_S1_E 0x000397b8   Data           0  qorganizermanager_p.o(.ARM.extab)
    .extab._ZN10QtMobility21QOrganizerManagerData18createEngineItemIdERK7QStringRK4QMapIS1_S1_ES3_ 0x00039828   Data           0  qorganizermanager_p.o(.ARM.extab)
    .extab._ZN10QtMobility21QOrganizerManagerData24createEngineCollectionIdERK7QStringRK4QMapIS1_S1_ES3_ 0x00039838   Data           0  qorganizermanager_p.o(.ARM.extab)
    .extab.__sti___23_qorganizermanager_p_cpp 0x00039848   Data           0  qorganizermanager_p.o(.ARM.extab)
    .extab._Z8qWarningv                      0x00039860   Data           0  qorganizermanager_p.o(.ARM.extab)
    .extab._ZN5QListIPN10QtMobility30QOrganizerManagerEngineFactoryEE13detach_helperEi 0x00039878   Data           0  qorganizermanager_p.o(.ARM.extab)
    .extab._Z20qForeachContainerNewI5QListIPN10QtMobility30QOrganizerManagerEngineFactoryEEE17QForeachContainerIT_ERKS6_ 0x00039894   Data           0  qorganizermanager_p.o(.ARM.extab)
    .extab._ZN5QListIiE13detach_helperEi     0x000398a4   Data           0  qorganizermanager_p.o(.ARM.extab)
    .extab._ZNK5QHashI7QStringPN10QtMobility30QOrganizerManagerEngineFactoryEE4keysEv 0x000398c0   Data           0  qorganizermanager_p.o(.ARM.extab)
    .extab._ZN5QListIPN10QtMobility30QOrganizerManagerEngineFactoryEE18detach_helper_growEii 0x000398d0   Data           0  qorganizermanager_p.o(.ARM.extab)
    .extab._ZN5QListIPN10QtMobility30QOrganizerManagerEngineFactoryEE6appendERKS2_ 0x00039900   Data           0  qorganizermanager_p.o(.ARM.extab)
    .extab._ZNK5QHashI7QStringPN10QtMobility30QOrganizerManagerEngineFactoryEE6valuesEv 0x0003991c   Data           0  qorganizermanager_p.o(.ARM.extab)
    .extab._ZNK5QHashI7QStringPN10QtMobility30QOrganizerManagerEngineFactoryEE6valuesERKS0_ 0x0003992c   Data           0  qorganizermanager_p.o(.ARM.extab)
    .extab._ZN5QHashI7QStringPN10QtMobility30QOrganizerManagerEngineFactoryEE11insertMultiERKS0_RKS3_ 0x0003993c   Data           0  qorganizermanager_p.o(.ARM.extab)
    .extab._ZN10QtMobility15mobilityPluginsERK7QString 0x00039954   Data           0  qorganizermanager_p.o(.ARM.extab)
    .extab._ZN5QHashI7QString15QHashDummyValueE13duplicateNodeEPN9QHashData4NodeEPv 0x00039a6c   Data           0  qorganizermanager_p.o(.ARM.extab)
    .extab._ZN5QHashI7QStringPN10QtMobility30QOrganizerManagerEngineFactoryEE13duplicateNodeEPN9QHashData4NodeEPv 0x00039a7c   Data           0  qorganizermanager_p.o(.ARM.extab)
    .extab._ZN5QHashI7QString15QHashDummyValueE6insertERKS0_RKS1_ 0x00039a8c   Data           0  qorganizermanager_p.o(.ARM.extab)
    .extab._ZN10QtMobility26QOrganizerItemDisplayLabel5matchERK7QString 0x00039a9c   Data           0  qorganizeritemdetails.o(.ARM.extab)
    .extab._ZN10QtMobility21QOrganizerItemComment5matchERK7QString 0x00039adc   Data           0  qorganizeritemdetails.o(.ARM.extab)
    .extab._ZN10QtMobility22QOrganizerItemLocation5matchERK7QString 0x00039b1c   Data           0  qorganizeritemdetails.o(.ARM.extab)
    .extab._ZN10QtMobility22QOrganizerItemPriority5matchENS0_8PriorityE 0x00039b5c   Data           0  qorganizeritemdetails.o(.ARM.extab)
    .extab._ZN10QtMobility24QOrganizerItemRecurrence18setRecurrenceRulesERK4QSetINS_24QOrganizerRecurrenceRuleEE 0x00039b9c   Data           0  qorganizeritemdetails.o(.ARM.extab)
    .extab._ZNK10QtMobility24QOrganizerItemRecurrence15recurrenceRulesEv 0x00039bac   Data           0  qorganizeritemdetails.o(.ARM.extab)
    .extab._ZN10QtMobility24QOrganizerItemRecurrence18setRecurrenceDatesERK4QSetI5QDateE 0x00039bbc   Data           0  qorganizeritemdetails.o(.ARM.extab)
    .extab._ZNK10QtMobility24QOrganizerItemRecurrence15recurrenceDatesEv 0x00039bcc   Data           0  qorganizeritemdetails.o(.ARM.extab)
    .extab._ZN10QtMobility24QOrganizerItemRecurrence17setExceptionRulesERK4QSetINS_24QOrganizerRecurrenceRuleEE 0x00039bdc   Data           0  qorganizeritemdetails.o(.ARM.extab)
    .extab._ZNK10QtMobility24QOrganizerItemRecurrence14exceptionRulesEv 0x00039bec   Data           0  qorganizeritemdetails.o(.ARM.extab)
    .extab._ZN10QtMobility24QOrganizerItemRecurrence17setExceptionDatesERK4QSetI5QDateE 0x00039bfc   Data           0  qorganizeritemdetails.o(.ARM.extab)
    .extab._ZNK10QtMobility24QOrganizerItemRecurrence14exceptionDatesEv 0x00039c0c   Data           0  qorganizeritemdetails.o(.ARM.extab)
    .extab._ZNK10QtMobility24QOrganizerItemRecurrenceeqERKS0_ 0x00039c1c   Data           0  qorganizeritemdetails.o(.ARM.extab)
    .extab._ZN10QtMobility17QOrganizerItemTag5matchERK7QString 0x00039c9c   Data           0  qorganizeritemdetails.o(.ARM.extab)
    .extab._ZNK10QtMobility22QOrganizerItemReminder12reminderTypeEv 0x00039cdc   Data           0  qorganizeritemdetails.o(.ARM.extab)
    .extab._Z24qMetaTypeConstructHelperI4QSetIN10QtMobility24QOrganizerRecurrenceRuleEEEPvPKT_ 0x00039cfc   Data           0  qorganizeritemdetails.o(.ARM.extab)
    .extab._Z24qMetaTypeConstructHelperI4QSetI5QDateEEPvPKT_ 0x00039d14   Data           0  qorganizeritemdetails.o(.ARM.extab)
    .extab._ZNK8QVariant5valueI4QSetI5QDateEEET_v 0x00039d2c   Data           0  qorganizeritemdetails.o(.ARM.extab)
    .extab._ZNK8QVariant5valueI4QSetIN10QtMobility24QOrganizerRecurrenceRuleEEEET_v 0x00039d3c   Data           0  qorganizeritemdetails.o(.ARM.extab)
    .extab._ZN10QtMobility28QOrganizerItemMemoryEngineIdC1Ev 0x00039d4c   Data           0  qorganizeritemmemorybackend.o(.ARM.extab)
    .extab._ZN10QtMobility28QOrganizerItemMemoryEngineIdC1EjjRK7QString 0x00039d5c   Data           0  qorganizeritemmemorybackend.o(.ARM.extab)
    .extab._ZN10QtMobility28QOrganizerItemMemoryEngineIdD1Ev 0x00039d6c   Data           0  qorganizeritemmemorybackend.o(.ARM.extab)
    .extab._ZN10QtMobility28QOrganizerItemMemoryEngineIdC1ERKS0_ 0x00039d7c   Data           0  qorganizeritemmemorybackend.o(.ARM.extab)
    .extab._ZN10QtMobility28QOrganizerItemMemoryEngineIdC1ERK7QString 0x00039d8c   Data           0  qorganizeritemmemorybackend.o(.ARM.extab)
    .extab._ZNK10QtMobility28QOrganizerItemMemoryEngineId5cloneEv 0x00039dd4   Data           0  qorganizeritemmemorybackend.o(.ARM.extab)
    .extab._ZNK10QtMobility28QOrganizerItemMemoryEngineId8toStringEv 0x00039de4   Data           0  qorganizeritemmemorybackend.o(.ARM.extab)
    .extab._ZN10QtMobility34QOrganizerCollectionMemoryEngineIdC1Ev 0x00039e0c   Data           0  qorganizeritemmemorybackend.o(.ARM.extab)
    .extab._ZN10QtMobility34QOrganizerCollectionMemoryEngineIdC1EjRK7QString 0x00039e1c   Data           0  qorganizeritemmemorybackend.o(.ARM.extab)
    .extab._ZN10QtMobility34QOrganizerCollectionMemoryEngineIdD1Ev 0x00039e2c   Data           0  qorganizeritemmemorybackend.o(.ARM.extab)
    .extab._ZN10QtMobility34QOrganizerCollectionMemoryEngineIdC1ERKS0_ 0x00039e3c   Data           0  qorganizeritemmemorybackend.o(.ARM.extab)
    .extab._ZN10QtMobility34QOrganizerCollectionMemoryEngineIdC1ERK7QString 0x00039e4c   Data           0  qorganizeritemmemorybackend.o(.ARM.extab)
    .extab._ZNK10QtMobility34QOrganizerCollectionMemoryEngineId5cloneEv 0x00039e84   Data           0  qorganizeritemmemorybackend.o(.ARM.extab)
    .extab._ZNK10QtMobility34QOrganizerCollectionMemoryEngineId8toStringEv 0x00039e94   Data           0  qorganizeritemmemorybackend.o(.ARM.extab)
    .extab._ZN10QtMobility30QOrganizerItemMemoryEngineDataC1Ev 0x00039eac   Data           0  qorganizeritemmemorybackend.o(.ARM.extab)
    .extab._ZN10QtMobility26QOrganizerItemMemoryEngineC1EPNS_30QOrganizerItemMemoryEngineDataE 0x00039efc   Data           0  qorganizeritemmemorybackend.o(.ARM.extab)
    .extab._ZN10QtMobility26QOrganizerItemMemoryEngine18createMemoryEngineERK4QMapI7QStringS2_E 0x00039f74   Data           0  qorganizeritemmemorybackend.o(.ARM.extab)
    .extab._ZN10QtMobility26QOrganizerItemMemoryEngineD1Ev 0x00039fb4   Data           0  qorganizeritemmemorybackend.o(.ARM.extab)
    .extab._ZNK10QtMobility26QOrganizerItemMemoryEngine17managerParametersEv 0x00039fc4   Data           0  qorganizeritemmemorybackend.o(.ARM.extab)
    .extab._ZN10QtMobility26QOrganizerItemMemoryEngine18generateOccurrenceERKNS_14QOrganizerItemERK9QDateTime 0x00039fe4   Data           0  qorganizeritemmemorybackend.o(.ARM.extab)
    .extab._ZNK10QtMobility26QOrganizerItemMemoryEngine13matchingDatesERK5QDateS3_RKNS_24QOrganizerRecurrenceRuleE 0x0003a19c   Data           0  qorganizeritemmemorybackend.o(.ARM.extab)
    .extab._ZNK10QtMobility26QOrganizerItemMemoryEngine16filterByPositionERK5QListI5QDateE4QSetIiE 0x0003a1fc   Data           0  qorganizeritemmemorybackend.o(.ARM.extab)
    .extab._ZNK10QtMobility26QOrganizerItemMemoryEngine20inferMissingCriteriaEPNS_24QOrganizerRecurrenceRuleERK5QDate 0x0003a224   Data           0  qorganizeritemmemorybackend.o(.ARM.extab)
    .extab._ZNK10QtMobility26QOrganizerItemMemoryEngine17generateDateTimesERK9QDateTimeNS_24QOrganizerRecurrenceRuleES3_S3_i 0x0003a34c   Data           0  qorganizeritemmemorybackend.o(.ARM.extab)
    .extab._ZNK10QtMobility26QOrganizerItemMemoryEngine23internalItemOccurrencesERKNS_14QOrganizerItemERK9QDateTimeS6_ibPNS_17QOrganizerManager5ErrorE 0x0003a3d4   Data           0  qorganizeritemmemorybackend.o(.ARM.extab)
    .extab._ZNK10QtMobility26QOrganizerItemMemoryEngine7itemIdsERK9QDateTimeS3_RKNS_20QOrganizerItemFilterERK5QListINS_23QOrganizerItemSortOrderEEPNS_17QOrganizerManager5ErrorE 0x0003a6ec   Data           0  qorganizeritemmemorybackend.o(.ARM.extab)
    .extab._ZNK10QtMobility26QOrganizerItemMemoryEngine18addItemRecurrencesER5QListINS_14QOrganizerItemEERKS2_RK9QDateTimeS9_RKNS_20QOrganizerItemFilterERKS1_INS_23QOrganizerItemSortOrderEEbP4QSetINS_16QOrganizerItemIdEE 0x0003a70c   Data           0  qorganizeritemmemorybackend.o(.ARM.extab)
    .extab._ZNK10QtMobility26QOrganizerItemMemoryEngine17itemHasReccurenceERKNS_14QOrganizerItemE 0x0003a75c   Data           0  qorganizeritemmemorybackend.o(.ARM.extab)
    .extab._ZNK10QtMobility26QOrganizerItemMemoryEngine13internalItemsERK9QDateTimeS3_RKNS_20QOrganizerItemFilterERK5QListINS_23QOrganizerItemSortOrderEERKNS_23QOrganizerItemFetchHintEPNS_17QOrganizerManager5ErrorEb 0x0003a79c   Data           0  qorganizeritemmemorybackend.o(.ARM.extab)
    .extab._ZNK10QtMobility26QOrganizerItemMemoryEngine4itemERKNS_16QOrganizerItemIdERKNS_23QOrganizerItemFetchHintEPNS_17QOrganizerManager5ErrorE 0x0003a82c   Data           0  qorganizeritemmemorybackend.o(.ARM.extab)
    .extab._ZN10QtMobility26QOrganizerItemMemoryEngine9saveItemsEP5QListINS_14QOrganizerItemEEP4QMapIiNS_17QOrganizerManager5ErrorEEPS7_ 0x0003a844   Data           0  qorganizeritemmemorybackend.o(.ARM.extab)
    .extab._ZN10QtMobility26QOrganizerItemMemoryEngine11removeItemsERK5QListINS_16QOrganizerItemIdEEP4QMapIiNS_17QOrganizerManager5ErrorEEPS8_ 0x0003a86c   Data           0  qorganizeritemmemorybackend.o(.ARM.extab)
    .extab._ZNK10QtMobility26QOrganizerItemMemoryEngine17defaultCollectionEPNS_17QOrganizerManager5ErrorE 0x0003a88c   Data           0  qorganizeritemmemorybackend.o(.ARM.extab)
    .extab._ZNK10QtMobility26QOrganizerItemMemoryEngine10collectionERKNS_22QOrganizerCollectionIdEPNS_17QOrganizerManager5ErrorE 0x0003a8ac   Data           0  qorganizeritemmemorybackend.o(.ARM.extab)
    .extab._ZN10QtMobility26QOrganizerItemMemoryEngine14saveCollectionEPNS_20QOrganizerCollectionEPNS_17QOrganizerManager5ErrorE 0x0003a8bc   Data           0  qorganizeritemmemorybackend.o(.ARM.extab)
    .extab._ZN10QtMobility26QOrganizerItemMemoryEngine16removeCollectionERKNS_22QOrganizerCollectionIdEPNS_17QOrganizerManager5ErrorE 0x0003a974   Data           0  qorganizeritemmemorybackend.o(.ARM.extab)
    .extab._ZNK10QtMobility26QOrganizerItemMemoryEngine20compatibleCollectionERKNS_20QOrganizerCollectionEPNS_17QOrganizerManager5ErrorE 0x0003a9e4   Data           0  qorganizeritemmemorybackend.o(.ARM.extab)
    .extab._ZNK10QtMobility26QOrganizerItemMemoryEngine17detailDefinitionsERK7QStringPNS_17QOrganizerManager5ErrorE 0x0003aa24   Data           0  qorganizeritemmemorybackend.o(.ARM.extab)
    .extab._ZN10QtMobility26QOrganizerItemMemoryEngine20saveDetailDefinitionERKNS_30QOrganizerItemDetailDefinitionERK7QStringPNS_17QOrganizerManager5ErrorE 0x0003aa34   Data           0  qorganizeritemmemorybackend.o(.ARM.extab)
    .extab._ZN10QtMobility26QOrganizerItemMemoryEngine22removeDetailDefinitionERK7QStringS3_PNS_17QOrganizerManager5ErrorE 0x0003aa44   Data           0  qorganizeritemmemorybackend.o(.ARM.extab)
    .extab._ZN10QtMobility26QOrganizerItemMemoryEngine28performAsynchronousOperationEPNS_25QOrganizerAbstractRequestE 0x0003aa54   Data           0  qorganizeritemmemorybackend.o(.ARM.extab)
    .extab._ZN10QtMobility26QOrganizerItemMemoryEngine12startRequestEPNS_25QOrganizerAbstractRequestE 0x0003adb4   Data           0  qorganizeritemmemorybackend.o(.ARM.extab)
    .extab._ZNK10QtMobility26QOrganizerItemMemoryEngine10hasFeatureENS_17QOrganizerManager14ManagerFeatureERK7QString 0x0003adc4   Data           0  qorganizeritemmemorybackend.o(.ARM.extab)
    .extab._ZN10QtMobility26QOrganizerItemMemoryEngine23fixOccurrenceReferencesEPNS_14QOrganizerItemEPNS_17QOrganizerManager5ErrorE 0x0003add4   Data           0  qorganizeritemmemorybackend.o(.ARM.extab)
    .extab._ZN10QtMobility26QOrganizerItemMemoryEngine8saveItemEPNS_14QOrganizerItemERNS_23QOrganizerItemChangeSetEPNS_17QOrganizerManager5ErrorE 0x0003afdc   Data           0  qorganizeritemmemorybackend.o(.ARM.extab)
    .extab._ZN10QtMobility26QOrganizerItemMemoryEngine10removeItemERKNS_16QOrganizerItemIdERNS_23QOrganizerItemChangeSetEPNS_17QOrganizerManager5ErrorE 0x0003b4b4   Data           0  qorganizeritemmemorybackend.o(.ARM.extab)
    .extab._ZN10QtMobility26QOrganizerItemMemoryEngine20saveDetailDefinitionERKNS_30QOrganizerItemDetailDefinitionERK7QStringRNS_23QOrganizerItemChangeSetEPNS_17QOrganizerManager5ErrorE 0x0003b53c   Data           0  qorganizeritemmemorybackend.o(.ARM.extab)
    .extab._ZN10QtMobility26QOrganizerItemMemoryEngine22removeDetailDefinitionERK7QStringS3_RNS_23QOrganizerItemChangeSetEPNS_17QOrganizerManager5ErrorE 0x0003b55c   Data           0  qorganizeritemmemorybackend.o(.ARM.extab)
    .extab.__sti___31_qorganizeritemmemorybackend_cpp 0x0003b56c   Data           0  qorganizeritemmemorybackend.o(.ARM.extab)
    .extab._ZN5QListIPN10QtMobility23QOrganizerManagerEngineEE13detach_helperEi 0x0003b57c   Data           0  qorganizeritemmemorybackend.o(.ARM.extab)
    .extab._ZN5QListI5QDateE13detach_helperEi 0x0003b598   Data           0  qorganizeritemmemorybackend.o(.ARM.extab)
    .extab._ZN9QHashNodeIN10QtMobility16QOrganizerItemIdENS0_14QOrganizerItemEEC1ERKS1_RKS2_ 0x0003b5b4   Data           0  qorganizeritemmemorybackend.o(.ARM.extab)
    .extab._Z20qForeachContainerNewI5QHashIN10QtMobility16QOrganizerItemIdENS1_14QOrganizerItemEEE17QForeachContainerIT_ERKS6_ 0x0003b5c4   Data           0  qorganizeritemmemorybackend.o(.ARM.extab)
    .extab._Z20qForeachContainerNewI4QSetI5QDateEE17QForeachContainerIT_ERKS4_ 0x0003b5d4   Data           0  qorganizeritemmemorybackend.o(.ARM.extab)
    .extab._Z20qForeachContainerNewI4QSetIN10QtMobility24QOrganizerRecurrenceRuleEEE17QForeachContainerIT_ERKS5_ 0x0003b5e4   Data           0  qorganizeritemmemorybackend.o(.ARM.extab)
    .extab._ZN5QListI9QDateTimeE9node_copyEPNS1_4NodeES3_S3_ 0x0003b5f4   Data           0  qorganizeritemmemorybackend.o(.ARM.extab)
    .extab._ZN5QListI9QDateTimeE13detach_helperEi 0x0003b618   Data           0  qorganizeritemmemorybackend.o(.ARM.extab)
    .extab._Z20qForeachContainerNewI5QListI9QDateTimeEE17QForeachContainerIT_ERKS4_ 0x0003b634   Data           0  qorganizeritemmemorybackend.o(.ARM.extab)
    .extab._Z5qSwapI9QDateTimeEvRT_S2_       0x0003b644   Data           0  qorganizeritemmemorybackend.o(.ARM.extab)
    .extab._Z20qForeachContainerNewI5QListIN10QtMobility14QOrganizerItemEEE17QForeachContainerIT_ERKS5_ 0x0003b654   Data           0  qorganizeritemmemorybackend.o(.ARM.extab)
    .extab._ZN9QHashData9hasShrunkEv         0x0003b664   Data           0  qorganizeritemmemorybackend.o(.ARM.extab)
    .extab._ZN4QMapI7QStringPN10QtMobility30QOrganizerItemMemoryEngineDataEE11node_createEP8QMapDataPPNS5_4NodeERKS0_RKS3_ 0x0003b678   Data           0  qorganizeritemmemorybackend.o(.ARM.extab)
    .extab._ZN4QMapI7QStringPN10QtMobility30QOrganizerItemMemoryEngineDataEE13detach_helperEv 0x0003b69c   Data           0  qorganizeritemmemorybackend.o(.ARM.extab)
    .extab._ZNK5QListIN10QtMobility14QOrganizerItemEE3midEii 0x0003b6b8   Data           0  qorganizeritemmemorybackend.o(.ARM.extab)
    .extab._ZN5QListI9QDateTimeE14node_constructEPNS1_4NodeERKS0_ 0x0003b6e4   Data           0  qorganizeritemmemorybackend.o(.ARM.extab)
    .extab._ZN5QListI9QDateTimeE18detach_helper_growEii 0x0003b6f4   Data           0  qorganizeritemmemorybackend.o(.ARM.extab)
    .extab._ZN5QListI9QDateTimeE6appendERKS0_ 0x0003b724   Data           0  qorganizeritemmemorybackend.o(.ARM.extab)
    .extab._ZN5QListI9QDateTimeEpLERKS1_     0x0003b754   Data           0  qorganizeritemmemorybackend.o(.ARM.extab)
    .extab._ZN5QListI5QDateE18detach_helper_growEii 0x0003b770   Data           0  qorganizeritemmemorybackend.o(.ARM.extab)
    .extab._ZN5QListI5QDateE6appendERKS0_    0x0003b7a0   Data           0  qorganizeritemmemorybackend.o(.ARM.extab)
    .extab._ZN9QHashNodeIN10QtMobility16QOrganizerItemIdES1_EC1ERKS1_S4_ 0x0003b7d0   Data           0  qorganizeritemmemorybackend.o(.ARM.extab)
    .extab._ZN4QMapIiN10QtMobility17QOrganizerManager5ErrorEE13detach_helperEv 0x0003b7e0   Data           0  qorganizeritemmemorybackend.o(.ARM.extab)
    .extab._ZNK4QMapI7QStringN10QtMobility30QOrganizerItemDetailDefinitionEE4keysEv 0x0003b7fc   Data           0  qorganizeritemmemorybackend.o(.ARM.extab)
    .extab._ZN5QListIN10QtMobility30QOrganizerItemDetailDefinitionEE14node_constructEPNS2_4NodeERKS1_ 0x0003b80c   Data           0  qorganizeritemmemorybackend.o(.ARM.extab)
    .extab._ZN5QListIN10QtMobility30QOrganizerItemDetailDefinitionEE9node_copyEPNS2_4NodeES4_S4_ 0x0003b81c   Data           0  qorganizeritemmemorybackend.o(.ARM.extab)
    .extab._ZN5QListIN10QtMobility30QOrganizerItemDetailDefinitionEE18detach_helper_growEii 0x0003b840   Data           0  qorganizeritemmemorybackend.o(.ARM.extab)
    .extab._ZN5QListIN10QtMobility30QOrganizerItemDetailDefinitionEE6appendERKS1_ 0x0003b870   Data           0  qorganizeritemmemorybackend.o(.ARM.extab)
    .extab._ZNK10QtMobility20QOrganizerItemDetail5valueI9QDateTimeEET_PKc 0x0003b8a0   Data           0  qorganizeritemmemorybackend.o(.ARM.extab)
    .extab._ZNK10QtMobility14QOrganizerItem6detailINS_20QOrganizerItemParentEEET_v 0x0003b8b8   Data           0  qorganizeritemmemorybackend.o(.ARM.extab)
    .extab._ZN10QtMobility20QOrganizerItemParent11setParentIdERKNS_16QOrganizerItemIdE 0x0003b8c8   Data           0  qorganizeritemmemorybackend.o(.ARM.extab)
    .extab._ZNK10QtMobility20QOrganizerItemParent8parentIdEv 0x0003b8d8   Data           0  qorganizeritemmemorybackend.o(.ARM.extab)
    .extab._ZNK10QtMobility20QOrganizerItemParent12originalDateEv 0x0003b8f0   Data           0  qorganizeritemmemorybackend.o(.ARM.extab)
    .extab._ZN10QtMobility23QOrganizerItemTimestamp15setLastModifiedERK9QDateTime 0x0003b900   Data           0  qorganizeritemmemorybackend.o(.ARM.extab)
    .extab._ZN10QtMobility30QOrganizerItemMemoryEngineData17emitSharedSignalsEPNS_23QOrganizerItemChangeSetE 0x0003b910   Data           0  qorganizeritemmemorybackend.o(.ARM.extab)
    .extab._ZNK5QHashIN10QtMobility16QOrganizerItemIdENS0_14QOrganizerItemEE4keysEv 0x0003b928   Data           0  qorganizeritemmemorybackend.o(.ARM.extab)
    .extab._ZN5QHashIN10QtMobility16QOrganizerItemIdENS0_14QOrganizerItemEE6insertERKS1_RKS2_ 0x0003b938   Data           0  qorganizeritemmemorybackend.o(.ARM.extab)
    .extab._ZNK5QHashIN10QtMobility16QOrganizerItemIdES1_E6valuesERKS1_ 0x0003b950   Data           0  qorganizeritemmemorybackend.o(.ARM.extab)
    .extab._ZN5QListIN10QtMobility20QOrganizerCollectionEE9node_copyEPNS2_4NodeES4_S4_ 0x0003b960   Data           0  qorganizeritemmemorybackend.o(.ARM.extab)
    .extab._ZN5QListIN10QtMobility20QOrganizerCollectionEE13detach_helperEi 0x0003b984   Data           0  qorganizeritemmemorybackend.o(.ARM.extab)
    .extab._ZN5QListIN10QtMobility20QOrganizerCollectionEE14node_constructEPNS2_4NodeERKS1_ 0x0003b9a0   Data           0  qorganizeritemmemorybackend.o(.ARM.extab)
    .extab._ZN5QListIN10QtMobility20QOrganizerCollectionEE18detach_helper_growEii 0x0003b9b0   Data           0  qorganizeritemmemorybackend.o(.ARM.extab)
    .extab._ZN5QListIN10QtMobility20QOrganizerCollectionEE6appendERKS1_ 0x0003b9e0   Data           0  qorganizeritemmemorybackend.o(.ARM.extab)
    .extab._ZN4QMapIN10QtMobility22QOrganizerCollectionIdENS0_16QOrganizerItemIdEE11node_createEP8QMapDataPPNS4_4NodeERKS1_RKS2_ 0x0003ba10   Data           0  qorganizeritemmemorybackend.o(.ARM.extab)
    .extab._ZN4QMapIN10QtMobility22QOrganizerCollectionIdENS0_16QOrganizerItemIdEE13detach_helperEv 0x0003ba5c   Data           0  qorganizeritemmemorybackend.o(.ARM.extab)
    .extab._ZNK4QMapIN10QtMobility22QOrganizerCollectionIdENS0_16QOrganizerItemIdEE3keyERKS2_ 0x0003ba78   Data           0  qorganizeritemmemorybackend.o(.ARM.extab)
    .extab._ZNK4QMapIN10QtMobility22QOrganizerCollectionIdENS0_16QOrganizerItemIdEE6valuesERKS1_ 0x0003ba88   Data           0  qorganizeritemmemorybackend.o(.ARM.extab)
    .extab._ZN4QMapI7QStringS_IS0_N10QtMobility30QOrganizerItemDetailDefinitionEEE11node_createEP8QMapDataPPNS5_4NodeERKS0_RKS3_ 0x0003ba98   Data           0  qorganizeritemmemorybackend.o(.ARM.extab)
    .extab._ZN5QListIPN10QtMobility23QOrganizerManagerEngineEE18detach_helper_growEii 0x0003bae4   Data           0  qorganizeritemmemorybackend.o(.ARM.extab)
    .extab._ZN5QListIPN10QtMobility23QOrganizerManagerEngineEE6appendERKS2_ 0x0003bb14   Data           0  qorganizeritemmemorybackend.o(.ARM.extab)
    .extab._ZN5QHashIN10QtMobility16QOrganizerItemIdENS0_14QOrganizerItemEE11deleteNode2EPN9QHashData4NodeE 0x0003bb30   Data           0  qorganizeritemmemorybackend.o(.ARM.extab)
    .extab._ZN5QHashIN10QtMobility16QOrganizerItemIdENS0_14QOrganizerItemEE13duplicateNodeEPN9QHashData4NodeEPv 0x0003bb40   Data           0  qorganizeritemmemorybackend.o(.ARM.extab)
    .extab._ZN5QHashIN10QtMobility16QOrganizerItemIdES1_E11deleteNode2EPN9QHashData4NodeE 0x0003bb50   Data           0  qorganizeritemmemorybackend.o(.ARM.extab)
    .extab._ZN10QtMobility30QOrganizerItemMemoryEngineDataD1Ev 0x0003bb60   Data           0  qorganizeritemmemorybackend.o(.ARM.extab)
    .extab._ZN5QHashIN10QtMobility16QOrganizerItemIdES1_E13duplicateNodeEPN9QHashData4NodeEPv 0x0003bbb0   Data           0  qorganizeritemmemorybackend.o(.ARM.extab)
    .extab._ZN5QHashIN10QtMobility16QOrganizerItemIdE15QHashDummyValueE6insertERKS1_RKS2_ 0x0003bbc0   Data           0  qorganizeritemmemorybackend.o(.ARM.extab)
    .extab._ZN10QtMobility29QOrganizerItemChangeLogFilterC1ENS0_9EventTypeE 0x0003bbd0   Data           0  qorganizeritemchangelogfilter.o(.ARM.extab)
    .extab._ZN10QtMobility29QOrganizerItemChangeLogFilterC1ERKNS_20QOrganizerItemFilterE 0x0003bbe0   Data           0  qorganizeritemchangelogfilter.o(.ARM.extab)
    .extab._ZN10QtMobility36QOrganizerItemChangeLogFilterPrivateC1ENS_29QOrganizerItemChangeLogFilter9EventTypeE 0x0003bbf0   Data           0  qorganizeritemchangelogfilter.o(.ARM.extab)
    .extab._ZN10QtMobility36QOrganizerItemChangeLogFilterPrivate14copyIfPossibleER18QSharedDataPointerINS_27QOrganizerItemFilterPrivateEERKNS_20QOrganizerItemFilterE 0x0003bc00   Data           0  qorganizeritemchangelogfilter.o(.ARM.extab)
    .extab._ZNK10QtMobility36QOrganizerItemChangeLogFilterPrivate5cloneEv 0x0003bc10   Data           0  qorganizeritemchangelogfilter.o(.ARM.extab)
    .extab._ZN10QtMobility36QOrganizerItemChangeLogFilterPrivateD1Ev 0x0003bc28   Data           0  qorganizeritemchangelogfilter.o(.ARM.extab)
    .extab._ZN10QtMobility26QOrganizerItemDetailFilterC1Ev 0x0003bc38   Data           0  qorganizeritemdetailfilter.o(.ARM.extab)
    .extab._ZN10QtMobility26QOrganizerItemDetailFilterC1ERKNS_20QOrganizerItemFilterE 0x0003bc48   Data           0  qorganizeritemdetailfilter.o(.ARM.extab)
    .extab._ZN10QtMobility33QOrganizerItemDetailFilterPrivateC1Ev 0x0003bc58   Data           0  qorganizeritemdetailfilter.o(.ARM.extab)
    .extab._ZN10QtMobility33QOrganizerItemDetailFilterPrivateD1Ev 0x0003bc70   Data           0  qorganizeritemdetailfilter.o(.ARM.extab)
    .extab._ZN10QtMobility33QOrganizerItemDetailFilterPrivate14copyIfPossibleER18QSharedDataPointerINS_27QOrganizerItemFilterPrivateEERKNS_20QOrganizerItemFilterE 0x0003bc90   Data           0  qorganizeritemdetailfilter.o(.ARM.extab)
    .extab._ZNK10QtMobility33QOrganizerItemDetailFilterPrivate5cloneEv 0x0003bca0   Data           0  qorganizeritemdetailfilter.o(.ARM.extab)
    .extab._ZN10QtMobility31QOrganizerItemDetailRangeFilterC1Ev 0x0003bcc8   Data           0  qorganizeritemdetailrangefilter.o(.ARM.extab)
    .extab._ZN10QtMobility31QOrganizerItemDetailRangeFilterC1ERKNS_20QOrganizerItemFilterE 0x0003bcd8   Data           0  qorganizeritemdetailrangefilter.o(.ARM.extab)
    .extab._ZN10QtMobility38QOrganizerItemDetailRangeFilterPrivateC1Ev 0x0003bce8   Data           0  qorganizeritemdetailrangefilter.o(.ARM.extab)
    .extab._ZN10QtMobility38QOrganizerItemDetailRangeFilterPrivateD1Ev 0x0003bd10   Data           0  qorganizeritemdetailrangefilter.o(.ARM.extab)
    .extab._ZN10QtMobility38QOrganizerItemDetailRangeFilterPrivate14copyIfPossibleER18QSharedDataPointerINS_27QOrganizerItemFilterPrivateEERKNS_20QOrganizerItemFilterE 0x0003bd38   Data           0  qorganizeritemdetailrangefilter.o(.ARM.extab)
    .extab._ZNK10QtMobility38QOrganizerItemDetailRangeFilterPrivate5cloneEv 0x0003bd48   Data           0  qorganizeritemdetailrangefilter.o(.ARM.extab)
    .extab._ZN10QtMobility38QOrganizerItemDetailRangeFilterPrivateC1ERKS0_ 0x0003bd58   Data           0  qorganizeritemdetailrangefilter.o(.ARM.extab)
    .extab._ZN10QtMobility32QOrganizerItemIntersectionFilterC1Ev 0x0003bd80   Data           0  qorganizeritemintersectionfilter.o(.ARM.extab)
    .extab._ZN10QtMobility32QOrganizerItemIntersectionFilterC1ERKNS_20QOrganizerItemFilterE 0x0003bd90   Data           0  qorganizeritemintersectionfilter.o(.ARM.extab)
    .extab._ZN10QtMobility32QOrganizerItemIntersectionFilter7prependERKNS_20QOrganizerItemFilterE 0x0003bda0   Data           0  qorganizeritemintersectionfilter.o(.ARM.extab)
    .extab._ZN5QListIN10QtMobility20QOrganizerItemFilterEE14node_constructEPNS2_4NodeERKS1_ 0x0003bdd0   Data           0  qorganizeritemintersectionfilter.o(.ARM.extab)
    .extab._ZN5QListIN10QtMobility20QOrganizerItemFilterEE9node_copyEPNS2_4NodeES4_S4_ 0x0003bde0   Data           0  qorganizeritemintersectionfilter.o(.ARM.extab)
    .extab._ZN5QListIN10QtMobility20QOrganizerItemFilterEE18detach_helper_growEii 0x0003be04   Data           0  qorganizeritemintersectionfilter.o(.ARM.extab)
    .extab._ZN5QListIN10QtMobility20QOrganizerItemFilterEE6appendERKS1_ 0x0003be34   Data           0  qorganizeritemintersectionfilter.o(.ARM.extab)
    .extab._ZN5QListIN10QtMobility20QOrganizerItemFilterEE13detach_helperEi 0x0003be64   Data           0  qorganizeritemintersectionfilter.o(.ARM.extab)
    .extab._ZN5QListIN10QtMobility20QOrganizerItemFilterEE5clearEv 0x0003be80   Data           0  qorganizeritemintersectionfilter.o(.ARM.extab)
    .extab._ZrsIN10QtMobility20QOrganizerItemFilterEER11QDataStreamS3_R5QListIT_E 0x0003be90   Data           0  qorganizeritemintersectionfilter.o(.ARM.extab)
    .extab._ZN10QtMobility39QOrganizerItemIntersectionFilterPrivateC1Ev 0x0003bea0   Data           0  qorganizeritemintersectionfilter.o(.ARM.extab)
    .extab._ZN5QListIN10QtMobility20QOrganizerItemFilterEE9removeAllERKS1_ 0x0003beb0   Data           0  qorganizeritemintersectionfilter.o(.ARM.extab)
    .extab._ZN10QtMobility39QOrganizerItemIntersectionFilterPrivate14copyIfPossibleER18QSharedDataPointerINS_27QOrganizerItemFilterPrivateEERKNS_20QOrganizerItemFilterE 0x0003bec0   Data           0  qorganizeritemintersectionfilter.o(.ARM.extab)
    .extab._ZNK10QtMobility39QOrganizerItemIntersectionFilterPrivate5cloneEv 0x0003bed0   Data           0  qorganizeritemintersectionfilter.o(.ARM.extab)
    .extab._ZN10QtMobility39QOrganizerItemIntersectionFilterPrivateD1Ev 0x0003bee8   Data           0  qorganizeritemintersectionfilter.o(.ARM.extab)
    .extab._ZN10QtMobility27QOrganizerItemInvalidFilterC1Ev 0x0003bef8   Data           0  qorganizeriteminvalidfilter.o(.ARM.extab)
    .extab._ZN10QtMobility27QOrganizerItemInvalidFilterC1ERKNS_20QOrganizerItemFilterE 0x0003bf08   Data           0  qorganizeriteminvalidfilter.o(.ARM.extab)
    .extab._ZN10QtMobility34QOrganizerItemInvalidFilterPrivateC1Ev 0x0003bf18   Data           0  qorganizeriteminvalidfilter.o(.ARM.extab)
    .extab._ZNK10QtMobility34QOrganizerItemInvalidFilterPrivate5cloneEv 0x0003bf28   Data           0  qorganizeriteminvalidfilter.o(.ARM.extab)
    .extab._ZN10QtMobility34QOrganizerItemInvalidFilterPrivateD1Ev 0x0003bf38   Data           0  qorganizeriteminvalidfilter.o(.ARM.extab)
    .extab._ZN10QtMobility22QOrganizerItemIdFilterC1Ev 0x0003bf48   Data           0  qorganizeritemidfilter.o(.ARM.extab)
    .extab._ZN10QtMobility22QOrganizerItemIdFilterC1ERKNS_20QOrganizerItemFilterE 0x0003bf58   Data           0  qorganizeritemidfilter.o(.ARM.extab)
    .extab._ZN5QListIN10QtMobility16QOrganizerItemIdEE5clearEv 0x0003bf68   Data           0  qorganizeritemidfilter.o(.ARM.extab)
    .extab._ZrsIN10QtMobility16QOrganizerItemIdEER11QDataStreamS3_R5QListIT_E 0x0003bf78   Data           0  qorganizeritemidfilter.o(.ARM.extab)
    .extab._ZN10QtMobility29QOrganizerItemIdFilterPrivateC1Ev 0x0003bf88   Data           0  qorganizeritemidfilter.o(.ARM.extab)
    .extab._ZN5QListIN10QtMobility16QOrganizerItemIdEE9removeAllERKS1_ 0x0003bf98   Data           0  qorganizeritemidfilter.o(.ARM.extab)
    .extab._ZN10QtMobility29QOrganizerItemIdFilterPrivate14copyIfPossibleER18QSharedDataPointerINS_27QOrganizerItemFilterPrivateEERKNS_20QOrganizerItemFilterE 0x0003bfa8   Data           0  qorganizeritemidfilter.o(.ARM.extab)
    .extab._ZNK10QtMobility29QOrganizerItemIdFilterPrivate5cloneEv 0x0003bfb8   Data           0  qorganizeritemidfilter.o(.ARM.extab)
    .extab._ZN10QtMobility29QOrganizerItemIdFilterPrivateD1Ev 0x0003bfd0   Data           0  qorganizeritemidfilter.o(.ARM.extab)
    .extab._ZN10QtMobility30QOrganizerItemCollectionFilterC1Ev 0x0003bfe0   Data           0  qorganizeritemcollectionfilter.o(.ARM.extab)
    .extab._ZN10QtMobility30QOrganizerItemCollectionFilterC1ERKNS_20QOrganizerItemFilterE 0x0003bff0   Data           0  qorganizeritemcollectionfilter.o(.ARM.extab)
    .extab._ZN4QSetIN10QtMobility22QOrganizerCollectionIdEE5clearEv 0x0003c000   Data           0  qorganizeritemcollectionfilter.o(.ARM.extab)
    .extab._ZrsIN10QtMobility22QOrganizerCollectionIdEER11QDataStreamS3_R4QSetIT_E 0x0003c010   Data           0  qorganizeritemcollectionfilter.o(.ARM.extab)
    .extab._ZN10QtMobility37QOrganizerItemCollectionFilterPrivateC1Ev 0x0003c020   Data           0  qorganizeritemcollectionfilter.o(.ARM.extab)
    .extab._ZN10QtMobility37QOrganizerItemCollectionFilterPrivate14copyIfPossibleER18QSharedDataPointerINS_27QOrganizerItemFilterPrivateEERKNS_20QOrganizerItemFilterE 0x0003c030   Data           0  qorganizeritemcollectionfilter.o(.ARM.extab)
    .extab._ZNK10QtMobility37QOrganizerItemCollectionFilterPrivate5cloneEv 0x0003c040   Data           0  qorganizeritemcollectionfilter.o(.ARM.extab)
    .extab._ZN10QtMobility37QOrganizerItemCollectionFilterPrivateD1Ev 0x0003c058   Data           0  qorganizeritemcollectionfilter.o(.ARM.extab)
    .extab._ZN10QtMobility25QOrganizerItemUnionFilterC1Ev 0x0003c068   Data           0  qorganizeritemunionfilter.o(.ARM.extab)
    .extab._ZN10QtMobility25QOrganizerItemUnionFilterC1ERKNS_20QOrganizerItemFilterE 0x0003c078   Data           0  qorganizeritemunionfilter.o(.ARM.extab)
    .extab._ZN10QtMobility25QOrganizerItemUnionFilter7prependERKNS_20QOrganizerItemFilterE 0x0003c088   Data           0  qorganizeritemunionfilter.o(.ARM.extab)
    .extab._ZN10QtMobility32QOrganizerItemUnionFilterPrivateC1Ev 0x0003c0b8   Data           0  qorganizeritemunionfilter.o(.ARM.extab)
    .extab._ZN10QtMobility32QOrganizerItemUnionFilterPrivate14copyIfPossibleER18QSharedDataPointerINS_27QOrganizerItemFilterPrivateEERKNS_20QOrganizerItemFilterE 0x0003c0c8   Data           0  qorganizeritemunionfilter.o(.ARM.extab)
    .extab._ZNK10QtMobility32QOrganizerItemUnionFilterPrivate5cloneEv 0x0003c0d8   Data           0  qorganizeritemunionfilter.o(.ARM.extab)
    .extab._ZN10QtMobility32QOrganizerItemUnionFilterPrivateD1Ev 0x0003c0f0   Data           0  qorganizeritemunionfilter.o(.ARM.extab)
    .extab._ZN10QtMobility15QOrganizerEvent16setStartDateTimeERK9QDateTime 0x0003c100   Data           0  qorganizerevent.o(.ARM.extab)
    .extab._ZNK10QtMobility15QOrganizerEvent13startDateTimeEv 0x0003c118   Data           0  qorganizerevent.o(.ARM.extab)
    .extab._ZN10QtMobility15QOrganizerEvent14setEndDateTimeERK9QDateTime 0x0003c128   Data           0  qorganizerevent.o(.ARM.extab)
    .extab._ZNK10QtMobility15QOrganizerEvent11endDateTimeEv 0x0003c140   Data           0  qorganizerevent.o(.ARM.extab)
    .extab._ZN10QtMobility15QOrganizerEvent9setAllDayEb 0x0003c150   Data           0  qorganizerevent.o(.ARM.extab)
    .extab._ZNK10QtMobility15QOrganizerEvent8isAllDayEv 0x0003c168   Data           0  qorganizerevent.o(.ARM.extab)
    .extab._ZN10QtMobility15QOrganizerEvent18setRecurrenceDatesERK4QSetI5QDateE 0x0003c180   Data           0  qorganizerevent.o(.ARM.extab)
    .extab._ZN10QtMobility15QOrganizerEvent17setRecurrenceDateERK5QDate 0x0003c190   Data           0  qorganizerevent.o(.ARM.extab)
    .extab._ZNK10QtMobility15QOrganizerEvent15recurrenceDatesEv 0x0003c1a0   Data           0  qorganizerevent.o(.ARM.extab)
    .extab._ZN10QtMobility15QOrganizerEvent18setRecurrenceRulesERK4QSetINS_24QOrganizerRecurrenceRuleEE 0x0003c1b0   Data           0  qorganizerevent.o(.ARM.extab)
    .extab._ZN10QtMobility15QOrganizerEvent17setRecurrenceRuleERKNS_24QOrganizerRecurrenceRuleE 0x0003c1c0   Data           0  qorganizerevent.o(.ARM.extab)
    .extab._ZNK10QtMobility15QOrganizerEvent15recurrenceRulesEv 0x0003c1d0   Data           0  qorganizerevent.o(.ARM.extab)
    .extab._ZNK10QtMobility15QOrganizerEvent14recurrenceRuleEv 0x0003c1e0   Data           0  qorganizerevent.o(.ARM.extab)
    .extab._ZN10QtMobility15QOrganizerEvent17setExceptionDatesERK4QSetI5QDateE 0x0003c1f8   Data           0  qorganizerevent.o(.ARM.extab)
    .extab._ZN10QtMobility15QOrganizerEvent16setExceptionDateERK5QDate 0x0003c208   Data           0  qorganizerevent.o(.ARM.extab)
    .extab._ZNK10QtMobility15QOrganizerEvent14exceptionDatesEv 0x0003c218   Data           0  qorganizerevent.o(.ARM.extab)
    .extab._ZN10QtMobility15QOrganizerEvent17setExceptionRulesERK4QSetINS_24QOrganizerRecurrenceRuleEE 0x0003c228   Data           0  qorganizerevent.o(.ARM.extab)
    .extab._ZN10QtMobility15QOrganizerEvent16setExceptionRuleERKNS_24QOrganizerRecurrenceRuleE 0x0003c238   Data           0  qorganizerevent.o(.ARM.extab)
    .extab._ZNK10QtMobility15QOrganizerEvent14exceptionRulesEv 0x0003c248   Data           0  qorganizerevent.o(.ARM.extab)
    .extab._ZNK10QtMobility15QOrganizerEvent13exceptionRuleEv 0x0003c258   Data           0  qorganizerevent.o(.ARM.extab)
    .extab._ZN10QtMobility15QOrganizerEvent11setPriorityENS_22QOrganizerItemPriority8PriorityE 0x0003c270   Data           0  qorganizerevent.o(.ARM.extab)
    .extab._ZNK10QtMobility15QOrganizerEvent8priorityEv 0x0003c288   Data           0  qorganizerevent.o(.ARM.extab)
    .extab._ZNK10QtMobility15QOrganizerEvent8locationEv 0x0003c2a0   Data           0  qorganizerevent.o(.ARM.extab)
    .extab._ZN10QtMobility15QOrganizerEvent11setLocationERK7QString 0x0003c2b0   Data           0  qorganizerevent.o(.ARM.extab)
    .extab._ZNK10QtMobility14QOrganizerItem6detailINS_19QOrganizerEventTimeEEET_v 0x0003c2c8   Data           0  qorganizerevent.o(.ARM.extab)
    .extab._ZNK10QtMobility14QOrganizerItem6detailINS_24QOrganizerItemRecurrenceEEET_v 0x0003c2d8   Data           0  qorganizerevent.o(.ARM.extab)
    .extab._ZNK10QtMobility14QOrganizerItem6detailINS_22QOrganizerItemPriorityEEET_v 0x0003c2e8   Data           0  qorganizerevent.o(.ARM.extab)
    .extab._ZNK10QtMobility14QOrganizerItem6detailINS_22QOrganizerItemLocationEEET_v 0x0003c2f8   Data           0  qorganizerevent.o(.ARM.extab)
    .extab._ZN5QHashIN10QtMobility24QOrganizerRecurrenceRuleE15QHashDummyValueE13duplicateNodeEPN9QHashData4NodeEPv 0x0003c308   Data           0  qorganizerevent.o(.ARM.extab)
    .extab._ZN5QHashIN10QtMobility24QOrganizerRecurrenceRuleE15QHashDummyValueE6insertERKS1_RKS2_ 0x0003c318   Data           0  qorganizerevent.o(.ARM.extab)
    .extab._ZN10QtMobility25QOrganizerEventOccurrence16setStartDateTimeERK9QDateTime 0x0003c328   Data           0  qorganizereventoccurrence.o(.ARM.extab)
    .extab._ZNK10QtMobility25QOrganizerEventOccurrence13startDateTimeEv 0x0003c340   Data           0  qorganizereventoccurrence.o(.ARM.extab)
    .extab._ZN10QtMobility25QOrganizerEventOccurrence14setEndDateTimeERK9QDateTime 0x0003c350   Data           0  qorganizereventoccurrence.o(.ARM.extab)
    .extab._ZNK10QtMobility25QOrganizerEventOccurrence11endDateTimeEv 0x0003c368   Data           0  qorganizereventoccurrence.o(.ARM.extab)
    .extab._ZN10QtMobility25QOrganizerEventOccurrence11setParentIdERKNS_16QOrganizerItemIdE 0x0003c378   Data           0  qorganizereventoccurrence.o(.ARM.extab)
    .extab._ZNK10QtMobility25QOrganizerEventOccurrence8parentIdEv 0x0003c390   Data           0  qorganizereventoccurrence.o(.ARM.extab)
    .extab._ZN10QtMobility25QOrganizerEventOccurrence15setOriginalDateERK5QDate 0x0003c3a0   Data           0  qorganizereventoccurrence.o(.ARM.extab)
    .extab._ZNK10QtMobility25QOrganizerEventOccurrence12originalDateEv 0x0003c3b8   Data           0  qorganizereventoccurrence.o(.ARM.extab)
    .extab._ZN10QtMobility25QOrganizerEventOccurrence11setPriorityENS_22QOrganizerItemPriority8PriorityE 0x0003c3d0   Data           0  qorganizereventoccurrence.o(.ARM.extab)
    .extab._ZNK10QtMobility25QOrganizerEventOccurrence8priorityEv 0x0003c3e8   Data           0  qorganizereventoccurrence.o(.ARM.extab)
    .extab._ZNK10QtMobility25QOrganizerEventOccurrence8locationEv 0x0003c400   Data           0  qorganizereventoccurrence.o(.ARM.extab)
    .extab._ZN10QtMobility25QOrganizerEventOccurrence11setLocationERK7QString 0x0003c410   Data           0  qorganizereventoccurrence.o(.ARM.extab)
    .extab._ZN10QtMobility17QOrganizerJournal11setDateTimeERK9QDateTime 0x0003c428   Data           0  qorganizerjournal.o(.ARM.extab)
    .extab._ZNK10QtMobility17QOrganizerJournal8dateTimeEv 0x0003c440   Data           0  qorganizerjournal.o(.ARM.extab)
    .extab._ZNK10QtMobility14QOrganizerItem6detailINS_21QOrganizerJournalTimeEEET_v 0x0003c450   Data           0  qorganizerjournal.o(.ARM.extab)
    .extab._ZN10QtMobility14QOrganizerTodo16setStartDateTimeERK9QDateTime 0x0003c460   Data           0  qorganizertodo.o(.ARM.extab)
    .extab._ZNK10QtMobility14QOrganizerTodo13startDateTimeEv 0x0003c478   Data           0  qorganizertodo.o(.ARM.extab)
    .extab._ZN10QtMobility14QOrganizerTodo14setDueDateTimeERK9QDateTime 0x0003c488   Data           0  qorganizertodo.o(.ARM.extab)
    .extab._ZNK10QtMobility14QOrganizerTodo11dueDateTimeEv 0x0003c4a0   Data           0  qorganizertodo.o(.ARM.extab)
    .extab._ZN10QtMobility14QOrganizerTodo9setAllDayEb 0x0003c4b0   Data           0  qorganizertodo.o(.ARM.extab)
    .extab._ZNK10QtMobility14QOrganizerTodo8isAllDayEv 0x0003c4c8   Data           0  qorganizertodo.o(.ARM.extab)
    .extab._ZN10QtMobility14QOrganizerTodo18setRecurrenceDatesERK4QSetI5QDateE 0x0003c4e0   Data           0  qorganizertodo.o(.ARM.extab)
    .extab._ZNK10QtMobility14QOrganizerTodo15recurrenceDatesEv 0x0003c4f0   Data           0  qorganizertodo.o(.ARM.extab)
    .extab._ZN10QtMobility14QOrganizerTodo18setRecurrenceRulesERK4QSetINS_24QOrganizerRecurrenceRuleEE 0x0003c500   Data           0  qorganizertodo.o(.ARM.extab)
    .extab._ZN10QtMobility14QOrganizerTodo17setRecurrenceRuleERKNS_24QOrganizerRecurrenceRuleE 0x0003c510   Data           0  qorganizertodo.o(.ARM.extab)
    .extab._ZNK10QtMobility14QOrganizerTodo15recurrenceRulesEv 0x0003c520   Data           0  qorganizertodo.o(.ARM.extab)
    .extab._ZNK10QtMobility14QOrganizerTodo14recurrenceRuleEv 0x0003c530   Data           0  qorganizertodo.o(.ARM.extab)
    .extab._ZN10QtMobility14QOrganizerTodo17setExceptionDatesERK4QSetI5QDateE 0x0003c548   Data           0  qorganizertodo.o(.ARM.extab)
    .extab._ZNK10QtMobility14QOrganizerTodo14exceptionDatesEv 0x0003c558   Data           0  qorganizertodo.o(.ARM.extab)
    .extab._ZN10QtMobility14QOrganizerTodo17setExceptionRulesERK4QSetINS_24QOrganizerRecurrenceRuleEE 0x0003c568   Data           0  qorganizertodo.o(.ARM.extab)
    .extab._ZN10QtMobility14QOrganizerTodo16setExceptionRuleERKNS_24QOrganizerRecurrenceRuleE 0x0003c578   Data           0  qorganizertodo.o(.ARM.extab)
    .extab._ZNK10QtMobility14QOrganizerTodo14exceptionRulesEv 0x0003c588   Data           0  qorganizertodo.o(.ARM.extab)
    .extab._ZNK10QtMobility14QOrganizerTodo13exceptionRuleEv 0x0003c598   Data           0  qorganizertodo.o(.ARM.extab)
    .extab._ZN10QtMobility14QOrganizerTodo11setPriorityENS_22QOrganizerItemPriority8PriorityE 0x0003c5b0   Data           0  qorganizertodo.o(.ARM.extab)
    .extab._ZNK10QtMobility14QOrganizerTodo8priorityEv 0x0003c5c8   Data           0  qorganizertodo.o(.ARM.extab)
    .extab._ZN10QtMobility14QOrganizerTodo21setProgressPercentageEi 0x0003c5d8   Data           0  qorganizertodo.o(.ARM.extab)
    .extab._ZNK10QtMobility14QOrganizerTodo18progressPercentageEv 0x0003c5f0   Data           0  qorganizertodo.o(.ARM.extab)
    .extab._ZN10QtMobility14QOrganizerTodo9setStatusENS_22QOrganizerTodoProgress6StatusE 0x0003c600   Data           0  qorganizertodo.o(.ARM.extab)
    .extab._ZNK10QtMobility14QOrganizerTodo6statusEv 0x0003c618   Data           0  qorganizertodo.o(.ARM.extab)
    .extab._ZN10QtMobility14QOrganizerTodo19setFinishedDateTimeERK9QDateTime 0x0003c628   Data           0  qorganizertodo.o(.ARM.extab)
    .extab._ZNK10QtMobility14QOrganizerTodo16finishedDateTimeEv 0x0003c640   Data           0  qorganizertodo.o(.ARM.extab)
    .extab._ZNK10QtMobility20QOrganizerItemDetail5valueIiEET_PKc 0x0003c650   Data           0  qorganizertodo.o(.ARM.extab)
    .extab._ZNK10QtMobility14QOrganizerItem6detailINS_18QOrganizerTodoTimeEEET_v 0x0003c660   Data           0  qorganizertodo.o(.ARM.extab)
    .extab._ZNK10QtMobility14QOrganizerItem6detailINS_22QOrganizerTodoProgressEEET_v 0x0003c670   Data           0  qorganizertodo.o(.ARM.extab)
    .extab._ZN10QtMobility24QOrganizerTodoOccurrence16setStartDateTimeERK9QDateTime 0x0003c680   Data           0  qorganizertodooccurrence.o(.ARM.extab)
    .extab._ZNK10QtMobility24QOrganizerTodoOccurrence13startDateTimeEv 0x0003c698   Data           0  qorganizertodooccurrence.o(.ARM.extab)
    .extab._ZN10QtMobility24QOrganizerTodoOccurrence14setDueDateTimeERK9QDateTime 0x0003c6a8   Data           0  qorganizertodooccurrence.o(.ARM.extab)
    .extab._ZNK10QtMobility24QOrganizerTodoOccurrence11dueDateTimeEv 0x0003c6c0   Data           0  qorganizertodooccurrence.o(.ARM.extab)
    .extab._ZN10QtMobility24QOrganizerTodoOccurrence11setParentIdERKNS_16QOrganizerItemIdE 0x0003c6d0   Data           0  qorganizertodooccurrence.o(.ARM.extab)
    .extab._ZNK10QtMobility24QOrganizerTodoOccurrence8parentIdEv 0x0003c6e8   Data           0  qorganizertodooccurrence.o(.ARM.extab)
    .extab._ZN10QtMobility24QOrganizerTodoOccurrence15setOriginalDateERK5QDate 0x0003c6f8   Data           0  qorganizertodooccurrence.o(.ARM.extab)
    .extab._ZNK10QtMobility24QOrganizerTodoOccurrence12originalDateEv 0x0003c710   Data           0  qorganizertodooccurrence.o(.ARM.extab)
    .extab._ZN10QtMobility24QOrganizerTodoOccurrence11setPriorityENS_22QOrganizerItemPriority8PriorityE 0x0003c728   Data           0  qorganizertodooccurrence.o(.ARM.extab)
    .extab._ZNK10QtMobility24QOrganizerTodoOccurrence8priorityEv 0x0003c740   Data           0  qorganizertodooccurrence.o(.ARM.extab)
    .extab._ZN10QtMobility24QOrganizerTodoOccurrence21setProgressPercentageEi 0x0003c750   Data           0  qorganizertodooccurrence.o(.ARM.extab)
    .extab._ZNK10QtMobility24QOrganizerTodoOccurrence18progressPercentageEv 0x0003c768   Data           0  qorganizertodooccurrence.o(.ARM.extab)
    .extab._ZN10QtMobility24QOrganizerTodoOccurrence9setStatusENS_22QOrganizerTodoProgress6StatusE 0x0003c778   Data           0  qorganizertodooccurrence.o(.ARM.extab)
    .extab._ZNK10QtMobility24QOrganizerTodoOccurrence6statusEv 0x0003c790   Data           0  qorganizertodooccurrence.o(.ARM.extab)
    .extab._ZN10QtMobility24QOrganizerTodoOccurrence19setFinishedDateTimeERK9QDateTime 0x0003c7a0   Data           0  qorganizertodooccurrence.o(.ARM.extab)
    .extab._ZNK10QtMobility24QOrganizerTodoOccurrence16finishedDateTimeEv 0x0003c7b8   Data           0  qorganizertodooccurrence.o(.ARM.extab)
    .extab._ZN10QtMobility32QOrganizerCollectionFetchRequestC1EP7QObject 0x0003c7c8   Data           0  qorganizercollectionfetchrequest.o(.ARM.extab)
    .extab._ZNK10QtMobility32QOrganizerCollectionFetchRequest11collectionsEv 0x0003c7d8   Data           0  qorganizercollectionfetchrequest.o(.ARM.extab)
    .extab._ZN10QtMobility39QOrganizerCollectionFetchRequestPrivateC1Ev 0x0003c7e8   Data           0  qorganizercollectionfetchrequest.o(.ARM.extab)
    .extab._ZN10QtMobility39QOrganizerCollectionFetchRequestPrivateD1Ev 0x0003c800   Data           0  qorganizercollectionfetchrequest.o(.ARM.extab)
    .extab._ZN10QtMobility33QOrganizerCollectionRemoveRequestC1EP7QObject 0x0003c810   Data           0  qorganizercollectionremoverequest.o(.ARM.extab)
    .extab._ZN10QtMobility33QOrganizerCollectionRemoveRequest15setCollectionIdERKNS_22QOrganizerCollectionIdE 0x0003c820   Data           0  qorganizercollectionremoverequest.o(.ARM.extab)
    .extab._ZN10QtMobility33QOrganizerCollectionRemoveRequest16setCollectionIdsERK5QListINS_22QOrganizerCollectionIdEE 0x0003c830   Data           0  qorganizercollectionremoverequest.o(.ARM.extab)
    .extab._ZNK10QtMobility33QOrganizerCollectionRemoveRequest13collectionIdsEv 0x0003c840   Data           0  qorganizercollectionremoverequest.o(.ARM.extab)
    .extab._ZNK10QtMobility33QOrganizerCollectionRemoveRequest8errorMapEv 0x0003c850   Data           0  qorganizercollectionremoverequest.o(.ARM.extab)
    .extab._ZN5QListIN10QtMobility22QOrganizerCollectionIdEE5clearEv 0x0003c860   Data           0  qorganizercollectionremoverequest.o(.ARM.extab)
    .extab._ZN10QtMobility40QOrganizerCollectionRemoveRequestPrivateC1Ev 0x0003c870   Data           0  qorganizercollectionremoverequest.o(.ARM.extab)
    .extab._ZN10QtMobility31QOrganizerCollectionSaveRequestC1EP7QObject 0x0003c890   Data           0  qorganizercollectionsaverequest.o(.ARM.extab)
    .extab._ZN10QtMobility31QOrganizerCollectionSaveRequest13setCollectionERKNS_20QOrganizerCollectionE 0x0003c8a0   Data           0  qorganizercollectionsaverequest.o(.ARM.extab)
    .extab._ZN10QtMobility31QOrganizerCollectionSaveRequest14setCollectionsERK5QListINS_20QOrganizerCollectionEE 0x0003c8b0   Data           0  qorganizercollectionsaverequest.o(.ARM.extab)
    .extab._ZNK10QtMobility31QOrganizerCollectionSaveRequest11collectionsEv 0x0003c8c0   Data           0  qorganizercollectionsaverequest.o(.ARM.extab)
    .extab._ZNK10QtMobility31QOrganizerCollectionSaveRequest8errorMapEv 0x0003c8d0   Data           0  qorganizercollectionsaverequest.o(.ARM.extab)
    .extab._ZN5QListIN10QtMobility20QOrganizerCollectionEE5clearEv 0x0003c8e0   Data           0  qorganizercollectionsaverequest.o(.ARM.extab)
    .extab._ZN10QtMobility38QOrganizerCollectionSaveRequestPrivateC1Ev 0x0003c8f0   Data           0  qorganizercollectionsaverequest.o(.ARM.extab)
    .extab._ZN10QtMobility42QOrganizerItemDetailDefinitionFetchRequestC1EP7QObject 0x0003c910   Data           0  qorganizeritemdetaildefinitionfetchrequest.o(.ARM.extab)
    .extab._ZN10QtMobility42QOrganizerItemDetailDefinitionFetchRequest17setDefinitionNameERK7QString 0x0003c920   Data           0  qorganizeritemdetaildefinitionfetchrequest.o(.ARM.extab)
    .extab._ZN10QtMobility42QOrganizerItemDetailDefinitionFetchRequest18setDefinitionNamesERK11QStringList 0x0003c930   Data           0  qorganizeritemdetaildefinitionfetchrequest.o(.ARM.extab)
    .extab._ZNK10QtMobility42QOrganizerItemDetailDefinitionFetchRequest15definitionNamesEv 0x0003c940   Data           0  qorganizeritemdetaildefinitionfetchrequest.o(.ARM.extab)
    .extab._ZN10QtMobility42QOrganizerItemDetailDefinitionFetchRequest11setItemTypeERK7QString 0x0003c950   Data           0  qorganizeritemdetaildefinitionfetchrequest.o(.ARM.extab)
    .extab._ZNK10QtMobility42QOrganizerItemDetailDefinitionFetchRequest8itemTypeEv 0x0003c960   Data           0  qorganizeritemdetaildefinitionfetchrequest.o(.ARM.extab)
    .extab._ZNK10QtMobility42QOrganizerItemDetailDefinitionFetchRequest11definitionsEv 0x0003c970   Data           0  qorganizeritemdetaildefinitionfetchrequest.o(.ARM.extab)
    .extab._ZNK10QtMobility42QOrganizerItemDetailDefinitionFetchRequest8errorMapEv 0x0003c980   Data           0  qorganizeritemdetaildefinitionfetchrequest.o(.ARM.extab)
    .extab._ZN10QtMobility49QOrganizerItemDetailDefinitionFetchRequestPrivateC1Ev 0x0003c990   Data           0  qorganizeritemdetaildefinitionfetchrequest.o(.ARM.extab)
    .extab._ZN10QtMobility43QOrganizerItemDetailDefinitionRemoveRequestC1EP7QObject 0x0003c9d8   Data           0  qorganizeritemdetaildefinitionremoverequest.o(.ARM.extab)
    .extab._ZN10QtMobility43QOrganizerItemDetailDefinitionRemoveRequest17setDefinitionNameERK7QString 0x0003c9e8   Data           0  qorganizeritemdetaildefinitionremoverequest.o(.ARM.extab)
    .extab._ZN10QtMobility43QOrganizerItemDetailDefinitionRemoveRequest18setDefinitionNamesERK11QStringList 0x0003c9f8   Data           0  qorganizeritemdetaildefinitionremoverequest.o(.ARM.extab)
    .extab._ZNK10QtMobility43QOrganizerItemDetailDefinitionRemoveRequest15definitionNamesEv 0x0003ca08   Data           0  qorganizeritemdetaildefinitionremoverequest.o(.ARM.extab)
    .extab._ZN10QtMobility43QOrganizerItemDetailDefinitionRemoveRequest11setItemTypeERK7QString 0x0003ca18   Data           0  qorganizeritemdetaildefinitionremoverequest.o(.ARM.extab)
    .extab._ZNK10QtMobility43QOrganizerItemDetailDefinitionRemoveRequest8itemTypeEv 0x0003ca28   Data           0  qorganizeritemdetaildefinitionremoverequest.o(.ARM.extab)
    .extab._ZNK10QtMobility43QOrganizerItemDetailDefinitionRemoveRequest8errorMapEv 0x0003ca38   Data           0  qorganizeritemdetaildefinitionremoverequest.o(.ARM.extab)
    .extab._ZN10QtMobility50QOrganizerItemDetailDefinitionRemoveRequestPrivateC1Ev 0x0003ca48   Data           0  qorganizeritemdetaildefinitionremoverequest.o(.ARM.extab)
    .extab._ZN10QtMobility41QOrganizerItemDetailDefinitionSaveRequestC1EP7QObject 0x0003ca88   Data           0  qorganizeritemdetaildefinitionsaverequest.o(.ARM.extab)
    .extab._ZN10QtMobility41QOrganizerItemDetailDefinitionSaveRequest13setDefinitionERKNS_30QOrganizerItemDetailDefinitionE 0x0003ca98   Data           0  qorganizeritemdetaildefinitionsaverequest.o(.ARM.extab)
    .extab._ZN10QtMobility41QOrganizerItemDetailDefinitionSaveRequest14setDefinitionsERK5QListINS_30QOrganizerItemDetailDefinitionEE 0x0003caa8   Data           0  qorganizeritemdetaildefinitionsaverequest.o(.ARM.extab)
    .extab._ZN10QtMobility41QOrganizerItemDetailDefinitionSaveRequest11setItemTypeERK7QString 0x0003cab8   Data           0  qorganizeritemdetaildefinitionsaverequest.o(.ARM.extab)
    .extab._ZNK10QtMobility41QOrganizerItemDetailDefinitionSaveRequest8itemTypeEv 0x0003cac8   Data           0  qorganizeritemdetaildefinitionsaverequest.o(.ARM.extab)
    .extab._ZNK10QtMobility41QOrganizerItemDetailDefinitionSaveRequest11definitionsEv 0x0003cad8   Data           0  qorganizeritemdetaildefinitionsaverequest.o(.ARM.extab)
    .extab._ZNK10QtMobility41QOrganizerItemDetailDefinitionSaveRequest8errorMapEv 0x0003cae8   Data           0  qorganizeritemdetaildefinitionsaverequest.o(.ARM.extab)
    .extab._ZN10QtMobility48QOrganizerItemDetailDefinitionSaveRequestPrivateC1Ev 0x0003caf8   Data           0  qorganizeritemdetaildefinitionsaverequest.o(.ARM.extab)
    .extab._ZN5QListIN10QtMobility30QOrganizerItemDetailDefinitionEE13detach_helperEi 0x0003cb38   Data           0  qorganizeritemdetaildefinitionsaverequest.o(.ARM.extab)
    .extab._ZN5QListIN10QtMobility30QOrganizerItemDetailDefinitionEE5clearEv 0x0003cb54   Data           0  qorganizeritemdetaildefinitionsaverequest.o(.ARM.extab)
    .extab._ZN10QtMobility26QOrganizerItemFetchRequestC1EP7QObject 0x0003cb64   Data           0  qorganizeritemfetchrequest.o(.ARM.extab)
    .extab._ZN10QtMobility26QOrganizerItemFetchRequest9setFilterERKNS_20QOrganizerItemFilterE 0x0003cb74   Data           0  qorganizeritemfetchrequest.o(.ARM.extab)
    .extab._ZN10QtMobility26QOrganizerItemFetchRequest10setSortingERK5QListINS_23QOrganizerItemSortOrderEE 0x0003cb84   Data           0  qorganizeritemfetchrequest.o(.ARM.extab)
    .extab._ZN10QtMobility26QOrganizerItemFetchRequest12setFetchHintERKNS_23QOrganizerItemFetchHintE 0x0003cb94   Data           0  qorganizeritemfetchrequest.o(.ARM.extab)
    .extab._ZN10QtMobility26QOrganizerItemFetchRequest12setStartDateERK9QDateTime 0x0003cba4   Data           0  qorganizeritemfetchrequest.o(.ARM.extab)
    .extab._ZN10QtMobility26QOrganizerItemFetchRequest10setEndDateERK9QDateTime 0x0003cbb4   Data           0  qorganizeritemfetchrequest.o(.ARM.extab)
    .extab._ZNK10QtMobility26QOrganizerItemFetchRequest6filterEv 0x0003cbc4   Data           0  qorganizeritemfetchrequest.o(.ARM.extab)
    .extab._ZNK10QtMobility26QOrganizerItemFetchRequest7sortingEv 0x0003cbd4   Data           0  qorganizeritemfetchrequest.o(.ARM.extab)
    .extab._ZNK10QtMobility26QOrganizerItemFetchRequest9fetchHintEv 0x0003cbe4   Data           0  qorganizeritemfetchrequest.o(.ARM.extab)
    .extab._ZNK10QtMobility26QOrganizerItemFetchRequest9startDateEv 0x0003cbf4   Data           0  qorganizeritemfetchrequest.o(.ARM.extab)
    .extab._ZNK10QtMobility26QOrganizerItemFetchRequest7endDateEv 0x0003cc04   Data           0  qorganizeritemfetchrequest.o(.ARM.extab)
    .extab._ZNK10QtMobility26QOrganizerItemFetchRequest5itemsEv 0x0003cc14   Data           0  qorganizeritemfetchrequest.o(.ARM.extab)
    .extab._ZN10QtMobility33QOrganizerItemFetchRequestPrivateC1Ev 0x0003cc24   Data           0  qorganizeritemfetchrequest.o(.ARM.extab)
    .extab._ZN10QtMobility35QOrganizerItemFetchForExportRequestC1EP7QObject 0x0003cc64   Data           0  qorganizeritemfetchforexportrequest.o(.ARM.extab)
    .extab._ZN10QtMobility35QOrganizerItemFetchForExportRequest9setFilterERKNS_20QOrganizerItemFilterE 0x0003cc74   Data           0  qorganizeritemfetchforexportrequest.o(.ARM.extab)
    .extab._ZN10QtMobility35QOrganizerItemFetchForExportRequest10setSortingERK5QListINS_23QOrganizerItemSortOrderEE 0x0003cc84   Data           0  qorganizeritemfetchforexportrequest.o(.ARM.extab)
    .extab._ZN10QtMobility35QOrganizerItemFetchForExportRequest12setFetchHintERKNS_23QOrganizerItemFetchHintE 0x0003cc94   Data           0  qorganizeritemfetchforexportrequest.o(.ARM.extab)
    .extab._ZN10QtMobility35QOrganizerItemFetchForExportRequest12setStartDateERK9QDateTime 0x0003cca4   Data           0  qorganizeritemfetchforexportrequest.o(.ARM.extab)
    .extab._ZN10QtMobility35QOrganizerItemFetchForExportRequest10setEndDateERK9QDateTime 0x0003ccb4   Data           0  qorganizeritemfetchforexportrequest.o(.ARM.extab)
    .extab._ZNK10QtMobility35QOrganizerItemFetchForExportRequest6filterEv 0x0003ccc4   Data           0  qorganizeritemfetchforexportrequest.o(.ARM.extab)
    .extab._ZNK10QtMobility35QOrganizerItemFetchForExportRequest7sortingEv 0x0003ccd4   Data           0  qorganizeritemfetchforexportrequest.o(.ARM.extab)
    .extab._ZNK10QtMobility35QOrganizerItemFetchForExportRequest9fetchHintEv 0x0003cce4   Data           0  qorganizeritemfetchforexportrequest.o(.ARM.extab)
    .extab._ZNK10QtMobility35QOrganizerItemFetchForExportRequest9startDateEv 0x0003ccf4   Data           0  qorganizeritemfetchforexportrequest.o(.ARM.extab)
    .extab._ZNK10QtMobility35QOrganizerItemFetchForExportRequest7endDateEv 0x0003cd04   Data           0  qorganizeritemfetchforexportrequest.o(.ARM.extab)
    .extab._ZNK10QtMobility35QOrganizerItemFetchForExportRequest5itemsEv 0x0003cd14   Data           0  qorganizeritemfetchforexportrequest.o(.ARM.extab)
    .extab._ZN10QtMobility42QOrganizerItemFetchForExportRequestPrivateC1Ev 0x0003cd24   Data           0  qorganizeritemfetchforexportrequest.o(.ARM.extab)
    .extab._ZN10QtMobility36QOrganizerItemOccurrenceFetchRequestC1EP7QObject 0x0003cd64   Data           0  qorganizeritemoccurrencefetchrequest.o(.ARM.extab)
    .extab._ZN10QtMobility36QOrganizerItemOccurrenceFetchRequest13setParentItemERKNS_14QOrganizerItemE 0x0003cd74   Data           0  qorganizeritemoccurrencefetchrequest.o(.ARM.extab)
    .extab._ZN10QtMobility36QOrganizerItemOccurrenceFetchRequest12setStartDateERK9QDateTime 0x0003cd84   Data           0  qorganizeritemoccurrencefetchrequest.o(.ARM.extab)
    .extab._ZN10QtMobility36QOrganizerItemOccurrenceFetchRequest10setEndDateERK9QDateTime 0x0003cd94   Data           0  qorganizeritemoccurrencefetchrequest.o(.ARM.extab)
    .extab._ZN10QtMobility36QOrganizerItemOccurrenceFetchRequest12setFetchHintERKNS_23QOrganizerItemFetchHintE 0x0003cda4   Data           0  qorganizeritemoccurrencefetchrequest.o(.ARM.extab)
    .extab._ZNK10QtMobility36QOrganizerItemOccurrenceFetchRequest10parentItemEv 0x0003cdb4   Data           0  qorganizeritemoccurrencefetchrequest.o(.ARM.extab)
    .extab._ZNK10QtMobility36QOrganizerItemOccurrenceFetchRequest9startDateEv 0x0003cdc4   Data           0  qorganizeritemoccurrencefetchrequest.o(.ARM.extab)
    .extab._ZNK10QtMobility36QOrganizerItemOccurrenceFetchRequest7endDateEv 0x0003cdd4   Data           0  qorganizeritemoccurrencefetchrequest.o(.ARM.extab)
    .extab._ZNK10QtMobility36QOrganizerItemOccurrenceFetchRequest9fetchHintEv 0x0003cde4   Data           0  qorganizeritemoccurrencefetchrequest.o(.ARM.extab)
    .extab._ZNK10QtMobility36QOrganizerItemOccurrenceFetchRequest15itemOccurrencesEv 0x0003cdf4   Data           0  qorganizeritemoccurrencefetchrequest.o(.ARM.extab)
    .extab._ZN10QtMobility43QOrganizerItemOccurrenceFetchRequestPrivateC1Ev 0x0003ce04   Data           0  qorganizeritemoccurrencefetchrequest.o(.ARM.extab)
    .extab._ZN10QtMobility28QOrganizerItemIdFetchRequestC1EP7QObject 0x0003ce3c   Data           0  qorganizeritemidfetchrequest.o(.ARM.extab)
    .extab._ZN10QtMobility28QOrganizerItemIdFetchRequest9setFilterERKNS_20QOrganizerItemFilterE 0x0003ce4c   Data           0  qorganizeritemidfetchrequest.o(.ARM.extab)
    .extab._ZN10QtMobility28QOrganizerItemIdFetchRequest10setSortingERK5QListINS_23QOrganizerItemSortOrderEE 0x0003ce5c   Data           0  qorganizeritemidfetchrequest.o(.ARM.extab)
    .extab._ZN10QtMobility28QOrganizerItemIdFetchRequest12setStartDateERK9QDateTime 0x0003ce6c   Data           0  qorganizeritemidfetchrequest.o(.ARM.extab)
    .extab._ZN10QtMobility28QOrganizerItemIdFetchRequest10setEndDateERK9QDateTime 0x0003ce7c   Data           0  qorganizeritemidfetchrequest.o(.ARM.extab)
    .extab._ZNK10QtMobility28QOrganizerItemIdFetchRequest6filterEv 0x0003ce8c   Data           0  qorganizeritemidfetchrequest.o(.ARM.extab)
    .extab._ZNK10QtMobility28QOrganizerItemIdFetchRequest7sortingEv 0x0003ce9c   Data           0  qorganizeritemidfetchrequest.o(.ARM.extab)
    .extab._ZNK10QtMobility28QOrganizerItemIdFetchRequest9startDateEv 0x0003ceac   Data           0  qorganizeritemidfetchrequest.o(.ARM.extab)
    .extab._ZNK10QtMobility28QOrganizerItemIdFetchRequest7endDateEv 0x0003cebc   Data           0  qorganizeritemidfetchrequest.o(.ARM.extab)
    .extab._ZNK10QtMobility28QOrganizerItemIdFetchRequest7itemIdsEv 0x0003cecc   Data           0  qorganizeritemidfetchrequest.o(.ARM.extab)
    .extab._ZN10QtMobility35QOrganizerItemIdFetchRequestPrivateC1Ev 0x0003cedc   Data           0  qorganizeritemidfetchrequest.o(.ARM.extab)
    .extab._ZN10QtMobility27QOrganizerItemRemoveRequestC1EP7QObject 0x0003cf14   Data           0  qorganizeritemremoverequest.o(.ARM.extab)
    .extab._ZN10QtMobility27QOrganizerItemRemoveRequest9setItemIdERKNS_16QOrganizerItemIdE 0x0003cf24   Data           0  qorganizeritemremoverequest.o(.ARM.extab)
    .extab._ZN10QtMobility27QOrganizerItemRemoveRequest10setItemIdsERK5QListINS_16QOrganizerItemIdEE 0x0003cf34   Data           0  qorganizeritemremoverequest.o(.ARM.extab)
    .extab._ZNK10QtMobility27QOrganizerItemRemoveRequest7itemIdsEv 0x0003cf44   Data           0  qorganizeritemremoverequest.o(.ARM.extab)
    .extab._ZNK10QtMobility27QOrganizerItemRemoveRequest8errorMapEv 0x0003cf54   Data           0  qorganizeritemremoverequest.o(.ARM.extab)
    .extab._ZN10QtMobility34QOrganizerItemRemoveRequestPrivateC1Ev 0x0003cf64   Data           0  qorganizeritemremoverequest.o(.ARM.extab)
    .extab._ZN10QtMobility25QOrganizerItemSaveRequestC1EP7QObject 0x0003cf84   Data           0  qorganizeritemsaverequest.o(.ARM.extab)
    .extab._ZN10QtMobility25QOrganizerItemSaveRequest7setItemERKNS_14QOrganizerItemE 0x0003cf94   Data           0  qorganizeritemsaverequest.o(.ARM.extab)
    .extab._ZN10QtMobility25QOrganizerItemSaveRequest8setItemsERK5QListINS_14QOrganizerItemEE 0x0003cfa4   Data           0  qorganizeritemsaverequest.o(.ARM.extab)
    .extab._ZNK10QtMobility25QOrganizerItemSaveRequest5itemsEv 0x0003cfb4   Data           0  qorganizeritemsaverequest.o(.ARM.extab)
    .extab._ZNK10QtMobility25QOrganizerItemSaveRequest8errorMapEv 0x0003cfc4   Data           0  qorganizeritemsaverequest.o(.ARM.extab)
    .extab._ZN5QListIN10QtMobility14QOrganizerItemEE5clearEv 0x0003cfd4   Data           0  qorganizeritemsaverequest.o(.ARM.extab)
    .extab._ZN10QtMobility32QOrganizerItemSaveRequestPrivateC1Ev 0x0003cfe4   Data           0  qorganizeritemsaverequest.o(.ARM.extab)
    .constdata$1                             0x0003d004   Data           0  qorganizercollection.o(.constdata)
    .constdata                               0x0003d004   Section       29  qorganizercollection.o(.constdata)
    .constdata$1                             0x0003d024   Data           0  qorganizerabstractrequest.o(.constdata)
    .constdata                               0x0003d024   Section      366  qorganizerabstractrequest.o(.constdata)
    QtMobility::qt_meta_data_QOrganizerAbstractRequest 0x0003d034   Data         180  qorganizerabstractrequest.o(.constdata)
    QtMobility::qt_meta_stringdata_QOrganizerAbstractRequest 0x0003d0e8   Data         170  qorganizerabstractrequest.o(.constdata)
    .constdata$1                             0x0003d194   Data           0  qorganizermanager.o(.constdata)
    .constdata                               0x0003d194   Section      532  qorganizermanager.o(.constdata)
    QtMobility::qt_meta_data_QOrganizerManager 0x0003d1a4   Data         200  qorganizermanager.o(.constdata)
    QtMobility::qt_meta_stringdata_QOrganizerManager 0x0003d26c   Data         316  qorganizermanager.o(.constdata)
    .constdata$1                             0x0003d3a8   Data           0  qorganizermanagerengine.o(.constdata)
    .constdata                               0x0003d3a8   Section      538  qorganizermanagerengine.o(.constdata)
    QtMobility::qt_meta_data_QOrganizerManagerEngine 0x0003d3b8   Data         200  qorganizermanagerengine.o(.constdata)
    QtMobility::qt_meta_stringdata_QOrganizerManagerEngine 0x0003d480   Data         322  qorganizermanagerengine.o(.constdata)
    .constdata$1                             0x0003d5c2   Data           0  qorganizeritemdetails.o(.constdata)
    .constdata                               0x0003d5c2   Section      678  qorganizeritemdetails.o(.constdata)
    .constdata$1                             0x0003d868   Data           0  qorganizeritemmemorybackend.o(.constdata)
    .constdata                               0x0003d868   Section      104  qorganizeritemmemorybackend.o(.constdata)
    QtMobility::qt_meta_data_QOrganizerItemMemoryEngine 0x0003d878   Data          60  qorganizeritemmemorybackend.o(.constdata)
    QtMobility::qt_meta_stringdata_QOrganizerItemMemoryEngine 0x0003d8b4   Data          28  qorganizeritemmemorybackend.o(.constdata)
    .constdata$1                             0x0003d8d0   Data           0  qorganizercollectionfetchrequest.o(.constdata)
    .constdata                               0x0003d8d0   Section      110  qorganizercollectionfetchrequest.o(.constdata)
    QtMobility::qt_meta_data_QOrganizerCollectionFetchRequest 0x0003d8e0   Data          60  qorganizercollectionfetchrequest.o(.constdata)
    QtMobility::qt_meta_stringdata_QOrganizerCollectionFetchRequest 0x0003d91c   Data          34  qorganizercollectionfetchrequest.o(.constdata)
    .constdata$1                             0x0003d940   Data           0  qorganizercollectionremoverequest.o(.constdata)
    .constdata                               0x0003d940   Section      111  qorganizercollectionremoverequest.o(.constdata)
    QtMobility::qt_meta_data_QOrganizerCollectionRemoveRequest 0x0003d950   Data          60  qorganizercollectionremoverequest.o(.constdata)
    QtMobility::qt_meta_stringdata_QOrganizerCollectionRemoveRequest 0x0003d98c   Data          35  qorganizercollectionremoverequest.o(.constdata)
    .constdata$1                             0x0003d9b0   Data           0  qorganizercollectionsaverequest.o(.constdata)
    .constdata                               0x0003d9b0   Section      109  qorganizercollectionsaverequest.o(.constdata)
    QtMobility::qt_meta_data_QOrganizerCollectionSaveRequest 0x0003d9c0   Data          60  qorganizercollectionsaverequest.o(.constdata)
    QtMobility::qt_meta_stringdata_QOrganizerCollectionSaveRequest 0x0003d9fc   Data          33  qorganizercollectionsaverequest.o(.constdata)
    .constdata$1                             0x0003da20   Data           0  qorganizeritemdetaildefinitionfetchrequest.o(.constdata)
    .constdata                               0x0003da20   Section      120  qorganizeritemdetaildefinitionfetchrequest.o(.constdata)
    QtMobility::qt_meta_data_QOrganizerItemDetailDefinitionFetchRequest 0x0003da30   Data          60  qorganizeritemdetaildefinitionfetchrequest.o(.constdata)
    QtMobility::qt_meta_stringdata_QOrganizerItemDetailDefinitionFetchRequest 0x0003da6c   Data          44  qorganizeritemdetaildefinitionfetchrequest.o(.constdata)
    .constdata$1                             0x0003da98   Data           0  qorganizeritemdetaildefinitionremoverequest.o(.constdata)
    .constdata                               0x0003da98   Section      121  qorganizeritemdetaildefinitionremoverequest.o(.constdata)
    QtMobility::qt_meta_data_QOrganizerItemDetailDefinitionRemoveRequest 0x0003daa8   Data          60  qorganizeritemdetaildefinitionremoverequest.o(.constdata)
    QtMobility::qt_meta_stringdata_QOrganizerItemDetailDefinitionRemoveRequest 0x0003dae4   Data          45  qorganizeritemdetaildefinitionremoverequest.o(.constdata)
    .constdata$1                             0x0003db14   Data           0  qorganizeritemdetaildefinitionsaverequest.o(.constdata)
    .constdata                               0x0003db14   Section      119  qorganizeritemdetaildefinitionsaverequest.o(.constdata)
    QtMobility::qt_meta_data_QOrganizerItemDetailDefinitionSaveRequest 0x0003db24   Data          60  qorganizeritemdetaildefinitionsaverequest.o(.constdata)
    QtMobility::qt_meta_stringdata_QOrganizerItemDetailDefinitionSaveRequest 0x0003db60   Data          43  qorganizeritemdetaildefinitionsaverequest.o(.constdata)
    .constdata$1                             0x0003db8c   Data           0  qorganizeritemfetchrequest.o(.constdata)
    .constdata                               0x0003db8c   Section      104  qorganizeritemfetchrequest.o(.constdata)
    QtMobility::qt_meta_data_QOrganizerItemFetchRequest 0x0003db9c   Data          60  qorganizeritemfetchrequest.o(.constdata)
    QtMobility::qt_meta_stringdata_QOrganizerItemFetchRequest 0x0003dbd8   Data          28  qorganizeritemfetchrequest.o(.constdata)
    .constdata$1                             0x0003dbf4   Data           0  qorganizeritemfetchforexportrequest.o(.constdata)
    .constdata                               0x0003dbf4   Section      113  qorganizeritemfetchforexportrequest.o(.constdata)
    QtMobility::qt_meta_data_QOrganizerItemFetchForExportRequest 0x0003dc04   Data          60  qorganizeritemfetchforexportrequest.o(.constdata)
    QtMobility::qt_meta_stringdata_QOrganizerItemFetchForExportRequest 0x0003dc40   Data          37  qorganizeritemfetchforexportrequest.o(.constdata)
    .constdata$1                             0x0003dc68   Data           0  qorganizeritemoccurrencefetchrequest.o(.constdata)
    .constdata                               0x0003dc68   Section      114  qorganizeritemoccurrencefetchrequest.o(.constdata)
    QtMobility::qt_meta_data_QOrganizerItemOccurrenceFetchRequest 0x0003dc78   Data          60  qorganizeritemoccurrencefetchrequest.o(.constdata)
    QtMobility::qt_meta_stringdata_QOrganizerItemOccurrenceFetchRequest 0x0003dcb4   Data          38  qorganizeritemoccurrencefetchrequest.o(.constdata)
    .constdata$1                             0x0003dcdc   Data           0  qorganizeritemidfetchrequest.o(.constdata)
    .constdata                               0x0003dcdc   Section      106  qorganizeritemidfetchrequest.o(.constdata)
    QtMobility::qt_meta_data_QOrganizerItemIdFetchRequest 0x0003dcec   Data          60  qorganizeritemidfetchrequest.o(.constdata)
    QtMobility::qt_meta_stringdata_QOrganizerItemIdFetchRequest 0x0003dd28   Data          30  qorganizeritemidfetchrequest.o(.constdata)
    .constdata$1                             0x0003dd48   Data           0  qorganizeritemremoverequest.o(.constdata)
    .constdata                               0x0003dd48   Section      105  qorganizeritemremoverequest.o(.constdata)
    QtMobility::qt_meta_data_QOrganizerItemRemoveRequest 0x0003dd58   Data          60  qorganizeritemremoverequest.o(.constdata)
    QtMobility::qt_meta_stringdata_QOrganizerItemRemoveRequest 0x0003dd94   Data          29  qorganizeritemremoverequest.o(.constdata)
    .constdata$1                             0x0003ddb4   Data           0  qorganizeritemsaverequest.o(.constdata)
    .constdata                               0x0003ddb4   Section      103  qorganizeritemsaverequest.o(.constdata)
    QtMobility::qt_meta_data_QOrganizerItemSaveRequest 0x0003ddc4   Data          60  qorganizeritemsaverequest.o(.constdata)
    QtMobility::qt_meta_stringdata_QOrganizerItemSaveRequest 0x0003de00   Data          27  qorganizeritemsaverequest.o(.constdata)
    .constdata__ZN9stlp_priv15_Integer_limitsIaLan128ELa127ELin1ELb1EE6digitsE 0x0003de1c   Section        4  qorganizercollection.o(.constdata__ZN9stlp_priv15_Integer_limitsIaLan128ELa127ELin1ELb1EE6digitsE)
    .constdata__ZN9stlp_priv15_Integer_limitsIbLb0ELb1ELi1ELb0EE6digitsE 0x0003de20   Section        4  qorganizercollection.o(.constdata__ZN9stlp_priv15_Integer_limitsIbLb0ELb1ELi1ELb0EE6digitsE)
    .constdata__ZN9stlp_priv15_Integer_limitsIcLc128ELc127ELin1ELb1EE6digitsE 0x0003de24   Section        4  qorganizercollection.o(.constdata__ZN9stlp_priv15_Integer_limitsIcLc128ELc127ELin1ELb1EE6digitsE)
    .constdata__ZN9stlp_priv15_Integer_limitsIhLh0ELh255ELin1ELb1EE6digitsE 0x0003de28   Section        4  qorganizercollection.o(.constdata__ZN9stlp_priv15_Integer_limitsIhLh0ELh255ELin1ELb1EE6digitsE)
    .constdata__ZN9stlp_priv15_Integer_limitsIiLin2147483648ELi2147483647ELin1ELb1EE6digitsE 0x0003de2c   Section        4  qorganizercollection.o(.constdata__ZN9stlp_priv15_Integer_limitsIiLin2147483648ELi2147483647ELin1ELb1EE6digitsE)
    .constdata__ZN9stlp_priv15_Integer_limitsIiLin2147483648ELi2147483647ELin1ELb1EE9is_signedE 0x0003de30   Section        1  qorganizercollection.o(.constdata__ZN9stlp_priv15_Integer_limitsIiLin2147483648ELi2147483647ELin1ELb1EE9is_signedE)
    .constdata__ZN9stlp_priv15_Integer_limitsIjLj0ELj4294967295ELin1ELb1EE6digitsE 0x0003de34   Section        4  qorganizercollection.o(.constdata__ZN9stlp_priv15_Integer_limitsIjLj0ELj4294967295ELin1ELb1EE6digitsE)
    .constdata__ZN9stlp_priv15_Integer_limitsIlLln2147483648ELl2147483647ELin1ELb1EE6digitsE 0x0003de38   Section        4  qorganizercollection.o(.constdata__ZN9stlp_priv15_Integer_limitsIlLln2147483648ELl2147483647ELin1ELb1EE6digitsE)
    .constdata__ZN9stlp_priv15_Integer_limitsImLm0ELm4294967295ELin1ELb1EE6digitsE 0x0003de3c   Section        4  qorganizercollection.o(.constdata__ZN9stlp_priv15_Integer_limitsImLm0ELm4294967295ELin1ELb1EE6digitsE)
    .constdata__ZN9stlp_priv15_Integer_limitsIsLsn32768ELs32767ELin1ELb1EE6digitsE 0x0003de40   Section        4  qorganizercollection.o(.constdata__ZN9stlp_priv15_Integer_limitsIsLsn32768ELs32767ELin1ELb1EE6digitsE)
    .constdata__ZN9stlp_priv15_Integer_limitsItLt0ELt65535ELin1ELb1EE6digitsE 0x0003de44   Section        4  qorganizercollection.o(.constdata__ZN9stlp_priv15_Integer_limitsItLt0ELt65535ELin1ELb1EE6digitsE)
    .constdata__ZN9stlp_priv15_Integer_limitsIwLw0ELw65535ELin1ELb1EE6digitsE 0x0003de48   Section        4  qorganizercollection.o(.constdata__ZN9stlp_priv15_Integer_limitsIwLw0ELw65535ELin1ELb1EE6digitsE)
    .constdata__ZN9stlp_priv15_Integer_limitsIxLxn9223372036854775808ELx9223372036854775807ELin1ELb1EE6digitsE 0x0003de4c   Section        4  qorganizercollection.o(.constdata__ZN9stlp_priv15_Integer_limitsIxLxn9223372036854775808ELx9223372036854775807ELin1ELb1EE6digitsE)
    .constdata__ZN9stlp_priv15_Integer_limitsIyLy0ELy18446744073709551615ELin1ELb1EE6digitsE 0x0003de50   Section        4  qorganizercollection.o(.constdata__ZN9stlp_priv15_Integer_limitsIyLy0ELy18446744073709551615ELin1ELb1EE6digitsE)
    .constdata__ZTI11QSharedData             0x0003de54   Section        8  qorganizeritemmemorybackend.o(.constdata__ZTI11QSharedData)
    .constdata__ZTIN10QtMobility17QOrganizerManagerE 0x0003de5c   Section       12  qorganizermanager.o(.constdata__ZTIN10QtMobility17QOrganizerManagerE)
    .constdata__ZTIN10QtMobility22QOrganizerItemEngineIdE 0x0003de68   Section       24  qorganizeritemmemorybackend.o(.constdata__ZTIN10QtMobility22QOrganizerItemEngineIdE)
    .constdata__ZTIN10QtMobility23QOrganizerManagerEngineE 0x0003de80   Section       12  qorganizermanagerengine.o(.constdata__ZTIN10QtMobility23QOrganizerManagerEngineE)
    .constdata__ZTIN10QtMobility25QOrganizerAbstractRequestE 0x0003de8c   Section       12  qorganizerabstractrequest.o(.constdata__ZTIN10QtMobility25QOrganizerAbstractRequestE)
    .constdata__ZTIN10QtMobility25QOrganizerItemSaveRequestE 0x0003de98   Section       12  qorganizeritemsaverequest.o(.constdata__ZTIN10QtMobility25QOrganizerItemSaveRequestE)
    .constdata__ZTIN10QtMobility26QOrganizerItemFetchRequestE 0x0003dea4   Section       12  qorganizeritemfetchrequest.o(.constdata__ZTIN10QtMobility26QOrganizerItemFetchRequestE)
    .constdata__ZTIN10QtMobility26QOrganizerItemMemoryEngineE 0x0003deb0   Section       12  qorganizeritemmemorybackend.o(.constdata__ZTIN10QtMobility26QOrganizerItemMemoryEngineE)
    .constdata__ZTIN10QtMobility27QOrganizerItemFilterPrivateE 0x0003debc   Section       24  qorganizeritemchangelogfilter.o(.constdata__ZTIN10QtMobility27QOrganizerItemFilterPrivateE)
    .constdata__ZTIN10QtMobility27QOrganizerItemInvalidEngineE 0x0003ded4   Section       12  qorganizeriteminvalidbackend.o(.constdata__ZTIN10QtMobility27QOrganizerItemInvalidEngineE)
    .constdata__ZTIN10QtMobility27QOrganizerItemRemoveRequestE 0x0003dee0   Section       12  qorganizeritemremoverequest.o(.constdata__ZTIN10QtMobility27QOrganizerItemRemoveRequestE)
    .constdata__ZTIN10QtMobility28QOrganizerCollectionEngineIdE 0x0003deec   Section       24  qorganizeritemmemorybackend.o(.constdata__ZTIN10QtMobility28QOrganizerCollectionEngineIdE)
    .constdata__ZTIN10QtMobility28QOrganizerItemIdFetchRequestE 0x0003df04   Section       12  qorganizeritemidfetchrequest.o(.constdata__ZTIN10QtMobility28QOrganizerItemIdFetchRequestE)
    .constdata__ZTIN10QtMobility28QOrganizerItemMemoryEngineIdE 0x0003df10   Section       12  qorganizeritemmemorybackend.o(.constdata__ZTIN10QtMobility28QOrganizerItemMemoryEngineIdE)
    .constdata__ZTIN10QtMobility29QOrganizerItemIdFilterPrivateE 0x0003df1c   Section       12  qorganizeritemidfilter.o(.constdata__ZTIN10QtMobility29QOrganizerItemIdFilterPrivateE)
    .constdata__ZTIN10QtMobility30QOrganizerManagerEngineFactoryE 0x0003df28   Section        8  qorganizermanagerenginefactory.o(.constdata__ZTIN10QtMobility30QOrganizerManagerEngineFactoryE)
    .constdata__ZTIN10QtMobility31QOrganizerCollectionSaveRequestE 0x0003df30   Section       12  qorganizercollectionsaverequest.o(.constdata__ZTIN10QtMobility31QOrganizerCollectionSaveRequestE)
    .constdata__ZTIN10QtMobility32QOrganizerAbstractRequestPrivateE 0x0003df3c   Section        8  qorganizerabstractrequest.o(.constdata__ZTIN10QtMobility32QOrganizerAbstractRequestPrivateE)
    .constdata__ZTIN10QtMobility32QOrganizerCollectionFetchRequestE 0x0003df44   Section       12  qorganizercollectionfetchrequest.o(.constdata__ZTIN10QtMobility32QOrganizerCollectionFetchRequestE)
    .constdata__ZTIN10QtMobility32QOrganizerItemSaveRequestPrivateE 0x0003df50   Section       12  qorganizermanagerengine.o(.constdata__ZTIN10QtMobility32QOrganizerItemSaveRequestPrivateE)
    .constdata__ZTIN10QtMobility32QOrganizerItemUnionFilterPrivateE 0x0003df5c   Section       12  qorganizeritemunionfilter.o(.constdata__ZTIN10QtMobility32QOrganizerItemUnionFilterPrivateE)
    .constdata__ZTIN10QtMobility33QOrganizerCollectionRemoveRequestE 0x0003df68   Section       12  qorganizercollectionremoverequest.o(.constdata__ZTIN10QtMobility33QOrganizerCollectionRemoveRequestE)
    .constdata__ZTIN10QtMobility33QOrganizerItemDetailFilterPrivateE 0x0003df74   Section       12  qorganizeritemdetailfilter.o(.constdata__ZTIN10QtMobility33QOrganizerItemDetailFilterPrivateE)
    .constdata__ZTIN10QtMobility33QOrganizerItemFetchRequestPrivateE 0x0003df80   Section       12  qorganizermanagerengine.o(.constdata__ZTIN10QtMobility33QOrganizerItemFetchRequestPrivateE)
    .constdata__ZTIN10QtMobility34QOrganizerCollectionMemoryEngineIdE 0x0003df8c   Section       12  qorganizeritemmemorybackend.o(.constdata__ZTIN10QtMobility34QOrganizerCollectionMemoryEngineIdE)
    .constdata__ZTIN10QtMobility34QOrganizerItemInvalidFilterPrivateE 0x0003df98   Section       12  qorganizeriteminvalidfilter.o(.constdata__ZTIN10QtMobility34QOrganizerItemInvalidFilterPrivateE)
    .constdata__ZTIN10QtMobility34QOrganizerItemRemoveRequestPrivateE 0x0003dfa4   Section       12  qorganizermanagerengine.o(.constdata__ZTIN10QtMobility34QOrganizerItemRemoveRequestPrivateE)
    .constdata__ZTIN10QtMobility35QOrganizerItemFetchForExportRequestE 0x0003dfb0   Section       12  qorganizeritemfetchforexportrequest.o(.constdata__ZTIN10QtMobility35QOrganizerItemFetchForExportRequestE)
    .constdata__ZTIN10QtMobility35QOrganizerItemIdFetchRequestPrivateE 0x0003dfbc   Section       12  qorganizermanagerengine.o(.constdata__ZTIN10QtMobility35QOrganizerItemIdFetchRequestPrivateE)
    .constdata__ZTIN10QtMobility36QOrganizerItemChangeLogFilterPrivateE 0x0003dfc8   Section       12  qorganizeritemchangelogfilter.o(.constdata__ZTIN10QtMobility36QOrganizerItemChangeLogFilterPrivateE)
    .constdata__ZTIN10QtMobility36QOrganizerItemOccurrenceFetchRequestE 0x0003dfd4   Section       12  qorganizeritemoccurrencefetchrequest.o(.constdata__ZTIN10QtMobility36QOrganizerItemOccurrenceFetchRequestE)
    .constdata__ZTIN10QtMobility37QOrganizerItemCollectionFilterPrivateE 0x0003dfe0   Section       12  qorganizeritemcollectionfilter.o(.constdata__ZTIN10QtMobility37QOrganizerItemCollectionFilterPrivateE)
    .constdata__ZTIN10QtMobility38QOrganizerCollectionSaveRequestPrivateE 0x0003dfec   Section       12  qorganizermanagerengine.o(.constdata__ZTIN10QtMobility38QOrganizerCollectionSaveRequestPrivateE)
    .constdata__ZTIN10QtMobility38QOrganizerItemDetailRangeFilterPrivateE 0x0003dff8   Section       12  qorganizeritemdetailrangefilter.o(.constdata__ZTIN10QtMobility38QOrganizerItemDetailRangeFilterPrivateE)
    .constdata__ZTIN10QtMobility39QOrganizerCollectionFetchRequestPrivateE 0x0003e004   Section       12  qorganizercollectionfetchrequest.o(.constdata__ZTIN10QtMobility39QOrganizerCollectionFetchRequestPrivateE)
    .constdata__ZTIN10QtMobility39QOrganizerItemIntersectionFilterPrivateE 0x0003e010   Section       12  qorganizeritemintersectionfilter.o(.constdata__ZTIN10QtMobility39QOrganizerItemIntersectionFilterPrivateE)
    .constdata__ZTIN10QtMobility40QOrganizerCollectionRemoveRequestPrivateE 0x0003e01c   Section       12  qorganizermanagerengine.o(.constdata__ZTIN10QtMobility40QOrganizerCollectionRemoveRequestPrivateE)
    .constdata__ZTIN10QtMobility41QOrganizerItemDetailDefinitionSaveRequestE 0x0003e028   Section       12  qorganizeritemdetaildefinitionsaverequest.o(.constdata__ZTIN10QtMobility41QOrganizerItemDetailDefinitionSaveRequestE)
    .constdata__ZTIN10QtMobility42QOrganizerItemDetailDefinitionFetchRequestE 0x0003e034   Section       12  qorganizeritemdetaildefinitionfetchrequest.o(.constdata__ZTIN10QtMobility42QOrganizerItemDetailDefinitionFetchRequestE)
    .constdata__ZTIN10QtMobility42QOrganizerItemFetchForExportRequestPrivateE 0x0003e040   Section       12  qorganizermanagerengine.o(.constdata__ZTIN10QtMobility42QOrganizerItemFetchForExportRequestPrivateE)
    .constdata__ZTIN10QtMobility43QOrganizerItemDetailDefinitionRemoveRequestE 0x0003e04c   Section       12  qorganizeritemdetaildefinitionremoverequest.o(.constdata__ZTIN10QtMobility43QOrganizerItemDetailDefinitionRemoveRequestE)
    .constdata__ZTIN10QtMobility43QOrganizerItemOccurrenceFetchRequestPrivateE 0x0003e058   Section       12  qorganizermanagerengine.o(.constdata__ZTIN10QtMobility43QOrganizerItemOccurrenceFetchRequestPrivateE)
    .constdata__ZTIN10QtMobility48QOrganizerItemDetailDefinitionSaveRequestPrivateE 0x0003e064   Section       12  qorganizermanagerengine.o(.constdata__ZTIN10QtMobility48QOrganizerItemDetailDefinitionSaveRequestPrivateE)
    .constdata__ZTIN10QtMobility49QOrganizerItemDetailDefinitionFetchRequestPrivateE 0x0003e070   Section       12  qorganizermanagerengine.o(.constdata__ZTIN10QtMobility49QOrganizerItemDetailDefinitionFetchRequestPrivateE)
    .constdata__ZTIN10QtMobility50QOrganizerItemDetailDefinitionRemoveRequestPrivateE 0x0003e07c   Section       12  qorganizermanagerengine.o(.constdata__ZTIN10QtMobility50QOrganizerItemDetailDefinitionRemoveRequestPrivateE)
    .constdata__ZTS11QSharedData             0x0003e088   Section       14  qorganizeritemmemorybackend.o(.constdata__ZTS11QSharedData)
    .constdata__ZTSN10QtMobility17QOrganizerManagerE 0x0003e096   Section       34  qorganizermanager.o(.constdata__ZTSN10QtMobility17QOrganizerManagerE)
    .constdata__ZTSN10QtMobility22QOrganizerItemEngineIdE 0x0003e0b8   Section       39  qorganizeritemmemorybackend.o(.constdata__ZTSN10QtMobility22QOrganizerItemEngineIdE)
    .constdata__ZTSN10QtMobility23QOrganizerManagerEngineE 0x0003e0df   Section       40  qorganizermanagerengine.o(.constdata__ZTSN10QtMobility23QOrganizerManagerEngineE)
    .constdata__ZTSN10QtMobility25QOrganizerAbstractRequestE 0x0003e107   Section       42  qorganizerabstractrequest.o(.constdata__ZTSN10QtMobility25QOrganizerAbstractRequestE)
    .constdata__ZTSN10QtMobility25QOrganizerItemSaveRequestE 0x0003e131   Section       42  qorganizeritemsaverequest.o(.constdata__ZTSN10QtMobility25QOrganizerItemSaveRequestE)
    .constdata__ZTSN10QtMobility26QOrganizerItemFetchRequestE 0x0003e15b   Section       43  qorganizeritemfetchrequest.o(.constdata__ZTSN10QtMobility26QOrganizerItemFetchRequestE)
    .constdata__ZTSN10QtMobility26QOrganizerItemMemoryEngineE 0x0003e186   Section       43  qorganizeritemmemorybackend.o(.constdata__ZTSN10QtMobility26QOrganizerItemMemoryEngineE)
    .constdata__ZTSN10QtMobility27QOrganizerItemFilterPrivateE 0x0003e1b1   Section       44  qorganizeritemchangelogfilter.o(.constdata__ZTSN10QtMobility27QOrganizerItemFilterPrivateE)
    .constdata__ZTSN10QtMobility27QOrganizerItemInvalidEngineE 0x0003e1dd   Section       44  qorganizeriteminvalidbackend.o(.constdata__ZTSN10QtMobility27QOrganizerItemInvalidEngineE)
    .constdata__ZTSN10QtMobility27QOrganizerItemRemoveRequestE 0x0003e209   Section       44  qorganizeritemremoverequest.o(.constdata__ZTSN10QtMobility27QOrganizerItemRemoveRequestE)
    .constdata__ZTSN10QtMobility28QOrganizerCollectionEngineIdE 0x0003e235   Section       45  qorganizeritemmemorybackend.o(.constdata__ZTSN10QtMobility28QOrganizerCollectionEngineIdE)
    .constdata__ZTSN10QtMobility28QOrganizerItemIdFetchRequestE 0x0003e262   Section       45  qorganizeritemidfetchrequest.o(.constdata__ZTSN10QtMobility28QOrganizerItemIdFetchRequestE)
    .constdata__ZTSN10QtMobility28QOrganizerItemMemoryEngineIdE 0x0003e28f   Section       45  qorganizeritemmemorybackend.o(.constdata__ZTSN10QtMobility28QOrganizerItemMemoryEngineIdE)
    .constdata__ZTSN10QtMobility29QOrganizerItemIdFilterPrivateE 0x0003e2bc   Section       46  qorganizeritemidfilter.o(.constdata__ZTSN10QtMobility29QOrganizerItemIdFilterPrivateE)
    .constdata__ZTSN10QtMobility30QOrganizerManagerEngineFactoryE 0x0003e2ea   Section       47  qorganizermanagerenginefactory.o(.constdata__ZTSN10QtMobility30QOrganizerManagerEngineFactoryE)
    .constdata__ZTSN10QtMobility31QOrganizerCollectionSaveRequestE 0x0003e319   Section       48  qorganizercollectionsaverequest.o(.constdata__ZTSN10QtMobility31QOrganizerCollectionSaveRequestE)
    .constdata__ZTSN10QtMobility32QOrganizerAbstractRequestPrivateE 0x0003e349   Section       49  qorganizerabstractrequest.o(.constdata__ZTSN10QtMobility32QOrganizerAbstractRequestPrivateE)
    .constdata__ZTSN10QtMobility32QOrganizerCollectionFetchRequestE 0x0003e37a   Section       49  qorganizercollectionfetchrequest.o(.constdata__ZTSN10QtMobility32QOrganizerCollectionFetchRequestE)
    .constdata__ZTSN10QtMobility32QOrganizerItemSaveRequestPrivateE 0x0003e3ab   Section       49  qorganizermanagerengine.o(.constdata__ZTSN10QtMobility32QOrganizerItemSaveRequestPrivateE)
    .constdata__ZTSN10QtMobility32QOrganizerItemUnionFilterPrivateE 0x0003e3dc   Section       49  qorganizeritemunionfilter.o(.constdata__ZTSN10QtMobility32QOrganizerItemUnionFilterPrivateE)
    .constdata__ZTSN10QtMobility33QOrganizerCollectionRemoveRequestE 0x0003e40d   Section       50  qorganizercollectionremoverequest.o(.constdata__ZTSN10QtMobility33QOrganizerCollectionRemoveRequestE)
    .constdata__ZTSN10QtMobility33QOrganizerItemDetailFilterPrivateE 0x0003e43f   Section       50  qorganizeritemdetailfilter.o(.constdata__ZTSN10QtMobility33QOrganizerItemDetailFilterPrivateE)
    .constdata__ZTSN10QtMobility33QOrganizerItemFetchRequestPrivateE 0x0003e471   Section       50  qorganizermanagerengine.o(.constdata__ZTSN10QtMobility33QOrganizerItemFetchRequestPrivateE)
    .constdata__ZTSN10QtMobility34QOrganizerCollectionMemoryEngineIdE 0x0003e4a3   Section       51  qorganizeritemmemorybackend.o(.constdata__ZTSN10QtMobility34QOrganizerCollectionMemoryEngineIdE)
    .constdata__ZTSN10QtMobility34QOrganizerItemInvalidFilterPrivateE 0x0003e4d6   Section       51  qorganizeriteminvalidfilter.o(.constdata__ZTSN10QtMobility34QOrganizerItemInvalidFilterPrivateE)
    .constdata__ZTSN10QtMobility34QOrganizerItemRemoveRequestPrivateE 0x0003e509   Section       51  qorganizermanagerengine.o(.constdata__ZTSN10QtMobility34QOrganizerItemRemoveRequestPrivateE)
    .constdata__ZTSN10QtMobility35QOrganizerItemFetchForExportRequestE 0x0003e53c   Section       52  qorganizeritemfetchforexportrequest.o(.constdata__ZTSN10QtMobility35QOrganizerItemFetchForExportRequestE)
    .constdata__ZTSN10QtMobility35QOrganizerItemIdFetchRequestPrivateE 0x0003e570   Section       52  qorganizermanagerengine.o(.constdata__ZTSN10QtMobility35QOrganizerItemIdFetchRequestPrivateE)
    .constdata__ZTSN10QtMobility36QOrganizerItemChangeLogFilterPrivateE 0x0003e5a4   Section       53  qorganizeritemchangelogfilter.o(.constdata__ZTSN10QtMobility36QOrganizerItemChangeLogFilterPrivateE)
    .constdata__ZTSN10QtMobility36QOrganizerItemOccurrenceFetchRequestE 0x0003e5d9   Section       53  qorganizeritemoccurrencefetchrequest.o(.constdata__ZTSN10QtMobility36QOrganizerItemOccurrenceFetchRequestE)
    .constdata__ZTSN10QtMobility37QOrganizerItemCollectionFilterPrivateE 0x0003e60e   Section       54  qorganizeritemcollectionfilter.o(.constdata__ZTSN10QtMobility37QOrganizerItemCollectionFilterPrivateE)
    .constdata__ZTSN10QtMobility38QOrganizerCollectionSaveRequestPrivateE 0x0003e644   Section       55  qorganizermanagerengine.o(.constdata__ZTSN10QtMobility38QOrganizerCollectionSaveRequestPrivateE)
    .constdata__ZTSN10QtMobility38QOrganizerItemDetailRangeFilterPrivateE 0x0003e67b   Section       55  qorganizeritemdetailrangefilter.o(.constdata__ZTSN10QtMobility38QOrganizerItemDetailRangeFilterPrivateE)
    .constdata__ZTSN10QtMobility39QOrganizerCollectionFetchRequestPrivateE 0x0003e6b2   Section       56  qorganizercollectionfetchrequest.o(.constdata__ZTSN10QtMobility39QOrganizerCollectionFetchRequestPrivateE)
    .constdata__ZTSN10QtMobility39QOrganizerItemIntersectionFilterPrivateE 0x0003e6ea   Section       56  qorganizeritemintersectionfilter.o(.constdata__ZTSN10QtMobility39QOrganizerItemIntersectionFilterPrivateE)
    .constdata__ZTSN10QtMobility40QOrganizerCollectionRemoveRequestPrivateE 0x0003e722   Section       57  qorganizermanagerengine.o(.constdata__ZTSN10QtMobility40QOrganizerCollectionRemoveRequestPrivateE)
    .constdata__ZTSN10QtMobility41QOrganizerItemDetailDefinitionSaveRequestE 0x0003e75b   Section       58  qorganizeritemdetaildefinitionsaverequest.o(.constdata__ZTSN10QtMobility41QOrganizerItemDetailDefinitionSaveRequestE)
    .constdata__ZTSN10QtMobility42QOrganizerItemDetailDefinitionFetchRequestE 0x0003e795   Section       59  qorganizeritemdetaildefinitionfetchrequest.o(.constdata__ZTSN10QtMobility42QOrganizerItemDetailDefinitionFetchRequestE)
    .constdata__ZTSN10QtMobility42QOrganizerItemFetchForExportRequestPrivateE 0x0003e7d0   Section       59  qorganizermanagerengine.o(.constdata__ZTSN10QtMobility42QOrganizerItemFetchForExportRequestPrivateE)
    .constdata__ZTSN10QtMobility43QOrganizerItemDetailDefinitionRemoveRequestE 0x0003e80b   Section       60  qorganizeritemdetaildefinitionremoverequest.o(.constdata__ZTSN10QtMobility43QOrganizerItemDetailDefinitionRemoveRequestE)
    .constdata__ZTSN10QtMobility43QOrganizerItemOccurrenceFetchRequestPrivateE 0x0003e847   Section       60  qorganizermanagerengine.o(.constdata__ZTSN10QtMobility43QOrganizerItemOccurrenceFetchRequestPrivateE)
    .constdata__ZTSN10QtMobility48QOrganizerItemDetailDefinitionSaveRequestPrivateE 0x0003e883   Section       65  qorganizermanagerengine.o(.constdata__ZTSN10QtMobility48QOrganizerItemDetailDefinitionSaveRequestPrivateE)
    .constdata__ZTSN10QtMobility49QOrganizerItemDetailDefinitionFetchRequestPrivateE 0x0003e8c4   Section       66  qorganizermanagerengine.o(.constdata__ZTSN10QtMobility49QOrganizerItemDetailDefinitionFetchRequestPrivateE)
    .constdata__ZTSN10QtMobility50QOrganizerItemDetailDefinitionRemoveRequestPrivateE 0x0003e906   Section       67  qorganizermanagerengine.o(.constdata__ZTSN10QtMobility50QOrganizerItemDetailDefinitionRemoveRequestPrivateE)
    .constdata__ZTVN10QtMobility17QOrganizerManagerE 0x0003e94c   Section       56  qorganizermanager.o(.constdata__ZTVN10QtMobility17QOrganizerManagerE)
    .constdata__ZTVN10QtMobility22QOrganizerItemEngineIdE 0x0003e984   Section       44  qorganizeritemmemorybackend.o(.constdata__ZTVN10QtMobility22QOrganizerItemEngineIdE)
    .constdata__ZTVN10QtMobility23QOrganizerManagerEngineE 0x0003e9b0   Section      188  qorganizermanagerengine.o(.constdata__ZTVN10QtMobility23QOrganizerManagerEngineE)
    .constdata__ZTVN10QtMobility25QOrganizerAbstractRequestE 0x0003ea6c   Section       56  qorganizerabstractrequest.o(.constdata__ZTVN10QtMobility25QOrganizerAbstractRequestE)
    .constdata__ZTVN10QtMobility25QOrganizerItemSaveRequestE 0x0003eaa4   Section       56  qorganizeritemsaverequest.o(.constdata__ZTVN10QtMobility25QOrganizerItemSaveRequestE)
    .constdata__ZTVN10QtMobility26QOrganizerItemFetchRequestE 0x0003eadc   Section       56  qorganizeritemfetchrequest.o(.constdata__ZTVN10QtMobility26QOrganizerItemFetchRequestE)
    .constdata__ZTVN10QtMobility26QOrganizerItemMemoryEngineE 0x0003eb14   Section      204  qorganizeritemmemorybackend.o(.constdata__ZTVN10QtMobility26QOrganizerItemMemoryEngineE)
    .constdata__ZTVN10QtMobility27QOrganizerItemFilterPrivateE 0x0003ebe0   Section       36  qorganizeritemchangelogfilter.o(.constdata__ZTVN10QtMobility27QOrganizerItemFilterPrivateE)
    .constdata__ZTVN10QtMobility27QOrganizerItemInvalidEngineE 0x0003ec04   Section      192  qorganizeriteminvalidbackend.o(.constdata__ZTVN10QtMobility27QOrganizerItemInvalidEngineE)
    .constdata__ZTVN10QtMobility27QOrganizerItemRemoveRequestE 0x0003ecc4   Section       56  qorganizeritemremoverequest.o(.constdata__ZTVN10QtMobility27QOrganizerItemRemoveRequestE)
    .constdata__ZTVN10QtMobility28QOrganizerCollectionEngineIdE 0x0003ecfc   Section       44  qorganizeritemmemorybackend.o(.constdata__ZTVN10QtMobility28QOrganizerCollectionEngineIdE)
    .constdata__ZTVN10QtMobility28QOrganizerItemIdFetchRequestE 0x0003ed28   Section       56  qorganizeritemidfetchrequest.o(.constdata__ZTVN10QtMobility28QOrganizerItemIdFetchRequestE)
    .constdata__ZTVN10QtMobility28QOrganizerItemMemoryEngineIdE 0x0003ed60   Section       44  qorganizeritemmemorybackend.o(.constdata__ZTVN10QtMobility28QOrganizerItemMemoryEngineIdE)
    .constdata__ZTVN10QtMobility29QOrganizerItemIdFilterPrivateE 0x0003ed8c   Section       36  qorganizeritemidfilter.o(.constdata__ZTVN10QtMobility29QOrganizerItemIdFilterPrivateE)
    .constdata__ZTVN10QtMobility30QOrganizerManagerEngineFactoryE 0x0003edb0   Section       36  qorganizermanagerenginefactory.o(.constdata__ZTVN10QtMobility30QOrganizerManagerEngineFactoryE)
    .constdata__ZTVN10QtMobility31QOrganizerCollectionSaveRequestE 0x0003edd4   Section       56  qorganizercollectionsaverequest.o(.constdata__ZTVN10QtMobility31QOrganizerCollectionSaveRequestE)
    .constdata__ZTVN10QtMobility32QOrganizerAbstractRequestPrivateE 0x0003ee0c   Section       20  qorganizerabstractrequest.o(.constdata__ZTVN10QtMobility32QOrganizerAbstractRequestPrivateE)
    .constdata__ZTVN10QtMobility32QOrganizerCollectionFetchRequestE 0x0003ee20   Section       56  qorganizercollectionfetchrequest.o(.constdata__ZTVN10QtMobility32QOrganizerCollectionFetchRequestE)
    .constdata__ZTVN10QtMobility32QOrganizerItemSaveRequestPrivateE 0x0003ee58   Section       20  qorganizermanagerengine.o(.constdata__ZTVN10QtMobility32QOrganizerItemSaveRequestPrivateE)
    .constdata__ZTVN10QtMobility32QOrganizerItemUnionFilterPrivateE 0x0003ee6c   Section       36  qorganizeritemunionfilter.o(.constdata__ZTVN10QtMobility32QOrganizerItemUnionFilterPrivateE)
    .constdata__ZTVN10QtMobility33QOrganizerCollectionRemoveRequestE 0x0003ee90   Section       56  qorganizercollectionremoverequest.o(.constdata__ZTVN10QtMobility33QOrganizerCollectionRemoveRequestE)
    .constdata__ZTVN10QtMobility33QOrganizerItemDetailFilterPrivateE 0x0003eec8   Section       36  qorganizeritemdetailfilter.o(.constdata__ZTVN10QtMobility33QOrganizerItemDetailFilterPrivateE)
    .constdata__ZTVN10QtMobility33QOrganizerItemFetchRequestPrivateE 0x0003eeec   Section       20  qorganizermanagerengine.o(.constdata__ZTVN10QtMobility33QOrganizerItemFetchRequestPrivateE)
    .constdata__ZTVN10QtMobility34QOrganizerCollectionMemoryEngineIdE 0x0003ef00   Section       44  qorganizeritemmemorybackend.o(.constdata__ZTVN10QtMobility34QOrganizerCollectionMemoryEngineIdE)
    .constdata__ZTVN10QtMobility34QOrganizerItemInvalidFilterPrivateE 0x0003ef2c   Section       36  qorganizeriteminvalidfilter.o(.constdata__ZTVN10QtMobility34QOrganizerItemInvalidFilterPrivateE)
    .constdata__ZTVN10QtMobility34QOrganizerItemRemoveRequestPrivateE 0x0003ef50   Section       20  qorganizermanagerengine.o(.constdata__ZTVN10QtMobility34QOrganizerItemRemoveRequestPrivateE)
    .constdata__ZTVN10QtMobility35QOrganizerItemFetchForExportRequestE 0x0003ef64   Section       56  qorganizeritemfetchforexportrequest.o(.constdata__ZTVN10QtMobility35QOrganizerItemFetchForExportRequestE)
    .constdata__ZTVN10QtMobility35QOrganizerItemIdFetchRequestPrivateE 0x0003ef9c   Section       20  qorganizermanagerengine.o(.constdata__ZTVN10QtMobility35QOrganizerItemIdFetchRequestPrivateE)
    .constdata__ZTVN10QtMobility36QOrganizerItemChangeLogFilterPrivateE 0x0003efb0   Section       36  qorganizeritemchangelogfilter.o(.constdata__ZTVN10QtMobility36QOrganizerItemChangeLogFilterPrivateE)
    .constdata__ZTVN10QtMobility36QOrganizerItemOccurrenceFetchRequestE 0x0003efd4   Section       56  qorganizeritemoccurrencefetchrequest.o(.constdata__ZTVN10QtMobility36QOrganizerItemOccurrenceFetchRequestE)
    .constdata__ZTVN10QtMobility37QOrganizerItemCollectionFilterPrivateE 0x0003f00c   Section       36  qorganizeritemcollectionfilter.o(.constdata__ZTVN10QtMobility37QOrganizerItemCollectionFilterPrivateE)
    .constdata__ZTVN10QtMobility38QOrganizerCollectionSaveRequestPrivateE 0x0003f030   Section       20  qorganizermanagerengine.o(.constdata__ZTVN10QtMobility38QOrganizerCollectionSaveRequestPrivateE)
    .constdata__ZTVN10QtMobility38QOrganizerItemDetailRangeFilterPrivateE 0x0003f044   Section       36  qorganizeritemdetailrangefilter.o(.constdata__ZTVN10QtMobility38QOrganizerItemDetailRangeFilterPrivateE)
    .constdata__ZTVN10QtMobility39QOrganizerCollectionFetchRequestPrivateE 0x0003f068   Section       20  qorganizercollectionfetchrequest.o(.constdata__ZTVN10QtMobility39QOrganizerCollectionFetchRequestPrivateE)
    .constdata__ZTVN10QtMobility39QOrganizerItemIntersectionFilterPrivateE 0x0003f07c   Section       36  qorganizeritemintersectionfilter.o(.constdata__ZTVN10QtMobility39QOrganizerItemIntersectionFilterPrivateE)
    .constdata__ZTVN10QtMobility40QOrganizerCollectionRemoveRequestPrivateE 0x0003f0a0   Section       20  qorganizermanagerengine.o(.constdata__ZTVN10QtMobility40QOrganizerCollectionRemoveRequestPrivateE)
    .constdata__ZTVN10QtMobility41QOrganizerItemDetailDefinitionSaveRequestE 0x0003f0b4   Section       56  qorganizeritemdetaildefinitionsaverequest.o(.constdata__ZTVN10QtMobility41QOrganizerItemDetailDefinitionSaveRequestE)
    .constdata__ZTVN10QtMobility42QOrganizerItemDetailDefinitionFetchRequestE 0x0003f0ec   Section       56  qorganizeritemdetaildefinitionfetchrequest.o(.constdata__ZTVN10QtMobility42QOrganizerItemDetailDefinitionFetchRequestE)
    .constdata__ZTVN10QtMobility42QOrganizerItemFetchForExportRequestPrivateE 0x0003f124   Section       20  qorganizermanagerengine.o(.constdata__ZTVN10QtMobility42QOrganizerItemFetchForExportRequestPrivateE)
    .constdata__ZTVN10QtMobility43QOrganizerItemDetailDefinitionRemoveRequestE 0x0003f138   Section       56  qorganizeritemdetaildefinitionremoverequest.o(.constdata__ZTVN10QtMobility43QOrganizerItemDetailDefinitionRemoveRequestE)
    .constdata__ZTVN10QtMobility43QOrganizerItemOccurrenceFetchRequestPrivateE 0x0003f170   Section       20  qorganizermanagerengine.o(.constdata__ZTVN10QtMobility43QOrganizerItemOccurrenceFetchRequestPrivateE)
    .constdata__ZTVN10QtMobility48QOrganizerItemDetailDefinitionSaveRequestPrivateE 0x0003f184   Section       20  qorganizermanagerengine.o(.constdata__ZTVN10QtMobility48QOrganizerItemDetailDefinitionSaveRequestPrivateE)
    .constdata__ZTVN10QtMobility49QOrganizerItemDetailDefinitionFetchRequestPrivateE 0x0003f198   Section       20  qorganizermanagerengine.o(.constdata__ZTVN10QtMobility49QOrganizerItemDetailDefinitionFetchRequestPrivateE)
    .constdata__ZTVN10QtMobility50QOrganizerItemDetailDefinitionRemoveRequestPrivateE 0x0003f1ac   Section       20  qorganizermanagerengine.o(.constdata__ZTVN10QtMobility50QOrganizerItemDetailDefinitionRemoveRequestPrivateE)
    .init_array                              0x0003f1c0   Section        4  qorganizeritemdetail.o(.init_array)
    .init_array                              0x0003f1c4   Section        4  qorganizermanager_p.o(.init_array)
    .init_array                              0x0003f1c8   Section        4  qorganizeritemmemorybackend.o(.init_array)
    .ARM.exidx                               0x0003f1cc   Section        8  ucppinit.o(.ARM.exidx)
    .data$0                                  0x00400000   Data           0  qorganizeritemdetail.o(.data)
    .data                                    0x00400000   Section       13  qorganizeritemdetail.o(.data)
    .data$0                                  0x00400010   Data           0  qorganizermanager_p.o(.data)
    .data                                    0x00400010   Section       12  qorganizermanager_p.o(.data)
    .data$0                                  0x0040001c   Data           0  qorganizeritemmemorybackend.o(.data)
    .data                                    0x0040001c   Section        4  qorganizeritemmemorybackend.o(.data)
    .data$0                                  0x00400020   Data           0  ucppfini.o(.data)
    .data                                    0x00400020   Section        4  ucppfini.o(.data)
    .data__ZNSt19_Atomic_swap_structILi1EE12_S_swap_lockE 0x00400024   Section       12  qorganizercollection.o(.data__ZNSt19_Atomic_swap_structILi1EE12_S_swap_lockE)
    .data__ZZN11QMetaTypeIdI4QSetI5QDateEE14qt_metatype_idEvE11metatype_id 0x00400030   Section        4  qorganizermanagerengine.o(.data__ZZN11QMetaTypeIdI4QSetI5QDateEE14qt_metatype_idEvE11metatype_id)
    .data__ZZN11QMetaTypeIdI4QSetIN10QtMobility24QOrganizerRecurrenceRuleEEE14qt_metatype_idEvE11metatype_id 0x00400034   Section        4  qorganizermanagerengine.o(.data__ZZN11QMetaTypeIdI4QSetIN10QtMobility24QOrganizerRecurrenceRuleEEE14qt_metatype_idEvE11metatype_id)
    .data__ZZN11QMetaTypeIdIN10QtMobility16QOrganizerItemIdEE14qt_metatype_idEvE11metatype_id 0x00400038   Section        4  qorganizermanagerengine.o(.data__ZZN11QMetaTypeIdIN10QtMobility16QOrganizerItemIdEE14qt_metatype_idEvE11metatype_id)
    .bss$5                                   0x0040003c   Data           0  ucppfini.o(.bss)
    .bss                                     0x0040003c   Section     2048  ucppfini.o(.bss)

    Global Symbols

    Symbol Name                              Value     Ov Type        Size  Object(Section)

    BuildAttributes$$THUMB_ISAv2$ARM_ISAv5$M$VFPv2$PE$A:L22$X:L11$S22$IEEE1$IW$USESV6$~STKCKD$USESV7$~SHL$OSPACE$ROPI$IEEEJ$EBA8$UX$FPIC$INDIRECT$REQ8$PRES8$EABIv2 0x00000000   Number         0  anon$$obj.o ABSOLUTE
    QtCore{00040703}[2001b2dc].dll           0x00000000   Data           0  anon$$obj.o ABSOLUTE
    QtOrganizer{00010103}[2002bfcd].dll      0x00000000   Data           0  anon$$obj.o ABSOLUTE
    dfpaeabi{000a0000}.dll                   0x00000000   Data           0  anon$$obj.o ABSOLUTE
    drtaeabi{000a0000}.dll                   0x00000000   Data           0  anon$$obj.o ABSOLUTE
    drtrvct2_2{000a0000}.dll                 0x00000000   Data           0  anon$$obj.o ABSOLUTE
    efsrv{000a0000}[100039e4].dll            0x00000000   Data           0  anon$$obj.o ABSOLUTE
    euser{000a0000}[100039e5].dll            0x00000000   Data           0  anon$$obj.o ABSOLUTE
    libc{00010001}[10207369].dll             0x00000000   Data           0  anon$$obj.o ABSOLUTE
    stdnew{000a0000}[20022178].dll           0x00000000   Data           0  anon$$obj.o ABSOLUTE
    qAddPostRoutine(void(*)())                - Undefined Reference
    _Z15qAddPostRoutinePFvvE@QtCore{00040703}[2001b2dc].dll  - Undefined Reference
    qt_message_output(QtMsgType, const char*)  - Undefined Reference
    _Z17qt_message_output9QtMsgTypePKc@QtCore{00040703}[2001b2dc].dll  - Undefined Reference
    qt_symbian_throwIfError(int)              - Undefined Reference
    _Z23qt_symbian_throwIfErrori@QtCore{00040703}[2001b2dc].dll  - Undefined Reference
    QBasicAtomicInt_fetchAndAddOrdered(volatile int*, int)  - Undefined Reference
    _Z34QBasicAtomicInt_fetchAndAddOrderedPVii@QtCore{00040703}[2001b2dc].dll  - Undefined Reference
    qFree(void*)                              - Undefined Reference
    _Z5qFreePv@QtCore{00040703}[2001b2dc].dll  - Undefined Reference
    qHash(const QString&)                     - Undefined Reference
    _Z5qHashRK7QString@QtCore{00040703}[2001b2dc].dll  - Undefined Reference
    qstrcmp(const char*, const char*)         - Undefined Reference
    _Z7qstrcmpPKcS0_@QtCore{00040703}[2001b2dc].dll  - Undefined Reference
    qstrdup(const char*)                      - Undefined Reference
    _Z7qstrdupPKc@QtCore{00040703}[2001b2dc].dll  - Undefined Reference
    QByteArray::realloc(int)                  - Undefined Reference
    _ZN10QByteArray7reallocEi@QtCore{00040703}[2001b2dc].dll  - Undefined Reference
    QDataStream::resetStatus()                - Undefined Reference
    _ZN11QDataStream11resetStatusEv@QtCore{00040703}[2001b2dc].dll  - Undefined Reference
    QDataStream::setStatus(QDataStream::Status)  - Undefined Reference
    _ZN11QDataStream9setStatusENS_6StatusE@QtCore{00040703}[2001b2dc].dll  - Undefined Reference
    QDataStream::operator <<(signed char)     - Undefined Reference
    _ZN11QDataStreamlsEa@QtCore{00040703}[2001b2dc].dll  - Undefined Reference
    QDataStream::operator <<(bool)            - Undefined Reference
    _ZN11QDataStreamlsEb@QtCore{00040703}[2001b2dc].dll  - Undefined Reference
    QDataStream::operator <<(int)             - Undefined Reference
    _ZN11QDataStreamlsEi@QtCore{00040703}[2001b2dc].dll  - Undefined Reference
    QDataStream::operator >>(signed char&)    - Undefined Reference
    _ZN11QDataStreamrsERa@QtCore{00040703}[2001b2dc].dll  - Undefined Reference
    QDataStream::operator >>(bool&)           - Undefined Reference
    _ZN11QDataStreamrsERb@QtCore{00040703}[2001b2dc].dll  - Undefined Reference
    QDataStream::operator >>(int&)            - Undefined Reference
    _ZN11QDataStreamrsERi@QtCore{00040703}[2001b2dc].dll  - Undefined Reference
    QMetaObject::changeGuard(QObject**, QObject*)  - Undefined Reference
    _ZN11QMetaObject11changeGuardEPP7QObjectS1_@QtCore{00040703}[2001b2dc].dll  - Undefined Reference
    QMetaObject::removeGuard(QObject**)       - Undefined Reference
    _ZN11QMetaObject11removeGuardEPP7QObject@QtCore{00040703}[2001b2dc].dll  - Undefined Reference
    QMetaObject::activate(QObject*, const QMetaObject*, int, void**)  - Undefined Reference
    _ZN11QMetaObject8activateEP7QObjectPKS_iPPv@QtCore{00040703}[2001b2dc].dll  - Undefined Reference
    QMetaObject::addGuard(QObject**)          - Undefined Reference
    _ZN11QMetaObject8addGuardEPP7QObject@QtCore{00040703}[2001b2dc].dll  - Undefined Reference
    QTextStream::QTextStream(QString*, QFlags<QIODevice::OpenModeFlag>)  - Undefined Reference
    _ZN11QTextStreamC1EP7QString6QFlagsIN9QIODevice12OpenModeFlagEE@QtCore{00040703}[2001b2dc].dll  - Undefined Reference
    QTextStream::~QTextStream()               - Undefined Reference
    _ZN11QTextStreamD1Ev@QtCore{00040703}[2001b2dc].dll  - Undefined Reference
    QTextStream::operator <<(const QString&)  - Undefined Reference
    _ZN11QTextStreamlsERK7QString@QtCore{00040703}[2001b2dc].dll  - Undefined Reference
    QTextStream::operator <<(char)            - Undefined Reference
    _ZN11QTextStreamlsEc@QtCore{00040703}[2001b2dc].dll  - Undefined Reference
    QTextStream::operator <<(int)             - Undefined Reference
    _ZN11QTextStreamlsEi@QtCore{00040703}[2001b2dc].dll  - Undefined Reference
    QTextStream::operator <<(unsigned)        - Undefined Reference
    _ZN11QTextStreamlsEj@QtCore{00040703}[2001b2dc].dll  - Undefined Reference
    QPluginLoader::staticInstances()          - Undefined Reference
    _ZN13QPluginLoader15staticInstancesEv@QtCore{00040703}[2001b2dc].dll  - Undefined Reference
    QPluginLoader::instance()                 - Undefined Reference
    _ZN13QPluginLoader8instanceEv@QtCore{00040703}[2001b2dc].dll  - Undefined Reference
    QPluginLoader::QPluginLoader(const QString&, QObject*)  - Undefined Reference
    _ZN13QPluginLoaderC1ERK7QStringP7QObject@QtCore{00040703}[2001b2dc].dll  - Undefined Reference
    QPluginLoader::~QPluginLoader()           - Undefined Reference
    _ZN13QPluginLoaderD1Ev@QtCore{00040703}[2001b2dc].dll  - Undefined Reference
    QtSharedPointer::ExternalRefCountData::getAndRef(const QObject*)  - Undefined Reference
    _ZN15QtSharedPointer20ExternalRefCountData9getAndRefEPK7QObject@QtCore{00040703}[2001b2dc].dll  - Undefined Reference
    QCoreApplication::libraryPaths()          - Undefined Reference
    _ZN16QCoreApplication12libraryPathsEv@QtCore{00040703}[2001b2dc].dll  - Undefined Reference
    QCoreApplication::applicationDirPath()    - Undefined Reference
    _ZN16QCoreApplication18applicationDirPathEv@QtCore{00040703}[2001b2dc].dll  - Undefined Reference
    RFs::Close()                              - Undefined Reference
    _ZN3RFs5CloseEv@efsrv{000a0000}[100039e4].dll  - Undefined Reference
    RFs::Connect(int)                         - Undefined Reference
    _ZN3RFs7ConnectEi@efsrv{000a0000}[100039e4].dll  - Undefined Reference
    QDir::toNativeSeparators(const QString&)  - Undefined Reference
    _ZN4QDir18toNativeSeparatorsERK7QString@QtCore{00040703}[2001b2dc].dll  - Undefined Reference
    QDir::cd(const QString&)                  - Undefined Reference
    _ZN4QDir2cdERK7QString@QtCore{00040703}[2001b2dc].dll  - Undefined Reference
    QDir::QDir(const QString&)                - Undefined Reference
    _ZN4QDirC1ERK7QString@QtCore{00040703}[2001b2dc].dll  - Undefined Reference
    QDir::~QDir()                             - Undefined Reference
    _ZN4QDirD1Ev@QtCore{00040703}[2001b2dc].dll  - Undefined Reference
    User::LockedDec(int&)                     - Undefined Reference
    _ZN4User9LockedDecERi@euser{000a0000}[100039e5].dll  - Undefined Reference
    User::LockedInc(int&)                     - Undefined Reference
    _ZN4User9LockedIncERi@euser{000a0000}[100039e5].dll  - Undefined Reference
    QDate::setDate(int, int, int)             - Undefined Reference
    _ZN5QDate7setDateEiii@QtCore{00040703}[2001b2dc].dll  - Undefined Reference
    QTime::QTime(int, int, int, int)          - Undefined Reference
    _ZN5QTimeC1Eiiii@QtCore{00040703}[2001b2dc].dll  - Undefined Reference
    QUuid::createUuid()                       - Undefined Reference
    _ZN5QUuid10createUuidEv@QtCore{00040703}[2001b2dc].dll  - Undefined Reference
    QMutex::lock()                            - Undefined Reference
    _ZN6QMutex4lockEv@QtCore{00040703}[2001b2dc].dll  - Undefined Reference
    QMutex::unlock()                          - Undefined Reference
    _ZN6QMutex6unlockEv@QtCore{00040703}[2001b2dc].dll  - Undefined Reference
    QMutex::QMutex(QMutex::RecursionMode)     - Undefined Reference
    _ZN6QMutexC1ENS_13RecursionModeE@QtCore{00040703}[2001b2dc].dll  - Undefined Reference
    QMutex::~QMutex()                         - Undefined Reference
    _ZN6QMutexD1Ev@QtCore{00040703}[2001b2dc].dll  - Undefined Reference
    QObject::childEvent(QChildEvent*)         - Undefined Reference
    _ZN7QObject10childEventEP11QChildEvent@QtCore{00040703}[2001b2dc].dll  - Undefined Reference
    QObject::timerEvent(QTimerEvent*)         - Undefined Reference
    _ZN7QObject10timerEventEP11QTimerEvent@QtCore{00040703}[2001b2dc].dll  - Undefined Reference
    QObject::customEvent(QEvent*)             - Undefined Reference
    _ZN7QObject11customEventEP6QEvent@QtCore{00040703}[2001b2dc].dll  - Undefined Reference
    QObject::eventFilter(QObject*, QEvent*)   - Undefined Reference
    _ZN7QObject11eventFilterEPS_P6QEvent@QtCore{00040703}[2001b2dc].dll  - Undefined Reference
    QObject::qt_metacall(QMetaObject::Call, int, void**)  - Undefined Reference
    _ZN7QObject11qt_metacallEN11QMetaObject4CallEiPPv@QtCore{00040703}[2001b2dc].dll  - Undefined Reference
    QObject::qt_metacast(const char*)         - Undefined Reference
    _ZN7QObject11qt_metacastEPKc@QtCore{00040703}[2001b2dc].dll  - Undefined Reference
    QObject::connectNotify(const char*)       - Undefined Reference
    _ZN7QObject13connectNotifyEPKc@QtCore{00040703}[2001b2dc].dll  - Undefined Reference
    QObject::disconnectNotify(const char*)    - Undefined Reference
    _ZN7QObject16disconnectNotifyEPKc@QtCore{00040703}[2001b2dc].dll  - Undefined Reference
    QObject::staticMetaObject                 - Undefined Reference
    _ZN7QObject16staticMetaObjectE@QtCore{00040703}[2001b2dc].dll  - Undefined Reference
    QObject::event(QEvent*)                   - Undefined Reference
    _ZN7QObject5eventEP6QEvent@QtCore{00040703}[2001b2dc].dll  - Undefined Reference
    QObject::connect(const QObject*, const char*, const QObject*, const char*, Qt::ConnectionType)  - Undefined Reference
    _ZN7QObject7connectEPKS_PKcS1_S3_N2Qt14ConnectionTypeE@QtCore{00040703}[2001b2dc].dll  - Undefined Reference
    QObject::QObject(QObject*)                - Undefined Reference
    _ZN7QObjectC1EPS_@QtCore{00040703}[2001b2dc].dll  - Undefined Reference
    QObject::~QObject()                       - Undefined Reference
    _ZN7QObjectD1Ev@QtCore{00040703}[2001b2dc].dll  - Undefined Reference
    QRegExp::QRegExp(const QString&, Qt::CaseSensitivity, QRegExp::PatternSyntax)  - Undefined Reference
    _ZN7QRegExpC1ERK7QStringN2Qt15CaseSensitivityENS_13PatternSyntaxE@QtCore{00040703}[2001b2dc].dll  - Undefined Reference
    QRegExp::~QRegExp()                       - Undefined Reference
    _ZN7QRegExpD1Ev@QtCore{00040703}[2001b2dc].dll  - Undefined Reference
    QString::fromLatin1(const char*, int)     - Undefined Reference
    _ZN7QString10fromLatin1EPKci@QtCore{00040703}[2001b2dc].dll  - Undefined Reference
    QString::shared_null                      - Undefined Reference
    _ZN7QString11shared_nullE@QtCore{00040703}[2001b2dc].dll  - Undefined Reference
    QString::compare_helper(const QChar*, int, const QChar*, int, Qt::CaseSensitivity)  - Undefined Reference
    _ZN7QString14compare_helperEPK5QChariS2_iN2Qt15CaseSensitivityE@QtCore{00040703}[2001b2dc].dll  - Undefined Reference
    QString::fromLatin1_helper(const char*, int)  - Undefined Reference
    _ZN7QString17fromLatin1_helperEPKci@QtCore{00040703}[2001b2dc].dll  - Undefined Reference
    QString::free(QString::Data*)             - Undefined Reference
    _ZN7QString4freeEPNS_4DataE@QtCore{00040703}[2001b2dc].dll  - Undefined Reference
    QString::grow(int)                        - Undefined Reference
    _ZN7QString4growEi@QtCore{00040703}[2001b2dc].dll  - Undefined Reference
    QString::append(const QString&)           - Undefined Reference
    _ZN7QString6appendERKS_@QtCore{00040703}[2001b2dc].dll  - Undefined Reference
    QString::number(int, int)                 - Undefined Reference
    _ZN7QString6numberEii@QtCore{00040703}[2001b2dc].dll  - Undefined Reference
    QString::number(unsigned, int)            - Undefined Reference
    _ZN7QString6numberEji@QtCore{00040703}[2001b2dc].dll  - Undefined Reference
    QString::realloc(int)                     - Undefined Reference
    _ZN7QString7reallocEi@QtCore{00040703}[2001b2dc].dll  - Undefined Reference
    QString::realloc()                        - Undefined Reference
    _ZN7QString7reallocEv@QtCore{00040703}[2001b2dc].dll  - Undefined Reference
    QString::replace(QChar, const QLatin1String&, Qt::CaseSensitivity)  - Undefined Reference
    _ZN7QString7replaceE5QCharRK13QLatin1StringN2Qt15CaseSensitivityE@QtCore{00040703}[2001b2dc].dll  - Undefined Reference
    QString::replace(const QLatin1String&, const QLatin1String&, Qt::CaseSensitivity)  - Undefined Reference
    _ZN7QString7replaceERK13QLatin1StringS2_N2Qt15CaseSensitivityE@QtCore{00040703}[2001b2dc].dll  - Undefined Reference
    QString::fromAscii(const char*, int)      - Undefined Reference
    _ZN7QString9fromAsciiEPKci@QtCore{00040703}[2001b2dc].dll  - Undefined Reference
    QString::QString(int, Qt::Initialization)  - Undefined Reference
    _ZN7QStringC1EiN2Qt14InitializationE@QtCore{00040703}[2001b2dc].dll  - Undefined Reference
    QString::operator =(const QString&)       - Undefined Reference
    _ZN7QStringaSERKS_@QtCore{00040703}[2001b2dc].dll  - Undefined Reference
    TPtrC16::TPtrC16(const unsigned short*, int)  - Undefined Reference
    _ZN7TPtrC16C1EPKti@euser{000a0000}[100039e5].dll  - Undefined Reference
    QMapData::createData(int)                 - Undefined Reference
    _ZN8QMapData10createDataEi@QtCore{00040703}[2001b2dc].dll  - Undefined Reference
    QMapData::node_create(QMapData::Node**, int, int)  - Undefined Reference
    _ZN8QMapData11node_createEPPNS_4NodeEii@QtCore{00040703}[2001b2dc].dll  - Undefined Reference
    QMapData::node_delete(QMapData::Node**, int, QMapData::Node*)  - Undefined Reference
    _ZN8QMapData11node_deleteEPPNS_4NodeEiS1_@QtCore{00040703}[2001b2dc].dll  - Undefined Reference
    QMapData::shared_null                     - Undefined Reference
    _ZN8QMapData11shared_nullE@QtCore{00040703}[2001b2dc].dll  - Undefined Reference
    QMapData::continueFreeData(int)           - Undefined Reference
    _ZN8QMapData16continueFreeDataEi@QtCore{00040703}[2001b2dc].dll  - Undefined Reference
    QVariant::handler                         - Undefined Reference
    _ZN8QVariant7handlerE@QtCore{00040703}[2001b2dc].dll  - Undefined Reference
    QVariant::QVariant(const QDate&)          - Undefined Reference
    _ZN8QVariantC1ERK5QDate@QtCore{00040703}[2001b2dc].dll  - Undefined Reference
    QVariant::QVariant(const QList<QVariant>&)  - Undefined Reference
    _ZN8QVariantC1ERK5QListIS_E@QtCore{00040703}[2001b2dc].dll  - Undefined Reference
    QVariant::QVariant(const QString&)        - Undefined Reference
    _ZN8QVariantC1ERK7QString@QtCore{00040703}[2001b2dc].dll  - Undefined Reference
    QVariant::QVariant(const QDateTime&)      - Undefined Reference
    _ZN8QVariantC1ERK9QDateTime@QtCore{00040703}[2001b2dc].dll  - Undefined Reference
    QVariant::QVariant(const QVariant&)       - Undefined Reference
    _ZN8QVariantC1ERKS_@QtCore{00040703}[2001b2dc].dll  - Undefined Reference
    QVariant::QVariant(bool)                  - Undefined Reference
    _ZN8QVariantC1Eb@QtCore{00040703}[2001b2dc].dll  - Undefined Reference
    QVariant::QVariant(int)                   - Undefined Reference
    _ZN8QVariantC1Ei@QtCore{00040703}[2001b2dc].dll  - Undefined Reference
    QVariant::QVariant(int, const void*, unsigned)  - Undefined Reference
    _ZN8QVariantC1EiPKvj@QtCore{00040703}[2001b2dc].dll  - Undefined Reference
    QVariant::~QVariant()                     - Undefined Reference
    _ZN8QVariantD1Ev@QtCore{00040703}[2001b2dc].dll  - Undefined Reference
    QVariant::operator =(const QVariant&)     - Undefined Reference
    _ZN8QVariantaSERKS_@QtCore{00040703}[2001b2dc].dll  - Undefined Reference
    QDateTime::currentDateTime()              - Undefined Reference
    _ZN9QDateTime15currentDateTimeEv@QtCore{00040703}[2001b2dc].dll  - Undefined Reference
    QDateTime::setDate(const QDate&)          - Undefined Reference
    _ZN9QDateTime7setDateERK5QDate@QtCore{00040703}[2001b2dc].dll  - Undefined Reference
    QDateTime::setTime(const QTime&)          - Undefined Reference
    _ZN9QDateTime7setTimeERK5QTime@QtCore{00040703}[2001b2dc].dll  - Undefined Reference
    QDateTime::QDateTime(const QDate&, const QTime&, Qt::TimeSpec)  - Undefined Reference
    _ZN9QDateTimeC1ERK5QDateRK5QTimeN2Qt8TimeSpecE@QtCore{00040703}[2001b2dc].dll  - Undefined Reference
    QDateTime::QDateTime(const QDateTime&)    - Undefined Reference
    _ZN9QDateTimeC1ERKS_@QtCore{00040703}[2001b2dc].dll  - Undefined Reference
    QDateTime::QDateTime()                    - Undefined Reference
    _ZN9QDateTimeC1Ev@QtCore{00040703}[2001b2dc].dll  - Undefined Reference
    QDateTime::~QDateTime()                   - Undefined Reference
    _ZN9QDateTimeD1Ev@QtCore{00040703}[2001b2dc].dll  - Undefined Reference
    QDateTime::operator =(const QDateTime&)   - Undefined Reference
    _ZN9QDateTimeaSERKS_@QtCore{00040703}[2001b2dc].dll  - Undefined Reference
    QHashData::free_helper(void(*)(QHashData::Node*))  - Undefined Reference
    _ZN9QHashData11free_helperEPFvPNS_4NodeEE@QtCore{00040703}[2001b2dc].dll  - Undefined Reference
    QHashData::shared_null                    - Undefined Reference
    _ZN9QHashData11shared_nullE@QtCore{00040703}[2001b2dc].dll  - Undefined Reference
    QHashData::allocateNode(int)              - Undefined Reference
    _ZN9QHashData12allocateNodeEi@QtCore{00040703}[2001b2dc].dll  - Undefined Reference
    QHashData::detach_helper2(void(*)(QHashData::Node*, void*), void(*)(QHashData::Node*), int, int)  - Undefined Reference
    _ZN9QHashData14detach_helper2EPFvPNS_4NodeEPvEPFvS1_Eii@QtCore{00040703}[2001b2dc].dll  - Undefined Reference
    QHashData::rehash(int)                    - Undefined Reference
    _ZN9QHashData6rehashEi@QtCore{00040703}[2001b2dc].dll  - Undefined Reference
    QHashData::freeNode(void*)                - Undefined Reference
    _ZN9QHashData8freeNodeEPv@QtCore{00040703}[2001b2dc].dll  - Undefined Reference
    QHashData::nextNode(QHashData::Node*)     - Undefined Reference
    _ZN9QHashData8nextNodeEPNS_4NodeE@QtCore{00040703}[2001b2dc].dll  - Undefined Reference
    QListData::detach_grow(int*, int)         - Undefined Reference
    _ZN9QListData11detach_growEPii@QtCore{00040703}[2001b2dc].dll  - Undefined Reference
    QListData::shared_null                    - Undefined Reference
    _ZN9QListData11shared_nullE@QtCore{00040703}[2001b2dc].dll  - Undefined Reference
    QListData::erase(void**)                  - Undefined Reference
    _ZN9QListData5eraseEPPv@QtCore{00040703}[2001b2dc].dll  - Undefined Reference
    QListData::append()                       - Undefined Reference
    _ZN9QListData6appendEv@QtCore{00040703}[2001b2dc].dll  - Undefined Reference
    QListData::detach(int)                    - Undefined Reference
    _ZN9QListData6detachEi@QtCore{00040703}[2001b2dc].dll  - Undefined Reference
    QListData::insert(int)                    - Undefined Reference
    _ZN9QListData6insertEi@QtCore{00040703}[2001b2dc].dll  - Undefined Reference
    QListData::remove(int)                    - Undefined Reference
    _ZN9QListData6removeEi@QtCore{00040703}[2001b2dc].dll  - Undefined Reference
    QListData::append2(const QListData&)      - Undefined Reference
    _ZN9QListData7append2ERKS_@QtCore{00040703}[2001b2dc].dll  - Undefined Reference
    QListData::prepend()                      - Undefined Reference
    _ZN9QListData7prependEv@QtCore{00040703}[2001b2dc].dll  - Undefined Reference
    QListData::realloc(int)                   - Undefined Reference
    _ZN9QListData7reallocEi@QtCore{00040703}[2001b2dc].dll  - Undefined Reference
    QMetaType::registerType(const char*, void(*)(void*), void*(*)(const void*))  - Undefined Reference
    _ZN9QMetaType12registerTypeEPKcPFvPvEPFS2_PKvE@QtCore{00040703}[2001b2dc].dll  - Undefined Reference
    QMetaType::registerTypedef(const char*, int)  - Undefined Reference
    _ZN9QMetaType15registerTypedefEPKci@QtCore{00040703}[2001b2dc].dll  - Undefined Reference
    QtPrivate::QStringList_join(const QStringList*, const QString&)  - Undefined Reference
    _ZN9QtPrivate16QStringList_joinEPK11QStringListRK7QString@QtCore{00040703}[2001b2dc].dll  - Undefined Reference
    QtPrivate::QStringList_contains(const QStringList*, const QString&, Qt::CaseSensitivity)  - Undefined Reference
    _ZN9QtPrivate20QStringList_containsEPK11QStringListRK7QStringN2Qt15CaseSensitivityE@QtCore{00040703}[2001b2dc].dll  - Undefined Reference
    QDataStream::atEnd() const                - Undefined Reference
    _ZNK11QDataStream5atEndEv@QtCore{00040703}[2001b2dc].dll  - Undefined Reference
    QDataStream::status() const               - Undefined Reference
    _ZNK11QDataStream6statusEv@QtCore{00040703}[2001b2dc].dll  - Undefined Reference
    RFs::Att(const TDesC16&, unsigned&) const  - Undefined Reference
    _ZNK3RFs3AttERK7TDesC16Rj@efsrv{000a0000}[100039e4].dll  - Undefined Reference
    QDir::absolutePath() const                - Undefined Reference
    _ZNK4QDir12absolutePathEv@QtCore{00040703}[2001b2dc].dll  - Undefined Reference
    QDir::absoluteFilePath(const QString&) const  - Undefined Reference
    _ZNK4QDir16absoluteFilePathERK7QString@QtCore{00040703}[2001b2dc].dll  - Undefined Reference
    QDir::path() const                        - Undefined Reference
    _ZNK4QDir4pathEv@QtCore{00040703}[2001b2dc].dll  - Undefined Reference
    QDir::filePath(const QString&) const      - Undefined Reference
    _ZNK4QDir8filePathERK7QString@QtCore{00040703}[2001b2dc].dll  - Undefined Reference
    QDir::entryList(QFlags<QDir::Filter>, QFlags<QDir::SortFlag>) const  - Undefined Reference
    _ZNK4QDir9entryListE6QFlagsINS_6FilterEES0_INS_8SortFlagEE@QtCore{00040703}[2001b2dc].dll  - Undefined Reference
    QDate::weekNumber(int*) const             - Undefined Reference
    _ZNK5QDate10weekNumberEPi@QtCore{00040703}[2001b2dc].dll  - Undefined Reference
    QDate::day() const                        - Undefined Reference
    _ZNK5QDate3dayEv@QtCore{00040703}[2001b2dc].dll  - Undefined Reference
    QDate::year() const                       - Undefined Reference
    _ZNK5QDate4yearEv@QtCore{00040703}[2001b2dc].dll  - Undefined Reference
    QDate::month() const                      - Undefined Reference
    _ZNK5QDate5monthEv@QtCore{00040703}[2001b2dc].dll  - Undefined Reference
    QDate::daysTo(const QDate&) const         - Undefined Reference
    _ZNK5QDate6daysToERKS_@QtCore{00040703}[2001b2dc].dll  - Undefined Reference
    QDate::addDays(int) const                 - Undefined Reference
    _ZNK5QDate7addDaysEi@QtCore{00040703}[2001b2dc].dll  - Undefined Reference
    QDate::isValid() const                    - Undefined Reference
    _ZNK5QDate7isValidEv@QtCore{00040703}[2001b2dc].dll  - Undefined Reference
    QDate::dayOfWeek() const                  - Undefined Reference
    _ZNK5QDate9dayOfWeekEv@QtCore{00040703}[2001b2dc].dll  - Undefined Reference
    QDate::dayOfYear() const                  - Undefined Reference
    _ZNK5QDate9dayOfYearEv@QtCore{00040703}[2001b2dc].dll  - Undefined Reference
    QUuid::toString() const                   - Undefined Reference
    _ZNK5QUuid8toStringEv@QtCore{00040703}[2001b2dc].dll  - Undefined Reference
    QString::startsWith(const QString&, Qt::CaseSensitivity) const  - Undefined Reference
    _ZNK7QString10startsWithERKS_N2Qt15CaseSensitivityE@QtCore{00040703}[2001b2dc].dll  - Undefined Reference
    QString::toLocal8Bit() const              - Undefined Reference
    _ZNK7QString11toLocal8BitEv@QtCore{00040703}[2001b2dc].dll  - Undefined Reference
    QString::arg(const QString&, int, const QChar&) const  - Undefined Reference
    _ZNK7QString3argERKS_iRK5QChar@QtCore{00040703}[2001b2dc].dll  - Undefined Reference
    QString::arg(long long, int, int, const QChar&) const  - Undefined Reference
    _ZNK7QString3argExiiRK5QChar@QtCore{00040703}[2001b2dc].dll  - Undefined Reference
    QString::mid(int, int) const              - Undefined Reference
    _ZNK7QString3midEii@QtCore{00040703}[2001b2dc].dll  - Undefined Reference
    QString::split(const QChar&, QString::SplitBehavior, Qt::CaseSensitivity) const  - Undefined Reference
    _ZNK7QString5splitERK5QCharNS_13SplitBehaviorEN2Qt15CaseSensitivityE@QtCore{00040703}[2001b2dc].dll  - Undefined Reference
    QString::split(const QRegExp&, QString::SplitBehavior) const  - Undefined Reference
    _ZNK7QString5splitERK7QRegExpNS_13SplitBehaviorE@QtCore{00040703}[2001b2dc].dll  - Undefined Reference
    QString::split(const QString&, QString::SplitBehavior, Qt::CaseSensitivity) const  - Undefined Reference
    _ZNK7QString5splitERKS_NS_13SplitBehaviorEN2Qt15CaseSensitivityE@QtCore{00040703}[2001b2dc].dll  - Undefined Reference
    QString::toInt(bool*, int) const          - Undefined Reference
    _ZNK7QString5toIntEPbi@QtCore{00040703}[2001b2dc].dll  - Undefined Reference
    QString::utf16() const                    - Undefined Reference
    _ZNK7QString5utf16Ev@QtCore{00040703}[2001b2dc].dll  - Undefined Reference
    QString::toUInt(bool*, int) const         - Undefined Reference
    _ZNK7QString6toUIntEPbi@QtCore{00040703}[2001b2dc].dll  - Undefined Reference
    QString::compare(const QString&, Qt::CaseSensitivity) const  - Undefined Reference
    _ZNK7QString7compareERKS_N2Qt15CaseSensitivityE@QtCore{00040703}[2001b2dc].dll  - Undefined Reference
    QString::indexOf(const QLatin1String&, int, Qt::CaseSensitivity) const  - Undefined Reference
    _ZNK7QString7indexOfERK13QLatin1StringiN2Qt15CaseSensitivityE@QtCore{00040703}[2001b2dc].dll  - Undefined Reference
    QString::indexOf(const QString&, int, Qt::CaseSensitivity) const  - Undefined Reference
    _ZNK7QString7indexOfERKS_iN2Qt15CaseSensitivityE@QtCore{00040703}[2001b2dc].dll  - Undefined Reference
    QString::trimmed() const                  - Undefined Reference
    _ZNK7QString7trimmedEv@QtCore{00040703}[2001b2dc].dll  - Undefined Reference
    QString::endsWith(const QLatin1String&, Qt::CaseSensitivity) const  - Undefined Reference
    _ZNK7QString8endsWithERK13QLatin1StringN2Qt15CaseSensitivityE@QtCore{00040703}[2001b2dc].dll  - Undefined Reference
    QString::endsWith(const QString&, Qt::CaseSensitivity) const  - Undefined Reference
    _ZNK7QString8endsWithERKS_N2Qt15CaseSensitivityE@QtCore{00040703}[2001b2dc].dll  - Undefined Reference
    QString::multiArg(int, const QString**) const  - Undefined Reference
    _ZNK7QString8multiArgEiPPKS_@QtCore{00040703}[2001b2dc].dll  - Undefined Reference
    QString::rightRef(int) const              - Undefined Reference
    _ZNK7QString8rightRefEi@QtCore{00040703}[2001b2dc].dll  - Undefined Reference
    QString::toLatin1() const                 - Undefined Reference
    _ZNK7QString8toLatin1Ev@QtCore{00040703}[2001b2dc].dll  - Undefined Reference
    QString::operator ==(const QLatin1String&) const  - Undefined Reference
    _ZNK7QStringeqERK13QLatin1String@QtCore{00040703}[2001b2dc].dll  - Undefined Reference
    QString::operator ==(const QString&) const  - Undefined Reference
    _ZNK7QStringeqERKS_@QtCore{00040703}[2001b2dc].dll  - Undefined Reference
    QString::operator <(const QString&) const  - Undefined Reference
    _ZNK7QStringltERKS_@QtCore{00040703}[2001b2dc].dll  - Undefined Reference
    QVariant::toDateTime() const              - Undefined Reference
    _ZNK8QVariant10toDateTimeEv@QtCore{00040703}[2001b2dc].dll  - Undefined Reference
    QVariant::toLongLong(bool*) const         - Undefined Reference
    _ZNK8QVariant10toLongLongEPb@QtCore{00040703}[2001b2dc].dll  - Undefined Reference
    QVariant::toULongLong(bool*) const        - Undefined Reference
    _ZNK8QVariant11toULongLongEPb@QtCore{00040703}[2001b2dc].dll  - Undefined Reference
    QVariant::cmp(const QVariant&) const      - Undefined Reference
    _ZNK8QVariant3cmpERKS_@QtCore{00040703}[2001b2dc].dll  - Undefined Reference
    QVariant::type() const                    - Undefined Reference
    _ZNK8QVariant4typeEv@QtCore{00040703}[2001b2dc].dll  - Undefined Reference
    QVariant::toInt(bool*) const              - Undefined Reference
    _ZNK8QVariant5toIntEPb@QtCore{00040703}[2001b2dc].dll  - Undefined Reference
    QVariant::isNull() const                  - Undefined Reference
    _ZNK8QVariant6isNullEv@QtCore{00040703}[2001b2dc].dll  - Undefined Reference
    QVariant::toDate() const                  - Undefined Reference
    _ZNK8QVariant6toDateEv@QtCore{00040703}[2001b2dc].dll  - Undefined Reference
    QVariant::toList() const                  - Undefined Reference
    _ZNK8QVariant6toListEv@QtCore{00040703}[2001b2dc].dll  - Undefined Reference
    QVariant::toTime() const                  - Undefined Reference
    _ZNK8QVariant6toTimeEv@QtCore{00040703}[2001b2dc].dll  - Undefined Reference
    QVariant::toUInt(bool*) const             - Undefined Reference
    _ZNK8QVariant6toUIntEPb@QtCore{00040703}[2001b2dc].dll  - Undefined Reference
    QVariant::toDouble(bool*) const           - Undefined Reference
    _ZNK8QVariant8toDoubleEPb@QtCore{00040703}[2001b2dc].dll  - Undefined Reference
    QVariant::toString() const                - Undefined Reference
    _ZNK8QVariant8toStringEv@QtCore{00040703}[2001b2dc].dll  - Undefined Reference
    QVariant::userType() const                - Undefined Reference
    _ZNK8QVariant8userTypeEv@QtCore{00040703}[2001b2dc].dll  - Undefined Reference
    QVariant::constData() const               - Undefined Reference
    _ZNK8QVariant9constDataEv@QtCore{00040703}[2001b2dc].dll  - Undefined Reference
    QDateTime::date() const                   - Undefined Reference
    _ZNK9QDateTime4dateEv@QtCore{00040703}[2001b2dc].dll  - Undefined Reference
    QDateTime::time() const                   - Undefined Reference
    _ZNK9QDateTime4timeEv@QtCore{00040703}[2001b2dc].dll  - Undefined Reference
    QDateTime::isNull() const                 - Undefined Reference
    _ZNK9QDateTime6isNullEv@QtCore{00040703}[2001b2dc].dll  - Undefined Reference
    QDateTime::isValid() const                - Undefined Reference
    _ZNK9QDateTime7isValidEv@QtCore{00040703}[2001b2dc].dll  - Undefined Reference
    QDateTime::operator ==(const QDateTime&) const  - Undefined Reference
    _ZNK9QDateTimeeqERKS_@QtCore{00040703}[2001b2dc].dll  - Undefined Reference
    QDateTime::operator <(const QDateTime&) const  - Undefined Reference
    _ZNK9QDateTimeltERKS_@QtCore{00040703}[2001b2dc].dll  - Undefined Reference
    typeinfo for QObject                      - Undefined Reference
    _ZTI7QObject@QtCore{00040703}[2001b2dc].dll  - Undefined Reference
    typeinfo for std::bad_alloc               - Undefined Reference
    _ZTISt9bad_alloc@stdnew{000a0000}[20022178].dll  - Undefined Reference
    vtable for __cxxabiv1::__class_type_info  - Undefined Reference
    _ZTVN10__cxxabiv117__class_type_infoE@drtaeabi{000a0000}.dll  - Undefined Reference
    vtable for __cxxabiv1::__si_class_type_info  - Undefined Reference
    _ZTVN10__cxxabiv120__si_class_type_infoE@drtaeabi{000a0000}.dll  - Undefined Reference
    vtable for __cxxabiv1::__vmi_class_type_info  - Undefined Reference
    _ZTVN10__cxxabiv121__vmi_class_type_infoE@drtaeabi{000a0000}.dll  - Undefined Reference
    operator delete[] (void*)                 - Undefined Reference
    _ZdaPv@stdnew{000a0000}[20022178].dll     - Undefined Reference
    operator delete (void*)                   - Undefined Reference
    _ZdlPv@stdnew{000a0000}[20022178].dll     - Undefined Reference
    operator <<(QDebug, const QVariant&)      - Undefined Reference
    _Zls6QDebugRK8QVariant@QtCore{00040703}[2001b2dc].dll  - Undefined Reference
    operator <<(QDataStream&, const QString&)  - Undefined Reference
    _ZlsR11QDataStreamRK7QString@QtCore{00040703}[2001b2dc].dll  - Undefined Reference
    operator <<(QDataStream&, const QVariant&)  - Undefined Reference
    _ZlsR11QDataStreamRK8QVariant@QtCore{00040703}[2001b2dc].dll  - Undefined Reference
    operator <<(QDataStream&, const QDateTime&)  - Undefined Reference
    _ZlsR11QDataStreamRK9QDateTime@QtCore{00040703}[2001b2dc].dll  - Undefined Reference
    operator new(unsigned)                    - Undefined Reference
    _Znwj@stdnew{000a0000}[20022178].dll      - Undefined Reference
    operator >>(QDataStream&, QString&)       - Undefined Reference
    _ZrsR11QDataStreamR7QString@QtCore{00040703}[2001b2dc].dll  - Undefined Reference
    operator >>(QDataStream&, QVariant&)      - Undefined Reference
    _ZrsR11QDataStreamR8QVariant@QtCore{00040703}[2001b2dc].dll  - Undefined Reference
    operator >>(QDataStream&, QDateTime&)     - Undefined Reference
    _ZrsR11QDataStreamR9QDateTime@QtCore{00040703}[2001b2dc].dll  - Undefined Reference
    __ARM_ll_cmpu                             - Undefined Reference
    __ARM_ll_cmpu@drtrvct2_2{000a0000}.dll    - Undefined Reference
    __aeabi_cdcmpeq                           - Undefined Reference
    __aeabi_cdcmpeq@dfpaeabi{000a0000}.dll    - Undefined Reference
    __aeabi_cdcmple                           - Undefined Reference
    __aeabi_cdcmple@dfpaeabi{000a0000}.dll    - Undefined Reference
    __aeabi_memcpy                            - Undefined Reference
    __aeabi_memcpy4                           - Undefined Reference
    __aeabi_memcpy4@drtaeabi{000a0000}.dll    - Undefined Reference
    __aeabi_memcpy@drtaeabi{000a0000}.dll     - Undefined Reference
    __aeabi_uidivmod                          - Undefined Reference
    __aeabi_uidivmod@drtaeabi{000a0000}.dll   - Undefined Reference
    __aeabi_unwind_cpp_pr0                    - Undefined Reference
    __aeabi_unwind_cpp_pr0@drtaeabi{000a0000}.dll  - Undefined Reference
    __cxa_begin_catch                         - Undefined Reference
    __cxa_begin_catch@drtaeabi{000a0000}.dll  - Undefined Reference
    __cxa_end_catch                           - Undefined Reference
    __cxa_end_catch@drtaeabi{000a0000}.dll    - Undefined Reference
    __cxa_end_cleanup                         - Undefined Reference
    __cxa_end_cleanup@drtaeabi{000a0000}.dll  - Undefined Reference
    __cxa_pure_virtual                        - Undefined Reference
    __cxa_pure_virtual@drtaeabi{000a0000}.dll  - Undefined Reference
    __cxa_rethrow                             - Undefined Reference
    __cxa_rethrow@drtaeabi{000a0000}.dll      - Undefined Reference
    strcmp                                    - Undefined Reference
    strcmp@libc{00010001}[10207369].dll       - Undefined Reference
    Image$$ER_RO$$Base                       0x00008000   Number         0  anon$$obj.o(linker$$defined$$symbols)
    _E32Dll                                  0x00008000   ARM Code      40  uc_dll_.o(.emb_text)
    Symbian$$CPP$$Exception$$Descriptor      0x00008014   Data           0  uc_dll_.o(.emb_text)
    __cpp_initialize__aeabi_                 0x00008028   ARM Code      52  ucppinit.o(.emb_text)
    std::nothrow                             0x0000805c   ARM Code       0  ucppinit.o(.emb_text)
    __PLT                                    0x0000805c   ARM Code       0  anon$$obj.o(.plt)
    QtMobility::QOrganizerCollection::QOrganizerCollection() 0x0000867d   Thumb Code   110  qorganizercollection.o(.text)
    QtMobility::QOrganizerCollection::QOrganizerCollection__sub_object() 0x0000867d   Thumb Code     0  qorganizercollection.o(.text)
    QtMobility::QOrganizerCollection::~QOrganizerCollection() 0x000086eb   Thumb Code    14  qorganizercollection.o(.text)
    QtMobility::QOrganizerCollection::~QOrganizerCollection__sub_object() 0x000086eb   Thumb Code     0  qorganizercollection.o(.text)
    QtMobility::QOrganizerCollection::QOrganizerCollection(const QtMobility::QOrganizerCollection&) 0x000086f9   Thumb Code    28  qorganizercollection.o(.text)
    QtMobility::QOrganizerCollection::QOrganizerCollection__sub_object(const QtMobility::QOrganizerCollection&) 0x000086f9   Thumb Code     0  qorganizercollection.o(.text)
    QtMobility::QOrganizerCollection::operator =(const QtMobility::QOrganizerCollection&) 0x00008715   Thumb Code    72  qorganizercollection.o(.text)
    QtMobility::QOrganizerCollection::operator ==(const QtMobility::QOrganizerCollection&) const 0x0000875d   Thumb Code    30  qorganizercollection.o(.text)
    QtMobility::QOrganizerCollection::id() const 0x0000877b   Thumb Code    26  qorganizercollection.o(.text)
    QtMobility::QOrganizerCollection::setId(const QtMobility::QOrganizerCollectionId&) 0x00008795   Thumb Code    26  qorganizercollection.o(.text)
    QtMobility::QOrganizerCollection::setMetaData(const QMap<QString, QVariant>&) 0x000087af   Thumb Code    24  qorganizercollection.o(.text)
    QtMobility::QOrganizerCollection::metaData() const 0x000087c7   Thumb Code    24  qorganizercollection.o(.text)
    QtMobility::QOrganizerCollection::setMetaData(const QString&, const QVariant&) 0x000087df   Thumb Code   102  qorganizercollection.o(.text)
    QtMobility::QOrganizerCollection::metaData(const QString&) const 0x00008845   Thumb Code   192  qorganizercollection.o(.text)
    QtMobility::qHash(const QtMobility::QOrganizerCollection&) 0x00008905   Thumb Code   158  qorganizercollection.o(.text)
    QtMobility::operator <<(QDebug, const QtMobility::QOrganizerCollection&) 0x000089a3   Thumb Code   342  qorganizercollection.o(.text)
    QtMobility::operator <<(QDataStream&, const QtMobility::QOrganizerCollection&) 0x00008af9   Thumb Code    88  qorganizercollection.o(.text)
    QtMobility::operator >>(QDataStream&, QtMobility::QOrganizerCollection&) 0x00008b51   Thumb Code   278  qorganizercollection.o(.text)
    QtMobility::QOrganizerCollectionChangeSet::QOrganizerCollectionChangeSet() 0x00008c67   Thumb Code    92  qorganizercollectionchangeset.o(.text)
    QtMobility::QOrganizerCollectionChangeSet::QOrganizerCollectionChangeSet__sub_object() 0x00008c67   Thumb Code     0  qorganizercollectionchangeset.o(.text)
    QtMobility::QOrganizerCollectionChangeSet::QOrganizerCollectionChangeSet(const QtMobility::QOrganizerCollectionChangeSet&) 0x00008cc3   Thumb Code    28  qorganizercollectionchangeset.o(.text)
    QtMobility::QOrganizerCollectionChangeSet::QOrganizerCollectionChangeSet__sub_object(const QtMobility::QOrganizerCollectionChangeSet&) 0x00008cc3   Thumb Code     0  qorganizercollectionchangeset.o(.text)
    QtMobility::QOrganizerCollectionChangeSet::~QOrganizerCollectionChangeSet() 0x00008cdf   Thumb Code    14  qorganizercollectionchangeset.o(.text)
    QtMobility::QOrganizerCollectionChangeSet::~QOrganizerCollectionChangeSet__sub_object() 0x00008cdf   Thumb Code     0  qorganizercollectionchangeset.o(.text)
    QtMobility::QOrganizerCollectionChangeSet::operator =(const QtMobility::QOrganizerCollectionChangeSet&) 0x00008ced   Thumb Code    72  qorganizercollectionchangeset.o(.text)
    QtMobility::QOrganizerCollectionChangeSet::setDataChanged(bool) 0x00008d35   Thumb Code    16  qorganizercollectionchangeset.o(.text)
    QtMobility::QOrganizerCollectionChangeSet::dataChanged() 0x00008d45   Thumb Code    14  qorganizercollectionchangeset.o(.text)
    QtMobility::QOrganizerCollectionChangeSet::addedCollections() const 0x00008d53   Thumb Code    26  qorganizercollectionchangeset.o(.text)
    QtMobility::QOrganizerCollectionChangeSet::insertAddedCollection(const QtMobility::QOrganizerCollectionId&) 0x00008d6d   Thumb Code    28  qorganizercollectionchangeset.o(.text)
    QtMobility::QOrganizerCollectionChangeSet::insertAddedCollections(const QList<QtMobility::QOrganizerCollectionId>&) 0x00008d89   Thumb Code   120  qorganizercollectionchangeset.o(.text)
    QtMobility::QOrganizerCollectionChangeSet::clearAddedCollections() 0x00008e01   Thumb Code    22  qorganizercollectionchangeset.o(.text)
    QtMobility::QOrganizerCollectionChangeSet::changedCollections() const 0x00008e17   Thumb Code    26  qorganizercollectionchangeset.o(.text)
    QtMobility::QOrganizerCollectionChangeSet::insertChangedCollection(const QtMobility::QOrganizerCollectionId&) 0x00008e31   Thumb Code    28  qorganizercollectionchangeset.o(.text)
    QtMobility::QOrganizerCollectionChangeSet::insertChangedCollections(const QList<QtMobility::QOrganizerCollectionId>&) 0x00008e4d   Thumb Code   120  qorganizercollectionchangeset.o(.text)
    QtMobility::QOrganizerCollectionChangeSet::clearChangedCollections() 0x00008ec5   Thumb Code    22  qorganizercollectionchangeset.o(.text)
    QtMobility::QOrganizerCollectionChangeSet::removedCollections() const 0x00008edb   Thumb Code    26  qorganizercollectionchangeset.o(.text)
    QtMobility::QOrganizerCollectionChangeSet::insertRemovedCollection(const QtMobility::QOrganizerCollectionId&) 0x00008ef5   Thumb Code    28  qorganizercollectionchangeset.o(.text)
    QtMobility::QOrganizerCollectionChangeSet::insertRemovedCollections(const QList<QtMobility::QOrganizerCollectionId>&) 0x00008f11   Thumb Code   120  qorganizercollectionchangeset.o(.text)
    QtMobility::QOrganizerCollectionChangeSet::clearRemovedCollections() 0x00008f89   Thumb Code    22  qorganizercollectionchangeset.o(.text)
    QtMobility::QOrganizerCollectionChangeSet::clearAll() 0x00008f9f   Thumb Code    64  qorganizercollectionchangeset.o(.text)
    QtMobility::QOrganizerCollectionChangeSet::emitSignals(QtMobility::QOrganizerManagerEngine*) 0x00008fdf   Thumb Code   196  qorganizercollectionchangeset.o(.text)
    QtMobility::QOrganizerCollectionId::QOrganizerCollectionId() 0x000090a5   Thumb Code    16  qorganizercollectionid.o(.text)
    QtMobility::QOrganizerCollectionId::QOrganizerCollectionId__sub_object() 0x000090a5   Thumb Code     0  qorganizercollectionid.o(.text)
    QtMobility::QOrganizerCollectionId::~QOrganizerCollectionId() 0x000090b5   Thumb Code    14  qorganizercollectionid.o(.text)
    QtMobility::QOrganizerCollectionId::~QOrganizerCollectionId__sub_object() 0x000090b5   Thumb Code     0  qorganizercollectionid.o(.text)
    QtMobility::QOrganizerCollectionId::QOrganizerCollectionId(QtMobility::QOrganizerCollectionEngineId*) 0x000090c3   Thumb Code    18  qorganizercollectionid.o(.text)
    QtMobility::QOrganizerCollectionId::QOrganizerCollectionId__sub_object(QtMobility::QOrganizerCollectionEngineId*) 0x000090c3   Thumb Code     0  qorganizercollectionid.o(.text)
    QtMobility::QOrganizerCollectionId::QOrganizerCollectionId(const QtMobility::QOrganizerCollectionId&) 0x000090d5   Thumb Code    30  qorganizercollectionid.o(.text)
    QtMobility::QOrganizerCollectionId::QOrganizerCollectionId__sub_object(const QtMobility::QOrganizerCollectionId&) 0x000090d5   Thumb Code     0  qorganizercollectionid.o(.text)
    QtMobility::QOrganizerCollectionId::operator =(const QtMobility::QOrganizerCollectionId&) 0x000090f3   Thumb Code    70  qorganizercollectionid.o(.text)
    QtMobility::QOrganizerCollectionId::operator ==(const QtMobility::QOrganizerCollectionId&) const 0x00009139   Thumb Code   144  qorganizercollectionid.o(.text)
    QtMobility::QOrganizerCollectionId::operator !=(const QtMobility::QOrganizerCollectionId&) const 0x000091c9   Thumb Code    20  qorganizercollectionid.o(.text)
    QtMobility::QOrganizerCollectionId::operator <(const QtMobility::QOrganizerCollectionId&) const 0x000091dd   Thumb Code   206  qorganizercollectionid.o(.text)
    QtMobility::QOrganizerCollectionId::isNull() const 0x000092ab   Thumb Code    18  qorganizercollectionid.o(.text)
    QtMobility::QOrganizerCollectionId::managerUri() const 0x000092bd   Thumb Code    84  qorganizercollectionid.o(.text)
    QtMobility::QOrganizerCollectionId::toString() const 0x00009311   Thumb Code   130  qorganizercollectionid.o(.text)
    QtMobility::QOrganizerCollectionId::fromString(const QString&) 0x00009393   Thumb Code   110  qorganizercollectionid.o(.text)
    QtMobility::qHash(const QtMobility::QOrganizerCollectionId&) 0x00009401   Thumb Code    32  qorganizercollectionid.o(.text)
    QtMobility::operator <<(QDebug, const QtMobility::QOrganizerCollectionId&) 0x00009421   Thumb Code   110  qorganizercollectionid.o(.text)
    QtMobility::operator <<(QDataStream&, const QtMobility::QOrganizerCollectionId&) 0x0000948f   Thumb Code    34  qorganizercollectionid.o(.text)
    QtMobility::operator >>(QDataStream&, QtMobility::QOrganizerCollectionId&) 0x000094b1   Thumb Code    54  qorganizercollectionid.o(.text)
    QtMobility::QOrganizerAbstractRequest::getStaticMetaObject() 0x0000950d   Thumb Code     4  qorganizerabstractrequest.o(.text)
    QtMobility::QOrganizerAbstractRequest::metaObject() const 0x00009511   Thumb Code    28  qorganizerabstractrequest.o(.text)
    QtMobility::QOrganizerAbstractRequest::qt_metacast(const char*) 0x0000952d   Thumb Code    40  qorganizerabstractrequest.o(.text)
    QtMobility::QOrganizerAbstractRequest::waitForFinished(int) 0x00009555   Thumb Code   134  qorganizerabstractrequest.o(.text)
    QtMobility::QOrganizerAbstractRequest::cancel() 0x000095db   Thumb Code    88  qorganizerabstractrequest.o(.text)
    QtMobility::QOrganizerAbstractRequest::start() 0x00009633   Thumb Code   104  qorganizerabstractrequest.o(.text)
    QtMobility::QOrganizerAbstractRequest::resultsAvailable() 0x0000969b   Thumb Code    18  qorganizerabstractrequest.o(.text)
    QtMobility::QOrganizerAbstractRequest::stateChanged(QtMobility::QOrganizerAbstractRequest::State) 0x000096ad   Thumb Code    30  qorganizerabstractrequest.o(.text)
    QtMobility::QOrganizerAbstractRequest::qt_metacall(QMetaObject::Call, int, void**) 0x000096cb   Thumb Code   168  qorganizerabstractrequest.o(.text)
    QtMobility::QOrganizerAbstractRequest::~QOrganizerAbstractRequest() 0x00009773   Thumb Code    76  qorganizerabstractrequest.o(.text)
    QtMobility::QOrganizerAbstractRequest::~QOrganizerAbstractRequest__sub_object() 0x00009773   Thumb Code     0  qorganizerabstractrequest.o(.text)
    QtMobility::QOrganizerAbstractRequest::~QOrganizerAbstractRequest__deallocating() 0x000097bf   Thumb Code    22  qorganizerabstractrequest.o(.text)
    QtMobility::QOrganizerAbstractRequest::state() const 0x000097d5   Thumb Code    32  qorganizerabstractrequest.o(.text)
    QtMobility::QOrganizerAbstractRequest::isInactive() const 0x000097f5   Thumb Code    44  qorganizerabstractrequest.o(.text)
    QtMobility::QOrganizerAbstractRequest::isActive() const 0x00009821   Thumb Code    42  qorganizerabstractrequest.o(.text)
    QtMobility::QOrganizerAbstractRequest::isFinished() const 0x0000984b   Thumb Code    44  qorganizerabstractrequest.o(.text)
    QtMobility::QOrganizerAbstractRequest::isCanceled() const 0x00009877   Thumb Code    44  qorganizerabstractrequest.o(.text)
    QtMobility::QOrganizerAbstractRequest::error() const 0x000098a3   Thumb Code    46  qorganizerabstractrequest.o(.text)
    QtMobility::QOrganizerAbstractRequest::type() const 0x000098d1   Thumb Code    40  qorganizerabstractrequest.o(.text)
    QtMobility::QOrganizerAbstractRequest::manager() const 0x000098f9   Thumb Code    38  qorganizerabstractrequest.o(.text)
    QtMobility::QOrganizerAbstractRequest::setManager(QtMobility::QOrganizerManager*) 0x0000991f   Thumb Code   122  qorganizerabstractrequest.o(.text)
    QtMobility::QOrganizerAbstractRequest::QOrganizerAbstractRequest(QtMobility::QOrganizerAbstractRequestPrivate*, QObject*) 0x00009999   Thumb Code    28  qorganizerabstractrequest.o(.text)
    QtMobility::QOrganizerAbstractRequest::QOrganizerAbstractRequest__sub_object(QtMobility::QOrganizerAbstractRequestPrivate*, QObject*) 0x00009999   Thumb Code     0  qorganizerabstractrequest.o(.text)
    QtMobility::QOrganizerItemChangeSet::QOrganizerItemChangeSet() 0x000099b9   Thumb Code    92  qorganizeritemchangeset.o(.text)
    QtMobility::QOrganizerItemChangeSet::QOrganizerItemChangeSet__sub_object() 0x000099b9   Thumb Code     0  qorganizeritemchangeset.o(.text)
    QtMobility::QOrganizerItemChangeSet::QOrganizerItemChangeSet(const QtMobility::QOrganizerItemChangeSet&) 0x00009a15   Thumb Code    28  qorganizeritemchangeset.o(.text)
    QtMobility::QOrganizerItemChangeSet::QOrganizerItemChangeSet__sub_object(const QtMobility::QOrganizerItemChangeSet&) 0x00009a15   Thumb Code     0  qorganizeritemchangeset.o(.text)
    QtMobility::QOrganizerItemChangeSet::~QOrganizerItemChangeSet() 0x00009a31   Thumb Code    14  qorganizeritemchangeset.o(.text)
    QtMobility::QOrganizerItemChangeSet::~QOrganizerItemChangeSet__sub_object() 0x00009a31   Thumb Code     0  qorganizeritemchangeset.o(.text)
    QtMobility::QOrganizerItemChangeSet::operator =(const QtMobility::QOrganizerItemChangeSet&) 0x00009a3f   Thumb Code    72  qorganizeritemchangeset.o(.text)
    QtMobility::QOrganizerItemChangeSet::setDataChanged(bool) 0x00009a87   Thumb Code    16  qorganizeritemchangeset.o(.text)
    QtMobility::QOrganizerItemChangeSet::dataChanged() 0x00009a97   Thumb Code    14  qorganizeritemchangeset.o(.text)
    QtMobility::QOrganizerItemChangeSet::addedItems() const 0x00009aa5   Thumb Code    26  qorganizeritemchangeset.o(.text)
    QtMobility::QOrganizerItemChangeSet::insertAddedItem(const QtMobility::QOrganizerItemId&) 0x00009abf   Thumb Code    28  qorganizeritemchangeset.o(.text)
    QtMobility::QOrganizerItemChangeSet::insertAddedItems(const QList<QtMobility::QOrganizerItemId>&) 0x00009adb   Thumb Code   120  qorganizeritemchangeset.o(.text)
    QtMobility::QOrganizerItemChangeSet::clearAddedItems() 0x00009b53   Thumb Code    22  qorganizeritemchangeset.o(.text)
    QtMobility::QOrganizerItemChangeSet::changedItems() const 0x00009b69   Thumb Code    26  qorganizeritemchangeset.o(.text)
    QtMobility::QOrganizerItemChangeSet::insertChangedItem(const QtMobility::QOrganizerItemId&) 0x00009b83   Thumb Code    28  qorganizeritemchangeset.o(.text)
    QtMobility::QOrganizerItemChangeSet::insertChangedItems(const QList<QtMobility::QOrganizerItemId>&) 0x00009b9f   Thumb Code   120  qorganizeritemchangeset.o(.text)
    QtMobility::QOrganizerItemChangeSet::clearChangedItems() 0x00009c17   Thumb Code    22  qorganizeritemchangeset.o(.text)
    QtMobility::QOrganizerItemChangeSet::removedItems() const 0x00009c2d   Thumb Code    26  qorganizeritemchangeset.o(.text)
    QtMobility::QOrganizerItemChangeSet::insertRemovedItem(const QtMobility::QOrganizerItemId&) 0x00009c47   Thumb Code    28  qorganizeritemchangeset.o(.text)
    QtMobility::QOrganizerItemChangeSet::insertRemovedItems(const QList<QtMobility::QOrganizerItemId>&) 0x00009c63   Thumb Code   120  qorganizeritemchangeset.o(.text)
    QtMobility::QOrganizerItemChangeSet::clearRemovedItems() 0x00009cdb   Thumb Code    22  qorganizeritemchangeset.o(.text)
    QtMobility::QOrganizerItemChangeSet::clearAll() 0x00009cf1   Thumb Code    64  qorganizeritemchangeset.o(.text)
    QtMobility::QOrganizerItemChangeSet::emitSignals(QtMobility::QOrganizerManagerEngine*) 0x00009d31   Thumb Code   196  qorganizeritemchangeset.o(.text)
    QtMobility::QOrganizerItem::clearDetails() 0x00009df5   Thumb Code   204  qorganizeritem.o(.text)
    QtMobility::QOrganizerItem::QOrganizerItem() 0x00009ec1   Thumb Code    50  qorganizeritem.o(.text)
    QtMobility::QOrganizerItem::QOrganizerItem__sub_object() 0x00009ec1   Thumb Code     0  qorganizeritem.o(.text)
    QtMobility::QOrganizerItem::~QOrganizerItem() 0x00009ef3   Thumb Code    14  qorganizeritem.o(.text)
    QtMobility::QOrganizerItem::~QOrganizerItem__sub_object() 0x00009ef3   Thumb Code     0  qorganizeritem.o(.text)
    QtMobility::QOrganizerItem::QOrganizerItem(const QtMobility::QOrganizerItem&) 0x00009f01   Thumb Code    28  qorganizeritem.o(.text)
    QtMobility::QOrganizerItem::QOrganizerItem__sub_object(const QtMobility::QOrganizerItem&) 0x00009f01   Thumb Code     0  qorganizeritem.o(.text)
    QtMobility::QOrganizerItem::operator =(const QtMobility::QOrganizerItem&) 0x00009f1d   Thumb Code    18  qorganizeritem.o(.text)
    QtMobility::QOrganizerItem::operator ==(const QtMobility::QOrganizerItem&) const 0x00009f2f   Thumb Code    84  qorganizeritem.o(.text)
    QtMobility::QOrganizerItem::id() const   0x00009f83   Thumb Code    24  qorganizeritem.o(.text)
    QtMobility::QOrganizerItem::setId(const QtMobility::QOrganizerItemId&) 0x00009f9b   Thumb Code    24  qorganizeritem.o(.text)
    QtMobility::QOrganizerItem::collectionId() const 0x00009fb3   Thumb Code    26  qorganizeritem.o(.text)
    QtMobility::QOrganizerItem::setCollectionId(const QtMobility::QOrganizerCollectionId&) 0x00009fcd   Thumb Code    26  qorganizeritem.o(.text)
    QtMobility::QOrganizerItem::isEmpty() const 0x00009fe7   Thumb Code    30  qorganizeritem.o(.text)
    QtMobility::QOrganizerItem::detail(const QString&) const 0x0000a005   Thumb Code   136  qorganizeritem.o(.text)
    QtMobility::QOrganizerItem::details(const QString&) const 0x0000a08d   Thumb Code   122  qorganizeritem.o(.text)
    QtMobility::QOrganizerItem::details(const QString&, const QString&, const QString&) const 0x0000a107   Thumb Code   202  qorganizeritem.o(.text)
    QtMobility::QOrganizerItem::detail(const char*) const 0x0000a1d1   Thumb Code   130  qorganizeritem.o(.text)
    QtMobility::QOrganizerItem::details(const char*) const 0x0000a253   Thumb Code   116  qorganizeritem.o(.text)
    QtMobility::QOrganizerItem::details(const char*, const char*, const QString&) const 0x0000a2c7   Thumb Code   192  qorganizeritem.o(.text)
    QtMobility::QOrganizerItem::saveDetail(QtMobility::QOrganizerItemDetail*) 0x0000a387   Thumb Code   900  qorganizeritem.o(.text)
    QtMobility::QOrganizerItem::removeDetail(QtMobility::QOrganizerItemDetail*) 0x0000a70b   Thumb Code   260  qorganizeritem.o(.text)
    QtMobility::QOrganizerItem::type() const 0x0000a80f   Thumb Code    30  qorganizeritem.o(.text)
    QtMobility::QOrganizerItem::setType(const QString&) 0x0000a82d   Thumb Code    62  qorganizeritem.o(.text)
    QtMobility::QOrganizerItem::setType(const QtMobility::QOrganizerItemType&) 0x0000a86b   Thumb Code    76  qorganizeritem.o(.text)
    QtMobility::QOrganizerItem::displayLabel() const 0x0000a8b7   Thumb Code    30  qorganizeritem.o(.text)
    QtMobility::QOrganizerItem::setDisplayLabel(const QString&) 0x0000a8d5   Thumb Code    38  qorganizeritem.o(.text)
    QtMobility::QOrganizerItem::setDisplayLabel(const QtMobility::QOrganizerItemDisplayLabel&) 0x0000a8fb   Thumb Code    52  qorganizeritem.o(.text)
    QtMobility::QOrganizerItem::description() const 0x0000a92f   Thumb Code    30  qorganizeritem.o(.text)
    QtMobility::QOrganizerItem::setDescription(const QString&) 0x0000a94d   Thumb Code    38  qorganizeritem.o(.text)
    QtMobility::QOrganizerItem::setDescription(const QtMobility::QOrganizerItemDescription&) 0x0000a973   Thumb Code    52  qorganizeritem.o(.text)
    QtMobility::QOrganizerItem::comments() const 0x0000a9a7   Thumb Code   182  qorganizeritem.o(.text)
    QtMobility::QOrganizerItem::clearComments() 0x0000aa5d   Thumb Code   134  qorganizeritem.o(.text)
    QtMobility::QOrganizerItem::addComment(const QString&) 0x0000aae3   Thumb Code    82  qorganizeritem.o(.text)
    QtMobility::QOrganizerItem::guid() const 0x0000ab35   Thumb Code    46  qorganizeritem.o(.text)
    QtMobility::QOrganizerItem::setGuid(const QString&) 0x0000ab63   Thumb Code    70  qorganizeritem.o(.text)
    QtMobility::QOrganizerItem::QOrganizerItem(const char*) 0x0000aba9   Thumb Code    90  qorganizeritem.o(.text)
    QtMobility::QOrganizerItem::QOrganizerItem__sub_object(const char*) 0x0000aba9   Thumb Code     0  qorganizeritem.o(.text)
    QtMobility::QOrganizerItem::QOrganizerItem(const QtMobility::QOrganizerItem&, const char*) 0x0000ac03   Thumb Code   150  qorganizeritem.o(.text)
    QtMobility::QOrganizerItem::QOrganizerItem__sub_object(const QtMobility::QOrganizerItem&, const char*) 0x0000ac03   Thumb Code     0  qorganizeritem.o(.text)
    QtMobility::QOrganizerItem::assign(const QtMobility::QOrganizerItem&, const char*) 0x0000ac99   Thumb Code   148  qorganizeritem.o(.text)
    QtMobility::qHash(const QtMobility::QOrganizerItem&) 0x0000ad2d   Thumb Code   250  qorganizeritem.o(.text)
    QtMobility::operator <<(QDebug, const QtMobility::QOrganizerItem&) 0x0000ae27   Thumb Code   392  qorganizeritem.o(.text)
    QtMobility::operator <<(QDataStream&, const QtMobility::QOrganizerItem&) 0x0000afaf   Thumb Code   142  qorganizeritem.o(.text)
    QtMobility::operator >>(QDataStream&, QtMobility::QOrganizerItem&) 0x0000b03d   Thumb Code   188  qorganizeritem.o(.text)
    QtMobility::QOrganizerItemDetail::QOrganizerItemDetail() 0x0000b121   Thumb Code    36  qorganizeritemdetail.o(.text)
    QtMobility::QOrganizerItemDetail::QOrganizerItemDetail__sub_object() 0x0000b121   Thumb Code     0  qorganizeritemdetail.o(.text)
    QtMobility::QOrganizerItemDetail::QOrganizerItemDetail(const char*) 0x0000b145   Thumb Code    54  qorganizeritemdetail.o(.text)
    QtMobility::QOrganizerItemDetail::QOrganizerItemDetail__sub_object(const char*) 0x0000b145   Thumb Code     0  qorganizeritemdetail.o(.text)
    QtMobility::QOrganizerItemDetail::QOrganizerItemDetail(const QString&) 0x0000b17b   Thumb Code    58  qorganizeritemdetail.o(.text)
    QtMobility::QOrganizerItemDetail::QOrganizerItemDetail__sub_object(const QString&) 0x0000b17b   Thumb Code     0  qorganizeritemdetail.o(.text)
    QtMobility::QOrganizerItemDetail::~QOrganizerItemDetail() 0x0000b1b5   Thumb Code    14  qorganizeritemdetail.o(.text)
    QtMobility::QOrganizerItemDetail::~QOrganizerItemDetail__sub_object() 0x0000b1b5   Thumb Code     0  qorganizeritemdetail.o(.text)
    QtMobility::QOrganizerItemDetail::QOrganizerItemDetail(const QtMobility::QOrganizerItemDetail&) 0x0000b1c3   Thumb Code    28  qorganizeritemdetail.o(.text)
    QtMobility::QOrganizerItemDetail::QOrganizerItemDetail__sub_object(const QtMobility::QOrganizerItemDetail&) 0x0000b1c3   Thumb Code     0  qorganizeritemdetail.o(.text)
    QtMobility::QOrganizerItemDetail::operator =(const QtMobility::QOrganizerItemDetail&) 0x0000b1df   Thumb Code    22  qorganizeritemdetail.o(.text)
    QtMobility::QOrganizerItemDetail::accessConstraints() const 0x0000b1f5   Thumb Code    16  qorganizeritemdetail.o(.text)
    QtMobility::qHash(const QtMobility::QOrganizerItemStringHolder&) 0x0000b205   Thumb Code    48  qorganizeritemdetail.o(.text)
    QtMobility::QOrganizerItemDetail::QOrganizerItemDetail(const QtMobility::QOrganizerItemDetail&, const char*) 0x0000b235   Thumb Code    96  qorganizeritemdetail.o(.text)
    QtMobility::QOrganizerItemDetail::QOrganizerItemDetail__sub_object(const QtMobility::QOrganizerItemDetail&, const char*) 0x0000b235   Thumb Code     0  qorganizeritemdetail.o(.text)
    QtMobility::QOrganizerItemDetail::operator ==(const QtMobility::QOrganizerItemDetail&) const 0x0000b295   Thumb Code   206  qorganizeritemdetail.o(.text)
    QtMobility::QOrganizerItemDetail::definitionName() const 0x0000b363   Thumb Code    24  qorganizeritemdetail.o(.text)
    QtMobility::QOrganizerItemDetail::isEmpty() const 0x0000b37b   Thumb Code    30  qorganizeritemdetail.o(.text)
    QtMobility::QOrganizerItemDetail::key() const 0x0000b399   Thumb Code    10  qorganizeritemdetail.o(.text)
    QtMobility::QOrganizerItemDetail::resetKey() 0x0000b3a3   Thumb Code    26  qorganizeritemdetail.o(.text)
    QtMobility::QOrganizerItemDetail::value(const QString&) const 0x0000b3bd   Thumb Code    56  qorganizeritemdetail.o(.text)
    QtMobility::QOrganizerItemDetail::removeValue(const QString&) 0x0000b3f5   Thumb Code    48  qorganizeritemdetail.o(.text)
    QtMobility::QOrganizerItemDetail::setValue(const QString&, const QVariant&) 0x0000b425   Thumb Code    70  qorganizeritemdetail.o(.text)
    QtMobility::QOrganizerItemDetail::hasValue(const QString&) const 0x0000b46b   Thumb Code    44  qorganizeritemdetail.o(.text)
    QtMobility::QOrganizerItemDetail::variantValues() const 0x0000b497   Thumb Code   176  qorganizeritemdetail.o(.text)
    QtMobility::QOrganizerItemDetail::variantValue(const QString&) const 0x0000b547   Thumb Code    38  qorganizeritemdetail.o(.text)
    QtMobility::QOrganizerItemDetail::value(const char*) const 0x0000b56d   Thumb Code    52  qorganizeritemdetail.o(.text)
    QtMobility::QOrganizerItemDetail::removeValue(const char*) 0x0000b5a1   Thumb Code    46  qorganizeritemdetail.o(.text)
    QtMobility::QOrganizerItemDetail::setValue(const char*, const QVariant&) 0x0000b5cf   Thumb Code    70  qorganizeritemdetail.o(.text)
    QtMobility::QOrganizerItemDetail::hasValue(const char*) const 0x0000b615   Thumb Code    40  qorganizeritemdetail.o(.text)
    QtMobility::QOrganizerItemDetail::variantValue(const char*) const 0x0000b63d   Thumb Code    38  qorganizeritemdetail.o(.text)
    QtMobility::QOrganizerItemDetail::QOrganizerItemDetail(const QtMobility::QOrganizerItemDetail&, const QString&) 0x0000b663   Thumb Code   114  qorganizeritemdetail.o(.text)
    QtMobility::QOrganizerItemDetail::QOrganizerItemDetail__sub_object(const QtMobility::QOrganizerItemDetail&, const QString&) 0x0000b663   Thumb Code     0  qorganizeritemdetail.o(.text)
    QtMobility::QOrganizerItemDetail::assign(const QtMobility::QOrganizerItemDetail&, const QString&) 0x0000b6d5   Thumb Code    98  qorganizeritemdetail.o(.text)
    QtMobility::QOrganizerItemDetail::assign(const QtMobility::QOrganizerItemDetail&, const char*) 0x0000b737   Thumb Code    92  qorganizeritemdetail.o(.text)
    QtMobility::qHash(const QtMobility::QOrganizerItemDetail&) 0x0000b899   Thumb Code   134  qorganizeritemdetail.o(.text)
    QtMobility::operator <<(QDebug, const QtMobility::QOrganizerItemDetail&) 0x0000b91f   Thumb Code   284  qorganizeritemdetail.o(.text)
    QtMobility::operator <<(QDataStream&, const QtMobility::QOrganizerItemDetail&) 0x0000ba3b   Thumb Code    96  qorganizeritemdetail.o(.text)
    QtMobility::operator >>(QDataStream&, QtMobility::QOrganizerItemDetail&) 0x0000ba9b   Thumb Code   370  qorganizeritemdetail.o(.text)
    QtMobility::QOrganizerItemDetailDefinition::QOrganizerItemDetailDefinition() 0x0000bc65   Thumb Code    76  qorganizeritemdetaildefinition.o(.text)
    QtMobility::QOrganizerItemDetailDefinition::QOrganizerItemDetailDefinition__sub_object() 0x0000bc65   Thumb Code     0  qorganizeritemdetaildefinition.o(.text)
    QtMobility::QOrganizerItemDetailDefinition::~QOrganizerItemDetailDefinition() 0x0000bcb1   Thumb Code    14  qorganizeritemdetaildefinition.o(.text)
    QtMobility::QOrganizerItemDetailDefinition::~QOrganizerItemDetailDefinition__sub_object() 0x0000bcb1   Thumb Code     0  qorganizeritemdetaildefinition.o(.text)
    QtMobility::QOrganizerItemDetailDefinition::QOrganizerItemDetailDefinition(const QtMobility::QOrganizerItemDetailDefinition&) 0x0000bcbf   Thumb Code    28  qorganizeritemdetaildefinition.o(.text)
    QtMobility::QOrganizerItemDetailDefinition::QOrganizerItemDetailDefinition__sub_object(const QtMobility::QOrganizerItemDetailDefinition&) 0x0000bcbf   Thumb Code     0  qorganizeritemdetaildefinition.o(.text)
    QtMobility::QOrganizerItemDetailDefinition::operator =(const QtMobility::QOrganizerItemDetailDefinition&) 0x0000bcdb   Thumb Code    72  qorganizeritemdetaildefinition.o(.text)
    QtMobility::QOrganizerItemDetailDefinition::operator ==(const QtMobility::QOrganizerItemDetailDefinition&) const 0x0000bd23   Thumb Code    92  qorganizeritemdetaildefinition.o(.text)
    QtMobility::QOrganizerItemDetailDefinition::isEmpty() const 0x0000bd7f   Thumb Code    64  qorganizeritemdetaildefinition.o(.text)
    QtMobility::QOrganizerItemDetailDefinition::setName(const QString&) 0x0000bdbf   Thumb Code    24  qorganizeritemdetaildefinition.o(.text)
    QtMobility::QOrganizerItemDetailDefinition::name() const 0x0000bdd7   Thumb Code    24  qorganizeritemdetaildefinition.o(.text)
    QtMobility::QOrganizerItemDetailDefinition::setUnique(bool) 0x0000bdef   Thumb Code    16  qorganizeritemdetaildefinition.o(.text)
    QtMobility::QOrganizerItemDetailDefinition::isUnique() const 0x0000bdff   Thumb Code    10  qorganizeritemdetaildefinition.o(.text)
    QtMobility::QOrganizerItemDetailDefinition::setFields(const QMap<QString, QtMobility::QOrganizerItemDetailFieldDefinition>&) 0x0000be09   Thumb Code    26  qorganizeritemdetaildefinition.o(.text)
    QtMobility::QOrganizerItemDetailDefinition::fields() const 0x0000be23   Thumb Code    26  qorganizeritemdetaildefinition.o(.text)
    QtMobility::QOrganizerItemDetailDefinition::insertField(const QString&, const QtMobility::QOrganizerItemDetailFieldDefinition&) 0x0000be3d   Thumb Code   100  qorganizeritemdetaildefinition.o(.text)
    QtMobility::QOrganizerItemDetailDefinition::removeField(const QString&) 0x0000bea1   Thumb Code    26  qorganizeritemdetaildefinition.o(.text)
    QtMobility::operator <<(QDataStream&, const QtMobility::QOrganizerItemDetailDefinition&) 0x0000bebb   Thumb Code    90  qorganizeritemdetaildefinition.o(.text)
    QtMobility::operator >>(QDataStream&, QtMobility::QOrganizerItemDetailDefinition&) 0x0000bf15   Thumb Code   118  qorganizeritemdetaildefinition.o(.text)
    QtMobility::QOrganizerItemDetailFieldDefinition::QOrganizerItemDetailFieldDefinition() 0x0000bf8b   Thumb Code    64  qorganizeritemdetailfielddefinition.o(.text)
    QtMobility::QOrganizerItemDetailFieldDefinition::QOrganizerItemDetailFieldDefinition__sub_object() 0x0000bf8b   Thumb Code     0  qorganizeritemdetailfielddefinition.o(.text)
    QtMobility::QOrganizerItemDetailFieldDefinition::~QOrganizerItemDetailFieldDefinition() 0x0000bfcb   Thumb Code    14  qorganizeritemdetailfielddefinition.o(.text)
    QtMobility::QOrganizerItemDetailFieldDefinition::~QOrganizerItemDetailFieldDefinition__sub_object() 0x0000bfcb   Thumb Code     0  qorganizeritemdetailfielddefinition.o(.text)
    QtMobility::QOrganizerItemDetailFieldDefinition::QOrganizerItemDetailFieldDefinition(const QtMobility::QOrganizerItemDetailFieldDefinition&) 0x0000bfd9   Thumb Code    28  qorganizeritemdetailfielddefinition.o(.text)
    QtMobility::QOrganizerItemDetailFieldDefinition::QOrganizerItemDetailFieldDefinition__sub_object(const QtMobility::QOrganizerItemDetailFieldDefinition&) 0x0000bfd9   Thumb Code     0  qorganizeritemdetailfielddefinition.o(.text)
    QtMobility::QOrganizerItemDetailFieldDefinition::operator =(const QtMobility::QOrganizerItemDetailFieldDefinition&) 0x0000bff5   Thumb Code    72  qorganizeritemdetailfielddefinition.o(.text)
    QtMobility::QOrganizerItemDetailFieldDefinition::dataType() const 0x0000c03d   Thumb Code    10  qorganizeritemdetailfielddefinition.o(.text)
    QtMobility::QOrganizerItemDetailFieldDefinition::setDataType(int) 0x0000c047   Thumb Code    16  qorganizeritemdetailfielddefinition.o(.text)
    QtMobility::QOrganizerItemDetailFieldDefinition::allowableValues() const 0x0000c057   Thumb Code    24  qorganizeritemdetailfielddefinition.o(.text)
    QtMobility::QOrganizerItemDetailFieldDefinition::setAllowableValues(QList<QVariant>) 0x0000c06f   Thumb Code    24  qorganizeritemdetailfielddefinition.o(.text)
    QtMobility::QOrganizerItemDetailFieldDefinition::operator ==(const QtMobility::QOrganizerItemDetailFieldDefinition&) const 0x0000c087   Thumb Code    58  qorganizeritemdetailfielddefinition.o(.text)
    QtMobility::QOrganizerItemDetailFieldDefinition::operator !=(const QtMobility::QOrganizerItemDetailFieldDefinition&) const 0x0000c0c1   Thumb Code    20  qorganizeritemdetailfielddefinition.o(.text)
    QtMobility::operator <<(QDataStream&, const QtMobility::QOrganizerItemDetailFieldDefinition&) 0x0000c0d5   Thumb Code    66  qorganizeritemdetailfielddefinition.o(.text)
    QtMobility::operator >>(QDataStream&, QtMobility::QOrganizerItemDetailFieldDefinition&) 0x0000c117   Thumb Code   104  qorganizeritemdetailfielddefinition.o(.text)
    QtMobility::QOrganizerItemFetchHint::QOrganizerItemFetchHint() 0x0000c17f   Thumb Code    72  qorganizeritemfetchhint.o(.text)
    QtMobility::QOrganizerItemFetchHint::QOrganizerItemFetchHint__sub_object() 0x0000c17f   Thumb Code     0  qorganizeritemfetchhint.o(.text)
    QtMobility::QOrganizerItemFetchHint::QOrganizerItemFetchHint(const QtMobility::QOrganizerItemFetchHint&) 0x0000c1c7   Thumb Code    28  qorganizeritemfetchhint.o(.text)
    QtMobility::QOrganizerItemFetchHint::QOrganizerItemFetchHint__sub_object(const QtMobility::QOrganizerItemFetchHint&) 0x0000c1c7   Thumb Code     0  qorganizeritemfetchhint.o(.text)
    QtMobility::QOrganizerItemFetchHint::~QOrganizerItemFetchHint() 0x0000c1e3   Thumb Code    14  qorganizeritemfetchhint.o(.text)
    QtMobility::QOrganizerItemFetchHint::~QOrganizerItemFetchHint__sub_object() 0x0000c1e3   Thumb Code     0  qorganizeritemfetchhint.o(.text)
    QtMobility::QOrganizerItemFetchHint::operator =(const QtMobility::QOrganizerItemFetchHint&) 0x0000c1f1   Thumb Code    72  qorganizeritemfetchhint.o(.text)
