ARM Linker, RVCT2.2 [Build 686]

================================================================================

Image Symbol Table

    Local Symbols

    Symbol Name                              Value     Ov Type        Size  Object(Section)

    ../../unhosted.s                         0x00000000   Number         0  switch8.o ABSOLUTE
    M:\\epoc32\\build\\euser\\c_e18a23aea4fd210f\\edll_lib\\armv5\\udeb\\uc_dll_.cpp 0x00000000   Number         0  uc_dll_.o ABSOLUTE
    M:\\sf\\os\\kernelhwsrv\\kernel\\eka\\compsupp\\rvct\\ucppinit.cpp 0x00000000   Number         0  ucppinit.o ABSOLUTE
    M:\epoc32\build\euser\c_e18a23aea4fd210f\edll_lib\armv5\udeb\uc_dll_.cpp 0x00000000   Number         0  uc_dll_.o ABSOLUTE
    M:\sf\os\kernelhwsrv\kernel\eka\compsupp\rvct\dllexp.cpp 0x00000000   Number         0  dllexp.o ABSOLUTE
    M:\sf\os\kernelhwsrv\kernel\eka\compsupp\rvct\ucppfini.cpp 0x00000000   Number         0  ucppfini.o ABSOLUTE
    M:\sf\os\kernelhwsrv\kernel\eka\compsupp\rvct\ucppinit.cpp 0x00000000   Number         0  ucppinit.o ABSOLUTE
    M:\sf\os\kernelhwsrv\kernel\eka\euser\epoc\arm\uc_dll.cpp 0x00000000   Number         0  uc_dll.o ABSOLUTE
    S:\sf\mw\qtmobility\build\Release\QtPublishSubscribe\moc\moc_xqsettingsmanager.cpp 0x00000000   Number         0  moc_xqsettingsmanager.o ABSOLUTE
    S:\sf\mw\qtmobility\src\publishsubscribe\qvaluespace.cpp 0x00000000   Number         0  qvaluespace.o ABSOLUTE
    S:\sf\mw\qtmobility\src\publishsubscribe\qvaluespacemanager.cpp 0x00000000   Number         0  qvaluespacemanager.o ABSOLUTE
    S:\sf\mw\qtmobility\src\publishsubscribe\qvaluespacepublisher.cpp 0x00000000   Number         0  qvaluespacepublisher.o ABSOLUTE
    S:\sf\mw\qtmobility\src\publishsubscribe\qvaluespacesubscriber.cpp 0x00000000   Number         0  qvaluespacesubscriber.o ABSOLUTE
    S:\sf\mw\qtmobility\src\publishsubscribe\settingslayer_symbian.cpp 0x00000000   Number         0  settingslayer_symbian.o ABSOLUTE
    S:\sf\mw\qtmobility\src\publishsubscribe\xqsettingsmanager_symbian\ccentralrepositoryhandler.cpp 0x00000000   Number         0  ccentralrepositoryhandler.o ABSOLUTE
    S:\sf\mw\qtmobility\src\publishsubscribe\xqsettingsmanager_symbian\cenrepmonitor.cpp 0x00000000   Number         0  cenrepmonitor.o ABSOLUTE
    S:\sf\mw\qtmobility\src\publishsubscribe\xqsettingsmanager_symbian\cpublishandsubscribehandler.cpp 0x00000000   Number         0  cpublishandsubscribehandler.o ABSOLUTE
    S:\sf\mw\qtmobility\src\publishsubscribe\xqsettingsmanager_symbian\pubsubmonitor.cpp 0x00000000   Number         0  pubsubmonitor.o ABSOLUTE
    S:\sf\mw\qtmobility\src\publishsubscribe\xqsettingsmanager_symbian\settingshandlerbase.cpp 0x00000000   Number         0  settingshandlerbase.o ABSOLUTE
    S:\sf\mw\qtmobility\src\publishsubscribe\xqsettingsmanager_symbian\xqcentralrepositorysearchcriteria.cpp 0x00000000   Number         0  xqcentralrepositorysearchcriteria.o ABSOLUTE
    S:\sf\mw\qtmobility\src\publishsubscribe\xqsettingsmanager_symbian\xqcentralrepositoryutils.cpp 0x00000000   Number         0  xqcentralrepositoryutils.o ABSOLUTE
    S:\sf\mw\qtmobility\src\publishsubscribe\xqsettingsmanager_symbian\xqcentralrepositoryutils_p.cpp 0x00000000   Number         0  xqcentralrepositoryutils_p.o ABSOLUTE
    S:\sf\mw\qtmobility\src\publishsubscribe\xqsettingsmanager_symbian\xqpublishandsubscribesecuritypolicy.cpp 0x00000000   Number         0  xqpublishandsubscribesecuritypolicy.o ABSOLUTE
    S:\sf\mw\qtmobility\src\publishsubscribe\xqsettingsmanager_symbian\xqpublishandsubscribeutils.cpp 0x00000000   Number         0  xqpublishandsubscribeutils.o ABSOLUTE
    S:\sf\mw\qtmobility\src\publishsubscribe\xqsettingsmanager_symbian\xqpublishandsubscribeutils_p.cpp 0x00000000   Number         0  xqpublishandsubscribeutils_p.o ABSOLUTE
    S:\sf\mw\qtmobility\src\publishsubscribe\xqsettingsmanager_symbian\xqsettingskey.cpp 0x00000000   Number         0  xqsettingskey.o ABSOLUTE
    S:\sf\mw\qtmobility\src\publishsubscribe\xqsettingsmanager_symbian\xqsettingsmanager.cpp 0x00000000   Number         0  xqsettingsmanager.o ABSOLUTE
    S:\sf\mw\qtmobility\src\publishsubscribe\xqsettingsmanager_symbian\xqsettingsmanager_p.cpp 0x00000000   Number         0  xqsettingsmanager_p.o ABSOLUTE
    .emb_text                                0x00008000   Section       40  uc_dll_.o(.emb_text)
    Symbian$$eit_base                        0x00008014   Data           4  uc_dll_.o(.emb_text)
    Symbian$$eit_limit                       0x00008018   Data           4  uc_dll_.o(.emb_text)
    Symbian$$code_seg_base                   0x0000801c   Data           4  uc_dll_.o(.emb_text)
    Symbian$$code_seg_limit                  0x00008020   Data           4  uc_dll_.o(.emb_text)
    Symbian$$reserved                        0x00008024   Data           4  uc_dll_.o(.emb_text)
    .emb_text                                0x00008028   Section       52  ucppinit.o(.emb_text)
    loop                                     0x0000803c   ARM Code       0  ucppinit.o(.emb_text)
    ret                                      0x00008044   ARM Code       0  ucppinit.o(.emb_text)
    base                                     0x00008054   Data           0  ucppinit.o(.emb_text)
    limit                                    0x00008058   Data           0  ucppinit.o(.emb_text)
    .text                                    0x0000867c   Section      224  moc_xqsettingsmanager.o(.text)
    .text                                    0x0000875c   Section      732  qvaluespace.o(.text)
    .text                                    0x00008a38   Section      832  qvaluespacemanager.o(.text)
    QtMobility::valueSpaceManager()          0x00008cb9   Thumb Code   166  qvaluespacemanager.o(.text)
    .text                                    0x00008d78   Section     1600  qvaluespacepublisher.o(.text)
    .text                                    0x000093b8   Section     4252  qvaluespacesubscriber.o(.text)
    QtMobility::matchLayers(const QString&, QFlags<QtMobility::QValueSpace::LayerOption>) 0x00009401   Thumb Code   322  qvaluespacesubscriber.o(.text)
    |L1.980|                                 0x0000978c   Data           0  qvaluespacesubscriber.o(.text)
    |L1.1000|                                0x000097a0   Data           0  qvaluespacesubscriber.o(.text)
    QtMobility::matchLayers(const QString&, const QUuid&) 0x00009e1d   Thumb Code   230  qvaluespacesubscriber.o(.text)
    .text                                    0x0000a454   Section     5892  settingslayer_symbian.o(.text)
    QtMobility::symbianSettingsLayer()       0x0000ba87   Thumb Code   162  settingslayer_symbian.o(.text)
    __sti___25_settingslayer_symbian_cpp     0x0000bb39   Thumb Code    12  settingslayer_symbian.o(.text)
    .text                                    0x0000bb58   Section      104  xqsettingskey.o(.text)
    .text                                    0x0000bbc0   Section      216  xqsettingsmanager.o(.text)
    .text                                    0x0000bc98   Section     1596  xqsettingsmanager_p.o(.text)
    .text                                    0x0000c2d4   Section     1096  settingshandlerbase.o(.text)
    .text                                    0x0000c71c   Section     1770  ccentralrepositoryhandler.o(.text)
    .text                                    0x0000ce08   Section     2092  cpublishandsubscribehandler.o(.text)
    .text                                    0x0000d634   Section      292  cenrepmonitor.o(.text)
    .text                                    0x0000d758   Section      296  pubsubmonitor.o(.text)
    .text                                    0x0000d880   Section      264  xqcentralrepositoryutils.o(.text)
    .text                                    0x0000d988   Section     1184  xqcentralrepositoryutils_p.o(.text)
    .text                                    0x0000de28   Section      160  xqpublishandsubscribeutils.o(.text)
    .text                                    0x0000dec8   Section      254  xqpublishandsubscribeutils_p.o(.text)
    .text                                    0x0000dfc6   Section      138  xqcentralrepositorysearchcriteria.o(.text)
    .text                                    0x0000e050   Section      272  xqpublishandsubscribesecuritypolicy.o(.text)
    .text                                    0x0000e160   Section       24  switch8.o(.text)
    .text                                    0x0000e178   Section       80  uc_dll.o(.text)
    .text                                    0x0000e1c8   Section      180  ucppfini.o(.text)
    .text                                    0x0000e27c   Section        4  dllexp.o(.text)
    .text.clean                              0x0000e280   Section       26  qvaluespace.o(.text.clean)
    .text.clean                              0x0000e29c   Section       40  qvaluespacemanager.o(.text.clean)
    .text.clean                              0x0000e2c4   Section      138  qvaluespacepublisher.o(.text.clean)
    .text.clean                              0x0000e34e   Section      514  qvaluespacesubscriber.o(.text.clean)
    .text.clean                              0x0000e550   Section      596  settingslayer_symbian.o(.text.clean)
    .text.clean                              0x0000e7a4   Section       30  xqsettingsmanager.o(.text.clean)
    .text.clean                              0x0000e7c2   Section      130  xqsettingsmanager_p.o(.text.clean)
    .text.clean                              0x0000e844   Section       94  settingshandlerbase.o(.text.clean)
    .text.clean                              0x0000e8a2   Section       90  ccentralrepositoryhandler.o(.text.clean)
    .text.clean                              0x0000e8fc   Section       90  cpublishandsubscribehandler.o(.text.clean)
    .text.clean                              0x0000e956   Section       44  cenrepmonitor.o(.text.clean)
    .text.clean                              0x0000e982   Section       44  pubsubmonitor.o(.text.clean)
    .text.clean                              0x0000e9ae   Section       20  xqcentralrepositoryutils.o(.text.clean)
    .text.clean                              0x0000e9c2   Section       40  xqcentralrepositoryutils_p.o(.text.clean)
    .text.clean                              0x0000e9ea   Section       20  xqpublishandsubscribeutils.o(.text.clean)
    i._ZN10QByteArrayC1ERKS_                 0x0000e9fe   Section       20  settingslayer_symbian.o(i._ZN10QByteArrayC1ERKS_)
    i._ZN10QByteArrayC1Ev                    0x0000ea14   Section       24  settingslayer_symbian.o(i._ZN10QByteArrayC1Ev)
    i._ZN10QByteArrayD1Ev                    0x0000ea2c   Section       24  settingslayer_symbian.o(i._ZN10QByteArrayD1Ev)
    i._ZN10QByteArraypLEc                    0x0000ea44   Section       16  settingslayer_symbian.o(i._ZN10QByteArraypLEc)
    i._ZN10QtMobility18QValueSpaceManagerD1Ev 0x0000ea54   Section       28  qvaluespacemanager.o(i._ZN10QtMobility18QValueSpaceManagerD1Ev)
    i._ZN10QtMobility18QValueSpaceManagerD1Ev.clean 0x0000ea70   Section       10  qvaluespacemanager.o(i._ZN10QtMobility18QValueSpaceManagerD1Ev.clean)
    i._ZN10QtMobility20SymbianSettingsLayer21symbianSettingsHandleEj 0x0000ea7a   Section       80  settingslayer_symbian.o(i._ZN10QtMobility20SymbianSettingsLayer21symbianSettingsHandleEj)
    i._ZN10QtMobility20SymbianSettingsLayer21symbianSettingsHandleEj.clean 0x0000eaca   Section       10  settingslayer_symbian.o(i._ZN10QtMobility20SymbianSettingsLayer21symbianSettingsHandleEj.clean)
    i._ZN10QtMobility24QAbstractValueSpaceLayerD0Ev 0x0000ead4   Section       24  qvaluespace.o(i._ZN10QtMobility24QAbstractValueSpaceLayerD0Ev)
    i._ZN10QtMobility24QAbstractValueSpaceLayerD2Ev 0x0000eaec   Section       14  qvaluespace.o(i._ZN10QtMobility24QAbstractValueSpaceLayerD2Ev)
    i._ZN10QtMobility33QValueSpaceSubscriberPrivateProxyD0Ev 0x0000eafa   Section       22  qvaluespacesubscriber.o(i._ZN10QtMobility33QValueSpaceSubscriberPrivateProxyD0Ev)
    i._ZN10QtMobility33QValueSpaceSubscriberPrivateProxyD1Ev 0x0000eb10   Section       48  qvaluespacesubscriber.o(i._ZN10QtMobility33QValueSpaceSubscriberPrivateProxyD1Ev)
    i._ZN10QtMobility33QValueSpaceSubscriberPrivateProxyD1Ev.clean 0x0000eb40   Section       22  qvaluespacesubscriber.o(i._ZN10QtMobility33QValueSpaceSubscriberPrivateProxyD1Ev.clean)
    i._ZN11QStringListC1ERKS_                0x0000eb56   Section       38  settingslayer_symbian.o(i._ZN11QStringListC1ERKS_)
    i._ZN11QStringListC1Ev                   0x0000eb7c   Section       14  settingslayer_symbian.o(i._ZN11QStringListC1Ev)
    i._ZN11QStringListD1Ev                   0x0000eb8a   Section       14  qvaluespacesubscriber.o(i._ZN11QStringListD1Ev)
    i._ZN12QMutexLocker6unlockEv             0x0000eb98   Section       38  qvaluespacesubscriber.o(i._ZN12QMutexLocker6unlockEv)
    i._ZN12QMutexLockerC1EP6QMutex           0x0000ebbe   Section       34  qvaluespacesubscriber.o(i._ZN12QMutexLockerC1EP6QMutex)
    i._ZN12QMutexLockerD1Ev                  0x0000ebe0   Section       14  qvaluespacesubscriber.o(i._ZN12QMutexLockerD1Ev)
    i._ZN15QBasicAtomicInt3refEv             0x0000ebee   Section       24  qvaluespace.o(i._ZN15QBasicAtomicInt3refEv)
    i._ZN15QBasicAtomicInt5derefEv           0x0000ec06   Section       24  qvaluespace.o(i._ZN15QBasicAtomicInt5derefEv)
    i._ZN17QForeachContainerI11QStringListED1Ev 0x0000ec1e   Section       14  settingslayer_symbian.o(i._ZN17QForeachContainerI11QStringListED1Ev)
    i._ZN17QForeachContainerI5QHashIlP25CCentralRepositoryHandlerEED1Ev 0x0000ec2c   Section       14  xqsettingsmanager_p.o(i._ZN17QForeachContainerI5QHashIlP25CCentralRepositoryHandlerEED1Ev)
    i._ZN17QForeachContainerI5QHashIlP27CPublishAndSubscribeHandlerEED1Ev 0x0000ec3a   Section       14  xqsettingsmanager_p.o(i._ZN17QForeachContainerI5QHashIlP27CPublishAndSubscribeHandlerEED1Ev)
    i._ZN17QForeachContainerI5QHashImP14CCenRepMonitorEED1Ev 0x0000ec48   Section       14  ccentralrepositoryhandler.o(i._ZN17QForeachContainerI5QHashImP14CCenRepMonitorEED1Ev)
    i._ZN19SettingsHandlerBaseD0Ev           0x0000ec56   Section       18  ccentralrepositoryhandler.o(i._ZN19SettingsHandlerBaseD0Ev)
    i._ZN19SettingsHandlerBaseD2Ev           0x0000ec68   Section        2  ccentralrepositoryhandler.o(i._ZN19SettingsHandlerBaseD2Ev)
    i._ZN4QSetI7QStringED1Ev                 0x0000ec6a   Section       14  qvaluespacesubscriber.o(i._ZN4QSetI7QStringED1Ev)
    i._ZN5CBasenwEj                          0x0000ec78   Section       16  xqsettingsmanager.o(i._ZN5CBasenwEj)
    i._ZN5QPairIPN10QtMobility24QAbstractValueSpaceLayerEjEC1ERKS3_ 0x0000ec88   Section       10  qvaluespacesubscriber.o(i._ZN5QPairIPN10QtMobility24QAbstractValueSpaceLayerEjEC1ERKS3_)
    i._ZN5QUuidC1ERKS_                       0x0000ec92   Section       32  qvaluespace.o(i._ZN5QUuidC1ERKS_)
    i._ZN7QStringC1ERK13QLatin1String        0x0000ecb2   Section       26  settingslayer_symbian.o(i._ZN7QStringC1ERK13QLatin1String)
    i._ZN7QStringC1ERKS_                     0x0000eccc   Section       22  qvaluespacesubscriber.o(i._ZN7QStringC1ERKS_)
    i._ZN7QStringC1Ev                        0x0000ece4   Section       24  qvaluespacepublisher.o(i._ZN7QStringC1Ev)
    i._ZN7QStringD1Ev                        0x0000ecfc   Section       24  qvaluespace.o(i._ZN7QStringD1Ev)
    i._ZN8QVariantC1Ev                       0x0000ed14   Section       38  qvaluespacesubscriber.o(i._ZN8QVariantC1Ev)
    i._ZN9QHashData8willGrowEv               0x0000ed3a   Section       32  qvaluespacesubscriber.o(i._ZN9QHashData8willGrowEv)
    i._ZN9QHashData9firstNodeEv              0x0000ed5a   Section       36  qvaluespacesubscriber.o(i._ZN9QHashData9firstNodeEv)
    i._ZN9QHashData9hasShrunkEv              0x0000ed7e   Section       82  settingslayer_symbian.o(i._ZN9QHashData9hasShrunkEv)
    i._ZNK12RSessionBase11SendReceiveEiRK8TIpcArgs 0x0000edd0   Section       20  settingslayer_symbian.o(i._ZNK12RSessionBase11SendReceiveEiRK8TIpcArgs)
    i._ZNK13QLatin1StringeqEPKc              0x0000ede4   Section       40  qvaluespacesubscriber.o(i._ZNK13QLatin1StringeqEPKc)
    i._ZNK13QLatin1StringeqEPKc.clean        0x0000ee0c   Section       10  qvaluespacesubscriber.o(i._ZNK13QLatin1StringeqEPKc.clean)
    i._ZNK15QBasicAtomicIntneEi              0x0000ee16   Section       16  qvaluespace.o(i._ZNK15QBasicAtomicIntneEi)
    i._ZNK7QString7isEmptyEv                 0x0000ee26   Section       18  settingslayer_symbian.o(i._ZNK7QString7isEmptyEv)
    i._ZNK7QStringneERK13QLatin1String       0x0000ee38   Section       20  settingslayer_symbian.o(i._ZNK7QStringneERK13QLatin1String)
    i._ZNK8QVariant10isDetachedEv            0x0000ee4c   Section       36  settingshandlerbase.o(i._ZNK8QVariant10isDetachedEv)
    i._ZNK8QVariant7isValidEv                0x0000ee70   Section       18  settingslayer_symbian.o(i._ZNK8QVariant7isValidEv)
    i._ZNK9QListData2atEi                    0x0000ee82   Section       20  qvaluespacemanager.o(i._ZNK9QListData2atEi)
    i._ZNK9QListData3endEv                   0x0000ee96   Section       16  qvaluespace.o(i._ZNK9QListData3endEv)
    i._ZNK9QListData5beginEv                 0x0000eea6   Section       16  qvaluespace.o(i._ZNK9QListData5beginEv)
    i._ZdlPvS_                               0x0000eeb6   Section        2  qvaluespacesubscriber.o(i._ZdlPvS_)
    i._Zeq5QCharS_                           0x0000eeb8   Section       24  qvaluespace.o(i._Zeq5QCharS_)
    i._ZeqRK10QByteArrayS1_                  0x0000eed0   Section       68  settingslayer_symbian.o(i._ZeqRK10QByteArrayS1_)
    i._ZnwjPv                                0x0000ef14   Section        6  qvaluespacesubscriber.o(i._ZnwjPv)
    i._ZplRK7QString5QChar                   0x0000ef1a   Section      128  qvaluespacesubscriber.o(i._ZplRK7QString5QChar)
    i._ZplRK7QString5QChar.clean             0x0000ef9a   Section       10  qvaluespacesubscriber.o(i._ZplRK7QString5QChar.clean)
    i._ZplRK7QStringS1_                      0x0000efa4   Section       44  settingslayer_symbian.o(i._ZplRK7QStringS1_)
    i._ZplRK7QStringS1_.clean                0x0000efd0   Section       10  settingslayer_symbian.o(i._ZplRK7QStringS1_.clean)
    t._Z10qDeleteAllIN5QHashImP14CPubSubMonitorE14const_iteratorEEvT_S5_ 0x0000efda   Section       60  cpublishandsubscribehandler.o(t._Z10qDeleteAllIN5QHashImP14CPubSubMonitorE14const_iteratorEEvT_S5_)
    t._Z16qVariantSetValueI10QByteArrayEvR8QVariantRKT_ 0x0000f016   Section      162  settingshandlerbase.o(t._Z16qVariantSetValueI10QByteArrayEvR8QVariantRKT_)
    t._Z16qVariantSetValueI10QByteArrayEvR8QVariantRKT_.clean 0x0000f0b8   Section       20  settingshandlerbase.o(t._Z16qVariantSetValueI10QByteArrayEvR8QVariantRKT_.clean)
    t._Z16qVariantSetValueI7QStringEvR8QVariantRKT_ 0x0000f0cc   Section      172  settingshandlerbase.o(t._Z16qVariantSetValueI7QStringEvR8QVariantRKT_)
    t._Z16qVariantSetValueI7QStringEvR8QVariantRKT_.clean 0x0000f178   Section       20  settingshandlerbase.o(t._Z16qVariantSetValueI7QStringEvR8QVariantRKT_.clean)
    t._Z17CleanupClosePushLI5RBuf8EvRT_      0x0000f18c   Section       28  settingshandlerbase.o(t._Z17CleanupClosePushLI5RBuf8EvRT_)
    t._Z17qRegisterMetaTypeIjEiPKcPT_        0x0000f1a8   Section       68  qvaluespacesubscriber.o(t._Z17qRegisterMetaTypeIjEiPKcPT_)
    t._Z21qMetaTypeDeleteHelperIjEvPT_       0x0000f1ec   Section       12  qvaluespacesubscriber.o(t._Z21qMetaTypeDeleteHelperIjEvPT_)
    t._Z24qMetaTypeConstructHelperIjEPvPKT_  0x0000f1f8   Section       50  qvaluespacesubscriber.o(t._Z24qMetaTypeConstructHelperIjEPvPKT_)
    t._Z9qMakePairIPN10QtMobility24QAbstractValueSpaceLayerEjE5QPairIT_T0_ERKS4_RKS5_ 0x0000f22a   Section       22  qvaluespacesubscriber.o(t._Z9qMakePairIPN10QtMobility24QAbstractValueSpaceLayerEjE5QPairIT_T0_ERKS4_RKS5_)
    t._ZN12CleanupCloseI5RBuf8E5CloseEPv     0x0000f240   Section       12  settingshandlerbase.o(t._ZN12CleanupCloseI5RBuf8E5CloseEPv)
    t._ZN12CleanupCloseI6RArrayImEE5CloseEPv 0x0000f24c   Section       14  xqcentralrepositoryutils_p.o(t._ZN12CleanupCloseI6RArrayImEE5CloseEPv)
    t._ZN12CleanupCloseI6RBuf16E5CloseEPv    0x0000f25a   Section       12  settingshandlerbase.o(t._ZN12CleanupCloseI6RBuf16E5CloseEPv)
    t._ZN14QHashDummyNodeI7QString15QHashDummyValueEC1ERKS0_ 0x0000f266   Section       24  qvaluespacesubscriber.o(t._ZN14QHashDummyNodeI7QString15QHashDummyValueEC1ERKS0_)
    t._ZN20QGlobalStaticDeleterIN10QtMobility18QValueSpaceManagerEED1Ev 0x0000f27e   Section       42  qvaluespacemanager.o(t._ZN20QGlobalStaticDeleterIN10QtMobility18QValueSpaceManagerEED1Ev)
    t._ZN20QGlobalStaticDeleterIN10QtMobility20SymbianSettingsLayerEED1Ev 0x0000f2a8   Section       38  settingslayer_symbian.o(t._ZN20QGlobalStaticDeleterIN10QtMobility20SymbianSettingsLayerEED1Ev)
    t._ZN20QMutableHashIteratorI7QStringPN10QtMobility20SymbianSettingsLayer21SymbianSettingsHandleEED1Ev 0x0000f2ce   Section       16  settingslayer_symbian.o(t._ZN20QMutableHashIteratorI7QStringPN10QtMobility20SymbianSettingsLayer21SymbianSettingsHandleEED1Ev)
    t._ZN28QExplicitlySharedDataPointerIN10QtMobility28QValueSpaceSubscriberPrivateEED1Ev 0x0000f2de   Section       42  qvaluespacesubscriber.o(t._ZN28QExplicitlySharedDataPointerIN10QtMobility28QValueSpaceSubscriberPrivateEED1Ev)
    t._ZN28QExplicitlySharedDataPointerIN10QtMobility28QValueSpaceSubscriberPrivateEEaSEPS1_ 0x0000f308   Section       62  qvaluespacesubscriber.o(t._ZN28QExplicitlySharedDataPointerIN10QtMobility28QValueSpaceSubscriberPrivateEEaSEPS1_)
    t._ZN4QSetI7QStringE5uniteERKS1_         0x0000f346   Section      198  qvaluespacesubscriber.o(t._ZN4QSetI7QStringE5uniteERKS1_)
    t._ZN4QSetI7QStringE5uniteERKS1_.clean   0x0000f40c   Section       10  qvaluespacesubscriber.o(t._ZN4QSetI7QStringE5uniteERKS1_.clean)
    t._ZN4QSetI7QStringE6insertERKS0_        0x0000f416   Section       46  settingslayer_symbian.o(t._ZN4QSetI7QStringE6insertERKS0_)
    t._ZN4QSetI7QStringEC1Ev                 0x0000f444   Section       14  settingslayer_symbian.o(t._ZN4QSetI7QStringEC1Ev)
    t._ZN5QHashI10QByteArrayPN10QtMobility20SymbianSettingsLayer21SymbianSettingsHandleEE11deleteNode2EPN9QHashData4NodeE 0x0000f452   Section       24  settingslayer_symbian.o(t._ZN5QHashI10QByteArrayPN10QtMobility20SymbianSettingsLayer21SymbianSettingsHandleEE11deleteNode2EPN9QHashData4NodeE)
    t._ZN5QHashI10QByteArrayPN10QtMobility20SymbianSettingsLayer21SymbianSettingsHandleEE13detach_helperEv 0x0000f46c   Section       60  settingslayer_symbian.o(t._ZN5QHashI10QByteArrayPN10QtMobility20SymbianSettingsLayer21SymbianSettingsHandleEE13detach_helperEv)
    t._ZN5QHashI10QByteArrayPN10QtMobility20SymbianSettingsLayer21SymbianSettingsHandleEE13duplicateNodeEPN9QHashData4NodeEPv 0x0000f4a8   Section       46  settingslayer_symbian.o(t._ZN5QHashI10QByteArrayPN10QtMobility20SymbianSettingsLayer21SymbianSettingsHandleEE13duplicateNodeEPN9QHashData4NodeEPv)
    t._ZN5QHashI10QByteArrayPN10QtMobility20SymbianSettingsLayer21SymbianSettingsHandleEE13duplicateNodeEPN9QHashData4NodeEPv.clean 0x0000f4d6   Section       14  settingslayer_symbian.o(t._ZN5QHashI10QByteArrayPN10QtMobility20SymbianSettingsLayer21SymbianSettingsHandleEE13duplicateNodeEPN9QHashData4NodeEPv.clean)
    t._ZN5QHashI10QByteArrayPN10QtMobility20SymbianSettingsLayer21SymbianSettingsHandleEE6detachEv 0x0000f4e4   Section       28  settingslayer_symbian.o(t._ZN5QHashI10QByteArrayPN10QtMobility20SymbianSettingsLayer21SymbianSettingsHandleEE6detachEv)
    t._ZN5QHashI10QByteArrayPN10QtMobility20SymbianSettingsLayer21SymbianSettingsHandleEE6removeERKS0_ 0x0000f500   Section      178  settingslayer_symbian.o(t._ZN5QHashI10QByteArrayPN10QtMobility20SymbianSettingsLayer21SymbianSettingsHandleEE6removeERKS0_)
    t._ZN5QHashI10QByteArrayPN10QtMobility20SymbianSettingsLayer21SymbianSettingsHandleEE8freeDataEP9QHashData 0x0000f5b4   Section       20  settingslayer_symbian.o(t._ZN5QHashI10QByteArrayPN10QtMobility20SymbianSettingsLayer21SymbianSettingsHandleEE8freeDataEP9QHashData)
    t._ZN5QHashI10QByteArrayPN10QtMobility20SymbianSettingsLayer21SymbianSettingsHandleEED1Ev 0x0000f5c8   Section       30  settingslayer_symbian.o(t._ZN5QHashI10QByteArrayPN10QtMobility20SymbianSettingsLayer21SymbianSettingsHandleEED1Ev)
    t._ZN5QHashI10QByteArrayPN10QtMobility20SymbianSettingsLayer21SymbianSettingsHandleEEixERKS0_ 0x0000f5e6   Section      164  settingslayer_symbian.o(t._ZN5QHashI10QByteArrayPN10QtMobility20SymbianSettingsLayer21SymbianSettingsHandleEEixERKS0_)
    t._ZN5QHashI10QByteArrayPN10QtMobility20SymbianSettingsLayer21SymbianSettingsHandleEEixERKS0_.clean 0x0000f68a   Section       14  settingslayer_symbian.o(t._ZN5QHashI10QByteArrayPN10QtMobility20SymbianSettingsLayer21SymbianSettingsHandleEEixERKS0_.clean)
    t._ZN5QHashI7QString15QHashDummyValueE11deleteNode2EPN9QHashData4NodeE 0x0000f698   Section       24  qvaluespacesubscriber.o(t._ZN5QHashI7QString15QHashDummyValueE11deleteNode2EPN9QHashData4NodeE)
    t._ZN5QHashI7QString15QHashDummyValueE13detach_helperEv 0x0000f6b0   Section       60  qvaluespacesubscriber.o(t._ZN5QHashI7QString15QHashDummyValueE13detach_helperEv)
    t._ZN5QHashI7QString15QHashDummyValueE13duplicateNodeEPN9QHashData4NodeEPv 0x0000f6ec   Section       44  qvaluespacesubscriber.o(t._ZN5QHashI7QString15QHashDummyValueE13duplicateNodeEPN9QHashData4NodeEPv)
    t._ZN5QHashI7QString15QHashDummyValueE13duplicateNodeEPN9QHashData4NodeEPv.clean 0x0000f718   Section       12  qvaluespacesubscriber.o(t._ZN5QHashI7QString15QHashDummyValueE13duplicateNodeEPN9QHashData4NodeEPv.clean)
    t._ZN5QHashI7QString15QHashDummyValueE6detachEv 0x0000f724   Section       28  qvaluespacesubscriber.o(t._ZN5QHashI7QString15QHashDummyValueE6detachEv)
    t._ZN5QHashI7QString15QHashDummyValueE6insertERKS0_RKS1_ 0x0000f740   Section      168  qvaluespacesubscriber.o(t._ZN5QHashI7QString15QHashDummyValueE6insertERKS0_RKS1_)
    t._ZN5QHashI7QString15QHashDummyValueE6insertERKS0_RKS1_.clean 0x0000f7e8   Section       12  qvaluespacesubscriber.o(t._ZN5QHashI7QString15QHashDummyValueE6insertERKS0_RKS1_.clean)
    t._ZN5QHashI7QString15QHashDummyValueE6removeERKS0_ 0x0000f7f4   Section      178  settingslayer_symbian.o(t._ZN5QHashI7QString15QHashDummyValueE6removeERKS0_)
    t._ZN5QHashI7QString15QHashDummyValueE8freeDataEP9QHashData 0x0000f8a8   Section       20  qvaluespacesubscriber.o(t._ZN5QHashI7QString15QHashDummyValueE8freeDataEP9QHashData)
    t._ZN5QHashI7QString15QHashDummyValueEC1Ev 0x0000f8bc   Section       28  settingslayer_symbian.o(t._ZN5QHashI7QString15QHashDummyValueEC1Ev)
    t._ZN5QHashI7QString15QHashDummyValueED1Ev 0x0000f8d8   Section       30  qvaluespacesubscriber.o(t._ZN5QHashI7QString15QHashDummyValueED1Ev)
    t._ZN5QHashI7QStringPN10QtMobility20SymbianSettingsLayer21SymbianSettingsHandleEE11deleteNode2EPN9QHashData4NodeE 0x0000f8f6   Section       24  settingslayer_symbian.o(t._ZN5QHashI7QStringPN10QtMobility20SymbianSettingsLayer21SymbianSettingsHandleEE11deleteNode2EPN9QHashData4NodeE)
    t._ZN5QHashI7QStringPN10QtMobility20SymbianSettingsLayer21SymbianSettingsHandleEE11setSharableEb 0x0000f90e   Section       36  settingslayer_symbian.o(t._ZN5QHashI7QStringPN10QtMobility20SymbianSettingsLayer21SymbianSettingsHandleEE11setSharableEb)
    t._ZN5QHashI7QStringPN10QtMobility20SymbianSettingsLayer21SymbianSettingsHandleEE13detach_helperEv 0x0000f934   Section       60  settingslayer_symbian.o(t._ZN5QHashI7QStringPN10QtMobility20SymbianSettingsLayer21SymbianSettingsHandleEE13detach_helperEv)
    t._ZN5QHashI7QStringPN10QtMobility20SymbianSettingsLayer21SymbianSettingsHandleEE13duplicateNodeEPN9QHashData4NodeEPv 0x0000f970   Section       46  settingslayer_symbian.o(t._ZN5QHashI7QStringPN10QtMobility20SymbianSettingsLayer21SymbianSettingsHandleEE13duplicateNodeEPN9QHashData4NodeEPv)
    t._ZN5QHashI7QStringPN10QtMobility20SymbianSettingsLayer21SymbianSettingsHandleEE13duplicateNodeEPN9QHashData4NodeEPv.clean 0x0000f99e   Section       14  settingslayer_symbian.o(t._ZN5QHashI7QStringPN10QtMobility20SymbianSettingsLayer21SymbianSettingsHandleEE13duplicateNodeEPN9QHashData4NodeEPv.clean)
    t._ZN5QHashI7QStringPN10QtMobility20SymbianSettingsLayer21SymbianSettingsHandleEE6detachEv 0x0000f9ac   Section       28  settingslayer_symbian.o(t._ZN5QHashI7QStringPN10QtMobility20SymbianSettingsLayer21SymbianSettingsHandleEE6detachEv)
    t._ZN5QHashI7QStringPN10QtMobility20SymbianSettingsLayer21SymbianSettingsHandleEE6insertERKS0_RKS4_ 0x0000f9c8   Section      176  settingslayer_symbian.o(t._ZN5QHashI7QStringPN10QtMobility20SymbianSettingsLayer21SymbianSettingsHandleEE6insertERKS0_RKS4_)
    t._ZN5QHashI7QStringPN10QtMobility20SymbianSettingsLayer21SymbianSettingsHandleEE6insertERKS0_RKS4_.clean 0x0000fa78   Section       14  settingslayer_symbian.o(t._ZN5QHashI7QStringPN10QtMobility20SymbianSettingsLayer21SymbianSettingsHandleEE6insertERKS0_RKS4_.clean)
    t._ZN5QHashI7QStringPN10QtMobility20SymbianSettingsLayer21SymbianSettingsHandleEE6removeERKS0_ 0x0000fa86   Section      178  settingslayer_symbian.o(t._ZN5QHashI7QStringPN10QtMobility20SymbianSettingsLayer21SymbianSettingsHandleEE6removeERKS0_)
    t._ZN5QHashI7QStringPN10QtMobility20SymbianSettingsLayer21SymbianSettingsHandleEE8freeDataEP9QHashData 0x0000fb38   Section       20  settingslayer_symbian.o(t._ZN5QHashI7QStringPN10QtMobility20SymbianSettingsLayer21SymbianSettingsHandleEE8freeDataEP9QHashData)
    t._ZN5QHashI7QStringPN10QtMobility20SymbianSettingsLayer21SymbianSettingsHandleEED1Ev 0x0000fb4c   Section       30  settingslayer_symbian.o(t._ZN5QHashI7QStringPN10QtMobility20SymbianSettingsLayer21SymbianSettingsHandleEED1Ev)
    t._ZN5QHashIPKN10QtMobility21QValueSpaceSubscriberEiE10createNodeEjRKS3_RKiPP9QHashNodeIS3_iE 0x0000fb6a   Section      102  qvaluespacesubscriber.o(t._ZN5QHashIPKN10QtMobility21QValueSpaceSubscriberEiE10createNodeEjRKS3_RKiPP9QHashNodeIS3_iE)
    t._ZN5QHashIPKN10QtMobility21QValueSpaceSubscriberEiE10createNodeEjRKS3_RKiPP9QHashNodeIS3_iE.clean 0x0000fbd0   Section        4  qvaluespacesubscriber.o(t._ZN5QHashIPKN10QtMobility21QValueSpaceSubscriberEiE10createNodeEjRKS3_RKiPP9QHashNodeIS3_iE.clean)
    t._ZN5QHashIPKN10QtMobility21QValueSpaceSubscriberEiE11deleteNode2EPN9QHashData4NodeE 0x0000fbd4   Section        6  qvaluespacesubscriber.o(t._ZN5QHashIPKN10QtMobility21QValueSpaceSubscriberEiE11deleteNode2EPN9QHashData4NodeE)
    t._ZN5QHashIPKN10QtMobility21QValueSpaceSubscriberEiE13detach_helperEv 0x0000fbdc   Section       60  qvaluespacesubscriber.o(t._ZN5QHashIPKN10QtMobility21QValueSpaceSubscriberEiE13detach_helperEv)
    t._ZN5QHashIPKN10QtMobility21QValueSpaceSubscriberEiE13duplicateNodeEPN9QHashData4NodeEPv 0x0000fc18   Section       46  qvaluespacesubscriber.o(t._ZN5QHashIPKN10QtMobility21QValueSpaceSubscriberEiE13duplicateNodeEPN9QHashData4NodeEPv)
    t._ZN5QHashIPKN10QtMobility21QValueSpaceSubscriberEiE5eraseENS4_8iteratorE 0x0000fc46   Section      128  qvaluespacesubscriber.o(t._ZN5QHashIPKN10QtMobility21QValueSpaceSubscriberEiE5eraseENS4_8iteratorE)
    t._ZN5QHashIPKN10QtMobility21QValueSpaceSubscriberEiE6detachEv 0x0000fcc6   Section       28  qvaluespacesubscriber.o(t._ZN5QHashIPKN10QtMobility21QValueSpaceSubscriberEiE6detachEv)
    t._ZN5QHashIPKN10QtMobility21QValueSpaceSubscriberEiE8freeDataEP9QHashData 0x0000fce4   Section       20  qvaluespacesubscriber.o(t._ZN5QHashIPKN10QtMobility21QValueSpaceSubscriberEiE8freeDataEP9QHashData)
    t._ZN5QHashIPKN10QtMobility21QValueSpaceSubscriberEiED1Ev 0x0000fcf8   Section       30  qvaluespacesubscriber.o(t._ZN5QHashIPKN10QtMobility21QValueSpaceSubscriberEiED1Ev)
    t._ZN5QHashIPKN10QtMobility21QValueSpaceSubscriberEiEixERKS3_ 0x0000fd16   Section       82  qvaluespacesubscriber.o(t._ZN5QHashIPKN10QtMobility21QValueSpaceSubscriberEiEixERKS3_)
    t._ZN5QHashIlP25CCentralRepositoryHandlerE11deleteNode2EPN9QHashData4NodeE 0x0000fd68   Section        6  xqsettingsmanager_p.o(t._ZN5QHashIlP25CCentralRepositoryHandlerE11deleteNode2EPN9QHashData4NodeE)
    t._ZN5QHashIlP25CCentralRepositoryHandlerE13detach_helperEv 0x0000fd70   Section       60  xqsettingsmanager_p.o(t._ZN5QHashIlP25CCentralRepositoryHandlerE13detach_helperEv)
    t._ZN5QHashIlP25CCentralRepositoryHandlerE13duplicateNodeEPN9QHashData4NodeEPv 0x0000fdac   Section       48  xqsettingsmanager_p.o(t._ZN5QHashIlP25CCentralRepositoryHandlerE13duplicateNodeEPN9QHashData4NodeEPv)
    t._ZN5QHashIlP25CCentralRepositoryHandlerE6detachEv 0x0000fddc   Section       28  xqsettingsmanager_p.o(t._ZN5QHashIlP25CCentralRepositoryHandlerE6detachEv)
    t._ZN5QHashIlP25CCentralRepositoryHandlerE8freeDataEP9QHashData 0x0000fdf8   Section       20  xqsettingsmanager_p.o(t._ZN5QHashIlP25CCentralRepositoryHandlerE8freeDataEP9QHashData)
    t._ZN5QHashIlP25CCentralRepositoryHandlerED1Ev 0x0000fe0c   Section       30  xqsettingsmanager_p.o(t._ZN5QHashIlP25CCentralRepositoryHandlerED1Ev)
    t._ZN5QHashIlP25CCentralRepositoryHandlerEixERKl 0x0000fe2a   Section      170  xqsettingsmanager_p.o(t._ZN5QHashIlP25CCentralRepositoryHandlerEixERKl)
    t._ZN5QHashIlP25CCentralRepositoryHandlerEixERKl.clean 0x0000fed4   Section        4  xqsettingsmanager_p.o(t._ZN5QHashIlP25CCentralRepositoryHandlerEixERKl.clean)
    t._ZN5QHashIlP27CPublishAndSubscribeHandlerE11deleteNode2EPN9QHashData4NodeE 0x0000fed8   Section        6  xqsettingsmanager_p.o(t._ZN5QHashIlP27CPublishAndSubscribeHandlerE11deleteNode2EPN9QHashData4NodeE)
    t._ZN5QHashIlP27CPublishAndSubscribeHandlerE13detach_helperEv 0x0000fee0   Section       60  xqsettingsmanager_p.o(t._ZN5QHashIlP27CPublishAndSubscribeHandlerE13detach_helperEv)
    t._ZN5QHashIlP27CPublishAndSubscribeHandlerE13duplicateNodeEPN9QHashData4NodeEPv 0x0000ff1c   Section       48  xqsettingsmanager_p.o(t._ZN5QHashIlP27CPublishAndSubscribeHandlerE13duplicateNodeEPN9QHashData4NodeEPv)
    t._ZN5QHashIlP27CPublishAndSubscribeHandlerE6detachEv 0x0000ff4c   Section       28  xqsettingsmanager_p.o(t._ZN5QHashIlP27CPublishAndSubscribeHandlerE6detachEv)
    t._ZN5QHashIlP27CPublishAndSubscribeHandlerE8freeDataEP9QHashData 0x0000ff68   Section       20  xqsettingsmanager_p.o(t._ZN5QHashIlP27CPublishAndSubscribeHandlerE8freeDataEP9QHashData)
    t._ZN5QHashIlP27CPublishAndSubscribeHandlerED1Ev 0x0000ff7c   Section       30  xqsettingsmanager_p.o(t._ZN5QHashIlP27CPublishAndSubscribeHandlerED1Ev)
    t._ZN5QHashIlP27CPublishAndSubscribeHandlerEixERKl 0x0000ff9a   Section      170  xqsettingsmanager_p.o(t._ZN5QHashIlP27CPublishAndSubscribeHandlerEixERKl)
    t._ZN5QHashIlP27CPublishAndSubscribeHandlerEixERKl.clean 0x00010044   Section        4  xqsettingsmanager_p.o(t._ZN5QHashIlP27CPublishAndSubscribeHandlerEixERKl.clean)
    t._ZN5QHashImP14CCenRepMonitorE11deleteNode2EPN9QHashData4NodeE 0x00010048   Section        6  ccentralrepositoryhandler.o(t._ZN5QHashImP14CCenRepMonitorE11deleteNode2EPN9QHashData4NodeE)
    t._ZN5QHashImP14CCenRepMonitorE13detach_helperEv 0x00010050   Section       60  ccentralrepositoryhandler.o(t._ZN5QHashImP14CCenRepMonitorE13detach_helperEv)
    t._ZN5QHashImP14CCenRepMonitorE13duplicateNodeEPN9QHashData4NodeEPv 0x0001008c   Section       46  ccentralrepositoryhandler.o(t._ZN5QHashImP14CCenRepMonitorE13duplicateNodeEPN9QHashData4NodeEPv)
    t._ZN5QHashImP14CCenRepMonitorE6detachEv 0x000100ba   Section       34  ccentralrepositoryhandler.o(t._ZN5QHashImP14CCenRepMonitorE6detachEv)
    t._ZN5QHashImP14CCenRepMonitorE6removeERKm 0x000100dc   Section      242  ccentralrepositoryhandler.o(t._ZN5QHashImP14CCenRepMonitorE6removeERKm)
    t._ZN5QHashImP14CCenRepMonitorE8freeDataEP9QHashData 0x000101d0   Section       20  ccentralrepositoryhandler.o(t._ZN5QHashImP14CCenRepMonitorE8freeDataEP9QHashData)
    t._ZN5QHashImP14CCenRepMonitorED1Ev      0x000101e4   Section       30  ccentralrepositoryhandler.o(t._ZN5QHashImP14CCenRepMonitorED1Ev)
    t._ZN5QHashImP14CCenRepMonitorEixERKm    0x00010202   Section      192  ccentralrepositoryhandler.o(t._ZN5QHashImP14CCenRepMonitorEixERKm)
    t._ZN5QHashImP14CCenRepMonitorEixERKm.clean 0x000102c2   Section        4  ccentralrepositoryhandler.o(t._ZN5QHashImP14CCenRepMonitorEixERKm.clean)
    t._ZN5QHashImP14CPubSubMonitorE11deleteNode2EPN9QHashData4NodeE 0x000102c6   Section        6  cpublishandsubscribehandler.o(t._ZN5QHashImP14CPubSubMonitorE11deleteNode2EPN9QHashData4NodeE)
    t._ZN5QHashImP14CPubSubMonitorE13detach_helperEv 0x000102cc   Section       60  cpublishandsubscribehandler.o(t._ZN5QHashImP14CPubSubMonitorE13detach_helperEv)
    t._ZN5QHashImP14CPubSubMonitorE13duplicateNodeEPN9QHashData4NodeEPv 0x00010308   Section       46  cpublishandsubscribehandler.o(t._ZN5QHashImP14CPubSubMonitorE13duplicateNodeEPN9QHashData4NodeEPv)
    t._ZN5QHashImP14CPubSubMonitorE6detachEv 0x00010336   Section       34  cpublishandsubscribehandler.o(t._ZN5QHashImP14CPubSubMonitorE6detachEv)
    t._ZN5QHashImP14CPubSubMonitorE6removeERKm 0x00010358   Section      242  cpublishandsubscribehandler.o(t._ZN5QHashImP14CPubSubMonitorE6removeERKm)
    t._ZN5QHashImP14CPubSubMonitorE8freeDataEP9QHashData 0x0001044c   Section       20  cpublishandsubscribehandler.o(t._ZN5QHashImP14CPubSubMonitorE8freeDataEP9QHashData)
    t._ZN5QHashImP14CPubSubMonitorED1Ev      0x00010460   Section       30  cpublishandsubscribehandler.o(t._ZN5QHashImP14CPubSubMonitorED1Ev)
    t._ZN5QHashImP14CPubSubMonitorEixERKm    0x0001047e   Section      192  cpublishandsubscribehandler.o(t._ZN5QHashImP14CPubSubMonitorEixERKm)
    t._ZN5QHashImP14CPubSubMonitorEixERKm.clean 0x0001053e   Section        4  cpublishandsubscribehandler.o(t._ZN5QHashImP14CPubSubMonitorEixERKm.clean)
    t._ZN5QListI30XQCentralRepositorySettingsKeyE13detach_helperEi 0x00010542   Section       94  xqcentralrepositoryutils_p.o(t._ZN5QListI30XQCentralRepositorySettingsKeyE13detach_helperEi)
    t._ZN5QListI30XQCentralRepositorySettingsKeyE13detach_helperEi.clean 0x000105a0   Section        8  xqcentralrepositoryutils_p.o(t._ZN5QListI30XQCentralRepositorySettingsKeyE13detach_helperEi.clean)
    t._ZN5QListI30XQCentralRepositorySettingsKeyE13detach_helperEv 0x000105a8   Section       16  xqcentralrepositoryutils_p.o(t._ZN5QListI30XQCentralRepositorySettingsKeyE13detach_helperEv)
    t._ZN5QListI30XQCentralRepositorySettingsKeyE13node_destructEPNS1_4NodeES3_ 0x000105b8   Section       38  xqcentralrepositoryutils_p.o(t._ZN5QListI30XQCentralRepositorySettingsKeyE13node_destructEPNS1_4NodeES3_)
    t._ZN5QListI30XQCentralRepositorySettingsKeyE14node_constructEPNS1_4NodeERKS0_ 0x000105de   Section       32  xqcentralrepositoryutils_p.o(t._ZN5QListI30XQCentralRepositorySettingsKeyE14node_constructEPNS1_4NodeERKS0_)
    t._ZN5QListI30XQCentralRepositorySettingsKeyE14node_constructEPNS1_4NodeERKS0_.clean 0x000105fe   Section        4  xqcentralrepositoryutils_p.o(t._ZN5QListI30XQCentralRepositorySettingsKeyE14node_constructEPNS1_4NodeERKS0_.clean)
    t._ZN5QListI30XQCentralRepositorySettingsKeyE18detach_helper_growEii 0x00010602   Section      208  xqcentralrepositoryutils_p.o(t._ZN5QListI30XQCentralRepositorySettingsKeyE18detach_helper_growEii)
    t._ZN5QListI30XQCentralRepositorySettingsKeyE18detach_helper_growEii.clean 0x000106d2   Section       16  xqcentralrepositoryutils_p.o(t._ZN5QListI30XQCentralRepositorySettingsKeyE18detach_helper_growEii.clean)
    t._ZN5QListI30XQCentralRepositorySettingsKeyE4freeEPN9QListData4DataE 0x000106e2   Section       58  xqcentralrepositoryutils_p.o(t._ZN5QListI30XQCentralRepositorySettingsKeyE4freeEPN9QListData4DataE)
    t._ZN5QListI30XQCentralRepositorySettingsKeyE6appendERKS0_ 0x0001071c   Section      116  xqcentralrepositoryutils_p.o(t._ZN5QListI30XQCentralRepositorySettingsKeyE6appendERKS0_)
    t._ZN5QListI30XQCentralRepositorySettingsKeyE6appendERKS0_.clean 0x00010790   Section       14  xqcentralrepositoryutils_p.o(t._ZN5QListI30XQCentralRepositorySettingsKeyE6appendERKS0_.clean)
    t._ZN5QListI30XQCentralRepositorySettingsKeyE9node_copyEPNS1_4NodeES3_S3_ 0x0001079e   Section       94  xqcentralrepositoryutils_p.o(t._ZN5QListI30XQCentralRepositorySettingsKeyE9node_copyEPNS1_4NodeES3_S3_)
    t._ZN5QListI30XQCentralRepositorySettingsKeyE9node_copyEPNS1_4NodeES3_S3_.clean 0x000107fc   Section       12  xqcentralrepositoryutils_p.o(t._ZN5QListI30XQCentralRepositorySettingsKeyE9node_copyEPNS1_4NodeES3_S3_.clean)
    t._ZN5QListI30XQCentralRepositorySettingsKeyEC1Ev 0x00010808   Section       24  xqcentralrepositoryutils_p.o(t._ZN5QListI30XQCentralRepositorySettingsKeyEC1Ev)
    t._ZN5QListI30XQCentralRepositorySettingsKeyED1Ev 0x00010820   Section       32  xqcentralrepositoryutils_p.o(t._ZN5QListI30XQCentralRepositorySettingsKeyED1Ev)
    t._ZN5QListI5QPairIPN10QtMobility24QAbstractValueSpaceLayerEjEE13detach_helperEi 0x00010840   Section       94  qvaluespacesubscriber.o(t._ZN5QListI5QPairIPN10QtMobility24QAbstractValueSpaceLayerEjEE13detach_helperEi)
    t._ZN5QListI5QPairIPN10QtMobility24QAbstractValueSpaceLayerEjEE13detach_helperEi.clean 0x0001089e   Section        8  qvaluespacesubscriber.o(t._ZN5QListI5QPairIPN10QtMobility24QAbstractValueSpaceLayerEjEE13detach_helperEi.clean)
    t._ZN5QListI5QPairIPN10QtMobility24QAbstractValueSpaceLayerEjEE13detach_helperEv 0x000108a6   Section       16  qvaluespacesubscriber.o(t._ZN5QListI5QPairIPN10QtMobility24QAbstractValueSpaceLayerEjEE13detach_helperEv)
    t._ZN5QListI5QPairIPN10QtMobility24QAbstractValueSpaceLayerEjEE13node_destructEPNS5_4NodeES7_ 0x000108b6   Section       26  qvaluespacesubscriber.o(t._ZN5QListI5QPairIPN10QtMobility24QAbstractValueSpaceLayerEjEE13node_destructEPNS5_4NodeES7_)
    t._ZN5QListI5QPairIPN10QtMobility24QAbstractValueSpaceLayerEjEE14node_constructEPNS5_4NodeERKS4_ 0x000108d0   Section       34  qvaluespacesubscriber.o(t._ZN5QListI5QPairIPN10QtMobility24QAbstractValueSpaceLayerEjEE14node_constructEPNS5_4NodeERKS4_)
    t._ZN5QListI5QPairIPN10QtMobility24QAbstractValueSpaceLayerEjEE14node_constructEPNS5_4NodeERKS4_.clean 0x000108f2   Section        4  qvaluespacesubscriber.o(t._ZN5QListI5QPairIPN10QtMobility24QAbstractValueSpaceLayerEjEE14node_constructEPNS5_4NodeERKS4_.clean)
    t._ZN5QListI5QPairIPN10QtMobility24QAbstractValueSpaceLayerEjEE18detach_helper_growEii 0x000108f6   Section      208  qvaluespacesubscriber.o(t._ZN5QListI5QPairIPN10QtMobility24QAbstractValueSpaceLayerEjEE18detach_helper_growEii)
    t._ZN5QListI5QPairIPN10QtMobility24QAbstractValueSpaceLayerEjEE18detach_helper_growEii.clean 0x000109c6   Section       16  qvaluespacesubscriber.o(t._ZN5QListI5QPairIPN10QtMobility24QAbstractValueSpaceLayerEjEE18detach_helper_growEii.clean)
    t._ZN5QListI5QPairIPN10QtMobility24QAbstractValueSpaceLayerEjEE4freeEPN9QListData4DataE 0x000109d6   Section       58  qvaluespacesubscriber.o(t._ZN5QListI5QPairIPN10QtMobility24QAbstractValueSpaceLayerEjEE4freeEPN9QListData4DataE)
    t._ZN5QListI5QPairIPN10QtMobility24QAbstractValueSpaceLayerEjEE6appendERKS4_ 0x00010a10   Section      112  qvaluespacesubscriber.o(t._ZN5QListI5QPairIPN10QtMobility24QAbstractValueSpaceLayerEjEE6appendERKS4_)
    t._ZN5QListI5QPairIPN10QtMobility24QAbstractValueSpaceLayerEjEE6appendERKS4_.clean 0x00010a80   Section       14  qvaluespacesubscriber.o(t._ZN5QListI5QPairIPN10QtMobility24QAbstractValueSpaceLayerEjEE6appendERKS4_.clean)
    t._ZN5QListI5QPairIPN10QtMobility24QAbstractValueSpaceLayerEjEE9node_copyEPNS5_4NodeES7_S7_ 0x00010a8e   Section       80  qvaluespacesubscriber.o(t._ZN5QListI5QPairIPN10QtMobility24QAbstractValueSpaceLayerEjEE9node_copyEPNS5_4NodeES7_S7_)
    t._ZN5QListI5QPairIPN10QtMobility24QAbstractValueSpaceLayerEjEE9node_copyEPNS5_4NodeES7_S7_.clean 0x00010ade   Section       22  qvaluespacesubscriber.o(t._ZN5QListI5QPairIPN10QtMobility24QAbstractValueSpaceLayerEjEE9node_copyEPNS5_4NodeES7_S7_.clean)
    t._ZN5QListI5QPairIPN10QtMobility24QAbstractValueSpaceLayerEjEEC1ERKS5_ 0x00010af4   Section       36  qvaluespacesubscriber.o(t._ZN5QListI5QPairIPN10QtMobility24QAbstractValueSpaceLayerEjEEC1ERKS5_)
    t._ZN5QListI5QPairIPN10QtMobility24QAbstractValueSpaceLayerEjEEC1Ev 0x00010b18   Section       24  qvaluespacesubscriber.o(t._ZN5QListI5QPairIPN10QtMobility24QAbstractValueSpaceLayerEjEEC1Ev)
    t._ZN5QListI5QPairIPN10QtMobility24QAbstractValueSpaceLayerEjEED1Ev 0x00010b30   Section       32  qvaluespacesubscriber.o(t._ZN5QListI5QPairIPN10QtMobility24QAbstractValueSpaceLayerEjEED1Ev)
    t._ZN5QListI5QUuidE13node_destructEPNS1_4NodeES3_ 0x00010b50   Section       26  qvaluespace.o(t._ZN5QListI5QUuidE13node_destructEPNS1_4NodeES3_)
    t._ZN5QListI5QUuidE14node_constructEPNS1_4NodeERKS0_ 0x00010b6a   Section       34  qvaluespace.o(t._ZN5QListI5QUuidE14node_constructEPNS1_4NodeERKS0_)
    t._ZN5QListI5QUuidE14node_constructEPNS1_4NodeERKS0_.clean 0x00010b8c   Section       14  qvaluespace.o(t._ZN5QListI5QUuidE14node_constructEPNS1_4NodeERKS0_.clean)
    t._ZN5QListI5QUuidE18detach_helper_growEii 0x00010b9a   Section      208  qvaluespace.o(t._ZN5QListI5QUuidE18detach_helper_growEii)
    t._ZN5QListI5QUuidE18detach_helper_growEii.clean 0x00010c6a   Section       16  qvaluespace.o(t._ZN5QListI5QUuidE18detach_helper_growEii.clean)
    t._ZN5QListI5QUuidE4freeEPN9QListData4DataE 0x00010c7a   Section       58  qvaluespace.o(t._ZN5QListI5QUuidE4freeEPN9QListData4DataE)
    t._ZN5QListI5QUuidE6appendERKS0_         0x00010cb4   Section      112  qvaluespace.o(t._ZN5QListI5QUuidE6appendERKS0_)
    t._ZN5QListI5QUuidE6appendERKS0_.clean   0x00010d24   Section       14  qvaluespace.o(t._ZN5QListI5QUuidE6appendERKS0_.clean)
    t._ZN5QListI5QUuidE9node_copyEPNS1_4NodeES3_S3_ 0x00010d32   Section       80  qvaluespace.o(t._ZN5QListI5QUuidE9node_copyEPNS1_4NodeES3_S3_)
    t._ZN5QListI5QUuidE9node_copyEPNS1_4NodeES3_S3_.clean 0x00010d82   Section       22  qvaluespace.o(t._ZN5QListI5QUuidE9node_copyEPNS1_4NodeES3_S3_.clean)
    t._ZN5QListI5QUuidED1Ev                  0x00010d98   Section       32  qvaluespace.o(t._ZN5QListI5QUuidED1Ev)
    t._ZN5QListI7QStringE13detach_helperEi   0x00010db8   Section       94  settingslayer_symbian.o(t._ZN5QListI7QStringE13detach_helperEi)
    t._ZN5QListI7QStringE13detach_helperEi.clean 0x00010e16   Section        8  settingslayer_symbian.o(t._ZN5QListI7QStringE13detach_helperEi.clean)
    t._ZN5QListI7QStringE13detach_helperEv   0x00010e1e   Section       16  settingslayer_symbian.o(t._ZN5QListI7QStringE13detach_helperEv)
    t._ZN5QListI7QStringE13node_destructEPNS1_4NodeES3_ 0x00010e2e   Section       26  qvaluespacesubscriber.o(t._ZN5QListI7QStringE13node_destructEPNS1_4NodeES3_)
    t._ZN5QListI7QStringE14node_constructEPNS1_4NodeERKS0_ 0x00010e48   Section       36  qvaluespacesubscriber.o(t._ZN5QListI7QStringE14node_constructEPNS1_4NodeERKS0_)
    t._ZN5QListI7QStringE14node_constructEPNS1_4NodeERKS0_.clean 0x00010e6c   Section       14  qvaluespacesubscriber.o(t._ZN5QListI7QStringE14node_constructEPNS1_4NodeERKS0_.clean)
    t._ZN5QListI7QStringE18detach_helper_growEii 0x00010e7a   Section      208  qvaluespacesubscriber.o(t._ZN5QListI7QStringE18detach_helper_growEii)
    t._ZN5QListI7QStringE18detach_helper_growEii.clean 0x00010f4a   Section       16  qvaluespacesubscriber.o(t._ZN5QListI7QStringE18detach_helper_growEii.clean)
    t._ZN5QListI7QStringE4freeEPN9QListData4DataE 0x00010f5a   Section       58  qvaluespacesubscriber.o(t._ZN5QListI7QStringE4freeEPN9QListData4DataE)
    t._ZN5QListI7QStringE5clearEv            0x00010f94   Section       76  settingslayer_symbian.o(t._ZN5QListI7QStringE5clearEv)
    t._ZN5QListI7QStringE5clearEv.clean      0x00010fe0   Section       10  settingslayer_symbian.o(t._ZN5QListI7QStringE5clearEv.clean)
    t._ZN5QListI7QStringE6appendERKS0_       0x00010fec   Section      120  qvaluespacesubscriber.o(t._ZN5QListI7QStringE6appendERKS0_)
    t._ZN5QListI7QStringE6appendERKS0_.clean 0x00011064   Section       14  qvaluespacesubscriber.o(t._ZN5QListI7QStringE6appendERKS0_.clean)
    t._ZN5QListI7QStringE7reserveEi          0x00011072   Section       46  settingslayer_symbian.o(t._ZN5QListI7QStringE7reserveEi)
    t._ZN5QListI7QStringE9node_copyEPNS1_4NodeES3_S3_ 0x000110a0   Section       82  qvaluespacesubscriber.o(t._ZN5QListI7QStringE9node_copyEPNS1_4NodeES3_S3_)
    t._ZN5QListI7QStringE9node_copyEPNS1_4NodeES3_S3_.clean 0x000110f2   Section       22  qvaluespacesubscriber.o(t._ZN5QListI7QStringE9node_copyEPNS1_4NodeES3_S3_.clean)
    t._ZN5QListI7QStringEC1Ev                0x00011108   Section       24  settingslayer_symbian.o(t._ZN5QListI7QStringEC1Ev)
    t._ZN5QListI7QStringED1Ev                0x00011120   Section       32  qvaluespacesubscriber.o(t._ZN5QListI7QStringED1Ev)
    t._ZN5QListIN35XQPublishAndSubscribeSecurityPolicy10CapabilityEE13detach_helperEi 0x00011140   Section      190  xqpublishandsubscribesecuritypolicy.o(t._ZN5QListIN35XQPublishAndSubscribeSecurityPolicy10CapabilityEE13detach_helperEi)
    t._ZN5QListIN35XQPublishAndSubscribeSecurityPolicy10CapabilityEE13detach_helperEi.clean 0x000111fe   Section       16  xqpublishandsubscribesecuritypolicy.o(t._ZN5QListIN35XQPublishAndSubscribeSecurityPolicy10CapabilityEE13detach_helperEi.clean)
    t._ZN5QListIN35XQPublishAndSubscribeSecurityPolicy10CapabilityEE13detach_helperEv 0x0001120e   Section       16  xqpublishandsubscribesecuritypolicy.o(t._ZN5QListIN35XQPublishAndSubscribeSecurityPolicy10CapabilityEE13detach_helperEv)
    t._ZN5QListIN35XQPublishAndSubscribeSecurityPolicy10CapabilityEE4freeEPN9QListData4DataE 0x0001121e   Section       70  cpublishandsubscribehandler.o(t._ZN5QListIN35XQPublishAndSubscribeSecurityPolicy10CapabilityEE4freeEPN9QListData4DataE)
    t._ZN5QListIN35XQPublishAndSubscribeSecurityPolicy10CapabilityEEC1ERKS2_ 0x00011264   Section       36  xqpublishandsubscribesecuritypolicy.o(t._ZN5QListIN35XQPublishAndSubscribeSecurityPolicy10CapabilityEEC1ERKS2_)
    t._ZN5QListIN35XQPublishAndSubscribeSecurityPolicy10CapabilityEED1Ev 0x00011288   Section       32  cpublishandsubscribehandler.o(t._ZN5QListIN35XQPublishAndSubscribeSecurityPolicy10CapabilityEED1Ev)
    t._ZN5QListIPFPN10QtMobility24QAbstractValueSpaceLayerEvEE13detach_helperEi 0x000112a8   Section       94  qvaluespacemanager.o(t._ZN5QListIPFPN10QtMobility24QAbstractValueSpaceLayerEvEE13detach_helperEi)
    t._ZN5QListIPFPN10QtMobility24QAbstractValueSpaceLayerEvEE13detach_helperEi.clean 0x00011306   Section        8  qvaluespacemanager.o(t._ZN5QListIPFPN10QtMobility24QAbstractValueSpaceLayerEvEE13detach_helperEi.clean)
    t._ZN5QListIPFPN10QtMobility24QAbstractValueSpaceLayerEvEE13detach_helperEv 0x0001130e   Section       16  qvaluespacemanager.o(t._ZN5QListIPFPN10QtMobility24QAbstractValueSpaceLayerEvEE13detach_helperEv)
    t._ZN5QListIPFPN10QtMobility24QAbstractValueSpaceLayerEvEE18detach_helper_growEii 0x0001131e   Section      204  qvaluespacemanager.o(t._ZN5QListIPFPN10QtMobility24QAbstractValueSpaceLayerEvEE18detach_helper_growEii)
    t._ZN5QListIPFPN10QtMobility24QAbstractValueSpaceLayerEvEE18detach_helper_growEii.clean 0x000113ea   Section       16  qvaluespacemanager.o(t._ZN5QListIPFPN10QtMobility24QAbstractValueSpaceLayerEvEE18detach_helper_growEii.clean)
    t._ZN5QListIPFPN10QtMobility24QAbstractValueSpaceLayerEvEE4freeEPN9QListData4DataE 0x000113fa   Section       58  qvaluespacemanager.o(t._ZN5QListIPFPN10QtMobility24QAbstractValueSpaceLayerEvEE4freeEPN9QListData4DataE)
    t._ZN5QListIPFPN10QtMobility24QAbstractValueSpaceLayerEvEE5clearEv 0x00011434   Section       76  qvaluespacemanager.o(t._ZN5QListIPFPN10QtMobility24QAbstractValueSpaceLayerEvEE5clearEv)
    t._ZN5QListIPFPN10QtMobility24QAbstractValueSpaceLayerEvEE5clearEv.clean 0x00011480   Section       10  qvaluespacemanager.o(t._ZN5QListIPFPN10QtMobility24QAbstractValueSpaceLayerEvEE5clearEv.clean)
    t._ZN5QListIPFPN10QtMobility24QAbstractValueSpaceLayerEvEE6appendERKS4_ 0x0001148c   Section      100  qvaluespacemanager.o(t._ZN5QListIPFPN10QtMobility24QAbstractValueSpaceLayerEvEE6appendERKS4_)
    t._ZN5QListIPFPN10QtMobility24QAbstractValueSpaceLayerEvEE6appendERKS4_.clean 0x000114f0   Section       10  qvaluespacemanager.o(t._ZN5QListIPFPN10QtMobility24QAbstractValueSpaceLayerEvEE6appendERKS4_.clean)
    t._ZN5QListIPFPN10QtMobility24QAbstractValueSpaceLayerEvEE9node_copyEPNS5_4NodeES7_S7_ 0x000114fa   Section       46  qvaluespacemanager.o(t._ZN5QListIPFPN10QtMobility24QAbstractValueSpaceLayerEvEE9node_copyEPNS5_4NodeES7_S7_)
    t._ZN5QListIPFPN10QtMobility24QAbstractValueSpaceLayerEvEEC1Ev 0x00011528   Section       24  qvaluespacemanager.o(t._ZN5QListIPFPN10QtMobility24QAbstractValueSpaceLayerEvEEC1Ev)
    t._ZN5QListIPFPN10QtMobility24QAbstractValueSpaceLayerEvEED1Ev 0x00011540   Section       32  qvaluespacemanager.o(t._ZN5QListIPFPN10QtMobility24QAbstractValueSpaceLayerEvEED1Ev)
    t._ZN5QListIPN10QtMobility20SymbianSettingsLayer21SymbianSettingsHandleEE13detach_helperEi 0x00011560   Section       94  settingslayer_symbian.o(t._ZN5QListIPN10QtMobility20SymbianSettingsLayer21SymbianSettingsHandleEE13detach_helperEi)
    t._ZN5QListIPN10QtMobility20SymbianSettingsLayer21SymbianSettingsHandleEE13detach_helperEi.clean 0x000115be   Section        8  settingslayer_symbian.o(t._ZN5QListIPN10QtMobility20SymbianSettingsLayer21SymbianSettingsHandleEE13detach_helperEi.clean)
    t._ZN5QListIPN10QtMobility20SymbianSettingsLayer21SymbianSettingsHandleEE18detach_helper_growEii 0x000115c6   Section      204  settingslayer_symbian.o(t._ZN5QListIPN10QtMobility20SymbianSettingsLayer21SymbianSettingsHandleEE18detach_helper_growEii)
    t._ZN5QListIPN10QtMobility20SymbianSettingsLayer21SymbianSettingsHandleEE18detach_helper_growEii.clean 0x00011692   Section       16  settingslayer_symbian.o(t._ZN5QListIPN10QtMobility20SymbianSettingsLayer21SymbianSettingsHandleEE18detach_helper_growEii.clean)
    t._ZN5QListIPN10QtMobility20SymbianSettingsLayer21SymbianSettingsHandleEE4freeEPN9QListData4DataE 0x000116a2   Section       58  settingslayer_symbian.o(t._ZN5QListIPN10QtMobility20SymbianSettingsLayer21SymbianSettingsHandleEE4freeEPN9QListData4DataE)
    t._ZN5QListIPN10QtMobility20SymbianSettingsLayer21SymbianSettingsHandleEE6appendERKS3_ 0x000116dc   Section      100  settingslayer_symbian.o(t._ZN5QListIPN10QtMobility20SymbianSettingsLayer21SymbianSettingsHandleEE6appendERKS3_)
    t._ZN5QListIPN10QtMobility20SymbianSettingsLayer21SymbianSettingsHandleEE6appendERKS3_.clean 0x00011740   Section       10  settingslayer_symbian.o(t._ZN5QListIPN10QtMobility20SymbianSettingsLayer21SymbianSettingsHandleEE6appendERKS3_.clean)
    t._ZN5QListIPN10QtMobility20SymbianSettingsLayer21SymbianSettingsHandleEE7reserveEi 0x0001174a   Section       46  settingslayer_symbian.o(t._ZN5QListIPN10QtMobility20SymbianSettingsLayer21SymbianSettingsHandleEE7reserveEi)
    t._ZN5QListIPN10QtMobility20SymbianSettingsLayer21SymbianSettingsHandleEE9node_copyEPNS4_4NodeES6_S6_ 0x00011778   Section       46  settingslayer_symbian.o(t._ZN5QListIPN10QtMobility20SymbianSettingsLayer21SymbianSettingsHandleEE9node_copyEPNS4_4NodeES6_S6_)
    t._ZN5QListIPN10QtMobility20SymbianSettingsLayer21SymbianSettingsHandleEED1Ev 0x000117a6   Section       32  settingslayer_symbian.o(t._ZN5QListIPN10QtMobility20SymbianSettingsLayer21SymbianSettingsHandleEED1Ev)
    t._ZN5QListIPN10QtMobility24QAbstractValueSpaceLayerEE13detach_helperEi 0x000117c6   Section       94  qvaluespacemanager.o(t._ZN5QListIPN10QtMobility24QAbstractValueSpaceLayerEE13detach_helperEi)
    t._ZN5QListIPN10QtMobility24QAbstractValueSpaceLayerEE13detach_helperEi.clean 0x00011824   Section        8  qvaluespacemanager.o(t._ZN5QListIPN10QtMobility24QAbstractValueSpaceLayerEE13detach_helperEi.clean)
    t._ZN5QListIPN10QtMobility24QAbstractValueSpaceLayerEE13detach_helperEv 0x0001182c   Section       16  qvaluespace.o(t._ZN5QListIPN10QtMobility24QAbstractValueSpaceLayerEE13detach_helperEv)
    t._ZN5QListIPN10QtMobility24QAbstractValueSpaceLayerEE18detach_helper_growEii 0x0001183c   Section      204  qvaluespacemanager.o(t._ZN5QListIPN10QtMobility24QAbstractValueSpaceLayerEE18detach_helper_growEii)
    t._ZN5QListIPN10QtMobility24QAbstractValueSpaceLayerEE18detach_helper_growEii.clean 0x00011908   Section       16  qvaluespacemanager.o(t._ZN5QListIPN10QtMobility24QAbstractValueSpaceLayerEE18detach_helper_growEii.clean)
    t._ZN5QListIPN10QtMobility24QAbstractValueSpaceLayerEE4freeEPN9QListData4DataE 0x00011918   Section       58  qvaluespace.o(t._ZN5QListIPN10QtMobility24QAbstractValueSpaceLayerEE4freeEPN9QListData4DataE)
    t._ZN5QListIPN10QtMobility24QAbstractValueSpaceLayerEE6appendERKS2_ 0x00011954   Section      100  qvaluespacemanager.o(t._ZN5QListIPN10QtMobility24QAbstractValueSpaceLayerEE6appendERKS2_)
    t._ZN5QListIPN10QtMobility24QAbstractValueSpaceLayerEE6appendERKS2_.clean 0x000119b8   Section       10  qvaluespacemanager.o(t._ZN5QListIPN10QtMobility24QAbstractValueSpaceLayerEE6appendERKS2_.clean)
    t._ZN5QListIPN10QtMobility24QAbstractValueSpaceLayerEE6insertEiRKS2_ 0x000119c2   Section      100  qvaluespacemanager.o(t._ZN5QListIPN10QtMobility24QAbstractValueSpaceLayerEE6insertEiRKS2_)
    t._ZN5QListIPN10QtMobility24QAbstractValueSpaceLayerEE6insertEiRKS2_.clean 0x00011a26   Section       10  qvaluespacemanager.o(t._ZN5QListIPN10QtMobility24QAbstractValueSpaceLayerEE6insertEiRKS2_.clean)
    t._ZN5QListIPN10QtMobility24QAbstractValueSpaceLayerEE9node_copyEPNS3_4NodeES5_S5_ 0x00011a30   Section       46  qvaluespacemanager.o(t._ZN5QListIPN10QtMobility24QAbstractValueSpaceLayerEE9node_copyEPNS3_4NodeES5_S5_)
    t._ZN5QListIPN10QtMobility24QAbstractValueSpaceLayerEEC1ERKS3_ 0x00011a5e   Section       36  qvaluespacepublisher.o(t._ZN5QListIPN10QtMobility24QAbstractValueSpaceLayerEEC1ERKS3_)
    t._ZN5QListIPN10QtMobility24QAbstractValueSpaceLayerEED1Ev 0x00011a82   Section       32  qvaluespace.o(t._ZN5QListIPN10QtMobility24QAbstractValueSpaceLayerEED1Ev)
    t._ZN8TPckgBufIiEC1ERKi                  0x00011aa2   Section       46  settingslayer_symbian.o(t._ZN8TPckgBufIiEC1ERKi)
    t._ZN9QHashNodeI10QByteArrayPN10QtMobility20SymbianSettingsLayer21SymbianSettingsHandleEEC1ERKS0_RKS4_ 0x00011ad0   Section       30  settingslayer_symbian.o(t._ZN9QHashNodeI10QByteArrayPN10QtMobility20SymbianSettingsLayer21SymbianSettingsHandleEEC1ERKS0_RKS4_)
    t._ZN9QHashNodeI7QStringPN10QtMobility20SymbianSettingsLayer21SymbianSettingsHandleEEC1ERKS0_RKS4_ 0x00011aee   Section       30  settingslayer_symbian.o(t._ZN9QHashNodeI7QStringPN10QtMobility20SymbianSettingsLayer21SymbianSettingsHandleEEC1ERKS0_RKS4_)
    t._ZNK4QSetI7QStringE14const_iteratorneERKS2_ 0x00011b0c   Section       20  qvaluespacesubscriber.o(t._ZNK4QSetI7QStringE14const_iteratorneERKS2_)
    t._ZNK5QHashI10QByteArrayPN10QtMobility20SymbianSettingsLayer21SymbianSettingsHandleEE8findNodeERKS0_Pj 0x00011b20   Section      116  settingslayer_symbian.o(t._ZNK5QHashI10QByteArrayPN10QtMobility20SymbianSettingsLayer21SymbianSettingsHandleEE8findNodeERKS0_Pj)
    t._ZNK5QHashI7QString15QHashDummyValueE8findNodeERKS0_Pj 0x00011b94   Section      116  qvaluespacesubscriber.o(t._ZNK5QHashI7QString15QHashDummyValueE8findNodeERKS0_Pj)
    t._ZNK5QHashI7QStringPN10QtMobility20SymbianSettingsLayer21SymbianSettingsHandleEE14const_iteratorneERKS6_ 0x00011c08   Section       18  settingslayer_symbian.o(t._ZNK5QHashI7QStringPN10QtMobility20SymbianSettingsLayer21SymbianSettingsHandleEE14const_iteratorneERKS6_)
    t._ZNK5QHashI7QStringPN10QtMobility20SymbianSettingsLayer21SymbianSettingsHandleEE6valuesEv 0x00011c1c   Section      112  settingslayer_symbian.o(t._ZNK5QHashI7QStringPN10QtMobility20SymbianSettingsLayer21SymbianSettingsHandleEE6valuesEv)
    t._ZNK5QHashI7QStringPN10QtMobility20SymbianSettingsLayer21SymbianSettingsHandleEE6valuesEv.clean 0x00011c8c   Section       10  settingslayer_symbian.o(t._ZNK5QHashI7QStringPN10QtMobility20SymbianSettingsLayer21SymbianSettingsHandleEE6valuesEv.clean)
    t._ZNK5QHashI7QStringPN10QtMobility20SymbianSettingsLayer21SymbianSettingsHandleEE8findNodeERKS0_Pj 0x00011c96   Section      116  settingslayer_symbian.o(t._ZNK5QHashI7QStringPN10QtMobility20SymbianSettingsLayer21SymbianSettingsHandleEE8findNodeERKS0_Pj)
    t._ZNK5QHashIPKN10QtMobility21QValueSpaceSubscriberEiE8findNodeERKS3_Pj 0x00011d0a   Section      104  qvaluespacesubscriber.o(t._ZNK5QHashIPKN10QtMobility21QValueSpaceSubscriberEiE8findNodeERKS3_Pj)
    t._ZNK5QHashIlP25CCentralRepositoryHandlerE5valueERKl 0x00011d72   Section       40  xqsettingsmanager_p.o(t._ZNK5QHashIlP25CCentralRepositoryHandlerE5valueERKl)
    t._ZNK5QHashIlP25CCentralRepositoryHandlerE8containsERKl 0x00011d9a   Section       32  xqsettingsmanager_p.o(t._ZNK5QHashIlP25CCentralRepositoryHandlerE8containsERKl)
    t._ZNK5QHashIlP25CCentralRepositoryHandlerE8findNodeERKlPj 0x00011dba   Section      106  xqsettingsmanager_p.o(t._ZNK5QHashIlP25CCentralRepositoryHandlerE8findNodeERKlPj)
    t._ZNK5QHashIlP27CPublishAndSubscribeHandlerE5valueERKl 0x00011e24   Section       40  xqsettingsmanager_p.o(t._ZNK5QHashIlP27CPublishAndSubscribeHandlerE5valueERKl)
    t._ZNK5QHashIlP27CPublishAndSubscribeHandlerE8containsERKl 0x00011e4c   Section       32  xqsettingsmanager_p.o(t._ZNK5QHashIlP27CPublishAndSubscribeHandlerE8containsERKl)
    t._ZNK5QHashIlP27CPublishAndSubscribeHandlerE8findNodeERKlPj 0x00011e6c   Section      106  xqsettingsmanager_p.o(t._ZNK5QHashIlP27CPublishAndSubscribeHandlerE8findNodeERKlPj)
    t._ZNK5QHashImP14CCenRepMonitorE8containsERKm 0x00011ed6   Section       32  ccentralrepositoryhandler.o(t._ZNK5QHashImP14CCenRepMonitorE8containsERKm)
    t._ZNK5QHashImP14CCenRepMonitorE8findNodeERKmPj 0x00011ef6   Section      102  ccentralrepositoryhandler.o(t._ZNK5QHashImP14CCenRepMonitorE8findNodeERKmPj)
    t._ZNK5QHashImP14CPubSubMonitorE8containsERKm 0x00011f5c   Section       32  cpublishandsubscribehandler.o(t._ZNK5QHashImP14CPubSubMonitorE8containsERKm)
    t._ZNK5QHashImP14CPubSubMonitorE8findNodeERKmPj 0x00011f7c   Section      102  cpublishandsubscribehandler.o(t._ZNK5QHashImP14CPubSubMonitorE8findNodeERKmPj)
    t._ZNK5QListI5QPairIPN10QtMobility24QAbstractValueSpaceLayerEjEE2atEi 0x00011fe2   Section       22  qvaluespacesubscriber.o(t._ZNK5QListI5QPairIPN10QtMobility24QAbstractValueSpaceLayerEjEE2atEi)
    t._ZNK5QListI5QPairIPN10QtMobility24QAbstractValueSpaceLayerEjEE5countEv 0x00011ff8   Section       16  qvaluespacesubscriber.o(t._ZNK5QListI5QPairIPN10QtMobility24QAbstractValueSpaceLayerEjEE5countEv)
    t._ZNK5QListI5QPairIPN10QtMobility24QAbstractValueSpaceLayerEjEEixEi 0x00012008   Section       22  qvaluespacesubscriber.o(t._ZNK5QListI5QPairIPN10QtMobility24QAbstractValueSpaceLayerEjEEixEi)
    t._ZNK5QListIN35XQPublishAndSubscribeSecurityPolicy10CapabilityEE5countEv 0x0001201e   Section       16  cpublishandsubscribehandler.o(t._ZNK5QListIN35XQPublishAndSubscribeSecurityPolicy10CapabilityEE5countEv)
    t._ZNK5QListIN35XQPublishAndSubscribeSecurityPolicy10CapabilityEEixEi 0x0001202e   Section       30  cpublishandsubscribehandler.o(t._ZNK5QListIN35XQPublishAndSubscribeSecurityPolicy10CapabilityEEixEi)
    t._ZNK5QListIPN10QtMobility20SymbianSettingsLayer21SymbianSettingsHandleEE8containsERKS3_ 0x0001204c   Section       66  settingslayer_symbian.o(t._ZNK5QListIPN10QtMobility20SymbianSettingsLayer21SymbianSettingsHandleEE8containsERKS3_)
    t._ZNK5QListIPN10QtMobility24QAbstractValueSpaceLayerEE2atEi 0x0001208e   Section       30  qvaluespacepublisher.o(t._ZNK5QListIPN10QtMobility24QAbstractValueSpaceLayerEE2atEi)
    t._ZrsI7QStringER11QDataStreamS2_R4QSetIT_E 0x000120ac   Section      174  settingslayer_symbian.o(t._ZrsI7QStringER11QDataStreamS2_R4QSetIT_E)
    t._ZrsI7QStringER11QDataStreamS2_R4QSetIT_E.clean 0x0001215a   Section       20  settingslayer_symbian.o(t._ZrsI7QStringER11QDataStreamS2_R4QSetIT_E.clean)
    t._ZrsI7QStringER11QDataStreamS2_R5QListIT_E 0x0001216e   Section       94  settingslayer_symbian.o(t._ZrsI7QStringER11QDataStreamS2_R5QListIT_E)
    t._ZrsI7QStringER11QDataStreamS2_R5QListIT_E.clean 0x000121cc   Section       10  settingslayer_symbian.o(t._ZrsI7QStringER11QDataStreamS2_R5QListIT_E.clean)
    .extab._ZN10QtMobility11QValueSpace15availableLayersEv 0x000121d8   Data           0  qvaluespace.o(.ARM.extab)
    .extab._ZN10QtMobility14qCanonicalPathERK7QString 0x000121f0   Data           0  qvaluespace.o(.ARM.extab)
    .extab._ZN5QListI5QUuidE14node_constructEPNS1_4NodeERKS0_ 0x00012200   Data           0  qvaluespace.o(.ARM.extab)
    .extab._ZN5QListI5QUuidE9node_copyEPNS1_4NodeES3_S3_ 0x00012210   Data           0  qvaluespace.o(.ARM.extab)
    .extab._ZN5QListI5QUuidE18detach_helper_growEii 0x00012234   Data           0  qvaluespace.o(.ARM.extab)
    .extab._ZN5QListI5QUuidE6appendERKS0_    0x00012264   Data           0  qvaluespace.o(.ARM.extab)
    .extab._ZN10QtMobility18QValueSpaceManagerC1Ev 0x00012294   Data           0  qvaluespacemanager.o(.ARM.extab)
    .extab._ZN10QtMobility17valueSpaceManagerEv 0x000122a4   Data           0  qvaluespacemanager.o(.ARM.extab)
    .extab._ZN5QListIPN10QtMobility24QAbstractValueSpaceLayerEE13detach_helperEi 0x000122bc   Data           0  qvaluespacemanager.o(.ARM.extab)
    .extab._ZN5QListIPFPN10QtMobility24QAbstractValueSpaceLayerEvEE13detach_helperEi 0x000122d8   Data           0  qvaluespacemanager.o(.ARM.extab)
    .extab._ZN5QListIPFPN10QtMobility24QAbstractValueSpaceLayerEvEE5clearEv 0x000122f4   Data           0  qvaluespacemanager.o(.ARM.extab)
    .extab._ZN5QListIPN10QtMobility24QAbstractValueSpaceLayerEE18detach_helper_growEii 0x00012304   Data           0  qvaluespacemanager.o(.ARM.extab)
    .extab._ZN5QListIPN10QtMobility24QAbstractValueSpaceLayerEE6appendERKS2_ 0x00012334   Data           0  qvaluespacemanager.o(.ARM.extab)
    .extab._ZN5QListIPN10QtMobility24QAbstractValueSpaceLayerEE6insertEiRKS2_ 0x00012350   Data           0  qvaluespacemanager.o(.ARM.extab)
    .extab._ZN5QListIPFPN10QtMobility24QAbstractValueSpaceLayerEvEE18detach_helper_growEii 0x0001236c   Data           0  qvaluespacemanager.o(.ARM.extab)
    .extab._ZN5QListIPFPN10QtMobility24QAbstractValueSpaceLayerEvEE6appendERKS4_ 0x0001239c   Data           0  qvaluespacemanager.o(.ARM.extab)
    .extab._ZN10QtMobility18QValueSpaceManagerD1Ev 0x000123b8   Data           0  qvaluespacemanager.o(.ARM.extab)
    .extab._ZN10QtMobility20QValueSpacePublisher10resetValueERK7QString 0x000123c8   Data           0  qvaluespacepublisher.o(.ARM.extab)
    .extab._ZN10QtMobility20QValueSpacePublisher8setValueERK7QStringRK8QVariant 0x000123d8   Data           0  qvaluespacepublisher.o(.ARM.extab)
    .extab._ZN10QtMobility27QValueSpacePublisherPrivateC1ERK7QString6QFlagsINS_11QValueSpace11LayerOptionEE 0x000123e8   Data           0  qvaluespacepublisher.o(.ARM.extab)
    .extab._ZN10QtMobility20QValueSpacePublisherC1ERK7QStringP7QObject 0x00012418   Data           0  qvaluespacepublisher.o(.ARM.extab)
    .extab._ZN10QtMobility20QValueSpacePublisherC1E6QFlagsINS_11QValueSpace11LayerOptionEERK7QStringP7QObject 0x00012438   Data           0  qvaluespacepublisher.o(.ARM.extab)
    .extab._ZN10QtMobility27QValueSpacePublisherPrivateC1ERK7QStringRK5QUuid 0x00012458   Data           0  qvaluespacepublisher.o(.ARM.extab)
    .extab._ZN10QtMobility20QValueSpacePublisherC1ERK5QUuidRK7QStringP7QObject 0x00012488   Data           0  qvaluespacepublisher.o(.ARM.extab)
    .extab._ZN10QtMobility20QValueSpacePublisherD1Ev 0x000124a8   Data           0  qvaluespacepublisher.o(.ARM.extab)
    .extab._ZN10QtMobility11matchLayersERK7QString6QFlagsINS_11QValueSpace11LayerOptionEE 0x000124b8   Data           0  qvaluespacesubscriber.o(.ARM.extab)
    .extab._ZN10QtMobility28QValueSpaceSubscriberPrivateC1ERK7QString6QFlagsINS_11QValueSpace11LayerOptionEE 0x000124c8   Data           0  qvaluespacesubscriber.o(.ARM.extab)
    .extab._ZN10QtMobility28QValueSpaceSubscriberPrivateD1Ev 0x000124f8   Data           0  qvaluespacesubscriber.o(.ARM.extab)
    .extab._ZN10QtMobility28QValueSpaceSubscriberPrivate10disconnectEPNS_21QValueSpaceSubscriberE 0x00012518   Data           0  qvaluespacesubscriber.o(.ARM.extab)
    .extab._ZN10QtMobility21QValueSpaceSubscriber7setPathERK7QString 0x00012528   Data           0  qvaluespacesubscriber.o(.ARM.extab)
    .extab._ZNK10QtMobility21QValueSpaceSubscriber5valueERK7QStringRK8QVariant 0x00012540   Data           0  qvaluespacesubscriber.o(.ARM.extab)
    .extab._ZNK10QtMobility28QValueSpaceSubscriberPrivate7connectEPKNS_21QValueSpaceSubscriberE 0x00012580   Data           0  qvaluespacesubscriber.o(.ARM.extab)
    .extab._ZNK10QtMobility21QValueSpaceSubscriber6valuexERK8QVariant 0x000125b0   Data           0  qvaluespacesubscriber.o(.ARM.extab)
    .extab._ZN10QtMobility21QValueSpaceSubscriber11qt_metacallEN11QMetaObject4CallEiPPv 0x000125d0   Data           0  qvaluespacesubscriber.o(.ARM.extab)
    .extab._ZN10QtMobility21QValueSpaceSubscriberC1EP7QObject 0x000125f8   Data           0  qvaluespacesubscriber.o(.ARM.extab)
    .extab._ZN10QtMobility21QValueSpaceSubscriberC1ERK7QStringP7QObject 0x00012620   Data           0  qvaluespacesubscriber.o(.ARM.extab)
    .extab._ZN10QtMobility21QValueSpaceSubscriberC1E6QFlagsINS_11QValueSpace11LayerOptionEERK7QStringP7QObject 0x00012638   Data           0  qvaluespacesubscriber.o(.ARM.extab)
    .extab._ZN10QtMobility11matchLayersERK7QStringRK5QUuid 0x00012650   Data           0  qvaluespacesubscriber.o(.ARM.extab)
    .extab._ZN10QtMobility28QValueSpaceSubscriberPrivateC1ERK7QStringRK5QUuid 0x00012660   Data           0  qvaluespacesubscriber.o(.ARM.extab)
    .extab._ZN10QtMobility21QValueSpaceSubscriberC1ERK5QUuidRK7QStringP7QObject 0x00012690   Data           0  qvaluespacesubscriber.o(.ARM.extab)
    .extab._ZN10QtMobility21QValueSpaceSubscriberD1Ev 0x000126a8   Data           0  qvaluespacesubscriber.o(.ARM.extab)
    .extab._ZN10QtMobility21QValueSpaceSubscriber2cdERK7QString 0x000126c0   Data           0  qvaluespacesubscriber.o(.ARM.extab)
    .extab._ZN10QtMobility21QValueSpaceSubscriber4cdUpEv 0x000126f8   Data           0  qvaluespacesubscriber.o(.ARM.extab)
    .extab._ZNK10QtMobility21QValueSpaceSubscriber8subPathsEv 0x00012718   Data           0  qvaluespacesubscriber.o(.ARM.extab)
    .extab._ZNK13QLatin1StringeqEPKc         0x00012740   Data           0  qvaluespacesubscriber.o(.ARM.extab)
    .extab._ZN5QListI7QStringE14node_constructEPNS1_4NodeERKS0_ 0x00012750   Data           0  qvaluespacesubscriber.o(.ARM.extab)
    .extab._ZN5QListI7QStringE9node_copyEPNS1_4NodeES3_S3_ 0x00012760   Data           0  qvaluespacesubscriber.o(.ARM.extab)
    .extab._ZN5QListI7QStringE18detach_helper_growEii 0x00012784   Data           0  qvaluespacesubscriber.o(.ARM.extab)
    .extab._ZN5QListI7QStringE6appendERKS0_  0x000127b4   Data           0  qvaluespacesubscriber.o(.ARM.extab)
    .extab._ZN5QListI5QPairIPN10QtMobility24QAbstractValueSpaceLayerEjEE9node_copyEPNS5_4NodeES7_S7_ 0x000127e4   Data           0  qvaluespacesubscriber.o(.ARM.extab)
    .extab._ZN5QListI5QPairIPN10QtMobility24QAbstractValueSpaceLayerEjEE18detach_helper_growEii 0x00012808   Data           0  qvaluespacesubscriber.o(.ARM.extab)
    .extab._ZN5QListI5QPairIPN10QtMobility24QAbstractValueSpaceLayerEjEE6appendERKS4_ 0x00012838   Data           0  qvaluespacesubscriber.o(.ARM.extab)
    .extab._ZN5QListI5QPairIPN10QtMobility24QAbstractValueSpaceLayerEjEE13detach_helperEi 0x00012868   Data           0  qvaluespacesubscriber.o(.ARM.extab)
    .extab._ZN5QHashIPKN10QtMobility21QValueSpaceSubscriberEiE10createNodeEjRKS3_RKiPP9QHashNodeIS3_iE 0x00012884   Data           0  qvaluespacesubscriber.o(.ARM.extab)
    .extab._ZN10QtMobility33QValueSpaceSubscriberPrivateProxyD1Ev 0x00012894   Data           0  qvaluespacesubscriber.o(.ARM.extab)
    .extab._ZplRK7QString5QChar              0x000128ac   Data           0  qvaluespacesubscriber.o(.ARM.extab)
    .extab._ZN5QHashI7QString15QHashDummyValueE13duplicateNodeEPN9QHashData4NodeEPv 0x000128bc   Data           0  qvaluespacesubscriber.o(.ARM.extab)
    .extab._ZN4QSetI7QStringE5uniteERKS1_    0x000128cc   Data           0  qvaluespacesubscriber.o(.ARM.extab)
    .extab._ZN5QHashI7QString15QHashDummyValueE6insertERKS0_RKS1_ 0x000128dc   Data           0  qvaluespacesubscriber.o(.ARM.extab)
    .extab._ZN10QtMobility10PathMapper24RPathMapperServerSession11StartServerEv 0x000128ec   Data           0  settingslayer_symbian.o(.ARM.extab)
    .extab._ZN10QtMobility10PathMapperC1Ev   0x000128f8   Data           0  settingslayer_symbian.o(.ARM.extab)
    .extab._ZN10QtMobility10PathMapperD1Ev   0x00012908   Data           0  settingslayer_symbian.o(.ARM.extab)
    .extab._ZNK10QtMobility10PathMapper24RPathMapperServerSession11getChildrenERK7QStringR4QSetIS2_E 0x00012918   Data           0  settingslayer_symbian.o(.ARM.extab)
    .extab._ZNK10QtMobility10PathMapper24RPathMapperServerSession10childPathsERK7QString 0x00012978   Data           0  settingslayer_symbian.o(.ARM.extab)
    .extab._ZNK10QtMobility10PathMapper24RPathMapperServerSession11resolvePathERK7QStringRNS0_6TargetERjS7_ 0x000129e8   Data           0  settingslayer_symbian.o(.ARM.extab)
    .extab._ZN10QtMobility20SymbianSettingsLayer12notifyChangeERK13XQSettingsKey 0x00012a48   Data           0  settingslayer_symbian.o(.ARM.extab)
    .extab._ZN10QtMobility20SymbianSettingsLayerC1Ev 0x00012a58   Data           0  settingslayer_symbian.o(.ARM.extab)
    .extab._ZN10QtMobility20SymbianSettingsLayerD1Ev 0x00012a90   Data           0  settingslayer_symbian.o(.ARM.extab)
    .extab._ZN10QtMobility20SymbianSettingsLayer4itemEjRK7QString 0x00012ad8   Data           0  settingslayer_symbian.o(.ARM.extab)
    .extab._ZN10QtMobility20SymbianSettingsLayer11setPropertyEjNS_24QAbstractValueSpaceLayer10PropertiesE 0x00012b70   Data           0  settingslayer_symbian.o(.ARM.extab)
    .extab._ZN10QtMobility20SymbianSettingsLayer5valueEjRK7QStringP8QVariant 0x00012bb0   Data           0  settingslayer_symbian.o(.ARM.extab)
    .extab._ZN10QtMobility20SymbianSettingsLayer8childrenEj 0x00012c58   Data           0  settingslayer_symbian.o(.ARM.extab)
    .extab._ZN10QtMobility20SymbianSettingsLayer8setValueEPNS_20QValueSpacePublisherEjRK7QStringRK8QVariant 0x00012c68   Data           0  settingslayer_symbian.o(.ARM.extab)
    .extab._ZN10QtMobility20SymbianSettingsLayer11removeValueEPNS_20QValueSpacePublisherEjRK7QString 0x00012d08   Data           0  settingslayer_symbian.o(.ARM.extab)
    .extab._ZN10QtMobility20symbianSettingsLayerEv 0x00012d78   Data           0  settingslayer_symbian.o(.ARM.extab)
    .extab._ZplRK7QStringS1_                 0x00012d90   Data           0  settingslayer_symbian.o(.ARM.extab)
    .extab._ZN5QListI7QStringE13detach_helperEi 0x00012da0   Data           0  settingslayer_symbian.o(.ARM.extab)
    .extab._ZN5QListI7QStringE5clearEv       0x00012dbc   Data           0  settingslayer_symbian.o(.ARM.extab)
    .extab._ZrsI7QStringER11QDataStreamS2_R5QListIT_E 0x00012dcc   Data           0  settingslayer_symbian.o(.ARM.extab)
    .extab._ZrsI7QStringER11QDataStreamS2_R4QSetIT_E 0x00012ddc   Data           0  settingslayer_symbian.o(.ARM.extab)
    .extab._ZN9QHashData9hasShrunkEv         0x00012df4   Data           0  settingslayer_symbian.o(.ARM.extab)
    .extab._ZN5QListIPN10QtMobility20SymbianSettingsLayer21SymbianSettingsHandleEE13detach_helperEi 0x00012e08   Data           0  settingslayer_symbian.o(.ARM.extab)
    .extab._ZN5QListIPN10QtMobility20SymbianSettingsLayer21SymbianSettingsHandleEE18detach_helper_growEii 0x00012e24   Data           0  settingslayer_symbian.o(.ARM.extab)
    .extab._ZN5QListIPN10QtMobility20SymbianSettingsLayer21SymbianSettingsHandleEE6appendERKS3_ 0x00012e54   Data           0  settingslayer_symbian.o(.ARM.extab)
    .extab._ZNK5QHashI7QStringPN10QtMobility20SymbianSettingsLayer21SymbianSettingsHandleEE6valuesEv 0x00012e70   Data           0  settingslayer_symbian.o(.ARM.extab)
    .extab._ZN10QtMobility20SymbianSettingsLayer21symbianSettingsHandleEj 0x00012e80   Data           0  settingslayer_symbian.o(.ARM.extab)
    .extab._ZN5QHashI7QStringPN10QtMobility20SymbianSettingsLayer21SymbianSettingsHandleEE13duplicateNodeEPN9QHashData4NodeEPv 0x00012e90   Data           0  settingslayer_symbian.o(.ARM.extab)
    .extab._ZN5QHashI7QStringPN10QtMobility20SymbianSettingsLayer21SymbianSettingsHandleEE6insertERKS0_RKS4_ 0x00012ea0   Data           0  settingslayer_symbian.o(.ARM.extab)
    .extab._ZN5QHashI10QByteArrayPN10QtMobility20SymbianSettingsLayer21SymbianSettingsHandleEE13duplicateNodeEPN9QHashData4NodeEPv 0x00012eb8   Data           0  settingslayer_symbian.o(.ARM.extab)
    .extab._ZN5QHashI10QByteArrayPN10QtMobility20SymbianSettingsLayer21SymbianSettingsHandleEEixERKS0_ 0x00012ec8   Data           0  settingslayer_symbian.o(.ARM.extab)
    .extab._ZN17XQSettingsManagerC1EP7QObject 0x00012ee0   Data           0  xqsettingsmanager.o(.ARM.extab)
    .extab._ZN17XQSettingsManagerD1Ev        0x00012ef0   Data           0  xqsettingsmanager.o(.ARM.extab)
    .extab._ZN5CBasenwEj                     0x00012f00   Data           0  xqsettingsmanager.o(.ARM.extab)
    .extab._ZN24XQSettingsManagerPrivateC1EP17XQSettingsManager 0x00012f10   Data           0  xqsettingsmanager_p.o(.ARM.extab)
    .extab._ZN24XQSettingsManagerPrivateD1Ev 0x00012f28   Data           0  xqsettingsmanager_p.o(.ARM.extab)
    .extab._ZN24XQSettingsManagerPrivate21pubSubHandlerInstanceEl 0x00012f78   Data           0  xqsettingsmanager_p.o(.ARM.extab)
    .extab._ZN24XQSettingsManagerPrivate21cenRepHandlerInstanceEl 0x00012fa8   Data           0  xqsettingsmanager_p.o(.ARM.extab)
    .extab._ZN24XQSettingsManagerPrivate12valueChangedERK13XQSettingsKeyN17XQSettingsManager4TypeE 0x00012fd8   Data           0  xqsettingsmanager_p.o(.ARM.extab)
    .extab._ZN24XQSettingsManagerPrivate11itemDeletedERK13XQSettingsKey 0x00012fe8   Data           0  xqsettingsmanager_p.o(.ARM.extab)
    .extab._ZN5QHashIlP27CPublishAndSubscribeHandlerEixERKl 0x00012ff8   Data           0  xqsettingsmanager_p.o(.ARM.extab)
    .extab._ZN5QHashIlP25CCentralRepositoryHandlerEixERKl 0x00013008   Data           0  xqsettingsmanager_p.o(.ARM.extab)
    .extab._ZN19SettingsHandlerBase19handleReadItemValueERK13XQSettingsKeyN17XQSettingsManager4TypeERi 0x00013018   Data           0  settingshandlerbase.o(.ARM.extab)
    .extab._ZN19SettingsHandlerBase20handleWriteItemValueERK13XQSettingsKeyRK8QVariantRi 0x000130e0   Data           0  settingshandlerbase.o(.ARM.extab)
    .extab._Z16qVariantSetValueI10QByteArrayEvR8QVariantRKT_ 0x00013100   Data           0  settingshandlerbase.o(.ARM.extab)
    .extab._Z16qVariantSetValueI7QStringEvR8QVariantRKT_ 0x00013128   Data           0  settingshandlerbase.o(.ARM.extab)
    .extab._ZN25CCentralRepositoryHandlerC1E4TUid 0x00013150   Data           0  ccentralrepositoryhandler.o(.ARM.extab)
    .extab._ZN25CCentralRepositoryHandlerD1Ev 0x00013160   Data           0  ccentralrepositoryhandler.o(.ARM.extab)
    .extab._ZN25CCentralRepositoryHandler21handleStartMonitoringERK13XQSettingsKeyN17XQSettingsManager4TypeER24MSettingsHandlerObserverRi 0x00013188   Data           0  ccentralrepositoryhandler.o(.ARM.extab)
    .extab._ZThn4_N25CCentralRepositoryHandler21handleStartMonitoringERK13XQSettingsKeyN17XQSettingsManager4TypeER24MSettingsHandlerObserverRi 0x00013198   Data           0  ccentralrepositoryhandler.o(.ARM.extab)
    .extab._ZN5QHashImP14CCenRepMonitorEixERKm 0x000131a8   Data           0  ccentralrepositoryhandler.o(.ARM.extab)
    .extab._ZN5QHashImP14CCenRepMonitorE6removeERKm 0x000131b8   Data           0  ccentralrepositoryhandler.o(.ARM.extab)
    .extab._ZN27CPublishAndSubscribeHandlerC1E4TUid 0x000131cc   Data           0  cpublishandsubscribehandler.o(.ARM.extab)
    .extab._ZN27CPublishAndSubscribeHandlerD1Ev 0x000131dc   Data           0  cpublishandsubscribehandler.o(.ARM.extab)
    .extab._ZN27CPublishAndSubscribeHandler13symbianPolicyERK35XQPublishAndSubscribeSecurityPolicy 0x000131f4   Data           0  cpublishandsubscribehandler.o(.ARM.extab)
    .extab._ZN27CPublishAndSubscribeHandler21handleStartMonitoringERK13XQSettingsKeyN17XQSettingsManager4TypeER24MSettingsHandlerObserverRi 0x0001321c   Data           0  cpublishandsubscribehandler.o(.ARM.extab)
    .extab._ZThn4_N27CPublishAndSubscribeHandler21handleStartMonitoringERK13XQSettingsKeyN17XQSettingsManager4TypeER24MSettingsHandlerObserverRi 0x0001322c   Data           0  cpublishandsubscribehandler.o(.ARM.extab)
    .extab._ZN5QHashImP14CPubSubMonitorEixERKm 0x0001323c   Data           0  cpublishandsubscribehandler.o(.ARM.extab)
    .extab._ZN5QHashImP14CPubSubMonitorE6removeERKm 0x0001324c   Data           0  cpublishandsubscribehandler.o(.ARM.extab)
    .extab._ZN14CCenRepMonitorC1ER11CRepositoryRK13XQSettingsKeyN17XQSettingsManager4TypeER24MSettingsHandlerObserver 0x00013260   Data           0  cenrepmonitor.o(.ARM.extab)
    .extab._ZN14CCenRepMonitorD1Ev           0x00013270   Data           0  cenrepmonitor.o(.ARM.extab)
    .extab._ZN14CPubSubMonitorC1ERK13XQSettingsKeyN17XQSettingsManager4TypeER24MSettingsHandlerObserver 0x00013288   Data           0  pubsubmonitor.o(.ARM.extab)
    .extab._ZN14CPubSubMonitorD1Ev           0x00013298   Data           0  pubsubmonitor.o(.ARM.extab)
    .extab._ZN24XQCentralRepositoryUtilsC1ER17XQSettingsManagerP7QObject 0x000132b0   Data           0  xqcentralrepositoryutils.o(.ARM.extab)
    .extab._ZN31XQCentralRepositoryUtilsPrivate8findKeysERK33XQCentralRepositorySearchCriteria 0x000132c8   Data           0  xqcentralrepositoryutils_p.o(.ARM.extab)
    .extab._ZN5QListI30XQCentralRepositorySettingsKeyE9node_copyEPNS1_4NodeES3_S3_ 0x00013320   Data           0  xqcentralrepositoryutils_p.o(.ARM.extab)
    .extab._ZN5QListI30XQCentralRepositorySettingsKeyE13detach_helperEi 0x0001333c   Data           0  xqcentralrepositoryutils_p.o(.ARM.extab)
    .extab._ZN5QListI30XQCentralRepositorySettingsKeyE18detach_helper_growEii 0x00013358   Data           0  xqcentralrepositoryutils_p.o(.ARM.extab)
    .extab._ZN5QListI30XQCentralRepositorySettingsKeyE6appendERKS0_ 0x00013388   Data           0  xqcentralrepositoryutils_p.o(.ARM.extab)
    .extab._ZN26XQPublishAndSubscribeUtilsC1ER17XQSettingsManagerP7QObject 0x000133b8   Data           0  xqpublishandsubscribeutils.o(.ARM.extab)
    .extab._ZN5QListIN35XQPublishAndSubscribeSecurityPolicy10CapabilityEE13detach_helperEi 0x000133d0   Data           0  xqpublishandsubscribesecuritypolicy.o(.ARM.extab)
    .constdata$1                             0x0001340c   Data           0  moc_xqsettingsmanager.o(.constdata)
    qt_meta_data_XQSettingsManager           0x0001340c   Data         236  moc_xqsettingsmanager.o(.constdata)
    .constdata                               0x0001340c   Section      544  moc_xqsettingsmanager.o(.constdata)
    qt_meta_stringdata_XQSettingsManager     0x000134f8   Data         289  moc_xqsettingsmanager.o(.constdata)
    .constdata$1                             0x0001362c   Data           0  qvaluespace.o(.constdata)
    .constdata                               0x0001362c   Section      147  qvaluespace.o(.constdata)
    QtMobility::qt_meta_data_QAbstractValueSpaceLayer 0x0001363c   Data          80  qvaluespace.o(.constdata)
    QtMobility::qt_meta_stringdata_QAbstractValueSpaceLayer 0x0001368c   Data          51  qvaluespace.o(.constdata)
    .constdata$1                             0x000136c0   Data           0  qvaluespacepublisher.o(.constdata)
    .constdata                               0x000136c0   Section      272  qvaluespacepublisher.o(.constdata)
    QtMobility::qt_meta_data_QValueSpacePublisher 0x000136d0   Data         120  qvaluespacepublisher.o(.constdata)
    QtMobility::qt_meta_stringdata_QValueSpacePublisher 0x00013748   Data         136  qvaluespacepublisher.o(.constdata)
    .constdata$1                             0x000137d0   Data           0  qvaluespacesubscriber.o(.constdata)
    .constdata                               0x000137d0   Section      393  qvaluespacesubscriber.o(.constdata)
    QtMobility::qt_meta_data_QValueSpaceSubscriber 0x000137f0   Data         112  qvaluespacesubscriber.o(.constdata)
    QtMobility::qt_meta_stringdata_QValueSpaceSubscriber 0x00013860   Data          70  qvaluespacesubscriber.o(.constdata)
    QtMobility::qt_meta_data_QValueSpaceSubscriberPrivateProxy 0x000138a8   Data         100  qvaluespacesubscriber.o(.constdata)
    QtMobility::qt_meta_stringdata_QValueSpaceSubscriberPrivateProxy 0x0001390c   Data          77  qvaluespacesubscriber.o(.constdata)
    .constdata$1                             0x0001395c   Data           0  settingslayer_symbian.o(.constdata)
    KNullDesC                                0x0001395c   Data           8  settingslayer_symbian.o(.constdata)
    .constdata                               0x0001395c   Section      339  settingslayer_symbian.o(.constdata)
    KPSPathMapperServerName                  0x00013964   Data          48  settingslayer_symbian.o(.constdata)
    KPSPathMapperServerProcess               0x00013994   Data          44  settingslayer_symbian.o(.constdata)
    QtMobility::qt_meta_data_PathMapper      0x000139e0   Data          60  settingslayer_symbian.o(.constdata)
    QtMobility::qt_meta_stringdata_PathMapper 0x00013a1c   Data          12  settingslayer_symbian.o(.constdata)
    QtMobility::qt_meta_data_SymbianSettingsLayer 0x00013a28   Data          80  settingslayer_symbian.o(.constdata)
    QtMobility::qt_meta_stringdata_SymbianSettingsLayer 0x00013a78   Data          55  settingslayer_symbian.o(.constdata)
    .constdata__ZN9stlp_priv15_Integer_limitsIaLan128ELa127ELin1ELb1EE6digitsE 0x00013ab0   Section        4  moc_xqsettingsmanager.o(.constdata__ZN9stlp_priv15_Integer_limitsIaLan128ELa127ELin1ELb1EE6digitsE)
    .constdata__ZN9stlp_priv15_Integer_limitsIbLb0ELb1ELi1ELb0EE6digitsE 0x00013ab4   Section        4  moc_xqsettingsmanager.o(.constdata__ZN9stlp_priv15_Integer_limitsIbLb0ELb1ELi1ELb0EE6digitsE)
    .constdata__ZN9stlp_priv15_Integer_limitsIcLc128ELc127ELin1ELb1EE6digitsE 0x00013ab8   Section        4  moc_xqsettingsmanager.o(.constdata__ZN9stlp_priv15_Integer_limitsIcLc128ELc127ELin1ELb1EE6digitsE)
    .constdata__ZN9stlp_priv15_Integer_limitsIhLh0ELh255ELin1ELb1EE6digitsE 0x00013abc   Section        4  moc_xqsettingsmanager.o(.constdata__ZN9stlp_priv15_Integer_limitsIhLh0ELh255ELin1ELb1EE6digitsE)
    .constdata__ZN9stlp_priv15_Integer_limitsIiLin2147483648ELi2147483647ELin1ELb1EE6digitsE 0x00013ac0   Section        4  moc_xqsettingsmanager.o(.constdata__ZN9stlp_priv15_Integer_limitsIiLin2147483648ELi2147483647ELin1ELb1EE6digitsE)
    .constdata__ZN9stlp_priv15_Integer_limitsIiLin2147483648ELi2147483647ELin1ELb1EE9is_signedE 0x00013ac4   Section        1  moc_xqsettingsmanager.o(.constdata__ZN9stlp_priv15_Integer_limitsIiLin2147483648ELi2147483647ELin1ELb1EE9is_signedE)
    .constdata__ZN9stlp_priv15_Integer_limitsIjLj0ELj4294967295ELin1ELb1EE6digitsE 0x00013ac8   Section        4  moc_xqsettingsmanager.o(.constdata__ZN9stlp_priv15_Integer_limitsIjLj0ELj4294967295ELin1ELb1EE6digitsE)
    .constdata__ZN9stlp_priv15_Integer_limitsIlLln2147483648ELl2147483647ELin1ELb1EE6digitsE 0x00013acc   Section        4  moc_xqsettingsmanager.o(.constdata__ZN9stlp_priv15_Integer_limitsIlLln2147483648ELl2147483647ELin1ELb1EE6digitsE)
    .constdata__ZN9stlp_priv15_Integer_limitsImLm0ELm4294967295ELin1ELb1EE6digitsE 0x00013ad0   Section        4  moc_xqsettingsmanager.o(.constdata__ZN9stlp_priv15_Integer_limitsImLm0ELm4294967295ELin1ELb1EE6digitsE)
    .constdata__ZN9stlp_priv15_Integer_limitsIsLsn32768ELs32767ELin1ELb1EE6digitsE 0x00013ad4   Section        4  moc_xqsettingsmanager.o(.constdata__ZN9stlp_priv15_Integer_limitsIsLsn32768ELs32767ELin1ELb1EE6digitsE)
    .constdata__ZN9stlp_priv15_Integer_limitsItLt0ELt65535ELin1ELb1EE6digitsE 0x00013ad8   Section        4  moc_xqsettingsmanager.o(.constdata__ZN9stlp_priv15_Integer_limitsItLt0ELt65535ELin1ELb1EE6digitsE)
    .constdata__ZN9stlp_priv15_Integer_limitsIwLw0ELw65535ELin1ELb1EE6digitsE 0x00013adc   Section        4  moc_xqsettingsmanager.o(.constdata__ZN9stlp_priv15_Integer_limitsIwLw0ELw65535ELin1ELb1EE6digitsE)
    .constdata__ZN9stlp_priv15_Integer_limitsIxLxn9223372036854775808ELx9223372036854775807ELin1ELb1EE6digitsE 0x00013ae0   Section        4  moc_xqsettingsmanager.o(.constdata__ZN9stlp_priv15_Integer_limitsIxLxn9223372036854775808ELx9223372036854775807ELin1ELb1EE6digitsE)
    .constdata__ZN9stlp_priv15_Integer_limitsIyLy0ELy18446744073709551615ELin1ELb1EE6digitsE 0x00013ae4   Section        4  moc_xqsettingsmanager.o(.constdata__ZN9stlp_priv15_Integer_limitsIyLy0ELy18446744073709551615ELin1ELb1EE6digitsE)
    .constdata__ZTI14CCenRepMonitor          0x00013ae8   Section       12  cenrepmonitor.o(.constdata__ZTI14CCenRepMonitor)
    .constdata__ZTI14CPubSubMonitor          0x00013af4   Section       12  pubsubmonitor.o(.constdata__ZTI14CPubSubMonitor)
    .constdata__ZTI17XQSettingsManager       0x00013b00   Section       12  moc_xqsettingsmanager.o(.constdata__ZTI17XQSettingsManager)
    .constdata__ZTI19SettingsHandlerBase     0x00013b0c   Section        8  ccentralrepositoryhandler.o(.constdata__ZTI19SettingsHandlerBase)
    .constdata__ZTI24MSettingsHandlerObserver 0x00013b14   Section        8  xqsettingsmanager_p.o(.constdata__ZTI24MSettingsHandlerObserver)
    .constdata__ZTI24XQCentralRepositoryUtils 0x00013b1c   Section       12  xqcentralrepositoryutils.o(.constdata__ZTI24XQCentralRepositoryUtils)
    .constdata__ZTI24XQSettingsManagerPrivate 0x00013b28   Section       32  xqsettingsmanager_p.o(.constdata__ZTI24XQSettingsManagerPrivate)
    .constdata__ZTI25CCentralRepositoryHandler 0x00013b48   Section       32  ccentralrepositoryhandler.o(.constdata__ZTI25CCentralRepositoryHandler)
    .constdata__ZTI26XQPublishAndSubscribeUtils 0x00013b68   Section       12  xqpublishandsubscribeutils.o(.constdata__ZTI26XQPublishAndSubscribeUtils)
    .constdata__ZTI27CPublishAndSubscribeHandler 0x00013b74   Section       32  cpublishandsubscribehandler.o(.constdata__ZTI27CPublishAndSubscribeHandler)
    .constdata__ZTIN10QtMobility10PathMapperE 0x00013b94   Section       12  settingslayer_symbian.o(.constdata__ZTIN10QtMobility10PathMapperE)
    .constdata__ZTIN10QtMobility20QValueSpacePublisherE 0x00013ba0   Section       12  qvaluespacepublisher.o(.constdata__ZTIN10QtMobility20QValueSpacePublisherE)
    .constdata__ZTIN10QtMobility20SymbianSettingsLayerE 0x00013bac   Section       12  settingslayer_symbian.o(.constdata__ZTIN10QtMobility20SymbianSettingsLayerE)
    .constdata__ZTIN10QtMobility21QValueSpaceSubscriberE 0x00013bb8   Section       12  qvaluespacesubscriber.o(.constdata__ZTIN10QtMobility21QValueSpaceSubscriberE)
    .constdata__ZTIN10QtMobility24QAbstractValueSpaceLayerE 0x00013bc4   Section       12  qvaluespace.o(.constdata__ZTIN10QtMobility24QAbstractValueSpaceLayerE)
    .constdata__ZTIN10QtMobility33QValueSpaceSubscriberPrivateProxyE 0x00013bd0   Section       12  qvaluespacesubscriber.o(.constdata__ZTIN10QtMobility33QValueSpaceSubscriberPrivateProxyE)
    .constdata__ZTS14CCenRepMonitor          0x00013bdc   Section       17  cenrepmonitor.o(.constdata__ZTS14CCenRepMonitor)
    .constdata__ZTS14CPubSubMonitor          0x00013bed   Section       17  pubsubmonitor.o(.constdata__ZTS14CPubSubMonitor)
    .constdata__ZTS17XQSettingsManager       0x00013bfe   Section       20  moc_xqsettingsmanager.o(.constdata__ZTS17XQSettingsManager)
    .constdata__ZTS19SettingsHandlerBase     0x00013c12   Section       22  ccentralrepositoryhandler.o(.constdata__ZTS19SettingsHandlerBase)
    .constdata__ZTS24MSettingsHandlerObserver 0x00013c28   Section       27  xqsettingsmanager_p.o(.constdata__ZTS24MSettingsHandlerObserver)
    .constdata__ZTS24XQCentralRepositoryUtils 0x00013c43   Section       27  xqcentralrepositoryutils.o(.constdata__ZTS24XQCentralRepositoryUtils)
    .constdata__ZTS24XQSettingsManagerPrivate 0x00013c5e   Section       27  xqsettingsmanager_p.o(.constdata__ZTS24XQSettingsManagerPrivate)
    .constdata__ZTS25CCentralRepositoryHandler 0x00013c79   Section       28  ccentralrepositoryhandler.o(.constdata__ZTS25CCentralRepositoryHandler)
    .constdata__ZTS26XQPublishAndSubscribeUtils 0x00013c95   Section       29  xqpublishandsubscribeutils.o(.constdata__ZTS26XQPublishAndSubscribeUtils)
    .constdata__ZTS27CPublishAndSubscribeHandler 0x00013cb2   Section       30  cpublishandsubscribehandler.o(.constdata__ZTS27CPublishAndSubscribeHandler)
    .constdata__ZTSN10QtMobility10PathMapperE 0x00013cd0   Section       27  settingslayer_symbian.o(.constdata__ZTSN10QtMobility10PathMapperE)
    .constdata__ZTSN10QtMobility20QValueSpacePublisherE 0x00013ceb   Section       37  qvaluespacepublisher.o(.constdata__ZTSN10QtMobility20QValueSpacePublisherE)
    .constdata__ZTSN10QtMobility20SymbianSettingsLayerE 0x00013d10   Section       37  settingslayer_symbian.o(.constdata__ZTSN10QtMobility20SymbianSettingsLayerE)
    .constdata__ZTSN10QtMobility21QValueSpaceSubscriberE 0x00013d35   Section       38  qvaluespacesubscriber.o(.constdata__ZTSN10QtMobility21QValueSpaceSubscriberE)
    .constdata__ZTSN10QtMobility24QAbstractValueSpaceLayerE 0x00013d5b   Section       41  qvaluespace.o(.constdata__ZTSN10QtMobility24QAbstractValueSpaceLayerE)
    .constdata__ZTSN10QtMobility33QValueSpaceSubscriberPrivateProxyE 0x00013d84   Section       50  qvaluespacesubscriber.o(.constdata__ZTSN10QtMobility33QValueSpaceSubscriberPrivateProxyE)
    .constdata__ZTV14CCenRepMonitor          0x00013db8   Section       32  cenrepmonitor.o(.constdata__ZTV14CCenRepMonitor)
    .constdata__ZTV14CPubSubMonitor          0x00013dd8   Section       32  pubsubmonitor.o(.constdata__ZTV14CPubSubMonitor)
    .constdata__ZTV17XQSettingsManager       0x00013df8   Section       56  moc_xqsettingsmanager.o(.constdata__ZTV17XQSettingsManager)
    .constdata__ZTV19SettingsHandlerBase     0x00013e30   Section       60  ccentralrepositoryhandler.o(.constdata__ZTV19SettingsHandlerBase)
    .constdata__ZTV24MSettingsHandlerObserver 0x00013e6c   Section       16  xqsettingsmanager_p.o(.constdata__ZTV24MSettingsHandlerObserver)
    .constdata__ZTV24XQCentralRepositoryUtils 0x00013e7c   Section       56  xqcentralrepositoryutils.o(.constdata__ZTV24XQCentralRepositoryUtils)
    .constdata__ZTV24XQSettingsManagerPrivate 0x00013eb4   Section       44  xqsettingsmanager_p.o(.constdata__ZTV24XQSettingsManagerPrivate)
    .constdata__ZTV25CCentralRepositoryHandler 0x00013ee0   Section      124  ccentralrepositoryhandler.o(.constdata__ZTV25CCentralRepositoryHandler)
    .constdata__ZTV26XQPublishAndSubscribeUtils 0x00013f5c   Section       56  xqpublishandsubscribeutils.o(.constdata__ZTV26XQPublishAndSubscribeUtils)
    .constdata__ZTV27CPublishAndSubscribeHandler 0x00013f94   Section      124  cpublishandsubscribehandler.o(.constdata__ZTV27CPublishAndSubscribeHandler)
    .constdata__ZTVN10QtMobility10PathMapperE 0x00014010   Section       56  settingslayer_symbian.o(.constdata__ZTVN10QtMobility10PathMapperE)
    .constdata__ZTVN10QtMobility20QValueSpacePublisherE 0x00014048   Section       56  qvaluespacepublisher.o(.constdata__ZTVN10QtMobility20QValueSpacePublisherE)
    .constdata__ZTVN10QtMobility20SymbianSettingsLayerE 0x00014080   Section      132  settingslayer_symbian.o(.constdata__ZTVN10QtMobility20SymbianSettingsLayerE)
    .constdata__ZTVN10QtMobility21QValueSpaceSubscriberE 0x00014104   Section       56  qvaluespacesubscriber.o(.constdata__ZTVN10QtMobility21QValueSpaceSubscriberE)
    .constdata__ZTVN10QtMobility24QAbstractValueSpaceLayerE 0x0001413c   Section      132  qvaluespace.o(.constdata__ZTVN10QtMobility24QAbstractValueSpaceLayerE)
    .constdata__ZTVN10QtMobility33QValueSpaceSubscriberPrivateProxyE 0x000141c0   Section       56  qvaluespacesubscriber.o(.constdata__ZTVN10QtMobility33QValueSpaceSubscriberPrivateProxyE)
    .init_array                              0x000141f8   Section        4  settingslayer_symbian.o(.init_array)
    .ARM.exidx                               0x000141fc   Section        8  ucppinit.o(.ARM.exidx)
    .data$0                                  0x00400000   Data           0  qvaluespacemanager.o(.data)
    QtMobility::this_valueSpaceManager       0x00400000   Data           8  qvaluespacemanager.o(.data)
    .data                                    0x00400000   Section       16  qvaluespacemanager.o(.data)
    _ZGVcleanup@_ZN10QtMobility17valueSpaceManagerEv_0 0x00400008   Data           4  qvaluespacemanager.o(.data)
    cleanup@_ZN10QtMobility17valueSpaceManagerEv_1 0x0040000c   Data           4  qvaluespacemanager.o(.data)
    .data$0                                  0x00400010   Data           0  settingslayer_symbian.o(.data)
    QtMobility::this_symbianSettingsLayer    0x00400010   Data           8  settingslayer_symbian.o(.data)
    .data                                    0x00400010   Section       17  settingslayer_symbian.o(.data)
    _ZGVcleanup@_ZN10QtMobility20symbianSettingsLayerEv_0 0x00400018   Data           4  settingslayer_symbian.o(.data)
    cleanup@_ZN10QtMobility20symbianSettingsLayerEv_1 0x0040001c   Data           4  settingslayer_symbian.o(.data)
    QtMobility::_qvaluespaceauto_SymbianSettingsLayer 0x00400020   Data           1  settingslayer_symbian.o(.data)
    .data$0                                  0x00400024   Data           0  ucppfini.o(.data)
    .data                                    0x00400024   Section        4  ucppfini.o(.data)
    .data__ZNSt19_Atomic_swap_structILi1EE12_S_swap_lockE 0x00400028   Section       12  moc_xqsettingsmanager.o(.data__ZNSt19_Atomic_swap_structILi1EE12_S_swap_lockE)
    .bss$5                                   0x00400034   Data           0  ucppfini.o(.bss)
    .bss                                     0x00400034   Section     2048  ucppfini.o(.bss)

    Global Symbols

    Symbol Name                              Value     Ov Type        Size  Object(Section)

    BuildAttributes$$THUMB_ISAv2$ARM_ISAv5$M$VFPv2$PE$A:L22$X:L11$S22$IEEE1$IW$USESV6$~STKCKD$USESV7$~SHL$OSPACE$ROPI$IEEEJ$EBA8$UX$FPIC$INDIRECT$REQ8$PRES8$EABIv2 0x00000000   Number         0  anon$$obj.o ABSOLUTE
    QtCore{00040703}[2001b2dc].dll           0x00000000   Data           0  anon$$obj.o ABSOLUTE
    QtPublishSubscribe{00010103}[2002ac78].dll 0x00000000   Data           0  anon$$obj.o ABSOLUTE
    centralrepository{000a0000}[101fbc70].dll 0x00000000   Data           0  anon$$obj.o ABSOLUTE
    drtaeabi{000a0000}.dll                   0x00000000   Data           0  anon$$obj.o ABSOLUTE
    euser{000a0000}[100039e5].dll            0x00000000   Data           0  anon$$obj.o ABSOLUTE
    libc{00010001}[10207369].dll             0x00000000   Data           0  anon$$obj.o ABSOLUTE
    stdnew{000a0000}[20022178].dll           0x00000000   Data           0  anon$$obj.o ABSOLUTE
    QBasicAtomicPointer_testAndSetOrdered(void*volatile *, void*, void*)  - Undefined Reference
    _Z37QBasicAtomicPointer_testAndSetOrderedPVPvS_S_@QtCore{00040703}[2001b2dc].dll  - Undefined Reference
    qFree(void*)                              - Undefined Reference
    _Z5qFreePv@QtCore{00040703}[2001b2dc].dll  - Undefined Reference
    qHash(const QByteArray&)                  - Undefined Reference
    _Z5qHashRK10QByteArray@QtCore{00040703}[2001b2dc].dll  - Undefined Reference
    qHash(const QString&)                     - Undefined Reference
    _Z5qHashRK7QString@QtCore{00040703}[2001b2dc].dll  - Undefined Reference
    qDebug(const char*, ...)                  - Undefined Reference
    _Z6qDebugPKcz@QtCore{00040703}[2001b2dc].dll  - Undefined Reference
    qWarning(const char*, ...)                - Undefined Reference
    _Z8qWarningPKcz@QtCore{00040703}[2001b2dc].dll  - Undefined Reference
    QByteArray::shared_null                   - Undefined Reference
    _ZN10QByteArray11shared_nullE@QtCore{00040703}[2001b2dc].dll  - Undefined Reference
    QByteArray::append(char)                  - Undefined Reference
    _ZN10QByteArray6appendEc@QtCore{00040703}[2001b2dc].dll  - Undefined Reference
    QByteArray::QByteArray(const char*, int)  - Undefined Reference
    _ZN10QByteArrayC1EPKci@QtCore{00040703}[2001b2dc].dll  - Undefined Reference
    RArrayBase::Close()                       - Undefined Reference
    _ZN10RArrayBase5CloseEv@euser{000a0000}[100039e5].dll  - Undefined Reference
    RArrayBase::RArrayBase(int)               - Undefined Reference
    _ZN10RArrayBaseC1Ei@euser{000a0000}[100039e5].dll  - Undefined Reference
    TBufBase16::TBufBase16(int)               - Undefined Reference
    _ZN10TBufBase16C1Ei@euser{000a0000}[100039e5].dll  - Undefined Reference
    CRepository::NotifyCancel(unsigned long)  - Undefined Reference
    _ZN11CRepository12NotifyCancelEm@centralrepository{000a0000}[101fbc70].dll  - Undefined Reference
    CRepository::NotifyRequest(unsigned long, TRequestStatus&)  - Undefined Reference
    _ZN11CRepository13NotifyRequestEmR14TRequestStatus@centralrepository{000a0000}[101fbc70].dll  - Undefined Reference
    CRepository::Get(unsigned long, TDes8&)   - Undefined Reference
    _ZN11CRepository3GetEmR5TDes8@centralrepository{000a0000}[101fbc70].dll  - Undefined Reference
    CRepository::Get(unsigned long, TDes8&, int&)  - Undefined Reference
    _ZN11CRepository3GetEmR5TDes8Ri@centralrepository{000a0000}[101fbc70].dll  - Undefined Reference
    CRepository::Get(unsigned long, TDes16&)  - Undefined Reference
    _ZN11CRepository3GetEmR6TDes16@centralrepository{000a0000}[101fbc70].dll  - Undefined Reference
    CRepository::Get(unsigned long, TDes16&, int&)  - Undefined Reference
    _ZN11CRepository3GetEmR6TDes16Ri@centralrepository{000a0000}[101fbc70].dll  - Undefined Reference
    CRepository::Get(unsigned long, double&)  - Undefined Reference
    _ZN11CRepository3GetEmRd@centralrepository{000a0000}[101fbc70].dll  - Undefined Reference
    CRepository::Get(unsigned long, int&)     - Undefined Reference
    _ZN11CRepository3GetEmRi@centralrepository{000a0000}[101fbc70].dll  - Undefined Reference
    CRepository::Set(unsigned long, const TDesC8&)  - Undefined Reference
    _ZN11CRepository3SetEmRK6TDesC8@centralrepository{000a0000}[101fbc70].dll  - Undefined Reference
    CRepository::Set(unsigned long, const TDesC16&)  - Undefined Reference
    _ZN11CRepository3SetEmRK7TDesC16@centralrepository{000a0000}[101fbc70].dll  - Undefined Reference
    CRepository::Set(unsigned long, const double&)  - Undefined Reference
    _ZN11CRepository3SetEmRKd@centralrepository{000a0000}[101fbc70].dll  - Undefined Reference
    CRepository::Set(unsigned long, int)      - Undefined Reference
    _ZN11CRepository3SetEmi@centralrepository{000a0000}[101fbc70].dll  - Undefined Reference
    CRepository::NewL(TUid)                   - Undefined Reference
    _ZN11CRepository4NewLE4TUid@centralrepository{000a0000}[101fbc70].dll  - Undefined Reference
    CRepository::FindL(unsigned long, unsigned long, RArray<unsigned long>&)  - Undefined Reference
    _ZN11CRepository5FindLEmmR6RArrayImE@centralrepository{000a0000}[101fbc70].dll  - Undefined Reference
    CRepository::Reset(unsigned long)         - Undefined Reference
    _ZN11CRepository5ResetEm@centralrepository{000a0000}[101fbc70].dll  - Undefined Reference
    CRepository::Reset()                      - Undefined Reference
    _ZN11CRepository5ResetEv@centralrepository{000a0000}[101fbc70].dll  - Undefined Reference
    CRepository::Create(unsigned long, const TDesC8&)  - Undefined Reference
    _ZN11CRepository6CreateEmRK6TDesC8@centralrepository{000a0000}[101fbc70].dll  - Undefined Reference
    CRepository::Create(unsigned long, const TDesC16&)  - Undefined Reference
    _ZN11CRepository6CreateEmRK7TDesC16@centralrepository{000a0000}[101fbc70].dll  - Undefined Reference
    CRepository::Create(unsigned long, const double&)  - Undefined Reference
    _ZN11CRepository6CreateEmRKd@centralrepository{000a0000}[101fbc70].dll  - Undefined Reference
    CRepository::Create(unsigned long, int)   - Undefined Reference
    _ZN11CRepository6CreateEmi@centralrepository{000a0000}[101fbc70].dll  - Undefined Reference
    CRepository::Delete(unsigned long)        - Undefined Reference
    _ZN11CRepository6DeleteEm@centralrepository{000a0000}[101fbc70].dll  - Undefined Reference
    CRepository::FindEqL(unsigned long, unsigned long, const TDesC8&, RArray<unsigned long>&)  - Undefined Reference
    _ZN11CRepository7FindEqLEmmRK6TDesC8R6RArrayImE@centralrepository{000a0000}[101fbc70].dll  - Undefined Reference
    CRepository::FindEqL(unsigned long, unsigned long, const TDesC16&, RArray<unsigned long>&)  - Undefined Reference
    _ZN11CRepository7FindEqLEmmRK7TDesC16R6RArrayImE@centralrepository{000a0000}[101fbc70].dll  - Undefined Reference
    CRepository::FindEqL(unsigned long, unsigned long, const double&, RArray<unsigned long>&)  - Undefined Reference
    _ZN11CRepository7FindEqLEmmRKdR6RArrayImE@centralrepository{000a0000}[101fbc70].dll  - Undefined Reference
    CRepository::FindEqL(unsigned long, unsigned long, int, RArray<unsigned long>&)  - Undefined Reference
    _ZN11CRepository7FindEqLEmmiR6RArrayImE@centralrepository{000a0000}[101fbc70].dll  - Undefined Reference
    CRepository::GetMeta(unsigned long, unsigned long&)  - Undefined Reference
    _ZN11CRepository7GetMetaEmRm@centralrepository{000a0000}[101fbc70].dll  - Undefined Reference
    CRepository::FindNeqL(unsigned long, unsigned long, const TDesC8&, RArray<unsigned long>&)  - Undefined Reference
    _ZN11CRepository8FindNeqLEmmRK6TDesC8R6RArrayImE@centralrepository{000a0000}[101fbc70].dll  - Undefined Reference
    CRepository::FindNeqL(unsigned long, unsigned long, const TDesC16&, RArray<unsigned long>&)  - Undefined Reference
    _ZN11CRepository8FindNeqLEmmRK7TDesC16R6RArrayImE@centralrepository{000a0000}[101fbc70].dll  - Undefined Reference
    CRepository::FindNeqL(unsigned long, unsigned long, const double&, RArray<unsigned long>&)  - Undefined Reference
    _ZN11CRepository8FindNeqLEmmRKdR6RArrayImE@centralrepository{000a0000}[101fbc70].dll  - Undefined Reference
    CRepository::FindNeqL(unsigned long, unsigned long, int, RArray<unsigned long>&)  - Undefined Reference
    _ZN11CRepository8FindNeqLEmmiR6RArrayImE@centralrepository{000a0000}[101fbc70].dll  - Undefined Reference
    QDataStream::QDataStream(QByteArray*, QFlags<QIODevice::OpenModeFlag>)  - Undefined Reference
    _ZN11QDataStreamC1EP10QByteArray6QFlagsIN9QIODevice12OpenModeFlagEE@QtCore{00040703}[2001b2dc].dll  - Undefined Reference
    QDataStream::QDataStream(const QByteArray&)  - Undefined Reference
    _ZN11QDataStreamC1ERK10QByteArray@QtCore{00040703}[2001b2dc].dll  - Undefined Reference
    QDataStream::~QDataStream()               - Undefined Reference
    _ZN11QDataStreamD1Ev@QtCore{00040703}[2001b2dc].dll  - Undefined Reference
    QDataStream::operator >>(int&)            - Undefined Reference
    _ZN11QDataStreamrsERi@QtCore{00040703}[2001b2dc].dll  - Undefined Reference
    QMetaObject::activate(QObject*, const QMetaObject*, int, void**)  - Undefined Reference
    _ZN11QMetaObject8activateEP7QObjectPKS_iPPv@QtCore{00040703}[2001b2dc].dll  - Undefined Reference
    RHandleBase::Close()                      - Undefined Reference
    _ZN11RHandleBase5CloseEv@euser{000a0000}[100039e5].dll  - Undefined Reference
    TFindServer::Next(TBuf<(int)256>&)        - Undefined Reference
    _ZN11TFindServer4NextER4TBufILi256EE@euser{000a0000}[100039e5].dll  - Undefined Reference
    CleanupStack::PopAndDestroy()             - Undefined Reference
    _ZN12CleanupStack13PopAndDestroyEv@euser{000a0000}[100039e5].dll  - Undefined Reference
    CleanupStack::Pop()                       - Undefined Reference
    _ZN12CleanupStack3PopEv@euser{000a0000}[100039e5].dll  - Undefined Reference
    CleanupStack::Check(void*)                - Undefined Reference
    _ZN12CleanupStack5CheckEPv@euser{000a0000}[100039e5].dll  - Undefined Reference
    CleanupStack::PushL(TCleanupItem)         - Undefined Reference
    _ZN12CleanupStack5PushLE12TCleanupItem@euser{000a0000}[100039e5].dll  - Undefined Reference
    CleanupStack::PushL(CBase*)               - Undefined Reference
    _ZN12CleanupStack5PushLEP5CBase@euser{000a0000}[100039e5].dll  - Undefined Reference
    RSessionBase::CreateSession(const TDesC16&, const TVersion&, int, TIpcSessionType, const TSecurityPolicy*, TRequestStatus*)  - Undefined Reference
    _ZN12RSessionBase13CreateSessionERK7TDesC16RK8TVersioni15TIpcSessionTypePK15TSecurityPolicyP14TRequestStatus@euser{000a0000}[100039e5].dll  - Undefined Reference
    TFindHandleBase::TFindHandleBase(const TDesC16&)  - Undefined Reference
    _ZN15TFindHandleBaseC1ERK7TDesC16@euser{000a0000}[100039e5].dll  - Undefined Reference
    TSecurityPolicy::TSecurityPolicy(TCapability, TCapability, TCapability)  - Undefined Reference
    _ZN15TSecurityPolicyC1E11TCapabilityS0_S0_@euser{000a0000}[100039e5].dll  - Undefined Reference
    TSecurityPolicy::TSecurityPolicy(TCapability, TCapability, TCapability, TCapability, TCapability, TCapability, TCapability)  - Undefined Reference
    _ZN15TSecurityPolicyC1E11TCapabilityS0_S0_S0_S0_S0_S0_@euser{000a0000}[100039e5].dll  - Undefined Reference
    TSecurityPolicy::TSecurityPolicy(TSecureId, TCapability, TCapability, TCapability)  - Undefined Reference
    _ZN15TSecurityPolicyC1E9TSecureId11TCapabilityS1_S1_@euser{000a0000}[100039e5].dll  - Undefined Reference
    TSecurityPolicy::TSecurityPolicy(TVendorId, TCapability, TCapability, TCapability)  - Undefined Reference
    _ZN15TSecurityPolicyC1E9TVendorId11TCapabilityS1_S1_@euser{000a0000}[100039e5].dll  - Undefined Reference
    TSecurityPolicy::TSecurityPolicy(TSecurityPolicy::TSecPolicyType)  - Undefined Reference
    _ZN15TSecurityPolicyC1ENS_14TSecPolicyTypeE@euser{000a0000}[100039e5].dll  - Undefined Reference
    CActiveScheduler::Add(CActive*)           - Undefined Reference
    _ZN16CActiveScheduler3AddEP7CActive@euser{000a0000}[100039e5].dll  - Undefined Reference
    User::LeaveIfError(int)                   - Undefined Reference
    _ZN4User12LeaveIfErrorEi@euser{000a0000}[100039e5].dll  - Undefined Reference
    User::WaitForRequest(TRequestStatus&)     - Undefined Reference
    _ZN4User14WaitForRequestER14TRequestStatus@euser{000a0000}[100039e5].dll  - Undefined Reference
    User::MarkCleanupStack()                  - Undefined Reference
    _ZN4User16MarkCleanupStackEv@euser{000a0000}[100039e5].dll  - Undefined Reference
    User::UnMarkCleanupStack(TTrapHandler*)   - Undefined Reference
    _ZN4User18UnMarkCleanupStackEP12TTrapHandler@euser{000a0000}[100039e5].dll  - Undefined Reference
    User::Leave(int)                          - Undefined Reference
    _ZN4User5LeaveEi@euser{000a0000}[100039e5].dll  - Undefined Reference
    User::AllocZ(int)                         - Undefined Reference
    _ZN4User6AllocZEi@euser{000a0000}[100039e5].dll  - Undefined Reference
    User::AllocZL(int)                        - Undefined Reference
    _ZN4User7AllocZLEi@euser{000a0000}[100039e5].dll  - Undefined Reference
    User::Invariant()                         - Undefined Reference
    _ZN4User9InvariantEv@euser{000a0000}[100039e5].dll  - Undefined Reference
    User::LockedDec(int&)                     - Undefined Reference
    _ZN4User9LockedDecERi@euser{000a0000}[100039e5].dll  - Undefined Reference
    User::LockedInc(int&)                     - Undefined Reference
    _ZN4User9LockedIncERi@euser{000a0000}[100039e5].dll  - Undefined Reference
    CBase::Extension_(unsigned, void*&, void*)  - Undefined Reference
    _ZN5CBase10Extension_EjRPvS0_@euser{000a0000}[100039e5].dll  - Undefined Reference
    CBase::~CBase()                           - Undefined Reference
    _ZN5CBaseD1Ev@euser{000a0000}[100039e5].dll  - Undefined Reference
    RBuf8::Close()                            - Undefined Reference
    _ZN5RBuf85CloseEv@euser{000a0000}[100039e5].dll  - Undefined Reference
    RBuf8::CreateL(int)                       - Undefined Reference
    _ZN5RBuf87CreateLEi@euser{000a0000}[100039e5].dll  - Undefined Reference
    RBuf8::ReAllocL(int)                      - Undefined Reference
    _ZN5RBuf88ReAllocLEi@euser{000a0000}[100039e5].dll  - Undefined Reference
    RBuf8::RBuf8()                            - Undefined Reference
    _ZN5RBuf8C1Ev@euser{000a0000}[100039e5].dll  - Undefined Reference
    HBufC8::Des()                             - Undefined Reference
    _ZN6HBufC83DesEv@euser{000a0000}[100039e5].dll  - Undefined Reference
    HBufC8::New(int)                          - Undefined Reference
    _ZN6HBufC83NewEi@euser{000a0000}[100039e5].dll  - Undefined Reference
    QMutex::lock()                            - Undefined Reference
    _ZN6QMutex4lockEv@QtCore{00040703}[2001b2dc].dll  - Undefined Reference
    QMutex::unlock()                          - Undefined Reference
    _ZN6QMutex6unlockEv@QtCore{00040703}[2001b2dc].dll  - Undefined Reference
    QMutex::QMutex(QMutex::RecursionMode)     - Undefined Reference
    _ZN6QMutexC1ENS_13RecursionModeE@QtCore{00040703}[2001b2dc].dll  - Undefined Reference
    QMutex::~QMutex()                         - Undefined Reference
    _ZN6QMutexD1Ev@QtCore{00040703}[2001b2dc].dll  - Undefined Reference
    RBuf16::Close()                           - Undefined Reference
    _ZN6RBuf165CloseEv@euser{000a0000}[100039e5].dll  - Undefined Reference
    RBuf16::CreateL(int)                      - Undefined Reference
    _ZN6RBuf167CreateLEi@euser{000a0000}[100039e5].dll  - Undefined Reference
    RBuf16::ReAllocL(int)                     - Undefined Reference
    _ZN6RBuf168ReAllocLEi@euser{000a0000}[100039e5].dll  - Undefined Reference
    RBuf16::RBuf16()                          - Undefined Reference
    _ZN6RBuf16C1Ev@euser{000a0000}[100039e5].dll  - Undefined Reference
    TPtrC8::TPtrC8(const unsigned char*)      - Undefined Reference
    _ZN6TPtrC8C1EPKh@euser{000a0000}[100039e5].dll  - Undefined Reference
    TPtrC8::TPtrC8(const unsigned char*, int)  - Undefined Reference
    _ZN6TPtrC8C1EPKhi@euser{000a0000}[100039e5].dll  - Undefined Reference
    CActive::Extension_(unsigned, void*&, void*)  - Undefined Reference
    _ZN7CActive10Extension_EjRPvS0_@euser{000a0000}[100039e5].dll  - Undefined Reference
    CActive::Cancel()                         - Undefined Reference
    _ZN7CActive6CancelEv@euser{000a0000}[100039e5].dll  - Undefined Reference
    CActive::RunError(int)                    - Undefined Reference
    _ZN7CActive8RunErrorEi@euser{000a0000}[100039e5].dll  - Undefined Reference
    CActive::SetActive()                      - Undefined Reference
    _ZN7CActive9SetActiveEv@euser{000a0000}[100039e5].dll  - Undefined Reference
    CActive::CActive__sub_object(int)         - Undefined Reference
    _ZN7CActiveC2Ei@euser{000a0000}[100039e5].dll  - Undefined Reference
    CActive::~CActive__sub_object()           - Undefined Reference
    _ZN7CActiveD2Ev@euser{000a0000}[100039e5].dll  - Undefined Reference
    QObject::childEvent(QChildEvent*)         - Undefined Reference
    _ZN7QObject10childEventEP11QChildEvent@QtCore{00040703}[2001b2dc].dll  - Undefined Reference
    QObject::disconnect(const QObject*, const char*, const QObject*, const char*)  - Undefined Reference
    _ZN7QObject10disconnectEPKS_PKcS1_S3_@QtCore{00040703}[2001b2dc].dll  - Undefined Reference
    QObject::timerEvent(QTimerEvent*)         - Undefined Reference
    _ZN7QObject10timerEventEP11QTimerEvent@QtCore{00040703}[2001b2dc].dll  - Undefined Reference
    QObject::customEvent(QEvent*)             - Undefined Reference
    _ZN7QObject11customEventEP6QEvent@QtCore{00040703}[2001b2dc].dll  - Undefined Reference
    QObject::eventFilter(QObject*, QEvent*)   - Undefined Reference
    _ZN7QObject11eventFilterEPS_P6QEvent@QtCore{00040703}[2001b2dc].dll  - Undefined Reference
    QObject::qt_metacall(QMetaObject::Call, int, void**)  - Undefined Reference
    _ZN7QObject11qt_metacallEN11QMetaObject4CallEiPPv@QtCore{00040703}[2001b2dc].dll  - Undefined Reference
    QObject::qt_metacast(const char*)         - Undefined Reference
    _ZN7QObject11qt_metacastEPKc@QtCore{00040703}[2001b2dc].dll  - Undefined Reference
    QObject::connectNotify(const char*)       - Undefined Reference
    _ZN7QObject13connectNotifyEPKc@QtCore{00040703}[2001b2dc].dll  - Undefined Reference
    QObject::disconnectNotify(const char*)    - Undefined Reference
    _ZN7QObject16disconnectNotifyEPKc@QtCore{00040703}[2001b2dc].dll  - Undefined Reference
    QObject::staticMetaObject                 - Undefined Reference
    _ZN7QObject16staticMetaObjectE@QtCore{00040703}[2001b2dc].dll  - Undefined Reference
    QObject::event(QEvent*)                   - Undefined Reference
    _ZN7QObject5eventEP6QEvent@QtCore{00040703}[2001b2dc].dll  - Undefined Reference
    QObject::connect(const QObject*, const char*, const QObject*, const char*, Qt::ConnectionType)  - Undefined Reference
    _ZN7QObject7connectEPKS_PKcS1_S3_N2Qt14ConnectionTypeE@QtCore{00040703}[2001b2dc].dll  - Undefined Reference
    QObject::QObject(QObject*)                - Undefined Reference
    _ZN7QObjectC1EPS_@QtCore{00040703}[2001b2dc].dll  - Undefined Reference
    QObject::~QObject()                       - Undefined Reference
    _ZN7QObjectD1Ev@QtCore{00040703}[2001b2dc].dll  - Undefined Reference
    QString::shared_null                      - Undefined Reference
    _ZN7QString11shared_nullE@QtCore{00040703}[2001b2dc].dll  - Undefined Reference
    QString::fromLatin1_helper(const char*, int)  - Undefined Reference
    _ZN7QString17fromLatin1_helperEPKci@QtCore{00040703}[2001b2dc].dll  - Undefined Reference
    QString::chop(int)                        - Undefined Reference
    _ZN7QString4chopEi@QtCore{00040703}[2001b2dc].dll  - Undefined Reference
    QString::free(QString::Data*)             - Undefined Reference
    _ZN7QString4freeEPNS_4DataE@QtCore{00040703}[2001b2dc].dll  - Undefined Reference
    QString::grow(int)                        - Undefined Reference
    _ZN7QString4growEi@QtCore{00040703}[2001b2dc].dll  - Undefined Reference
    QString::append(QChar)                    - Undefined Reference
    _ZN7QString6appendE5QChar@QtCore{00040703}[2001b2dc].dll  - Undefined Reference
    QString::append(const QString&)           - Undefined Reference
    _ZN7QString6appendERKS_@QtCore{00040703}[2001b2dc].dll  - Undefined Reference
    QString::resize(int)                      - Undefined Reference
    _ZN7QString6resizeEi@QtCore{00040703}[2001b2dc].dll  - Undefined Reference
    QString::realloc(int)                     - Undefined Reference
    _ZN7QString7reallocEi@QtCore{00040703}[2001b2dc].dll  - Undefined Reference
    QString::realloc()                        - Undefined Reference
    _ZN7QString7reallocEv@QtCore{00040703}[2001b2dc].dll  - Undefined Reference
    QString::truncate(int)                    - Undefined Reference
    _ZN7QString8truncateEi@QtCore{00040703}[2001b2dc].dll  - Undefined Reference
    QString::fromAscii(const char*, int)      - Undefined Reference
    _ZN7QString9fromAsciiEPKci@QtCore{00040703}[2001b2dc].dll  - Undefined Reference
    QString::fromUtf16(const unsigned short*, int)  - Undefined Reference
    _ZN7QString9fromUtf16EPKti@QtCore{00040703}[2001b2dc].dll  - Undefined Reference
    QString::operator =(const QString&)       - Undefined Reference
    _ZN7QStringaSERKS_@QtCore{00040703}[2001b2dc].dll  - Undefined Reference
    TPtrC16::TPtrC16(const unsigned short*)   - Undefined Reference
    _ZN7TPtrC16C1EPKt@euser{000a0000}[100039e5].dll  - Undefined Reference
    QVariant::QVariant(const QByteArray&)     - Undefined Reference
    _ZN8QVariantC1ERK10QByteArray@QtCore{00040703}[2001b2dc].dll  - Undefined Reference
    QVariant::QVariant(const QVariant&)       - Undefined Reference
    _ZN8QVariantC1ERKS_@QtCore{00040703}[2001b2dc].dll  - Undefined Reference
    QVariant::QVariant(double)                - Undefined Reference
    _ZN8QVariantC1Ed@QtCore{00040703}[2001b2dc].dll  - Undefined Reference
    QVariant::QVariant(int)                   - Undefined Reference
    _ZN8QVariantC1Ei@QtCore{00040703}[2001b2dc].dll  - Undefined Reference
    QVariant::QVariant(int, const void*, unsigned)  - Undefined Reference
    _ZN8QVariantC1EiPKvj@QtCore{00040703}[2001b2dc].dll  - Undefined Reference
    QVariant::~QVariant()                     - Undefined Reference
    _ZN8QVariantD1Ev@QtCore{00040703}[2001b2dc].dll  - Undefined Reference
    QVariant::operator =(const QVariant&)     - Undefined Reference
    _ZN8QVariantaSERKS_@QtCore{00040703}[2001b2dc].dll  - Undefined Reference
    RProcess::Kill(int)                       - Undefined Reference
    _ZN8RProcess4KillEi@euser{000a0000}[100039e5].dll  - Undefined Reference
    RProcess::Create(const TDesC16&, const TDesC16&, TOwnerType)  - Undefined Reference
    _ZN8RProcess6CreateERK7TDesC16S2_10TOwnerType@euser{000a0000}[100039e5].dll  - Undefined Reference
    RProcess::Resume()                        - Undefined Reference
    _ZN8RProcess6ResumeEv@euser{000a0000}[100039e5].dll  - Undefined Reference
    TVersion::TVersion(int, int, int)         - Undefined Reference
    _ZN8TVersionC1Eiii@euser{000a0000}[100039e5].dll  - Undefined Reference
    QHashData::free_helper(void(*)(QHashData::Node*))  - Undefined Reference
    _ZN9QHashData11free_helperEPFvPNS_4NodeEE@QtCore{00040703}[2001b2dc].dll  - Undefined Reference
    QHashData::shared_null                    - Undefined Reference
    _ZN9QHashData11shared_nullE@QtCore{00040703}[2001b2dc].dll  - Undefined Reference
    QHashData::allocateNode(int)              - Undefined Reference
    _ZN9QHashData12allocateNodeEi@QtCore{00040703}[2001b2dc].dll  - Undefined Reference
    QHashData::previousNode(QHashData::Node*)  - Undefined Reference
    _ZN9QHashData12previousNodeEPNS_4NodeE@QtCore{00040703}[2001b2dc].dll  - Undefined Reference
    QHashData::detach_helper2(void(*)(QHashData::Node*, void*), void(*)(QHashData::Node*), int, int)  - Undefined Reference
    _ZN9QHashData14detach_helper2EPFvPNS_4NodeEPvEPFvS1_Eii@QtCore{00040703}[2001b2dc].dll  - Undefined Reference
    QHashData::rehash(int)                    - Undefined Reference
    _ZN9QHashData6rehashEi@QtCore{00040703}[2001b2dc].dll  - Undefined Reference
    QHashData::freeNode(void*)                - Undefined Reference
    _ZN9QHashData8freeNodeEPv@QtCore{00040703}[2001b2dc].dll  - Undefined Reference
    QHashData::nextNode(QHashData::Node*)     - Undefined Reference
    _ZN9QHashData8nextNodeEPNS_4NodeE@QtCore{00040703}[2001b2dc].dll  - Undefined Reference
    QListData::detach_grow(int*, int)         - Undefined Reference
    _ZN9QListData11detach_growEPii@QtCore{00040703}[2001b2dc].dll  - Undefined Reference
    QListData::shared_null                    - Undefined Reference
    _ZN9QListData11shared_nullE@QtCore{00040703}[2001b2dc].dll  - Undefined Reference
    QListData::append()                       - Undefined Reference
    _ZN9QListData6appendEv@QtCore{00040703}[2001b2dc].dll  - Undefined Reference
    QListData::detach(int)                    - Undefined Reference
    _ZN9QListData6detachEi@QtCore{00040703}[2001b2dc].dll  - Undefined Reference
    QListData::insert(int)                    - Undefined Reference
    _ZN9QListData6insertEi@QtCore{00040703}[2001b2dc].dll  - Undefined Reference
    QListData::remove(int)                    - Undefined Reference
    _ZN9QListData6removeEi@QtCore{00040703}[2001b2dc].dll  - Undefined Reference
    QListData::realloc(int)                   - Undefined Reference
    _ZN9QListData7reallocEi@QtCore{00040703}[2001b2dc].dll  - Undefined Reference
    QMetaType::registerType(const char*, void(*)(void*), void*(*)(const void*))  - Undefined Reference
    _ZN9QMetaType12registerTypeEPKcPFvPvEPFS2_PKvE@QtCore{00040703}[2001b2dc].dll  - Undefined Reference
    QMetaType::registerTypedef(const char*, int)  - Undefined Reference
    _ZN9QMetaType15registerTypedefEPKci@QtCore{00040703}[2001b2dc].dll  - Undefined Reference
    RProperty::Get(TUid, unsigned, TDes8&)    - Undefined Reference
    _ZN9RProperty3GetE4TUidjR5TDes8@euser{000a0000}[100039e5].dll  - Undefined Reference
    RProperty::Get(TUid, unsigned, TDes16&)   - Undefined Reference
    _ZN9RProperty3GetE4TUidjR6TDes16@euser{000a0000}[100039e5].dll  - Undefined Reference
    RProperty::Get(TUid, unsigned, int&)      - Undefined Reference
    _ZN9RProperty3GetE4TUidjRi@euser{000a0000}[100039e5].dll  - Undefined Reference
    RProperty::Set(TUid, unsigned, const TDesC8&)  - Undefined Reference
    _ZN9RProperty3SetE4TUidjRK6TDesC8@euser{000a0000}[100039e5].dll  - Undefined Reference
    RProperty::Set(TUid, unsigned, const TDesC16&)  - Undefined Reference
    _ZN9RProperty3SetE4TUidjRK7TDesC16@euser{000a0000}[100039e5].dll  - Undefined Reference
    RProperty::Set(TUid, unsigned, int)       - Undefined Reference
    _ZN9RProperty3SetE4TUidji@euser{000a0000}[100039e5].dll  - Undefined Reference
    RProperty::Attach(TUid, unsigned, TOwnerType)  - Undefined Reference
    _ZN9RProperty6AttachE4TUidj10TOwnerType@euser{000a0000}[100039e5].dll  - Undefined Reference
    RProperty::Cancel()                       - Undefined Reference
    _ZN9RProperty6CancelEv@euser{000a0000}[100039e5].dll  - Undefined Reference
    RProperty::Define(TUid, unsigned, int, const TSecurityPolicy&, const TSecurityPolicy&, int)  - Undefined Reference
    _ZN9RProperty6DefineE4TUidjiRK15TSecurityPolicyS3_i@euser{000a0000}[100039e5].dll  - Undefined Reference
    RProperty::Define(TUid, unsigned, int, int)  - Undefined Reference
    _ZN9RProperty6DefineE4TUidjii@euser{000a0000}[100039e5].dll  - Undefined Reference
    RProperty::Delete(TUid, unsigned)         - Undefined Reference
    _ZN9RProperty6DeleteE4TUidj@euser{000a0000}[100039e5].dll  - Undefined Reference
    RProperty::Subscribe(TRequestStatus&)     - Undefined Reference
    _ZN9RProperty9SubscribeER14TRequestStatus@euser{000a0000}[100039e5].dll  - Undefined Reference
    TBufBase8::TBufBase8(int, int)            - Undefined Reference
    _ZN9TBufBase8C1Eii@euser{000a0000}[100039e5].dll  - Undefined Reference
    RArrayBase::At(int) const                 - Undefined Reference
    _ZNK10RArrayBase2AtEi@euser{000a0000}[100039e5].dll  - Undefined Reference
    RArrayBase::Count() const                 - Undefined Reference
    _ZNK10RArrayBase5CountEv@euser{000a0000}[100039e5].dll  - Undefined Reference
    QDataStream::atEnd() const                - Undefined Reference
    _ZNK11QDataStream5atEndEv@QtCore{00040703}[2001b2dc].dll  - Undefined Reference
    QMetaObject::cast(QObject*) const         - Undefined Reference
    _ZNK11QMetaObject4castEP7QObject@QtCore{00040703}[2001b2dc].dll  - Undefined Reference
    RSessionBase::DoSendReceive(int, const TIpcArgs*) const  - Undefined Reference
    _ZNK12RSessionBase13DoSendReceiveEiPK8TIpcArgs@euser{000a0000}[100039e5].dll  - Undefined Reference
    XLeaveException::GetReason() const        - Undefined Reference
    _ZNK15XLeaveException9GetReasonEv@euser{000a0000}[100039e5].dll  - Undefined Reference
    QUuid::operator >(const QUuid&) const     - Undefined Reference
    _ZNK5QUuidgtERKS_@QtCore{00040703}[2001b2dc].dll  - Undefined Reference
    TDesC8::Ptr() const                       - Undefined Reference
    _ZNK6TDesC83PtrEv@euser{000a0000}[100039e5].dll  - Undefined Reference
    QObject::metaObject() const               - Undefined Reference
    _ZNK7QObject10metaObjectEv@QtCore{00040703}[2001b2dc].dll  - Undefined Reference
    QObject::sender() const                   - Undefined Reference
    _ZNK7QObject6senderEv@QtCore{00040703}[2001b2dc].dll  - Undefined Reference
    QString::startsWith(const QChar&, Qt::CaseSensitivity) const  - Undefined Reference
    _ZNK7QString10startsWithERK5QCharN2Qt15CaseSensitivityE@QtCore{00040703}[2001b2dc].dll  - Undefined Reference
    QString::lastIndexOf(QChar, int, Qt::CaseSensitivity) const  - Undefined Reference
    _ZNK7QString11lastIndexOfE5QChariN2Qt15CaseSensitivityE@QtCore{00040703}[2001b2dc].dll  - Undefined Reference
    QString::mid(int, int) const              - Undefined Reference
    _ZNK7QString3midEii@QtCore{00040703}[2001b2dc].dll  - Undefined Reference
    QString::utf16() const                    - Undefined Reference
    _ZNK7QString5utf16Ev@QtCore{00040703}[2001b2dc].dll  - Undefined Reference
    QString::indexOf(const QString&, int, Qt::CaseSensitivity) const  - Undefined Reference
    _ZNK7QString7indexOfERKS_iN2Qt15CaseSensitivityE@QtCore{00040703}[2001b2dc].dll  - Undefined Reference
    QString::endsWith(const QChar&, Qt::CaseSensitivity) const  - Undefined Reference
    _ZNK7QString8endsWithERK5QCharN2Qt15CaseSensitivityE@QtCore{00040703}[2001b2dc].dll  - Undefined Reference
    QString::operator ==(const QLatin1String&) const  - Undefined Reference
    _ZNK7QStringeqERK13QLatin1String@QtCore{00040703}[2001b2dc].dll  - Undefined Reference
    QString::operator ==(const QString&) const  - Undefined Reference
    _ZNK7QStringeqERKS_@QtCore{00040703}[2001b2dc].dll  - Undefined Reference
    TDesC16::Ptr() const                      - Undefined Reference
    _ZNK7TDesC163PtrEv@euser{000a0000}[100039e5].dll  - Undefined Reference
    QVariant::toByteArray() const             - Undefined Reference
    _ZNK8QVariant11toByteArrayEv@QtCore{00040703}[2001b2dc].dll  - Undefined Reference
    QVariant::type() const                    - Undefined Reference
    _ZNK8QVariant4typeEv@QtCore{00040703}[2001b2dc].dll  - Undefined Reference
    QVariant::toInt(bool*) const              - Undefined Reference
    _ZNK8QVariant5toIntEPb@QtCore{00040703}[2001b2dc].dll  - Undefined Reference
    QVariant::isNull() const                  - Undefined Reference
    _ZNK8QVariant6isNullEv@QtCore{00040703}[2001b2dc].dll  - Undefined Reference
    QVariant::toDouble(bool*) const           - Undefined Reference
    _ZNK8QVariant8toDoubleEPb@QtCore{00040703}[2001b2dc].dll  - Undefined Reference
    QVariant::toString() const                - Undefined Reference
    _ZNK8QVariant8toStringEv@QtCore{00040703}[2001b2dc].dll  - Undefined Reference
    RProcess::Rendezvous(TRequestStatus&) const  - Undefined Reference
    _ZNK8RProcess10RendezvousER14TRequestStatus@euser{000a0000}[100039e5].dll  - Undefined Reference
    typeinfo for XLeaveException              - Undefined Reference
    _ZTI15XLeaveException@drtaeabi{000a0000}.dll  - Undefined Reference
    typeinfo for CBase                        - Undefined Reference
    _ZTI5CBase@euser{000a0000}[100039e5].dll  - Undefined Reference
    typeinfo for CActive                      - Undefined Reference
    _ZTI7CActive@euser{000a0000}[100039e5].dll  - Undefined Reference
    typeinfo for QObject                      - Undefined Reference
    _ZTI7QObject@QtCore{00040703}[2001b2dc].dll  - Undefined Reference
    typeinfo for std::bad_alloc               - Undefined Reference
    _ZTISt9bad_alloc@stdnew{000a0000}[20022178].dll  - Undefined Reference
    vtable for CBase                          - Undefined Reference
    _ZTV5CBase@euser{000a0000}[100039e5].dll  - Undefined Reference
    vtable for __cxxabiv1::__class_type_info  - Undefined Reference
    _ZTVN10__cxxabiv117__class_type_infoE@drtaeabi{000a0000}.dll  - Undefined Reference
    vtable for __cxxabiv1::__si_class_type_info  - Undefined Reference
    _ZTVN10__cxxabiv120__si_class_type_infoE@drtaeabi{000a0000}.dll  - Undefined Reference
    vtable for __cxxabiv1::__vmi_class_type_info  - Undefined Reference
    _ZTVN10__cxxabiv121__vmi_class_type_infoE@drtaeabi{000a0000}.dll  - Undefined Reference
    operator delete (void*)                   - Undefined Reference
    _ZdlPv@stdnew{000a0000}[20022178].dll     - Undefined Reference
    operator <<(QDataStream&, const QString&)  - Undefined Reference
    _ZlsR11QDataStreamRK7QString@QtCore{00040703}[2001b2dc].dll  - Undefined Reference
    operator <<(QDataStream&, const QVariant&)  - Undefined Reference
    _ZlsR11QDataStreamRK8QVariant@QtCore{00040703}[2001b2dc].dll  - Undefined Reference
    operator new(unsigned)                    - Undefined Reference
    _Znwj@stdnew{000a0000}[20022178].dll      - Undefined Reference
    operator >>(QDataStream&, QString&)       - Undefined Reference
    _ZrsR11QDataStreamR7QString@QtCore{00040703}[2001b2dc].dll  - Undefined Reference
    operator >>(QDataStream&, QVariant&)      - Undefined Reference
    _ZrsR11QDataStreamR8QVariant@QtCore{00040703}[2001b2dc].dll  - Undefined Reference
    __aeabi_memcpy                            - Undefined Reference
    __aeabi_memcpy4                           - Undefined Reference
    __aeabi_memcpy4@drtaeabi{000a0000}.dll    - Undefined Reference
    __aeabi_memcpy@drtaeabi{000a0000}.dll     - Undefined Reference
    __aeabi_uidivmod                          - Undefined Reference
    __aeabi_uidivmod@drtaeabi{000a0000}.dll   - Undefined Reference
    __aeabi_unwind_cpp_pr0                    - Undefined Reference
    __aeabi_unwind_cpp_pr0@drtaeabi{000a0000}.dll  - Undefined Reference
    __aeabi_unwind_cpp_pr1                    - Undefined Reference
    __aeabi_unwind_cpp_pr1@drtaeabi{000a0000}.dll  - Undefined Reference
    __cxa_begin_catch                         - Undefined Reference
    __cxa_begin_catch@drtaeabi{000a0000}.dll  - Undefined Reference
    __cxa_call_unexpected                     - Undefined Reference
    __cxa_call_unexpected@drtaeabi{000a0000}.dll  - Undefined Reference
    __cxa_end_catch                           - Undefined Reference
    __cxa_end_catch@drtaeabi{000a0000}.dll    - Undefined Reference
    __cxa_end_cleanup                         - Undefined Reference
    __cxa_end_cleanup@drtaeabi{000a0000}.dll  - Undefined Reference
    __cxa_guard_abort                         - Undefined Reference
    __cxa_guard_abort@drtaeabi{000a0000}.dll  - Undefined Reference
    __cxa_guard_acquire                       - Undefined Reference
    __cxa_guard_acquire@drtaeabi{000a0000}.dll  - Undefined Reference
    __cxa_guard_release                       - Undefined Reference
    __cxa_guard_release@drtaeabi{000a0000}.dll  - Undefined Reference
    __cxa_pure_virtual                        - Undefined Reference
    __cxa_pure_virtual@drtaeabi{000a0000}.dll  - Undefined Reference
    __cxa_rethrow                             - Undefined Reference
    __cxa_rethrow@drtaeabi{000a0000}.dll      - Undefined Reference
    memcmp                                    - Undefined Reference
    memcmp@libc{00010001}[10207369].dll       - Undefined Reference
    strcmp                                    - Undefined Reference
    strcmp@libc{00010001}[10207369].dll       - Undefined Reference
    Image$$ER_RO$$Base                       0x00008000   Number         0  anon$$obj.o(linker$$defined$$symbols)
    _E32Dll                                  0x00008000   ARM Code      40  uc_dll_.o(.emb_text)
    Symbian$$CPP$$Exception$$Descriptor      0x00008014   Data           0  uc_dll_.o(.emb_text)
    __cpp_initialize__aeabi_                 0x00008028   ARM Code      52  ucppinit.o(.emb_text)
    std::nothrow                             0x0000805c   ARM Code       0  ucppinit.o(.emb_text)
    __PLT                                    0x0000805c   ARM Code       0  anon$$obj.o(.plt)
    XQSettingsManager::getStaticMetaObject() 0x0000867d   Thumb Code     4  moc_xqsettingsmanager.o(.text)
    XQSettingsManager::metaObject() const    0x00008681   Thumb Code    28  moc_xqsettingsmanager.o(.text)
    XQSettingsManager::qt_metacast(const char*) 0x0000869d   Thumb Code    40  moc_xqsettingsmanager.o(.text)
    XQSettingsManager::itemDeleted(const XQSettingsKey&) 0x000086c5   Thumb Code    30  moc_xqsettingsmanager.o(.text)
    XQSettingsManager::valueChanged(const XQSettingsKey&, const QVariant&) 0x000086e3   Thumb Code    34  moc_xqsettingsmanager.o(.text)
    XQSettingsManager::qt_metacall(QMetaObject::Call, int, void**) 0x00008705   Thumb Code    78  moc_xqsettingsmanager.o(.text)
    QtMobility::QAbstractValueSpaceLayer::getStaticMetaObject() 0x0000875d   Thumb Code     4  qvaluespace.o(.text)
    QtMobility::QAbstractValueSpaceLayer::metaObject() const 0x00008761   Thumb Code    28  qvaluespace.o(.text)
    QtMobility::QAbstractValueSpaceLayer::qt_metacast(const char*) 0x0000877d   Thumb Code    40  qvaluespace.o(.text)
    QtMobility::QAbstractValueSpaceLayer::handleChanged(unsigned) 0x000087a5   Thumb Code    30  qvaluespace.o(.text)
    QtMobility::QAbstractValueSpaceLayer::qt_metacall(QMetaObject::Call, int, void**) 0x000087c3   Thumb Code    62  qvaluespace.o(.text)
    QtMobility::QAbstractValueSpaceLayer::emitInterestChanged(QtMobility::QValueSpacePublisher*, const QString&, bool) 0x00008801   Thumb Code    22  qvaluespace.o(.text)
    QtMobility::QValueSpace::initValueSpaceServer() 0x00008817   Thumb Code    14  qvaluespace.o(.text)
    QtMobility::QValueSpace::installLayer(QtMobility::QAbstractValueSpaceLayer*) 0x00008825   Thumb Code    18  qvaluespace.o(.text)
    QtMobility::QValueSpace::installLayer(QtMobility::QAbstractValueSpaceLayer*(*)()) 0x00008837   Thumb Code    18  qvaluespace.o(.text)
    QtMobility::QValueSpace::availableLayers() 0x00008849   Thumb Code   144  qvaluespace.o(.text)
    QtMobility::qCanonicalPath(const QString&) 0x000088d9   Thumb Code   334  qvaluespace.o(.text)
    QtMobility::QValueSpaceManager::QValueSpaceManager() 0x00008a39   Thumb Code    38  qvaluespacemanager.o(.text)
    QtMobility::QValueSpaceManager::QValueSpaceManager__sub_object() 0x00008a39   Thumb Code     0  qvaluespacemanager.o(.text)
    QtMobility::QValueSpaceManager::initLayer(QtMobility::QAbstractValueSpaceLayer*) 0x00008a5f   Thumb Code    32  qvaluespacemanager.o(.text)
    QtMobility::QValueSpaceManager::install(QtMobility::QAbstractValueSpaceLayer*) 0x00008a7f   Thumb Code   244  qvaluespacemanager.o(.text)
    QtMobility::QValueSpaceManager::commonInit(QtMobility::QAbstractValueSpaceLayer::Type) 0x00008b73   Thumb Code   242  qvaluespacemanager.o(.text)
    QtMobility::QValueSpaceManager::initServer() 0x00008c65   Thumb Code    16  qvaluespacemanager.o(.text)
    QtMobility::QValueSpaceManager::init()   0x00008c75   Thumb Code    22  qvaluespacemanager.o(.text)
    QtMobility::QValueSpaceManager::isServer() const 0x00008c8b   Thumb Code    14  qvaluespacemanager.o(.text)
    QtMobility::QValueSpaceManager::install(QtMobility::QAbstractValueSpaceLayer*(*)()) 0x00008c99   Thumb Code    18  qvaluespacemanager.o(.text)
    QtMobility::QValueSpaceManager::getLayers() 0x00008cab   Thumb Code    14  qvaluespacemanager.o(.text)
    QtMobility::QValueSpaceManager::instance() 0x00008d5f   Thumb Code     8  qvaluespacemanager.o(.text)
    QtMobility::QValueSpacePublisher::getStaticMetaObject() 0x00008d79   Thumb Code     4  qvaluespacepublisher.o(.text)
    QtMobility::QValueSpacePublisher::metaObject() const 0x00008d7d   Thumb Code    28  qvaluespacepublisher.o(.text)
    QtMobility::QValueSpacePublisher::qt_metacast(const char*) 0x00008d99   Thumb Code    40  qvaluespacepublisher.o(.text)
    QtMobility::QValueSpacePublisher::isConnected() const 0x00008dc1   Thumb Code    26  qvaluespacepublisher.o(.text)
    QtMobility::QValueSpacePublisher::resetValue(const QString&) 0x00008ddb   Thumb Code    60  qvaluespacepublisher.o(.text)
    QtMobility::QValueSpacePublisher::setValue(const QString&, const QVariant&) 0x00008e17   Thumb Code    78  qvaluespacepublisher.o(.text)
    QtMobility::QValueSpacePublisher::interestChanged(const QString&, bool) 0x00008e65   Thumb Code    38  qvaluespacepublisher.o(.text)
    QtMobility::QValueSpacePublisher::qt_metacall(QMetaObject::Call, int, void**) 0x00008e8b   Thumb Code    96  qvaluespacepublisher.o(.text)
    QtMobility::QValueSpacePublisherPrivate::QValueSpacePublisherPrivate(const QString&, QFlags<QtMobility::QValueSpace::LayerOption>) 0x00008eeb   Thumb Code   340  qvaluespacepublisher.o(.text)
    QtMobility::QValueSpacePublisherPrivate::QValueSpacePublisherPrivate__sub_object(const QString&, QFlags<QtMobility::QValueSpace::LayerOption>) 0x00008eeb   Thumb Code     0  qvaluespacepublisher.o(.text)
    QtMobility::QValueSpacePublisher::QValueSpacePublisher(const QString&, QObject*) 0x0000903f   Thumb Code    76  qvaluespacepublisher.o(.text)
    QtMobility::QValueSpacePublisher::QValueSpacePublisher__sub_object(const QString&, QObject*) 0x0000903f   Thumb Code     0  qvaluespacepublisher.o(.text)
    QtMobility::QValueSpacePublisher::QValueSpacePublisher(QFlags<QtMobility::QValueSpace::LayerOption>, const QString&, QObject*) 0x0000908b   Thumb Code    78  qvaluespacepublisher.o(.text)
    QtMobility::QValueSpacePublisher::QValueSpacePublisher__sub_object(QFlags<QtMobility::QValueSpace::LayerOption>, const QString&, QObject*) 0x0000908b   Thumb Code     0  qvaluespacepublisher.o(.text)
    QtMobility::QValueSpacePublisherPrivate::QValueSpacePublisherPrivate(const QString&, const QUuid&) 0x000090d9   Thumb Code   376  qvaluespacepublisher.o(.text)
    QtMobility::QValueSpacePublisherPrivate::QValueSpacePublisherPrivate__sub_object(const QString&, const QUuid&) 0x000090d9   Thumb Code     0  qvaluespacepublisher.o(.text)
    QtMobility::QValueSpacePublisher::QValueSpacePublisher(const QUuid&, const QString&, QObject*) 0x00009251   Thumb Code    68  qvaluespacepublisher.o(.text)
    QtMobility::QValueSpacePublisher::QValueSpacePublisher__sub_object(const QUuid&, const QString&, QObject*) 0x00009251   Thumb Code     0  qvaluespacepublisher.o(.text)
    QtMobility::QValueSpacePublisher::~QValueSpacePublisher() 0x00009295   Thumb Code   146  qvaluespacepublisher.o(.text)
    QtMobility::QValueSpacePublisher::~QValueSpacePublisher__sub_object() 0x00009295   Thumb Code     0  qvaluespacepublisher.o(.text)
    QtMobility::QValueSpacePublisher::~QValueSpacePublisher__deallocating() 0x00009327   Thumb Code    22  qvaluespacepublisher.o(.text)
    QtMobility::QValueSpacePublisher::path() const 0x0000933d   Thumb Code    24  qvaluespacepublisher.o(.text)
    QtMobility::QValueSpacePublisher::sync() 0x00009355   Thumb Code    34  qvaluespacepublisher.o(.text)
    QtMobility::QValueSpacePublisher::connectNotify(const char*) 0x00009377   Thumb Code    62  qvaluespacepublisher.o(.text)
    QtMobility::QValueSpaceSubscriber::getStaticMetaObject() 0x000093b9   Thumb Code     4  qvaluespacesubscriber.o(.text)
    QtMobility::QValueSpaceSubscriber::metaObject() const 0x000093bd   Thumb Code    28  qvaluespacesubscriber.o(.text)
    QtMobility::QValueSpaceSubscriber::qt_metacast(const char*) 0x000093d9   Thumb Code    40  qvaluespacesubscriber.o(.text)
    QtMobility::QValueSpaceSubscriberPrivate::QValueSpaceSubscriberPrivate(const QString&, QFlags<QtMobility::QValueSpace::LayerOption>) 0x00009543   Thumb Code   106  qvaluespacesubscriber.o(.text)
    QtMobility::QValueSpaceSubscriberPrivate::QValueSpaceSubscriberPrivate__sub_object(const QString&, QFlags<QtMobility::QValueSpace::LayerOption>) 0x00009543   Thumb Code     0  qvaluespacesubscriber.o(.text)
    QtMobility::QValueSpaceSubscriberPrivate::~QValueSpaceSubscriberPrivate() 0x000095ad   Thumb Code   156  qvaluespacesubscriber.o(.text)
    QtMobility::QValueSpaceSubscriberPrivate::~QValueSpaceSubscriberPrivate__sub_object() 0x000095ad   Thumb Code     0  qvaluespacesubscriber.o(.text)
    QtMobility::QValueSpaceSubscriberPrivate::disconnect(QtMobility::QValueSpaceSubscriber*) 0x00009649   Thumb Code   178  qvaluespacesubscriber.o(.text)
    QtMobility::QValueSpaceSubscriber::path() const 0x000096fb   Thumb Code    26  qvaluespacesubscriber.o(.text)
    QtMobility::QValueSpaceSubscriber::setPath(const QString&) 0x00009715   Thumb Code   152  qvaluespacesubscriber.o(.text)
    QtMobility::QValueSpaceSubscriber::value(const QString&, const QVariant&) const 0x000097ad   Thumb Code   304  qvaluespacesubscriber.o(.text)
    QtMobility::QValueSpaceSubscriberPrivate::connect(const QtMobility::QValueSpaceSubscriber*) const 0x000098dd   Thumb Code   480  qvaluespacesubscriber.o(.text)
    QtMobility::QValueSpaceSubscriber::valuex(const QVariant&) const 0x00009abd   Thumb Code   162  qvaluespacesubscriber.o(.text)
    QtMobility::QValueSpaceSubscriber::contentsChanged() 0x00009b5f   Thumb Code    18  qvaluespacesubscriber.o(.text)
    QtMobility::QValueSpaceSubscriber::qt_metacall(QMetaObject::Call, int, void**) 0x00009b71   Thumb Code   284  qvaluespacesubscriber.o(.text)
    QtMobility::QValueSpaceSubscriber::QValueSpaceSubscriber(QObject*) 0x00009c8d   Thumb Code   226  qvaluespacesubscriber.o(.text)
    QtMobility::QValueSpaceSubscriber::QValueSpaceSubscriber__sub_object(QObject*) 0x00009c8d   Thumb Code     0  qvaluespacesubscriber.o(.text)
    QtMobility::QValueSpaceSubscriber::QValueSpaceSubscriber(const QString&, QObject*) 0x00009d6f   Thumb Code    86  qvaluespacesubscriber.o(.text)
    QtMobility::QValueSpaceSubscriber::QValueSpaceSubscriber__sub_object(const QString&, QObject*) 0x00009d6f   Thumb Code     0  qvaluespacesubscriber.o(.text)
    QtMobility::QValueSpaceSubscriber::QValueSpaceSubscriber(QFlags<QtMobility::QValueSpace::LayerOption>, const QString&, QObject*) 0x00009dc5   Thumb Code    88  qvaluespacesubscriber.o(.text)
    QtMobility::QValueSpaceSubscriber::QValueSpaceSubscriber__sub_object(QFlags<QtMobility::QValueSpace::LayerOption>, const QString&, QObject*) 0x00009dc5   Thumb Code     0  qvaluespacesubscriber.o(.text)
    QtMobility::QValueSpaceSubscriberPrivate::QValueSpaceSubscriberPrivate(const QString&, const QUuid&) 0x00009f03   Thumb Code    96  qvaluespacesubscriber.o(.text)
    QtMobility::QValueSpaceSubscriberPrivate::QValueSpaceSubscriberPrivate__sub_object(const QString&, const QUuid&) 0x00009f03   Thumb Code     0  qvaluespacesubscriber.o(.text)
    QtMobility::QValueSpaceSubscriber::QValueSpaceSubscriber(const QUuid&, const QString&, QObject*) 0x00009f63   Thumb Code    80  qvaluespacesubscriber.o(.text)
    QtMobility::QValueSpaceSubscriber::QValueSpaceSubscriber__sub_object(const QUuid&, const QString&, QObject*) 0x00009f63   Thumb Code     0  qvaluespacesubscriber.o(.text)
    QtMobility::QValueSpaceSubscriber::~QValueSpaceSubscriber() 0x00009fb3   Thumb Code    42  qvaluespacesubscriber.o(.text)
    QtMobility::QValueSpaceSubscriber::~QValueSpaceSubscriber__sub_object() 0x00009fb3   Thumb Code     0  qvaluespacesubscriber.o(.text)
    QtMobility::QValueSpaceSubscriber::~QValueSpaceSubscriber__deallocating() 0x00009fdd   Thumb Code    22  qvaluespacesubscriber.o(.text)
    QtMobility::QValueSpaceSubscriber::setPath(QtMobility::QValueSpaceSubscriber*) 0x00009ff3   Thumb Code   110  qvaluespacesubscriber.o(.text)
    QtMobility::QValueSpaceSubscriber::cd(const QString&) 0x0000a061   Thumb Code   158  qvaluespacesubscriber.o(.text)
    QtMobility::QValueSpaceSubscriber::cdUp() 0x0000a0ff   Thumb Code   136  qvaluespacesubscriber.o(.text)
    QtMobility::QValueSpaceSubscriber::isConnected() const 0x0000a187   Thumb Code    40  qvaluespacesubscriber.o(.text)
    QtMobility::QValueSpaceSubscriber::subPaths() const 0x0000a1af   Thumb Code   292  qvaluespacesubscriber.o(.text)
    QtMobility::QValueSpaceSubscriber::connectNotify(const char*) 0x0000a2d3   Thumb Code    48  qvaluespacesubscriber.o(.text)
    QtMobility::QValueSpaceSubscriber::disconnectNotify(const char*) 0x0000a303   Thumb Code    48  qvaluespacesubscriber.o(.text)
    QtMobility::QValueSpaceSubscriberPrivateProxy::getStaticMetaObject() 0x0000a333   Thumb Code     4  qvaluespacesubscriber.o(.text)
    QtMobility::QValueSpaceSubscriberPrivateProxy::metaObject() const 0x0000a337   Thumb Code    28  qvaluespacesubscriber.o(.text)
    QtMobility::QValueSpaceSubscriberPrivateProxy::qt_metacast(const char*) 0x0000a353   Thumb Code    40  qvaluespacesubscriber.o(.text)
    QtMobility::QValueSpaceSubscriberPrivateProxy::changed() 0x0000a37b   Thumb Code    18  qvaluespacesubscriber.o(.text)
    QtMobility::QValueSpaceSubscriberPrivateProxy::qt_metacall(QMetaObject::Call, int, void**) 0x0000a38d   Thumb Code   174  qvaluespacesubscriber.o(.text)
    QtMobility::PathMapper::getStaticMetaObject() 0x0000a455   Thumb Code     4  settingslayer_symbian.o(.text)
    QtMobility::PathMapper::metaObject() const 0x0000a459   Thumb Code    28  settingslayer_symbian.o(.text)
    QtMobility::PathMapper::qt_metacast(const char*) 0x0000a475   Thumb Code    40  settingslayer_symbian.o(.text)
    QtMobility::PathMapper::qt_metacall(QMetaObject::Call, int, void**) 0x0000a49d   Thumb Code    36  settingslayer_symbian.o(.text)
    QtMobility::PathMapper::RPathMapperServerSession::StartServer() 0x0000a4c1   Thumb Code   226  settingslayer_symbian.o(.text)
    QtMobility::PathMapper::RPathMapperServerSession::Version() const 0x0000a5a3   Thumb Code    20  settingslayer_symbian.o(.text)
    QtMobility::PathMapper::RPathMapperServerSession::Connect() 0x0000a5b7   Thumb Code   104  settingslayer_symbian.o(.text)
    QtMobility::PathMapper::RPathMapperServerSession::RPathMapperServerSession() 0x0000a61f   Thumb Code    10  settingslayer_symbian.o(.text)
    QtMobility::PathMapper::RPathMapperServerSession::RPathMapperServerSession__sub_object() 0x0000a61f   Thumb Code     0  settingslayer_symbian.o(.text)
    QtMobility::PathMapper::PathMapper()     0x0000a629   Thumb Code    42  settingslayer_symbian.o(.text)
    QtMobility::PathMapper::PathMapper__sub_object() 0x0000a629   Thumb Code     0  settingslayer_symbian.o(.text)
    QtMobility::PathMapper::~PathMapper()    0x0000a653   Thumb Code    26  settingslayer_symbian.o(.text)
    QtMobility::PathMapper::~PathMapper__sub_object() 0x0000a653   Thumb Code     0  settingslayer_symbian.o(.text)
    QtMobility::PathMapper::~PathMapper__deallocating() 0x0000a66d   Thumb Code    22  settingslayer_symbian.o(.text)
    QtMobility::PathMapper::RPathMapperServerSession::getChildren(const QString&, QSet<QString>&) const 0x0000a683   Thumb Code   304  settingslayer_symbian.o(.text)
    QtMobility::PathMapper::getChildren(const QString&, QSet<QString>&) const 0x0000a7b3   Thumb Code    22  settingslayer_symbian.o(.text)
    QtMobility::PathMapper::RPathMapperServerSession::childPaths(const QString&) const 0x0000a7c9   Thumb Code   366  settingslayer_symbian.o(.text)
    QtMobility::PathMapper::childPaths(const QString&) const 0x0000a937   Thumb Code    22  settingslayer_symbian.o(.text)
    QtMobility::PathMapper::RPathMapperServerSession::resolvePath(const QString&, QtMobility::PathMapper::Target&, unsigned&, unsigned&) const 0x0000a94d   Thumb Code   342  settingslayer_symbian.o(.text)
    QtMobility::PathMapper::resolvePath(const QString&, QtMobility::PathMapper::Target&, unsigned&, unsigned&) const 0x0000aaa3   Thumb Code    32  settingslayer_symbian.o(.text)
    QtMobility::SymbianSettingsLayer::getStaticMetaObject() 0x0000aac3   Thumb Code     4  settingslayer_symbian.o(.text)
    QtMobility::SymbianSettingsLayer::metaObject() const 0x0000aac7   Thumb Code    28  settingslayer_symbian.o(.text)
    QtMobility::SymbianSettingsLayer::qt_metacast(const char*) 0x0000aae3   Thumb Code    40  settingslayer_symbian.o(.text)
    QtMobility::SymbianSettingsLayer::notifyChange(const XQSettingsKey&) 0x0000ab0b   Thumb Code   178  settingslayer_symbian.o(.text)
    QtMobility::SymbianSettingsLayer::qt_metacall(QMetaObject::Call, int, void**) 0x0000abbd   Thumb Code    60  settingslayer_symbian.o(.text)
    QtMobility::SymbianSettingsLayer::SymbianSettingsLayer() 0x0000abf9   Thumb Code   148  settingslayer_symbian.o(.text)
    QtMobility::SymbianSettingsLayer::SymbianSettingsLayer__sub_object() 0x0000abf9   Thumb Code     0  settingslayer_symbian.o(.text)
    QtMobility::SymbianSettingsLayer::removeHandle(unsigned) 0x0000ac8d   Thumb Code    64  settingslayer_symbian.o(.text)
    QtMobility::SymbianSettingsLayer::~SymbianSettingsLayer() 0x0000accd   Thumb Code   246  settingslayer_symbian.o(.text)
    QtMobility::SymbianSettingsLayer::~SymbianSettingsLayer__sub_object() 0x0000accd   Thumb Code     0  settingslayer_symbian.o(.text)
    QtMobility::SymbianSettingsLayer::~SymbianSettingsLayer__deallocating() 0x0000adc3   Thumb Code    22  settingslayer_symbian.o(.text)
    QtMobility::SymbianSettingsLayer::name() 0x0000add9   Thumb Code    24  settingslayer_symbian.o(.text)
    QtMobility::SymbianSettingsLayer::startup(QtMobility::QAbstractValueSpaceLayer::Type) 0x0000adf1   Thumb Code     6  settingslayer_symbian.o(.text)
    QtMobility::SymbianSettingsLayer::id()   0x0000adf7   Thumb Code    64  settingslayer_symbian.o(.text)
    QtMobility::SymbianSettingsLayer::order() 0x0000ae37   Thumb Code     6  settingslayer_symbian.o(.text)
    QtMobility::SymbianSettingsLayer::item(unsigned, const QString&) 0x0000ae3d   Thumb Code   834  settingslayer_symbian.o(.text)
    QtMobility::SymbianSettingsLayer::setProperty(unsigned, QtMobility::QAbstractValueSpaceLayer::Properties) 0x0000b17f   Thumb Code   490  settingslayer_symbian.o(.text)
    QtMobility::SymbianSettingsLayer::value(unsigned, QVariant*) 0x0000b369   Thumb Code    44  settingslayer_symbian.o(.text)
    QtMobility::SymbianSettingsLayer::value(unsigned, const QString&, QVariant*) 0x0000b395   Thumb Code   604  settingslayer_symbian.o(.text)
    QtMobility::SymbianSettingsLayer::children(unsigned) 0x0000b5f1   Thumb Code    46  settingslayer_symbian.o(.text)
    QtMobility::SymbianSettingsLayer::layerOptions() const 0x0000b61f   Thumb Code    40  settingslayer_symbian.o(.text)
    QtMobility::SymbianSettingsLayer::supportsInterestNotification() const 0x0000b647   Thumb Code     6  settingslayer_symbian.o(.text)
    QtMobility::SymbianSettingsLayer::notifyInterest(unsigned, bool) 0x0000b64d   Thumb Code     6  settingslayer_symbian.o(.text)
    QtMobility::SymbianSettingsLayer::setValue(QtMobility::QValueSpacePublisher*, unsigned, const QString&, const QVariant&) 0x0000b653   Thumb Code   628  settingslayer_symbian.o(.text)
    QtMobility::SymbianSettingsLayer::removeValue(QtMobility::QValueSpacePublisher*, unsigned, const QString&) 0x0000b8c7   Thumb Code   436  settingslayer_symbian.o(.text)
    QtMobility::SymbianSettingsLayer::removeSubTree(QtMobility::QValueSpacePublisher*, unsigned) 0x0000ba7b   Thumb Code     6  settingslayer_symbian.o(.text)
    QtMobility::SymbianSettingsLayer::addWatch(QtMobility::QValueSpacePublisher*, unsigned) 0x0000ba81   Thumb Code     2  settingslayer_symbian.o(.text)
    QtMobility::SymbianSettingsLayer::removeWatches(QtMobility::QValueSpacePublisher*, unsigned) 0x0000ba83   Thumb Code     2  settingslayer_symbian.o(.text)
    QtMobility::SymbianSettingsLayer::sync() 0x0000ba85   Thumb Code     2  settingslayer_symbian.o(.text)
    QtMobility::SymbianSettingsLayer::instance() 0x0000bb29   Thumb Code     8  settingslayer_symbian.o(.text)
    QtMobility::_qvaluespaceauto_layercreate_SymbianSettingsLayer() 0x0000bb31   Thumb Code     8  settingslayer_symbian.o(.text)
    XQSettingsKey::XQSettingsKey(XQSettingsKey::Target, long, unsigned long) 0x0000bb59   Thumb Code     8  xqsettingskey.o(.text)
    XQSettingsKey::XQSettingsKey__sub_object(XQSettingsKey::Target, long, unsigned long) 0x0000bb59   Thumb Code     0  xqsettingskey.o(.text)
    XQSettingsKey::~XQSettingsKey()          0x0000bb61   Thumb Code     2  xqsettingskey.o(.text)
    XQSettingsKey::~XQSettingsKey__sub_object() 0x0000bb61   Thumb Code     0  xqsettingskey.o(.text)
    XQSettingsKey::target() const            0x0000bb63   Thumb Code     6  xqsettingskey.o(.text)
    XQSettingsKey::uid() const               0x0000bb69   Thumb Code     6  xqsettingskey.o(.text)
    XQSettingsKey::key() const               0x0000bb6f   Thumb Code     6  xqsettingskey.o(.text)
    XQCentralRepositorySettingsKey::XQCentralRepositorySettingsKey(long, unsigned long) 0x0000bb75   Thumb Code    24  xqsettingskey.o(.text)
    XQCentralRepositorySettingsKey::XQCentralRepositorySettingsKey__sub_object(long, unsigned long) 0x0000bb75   Thumb Code     0  xqsettingskey.o(.text)
    XQCentralRepositorySettingsKey::~XQCentralRepositorySettingsKey() 0x0000bb8d   Thumb Code    14  xqsettingskey.o(.text)
    XQCentralRepositorySettingsKey::~XQCentralRepositorySettingsKey__sub_object() 0x0000bb8d   Thumb Code     0  xqsettingskey.o(.text)
    XQPublishAndSubscribeSettingsKey::XQPublishAndSubscribeSettingsKey(long, unsigned long) 0x0000bb9b   Thumb Code    24  xqsettingskey.o(.text)
    XQPublishAndSubscribeSettingsKey::XQPublishAndSubscribeSettingsKey__sub_object(long, unsigned long) 0x0000bb9b   Thumb Code     0  xqsettingskey.o(.text)
    XQPublishAndSubscribeSettingsKey::~XQPublishAndSubscribeSettingsKey() 0x0000bbb3   Thumb Code    14  xqsettingskey.o(.text)
    XQPublishAndSubscribeSettingsKey::~XQPublishAndSubscribeSettingsKey__sub_object() 0x0000bbb3   Thumb Code     0  xqsettingskey.o(.text)
    XQSettingsManager::XQSettingsManager(QObject*) 0x0000bbc1   Thumb Code    62  xqsettingsmanager.o(.text)
    XQSettingsManager::XQSettingsManager__sub_object(QObject*) 0x0000bbc1   Thumb Code     0  xqsettingsmanager.o(.text)
    XQSettingsManager::~XQSettingsManager()  0x0000bbff   Thumb Code    34  xqsettingsmanager.o(.text)
    XQSettingsManager::~XQSettingsManager__sub_object() 0x0000bbff   Thumb Code     0  xqsettingsmanager.o(.text)
    XQSettingsManager::~XQSettingsManager__deallocating() 0x0000bc21   Thumb Code    22  xqsettingsmanager.o(.text)
    XQSettingsManager::readItemValue(const XQSettingsKey&, XQSettingsManager::Type) 0x0000bc37   Thumb Code    24  xqsettingsmanager.o(.text)
    XQSettingsManager::writeItemValue(const XQSettingsKey&, const QVariant&) 0x0000bc4f   Thumb Code    20  xqsettingsmanager.o(.text)
    XQSettingsManager::startMonitoring(const XQSettingsKey&, XQSettingsManager::Type) 0x0000bc63   Thumb Code    20  xqsettingsmanager.o(.text)
    XQSettingsManager::stopMonitoring(const XQSettingsKey&) 0x0000bc77   Thumb Code    16  xqsettingsmanager.o(.text)
    XQSettingsManager::error() const         0x0000bc87   Thumb Code    12  xqsettingsmanager.o(.text)
    XQSettingsManagerPrivate::XQSettingsManagerPrivate(XQSettingsManager*) 0x0000bc99   Thumb Code    72  xqsettingsmanager_p.o(.text)
    XQSettingsManagerPrivate::XQSettingsManagerPrivate__sub_object(XQSettingsManager*) 0x0000bc99   Thumb Code     0  xqsettingsmanager_p.o(.text)
    XQSettingsManagerPrivate::~XQSettingsManagerPrivate() 0x0000bce1   Thumb Code   534  xqsettingsmanager_p.o(.text)
    XQSettingsManagerPrivate::~XQSettingsManagerPrivate__sub_object() 0x0000bce1   Thumb Code     0  xqsettingsmanager_p.o(.text)
    XQSettingsManagerPrivate::~XQSettingsManagerPrivate__deallocating() 0x0000bef7   Thumb Code    22  xqsettingsmanager_p.o(.text)
    XQSettingsManagerPrivate::pubSubHandlerInstance(long) 0x0000bf0d   Thumb Code   138  xqsettingsmanager_p.o(.text)
    XQSettingsManagerPrivate::cenRepHandlerInstance(long) 0x0000bf97   Thumb Code   138  xqsettingsmanager_p.o(.text)
    XQSettingsManagerPrivate::handlerInstance(const XQSettingsKey&) 0x0000c021   Thumb Code   114  xqsettingsmanager_p.o(.text)
    XQSettingsManagerPrivate::readItemValue(const XQSettingsKey&, XQSettingsManager::Type) 0x0000c093   Thumb Code    90  xqsettingsmanager_p.o(.text)
    XQSettingsManagerPrivate::writeItemValue(const XQSettingsKey&, const QVariant&) 0x0000c0ed   Thumb Code    42  xqsettingsmanager_p.o(.text)
    XQSettingsManagerPrivate::startMonitoring(const XQSettingsKey&, XQSettingsManager::Type) 0x0000c117   Thumb Code    52  xqsettingsmanager_p.o(.text)
    XQSettingsManagerPrivate::stopMonitoring(const XQSettingsKey&) 0x0000c14b   Thumb Code   146  xqsettingsmanager_p.o(.text)
    XQSettingsManagerPrivate::error() const  0x0000c1dd   Thumb Code    78  xqsettingsmanager_p.o(.text)
    XQSettingsManagerPrivate::valueChanged(const XQSettingsKey&, XQSettingsManager::Type) 0x0000c22b   Thumb Code    38  xqsettingsmanager_p.o(.text)
    thunk{-4} to XQSettingsManagerPrivate::valueChanged(const XQSettingsKey&, XQSettingsManager::Type) 0x0000c251   Thumb Code    22  xqsettingsmanager_p.o(.text)
    XQSettingsManagerPrivate::itemDeleted(const XQSettingsKey&) 0x0000c267   Thumb Code    42  xqsettingsmanager_p.o(.text)
    thunk{-4} to XQSettingsManagerPrivate::itemDeleted(const XQSettingsKey&) 0x0000c291   Thumb Code    18  xqsettingsmanager_p.o(.text)
    SettingsHandlerBase::handleReadItemValue(const XQSettingsKey&, XQSettingsManager::Type, int&) 0x0000c2d5   Thumb Code   806  settingshandlerbase.o(.text)
    SettingsHandlerBase::handleWriteItemValue(const XQSettingsKey&, const QVariant&, int&) 0x0000c5fb   Thumb Code   286  settingshandlerbase.o(.text)
    CCentralRepositoryHandler::ConstructL()  0x0000c71d   Thumb Code    14  ccentralrepositoryhandler.o(.text)
    CCentralRepositoryHandler::CCentralRepositoryHandler(TUid) 0x0000c72b   Thumb Code    50  ccentralrepositoryhandler.o(.text)
    CCentralRepositoryHandler::CCentralRepositoryHandler__sub_object(TUid) 0x0000c72b   Thumb Code     0  ccentralrepositoryhandler.o(.text)
    CCentralRepositoryHandler::NewL(TUid)    0x0000c75d   Thumb Code    50  ccentralrepositoryhandler.o(.text)
    CCentralRepositoryHandler::~CCentralRepositoryHandler() 0x0000c78f   Thumb Code   322  ccentralrepositoryhandler.o(.text)
    CCentralRepositoryHandler::~CCentralRepositoryHandler__sub_object() 0x0000c78f   Thumb Code     0  ccentralrepositoryhandler.o(.text)
    CCentralRepositoryHandler::~CCentralRepositoryHandler__deallocating() 0x0000c8d1   Thumb Code    22  ccentralrepositoryhandler.o(.text)
    thunk{-4} to CCentralRepositoryHandler::~CCentralRepositoryHandler__deallocating() 0x0000c8e7   Thumb Code    14  ccentralrepositoryhandler.o(.text)
    thunk{-4} to CCentralRepositoryHandler::~CCentralRepositoryHandler() 0x0000c8f5   Thumb Code    14  ccentralrepositoryhandler.o(.text)
    CCentralRepositoryHandler::createKey(unsigned long, const int&) 0x0000c903   Thumb Code    20  ccentralrepositoryhandler.o(.text)
    CCentralRepositoryHandler::createKey(unsigned long, const double&) 0x0000c917   Thumb Code    20  ccentralrepositoryhandler.o(.text)
    CCentralRepositoryHandler::createKey(unsigned long, const TDesC8&) 0x0000c92b   Thumb Code    20  ccentralrepositoryhandler.o(.text)
    CCentralRepositoryHandler::createKey(unsigned long, const TDesC16&) 0x0000c93f   Thumb Code    20  ccentralrepositoryhandler.o(.text)
    CCentralRepositoryHandler::deleteKey(unsigned long) 0x0000c953   Thumb Code    16  ccentralrepositoryhandler.o(.text)
    CCentralRepositoryHandler::resetKey(unsigned long) 0x0000c963   Thumb Code    16  ccentralrepositoryhandler.o(.text)
    CCentralRepositoryHandler::resetRepository() 0x0000c973   Thumb Code    12  ccentralrepositoryhandler.o(.text)
    CCentralRepositoryHandler::findKeyL(unsigned long, unsigned long, RArray<unsigned long>&) 0x0000c97f   Thumb Code    24  ccentralrepositoryhandler.o(.text)
    CCentralRepositoryHandler::findKeyL(unsigned long, unsigned long, const int&, bool, RArray<unsigned long>&) 0x0000c997   Thumb Code    54  ccentralrepositoryhandler.o(.text)
    CCentralRepositoryHandler::findKeyL(unsigned long, unsigned long, const double&, bool, RArray<unsigned long>&) 0x0000c9cd   Thumb Code    54  ccentralrepositoryhandler.o(.text)
    CCentralRepositoryHandler::findKeyL(unsigned long, unsigned long, const TDesC8&, bool, RArray<unsigned long>&) 0x0000ca03   Thumb Code    54  ccentralrepositoryhandler.o(.text)
    CCentralRepositoryHandler::findKeyL(unsigned long, unsigned long, const TDesC16&, bool, RArray<unsigned long>&) 0x0000ca39   Thumb Code    54  ccentralrepositoryhandler.o(.text)
    CCentralRepositoryHandler::startTransaction(CRepository::TTransactionMode) 0x0000ca6f   Thumb Code     8  ccentralrepositoryhandler.o(.text)
    CCentralRepositoryHandler::commitTransaction() 0x0000ca77   Thumb Code     8  ccentralrepositoryhandler.o(.text)
    CCentralRepositoryHandler::cancelTransaction() 0x0000ca7f   Thumb Code     2  ccentralrepositoryhandler.o(.text)
    CCentralRepositoryHandler::failTransaction() 0x0000ca81   Thumb Code     2  ccentralrepositoryhandler.o(.text)
    CCentralRepositoryHandler::transactionState() const 0x0000ca83   Thumb Code     8  ccentralrepositoryhandler.o(.text)
    CCentralRepositoryHandler::setObserver(MSettingsHandlerObserver*) 0x0000ca8b   Thumb Code     4  ccentralrepositoryhandler.o(.text)
    thunk{-4} to CCentralRepositoryHandler::setObserver(MSettingsHandlerObserver*) 0x0000ca8f   Thumb Code    18  ccentralrepositoryhandler.o(.text)
    CCentralRepositoryHandler::handleStartMonitoring(const XQSettingsKey&, XQSettingsManager::Type, MSettingsHandlerObserver&, int&) 0x0000caa1   Thumb Code   176  ccentralrepositoryhandler.o(.text)
    thunk{-4} to CCentralRepositoryHandler::handleStartMonitoring(const XQSettingsKey&, XQSettingsManager::Type, MSettingsHandlerObserver&, int&) 0x0000cb51   Thumb Code   160  ccentralrepositoryhandler.o(.text)
    CCentralRepositoryHandler::handleStopMonitoring(const XQSettingsKey&, int&) 0x0000cbf1   Thumb Code   100  ccentralrepositoryhandler.o(.text)
    thunk{-4} to CCentralRepositoryHandler::handleStopMonitoring(const XQSettingsKey&, int&) 0x0000cc55   Thumb Code    22  ccentralrepositoryhandler.o(.text)
    CCentralRepositoryHandler::getValue(unsigned long, int&) 0x0000cc6b   Thumb Code    20  ccentralrepositoryhandler.o(.text)
    thunk{-4} to CCentralRepositoryHandler::getValue(unsigned long, int&) 0x0000cc7f   Thumb Code    22  ccentralrepositoryhandler.o(.text)
    CCentralRepositoryHandler::getValue(unsigned long, double&) 0x0000cc95   Thumb Code    20  ccentralrepositoryhandler.o(.text)
    thunk{-4} to CCentralRepositoryHandler::getValue(unsigned long, double&) 0x0000cca9   Thumb Code    22  ccentralrepositoryhandler.o(.text)
    CCentralRepositoryHandler::getValueL(unsigned long, RBuf8&) 0x0000ccbf   Thumb Code    58  ccentralrepositoryhandler.o(.text)
    thunk{-4} to CCentralRepositoryHandler::getValueL(unsigned long, RBuf8&) 0x0000ccf9   Thumb Code    22  ccentralrepositoryhandler.o(.text)
    CCentralRepositoryHandler::getValueL(unsigned long, RBuf16&) 0x0000cd0f   Thumb Code    58  ccentralrepositoryhandler.o(.text)
    thunk{-4} to CCentralRepositoryHandler::getValueL(unsigned long, RBuf16&) 0x0000cd49   Thumb Code    22  ccentralrepositoryhandler.o(.text)
    CCentralRepositoryHandler::setValue(unsigned long, const int&) 0x0000cd5f   Thumb Code    20  ccentralrepositoryhandler.o(.text)
    thunk{-4} to CCentralRepositoryHandler::setValue(unsigned long, const int&) 0x0000cd73   Thumb Code    22  ccentralrepositoryhandler.o(.text)
    CCentralRepositoryHandler::setValue(unsigned long, const double&) 0x0000cd89   Thumb Code    20  ccentralrepositoryhandler.o(.text)
    thunk{-4} to CCentralRepositoryHandler::setValue(unsigned long, const double&) 0x0000cd9d   Thumb Code    22  ccentralrepositoryhandler.o(.text)
    CCentralRepositoryHandler::setValue(unsigned long, const TDesC8&) 0x0000cdb3   Thumb Code    20  ccentralrepositoryhandler.o(.text)
    thunk{-4} to CCentralRepositoryHandler::setValue(unsigned long, const TDesC8&) 0x0000cdc7   Thumb Code    22  ccentralrepositoryhandler.o(.text)
    CCentralRepositoryHandler::setValue(unsigned long, const TDesC16&) 0x0000cddd   Thumb Code    20  ccentralrepositoryhandler.o(.text)
    thunk{-4} to CCentralRepositoryHandler::setValue(unsigned long, const TDesC16&) 0x0000cdf1   Thumb Code    22  ccentralrepositoryhandler.o(.text)
    CPublishAndSubscribeHandler::ConstructL() 0x0000ce09   Thumb Code     2  cpublishandsubscribehandler.o(.text)
    CPublishAndSubscribeHandler::CPublishAndSubscribeHandler(TUid) 0x0000ce0b   Thumb Code    66  cpublishandsubscribehandler.o(.text)
    CPublishAndSubscribeHandler::CPublishAndSubscribeHandler__sub_object(TUid) 0x0000ce0b   Thumb Code     0  cpublishandsubscribehandler.o(.text)
    CPublishAndSubscribeHandler::NewL(TUid)  0x0000ce4d   Thumb Code    50  cpublishandsubscribehandler.o(.text)
    CPublishAndSubscribeHandler::~CPublishAndSubscribeHandler() 0x0000ce7f   Thumb Code   100  cpublishandsubscribehandler.o(.text)
    CPublishAndSubscribeHandler::~CPublishAndSubscribeHandler__sub_object() 0x0000ce7f   Thumb Code     0  cpublishandsubscribehandler.o(.text)
    CPublishAndSubscribeHandler::~CPublishAndSubscribeHandler__deallocating() 0x0000cee3   Thumb Code    22  cpublishandsubscribehandler.o(.text)
    thunk{-4} to CPublishAndSubscribeHandler::~CPublishAndSubscribeHandler__deallocating() 0x0000cef9   Thumb Code    14  cpublishandsubscribehandler.o(.text)
    thunk{-4} to CPublishAndSubscribeHandler::~CPublishAndSubscribeHandler() 0x0000cf07   Thumb Code    14  cpublishandsubscribehandler.o(.text)
    CPublishAndSubscribeHandler::defineProperty(unsigned long, XQSettingsManager::Type) 0x0000cf15   Thumb Code    76  cpublishandsubscribehandler.o(.text)
    CPublishAndSubscribeHandler::symbianCapability(const XQPublishAndSubscribeSecurityPolicy::Capability&) 0x0000cf61   Thumb Code   120  cpublishandsubscribehandler.o(.text)
    CPublishAndSubscribeHandler::symbianPolicy(const XQPublishAndSubscribeSecurityPolicy&) 0x0000cfd9   Thumb Code   552  cpublishandsubscribehandler.o(.text)
    CPublishAndSubscribeHandler::defineProperty(unsigned long, XQSettingsManager::Type, const XQPublishAndSubscribeSecurityPolicy&, const XQPublishAndSubscribeSecurityPolicy&) 0x0000d201   Thumb Code   170  cpublishandsubscribehandler.o(.text)
    CPublishAndSubscribeHandler::deleteProperty(unsigned long) 0x0000d2ab   Thumb Code    16  cpublishandsubscribehandler.o(.text)
    CPublishAndSubscribeHandler::setObserver(MSettingsHandlerObserver*) 0x0000d2bb   Thumb Code     4  cpublishandsubscribehandler.o(.text)
    thunk{-4} to CPublishAndSubscribeHandler::setObserver(MSettingsHandlerObserver*) 0x0000d2bf   Thumb Code    18  cpublishandsubscribehandler.o(.text)
    CPublishAndSubscribeHandler::handleStartMonitoring(const XQSettingsKey&, XQSettingsManager::Type, MSettingsHandlerObserver&, int&) 0x0000d2d1   Thumb Code   150  cpublishandsubscribehandler.o(.text)
    thunk{-4} to CPublishAndSubscribeHandler::handleStartMonitoring(const XQSettingsKey&, XQSettingsManager::Type, MSettingsHandlerObserver&, int&) 0x0000d367   Thumb Code   152  cpublishandsubscribehandler.o(.text)
    CPublishAndSubscribeHandler::handleStopMonitoring(const XQSettingsKey&, int&) 0x0000d3ff   Thumb Code   100  cpublishandsubscribehandler.o(.text)
    thunk{-4} to CPublishAndSubscribeHandler::handleStopMonitoring(const XQSettingsKey&, int&) 0x0000d463   Thumb Code    22  cpublishandsubscribehandler.o(.text)
    CPublishAndSubscribeHandler::getValue(unsigned long, int&) 0x0000d479   Thumb Code    20  cpublishandsubscribehandler.o(.text)
    thunk{-4} to CPublishAndSubscribeHandler::getValue(unsigned long, int&) 0x0000d48d   Thumb Code    22  cpublishandsubscribehandler.o(.text)
    CPublishAndSubscribeHandler::getValue(unsigned long, double&) 0x0000d4a3   Thumb Code     8  cpublishandsubscribehandler.o(.text)
    thunk{-4} to CPublishAndSubscribeHandler::getValue(unsigned long, double&) 0x0000d4ab   Thumb Code    22  cpublishandsubscribehandler.o(.text)
    CPublishAndSubscribeHandler::getValueL(unsigned long, RBuf8&) 0x0000d4c1   Thumb Code    86  cpublishandsubscribehandler.o(.text)
    thunk{-4} to CPublishAndSubscribeHandler::getValueL(unsigned long, RBuf8&) 0x0000d517   Thumb Code    22  cpublishandsubscribehandler.o(.text)
    CPublishAndSubscribeHandler::getValueL(unsigned long, RBuf16&) 0x0000d52d   Thumb Code    86  cpublishandsubscribehandler.o(.text)
    thunk{-4} to CPublishAndSubscribeHandler::getValueL(unsigned long, RBuf16&) 0x0000d583   Thumb Code    22  cpublishandsubscribehandler.o(.text)
    CPublishAndSubscribeHandler::setValue(unsigned long, const int&) 0x0000d599   Thumb Code    20  cpublishandsubscribehandler.o(.text)
    thunk{-4} to CPublishAndSubscribeHandler::setValue(unsigned long, const int&) 0x0000d5ad   Thumb Code    22  cpublishandsubscribehandler.o(.text)
    CPublishAndSubscribeHandler::setValue(unsigned long, const double&) 0x0000d5c3   Thumb Code     8  cpublishandsubscribehandler.o(.text)
    thunk{-4} to CPublishAndSubscribeHandler::setValue(unsigned long, const double&) 0x0000d5cb   Thumb Code    22  cpublishandsubscribehandler.o(.text)
    CPublishAndSubscribeHandler::setValue(unsigned long, const TDesC8&) 0x0000d5e1   Thumb Code    20  cpublishandsubscribehandler.o(.text)
    thunk{-4} to CPublishAndSubscribeHandler::setValue(unsigned long, const TDesC8&) 0x0000d5f5   Thumb Code    22  cpublishandsubscribehandler.o(.text)
    CPublishAndSubscribeHandler::setValue(unsigned long, const TDesC16&) 0x0000d60b   Thumb Code    20  cpublishandsubscribehandler.o(.text)
    thunk{-4} to CPublishAndSubscribeHandler::setValue(unsigned long, const TDesC16&) 0x0000d61f   Thumb Code    22  cpublishandsubscribehandler.o(.text)
    CCenRepMonitor::CCenRepMonitor(CRepository&, const XQSettingsKey&, XQSettingsManager::Type, MSettingsHandlerObserver&) 0x0000d635   Thumb Code    74  cenrepmonitor.o(.text)
    CCenRepMonitor::CCenRepMonitor__sub_object(CRepository&, const XQSettingsKey&, XQSettingsManager::Type, MSettingsHandlerObserver&) 0x0000d635   Thumb Code     0  cenrepmonitor.o(.text)
    CCenRepMonitor::~CCenRepMonitor()        0x0000d67f   Thumb Code    36  cenrepmonitor.o(.text)
    CCenRepMonitor::~CCenRepMonitor__sub_object() 0x0000d67f   Thumb Code     0  cenrepmonitor.o(.text)
    CCenRepMonitor::~CCenRepMonitor__deallocating() 0x0000d6a3   Thumb Code    22  cenrepmonitor.o(.text)
    CCenRepMonitor::StartMonitoring()        0x0000d6b9   Thumb Code    36  cenrepmonitor.o(.text)
    CCenRepMonitor::RunL()                   0x0000d6dd   Thumb Code    94  cenrepmonitor.o(.text)
    CCenRepMonitor::DoCancel()               0x0000d73b   Thumb Code    24  cenrepmonitor.o(.text)
    CPubSubMonitor::CPubSubMonitor(const XQSettingsKey&, XQSettingsManager::Type, MSettingsHandlerObserver&) 0x0000d759   Thumb Code    62  pubsubmonitor.o(.text)
    CPubSubMonitor::CPubSubMonitor__sub_object(const XQSettingsKey&, XQSettingsManager::Type, MSettingsHandlerObserver&) 0x0000d759   Thumb Code     0  pubsubmonitor.o(.text)
    CPubSubMonitor::~CPubSubMonitor()        0x0000d797   Thumb Code    36  pubsubmonitor.o(.text)
    CPubSubMonitor::~CPubSubMonitor__sub_object() 0x0000d797   Thumb Code     0  pubsubmonitor.o(.text)
    CPubSubMonitor::~CPubSubMonitor__deallocating() 0x0000d7bb   Thumb Code    22  pubsubmonitor.o(.text)
    CPubSubMonitor::StartMonitoring()        0x0000d7d1   Thumb Code    64  pubsubmonitor.o(.text)
    CPubSubMonitor::RunL()                   0x0000d811   Thumb Code    94  pubsubmonitor.o(.text)
    CPubSubMonitor::DoCancel()               0x0000d86f   Thumb Code    14  pubsubmonitor.o(.text)
    XQCentralRepositoryUtils::XQCentralRepositoryUtils(XQSettingsManager&, QObject*) 0x0000d881   Thumb Code    52  xqcentralrepositoryutils.o(.text)
    XQCentralRepositoryUtils::XQCentralRepositoryUtils__sub_object(XQSettingsManager&, QObject*) 0x0000d881   Thumb Code     0  xqcentralrepositoryutils.o(.text)
    XQCentralRepositoryUtils::~XQCentralRepositoryUtils() 0x0000d8b5   Thumb Code    14  xqcentralrepositoryutils.o(.text)
    XQCentralRepositoryUtils::~XQCentralRepositoryUtils__sub_object() 0x0000d8b5   Thumb Code     0  xqcentralrepositoryutils.o(.text)
    XQCentralRepositoryUtils::~XQCentralRepositoryUtils__deallocating() 0x0000d8c3   Thumb Code    22  xqcentralrepositoryutils.o(.text)
    XQCentralRepositoryUtils::createKey(const XQCentralRepositorySettingsKey&, const QVariant&) 0x0000d8d9   Thumb Code    20  xqcentralrepositoryutils.o(.text)
    XQCentralRepositoryUtils::deleteKey(const XQCentralRepositorySettingsKey&) 0x0000d8ed   Thumb Code    16  xqcentralrepositoryutils.o(.text)
    XQCentralRepositoryUtils::resetKey(const XQCentralRepositorySettingsKey&) 0x0000d8fd   Thumb Code    16  xqcentralrepositoryutils.o(.text)
    XQCentralRepositoryUtils::resetRepository(long) 0x0000d90d   Thumb Code    16  xqcentralrepositoryutils.o(.text)
    XQCentralRepositoryUtils::findKeys(const XQCentralRepositorySearchCriteria&) 0x0000d91d   Thumb Code    20  xqcentralrepositoryutils.o(.text)
    XQCentralRepositoryUtils::startTransaction(long, XQCentralRepositoryUtils::TransactionMode) 0x0000d931   Thumb Code    20  xqcentralrepositoryutils.o(.text)
    XQCentralRepositoryUtils::commitTransaction(long) 0x0000d945   Thumb Code    16  xqcentralrepositoryutils.o(.text)
    XQCentralRepositoryUtils::cancelTransaction(long) 0x0000d955   Thumb Code    16  xqcentralrepositoryutils.o(.text)
    XQCentralRepositoryUtils::failTransaction(long) 0x0000d965   Thumb Code    16  xqcentralrepositoryutils.o(.text)
    XQCentralRepositoryUtils::transactionState(long) const 0x0000d975   Thumb Code    16  xqcentralrepositoryutils.o(.text)
    XQCentralRepositoryUtilsPrivate::XQCentralRepositoryUtilsPrivate(XQSettingsManager&) 0x0000d989   Thumb Code     6  xqcentralrepositoryutils_p.o(.text)
    XQCentralRepositoryUtilsPrivate::XQCentralRepositoryUtilsPrivate__sub_object(XQSettingsManager&) 0x0000d989   Thumb Code     0  xqcentralrepositoryutils_p.o(.text)
    XQCentralRepositoryUtilsPrivate::~XQCentralRepositoryUtilsPrivate() 0x0000d98f   Thumb Code     2  xqcentralrepositoryutils_p.o(.text)
    XQCentralRepositoryUtilsPrivate::~XQCentralRepositoryUtilsPrivate__sub_object() 0x0000d98f   Thumb Code     0  xqcentralrepositoryutils_p.o(.text)
    XQCentralRepositoryUtilsPrivate::createKey(const XQCentralRepositorySettingsKey&, const QVariant&) 0x0000d991   Thumb Code    16  xqcentralrepositoryutils_p.o(.text)
    XQCentralRepositoryUtilsPrivate::deleteKey(const XQCentralRepositorySettingsKey&) 0x0000d9a1   Thumb Code    14  xqcentralrepositoryutils_p.o(.text)
    XQCentralRepositoryUtilsPrivate::resetKey(const XQCentralRepositorySettingsKey&) 0x0000d9af   Thumb Code    74  xqcentralrepositoryutils_p.o(.text)
    XQCentralRepositoryUtilsPrivate::resetRepository(long) 0x0000d9f9   Thumb Code    56  xqcentralrepositoryutils_p.o(.text)
    XQCentralRepositoryUtilsPrivate::findKeys(const XQCentralRepositorySearchCriteria&) 0x0000da31   Thumb Code   686  xqcentralrepositoryutils_p.o(.text)
    XQCentralRepositoryUtilsPrivate::startTransaction(long, XQCentralRepositoryUtils::TransactionMode) 0x0000dcdf   Thumb Code   110  xqcentralrepositoryutils_p.o(.text)
    XQCentralRepositoryUtilsPrivate::commitTransaction(long) 0x0000dd4d   Thumb Code    56  xqcentralrepositoryutils_p.o(.text)
    XQCentralRepositoryUtilsPrivate::cancelTransaction(long) 0x0000dd85   Thumb Code    42  xqcentralrepositoryutils_p.o(.text)
    XQCentralRepositoryUtilsPrivate::failTransaction(long) 0x0000ddaf   Thumb Code    42  xqcentralrepositoryutils_p.o(.text)
    XQCentralRepositoryUtilsPrivate::transactionState(long) const 0x0000ddd9   Thumb Code    76  xqcentralrepositoryutils_p.o(.text)
    XQPublishAndSubscribeUtils::XQPublishAndSubscribeUtils(XQSettingsManager&, QObject*) 0x0000de29   Thumb Code    52  xqpublishandsubscribeutils.o(.text)
    XQPublishAndSubscribeUtils::XQPublishAndSubscribeUtils__sub_object(XQSettingsManager&, QObject*) 0x0000de29   Thumb Code     0  xqpublishandsubscribeutils.o(.text)
    XQPublishAndSubscribeUtils::~XQPublishAndSubscribeUtils() 0x0000de5d   Thumb Code    14  xqpublishandsubscribeutils.o(.text)
    XQPublishAndSubscribeUtils::~XQPublishAndSubscribeUtils__sub_object() 0x0000de5d   Thumb Code     0  xqpublishandsubscribeutils.o(.text)
    XQPublishAndSubscribeUtils::~XQPublishAndSubscribeUtils__deallocating() 0x0000de6b   Thumb Code    22  xqpublishandsubscribeutils.o(.text)
    XQPublishAndSubscribeUtils::defineProperty(const XQPublishAndSubscribeSettingsKey&, XQSettingsManager::Type) 0x0000de81   Thumb Code    20  xqpublishandsubscribeutils.o(.text)
    XQPublishAndSubscribeUtils::defineProperty(const XQPublishAndSubscribeSettingsKey&, XQSettingsManager::Type, const XQPublishAndSubscribeSecurityPolicy&, const XQPublishAndSubscribeSecurityPolicy&) 0x0000de95   Thumb Code    32  xqpublishandsubscribeutils.o(.text)
    XQPublishAndSubscribeUtils::deleteProperty(const XQPublishAndSubscribeSettingsKey&) 0x0000deb5   Thumb Code    16  xqpublishandsubscribeutils.o(.text)
    XQPublishAndSubscribeUtilsPrivate::XQPublishAndSubscribeUtilsPrivate(XQSettingsManager&) 0x0000dec9   Thumb Code     6  xqpublishandsubscribeutils_p.o(.text)
    XQPublishAndSubscribeUtilsPrivate::XQPublishAndSubscribeUtilsPrivate__sub_object(XQSettingsManager&) 0x0000dec9   Thumb Code     0  xqpublishandsubscribeutils_p.o(.text)
    XQPublishAndSubscribeUtilsPrivate::~XQPublishAndSubscribeUtilsPrivate() 0x0000decf   Thumb Code     2  xqpublishandsubscribeutils_p.o(.text)
    XQPublishAndSubscribeUtilsPrivate::~XQPublishAndSubscribeUtilsPrivate__sub_object() 0x0000decf   Thumb Code     0  xqpublishandsubscribeutils_p.o(.text)
    XQPublishAndSubscribeUtilsPrivate::defineProperty(const XQPublishAndSubscribeSettingsKey&, XQSettingsManager::Type) 0x0000ded1   Thumb Code    78  xqpublishandsubscribeutils_p.o(.text)
    XQPublishAndSubscribeUtilsPrivate::defineProperty(const XQPublishAndSubscribeSettingsKey&, XQSettingsManager::Type, const XQPublishAndSubscribeSecurityPolicy&, const XQPublishAndSubscribeSecurityPolicy&) 0x0000df1f   Thumb Code    94  xqpublishandsubscribeutils_p.o(.text)
    XQPublishAndSubscribeUtilsPrivate::deleteProperty(const XQPublishAndSubscribeSettingsKey&) 0x0000df7d   Thumb Code    74  xqpublishandsubscribeutils_p.o(.text)
    XQCentralRepositorySearchCriteria::XQCentralRepositorySearchCriteria(long, unsigned long, unsigned long) 0x0000dfc7   Thumb Code    60  xqcentralrepositorysearchcriteria.o(.text)
    XQCentralRepositorySearchCriteria::XQCentralRepositorySearchCriteria__sub_object(long, unsigned long, unsigned long) 0x0000dfc7   Thumb Code     0  xqcentralrepositorysearchcriteria.o(.text)
    XQCentralRepositorySearchCriteria::~XQCentralRepositorySearchCriteria() 0x0000e003   Thumb Code    20  xqcentralrepositorysearchcriteria.o(.text)
    XQCentralRepositorySearchCriteria::~XQCentralRepositorySearchCriteria__sub_object() 0x0000e003   Thumb Code     0  xqcentralrepositorysearchcriteria.o(.text)
    XQCentralRepositorySearchCriteria::setValueCriteria(const QVariant&, bool) 0x0000e017   Thumb Code    24  xqcentralrepositorysearchcriteria.o(.text)
    XQCentralRepositorySearchCriteria::repositoryUid() const 0x0000e02f   Thumb Code     6  xqcentralrepositorysearchcriteria.o(.text)
    XQCentralRepositorySearchCriteria::partialKey() const 0x0000e035   Thumb Code     6  xqcentralrepositorysearchcriteria.o(.text)
    XQCentralRepositorySearchCriteria::bitMask() const 0x0000e03b   Thumb Code     6  xqcentralrepositorysearchcriteria.o(.text)
    XQCentralRepositorySearchCriteria::value() const 0x0000e041   Thumb Code     8  xqcentralrepositorysearchcriteria.o(.text)
    XQCentralRepositorySearchCriteria::negativeCriteria() const 0x0000e049   Thumb Code     8  xqcentralrepositorysearchcriteria.o(.text)
    XQPublishAndSubscribeSecurityPolicy::VendorId::VendorId(long) 0x0000e051   Thumb Code     4  xqpublishandsubscribesecuritypolicy.o(.text)
    XQPublishAndSubscribeSecurityPolicy::VendorId::VendorId__sub_object(long) 0x0000e051   Thumb Code     0  xqpublishandsubscribesecuritypolicy.o(.text)
    XQPublishAndSubscribeSecurityPolicy::SecureId::SecureId(long) 0x0000e055   Thumb Code     4  xqpublishandsubscribesecuritypolicy.o(.text)
    XQPublishAndSubscribeSecurityPolicy::SecureId::SecureId__sub_object(long) 0x0000e055   Thumb Code     0  xqpublishandsubscribesecuritypolicy.o(.text)
    XQPublishAndSubscribeSecurityPolicy::XQPublishAndSubscribeSecurityPolicy(XQPublishAndSubscribeSecurityPolicy::SecPolicyType) 0x0000e059   Thumb Code    58  xqpublishandsubscribesecuritypolicy.o(.text)
    XQPublishAndSubscribeSecurityPolicy::XQPublishAndSubscribeSecurityPolicy__sub_object(XQPublishAndSubscribeSecurityPolicy::SecPolicyType) 0x0000e059   Thumb Code     0  xqpublishandsubscribesecuritypolicy.o(.text)
    XQPublishAndSubscribeSecurityPolicy::XQPublishAndSubscribeSecurityPolicy(QList<XQPublishAndSubscribeSecurityPolicy::Capability>) 0x0000e093   Thumb Code    54  xqpublishandsubscribesecuritypolicy.o(.text)
    XQPublishAndSubscribeSecurityPolicy::XQPublishAndSubscribeSecurityPolicy__sub_object(QList<XQPublishAndSubscribeSecurityPolicy::Capability>) 0x0000e093   Thumb Code     0  xqpublishandsubscribesecuritypolicy.o(.text)
    XQPublishAndSubscribeSecurityPolicy::XQPublishAndSubscribeSecurityPolicy(XQPublishAndSubscribeSecurityPolicy::SecureId, QList<XQPublishAndSubscribeSecurityPolicy::Capability>) 0x0000e0c9   Thumb Code    46  xqpublishandsubscribesecuritypolicy.o(.text)
    XQPublishAndSubscribeSecurityPolicy::XQPublishAndSubscribeSecurityPolicy__sub_object(XQPublishAndSubscribeSecurityPolicy::SecureId, QList<XQPublishAndSubscribeSecurityPolicy::Capability>) 0x0000e0c9   Thumb Code     0  xqpublishandsubscribesecuritypolicy.o(.text)
    XQPublishAndSubscribeSecurityPolicy::XQPublishAndSubscribeSecurityPolicy(XQPublishAndSubscribeSecurityPolicy::VendorId, QList<XQPublishAndSubscribeSecurityPolicy::Capability>) 0x0000e0f7   Thumb Code    42  xqpublishandsubscribesecuritypolicy.o(.text)
    XQPublishAndSubscribeSecurityPolicy::XQPublishAndSubscribeSecurityPolicy__sub_object(XQPublishAndSubscribeSecurityPolicy::VendorId, QList<XQPublishAndSubscribeSecurityPolicy::Capability>) 0x0000e0f7   Thumb Code     0  xqpublishandsubscribesecuritypolicy.o(.text)
    XQPublishAndSubscribeSecurityPolicy::~XQPublishAndSubscribeSecurityPolicy() 0x0000e121   Thumb Code    20  xqpublishandsubscribesecuritypolicy.o(.text)
    XQPublishAndSubscribeSecurityPolicy::~XQPublishAndSubscribeSecurityPolicy__sub_object() 0x0000e121   Thumb Code     0  xqpublishandsubscribesecuritypolicy.o(.text)
    XQPublishAndSubscribeSecurityPolicy::secPolicyType() const 0x0000e135   Thumb Code     6  xqpublishandsubscribesecuritypolicy.o(.text)
    XQPublishAndSubscribeSecurityPolicy::secureId() const 0x0000e13b   Thumb Code     6  xqpublishandsubscribesecuritypolicy.o(.text)
    XQPublishAndSubscribeSecurityPolicy::vendorId() const 0x0000e141   Thumb Code     6  xqpublishandsubscribesecuritypolicy.o(.text)
    XQPublishAndSubscribeSecurityPolicy::capabilities() const 0x0000e147   Thumb Code    20  xqpublishandsubscribesecuritypolicy.o(.text)
    __ARM_switch8                            0x0000e160   ARM Code      24  switch8.o(.text)
    __rt_switch8                             0x0000e160   ARM Code       0  switch8.o(.text)
    _E32Dll_Body                             0x0000e178   ARM Code      76  uc_dll.o(.text)
    __aeabi_atexit                           0x0000e1c8   ARM Code      40  ucppfini.o(.text)
    __cxa_atexit                             0x0000e1f0   ARM Code      64  ucppfini.o(.text)
    __cxa_finalize                           0x0000e230   ARM Code      48  ucppfini.o(.text)
    run_static_dtors                         0x0000e260   ARM Code      16  ucppfini.o(.text)
    __DLL_Export_Table__                     0x0000e27c   ARM Code       4  dllexp.o(.text)
    QByteArray::QByteArray(const QByteArray&) 0x0000e9ff   Thumb Code    20  settingslayer_symbian.o(i._ZN10QByteArrayC1ERKS_)
    QByteArray::QByteArray__sub_object(const QByteArray&) 0x0000e9ff   Thumb Code     0  settingslayer_symbian.o(i._ZN10QByteArrayC1ERKS_)
    QByteArray::QByteArray()                 0x0000ea15   Thumb Code    18  settingslayer_symbian.o(i._ZN10QByteArrayC1Ev)
    QByteArray::QByteArray__sub_object()     0x0000ea15   Thumb Code     0  settingslayer_symbian.o(i._ZN10QByteArrayC1Ev)
    QByteArray::~QByteArray()                0x0000ea2d   Thumb Code    24  settingslayer_symbian.o(i._ZN10QByteArrayD1Ev)
    QByteArray::~QByteArray__sub_object()    0x0000ea2d   Thumb Code     0  settingslayer_symbian.o(i._ZN10QByteArrayD1Ev)
    QByteArray::operator +=(char)            0x0000ea45   Thumb Code    16  settingslayer_symbian.o(i._ZN10QByteArraypLEc)
    QtMobility::QValueSpaceManager::~QValueSpaceManager() 0x0000ea55   Thumb Code    28  qvaluespacemanager.o(i._ZN10QtMobility18QValueSpaceManagerD1Ev)
    QtMobility::QValueSpaceManager::~QValueSpaceManager__sub_object() 0x0000ea55   Thumb Code     0  qvaluespacemanager.o(i._ZN10QtMobility18QValueSpaceManagerD1Ev)
    QtMobility::SymbianSettingsLayer::symbianSettingsHandle(unsigned) 0x0000ea7b   Thumb Code    80  settingslayer_symbian.o(i._ZN10QtMobility20SymbianSettingsLayer21symbianSettingsHandleEj)
    QtMobility::QAbstractValueSpaceLayer::~QAbstractValueSpaceLayer__deallocating() 0x0000ead5   Thumb Code    24  qvaluespace.o(i._ZN10QtMobility24QAbstractValueSpaceLayerD0Ev)
    QtMobility::QAbstractValueSpaceLayer::~QAbstractValueSpaceLayer() 0x0000eaed   Thumb Code     0  qvaluespace.o(i._ZN10QtMobility24QAbstractValueSpaceLayerD2Ev)
    QtMobility::QAbstractValueSpaceLayer::~QAbstractValueSpaceLayer__sub_object() 0x0000eaed   Thumb Code    14  qvaluespace.o(i._ZN10QtMobility24QAbstractValueSpaceLayerD2Ev)
    QtMobility::QValueSpaceSubscriberPrivateProxy::~QValueSpaceSubscriberPrivateProxy__deallocating() 0x0000eafb   Thumb Code    22  qvaluespacesubscriber.o(i._ZN10QtMobility33QValueSpaceSubscriberPrivateProxyD0Ev)
    QtMobility::QValueSpaceSubscriberPrivateProxy::~QValueSpaceSubscriberPrivateProxy() 0x0000eb11   Thumb Code    42  qvaluespacesubscriber.o(i._ZN10QtMobility33QValueSpaceSubscriberPrivateProxyD1Ev)
    QtMobility::QValueSpaceSubscriberPrivateProxy::~QValueSpaceSubscriberPrivateProxy__sub_object() 0x0000eb11   Thumb Code     0  qvaluespacesubscriber.o(i._ZN10QtMobility33QValueSpaceSubscriberPrivateProxyD1Ev)
    QStringList::QStringList(const QStringList&) 0x0000eb57   Thumb Code    38  settingslayer_symbian.o(i._ZN11QStringListC1ERKS_)
    QStringList::QStringList__sub_object(const QStringList&) 0x0000eb57   Thumb Code     0  settingslayer_symbian.o(i._ZN11QStringListC1ERKS_)
    QStringList::QStringList()               0x0000eb7d   Thumb Code    14  settingslayer_symbian.o(i._ZN11QStringListC1Ev)
    QStringList::QStringList__sub_object()   0x0000eb7d   Thumb Code     0  settingslayer_symbian.o(i._ZN11QStringListC1Ev)
    QStringList::~QStringList()              0x0000eb8b   Thumb Code    14  qvaluespacesubscriber.o(i._ZN11QStringListD1Ev)
    QStringList::~QStringList__sub_object()  0x0000eb8b   Thumb Code     0  qvaluespacesubscriber.o(i._ZN11QStringListD1Ev)
    QMutexLocker::unlock()                   0x0000eb99   Thumb Code    38  qvaluespacesubscriber.o(i._ZN12QMutexLocker6unlockEv)
    QMutexLocker::QMutexLocker(QMutex*)      0x0000ebbf   Thumb Code    34  qvaluespacesubscriber.o(i._ZN12QMutexLockerC1EP6QMutex)
    QMutexLocker::QMutexLocker__sub_object(QMutex*) 0x0000ebbf   Thumb Code     0  qvaluespacesubscriber.o(i._ZN12QMutexLockerC1EP6QMutex)
    QMutexLocker::~QMutexLocker()            0x0000ebe1   Thumb Code    14  qvaluespacesubscriber.o(i._ZN12QMutexLockerD1Ev)
    QMutexLocker::~QMutexLocker__sub_object() 0x0000ebe1   Thumb Code     0  qvaluespacesubscriber.o(i._ZN12QMutexLockerD1Ev)
    QBasicAtomicInt::ref()                   0x0000ebef   Thumb Code    24  qvaluespace.o(i._ZN15QBasicAtomicInt3refEv)
    QBasicAtomicInt::deref()                 0x0000ec07   Thumb Code    24  qvaluespace.o(i._ZN15QBasicAtomicInt5derefEv)
    QForeachContainer<QStringList>::~QForeachContainer() 0x0000ec1f   Thumb Code    14  settingslayer_symbian.o(i._ZN17QForeachContainerI11QStringListED1Ev)
    QForeachContainer<QStringList>::~QForeachContainer__sub_object() 0x0000ec1f   Thumb Code     0  settingslayer_symbian.o(i._ZN17QForeachContainerI11QStringListED1Ev)
    QForeachContainer<QHash<long, CCentralRepositoryHandler*>>::~QForeachContainer() 0x0000ec2d   Thumb Code    14  xqsettingsmanager_p.o(i._ZN17QForeachContainerI5QHashIlP25CCentralRepositoryHandlerEED1Ev)
    QForeachContainer<QHash<long, CCentralRepositoryHandler*>>::~QForeachContainer__sub_object() 0x0000ec2d   Thumb Code     0  xqsettingsmanager_p.o(i._ZN17QForeachContainerI5QHashIlP25CCentralRepositoryHandlerEED1Ev)
    QForeachContainer<QHash<long, CPublishAndSubscribeHandler*>>::~QForeachContainer() 0x0000ec3b   Thumb Code    14  xqsettingsmanager_p.o(i._ZN17QForeachContainerI5QHashIlP27CPublishAndSubscribeHandlerEED1Ev)
    QForeachContainer<QHash<long, CPublishAndSubscribeHandler*>>::~QForeachContainer__sub_object() 0x0000ec3b   Thumb Code     0  xqsettingsmanager_p.o(i._ZN17QForeachContainerI5QHashIlP27CPublishAndSubscribeHandlerEED1Ev)
    QForeachContainer<QHash<unsigned long, CCenRepMonitor*>>::~QForeachContainer() 0x0000ec49   Thumb Code    14  ccentralrepositoryhandler.o(i._ZN17QForeachContainerI5QHashImP14CCenRepMonitorEED1Ev)
    QForeachContainer<QHash<unsigned long, CCenRepMonitor*>>::~QForeachContainer__sub_object() 0x0000ec49   Thumb Code     0  ccentralrepositoryhandler.o(i._ZN17QForeachContainerI5QHashImP14CCenRepMonitorEED1Ev)
    SettingsHandlerBase::~SettingsHandlerBase__deallocating() 0x0000ec57   Thumb Code    18  ccentralrepositoryhandler.o(i._ZN19SettingsHandlerBaseD0Ev)
    SettingsHandlerBase::~SettingsHandlerBase() 0x0000ec69   Thumb Code     0  ccentralrepositoryhandler.o(i._ZN19SettingsHandlerBaseD2Ev)
    SettingsHandlerBase::~SettingsHandlerBase__sub_object() 0x0000ec69   Thumb Code     2  ccentralrepositoryhandler.o(i._ZN19SettingsHandlerBaseD2Ev)
    QSet<QString>::~QSet()                   0x0000ec6b   Thumb Code    14  qvaluespacesubscriber.o(i._ZN4QSetI7QStringED1Ev)
    QSet<QString>::~QSet__sub_object()       0x0000ec6b   Thumb Code     0  qvaluespacesubscriber.o(i._ZN4QSetI7QStringED1Ev)
    CBase::operator new(unsigned)            0x0000ec79   Thumb Code    16  xqsettingsmanager.o(i._ZN5CBasenwEj)
    QPair<QtMobility::QAbstractValueSpaceLayer*, unsigned>::QPair(const QPair<QtMobility::QAbstractValueSpaceLayer*, unsigned>&) 0x0000ec89   Thumb Code    10  qvaluespacesubscriber.o(i._ZN5QPairIPN10QtMobility24QAbstractValueSpaceLayerEjEC1ERKS3_)
    QPair<QtMobility::QAbstractValueSpaceLayer*, unsigned>::QPair__sub_object(const QPair<QtMobility::QAbstractValueSpaceLayer*, unsigned>&) 0x0000ec89   Thumb Code     0  qvaluespacesubscriber.o(i._ZN5QPairIPN10QtMobility24QAbstractValueSpaceLayerEjEC1ERKS3_)
    QUuid::QUuid(const QUuid&)               0x0000ec93   Thumb Code    32  qvaluespace.o(i._ZN5QUuidC1ERKS_)
    QUuid::QUuid__sub_object(const QUuid&)   0x0000ec93   Thumb Code     0  qvaluespace.o(i._ZN5QUuidC1ERKS_)
    QString::QString(const QLatin1String&)   0x0000ecb3   Thumb Code    26  settingslayer_symbian.o(i._ZN7QStringC1ERK13QLatin1String)
    QString::QString__sub_object(const QLatin1String&) 0x0000ecb3   Thumb Code     0  settingslayer_symbian.o(i._ZN7QStringC1ERK13QLatin1String)
    QString::QString(const QString&)         0x0000eccd   Thumb Code    22  qvaluespacesubscriber.o(i._ZN7QStringC1ERKS_)
    QString::QString__sub_object(const QString&) 0x0000eccd   Thumb Code     0  qvaluespacesubscriber.o(i._ZN7QStringC1ERKS_)
    QString::QString()                       0x0000ece5   Thumb Code    18  qvaluespacepublisher.o(i._ZN7QStringC1Ev)
    QString::QString__sub_object()           0x0000ece5   Thumb Code     0  qvaluespacepublisher.o(i._ZN7QStringC1Ev)
    QString::~QString()                      0x0000ecfd   Thumb Code    24  qvaluespace.o(i._ZN7QStringD1Ev)
    QString::~QString__sub_object()          0x0000ecfd   Thumb Code     0  qvaluespace.o(i._ZN7QStringD1Ev)
    QVariant::QVariant()                     0x0000ed15   Thumb Code    38  qvaluespacesubscriber.o(i._ZN8QVariantC1Ev)
    QVariant::QVariant__sub_object()         0x0000ed15   Thumb Code     0  qvaluespacesubscriber.o(i._ZN8QVariantC1Ev)
    QHashData::willGrow()                    0x0000ed3b   Thumb Code    32  qvaluespacesubscriber.o(i._ZN9QHashData8willGrowEv)
    QHashData::firstNode()                   0x0000ed5b   Thumb Code    36  qvaluespacesubscriber.o(i._ZN9QHashData9firstNodeEv)
    QHashData::hasShrunk()                   0x0000ed7f   Thumb Code    82  settingslayer_symbian.o(i._ZN9QHashData9hasShrunkEv)
    RSessionBase::SendReceive(int, const TIpcArgs&) const 0x0000edd1   Thumb Code    20  settingslayer_symbian.o(i._ZNK12RSessionBase11SendReceiveEiRK8TIpcArgs)
    QLatin1String::operator ==(const char*) const 0x0000ede5   Thumb Code    40  qvaluespacesubscriber.o(i._ZNK13QLatin1StringeqEPKc)
    QBasicAtomicInt::operator !=(int) const  0x0000ee17   Thumb Code    16  qvaluespace.o(i._ZNK15QBasicAtomicIntneEi)
    QString::isEmpty() const                 0x0000ee27   Thumb Code    18  settingslayer_symbian.o(i._ZNK7QString7isEmptyEv)
    QString::operator !=(const QLatin1String&) const 0x0000ee39   Thumb Code    20  settingslayer_symbian.o(i._ZNK7QStringneERK13QLatin1String)
    QVariant::isDetached() const             0x0000ee4d   Thumb Code    36  settingshandlerbase.o(i._ZNK8QVariant10isDetachedEv)
    QVariant::isValid() const                0x0000ee71   Thumb Code    18  settingslayer_symbian.o(i._ZNK8QVariant7isValidEv)
    QListData::at(int) const                 0x0000ee83   Thumb Code    20  qvaluespacemanager.o(i._ZNK9QListData2atEi)
    QListData::end() const                   0x0000ee97   Thumb Code    16  qvaluespace.o(i._ZNK9QListData3endEv)
    QListData::begin() const                 0x0000eea7   Thumb Code    16  qvaluespace.o(i._ZNK9QListData5beginEv)
    operator delete (void*, void*)           0x0000eeb7   Thumb Code     2  qvaluespacesubscriber.o(i._ZdlPvS_)
    operator ==(QChar, QChar)                0x0000eeb9   Thumb Code    24  qvaluespace.o(i._Zeq5QCharS_)
    operator ==(const QByteArray&, const QByteArray&) 0x0000eed1   Thumb Code    68  settingslayer_symbian.o(i._ZeqRK10QByteArrayS1_)
    operator new(unsigned, void*)            0x0000ef15   Thumb Code     6  qvaluespacesubscriber.o(i._ZnwjPv)
    operator +(const QString&, QChar)        0x0000ef1b   Thumb Code   128  qvaluespacesubscriber.o(i._ZplRK7QString5QChar)
    operator +(const QString&, const QString&) 0x0000efa5   Thumb Code    44  settingslayer_symbian.o(i._ZplRK7QStringS1_)
    qDeleteAll<QHash<unsigned long, CPubSubMonitor*>::const_iterator>(T1, T1) 0x0000efdb   Thumb Code    60  cpublishandsubscribehandler.o(t._Z10qDeleteAllIN5QHashImP14CPubSubMonitorE14const_iteratorEEvT_S5_)
    qVariantSetValue<QByteArray>(QVariant&, const T1&) 0x0000f017   Thumb Code   162  settingshandlerbase.o(t._Z16qVariantSetValueI10QByteArrayEvR8QVariantRKT_)
    qVariantSetValue<QString>(QVariant&, const T1&) 0x0000f0cd   Thumb Code   172  settingshandlerbase.o(t._Z16qVariantSetValueI7QStringEvR8QVariantRKT_)
    CleanupClosePushL<RBuf8>(T1&)            0x0000f18d   Thumb Code    24  settingshandlerbase.o(t._Z17CleanupClosePushLI5RBuf8EvRT_)
    qRegisterMetaType<unsigned>(const char*, T1*) 0x0000f1a9   Thumb Code    58  qvaluespacesubscriber.o(t._Z17qRegisterMetaTypeIjEiPKcPT_)
    qMetaTypeDeleteHelper<unsigned>(T1*)     0x0000f1ed   Thumb Code    12  qvaluespacesubscriber.o(t._Z21qMetaTypeDeleteHelperIjEvPT_)
    qMetaTypeConstructHelper<unsigned>(const T1*) 0x0000f1f9   Thumb Code    50  qvaluespacesubscriber.o(t._Z24qMetaTypeConstructHelperIjEPvPKT_)
    qMakePair<QtMobility::QAbstractValueSpaceLayer*, unsigned>(const T1&, const T2&) 0x0000f22b   Thumb Code    22  qvaluespacesubscriber.o(t._Z9qMakePairIPN10QtMobility24QAbstractValueSpaceLayerEjE5QPairIT_T0_ERKS4_RKS5_)
    CleanupClose<RBuf8>::Close(void*)        0x0000f241   Thumb Code    12  settingshandlerbase.o(t._ZN12CleanupCloseI5RBuf8E5CloseEPv)
    CleanupClose<RArray<unsigned long>>::Close(void*) 0x0000f24d   Thumb Code    14  xqcentralrepositoryutils_p.o(t._ZN12CleanupCloseI6RArrayImEE5CloseEPv)
    CleanupClose<RBuf16>::Close(void*)       0x0000f25b   Thumb Code    12  settingshandlerbase.o(t._ZN12CleanupCloseI6RBuf16E5CloseEPv)
    QHashDummyNode<QString, QHashDummyValue>::QHashDummyNode(const QString&) 0x0000f267   Thumb Code    24  qvaluespacesubscriber.o(t._ZN14QHashDummyNodeI7QString15QHashDummyValueEC1ERKS0_)
    QHashDummyNode<QString, QHashDummyValue>::QHashDummyNode__sub_object(const QString&) 0x0000f267   Thumb Code     0  qvaluespacesubscriber.o(t._ZN14QHashDummyNodeI7QString15QHashDummyValueEC1ERKS0_)
    QGlobalStaticDeleter<QtMobility::QValueSpaceManager>::~QGlobalStaticDeleter() 0x0000f27f   Thumb Code    42  qvaluespacemanager.o(t._ZN20QGlobalStaticDeleterIN10QtMobility18QValueSpaceManagerEED1Ev)
    QGlobalStaticDeleter<QtMobility::QValueSpaceManager>::~QGlobalStaticDeleter__sub_object() 0x0000f27f   Thumb Code     0  qvaluespacemanager.o(t._ZN20QGlobalStaticDeleterIN10QtMobility18QValueSpaceManagerEED1Ev)
    QGlobalStaticDeleter<QtMobility::SymbianSettingsLayer>::~QGlobalStaticDeleter() 0x0000f2a9   Thumb Code    38  settingslayer_symbian.o(t._ZN20QGlobalStaticDeleterIN10QtMobility20SymbianSettingsLayerEED1Ev)
    QGlobalStaticDeleter<QtMobility::SymbianSettingsLayer>::~QGlobalStaticDeleter__sub_object() 0x0000f2a9   Thumb Code     0  settingslayer_symbian.o(t._ZN20QGlobalStaticDeleterIN10QtMobility20SymbianSettingsLayerEED1Ev)
    QMutableHashIterator<QString, QtMobility::SymbianSettingsLayer::SymbianSettingsHandle*>::~QMutableHashIterator() 0x0000f2cf   Thumb Code    16  settingslayer_symbian.o(t._ZN20QMutableHashIteratorI7QStringPN10QtMobility20SymbianSettingsLayer21SymbianSettingsHandleEED1Ev)
    QMutableHashIterator<QString, QtMobility::SymbianSettingsLayer::SymbianSettingsHandle*>::~QMutableHashIterator__sub_object() 0x0000f2cf   Thumb Code     0  settingslayer_symbian.o(t._ZN20QMutableHashIteratorI7QStringPN10QtMobility20SymbianSettingsLayer21SymbianSettingsHandleEED1Ev)
    QExplicitlySharedDataPointer<QtMobility::QValueSpaceSubscriberPrivate>::~QExplicitlySharedDataPointer() 0x0000f2df   Thumb Code    42  qvaluespacesubscriber.o(t._ZN28QExplicitlySharedDataPointerIN10QtMobility28QValueSpaceSubscriberPrivateEED1Ev)
    QExplicitlySharedDataPointer<QtMobility::QValueSpaceSubscriberPrivate>::~QExplicitlySharedDataPointer__sub_object() 0x0000f2df   Thumb Code     0  qvaluespacesubscriber.o(t._ZN28QExplicitlySharedDataPointerIN10QtMobility28QValueSpaceSubscriberPrivateEED1Ev)
    QExplicitlySharedDataPointer<QtMobility::QValueSpaceSubscriberPrivate>::operator =(QtMobility::QValueSpaceSubscriberPrivate*) 0x0000f309   Thumb Code    62  qvaluespacesubscriber.o(t._ZN28QExplicitlySharedDataPointerIN10QtMobility28QValueSpaceSubscriberPrivateEEaSEPS1_)
    QSet<QString>::unite(const QSet<QString>&) 0x0000f347   Thumb Code   198  qvaluespacesubscriber.o(t._ZN4QSetI7QStringE5uniteERKS1_)
    QSet<QString>::insert(const QString&)    0x0000f417   Thumb Code    46  settingslayer_symbian.o(t._ZN4QSetI7QStringE6insertERKS0_)
    QSet<QString>::QSet()                    0x0000f445   Thumb Code    14  settingslayer_symbian.o(t._ZN4QSetI7QStringEC1Ev)
    QSet<QString>::QSet__sub_object()        0x0000f445   Thumb Code     0  settingslayer_symbian.o(t._ZN4QSetI7QStringEC1Ev)
    QHash<QByteArray, QtMobility::SymbianSettingsLayer::SymbianSettingsHandle*>::deleteNode2(QHashData::Node*) 0x0000f453   Thumb Code    24  settingslayer_symbian.o(t._ZN5QHashI10QByteArrayPN10QtMobility20SymbianSettingsLayer21SymbianSettingsHandleEE11deleteNode2EPN9QHashData4NodeE)
    QHash<QByteArray, QtMobility::SymbianSettingsLayer::SymbianSettingsHandle*>::detach_helper() 0x0000f46d   Thumb Code    52  settingslayer_symbian.o(t._ZN5QHashI10QByteArrayPN10QtMobility20SymbianSettingsLayer21SymbianSettingsHandleEE13detach_helperEv)
    QHash<QByteArray, QtMobility::SymbianSettingsLayer::SymbianSettingsHandle*>::duplicateNode(QHashData::Node*, void*) 0x0000f4a9   Thumb Code    46  settingslayer_symbian.o(t._ZN5QHashI10QByteArrayPN10QtMobility20SymbianSettingsLayer21SymbianSettingsHandleEE13duplicateNodeEPN9QHashData4NodeEPv)
    QHash<QByteArray, QtMobility::SymbianSettingsLayer::SymbianSettingsHandle*>::detach() 0x0000f4e5   Thumb Code    28  settingslayer_symbian.o(t._ZN5QHashI10QByteArrayPN10QtMobility20SymbianSettingsLayer21SymbianSettingsHandleEE6detachEv)
    QHash<QByteArray, QtMobility::SymbianSettingsLayer::SymbianSettingsHandle*>::remove(const QByteArray&) 0x0000f501   Thumb Code   178  settingslayer_symbian.o(t._ZN5QHashI10QByteArrayPN10QtMobility20SymbianSettingsLayer21SymbianSettingsHandleEE6removeERKS0_)
    QHash<QByteArray, QtMobility::SymbianSettingsLayer::SymbianSettingsHandle*>::freeData(QHashData*) 0x0000f5b5   Thumb Code    16  settingslayer_symbian.o(t._ZN5QHashI10QByteArrayPN10QtMobility20SymbianSettingsLayer21SymbianSettingsHandleEE8freeDataEP9QHashData)
    QHash<QByteArray, QtMobility::SymbianSettingsLayer::SymbianSettingsHandle*>::~QHash() 0x0000f5c9   Thumb Code    30  settingslayer_symbian.o(t._ZN5QHashI10QByteArrayPN10QtMobility20SymbianSettingsLayer21SymbianSettingsHandleEED1Ev)
    QHash<QByteArray, QtMobility::SymbianSettingsLayer::SymbianSettingsHandle*>::~QHash__sub_object() 0x0000f5c9   Thumb Code     0  settingslayer_symbian.o(t._ZN5QHashI10QByteArrayPN10QtMobility20SymbianSettingsLayer21SymbianSettingsHandleEED1Ev)
    QHash<QByteArray, QtMobility::SymbianSettingsLayer::SymbianSettingsHandle*>::operator [](const QByteArray&) 0x0000f5e7   Thumb Code   164  settingslayer_symbian.o(t._ZN5QHashI10QByteArrayPN10QtMobility20SymbianSettingsLayer21SymbianSettingsHandleEEixERKS0_)
    QHash<QString, QHashDummyValue>::deleteNode2(QHashData::Node*) 0x0000f699   Thumb Code    24  qvaluespacesubscriber.o(t._ZN5QHashI7QString15QHashDummyValueE11deleteNode2EPN9QHashData4NodeE)
    QHash<QString, QHashDummyValue>::detach_helper() 0x0000f6b1   Thumb Code    52  qvaluespacesubscriber.o(t._ZN5QHashI7QString15QHashDummyValueE13detach_helperEv)
    QHash<QString, QHashDummyValue>::duplicateNode(QHashData::Node*, void*) 0x0000f6ed   Thumb Code    44  qvaluespacesubscriber.o(t._ZN5QHashI7QString15QHashDummyValueE13duplicateNodeEPN9QHashData4NodeEPv)
    QHash<QString, QHashDummyValue>::detach() 0x0000f725   Thumb Code    28  qvaluespacesubscriber.o(t._ZN5QHashI7QString15QHashDummyValueE6detachEv)
    QHash<QString, QHashDummyValue>::insert(const QString&, const QHashDummyValue&) 0x0000f741   Thumb Code   168  qvaluespacesubscriber.o(t._ZN5QHashI7QString15QHashDummyValueE6insertERKS0_RKS1_)
    QHash<QString, QHashDummyValue>::remove(const QString&) 0x0000f7f5   Thumb Code   178  settingslayer_symbian.o(t._ZN5QHashI7QString15QHashDummyValueE6removeERKS0_)
    QHash<QString, QHashDummyValue>::freeData(QHashData*) 0x0000f8a9   Thumb Code    16  qvaluespacesubscriber.o(t._ZN5QHashI7QString15QHashDummyValueE8freeDataEP9QHashData)
    QHash<QString, QHashDummyValue>::QHash() 0x0000f8bd   Thumb Code    22  settingslayer_symbian.o(t._ZN5QHashI7QString15QHashDummyValueEC1Ev)
    QHash<QString, QHashDummyValue>::QHash__sub_object() 0x0000f8bd   Thumb Code     0  settingslayer_symbian.o(t._ZN5QHashI7QString15QHashDummyValueEC1Ev)
    QHash<QString, QHashDummyValue>::~QHash() 0x0000f8d9   Thumb Code    30  qvaluespacesubscriber.o(t._ZN5QHashI7QString15QHashDummyValueED1Ev)
    QHash<QString, QHashDummyValue>::~QHash__sub_object() 0x0000f8d9   Thumb Code     0  qvaluespacesubscriber.o(t._ZN5QHashI7QString15QHashDummyValueED1Ev)
    QHash<QString, QtMobility::SymbianSettingsLayer::SymbianSettingsHandle*>::deleteNode2(QHashData::Node*) 0x0000f8f7   Thumb Code    24  settingslayer_symbian.o(t._ZN5QHashI7QStringPN10QtMobility20SymbianSettingsLayer21SymbianSettingsHandleEE11deleteNode2EPN9QHashData4NodeE)
    QHash<QString, QtMobility::SymbianSettingsLayer::SymbianSettingsHandle*>::setSharable(bool) 0x0000f90f   Thumb Code    36  settingslayer_symbian.o(t._ZN5QHashI7QStringPN10QtMobility20SymbianSettingsLayer21SymbianSettingsHandleEE11setSharableEb)
    QHash<QString, QtMobility::SymbianSettingsLayer::SymbianSettingsHandle*>::detach_helper() 0x0000f935   Thumb Code    52  settingslayer_symbian.o(t._ZN5QHashI7QStringPN10QtMobility20SymbianSettingsLayer21SymbianSettingsHandleEE13detach_helperEv)
    QHash<QString, QtMobility::SymbianSettingsLayer::SymbianSettingsHandle*>::duplicateNode(QHashData::Node*, void*) 0x0000f971   Thumb Code    46  settingslayer_symbian.o(t._ZN5QHashI7QStringPN10QtMobility20SymbianSettingsLayer21SymbianSettingsHandleEE13duplicateNodeEPN9QHashData4NodeEPv)
    QHash<QString, QtMobility::SymbianSettingsLayer::SymbianSettingsHandle*>::detach() 0x0000f9ad   Thumb Code    28  settingslayer_symbian.o(t._ZN5QHashI7QStringPN10QtMobility20SymbianSettingsLayer21SymbianSettingsHandleEE6detachEv)
    QHash<QString, QtMobility::SymbianSettingsLayer::SymbianSettingsHandle*>::insert(const QString&, QtMobility::SymbianSettingsLayer::SymbianSettingsHandle*const &) 0x0000f9c9   Thumb Code   176  settingslayer_symbian.o(t._ZN5QHashI7QStringPN10QtMobility20SymbianSettingsLayer21SymbianSettingsHandleEE6insertERKS0_RKS4_)
    QHash<QString, QtMobility::SymbianSettingsLayer::SymbianSettingsHandle*>::remove(const QString&) 0x0000fa87   Thumb Code   178  settingslayer_symbian.o(t._ZN5QHashI7QStringPN10QtMobility20SymbianSettingsLayer21SymbianSettingsHandleEE6removeERKS0_)
    QHash<QString, QtMobility::SymbianSettingsLayer::SymbianSettingsHandle*>::freeData(QHashData*) 0x0000fb39   Thumb Code    16  settingslayer_symbian.o(t._ZN5QHashI7QStringPN10QtMobility20SymbianSettingsLayer21SymbianSettingsHandleEE8freeDataEP9QHashData)
    QHash<QString, QtMobility::SymbianSettingsLayer::SymbianSettingsHandle*>::~QHash() 0x0000fb4d   Thumb Code    30  settingslayer_symbian.o(t._ZN5QHashI7QStringPN10QtMobility20SymbianSettingsLayer21SymbianSettingsHandleEED1Ev)
    QHash<QString, QtMobility::SymbianSettingsLayer::SymbianSettingsHandle*>::~QHash__sub_object() 0x0000fb4d   Thumb Code     0  settingslayer_symbian.o(t._ZN5QHashI7QStringPN10QtMobility20SymbianSettingsLayer21SymbianSettingsHandleEED1Ev)
    QHash<const QtMobility::QValueSpaceSubscriber*, int>::createNode(unsigned, const QtMobility::QValueSpaceSubscriber*const &, const int&, QHashNode<const QtMobility::QValueSpaceSubscriber*, int>**) 0x0000fb6b   Thumb Code   102  qvaluespacesubscriber.o(t._ZN5QHashIPKN10QtMobility21QValueSpaceSubscriberEiE10createNodeEjRKS3_RKiPP9QHashNodeIS3_iE)
    QHash<const QtMobility::QValueSpaceSubscriber*, int>::deleteNode2(QHashData::Node*) 0x0000fbd5   Thumb Code     6  qvaluespacesubscriber.o(t._ZN5QHashIPKN10QtMobility21QValueSpaceSubscriberEiE11deleteNode2EPN9QHashData4NodeE)
    QHash<const QtMobility::QValueSpaceSubscriber*, int>::detach_helper() 0x0000fbdd   Thumb Code    52  qvaluespacesubscriber.o(t._ZN5QHashIPKN10QtMobility21QValueSpaceSubscriberEiE13detach_helperEv)
    QHash<const QtMobility::QValueSpaceSubscriber*, int>::duplicateNode(QHashData::Node*, void*) 0x0000fc19   Thumb Code    46  qvaluespacesubscriber.o(t._ZN5QHashIPKN10QtMobility21QValueSpaceSubscriberEiE13duplicateNodeEPN9QHashData4NodeEPv)
    QHash<const QtMobility::QValueSpaceSubscriber*, int>::erase(QHash<const QtMobility::QValueSpaceSubscriber*, int>::iterator) 0x0000fc47   Thumb Code   128  qvaluespacesubscriber.o(t._ZN5QHashIPKN10QtMobility21QValueSpaceSubscriberEiE5eraseENS4_8iteratorE)
    QHash<const QtMobility::QValueSpaceSubscriber*, int>::detach() 0x0000fcc7   Thumb Code    28  qvaluespacesubscriber.o(t._ZN5QHashIPKN10QtMobility21QValueSpaceSubscriberEiE6detachEv)
    QHash<const QtMobility::QValueSpaceSubscriber*, int>::freeData(QHashData*) 0x0000fce5   Thumb Code    16  qvaluespacesubscriber.o(t._ZN5QHashIPKN10QtMobility21QValueSpaceSubscriberEiE8freeDataEP9QHashData)
    QHash<const QtMobility::QValueSpaceSubscriber*, int>::~QHash() 0x0000fcf9   Thumb Code    30  qvaluespacesubscriber.o(t._ZN5QHashIPKN10QtMobility21QValueSpaceSubscriberEiED1Ev)
    QHash<const QtMobility::QValueSpaceSubscriber*, int>::~QHash__sub_object() 0x0000fcf9   Thumb Code     0  qvaluespacesubscriber.o(t._ZN5QHashIPKN10QtMobility21QValueSpaceSubscriberEiED1Ev)
    QHash<const QtMobility::QValueSpaceSubscriber*, int>::operator [](const QtMobility::QValueSpaceSubscriber*const &) 0x0000fd17   Thumb Code    82  qvaluespacesubscriber.o(t._ZN5QHashIPKN10QtMobility21QValueSpaceSubscriberEiEixERKS3_)
    QHash<long, CCentralRepositoryHandler*>::deleteNode2(QHashData::Node*) 0x0000fd69   Thumb Code     6  xqsettingsmanager_p.o(t._ZN5QHashIlP25CCentralRepositoryHandlerE11deleteNode2EPN9QHashData4NodeE)
    QHash<long, CCentralRepositoryHandler*>::detach_helper() 0x0000fd71   Thumb Code    52  xqsettingsmanager_p.o(t._ZN5QHashIlP25CCentralRepositoryHandlerE13detach_helperEv)
    QHash<long, CCentralRepositoryHandler*>::duplicateNode(QHashData::Node*, void*) 0x0000fdad   Thumb Code    48  xqsettingsmanager_p.o(t._ZN5QHashIlP25CCentralRepositoryHandlerE13duplicateNodeEPN9QHashData4NodeEPv)
    QHash<long, CCentralRepositoryHandler*>::detach() 0x0000fddd   Thumb Code    28  xqsettingsmanager_p.o(t._ZN5QHashIlP25CCentralRepositoryHandlerE6detachEv)
    QHash<long, CCentralRepositoryHandler*>::freeData(QHashData*) 0x0000fdf9   Thumb Code    16  xqsettingsmanager_p.o(t._ZN5QHashIlP25CCentralRepositoryHandlerE8freeDataEP9QHashData)
    QHash<long, CCentralRepositoryHandler*>::~QHash() 0x0000fe0d   Thumb Code    30  xqsettingsmanager_p.o(t._ZN5QHashIlP25CCentralRepositoryHandlerED1Ev)
    QHash<long, CCentralRepositoryHandler*>::~QHash__sub_object() 0x0000fe0d   Thumb Code     0  xqsettingsmanager_p.o(t._ZN5QHashIlP25CCentralRepositoryHandlerED1Ev)
    QHash<long, CCentralRepositoryHandler*>::operator [](const long&) 0x0000fe2b   Thumb Code   170  xqsettingsmanager_p.o(t._ZN5QHashIlP25CCentralRepositoryHandlerEixERKl)
    QHash<long, CPublishAndSubscribeHandler*>::deleteNode2(QHashData::Node*) 0x0000fed9   Thumb Code     6  xqsettingsmanager_p.o(t._ZN5QHashIlP27CPublishAndSubscribeHandlerE11deleteNode2EPN9QHashData4NodeE)
    QHash<long, CPublishAndSubscribeHandler*>::detach_helper() 0x0000fee1   Thumb Code    52  xqsettingsmanager_p.o(t._ZN5QHashIlP27CPublishAndSubscribeHandlerE13detach_helperEv)
    QHash<long, CPublishAndSubscribeHandler*>::duplicateNode(QHashData::Node*, void*) 0x0000ff1d   Thumb Code    48  xqsettingsmanager_p.o(t._ZN5QHashIlP27CPublishAndSubscribeHandlerE13duplicateNodeEPN9QHashData4NodeEPv)
    QHash<long, CPublishAndSubscribeHandler*>::detach() 0x0000ff4d   Thumb Code    28  xqsettingsmanager_p.o(t._ZN5QHashIlP27CPublishAndSubscribeHandlerE6detachEv)
    QHash<long, CPublishAndSubscribeHandler*>::freeData(QHashData*) 0x0000ff69   Thumb Code    16  xqsettingsmanager_p.o(t._ZN5QHashIlP27CPublishAndSubscribeHandlerE8freeDataEP9QHashData)
    QHash<long, CPublishAndSubscribeHandler*>::~QHash() 0x0000ff7d   Thumb Code    30  xqsettingsmanager_p.o(t._ZN5QHashIlP27CPublishAndSubscribeHandlerED1Ev)
    QHash<long, CPublishAndSubscribeHandler*>::~QHash__sub_object() 0x0000ff7d   Thumb Code     0  xqsettingsmanager_p.o(t._ZN5QHashIlP27CPublishAndSubscribeHandlerED1Ev)
    QHash<long, CPublishAndSubscribeHandler*>::operator [](const long&) 0x0000ff9b   Thumb Code   170  xqsettingsmanager_p.o(t._ZN5QHashIlP27CPublishAndSubscribeHandlerEixERKl)
    QHash<unsigned long, CCenRepMonitor*>::deleteNode2(QHashData::Node*) 0x00010049   Thumb Code     6  ccentralrepositoryhandler.o(t._ZN5QHashImP14CCenRepMonitorE11deleteNode2EPN9QHashData4NodeE)
    QHash<unsigned long, CCenRepMonitor*>::detach_helper() 0x00010051   Thumb Code    52  ccentralrepositoryhandler.o(t._ZN5QHashImP14CCenRepMonitorE13detach_helperEv)
    QHash<unsigned long, CCenRepMonitor*>::duplicateNode(QHashData::Node*, void*) 0x0001008d   Thumb Code    46  ccentralrepositoryhandler.o(t._ZN5QHashImP14CCenRepMonitorE13duplicateNodeEPN9QHashData4NodeEPv)
    QHash<unsigned long, CCenRepMonitor*>::detach() 0x000100bb   Thumb Code    34  ccentralrepositoryhandler.o(t._ZN5QHashImP14CCenRepMonitorE6detachEv)
    QHash<unsigned long, CCenRepMonitor*>::remove(const unsigned long&) 0x000100dd   Thumb Code   242  ccentralrepositoryhandler.o(t._ZN5QHashImP14CCenRepMonitorE6removeERKm)
    QHash<unsigned long, CCenRepMonitor*>::freeData(QHashData*) 0x000101d1   Thumb Code    16  ccentralrepositoryhandler.o(t._ZN5QHashImP14CCenRepMonitorE8freeDataEP9QHashData)
    QHash<unsigned long, CCenRepMonitor*>::~QHash() 0x000101e5   Thumb Code    30  ccentralrepositoryhandler.o(t._ZN5QHashImP14CCenRepMonitorED1Ev)
    QHash<unsigned long, CCenRepMonitor*>::~QHash__sub_object() 0x000101e5   Thumb Code     0  ccentralrepositoryhandler.o(t._ZN5QHashImP14CCenRepMonitorED1Ev)
    QHash<unsigned long, CCenRepMonitor*>::operator [](const unsigned long&) 0x00010203   Thumb Code   192  ccentralrepositoryhandler.o(t._ZN5QHashImP14CCenRepMonitorEixERKm)
    QHash<unsigned long, CPubSubMonitor*>::deleteNode2(QHashData::Node*) 0x000102c7   Thumb Code     6  cpublishandsubscribehandler.o(t._ZN5QHashImP14CPubSubMonitorE11deleteNode2EPN9QHashData4NodeE)
    QHash<unsigned long, CPubSubMonitor*>::detach_helper() 0x000102cd   Thumb Code    52  cpublishandsubscribehandler.o(t._ZN5QHashImP14CPubSubMonitorE13detach_helperEv)
    QHash<unsigned long, CPubSubMonitor*>::duplicateNode(QHashData::Node*, void*) 0x00010309   Thumb Code    46  cpublishandsubscribehandler.o(t._ZN5QHashImP14CPubSubMonitorE13duplicateNodeEPN9QHashData4NodeEPv)
    QHash<unsigned long, CPubSubMonitor*>::detach() 0x00010337   Thumb Code    34  cpublishandsubscribehandler.o(t._ZN5QHashImP14CPubSubMonitorE6detachEv)
    QHash<unsigned long, CPubSubMonitor*>::remove(const unsigned long&) 0x00010359   Thumb Code   242  cpublishandsubscribehandler.o(t._ZN5QHashImP14CPubSubMonitorE6removeERKm)
    QHash<unsigned long, CPubSubMonitor*>::freeData(QHashData*) 0x0001044d   Thumb Code    16  cpublishandsubscribehandler.o(t._ZN5QHashImP14CPubSubMonitorE8freeDataEP9QHashData)
    QHash<unsigned long, CPubSubMonitor*>::~QHash() 0x00010461   Thumb Code    30  cpublishandsubscribehandler.o(t._ZN5QHashImP14CPubSubMonitorED1Ev)
    QHash<unsigned long, CPubSubMonitor*>::~QHash__sub_object() 0x00010461   Thumb Code     0  cpublishandsubscribehandler.o(t._ZN5QHashImP14CPubSubMonitorED1Ev)
    QHash<unsigned long, CPubSubMonitor*>::operator [](const unsigned long&) 0x0001047f   Thumb Code   192  cpublishandsubscribehandler.o(t._ZN5QHashImP14CPubSubMonitorEixERKm)
    QList<XQCentralRepositorySettingsKey>::detach_helper(int) 0x00010543   Thumb Code    94  xqcentralrepositoryutils_p.o(t._ZN5QListI30XQCentralRepositorySettingsKeyE13detach_helperEi)
    QList<XQCentralRepositorySettingsKey>::detach_helper() 0x000105a9   Thumb Code    16  xqcentralrepositoryutils_p.o(t._ZN5QListI30XQCentralRepositorySettingsKeyE13detach_helperEv)
    QList<XQCentralRepositorySettingsKey>::node_destruct(QList<XQCentralRepositorySettingsKey>::Node*, QList<XQCentralRepositorySettingsKey>::Node*) 0x000105b9   Thumb Code    38  xqcentralrepositoryutils_p.o(t._ZN5QListI30XQCentralRepositorySettingsKeyE13node_destructEPNS1_4NodeES3_)
    QList<XQCentralRepositorySettingsKey>::node_construct(QList<XQCentralRepositorySettingsKey>::Node*, const XQCentralRepositorySettingsKey&) 0x000105df   Thumb Code    32  xqcentralrepositoryutils_p.o(t._ZN5QListI30XQCentralRepositorySettingsKeyE14node_constructEPNS1_4NodeERKS0_)
    QList<XQCentralRepositorySettingsKey>::detach_helper_grow(int, int) 0x00010603   Thumb Code   208  xqcentralrepositoryutils_p.o(t._ZN5QListI30XQCentralRepositorySettingsKeyE18detach_helper_growEii)
    QList<XQCentralRepositorySettingsKey>::free(QListData::Data*) 0x000106e3   Thumb Code    58  xqcentralrepositoryutils_p.o(t._ZN5QListI30XQCentralRepositorySettingsKeyE4freeEPN9QListData4DataE)
    QList<XQCentralRepositorySettingsKey>::append(const XQCentralRepositorySettingsKey&) 0x0001071d   Thumb Code   112  xqcentralrepositoryutils_p.o(t._ZN5QListI30XQCentralRepositorySettingsKeyE6appendERKS0_)
    QList<XQCentralRepositorySettingsKey>::node_copy(QList<XQCentralRepositorySettingsKey>::Node*, QList<XQCentralRepositorySettingsKey>::Node*, QList<XQCentralRepositorySettingsKey>::Node*) 0x0001079f   Thumb Code    94  xqcentralrepositoryutils_p.o(t._ZN5QListI30XQCentralRepositorySettingsKeyE9node_copyEPNS1_4NodeES3_S3_)
    QList<XQCentralRepositorySettingsKey>::QList() 0x00010809   Thumb Code    18  xqcentralrepositoryutils_p.o(t._ZN5QListI30XQCentralRepositorySettingsKeyEC1Ev)
    QList<XQCentralRepositorySettingsKey>::QList__sub_object() 0x00010809   Thumb Code     0  xqcentralrepositoryutils_p.o(t._ZN5QListI30XQCentralRepositorySettingsKeyEC1Ev)
    QList<XQCentralRepositorySettingsKey>::~QList() 0x00010821   Thumb Code    32  xqcentralrepositoryutils_p.o(t._ZN5QListI30XQCentralRepositorySettingsKeyED1Ev)
    QList<XQCentralRepositorySettingsKey>::~QList__sub_object() 0x00010821   Thumb Code     0  xqcentralrepositoryutils_p.o(t._ZN5QListI30XQCentralRepositorySettingsKeyED1Ev)
    QList<QPair<QtMobility::QAbstractValueSpaceLayer*, unsigned>>::detach_helper(int) 0x00010841   Thumb Code    94  qvaluespacesubscriber.o(t._ZN5QListI5QPairIPN10QtMobility24QAbstractValueSpaceLayerEjEE13detach_helperEi)
    QList<QPair<QtMobility::QAbstractValueSpaceLayer*, unsigned>>::detach_helper() 0x000108a7   Thumb Code    16  qvaluespacesubscriber.o(t._ZN5QListI5QPairIPN10QtMobility24QAbstractValueSpaceLayerEjEE13detach_helperEv)
    QList<QPair<QtMobility::QAbstractValueSpaceLayer*, unsigned>>::node_destruct(QList<QPair<QtMobility::QAbstractValueSpaceLayer*, unsigned>>::Node*, QList<QPair<QtMobility::QAbstractValueSpaceLayer*, unsigned>>::Node*) 0x000108b7   Thumb Code    26  qvaluespacesubscriber.o(t._ZN5QListI5QPairIPN10QtMobility24QAbstractValueSpaceLayerEjEE13node_destructEPNS5_4NodeES7_)
    QList<QPair<QtMobility::QAbstractValueSpaceLayer*, unsigned>>::node_construct(QList<QPair<QtMobility::QAbstractValueSpaceLayer*, unsigned>>::Node*, const QPair<QtMobility::QAbstractValueSpaceLayer*, unsigned>&) 0x000108d1   Thumb Code    34  qvaluespacesubscriber.o(t._ZN5QListI5QPairIPN10QtMobility24QAbstractValueSpaceLayerEjEE14node_constructEPNS5_4NodeERKS4_)
    QList<QPair<QtMobility::QAbstractValueSpaceLayer*, unsigned>>::detach_helper_grow(int, int) 0x000108f7   Thumb Code   208  qvaluespacesubscriber.o(t._ZN5QListI5QPairIPN10QtMobility24QAbstractValueSpaceLayerEjEE18detach_helper_growEii)
    QList<QPair<QtMobility::QAbstractValueSpaceLayer*, unsigned>>::free(QListData::Data*) 0x000109d7   Thumb Code    58  qvaluespacesubscriber.o(t._ZN5QListI5QPairIPN10QtMobility24QAbstractValueSpaceLayerEjEE4freeEPN9QListData4DataE)
    QList<QPair<QtMobility::QAbstractValueSpaceLayer*, unsigned>>::append(const QPair<QtMobility::QAbstractValueSpaceLayer*, unsigned>&) 0x00010a11   Thumb Code   106  qvaluespacesubscriber.o(t._ZN5QListI5QPairIPN10QtMobility24QAbstractValueSpaceLayerEjEE6appendERKS4_)
    QList<QPair<QtMobility::QAbstractValueSpaceLayer*, unsigned>>::node_copy(QList<QPair<QtMobility::QAbstractValueSpaceLayer*, unsigned>>::Node*, QList<QPair<QtMobility::QAbstractValueSpaceLayer*, unsigned>>::Node*, QList<QPair<QtMobility::QAbstractValueSpaceLayer*, unsigned>>::Node*) 0x00010a8f   Thumb Code    80  qvaluespacesubscriber.o(t._ZN5QListI5QPairIPN10QtMobility24QAbstractValueSpaceLayerEjEE9node_copyEPNS5_4NodeES7_S7_)
    QList<QPair<QtMobility::QAbstractValueSpaceLayer*, unsigned>>::QList(const QList<QPair<QtMobility::QAbstractValueSpaceLayer*, unsigned>>&) 0x00010af5   Thumb Code    36  qvaluespacesubscriber.o(t._ZN5QListI5QPairIPN10QtMobility24QAbstractValueSpaceLayerEjEEC1ERKS5_)
    QList<QPair<QtMobility::QAbstractValueSpaceLayer*, unsigned>>::QList__sub_object(const QList<QPair<QtMobility::QAbstractValueSpaceLayer*, unsigned>>&) 0x00010af5   Thumb Code     0  qvaluespacesubscriber.o(t._ZN5QListI5QPairIPN10QtMobility24QAbstractValueSpaceLayerEjEEC1ERKS5_)
    QList<QPair<QtMobility::QAbstractValueSpaceLayer*, unsigned>>::QList() 0x00010b19   Thumb Code    18  qvaluespacesubscriber.o(t._ZN5QListI5QPairIPN10QtMobility24QAbstractValueSpaceLayerEjEEC1Ev)
    QList<QPair<QtMobility::QAbstractValueSpaceLayer*, unsigned>>::QList__sub_object() 0x00010b19   Thumb Code     0  qvaluespacesubscriber.o(t._ZN5QListI5QPairIPN10QtMobility24QAbstractValueSpaceLayerEjEEC1Ev)
    QList<QPair<QtMobility::QAbstractValueSpaceLayer*, unsigned>>::~QList() 0x00010b31   Thumb Code    32  qvaluespacesubscriber.o(t._ZN5QListI5QPairIPN10QtMobility24QAbstractValueSpaceLayerEjEED1Ev)
    QList<QPair<QtMobility::QAbstractValueSpaceLayer*, unsigned>>::~QList__sub_object() 0x00010b31   Thumb Code     0  qvaluespacesubscriber.o(t._ZN5QListI5QPairIPN10QtMobility24QAbstractValueSpaceLayerEjEED1Ev)
    QList<QUuid>::node_destruct(QList<QUuid>::Node*, QList<QUuid>::Node*) 0x00010b51   Thumb Code    26  qvaluespace.o(t._ZN5QListI5QUuidE13node_destructEPNS1_4NodeES3_)
    QList<QUuid>::node_construct(QList<QUuid>::Node*, const QUuid&) 0x00010b6b   Thumb Code    34  qvaluespace.o(t._ZN5QListI5QUuidE14node_constructEPNS1_4NodeERKS0_)
    QList<QUuid>::detach_helper_grow(int, int) 0x00010b9b   Thumb Code   208  qvaluespace.o(t._ZN5QListI5QUuidE18detach_helper_growEii)
    QList<QUuid>::free(QListData::Data*)     0x00010c7b   Thumb Code    58  qvaluespace.o(t._ZN5QListI5QUuidE4freeEPN9QListData4DataE)
    QList<QUuid>::append(const QUuid&)       0x00010cb5   Thumb Code   106  qvaluespace.o(t._ZN5QListI5QUuidE6appendERKS0_)
    QList<QUuid>::node_copy(QList<QUuid>::Node*, QList<QUuid>::Node*, QList<QUuid>::Node*) 0x00010d33   Thumb Code    80  qvaluespace.o(t._ZN5QListI5QUuidE9node_copyEPNS1_4NodeES3_S3_)
    QList<QUuid>::~QList()                   0x00010d99   Thumb Code    32  qvaluespace.o(t._ZN5QListI5QUuidED1Ev)
    QList<QUuid>::~QList__sub_object()       0x00010d99   Thumb Code     0  qvaluespace.o(t._ZN5QListI5QUuidED1Ev)
    QList<QString>::detach_helper(int)       0x00010db9   Thumb Code    94  settingslayer_symbian.o(t._ZN5QListI7QStringE13detach_helperEi)
    QList<QString>::detach_helper()          0x00010e1f   Thumb Code    16  settingslayer_symbian.o(t._ZN5QListI7QStringE13detach_helperEv)
    QList<QString>::node_destruct(QList<QString>::Node*, QList<QString>::Node*) 0x00010e2f   Thumb Code    26  qvaluespacesubscriber.o(t._ZN5QListI7QStringE13node_destructEPNS1_4NodeES3_)
    QList<QString>::node_construct(QList<QString>::Node*, const QString&) 0x00010e49   Thumb Code    36  qvaluespacesubscriber.o(t._ZN5QListI7QStringE14node_constructEPNS1_4NodeERKS0_)
    QList<QString>::detach_helper_grow(int, int) 0x00010e7b   Thumb Code   208  qvaluespacesubscriber.o(t._ZN5QListI7QStringE18detach_helper_growEii)
    QList<QString>::free(QListData::Data*)   0x00010f5b   Thumb Code    58  qvaluespacesubscriber.o(t._ZN5QListI7QStringE4freeEPN9QListData4DataE)
    QList<QString>::clear()                  0x00010f95   Thumb Code    76  settingslayer_symbian.o(t._ZN5QListI7QStringE5clearEv)
    QList<QString>::append(const QString&)   0x00010fed   Thumb Code   114  qvaluespacesubscriber.o(t._ZN5QListI7QStringE6appendERKS0_)
    QList<QString>::reserve(int)             0x00011073   Thumb Code    46  settingslayer_symbian.o(t._ZN5QListI7QStringE7reserveEi)
    QList<QString>::node_copy(QList<QString>::Node*, QList<QString>::Node*, QList<QString>::Node*) 0x000110a1   Thumb Code    82  qvaluespacesubscriber.o(t._ZN5QListI7QStringE9node_copyEPNS1_4NodeES3_S3_)
    QList<QString>::QList()                  0x00011109   Thumb Code    18  settingslayer_symbian.o(t._ZN5QListI7QStringEC1Ev)
    QList<QString>::QList__sub_object()      0x00011109   Thumb Code     0  settingslayer_symbian.o(t._ZN5QListI7QStringEC1Ev)
    QList<QString>::~QList()                 0x00011121   Thumb Code    32  qvaluespacesubscriber.o(t._ZN5QListI7QStringED1Ev)
    QList<QString>::~QList__sub_object()     0x00011121   Thumb Code     0  qvaluespacesubscriber.o(t._ZN5QListI7QStringED1Ev)
    QList<XQPublishAndSubscribeSecurityPolicy::Capability>::detach_helper(int) 0x00011141   Thumb Code   190  xqpublishandsubscribesecuritypolicy.o(t._ZN5QListIN35XQPublishAndSubscribeSecurityPolicy10CapabilityEE13detach_helperEi)
    QList<XQPublishAndSubscribeSecurityPolicy::Capability>::detach_helper() 0x0001120f   Thumb Code    16  xqpublishandsubscribesecuritypolicy.o(t._ZN5QListIN35XQPublishAndSubscribeSecurityPolicy10CapabilityEE13detach_helperEv)
    QList<XQPublishAndSubscribeSecurityPolicy::Capability>::free(QListData::Data*) 0x0001121f   Thumb Code    70  cpublishandsubscribehandler.o(t._ZN5QListIN35XQPublishAndSubscribeSecurityPolicy10CapabilityEE4freeEPN9QListData4DataE)
    QList<XQPublishAndSubscribeSecurityPolicy::Capability>::QList(const QList<XQPublishAndSubscribeSecurityPolicy::Capability>&) 0x00011265   Thumb Code    36  xqpublishandsubscribesecuritypolicy.o(t._ZN5QListIN35XQPublishAndSubscribeSecurityPolicy10CapabilityEEC1ERKS2_)
    QList<XQPublishAndSubscribeSecurityPolicy::Capability>::QList__sub_object(const QList<XQPublishAndSubscribeSecurityPolicy::Capability>&) 0x00011265   Thumb Code     0  xqpublishandsubscribesecuritypolicy.o(t._ZN5QListIN35XQPublishAndSubscribeSecurityPolicy10CapabilityEEC1ERKS2_)
    QList<XQPublishAndSubscribeSecurityPolicy::Capability>::~QList() 0x00011289   Thumb Code    32  cpublishandsubscribehandler.o(t._ZN5QListIN35XQPublishAndSubscribeSecurityPolicy10CapabilityEED1Ev)
    QList<XQPublishAndSubscribeSecurityPolicy::Capability>::~QList__sub_object() 0x00011289   Thumb Code     0  cpublishandsubscribehandler.o(t._ZN5QListIN35XQPublishAndSubscribeSecurityPolicy10CapabilityEED1Ev)
    QList<QtMobility::QAbstractValueSpaceLayer*(*)()>::detach_helper(int) 0x000112a9   Thumb Code    94  qvaluespacemanager.o(t._ZN5QListIPFPN10QtMobility24QAbstractValueSpaceLayerEvEE13detach_helperEi)
    QList<QtMobility::QAbstractValueSpaceLayer*(*)()>::detach_helper() 0x0001130f   Thumb Code    16  qvaluespacemanager.o(t._ZN5QListIPFPN10QtMobility24QAbstractValueSpaceLayerEvEE13detach_helperEv)
    QList<QtMobility::QAbstractValueSpaceLayer*(*)()>::detach_helper_grow(int, int) 0x0001131f   Thumb Code   204  qvaluespacemanager.o(t._ZN5QListIPFPN10QtMobility24QAbstractValueSpaceLayerEvEE18detach_helper_growEii)
    QList<QtMobility::QAbstractValueSpaceLayer*(*)()>::free(QListData::Data*) 0x000113fb   Thumb Code    58  qvaluespacemanager.o(t._ZN5QListIPFPN10QtMobility24QAbstractValueSpaceLayerEvEE4freeEPN9QListData4DataE)
    QList<QtMobility::QAbstractValueSpaceLayer*(*)()>::clear() 0x00011435   Thumb Code    76  qvaluespacemanager.o(t._ZN5QListIPFPN10QtMobility24QAbstractValueSpaceLayerEvEE5clearEv)
    QList<QtMobility::QAbstractValueSpaceLayer*(*)()>::append(QtMobility::QAbstractValueSpaceLayer*(*const &)()) 0x0001148d   Thumb Code    94  qvaluespacemanager.o(t._ZN5QListIPFPN10QtMobility24QAbstractValueSpaceLayerEvEE6appendERKS4_)
    QList<QtMobility::QAbstractValueSpaceLayer*(*)()>::node_copy(QList<QtMobility::QAbstractValueSpaceLayer*(*)()>::Node*, QList<QtMobility::QAbstractValueSpaceLayer*(*)()>::Node*, QList<QtMobility::QAbstractValueSpaceLayer*(*)()>::Node*) 0x000114fb   Thumb Code    46  qvaluespacemanager.o(t._ZN5QListIPFPN10QtMobility24QAbstractValueSpaceLayerEvEE9node_copyEPNS5_4NodeES7_S7_)
    QList<QtMobility::QAbstractValueSpaceLayer*(*)()>::QList() 0x00011529   Thumb Code    18  qvaluespacemanager.o(t._ZN5QListIPFPN10QtMobility24QAbstractValueSpaceLayerEvEEC1Ev)
    QList<QtMobility::QAbstractValueSpaceLayer*(*)()>::QList__sub_object() 0x00011529   Thumb Code     0  qvaluespacemanager.o(t._ZN5QListIPFPN10QtMobility24QAbstractValueSpaceLayerEvEEC1Ev)
    QList<QtMobility::QAbstractValueSpaceLayer*(*)()>::~QList() 0x00011541   Thumb Code    32  qvaluespacemanager.o(t._ZN5QListIPFPN10QtMobility24QAbstractValueSpaceLayerEvEED1Ev)
    QList<QtMobility::QAbstractValueSpaceLayer*(*)()>::~QList__sub_object() 0x00011541   Thumb Code     0  qvaluespacemanager.o(t._ZN5QListIPFPN10QtMobility24QAbstractValueSpaceLayerEvEED1Ev)
    QList<QtMobility::SymbianSettingsLayer::SymbianSettingsHandle*>::detach_helper(int) 0x00011561   Thumb Code    94  settingslayer_symbian.o(t._ZN5QListIPN10QtMobility20SymbianSettingsLayer21SymbianSettingsHandleEE13detach_helperEi)
    QList<QtMobility::SymbianSettingsLayer::SymbianSettingsHandle*>::detach_helper_grow(int, int) 0x000115c7   Thumb Code   204  settingslayer_symbian.o(t._ZN5QListIPN10QtMobility20SymbianSettingsLayer21SymbianSettingsHandleEE18detach_helper_growEii)
    QList<QtMobility::SymbianSettingsLayer::SymbianSettingsHandle*>::free(QListData::Data*) 0x000116a3   Thumb Code    58  settingslayer_symbian.o(t._ZN5QListIPN10QtMobility20SymbianSettingsLayer21SymbianSettingsHandleEE4freeEPN9QListData4DataE)
    QList<QtMobility::SymbianSettingsLayer::SymbianSettingsHandle*>::append(QtMobility::SymbianSettingsLayer::SymbianSettingsHandle*const &) 0x000116dd   Thumb Code    94  settingslayer_symbian.o(t._ZN5QListIPN10QtMobility20SymbianSettingsLayer21SymbianSettingsHandleEE6appendERKS3_)
    QList<QtMobility::SymbianSettingsLayer::SymbianSettingsHandle*>::reserve(int) 0x0001174b   Thumb Code    46  settingslayer_symbian.o(t._ZN5QListIPN10QtMobility20SymbianSettingsLayer21SymbianSettingsHandleEE7reserveEi)
    QList<QtMobility::SymbianSettingsLayer::SymbianSettingsHandle*>::node_copy(QList<QtMobility::SymbianSettingsLayer::SymbianSettingsHandle*>::Node*, QList<QtMobility::SymbianSettingsLayer::SymbianSettingsHandle*>::Node*, QList<QtMobility::SymbianSettingsLayer::SymbianSettingsHandle*>::Node*) 0x00011779   Thumb Code    46  settingslayer_symbian.o(t._ZN5QListIPN10QtMobility20SymbianSettingsLayer21SymbianSettingsHandleEE9node_copyEPNS4_4NodeES6_S6_)
    QList<QtMobility::SymbianSettingsLayer::SymbianSettingsHandle*>::~QList() 0x000117a7   Thumb Code    32  settingslayer_symbian.o(t._ZN5QListIPN10QtMobility20SymbianSettingsLayer21SymbianSettingsHandleEED1Ev)
    QList<QtMobility::SymbianSettingsLayer::SymbianSettingsHandle*>::~QList__sub_object() 0x000117a7   Thumb Code     0  settingslayer_symbian.o(t._ZN5QListIPN10QtMobility20SymbianSettingsLayer21SymbianSettingsHandleEED1Ev)
    QList<QtMobility::QAbstractValueSpaceLayer*>::detach_helper(int) 0x000117c7   Thumb Code    94  qvaluespacemanager.o(t._ZN5QListIPN10QtMobility24QAbstractValueSpaceLayerEE13detach_helperEi)
    QList<QtMobility::QAbstractValueSpaceLayer*>::detach_helper() 0x0001182d   Thumb Code    16  qvaluespace.o(t._ZN5QListIPN10QtMobility24QAbstractValueSpaceLayerEE13detach_helperEv)
    QList<QtMobility::QAbstractValueSpaceLayer*>::detach_helper_grow(int, int) 0x0001183d   Thumb Code   204  qvaluespacemanager.o(t._ZN5QListIPN10QtMobility24QAbstractValueSpaceLayerEE18detach_helper_growEii)
    QList<QtMobility::QAbstractValueSpaceLayer*>::free(QListData::Data*) 0x00011919   Thumb Code    58  qvaluespace.o(t._ZN5QListIPN10QtMobility24QAbstractValueSpaceLayerEE4freeEPN9QListData4DataE)
    QList<QtMobility::QAbstractValueSpaceLayer*>::append(QtMobility::QAbstractValueSpaceLayer*const &) 0x00011955   Thumb Code    94  qvaluespacemanager.o(t._ZN5QListIPN10QtMobility24QAbstractValueSpaceLayerEE6appendERKS2_)
    QList<QtMobility::QAbstractValueSpaceLayer*>::insert(int, QtMobility::QAbstractValueSpaceLayer*const &) 0x000119c3   Thumb Code   100  qvaluespacemanager.o(t._ZN5QListIPN10QtMobility24QAbstractValueSpaceLayerEE6insertEiRKS2_)
    QList<QtMobility::QAbstractValueSpaceLayer*>::node_copy(QList<QtMobility::QAbstractValueSpaceLayer*>::Node*, QList<QtMobility::QAbstractValueSpaceLayer*>::Node*, QList<QtMobility::QAbstractValueSpaceLayer*>::Node*) 0x00011a31   Thumb Code    46  qvaluespacemanager.o(t._ZN5QListIPN10QtMobility24QAbstractValueSpaceLayerEE9node_copyEPNS3_4NodeES5_S5_)
    QList<QtMobility::QAbstractValueSpaceLayer*>::QList(const QList<QtMobility::QAbstractValueSpaceLayer*>&) 0x00011a5f   Thumb Code    36  qvaluespacepublisher.o(t._ZN5QListIPN10QtMobility24QAbstractValueSpaceLayerEEC1ERKS3_)
    QList<QtMobility::QAbstractValueSpaceLayer*>::QList__sub_object(const QList<QtMobility::QAbstractValueSpaceLayer*>&) 0x00011a5f   Thumb Code     0  qvaluespacepublisher.o(t._ZN5QListIPN10QtMobility24QAbstractValueSpaceLayerEEC1ERKS3_)
    QList<QtMobility::QAbstractValueSpaceLayer*>::~QList() 0x00011a83   Thumb Code    32  qvaluespace.o(t._ZN5QListIPN10QtMobility24QAbstractValueSpaceLayerEED1Ev)
    QList<QtMobility::QAbstractValueSpaceLayer*>::~QList__sub_object() 0x00011a83   Thumb Code     0  qvaluespace.o(t._ZN5QListIPN10QtMobility24QAbstractValueSpaceLayerEED1Ev)
    TPckgBuf<int>::TPckgBuf(const int&)      0x00011aa3   Thumb Code    46  settingslayer_symbian.o(t._ZN8TPckgBufIiEC1ERKi)
    TPckgBuf<int>::TPckgBuf__sub_object(const int&) 0x00011aa3   Thumb Code     0  settingslayer_symbian.o(t._ZN8TPckgBufIiEC1ERKi)
    QHashNode<QByteArray, QtMobility::SymbianSettingsLayer::SymbianSettingsHandle*>::QHashNode(const QByteArray&, QtMobility::SymbianSettingsLayer::SymbianSettingsHandle*const &) 0x00011ad1   Thumb Code    30  settingslayer_symbian.o(t._ZN9QHashNodeI10QByteArrayPN10QtMobility20SymbianSettingsLayer21SymbianSettingsHandleEEC1ERKS0_RKS4_)
    QHashNode<QByteArray, QtMobility::SymbianSettingsLayer::SymbianSettingsHandle*>::QHashNode__sub_object(const QByteArray&, QtMobility::SymbianSettingsLayer::SymbianSettingsHandle*const &) 0x00011ad1   Thumb Code     0  settingslayer_symbian.o(t._ZN9QHashNodeI10QByteArrayPN10QtMobility20SymbianSettingsLayer21SymbianSettingsHandleEEC1ERKS0_RKS4_)
    QHashNode<QString, QtMobility::SymbianSettingsLayer::SymbianSettingsHandle*>::QHashNode(const QString&, QtMobility::SymbianSettingsLayer::SymbianSettingsHandle*const &) 0x00011aef   Thumb Code    30  settingslayer_symbian.o(t._ZN9QHashNodeI7QStringPN10QtMobility20SymbianSettingsLayer21SymbianSettingsHandleEEC1ERKS0_RKS4_)
    QHashNode<QString, QtMobility::SymbianSettingsLayer::SymbianSettingsHandle*>::QHashNode__sub_object(const QString&, QtMobility::SymbianSettingsLayer::SymbianSettingsHandle*const &) 0x00011aef   Thumb Code     0  settingslayer_symbian.o(t._ZN9QHashNodeI7QStringPN10QtMobility20SymbianSettingsLayer21SymbianSettingsHandleEEC1ERKS0_RKS4_)
    QSet<QString>::const_iterator::operator !=(const QSet<QString>::const_iterator&) const 0x00011b0d   Thumb Code    20  qvaluespacesubscriber.o(t._ZNK4QSetI7QStringE14const_iteratorneERKS2_)
    QHash<QByteArray, QtMobility::SymbianSettingsLayer::SymbianSettingsHandle*>::findNode(const QByteArray&, unsigned*) const 0x00011b21   Thumb Code   116  settingslayer_symbian.o(t._ZNK5QHashI10QByteArrayPN10QtMobility20SymbianSettingsLayer21SymbianSettingsHandleEE8findNodeERKS0_Pj)
    QHash<QString, QHashDummyValue>::findNode(const QString&, unsigned*) const 0x00011b95   Thumb Code   116  qvaluespacesubscriber.o(t._ZNK5QHashI7QString15QHashDummyValueE8findNodeERKS0_Pj)
    QHash<QString, QtMobility::SymbianSettingsLayer::SymbianSettingsHandle*>::const_iterator::operator !=(const QHash<QString, QtMobility::SymbianSettingsLayer::SymbianSettingsHandle*>::const_iterator&) const 0x00011c09   Thumb Code    18  settingslayer_symbian.o(t._ZNK5QHashI7QStringPN10QtMobility20SymbianSettingsLayer21SymbianSettingsHandleEE14const_iteratorneERKS6_)
    QHash<QString, QtMobility::SymbianSettingsLayer::SymbianSettingsHandle*>::values() const 0x00011c1d   Thumb Code   108  settingslayer_symbian.o(t._ZNK5QHashI7QStringPN10QtMobility20SymbianSettingsLayer21SymbianSettingsHandleEE6valuesEv)
    QHash<QString, QtMobility::SymbianSettingsLayer::SymbianSettingsHandle*>::findNode(const QString&, unsigned*) const 0x00011c97   Thumb Code   116  settingslayer_symbian.o(t._ZNK5QHashI7QStringPN10QtMobility20SymbianSettingsLayer21SymbianSettingsHandleEE8findNodeERKS0_Pj)
    QHash<const QtMobility::QValueSpaceSubscriber*, int>::findNode(const QtMobility::QValueSpaceSubscriber*const &, unsigned*) const 0x00011d0b   Thumb Code   104  qvaluespacesubscriber.o(t._ZNK5QHashIPKN10QtMobility21QValueSpaceSubscriberEiE8findNodeERKS3_Pj)
    QHash<long, CCentralRepositoryHandler*>::value(const long&) const 0x00011d73   Thumb Code    40  xqsettingsmanager_p.o(t._ZNK5QHashIlP25CCentralRepositoryHandlerE5valueERKl)
    QHash<long, CCentralRepositoryHandler*>::contains(const long&) const 0x00011d9b   Thumb Code    32  xqsettingsmanager_p.o(t._ZNK5QHashIlP25CCentralRepositoryHandlerE8containsERKl)
    QHash<long, CCentralRepositoryHandler*>::findNode(const long&, unsigned*) const 0x00011dbb   Thumb Code   106  xqsettingsmanager_p.o(t._ZNK5QHashIlP25CCentralRepositoryHandlerE8findNodeERKlPj)
    QHash<long, CPublishAndSubscribeHandler*>::value(const long&) const 0x00011e25   Thumb Code    40  xqsettingsmanager_p.o(t._ZNK5QHashIlP27CPublishAndSubscribeHandlerE5valueERKl)
    QHash<long, CPublishAndSubscribeHandler*>::contains(const long&) const 0x00011e4d   Thumb Code    32  xqsettingsmanager_p.o(t._ZNK5QHashIlP27CPublishAndSubscribeHandlerE8containsERKl)
    QHash<long, CPublishAndSubscribeHandler*>::findNode(const long&, unsigned*) const 0x00011e6d   Thumb Code   106  xqsettingsmanager_p.o(t._ZNK5QHashIlP27CPublishAndSubscribeHandlerE8findNodeERKlPj)
    QHash<unsigned long, CCenRepMonitor*>::contains(const unsigned long&) const 0x00011ed7   Thumb Code    32  ccentralrepositoryhandler.o(t._ZNK5QHashImP14CCenRepMonitorE8containsERKm)
    QHash<unsigned long, CCenRepMonitor*>::findNode(const unsigned long&, unsigned*) const 0x00011ef7   Thumb Code   102  ccentralrepositoryhandler.o(t._ZNK5QHashImP14CCenRepMonitorE8findNodeERKmPj)
    QHash<unsigned long, CPubSubMonitor*>::contains(const unsigned long&) const 0x00011f5d   Thumb Code    32  cpublishandsubscribehandler.o(t._ZNK5QHashImP14CPubSubMonitorE8containsERKm)
    QHash<unsigned long, CPubSubMonitor*>::findNode(const unsigned long&, unsigned*) const 0x00011f7d   Thumb Code   102  cpublishandsubscribehandler.o(t._ZNK5QHashImP14CPubSubMonitorE8findNodeERKmPj)
    QList<QPair<QtMobility::QAbstractValueSpaceLayer*, unsigned>>::at(int) const 0x00011fe3   Thumb Code    22  qvaluespacesubscriber.o(t._ZNK5QListI5QPairIPN10QtMobility24QAbstractValueSpaceLayerEjEE2atEi)
    QList<QPair<QtMobility::QAbstractValueSpaceLayer*, unsigned>>::count() const 0x00011ff9   Thumb Code    16  qvaluespacesubscriber.o(t._ZNK5QListI5QPairIPN10QtMobility24QAbstractValueSpaceLayerEjEE5countEv)
    QList<QPair<QtMobility::QAbstractValueSpaceLayer*, unsigned>>::operator [](int) const 0x00012009   Thumb Code    22  qvaluespacesubscriber.o(t._ZNK5QListI5QPairIPN10QtMobility24QAbstractValueSpaceLayerEjEEixEi)
    QList<XQPublishAndSubscribeSecurityPolicy::Capability>::count() const 0x0001201f   Thumb Code    16  cpublishandsubscribehandler.o(t._ZNK5QListIN35XQPublishAndSubscribeSecurityPolicy10CapabilityEE5countEv)
    QList<XQPublishAndSubscribeSecurityPolicy::Capability>::operator [](int) const 0x0001202f   Thumb Code    30  cpublishandsubscribehandler.o(t._ZNK5QListIN35XQPublishAndSubscribeSecurityPolicy10CapabilityEEixEi)
    QList<QtMobility::SymbianSettingsLayer::SymbianSettingsHandle*>::contains(QtMobility::SymbianSettingsLayer::SymbianSettingsHandle*const &) const 0x0001204d   Thumb Code    66  settingslayer_symbian.o(t._ZNK5QListIPN10QtMobility20SymbianSettingsLayer21SymbianSettingsHandleEE8containsERKS3_)
    QList<QtMobility::QAbstractValueSpaceLayer*>::at(int) const 0x0001208f   Thumb Code    30  qvaluespacepublisher.o(t._ZNK5QListIPN10QtMobility24QAbstractValueSpaceLayerEE2atEi)
    operator >><QString>(QDataStream&, QSet<T1>&) 0x000120ad   Thumb Code   174  settingslayer_symbian.o(t._ZrsI7QStringER11QDataStreamS2_R4QSetIT_E)
    operator >><QString>(QDataStream&, QList<T1>&) 0x0001216f   Thumb Code    94  settingslayer_symbian.o(t._ZrsI7QStringER11QDataStreamS2_R5QListIT_E)
    XQSettingsManager::staticMetaObject      0x0001361c   Data          16  moc_xqsettingsmanager.o(.constdata)
    QtMobility::QAbstractValueSpaceLayer::staticMetaObject 0x0001362c   Data          16  qvaluespace.o(.constdata)
    QtMobility::QValueSpacePublisher::staticMetaObject 0x000136c0   Data          16  qvaluespacepublisher.o(.constdata)
    QtMobility::QValueSpaceSubscriber::staticMetaObject 0x000137d0   Data          16  qvaluespacesubscriber.o(.constdata)
    QtMobility::QValueSpaceSubscriberPrivateProxy::staticMetaObject 0x000137e0   Data          16  qvaluespacesubscriber.o(.constdata)
    QtMobility::PathMapper::staticMetaObject 0x000139c0   Data          16  settingslayer_symbian.o(.constdata)
    QtMobility::SymbianSettingsLayer::staticMetaObject 0x000139d0   Data          16  settingslayer_symbian.o(.constdata)
    stlp_priv::_Integer_limits<signed char, (signed char)-128, (signed char)127, (int)-1, (bool)1>::digits 0x00013ab0   Data           4  moc_xqsettingsmanager.o(.constdata__ZN9stlp_priv15_Integer_limitsIaLan128ELa127ELin1ELb1EE6digitsE)
    stlp_priv::_Integer_limits<bool, (bool)0, (bool)1, (int)1, (bool)0>::digits 0x00013ab4   Data           4  moc_xqsettingsmanager.o(.constdata__ZN9stlp_priv15_Integer_limitsIbLb0ELb1ELi1ELb0EE6digitsE)
    stlp_priv::_Integer_limits<char, (char)128, (char)127, (int)-1, (bool)1>::digits 0x00013ab8   Data           4  moc_xqsettingsmanager.o(.constdata__ZN9stlp_priv15_Integer_limitsIcLc128ELc127ELin1ELb1EE6digitsE)
    stlp_priv::_Integer_limits<unsigned char, (unsigned char)0, (unsigned char)255, (int)-1, (bool)1>::digits 0x00013abc   Data           4  moc_xqsettingsmanager.o(.constdata__ZN9stlp_priv15_Integer_limitsIhLh0ELh255ELin1ELb1EE6digitsE)
    stlp_priv::_Integer_limits<int, (int)-2147483648, (int)2147483647, (int)-1, (bool)1>::digits 0x00013ac0   Data           4  moc_xqsettingsmanager.o(.constdata__ZN9stlp_priv15_Integer_limitsIiLin2147483648ELi2147483647ELin1ELb1EE6digitsE)
    stlp_priv::_Integer_limits<int, (int)-2147483648, (int)2147483647, (int)-1, (bool)1>::is_signed 0x00013ac4   Data           1  moc_xqsettingsmanager.o(.constdata__ZN9stlp_priv15_Integer_limitsIiLin2147483648ELi2147483647ELin1ELb1EE9is_signedE)
    stlp_priv::_Integer_limits<unsigned, (unsigned)0, (unsigned)4294967295, (int)-1, (bool)1>::digits 0x00013ac8   Data           4  moc_xqsettingsmanager.o(.constdata__ZN9stlp_priv15_Integer_limitsIjLj0ELj4294967295ELin1ELb1EE6digitsE)
    stlp_priv::_Integer_limits<long, (long)-2147483648, (long)2147483647, (int)-1, (bool)1>::digits 0x00013acc   Data           4  moc_xqsettingsmanager.o(.constdata__ZN9stlp_priv15_Integer_limitsIlLln2147483648ELl2147483647ELin1ELb1EE6digitsE)
    stlp_priv::_Integer_limits<unsigned long, (unsigned long)0, (unsigned long)4294967295, (int)-1, (bool)1>::digits 0x00013ad0   Data           4  moc_xqsettingsmanager.o(.constdata__ZN9stlp_priv15_Integer_limitsImLm0ELm4294967295ELin1ELb1EE6digitsE)
    stlp_priv::_Integer_limits<short, (short)-32768, (short)32767, (int)-1, (bool)1>::digits 0x00013ad4   Data           4  moc_xqsettingsmanager.o(.constdata__ZN9stlp_priv15_Integer_limitsIsLsn32768ELs32767ELin1ELb1EE6digitsE)
    stlp_priv::_Integer_limits<unsigned short, (unsigned short)0, (unsigned short)65535, (int)-1, (bool)1>::digits 0x00013ad8   Data           4  moc_xqsettingsmanager.o(.constdata__ZN9stlp_priv15_Integer_limitsItLt0ELt65535ELin1ELb1EE6digitsE)
    stlp_priv::_Integer_limits<wchar_t, (wchar_t)0, (wchar_t)65535, (int)-1, (bool)1>::digits 0x00013adc   Data           4  moc_xqsettingsmanager.o(.constdata__ZN9stlp_priv15_Integer_limitsIwLw0ELw65535ELin1ELb1EE6digitsE)
    stlp_priv::_Integer_limits<long long, (long long)-9223372036854775808, (long long)9223372036854775807, (int)-1, (bool)1>::digits 0x00013ae0   Data           4  moc_xqsettingsmanager.o(.constdata__ZN9stlp_priv15_Integer_limitsIxLxn9223372036854775808ELx9223372036854775807ELin1ELb1EE6digitsE)
    stlp_priv::_Integer_limits<unsigned long long, (unsigned long long)0, (unsigned long long)18446744073709551615, (int)-1, (bool)1>::digits 0x00013ae4   Data           4  moc_xqsettingsmanager.o(.constdata__ZN9stlp_priv15_Integer_limitsIyLy0ELy18446744073709551615ELin1ELb1EE6digitsE)
    typeinfo for CCenRepMonitor              0x00013ae8   Data          12  cenrepmonitor.o(.constdata__ZTI14CCenRepMonitor)
    typeinfo for CPubSubMonitor              0x00013af4   Data          12  pubsubmonitor.o(.constdata__ZTI14CPubSubMonitor)
    typeinfo for XQSettingsManager           0x00013b00   Data          12  moc_xqsettingsmanager.o(.constdata__ZTI17XQSettingsManager)
    typeinfo for SettingsHandlerBase         0x00013b0c   Data           8  ccentralrepositoryhandler.o(.constdata__ZTI19SettingsHandlerBase)
    typeinfo for MSettingsHandlerObserver    0x00013b14   Data           8  xqsettingsmanager_p.o(.constdata__ZTI24MSettingsHandlerObserver)
    typeinfo for XQCentralRepositoryUtils    0x00013b1c   Data          12  xqcentralrepositoryutils.o(.constdata__ZTI24XQCentralRepositoryUtils)
    typeinfo for XQSettingsManagerPrivate    0x00013b28   Data          32  xqsettingsmanager_p.o(.constdata__ZTI24XQSettingsManagerPrivate)
    typeinfo for CCentralRepositoryHandler   0x00013b48   Data          32  ccentralrepositoryhandler.o(.constdata__ZTI25CCentralRepositoryHandler)
    typeinfo for XQPublishAndSubscribeUtils  0x00013b68   Data          12  xqpublishandsubscribeutils.o(.constdata__ZTI26XQPublishAndSubscribeUtils)
    typeinfo for CPublishAndSubscribeHandler 0x00013b74   Data          32  cpublishandsubscribehandler.o(.constdata__ZTI27CPublishAndSubscribeHandler)
    typeinfo for QtMobility::PathMapper      0x00013b94   Data          12  settingslayer_symbian.o(.constdata__ZTIN10QtMobility10PathMapperE)
    typeinfo for QtMobility::QValueSpacePublisher 0x00013ba0   Data          12  qvaluespacepublisher.o(.constdata__ZTIN10QtMobility20QValueSpacePublisherE)
    typeinfo for QtMobility::SymbianSettingsLayer 0x00013bac   Data          12  settingslayer_symbian.o(.constdata__ZTIN10QtMobility20SymbianSettingsLayerE)
    typeinfo for QtMobility::QValueSpaceSubscriber 0x00013bb8   Data          12  qvaluespacesubscriber.o(.constdata__ZTIN10QtMobility21QValueSpaceSubscriberE)
    typeinfo for QtMobility::QAbstractValueSpaceLayer 0x00013bc4   Data          12  qvaluespace.o(.constdata__ZTIN10QtMobility24QAbstractValueSpaceLayerE)
    typeinfo for QtMobility::QValueSpaceSubscriberPrivateProxy 0x00013bd0   Data          12  qvaluespacesubscriber.o(.constdata__ZTIN10QtMobility33QValueSpaceSubscriberPrivateProxyE)
    typeinfo name for CCenRepMonitor         0x00013bdc   Data          17  cenrepmonitor.o(.constdata__ZTS14CCenRepMonitor)
    typeinfo name for CPubSubMonitor         0x00013bed   Data          17  pubsubmonitor.o(.constdata__ZTS14CPubSubMonitor)
    typeinfo name for XQSettingsManager      0x00013bfe   Data          20  moc_xqsettingsmanager.o(.constdata__ZTS17XQSettingsManager)
    typeinfo name for SettingsHandlerBase    0x00013c12   Data          22  ccentralrepositoryhandler.o(.constdata__ZTS19SettingsHandlerBase)
    typeinfo name for MSettingsHandlerObserver 0x00013c28   Data          27  xqsettingsmanager_p.o(.constdata__ZTS24MSettingsHandlerObserver)
    typeinfo name for XQCentralRepositoryUtils 0x00013c43   Data          27  xqcentralrepositoryutils.o(.constdata__ZTS24XQCentralRepositoryUtils)
    typeinfo name for XQSettingsManagerPrivate 0x00013c5e   Data          27  xqsettingsmanager_p.o(.constdata__ZTS24XQSettingsManagerPrivate)
    typeinfo name for CCentralRepositoryHandler 0x00013c79   Data          28  ccentralrepositoryhandler.o(.constdata__ZTS25CCentralRepositoryHandler)
    typeinfo name for XQPublishAndSubscribeUtils 0x00013c95   Data          29  xqpublishandsubscribeutils.o(.constdata__ZTS26XQPublishAndSubscribeUtils)
    typeinfo name for CPublishAndSubscribeHandler 0x00013cb2   Data          30  cpublishandsubscribehandler.o(.constdata__ZTS27CPublishAndSubscribeHandler)
    typeinfo name for QtMobility::PathMapper 0x00013cd0   Data          27  settingslayer_symbian.o(.constdata__ZTSN10QtMobility10PathMapperE)
    typeinfo name for QtMobility::QValueSpacePublisher 0x00013ceb   Data          37  qvaluespacepublisher.o(.constdata__ZTSN10QtMobility20QValueSpacePublisherE)
    typeinfo name for QtMobility::SymbianSettingsLayer 0x00013d10   Data          37  settingslayer_symbian.o(.constdata__ZTSN10QtMobility20SymbianSettingsLayerE)
    typeinfo name for QtMobility::QValueSpaceSubscriber 0x00013d35   Data          38  qvaluespacesubscriber.o(.constdata__ZTSN10QtMobility21QValueSpaceSubscriberE)
    typeinfo name for QtMobility::QAbstractValueSpaceLayer 0x00013d5b   Data          41  qvaluespace.o(.constdata__ZTSN10QtMobility24QAbstractValueSpaceLayerE)
    typeinfo name for QtMobility::QValueSpaceSubscriberPrivateProxy 0x00013d84   Data          50  qvaluespacesubscriber.o(.constdata__ZTSN10QtMobility33QValueSpaceSubscriberPrivateProxyE)
    vtable for CCenRepMonitor                0x00013db8   Data          32  cenrepmonitor.o(.constdata__ZTV14CCenRepMonitor)
    vtable for CPubSubMonitor                0x00013dd8   Data          32  pubsubmonitor.o(.constdata__ZTV14CPubSubMonitor)
    vtable for XQSettingsManager             0x00013df8   Data          56  moc_xqsettingsmanager.o(.constdata__ZTV17XQSettingsManager)
    vtable for SettingsHandlerBase           0x00013e30   Data          60  ccentralrepositoryhandler.o(.constdata__ZTV19SettingsHandlerBase)
    vtable for MSettingsHandlerObserver      0x00013e6c   Data          16  xqsettingsmanager_p.o(.constdata__ZTV24MSettingsHandlerObserver)
    vtable for XQCentralRepositoryUtils      0x00013e7c   Data          56  xqcentralrepositoryutils.o(.constdata__ZTV24XQCentralRepositoryUtils)
    vtable for XQSettingsManagerPrivate      0x00013eb4   Data          44  xqsettingsmanager_p.o(.constdata__ZTV24XQSettingsManagerPrivate)
    vtable for CCentralRepositoryHandler     0x00013ee0   Data         124  ccentralrepositoryhandler.o(.constdata__ZTV25CCentralRepositoryHandler)
    vtable for XQPublishAndSubscribeUtils    0x00013f5c   Data          56  xqpublishandsubscribeutils.o(.constdata__ZTV26XQPublishAndSubscribeUtils)
    vtable for CPublishAndSubscribeHandler   0x00013f94   Data         124  cpublishandsubscribehandler.o(.constdata__ZTV27CPublishAndSubscribeHandler)
    vtable for QtMobility::PathMapper        0x00014010   Data          56  settingslayer_symbian.o(.constdata__ZTVN10QtMobility10PathMapperE)
    vtable for QtMobility::QValueSpacePublisher 0x00014048   Data          56  qvaluespacepublisher.o(.constdata__ZTVN10QtMobility20QValueSpacePublisherE)
    vtable for QtMobility::SymbianSettingsLayer 0x00014080   Data         132  settingslayer_symbian.o(.constdata__ZTVN10QtMobility20SymbianSettingsLayerE)
    vtable for QtMobility::QValueSpaceSubscriber 0x00014104   Data          56  qvaluespacesubscriber.o(.constdata__ZTVN10QtMobility21QValueSpaceSubscriberE)
    vtable for QtMobility::QAbstractValueSpaceLayer 0x0001413c   Data         132  qvaluespace.o(.constdata__ZTVN10QtMobility24QAbstractValueSpaceLayerE)
    vtable for QtMobility::QValueSpaceSubscriberPrivateProxy 0x000141c0   Data          56  qvaluespacesubscriber.o(.constdata__ZTVN10QtMobility33QValueSpaceSubscriberPrivateProxyE)
    SHT$$INIT_ARRAY$$Base                    0x000141f8   Number         0  settingslayer_symbian.o(.init_array)
    .ARM.exidx$$Base                         0x000141fc   Number         0  ucppinit.o(.ARM.exidx)
    SHT$$INIT_ARRAY$$Limit                   0x000141fc   Data           0  settingslayer_symbian.o(.init_array)
    .ARM.exidx$$Limit                        0x00014fd4   Number         0  settingslayer_symbian.o(.ARM.exidx)
    Image$$ER_RO$$Limit                      0x00014fd4   Number         0  anon$$obj.o(linker$$defined$$symbols)
    __dso_handle                             0x00400024   Data           4  ucppfini.o(.data)
    std::_Atomic_swap_struct<(int)1>::_S_swap_lock 0x00400028   Data          12  moc_xqsettingsmanager.o(.data__ZNSt19_Atomic_swap_structILi1EE12_S_swap_lockE)
    dtor_rec                                 0x00400034   Data        2048  ucppfini.o(.bss)

