ARM Linker, RVCT2.2 [Build 686]

================================================================================

Image Symbol Table

    Local Symbols

    Symbol Name                              Value     Ov Type        Size  Object(Section)

    ../../unhosted.s                         0x00000000   Number         0  switch8.o ABSOLUTE
    M:\\epoc32\\build\\euser\\c_e18a23aea4fd210f\\edll_lib\\armv5\\udeb\\uc_dll_.cpp 0x00000000   Number         0  uc_dll_.o ABSOLUTE
    M:\\sf\\os\\kernelhwsrv\\kernel\\eka\\compsupp\\rvct\\ucppinit.cpp 0x00000000   Number         0  ucppinit.o ABSOLUTE
    M:\epoc32\build\euser\c_e18a23aea4fd210f\edll_lib\armv5\udeb\uc_dll_.cpp 0x00000000   Number         0  uc_dll_.o ABSOLUTE
    M:\sf\os\kernelhwsrv\kernel\eka\compsupp\rvct\dllexp.cpp 0x00000000   Number         0  dllexp.o ABSOLUTE
    M:\sf\os\kernelhwsrv\kernel\eka\compsupp\rvct\ucppfini.cpp 0x00000000   Number         0  ucppfini.o ABSOLUTE
    M:\sf\os\kernelhwsrv\kernel\eka\compsupp\rvct\ucppinit.cpp 0x00000000   Number         0  ucppinit.o ABSOLUTE
    M:\sf\os\kernelhwsrv\kernel\eka\euser\epoc\arm\uc_dll.cpp 0x00000000   Number         0  uc_dll.o ABSOLUTE
    S:\sf\mw\qtmobility\src\sensors\qaccelerometer.cpp 0x00000000   Number         0  qaccelerometer.o ABSOLUTE
    S:\sf\mw\qtmobility\src\sensors\qambientlightsensor.cpp 0x00000000   Number         0  qambientlightsensor.o ABSOLUTE
    S:\sf\mw\qtmobility\src\sensors\qcompass.cpp 0x00000000   Number         0  qcompass.o ABSOLUTE
    S:\sf\mw\qtmobility\src\sensors\qmagnetometer.cpp 0x00000000   Number         0  qmagnetometer.o ABSOLUTE
    S:\sf\mw\qtmobility\src\sensors\qorientationsensor.cpp 0x00000000   Number         0  qorientationsensor.o ABSOLUTE
    S:\sf\mw\qtmobility\src\sensors\qproximitysensor.cpp 0x00000000   Number         0  qproximitysensor.o ABSOLUTE
    S:\sf\mw\qtmobility\src\sensors\qrotationsensor.cpp 0x00000000   Number         0  qrotationsensor.o ABSOLUTE
    S:\sf\mw\qtmobility\src\sensors\qsensor.cpp 0x00000000   Number         0  qsensor.o ABSOLUTE
    S:\sf\mw\qtmobility\src\sensors\qsensorbackend.cpp 0x00000000   Number         0  qsensorbackend.o ABSOLUTE
    S:\sf\mw\qtmobility\src\sensors\qsensormanager.cpp 0x00000000   Number         0  qsensormanager.o ABSOLUTE
    S:\sf\mw\qtmobility\src\sensors\qsensorplugin.cpp 0x00000000   Number         0  qsensorplugin.o ABSOLUTE
    S:\sf\mw\qtmobility\src\sensors\qsensorpluginloader.cpp 0x00000000   Number         0  qsensorpluginloader.o ABSOLUTE
    S:\sf\mw\qtmobility\src\sensors\qtapsensor.cpp 0x00000000   Number         0  qtapsensor.o ABSOLUTE
    .emb_text                                0x00008000   Section       40  uc_dll_.o(.emb_text)
    Symbian$$eit_base                        0x00008014   Data           4  uc_dll_.o(.emb_text)
    Symbian$$eit_limit                       0x00008018   Data           4  uc_dll_.o(.emb_text)
    Symbian$$code_seg_base                   0x0000801c   Data           4  uc_dll_.o(.emb_text)
    Symbian$$code_seg_limit                  0x00008020   Data           4  uc_dll_.o(.emb_text)
    Symbian$$reserved                        0x00008024   Data           4  uc_dll_.o(.emb_text)
    .emb_text                                0x00008028   Section       52  ucppinit.o(.emb_text)
    loop                                     0x0000803c   ARM Code       0  ucppinit.o(.emb_text)
    ret                                      0x00008044   ARM Code       0  ucppinit.o(.emb_text)
    base                                     0x00008054   Data           0  ucppinit.o(.emb_text)
    limit                                    0x00008058   Data           0  ucppinit.o(.emb_text)
    .text                                    0x00008324   Section      832  qsensorbackend.o(.text)
    QtMobility::pluginLoader()               0x00008665   Thumb Code   206  qsensormanager.o(.text)
    .text                                    0x00008664   Section     2500  qsensormanager.o(.text)
    QtMobility::sensorManagerPrivate()       0x00008733   Thumb Code   262  qsensormanager.o(.text)
    QtMobility::loadPlugins()                0x00008839   Thumb Code   446  qsensormanager.o(.text)
    QtMobility::qSymbian_CheckDir(const QDir&, RFs&) 0x00009029   Thumb Code    86  qsensorpluginloader.o(.text)
    .text                                    0x00009028   Section     1346  qsensorpluginloader.o(.text)
    .text                                    0x0000956c   Section     3308  qsensor.o(.text)
    __sti___11_qsensor_cpp                   0x0000a157   Thumb Code    58  qsensor.o(.text)
    .text                                    0x0000a258   Section      572  qaccelerometer.o(.text)
    .text                                    0x0000a494   Section      528  qambientlightsensor.o(.text)
    .text                                    0x0000a6a4   Section      532  qcompass.o(.text)
    .text                                    0x0000a8b8   Section      612  qmagnetometer.o(.text)
    .text                                    0x0000ab1c   Section      532  qorientationsensor.o(.text)
    .text                                    0x0000ad30   Section      488  qproximitysensor.o(.text)
    .text                                    0x0000af18   Section      572  qrotationsensor.o(.text)
    .text                                    0x0000b154   Section      600  qtapsensor.o(.text)
    .text                                    0x0000b3ac   Section       24  switch8.o(.text)
    .text                                    0x0000b3c4   Section       80  uc_dll.o(.text)
    .text                                    0x0000b414   Section      180  ucppfini.o(.text)
    .text                                    0x0000b4c8   Section        4  dllexp.o(.text)
    .text.clean                              0x0000b4cc   Section       26  qsensorbackend.o(.text.clean)
    .text.clean                              0x0000b4e8   Section      292  qsensormanager.o(.text.clean)
    .text.clean                              0x0000b60c   Section      234  qsensorpluginloader.o(.text.clean)
    .text.clean                              0x0000b6f6   Section      182  qsensor.o(.text.clean)
    .text.clean                              0x0000b7ac   Section       20  qaccelerometer.o(.text.clean)
    .text.clean                              0x0000b7c0   Section       20  qambientlightsensor.o(.text.clean)
    .text.clean                              0x0000b7d4   Section       20  qcompass.o(.text.clean)
    .text.clean                              0x0000b7e8   Section       20  qmagnetometer.o(.text.clean)
    .text.clean                              0x0000b7fc   Section       20  qorientationsensor.o(.text.clean)
    .text.clean                              0x0000b810   Section       20  qproximitysensor.o(.text.clean)
    .text.clean                              0x0000b824   Section       20  qrotationsensor.o(.text.clean)
    .text.clean                              0x0000b838   Section       20  qtapsensor.o(.text.clean)
    i._Z6qDebugv                             0x0000b84c   Section      112  qsensormanager.o(i._Z6qDebugv)
    i._Z6qDebugv.clean                       0x0000b8bc   Section       24  qsensormanager.o(i._Z6qDebugv.clean)
    i._Z8qWarningv                           0x0000b8d4   Section       88  qsensorpluginloader.o(i._Z8qWarningv)
    i._Z8qWarningv.clean                     0x0000b92c   Section       24  qsensorpluginloader.o(i._Z8qWarningv.clean)
    i._ZN10QByteArrayC1ERKS_                 0x0000b944   Section       20  qsensormanager.o(i._ZN10QByteArrayC1ERKS_)
    i._ZN10QByteArrayC1Ev                    0x0000b958   Section       24  qsensormanager.o(i._ZN10QByteArrayC1Ev)
    i._ZN10QByteArrayD1Ev                    0x0000b970   Section       24  qsensorbackend.o(i._ZN10QByteArrayD1Ev)
    i._ZN10QtMobility10QTapSensorD0Ev        0x0000b988   Section       28  qtapsensor.o(i._ZN10QtMobility10QTapSensorD0Ev)
    i._ZN10QtMobility10QTapSensorD1Ev        0x0000b9a4   Section       14  qtapsensor.o(i._ZN10QtMobility10QTapSensorD1Ev)
    i._ZN10QtMobility13QMagnetometerD0Ev     0x0000b9b2   Section       28  qmagnetometer.o(i._ZN10QtMobility13QMagnetometerD0Ev)
    i._ZN10QtMobility13QMagnetometerD1Ev     0x0000b9ce   Section       14  qmagnetometer.o(i._ZN10QtMobility13QMagnetometerD1Ev)
    i._ZN10QtMobility14QAccelerometerD0Ev    0x0000b9dc   Section       28  qaccelerometer.o(i._ZN10QtMobility14QAccelerometerD0Ev)
    i._ZN10QtMobility14QAccelerometerD1Ev    0x0000b9f8   Section       14  qaccelerometer.o(i._ZN10QtMobility14QAccelerometerD1Ev)
    i._ZN10QtMobility14QSensorPrivateC1Ev    0x0000ba08   Section      116  qsensor.o(i._ZN10QtMobility14QSensorPrivateC1Ev)
    i._ZN10QtMobility14QSensorPrivateC1Ev.clean 0x0000ba7c   Section       54  qsensor.o(i._ZN10QtMobility14QSensorPrivateC1Ev.clean)
    i._ZN10QtMobility15QRotationSensorD0Ev   0x0000bab2   Section       28  qrotationsensor.o(i._ZN10QtMobility15QRotationSensorD0Ev)
    i._ZN10QtMobility15QRotationSensorD1Ev   0x0000bace   Section       14  qrotationsensor.o(i._ZN10QtMobility15QRotationSensorD1Ev)
    i._ZN10QtMobility15mobilityPluginsERK7QString 0x0000badc   Section      716  qsensorpluginloader.o(i._ZN10QtMobility15mobilityPluginsERK7QString)
    i._ZN10QtMobility15mobilityPluginsERK7QString.clean 0x0000bda8   Section      124  qsensorpluginloader.o(i._ZN10QtMobility15mobilityPluginsERK7QString.clean)
    i._ZN10QtMobility16QProximitySensorD0Ev  0x0000be24   Section       28  qproximitysensor.o(i._ZN10QtMobility16QProximitySensorD0Ev)
    i._ZN10QtMobility16QProximitySensorD1Ev  0x0000be40   Section       14  qproximitysensor.o(i._ZN10QtMobility16QProximitySensorD1Ev)
    i._ZN10QtMobility18QOrientationSensorD0Ev 0x0000be4e   Section       28  qorientationsensor.o(i._ZN10QtMobility18QOrientationSensorD0Ev)
    i._ZN10QtMobility18QOrientationSensorD1Ev 0x0000be6a   Section       14  qorientationsensor.o(i._ZN10QtMobility18QOrientationSensorD1Ev)
    i._ZN10QtMobility19QAmbientLightSensorD0Ev 0x0000be78   Section       28  qambientlightsensor.o(i._ZN10QtMobility19QAmbientLightSensorD0Ev)
    i._ZN10QtMobility19QAmbientLightSensorD1Ev 0x0000be94   Section       14  qambientlightsensor.o(i._ZN10QtMobility19QAmbientLightSensorD1Ev)
    i._ZN10QtMobility21QSensorManagerPrivateD1Ev 0x0000bea2   Section       40  qsensormanager.o(i._ZN10QtMobility21QSensorManagerPrivateD1Ev)
    i._ZN10QtMobility21QSensorManagerPrivateD1Ev.clean 0x0000beca   Section       22  qsensormanager.o(i._ZN10QtMobility21QSensorManagerPrivateD1Ev.clean)
    i._ZN10QtMobility8QCompassD0Ev           0x0000bee0   Section       28  qcompass.o(i._ZN10QtMobility8QCompassD0Ev)
    i._ZN10QtMobility8QCompassD1Ev           0x0000befc   Section       14  qcompass.o(i._ZN10QtMobility8QCompassD1Ev)
    i._ZN11QStringListC1Ev                   0x0000bf0c   Section       24  qsensorpluginloader.o(i._ZN11QStringListC1Ev)
    i._ZN11QStringListD1Ev                   0x0000bf24   Section       14  qsensorpluginloader.o(i._ZN11QStringListD1Ev)
    i._ZN15QBasicAtomicInt3refEv             0x0000bf32   Section       24  qsensorbackend.o(i._ZN15QBasicAtomicInt3refEv)
    i._ZN15QBasicAtomicInt5derefEv           0x0000bf4a   Section       24  qsensorbackend.o(i._ZN15QBasicAtomicInt5derefEv)
    i._ZN17QForeachContainerI5QListI10QByteArrayEED1Ev 0x0000bf62   Section       14  qsensormanager.o(i._ZN17QForeachContainerI5QListI10QByteArrayEED1Ev)
    i._ZN17QForeachContainerI5QListIP13QPluginLoaderEED1Ev 0x0000bf70   Section       14  qsensorpluginloader.o(i._ZN17QForeachContainerI5QListIP13QPluginLoaderEED1Ev)
    i._ZN17QForeachContainerI5QListIPFPN10QtMobility22QSensorPluginInterfaceEvEEED1Ev 0x0000bf7e   Section       14  qsensormanager.o(i._ZN17QForeachContainerI5QListIPFPN10QtMobility22QSensorPluginInterfaceEvEEED1Ev)
    i._ZN17QForeachContainerI5QListIPN10QtMobility13QSensorFilterEEED1Ev 0x0000bf8c   Section       14  qsensor.o(i._ZN17QForeachContainerI5QListIPN10QtMobility13QSensorFilterEEED1Ev)
    i._ZN17QForeachContainerI5QListIPN10QtMobility22QSensorPluginInterfaceEEED1Ev 0x0000bf9a   Section       14  qsensormanager.o(i._ZN17QForeachContainerI5QListIPN10QtMobility22QSensorPluginInterfaceEEED1Ev)
    i._ZN4QSetI7QStringED1Ev                 0x0000bfa8   Section       14  qsensorpluginloader.o(i._ZN4QSetI7QStringED1Ev)
    i._ZN5QPairIiiEC1ERKS0_                  0x0000bfb6   Section       10  qsensorbackend.o(i._ZN5QPairIiiEC1ERKS0_)
    i._ZN6QDebug10maybeSpaceEv               0x0000bfc0   Section       24  qsensormanager.o(i._ZN6QDebug10maybeSpaceEv)
    i._ZN6QDebugD1Ev                         0x0000bfd8   Section      144  qsensorbackend.o(i._ZN6QDebugD1Ev)
    i._ZN6QDebugD1Ev.clean                   0x0000c068   Section       20  qsensorbackend.o(i._ZN6QDebugD1Ev.clean)
    i._ZN6QDebuglsEPKc                       0x0000c07c   Section       44  qsensormanager.o(i._ZN6QDebuglsEPKc)
    i._ZN6QDebuglsEPKc.clean                 0x0000c0a8   Section       10  qsensormanager.o(i._ZN6QDebuglsEPKc.clean)
    i._ZN6QDebuglsERK7QString                0x0000c0b2   Section       38  qsensorpluginloader.o(i._ZN6QDebuglsERK7QString)
    i._ZN6QDebuglsEi                         0x0000c0d8   Section       22  qsensor.o(i._ZN6QDebuglsEi)
    i._ZN7QStringC1ERK13QLatin1String        0x0000c0ee   Section       26  qsensormanager.o(i._ZN7QStringC1ERK13QLatin1String)
    i._ZN7QStringC1ERKS_                     0x0000c108   Section       22  qsensorpluginloader.o(i._ZN7QStringC1ERKS_)
    i._ZN7QStringC1Ev                        0x0000c120   Section       24  qsensorpluginloader.o(i._ZN7QStringC1Ev)
    i._ZN7QStringD1Ev                        0x0000c138   Section       24  qsensorbackend.o(i._ZN7QStringD1Ev)
    i._ZN9QHashData8willGrowEv               0x0000c150   Section       32  qsensormanager.o(i._ZN9QHashData8willGrowEv)
    i._ZN9QHashData9firstNodeEv              0x0000c170   Section       36  qsensormanager.o(i._ZN9QHashData9firstNodeEv)
    i._ZNK15QBasicAtomicIntneEi              0x0000c194   Section       16  qsensorbackend.o(i._ZNK15QBasicAtomicIntneEi)
    i._ZNK15QBasicAtomicIntntEv              0x0000c1a4   Section       16  qsensor.o(i._ZNK15QBasicAtomicIntntEv)
    i._ZNK9QListData2atEi                    0x0000c1b4   Section       20  qsensor.o(i._ZNK9QListData2atEi)
    i._ZNK9QListData3endEv                   0x0000c1c8   Section       16  qsensorbackend.o(i._ZNK9QListData3endEv)
    i._ZNK9QListData4sizeEv                  0x0000c1d8   Section       14  qsensor.o(i._ZNK9QListData4sizeEv)
    i._ZNK9QListData5beginEv                 0x0000c1e6   Section       16  qsensorbackend.o(i._ZNK9QListData5beginEv)
    i._ZdlPvS_                               0x0000c1f6   Section        2  qsensormanager.o(i._ZdlPvS_)
    i._ZeqRK10QByteArrayS1_                  0x0000c1f8   Section       68  qsensormanager.o(i._ZeqRK10QByteArrayS1_)
    i._ZnwjPv                                0x0000c23c   Section        6  qsensormanager.o(i._ZnwjPv)
    t._Z17qRegisterMetaTypeI5QListI5QPairIiiEEEiPKcPT_ 0x0000c244   Section      136  qsensor.o(t._Z17qRegisterMetaTypeI5QListI5QPairIiiEEEiPKcPT_)
    t._Z17qRegisterMetaTypeI5QListIN10QtMobility12qoutputrangeEEEiPKcPT_ 0x0000c2cc   Section      144  qsensor.o(t._Z17qRegisterMetaTypeI5QListIN10QtMobility12qoutputrangeEEEiPKcPT_)
    t._Z17qRegisterMetaTypeI5QPairIiiEEiPKcPT_ 0x0000c35c   Section      132  qsensor.o(t._Z17qRegisterMetaTypeI5QPairIiiEEiPKcPT_)
    t._Z17qRegisterMetaTypeIN10QtMobility10qtimestampEEiPKcPT_ 0x0000c3e0   Section      136  qsensor.o(t._Z17qRegisterMetaTypeIN10QtMobility10qtimestampEEiPKcPT_)
    t._Z20qForeachContainerNewI5QListIPN10QtMobility22QSensorPluginInterfaceEEE17QForeachContainerIT_ERKS6_ 0x0000c468   Section      102  qsensormanager.o(t._Z20qForeachContainerNewI5QListIPN10QtMobility22QSensorPluginInterfaceEEE17QForeachContainerIT_ERKS6_)
    t._Z20qForeachContainerNewI5QListIPN10QtMobility22QSensorPluginInterfaceEEE17QForeachContainerIT_ERKS6_.clean 0x0000c4ce   Section       10  qsensormanager.o(t._Z20qForeachContainerNewI5QListIPN10QtMobility22QSensorPluginInterfaceEEE17QForeachContainerIT_ERKS6_.clean)
    t._Z21qMetaTypeDeleteHelperI5QListI5QPairIiiEEEvPT_ 0x0000c4d8   Section       22  qsensor.o(t._Z21qMetaTypeDeleteHelperI5QListI5QPairIiiEEEvPT_)
    t._Z21qMetaTypeDeleteHelperI5QListIN10QtMobility12qoutputrangeEEEvPT_ 0x0000c4ee   Section       22  qsensor.o(t._Z21qMetaTypeDeleteHelperI5QListIN10QtMobility12qoutputrangeEEEvPT_)
    t._Z21qMetaTypeDeleteHelperI5QPairIiiEEvPT_ 0x0000c504   Section       12  qsensor.o(t._Z21qMetaTypeDeleteHelperI5QPairIiiEEvPT_)
    t._Z21qMetaTypeDeleteHelperIN10QtMobility10qtimestampEEvPT_ 0x0000c510   Section       12  qsensor.o(t._Z21qMetaTypeDeleteHelperIN10QtMobility10qtimestampEEvPT_)
    t._Z24qMetaTypeConstructHelperI5QListI5QPairIiiEEEPvPKT_ 0x0000c51c   Section       80  qsensor.o(t._Z24qMetaTypeConstructHelperI5QListI5QPairIiiEEEPvPKT_)
    t._Z24qMetaTypeConstructHelperI5QListI5QPairIiiEEEPvPKT_.clean 0x0000c56c   Section       28  qsensor.o(t._Z24qMetaTypeConstructHelperI5QListI5QPairIiiEEEPvPKT_.clean)
    t._Z24qMetaTypeConstructHelperI5QListIN10QtMobility12qoutputrangeEEEPvPKT_ 0x0000c588   Section       80  qsensor.o(t._Z24qMetaTypeConstructHelperI5QListIN10QtMobility12qoutputrangeEEEPvPKT_)
    t._Z24qMetaTypeConstructHelperI5QListIN10QtMobility12qoutputrangeEEEPvPKT_.clean 0x0000c5d8   Section       28  qsensor.o(t._Z24qMetaTypeConstructHelperI5QListIN10QtMobility12qoutputrangeEEEPvPKT_.clean)
    t._Z24qMetaTypeConstructHelperI5QPairIiiEEPvPKT_ 0x0000c5f4   Section       90  qsensor.o(t._Z24qMetaTypeConstructHelperI5QPairIiiEEPvPKT_)
    t._Z24qMetaTypeConstructHelperI5QPairIiiEEPvPKT_.clean 0x0000c64e   Section        4  qsensor.o(t._Z24qMetaTypeConstructHelperI5QPairIiiEEPvPKT_.clean)
    t._Z24qMetaTypeConstructHelperIN10QtMobility10qtimestampEEPvPKT_ 0x0000c654   Section       92  qsensor.o(t._Z24qMetaTypeConstructHelperIN10QtMobility10qtimestampEEPvPKT_)
    t._Z24qMetaTypeConstructHelperIN10QtMobility10qtimestampEEPvPKT_.clean 0x0000c6b0   Section        4  qsensor.o(t._Z24qMetaTypeConstructHelperIN10QtMobility10qtimestampEEPvPKT_.clean)
    t._ZN14QHashDummyNodeI7QString15QHashDummyValueEC1ERKS0_ 0x0000c6b4   Section       24  qsensorpluginloader.o(t._ZN14QHashDummyNodeI7QString15QHashDummyValueEC1ERKS0_)
    t._ZN14QScopedPointerIN10QtMobility14QSensorPrivateE21QScopedPointerDeleterIS1_EED1Ev 0x0000c6cc   Section       90  qsensor.o(t._ZN14QScopedPointerIN10QtMobility14QSensorPrivateE21QScopedPointerDeleterIS1_EED1Ev)
    t._ZN14QScopedPointerIN10QtMobility14QSensorPrivateE21QScopedPointerDeleterIS1_EED1Ev.clean 0x0000c726   Section       54  qsensor.o(t._ZN14QScopedPointerIN10QtMobility14QSensorPrivateE21QScopedPointerDeleterIS1_EED1Ev.clean)
    t._ZN14QScopedPointerIN10QtMobility18QTapReadingPrivateE21QScopedPointerDeleterIS1_EED1Ev 0x0000c75c   Section       22  qtapsensor.o(t._ZN14QScopedPointerIN10QtMobility18QTapReadingPrivateE21QScopedPointerDeleterIS1_EED1Ev)
    t._ZN14QScopedPointerIN10QtMobility21QSensorReadingPrivateE21QScopedPointerDeleterIS1_EED1Ev 0x0000c772   Section       22  qsensor.o(t._ZN14QScopedPointerIN10QtMobility21QSensorReadingPrivateE21QScopedPointerDeleterIS1_EED1Ev)
    t._ZN14QScopedPointerIN10QtMobility22QCompassReadingPrivateE21QScopedPointerDeleterIS1_EED1Ev 0x0000c788   Section       22  qcompass.o(t._ZN14QScopedPointerIN10QtMobility22QCompassReadingPrivateE21QScopedPointerDeleterIS1_EED1Ev)
    t._ZN14QScopedPointerIN10QtMobility23QRotationReadingPrivateE21QScopedPointerDeleterIS1_EED1Ev 0x0000c79e   Section       22  qrotationsensor.o(t._ZN14QScopedPointerIN10QtMobility23QRotationReadingPrivateE21QScopedPointerDeleterIS1_EED1Ev)
    t._ZN14QScopedPointerIN10QtMobility24QProximityReadingPrivateE21QScopedPointerDeleterIS1_EED1Ev 0x0000c7b4   Section       22  qproximitysensor.o(t._ZN14QScopedPointerIN10QtMobility24QProximityReadingPrivateE21QScopedPointerDeleterIS1_EED1Ev)
    t._ZN14QScopedPointerIN10QtMobility26QOrientationReadingPrivateE21QScopedPointerDeleterIS1_EED1Ev 0x0000c7ca   Section       22  qorientationsensor.o(t._ZN14QScopedPointerIN10QtMobility26QOrientationReadingPrivateE21QScopedPointerDeleterIS1_EED1Ev)
    t._ZN14QScopedPointerIN10QtMobility27QAmbientLightReadingPrivateE21QScopedPointerDeleterIS1_EED1Ev 0x0000c7e0   Section       22  qambientlightsensor.o(t._ZN14QScopedPointerIN10QtMobility27QAmbientLightReadingPrivateE21QScopedPointerDeleterIS1_EED1Ev)
    t._ZN14QScopedPointerIN10QtMobility27QMagnetometerReadingPrivateE21QScopedPointerDeleterIS1_EED1Ev 0x0000c7f6   Section       22  qmagnetometer.o(t._ZN14QScopedPointerIN10QtMobility27QMagnetometerReadingPrivateE21QScopedPointerDeleterIS1_EED1Ev)
    t._ZN14QScopedPointerIN10QtMobility28QAccelerometerReadingPrivateE21QScopedPointerDeleterIS1_EED1Ev 0x0000c80c   Section       22  qaccelerometer.o(t._ZN14QScopedPointerIN10QtMobility28QAccelerometerReadingPrivateE21QScopedPointerDeleterIS1_EED1Ev)
    t._ZN20QGlobalStaticDeleterIN10QtMobility19QSensorPluginLoaderEED1Ev 0x0000c822   Section       42  qsensormanager.o(t._ZN20QGlobalStaticDeleterIN10QtMobility19QSensorPluginLoaderEED1Ev)
    t._ZN20QGlobalStaticDeleterIN10QtMobility21QSensorManagerPrivateEED1Ev 0x0000c84c   Section       42  qsensormanager.o(t._ZN20QGlobalStaticDeleterIN10QtMobility21QSensorManagerPrivateEED1Ev)
    t._ZN4QSetI7QStringE6insertERKS0_        0x0000c876   Section       46  qsensorpluginloader.o(t._ZN4QSetI7QStringE6insertERKS0_)
    t._ZN5QHashI10QByteArrayPN10QtMobility21QSensorBackendFactoryEE11deleteNode2EPN9QHashData4NodeE 0x0000c8a4   Section       24  qsensormanager.o(t._ZN5QHashI10QByteArrayPN10QtMobility21QSensorBackendFactoryEE11deleteNode2EPN9QHashData4NodeE)
    t._ZN5QHashI10QByteArrayPN10QtMobility21QSensorBackendFactoryEE13detach_helperEv 0x0000c8bc   Section       60  qsensormanager.o(t._ZN5QHashI10QByteArrayPN10QtMobility21QSensorBackendFactoryEE13detach_helperEv)
    t._ZN5QHashI10QByteArrayPN10QtMobility21QSensorBackendFactoryEE13duplicateNodeEPN9QHashData4NodeEPv 0x0000c8f8   Section       46  qsensormanager.o(t._ZN5QHashI10QByteArrayPN10QtMobility21QSensorBackendFactoryEE13duplicateNodeEPN9QHashData4NodeEPv)
    t._ZN5QHashI10QByteArrayPN10QtMobility21QSensorBackendFactoryEE13duplicateNodeEPN9QHashData4NodeEPv.clean 0x0000c926   Section       14  qsensormanager.o(t._ZN5QHashI10QByteArrayPN10QtMobility21QSensorBackendFactoryEE13duplicateNodeEPN9QHashData4NodeEPv.clean)
    t._ZN5QHashI10QByteArrayPN10QtMobility21QSensorBackendFactoryEE6detachEv 0x0000c934   Section       28  qsensormanager.o(t._ZN5QHashI10QByteArrayPN10QtMobility21QSensorBackendFactoryEE6detachEv)
    t._ZN5QHashI10QByteArrayPN10QtMobility21QSensorBackendFactoryEE8freeDataEP9QHashData 0x0000c950   Section       20  qsensormanager.o(t._ZN5QHashI10QByteArrayPN10QtMobility21QSensorBackendFactoryEE8freeDataEP9QHashData)
    t._ZN5QHashI10QByteArrayPN10QtMobility21QSensorBackendFactoryEED1Ev 0x0000c964   Section       30  qsensormanager.o(t._ZN5QHashI10QByteArrayPN10QtMobility21QSensorBackendFactoryEED1Ev)
    t._ZN5QHashI10QByteArrayPN10QtMobility21QSensorBackendFactoryEEixERKS0_ 0x0000c982   Section      164  qsensormanager.o(t._ZN5QHashI10QByteArrayPN10QtMobility21QSensorBackendFactoryEEixERKS0_)
    t._ZN5QHashI10QByteArrayPN10QtMobility21QSensorBackendFactoryEEixERKS0_.clean 0x0000ca26   Section       14  qsensormanager.o(t._ZN5QHashI10QByteArrayPN10QtMobility21QSensorBackendFactoryEEixERKS0_.clean)
    t._ZN5QHashI10QByteArrayS0_E11deleteNode2EPN9QHashData4NodeE 0x0000ca34   Section       36  qsensormanager.o(t._ZN5QHashI10QByteArrayS0_E11deleteNode2EPN9QHashData4NodeE)
    t._ZN5QHashI10QByteArrayS0_E11deleteNode2EPN9QHashData4NodeE.clean 0x0000ca58   Section       12  qsensormanager.o(t._ZN5QHashI10QByteArrayS0_E11deleteNode2EPN9QHashData4NodeE.clean)
    t._ZN5QHashI10QByteArrayS0_E13detach_helperEv 0x0000ca64   Section       60  qsensormanager.o(t._ZN5QHashI10QByteArrayS0_E13detach_helperEv)
    t._ZN5QHashI10QByteArrayS0_E13duplicateNodeEPN9QHashData4NodeEPv 0x0000caa0   Section       46  qsensormanager.o(t._ZN5QHashI10QByteArrayS0_E13duplicateNodeEPN9QHashData4NodeEPv)
    t._ZN5QHashI10QByteArrayS0_E13duplicateNodeEPN9QHashData4NodeEPv.clean 0x0000cace   Section       14  qsensormanager.o(t._ZN5QHashI10QByteArrayS0_E13duplicateNodeEPN9QHashData4NodeEPv.clean)
    t._ZN5QHashI10QByteArrayS0_E8freeDataEP9QHashData 0x0000cadc   Section       20  qsensormanager.o(t._ZN5QHashI10QByteArrayS0_E8freeDataEP9QHashData)
    t._ZN5QHashI10QByteArrayS0_ED1Ev         0x0000caf0   Section       30  qsensormanager.o(t._ZN5QHashI10QByteArrayS0_ED1Ev)
    t._ZN5QHashI10QByteArrayS0_EixERKS0_     0x0000cb0e   Section      208  qsensormanager.o(t._ZN5QHashI10QByteArrayS0_EixERKS0_)
    t._ZN5QHashI10QByteArrayS0_EixERKS0_.clean 0x0000cbde   Section       24  qsensormanager.o(t._ZN5QHashI10QByteArrayS0_EixERKS0_.clean)
    t._ZN5QHashI10QByteArrayS_IS0_PN10QtMobility21QSensorBackendFactoryEEE11deleteNode2EPN9QHashData4NodeE 0x0000cbf6   Section       36  qsensormanager.o(t._ZN5QHashI10QByteArrayS_IS0_PN10QtMobility21QSensorBackendFactoryEEE11deleteNode2EPN9QHashData4NodeE)
    t._ZN5QHashI10QByteArrayS_IS0_PN10QtMobility21QSensorBackendFactoryEEE11deleteNode2EPN9QHashData4NodeE.clean 0x0000cc1a   Section       12  qsensormanager.o(t._ZN5QHashI10QByteArrayS_IS0_PN10QtMobility21QSensorBackendFactoryEEE11deleteNode2EPN9QHashData4NodeE.clean)
    t._ZN5QHashI10QByteArrayS_IS0_PN10QtMobility21QSensorBackendFactoryEEE13detach_helperEv 0x0000cc28   Section       60  qsensormanager.o(t._ZN5QHashI10QByteArrayS_IS0_PN10QtMobility21QSensorBackendFactoryEEE13detach_helperEv)
    t._ZN5QHashI10QByteArrayS_IS0_PN10QtMobility21QSensorBackendFactoryEEE13duplicateNodeEPN9QHashData4NodeEPv 0x0000cc64   Section       46  qsensormanager.o(t._ZN5QHashI10QByteArrayS_IS0_PN10QtMobility21QSensorBackendFactoryEEE13duplicateNodeEPN9QHashData4NodeEPv)
    t._ZN5QHashI10QByteArrayS_IS0_PN10QtMobility21QSensorBackendFactoryEEE13duplicateNodeEPN9QHashData4NodeEPv.clean 0x0000cc92   Section       14  qsensormanager.o(t._ZN5QHashI10QByteArrayS_IS0_PN10QtMobility21QSensorBackendFactoryEEE13duplicateNodeEPN9QHashData4NodeEPv.clean)
    t._ZN5QHashI10QByteArrayS_IS0_PN10QtMobility21QSensorBackendFactoryEEE8freeDataEP9QHashData 0x0000cca0   Section       20  qsensormanager.o(t._ZN5QHashI10QByteArrayS_IS0_PN10QtMobility21QSensorBackendFactoryEEE8freeDataEP9QHashData)
    t._ZN5QHashI10QByteArrayS_IS0_PN10QtMobility21QSensorBackendFactoryEEED1Ev 0x0000ccb4   Section       30  qsensormanager.o(t._ZN5QHashI10QByteArrayS_IS0_PN10QtMobility21QSensorBackendFactoryEEED1Ev)
    t._ZN5QHashI10QByteArrayS_IS0_PN10QtMobility21QSensorBackendFactoryEEEixERKS0_ 0x0000ccd4   Section      224  qsensormanager.o(t._ZN5QHashI10QByteArrayS_IS0_PN10QtMobility21QSensorBackendFactoryEEEixERKS0_)
    t._ZN5QHashI10QByteArrayS_IS0_PN10QtMobility21QSensorBackendFactoryEEEixERKS0_.clean 0x0000cdb4   Section       24  qsensormanager.o(t._ZN5QHashI10QByteArrayS_IS0_PN10QtMobility21QSensorBackendFactoryEEEixERKS0_.clean)
    t._ZN5QHashI7QString15QHashDummyValueE11deleteNode2EPN9QHashData4NodeE 0x0000cdcc   Section       24  qsensorpluginloader.o(t._ZN5QHashI7QString15QHashDummyValueE11deleteNode2EPN9QHashData4NodeE)
    t._ZN5QHashI7QString15QHashDummyValueE13detach_helperEv 0x0000cde4   Section       60  qsensorpluginloader.o(t._ZN5QHashI7QString15QHashDummyValueE13detach_helperEv)
    t._ZN5QHashI7QString15QHashDummyValueE13duplicateNodeEPN9QHashData4NodeEPv 0x0000ce20   Section       44  qsensorpluginloader.o(t._ZN5QHashI7QString15QHashDummyValueE13duplicateNodeEPN9QHashData4NodeEPv)
    t._ZN5QHashI7QString15QHashDummyValueE13duplicateNodeEPN9QHashData4NodeEPv.clean 0x0000ce4c   Section       12  qsensorpluginloader.o(t._ZN5QHashI7QString15QHashDummyValueE13duplicateNodeEPN9QHashData4NodeEPv.clean)
    t._ZN5QHashI7QString15QHashDummyValueE6insertERKS0_RKS1_ 0x0000ce58   Section      208  qsensorpluginloader.o(t._ZN5QHashI7QString15QHashDummyValueE6insertERKS0_RKS1_)
    t._ZN5QHashI7QString15QHashDummyValueE6insertERKS0_RKS1_.clean 0x0000cf28   Section       12  qsensorpluginloader.o(t._ZN5QHashI7QString15QHashDummyValueE6insertERKS0_RKS1_.clean)
    t._ZN5QHashI7QString15QHashDummyValueE8freeDataEP9QHashData 0x0000cf34   Section       20  qsensorpluginloader.o(t._ZN5QHashI7QString15QHashDummyValueE8freeDataEP9QHashData)
    t._ZN5QHashI7QString15QHashDummyValueED1Ev 0x0000cf48   Section       30  qsensorpluginloader.o(t._ZN5QHashI7QString15QHashDummyValueED1Ev)
    t._ZN5QListI10QByteArrayE13detach_helperEi 0x0000cf66   Section       94  qsensormanager.o(t._ZN5QListI10QByteArrayE13detach_helperEi)
    t._ZN5QListI10QByteArrayE13detach_helperEi.clean 0x0000cfc4   Section        8  qsensormanager.o(t._ZN5QListI10QByteArrayE13detach_helperEi.clean)
    t._ZN5QListI10QByteArrayE13detach_helperEv 0x0000cfcc   Section       16  qsensormanager.o(t._ZN5QListI10QByteArrayE13detach_helperEv)
    t._ZN5QListI10QByteArrayE13node_destructEPNS1_4NodeES3_ 0x0000cfdc   Section       26  qsensormanager.o(t._ZN5QListI10QByteArrayE13node_destructEPNS1_4NodeES3_)
    t._ZN5QListI10QByteArrayE14node_constructEPNS1_4NodeERKS0_ 0x0000cff6   Section       36  qsensormanager.o(t._ZN5QListI10QByteArrayE14node_constructEPNS1_4NodeERKS0_)
    t._ZN5QListI10QByteArrayE14node_constructEPNS1_4NodeERKS0_.clean 0x0000d01a   Section       14  qsensormanager.o(t._ZN5QListI10QByteArrayE14node_constructEPNS1_4NodeERKS0_.clean)
    t._ZN5QListI10QByteArrayE18detach_helper_growEii 0x0000d028   Section      208  qsensormanager.o(t._ZN5QListI10QByteArrayE18detach_helper_growEii)
    t._ZN5QListI10QByteArrayE18detach_helper_growEii.clean 0x0000d0f8   Section       16  qsensormanager.o(t._ZN5QListI10QByteArrayE18detach_helper_growEii.clean)
    t._ZN5QListI10QByteArrayE4freeEPN9QListData4DataE 0x0000d108   Section       58  qsensormanager.o(t._ZN5QListI10QByteArrayE4freeEPN9QListData4DataE)
    t._ZN5QListI10QByteArrayE6appendERKS0_   0x0000d144   Section      120  qsensormanager.o(t._ZN5QListI10QByteArrayE6appendERKS0_)
    t._ZN5QListI10QByteArrayE6appendERKS0_.clean 0x0000d1bc   Section       14  qsensormanager.o(t._ZN5QListI10QByteArrayE6appendERKS0_.clean)
    t._ZN5QListI10QByteArrayE7reserveEi      0x0000d1ca   Section       46  qsensormanager.o(t._ZN5QListI10QByteArrayE7reserveEi)
    t._ZN5QListI10QByteArrayE9node_copyEPNS1_4NodeES3_S3_ 0x0000d1f8   Section       82  qsensormanager.o(t._ZN5QListI10QByteArrayE9node_copyEPNS1_4NodeES3_S3_)
    t._ZN5QListI10QByteArrayE9node_copyEPNS1_4NodeES3_S3_.clean 0x0000d24a   Section       22  qsensormanager.o(t._ZN5QListI10QByteArrayE9node_copyEPNS1_4NodeES3_S3_.clean)
    t._ZN5QListI10QByteArrayEC1Ev            0x0000d260   Section       24  qsensormanager.o(t._ZN5QListI10QByteArrayEC1Ev)
    t._ZN5QListI10QByteArrayED1Ev            0x0000d278   Section       32  qsensormanager.o(t._ZN5QListI10QByteArrayED1Ev)
    t._ZN5QListI5QPairIiiEE13detach_helperEi 0x0000d298   Section       94  qsensorbackend.o(t._ZN5QListI5QPairIiiEE13detach_helperEi)
    t._ZN5QListI5QPairIiiEE13detach_helperEi.clean 0x0000d2f6   Section        8  qsensorbackend.o(t._ZN5QListI5QPairIiiEE13detach_helperEi.clean)
    t._ZN5QListI5QPairIiiEE13detach_helperEv 0x0000d2fe   Section       16  qsensorbackend.o(t._ZN5QListI5QPairIiiEE13detach_helperEv)
    t._ZN5QListI5QPairIiiEE13node_destructEPNS2_4NodeES4_ 0x0000d30e   Section       26  qsensorbackend.o(t._ZN5QListI5QPairIiiEE13node_destructEPNS2_4NodeES4_)
    t._ZN5QListI5QPairIiiEE14node_constructEPNS2_4NodeERKS1_ 0x0000d328   Section       34  qsensorbackend.o(t._ZN5QListI5QPairIiiEE14node_constructEPNS2_4NodeERKS1_)
    t._ZN5QListI5QPairIiiEE14node_constructEPNS2_4NodeERKS1_.clean 0x0000d34a   Section        4  qsensorbackend.o(t._ZN5QListI5QPairIiiEE14node_constructEPNS2_4NodeERKS1_.clean)
    t._ZN5QListI5QPairIiiEE18detach_helper_growEii 0x0000d34e   Section      208  qsensorbackend.o(t._ZN5QListI5QPairIiiEE18detach_helper_growEii)
    t._ZN5QListI5QPairIiiEE18detach_helper_growEii.clean 0x0000d41e   Section       16  qsensorbackend.o(t._ZN5QListI5QPairIiiEE18detach_helper_growEii.clean)
    t._ZN5QListI5QPairIiiEE4freeEPN9QListData4DataE 0x0000d42e   Section       58  qsensorbackend.o(t._ZN5QListI5QPairIiiEE4freeEPN9QListData4DataE)
    t._ZN5QListI5QPairIiiEE6appendERKS1_     0x0000d468   Section      112  qsensorbackend.o(t._ZN5QListI5QPairIiiEE6appendERKS1_)
    t._ZN5QListI5QPairIiiEE6appendERKS1_.clean 0x0000d4d8   Section       14  qsensorbackend.o(t._ZN5QListI5QPairIiiEE6appendERKS1_.clean)
    t._ZN5QListI5QPairIiiEE9node_copyEPNS2_4NodeES4_S4_ 0x0000d4e6   Section       80  qsensorbackend.o(t._ZN5QListI5QPairIiiEE9node_copyEPNS2_4NodeES4_S4_)
    t._ZN5QListI5QPairIiiEE9node_copyEPNS2_4NodeES4_S4_.clean 0x0000d536   Section       22  qsensorbackend.o(t._ZN5QListI5QPairIiiEE9node_copyEPNS2_4NodeES4_S4_.clean)
    t._ZN5QListI5QPairIiiEEC1ERKS2_          0x0000d54c   Section       36  qsensor.o(t._ZN5QListI5QPairIiiEEC1ERKS2_)
    t._ZN5QListI5QPairIiiEEC1Ev              0x0000d570   Section       24  qsensor.o(t._ZN5QListI5QPairIiiEEC1Ev)
    t._ZN5QListI5QPairIiiEED1Ev              0x0000d588   Section       32  qsensorbackend.o(t._ZN5QListI5QPairIiiEED1Ev)
    t._ZN5QListI7QStringE13detach_helperEi   0x0000d5a8   Section       94  qsensorpluginloader.o(t._ZN5QListI7QStringE13detach_helperEi)
    t._ZN5QListI7QStringE13detach_helperEi.clean 0x0000d606   Section        8  qsensorpluginloader.o(t._ZN5QListI7QStringE13detach_helperEi.clean)
    t._ZN5QListI7QStringE13detach_helperEv   0x0000d60e   Section       16  qsensorpluginloader.o(t._ZN5QListI7QStringE13detach_helperEv)
    t._ZN5QListI7QStringE13node_destructEPNS1_4NodeES3_ 0x0000d61e   Section       26  qsensorpluginloader.o(t._ZN5QListI7QStringE13node_destructEPNS1_4NodeES3_)
    t._ZN5QListI7QStringE14node_constructEPNS1_4NodeERKS0_ 0x0000d638   Section       36  qsensorpluginloader.o(t._ZN5QListI7QStringE14node_constructEPNS1_4NodeERKS0_)
    t._ZN5QListI7QStringE14node_constructEPNS1_4NodeERKS0_.clean 0x0000d65c   Section       14  qsensorpluginloader.o(t._ZN5QListI7QStringE14node_constructEPNS1_4NodeERKS0_.clean)
    t._ZN5QListI7QStringE18detach_helper_growEii 0x0000d66a   Section      208  qsensorpluginloader.o(t._ZN5QListI7QStringE18detach_helper_growEii)
    t._ZN5QListI7QStringE18detach_helper_growEii.clean 0x0000d73a   Section       16  qsensorpluginloader.o(t._ZN5QListI7QStringE18detach_helper_growEii.clean)
    t._ZN5QListI7QStringE4freeEPN9QListData4DataE 0x0000d74a   Section       58  qsensorpluginloader.o(t._ZN5QListI7QStringE4freeEPN9QListData4DataE)
    t._ZN5QListI7QStringE6appendERKS0_       0x0000d784   Section      120  qsensorpluginloader.o(t._ZN5QListI7QStringE6appendERKS0_)
    t._ZN5QListI7QStringE6appendERKS0_.clean 0x0000d7fc   Section       14  qsensorpluginloader.o(t._ZN5QListI7QStringE6appendERKS0_.clean)
    t._ZN5QListI7QStringE9node_copyEPNS1_4NodeES3_S3_ 0x0000d80a   Section       82  qsensorpluginloader.o(t._ZN5QListI7QStringE9node_copyEPNS1_4NodeES3_S3_)
    t._ZN5QListI7QStringE9node_copyEPNS1_4NodeES3_S3_.clean 0x0000d85c   Section       22  qsensorpluginloader.o(t._ZN5QListI7QStringE9node_copyEPNS1_4NodeES3_S3_.clean)
    t._ZN5QListI7QStringED1Ev                0x0000d872   Section       32  qsensorpluginloader.o(t._ZN5QListI7QStringED1Ev)
    t._ZN5QListIN10QtMobility12qoutputrangeEE13detach_helperEi 0x0000d892   Section      184  qsensor.o(t._ZN5QListIN10QtMobility12qoutputrangeEE13detach_helperEi)
    t._ZN5QListIN10QtMobility12qoutputrangeEE13detach_helperEi.clean 0x0000d94a   Section       16  qsensor.o(t._ZN5QListIN10QtMobility12qoutputrangeEE13detach_helperEi.clean)
    t._ZN5QListIN10QtMobility12qoutputrangeEE13detach_helperEv 0x0000d95a   Section       16  qsensor.o(t._ZN5QListIN10QtMobility12qoutputrangeEE13detach_helperEv)
    t._ZN5QListIN10QtMobility12qoutputrangeEE13node_destructEPNS2_4NodeES4_ 0x0000d96a   Section       26  qsensorbackend.o(t._ZN5QListIN10QtMobility12qoutputrangeEE13node_destructEPNS2_4NodeES4_)
    t._ZN5QListIN10QtMobility12qoutputrangeEE14node_constructEPNS2_4NodeERKS1_ 0x0000d984   Section       32  qsensorbackend.o(t._ZN5QListIN10QtMobility12qoutputrangeEE14node_constructEPNS2_4NodeERKS1_)
    t._ZN5QListIN10QtMobility12qoutputrangeEE18detach_helper_growEii 0x0000d9a4   Section      208  qsensorbackend.o(t._ZN5QListIN10QtMobility12qoutputrangeEE18detach_helper_growEii)
    t._ZN5QListIN10QtMobility12qoutputrangeEE18detach_helper_growEii.clean 0x0000da74   Section       16  qsensorbackend.o(t._ZN5QListIN10QtMobility12qoutputrangeEE18detach_helper_growEii.clean)
    t._ZN5QListIN10QtMobility12qoutputrangeEE4freeEPN9QListData4DataE 0x0000da84   Section       58  qsensorbackend.o(t._ZN5QListIN10QtMobility12qoutputrangeEE4freeEPN9QListData4DataE)
    t._ZN5QListIN10QtMobility12qoutputrangeEE6appendERKS1_ 0x0000dac0   Section      112  qsensorbackend.o(t._ZN5QListIN10QtMobility12qoutputrangeEE6appendERKS1_)
    t._ZN5QListIN10QtMobility12qoutputrangeEE6appendERKS1_.clean 0x0000db30   Section       14  qsensorbackend.o(t._ZN5QListIN10QtMobility12qoutputrangeEE6appendERKS1_.clean)
    t._ZN5QListIN10QtMobility12qoutputrangeEE9node_copyEPNS2_4NodeES4_S4_ 0x0000db3e   Section       78  qsensorbackend.o(t._ZN5QListIN10QtMobility12qoutputrangeEE9node_copyEPNS2_4NodeES4_S4_)
    t._ZN5QListIN10QtMobility12qoutputrangeEE9node_copyEPNS2_4NodeES4_S4_.clean 0x0000db8c   Section        8  qsensorbackend.o(t._ZN5QListIN10QtMobility12qoutputrangeEE9node_copyEPNS2_4NodeES4_S4_.clean)
    t._ZN5QListIN10QtMobility12qoutputrangeEEC1ERKS2_ 0x0000db94   Section       36  qsensor.o(t._ZN5QListIN10QtMobility12qoutputrangeEEC1ERKS2_)
    t._ZN5QListIN10QtMobility12qoutputrangeEEC1Ev 0x0000dbb8   Section       24  qsensor.o(t._ZN5QListIN10QtMobility12qoutputrangeEEC1Ev)
    t._ZN5QListIN10QtMobility12qoutputrangeEED1Ev 0x0000dbd0   Section       32  qsensor.o(t._ZN5QListIN10QtMobility12qoutputrangeEED1Ev)
    t._ZN5QListIP13QPluginLoaderE13detach_helperEi 0x0000dbf0   Section       94  qsensorpluginloader.o(t._ZN5QListIP13QPluginLoaderE13detach_helperEi)
    t._ZN5QListIP13QPluginLoaderE13detach_helperEi.clean 0x0000dc4e   Section        8  qsensorpluginloader.o(t._ZN5QListIP13QPluginLoaderE13detach_helperEi.clean)
    t._ZN5QListIP13QPluginLoaderE13detach_helperEv 0x0000dc56   Section       16  qsensorpluginloader.o(t._ZN5QListIP13QPluginLoaderE13detach_helperEv)
    t._ZN5QListIP13QPluginLoaderE18detach_helper_growEii 0x0000dc66   Section      204  qsensorpluginloader.o(t._ZN5QListIP13QPluginLoaderE18detach_helper_growEii)
    t._ZN5QListIP13QPluginLoaderE18detach_helper_growEii.clean 0x0000dd32   Section       16  qsensorpluginloader.o(t._ZN5QListIP13QPluginLoaderE18detach_helper_growEii.clean)
    t._ZN5QListIP13QPluginLoaderE4freeEPN9QListData4DataE 0x0000dd42   Section       58  qsensorpluginloader.o(t._ZN5QListIP13QPluginLoaderE4freeEPN9QListData4DataE)
    t._ZN5QListIP13QPluginLoaderE6appendERKS1_ 0x0000dd7c   Section      100  qsensorpluginloader.o(t._ZN5QListIP13QPluginLoaderE6appendERKS1_)
    t._ZN5QListIP13QPluginLoaderE6appendERKS1_.clean 0x0000dde0   Section       10  qsensorpluginloader.o(t._ZN5QListIP13QPluginLoaderE6appendERKS1_.clean)
    t._ZN5QListIP13QPluginLoaderE9node_copyEPNS2_4NodeES4_S4_ 0x0000ddea   Section       46  qsensorpluginloader.o(t._ZN5QListIP13QPluginLoaderE9node_copyEPNS2_4NodeES4_S4_)
    t._ZN5QListIP13QPluginLoaderED1Ev        0x0000de18   Section       32  qsensorpluginloader.o(t._ZN5QListIP13QPluginLoaderED1Ev)
    t._ZN5QListIPFPN10QtMobility22QSensorPluginInterfaceEvEE13detach_helperEi 0x0000de38   Section       94  qsensormanager.o(t._ZN5QListIPFPN10QtMobility22QSensorPluginInterfaceEvEE13detach_helperEi)
    t._ZN5QListIPFPN10QtMobility22QSensorPluginInterfaceEvEE13detach_helperEi.clean 0x0000de96   Section        8  qsensormanager.o(t._ZN5QListIPFPN10QtMobility22QSensorPluginInterfaceEvEE13detach_helperEi.clean)
    t._ZN5QListIPFPN10QtMobility22QSensorPluginInterfaceEvEE13detach_helperEv 0x0000de9e   Section       16  qsensormanager.o(t._ZN5QListIPFPN10QtMobility22QSensorPluginInterfaceEvEE13detach_helperEv)
    t._ZN5QListIPFPN10QtMobility22QSensorPluginInterfaceEvEE18detach_helper_growEii 0x0000deae   Section      204  qsensormanager.o(t._ZN5QListIPFPN10QtMobility22QSensorPluginInterfaceEvEE18detach_helper_growEii)
    t._ZN5QListIPFPN10QtMobility22QSensorPluginInterfaceEvEE18detach_helper_growEii.clean 0x0000df7a   Section       16  qsensormanager.o(t._ZN5QListIPFPN10QtMobility22QSensorPluginInterfaceEvEE18detach_helper_growEii.clean)
    t._ZN5QListIPFPN10QtMobility22QSensorPluginInterfaceEvEE4freeEPN9QListData4DataE 0x0000df8a   Section       58  qsensormanager.o(t._ZN5QListIPFPN10QtMobility22QSensorPluginInterfaceEvEE4freeEPN9QListData4DataE)
    t._ZN5QListIPFPN10QtMobility22QSensorPluginInterfaceEvEE6appendERKS4_ 0x0000dfc4   Section      100  qsensormanager.o(t._ZN5QListIPFPN10QtMobility22QSensorPluginInterfaceEvEE6appendERKS4_)
    t._ZN5QListIPFPN10QtMobility22QSensorPluginInterfaceEvEE6appendERKS4_.clean 0x0000e028   Section       10  qsensormanager.o(t._ZN5QListIPFPN10QtMobility22QSensorPluginInterfaceEvEE6appendERKS4_.clean)
    t._ZN5QListIPFPN10QtMobility22QSensorPluginInterfaceEvEE9node_copyEPNS5_4NodeES7_S7_ 0x0000e032   Section       46  qsensormanager.o(t._ZN5QListIPFPN10QtMobility22QSensorPluginInterfaceEvEE9node_copyEPNS5_4NodeES7_S7_)
    t._ZN5QListIPFPN10QtMobility22QSensorPluginInterfaceEvEED1Ev 0x0000e060   Section       32  qsensormanager.o(t._ZN5QListIPFPN10QtMobility22QSensorPluginInterfaceEvEED1Ev)
    t._ZN5QListIPN10QtMobility13QSensorFilterEE13detach_helperEi 0x0000e080   Section       94  qsensor.o(t._ZN5QListIPN10QtMobility13QSensorFilterEE13detach_helperEi)
    t._ZN5QListIPN10QtMobility13QSensorFilterEE13detach_helperEi.clean 0x0000e0de   Section        8  qsensor.o(t._ZN5QListIPN10QtMobility13QSensorFilterEE13detach_helperEi.clean)
    t._ZN5QListIPN10QtMobility13QSensorFilterEE13detach_helperEv 0x0000e0e6   Section       16  qsensor.o(t._ZN5QListIPN10QtMobility13QSensorFilterEE13detach_helperEv)
    t._ZN5QListIPN10QtMobility13QSensorFilterEE18detach_helper_growEii 0x0000e0f6   Section      204  qsensor.o(t._ZN5QListIPN10QtMobility13QSensorFilterEE18detach_helper_growEii)
    t._ZN5QListIPN10QtMobility13QSensorFilterEE18detach_helper_growEii.clean 0x0000e1c2   Section       16  qsensor.o(t._ZN5QListIPN10QtMobility13QSensorFilterEE18detach_helper_growEii.clean)
    t._ZN5QListIPN10QtMobility13QSensorFilterEE4freeEPN9QListData4DataE 0x0000e1d2   Section       58  qsensor.o(t._ZN5QListIPN10QtMobility13QSensorFilterEE4freeEPN9QListData4DataE)
    t._ZN5QListIPN10QtMobility13QSensorFilterEE6appendERKS2_ 0x0000e20c   Section      100  qsensor.o(t._ZN5QListIPN10QtMobility13QSensorFilterEE6appendERKS2_)
    t._ZN5QListIPN10QtMobility13QSensorFilterEE6appendERKS2_.clean 0x0000e270   Section       10  qsensor.o(t._ZN5QListIPN10QtMobility13QSensorFilterEE6appendERKS2_.clean)
    t._ZN5QListIPN10QtMobility13QSensorFilterEE9node_copyEPNS3_4NodeES5_S5_ 0x0000e27a   Section       46  qsensor.o(t._ZN5QListIPN10QtMobility13QSensorFilterEE9node_copyEPNS3_4NodeES5_S5_)
    t._ZN5QListIPN10QtMobility13QSensorFilterEE9removeOneERKS2_ 0x0000e2a8   Section      124  qsensor.o(t._ZN5QListIPN10QtMobility13QSensorFilterEE9removeOneERKS2_)
    t._ZN5QListIPN10QtMobility13QSensorFilterEED1Ev 0x0000e324   Section       32  qsensor.o(t._ZN5QListIPN10QtMobility13QSensorFilterEED1Ev)
    t._ZN5QListIPN10QtMobility22QSensorPluginInterfaceEE13detach_helperEi 0x0000e344   Section      128  qsensormanager.o(t._ZN5QListIPN10QtMobility22QSensorPluginInterfaceEE13detach_helperEi)
    t._ZN5QListIPN10QtMobility22QSensorPluginInterfaceEE13detach_helperEi.clean 0x0000e3c4   Section        8  qsensormanager.o(t._ZN5QListIPN10QtMobility22QSensorPluginInterfaceEE13detach_helperEi.clean)
    t._ZN5QListIPN10QtMobility22QSensorPluginInterfaceEE13detach_helperEv 0x0000e3cc   Section       16  qsensormanager.o(t._ZN5QListIPN10QtMobility22QSensorPluginInterfaceEE13detach_helperEv)
    t._ZN5QListIPN10QtMobility22QSensorPluginInterfaceEE18detach_helper_growEii 0x0000e3dc   Section      204  qsensorpluginloader.o(t._ZN5QListIPN10QtMobility22QSensorPluginInterfaceEE18detach_helper_growEii)
    t._ZN5QListIPN10QtMobility22QSensorPluginInterfaceEE18detach_helper_growEii.clean 0x0000e4a8   Section       16  qsensorpluginloader.o(t._ZN5QListIPN10QtMobility22QSensorPluginInterfaceEE18detach_helper_growEii.clean)
    t._ZN5QListIPN10QtMobility22QSensorPluginInterfaceEE4freeEPN9QListData4DataE 0x0000e4b8   Section       58  qsensormanager.o(t._ZN5QListIPN10QtMobility22QSensorPluginInterfaceEE4freeEPN9QListData4DataE)
    t._ZN5QListIPN10QtMobility22QSensorPluginInterfaceEE6appendERKS2_ 0x0000e4f4   Section      100  qsensorpluginloader.o(t._ZN5QListIPN10QtMobility22QSensorPluginInterfaceEE6appendERKS2_)
    t._ZN5QListIPN10QtMobility22QSensorPluginInterfaceEE6appendERKS2_.clean 0x0000e558   Section       10  qsensorpluginloader.o(t._ZN5QListIPN10QtMobility22QSensorPluginInterfaceEE6appendERKS2_.clean)
    t._ZN5QListIPN10QtMobility22QSensorPluginInterfaceEE9node_copyEPNS3_4NodeES5_S5_ 0x0000e562   Section       46  qsensorpluginloader.o(t._ZN5QListIPN10QtMobility22QSensorPluginInterfaceEE9node_copyEPNS3_4NodeES5_S5_)
    t._ZN5QListIPN10QtMobility22QSensorPluginInterfaceEEC1ERKS3_ 0x0000e590   Section       36  qsensormanager.o(t._ZN5QListIPN10QtMobility22QSensorPluginInterfaceEEC1ERKS3_)
    t._ZN5QListIPN10QtMobility22QSensorPluginInterfaceEED1Ev 0x0000e5b4   Section       32  qsensormanager.o(t._ZN5QListIPN10QtMobility22QSensorPluginInterfaceEED1Ev)
    t._ZN9QHashNodeI10QByteArray5QHashIS0_PN10QtMobility21QSensorBackendFactoryEEEC1ERKS0_RKS5_ 0x0000e5d4   Section       64  qsensormanager.o(t._ZN9QHashNodeI10QByteArray5QHashIS0_PN10QtMobility21QSensorBackendFactoryEEEC1ERKS0_RKS5_)
    t._ZN9QHashNodeI10QByteArray5QHashIS0_PN10QtMobility21QSensorBackendFactoryEEEC1ERKS0_RKS5_.clean 0x0000e614   Section       12  qsensormanager.o(t._ZN9QHashNodeI10QByteArray5QHashIS0_PN10QtMobility21QSensorBackendFactoryEEEC1ERKS0_RKS5_.clean)
    t._ZN9QHashNodeI10QByteArrayPN10QtMobility21QSensorBackendFactoryEEC1ERKS0_RKS3_ 0x0000e620   Section       30  qsensormanager.o(t._ZN9QHashNodeI10QByteArrayPN10QtMobility21QSensorBackendFactoryEEC1ERKS0_RKS3_)
    t._ZN9QHashNodeI10QByteArrayS0_EC1ERKS0_S3_ 0x0000e63e   Section       40  qsensormanager.o(t._ZN9QHashNodeI10QByteArrayS0_EC1ERKS0_S3_)
    t._ZN9QHashNodeI10QByteArrayS0_EC1ERKS0_S3_.clean 0x0000e666   Section       12  qsensormanager.o(t._ZN9QHashNodeI10QByteArrayS0_EC1ERKS0_S3_.clean)
    t._ZNK17QForeachContainerI5QListIPN10QtMobility22QSensorPluginInterfaceEEE9conditionEv 0x0000e672   Section       40  qsensormanager.o(t._ZNK17QForeachContainerI5QListIPN10QtMobility22QSensorPluginInterfaceEEE9conditionEv)
    t._ZNK4QSetI7QStringE8containsERKS0_     0x0000e69a   Section       34  qsensorpluginloader.o(t._ZNK4QSetI7QStringE8containsERKS0_)
    t._ZNK5QHashI10QByteArrayPN10QtMobility21QSensorBackendFactoryEE4keysEv 0x0000e6bc   Section      108  qsensormanager.o(t._ZNK5QHashI10QByteArrayPN10QtMobility21QSensorBackendFactoryEE4keysEv)
    t._ZNK5QHashI10QByteArrayPN10QtMobility21QSensorBackendFactoryEE4keysEv.clean 0x0000e728   Section       10  qsensormanager.o(t._ZNK5QHashI10QByteArrayPN10QtMobility21QSensorBackendFactoryEE4keysEv.clean)
    t._ZNK5QHashI10QByteArrayPN10QtMobility21QSensorBackendFactoryEE8containsERKS0_ 0x0000e732   Section       32  qsensormanager.o(t._ZNK5QHashI10QByteArrayPN10QtMobility21QSensorBackendFactoryEE8containsERKS0_)
    t._ZNK5QHashI10QByteArrayPN10QtMobility21QSensorBackendFactoryEE8findNodeERKS0_Pj 0x0000e752   Section      116  qsensormanager.o(t._ZNK5QHashI10QByteArrayPN10QtMobility21QSensorBackendFactoryEE8findNodeERKS0_Pj)
    t._ZNK5QHashI10QByteArrayPN10QtMobility21QSensorBackendFactoryEEixERKS0_ 0x0000e7c6   Section       42  qsensormanager.o(t._ZNK5QHashI10QByteArrayPN10QtMobility21QSensorBackendFactoryEEixERKS0_)
    t._ZNK5QHashI10QByteArrayS0_E8findNodeERKS0_Pj 0x0000e7f0   Section      116  qsensormanager.o(t._ZNK5QHashI10QByteArrayS0_E8findNodeERKS0_Pj)
    t._ZNK5QHashI10QByteArrayS_IS0_PN10QtMobility21QSensorBackendFactoryEEE4keysEv 0x0000e864   Section      108  qsensormanager.o(t._ZNK5QHashI10QByteArrayS_IS0_PN10QtMobility21QSensorBackendFactoryEEE4keysEv)
    t._ZNK5QHashI10QByteArrayS_IS0_PN10QtMobility21QSensorBackendFactoryEEE4keysEv.clean 0x0000e8d0   Section       10  qsensormanager.o(t._ZNK5QHashI10QByteArrayS_IS0_PN10QtMobility21QSensorBackendFactoryEEE4keysEv.clean)
    t._ZNK5QHashI10QByteArrayS_IS0_PN10QtMobility21QSensorBackendFactoryEEE8containsERKS0_ 0x0000e8da   Section       32  qsensormanager.o(t._ZNK5QHashI10QByteArrayS_IS0_PN10QtMobility21QSensorBackendFactoryEEE8containsERKS0_)
    t._ZNK5QHashI10QByteArrayS_IS0_PN10QtMobility21QSensorBackendFactoryEEE8findNodeERKS0_Pj 0x0000e8fa   Section      116  qsensormanager.o(t._ZNK5QHashI10QByteArrayS_IS0_PN10QtMobility21QSensorBackendFactoryEEE8findNodeERKS0_Pj)
    t._ZNK5QHashI7QString15QHashDummyValueE8findNodeERKS0_Pj 0x0000e96e   Section      116  qsensorpluginloader.o(t._ZNK5QHashI7QString15QHashDummyValueE8findNodeERKS0_Pj)
    t._ZNK5QListI7QStringE2atEi              0x0000e9e2   Section       30  qsensorpluginloader.o(t._ZNK5QListI7QStringE2atEi)
    t._ZNK5QListI7QStringE5countEv           0x0000ea00   Section       16  qsensorpluginloader.o(t._ZNK5QListI7QStringE5countEv)
    t._ZNK5QListIPN10QtMobility13QSensorFilterEE7indexOfERKS2_i 0x0000ea10   Section      116  qsensor.o(t._ZNK5QListIPN10QtMobility13QSensorFilterEE7indexOfERKS2_i)
    .extab._ZN10QtMobility14QSensorBackend12setDataRatesEPKNS_7QSensorE 0x0000ea84   Data           0  qsensorbackend.o(.ARM.extab)
    .extab._ZN5QListI5QPairIiiEE9node_copyEPNS2_4NodeES4_S4_ 0x0000eaa4   Data           0  qsensorbackend.o(.ARM.extab)
    .extab._ZN5QListI5QPairIiiEE13detach_helperEi 0x0000eac8   Data           0  qsensorbackend.o(.ARM.extab)
    .extab._ZN5QListI5QPairIiiEE18detach_helper_growEii 0x0000eae4   Data           0  qsensorbackend.o(.ARM.extab)
    .extab._ZN5QListI5QPairIiiEE6appendERKS1_ 0x0000eb14   Data           0  qsensorbackend.o(.ARM.extab)
    .extab._ZN5QListIN10QtMobility12qoutputrangeEE9node_copyEPNS2_4NodeES4_S4_ 0x0000eb44   Data           0  qsensorbackend.o(.ARM.extab)
    .extab._ZN5QListIN10QtMobility12qoutputrangeEE18detach_helper_growEii 0x0000eb60   Data           0  qsensorbackend.o(.ARM.extab)
    .extab._ZN5QListIN10QtMobility12qoutputrangeEE6appendERKS1_ 0x0000eb90   Data           0  qsensorbackend.o(.ARM.extab)
    .extab._ZN6QDebugD1Ev                    0x0000ebc0   Data           0  qsensorbackend.o(.ARM.extab)
    .extab._ZN10QtMobility12pluginLoaderEv   0x0000ebe4   Data           0  qsensormanager.o(.ARM.extab)
    .extab._ZN10QtMobility20sensorManagerPrivateEv 0x0000ec0c   Data           0  qsensormanager.o(.ARM.extab)
    .extab._ZN10QtMobility11loadPluginsEv    0x0000ec34   Data           0  qsensormanager.o(.ARM.extab)
    .extab._ZN10QtMobility7QSensor20defaultSensorForTypeERK10QByteArray 0x0000ec5c   Data           0  qsensormanager.o(.ARM.extab)
    .extab._ZN10QtMobility14QSensorManager13createBackendEPNS_7QSensorE 0x0000ecec   Data           0  qsensormanager.o(.ARM.extab)
    .extab._ZN10QtMobility22sensors_unit_test_hookEi 0x0000ed6c   Data           0  qsensormanager.o(.ARM.extab)
    .extab._Z6qDebugv                        0x0000ed84   Data           0  qsensormanager.o(.ARM.extab)
    .extab._ZN5QListIPN10QtMobility22QSensorPluginInterfaceEE13detach_helperEi 0x0000ed9c   Data           0  qsensormanager.o(.ARM.extab)
    .extab._Z20qForeachContainerNewI5QListIPN10QtMobility22QSensorPluginInterfaceEEE17QForeachContainerIT_ERKS6_ 0x0000edb8   Data           0  qsensormanager.o(.ARM.extab)
    .extab._ZN5QListIPFPN10QtMobility22QSensorPluginInterfaceEvEE13detach_helperEi 0x0000edc8   Data           0  qsensormanager.o(.ARM.extab)
    .extab._ZN5QListI10QByteArrayE9node_copyEPNS1_4NodeES3_S3_ 0x0000ede4   Data           0  qsensormanager.o(.ARM.extab)
    .extab._ZN5QListI10QByteArrayE13detach_helperEi 0x0000ee08   Data           0  qsensormanager.o(.ARM.extab)
    .extab._ZN6QDebuglsEPKc                  0x0000ee24   Data           0  qsensormanager.o(.ARM.extab)
    .extab._ZN10QtMobility21QSensorManagerPrivateD1Ev 0x0000ee34   Data           0  qsensormanager.o(.ARM.extab)
    .extab._ZN5QListI10QByteArrayE14node_constructEPNS1_4NodeERKS0_ 0x0000ee4c   Data           0  qsensormanager.o(.ARM.extab)
    .extab._ZN5QListI10QByteArrayE18detach_helper_growEii 0x0000ee5c   Data           0  qsensormanager.o(.ARM.extab)
    .extab._ZN5QListI10QByteArrayE6appendERKS0_ 0x0000ee8c   Data           0  qsensormanager.o(.ARM.extab)
    .extab._ZNK5QHashI10QByteArrayPN10QtMobility21QSensorBackendFactoryEE4keysEv 0x0000eebc   Data           0  qsensormanager.o(.ARM.extab)
    .extab._ZN9QHashNodeI10QByteArray5QHashIS0_PN10QtMobility21QSensorBackendFactoryEEEC1ERKS0_RKS5_ 0x0000eecc   Data           0  qsensormanager.o(.ARM.extab)
    .extab._ZN9QHashNodeI10QByteArrayS0_EC1ERKS0_S3_ 0x0000eedc   Data           0  qsensormanager.o(.ARM.extab)
    .extab._ZNK5QHashI10QByteArrayS_IS0_PN10QtMobility21QSensorBackendFactoryEEE4keysEv 0x0000eeec   Data           0  qsensormanager.o(.ARM.extab)
    .extab._ZN5QHashI10QByteArrayS_IS0_PN10QtMobility21QSensorBackendFactoryEEEixERKS0_ 0x0000eefc   Data           0  qsensormanager.o(.ARM.extab)
    .extab._ZN5QHashI10QByteArrayS0_EixERKS0_ 0x0000ef1c   Data           0  qsensormanager.o(.ARM.extab)
    .extab._ZN5QListIPFPN10QtMobility22QSensorPluginInterfaceEvEE18detach_helper_growEii 0x0000ef3c   Data           0  qsensormanager.o(.ARM.extab)
    .extab._ZN5QListIPFPN10QtMobility22QSensorPluginInterfaceEvEE6appendERKS4_ 0x0000ef6c   Data           0  qsensormanager.o(.ARM.extab)
    .extab._ZN5QHashI10QByteArrayS0_E11deleteNode2EPN9QHashData4NodeE 0x0000ef88   Data           0  qsensormanager.o(.ARM.extab)
    .extab._ZN5QHashI10QByteArrayS_IS0_PN10QtMobility21QSensorBackendFactoryEEE11deleteNode2EPN9QHashData4NodeE 0x0000ef98   Data           0  qsensormanager.o(.ARM.extab)
    .extab._ZN5QHashI10QByteArrayPN10QtMobility21QSensorBackendFactoryEE13duplicateNodeEPN9QHashData4NodeEPv 0x0000efa8   Data           0  qsensormanager.o(.ARM.extab)
    .extab._ZN5QHashI10QByteArrayPN10QtMobility21QSensorBackendFactoryEEixERKS0_ 0x0000efb8   Data           0  qsensormanager.o(.ARM.extab)
    .extab._ZN5QHashI10QByteArrayS_IS0_PN10QtMobility21QSensorBackendFactoryEEE13duplicateNodeEPN9QHashData4NodeEPv 0x0000efd0   Data           0  qsensormanager.o(.ARM.extab)
    .extab._ZN5QHashI10QByteArrayS0_E13duplicateNodeEPN9QHashData4NodeEPv 0x0000efe0   Data           0  qsensormanager.o(.ARM.extab)
    .extab._ZN10QtMobility17qSymbian_CheckDirERK4QDirR3RFs 0x0000eff0   Data           0  qsensorpluginloader.o(.ARM.extab)
    .extab._ZN10QtMobility19QSensorPluginLoader4loadEv 0x0000f008   Data           0  qsensorpluginloader.o(.ARM.extab)
    .extab._ZN10QtMobility19QSensorPluginLoaderC1EPKcRK7QString 0x0000f0a8   Data           0  qsensorpluginloader.o(.ARM.extab)
    .extab._ZN10QtMobility19QSensorPluginLoaderD1Ev 0x0000f0f8   Data           0  qsensorpluginloader.o(.ARM.extab)
    .extab._Z8qWarningv                      0x0000f158   Data           0  qsensorpluginloader.o(.ARM.extab)
    .extab._ZN5QListIP13QPluginLoaderE13detach_helperEi 0x0000f170   Data           0  qsensorpluginloader.o(.ARM.extab)
    .extab._ZN5QListI7QStringE9node_copyEPNS1_4NodeES3_S3_ 0x0000f18c   Data           0  qsensorpluginloader.o(.ARM.extab)
    .extab._ZN5QListI7QStringE13detach_helperEi 0x0000f1b0   Data           0  qsensorpluginloader.o(.ARM.extab)
    .extab._ZN5QListI7QStringE14node_constructEPNS1_4NodeERKS0_ 0x0000f1cc   Data           0  qsensorpluginloader.o(.ARM.extab)
    .extab._ZN5QListI7QStringE18detach_helper_growEii 0x0000f1dc   Data           0  qsensorpluginloader.o(.ARM.extab)
    .extab._ZN5QListI7QStringE6appendERKS0_  0x0000f20c   Data           0  qsensorpluginloader.o(.ARM.extab)
    .extab._ZN5QListIP13QPluginLoaderE18detach_helper_growEii 0x0000f23c   Data           0  qsensorpluginloader.o(.ARM.extab)
    .extab._ZN5QListIP13QPluginLoaderE6appendERKS1_ 0x0000f26c   Data           0  qsensorpluginloader.o(.ARM.extab)
    .extab._ZN5QListIPN10QtMobility22QSensorPluginInterfaceEE18detach_helper_growEii 0x0000f288   Data           0  qsensorpluginloader.o(.ARM.extab)
    .extab._ZN5QListIPN10QtMobility22QSensorPluginInterfaceEE6appendERKS2_ 0x0000f2b8   Data           0  qsensorpluginloader.o(.ARM.extab)
    .extab._ZN10QtMobility15mobilityPluginsERK7QString 0x0000f2d4   Data           0  qsensorpluginloader.o(.ARM.extab)
    .extab._ZN5QHashI7QString15QHashDummyValueE13duplicateNodeEPN9QHashData4NodeEPv 0x0000f3ec   Data           0  qsensorpluginloader.o(.ARM.extab)
    .extab._ZN5QHashI7QString15QHashDummyValueE6insertERKS0_RKS1_ 0x0000f3fc   Data           0  qsensorpluginloader.o(.ARM.extab)
    .extab._ZN10QtMobility7QSensor14setOutputRangeEi 0x0000f40c   Data           0  qsensor.o(.ARM.extab)
    .extab._ZN10QtMobility7QSensor11setDataRateEi 0x0000f41c   Data           0  qsensor.o(.ARM.extab)
    .extab._ZN10QtMobility7QSensor13setIdentifierERK10QByteArray 0x0000f434   Data           0  qsensor.o(.ARM.extab)
    .extab._ZN10QtMobility7QSensor11qt_metacallEN11QMetaObject4CallEiPPv 0x0000f444   Data           0  qsensor.o(.ARM.extab)
    .extab._ZN10QtMobility7QSensorC1ERK10QByteArrayP7QObject 0x0000f474   Data           0  qsensor.o(.ARM.extab)
    .extab._ZN10QtMobility7QSensorD1Ev       0x0000f494   Data           0  qsensor.o(.ARM.extab)
    .extab._ZN10QtMobility7QSensor9addFilterEPNS_13QSensorFilterE 0x0000f4c4   Data           0  qsensor.o(.ARM.extab)
    .extab._ZN10QtMobility7QSensor12removeFilterEPNS_13QSensorFilterE 0x0000f4d4   Data           0  qsensor.o(.ARM.extab)
    .extab._ZN10QtMobility14QSensorReadingD1Ev 0x0000f4e4   Data           0  qsensor.o(.ARM.extab)
    .extab._ZN10QtMobility14QSensorReadingC1EP7QObjectPNS_21QSensorReadingPrivateE 0x0000f4f4   Data           0  qsensor.o(.ARM.extab)
    .extab._Z24qMetaTypeConstructHelperI5QListI5QPairIiiEEEPvPKT_ 0x0000f504   Data           0  qsensor.o(.ARM.extab)
    .extab._ZN5QListIN10QtMobility12qoutputrangeEE13detach_helperEi 0x0000f51c   Data           0  qsensor.o(.ARM.extab)
    .extab._Z24qMetaTypeConstructHelperI5QListIN10QtMobility12qoutputrangeEEEPvPKT_ 0x0000f558   Data           0  qsensor.o(.ARM.extab)
    .extab._ZN5QListIPN10QtMobility13QSensorFilterEE13detach_helperEi 0x0000f570   Data           0  qsensor.o(.ARM.extab)
    .extab._ZN14QScopedPointerIN10QtMobility14QSensorPrivateE21QScopedPointerDeleterIS1_EED1Ev 0x0000f58c   Data           0  qsensor.o(.ARM.extab)
    .extab._ZN5QListIPN10QtMobility13QSensorFilterEE18detach_helper_growEii 0x0000f5bc   Data           0  qsensor.o(.ARM.extab)
    .extab._ZN5QListIPN10QtMobility13QSensorFilterEE6appendERKS2_ 0x0000f5ec   Data           0  qsensor.o(.ARM.extab)
    .extab._ZN10QtMobility14QSensorPrivateC1Ev 0x0000f608   Data           0  qsensor.o(.ARM.extab)
    .extab._ZN10QtMobility21QAccelerometerReadingC1EP7QObject 0x0000f638   Data           0  qaccelerometer.o(.ARM.extab)
    .extab._ZN10QtMobility21QAccelerometerReadingD1Ev 0x0000f648   Data           0  qaccelerometer.o(.ARM.extab)
    .extab._ZN10QtMobility20QAmbientLightReadingC1EP7QObject 0x0000f658   Data           0  qambientlightsensor.o(.ARM.extab)
    .extab._ZN10QtMobility20QAmbientLightReadingD1Ev 0x0000f668   Data           0  qambientlightsensor.o(.ARM.extab)
    .extab._ZN10QtMobility15QCompassReadingC1EP7QObject 0x0000f678   Data           0  qcompass.o(.ARM.extab)
    .extab._ZN10QtMobility15QCompassReadingD1Ev 0x0000f688   Data           0  qcompass.o(.ARM.extab)
    .extab._ZN10QtMobility20QMagnetometerReadingC1EP7QObject 0x0000f698   Data           0  qmagnetometer.o(.ARM.extab)
    .extab._ZN10QtMobility20QMagnetometerReadingD1Ev 0x0000f6a8   Data           0  qmagnetometer.o(.ARM.extab)
    .extab._ZN10QtMobility19QOrientationReadingC1EP7QObject 0x0000f6b8   Data           0  qorientationsensor.o(.ARM.extab)
    .extab._ZN10QtMobility19QOrientationReadingD1Ev 0x0000f6c8   Data           0  qorientationsensor.o(.ARM.extab)
    .extab._ZN10QtMobility17QProximityReadingC1EP7QObject 0x0000f6d8   Data           0  qproximitysensor.o(.ARM.extab)
    .extab._ZN10QtMobility17QProximityReadingD1Ev 0x0000f6e8   Data           0  qproximitysensor.o(.ARM.extab)
    .extab._ZN10QtMobility16QRotationReadingC1EP7QObject 0x0000f6f8   Data           0  qrotationsensor.o(.ARM.extab)
    .extab._ZN10QtMobility16QRotationReadingD1Ev 0x0000f708   Data           0  qrotationsensor.o(.ARM.extab)
    .extab._ZN10QtMobility11QTapReadingC1EP7QObject 0x0000f718   Data           0  qtapsensor.o(.ARM.extab)
    .extab._ZN10QtMobility11QTapReadingD1Ev  0x0000f728   Data           0  qtapsensor.o(.ARM.extab)
    .constdata$1                             0x0000f738   Data           0  qsensorbackend.o(.constdata)
    .constdata                               0x0000f738   Section      164  qsensorbackend.o(.constdata)
    QtMobility::qt_meta_data_QSensorBackend  0x0000f748   Data          60  qsensorbackend.o(.constdata)
    QtMobility::qt_meta_stringdata_QSensorBackend 0x0000f784   Data          16  qsensorbackend.o(.constdata)
    .constdata$1                             0x0000f7dc   Data           0  qsensor.o(.constdata)
    .constdata                               0x0000f7dc   Section      948  qsensor.o(.constdata)
    QtMobility::qt_meta_data_QSensor         0x0000f7fc   Data         392  qsensor.o(.constdata)
    QtMobility::qt_meta_stringdata_QSensor   0x0000f984   Data         328  qsensor.o(.constdata)
    QtMobility::qt_meta_data_QSensorReading  0x0000facc   Data          72  qsensor.o(.constdata)
    QtMobility::qt_meta_stringdata_QSensorReading 0x0000fb14   Data          49  qsensor.o(.constdata)
    .constdata$1                             0x0000fb90   Data           0  qaccelerometer.o(.constdata)
    .constdata                               0x0000fb90   Section      244  qaccelerometer.o(.constdata)
    QtMobility::qt_meta_data_QAccelerometerReading 0x0000fbb4   Data          96  qaccelerometer.o(.constdata)
    QtMobility::qt_meta_stringdata_QAccelerometerReading 0x0000fc14   Data          35  qaccelerometer.o(.constdata)
    QtMobility::qt_meta_data_QAccelerometer  0x0000fc38   Data          60  qaccelerometer.o(.constdata)
    QtMobility::qt_meta_stringdata_QAccelerometer 0x0000fc74   Data          16  qaccelerometer.o(.constdata)
    .constdata$1                             0x0000fc84   Data           0  qambientlightsensor.o(.constdata)
    .constdata                               0x0000fc84   Section      341  qambientlightsensor.o(.constdata)
    QtMobility::qt_meta_data_QAmbientLightReading 0x0000fca8   Data         136  qambientlightsensor.o(.constdata)
    QtMobility::qt_meta_stringdata_QAmbientLightReading 0x0000fd30   Data          87  qambientlightsensor.o(.constdata)
    QtMobility::qt_meta_data_QAmbientLightSensor 0x0000fd88   Data          60  qambientlightsensor.o(.constdata)
    QtMobility::qt_meta_stringdata_QAmbientLightSensor 0x0000fdc4   Data          21  qambientlightsensor.o(.constdata)
    .constdata$1                             0x0000fddc   Data           0  qcompass.o(.constdata)
    .constdata                               0x0000fddc   Section      238  qcompass.o(.constdata)
    QtMobility::qt_meta_data_QCompassReading 0x0000fe00   Data          84  qcompass.o(.constdata)
    QtMobility::qt_meta_stringdata_QCompassReading 0x0000fe54   Data          48  qcompass.o(.constdata)
    QtMobility::qt_meta_data_QCompass        0x0000fe84   Data          60  qcompass.o(.constdata)
    QtMobility::qt_meta_stringdata_QCompass  0x0000fec0   Data          10  qcompass.o(.constdata)
    .constdata$1                             0x0000fecc   Data           0  qmagnetometer.o(.constdata)
    .constdata                               0x0000fecc   Section      271  qmagnetometer.o(.constdata)
    QtMobility::qt_meta_data_QMagnetometerReading 0x0000fef0   Data         108  qmagnetometer.o(.constdata)
    QtMobility::qt_meta_stringdata_QMagnetometerReading 0x0000ff5c   Data          51  qmagnetometer.o(.constdata)
    QtMobility::qt_meta_data_QMagnetometer   0x0000ff90   Data          60  qmagnetometer.o(.constdata)
    QtMobility::qt_meta_stringdata_QMagnetometer 0x0000ffcc   Data          15  qmagnetometer.o(.constdata)
    .constdata$1                             0x0000ffdc   Data           0  qorientationsensor.o(.constdata)
    .constdata                               0x0000ffdc   Section      360  qorientationsensor.o(.constdata)
    QtMobility::qt_meta_data_QOrientationReading 0x00010000   Data         144  qorientationsensor.o(.constdata)
    QtMobility::qt_meta_stringdata_QOrientationReading 0x00010090   Data         100  qorientationsensor.o(.constdata)
    QtMobility::qt_meta_data_QOrientationSensor 0x000100f4   Data          60  qorientationsensor.o(.constdata)
    QtMobility::qt_meta_stringdata_QOrientationSensor 0x00010130   Data          20  qorientationsensor.o(.constdata)
    .constdata$1                             0x00010144   Data           0  qproximitysensor.o(.constdata)
    .constdata                               0x00010144   Section      218  qproximitysensor.o(.constdata)
    QtMobility::qt_meta_data_QProximityReading 0x00010168   Data          72  qproximitysensor.o(.constdata)
    QtMobility::qt_meta_stringdata_QProximityReading 0x000101b0   Data          30  qproximitysensor.o(.constdata)
    QtMobility::qt_meta_data_QProximitySensor 0x000101d0   Data          60  qproximitysensor.o(.constdata)
    QtMobility::qt_meta_stringdata_QProximitySensor 0x0001020c   Data          18  qproximitysensor.o(.constdata)
    .constdata$1                             0x00010220   Data           0  qrotationsensor.o(.constdata)
    .constdata                               0x00010220   Section      241  qrotationsensor.o(.constdata)
    QtMobility::qt_meta_data_QRotationReading 0x00010244   Data          96  qrotationsensor.o(.constdata)
    QtMobility::qt_meta_stringdata_QRotationReading 0x000102a4   Data          30  qrotationsensor.o(.constdata)
    QtMobility::qt_meta_data_QRotationSensor 0x000102c4   Data          60  qrotationsensor.o(.constdata)
    QtMobility::qt_meta_stringdata_QRotationSensor 0x00010300   Data          17  qrotationsensor.o(.constdata)
    .constdata$1                             0x00010314   Data           0  qtapsensor.o(.constdata)
    .constdata                               0x00010314   Section      396  qtapsensor.o(.constdata)
    QtMobility::qt_meta_data_QTapReading     0x00010338   Data         180  qtapsensor.o(.constdata)
    QtMobility::qt_meta_stringdata_QTapReading 0x000103ec   Data         106  qtapsensor.o(.constdata)
    QtMobility::qt_meta_data_QTapSensor      0x00010458   Data          60  qtapsensor.o(.constdata)
    QtMobility::qt_meta_stringdata_QTapSensor 0x00010494   Data          12  qtapsensor.o(.constdata)
    .constdata__ZN9stlp_priv15_Integer_limitsIaLan128ELa127ELin1ELb1EE6digitsE 0x000104a0   Section        4  qsensorbackend.o(.constdata__ZN9stlp_priv15_Integer_limitsIaLan128ELa127ELin1ELb1EE6digitsE)
    .constdata__ZN9stlp_priv15_Integer_limitsIbLb0ELb1ELi1ELb0EE6digitsE 0x000104a4   Section        4  qsensorbackend.o(.constdata__ZN9stlp_priv15_Integer_limitsIbLb0ELb1ELi1ELb0EE6digitsE)
    .constdata__ZN9stlp_priv15_Integer_limitsIcLc128ELc127ELin1ELb1EE6digitsE 0x000104a8   Section        4  qsensorbackend.o(.constdata__ZN9stlp_priv15_Integer_limitsIcLc128ELc127ELin1ELb1EE6digitsE)
    .constdata__ZN9stlp_priv15_Integer_limitsIhLh0ELh255ELin1ELb1EE6digitsE 0x000104ac   Section        4  qsensorbackend.o(.constdata__ZN9stlp_priv15_Integer_limitsIhLh0ELh255ELin1ELb1EE6digitsE)
    .constdata__ZN9stlp_priv15_Integer_limitsIiLin2147483648ELi2147483647ELin1ELb1EE6digitsE 0x000104b0   Section        4  qsensorbackend.o(.constdata__ZN9stlp_priv15_Integer_limitsIiLin2147483648ELi2147483647ELin1ELb1EE6digitsE)
    .constdata__ZN9stlp_priv15_Integer_limitsIiLin2147483648ELi2147483647ELin1ELb1EE9is_signedE 0x000104b4   Section        1  qsensorbackend.o(.constdata__ZN9stlp_priv15_Integer_limitsIiLin2147483648ELi2147483647ELin1ELb1EE9is_signedE)
    .constdata__ZN9stlp_priv15_Integer_limitsIjLj0ELj4294967295ELin1ELb1EE6digitsE 0x000104b8   Section        4  qsensorbackend.o(.constdata__ZN9stlp_priv15_Integer_limitsIjLj0ELj4294967295ELin1ELb1EE6digitsE)
    .constdata__ZN9stlp_priv15_Integer_limitsIlLln2147483648ELl2147483647ELin1ELb1EE6digitsE 0x000104bc   Section        4  qsensorbackend.o(.constdata__ZN9stlp_priv15_Integer_limitsIlLln2147483648ELl2147483647ELin1ELb1EE6digitsE)
    .constdata__ZN9stlp_priv15_Integer_limitsImLm0ELm4294967295ELin1ELb1EE6digitsE 0x000104c0   Section        4  qsensorbackend.o(.constdata__ZN9stlp_priv15_Integer_limitsImLm0ELm4294967295ELin1ELb1EE6digitsE)
    .constdata__ZN9stlp_priv15_Integer_limitsIsLsn32768ELs32767ELin1ELb1EE6digitsE 0x000104c4   Section        4  qsensorbackend.o(.constdata__ZN9stlp_priv15_Integer_limitsIsLsn32768ELs32767ELin1ELb1EE6digitsE)
    .constdata__ZN9stlp_priv15_Integer_limitsItLt0ELt65535ELin1ELb1EE6digitsE 0x000104c8   Section        4  qsensorbackend.o(.constdata__ZN9stlp_priv15_Integer_limitsItLt0ELt65535ELin1ELb1EE6digitsE)
    .constdata__ZN9stlp_priv15_Integer_limitsIwLw0ELw65535ELin1ELb1EE6digitsE 0x000104cc   Section        4  qsensorbackend.o(.constdata__ZN9stlp_priv15_Integer_limitsIwLw0ELw65535ELin1ELb1EE6digitsE)
    .constdata__ZN9stlp_priv15_Integer_limitsIxLxn9223372036854775808ELx9223372036854775807ELin1ELb1EE6digitsE 0x000104d0   Section        4  qsensorbackend.o(.constdata__ZN9stlp_priv15_Integer_limitsIxLxn9223372036854775808ELx9223372036854775807ELin1ELb1EE6digitsE)
    .constdata__ZN9stlp_priv15_Integer_limitsIyLy0ELy18446744073709551615ELin1ELb1EE6digitsE 0x000104d4   Section        4  qsensorbackend.o(.constdata__ZN9stlp_priv15_Integer_limitsIyLy0ELy18446744073709551615ELin1ELb1EE6digitsE)
    .constdata__ZTIN10QtMobility10QTapSensorE 0x000104d8   Section       12  qtapsensor.o(.constdata__ZTIN10QtMobility10QTapSensorE)
    .constdata__ZTIN10QtMobility11QTapReadingE 0x000104e4   Section       12  qtapsensor.o(.constdata__ZTIN10QtMobility11QTapReadingE)
    .constdata__ZTIN10QtMobility13QMagnetometerE 0x000104f0   Section       12  qmagnetometer.o(.constdata__ZTIN10QtMobility13QMagnetometerE)
    .constdata__ZTIN10QtMobility13QSensorFilterE 0x000104fc   Section        8  qsensor.o(.constdata__ZTIN10QtMobility13QSensorFilterE)
    .constdata__ZTIN10QtMobility14QAccelerometerE 0x00010504   Section       12  qaccelerometer.o(.constdata__ZTIN10QtMobility14QAccelerometerE)
    .constdata__ZTIN10QtMobility14QSensorBackendE 0x00010510   Section       12  qsensorbackend.o(.constdata__ZTIN10QtMobility14QSensorBackendE)
    .constdata__ZTIN10QtMobility14QSensorReadingE 0x0001051c   Section       12  qsensor.o(.constdata__ZTIN10QtMobility14QSensorReadingE)
    .constdata__ZTIN10QtMobility15QCompassReadingE 0x00010528   Section       12  qcompass.o(.constdata__ZTIN10QtMobility15QCompassReadingE)
    .constdata__ZTIN10QtMobility15QRotationSensorE 0x00010534   Section       12  qrotationsensor.o(.constdata__ZTIN10QtMobility15QRotationSensorE)
    .constdata__ZTIN10QtMobility16QProximitySensorE 0x00010540   Section       12  qproximitysensor.o(.constdata__ZTIN10QtMobility16QProximitySensorE)
    .constdata__ZTIN10QtMobility16QRotationReadingE 0x0001054c   Section       12  qrotationsensor.o(.constdata__ZTIN10QtMobility16QRotationReadingE)
    .constdata__ZTIN10QtMobility17QProximityReadingE 0x00010558   Section       12  qproximitysensor.o(.constdata__ZTIN10QtMobility17QProximityReadingE)
    .constdata__ZTIN10QtMobility18QOrientationSensorE 0x00010564   Section       12  qorientationsensor.o(.constdata__ZTIN10QtMobility18QOrientationSensorE)
    .constdata__ZTIN10QtMobility19QAmbientLightSensorE 0x00010570   Section       12  qambientlightsensor.o(.constdata__ZTIN10QtMobility19QAmbientLightSensorE)
    .constdata__ZTIN10QtMobility19QOrientationReadingE 0x0001057c   Section       12  qorientationsensor.o(.constdata__ZTIN10QtMobility19QOrientationReadingE)
    .constdata__ZTIN10QtMobility20QAmbientLightReadingE 0x00010588   Section       12  qambientlightsensor.o(.constdata__ZTIN10QtMobility20QAmbientLightReadingE)
    .constdata__ZTIN10QtMobility20QMagnetometerReadingE 0x00010594   Section       12  qmagnetometer.o(.constdata__ZTIN10QtMobility20QMagnetometerReadingE)
    .constdata__ZTIN10QtMobility21QAccelerometerReadingE 0x000105a0   Section       12  qaccelerometer.o(.constdata__ZTIN10QtMobility21QAccelerometerReadingE)
    .constdata__ZTIN10QtMobility7QSensorE    0x000105ac   Section       12  qsensor.o(.constdata__ZTIN10QtMobility7QSensorE)
    .constdata__ZTIN10QtMobility8QCompassE   0x000105b8   Section       12  qcompass.o(.constdata__ZTIN10QtMobility8QCompassE)
    .constdata__ZTSN10QtMobility10QTapSensorE 0x000105c4   Section       27  qtapsensor.o(.constdata__ZTSN10QtMobility10QTapSensorE)
    .constdata__ZTSN10QtMobility11QTapReadingE 0x000105df   Section       28  qtapsensor.o(.constdata__ZTSN10QtMobility11QTapReadingE)
    .constdata__ZTSN10QtMobility13QMagnetometerE 0x000105fb   Section       30  qmagnetometer.o(.constdata__ZTSN10QtMobility13QMagnetometerE)
    .constdata__ZTSN10QtMobility13QSensorFilterE 0x00010619   Section       30  qsensor.o(.constdata__ZTSN10QtMobility13QSensorFilterE)
    .constdata__ZTSN10QtMobility14QAccelerometerE 0x00010637   Section       31  qaccelerometer.o(.constdata__ZTSN10QtMobility14QAccelerometerE)
    .constdata__ZTSN10QtMobility14QSensorBackendE 0x00010656   Section       31  qsensorbackend.o(.constdata__ZTSN10QtMobility14QSensorBackendE)
    .constdata__ZTSN10QtMobility14QSensorReadingE 0x00010675   Section       31  qsensor.o(.constdata__ZTSN10QtMobility14QSensorReadingE)
    .constdata__ZTSN10QtMobility15QCompassReadingE 0x00010694   Section       32  qcompass.o(.constdata__ZTSN10QtMobility15QCompassReadingE)
    .constdata__ZTSN10QtMobility15QRotationSensorE 0x000106b4   Section       32  qrotationsensor.o(.constdata__ZTSN10QtMobility15QRotationSensorE)
    .constdata__ZTSN10QtMobility16QProximitySensorE 0x000106d4   Section       33  qproximitysensor.o(.constdata__ZTSN10QtMobility16QProximitySensorE)
    .constdata__ZTSN10QtMobility16QRotationReadingE 0x000106f5   Section       33  qrotationsensor.o(.constdata__ZTSN10QtMobility16QRotationReadingE)
    .constdata__ZTSN10QtMobility17QProximityReadingE 0x00010716   Section       34  qproximitysensor.o(.constdata__ZTSN10QtMobility17QProximityReadingE)
    .constdata__ZTSN10QtMobility18QOrientationSensorE 0x00010738   Section       35  qorientationsensor.o(.constdata__ZTSN10QtMobility18QOrientationSensorE)
    .constdata__ZTSN10QtMobility19QAmbientLightSensorE 0x0001075b   Section       36  qambientlightsensor.o(.constdata__ZTSN10QtMobility19QAmbientLightSensorE)
    .constdata__ZTSN10QtMobility19QOrientationReadingE 0x0001077f   Section       36  qorientationsensor.o(.constdata__ZTSN10QtMobility19QOrientationReadingE)
    .constdata__ZTSN10QtMobility20QAmbientLightReadingE 0x000107a3   Section       37  qambientlightsensor.o(.constdata__ZTSN10QtMobility20QAmbientLightReadingE)
    .constdata__ZTSN10QtMobility20QMagnetometerReadingE 0x000107c8   Section       37  qmagnetometer.o(.constdata__ZTSN10QtMobility20QMagnetometerReadingE)
    .constdata__ZTSN10QtMobility21QAccelerometerReadingE 0x000107ed   Section       38  qaccelerometer.o(.constdata__ZTSN10QtMobility21QAccelerometerReadingE)
    .constdata__ZTSN10QtMobility7QSensorE    0x00010813   Section       23  qsensor.o(.constdata__ZTSN10QtMobility7QSensorE)
    .constdata__ZTSN10QtMobility8QCompassE   0x0001082a   Section       24  qcompass.o(.constdata__ZTSN10QtMobility8QCompassE)
    .constdata__ZTVN10QtMobility10QTapSensorE 0x00010844   Section       56  qtapsensor.o(.constdata__ZTVN10QtMobility10QTapSensorE)
    .constdata__ZTVN10QtMobility11QTapReadingE 0x0001087c   Section       60  qtapsensor.o(.constdata__ZTVN10QtMobility11QTapReadingE)
    .constdata__ZTVN10QtMobility13QMagnetometerE 0x000108b8   Section       56  qmagnetometer.o(.constdata__ZTVN10QtMobility13QMagnetometerE)
    .constdata__ZTVN10QtMobility13QSensorFilterE 0x000108f0   Section       16  qsensor.o(.constdata__ZTVN10QtMobility13QSensorFilterE)
    .constdata__ZTVN10QtMobility14QAccelerometerE 0x00010900   Section       56  qaccelerometer.o(.constdata__ZTVN10QtMobility14QAccelerometerE)
    .constdata__ZTVN10QtMobility14QSensorBackendE 0x00010938   Section       64  qsensorbackend.o(.constdata__ZTVN10QtMobility14QSensorBackendE)
    .constdata__ZTVN10QtMobility14QSensorReadingE 0x00010978   Section       60  qsensor.o(.constdata__ZTVN10QtMobility14QSensorReadingE)
    .constdata__ZTVN10QtMobility15QCompassReadingE 0x000109b4   Section       60  qcompass.o(.constdata__ZTVN10QtMobility15QCompassReadingE)
    .constdata__ZTVN10QtMobility15QRotationSensorE 0x000109f0   Section       56  qrotationsensor.o(.constdata__ZTVN10QtMobility15QRotationSensorE)
    .constdata__ZTVN10QtMobility16QProximitySensorE 0x00010a28   Section       56  qproximitysensor.o(.constdata__ZTVN10QtMobility16QProximitySensorE)
    .constdata__ZTVN10QtMobility16QRotationReadingE 0x00010a60   Section       60  qrotationsensor.o(.constdata__ZTVN10QtMobility16QRotationReadingE)
    .constdata__ZTVN10QtMobility17QProximityReadingE 0x00010a9c   Section       60  qproximitysensor.o(.constdata__ZTVN10QtMobility17QProximityReadingE)
    .constdata__ZTVN10QtMobility18QOrientationSensorE 0x00010ad8   Section       56  qorientationsensor.o(.constdata__ZTVN10QtMobility18QOrientationSensorE)
    .constdata__ZTVN10QtMobility19QAmbientLightSensorE 0x00010b10   Section       56  qambientlightsensor.o(.constdata__ZTVN10QtMobility19QAmbientLightSensorE)
    .constdata__ZTVN10QtMobility19QOrientationReadingE 0x00010b48   Section       60  qorientationsensor.o(.constdata__ZTVN10QtMobility19QOrientationReadingE)
    .constdata__ZTVN10QtMobility20QAmbientLightReadingE 0x00010b84   Section       60  qambientlightsensor.o(.constdata__ZTVN10QtMobility20QAmbientLightReadingE)
    .constdata__ZTVN10QtMobility20QMagnetometerReadingE 0x00010bc0   Section       60  qmagnetometer.o(.constdata__ZTVN10QtMobility20QMagnetometerReadingE)
    .constdata__ZTVN10QtMobility21QAccelerometerReadingE 0x00010bfc   Section       60  qaccelerometer.o(.constdata__ZTVN10QtMobility21QAccelerometerReadingE)
    .constdata__ZTVN10QtMobility7QSensorE    0x00010c38   Section       56  qsensor.o(.constdata__ZTVN10QtMobility7QSensorE)
    .constdata__ZTVN10QtMobility8QCompassE   0x00010c70   Section       56  qcompass.o(.constdata__ZTVN10QtMobility8QCompassE)
    .conststring$3                           0x00010ca8   Data           0  qaccelerometer.o(.conststring)
    .conststring                             0x00010ca8   Section       15  qaccelerometer.o(.conststring)
    .conststring$3                           0x00010cb7   Data           0  qambientlightsensor.o(.conststring)
    .conststring                             0x00010cb7   Section       20  qambientlightsensor.o(.conststring)
    .conststring$3                           0x00010ccb   Data           0  qcompass.o(.conststring)
    .conststring                             0x00010ccb   Section        9  qcompass.o(.conststring)
    .conststring$3                           0x00010cd4   Data           0  qmagnetometer.o(.conststring)
    .conststring                             0x00010cd4   Section       14  qmagnetometer.o(.conststring)
    .conststring$3                           0x00010ce2   Data           0  qorientationsensor.o(.conststring)
    .conststring                             0x00010ce2   Section       19  qorientationsensor.o(.conststring)
    .conststring$3                           0x00010cf5   Data           0  qproximitysensor.o(.conststring)
    .conststring                             0x00010cf5   Section       17  qproximitysensor.o(.conststring)
    .conststring$3                           0x00010d06   Data           0  qrotationsensor.o(.conststring)
    .conststring                             0x00010d06   Section       16  qrotationsensor.o(.conststring)
    .conststring$3                           0x00010d16   Data           0  qtapsensor.o(.conststring)
    .conststring                             0x00010d16   Section       11  qtapsensor.o(.conststring)
    .init_array                              0x00010d24   Section        4  qsensor.o(.init_array)
    .ARM.exidx                               0x00010d28   Section        8  ucppinit.o(.ARM.exidx)
    .data$0                                  0x00400000   Data           0  qsensormanager.o(.data)
    QtMobility::this_pluginLoader            0x00400000   Data           8  qsensormanager.o(.data)
    .data                                    0x00400000   Section       36  qsensormanager.o(.data)
    QtMobility::this_sensorManagerPrivate    0x00400008   Data           8  qsensormanager.o(.data)
    QtMobility::settings_use_user_scope      0x00400010   Data           1  qsensormanager.o(.data)
    QtMobility::load_external_plugins        0x00400011   Data           1  qsensormanager.o(.data)
    _ZGVcleanup@_ZN10QtMobility12pluginLoaderEv_0 0x00400014   Data           4  qsensormanager.o(.data)
    cleanup@_ZN10QtMobility12pluginLoaderEv_1 0x00400018   Data           4  qsensormanager.o(.data)
    _ZGVcleanup@_ZN10QtMobility20sensorManagerPrivateEv_0 0x0040001c   Data           4  qsensormanager.o(.data)
    cleanup@_ZN10QtMobility20sensorManagerPrivateEv_1 0x00400020   Data           4  qsensormanager.o(.data)
    .data$0                                  0x00400024   Data           0  qsensor.o(.data)
    QtMobility::qtimestamp_id                0x00400024   Data           4  qsensor.o(.data)
    .data                                    0x00400024   Section       16  qsensor.o(.data)
    QtMobility::qrange_id                    0x00400028   Data           4  qsensor.o(.data)
    QtMobility::qrangelist_id                0x0040002c   Data           4  qsensor.o(.data)
    QtMobility::qoutputrangelist_id          0x00400030   Data           4  qsensor.o(.data)
    .data$0                                  0x00400034   Data           0  ucppfini.o(.data)
    .data                                    0x00400034   Section        4  ucppfini.o(.data)
    .data__ZNSt19_Atomic_swap_structILi1EE12_S_swap_lockE 0x00400038   Section       12  qsensorbackend.o(.data__ZNSt19_Atomic_swap_structILi1EE12_S_swap_lockE)
    .data__ZZN11QMetaTypeIdI5QListI5QPairIiiEEE14qt_metatype_idEvE11metatype_id 0x00400044   Section        4  qsensor.o(.data__ZZN11QMetaTypeIdI5QListI5QPairIiiEEE14qt_metatype_idEvE11metatype_id)
    .data__ZZN11QMetaTypeIdI5QListIN10QtMobility12qoutputrangeEEE14qt_metatype_idEvE11metatype_id 0x00400048   Section        4  qsensor.o(.data__ZZN11QMetaTypeIdI5QListIN10QtMobility12qoutputrangeEEE14qt_metatype_idEvE11metatype_id)
    .data__ZZN11QMetaTypeIdI5QPairIiiEE14qt_metatype_idEvE11metatype_id 0x0040004c   Section        4  qsensor.o(.data__ZZN11QMetaTypeIdI5QPairIiiEE14qt_metatype_idEvE11metatype_id)
    .data__ZZN11QMetaTypeIdIN10QtMobility10qtimestampEE14qt_metatype_idEvE11metatype_id 0x00400050   Section        4  qsensor.o(.data__ZZN11QMetaTypeIdIN10QtMobility10qtimestampEE14qt_metatype_idEvE11metatype_id)
    .bss$5                                   0x00400054   Data           0  ucppfini.o(.bss)
    .bss                                     0x00400054   Section     2048  ucppfini.o(.bss)

    Global Symbols

    Symbol Name                              Value     Ov Type        Size  Object(Section)

    BuildAttributes$$THUMB_ISAv2$ARM_ISAv5$M$VFPv2$PE$A:L22$X:L11$S22$IEEE1$IW$USESV6$~STKCKD$USESV7$~SHL$OSPACE$ROPI$IEEEJ$EBA8$UX$FPIC$INDIRECT$REQ8$PRES8$EABIv2 0x00000000   Number         0  anon$$obj.o ABSOLUTE
    QtCore{00040703}[2001b2dc].dll           0x00000000   Data           0  anon$$obj.o ABSOLUTE
    QtSensors{00010103}[2002bfc0].dll        0x00000000   Data           0  anon$$obj.o ABSOLUTE
    dfpaeabi{000a0000}.dll                   0x00000000   Data           0  anon$$obj.o ABSOLUTE
    drtaeabi{000a0000}.dll                   0x00000000   Data           0  anon$$obj.o ABSOLUTE
    efsrv{000a0000}[100039e4].dll            0x00000000   Data           0  anon$$obj.o ABSOLUTE
    euser{000a0000}[100039e5].dll            0x00000000   Data           0  anon$$obj.o ABSOLUTE
    libc{00010001}[10207369].dll             0x00000000   Data           0  anon$$obj.o ABSOLUTE
    stdnew{000a0000}[20022178].dll           0x00000000   Data           0  anon$$obj.o ABSOLUTE
    qt_message_output(QtMsgType, const char*)  - Undefined Reference
    _Z17qt_message_output9QtMsgTypePKc@QtCore{00040703}[2001b2dc].dll  - Undefined Reference
    qt_symbian_throwIfError(int)              - Undefined Reference
    _Z23qt_symbian_throwIfErrori@QtCore{00040703}[2001b2dc].dll  - Undefined Reference
    QBasicAtomicPointer_testAndSetOrdered(void*volatile *, void*, void*)  - Undefined Reference
    _Z37QBasicAtomicPointer_testAndSetOrderedPVPvS_S_@QtCore{00040703}[2001b2dc].dll  - Undefined Reference
    qFree(void*)                              - Undefined Reference
    _Z5qFreePv@QtCore{00040703}[2001b2dc].dll  - Undefined Reference
    qHash(const QByteArray&)                  - Undefined Reference
    _Z5qHashRK10QByteArray@QtCore{00040703}[2001b2dc].dll  - Undefined Reference
    qHash(const QString&)                     - Undefined Reference
    _Z5qHashRK7QString@QtCore{00040703}[2001b2dc].dll  - Undefined Reference
    QByteArray::shared_null                   - Undefined Reference
    _ZN10QByteArray11shared_nullE@QtCore{00040703}[2001b2dc].dll  - Undefined Reference
    QByteArray::realloc(int)                  - Undefined Reference
    _ZN10QByteArray7reallocEi@QtCore{00040703}[2001b2dc].dll  - Undefined Reference
    QByteArray::QByteArray(const char*)       - Undefined Reference
    _ZN10QByteArrayC1EPKc@QtCore{00040703}[2001b2dc].dll  - Undefined Reference
    QByteArray::operator =(const QByteArray&)  - Undefined Reference
    _ZN10QByteArrayaSERKS_@QtCore{00040703}[2001b2dc].dll  - Undefined Reference
    QMetaObject::activate(QObject*, const QMetaObject*, int, void**)  - Undefined Reference
    _ZN11QMetaObject8activateEP7QObjectPKS_iPPv@QtCore{00040703}[2001b2dc].dll  - Undefined Reference
    QTextStream::QTextStream(QString*, QFlags<QIODevice::OpenModeFlag>)  - Undefined Reference
    _ZN11QTextStreamC1EP7QString6QFlagsIN9QIODevice12OpenModeFlagEE@QtCore{00040703}[2001b2dc].dll  - Undefined Reference
    QTextStream::~QTextStream()               - Undefined Reference
    _ZN11QTextStreamD1Ev@QtCore{00040703}[2001b2dc].dll  - Undefined Reference
    QTextStream::operator <<(const QString&)  - Undefined Reference
    _ZN11QTextStreamlsERK7QString@QtCore{00040703}[2001b2dc].dll  - Undefined Reference
    QTextStream::operator <<(char)            - Undefined Reference
    _ZN11QTextStreamlsEc@QtCore{00040703}[2001b2dc].dll  - Undefined Reference
    QTextStream::operator <<(int)             - Undefined Reference
    _ZN11QTextStreamlsEi@QtCore{00040703}[2001b2dc].dll  - Undefined Reference
    QPluginLoader::unload()                   - Undefined Reference
    _ZN13QPluginLoader6unloadEv@QtCore{00040703}[2001b2dc].dll  - Undefined Reference
    QPluginLoader::instance()                 - Undefined Reference
    _ZN13QPluginLoader8instanceEv@QtCore{00040703}[2001b2dc].dll  - Undefined Reference
    QPluginLoader::QPluginLoader(const QString&, QObject*)  - Undefined Reference
    _ZN13QPluginLoaderC1ERK7QStringP7QObject@QtCore{00040703}[2001b2dc].dll  - Undefined Reference
    QCoreApplication::libraryPaths()          - Undefined Reference
    _ZN16QCoreApplication12libraryPathsEv@QtCore{00040703}[2001b2dc].dll  - Undefined Reference
    QCoreApplication::applicationDirPath()    - Undefined Reference
    _ZN16QCoreApplication18applicationDirPathEv@QtCore{00040703}[2001b2dc].dll  - Undefined Reference
    RFs::Close()                              - Undefined Reference
    _ZN3RFs5CloseEv@efsrv{000a0000}[100039e4].dll  - Undefined Reference
    RFs::Connect(int)                         - Undefined Reference
    _ZN3RFs7ConnectEi@efsrv{000a0000}[100039e4].dll  - Undefined Reference
    QDir::toNativeSeparators(const QString&)  - Undefined Reference
    _ZN4QDir18toNativeSeparatorsERK7QString@QtCore{00040703}[2001b2dc].dll  - Undefined Reference
    QDir::cd(const QString&)                  - Undefined Reference
    _ZN4QDir2cdERK7QString@QtCore{00040703}[2001b2dc].dll  - Undefined Reference
    QDir::QDir(const QString&)                - Undefined Reference
    _ZN4QDirC1ERK7QString@QtCore{00040703}[2001b2dc].dll  - Undefined Reference
    QDir::~QDir()                             - Undefined Reference
    _ZN4QDirD1Ev@QtCore{00040703}[2001b2dc].dll  - Undefined Reference
    User::LockedDec(int&)                     - Undefined Reference
    _ZN4User9LockedDecERi@euser{000a0000}[100039e5].dll  - Undefined Reference
    User::LockedInc(int&)                     - Undefined Reference
    _ZN4User9LockedIncERi@euser{000a0000}[100039e5].dll  - Undefined Reference
    QTimer::singleShot(int, QObject*, const char*)  - Undefined Reference
    _ZN6QTimer10singleShotEiP7QObjectPKc@QtCore{00040703}[2001b2dc].dll  - Undefined Reference
    QObject::childEvent(QChildEvent*)         - Undefined Reference
    _ZN7QObject10childEventEP11QChildEvent@QtCore{00040703}[2001b2dc].dll  - Undefined Reference
    QObject::timerEvent(QTimerEvent*)         - Undefined Reference
    _ZN7QObject10timerEventEP11QTimerEvent@QtCore{00040703}[2001b2dc].dll  - Undefined Reference
    QObject::customEvent(QEvent*)             - Undefined Reference
    _ZN7QObject11customEventEP6QEvent@QtCore{00040703}[2001b2dc].dll  - Undefined Reference
    QObject::eventFilter(QObject*, QEvent*)   - Undefined Reference
    _ZN7QObject11eventFilterEPS_P6QEvent@QtCore{00040703}[2001b2dc].dll  - Undefined Reference
    QObject::qt_metacall(QMetaObject::Call, int, void**)  - Undefined Reference
    _ZN7QObject11qt_metacallEN11QMetaObject4CallEiPPv@QtCore{00040703}[2001b2dc].dll  - Undefined Reference
    QObject::qt_metacast(const char*)         - Undefined Reference
    _ZN7QObject11qt_metacastEPKc@QtCore{00040703}[2001b2dc].dll  - Undefined Reference
    QObject::connectNotify(const char*)       - Undefined Reference
    _ZN7QObject13connectNotifyEPKc@QtCore{00040703}[2001b2dc].dll  - Undefined Reference
    QObject::disconnectNotify(const char*)    - Undefined Reference
    _ZN7QObject16disconnectNotifyEPKc@QtCore{00040703}[2001b2dc].dll  - Undefined Reference
    QObject::staticMetaObject                 - Undefined Reference
    _ZN7QObject16staticMetaObjectE@QtCore{00040703}[2001b2dc].dll  - Undefined Reference
    QObject::event(QEvent*)                   - Undefined Reference
    _ZN7QObject5eventEP6QEvent@QtCore{00040703}[2001b2dc].dll  - Undefined Reference
    QObject::QObject(QObject*)                - Undefined Reference
    _ZN7QObjectC1EPS_@QtCore{00040703}[2001b2dc].dll  - Undefined Reference
    QObject::~QObject()                       - Undefined Reference
    _ZN7QObjectD1Ev@QtCore{00040703}[2001b2dc].dll  - Undefined Reference
    QString::fromLatin1(const char*, int)     - Undefined Reference
    _ZN7QString10fromLatin1EPKci@QtCore{00040703}[2001b2dc].dll  - Undefined Reference
    QString::shared_null                      - Undefined Reference
    _ZN7QString11shared_nullE@QtCore{00040703}[2001b2dc].dll  - Undefined Reference
    QString::fromLatin1_helper(const char*, int)  - Undefined Reference
    _ZN7QString17fromLatin1_helperEPKci@QtCore{00040703}[2001b2dc].dll  - Undefined Reference
    QString::free(QString::Data*)             - Undefined Reference
    _ZN7QString4freeEPNS_4DataE@QtCore{00040703}[2001b2dc].dll  - Undefined Reference
    QString::append(const QString&)           - Undefined Reference
    _ZN7QString6appendERKS_@QtCore{00040703}[2001b2dc].dll  - Undefined Reference
    QString::fromAscii(const char*, int)      - Undefined Reference
    _ZN7QString9fromAsciiEPKci@QtCore{00040703}[2001b2dc].dll  - Undefined Reference
    QString::operator =(const QString&)       - Undefined Reference
    _ZN7QStringaSERKS_@QtCore{00040703}[2001b2dc].dll  - Undefined Reference
    TPtrC16::TPtrC16(const unsigned short*, int)  - Undefined Reference
    _ZN7TPtrC16C1EPKti@euser{000a0000}[100039e5].dll  - Undefined Reference
    QVariant::~QVariant()                     - Undefined Reference
    _ZN8QVariantD1Ev@QtCore{00040703}[2001b2dc].dll  - Undefined Reference
    QHashData::free_helper(void(*)(QHashData::Node*))  - Undefined Reference
    _ZN9QHashData11free_helperEPFvPNS_4NodeEE@QtCore{00040703}[2001b2dc].dll  - Undefined Reference
    QHashData::shared_null                    - Undefined Reference
    _ZN9QHashData11shared_nullE@QtCore{00040703}[2001b2dc].dll  - Undefined Reference
    QHashData::allocateNode(int)              - Undefined Reference
    _ZN9QHashData12allocateNodeEi@QtCore{00040703}[2001b2dc].dll  - Undefined Reference
    QHashData::detach_helper2(void(*)(QHashData::Node*, void*), void(*)(QHashData::Node*), int, int)  - Undefined Reference
    _ZN9QHashData14detach_helper2EPFvPNS_4NodeEPvEPFvS1_Eii@QtCore{00040703}[2001b2dc].dll  - Undefined Reference
    QHashData::rehash(int)                    - Undefined Reference
    _ZN9QHashData6rehashEi@QtCore{00040703}[2001b2dc].dll  - Undefined Reference
    QHashData::nextNode(QHashData::Node*)     - Undefined Reference
    _ZN9QHashData8nextNodeEPNS_4NodeE@QtCore{00040703}[2001b2dc].dll  - Undefined Reference
    QListData::detach_grow(int*, int)         - Undefined Reference
    _ZN9QListData11detach_growEPii@QtCore{00040703}[2001b2dc].dll  - Undefined Reference
    QListData::shared_null                    - Undefined Reference
    _ZN9QListData11shared_nullE@QtCore{00040703}[2001b2dc].dll  - Undefined Reference
    QListData::append()                       - Undefined Reference
    _ZN9QListData6appendEv@QtCore{00040703}[2001b2dc].dll  - Undefined Reference
    QListData::detach(int)                    - Undefined Reference
    _ZN9QListData6detachEi@QtCore{00040703}[2001b2dc].dll  - Undefined Reference
    QListData::remove(int)                    - Undefined Reference
    _ZN9QListData6removeEi@QtCore{00040703}[2001b2dc].dll  - Undefined Reference
    QListData::realloc(int)                   - Undefined Reference
    _ZN9QListData7reallocEi@QtCore{00040703}[2001b2dc].dll  - Undefined Reference
    QMetaType::registerType(const char*, void(*)(void*), void*(*)(const void*))  - Undefined Reference
    _ZN9QMetaType12registerTypeEPKcPFvPvEPFS2_PKvE@QtCore{00040703}[2001b2dc].dll  - Undefined Reference
    QMetaType::registerTypedef(const char*, int)  - Undefined Reference
    _ZN9QMetaType15registerTypedefEPKci@QtCore{00040703}[2001b2dc].dll  - Undefined Reference
    QSettings::QSettings(QSettings::Scope, const QString&, const QString&, QObject*)  - Undefined Reference
    _ZN9QSettingsC1ENS_5ScopeERK7QStringS3_P7QObject@QtCore{00040703}[2001b2dc].dll  - Undefined Reference
    QSettings::~QSettings()                   - Undefined Reference
    _ZN9QSettingsD1Ev@QtCore{00040703}[2001b2dc].dll  - Undefined Reference
    QMetaObject::propertyCount() const        - Undefined Reference
    _ZNK11QMetaObject13propertyCountEv@QtCore{00040703}[2001b2dc].dll  - Undefined Reference
    QMetaObject::propertyOffset() const       - Undefined Reference
    _ZNK11QMetaObject14propertyOffsetEv@QtCore{00040703}[2001b2dc].dll  - Undefined Reference
    QMetaObject::property(int) const          - Undefined Reference
    _ZNK11QMetaObject8propertyEi@QtCore{00040703}[2001b2dc].dll  - Undefined Reference
    QMetaProperty::read(const QObject*) const  - Undefined Reference
    _ZNK13QMetaProperty4readEPK7QObject@QtCore{00040703}[2001b2dc].dll  - Undefined Reference
    QPluginLoader::errorString() const        - Undefined Reference
    _ZNK13QPluginLoader11errorStringEv@QtCore{00040703}[2001b2dc].dll  - Undefined Reference
    QPluginLoader::fileName() const           - Undefined Reference
    _ZNK13QPluginLoader8fileNameEv@QtCore{00040703}[2001b2dc].dll  - Undefined Reference
    RFs::Att(const TDesC16&, unsigned&) const  - Undefined Reference
    _ZNK3RFs3AttERK7TDesC16Rj@efsrv{000a0000}[100039e4].dll  - Undefined Reference
    QDir::absolutePath() const                - Undefined Reference
    _ZNK4QDir12absolutePathEv@QtCore{00040703}[2001b2dc].dll  - Undefined Reference
    QDir::absoluteFilePath(const QString&) const  - Undefined Reference
    _ZNK4QDir16absoluteFilePathERK7QString@QtCore{00040703}[2001b2dc].dll  - Undefined Reference
    QDir::path() const                        - Undefined Reference
    _ZNK4QDir4pathEv@QtCore{00040703}[2001b2dc].dll  - Undefined Reference
    QDir::filePath(const QString&) const      - Undefined Reference
    _ZNK4QDir8filePathERK7QString@QtCore{00040703}[2001b2dc].dll  - Undefined Reference
    QDir::entryList(QFlags<QDir::Filter>, QFlags<QDir::SortFlag>) const  - Undefined Reference
    _ZNK4QDir9entryListE6QFlagsINS_6FilterEES0_INS_8SortFlagEE@QtCore{00040703}[2001b2dc].dll  - Undefined Reference
    QString::toLocal8Bit() const              - Undefined Reference
    _ZNK7QString11toLocal8BitEv@QtCore{00040703}[2001b2dc].dll  - Undefined Reference
    QString::arg(const QString&, int, const QChar&) const  - Undefined Reference
    _ZNK7QString3argERKS_iRK5QChar@QtCore{00040703}[2001b2dc].dll  - Undefined Reference
    QString::utf16() const                    - Undefined Reference
    _ZNK7QString5utf16Ev@QtCore{00040703}[2001b2dc].dll  - Undefined Reference
    QString::endsWith(const QLatin1String&, Qt::CaseSensitivity) const  - Undefined Reference
    _ZNK7QString8endsWithERK13QLatin1StringN2Qt15CaseSensitivityE@QtCore{00040703}[2001b2dc].dll  - Undefined Reference
    QString::operator ==(const QString&) const  - Undefined Reference
    _ZNK7QStringeqERKS_@QtCore{00040703}[2001b2dc].dll  - Undefined Reference
    QVariant::toByteArray() const             - Undefined Reference
    _ZNK8QVariant11toByteArrayEv@QtCore{00040703}[2001b2dc].dll  - Undefined Reference
    QVariant::isNull() const                  - Undefined Reference
    _ZNK8QVariant6isNullEv@QtCore{00040703}[2001b2dc].dll  - Undefined Reference
    QSettings::value(const QString&, const QVariant&) const  - Undefined Reference
    _ZNK9QSettings5valueERK7QStringRK8QVariant@QtCore{00040703}[2001b2dc].dll  - Undefined Reference
    typeinfo for QObject                      - Undefined Reference
    _ZTI7QObject@QtCore{00040703}[2001b2dc].dll  - Undefined Reference
    typeinfo for std::bad_alloc               - Undefined Reference
    _ZTISt9bad_alloc@stdnew{000a0000}[20022178].dll  - Undefined Reference
    vtable for __cxxabiv1::__class_type_info  - Undefined Reference
    _ZTVN10__cxxabiv117__class_type_infoE@drtaeabi{000a0000}.dll  - Undefined Reference
    vtable for __cxxabiv1::__si_class_type_info  - Undefined Reference
    _ZTVN10__cxxabiv120__si_class_type_infoE@drtaeabi{000a0000}.dll  - Undefined Reference
    operator delete (void*)                   - Undefined Reference
    _ZdlPv@stdnew{000a0000}[20022178].dll     - Undefined Reference
    operator new(unsigned)                    - Undefined Reference
    _Znwj@stdnew{000a0000}[20022178].dll      - Undefined Reference
    __aeabi_f2iz                              - Undefined Reference
    __aeabi_f2iz@dfpaeabi{000a0000}.dll       - Undefined Reference
    __aeabi_memcpy4                           - Undefined Reference
    __aeabi_memcpy4@drtaeabi{000a0000}.dll    - Undefined Reference
    __aeabi_uidivmod                          - Undefined Reference
    __aeabi_uidivmod@drtaeabi{000a0000}.dll   - Undefined Reference
    __aeabi_unwind_cpp_pr0                    - Undefined Reference
    __aeabi_unwind_cpp_pr0@drtaeabi{000a0000}.dll  - Undefined Reference
    __cxa_begin_catch                         - Undefined Reference
    __cxa_begin_catch@drtaeabi{000a0000}.dll  - Undefined Reference
    __cxa_end_catch                           - Undefined Reference
    __cxa_end_catch@drtaeabi{000a0000}.dll    - Undefined Reference
    __cxa_end_cleanup                         - Undefined Reference
    __cxa_end_cleanup@drtaeabi{000a0000}.dll  - Undefined Reference
    __cxa_guard_abort                         - Undefined Reference
    __cxa_guard_abort@drtaeabi{000a0000}.dll  - Undefined Reference
    __cxa_guard_acquire                       - Undefined Reference
    __cxa_guard_acquire@drtaeabi{000a0000}.dll  - Undefined Reference
    __cxa_guard_release                       - Undefined Reference
    __cxa_guard_release@drtaeabi{000a0000}.dll  - Undefined Reference
    __cxa_pure_virtual                        - Undefined Reference
    __cxa_pure_virtual@drtaeabi{000a0000}.dll  - Undefined Reference
    __cxa_rethrow                             - Undefined Reference
    __cxa_rethrow@drtaeabi{000a0000}.dll      - Undefined Reference
    memcmp                                    - Undefined Reference
    memcmp@libc{00010001}[10207369].dll       - Undefined Reference
    strcmp                                    - Undefined Reference
    strcmp@libc{00010001}[10207369].dll       - Undefined Reference
    Image$$ER_RO$$Base                       0x00008000   Number         0  anon$$obj.o(linker$$defined$$symbols)
    _E32Dll                                  0x00008000   ARM Code      40  uc_dll_.o(.emb_text)
    Symbian$$CPP$$Exception$$Descriptor      0x00008014   Data           0  uc_dll_.o(.emb_text)
    __cpp_initialize__aeabi_                 0x00008028   ARM Code      52  ucppinit.o(.emb_text)
    std::nothrow                             0x0000805c   ARM Code       0  ucppinit.o(.emb_text)
    __PLT                                    0x0000805c   ARM Code       0  anon$$obj.o(.plt)
    QtMobility::QSensorBackend::getStaticMetaObject() 0x00008325   Thumb Code     4  qsensorbackend.o(.text)
    QtMobility::QSensorBackend::metaObject() const 0x00008329   Thumb Code    28  qsensorbackend.o(.text)
    QtMobility::QSensorBackend::qt_metacast(const char*) 0x00008345   Thumb Code    40  qsensorbackend.o(.text)
    QtMobility::QSensorBackend::qt_metacall(QMetaObject::Call, int, void**) 0x0000836d   Thumb Code    36  qsensorbackend.o(.text)
    QtMobility::QSensorBackend::QSensorBackend__sub_object(QtMobility::QSensor*) 0x00008391   Thumb Code    26  qsensorbackend.o(.text)
    QtMobility::QSensorBackend::~QSensorBackend() 0x000083ab   Thumb Code     0  qsensorbackend.o(.text)
    QtMobility::QSensorBackend::~QSensorBackend__sub_object() 0x000083ab   Thumb Code    14  qsensorbackend.o(.text)
    QtMobility::QSensorBackend::~QSensorBackend__deallocating() 0x000083b9   Thumb Code    22  qsensorbackend.o(.text)
    QtMobility::QSensorBackend::addDataRate(float, float) 0x000083cf   Thumb Code    62  qsensorbackend.o(.text)
    QtMobility::QSensorBackend::setDataRates(const QtMobility::QSensor*) 0x0000840d   Thumb Code   202  qsensorbackend.o(.text)
    QtMobility::QSensorBackend::addOutputRange(float, float, float) 0x000084d7   Thumb Code    48  qsensorbackend.o(.text)
    QtMobility::QSensorBackend::setDescription(const QString&) 0x00008507   Thumb Code    28  qsensorbackend.o(.text)
    QtMobility::QSensorBackend::reading() const 0x00008523   Thumb Code    16  qsensorbackend.o(.text)
    QtMobility::QSensorBackend::newReadingAvailable() 0x00008533   Thumb Code   148  qsensorbackend.o(.text)
    QtMobility::QSensorBackend::sensorStopped() 0x000085c7   Thumb Code    18  qsensorbackend.o(.text)
    QtMobility::QSensorBackend::sensorBusy() 0x000085d9   Thumb Code    24  qsensorbackend.o(.text)
    QtMobility::QSensorBackend::sensorError(int) 0x000085f1   Thumb Code    28  qsensorbackend.o(.text)
    QtMobility::QSensorBackend::setReadings(QtMobility::QSensorReading*, QtMobility::QSensorReading*, QtMobility::QSensorReading*) 0x0000860d   Thumb Code    20  qsensorbackend.o(.text)
    QtMobility::QSensor::sensorTypes()       0x000089f7   Thumb Code   110  qsensormanager.o(.text)
    QtMobility::QSensor::sensorsForType(const QByteArray&) 0x00008a65   Thumb Code    68  qsensormanager.o(.text)
    QtMobility::QSensor::defaultSensorForType(const QByteArray&) 0x00008aa9   Thumb Code   378  qsensormanager.o(.text)
    QtMobility::QSensorManager::registerBackend(const QByteArray&, const QByteArray&, QtMobility::QSensorBackendFactory*) 0x00008c23   Thumb Code    82  qsensormanager.o(.text)
    QtMobility::QSensorManager::createBackend(QtMobility::QSensor*) 0x00008c75   Thumb Code   724  qsensormanager.o(.text)
    QtMobility::QSensorManager::registerStaticPlugin(QtMobility::QSensorPluginInterface*(*)()) 0x00008f49   Thumb Code    18  qsensormanager.o(.text)
    QtMobility::sensors_unit_test_hook(int)  0x00008f5b   Thumb Code   200  qsensormanager.o(.text)
    QtMobility::QSensorPluginLoader::load()  0x0000907f   Thumb Code   558  qsensorpluginloader.o(.text)
    QtMobility::QSensorPluginLoader::QSensorPluginLoader(const char*, const QString&) 0x000092ad   Thumb Code   152  qsensorpluginloader.o(.text)
    QtMobility::QSensorPluginLoader::QSensorPluginLoader__sub_object(const char*, const QString&) 0x000092ad   Thumb Code     0  qsensorpluginloader.o(.text)
    QtMobility::QSensorPluginLoader::~QSensorPluginLoader() 0x00009345   Thumb Code   550  qsensorpluginloader.o(.text)
    QtMobility::QSensorPluginLoader::~QSensorPluginLoader__sub_object() 0x00009345   Thumb Code     0  qsensorpluginloader.o(.text)
    QtMobility::QSensor::getStaticMetaObject() 0x0000956d   Thumb Code     4  qsensor.o(.text)
    QtMobility::QSensor::metaObject() const  0x00009571   Thumb Code    28  qsensor.o(.text)
    QtMobility::QSensor::qt_metacast(const char*) 0x0000958d   Thumb Code    40  qsensor.o(.text)
    QtMobility::QSensor::setOutputRange(int) 0x000095b5   Thumb Code    78  qsensor.o(.text)
    QtMobility::QSensor::activeChanged()     0x00009603   Thumb Code    18  qsensor.o(.text)
    QtMobility::QSensor::stop()              0x00009615   Thumb Code    68  qsensor.o(.text)
    QtMobility::QSensor::setActive(bool)     0x00009659   Thumb Code    46  qsensor.o(.text)
    QtMobility::QSensor::setDataRate(int)    0x00009687   Thumb Code   330  qsensor.o(.text)
    QtMobility::QSensor::setIdentifier(const QByteArray&) 0x000097d1   Thumb Code    56  qsensor.o(.text)
    QtMobility::QSensor::error() const       0x00009809   Thumb Code    12  qsensor.o(.text)
    QtMobility::QSensor::description() const 0x00009815   Thumb Code    34  qsensor.o(.text)
    QtMobility::QSensor::outputRange() const 0x00009837   Thumb Code    12  qsensor.o(.text)
    QtMobility::QSensor::outputRanges() const 0x00009843   Thumb Code    30  qsensor.o(.text)
    QtMobility::QSensor::isActive() const    0x00009861   Thumb Code    14  qsensor.o(.text)
    QtMobility::QSensor::isBusy() const      0x0000986f   Thumb Code    14  qsensor.o(.text)
    QtMobility::QSensor::reading() const     0x0000987d   Thumb Code    12  qsensor.o(.text)
    QtMobility::QSensor::dataRate() const    0x00009889   Thumb Code    12  qsensor.o(.text)
    QtMobility::QSensor::availableDataRates() const 0x00009895   Thumb Code    30  qsensor.o(.text)
    QtMobility::QSensor::isConnectedToBackend() const 0x000098b3   Thumb Code    22  qsensor.o(.text)
    QtMobility::QSensor::type() const        0x000098c9   Thumb Code    28  qsensor.o(.text)
    QtMobility::QSensor::identifier() const  0x000098e5   Thumb Code    26  qsensor.o(.text)
    QtMobility::QSensor::connectToBackend()  0x000098ff   Thumb Code   166  qsensor.o(.text)
    QtMobility::QSensor::start()             0x000099a5   Thumb Code    92  qsensor.o(.text)
    QtMobility::QSensor::sensorError(int)    0x00009a01   Thumb Code    32  qsensor.o(.text)
    QtMobility::QSensor::readingChanged()    0x00009a21   Thumb Code    18  qsensor.o(.text)
    QtMobility::QSensor::busyChanged()       0x00009a33   Thumb Code    18  qsensor.o(.text)
    QtMobility::QSensor::qt_metacall(QMetaObject::Call, int, void**) 0x00009a45   Thumb Code   692  qsensor.o(.text)
    QtMobility::QSensor::QSensor(const QByteArray&, QObject*) 0x00009cf9   Thumb Code    76  qsensor.o(.text)
    QtMobility::QSensor::QSensor__sub_object(const QByteArray&, QObject*) 0x00009cf9   Thumb Code     0  qsensor.o(.text)
    QtMobility::QSensor::~QSensor()          0x00009d45   Thumb Code   384  qsensor.o(.text)
    QtMobility::QSensor::~QSensor__sub_object() 0x00009d45   Thumb Code     0  qsensor.o(.text)
    QtMobility::QSensor::~QSensor__deallocating() 0x00009ec5   Thumb Code    22  qsensor.o(.text)
    QtMobility::QSensor::addFilter(QtMobility::QSensorFilter*) 0x00009edb   Thumb Code    56  qsensor.o(.text)
    QtMobility::QSensor::removeFilter(QtMobility::QSensorFilter*) 0x00009f13   Thumb Code    66  qsensor.o(.text)
    QtMobility::QSensorFilter::QSensorFilter__sub_object() 0x00009f55   Thumb Code    10  qsensor.o(.text)
    QtMobility::QSensorFilter::~QSensorFilter() 0x00009f5f   Thumb Code     0  qsensor.o(.text)
    QtMobility::QSensorFilter::~QSensorFilter__sub_object() 0x00009f5f   Thumb Code    26  qsensor.o(.text)
    QtMobility::QSensorFilter::setSensor(QtMobility::QSensor*) 0x00009f79   Thumb Code     4  qsensor.o(.text)
    QtMobility::QSensorReading::getStaticMetaObject() 0x00009f7d   Thumb Code     4  qsensor.o(.text)
    QtMobility::QSensorReading::metaObject() const 0x00009f81   Thumb Code    28  qsensor.o(.text)
    QtMobility::QSensorReading::qt_metacast(const char*) 0x00009f9d   Thumb Code    40  qsensor.o(.text)
    QtMobility::QSensorReading::timestamp() const 0x00009fc5   Thumb Code    16  qsensor.o(.text)
    QtMobility::QSensorReading::qt_metacall(QMetaObject::Call, int, void**) 0x00009fd5   Thumb Code   118  qsensor.o(.text)
    QtMobility::QSensorReading::~QSensorReading() 0x0000a04b   Thumb Code    30  qsensor.o(.text)
    QtMobility::QSensorReading::~QSensorReading__sub_object() 0x0000a04b   Thumb Code     0  qsensor.o(.text)
    QtMobility::QSensorReading::~QSensorReading__deallocating() 0x0000a069   Thumb Code    22  qsensor.o(.text)
    QtMobility::QSensorReading::setTimestamp(QtMobility::qtimestamp) 0x0000a07f   Thumb Code    16  qsensor.o(.text)
    QtMobility::QSensorReading::valueCount() const 0x0000a08f   Thumb Code    32  qsensor.o(.text)
    QtMobility::QSensorReading::value(int) const 0x0000a0af   Thumb Code    52  qsensor.o(.text)
    QtMobility::QSensorReading::QSensorReading(QObject*, QtMobility::QSensorReadingPrivate*) 0x0000a0e3   Thumb Code    90  qsensor.o(.text)
    QtMobility::QSensorReading::QSensorReading__sub_object(QObject*, QtMobility::QSensorReadingPrivate*) 0x0000a0e3   Thumb Code     0  qsensor.o(.text)
    QtMobility::QSensorReading::copyValuesFrom(QtMobility::QSensorReading*) 0x0000a13d   Thumb Code    26  qsensor.o(.text)
    QtMobility::QAccelerometerReading::getStaticMetaObject() 0x0000a259   Thumb Code     4  qaccelerometer.o(.text)
    QtMobility::QAccelerometerReading::metaObject() const 0x0000a25d   Thumb Code    28  qaccelerometer.o(.text)
    QtMobility::QAccelerometerReading::qt_metacast(const char*) 0x0000a279   Thumb Code    40  qaccelerometer.o(.text)
    QtMobility::QAccelerometerReading::z() const 0x0000a2a1   Thumb Code    12  qaccelerometer.o(.text)
    QtMobility::QAccelerometerReading::y() const 0x0000a2ad   Thumb Code    12  qaccelerometer.o(.text)
    QtMobility::QAccelerometerReading::x() const 0x0000a2b9   Thumb Code    12  qaccelerometer.o(.text)
    QtMobility::QAccelerometerReading::qt_metacall(QMetaObject::Call, int, void**) 0x0000a2c5   Thumb Code   146  qaccelerometer.o(.text)
    QtMobility::QAccelerometerReading::QAccelerometerReading(QObject*) 0x0000a357   Thumb Code    64  qaccelerometer.o(.text)
    QtMobility::QAccelerometerReading::QAccelerometerReading__sub_object(QObject*) 0x0000a357   Thumb Code     0  qaccelerometer.o(.text)
    QtMobility::QAccelerometerReading::~QAccelerometerReading() 0x0000a397   Thumb Code    30  qaccelerometer.o(.text)
    QtMobility::QAccelerometerReading::~QAccelerometerReading__sub_object() 0x0000a397   Thumb Code     0  qaccelerometer.o(.text)
    QtMobility::QAccelerometerReading::~QAccelerometerReading__deallocating() 0x0000a3b5   Thumb Code    22  qaccelerometer.o(.text)
    QtMobility::QAccelerometerReading::copyValuesFrom(QtMobility::QSensorReading*) 0x0000a3cb   Thumb Code    44  qaccelerometer.o(.text)
    QtMobility::QAccelerometerReading::setX(float) 0x0000a3f7   Thumb Code    10  qaccelerometer.o(.text)
    QtMobility::QAccelerometerReading::setY(float) 0x0000a401   Thumb Code    10  qaccelerometer.o(.text)
    QtMobility::QAccelerometerReading::setZ(float) 0x0000a40b   Thumb Code    10  qaccelerometer.o(.text)
    QtMobility::QAccelerometer::getStaticMetaObject() 0x0000a415   Thumb Code     4  qaccelerometer.o(.text)
    QtMobility::QAccelerometer::metaObject() const 0x0000a419   Thumb Code    28  qaccelerometer.o(.text)
    QtMobility::QAccelerometer::qt_metacast(const char*) 0x0000a435   Thumb Code    42  qaccelerometer.o(.text)
    QtMobility::QAccelerometer::qt_metacall(QMetaObject::Call, int, void**) 0x0000a45f   Thumb Code    36  qaccelerometer.o(.text)
    QtMobility::QAmbientLightReading::getStaticMetaObject() 0x0000a495   Thumb Code     4  qambientlightsensor.o(.text)
    QtMobility::QAmbientLightReading::metaObject() const 0x0000a499   Thumb Code    28  qambientlightsensor.o(.text)
    QtMobility::QAmbientLightReading::qt_metacast(const char*) 0x0000a4b5   Thumb Code    40  qambientlightsensor.o(.text)
    QtMobility::QAmbientLightReading::lightLevel() const 0x0000a4dd   Thumb Code    12  qambientlightsensor.o(.text)
    QtMobility::QAmbientLightReading::qt_metacall(QMetaObject::Call, int, void**) 0x0000a4e9   Thumb Code   116  qambientlightsensor.o(.text)
    QtMobility::QAmbientLightReading::QAmbientLightReading(QObject*) 0x0000a55d   Thumb Code    60  qambientlightsensor.o(.text)
    QtMobility::QAmbientLightReading::QAmbientLightReading__sub_object(QObject*) 0x0000a55d   Thumb Code     0  qambientlightsensor.o(.text)
    QtMobility::QAmbientLightReading::~QAmbientLightReading() 0x0000a599   Thumb Code    30  qambientlightsensor.o(.text)
    QtMobility::QAmbientLightReading::~QAmbientLightReading__sub_object() 0x0000a599   Thumb Code     0  qambientlightsensor.o(.text)
    QtMobility::QAmbientLightReading::~QAmbientLightReading__deallocating() 0x0000a5b7   Thumb Code    22  qambientlightsensor.o(.text)
    QtMobility::QAmbientLightReading::copyValuesFrom(QtMobility::QSensorReading*) 0x0000a5cd   Thumb Code    40  qambientlightsensor.o(.text)
    QtMobility::QAmbientLightReading::setLightLevel(QtMobility::QAmbientLightReading::LightLevel) 0x0000a5f5   Thumb Code    48  qambientlightsensor.o(.text)
    QtMobility::QAmbientLightSensor::getStaticMetaObject() 0x0000a625   Thumb Code     4  qambientlightsensor.o(.text)
    QtMobility::QAmbientLightSensor::metaObject() const 0x0000a629   Thumb Code    28  qambientlightsensor.o(.text)
    QtMobility::QAmbientLightSensor::qt_metacast(const char*) 0x0000a645   Thumb Code    42  qambientlightsensor.o(.text)
    QtMobility::QAmbientLightSensor::qt_metacall(QMetaObject::Call, int, void**) 0x0000a66f   Thumb Code    36  qambientlightsensor.o(.text)
    QtMobility::QCompassReading::getStaticMetaObject() 0x0000a6a5   Thumb Code     4  qcompass.o(.text)
    QtMobility::QCompassReading::metaObject() const 0x0000a6a9   Thumb Code    28  qcompass.o(.text)
    QtMobility::QCompassReading::qt_metacast(const char*) 0x0000a6c5   Thumb Code    40  qcompass.o(.text)
    QtMobility::QCompassReading::calibrationLevel() const 0x0000a6ed   Thumb Code    12  qcompass.o(.text)
    QtMobility::QCompassReading::azimuth() const 0x0000a6f9   Thumb Code    12  qcompass.o(.text)
    QtMobility::QCompassReading::qt_metacall(QMetaObject::Call, int, void**) 0x0000a705   Thumb Code   132  qcompass.o(.text)
    QtMobility::QCompassReading::QCompassReading(QObject*) 0x0000a789   Thumb Code    62  qcompass.o(.text)
    QtMobility::QCompassReading::QCompassReading__sub_object(QObject*) 0x0000a789   Thumb Code     0  qcompass.o(.text)
    QtMobility::QCompassReading::~QCompassReading() 0x0000a7c7   Thumb Code    30  qcompass.o(.text)
    QtMobility::QCompassReading::~QCompassReading__sub_object() 0x0000a7c7   Thumb Code     0  qcompass.o(.text)
    QtMobility::QCompassReading::~QCompassReading__deallocating() 0x0000a7e5   Thumb Code    22  qcompass.o(.text)
    QtMobility::QCompassReading::copyValuesFrom(QtMobility::QSensorReading*) 0x0000a7fb   Thumb Code    44  qcompass.o(.text)
    QtMobility::QCompassReading::setAzimuth(float) 0x0000a827   Thumb Code    10  qcompass.o(.text)
    QtMobility::QCompassReading::setCalibrationLevel(float) 0x0000a831   Thumb Code    10  qcompass.o(.text)
    QtMobility::QCompass::getStaticMetaObject() 0x0000a83b   Thumb Code     4  qcompass.o(.text)
    QtMobility::QCompass::metaObject() const 0x0000a83f   Thumb Code    28  qcompass.o(.text)
    QtMobility::QCompass::qt_metacast(const char*) 0x0000a85b   Thumb Code    42  qcompass.o(.text)
    QtMobility::QCompass::qt_metacall(QMetaObject::Call, int, void**) 0x0000a885   Thumb Code    36  qcompass.o(.text)
    QtMobility::QMagnetometerReading::getStaticMetaObject() 0x0000a8b9   Thumb Code     4  qmagnetometer.o(.text)
    QtMobility::QMagnetometerReading::metaObject() const 0x0000a8bd   Thumb Code    28  qmagnetometer.o(.text)
    QtMobility::QMagnetometerReading::qt_metacast(const char*) 0x0000a8d9   Thumb Code    40  qmagnetometer.o(.text)
    QtMobility::QMagnetometerReading::calibrationLevel() const 0x0000a901   Thumb Code    12  qmagnetometer.o(.text)
    QtMobility::QMagnetometerReading::z() const 0x0000a90d   Thumb Code    12  qmagnetometer.o(.text)
    QtMobility::QMagnetometerReading::y() const 0x0000a919   Thumb Code    12  qmagnetometer.o(.text)
    QtMobility::QMagnetometerReading::x() const 0x0000a925   Thumb Code    12  qmagnetometer.o(.text)
    QtMobility::QMagnetometerReading::qt_metacall(QMetaObject::Call, int, void**) 0x0000a931   Thumb Code   160  qmagnetometer.o(.text)
    QtMobility::QMagnetometerReading::QMagnetometerReading(QObject*) 0x0000a9d1   Thumb Code    66  qmagnetometer.o(.text)
    QtMobility::QMagnetometerReading::QMagnetometerReading__sub_object(QObject*) 0x0000a9d1   Thumb Code     0  qmagnetometer.o(.text)
    QtMobility::QMagnetometerReading::~QMagnetometerReading() 0x0000aa13   Thumb Code    30  qmagnetometer.o(.text)
    QtMobility::QMagnetometerReading::~QMagnetometerReading__sub_object() 0x0000aa13   Thumb Code     0  qmagnetometer.o(.text)
    QtMobility::QMagnetometerReading::~QMagnetometerReading__deallocating() 0x0000aa31   Thumb Code    22  qmagnetometer.o(.text)
    QtMobility::QMagnetometerReading::copyValuesFrom(QtMobility::QSensorReading*) 0x0000aa47   Thumb Code    48  qmagnetometer.o(.text)
    QtMobility::QMagnetometerReading::setX(float) 0x0000aa77   Thumb Code    10  qmagnetometer.o(.text)
    QtMobility::QMagnetometerReading::setY(float) 0x0000aa81   Thumb Code    10  qmagnetometer.o(.text)
    QtMobility::QMagnetometerReading::setZ(float) 0x0000aa8b   Thumb Code    10  qmagnetometer.o(.text)
    QtMobility::QMagnetometerReading::setCalibrationLevel(float) 0x0000aa95   Thumb Code    10  qmagnetometer.o(.text)
    QtMobility::QMagnetometer::getStaticMetaObject() 0x0000aa9f   Thumb Code     4  qmagnetometer.o(.text)
    QtMobility::QMagnetometer::metaObject() const 0x0000aaa3   Thumb Code    28  qmagnetometer.o(.text)
    QtMobility::QMagnetometer::qt_metacast(const char*) 0x0000aabf   Thumb Code    42  qmagnetometer.o(.text)
    QtMobility::QMagnetometer::qt_metacall(QMetaObject::Call, int, void**) 0x0000aae9   Thumb Code    36  qmagnetometer.o(.text)
    QtMobility::QOrientationReading::getStaticMetaObject() 0x0000ab1d   Thumb Code     4  qorientationsensor.o(.text)
    QtMobility::QOrientationReading::metaObject() const 0x0000ab21   Thumb Code    28  qorientationsensor.o(.text)
    QtMobility::QOrientationReading::qt_metacast(const char*) 0x0000ab3d   Thumb Code    40  qorientationsensor.o(.text)
    QtMobility::QOrientationReading::orientation() const 0x0000ab65   Thumb Code    12  qorientationsensor.o(.text)
    QtMobility::QOrientationReading::qt_metacall(QMetaObject::Call, int, void**) 0x0000ab71   Thumb Code   116  qorientationsensor.o(.text)
    QtMobility::QOrientationReading::QOrientationReading(QObject*) 0x0000abe5   Thumb Code    60  qorientationsensor.o(.text)
    QtMobility::QOrientationReading::QOrientationReading__sub_object(QObject*) 0x0000abe5   Thumb Code     0  qorientationsensor.o(.text)
    QtMobility::QOrientationReading::~QOrientationReading() 0x0000ac21   Thumb Code    30  qorientationsensor.o(.text)
    QtMobility::QOrientationReading::~QOrientationReading__sub_object() 0x0000ac21   Thumb Code     0  qorientationsensor.o(.text)
    QtMobility::QOrientationReading::~QOrientationReading__deallocating() 0x0000ac3f   Thumb Code    22  qorientationsensor.o(.text)
    QtMobility::QOrientationReading::copyValuesFrom(QtMobility::QSensorReading*) 0x0000ac55   Thumb Code    40  qorientationsensor.o(.text)
    QtMobility::QOrientationReading::setOrientation(QtMobility::QOrientationReading::Orientation) 0x0000ac7d   Thumb Code    52  qorientationsensor.o(.text)
    QtMobility::QOrientationSensor::getStaticMetaObject() 0x0000acb1   Thumb Code     4  qorientationsensor.o(.text)
    QtMobility::QOrientationSensor::metaObject() const 0x0000acb5   Thumb Code    28  qorientationsensor.o(.text)
    QtMobility::QOrientationSensor::qt_metacast(const char*) 0x0000acd1   Thumb Code    42  qorientationsensor.o(.text)
    QtMobility::QOrientationSensor::qt_metacall(QMetaObject::Call, int, void**) 0x0000acfb   Thumb Code    36  qorientationsensor.o(.text)
    QtMobility::QProximityReading::getStaticMetaObject() 0x0000ad31   Thumb Code     4  qproximitysensor.o(.text)
    QtMobility::QProximityReading::metaObject() const 0x0000ad35   Thumb Code    28  qproximitysensor.o(.text)
    QtMobility::QProximityReading::qt_metacast(const char*) 0x0000ad51   Thumb Code    40  qproximitysensor.o(.text)
    QtMobility::QProximityReading::close() const 0x0000ad79   Thumb Code    12  qproximitysensor.o(.text)
    QtMobility::QProximityReading::qt_metacall(QMetaObject::Call, int, void**) 0x0000ad85   Thumb Code   116  qproximitysensor.o(.text)
    QtMobility::QProximityReading::QProximityReading(QObject*) 0x0000adf9   Thumb Code    60  qproximitysensor.o(.text)
    QtMobility::QProximityReading::QProximityReading__sub_object(QObject*) 0x0000adf9   Thumb Code     0  qproximitysensor.o(.text)
    QtMobility::QProximityReading::~QProximityReading() 0x0000ae35   Thumb Code    30  qproximitysensor.o(.text)
    QtMobility::QProximityReading::~QProximityReading__sub_object() 0x0000ae35   Thumb Code     0  qproximitysensor.o(.text)
    QtMobility::QProximityReading::~QProximityReading__deallocating() 0x0000ae53   Thumb Code    22  qproximitysensor.o(.text)
    QtMobility::QProximityReading::copyValuesFrom(QtMobility::QSensorReading*) 0x0000ae69   Thumb Code    40  qproximitysensor.o(.text)
    QtMobility::QProximityReading::setClose(bool) 0x0000ae91   Thumb Code    10  qproximitysensor.o(.text)
    QtMobility::QProximitySensor::getStaticMetaObject() 0x0000ae9b   Thumb Code     4  qproximitysensor.o(.text)
    QtMobility::QProximitySensor::metaObject() const 0x0000ae9f   Thumb Code    28  qproximitysensor.o(.text)
    QtMobility::QProximitySensor::qt_metacast(const char*) 0x0000aebb   Thumb Code    42  qproximitysensor.o(.text)
    QtMobility::QProximitySensor::qt_metacall(QMetaObject::Call, int, void**) 0x0000aee5   Thumb Code    36  qproximitysensor.o(.text)
    QtMobility::QRotationReading::getStaticMetaObject() 0x0000af19   Thumb Code     4  qrotationsensor.o(.text)
    QtMobility::QRotationReading::metaObject() const 0x0000af1d   Thumb Code    28  qrotationsensor.o(.text)
    QtMobility::QRotationReading::qt_metacast(const char*) 0x0000af39   Thumb Code    40  qrotationsensor.o(.text)
    QtMobility::QRotationReading::z() const  0x0000af61   Thumb Code    12  qrotationsensor.o(.text)
    QtMobility::QRotationReading::y() const  0x0000af6d   Thumb Code    12  qrotationsensor.o(.text)
    QtMobility::QRotationReading::x() const  0x0000af79   Thumb Code    12  qrotationsensor.o(.text)
    QtMobility::QRotationReading::qt_metacall(QMetaObject::Call, int, void**) 0x0000af85   Thumb Code   146  qrotationsensor.o(.text)
    QtMobility::QRotationReading::QRotationReading(QObject*) 0x0000b017   Thumb Code    64  qrotationsensor.o(.text)
    QtMobility::QRotationReading::QRotationReading__sub_object(QObject*) 0x0000b017   Thumb Code     0  qrotationsensor.o(.text)
    QtMobility::QRotationReading::~QRotationReading() 0x0000b057   Thumb Code    30  qrotationsensor.o(.text)
    QtMobility::QRotationReading::~QRotationReading__sub_object() 0x0000b057   Thumb Code     0  qrotationsensor.o(.text)
    QtMobility::QRotationReading::~QRotationReading__deallocating() 0x0000b075   Thumb Code    22  qrotationsensor.o(.text)
    QtMobility::QRotationReading::copyValuesFrom(QtMobility::QSensorReading*) 0x0000b08b   Thumb Code    44  qrotationsensor.o(.text)
    QtMobility::QRotationReading::setX(float) 0x0000b0b7   Thumb Code    10  qrotationsensor.o(.text)
    QtMobility::QRotationReading::setY(float) 0x0000b0c1   Thumb Code    10  qrotationsensor.o(.text)
    QtMobility::QRotationReading::setZ(float) 0x0000b0cb   Thumb Code    10  qrotationsensor.o(.text)
    QtMobility::QRotationSensor::getStaticMetaObject() 0x0000b0d5   Thumb Code     4  qrotationsensor.o(.text)
    QtMobility::QRotationSensor::metaObject() const 0x0000b0d9   Thumb Code    28  qrotationsensor.o(.text)
    QtMobility::QRotationSensor::qt_metacast(const char*) 0x0000b0f5   Thumb Code    42  qrotationsensor.o(.text)
    QtMobility::QRotationSensor::qt_metacall(QMetaObject::Call, int, void**) 0x0000b11f   Thumb Code    36  qrotationsensor.o(.text)
    QtMobility::QTapReading::getStaticMetaObject() 0x0000b155   Thumb Code     4  qtapsensor.o(.text)
    QtMobility::QTapReading::metaObject() const 0x0000b159   Thumb Code    28  qtapsensor.o(.text)
    QtMobility::QTapReading::qt_metacast(const char*) 0x0000b175   Thumb Code    40  qtapsensor.o(.text)
    QtMobility::QTapReading::isDoubleTap() const 0x0000b19d   Thumb Code    12  qtapsensor.o(.text)
    QtMobility::QTapReading::tapDirection() const 0x0000b1a9   Thumb Code    12  qtapsensor.o(.text)
    QtMobility::QTapReading::qt_metacall(QMetaObject::Call, int, void**) 0x0000b1b5   Thumb Code   132  qtapsensor.o(.text)
    QtMobility::QTapReading::QTapReading(QObject*) 0x0000b239   Thumb Code    62  qtapsensor.o(.text)
    QtMobility::QTapReading::QTapReading__sub_object(QObject*) 0x0000b239   Thumb Code     0  qtapsensor.o(.text)
    QtMobility::QTapReading::~QTapReading()  0x0000b277   Thumb Code    30  qtapsensor.o(.text)
    QtMobility::QTapReading::~QTapReading__sub_object() 0x0000b277   Thumb Code     0  qtapsensor.o(.text)
    QtMobility::QTapReading::~QTapReading__deallocating() 0x0000b295   Thumb Code    22  qtapsensor.o(.text)
    QtMobility::QTapReading::copyValuesFrom(QtMobility::QSensorReading*) 0x0000b2ab   Thumb Code    46  qtapsensor.o(.text)
    QtMobility::QTapReading::setTapDirection(QtMobility::QTapReading::TapDirection) 0x0000b2d9   Thumb Code    76  qtapsensor.o(.text)
    QtMobility::QTapReading::setDoubleTap(bool) 0x0000b325   Thumb Code    10  qtapsensor.o(.text)
    QtMobility::QTapSensor::getStaticMetaObject() 0x0000b32f   Thumb Code     4  qtapsensor.o(.text)
    QtMobility::QTapSensor::metaObject() const 0x0000b333   Thumb Code    28  qtapsensor.o(.text)
    QtMobility::QTapSensor::qt_metacast(const char*) 0x0000b34f   Thumb Code    42  qtapsensor.o(.text)
    QtMobility::QTapSensor::qt_metacall(QMetaObject::Call, int, void**) 0x0000b379   Thumb Code    36  qtapsensor.o(.text)
    __ARM_switch8                            0x0000b3ac   ARM Code      24  switch8.o(.text)
    __rt_switch8                             0x0000b3ac   ARM Code       0  switch8.o(.text)
    _E32Dll_Body                             0x0000b3c4   ARM Code      76  uc_dll.o(.text)
    __aeabi_atexit                           0x0000b414   ARM Code      40  ucppfini.o(.text)
    __cxa_atexit                             0x0000b43c   ARM Code      64  ucppfini.o(.text)
    __cxa_finalize                           0x0000b47c   ARM Code      48  ucppfini.o(.text)
    run_static_dtors                         0x0000b4ac   ARM Code      16  ucppfini.o(.text)
    __DLL_Export_Table__                     0x0000b4c8   ARM Code       4  dllexp.o(.text)
    qDebug()                                 0x0000b84d   Thumb Code   108  qsensormanager.o(i._Z6qDebugv)
    qWarning()                               0x0000b8d5   Thumb Code    88  qsensorpluginloader.o(i._Z8qWarningv)
    QByteArray::QByteArray(const QByteArray&) 0x0000b945   Thumb Code    20  qsensormanager.o(i._ZN10QByteArrayC1ERKS_)
    QByteArray::QByteArray__sub_object(const QByteArray&) 0x0000b945   Thumb Code     0  qsensormanager.o(i._ZN10QByteArrayC1ERKS_)
    QByteArray::QByteArray()                 0x0000b959   Thumb Code    18  qsensormanager.o(i._ZN10QByteArrayC1Ev)
    QByteArray::QByteArray__sub_object()     0x0000b959   Thumb Code     0  qsensormanager.o(i._ZN10QByteArrayC1Ev)
    QByteArray::~QByteArray()                0x0000b971   Thumb Code    24  qsensorbackend.o(i._ZN10QByteArrayD1Ev)
    QByteArray::~QByteArray__sub_object()    0x0000b971   Thumb Code     0  qsensorbackend.o(i._ZN10QByteArrayD1Ev)
    QtMobility::QTapSensor::~QTapSensor__deallocating() 0x0000b989   Thumb Code    28  qtapsensor.o(i._ZN10QtMobility10QTapSensorD0Ev)
    QtMobility::QTapSensor::~QTapSensor()    0x0000b9a5   Thumb Code    14  qtapsensor.o(i._ZN10QtMobility10QTapSensorD1Ev)
    QtMobility::QTapSensor::~QTapSensor__sub_object() 0x0000b9a5   Thumb Code     0  qtapsensor.o(i._ZN10QtMobility10QTapSensorD1Ev)
    QtMobility::QMagnetometer::~QMagnetometer__deallocating() 0x0000b9b3   Thumb Code    28  qmagnetometer.o(i._ZN10QtMobility13QMagnetometerD0Ev)
    QtMobility::QMagnetometer::~QMagnetometer() 0x0000b9cf   Thumb Code    14  qmagnetometer.o(i._ZN10QtMobility13QMagnetometerD1Ev)
    QtMobility::QMagnetometer::~QMagnetometer__sub_object() 0x0000b9cf   Thumb Code     0  qmagnetometer.o(i._ZN10QtMobility13QMagnetometerD1Ev)
    QtMobility::QAccelerometer::~QAccelerometer__deallocating() 0x0000b9dd   Thumb Code    28  qaccelerometer.o(i._ZN10QtMobility14QAccelerometerD0Ev)
    QtMobility::QAccelerometer::~QAccelerometer() 0x0000b9f9   Thumb Code    14  qaccelerometer.o(i._ZN10QtMobility14QAccelerometerD1Ev)
    QtMobility::QAccelerometer::~QAccelerometer__sub_object() 0x0000b9f9   Thumb Code     0  qaccelerometer.o(i._ZN10QtMobility14QAccelerometerD1Ev)
    QtMobility::QSensorPrivate::QSensorPrivate() 0x0000ba09   Thumb Code   110  qsensor.o(i._ZN10QtMobility14QSensorPrivateC1Ev)
    QtMobility::QSensorPrivate::QSensorPrivate__sub_object() 0x0000ba09   Thumb Code     0  qsensor.o(i._ZN10QtMobility14QSensorPrivateC1Ev)
    QtMobility::QRotationSensor::~QRotationSensor__deallocating() 0x0000bab3   Thumb Code    28  qrotationsensor.o(i._ZN10QtMobility15QRotationSensorD0Ev)
    QtMobility::QRotationSensor::~QRotationSensor() 0x0000bacf   Thumb Code    14  qrotationsensor.o(i._ZN10QtMobility15QRotationSensorD1Ev)
    QtMobility::QRotationSensor::~QRotationSensor__sub_object() 0x0000bacf   Thumb Code     0  qrotationsensor.o(i._ZN10QtMobility15QRotationSensorD1Ev)
    QtMobility::mobilityPlugins(const QString&) 0x0000badd   Thumb Code   676  qsensorpluginloader.o(i._ZN10QtMobility15mobilityPluginsERK7QString)
    QtMobility::QProximitySensor::~QProximitySensor__deallocating() 0x0000be25   Thumb Code    28  qproximitysensor.o(i._ZN10QtMobility16QProximitySensorD0Ev)
    QtMobility::QProximitySensor::~QProximitySensor() 0x0000be41   Thumb Code    14  qproximitysensor.o(i._ZN10QtMobility16QProximitySensorD1Ev)
    QtMobility::QProximitySensor::~QProximitySensor__sub_object() 0x0000be41   Thumb Code     0  qproximitysensor.o(i._ZN10QtMobility16QProximitySensorD1Ev)
    QtMobility::QOrientationSensor::~QOrientationSensor__deallocating() 0x0000be4f   Thumb Code    28  qorientationsensor.o(i._ZN10QtMobility18QOrientationSensorD0Ev)
    QtMobility::QOrientationSensor::~QOrientationSensor() 0x0000be6b   Thumb Code    14  qorientationsensor.o(i._ZN10QtMobility18QOrientationSensorD1Ev)
    QtMobility::QOrientationSensor::~QOrientationSensor__sub_object() 0x0000be6b   Thumb Code     0  qorientationsensor.o(i._ZN10QtMobility18QOrientationSensorD1Ev)
    QtMobility::QAmbientLightSensor::~QAmbientLightSensor__deallocating() 0x0000be79   Thumb Code    28  qambientlightsensor.o(i._ZN10QtMobility19QAmbientLightSensorD0Ev)
    QtMobility::QAmbientLightSensor::~QAmbientLightSensor() 0x0000be95   Thumb Code    14  qambientlightsensor.o(i._ZN10QtMobility19QAmbientLightSensorD1Ev)
    QtMobility::QAmbientLightSensor::~QAmbientLightSensor__sub_object() 0x0000be95   Thumb Code     0  qambientlightsensor.o(i._ZN10QtMobility19QAmbientLightSensorD1Ev)
    QtMobility::QSensorManagerPrivate::~QSensorManagerPrivate() 0x0000bea3   Thumb Code    40  qsensormanager.o(i._ZN10QtMobility21QSensorManagerPrivateD1Ev)
    QtMobility::QSensorManagerPrivate::~QSensorManagerPrivate__sub_object() 0x0000bea3   Thumb Code     0  qsensormanager.o(i._ZN10QtMobility21QSensorManagerPrivateD1Ev)
    QtMobility::QCompass::~QCompass__deallocating() 0x0000bee1   Thumb Code    28  qcompass.o(i._ZN10QtMobility8QCompassD0Ev)
    QtMobility::QCompass::~QCompass()        0x0000befd   Thumb Code    14  qcompass.o(i._ZN10QtMobility8QCompassD1Ev)
    QtMobility::QCompass::~QCompass__sub_object() 0x0000befd   Thumb Code     0  qcompass.o(i._ZN10QtMobility8QCompassD1Ev)
    QStringList::QStringList()               0x0000bf0d   Thumb Code    20  qsensorpluginloader.o(i._ZN11QStringListC1Ev)
    QStringList::QStringList__sub_object()   0x0000bf0d   Thumb Code     0  qsensorpluginloader.o(i._ZN11QStringListC1Ev)
    QStringList::~QStringList()              0x0000bf25   Thumb Code    14  qsensorpluginloader.o(i._ZN11QStringListD1Ev)
    QStringList::~QStringList__sub_object()  0x0000bf25   Thumb Code     0  qsensorpluginloader.o(i._ZN11QStringListD1Ev)
    QBasicAtomicInt::ref()                   0x0000bf33   Thumb Code    24  qsensorbackend.o(i._ZN15QBasicAtomicInt3refEv)
    QBasicAtomicInt::deref()                 0x0000bf4b   Thumb Code    24  qsensorbackend.o(i._ZN15QBasicAtomicInt5derefEv)
    QForeachContainer<QList<QByteArray>>::~QForeachContainer() 0x0000bf63   Thumb Code    14  qsensormanager.o(i._ZN17QForeachContainerI5QListI10QByteArrayEED1Ev)
    QForeachContainer<QList<QByteArray>>::~QForeachContainer__sub_object() 0x0000bf63   Thumb Code     0  qsensormanager.o(i._ZN17QForeachContainerI5QListI10QByteArrayEED1Ev)
    QForeachContainer<QList<QPluginLoader*>>::~QForeachContainer() 0x0000bf71   Thumb Code    14  qsensorpluginloader.o(i._ZN17QForeachContainerI5QListIP13QPluginLoaderEED1Ev)
    QForeachContainer<QList<QPluginLoader*>>::~QForeachContainer__sub_object() 0x0000bf71   Thumb Code     0  qsensorpluginloader.o(i._ZN17QForeachContainerI5QListIP13QPluginLoaderEED1Ev)
    QForeachContainer<QList<QtMobility::QSensorPluginInterface*(*)()>>::~QForeachContainer() 0x0000bf7f   Thumb Code    14  qsensormanager.o(i._ZN17QForeachContainerI5QListIPFPN10QtMobility22QSensorPluginInterfaceEvEEED1Ev)
    QForeachContainer<QList<QtMobility::QSensorPluginInterface*(*)()>>::~QForeachContainer__sub_object() 0x0000bf7f   Thumb Code     0  qsensormanager.o(i._ZN17QForeachContainerI5QListIPFPN10QtMobility22QSensorPluginInterfaceEvEEED1Ev)
    QForeachContainer<QList<QtMobility::QSensorFilter*>>::~QForeachContainer() 0x0000bf8d   Thumb Code    14  qsensor.o(i._ZN17QForeachContainerI5QListIPN10QtMobility13QSensorFilterEEED1Ev)
    QForeachContainer<QList<QtMobility::QSensorFilter*>>::~QForeachContainer__sub_object() 0x0000bf8d   Thumb Code     0  qsensor.o(i._ZN17QForeachContainerI5QListIPN10QtMobility13QSensorFilterEEED1Ev)
    QForeachContainer<QList<QtMobility::QSensorPluginInterface*>>::~QForeachContainer() 0x0000bf9b   Thumb Code    14  qsensormanager.o(i._ZN17QForeachContainerI5QListIPN10QtMobility22QSensorPluginInterfaceEEED1Ev)
    QForeachContainer<QList<QtMobility::QSensorPluginInterface*>>::~QForeachContainer__sub_object() 0x0000bf9b   Thumb Code     0  qsensormanager.o(i._ZN17QForeachContainerI5QListIPN10QtMobility22QSensorPluginInterfaceEEED1Ev)
    QSet<QString>::~QSet()                   0x0000bfa9   Thumb Code    14  qsensorpluginloader.o(i._ZN4QSetI7QStringED1Ev)
    QSet<QString>::~QSet__sub_object()       0x0000bfa9   Thumb Code     0  qsensorpluginloader.o(i._ZN4QSetI7QStringED1Ev)
    QPair<int, int>::QPair(const QPair<int, int>&) 0x0000bfb7   Thumb Code    10  qsensorbackend.o(i._ZN5QPairIiiEC1ERKS0_)
    QPair<int, int>::QPair__sub_object(const QPair<int, int>&) 0x0000bfb7   Thumb Code     0  qsensorbackend.o(i._ZN5QPairIiiEC1ERKS0_)
    QDebug::maybeSpace()                     0x0000bfc1   Thumb Code    24  qsensormanager.o(i._ZN6QDebug10maybeSpaceEv)
    QDebug::~QDebug()                        0x0000bfd9   Thumb Code   144  qsensorbackend.o(i._ZN6QDebugD1Ev)
    QDebug::~QDebug__sub_object()            0x0000bfd9   Thumb Code     0  qsensorbackend.o(i._ZN6QDebugD1Ev)
    QDebug::operator <<(const char*)         0x0000c07d   Thumb Code    44  qsensormanager.o(i._ZN6QDebuglsEPKc)
    QDebug::operator <<(const QString&)      0x0000c0b3   Thumb Code    38  qsensorpluginloader.o(i._ZN6QDebuglsERK7QString)
    QDebug::operator <<(int)                 0x0000c0d9   Thumb Code    22  qsensor.o(i._ZN6QDebuglsEi)
    QString::QString(const QLatin1String&)   0x0000c0ef   Thumb Code    26  qsensormanager.o(i._ZN7QStringC1ERK13QLatin1String)
    QString::QString__sub_object(const QLatin1String&) 0x0000c0ef   Thumb Code     0  qsensormanager.o(i._ZN7QStringC1ERK13QLatin1String)
    QString::QString(const QString&)         0x0000c109   Thumb Code    22  qsensorpluginloader.o(i._ZN7QStringC1ERKS_)
    QString::QString__sub_object(const QString&) 0x0000c109   Thumb Code     0  qsensorpluginloader.o(i._ZN7QStringC1ERKS_)
    QString::QString()                       0x0000c121   Thumb Code    18  qsensorpluginloader.o(i._ZN7QStringC1Ev)
    QString::QString__sub_object()           0x0000c121   Thumb Code     0  qsensorpluginloader.o(i._ZN7QStringC1Ev)
    QString::~QString()                      0x0000c139   Thumb Code    24  qsensorbackend.o(i._ZN7QStringD1Ev)
    QString::~QString__sub_object()          0x0000c139   Thumb Code     0  qsensorbackend.o(i._ZN7QStringD1Ev)
    QHashData::willGrow()                    0x0000c151   Thumb Code    32  qsensormanager.o(i._ZN9QHashData8willGrowEv)
    QHashData::firstNode()                   0x0000c171   Thumb Code    36  qsensormanager.o(i._ZN9QHashData9firstNodeEv)
    QBasicAtomicInt::operator !=(int) const  0x0000c195   Thumb Code    16  qsensorbackend.o(i._ZNK15QBasicAtomicIntneEi)
    QBasicAtomicInt::operator !() const      0x0000c1a5   Thumb Code    16  qsensor.o(i._ZNK15QBasicAtomicIntntEv)
    QListData::at(int) const                 0x0000c1b5   Thumb Code    20  qsensor.o(i._ZNK9QListData2atEi)
    QListData::end() const                   0x0000c1c9   Thumb Code    16  qsensorbackend.o(i._ZNK9QListData3endEv)
    QListData::size() const                  0x0000c1d9   Thumb Code    14  qsensor.o(i._ZNK9QListData4sizeEv)
    QListData::begin() const                 0x0000c1e7   Thumb Code    16  qsensorbackend.o(i._ZNK9QListData5beginEv)
    operator delete (void*, void*)           0x0000c1f7   Thumb Code     2  qsensormanager.o(i._ZdlPvS_)
    operator ==(const QByteArray&, const QByteArray&) 0x0000c1f9   Thumb Code    68  qsensormanager.o(i._ZeqRK10QByteArrayS1_)
    operator new(unsigned, void*)            0x0000c23d   Thumb Code     6  qsensormanager.o(i._ZnwjPv)
    qRegisterMetaType<QList<QPair<int, int>>>(const char*, T1*) 0x0000c245   Thumb Code   100  qsensor.o(t._Z17qRegisterMetaTypeI5QListI5QPairIiiEEEiPKcPT_)
    qRegisterMetaType<QList<QtMobility::qoutputrange>>(const char*, T1*) 0x0000c2cd   Thumb Code   100  qsensor.o(t._Z17qRegisterMetaTypeI5QListIN10QtMobility12qoutputrangeEEEiPKcPT_)
    qRegisterMetaType<QPair<int, int>>(const char*, T1*) 0x0000c35d   Thumb Code   100  qsensor.o(t._Z17qRegisterMetaTypeI5QPairIiiEEiPKcPT_)
    qRegisterMetaType<QtMobility::qtimestamp>(const char*, T1*) 0x0000c3e1   Thumb Code   100  qsensor.o(t._Z17qRegisterMetaTypeIN10QtMobility10qtimestampEEiPKcPT_)
    qForeachContainerNew<QList<QtMobility::QSensorPluginInterface*>>(const T1&) 0x0000c469   Thumb Code   102  qsensormanager.o(t._Z20qForeachContainerNewI5QListIPN10QtMobility22QSensorPluginInterfaceEEE17QForeachContainerIT_ERKS6_)
    qMetaTypeDeleteHelper<QList<QPair<int, int>>>(T1*) 0x0000c4d9   Thumb Code    22  qsensor.o(t._Z21qMetaTypeDeleteHelperI5QListI5QPairIiiEEEvPT_)
    qMetaTypeDeleteHelper<QList<QtMobility::qoutputrange>>(T1*) 0x0000c4ef   Thumb Code    22  qsensor.o(t._Z21qMetaTypeDeleteHelperI5QListIN10QtMobility12qoutputrangeEEEvPT_)
    qMetaTypeDeleteHelper<QPair<int, int>>(T1*) 0x0000c505   Thumb Code    12  qsensor.o(t._Z21qMetaTypeDeleteHelperI5QPairIiiEEvPT_)
    qMetaTypeDeleteHelper<QtMobility::qtimestamp>(T1*) 0x0000c511   Thumb Code    12  qsensor.o(t._Z21qMetaTypeDeleteHelperIN10QtMobility10qtimestampEEvPT_)
    qMetaTypeConstructHelper<QList<QPair<int, int>>>(const T1*) 0x0000c51d   Thumb Code    80  qsensor.o(t._Z24qMetaTypeConstructHelperI5QListI5QPairIiiEEEPvPKT_)
    qMetaTypeConstructHelper<QList<QtMobility::qoutputrange>>(const T1*) 0x0000c589   Thumb Code    80  qsensor.o(t._Z24qMetaTypeConstructHelperI5QListIN10QtMobility12qoutputrangeEEEPvPKT_)
    qMetaTypeConstructHelper<QPair<int, int>>(const T1*) 0x0000c5f5   Thumb Code    90  qsensor.o(t._Z24qMetaTypeConstructHelperI5QPairIiiEEPvPKT_)
    qMetaTypeConstructHelper<QtMobility::qtimestamp>(const T1*) 0x0000c655   Thumb Code    84  qsensor.o(t._Z24qMetaTypeConstructHelperIN10QtMobility10qtimestampEEPvPKT_)
    QHashDummyNode<QString, QHashDummyValue>::QHashDummyNode(const QString&) 0x0000c6b5   Thumb Code    24  qsensorpluginloader.o(t._ZN14QHashDummyNodeI7QString15QHashDummyValueEC1ERKS0_)
    QHashDummyNode<QString, QHashDummyValue>::QHashDummyNode__sub_object(const QString&) 0x0000c6b5   Thumb Code     0  qsensorpluginloader.o(t._ZN14QHashDummyNodeI7QString15QHashDummyValueEC1ERKS0_)
    QScopedPointer<QtMobility::QSensorPrivate, QScopedPointerDeleter<QtMobility::QSensorPrivate>>::~QScopedPointer() 0x0000c6cd   Thumb Code    90  qsensor.o(t._ZN14QScopedPointerIN10QtMobility14QSensorPrivateE21QScopedPointerDeleterIS1_EED1Ev)
    QScopedPointer<QtMobility::QSensorPrivate, QScopedPointerDeleter<QtMobility::QSensorPrivate>>::~QScopedPointer__sub_object() 0x0000c6cd   Thumb Code     0  qsensor.o(t._ZN14QScopedPointerIN10QtMobility14QSensorPrivateE21QScopedPointerDeleterIS1_EED1Ev)
    QScopedPointer<QtMobility::QTapReadingPrivate, QScopedPointerDeleter<QtMobility::QTapReadingPrivate>>::~QScopedPointer() 0x0000c75d   Thumb Code    22  qtapsensor.o(t._ZN14QScopedPointerIN10QtMobility18QTapReadingPrivateE21QScopedPointerDeleterIS1_EED1Ev)
    QScopedPointer<QtMobility::QTapReadingPrivate, QScopedPointerDeleter<QtMobility::QTapReadingPrivate>>::~QScopedPointer__sub_object() 0x0000c75d   Thumb Code     0  qtapsensor.o(t._ZN14QScopedPointerIN10QtMobility18QTapReadingPrivateE21QScopedPointerDeleterIS1_EED1Ev)
    QScopedPointer<QtMobility::QSensorReadingPrivate, QScopedPointerDeleter<QtMobility::QSensorReadingPrivate>>::~QScopedPointer() 0x0000c773   Thumb Code    22  qsensor.o(t._ZN14QScopedPointerIN10QtMobility21QSensorReadingPrivateE21QScopedPointerDeleterIS1_EED1Ev)
    QScopedPointer<QtMobility::QSensorReadingPrivate, QScopedPointerDeleter<QtMobility::QSensorReadingPrivate>>::~QScopedPointer__sub_object() 0x0000c773   Thumb Code     0  qsensor.o(t._ZN14QScopedPointerIN10QtMobility21QSensorReadingPrivateE21QScopedPointerDeleterIS1_EED1Ev)
    QScopedPointer<QtMobility::QCompassReadingPrivate, QScopedPointerDeleter<QtMobility::QCompassReadingPrivate>>::~QScopedPointer() 0x0000c789   Thumb Code    22  qcompass.o(t._ZN14QScopedPointerIN10QtMobility22QCompassReadingPrivateE21QScopedPointerDeleterIS1_EED1Ev)
    QScopedPointer<QtMobility::QCompassReadingPrivate, QScopedPointerDeleter<QtMobility::QCompassReadingPrivate>>::~QScopedPointer__sub_object() 0x0000c789   Thumb Code     0  qcompass.o(t._ZN14QScopedPointerIN10QtMobility22QCompassReadingPrivateE21QScopedPointerDeleterIS1_EED1Ev)
    QScopedPointer<QtMobility::QRotationReadingPrivate, QScopedPointerDeleter<QtMobility::QRotationReadingPrivate>>::~QScopedPointer() 0x0000c79f   Thumb Code    22  qrotationsensor.o(t._ZN14QScopedPointerIN10QtMobility23QRotationReadingPrivateE21QScopedPointerDeleterIS1_EED1Ev)
    QScopedPointer<QtMobility::QRotationReadingPrivate, QScopedPointerDeleter<QtMobility::QRotationReadingPrivate>>::~QScopedPointer__sub_object() 0x0000c79f   Thumb Code     0  qrotationsensor.o(t._ZN14QScopedPointerIN10QtMobility23QRotationReadingPrivateE21QScopedPointerDeleterIS1_EED1Ev)
    QScopedPointer<QtMobility::QProximityReadingPrivate, QScopedPointerDeleter<QtMobility::QProximityReadingPrivate>>::~QScopedPointer() 0x0000c7b5   Thumb Code    22  qproximitysensor.o(t._ZN14QScopedPointerIN10QtMobility24QProximityReadingPrivateE21QScopedPointerDeleterIS1_EED1Ev)
    QScopedPointer<QtMobility::QProximityReadingPrivate, QScopedPointerDeleter<QtMobility::QProximityReadingPrivate>>::~QScopedPointer__sub_object() 0x0000c7b5   Thumb Code     0  qproximitysensor.o(t._ZN14QScopedPointerIN10QtMobility24QProximityReadingPrivateE21QScopedPointerDeleterIS1_EED1Ev)
    QScopedPointer<QtMobility::QOrientationReadingPrivate, QScopedPointerDeleter<QtMobility::QOrientationReadingPrivate>>::~QScopedPointer() 0x0000c7cb   Thumb Code    22  qorientationsensor.o(t._ZN14QScopedPointerIN10QtMobility26QOrientationReadingPrivateE21QScopedPointerDeleterIS1_EED1Ev)
    QScopedPointer<QtMobility::QOrientationReadingPrivate, QScopedPointerDeleter<QtMobility::QOrientationReadingPrivate>>::~QScopedPointer__sub_object() 0x0000c7cb   Thumb Code     0  qorientationsensor.o(t._ZN14QScopedPointerIN10QtMobility26QOrientationReadingPrivateE21QScopedPointerDeleterIS1_EED1Ev)
    QScopedPointer<QtMobility::QAmbientLightReadingPrivate, QScopedPointerDeleter<QtMobility::QAmbientLightReadingPrivate>>::~QScopedPointer() 0x0000c7e1   Thumb Code    22  qambientlightsensor.o(t._ZN14QScopedPointerIN10QtMobility27QAmbientLightReadingPrivateE21QScopedPointerDeleterIS1_EED1Ev)
    QScopedPointer<QtMobility::QAmbientLightReadingPrivate, QScopedPointerDeleter<QtMobility::QAmbientLightReadingPrivate>>::~QScopedPointer__sub_object() 0x0000c7e1   Thumb Code     0  qambientlightsensor.o(t._ZN14QScopedPointerIN10QtMobility27QAmbientLightReadingPrivateE21QScopedPointerDeleterIS1_EED1Ev)
    QScopedPointer<QtMobility::QMagnetometerReadingPrivate, QScopedPointerDeleter<QtMobility::QMagnetometerReadingPrivate>>::~QScopedPointer() 0x0000c7f7   Thumb Code    22  qmagnetometer.o(t._ZN14QScopedPointerIN10QtMobility27QMagnetometerReadingPrivateE21QScopedPointerDeleterIS1_EED1Ev)
    QScopedPointer<QtMobility::QMagnetometerReadingPrivate, QScopedPointerDeleter<QtMobility::QMagnetometerReadingPrivate>>::~QScopedPointer__sub_object() 0x0000c7f7   Thumb Code     0  qmagnetometer.o(t._ZN14QScopedPointerIN10QtMobility27QMagnetometerReadingPrivateE21QScopedPointerDeleterIS1_EED1Ev)
    QScopedPointer<QtMobility::QAccelerometerReadingPrivate, QScopedPointerDeleter<QtMobility::QAccelerometerReadingPrivate>>::~QScopedPointer() 0x0000c80d   Thumb Code    22  qaccelerometer.o(t._ZN14QScopedPointerIN10QtMobility28QAccelerometerReadingPrivateE21QScopedPointerDeleterIS1_EED1Ev)
    QScopedPointer<QtMobility::QAccelerometerReadingPrivate, QScopedPointerDeleter<QtMobility::QAccelerometerReadingPrivate>>::~QScopedPointer__sub_object() 0x0000c80d   Thumb Code     0  qaccelerometer.o(t._ZN14QScopedPointerIN10QtMobility28QAccelerometerReadingPrivateE21QScopedPointerDeleterIS1_EED1Ev)
    QGlobalStaticDeleter<QtMobility::QSensorPluginLoader>::~QGlobalStaticDeleter() 0x0000c823   Thumb Code    42  qsensormanager.o(t._ZN20QGlobalStaticDeleterIN10QtMobility19QSensorPluginLoaderEED1Ev)
    QGlobalStaticDeleter<QtMobility::QSensorPluginLoader>::~QGlobalStaticDeleter__sub_object() 0x0000c823   Thumb Code     0  qsensormanager.o(t._ZN20QGlobalStaticDeleterIN10QtMobility19QSensorPluginLoaderEED1Ev)
    QGlobalStaticDeleter<QtMobility::QSensorManagerPrivate>::~QGlobalStaticDeleter() 0x0000c84d   Thumb Code    42  qsensormanager.o(t._ZN20QGlobalStaticDeleterIN10QtMobility21QSensorManagerPrivateEED1Ev)
    QGlobalStaticDeleter<QtMobility::QSensorManagerPrivate>::~QGlobalStaticDeleter__sub_object() 0x0000c84d   Thumb Code     0  qsensormanager.o(t._ZN20QGlobalStaticDeleterIN10QtMobility21QSensorManagerPrivateEED1Ev)
    QSet<QString>::insert(const QString&)    0x0000c877   Thumb Code    46  qsensorpluginloader.o(t._ZN4QSetI7QStringE6insertERKS0_)
    QHash<QByteArray, QtMobility::QSensorBackendFactory*>::deleteNode2(QHashData::Node*) 0x0000c8a5   Thumb Code    24  qsensormanager.o(t._ZN5QHashI10QByteArrayPN10QtMobility21QSensorBackendFactoryEE11deleteNode2EPN9QHashData4NodeE)
    QHash<QByteArray, QtMobility::QSensorBackendFactory*>::detach_helper() 0x0000c8bd   Thumb Code    52  qsensormanager.o(t._ZN5QHashI10QByteArrayPN10QtMobility21QSensorBackendFactoryEE13detach_helperEv)
    QHash<QByteArray, QtMobility::QSensorBackendFactory*>::duplicateNode(QHashData::Node*, void*) 0x0000c8f9   Thumb Code    46  qsensormanager.o(t._ZN5QHashI10QByteArrayPN10QtMobility21QSensorBackendFactoryEE13duplicateNodeEPN9QHashData4NodeEPv)
    QHash<QByteArray, QtMobility::QSensorBackendFactory*>::detach() 0x0000c935   Thumb Code    28  qsensormanager.o(t._ZN5QHashI10QByteArrayPN10QtMobility21QSensorBackendFactoryEE6detachEv)
    QHash<QByteArray, QtMobility::QSensorBackendFactory*>::freeData(QHashData*) 0x0000c951   Thumb Code    16  qsensormanager.o(t._ZN5QHashI10QByteArrayPN10QtMobility21QSensorBackendFactoryEE8freeDataEP9QHashData)
    QHash<QByteArray, QtMobility::QSensorBackendFactory*>::~QHash() 0x0000c965   Thumb Code    30  qsensormanager.o(t._ZN5QHashI10QByteArrayPN10QtMobility21QSensorBackendFactoryEED1Ev)
    QHash<QByteArray, QtMobility::QSensorBackendFactory*>::~QHash__sub_object() 0x0000c965   Thumb Code     0  qsensormanager.o(t._ZN5QHashI10QByteArrayPN10QtMobility21QSensorBackendFactoryEED1Ev)
    QHash<QByteArray, QtMobility::QSensorBackendFactory*>::operator [](const QByteArray&) 0x0000c983   Thumb Code   164  qsensormanager.o(t._ZN5QHashI10QByteArrayPN10QtMobility21QSensorBackendFactoryEEixERKS0_)
    QHash<QByteArray, QByteArray>::deleteNode2(QHashData::Node*) 0x0000ca35   Thumb Code    36  qsensormanager.o(t._ZN5QHashI10QByteArrayS0_E11deleteNode2EPN9QHashData4NodeE)
    QHash<QByteArray, QByteArray>::detach_helper() 0x0000ca65   Thumb Code    52  qsensormanager.o(t._ZN5QHashI10QByteArrayS0_E13detach_helperEv)
    QHash<QByteArray, QByteArray>::duplicateNode(QHashData::Node*, void*) 0x0000caa1   Thumb Code    46  qsensormanager.o(t._ZN5QHashI10QByteArrayS0_E13duplicateNodeEPN9QHashData4NodeEPv)
    QHash<QByteArray, QByteArray>::freeData(QHashData*) 0x0000cadd   Thumb Code    16  qsensormanager.o(t._ZN5QHashI10QByteArrayS0_E8freeDataEP9QHashData)
    QHash<QByteArray, QByteArray>::~QHash()  0x0000caf1   Thumb Code    30  qsensormanager.o(t._ZN5QHashI10QByteArrayS0_ED1Ev)
    QHash<QByteArray, QByteArray>::~QHash__sub_object() 0x0000caf1   Thumb Code     0  qsensormanager.o(t._ZN5QHashI10QByteArrayS0_ED1Ev)
    QHash<QByteArray, QByteArray>::operator [](const QByteArray&) 0x0000cb0f   Thumb Code   208  qsensormanager.o(t._ZN5QHashI10QByteArrayS0_EixERKS0_)
    QHash<QByteArray, QHash<QByteArray, QtMobility::QSensorBackendFactory*>>::deleteNode2(QHashData::Node*) 0x0000cbf7   Thumb Code    36  qsensormanager.o(t._ZN5QHashI10QByteArrayS_IS0_PN10QtMobility21QSensorBackendFactoryEEE11deleteNode2EPN9QHashData4NodeE)
    QHash<QByteArray, QHash<QByteArray, QtMobility::QSensorBackendFactory*>>::detach_helper() 0x0000cc29   Thumb Code    52  qsensormanager.o(t._ZN5QHashI10QByteArrayS_IS0_PN10QtMobility21QSensorBackendFactoryEEE13detach_helperEv)
    QHash<QByteArray, QHash<QByteArray, QtMobility::QSensorBackendFactory*>>::duplicateNode(QHashData::Node*, void*) 0x0000cc65   Thumb Code    46  qsensormanager.o(t._ZN5QHashI10QByteArrayS_IS0_PN10QtMobility21QSensorBackendFactoryEEE13duplicateNodeEPN9QHashData4NodeEPv)
    QHash<QByteArray, QHash<QByteArray, QtMobility::QSensorBackendFactory*>>::freeData(QHashData*) 0x0000cca1   Thumb Code    16  qsensormanager.o(t._ZN5QHashI10QByteArrayS_IS0_PN10QtMobility21QSensorBackendFactoryEEE8freeDataEP9QHashData)
    QHash<QByteArray, QHash<QByteArray, QtMobility::QSensorBackendFactory*>>::~QHash() 0x0000ccb5   Thumb Code    30  qsensormanager.o(t._ZN5QHashI10QByteArrayS_IS0_PN10QtMobility21QSensorBackendFactoryEEED1Ev)
    QHash<QByteArray, QHash<QByteArray, QtMobility::QSensorBackendFactory*>>::~QHash__sub_object() 0x0000ccb5   Thumb Code     0  qsensormanager.o(t._ZN5QHashI10QByteArrayS_IS0_PN10QtMobility21QSensorBackendFactoryEEED1Ev)
    QHash<QByteArray, QHash<QByteArray, QtMobility::QSensorBackendFactory*>>::operator [](const QByteArray&) 0x0000ccd5   Thumb Code   218  qsensormanager.o(t._ZN5QHashI10QByteArrayS_IS0_PN10QtMobility21QSensorBackendFactoryEEEixERKS0_)
    QHash<QString, QHashDummyValue>::deleteNode2(QHashData::Node*) 0x0000cdcd   Thumb Code    24  qsensorpluginloader.o(t._ZN5QHashI7QString15QHashDummyValueE11deleteNode2EPN9QHashData4NodeE)
    QHash<QString, QHashDummyValue>::detach_helper() 0x0000cde5   Thumb Code    52  qsensorpluginloader.o(t._ZN5QHashI7QString15QHashDummyValueE13detach_helperEv)
    QHash<QString, QHashDummyValue>::duplicateNode(QHashData::Node*, void*) 0x0000ce21   Thumb Code    44  qsensorpluginloader.o(t._ZN5QHashI7QString15QHashDummyValueE13duplicateNodeEPN9QHashData4NodeEPv)
    QHash<QString, QHashDummyValue>::insert(const QString&, const QHashDummyValue&) 0x0000ce59   Thumb Code   208  qsensorpluginloader.o(t._ZN5QHashI7QString15QHashDummyValueE6insertERKS0_RKS1_)
    QHash<QString, QHashDummyValue>::freeData(QHashData*) 0x0000cf35   Thumb Code    16  qsensorpluginloader.o(t._ZN5QHashI7QString15QHashDummyValueE8freeDataEP9QHashData)
    QHash<QString, QHashDummyValue>::~QHash() 0x0000cf49   Thumb Code    30  qsensorpluginloader.o(t._ZN5QHashI7QString15QHashDummyValueED1Ev)
    QHash<QString, QHashDummyValue>::~QHash__sub_object() 0x0000cf49   Thumb Code     0  qsensorpluginloader.o(t._ZN5QHashI7QString15QHashDummyValueED1Ev)
    QList<QByteArray>::detach_helper(int)    0x0000cf67   Thumb Code    94  qsensormanager.o(t._ZN5QListI10QByteArrayE13detach_helperEi)
    QList<QByteArray>::detach_helper()       0x0000cfcd   Thumb Code    16  qsensormanager.o(t._ZN5QListI10QByteArrayE13detach_helperEv)
    QList<QByteArray>::node_destruct(QList<QByteArray>::Node*, QList<QByteArray>::Node*) 0x0000cfdd   Thumb Code    26  qsensormanager.o(t._ZN5QListI10QByteArrayE13node_destructEPNS1_4NodeES3_)
    QList<QByteArray>::node_construct(QList<QByteArray>::Node*, const QByteArray&) 0x0000cff7   Thumb Code    36  qsensormanager.o(t._ZN5QListI10QByteArrayE14node_constructEPNS1_4NodeERKS0_)
    QList<QByteArray>::detach_helper_grow(int, int) 0x0000d029   Thumb Code   208  qsensormanager.o(t._ZN5QListI10QByteArrayE18detach_helper_growEii)
    QList<QByteArray>::free(QListData::Data*) 0x0000d109   Thumb Code    58  qsensormanager.o(t._ZN5QListI10QByteArrayE4freeEPN9QListData4DataE)
    QList<QByteArray>::append(const QByteArray&) 0x0000d145   Thumb Code   114  qsensormanager.o(t._ZN5QListI10QByteArrayE6appendERKS0_)
    QList<QByteArray>::reserve(int)          0x0000d1cb   Thumb Code    46  qsensormanager.o(t._ZN5QListI10QByteArrayE7reserveEi)
    QList<QByteArray>::node_copy(QList<QByteArray>::Node*, QList<QByteArray>::Node*, QList<QByteArray>::Node*) 0x0000d1f9   Thumb Code    82  qsensormanager.o(t._ZN5QListI10QByteArrayE9node_copyEPNS1_4NodeES3_S3_)
    QList<QByteArray>::QList()               0x0000d261   Thumb Code    18  qsensormanager.o(t._ZN5QListI10QByteArrayEC1Ev)
    QList<QByteArray>::QList__sub_object()   0x0000d261   Thumb Code     0  qsensormanager.o(t._ZN5QListI10QByteArrayEC1Ev)
    QList<QByteArray>::~QList()              0x0000d279   Thumb Code    32  qsensormanager.o(t._ZN5QListI10QByteArrayED1Ev)
    QList<QByteArray>::~QList__sub_object()  0x0000d279   Thumb Code     0  qsensormanager.o(t._ZN5QListI10QByteArrayED1Ev)
    QList<QPair<int, int>>::detach_helper(int) 0x0000d299   Thumb Code    94  qsensorbackend.o(t._ZN5QListI5QPairIiiEE13detach_helperEi)
    QList<QPair<int, int>>::detach_helper()  0x0000d2ff   Thumb Code    16  qsensorbackend.o(t._ZN5QListI5QPairIiiEE13detach_helperEv)
    QList<QPair<int, int>>::node_destruct(QList<QPair<int, int>>::Node*, QList<QPair<int, int>>::Node*) 0x0000d30f   Thumb Code    26  qsensorbackend.o(t._ZN5QListI5QPairIiiEE13node_destructEPNS2_4NodeES4_)
    QList<QPair<int, int>>::node_construct(QList<QPair<int, int>>::Node*, const QPair<int, int>&) 0x0000d329   Thumb Code    34  qsensorbackend.o(t._ZN5QListI5QPairIiiEE14node_constructEPNS2_4NodeERKS1_)
    QList<QPair<int, int>>::detach_helper_grow(int, int) 0x0000d34f   Thumb Code   208  qsensorbackend.o(t._ZN5QListI5QPairIiiEE18detach_helper_growEii)
    QList<QPair<int, int>>::free(QListData::Data*) 0x0000d42f   Thumb Code    58  qsensorbackend.o(t._ZN5QListI5QPairIiiEE4freeEPN9QListData4DataE)
    QList<QPair<int, int>>::append(const QPair<int, int>&) 0x0000d469   Thumb Code   106  qsensorbackend.o(t._ZN5QListI5QPairIiiEE6appendERKS1_)
    QList<QPair<int, int>>::node_copy(QList<QPair<int, int>>::Node*, QList<QPair<int, int>>::Node*, QList<QPair<int, int>>::Node*) 0x0000d4e7   Thumb Code    80  qsensorbackend.o(t._ZN5QListI5QPairIiiEE9node_copyEPNS2_4NodeES4_S4_)
    QList<QPair<int, int>>::QList(const QList<QPair<int, int>>&) 0x0000d54d   Thumb Code    36  qsensor.o(t._ZN5QListI5QPairIiiEEC1ERKS2_)
    QList<QPair<int, int>>::QList__sub_object(const QList<QPair<int, int>>&) 0x0000d54d   Thumb Code     0  qsensor.o(t._ZN5QListI5QPairIiiEEC1ERKS2_)
    QList<QPair<int, int>>::QList()          0x0000d571   Thumb Code    18  qsensor.o(t._ZN5QListI5QPairIiiEEC1Ev)
    QList<QPair<int, int>>::QList__sub_object() 0x0000d571   Thumb Code     0  qsensor.o(t._ZN5QListI5QPairIiiEEC1Ev)
    QList<QPair<int, int>>::~QList()         0x0000d589   Thumb Code    32  qsensorbackend.o(t._ZN5QListI5QPairIiiEED1Ev)
    QList<QPair<int, int>>::~QList__sub_object() 0x0000d589   Thumb Code     0  qsensorbackend.o(t._ZN5QListI5QPairIiiEED1Ev)
    QList<QString>::detach_helper(int)       0x0000d5a9   Thumb Code    94  qsensorpluginloader.o(t._ZN5QListI7QStringE13detach_helperEi)
    QList<QString>::detach_helper()          0x0000d60f   Thumb Code    16  qsensorpluginloader.o(t._ZN5QListI7QStringE13detach_helperEv)
    QList<QString>::node_destruct(QList<QString>::Node*, QList<QString>::Node*) 0x0000d61f   Thumb Code    26  qsensorpluginloader.o(t._ZN5QListI7QStringE13node_destructEPNS1_4NodeES3_)
    QList<QString>::node_construct(QList<QString>::Node*, const QString&) 0x0000d639   Thumb Code    36  qsensorpluginloader.o(t._ZN5QListI7QStringE14node_constructEPNS1_4NodeERKS0_)
    QList<QString>::detach_helper_grow(int, int) 0x0000d66b   Thumb Code   208  qsensorpluginloader.o(t._ZN5QListI7QStringE18detach_helper_growEii)
    QList<QString>::free(QListData::Data*)   0x0000d74b   Thumb Code    58  qsensorpluginloader.o(t._ZN5QListI7QStringE4freeEPN9QListData4DataE)
    QList<QString>::append(const QString&)   0x0000d785   Thumb Code   114  qsensorpluginloader.o(t._ZN5QListI7QStringE6appendERKS0_)
    QList<QString>::node_copy(QList<QString>::Node*, QList<QString>::Node*, QList<QString>::Node*) 0x0000d80b   Thumb Code    82  qsensorpluginloader.o(t._ZN5QListI7QStringE9node_copyEPNS1_4NodeES3_S3_)
    QList<QString>::~QList()                 0x0000d873   Thumb Code    32  qsensorpluginloader.o(t._ZN5QListI7QStringED1Ev)
    QList<QString>::~QList__sub_object()     0x0000d873   Thumb Code     0  qsensorpluginloader.o(t._ZN5QListI7QStringED1Ev)
    QList<QtMobility::qoutputrange>::detach_helper(int) 0x0000d893   Thumb Code   184  qsensor.o(t._ZN5QListIN10QtMobility12qoutputrangeEE13detach_helperEi)
    QList<QtMobility::qoutputrange>::detach_helper() 0x0000d95b   Thumb Code    16  qsensor.o(t._ZN5QListIN10QtMobility12qoutputrangeEE13detach_helperEv)
    QList<QtMobility::qoutputrange>::node_destruct(QList<QtMobility::qoutputrange>::Node*, QList<QtMobility::qoutputrange>::Node*) 0x0000d96b   Thumb Code    26  qsensorbackend.o(t._ZN5QListIN10QtMobility12qoutputrangeEE13node_destructEPNS2_4NodeES4_)
    QList<QtMobility::qoutputrange>::node_construct(QList<QtMobility::qoutputrange>::Node*, const QtMobility::qoutputrange&) 0x0000d985   Thumb Code    32  qsensorbackend.o(t._ZN5QListIN10QtMobility12qoutputrangeEE14node_constructEPNS2_4NodeERKS1_)
    QList<QtMobility::qoutputrange>::detach_helper_grow(int, int) 0x0000d9a5   Thumb Code   208  qsensorbackend.o(t._ZN5QListIN10QtMobility12qoutputrangeEE18detach_helper_growEii)
    QList<QtMobility::qoutputrange>::free(QListData::Data*) 0x0000da85   Thumb Code    58  qsensorbackend.o(t._ZN5QListIN10QtMobility12qoutputrangeEE4freeEPN9QListData4DataE)
    QList<QtMobility::qoutputrange>::append(const QtMobility::qoutputrange&) 0x0000dac1   Thumb Code   106  qsensorbackend.o(t._ZN5QListIN10QtMobility12qoutputrangeEE6appendERKS1_)
    QList<QtMobility::qoutputrange>::node_copy(QList<QtMobility::qoutputrange>::Node*, QList<QtMobility::qoutputrange>::Node*, QList<QtMobility::qoutputrange>::Node*) 0x0000db3f   Thumb Code    78  qsensorbackend.o(t._ZN5QListIN10QtMobility12qoutputrangeEE9node_copyEPNS2_4NodeES4_S4_)
    QList<QtMobility::qoutputrange>::QList(const QList<QtMobility::qoutputrange>&) 0x0000db95   Thumb Code    36  qsensor.o(t._ZN5QListIN10QtMobility12qoutputrangeEEC1ERKS2_)
    QList<QtMobility::qoutputrange>::QList__sub_object(const QList<QtMobility::qoutputrange>&) 0x0000db95   Thumb Code     0  qsensor.o(t._ZN5QListIN10QtMobility12qoutputrangeEEC1ERKS2_)
    QList<QtMobility::qoutputrange>::QList() 0x0000dbb9   Thumb Code    18  qsensor.o(t._ZN5QListIN10QtMobility12qoutputrangeEEC1Ev)
    QList<QtMobility::qoutputrange>::QList__sub_object() 0x0000dbb9   Thumb Code     0  qsensor.o(t._ZN5QListIN10QtMobility12qoutputrangeEEC1Ev)
    QList<QtMobility::qoutputrange>::~QList() 0x0000dbd1   Thumb Code    32  qsensor.o(t._ZN5QListIN10QtMobility12qoutputrangeEED1Ev)
    QList<QtMobility::qoutputrange>::~QList__sub_object() 0x0000dbd1   Thumb Code     0  qsensor.o(t._ZN5QListIN10QtMobility12qoutputrangeEED1Ev)
    QList<QPluginLoader*>::detach_helper(int) 0x0000dbf1   Thumb Code    94  qsensorpluginloader.o(t._ZN5QListIP13QPluginLoaderE13detach_helperEi)
    QList<QPluginLoader*>::detach_helper()   0x0000dc57   Thumb Code    16  qsensorpluginloader.o(t._ZN5QListIP13QPluginLoaderE13detach_helperEv)
    QList<QPluginLoader*>::detach_helper_grow(int, int) 0x0000dc67   Thumb Code   204  qsensorpluginloader.o(t._ZN5QListIP13QPluginLoaderE18detach_helper_growEii)
    QList<QPluginLoader*>::free(QListData::Data*) 0x0000dd43   Thumb Code    58  qsensorpluginloader.o(t._ZN5QListIP13QPluginLoaderE4freeEPN9QListData4DataE)
    QList<QPluginLoader*>::append(QPluginLoader*const &) 0x0000dd7d   Thumb Code    94  qsensorpluginloader.o(t._ZN5QListIP13QPluginLoaderE6appendERKS1_)
    QList<QPluginLoader*>::node_copy(QList<QPluginLoader*>::Node*, QList<QPluginLoader*>::Node*, QList<QPluginLoader*>::Node*) 0x0000ddeb   Thumb Code    46  qsensorpluginloader.o(t._ZN5QListIP13QPluginLoaderE9node_copyEPNS2_4NodeES4_S4_)
    QList<QPluginLoader*>::~QList()          0x0000de19   Thumb Code    32  qsensorpluginloader.o(t._ZN5QListIP13QPluginLoaderED1Ev)
    QList<QPluginLoader*>::~QList__sub_object() 0x0000de19   Thumb Code     0  qsensorpluginloader.o(t._ZN5QListIP13QPluginLoaderED1Ev)
    QList<QtMobility::QSensorPluginInterface*(*)()>::detach_helper(int) 0x0000de39   Thumb Code    94  qsensormanager.o(t._ZN5QListIPFPN10QtMobility22QSensorPluginInterfaceEvEE13detach_helperEi)
    QList<QtMobility::QSensorPluginInterface*(*)()>::detach_helper() 0x0000de9f   Thumb Code    16  qsensormanager.o(t._ZN5QListIPFPN10QtMobility22QSensorPluginInterfaceEvEE13detach_helperEv)
    QList<QtMobility::QSensorPluginInterface*(*)()>::detach_helper_grow(int, int) 0x0000deaf   Thumb Code   204  qsensormanager.o(t._ZN5QListIPFPN10QtMobility22QSensorPluginInterfaceEvEE18detach_helper_growEii)
    QList<QtMobility::QSensorPluginInterface*(*)()>::free(QListData::Data*) 0x0000df8b   Thumb Code    58  qsensormanager.o(t._ZN5QListIPFPN10QtMobility22QSensorPluginInterfaceEvEE4freeEPN9QListData4DataE)
    QList<QtMobility::QSensorPluginInterface*(*)()>::append(QtMobility::QSensorPluginInterface*(*const &)()) 0x0000dfc5   Thumb Code    94  qsensormanager.o(t._ZN5QListIPFPN10QtMobility22QSensorPluginInterfaceEvEE6appendERKS4_)
    QList<QtMobility::QSensorPluginInterface*(*)()>::node_copy(QList<QtMobility::QSensorPluginInterface*(*)()>::Node*, QList<QtMobility::QSensorPluginInterface*(*)()>::Node*, QList<QtMobility::QSensorPluginInterface*(*)()>::Node*) 0x0000e033   Thumb Code    46  qsensormanager.o(t._ZN5QListIPFPN10QtMobility22QSensorPluginInterfaceEvEE9node_copyEPNS5_4NodeES7_S7_)
    QList<QtMobility::QSensorPluginInterface*(*)()>::~QList() 0x0000e061   Thumb Code    32  qsensormanager.o(t._ZN5QListIPFPN10QtMobility22QSensorPluginInterfaceEvEED1Ev)
    QList<QtMobility::QSensorPluginInterface*(*)()>::~QList__sub_object() 0x0000e061   Thumb Code     0  qsensormanager.o(t._ZN5QListIPFPN10QtMobility22QSensorPluginInterfaceEvEED1Ev)
    QList<QtMobility::QSensorFilter*>::detach_helper(int) 0x0000e081   Thumb Code    94  qsensor.o(t._ZN5QListIPN10QtMobility13QSensorFilterEE13detach_helperEi)
    QList<QtMobility::QSensorFilter*>::detach_helper() 0x0000e0e7   Thumb Code    16  qsensor.o(t._ZN5QListIPN10QtMobility13QSensorFilterEE13detach_helperEv)
    QList<QtMobility::QSensorFilter*>::detach_helper_grow(int, int) 0x0000e0f7   Thumb Code   204  qsensor.o(t._ZN5QListIPN10QtMobility13QSensorFilterEE18detach_helper_growEii)
    QList<QtMobility::QSensorFilter*>::free(QListData::Data*) 0x0000e1d3   Thumb Code    58  qsensor.o(t._ZN5QListIPN10QtMobility13QSensorFilterEE4freeEPN9QListData4DataE)
    QList<QtMobility::QSensorFilter*>::append(QtMobility::QSensorFilter*const &) 0x0000e20d   Thumb Code    94  qsensor.o(t._ZN5QListIPN10QtMobility13QSensorFilterEE6appendERKS2_)
    QList<QtMobility::QSensorFilter*>::node_copy(QList<QtMobility::QSensorFilter*>::Node*, QList<QtMobility::QSensorFilter*>::Node*, QList<QtMobility::QSensorFilter*>::Node*) 0x0000e27b   Thumb Code    46  qsensor.o(t._ZN5QListIPN10QtMobility13QSensorFilterEE9node_copyEPNS3_4NodeES5_S5_)
    QList<QtMobility::QSensorFilter*>::removeOne(QtMobility::QSensorFilter*const &) 0x0000e2a9   Thumb Code   118  qsensor.o(t._ZN5QListIPN10QtMobility13QSensorFilterEE9removeOneERKS2_)
    QList<QtMobility::QSensorFilter*>::~QList() 0x0000e325   Thumb Code    32  qsensor.o(t._ZN5QListIPN10QtMobility13QSensorFilterEED1Ev)
    QList<QtMobility::QSensorFilter*>::~QList__sub_object() 0x0000e325   Thumb Code     0  qsensor.o(t._ZN5QListIPN10QtMobility13QSensorFilterEED1Ev)
    QList<QtMobility::QSensorPluginInterface*>::detach_helper(int) 0x0000e345   Thumb Code   128  qsensormanager.o(t._ZN5QListIPN10QtMobility22QSensorPluginInterfaceEE13detach_helperEi)
    QList<QtMobility::QSensorPluginInterface*>::detach_helper() 0x0000e3cd   Thumb Code    16  qsensormanager.o(t._ZN5QListIPN10QtMobility22QSensorPluginInterfaceEE13detach_helperEv)
    QList<QtMobility::QSensorPluginInterface*>::detach_helper_grow(int, int) 0x0000e3dd   Thumb Code   204  qsensorpluginloader.o(t._ZN5QListIPN10QtMobility22QSensorPluginInterfaceEE18detach_helper_growEii)
    QList<QtMobility::QSensorPluginInterface*>::free(QListData::Data*) 0x0000e4b9   Thumb Code    58  qsensormanager.o(t._ZN5QListIPN10QtMobility22QSensorPluginInterfaceEE4freeEPN9QListData4DataE)
    QList<QtMobility::QSensorPluginInterface*>::append(QtMobility::QSensorPluginInterface*const &) 0x0000e4f5   Thumb Code    94  qsensorpluginloader.o(t._ZN5QListIPN10QtMobility22QSensorPluginInterfaceEE6appendERKS2_)
    QList<QtMobility::QSensorPluginInterface*>::node_copy(QList<QtMobility::QSensorPluginInterface*>::Node*, QList<QtMobility::QSensorPluginInterface*>::Node*, QList<QtMobility::QSensorPluginInterface*>::Node*) 0x0000e563   Thumb Code    46  qsensorpluginloader.o(t._ZN5QListIPN10QtMobility22QSensorPluginInterfaceEE9node_copyEPNS3_4NodeES5_S5_)
    QList<QtMobility::QSensorPluginInterface*>::QList(const QList<QtMobility::QSensorPluginInterface*>&) 0x0000e591   Thumb Code    36  qsensormanager.o(t._ZN5QListIPN10QtMobility22QSensorPluginInterfaceEEC1ERKS3_)
    QList<QtMobility::QSensorPluginInterface*>::QList__sub_object(const QList<QtMobility::QSensorPluginInterface*>&) 0x0000e591   Thumb Code     0  qsensormanager.o(t._ZN5QListIPN10QtMobility22QSensorPluginInterfaceEEC1ERKS3_)
    QList<QtMobility::QSensorPluginInterface*>::~QList() 0x0000e5b5   Thumb Code    32  qsensormanager.o(t._ZN5QListIPN10QtMobility22QSensorPluginInterfaceEED1Ev)
    QList<QtMobility::QSensorPluginInterface*>::~QList__sub_object() 0x0000e5b5   Thumb Code     0  qsensormanager.o(t._ZN5QListIPN10QtMobility22QSensorPluginInterfaceEED1Ev)
    QHashNode<QByteArray, QHash<QByteArray, QtMobility::QSensorBackendFactory*>>::QHashNode(const QByteArray&, const QHash<QByteArray, QtMobility::QSensorBackendFactory*>&) 0x0000e5d5   Thumb Code    64  qsensormanager.o(t._ZN9QHashNodeI10QByteArray5QHashIS0_PN10QtMobility21QSensorBackendFactoryEEEC1ERKS0_RKS5_)
    QHashNode<QByteArray, QHash<QByteArray, QtMobility::QSensorBackendFactory*>>::QHashNode__sub_object(const QByteArray&, const QHash<QByteArray, QtMobility::QSensorBackendFactory*>&) 0x0000e5d5   Thumb Code     0  qsensormanager.o(t._ZN9QHashNodeI10QByteArray5QHashIS0_PN10QtMobility21QSensorBackendFactoryEEEC1ERKS0_RKS5_)
    QHashNode<QByteArray, QtMobility::QSensorBackendFactory*>::QHashNode(const QByteArray&, QtMobility::QSensorBackendFactory*const &) 0x0000e621   Thumb Code    30  qsensormanager.o(t._ZN9QHashNodeI10QByteArrayPN10QtMobility21QSensorBackendFactoryEEC1ERKS0_RKS3_)
    QHashNode<QByteArray, QtMobility::QSensorBackendFactory*>::QHashNode__sub_object(const QByteArray&, QtMobility::QSensorBackendFactory*const &) 0x0000e621   Thumb Code     0  qsensormanager.o(t._ZN9QHashNodeI10QByteArrayPN10QtMobility21QSensorBackendFactoryEEC1ERKS0_RKS3_)
    QHashNode<QByteArray, QByteArray>::QHashNode(const QByteArray&, const QByteArray&) 0x0000e63f   Thumb Code    40  qsensormanager.o(t._ZN9QHashNodeI10QByteArrayS0_EC1ERKS0_S3_)
    QHashNode<QByteArray, QByteArray>::QHashNode__sub_object(const QByteArray&, const QByteArray&) 0x0000e63f   Thumb Code     0  qsensormanager.o(t._ZN9QHashNodeI10QByteArrayS0_EC1ERKS0_S3_)
    QForeachContainer<QList<QtMobility::QSensorPluginInterface*>>::condition() const 0x0000e673   Thumb Code    40  qsensormanager.o(t._ZNK17QForeachContainerI5QListIPN10QtMobility22QSensorPluginInterfaceEEE9conditionEv)
    QSet<QString>::contains(const QString&) const 0x0000e69b   Thumb Code    34  qsensorpluginloader.o(t._ZNK4QSetI7QStringE8containsERKS0_)
    QHash<QByteArray, QtMobility::QSensorBackendFactory*>::keys() const 0x0000e6bd   Thumb Code   108  qsensormanager.o(t._ZNK5QHashI10QByteArrayPN10QtMobility21QSensorBackendFactoryEE4keysEv)
    QHash<QByteArray, QtMobility::QSensorBackendFactory*>::contains(const QByteArray&) const 0x0000e733   Thumb Code    32  qsensormanager.o(t._ZNK5QHashI10QByteArrayPN10QtMobility21QSensorBackendFactoryEE8containsERKS0_)
    QHash<QByteArray, QtMobility::QSensorBackendFactory*>::findNode(const QByteArray&, unsigned*) const 0x0000e753   Thumb Code   116  qsensormanager.o(t._ZNK5QHashI10QByteArrayPN10QtMobility21QSensorBackendFactoryEE8findNodeERKS0_Pj)
    QHash<QByteArray, QtMobility::QSensorBackendFactory*>::operator [](const QByteArray&) const 0x0000e7c7   Thumb Code    42  qsensormanager.o(t._ZNK5QHashI10QByteArrayPN10QtMobility21QSensorBackendFactoryEEixERKS0_)
    QHash<QByteArray, QByteArray>::findNode(const QByteArray&, unsigned*) const 0x0000e7f1   Thumb Code   116  qsensormanager.o(t._ZNK5QHashI10QByteArrayS0_E8findNodeERKS0_Pj)
    QHash<QByteArray, QHash<QByteArray, QtMobility::QSensorBackendFactory*>>::keys() const 0x0000e865   Thumb Code   108  qsensormanager.o(t._ZNK5QHashI10QByteArrayS_IS0_PN10QtMobility21QSensorBackendFactoryEEE4keysEv)
    QHash<QByteArray, QHash<QByteArray, QtMobility::QSensorBackendFactory*>>::contains(const QByteArray&) const 0x0000e8db   Thumb Code    32  qsensormanager.o(t._ZNK5QHashI10QByteArrayS_IS0_PN10QtMobility21QSensorBackendFactoryEEE8containsERKS0_)
    QHash<QByteArray, QHash<QByteArray, QtMobility::QSensorBackendFactory*>>::findNode(const QByteArray&, unsigned*) const 0x0000e8fb   Thumb Code   116  qsensormanager.o(t._ZNK5QHashI10QByteArrayS_IS0_PN10QtMobility21QSensorBackendFactoryEEE8findNodeERKS0_Pj)
    QHash<QString, QHashDummyValue>::findNode(const QString&, unsigned*) const 0x0000e96f   Thumb Code   116  qsensorpluginloader.o(t._ZNK5QHashI7QString15QHashDummyValueE8findNodeERKS0_Pj)
    QList<QString>::at(int) const            0x0000e9e3   Thumb Code    30  qsensorpluginloader.o(t._ZNK5QListI7QStringE2atEi)
    QList<QString>::count() const            0x0000ea01   Thumb Code    16  qsensorpluginloader.o(t._ZNK5QListI7QStringE5countEv)
    QList<QtMobility::QSensorFilter*>::indexOf(QtMobility::QSensorFilter*const &, int) const 0x0000ea11   Thumb Code   116  qsensor.o(t._ZNK5QListIPN10QtMobility13QSensorFilterEE7indexOfERKS2_i)
    QtMobility::QSensorBackend::staticMetaObject 0x0000f738   Data          16  qsensorbackend.o(.constdata)
    QtMobility::QSensor::staticMetaObject    0x0000f7dc   Data          16  qsensor.o(.constdata)
    QtMobility::QSensorReading::staticMetaObject 0x0000f7ec   Data          16  qsensor.o(.constdata)
    QtMobility::QAccelerometerReading::staticMetaObject 0x0000fb90   Data          16  qaccelerometer.o(.constdata)
    QtMobility::QAccelerometer::staticMetaObject 0x0000fba0   Data          16  qaccelerometer.o(.constdata)
    QtMobility::QAccelerometer::type         0x0000fbb0   Data           4  qaccelerometer.o(.constdata)
    QtMobility::QAmbientLightReading::staticMetaObject 0x0000fc84   Data          16  qambientlightsensor.o(.constdata)
    QtMobility::QAmbientLightSensor::staticMetaObject 0x0000fc94   Data          16  qambientlightsensor.o(.constdata)
    QtMobility::QAmbientLightSensor::type    0x0000fca4   Data           4  qambientlightsensor.o(.constdata)
    QtMobility::QCompassReading::staticMetaObject 0x0000fddc   Data          16  qcompass.o(.constdata)
    QtMobility::QCompass::staticMetaObject   0x0000fdec   Data          16  qcompass.o(.constdata)
    QtMobility::QCompass::type               0x0000fdfc   Data           4  qcompass.o(.constdata)
    QtMobility::QMagnetometerReading::staticMetaObject 0x0000fecc   Data          16  qmagnetometer.o(.constdata)
    QtMobility::QMagnetometer::staticMetaObject 0x0000fedc   Data          16  qmagnetometer.o(.constdata)
    QtMobility::QMagnetometer::type          0x0000feec   Data           4  qmagnetometer.o(.constdata)
    QtMobility::QOrientationReading::staticMetaObject 0x0000ffdc   Data          16  qorientationsensor.o(.constdata)
    QtMobility::QOrientationSensor::staticMetaObject 0x0000ffec   Data          16  qorientationsensor.o(.constdata)
    QtMobility::QOrientationSensor::type     0x0000fffc   Data           4  qorientationsensor.o(.constdata)
    QtMobility::QProximityReading::staticMetaObject 0x00010144   Data          16  qproximitysensor.o(.constdata)
    QtMobility::QProximitySensor::staticMetaObject 0x00010154   Data          16  qproximitysensor.o(.constdata)
    QtMobility::QProximitySensor::type       0x00010164   Data           4  qproximitysensor.o(.constdata)
    QtMobility::QRotationReading::staticMetaObject 0x00010220   Data          16  qrotationsensor.o(.constdata)
    QtMobility::QRotationSensor::staticMetaObject 0x00010230   Data          16  qrotationsensor.o(.constdata)
    QtMobility::QRotationSensor::type        0x00010240   Data           4  qrotationsensor.o(.constdata)
    QtMobility::QTapReading::staticMetaObject 0x00010314   Data          16  qtapsensor.o(.constdata)
    QtMobility::QTapSensor::staticMetaObject 0x00010324   Data          16  qtapsensor.o(.constdata)
    QtMobility::QTapSensor::type             0x00010334   Data           4  qtapsensor.o(.constdata)
    stlp_priv::_Integer_limits<signed char, (signed char)-128, (signed char)127, (int)-1, (bool)1>::digits 0x000104a0   Data           4  qsensorbackend.o(.constdata__ZN9stlp_priv15_Integer_limitsIaLan128ELa127ELin1ELb1EE6digitsE)
    stlp_priv::_Integer_limits<bool, (bool)0, (bool)1, (int)1, (bool)0>::digits 0x000104a4   Data           4  qsensorbackend.o(.constdata__ZN9stlp_priv15_Integer_limitsIbLb0ELb1ELi1ELb0EE6digitsE)
    stlp_priv::_Integer_limits<char, (char)128, (char)127, (int)-1, (bool)1>::digits 0x000104a8   Data           4  qsensorbackend.o(.constdata__ZN9stlp_priv15_Integer_limitsIcLc128ELc127ELin1ELb1EE6digitsE)
    stlp_priv::_Integer_limits<unsigned char, (unsigned char)0, (unsigned char)255, (int)-1, (bool)1>::digits 0x000104ac   Data           4  qsensorbackend.o(.constdata__ZN9stlp_priv15_Integer_limitsIhLh0ELh255ELin1ELb1EE6digitsE)
    stlp_priv::_Integer_limits<int, (int)-2147483648, (int)2147483647, (int)-1, (bool)1>::digits 0x000104b0   Data           4  qsensorbackend.o(.constdata__ZN9stlp_priv15_Integer_limitsIiLin2147483648ELi2147483647ELin1ELb1EE6digitsE)
    stlp_priv::_Integer_limits<int, (int)-2147483648, (int)2147483647, (int)-1, (bool)1>::is_signed 0x000104b4   Data           1  qsensorbackend.o(.constdata__ZN9stlp_priv15_Integer_limitsIiLin2147483648ELi2147483647ELin1ELb1EE9is_signedE)
    stlp_priv::_Integer_limits<unsigned, (unsigned)0, (unsigned)4294967295, (int)-1, (bool)1>::digits 0x000104b8   Data           4  qsensorbackend.o(.constdata__ZN9stlp_priv15_Integer_limitsIjLj0ELj4294967295ELin1ELb1EE6digitsE)
    stlp_priv::_Integer_limits<long, (long)-2147483648, (long)2147483647, (int)-1, (bool)1>::digits 0x000104bc   Data           4  qsensorbackend.o(.constdata__ZN9stlp_priv15_Integer_limitsIlLln2147483648ELl2147483647ELin1ELb1EE6digitsE)
    stlp_priv::_Integer_limits<unsigned long, (unsigned long)0, (unsigned long)4294967295, (int)-1, (bool)1>::digits 0x000104c0   Data           4  qsensorbackend.o(.constdata__ZN9stlp_priv15_Integer_limitsImLm0ELm4294967295ELin1ELb1EE6digitsE)
    stlp_priv::_Integer_limits<short, (short)-32768, (short)32767, (int)-1, (bool)1>::digits 0x000104c4   Data           4  qsensorbackend.o(.constdata__ZN9stlp_priv15_Integer_limitsIsLsn32768ELs32767ELin1ELb1EE6digitsE)
    stlp_priv::_Integer_limits<unsigned short, (unsigned short)0, (unsigned short)65535, (int)-1, (bool)1>::digits 0x000104c8   Data           4  qsensorbackend.o(.constdata__ZN9stlp_priv15_Integer_limitsItLt0ELt65535ELin1ELb1EE6digitsE)
    stlp_priv::_Integer_limits<wchar_t, (wchar_t)0, (wchar_t)65535, (int)-1, (bool)1>::digits 0x000104cc   Data           4  qsensorbackend.o(.constdata__ZN9stlp_priv15_Integer_limitsIwLw0ELw65535ELin1ELb1EE6digitsE)
    stlp_priv::_Integer_limits<long long, (long long)-9223372036854775808, (long long)9223372036854775807, (int)-1, (bool)1>::digits 0x000104d0   Data           4  qsensorbackend.o(.constdata__ZN9stlp_priv15_Integer_limitsIxLxn9223372036854775808ELx9223372036854775807ELin1ELb1EE6digitsE)
    stlp_priv::_Integer_limits<unsigned long long, (unsigned long long)0, (unsigned long long)18446744073709551615, (int)-1, (bool)1>::digits 0x000104d4   Data           4  qsensorbackend.o(.constdata__ZN9stlp_priv15_Integer_limitsIyLy0ELy18446744073709551615ELin1ELb1EE6digitsE)
    typeinfo for QtMobility::QTapSensor      0x000104d8   Data          12  qtapsensor.o(.constdata__ZTIN10QtMobility10QTapSensorE)
    typeinfo for QtMobility::QTapReading     0x000104e4   Data          12  qtapsensor.o(.constdata__ZTIN10QtMobility11QTapReadingE)
    typeinfo for QtMobility::QMagnetometer   0x000104f0   Data          12  qmagnetometer.o(.constdata__ZTIN10QtMobility13QMagnetometerE)
    typeinfo for QtMobility::QSensorFilter   0x000104fc   Data           8  qsensor.o(.constdata__ZTIN10QtMobility13QSensorFilterE)
    typeinfo for QtMobility::QAccelerometer  0x00010504   Data          12  qaccelerometer.o(.constdata__ZTIN10QtMobility14QAccelerometerE)
    typeinfo for QtMobility::QSensorBackend  0x00010510   Data          12  qsensorbackend.o(.constdata__ZTIN10QtMobility14QSensorBackendE)
    typeinfo for QtMobility::QSensorReading  0x0001051c   Data          12  qsensor.o(.constdata__ZTIN10QtMobility14QSensorReadingE)
    typeinfo for QtMobility::QCompassReading 0x00010528   Data          12  qcompass.o(.constdata__ZTIN10QtMobility15QCompassReadingE)
    typeinfo for QtMobility::QRotationSensor 0x00010534   Data          12  qrotationsensor.o(.constdata__ZTIN10QtMobility15QRotationSensorE)
    typeinfo for QtMobility::QProximitySensor 0x00010540   Data          12  qproximitysensor.o(.constdata__ZTIN10QtMobility16QProximitySensorE)
    typeinfo for QtMobility::QRotationReading 0x0001054c   Data          12  qrotationsensor.o(.constdata__ZTIN10QtMobility16QRotationReadingE)
    typeinfo for QtMobility::QProximityReading 0x00010558   Data          12  qproximitysensor.o(.constdata__ZTIN10QtMobility17QProximityReadingE)
    typeinfo for QtMobility::QOrientationSensor 0x00010564   Data          12  qorientationsensor.o(.constdata__ZTIN10QtMobility18QOrientationSensorE)
    typeinfo for QtMobility::QAmbientLightSensor 0x00010570   Data          12  qambientlightsensor.o(.constdata__ZTIN10QtMobility19QAmbientLightSensorE)
    typeinfo for QtMobility::QOrientationReading 0x0001057c   Data          12  qorientationsensor.o(.constdata__ZTIN10QtMobility19QOrientationReadingE)
    typeinfo for QtMobility::QAmbientLightReading 0x00010588   Data          12  qambientlightsensor.o(.constdata__ZTIN10QtMobility20QAmbientLightReadingE)
    typeinfo for QtMobility::QMagnetometerReading 0x00010594   Data          12  qmagnetometer.o(.constdata__ZTIN10QtMobility20QMagnetometerReadingE)
    typeinfo for QtMobility::QAccelerometerReading 0x000105a0   Data          12  qaccelerometer.o(.constdata__ZTIN10QtMobility21QAccelerometerReadingE)
    typeinfo for QtMobility::QSensor         0x000105ac   Data          12  qsensor.o(.constdata__ZTIN10QtMobility7QSensorE)
    typeinfo for QtMobility::QCompass        0x000105b8   Data          12  qcompass.o(.constdata__ZTIN10QtMobility8QCompassE)
    typeinfo name for QtMobility::QTapSensor 0x000105c4   Data          27  qtapsensor.o(.constdata__ZTSN10QtMobility10QTapSensorE)
    typeinfo name for QtMobility::QTapReading 0x000105df   Data          28  qtapsensor.o(.constdata__ZTSN10QtMobility11QTapReadingE)
    typeinfo name for QtMobility::QMagnetometer 0x000105fb   Data          30  qmagnetometer.o(.constdata__ZTSN10QtMobility13QMagnetometerE)
    typeinfo name for QtMobility::QSensorFilter 0x00010619   Data          30  qsensor.o(.constdata__ZTSN10QtMobility13QSensorFilterE)
    typeinfo name for QtMobility::QAccelerometer 0x00010637   Data          31  qaccelerometer.o(.constdata__ZTSN10QtMobility14QAccelerometerE)
    typeinfo name for QtMobility::QSensorBackend 0x00010656   Data          31  qsensorbackend.o(.constdata__ZTSN10QtMobility14QSensorBackendE)
    typeinfo name for QtMobility::QSensorReading 0x00010675   Data          31  qsensor.o(.constdata__ZTSN10QtMobility14QSensorReadingE)
    typeinfo name for QtMobility::QCompassReading 0x00010694   Data          32  qcompass.o(.constdata__ZTSN10QtMobility15QCompassReadingE)
    typeinfo name for QtMobility::QRotationSensor 0x000106b4   Data          32  qrotationsensor.o(.constdata__ZTSN10QtMobility15QRotationSensorE)
    typeinfo name for QtMobility::QProximitySensor 0x000106d4   Data          33  qproximitysensor.o(.constdata__ZTSN10QtMobility16QProximitySensorE)
    typeinfo name for QtMobility::QRotationReading 0x000106f5   Data          33  qrotationsensor.o(.constdata__ZTSN10QtMobility16QRotationReadingE)
    typeinfo name for QtMobility::QProximityReading 0x00010716   Data          34  qproximitysensor.o(.constdata__ZTSN10QtMobility17QProximityReadingE)
    typeinfo name for QtMobility::QOrientationSensor 0x00010738   Data          35  qorientationsensor.o(.constdata__ZTSN10QtMobility18QOrientationSensorE)
    typeinfo name for QtMobility::QAmbientLightSensor 0x0001075b   Data          36  qambientlightsensor.o(.constdata__ZTSN10QtMobility19QAmbientLightSensorE)
    typeinfo name for QtMobility::QOrientationReading 0x0001077f   Data          36  qorientationsensor.o(.constdata__ZTSN10QtMobility19QOrientationReadingE)
    typeinfo name for QtMobility::QAmbientLightReading 0x000107a3   Data          37  qambientlightsensor.o(.constdata__ZTSN10QtMobility20QAmbientLightReadingE)
    typeinfo name for QtMobility::QMagnetometerReading 0x000107c8   Data          37  qmagnetometer.o(.constdata__ZTSN10QtMobility20QMagnetometerReadingE)
    typeinfo name for QtMobility::QAccelerometerReading 0x000107ed   Data          38  qaccelerometer.o(.constdata__ZTSN10QtMobility21QAccelerometerReadingE)
    typeinfo name for QtMobility::QSensor    0x00010813   Data          23  qsensor.o(.constdata__ZTSN10QtMobility7QSensorE)
    typeinfo name for QtMobility::QCompass   0x0001082a   Data          24  qcompass.o(.constdata__ZTSN10QtMobility8QCompassE)
    vtable for QtMobility::QTapSensor        0x00010844   Data          56  qtapsensor.o(.constdata__ZTVN10QtMobility10QTapSensorE)
    vtable for QtMobility::QTapReading       0x0001087c   Data          60  qtapsensor.o(.constdata__ZTVN10QtMobility11QTapReadingE)
    vtable for QtMobility::QMagnetometer     0x000108b8   Data          56  qmagnetometer.o(.constdata__ZTVN10QtMobility13QMagnetometerE)
    vtable for QtMobility::QSensorFilter     0x000108f0   Data          16  qsensor.o(.constdata__ZTVN10QtMobility13QSensorFilterE)
    vtable for QtMobility::QAccelerometer    0x00010900   Data          56  qaccelerometer.o(.constdata__ZTVN10QtMobility14QAccelerometerE)
    vtable for QtMobility::QSensorBackend    0x00010938   Data          64  qsensorbackend.o(.constdata__ZTVN10QtMobility14QSensorBackendE)
    vtable for QtMobility::QSensorReading    0x00010978   Data          60  qsensor.o(.constdata__ZTVN10QtMobility14QSensorReadingE)
    vtable for QtMobility::QCompassReading   0x000109b4   Data          60  qcompass.o(.constdata__ZTVN10QtMobility15QCompassReadingE)
    vtable for QtMobility::QRotationSensor   0x000109f0   Data          56  qrotationsensor.o(.constdata__ZTVN10QtMobility15QRotationSensorE)
    vtable for QtMobility::QProximitySensor  0x00010a28   Data          56  qproximitysensor.o(.constdata__ZTVN10QtMobility16QProximitySensorE)
    vtable for QtMobility::QRotationReading  0x00010a60   Data          60  qrotationsensor.o(.constdata__ZTVN10QtMobility16QRotationReadingE)
    vtable for QtMobility::QProximityReading 0x00010a9c   Data          60  qproximitysensor.o(.constdata__ZTVN10QtMobility17QProximityReadingE)
    vtable for QtMobility::QOrientationSensor 0x00010ad8   Data          56  qorientationsensor.o(.constdata__ZTVN10QtMobility18QOrientationSensorE)
    vtable for QtMobility::QAmbientLightSensor 0x00010b10   Data          56  qambientlightsensor.o(.constdata__ZTVN10QtMobility19QAmbientLightSensorE)
    vtable for QtMobility::QOrientationReading 0x00010b48   Data          60  qorientationsensor.o(.constdata__ZTVN10QtMobility19QOrientationReadingE)
    vtable for QtMobility::QAmbientLightReading 0x00010b84   Data          60  qambientlightsensor.o(.constdata__ZTVN10QtMobility20QAmbientLightReadingE)
    vtable for QtMobility::QMagnetometerReading 0x00010bc0   Data          60  qmagnetometer.o(.constdata__ZTVN10QtMobility20QMagnetometerReadingE)
    vtable for QtMobility::QAccelerometerReading 0x00010bfc   Data          60  qaccelerometer.o(.constdata__ZTVN10QtMobility21QAccelerometerReadingE)
    vtable for QtMobility::QSensor           0x00010c38   Data          56  qsensor.o(.constdata__ZTVN10QtMobility7QSensorE)
    vtable for QtMobility::QCompass          0x00010c70   Data          56  qcompass.o(.constdata__ZTVN10QtMobility8QCompassE)
    SHT$$INIT_ARRAY$$Base                    0x00010d24   Number         0  qsensor.o(.init_array)
    .ARM.exidx$$Base                         0x00010d28   Number         0  ucppinit.o(.ARM.exidx)
    SHT$$INIT_ARRAY$$Limit                   0x00010d28   Data           0  qsensor.o(.init_array)
    .ARM.exidx$$Limit                        0x00011768   Number         0  qsensor.o(.ARM.exidx)
    Image$$ER_RO$$Limit                      0x00011768   Number         0  anon$$obj.o(linker$$defined$$symbols)
    __dso_handle                             0x00400034   Data           4  ucppfini.o(.data)
    std::_Atomic_swap_struct<(int)1>::_S_swap_lock 0x00400038   Data          12  qsensorbackend.o(.data__ZNSt19_Atomic_swap_structILi1EE12_S_swap_lockE)
    QMetaTypeId<QList<QPair<int, int>>>::qt_metatype_id()::metatype_id 0x00400044   Data           4  qsensor.o(.data__ZZN11QMetaTypeIdI5QListI5QPairIiiEEE14qt_metatype_idEvE11metatype_id)
    QMetaTypeId<QList<QtMobility::qoutputrange>>::qt_metatype_id()::metatype_id 0x00400048   Data           4  qsensor.o(.data__ZZN11QMetaTypeIdI5QListIN10QtMobility12qoutputrangeEEE14qt_metatype_idEvE11metatype_id)
    QMetaTypeId<QPair<int, int>>::qt_metatype_id()::metatype_id 0x0040004c   Data           4  qsensor.o(.data__ZZN11QMetaTypeIdI5QPairIiiEE14qt_metatype_idEvE11metatype_id)
    QMetaTypeId<QtMobility::qtimestamp>::qt_metatype_id()::metatype_id 0x00400050   Data           4  qsensor.o(.data__ZZN11QMetaTypeIdIN10QtMobility10qtimestampEE14qt_metatype_idEvE11metatype_id)
    dtor_rec                                 0x00400054   Data        2048  ucppfini.o(.bss)

