ARM Linker, RVCT2.2 [Build 686]

================================================================================

Image Symbol Table

    Local Symbols

    Symbol Name                              Value     Ov Type        Size  Object(Section)

    ../../unhosted.s                         0x00000000   Number         0  switch8.o ABSOLUTE
    M:\\epoc32\\build\\euser\\c_e18a23aea4fd210f\\edll_lib\\armv5\\udeb\\uc_dll_.cpp 0x00000000   Number         0  uc_dll_.o ABSOLUTE
    M:\\sf\\os\\kernelhwsrv\\kernel\\eka\\compsupp\\rvct\\ucppinit.cpp 0x00000000   Number         0  ucppinit.o ABSOLUTE
    M:\epoc32\build\euser\c_e18a23aea4fd210f\edll_lib\armv5\udeb\uc_dll_.cpp 0x00000000   Number         0  uc_dll_.o ABSOLUTE
    M:\sf\os\kernelhwsrv\kernel\eka\compsupp\rvct\dllexp.cpp 0x00000000   Number         0  dllexp.o ABSOLUTE
    M:\sf\os\kernelhwsrv\kernel\eka\compsupp\rvct\ucppfini.cpp 0x00000000   Number         0  ucppfini.o ABSOLUTE
    M:\sf\os\kernelhwsrv\kernel\eka\compsupp\rvct\ucppinit.cpp 0x00000000   Number         0  ucppinit.o ABSOLUTE
    M:\sf\os\kernelhwsrv\kernel\eka\euser\epoc\arm\uc_dll.cpp 0x00000000   Number         0  uc_dll.o ABSOLUTE
    S:\sf\mw\qtmobility\src\serviceframework\databasemanager_symbian.cpp 0x00000000   Number         0  databasemanager_symbian.o ABSOLUTE
    S:\sf\mw\qtmobility\src\serviceframework\dberror.cpp 0x00000000   Number         0  dberror.o ABSOLUTE
    S:\sf\mw\qtmobility\src\serviceframework\ipc\instancemanager.cpp 0x00000000   Number         0  instancemanager.o ABSOLUTE
    S:\sf\mw\qtmobility\src\serviceframework\ipc\ipcendpoint.cpp 0x00000000   Number         0  ipcendpoint.o ABSOLUTE
    S:\sf\mw\qtmobility\src\serviceframework\ipc\objectendpoint.cpp 0x00000000   Number         0  objectendpoint.o ABSOLUTE
    S:\sf\mw\qtmobility\src\serviceframework\ipc\proxyobject.cpp 0x00000000   Number         0  proxyobject.o ABSOLUTE
    S:\sf\mw\qtmobility\src\serviceframework\ipc\qmetaobjectbuilder.cpp 0x00000000   Number         0  qmetaobjectbuilder.o ABSOLUTE
    S:\sf\mw\qtmobility\src\serviceframework\ipc\qremoteserviceregister_p.cpp 0x00000000   Number         0  qremoteserviceregister_p.o ABSOLUTE
    S:\sf\mw\qtmobility\src\serviceframework\ipc\qremoteserviceregister_s60.cpp 0x00000000   Number         0  qremoteserviceregister_s60.o ABSOLUTE
    S:\sf\mw\qtmobility\src\serviceframework\ipc\qservicepackage.cpp 0x00000000   Number         0  qservicepackage.o ABSOLUTE
    S:\sf\mw\qtmobility\src\serviceframework\ipc\qsignalintercepter.cpp 0x00000000   Number         0  qsignalintercepter.o ABSOLUTE
    S:\sf\mw\qtmobility\src\serviceframework\ipc\qslotinvoker.cpp 0x00000000   Number         0  qslotinvoker.o ABSOLUTE
    S:\sf\mw\qtmobility\src\serviceframework\qabstractsecuritysession.cpp 0x00000000   Number         0  qabstractsecuritysession.o ABSOLUTE
    S:\sf\mw\qtmobility\src\serviceframework\qremoteserviceregister.cpp 0x00000000   Number         0  qremoteserviceregister.o ABSOLUTE
    S:\sf\mw\qtmobility\src\serviceframework\qservicecontext.cpp 0x00000000   Number         0  qservicecontext.o ABSOLUTE
    S:\sf\mw\qtmobility\src\serviceframework\qservicefilter.cpp 0x00000000   Number         0  qservicefilter.o ABSOLUTE
    S:\sf\mw\qtmobility\src\serviceframework\qserviceinterfacedescriptor.cpp 0x00000000   Number         0  qserviceinterfacedescriptor.o ABSOLUTE
    S:\sf\mw\qtmobility\src\serviceframework\qservicemanager.cpp 0x00000000   Number         0  qservicemanager.o ABSOLUTE
    S:\sf\mw\qtmobility\src\serviceframework\qserviceplugininterface.cpp 0x00000000   Number         0  qserviceplugininterface.o ABSOLUTE
    S:\sf\mw\qtmobility\src\serviceframework\servicemetadata.cpp 0x00000000   Number         0  servicemetadata.o ABSOLUTE
    .emb_text                                0x00008000   Section       40  uc_dll_.o(.emb_text)
    Symbian$$eit_base                        0x00008014   Data           4  uc_dll_.o(.emb_text)
    Symbian$$eit_limit                       0x00008018   Data           4  uc_dll_.o(.emb_text)
    Symbian$$code_seg_base                   0x0000801c   Data           4  uc_dll_.o(.emb_text)
    Symbian$$code_seg_limit                  0x00008020   Data           4  uc_dll_.o(.emb_text)
    Symbian$$reserved                        0x00008024   Data           4  uc_dll_.o(.emb_text)
    .emb_text                                0x00008028   Section       52  ucppinit.o(.emb_text)
    loop                                     0x0000803c   ARM Code       0  ucppinit.o(.emb_text)
    ret                                      0x00008044   ARM Code       0  ucppinit.o(.emb_text)
    base                                     0x00008054   Data           0  ucppinit.o(.emb_text)
    limit                                    0x00008058   Data           0  ucppinit.o(.emb_text)
    .text                                    0x00008a14   Section     7264  servicemetadata.o(.text)
    |L1.1360|                                0x00008f64   Data           0  servicemetadata.o(.text)
    |L1.2444|                                0x000093a0   Data           0  servicemetadata.o(.text)
    |L1.2452|                                0x000093a8   Data           0  servicemetadata.o(.text)
    |L1.2464|                                0x000093b4   Data           0  servicemetadata.o(.text)
    |L1.2512|                                0x000093e4   Data           0  servicemetadata.o(.text)
    |L1.4724|                                0x00009c88   Data           0  servicemetadata.o(.text)
    |L1.4732|                                0x00009c90   Data           0  servicemetadata.o(.text)
    |L1.4736|                                0x00009c94   Data           0  servicemetadata.o(.text)
    .text                                    0x0000a674   Section     4124  qservicemanager.o(.text)
    QtMobility::qservicemanager_resolveLibraryPath(const QString&) 0x0000a9ff   Thumb Code   414  qservicemanager.o(.text)
    .text                                    0x0000b690   Section       40  qserviceplugininterface.o(.text)
    .text                                    0x0000b6b8   Section      816  qservicecontext.o(.text)
    .text                                    0x0000b9e8   Section      180  qabstractsecuritysession.o(.text)
    .text                                    0x0000ba9c   Section     1964  qserviceinterfacedescriptor.o(.text)
    .text                                    0x0000c248   Section     1872  qservicefilter.o(.text)
    .text                                    0x0000c998   Section      316  dberror.o(.text)
    .text                                    0x0000cad4   Section     1696  qremoteserviceregister.o(.text)
    .text                                    0x0000d174   Section     2964  databasemanager_symbian.o(.text)
    .text                                    0x0000dd08   Section     4296  qremoteserviceregister_s60.o(.text)
    .text                                    0x0000edd0   Section     5642  objectendpoint.o(.text)
    QtMobility::openRequests()               0x0000ee45   Thumb Code   172  objectendpoint.o(.text)
    |L1.1052|                                0x0000f1ec   Data           0  objectendpoint.o(.text)
    .text                                    0x000103dc   Section     1396  qslotinvoker.o(.text)
    .text                                    0x00010950   Section     1336  qsignalintercepter.o(.text)
    .text                                    0x00010e88   Section    11494  qmetaobjectbuilder.o(.text)
    buildString(char*, char*, int*, const QByteArray&, int) 0x00010f0f   Thumb Code   116  qmetaobjectbuilder.o(.text)
    buildParameterNames(const QByteArray&, const QList<QByteArray>&) 0x00010f83   Thumb Code   516  qmetaobjectbuilder.o(.text)
    buildMetaObject(QMetaObjectBuilderPrivate*, char*, bool) 0x00011187   Thumb Code  1980  qmetaobjectbuilder.o(.text)
    resolveClassName(const QMap<QByteArray, const QMetaObject*>&, const QByteArray&) 0x00011943   Thumb Code   210  qmetaobjectbuilder.o(.text)
    .text                                    0x00013b70   Section     2124  instancemanager.o(.text)
    |L1.1000|                                0x00013f58   Data           0  instancemanager.o(.text)
    QtMobility::typeRegister()               0x000142ff   Thumb Code   164  instancemanager.o(.text)
    .text                                    0x000143bc   Section     1388  qservicepackage.o(.text)
    .text                                    0x00014928   Section     2020  proxyobject.o(.text)
    |L1.1184|                                0x00014dc8   Data           0  proxyobject.o(.text)
    .text                                    0x0001510c   Section      476  ipcendpoint.o(.text)
    .text                                    0x000152e8   Section      428  qremoteserviceregister_p.o(.text)
    .text                                    0x00015494   Section       24  switch8.o(.text)
    .text                                    0x000154ac   Section       80  uc_dll.o(.text)
    .text                                    0x000154fc   Section      180  ucppfini.o(.text)
    .text                                    0x000155b0   Section        4  dllexp.o(.text)
    .text.clean                              0x000155b4   Section     1268  servicemetadata.o(.text.clean)
    .text.clean                              0x00015aa8   Section      530  qservicemanager.o(.text.clean)
    .text.clean                              0x00015cba   Section      104  qservicecontext.o(.text.clean)
    .text.clean                              0x00015d22   Section      142  qserviceinterfacedescriptor.o(.text.clean)
    .text.clean                              0x00015db0   Section      138  qservicefilter.o(.text.clean)
    .text.clean                              0x00015e3a   Section       16  dberror.o(.text.clean)
    .text.clean                              0x00015e4a   Section      118  qremoteserviceregister.o(.text.clean)
    .text.clean                              0x00015ec0   Section      186  databasemanager_symbian.o(.text.clean)
    .text.clean                              0x00015f7a   Section      460  qremoteserviceregister_s60.o(.text.clean)
    .text.clean                              0x00016148   Section      628  objectendpoint.o(.text.clean)
    .text.clean                              0x000163bc   Section      104  qslotinvoker.o(.text.clean)
    .text.clean                              0x00016424   Section       74  qsignalintercepter.o(.text.clean)
    .text.clean                              0x0001646e   Section      456  qmetaobjectbuilder.o(.text.clean)
    .text.clean                              0x00016638   Section      256  instancemanager.o(.text.clean)
    .text.clean                              0x00016738   Section      114  qservicepackage.o(.text.clean)
    .text.clean                              0x000167aa   Section      200  proxyobject.o(.text.clean)
    .text.clean                              0x00016872   Section       42  ipcendpoint.o(.text.clean)
    .text.clean                              0x0001689c   Section       10  qremoteserviceregister_p.o(.text.clean)
    i._Z23qStringComparisonHelperRK10QStringRefPKc 0x000168a8   Section       76  servicemetadata.o(i._Z23qStringComparisonHelperRK10QStringRefPKc)
    i._Z23qStringComparisonHelperRK10QStringRefPKc.clean 0x000168f4   Section       10  servicemetadata.o(i._Z23qStringComparisonHelperRK10QStringRefPKc.clean)
    i._Z6qDebugv                             0x000168fe   Section       16  objectendpoint.o(i._Z6qDebugv)
    i._Z8qWarningv                           0x0001690e   Section       16  objectendpoint.o(i._Z8qWarningv)
    i._ZN10QByteArrayC1ERKS_                 0x0001691e   Section       20  qmetaobjectbuilder.o(i._ZN10QByteArrayC1ERKS_)
    i._ZN10QByteArrayC1Ev                    0x00016934   Section       24  databasemanager_symbian.o(i._ZN10QByteArrayC1Ev)
    i._ZN10QByteArrayD1Ev                    0x0001694c   Section       24  servicemetadata.o(i._ZN10QByteArrayD1Ev)
    i._ZN10QStringRefD1Ev                    0x00016964   Section        2  servicemetadata.o(i._ZN10QStringRefD1Ev)
    i._ZN10QtMobility21ObjectEndPointPrivate21triggerConnectedSlotsEP7QObjectPK11QMetaObjectiPPv 0x00016966   Section       96  objectendpoint.o(i._ZN10QtMobility21ObjectEndPointPrivate21triggerConnectedSlotsEP7QObjectPK11QMetaObjectiPPv)
    i._ZN10QtMobility21ObjectEndPointPrivate23setupSignalInterceptersEP7QObject 0x000169c8   Section      284  objectendpoint.o(i._ZN10QtMobility21ObjectEndPointPrivate23setupSignalInterceptersEP7QObject)
    i._ZN10QtMobility21ObjectEndPointPrivate23setupSignalInterceptersEP7QObject.clean 0x00016ae4   Section       42  objectendpoint.o(i._ZN10QtMobility21ObjectEndPointPrivate23setupSignalInterceptersEP7QObject.clean)
    i._ZN10QtMobility21QServiceFilterPrivateC1Ev 0x00016b0e   Section       52  qservicefilter.o(i._ZN10QtMobility21QServiceFilterPrivateC1Ev)
    i._ZN10QtMobility21QServiceFilterPrivateC1Ev.clean 0x00016b42   Section       30  qservicefilter.o(i._ZN10QtMobility21QServiceFilterPrivateC1Ev.clean)
    i._ZN10QtMobility21QServicePluginCleanupD0Ev 0x00016b60   Section       22  qservicemanager.o(i._ZN10QtMobility21QServicePluginCleanupD0Ev)
    i._ZN10QtMobility21QServicePluginCleanupD1Ev 0x00016b78   Section       44  qservicemanager.o(i._ZN10QtMobility21QServicePluginCleanupD1Ev)
    i._ZN10QtMobility21QServicePluginCleanupD1Ev.clean 0x00016ba4   Section       10  qservicemanager.o(i._ZN10QtMobility21QServicePluginCleanupD1Ev.clean)
    i._ZN10QtMobility21SymbianClientEndPoint12flushPackageERKNS_15QServicePackageE 0x00016bae   Section       16  qremoteserviceregister_s60.o(i._ZN10QtMobility21SymbianClientEndPoint12flushPackageERKNS_15QServicePackageE)
    i._ZN10QtMobility21SymbianClientEndPointD0Ev 0x00016bbe   Section       28  qremoteserviceregister_s60.o(i._ZN10QtMobility21SymbianClientEndPointD0Ev)
    i._ZN10QtMobility21SymbianClientEndPointD1Ev 0x00016bda   Section       14  qremoteserviceregister_s60.o(i._ZN10QtMobility21SymbianClientEndPointD1Ev)
    i._ZN10QtMobility21SymbianServerEndPoint12flushPackageERKNS_15QServicePackageE 0x00016be8   Section      160  qremoteserviceregister_s60.o(i._ZN10QtMobility21SymbianServerEndPoint12flushPackageERKNS_15QServicePackageE)
    i._ZN10QtMobility21SymbianServerEndPoint12flushPackageERKNS_15QServicePackageE.clean 0x00016c88   Section       16  qremoteserviceregister_s60.o(i._ZN10QtMobility21SymbianServerEndPoint12flushPackageERKNS_15QServicePackageE.clean)
    i._ZN10QtMobility21SymbianServerEndPointD0Ev 0x00016c98   Section       22  qremoteserviceregister_s60.o(i._ZN10QtMobility21SymbianServerEndPointD0Ev)
    i._ZN10QtMobility21SymbianServerEndPointD1Ev 0x00016cb0   Section       28  qremoteserviceregister_s60.o(i._ZN10QtMobility21SymbianServerEndPointD1Ev)
    i._ZN10QtMobility21SymbianServerEndPointD1Ev.clean 0x00016ccc   Section       10  qremoteserviceregister_s60.o(i._ZN10QtMobility21SymbianServerEndPointD1Ev.clean)
    i._ZN10QtMobility22CServiceProviderServerD0Ev 0x00016cd6   Section       22  qremoteserviceregister_s60.o(i._ZN10QtMobility22CServiceProviderServerD0Ev)
    i._ZN10QtMobility22CServiceProviderServerD1Ev 0x00016cec   Section       16  qremoteserviceregister_s60.o(i._ZN10QtMobility22CServiceProviderServerD1Ev)
    i._ZN10QtMobility22QServiceManagerPrivate8setErrorEv 0x00016cfc   Section      164  qservicemanager.o(i._ZN10QtMobility22QServiceManagerPrivate8setErrorEv)
    i._ZN10QtMobility22QServiceManagerPrivate8setErrorEv.clean 0x00016da0   Section        4  qservicemanager.o(i._ZN10QtMobility22QServiceManagerPrivate8setErrorEv.clean)
    i._ZN10QtMobility22QServiceManagerPrivateC1EPNS_15QServiceManagerE 0x00016da4   Section      304  qservicemanager.o(i._ZN10QtMobility22QServiceManagerPrivateC1EPNS_15QServiceManagerE)
    i._ZN10QtMobility22QServiceManagerPrivateC1EPNS_15QServiceManagerE.clean 0x00016ed4   Section       20  qservicemanager.o(i._ZN10QtMobility22QServiceManagerPrivateC1EPNS_15QServiceManagerE.clean)
    i._ZN10QtMobility22QServiceManagerPrivateD0Ev 0x00016ee8   Section       22  qservicemanager.o(i._ZN10QtMobility22QServiceManagerPrivateD0Ev)
    i._ZN10QtMobility22QServiceManagerPrivateD1Ev 0x00016f00   Section       40  qservicemanager.o(i._ZN10QtMobility22QServiceManagerPrivateD1Ev)
    i._ZN10QtMobility22QServiceManagerPrivateD1Ev.clean 0x00016f28   Section       10  qservicemanager.o(i._ZN10QtMobility22QServiceManagerPrivateD1Ev.clean)
    i._ZN10QtMobility22QServicePackagePrivate5cleanEv 0x00016f32   Section       98  objectendpoint.o(i._ZN10QtMobility22QServicePackagePrivate5cleanEv)
    i._ZN10QtMobility22QServicePackagePrivate5cleanEv.clean 0x00016f94   Section       18  objectendpoint.o(i._ZN10QtMobility22QServicePackagePrivate5cleanEv.clean)
    i._ZN10QtMobility22QServicePackagePrivateC1Ev 0x00016fa8   Section      140  objectendpoint.o(i._ZN10QtMobility22QServicePackagePrivateC1Ev)
    i._ZN10QtMobility22QServicePackagePrivateC1Ev.clean 0x00017034   Section       40  objectendpoint.o(i._ZN10QtMobility22QServicePackagePrivateC1Ev.clean)
    i._ZN10QtMobility22QServicePackagePrivateD1Ev 0x0001705c   Section       40  qservicepackage.o(i._ZN10QtMobility22QServicePackagePrivateD1Ev)
    i._ZN10QtMobility22QServicePackagePrivateD1Ev.clean 0x00017084   Section       12  qservicepackage.o(i._ZN10QtMobility22QServicePackagePrivateD1Ev.clean)
    i._ZN10QtMobility22ServiceIdentDescriptorC1ERKS0_ 0x00017090   Section       82  instancemanager.o(i._ZN10QtMobility22ServiceIdentDescriptorC1ERKS0_)
    i._ZN10QtMobility22ServiceIdentDescriptorC1ERKS0_.clean 0x000170e2   Section       10  instancemanager.o(i._ZN10QtMobility22ServiceIdentDescriptorC1ERKS0_.clean)
    i._ZN10QtMobility22ServiceIdentDescriptorC1Ev 0x000170ec   Section       60  instancemanager.o(i._ZN10QtMobility22ServiceIdentDescriptorC1Ev)
    i._ZN10QtMobility22ServiceIdentDescriptorC1Ev.clean 0x00017128   Section       18  instancemanager.o(i._ZN10QtMobility22ServiceIdentDescriptorC1Ev.clean)
    i._ZN10QtMobility22ServiceIdentDescriptorD1Ev 0x0001713a   Section       22  instancemanager.o(i._ZN10QtMobility22ServiceIdentDescriptorD1Ev)
    i._ZN10QtMobility22ServiceIdentDescriptorD1Ev.clean 0x00017150   Section       10  instancemanager.o(i._ZN10QtMobility22ServiceIdentDescriptorD1Ev.clean)
    i._ZN10QtMobility22ServiceMetaDataResultsD1Ev 0x0001715a   Section       64  servicemetadata.o(i._ZN10QtMobility22ServiceMetaDataResultsD1Ev)
    i._ZN10QtMobility22ServiceMetaDataResultsD1Ev.clean 0x0001719a   Section       46  servicemetadata.o(i._ZN10QtMobility22ServiceMetaDataResultsD1Ev.clean)
    i._ZN10QtMobility24ServiceContextClientDataD0Ev 0x000171c8   Section       22  qservicecontext.o(i._ZN10QtMobility24ServiceContextClientDataD0Ev)
    i._ZN10QtMobility24ServiceContextClientDataD1Ev 0x000171e0   Section       32  qservicecontext.o(i._ZN10QtMobility24ServiceContextClientDataD1Ev)
    i._ZN10QtMobility24ServiceContextClientDataD1Ev.clean 0x00017200   Section       10  qservicecontext.o(i._ZN10QtMobility24ServiceContextClientDataD1Ev.clean)
    i._ZN10QtMobility24ServiceSignalIntercepter9activatedERK5QListI8QVariantE 0x0001720a   Section       34  objectendpoint.o(i._ZN10QtMobility24ServiceSignalIntercepter9activatedERK5QListI8QVariantE)
    i._ZN10QtMobility24ServiceSignalIntercepterD0Ev 0x0001722c   Section       24  objectendpoint.o(i._ZN10QtMobility24ServiceSignalIntercepterD0Ev)
    i._ZN10QtMobility24ServiceSignalIntercepterD1Ev 0x00017244   Section       14  objectendpoint.o(i._ZN10QtMobility24ServiceSignalIntercepterD1Ev)
    i._ZN10QtMobility34QRemoteServiceRegisterEntryPrivateD1Ev 0x00017252   Section       40  qremoteserviceregister.o(i._ZN10QtMobility34QRemoteServiceRegisterEntryPrivateD1Ev)
    i._ZN10QtMobility34QRemoteServiceRegisterEntryPrivateD1Ev.clean 0x0001727a   Section       22  qremoteserviceregister.o(i._ZN10QtMobility34QRemoteServiceRegisterEntryPrivateD1Ev.clean)
    i._ZN10QtMobility34QServiceInterfaceDescriptorPrivateC1Ev 0x00017290   Section       60  qserviceinterfacedescriptor.o(i._ZN10QtMobility34QServiceInterfaceDescriptorPrivateC1Ev)
    i._ZN10QtMobility34QServiceInterfaceDescriptorPrivateC1Ev.clean 0x000172cc   Section       30  qserviceinterfacedescriptor.o(i._ZN10QtMobility34QServiceInterfaceDescriptorPrivateC1Ev.clean)
    i._ZN10QtMobility34QServiceInterfaceDescriptorPrivateD1Ev 0x000172ea   Section       46  qserviceinterfacedescriptor.o(i._ZN10QtMobility34QServiceInterfaceDescriptorPrivateD1Ev)
    i._ZN10QtMobility34QServiceInterfaceDescriptorPrivateD1Ev.clean 0x00017318   Section       30  qserviceinterfacedescriptor.o(i._ZN10QtMobility34QServiceInterfaceDescriptorPrivateD1Ev.clean)
    i._ZN10QtMobility7DBErrorD1Ev            0x00017336   Section       14  databasemanager_symbian.o(i._ZN10QtMobility7DBErrorD1Ev)
    i._ZN11QDataStreamlsEt                   0x00017344   Section       18  qserviceinterfacedescriptor.o(i._ZN11QDataStreamlsEt)
    i._ZN11QStringListD1Ev                   0x00017356   Section       14  servicemetadata.o(i._ZN11QStringListD1Ev)
    i._ZN12QMutexLockerC1EP6QMutex           0x00017364   Section       34  instancemanager.o(i._ZN12QMutexLockerC1EP6QMutex)
    i._ZN12QMutexLockerD1Ev                  0x00017386   Section       42  instancemanager.o(i._ZN12QMutexLockerD1Ev)
    i._ZN15QBasicAtomicInt3refEv             0x000173b0   Section       24  servicemetadata.o(i._ZN15QBasicAtomicInt3refEv)
    i._ZN15QBasicAtomicInt5derefEv           0x000173c8   Section       24  servicemetadata.o(i._ZN15QBasicAtomicInt5derefEv)
    i._ZN17QForeachContainerI5QListI10QByteArrayEED1Ev 0x000173e0   Section       14  qmetaobjectbuilder.o(i._ZN17QForeachContainerI5QListI10QByteArrayEED1Ev)
    i._ZN17QForeachContainerI5QListIN10QtMobility22QRemoteServiceRegister5EntryEEED1Ev 0x000173ee   Section       14  instancemanager.o(i._ZN17QForeachContainerI5QListIN10QtMobility22QRemoteServiceRegister5EntryEEED1Ev)
    i._ZN20QXmlStreamAttributesD1Ev          0x000173fc   Section       14  servicemetadata.o(i._ZN20QXmlStreamAttributesD1Ev)
    i._ZN23QMetaEnumBuilderPrivateC1ERKS_    0x0001740a   Section       78  qmetaobjectbuilder.o(i._ZN23QMetaEnumBuilderPrivateC1ERKS_)
    i._ZN23QMetaEnumBuilderPrivateC1ERKS_.clean 0x00017458   Section       22  qmetaobjectbuilder.o(i._ZN23QMetaEnumBuilderPrivateC1ERKS_.clean)
    i._ZN23QMetaEnumBuilderPrivateD1Ev       0x0001746e   Section       38  qmetaobjectbuilder.o(i._ZN23QMetaEnumBuilderPrivateD1Ev)
    i._ZN23QMetaEnumBuilderPrivateD1Ev.clean 0x00017494   Section       22  qmetaobjectbuilder.o(i._ZN23QMetaEnumBuilderPrivateD1Ev.clean)
    i._ZN25QMetaMethodBuilderPrivateC1EN11QMetaMethod10MethodTypeERK10QByteArrayS4_NS0_6AccessE 0x000174aa   Section      118  qmetaobjectbuilder.o(i._ZN25QMetaMethodBuilderPrivateC1EN11QMetaMethod10MethodTypeERK10QByteArrayS4_NS0_6AccessE)
    i._ZN25QMetaMethodBuilderPrivateC1EN11QMetaMethod10MethodTypeERK10QByteArrayS4_NS0_6AccessE.clean 0x00017520   Section       50  qmetaobjectbuilder.o(i._ZN25QMetaMethodBuilderPrivateC1EN11QMetaMethod10MethodTypeERK10QByteArrayS4_NS0_6AccessE.clean)
    i._ZN25QMetaMethodBuilderPrivateC1ERKS_  0x00017552   Section       66  qmetaobjectbuilder.o(i._ZN25QMetaMethodBuilderPrivateC1ERKS_)
    i._ZN25QMetaMethodBuilderPrivateC1ERKS_.clean 0x00017594   Section       30  qmetaobjectbuilder.o(i._ZN25QMetaMethodBuilderPrivateC1ERKS_.clean)
    i._ZN25QMetaMethodBuilderPrivateD1Ev     0x000175b2   Section       46  qmetaobjectbuilder.o(i._ZN25QMetaMethodBuilderPrivateD1Ev)
    i._ZN25QMetaMethodBuilderPrivateD1Ev.clean 0x000175e0   Section       30  qmetaobjectbuilder.o(i._ZN25QMetaMethodBuilderPrivateD1Ev.clean)
    i._ZN25QMetaObjectBuilderPrivateC1Ev     0x00017600   Section      116  qmetaobjectbuilder.o(i._ZN25QMetaObjectBuilderPrivateC1Ev)
    i._ZN25QMetaObjectBuilderPrivateC1Ev.clean 0x00017674   Section       82  qmetaobjectbuilder.o(i._ZN25QMetaObjectBuilderPrivateC1Ev.clean)
    i._ZN25QMetaObjectBuilderPrivateD1Ev     0x000176c6   Section       98  qmetaobjectbuilder.o(i._ZN25QMetaObjectBuilderPrivateD1Ev)
    i._ZN25QMetaObjectBuilderPrivateD1Ev.clean 0x00017728   Section       82  qmetaobjectbuilder.o(i._ZN25QMetaObjectBuilderPrivateD1Ev.clean)
    i._ZN27QMetaPropertyBuilderPrivate7setFlagEib 0x0001777a   Section       20  qmetaobjectbuilder.o(i._ZN27QMetaPropertyBuilderPrivate7setFlagEib)
    i._ZN27QMetaPropertyBuilderPrivateC1ERKS_ 0x0001778e   Section       38  qmetaobjectbuilder.o(i._ZN27QMetaPropertyBuilderPrivateC1ERKS_)
    i._ZN27QMetaPropertyBuilderPrivateC1ERKS_.clean 0x000177b4   Section       10  qmetaobjectbuilder.o(i._ZN27QMetaPropertyBuilderPrivateC1ERKS_.clean)
    i._ZN27QMetaPropertyBuilderPrivateD1Ev   0x000177be   Section       22  qmetaobjectbuilder.o(i._ZN27QMetaPropertyBuilderPrivateD1Ev)
    i._ZN27QMetaPropertyBuilderPrivateD1Ev.clean 0x000177d4   Section       10  qmetaobjectbuilder.o(i._ZN27QMetaPropertyBuilderPrivateD1Ev.clean)
    i._ZN4QSetI7QStringED1Ev                 0x000177de   Section       14  servicemetadata.o(i._ZN4QSetI7QStringED1Ev)
    i._ZN5CBasenwEj                          0x000177ec   Section       16  databasemanager_symbian.o(i._ZN5CBasenwEj)
    i._ZN5QUuidC1ERKS_                       0x000177fc   Section       32  objectendpoint.o(i._ZN5QUuidC1ERKS_)
    i._ZN5QUuidC1Ev                          0x0001781c   Section       28  objectendpoint.o(i._ZN5QUuidC1Ev)
    i._ZN6QDebug10maybeSpaceEv               0x00017838   Section       24  servicemetadata.o(i._ZN6QDebug10maybeSpaceEv)
    i._ZN6QDebug5spaceEv                     0x00017850   Section       22  qservicepackage.o(i._ZN6QDebug5spaceEv)
    i._ZN6QDebugC1E9QtMsgType                0x00017866   Section       92  qremoteserviceregister_s60.o(i._ZN6QDebugC1E9QtMsgType)
    i._ZN6QDebugC1E9QtMsgType.clean          0x000178c2   Section       24  qremoteserviceregister_s60.o(i._ZN6QDebugC1E9QtMsgType.clean)
    i._ZN6QDebugC1ERKS_                      0x000178da   Section       16  qservicepackage.o(i._ZN6QDebugC1ERKS_)
    i._ZN6QDebugD1Ev                         0x000178ea   Section      144  qremoteserviceregister_s60.o(i._ZN6QDebugD1Ev)
    i._ZN6QDebugD1Ev.clean                   0x0001797a   Section       20  qremoteserviceregister_s60.o(i._ZN6QDebugD1Ev.clean)
    i._ZN6QDebuglsEPKc                       0x0001798e   Section       44  servicemetadata.o(i._ZN6QDebuglsEPKc)
    i._ZN6QDebuglsEPKc.clean                 0x000179ba   Section       10  servicemetadata.o(i._ZN6QDebuglsEPKc.clean)
    i._ZN6QDebuglsERK7QString                0x000179c4   Section       38  servicemetadata.o(i._ZN6QDebuglsERK7QString)
    i._ZN7QString5clearEv                    0x000179ea   Section       40  servicemetadata.o(i._ZN7QString5clearEv)
    i._ZN7QString5clearEv.clean              0x00017a12   Section       10  servicemetadata.o(i._ZN7QString5clearEv.clean)
    i._ZN7QStringC1EPKc                      0x00017a1c   Section       22  servicemetadata.o(i._ZN7QStringC1EPKc)
    i._ZN7QStringC1ERKS_                     0x00017a32   Section       22  servicemetadata.o(i._ZN7QStringC1ERKS_)
    i._ZN7QStringC1Ev                        0x00017a48   Section       24  servicemetadata.o(i._ZN7QStringC1Ev)
    i._ZN7QStringD1Ev                        0x00017a60   Section       24  servicemetadata.o(i._ZN7QStringD1Ev)
    i._ZN7QStringaSEPKc                      0x00017a78   Section       40  dberror.o(i._ZN7QStringaSEPKc)
    i._ZN7QStringaSEPKc.clean                0x00017aa0   Section       10  dberror.o(i._ZN7QStringaSEPKc.clean)
    i._ZN8QVariantC1Ev                       0x00017aaa   Section       38  qservicecontext.o(i._ZN8QVariantC1Ev)
    i._ZN8TIpcArgs3SetEiP5TDes8              0x00017ad0   Section       22  databasemanager_symbian.o(i._ZN8TIpcArgs3SetEiP5TDes8)
    i._ZN9QHashData8willGrowEv               0x00017ae6   Section       32  servicemetadata.o(i._ZN9QHashData8willGrowEv)
    i._ZN9QHashData9firstNodeEv              0x00017b06   Section       36  qserviceinterfacedescriptor.o(i._ZN9QHashData9firstNodeEv)
    i._ZN9QHashData9hasShrunkEv              0x00017b2a   Section       82  instancemanager.o(i._ZN9QHashData9hasShrunkEv)
    i._ZNK12RSessionBase11SendReceiveEiRK8TIpcArgs 0x00017b7c   Section       20  databasemanager_symbian.o(i._ZNK12RSessionBase11SendReceiveEiRK8TIpcArgs)
    i._ZNK13QLatin1StringeqEPKc              0x00017b90   Section       40  qservicemanager.o(i._ZNK13QLatin1StringeqEPKc)
    i._ZNK13QLatin1StringeqEPKc.clean        0x00017bb8   Section       10  qservicemanager.o(i._ZNK13QLatin1StringeqEPKc.clean)
    i._ZNK15QBasicAtomicInteqEi              0x00017bc2   Section       16  qmetaobjectbuilder.o(i._ZNK15QBasicAtomicInteqEi)
    i._ZNK15QBasicAtomicIntneEi              0x00017bd2   Section       16  servicemetadata.o(i._ZNK15QBasicAtomicIntneEi)
    i._ZNK16QXmlStreamReader12isEndElementEv 0x00017be2   Section       22  servicemetadata.o(i._ZNK16QXmlStreamReader12isEndElementEv)
    i._ZNK16QXmlStreamReader14isStartElementEv 0x00017bf8   Section       22  servicemetadata.o(i._ZNK16QXmlStreamReader14isStartElementEv)
    i._ZNK20QXmlStreamAttributes12hasAttributeERK7QString 0x00017c0e   Section       52  servicemetadata.o(i._ZNK20QXmlStreamAttributes12hasAttributeERK7QString)
    i._ZNK20QXmlStreamAttributes12hasAttributeERK7QString.clean 0x00017c42   Section       10  servicemetadata.o(i._ZNK20QXmlStreamAttributes12hasAttributeERK7QString.clean)
    i._ZNK25QMetaMethodBuilderPrivate10methodTypeEv 0x00017c4c   Section       12  qmetaobjectbuilder.o(i._ZNK25QMetaMethodBuilderPrivate10methodTypeEv)
    i._ZNK27QMetaPropertyBuilderPrivate4flagEi 0x00017c58   Section       16  qmetaobjectbuilder.o(i._ZNK27QMetaPropertyBuilderPrivate4flagEi)
    i._ZNK7QObject7connectEPKS_PKcS3_N2Qt14ConnectionTypeE 0x00017c68   Section       30  qservicemanager.o(i._ZNK7QObject7connectEPKS_PKcS3_N2Qt14ConnectionTypeE)
    i._ZNK7QString3argEiiiRK5QChar           0x00017c86   Section       36  qserviceinterfacedescriptor.o(i._ZNK7QString3argEiiiRK5QChar)
    i._ZNK7QString6isNullEv                  0x00017cac   Section       24  servicemetadata.o(i._ZNK7QString6isNullEv)
    i._ZNK7QString7isEmptyEv                 0x00017cc4   Section       18  servicemetadata.o(i._ZNK7QString7isEmptyEv)
    i._ZNK9QListData2atEi                    0x00017cd6   Section       20  servicemetadata.o(i._ZNK9QListData2atEi)
    i._ZNK9QListData3endEv                   0x00017cea   Section       16  servicemetadata.o(i._ZNK9QListData3endEv)
    i._ZNK9QListData4sizeEv                  0x00017cfa   Section       14  qmetaobjectbuilder.o(i._ZNK9QListData4sizeEv)
    i._ZNK9QListData5beginEv                 0x00017d08   Section       16  servicemetadata.o(i._ZNK9QListData5beginEv)
    i._ZNK9QListData7isEmptyEv               0x00017d18   Section       22  instancemanager.o(i._ZNK9QListData7isEmptyEv)
    i._ZdlPvS_                               0x00017d2e   Section        2  servicemetadata.o(i._ZdlPvS_)
    i._ZeqRK10QByteArrayPKc                  0x00017d30   Section       50  objectendpoint.o(i._ZeqRK10QByteArrayPKc)
    i._ZeqRK10QByteArrayS1_                  0x00017d62   Section       68  qmetaobjectbuilder.o(i._ZeqRK10QByteArrayS1_)
    i._ZeqRK10QStringRefPKc                  0x00017da6   Section       16  servicemetadata.o(i._ZeqRK10QStringRefPKc)
    i._ZneRK10QStringRefPKc                  0x00017db6   Section       20  servicemetadata.o(i._ZneRK10QStringRefPKc)
    i._ZnwjPv                                0x00017dca   Section        6  servicemetadata.o(i._ZnwjPv)
    i._ZplRK7QString5QChar                   0x00017dd0   Section      128  qservicemanager.o(i._ZplRK7QString5QChar)
    i._ZplRK7QString5QChar.clean             0x00017e50   Section       10  qservicemanager.o(i._ZplRK7QString5QChar.clean)
    i._ZplRK7QStringS1_                      0x00017e5a   Section       44  servicemetadata.o(i._ZplRK7QStringS1_)
    i._ZplRK7QStringS1_.clean                0x00017e86   Section       10  servicemetadata.o(i._ZplRK7QStringS1_.clean)
    t._Z12qobject_castIPN10QtMobility23QServicePluginInterfaceEET_P7QObject 0x00017e90   Section       28  qservicemanager.o(t._Z12qobject_castIPN10QtMobility23QServicePluginInterfaceEET_P7QObject)
    t._Z15qMapLessThanKeyI10QByteArrayEbRKT_S3_ 0x00017eac   Section       20  qmetaobjectbuilder.o(t._Z15qMapLessThanKeyI10QByteArrayEbRKT_S3_)
    t._Z17qRegisterMetaTypeIN10QtMobility8QService21UnrecoverableIPCErrorEEiPKcPT_ 0x00017ec0   Section       64  qservicemanager.o(t._Z17qRegisterMetaTypeIN10QtMobility8QService21UnrecoverableIPCErrorEEiPKcPT_)
    t._Z21qMetaTypeDeleteHelperIN10QtMobility8QService21UnrecoverableIPCErrorEEvPT_ 0x00017f00   Section       12  qservicemanager.o(t._Z21qMetaTypeDeleteHelperIN10QtMobility8QService21UnrecoverableIPCErrorEEvPT_)
    t._Z24qMetaTypeConstructHelperIN10QtMobility8QService21UnrecoverableIPCErrorEEPvPKT_ 0x00017f0c   Section       50  qservicemanager.o(t._Z24qMetaTypeConstructHelperIN10QtMobility8QService21UnrecoverableIPCErrorEEPvPKT_)
    t._ZN12TAlignedBuf8ILi4EEC1Ei            0x00017f3e   Section       20  databasemanager_symbian.o(t._ZN12TAlignedBuf8ILi4EEC1Ei)
    t._ZN14QHashDummyNodeI7QString15QHashDummyValueEC1ERKS0_ 0x00017f52   Section       24  servicemetadata.o(t._ZN14QHashDummyNodeI7QString15QHashDummyValueEC1ERKS0_)
    t._ZN15QVarLengthArrayIPvLi32EED1Ev      0x00017f6a   Section       26  objectendpoint.o(t._ZN15QVarLengthArrayIPvLi32EED1Ev)
    t._ZN20QGlobalStaticDeleterI5QHashI5QUuidPN10QtMobility8ResponseEEED1Ev 0x00017f84   Section       42  objectendpoint.o(t._ZN20QGlobalStaticDeleterI5QHashI5QUuidPN10QtMobility8ResponseEEED1Ev)
    t._ZN20QGlobalStaticDeleterIN10QtMobility15InstanceManagerEED1Ev 0x00017fae   Section       38  instancemanager.o(t._ZN20QGlobalStaticDeleterIN10QtMobility15InstanceManagerEED1Ev)
    t._ZN28QExplicitlySharedDataPointerIN10QtMobility22QServicePackagePrivateEE13detach_helperEv 0x00017fd4   Section      188  qservicepackage.o(t._ZN28QExplicitlySharedDataPointerIN10QtMobility22QServicePackagePrivateEE13detach_helperEv)
    t._ZN28QExplicitlySharedDataPointerIN10QtMobility22QServicePackagePrivateEE13detach_helperEv.clean 0x00018090   Section       28  qservicepackage.o(t._ZN28QExplicitlySharedDataPointerIN10QtMobility22QServicePackagePrivateEE13detach_helperEv.clean)
    t._ZN28QExplicitlySharedDataPointerIN10QtMobility22QServicePackagePrivateEED1Ev 0x000180ac   Section       44  qservicepackage.o(t._ZN28QExplicitlySharedDataPointerIN10QtMobility22QServicePackagePrivateEED1Ev)
    t._ZN28QExplicitlySharedDataPointerIN10QtMobility22QServicePackagePrivateEEaSEPS1_ 0x000180d8   Section       62  qservicepackage.o(t._ZN28QExplicitlySharedDataPointerIN10QtMobility22QServicePackagePrivateEEaSEPS1_)
    t._ZN28QExplicitlySharedDataPointerIN10QtMobility34QRemoteServiceRegisterEntryPrivateEED1Ev 0x00018116   Section       42  qremoteserviceregister.o(t._ZN28QExplicitlySharedDataPointerIN10QtMobility34QRemoteServiceRegisterEntryPrivateEED1Ev)
    t._ZN28QExplicitlySharedDataPointerIN10QtMobility34QRemoteServiceRegisterEntryPrivateEEaSERKS2_ 0x00018140   Section       68  instancemanager.o(t._ZN28QExplicitlySharedDataPointerIN10QtMobility34QRemoteServiceRegisterEntryPrivateEEaSERKS2_)
    t._ZN4QMapI10QByteArrayPK11QMetaObjectE8freeDataEP8QMapData 0x00018184   Section       56  proxyobject.o(t._ZN4QMapI10QByteArrayPK11QMetaObjectE8freeDataEP8QMapData)
    t._ZN4QMapI10QByteArrayPK11QMetaObjectED1Ev 0x000181bc   Section       38  proxyobject.o(t._ZN4QMapI10QByteArrayPK11QMetaObjectED1Ev)
    t._ZN4QSetI7QStringEC1Ev                 0x000181e2   Section       14  servicemetadata.o(t._ZN4QSetI7QStringEC1Ev)
    t._ZN5QHashI5QUuidP7QObjectE11deleteNode2EPN9QHashData4NodeE 0x000181f0   Section        6  instancemanager.o(t._ZN5QHashI5QUuidP7QObjectE11deleteNode2EPN9QHashData4NodeE)
    t._ZN5QHashI5QUuidP7QObjectE13detach_helperEv 0x000181f8   Section       60  instancemanager.o(t._ZN5QHashI5QUuidP7QObjectE13detach_helperEv)
    t._ZN5QHashI5QUuidP7QObjectE13duplicateNodeEPN9QHashData4NodeEPv 0x00018234   Section       48  instancemanager.o(t._ZN5QHashI5QUuidP7QObjectE13duplicateNodeEPN9QHashData4NodeEPv)
    t._ZN5QHashI5QUuidP7QObjectE13duplicateNodeEPN9QHashData4NodeEPv.clean 0x00018264   Section       14  instancemanager.o(t._ZN5QHashI5QUuidP7QObjectE13duplicateNodeEPN9QHashData4NodeEPv.clean)
    t._ZN5QHashI5QUuidP7QObjectE4takeERKS0_  0x00018272   Section      120  instancemanager.o(t._ZN5QHashI5QUuidP7QObjectE4takeERKS0_)
    t._ZN5QHashI5QUuidP7QObjectE6detachEv    0x000182ea   Section       28  instancemanager.o(t._ZN5QHashI5QUuidP7QObjectE6detachEv)
    t._ZN5QHashI5QUuidP7QObjectE6insertERKS0_RKS2_ 0x00018306   Section      176  instancemanager.o(t._ZN5QHashI5QUuidP7QObjectE6insertERKS0_RKS2_)
    t._ZN5QHashI5QUuidP7QObjectE6insertERKS0_RKS2_.clean 0x000183b6   Section       14  instancemanager.o(t._ZN5QHashI5QUuidP7QObjectE6insertERKS0_RKS2_.clean)
    t._ZN5QHashI5QUuidP7QObjectE8freeDataEP9QHashData 0x000183c4   Section       20  instancemanager.o(t._ZN5QHashI5QUuidP7QObjectE8freeDataEP9QHashData)
    t._ZN5QHashI5QUuidP7QObjectED1Ev         0x000183d8   Section       30  instancemanager.o(t._ZN5QHashI5QUuidP7QObjectED1Ev)
    t._ZN5QHashI5QUuidPN10QtMobility8ResponseEE11deleteNode2EPN9QHashData4NodeE 0x000183f6   Section        6  objectendpoint.o(t._ZN5QHashI5QUuidPN10QtMobility8ResponseEE11deleteNode2EPN9QHashData4NodeE)
    t._ZN5QHashI5QUuidPN10QtMobility8ResponseEE13detach_helperEv 0x000183fc   Section       60  objectendpoint.o(t._ZN5QHashI5QUuidPN10QtMobility8ResponseEE13detach_helperEv)
    t._ZN5QHashI5QUuidPN10QtMobility8ResponseEE13duplicateNodeEPN9QHashData4NodeEPv 0x00018438   Section       48  objectendpoint.o(t._ZN5QHashI5QUuidPN10QtMobility8ResponseEE13duplicateNodeEPN9QHashData4NodeEPv)
    t._ZN5QHashI5QUuidPN10QtMobility8ResponseEE13duplicateNodeEPN9QHashData4NodeEPv.clean 0x00018468   Section       14  objectendpoint.o(t._ZN5QHashI5QUuidPN10QtMobility8ResponseEE13duplicateNodeEPN9QHashData4NodeEPv.clean)
    t._ZN5QHashI5QUuidPN10QtMobility8ResponseEE4takeERKS0_ 0x00018476   Section      204  objectendpoint.o(t._ZN5QHashI5QUuidPN10QtMobility8ResponseEE4takeERKS0_)
    t._ZN5QHashI5QUuidPN10QtMobility8ResponseEE6detachEv 0x00018542   Section       28  objectendpoint.o(t._ZN5QHashI5QUuidPN10QtMobility8ResponseEE6detachEv)
    t._ZN5QHashI5QUuidPN10QtMobility8ResponseEE6insertERKS0_RKS3_ 0x0001855e   Section      204  objectendpoint.o(t._ZN5QHashI5QUuidPN10QtMobility8ResponseEE6insertERKS0_RKS3_)
    t._ZN5QHashI5QUuidPN10QtMobility8ResponseEE6insertERKS0_RKS3_.clean 0x0001862a   Section       14  objectendpoint.o(t._ZN5QHashI5QUuidPN10QtMobility8ResponseEE6insertERKS0_RKS3_.clean)
    t._ZN5QHashI5QUuidPN10QtMobility8ResponseEE8freeDataEP9QHashData 0x00018638   Section       20  objectendpoint.o(t._ZN5QHashI5QUuidPN10QtMobility8ResponseEE8freeDataEP9QHashData)
    t._ZN5QHashI5QUuidPN10QtMobility8ResponseEED1Ev 0x0001864c   Section       30  objectendpoint.o(t._ZN5QHashI5QUuidPN10QtMobility8ResponseEED1Ev)
    t._ZN5QHashI7QString15QHashDummyValueE11deleteNode2EPN9QHashData4NodeE 0x0001866a   Section       24  servicemetadata.o(t._ZN5QHashI7QString15QHashDummyValueE11deleteNode2EPN9QHashData4NodeE)
    t._ZN5QHashI7QString15QHashDummyValueE13detach_helperEv 0x00018684   Section       60  servicemetadata.o(t._ZN5QHashI7QString15QHashDummyValueE13detach_helperEv)
    t._ZN5QHashI7QString15QHashDummyValueE13duplicateNodeEPN9QHashData4NodeEPv 0x000186c0   Section       44  servicemetadata.o(t._ZN5QHashI7QString15QHashDummyValueE13duplicateNodeEPN9QHashData4NodeEPv)
    t._ZN5QHashI7QString15QHashDummyValueE13duplicateNodeEPN9QHashData4NodeEPv.clean 0x000186ec   Section       12  servicemetadata.o(t._ZN5QHashI7QString15QHashDummyValueE13duplicateNodeEPN9QHashData4NodeEPv.clean)
    t._ZN5QHashI7QString15QHashDummyValueE6insertERKS0_RKS1_ 0x000186f8   Section      186  servicemetadata.o(t._ZN5QHashI7QString15QHashDummyValueE6insertERKS0_RKS1_)
    t._ZN5QHashI7QString15QHashDummyValueE6insertERKS0_RKS1_.clean 0x000187b2   Section       12  servicemetadata.o(t._ZN5QHashI7QString15QHashDummyValueE6insertERKS0_RKS1_.clean)
    t._ZN5QHashI7QString15QHashDummyValueE8freeDataEP9QHashData 0x000187c0   Section       20  servicemetadata.o(t._ZN5QHashI7QString15QHashDummyValueE8freeDataEP9QHashData)
    t._ZN5QHashI7QString15QHashDummyValueEC1Ev 0x000187d4   Section       28  servicemetadata.o(t._ZN5QHashI7QString15QHashDummyValueEC1Ev)
    t._ZN5QHashI7QString15QHashDummyValueED1Ev 0x000187f0   Section       30  servicemetadata.o(t._ZN5QHashI7QString15QHashDummyValueED1Ev)
    t._ZN5QHashI7QString8QVariantE11deleteNode2EPN9QHashData4NodeE 0x0001880e   Section       36  qservicecontext.o(t._ZN5QHashI7QString8QVariantE11deleteNode2EPN9QHashData4NodeE)
    t._ZN5QHashI7QString8QVariantE11deleteNode2EPN9QHashData4NodeE.clean 0x00018832   Section       12  qservicecontext.o(t._ZN5QHashI7QString8QVariantE11deleteNode2EPN9QHashData4NodeE.clean)
    t._ZN5QHashI7QString8QVariantE13detach_helperEv 0x00018840   Section       60  qservicecontext.o(t._ZN5QHashI7QString8QVariantE13detach_helperEv)
    t._ZN5QHashI7QString8QVariantE13duplicateNodeEPN9QHashData4NodeEPv 0x0001887c   Section       48  qservicecontext.o(t._ZN5QHashI7QString8QVariantE13duplicateNodeEPN9QHashData4NodeEPv)
    t._ZN5QHashI7QString8QVariantE13duplicateNodeEPN9QHashData4NodeEPv.clean 0x000188ac   Section       14  qservicecontext.o(t._ZN5QHashI7QString8QVariantE13duplicateNodeEPN9QHashData4NodeEPv.clean)
    t._ZN5QHashI7QString8QVariantE8freeDataEP9QHashData 0x000188bc   Section       20  qservicecontext.o(t._ZN5QHashI7QString8QVariantE8freeDataEP9QHashData)
    t._ZN5QHashI7QString8QVariantEC1Ev       0x000188d0   Section       28  qservicecontext.o(t._ZN5QHashI7QString8QVariantEC1Ev)
    t._ZN5QHashI7QString8QVariantED1Ev       0x000188ec   Section       30  qservicecontext.o(t._ZN5QHashI7QString8QVariantED1Ev)
    t._ZN5QHashI7QString8QVariantEixERKS0_   0x0001890a   Section      242  qservicecontext.o(t._ZN5QHashI7QString8QVariantEixERKS0_)
    t._ZN5QHashI7QString8QVariantEixERKS0_.clean 0x000189fc   Section       24  qservicecontext.o(t._ZN5QHashI7QString8QVariantEixERKS0_.clean)
    t._ZN5QHashI7QStringS0_E10createNodeEjRKS0_S3_PP9QHashNodeIS0_S0_E 0x00018a14   Section      100  qserviceinterfacedescriptor.o(t._ZN5QHashI7QStringS0_E10createNodeEjRKS0_S3_PP9QHashNodeIS0_S0_E)
    t._ZN5QHashI7QStringS0_E10createNodeEjRKS0_S3_PP9QHashNodeIS0_S0_E.clean 0x00018a78   Section       14  qserviceinterfacedescriptor.o(t._ZN5QHashI7QStringS0_E10createNodeEjRKS0_S3_PP9QHashNodeIS0_S0_E.clean)
    t._ZN5QHashI7QStringS0_E11deleteNode2EPN9QHashData4NodeE 0x00018a86   Section       36  servicemetadata.o(t._ZN5QHashI7QStringS0_E11deleteNode2EPN9QHashData4NodeE)
    t._ZN5QHashI7QStringS0_E11deleteNode2EPN9QHashData4NodeE.clean 0x00018aaa   Section       12  servicemetadata.o(t._ZN5QHashI7QStringS0_E11deleteNode2EPN9QHashData4NodeE.clean)
    t._ZN5QHashI7QStringS0_E13detach_helperEv 0x00018ab8   Section       60  servicemetadata.o(t._ZN5QHashI7QStringS0_E13detach_helperEv)
    t._ZN5QHashI7QStringS0_E13duplicateNodeEPN9QHashData4NodeEPv 0x00018af4   Section       46  servicemetadata.o(t._ZN5QHashI7QStringS0_E13duplicateNodeEPN9QHashData4NodeEPv)
    t._ZN5QHashI7QStringS0_E13duplicateNodeEPN9QHashData4NodeEPv.clean 0x00018b22   Section       14  servicemetadata.o(t._ZN5QHashI7QStringS0_E13duplicateNodeEPN9QHashData4NodeEPv.clean)
    t._ZN5QHashI7QStringS0_E5clearEv         0x00018b30   Section       28  qserviceinterfacedescriptor.o(t._ZN5QHashI7QStringS0_E5clearEv)
    t._ZN5QHashI7QStringS0_E5clearEv.clean   0x00018b4c   Section       10  qserviceinterfacedescriptor.o(t._ZN5QHashI7QStringS0_E5clearEv.clean)
    t._ZN5QHashI7QStringS0_E6detachEv        0x00018b56   Section       28  qserviceinterfacedescriptor.o(t._ZN5QHashI7QStringS0_E6detachEv)
    t._ZN5QHashI7QStringS0_E6removeERKS0_    0x00018b72   Section      248  qservicefilter.o(t._ZN5QHashI7QStringS0_E6removeERKS0_)
    t._ZN5QHashI7QStringS0_E8freeDataEP9QHashData 0x00018c6c   Section       20  servicemetadata.o(t._ZN5QHashI7QStringS0_E8freeDataEP9QHashData)
    t._ZN5QHashI7QStringS0_EC1Ev             0x00018c80   Section       28  qserviceinterfacedescriptor.o(t._ZN5QHashI7QStringS0_EC1Ev)
    t._ZN5QHashI7QStringS0_ED1Ev             0x00018c9c   Section       30  qserviceinterfacedescriptor.o(t._ZN5QHashI7QStringS0_ED1Ev)
    t._ZN5QHashI7QStringS0_EaSERKS1_         0x00018cba   Section       70  qserviceinterfacedescriptor.o(t._ZN5QHashI7QStringS0_EaSERKS1_)
    t._ZN5QHashI7QStringS0_EixERKS0_         0x00018d00   Section      208  servicemetadata.o(t._ZN5QHashI7QStringS0_EixERKS0_)
    t._ZN5QHashI7QStringS0_EixERKS0_.clean   0x00018dd0   Section       24  servicemetadata.o(t._ZN5QHashI7QStringS0_EixERKS0_.clean)
    t._ZN5QHashI7QStringiE11deleteNode2EPN9QHashData4NodeE 0x00018de8   Section       24  servicemetadata.o(t._ZN5QHashI7QStringiE11deleteNode2EPN9QHashData4NodeE)
    t._ZN5QHashI7QStringiE13detach_helperEv  0x00018e00   Section       60  servicemetadata.o(t._ZN5QHashI7QStringiE13detach_helperEv)
    t._ZN5QHashI7QStringiE13duplicateNodeEPN9QHashData4NodeEPv 0x00018e3c   Section       46  servicemetadata.o(t._ZN5QHashI7QStringiE13duplicateNodeEPN9QHashData4NodeEPv)
    t._ZN5QHashI7QStringiE13duplicateNodeEPN9QHashData4NodeEPv.clean 0x00018e6a   Section       14  servicemetadata.o(t._ZN5QHashI7QStringiE13duplicateNodeEPN9QHashData4NodeEPv.clean)
    t._ZN5QHashI7QStringiE8freeDataEP9QHashData 0x00018e78   Section       20  servicemetadata.o(t._ZN5QHashI7QStringiE8freeDataEP9QHashData)
    t._ZN5QHashI7QStringiEC1Ev               0x00018e8c   Section       28  servicemetadata.o(t._ZN5QHashI7QStringiEC1Ev)
    t._ZN5QHashI7QStringiED1Ev               0x00018ea8   Section       30  servicemetadata.o(t._ZN5QHashI7QStringiED1Ev)
    t._ZN5QHashI7QStringiEixERKS0_           0x00018ec6   Section      182  servicemetadata.o(t._ZN5QHashI7QStringiEixERKS0_)
    t._ZN5QHashI7QStringiEixERKS0_.clean     0x00018f7c   Section       14  servicemetadata.o(t._ZN5QHashI7QStringiEixERKS0_.clean)
    t._ZN5QHashIN10QtMobility22QRemoteServiceRegister5EntryENS0_22ServiceIdentDescriptorEE10createNodeEjRKS2_RKS3_PP9QHashNodeIS2_S3_E 0x00018f8a   Section      100  instancemanager.o(t._ZN5QHashIN10QtMobility22QRemoteServiceRegister5EntryENS0_22ServiceIdentDescriptorEE10createNodeEjRKS2_RKS3_PP9QHashNodeIS2_S3_E)
    t._ZN5QHashIN10QtMobility22QRemoteServiceRegister5EntryENS0_22ServiceIdentDescriptorEE10createNodeEjRKS2_RKS3_PP9QHashNodeIS2_S3_E.clean 0x00018fee   Section       14  instancemanager.o(t._ZN5QHashIN10QtMobility22QRemoteServiceRegister5EntryENS0_22ServiceIdentDescriptorEE10createNodeEjRKS2_RKS3_PP9QHashNodeIS2_S3_E.clean)
    t._ZN5QHashIN10QtMobility22QRemoteServiceRegister5EntryENS0_22ServiceIdentDescriptorEE11deleteNode2EPN9QHashData4NodeE 0x00018ffc   Section       36  instancemanager.o(t._ZN5QHashIN10QtMobility22QRemoteServiceRegister5EntryENS0_22ServiceIdentDescriptorEE11deleteNode2EPN9QHashData4NodeE)
    t._ZN5QHashIN10QtMobility22QRemoteServiceRegister5EntryENS0_22ServiceIdentDescriptorEE11deleteNode2EPN9QHashData4NodeE.clean 0x00019020   Section       12  instancemanager.o(t._ZN5QHashIN10QtMobility22QRemoteServiceRegister5EntryENS0_22ServiceIdentDescriptorEE11deleteNode2EPN9QHashData4NodeE.clean)
    t._ZN5QHashIN10QtMobility22QRemoteServiceRegister5EntryENS0_22ServiceIdentDescriptorEE13detach_helperEv 0x0001902c   Section       60  instancemanager.o(t._ZN5QHashIN10QtMobility22QRemoteServiceRegister5EntryENS0_22ServiceIdentDescriptorEE13detach_helperEv)
    t._ZN5QHashIN10QtMobility22QRemoteServiceRegister5EntryENS0_22ServiceIdentDescriptorEE13duplicateNodeEPN9QHashData4NodeEPv 0x00019068   Section       46  instancemanager.o(t._ZN5QHashIN10QtMobility22QRemoteServiceRegister5EntryENS0_22ServiceIdentDescriptorEE13duplicateNodeEPN9QHashData4NodeEPv)
    t._ZN5QHashIN10QtMobility22QRemoteServiceRegister5EntryENS0_22ServiceIdentDescriptorEE13duplicateNodeEPN9QHashData4NodeEPv.clean 0x00019096   Section       14  instancemanager.o(t._ZN5QHashIN10QtMobility22QRemoteServiceRegister5EntryENS0_22ServiceIdentDescriptorEE13duplicateNodeEPN9QHashData4NodeEPv.clean)
    t._ZN5QHashIN10QtMobility22QRemoteServiceRegister5EntryENS0_22ServiceIdentDescriptorEE4takeERKS2_ 0x000190a4   Section      146  instancemanager.o(t._ZN5QHashIN10QtMobility22QRemoteServiceRegister5EntryENS0_22ServiceIdentDescriptorEE4takeERKS2_)
    t._ZN5QHashIN10QtMobility22QRemoteServiceRegister5EntryENS0_22ServiceIdentDescriptorEE4takeERKS2_.clean 0x00019136   Section       10  instancemanager.o(t._ZN5QHashIN10QtMobility22QRemoteServiceRegister5EntryENS0_22ServiceIdentDescriptorEE4takeERKS2_.clean)
    t._ZN5QHashIN10QtMobility22QRemoteServiceRegister5EntryENS0_22ServiceIdentDescriptorEE6detachEv 0x00019140   Section       28  instancemanager.o(t._ZN5QHashIN10QtMobility22QRemoteServiceRegister5EntryENS0_22ServiceIdentDescriptorEE6detachEv)
    t._ZN5QHashIN10QtMobility22QRemoteServiceRegister5EntryENS0_22ServiceIdentDescriptorEE6insertERKS2_RKS3_ 0x0001915c   Section      206  instancemanager.o(t._ZN5QHashIN10QtMobility22QRemoteServiceRegister5EntryENS0_22ServiceIdentDescriptorEE6insertERKS2_RKS3_)
    t._ZN5QHashIN10QtMobility22QRemoteServiceRegister5EntryENS0_22ServiceIdentDescriptorEE8freeDataEP9QHashData 0x0001922c   Section       20  instancemanager.o(t._ZN5QHashIN10QtMobility22QRemoteServiceRegister5EntryENS0_22ServiceIdentDescriptorEE8freeDataEP9QHashData)
    t._ZN5QHashIN10QtMobility22QRemoteServiceRegister5EntryENS0_22ServiceIdentDescriptorEED1Ev 0x00019240   Section       30  instancemanager.o(t._ZN5QHashIN10QtMobility22QRemoteServiceRegister5EntryENS0_22ServiceIdentDescriptorEED1Ev)
    t._ZN5QHashIN10QtMobility22QRemoteServiceRegister5EntryENS0_22ServiceIdentDescriptorEEixERKS2_ 0x0001925e   Section      106  instancemanager.o(t._ZN5QHashIN10QtMobility22QRemoteServiceRegister5EntryENS0_22ServiceIdentDescriptorEEixERKS2_)
    t._ZN5QHashIN10QtMobility22QRemoteServiceRegister5EntryENS0_22ServiceIdentDescriptorEEixERKS2_.clean 0x000192c8   Section       10  instancemanager.o(t._ZN5QHashIN10QtMobility22QRemoteServiceRegister5EntryENS0_22ServiceIdentDescriptorEEixERKS2_.clean)
    t._ZN5QHashIN10QtMobility27QServiceInterfaceDescriptor9AttributeE8QVariantE11deleteNode2EPN9QHashData4NodeE 0x000192d2   Section       24  servicemetadata.o(t._ZN5QHashIN10QtMobility27QServiceInterfaceDescriptor9AttributeE8QVariantE11deleteNode2EPN9QHashData4NodeE)
    t._ZN5QHashIN10QtMobility27QServiceInterfaceDescriptor9AttributeE8QVariantE13detach_helperEv 0x000192ec   Section       60  servicemetadata.o(t._ZN5QHashIN10QtMobility27QServiceInterfaceDescriptor9AttributeE8QVariantE13detach_helperEv)
    t._ZN5QHashIN10QtMobility27QServiceInterfaceDescriptor9AttributeE8QVariantE13duplicateNodeEPN9QHashData4NodeEPv 0x00019328   Section       48  servicemetadata.o(t._ZN5QHashIN10QtMobility27QServiceInterfaceDescriptor9AttributeE8QVariantE13duplicateNodeEPN9QHashData4NodeEPv)
    t._ZN5QHashIN10QtMobility27QServiceInterfaceDescriptor9AttributeE8QVariantE13duplicateNodeEPN9QHashData4NodeEPv.clean 0x00019358   Section       14  servicemetadata.o(t._ZN5QHashIN10QtMobility27QServiceInterfaceDescriptor9AttributeE8QVariantE13duplicateNodeEPN9QHashData4NodeEPv.clean)
    t._ZN5QHashIN10QtMobility27QServiceInterfaceDescriptor9AttributeE8QVariantE5clearEv 0x00019366   Section       28  qserviceinterfacedescriptor.o(t._ZN5QHashIN10QtMobility27QServiceInterfaceDescriptor9AttributeE8QVariantE5clearEv)
    t._ZN5QHashIN10QtMobility27QServiceInterfaceDescriptor9AttributeE8QVariantE5clearEv.clean 0x00019382   Section       10  qserviceinterfacedescriptor.o(t._ZN5QHashIN10QtMobility27QServiceInterfaceDescriptor9AttributeE8QVariantE5clearEv.clean)
    t._ZN5QHashIN10QtMobility27QServiceInterfaceDescriptor9AttributeE8QVariantE8freeDataEP9QHashData 0x0001938c   Section       20  servicemetadata.o(t._ZN5QHashIN10QtMobility27QServiceInterfaceDescriptor9AttributeE8QVariantE8freeDataEP9QHashData)
    t._ZN5QHashIN10QtMobility27QServiceInterfaceDescriptor9AttributeE8QVariantEC1Ev 0x000193a0   Section       28  qserviceinterfacedescriptor.o(t._ZN5QHashIN10QtMobility27QServiceInterfaceDescriptor9AttributeE8QVariantEC1Ev)
    t._ZN5QHashIN10QtMobility27QServiceInterfaceDescriptor9AttributeE8QVariantED1Ev 0x000193bc   Section       30  servicemetadata.o(t._ZN5QHashIN10QtMobility27QServiceInterfaceDescriptor9AttributeE8QVariantED1Ev)
    t._ZN5QHashIN10QtMobility27QServiceInterfaceDescriptor9AttributeE8QVariantEaSERKS4_ 0x000193da   Section       70  qserviceinterfacedescriptor.o(t._ZN5QHashIN10QtMobility27QServiceInterfaceDescriptor9AttributeE8QVariantEaSERKS4_)
    t._ZN5QHashIN10QtMobility27QServiceInterfaceDescriptor9AttributeE8QVariantEixERKS2_ 0x00019420   Section      242  servicemetadata.o(t._ZN5QHashIN10QtMobility27QServiceInterfaceDescriptor9AttributeE8QVariantEixERKS2_)
    t._ZN5QHashIN10QtMobility27QServiceInterfaceDescriptor9AttributeE8QVariantEixERKS2_.clean 0x00019512   Section       24  servicemetadata.o(t._ZN5QHashIN10QtMobility27QServiceInterfaceDescriptor9AttributeE8QVariantEixERKS2_.clean)
    t._ZN5QListI10QByteArrayE13detach_helperEi 0x0001952a   Section       94  qmetaobjectbuilder.o(t._ZN5QListI10QByteArrayE13detach_helperEi)
    t._ZN5QListI10QByteArrayE13detach_helperEi.clean 0x00019588   Section        8  qmetaobjectbuilder.o(t._ZN5QListI10QByteArrayE13detach_helperEi.clean)
    t._ZN5QListI10QByteArrayE13detach_helperEv 0x00019590   Section       16  qmetaobjectbuilder.o(t._ZN5QListI10QByteArrayE13detach_helperEv)
    t._ZN5QListI10QByteArrayE13node_destructEPNS1_4NodeES3_ 0x000195a0   Section       26  qmetaobjectbuilder.o(t._ZN5QListI10QByteArrayE13node_destructEPNS1_4NodeES3_)
    t._ZN5QListI10QByteArrayE14node_constructEPNS1_4NodeERKS0_ 0x000195ba   Section       36  qmetaobjectbuilder.o(t._ZN5QListI10QByteArrayE14node_constructEPNS1_4NodeERKS0_)
    t._ZN5QListI10QByteArrayE14node_constructEPNS1_4NodeERKS0_.clean 0x000195de   Section       14  qmetaobjectbuilder.o(t._ZN5QListI10QByteArrayE14node_constructEPNS1_4NodeERKS0_.clean)
    t._ZN5QListI10QByteArrayE18detach_helper_growEii 0x000195ec   Section      208  qmetaobjectbuilder.o(t._ZN5QListI10QByteArrayE18detach_helper_growEii)
    t._ZN5QListI10QByteArrayE18detach_helper_growEii.clean 0x000196bc   Section       16  qmetaobjectbuilder.o(t._ZN5QListI10QByteArrayE18detach_helper_growEii.clean)
    t._ZN5QListI10QByteArrayE4freeEPN9QListData4DataE 0x000196cc   Section       52  qmetaobjectbuilder.o(t._ZN5QListI10QByteArrayE4freeEPN9QListData4DataE)
    t._ZN5QListI10QByteArrayE5clearEv        0x00019700   Section       28  qmetaobjectbuilder.o(t._ZN5QListI10QByteArrayE5clearEv)
    t._ZN5QListI10QByteArrayE5clearEv.clean  0x0001971c   Section       10  qmetaobjectbuilder.o(t._ZN5QListI10QByteArrayE5clearEv.clean)
    t._ZN5QListI10QByteArrayE6appendERKS0_   0x00019728   Section      120  qmetaobjectbuilder.o(t._ZN5QListI10QByteArrayE6appendERKS0_)
    t._ZN5QListI10QByteArrayE6appendERKS0_.clean 0x000197a0   Section       14  qmetaobjectbuilder.o(t._ZN5QListI10QByteArrayE6appendERKS0_.clean)
    t._ZN5QListI10QByteArrayE6detachEv       0x000197ae   Section       24  qmetaobjectbuilder.o(t._ZN5QListI10QByteArrayE6detachEv)
    t._ZN5QListI10QByteArrayE7reserveEi      0x000197c6   Section       46  qmetaobjectbuilder.o(t._ZN5QListI10QByteArrayE7reserveEi)
    t._ZN5QListI10QByteArrayE8removeAtEi     0x000197f4   Section       56  qmetaobjectbuilder.o(t._ZN5QListI10QByteArrayE8removeAtEi)
    t._ZN5QListI10QByteArrayE9node_copyEPNS1_4NodeES3_S3_ 0x0001982c   Section       82  qmetaobjectbuilder.o(t._ZN5QListI10QByteArrayE9node_copyEPNS1_4NodeES3_S3_)
    t._ZN5QListI10QByteArrayE9node_copyEPNS1_4NodeES3_S3_.clean 0x0001987e   Section       22  qmetaobjectbuilder.o(t._ZN5QListI10QByteArrayE9node_copyEPNS1_4NodeES3_S3_.clean)
    t._ZN5QListI10QByteArrayEC1ERKS1_        0x00019894   Section       36  qmetaobjectbuilder.o(t._ZN5QListI10QByteArrayEC1ERKS1_)
    t._ZN5QListI10QByteArrayEC1Ev            0x000198b8   Section       24  qmetaobjectbuilder.o(t._ZN5QListI10QByteArrayEC1Ev)
    t._ZN5QListI10QByteArrayED1Ev            0x000198d0   Section       32  objectendpoint.o(t._ZN5QListI10QByteArrayED1Ev)
    t._ZN5QListI10QByteArrayEaSERKS1_        0x000198f0   Section       64  qmetaobjectbuilder.o(t._ZN5QListI10QByteArrayEaSERKS1_)
    t._ZN5QListI10QByteArrayEixEi            0x00019930   Section       28  qmetaobjectbuilder.o(t._ZN5QListI10QByteArrayEixEi)
    t._ZN5QListI23QMetaEnumBuilderPrivateE13detach_helperEi 0x0001994c   Section       94  qmetaobjectbuilder.o(t._ZN5QListI23QMetaEnumBuilderPrivateE13detach_helperEi)
    t._ZN5QListI23QMetaEnumBuilderPrivateE13detach_helperEi.clean 0x000199aa   Section        8  qmetaobjectbuilder.o(t._ZN5QListI23QMetaEnumBuilderPrivateE13detach_helperEi.clean)
    t._ZN5QListI23QMetaEnumBuilderPrivateE13detach_helperEv 0x000199b2   Section       16  qmetaobjectbuilder.o(t._ZN5QListI23QMetaEnumBuilderPrivateE13detach_helperEv)
    t._ZN5QListI23QMetaEnumBuilderPrivateE13node_destructEPNS1_4NodeE 0x000199c2   Section       28  qmetaobjectbuilder.o(t._ZN5QListI23QMetaEnumBuilderPrivateE13node_destructEPNS1_4NodeE)
    t._ZN5QListI23QMetaEnumBuilderPrivateE13node_destructEPNS1_4NodeES3_ 0x000199de   Section       38  qmetaobjectbuilder.o(t._ZN5QListI23QMetaEnumBuilderPrivateE13node_destructEPNS1_4NodeES3_)
    t._ZN5QListI23QMetaEnumBuilderPrivateE14node_constructEPNS1_4NodeERKS0_ 0x00019a04   Section       34  qmetaobjectbuilder.o(t._ZN5QListI23QMetaEnumBuilderPrivateE14node_constructEPNS1_4NodeERKS0_)
    t._ZN5QListI23QMetaEnumBuilderPrivateE14node_constructEPNS1_4NodeERKS0_.clean 0x00019a26   Section       14  qmetaobjectbuilder.o(t._ZN5QListI23QMetaEnumBuilderPrivateE14node_constructEPNS1_4NodeERKS0_.clean)
    t._ZN5QListI23QMetaEnumBuilderPrivateE18detach_helper_growEii 0x00019a34   Section      208  qmetaobjectbuilder.o(t._ZN5QListI23QMetaEnumBuilderPrivateE18detach_helper_growEii)
    t._ZN5QListI23QMetaEnumBuilderPrivateE18detach_helper_growEii.clean 0x00019b04   Section       16  qmetaobjectbuilder.o(t._ZN5QListI23QMetaEnumBuilderPrivateE18detach_helper_growEii.clean)
    t._ZN5QListI23QMetaEnumBuilderPrivateE4freeEPN9QListData4DataE 0x00019b14   Section       52  qmetaobjectbuilder.o(t._ZN5QListI23QMetaEnumBuilderPrivateE4freeEPN9QListData4DataE)
    t._ZN5QListI23QMetaEnumBuilderPrivateE5clearEv 0x00019b48   Section       76  qmetaobjectbuilder.o(t._ZN5QListI23QMetaEnumBuilderPrivateE5clearEv)
    t._ZN5QListI23QMetaEnumBuilderPrivateE5clearEv.clean 0x00019b94   Section       10  qmetaobjectbuilder.o(t._ZN5QListI23QMetaEnumBuilderPrivateE5clearEv.clean)
    t._ZN5QListI23QMetaEnumBuilderPrivateE6appendERKS0_ 0x00019ba0   Section      112  qmetaobjectbuilder.o(t._ZN5QListI23QMetaEnumBuilderPrivateE6appendERKS0_)
    t._ZN5QListI23QMetaEnumBuilderPrivateE6appendERKS0_.clean 0x00019c10   Section       14  qmetaobjectbuilder.o(t._ZN5QListI23QMetaEnumBuilderPrivateE6appendERKS0_.clean)
    t._ZN5QListI23QMetaEnumBuilderPrivateE6detachEv 0x00019c1e   Section       24  qmetaobjectbuilder.o(t._ZN5QListI23QMetaEnumBuilderPrivateE6detachEv)
    t._ZN5QListI23QMetaEnumBuilderPrivateE9node_copyEPNS1_4NodeES3_S3_ 0x00019c36   Section       92  qmetaobjectbuilder.o(t._ZN5QListI23QMetaEnumBuilderPrivateE9node_copyEPNS1_4NodeES3_S3_)
    t._ZN5QListI23QMetaEnumBuilderPrivateE9node_copyEPNS1_4NodeES3_S3_.clean 0x00019c92   Section       22  qmetaobjectbuilder.o(t._ZN5QListI23QMetaEnumBuilderPrivateE9node_copyEPNS1_4NodeES3_S3_.clean)
    t._ZN5QListI23QMetaEnumBuilderPrivateEC1Ev 0x00019ca8   Section       24  qmetaobjectbuilder.o(t._ZN5QListI23QMetaEnumBuilderPrivateEC1Ev)
    t._ZN5QListI23QMetaEnumBuilderPrivateED1Ev 0x00019cc0   Section       32  qmetaobjectbuilder.o(t._ZN5QListI23QMetaEnumBuilderPrivateED1Ev)
    t._ZN5QListI23QMetaEnumBuilderPrivateEixEi 0x00019ce0   Section       28  qmetaobjectbuilder.o(t._ZN5QListI23QMetaEnumBuilderPrivateEixEi)
    t._ZN5QListI25QMetaMethodBuilderPrivateE13detach_helperEi 0x00019cfc   Section       94  qmetaobjectbuilder.o(t._ZN5QListI25QMetaMethodBuilderPrivateE13detach_helperEi)
    t._ZN5QListI25QMetaMethodBuilderPrivateE13detach_helperEi.clean 0x00019d5a   Section        8  qmetaobjectbuilder.o(t._ZN5QListI25QMetaMethodBuilderPrivateE13detach_helperEi.clean)
    t._ZN5QListI25QMetaMethodBuilderPrivateE13detach_helperEv 0x00019d62   Section       16  qmetaobjectbuilder.o(t._ZN5QListI25QMetaMethodBuilderPrivateE13detach_helperEv)
    t._ZN5QListI25QMetaMethodBuilderPrivateE13node_destructEPNS1_4NodeE 0x00019d72   Section       28  qmetaobjectbuilder.o(t._ZN5QListI25QMetaMethodBuilderPrivateE13node_destructEPNS1_4NodeE)
    t._ZN5QListI25QMetaMethodBuilderPrivateE13node_destructEPNS1_4NodeES3_ 0x00019d8e   Section       38  qmetaobjectbuilder.o(t._ZN5QListI25QMetaMethodBuilderPrivateE13node_destructEPNS1_4NodeES3_)
    t._ZN5QListI25QMetaMethodBuilderPrivateE14node_constructEPNS1_4NodeERKS0_ 0x00019db4   Section       34  qmetaobjectbuilder.o(t._ZN5QListI25QMetaMethodBuilderPrivateE14node_constructEPNS1_4NodeERKS0_)
    t._ZN5QListI25QMetaMethodBuilderPrivateE14node_constructEPNS1_4NodeERKS0_.clean 0x00019dd6   Section       14  qmetaobjectbuilder.o(t._ZN5QListI25QMetaMethodBuilderPrivateE14node_constructEPNS1_4NodeERKS0_.clean)
    t._ZN5QListI25QMetaMethodBuilderPrivateE18detach_helper_growEii 0x00019de4   Section      208  qmetaobjectbuilder.o(t._ZN5QListI25QMetaMethodBuilderPrivateE18detach_helper_growEii)
    t._ZN5QListI25QMetaMethodBuilderPrivateE18detach_helper_growEii.clean 0x00019eb4   Section       16  qmetaobjectbuilder.o(t._ZN5QListI25QMetaMethodBuilderPrivateE18detach_helper_growEii.clean)
    t._ZN5QListI25QMetaMethodBuilderPrivateE4freeEPN9QListData4DataE 0x00019ec4   Section       52  qmetaobjectbuilder.o(t._ZN5QListI25QMetaMethodBuilderPrivateE4freeEPN9QListData4DataE)
    t._ZN5QListI25QMetaMethodBuilderPrivateE5clearEv 0x00019ef8   Section       76  qmetaobjectbuilder.o(t._ZN5QListI25QMetaMethodBuilderPrivateE5clearEv)
    t._ZN5QListI25QMetaMethodBuilderPrivateE5clearEv.clean 0x00019f44   Section       10  qmetaobjectbuilder.o(t._ZN5QListI25QMetaMethodBuilderPrivateE5clearEv.clean)
    t._ZN5QListI25QMetaMethodBuilderPrivateE6appendERKS0_ 0x00019f50   Section      112  qmetaobjectbuilder.o(t._ZN5QListI25QMetaMethodBuilderPrivateE6appendERKS0_)
    t._ZN5QListI25QMetaMethodBuilderPrivateE6appendERKS0_.clean 0x00019fc0   Section       14  qmetaobjectbuilder.o(t._ZN5QListI25QMetaMethodBuilderPrivateE6appendERKS0_.clean)
    t._ZN5QListI25QMetaMethodBuilderPrivateE6detachEv 0x00019fce   Section       24  qmetaobjectbuilder.o(t._ZN5QListI25QMetaMethodBuilderPrivateE6detachEv)
    t._ZN5QListI25QMetaMethodBuilderPrivateE8removeAtEi 0x00019fe6   Section       54  qmetaobjectbuilder.o(t._ZN5QListI25QMetaMethodBuilderPrivateE8removeAtEi)
    t._ZN5QListI25QMetaMethodBuilderPrivateE9node_copyEPNS1_4NodeES3_S3_ 0x0001a01c   Section       92  qmetaobjectbuilder.o(t._ZN5QListI25QMetaMethodBuilderPrivateE9node_copyEPNS1_4NodeES3_S3_)
    t._ZN5QListI25QMetaMethodBuilderPrivateE9node_copyEPNS1_4NodeES3_S3_.clean 0x0001a078   Section       22  qmetaobjectbuilder.o(t._ZN5QListI25QMetaMethodBuilderPrivateE9node_copyEPNS1_4NodeES3_S3_.clean)
    t._ZN5QListI25QMetaMethodBuilderPrivateEC1Ev 0x0001a090   Section       24  qmetaobjectbuilder.o(t._ZN5QListI25QMetaMethodBuilderPrivateEC1Ev)
    t._ZN5QListI25QMetaMethodBuilderPrivateED1Ev 0x0001a0a8   Section       32  qmetaobjectbuilder.o(t._ZN5QListI25QMetaMethodBuilderPrivateED1Ev)
    t._ZN5QListI25QMetaMethodBuilderPrivateEixEi 0x0001a0c8   Section       28  qmetaobjectbuilder.o(t._ZN5QListI25QMetaMethodBuilderPrivateEixEi)
    t._ZN5QListI27QMetaPropertyBuilderPrivateE13detach_helperEi 0x0001a0e4   Section       94  qmetaobjectbuilder.o(t._ZN5QListI27QMetaPropertyBuilderPrivateE13detach_helperEi)
    t._ZN5QListI27QMetaPropertyBuilderPrivateE13detach_helperEi.clean 0x0001a142   Section        8  qmetaobjectbuilder.o(t._ZN5QListI27QMetaPropertyBuilderPrivateE13detach_helperEi.clean)
    t._ZN5QListI27QMetaPropertyBuilderPrivateE13detach_helperEv 0x0001a14a   Section       16  qmetaobjectbuilder.o(t._ZN5QListI27QMetaPropertyBuilderPrivateE13detach_helperEv)
    t._ZN5QListI27QMetaPropertyBuilderPrivateE13node_destructEPNS1_4NodeE 0x0001a15a   Section       28  qmetaobjectbuilder.o(t._ZN5QListI27QMetaPropertyBuilderPrivateE13node_destructEPNS1_4NodeE)
    t._ZN5QListI27QMetaPropertyBuilderPrivateE13node_destructEPNS1_4NodeES3_ 0x0001a176   Section       38  qmetaobjectbuilder.o(t._ZN5QListI27QMetaPropertyBuilderPrivateE13node_destructEPNS1_4NodeES3_)
    t._ZN5QListI27QMetaPropertyBuilderPrivateE14node_constructEPNS1_4NodeERKS0_ 0x0001a19c   Section       34  qmetaobjectbuilder.o(t._ZN5QListI27QMetaPropertyBuilderPrivateE14node_constructEPNS1_4NodeERKS0_)
    t._ZN5QListI27QMetaPropertyBuilderPrivateE14node_constructEPNS1_4NodeERKS0_.clean 0x0001a1be   Section       14  qmetaobjectbuilder.o(t._ZN5QListI27QMetaPropertyBuilderPrivateE14node_constructEPNS1_4NodeERKS0_.clean)
    t._ZN5QListI27QMetaPropertyBuilderPrivateE18detach_helper_growEii 0x0001a1cc   Section      208  qmetaobjectbuilder.o(t._ZN5QListI27QMetaPropertyBuilderPrivateE18detach_helper_growEii)
    t._ZN5QListI27QMetaPropertyBuilderPrivateE18detach_helper_growEii.clean 0x0001a29c   Section       16  qmetaobjectbuilder.o(t._ZN5QListI27QMetaPropertyBuilderPrivateE18detach_helper_growEii.clean)
    t._ZN5QListI27QMetaPropertyBuilderPrivateE4freeEPN9QListData4DataE 0x0001a2ac   Section       52  qmetaobjectbuilder.o(t._ZN5QListI27QMetaPropertyBuilderPrivateE4freeEPN9QListData4DataE)
    t._ZN5QListI27QMetaPropertyBuilderPrivateE5clearEv 0x0001a2e0   Section       76  qmetaobjectbuilder.o(t._ZN5QListI27QMetaPropertyBuilderPrivateE5clearEv)
    t._ZN5QListI27QMetaPropertyBuilderPrivateE5clearEv.clean 0x0001a32c   Section       10  qmetaobjectbuilder.o(t._ZN5QListI27QMetaPropertyBuilderPrivateE5clearEv.clean)
    t._ZN5QListI27QMetaPropertyBuilderPrivateE6appendERKS0_ 0x0001a338   Section      112  qmetaobjectbuilder.o(t._ZN5QListI27QMetaPropertyBuilderPrivateE6appendERKS0_)
    t._ZN5QListI27QMetaPropertyBuilderPrivateE6appendERKS0_.clean 0x0001a3a8   Section       14  qmetaobjectbuilder.o(t._ZN5QListI27QMetaPropertyBuilderPrivateE6appendERKS0_.clean)
    t._ZN5QListI27QMetaPropertyBuilderPrivateE6detachEv 0x0001a3b6   Section       24  qmetaobjectbuilder.o(t._ZN5QListI27QMetaPropertyBuilderPrivateE6detachEv)
    t._ZN5QListI27QMetaPropertyBuilderPrivateE9node_copyEPNS1_4NodeES3_S3_ 0x0001a3ce   Section       92  qmetaobjectbuilder.o(t._ZN5QListI27QMetaPropertyBuilderPrivateE9node_copyEPNS1_4NodeES3_S3_)
    t._ZN5QListI27QMetaPropertyBuilderPrivateE9node_copyEPNS1_4NodeES3_S3_.clean 0x0001a42a   Section       22  qmetaobjectbuilder.o(t._ZN5QListI27QMetaPropertyBuilderPrivateE9node_copyEPNS1_4NodeES3_S3_.clean)
    t._ZN5QListI27QMetaPropertyBuilderPrivateEC1Ev 0x0001a440   Section       24  qmetaobjectbuilder.o(t._ZN5QListI27QMetaPropertyBuilderPrivateEC1Ev)
    t._ZN5QListI27QMetaPropertyBuilderPrivateED1Ev 0x0001a458   Section       32  qmetaobjectbuilder.o(t._ZN5QListI27QMetaPropertyBuilderPrivateED1Ev)
    t._ZN5QListI27QMetaPropertyBuilderPrivateEixEi 0x0001a478   Section       28  qmetaobjectbuilder.o(t._ZN5QListI27QMetaPropertyBuilderPrivateEixEi)
    t._ZN5QListI5QUuidE13detach_helperEi     0x0001a494   Section       94  instancemanager.o(t._ZN5QListI5QUuidE13detach_helperEi)
    t._ZN5QListI5QUuidE13detach_helperEi.clean 0x0001a4f2   Section        8  instancemanager.o(t._ZN5QListI5QUuidE13detach_helperEi.clean)
    t._ZN5QListI5QUuidE13detach_helperEv     0x0001a4fa   Section       16  instancemanager.o(t._ZN5QListI5QUuidE13detach_helperEv)
    t._ZN5QListI5QUuidE13node_destructEPNS1_4NodeES3_ 0x0001a50a   Section       26  instancemanager.o(t._ZN5QListI5QUuidE13node_destructEPNS1_4NodeES3_)
    t._ZN5QListI5QUuidE14node_constructEPNS1_4NodeERKS0_ 0x0001a524   Section       34  instancemanager.o(t._ZN5QListI5QUuidE14node_constructEPNS1_4NodeERKS0_)
    t._ZN5QListI5QUuidE14node_constructEPNS1_4NodeERKS0_.clean 0x0001a546   Section       14  instancemanager.o(t._ZN5QListI5QUuidE14node_constructEPNS1_4NodeERKS0_.clean)
    t._ZN5QListI5QUuidE18detach_helper_growEii 0x0001a554   Section      208  instancemanager.o(t._ZN5QListI5QUuidE18detach_helper_growEii)
    t._ZN5QListI5QUuidE18detach_helper_growEii.clean 0x0001a624   Section       16  instancemanager.o(t._ZN5QListI5QUuidE18detach_helper_growEii.clean)
    t._ZN5QListI5QUuidE4freeEPN9QListData4DataE 0x0001a634   Section       58  instancemanager.o(t._ZN5QListI5QUuidE4freeEPN9QListData4DataE)
    t._ZN5QListI5QUuidE5beginEv              0x0001a66e   Section       40  instancemanager.o(t._ZN5QListI5QUuidE5beginEv)
    t._ZN5QListI5QUuidE6appendERKS0_         0x0001a698   Section      112  instancemanager.o(t._ZN5QListI5QUuidE6appendERKS0_)
    t._ZN5QListI5QUuidE6appendERKS0_.clean   0x0001a708   Section       14  instancemanager.o(t._ZN5QListI5QUuidE6appendERKS0_.clean)
    t._ZN5QListI5QUuidE7reserveEi            0x0001a716   Section       46  instancemanager.o(t._ZN5QListI5QUuidE7reserveEi)
    t._ZN5QListI5QUuidE9node_copyEPNS1_4NodeES3_S3_ 0x0001a744   Section       80  instancemanager.o(t._ZN5QListI5QUuidE9node_copyEPNS1_4NodeES3_S3_)
    t._ZN5QListI5QUuidE9node_copyEPNS1_4NodeES3_S3_.clean 0x0001a794   Section       22  instancemanager.o(t._ZN5QListI5QUuidE9node_copyEPNS1_4NodeES3_S3_.clean)
    t._ZN5QListI5QUuidED1Ev                  0x0001a7aa   Section       32  instancemanager.o(t._ZN5QListI5QUuidED1Ev)
    t._ZN5QListI7QStringE13detach_helperEi   0x0001a7ca   Section       94  qservicemanager.o(t._ZN5QListI7QStringE13detach_helperEi)
    t._ZN5QListI7QStringE13detach_helperEi.clean 0x0001a828   Section        8  qservicemanager.o(t._ZN5QListI7QStringE13detach_helperEi.clean)
    t._ZN5QListI7QStringE13detach_helperEv   0x0001a830   Section       16  servicemetadata.o(t._ZN5QListI7QStringE13detach_helperEv)
    t._ZN5QListI7QStringE13node_destructEPNS1_4NodeES3_ 0x0001a840   Section       26  qservicemanager.o(t._ZN5QListI7QStringE13node_destructEPNS1_4NodeES3_)
    t._ZN5QListI7QStringE14node_constructEPNS1_4NodeERKS0_ 0x0001a85a   Section       36  qservicemanager.o(t._ZN5QListI7QStringE14node_constructEPNS1_4NodeERKS0_)
    t._ZN5QListI7QStringE14node_constructEPNS1_4NodeERKS0_.clean 0x0001a87e   Section       14  qservicemanager.o(t._ZN5QListI7QStringE14node_constructEPNS1_4NodeERKS0_.clean)
    t._ZN5QListI7QStringE18detach_helper_growEii 0x0001a88c   Section      208  qservicemanager.o(t._ZN5QListI7QStringE18detach_helper_growEii)
    t._ZN5QListI7QStringE18detach_helper_growEii.clean 0x0001a95c   Section       16  qservicemanager.o(t._ZN5QListI7QStringE18detach_helper_growEii.clean)
    t._ZN5QListI7QStringE4freeEPN9QListData4DataE 0x0001a96c   Section       58  qservicemanager.o(t._ZN5QListI7QStringE4freeEPN9QListData4DataE)
    t._ZN5QListI7QStringE5clearEv            0x0001a9a6   Section       28  qservicefilter.o(t._ZN5QListI7QStringE5clearEv)
    t._ZN5QListI7QStringE5clearEv.clean      0x0001a9c2   Section       10  qservicefilter.o(t._ZN5QListI7QStringE5clearEv.clean)
    t._ZN5QListI7QStringE6appendERKS0_       0x0001a9cc   Section      120  qservicemanager.o(t._ZN5QListI7QStringE6appendERKS0_)
    t._ZN5QListI7QStringE6appendERKS0_.clean 0x0001aa44   Section       14  qservicemanager.o(t._ZN5QListI7QStringE6appendERKS0_.clean)
    t._ZN5QListI7QStringE7reserveEi          0x0001aa52   Section       46  qservicemanager.o(t._ZN5QListI7QStringE7reserveEi)
    t._ZN5QListI7QStringE9node_copyEPNS1_4NodeES3_S3_ 0x0001aa80   Section       82  qservicemanager.o(t._ZN5QListI7QStringE9node_copyEPNS1_4NodeES3_S3_)
    t._ZN5QListI7QStringE9node_copyEPNS1_4NodeES3_S3_.clean 0x0001aad2   Section       22  qservicemanager.o(t._ZN5QListI7QStringE9node_copyEPNS1_4NodeES3_S3_.clean)
    t._ZN5QListI7QStringEC1ERKS1_            0x0001aae8   Section       36  qservicefilter.o(t._ZN5QListI7QStringEC1ERKS1_)
    t._ZN5QListI7QStringEC1Ev                0x0001ab0c   Section       24  qservicemanager.o(t._ZN5QListI7QStringEC1Ev)
    t._ZN5QListI7QStringED1Ev                0x0001ab24   Section       32  servicemetadata.o(t._ZN5QListI7QStringED1Ev)
    t._ZN5QListI7QStringEaSERKS1_            0x0001ab44   Section       64  qservicefilter.o(t._ZN5QListI7QStringEaSERKS1_)
    t._ZN5QListI7QStringEixEi                0x0001ab84   Section       42  servicemetadata.o(t._ZN5QListI7QStringEixEi)
    t._ZN5QListI8QVariantE13detach_helperEi  0x0001abae   Section       94  objectendpoint.o(t._ZN5QListI8QVariantE13detach_helperEi)
    t._ZN5QListI8QVariantE13detach_helperEi.clean 0x0001ac0c   Section        8  objectendpoint.o(t._ZN5QListI8QVariantE13detach_helperEi.clean)
    t._ZN5QListI8QVariantE13detach_helperEv  0x0001ac14   Section       16  objectendpoint.o(t._ZN5QListI8QVariantE13detach_helperEv)
    t._ZN5QListI8QVariantE13node_destructEPNS1_4NodeES3_ 0x0001ac24   Section       38  objectendpoint.o(t._ZN5QListI8QVariantE13node_destructEPNS1_4NodeES3_)
    t._ZN5QListI8QVariantE14node_constructEPNS1_4NodeERKS0_ 0x0001ac4a   Section       34  objectendpoint.o(t._ZN5QListI8QVariantE14node_constructEPNS1_4NodeERKS0_)
    t._ZN5QListI8QVariantE14node_constructEPNS1_4NodeERKS0_.clean 0x0001ac6c   Section       14  objectendpoint.o(t._ZN5QListI8QVariantE14node_constructEPNS1_4NodeERKS0_.clean)
    t._ZN5QListI8QVariantE18detach_helper_growEii 0x0001ac7a   Section      208  objectendpoint.o(t._ZN5QListI8QVariantE18detach_helper_growEii)
    t._ZN5QListI8QVariantE18detach_helper_growEii.clean 0x0001ad4a   Section       16  objectendpoint.o(t._ZN5QListI8QVariantE18detach_helper_growEii.clean)
    t._ZN5QListI8QVariantE4freeEPN9QListData4DataE 0x0001ad5a   Section       58  objectendpoint.o(t._ZN5QListI8QVariantE4freeEPN9QListData4DataE)
    t._ZN5QListI8QVariantE5clearEv           0x0001ad94   Section       76  objectendpoint.o(t._ZN5QListI8QVariantE5clearEv)
    t._ZN5QListI8QVariantE5clearEv.clean     0x0001ade0   Section       10  objectendpoint.o(t._ZN5QListI8QVariantE5clearEv.clean)
    t._ZN5QListI8QVariantE6appendERKS0_      0x0001adec   Section      112  objectendpoint.o(t._ZN5QListI8QVariantE6appendERKS0_)
    t._ZN5QListI8QVariantE6appendERKS0_.clean 0x0001ae5c   Section       14  objectendpoint.o(t._ZN5QListI8QVariantE6appendERKS0_.clean)
    t._ZN5QListI8QVariantE7reserveEi         0x0001ae6a   Section       46  objectendpoint.o(t._ZN5QListI8QVariantE7reserveEi)
    t._ZN5QListI8QVariantE9node_copyEPNS1_4NodeES3_S3_ 0x0001ae98   Section       92  objectendpoint.o(t._ZN5QListI8QVariantE9node_copyEPNS1_4NodeES3_S3_)
    t._ZN5QListI8QVariantE9node_copyEPNS1_4NodeES3_S3_.clean 0x0001aef4   Section       22  objectendpoint.o(t._ZN5QListI8QVariantE9node_copyEPNS1_4NodeES3_S3_.clean)
    t._ZN5QListI8QVariantEC1Ev               0x0001af0c   Section       24  objectendpoint.o(t._ZN5QListI8QVariantEC1Ev)
    t._ZN5QListI8QVariantED1Ev               0x0001af24   Section       32  objectendpoint.o(t._ZN5QListI8QVariantED1Ev)
    t._ZN5QListI8QVariantEixEi               0x0001af44   Section       42  objectendpoint.o(t._ZN5QListI8QVariantEixEi)
    t._ZN5QListIN10QtMobility15QServicePackageEE13detach_helperEi 0x0001af6e   Section       94  qremoteserviceregister_s60.o(t._ZN5QListIN10QtMobility15QServicePackageEE13detach_helperEi)
    t._ZN5QListIN10QtMobility15QServicePackageEE13detach_helperEi.clean 0x0001afcc   Section        8  qremoteserviceregister_s60.o(t._ZN5QListIN10QtMobility15QServicePackageEE13detach_helperEi.clean)
    t._ZN5QListIN10QtMobility15QServicePackageEE13detach_helperEv 0x0001afd4   Section       16  qremoteserviceregister_s60.o(t._ZN5QListIN10QtMobility15QServicePackageEE13detach_helperEv)
    t._ZN5QListIN10QtMobility15QServicePackageEE13node_destructEPNS2_4NodeE 0x0001afe4   Section       28  qremoteserviceregister_s60.o(t._ZN5QListIN10QtMobility15QServicePackageEE13node_destructEPNS2_4NodeE)
    t._ZN5QListIN10QtMobility15QServicePackageEE13node_destructEPNS2_4NodeES4_ 0x0001b000   Section       38  qremoteserviceregister_s60.o(t._ZN5QListIN10QtMobility15QServicePackageEE13node_destructEPNS2_4NodeES4_)
    t._ZN5QListIN10QtMobility15QServicePackageEE14node_constructEPNS2_4NodeERKS1_ 0x0001b026   Section       34  qremoteserviceregister_s60.o(t._ZN5QListIN10QtMobility15QServicePackageEE14node_constructEPNS2_4NodeERKS1_)
    t._ZN5QListIN10QtMobility15QServicePackageEE14node_constructEPNS2_4NodeERKS1_.clean 0x0001b048   Section       14  qremoteserviceregister_s60.o(t._ZN5QListIN10QtMobility15QServicePackageEE14node_constructEPNS2_4NodeERKS1_.clean)
    t._ZN5QListIN10QtMobility15QServicePackageEE18detach_helper_growEii 0x0001b056   Section      208  qremoteserviceregister_s60.o(t._ZN5QListIN10QtMobility15QServicePackageEE18detach_helper_growEii)
    t._ZN5QListIN10QtMobility15QServicePackageEE18detach_helper_growEii.clean 0x0001b126   Section       16  qremoteserviceregister_s60.o(t._ZN5QListIN10QtMobility15QServicePackageEE18detach_helper_growEii.clean)
    t._ZN5QListIN10QtMobility15QServicePackageEE4freeEPN9QListData4DataE 0x0001b136   Section       58  qremoteserviceregister_s60.o(t._ZN5QListIN10QtMobility15QServicePackageEE4freeEPN9QListData4DataE)
    t._ZN5QListIN10QtMobility15QServicePackageEE5beginEv 0x0001b170   Section       40  qremoteserviceregister_s60.o(t._ZN5QListIN10QtMobility15QServicePackageEE5beginEv)
    t._ZN5QListIN10QtMobility15QServicePackageEE5clearEv 0x0001b198   Section       76  ipcendpoint.o(t._ZN5QListIN10QtMobility15QServicePackageEE5clearEv)
    t._ZN5QListIN10QtMobility15QServicePackageEE5clearEv.clean 0x0001b1e4   Section       10  ipcendpoint.o(t._ZN5QListIN10QtMobility15QServicePackageEE5clearEv.clean)
    t._ZN5QListIN10QtMobility15QServicePackageEE6appendERKS1_ 0x0001b1f0   Section      112  qremoteserviceregister_s60.o(t._ZN5QListIN10QtMobility15QServicePackageEE6appendERKS1_)
    t._ZN5QListIN10QtMobility15QServicePackageEE6appendERKS1_.clean 0x0001b260   Section       14  qremoteserviceregister_s60.o(t._ZN5QListIN10QtMobility15QServicePackageEE6appendERKS1_.clean)
    t._ZN5QListIN10QtMobility15QServicePackageEE9node_copyEPNS2_4NodeES4_S4_ 0x0001b26e   Section       92  qremoteserviceregister_s60.o(t._ZN5QListIN10QtMobility15QServicePackageEE9node_copyEPNS2_4NodeES4_S4_)
    t._ZN5QListIN10QtMobility15QServicePackageEE9node_copyEPNS2_4NodeES4_S4_.clean 0x0001b2ca   Section       22  qremoteserviceregister_s60.o(t._ZN5QListIN10QtMobility15QServicePackageEE9node_copyEPNS2_4NodeES4_S4_.clean)
    t._ZN5QListIN10QtMobility15QServicePackageEEC1Ev 0x0001b2e0   Section       24  ipcendpoint.o(t._ZN5QListIN10QtMobility15QServicePackageEEC1Ev)
    t._ZN5QListIN10QtMobility15QServicePackageEED1Ev 0x0001b2f8   Section       32  qremoteserviceregister_s60.o(t._ZN5QListIN10QtMobility15QServicePackageEED1Ev)
    t._ZN5QListIN10QtMobility22QRemoteServiceRegister5EntryEE13detach_helperEi 0x0001b318   Section       94  instancemanager.o(t._ZN5QListIN10QtMobility22QRemoteServiceRegister5EntryEE13detach_helperEi)
    t._ZN5QListIN10QtMobility22QRemoteServiceRegister5EntryEE13detach_helperEi.clean 0x0001b376   Section        8  instancemanager.o(t._ZN5QListIN10QtMobility22QRemoteServiceRegister5EntryEE13detach_helperEi.clean)
    t._ZN5QListIN10QtMobility22QRemoteServiceRegister5EntryEE13detach_helperEv 0x0001b37e   Section       16  instancemanager.o(t._ZN5QListIN10QtMobility22QRemoteServiceRegister5EntryEE13detach_helperEv)
    t._ZN5QListIN10QtMobility22QRemoteServiceRegister5EntryEE13node_destructEPNS3_4NodeE 0x0001b38e   Section       28  instancemanager.o(t._ZN5QListIN10QtMobility22QRemoteServiceRegister5EntryEE13node_destructEPNS3_4NodeE)
    t._ZN5QListIN10QtMobility22QRemoteServiceRegister5EntryEE13node_destructEPNS3_4NodeES5_ 0x0001b3aa   Section       38  instancemanager.o(t._ZN5QListIN10QtMobility22QRemoteServiceRegister5EntryEE13node_destructEPNS3_4NodeES5_)
    t._ZN5QListIN10QtMobility22QRemoteServiceRegister5EntryEE14node_constructEPNS3_4NodeERKS2_ 0x0001b3d0   Section       34  instancemanager.o(t._ZN5QListIN10QtMobility22QRemoteServiceRegister5EntryEE14node_constructEPNS3_4NodeERKS2_)
    t._ZN5QListIN10QtMobility22QRemoteServiceRegister5EntryEE14node_constructEPNS3_4NodeERKS2_.clean 0x0001b3f2   Section       14  instancemanager.o(t._ZN5QListIN10QtMobility22QRemoteServiceRegister5EntryEE14node_constructEPNS3_4NodeERKS2_.clean)
    t._ZN5QListIN10QtMobility22QRemoteServiceRegister5EntryEE18detach_helper_growEii 0x0001b400   Section      208  instancemanager.o(t._ZN5QListIN10QtMobility22QRemoteServiceRegister5EntryEE18detach_helper_growEii)
    t._ZN5QListIN10QtMobility22QRemoteServiceRegister5EntryEE18detach_helper_growEii.clean 0x0001b4d0   Section       16  instancemanager.o(t._ZN5QListIN10QtMobility22QRemoteServiceRegister5EntryEE18detach_helper_growEii.clean)
    t._ZN5QListIN10QtMobility22QRemoteServiceRegister5EntryEE4freeEPN9QListData4DataE 0x0001b4e0   Section       58  instancemanager.o(t._ZN5QListIN10QtMobility22QRemoteServiceRegister5EntryEE4freeEPN9QListData4DataE)
    t._ZN5QListIN10QtMobility22QRemoteServiceRegister5EntryEE5beginEv 0x0001b51a   Section       40  instancemanager.o(t._ZN5QListIN10QtMobility22QRemoteServiceRegister5EntryEE5beginEv)
    t._ZN5QListIN10QtMobility22QRemoteServiceRegister5EntryEE6appendERKS2_ 0x0001b544   Section      112  instancemanager.o(t._ZN5QListIN10QtMobility22QRemoteServiceRegister5EntryEE6appendERKS2_)
    t._ZN5QListIN10QtMobility22QRemoteServiceRegister5EntryEE6appendERKS2_.clean 0x0001b5b4   Section       14  instancemanager.o(t._ZN5QListIN10QtMobility22QRemoteServiceRegister5EntryEE6appendERKS2_.clean)
    t._ZN5QListIN10QtMobility22QRemoteServiceRegister5EntryEE7reserveEi 0x0001b5c2   Section       46  instancemanager.o(t._ZN5QListIN10QtMobility22QRemoteServiceRegister5EntryEE7reserveEi)
    t._ZN5QListIN10QtMobility22QRemoteServiceRegister5EntryEE9node_copyEPNS3_4NodeES5_S5_ 0x0001b5f0   Section       92  instancemanager.o(t._ZN5QListIN10QtMobility22QRemoteServiceRegister5EntryEE9node_copyEPNS3_4NodeES5_S5_)
    t._ZN5QListIN10QtMobility22QRemoteServiceRegister5EntryEE9node_copyEPNS3_4NodeES5_S5_.clean 0x0001b64c   Section       22  instancemanager.o(t._ZN5QListIN10QtMobility22QRemoteServiceRegister5EntryEE9node_copyEPNS3_4NodeES5_S5_.clean)
    t._ZN5QListIN10QtMobility22QRemoteServiceRegister5EntryEED1Ev 0x0001b662   Section       32  instancemanager.o(t._ZN5QListIN10QtMobility22QRemoteServiceRegister5EntryEED1Ev)
    t._ZN5QListIN10QtMobility27QServiceInterfaceDescriptorEE13detach_helperEi 0x0001b682   Section       94  servicemetadata.o(t._ZN5QListIN10QtMobility27QServiceInterfaceDescriptorEE13detach_helperEi)
    t._ZN5QListIN10QtMobility27QServiceInterfaceDescriptorEE13detach_helperEi.clean 0x0001b6e0   Section        8  servicemetadata.o(t._ZN5QListIN10QtMobility27QServiceInterfaceDescriptorEE13detach_helperEi.clean)
    t._ZN5QListIN10QtMobility27QServiceInterfaceDescriptorEE13detach_helperEv 0x0001b6e8   Section       16  servicemetadata.o(t._ZN5QListIN10QtMobility27QServiceInterfaceDescriptorEE13detach_helperEv)
    t._ZN5QListIN10QtMobility27QServiceInterfaceDescriptorEE13node_destructEPNS2_4NodeES4_ 0x0001b6f8   Section       38  servicemetadata.o(t._ZN5QListIN10QtMobility27QServiceInterfaceDescriptorEE13node_destructEPNS2_4NodeES4_)
    t._ZN5QListIN10QtMobility27QServiceInterfaceDescriptorEE14node_constructEPNS2_4NodeERKS1_ 0x0001b71e   Section       34  servicemetadata.o(t._ZN5QListIN10QtMobility27QServiceInterfaceDescriptorEE14node_constructEPNS2_4NodeERKS1_)
    t._ZN5QListIN10QtMobility27QServiceInterfaceDescriptorEE14node_constructEPNS2_4NodeERKS1_.clean 0x0001b740   Section       14  servicemetadata.o(t._ZN5QListIN10QtMobility27QServiceInterfaceDescriptorEE14node_constructEPNS2_4NodeERKS1_.clean)
    t._ZN5QListIN10QtMobility27QServiceInterfaceDescriptorEE18detach_helper_growEii 0x0001b74e   Section      208  servicemetadata.o(t._ZN5QListIN10QtMobility27QServiceInterfaceDescriptorEE18detach_helper_growEii)
    t._ZN5QListIN10QtMobility27QServiceInterfaceDescriptorEE18detach_helper_growEii.clean 0x0001b81e   Section       16  servicemetadata.o(t._ZN5QListIN10QtMobility27QServiceInterfaceDescriptorEE18detach_helper_growEii.clean)
    t._ZN5QListIN10QtMobility27QServiceInterfaceDescriptorEE4freeEPN9QListData4DataE 0x0001b82e   Section       58  servicemetadata.o(t._ZN5QListIN10QtMobility27QServiceInterfaceDescriptorEE4freeEPN9QListData4DataE)
    t._ZN5QListIN10QtMobility27QServiceInterfaceDescriptorEE5clearEv 0x0001b868   Section       28  servicemetadata.o(t._ZN5QListIN10QtMobility27QServiceInterfaceDescriptorEE5clearEv)
    t._ZN5QListIN10QtMobility27QServiceInterfaceDescriptorEE5clearEv.clean 0x0001b884   Section       10  servicemetadata.o(t._ZN5QListIN10QtMobility27QServiceInterfaceDescriptorEE5clearEv.clean)
    t._ZN5QListIN10QtMobility27QServiceInterfaceDescriptorEE6appendERKS1_ 0x0001b890   Section      112  servicemetadata.o(t._ZN5QListIN10QtMobility27QServiceInterfaceDescriptorEE6appendERKS1_)
    t._ZN5QListIN10QtMobility27QServiceInterfaceDescriptorEE6appendERKS1_.clean 0x0001b900   Section       14  servicemetadata.o(t._ZN5QListIN10QtMobility27QServiceInterfaceDescriptorEE6appendERKS1_.clean)
    t._ZN5QListIN10QtMobility27QServiceInterfaceDescriptorEE7reserveEi 0x0001b90e   Section       46  servicemetadata.o(t._ZN5QListIN10QtMobility27QServiceInterfaceDescriptorEE7reserveEi)
    t._ZN5QListIN10QtMobility27QServiceInterfaceDescriptorEE9node_copyEPNS2_4NodeES4_S4_ 0x0001b93c   Section       92  servicemetadata.o(t._ZN5QListIN10QtMobility27QServiceInterfaceDescriptorEE9node_copyEPNS2_4NodeES4_S4_)
    t._ZN5QListIN10QtMobility27QServiceInterfaceDescriptorEE9node_copyEPNS2_4NodeES4_S4_.clean 0x0001b998   Section       22  servicemetadata.o(t._ZN5QListIN10QtMobility27QServiceInterfaceDescriptorEE9node_copyEPNS2_4NodeES4_S4_.clean)
    t._ZN5QListIN10QtMobility27QServiceInterfaceDescriptorEEC1Ev 0x0001b9b0   Section       24  servicemetadata.o(t._ZN5QListIN10QtMobility27QServiceInterfaceDescriptorEEC1Ev)
    t._ZN5QListIN10QtMobility27QServiceInterfaceDescriptorEED1Ev 0x0001b9c8   Section       32  servicemetadata.o(t._ZN5QListIN10QtMobility27QServiceInterfaceDescriptorEED1Ev)
    t._ZN5QListIN10QtMobility27QServiceInterfaceDescriptorEEaSERKS2_ 0x0001b9e8   Section       64  servicemetadata.o(t._ZN5QListIN10QtMobility27QServiceInterfaceDescriptorEEaSERKS2_)
    t._ZN5QListIN10QtMobility27QServiceInterfaceDescriptorEEixEi 0x0001ba28   Section       42  qservicemanager.o(t._ZN5QListIN10QtMobility27QServiceInterfaceDescriptorEEixEi)
    t._ZN5QListIPFRK11QMetaObjectvEE13detach_helperEi 0x0001ba52   Section       94  qmetaobjectbuilder.o(t._ZN5QListIPFRK11QMetaObjectvEE13detach_helperEi)
    t._ZN5QListIPFRK11QMetaObjectvEE13detach_helperEi.clean 0x0001bab0   Section        8  qmetaobjectbuilder.o(t._ZN5QListIPFRK11QMetaObjectvEE13detach_helperEi.clean)
    t._ZN5QListIPFRK11QMetaObjectvEE13detach_helperEv 0x0001bab8   Section       16  qmetaobjectbuilder.o(t._ZN5QListIPFRK11QMetaObjectvEE13detach_helperEv)
    t._ZN5QListIPFRK11QMetaObjectvEE18detach_helper_growEii 0x0001bac8   Section      204  qmetaobjectbuilder.o(t._ZN5QListIPFRK11QMetaObjectvEE18detach_helper_growEii)
    t._ZN5QListIPFRK11QMetaObjectvEE18detach_helper_growEii.clean 0x0001bb94   Section       16  qmetaobjectbuilder.o(t._ZN5QListIPFRK11QMetaObjectvEE18detach_helper_growEii.clean)
    t._ZN5QListIPFRK11QMetaObjectvEE4freeEPN9QListData4DataE 0x0001bba4   Section       52  qmetaobjectbuilder.o(t._ZN5QListIPFRK11QMetaObjectvEE4freeEPN9QListData4DataE)
    t._ZN5QListIPFRK11QMetaObjectvEE5clearEv 0x0001bbd8   Section       76  qmetaobjectbuilder.o(t._ZN5QListIPFRK11QMetaObjectvEE5clearEv)
    t._ZN5QListIPFRK11QMetaObjectvEE5clearEv.clean 0x0001bc24   Section       10  qmetaobjectbuilder.o(t._ZN5QListIPFRK11QMetaObjectvEE5clearEv.clean)
    t._ZN5QListIPFRK11QMetaObjectvEE6appendERKS4_ 0x0001bc30   Section      100  qmetaobjectbuilder.o(t._ZN5QListIPFRK11QMetaObjectvEE6appendERKS4_)
    t._ZN5QListIPFRK11QMetaObjectvEE6appendERKS4_.clean 0x0001bc94   Section       10  qmetaobjectbuilder.o(t._ZN5QListIPFRK11QMetaObjectvEE6appendERKS4_.clean)
    t._ZN5QListIPFRK11QMetaObjectvEE6detachEv 0x0001bc9e   Section       24  qmetaobjectbuilder.o(t._ZN5QListIPFRK11QMetaObjectvEE6detachEv)
    t._ZN5QListIPFRK11QMetaObjectvEE9node_copyEPNS5_4NodeES7_S7_ 0x0001bcb6   Section       46  qmetaobjectbuilder.o(t._ZN5QListIPFRK11QMetaObjectvEE9node_copyEPNS5_4NodeES7_S7_)
    t._ZN5QListIPFRK11QMetaObjectvEEC1Ev     0x0001bce4   Section       24  qmetaobjectbuilder.o(t._ZN5QListIPFRK11QMetaObjectvEEC1Ev)
    t._ZN5QListIPFRK11QMetaObjectvEED1Ev     0x0001bcfc   Section       32  qmetaobjectbuilder.o(t._ZN5QListIPFRK11QMetaObjectvEED1Ev)
    t._ZN5QListIPFRK11QMetaObjectvEEixEi     0x0001bd1c   Section       28  qmetaobjectbuilder.o(t._ZN5QListIPFRK11QMetaObjectvEEixEi)
    t._ZN5QListIiE13detach_helperEi          0x0001bd38   Section       94  qmetaobjectbuilder.o(t._ZN5QListIiE13detach_helperEi)
    t._ZN5QListIiE13detach_helperEi.clean    0x0001bd96   Section        8  qmetaobjectbuilder.o(t._ZN5QListIiE13detach_helperEi.clean)
    t._ZN5QListIiE13detach_helperEv          0x0001bd9e   Section       16  qmetaobjectbuilder.o(t._ZN5QListIiE13detach_helperEv)
    t._ZN5QListIiE18detach_helper_growEii    0x0001bdae   Section      204  qmetaobjectbuilder.o(t._ZN5QListIiE18detach_helper_growEii)
    t._ZN5QListIiE18detach_helper_growEii.clean 0x0001be7a   Section       16  qmetaobjectbuilder.o(t._ZN5QListIiE18detach_helper_growEii.clean)
    t._ZN5QListIiE4freeEPN9QListData4DataE   0x0001be8a   Section       52  qmetaobjectbuilder.o(t._ZN5QListIiE4freeEPN9QListData4DataE)
    t._ZN5QListIiE5clearEv                   0x0001bebe   Section       76  qmetaobjectbuilder.o(t._ZN5QListIiE5clearEv)
    t._ZN5QListIiE5clearEv.clean             0x0001bf0a   Section       10  qmetaobjectbuilder.o(t._ZN5QListIiE5clearEv.clean)
    t._ZN5QListIiE6appendERKi                0x0001bf14   Section      100  qmetaobjectbuilder.o(t._ZN5QListIiE6appendERKi)
    t._ZN5QListIiE6appendERKi.clean          0x0001bf78   Section       10  qmetaobjectbuilder.o(t._ZN5QListIiE6appendERKi.clean)
    t._ZN5QListIiE6detachEv                  0x0001bf82   Section       24  qmetaobjectbuilder.o(t._ZN5QListIiE6detachEv)
    t._ZN5QListIiE7reserveEi                 0x0001bf9a   Section       46  qmetaobjectbuilder.o(t._ZN5QListIiE7reserveEi)
    t._ZN5QListIiE9node_copyEPNS0_4NodeES2_S2_ 0x0001bfc8   Section       46  qmetaobjectbuilder.o(t._ZN5QListIiE9node_copyEPNS0_4NodeES2_S2_)
    t._ZN5QListIiEC1Ev                       0x0001bff8   Section       24  qmetaobjectbuilder.o(t._ZN5QListIiEC1Ev)
    t._ZN5QListIiED1Ev                       0x0001c010   Section       32  qmetaobjectbuilder.o(t._ZN5QListIiED1Ev)
    t._ZN5QListIiEixEi                       0x0001c030   Section       28  qmetaobjectbuilder.o(t._ZN5QListIiEixEi)
    t._ZN6QQueueIN10QtMobility15QServicePackageEED1Ev 0x0001c04c   Section       14  qremoteserviceregister_s60.o(t._ZN6QQueueIN10QtMobility15QServicePackageEED1Ev)
    t._ZN7QVectorI19QXmlStreamAttributeE4freeEP16QVectorTypedDataIS0_E 0x0001c05a   Section       54  servicemetadata.o(t._ZN7QVectorI19QXmlStreamAttributeE4freeEP16QVectorTypedDataIS0_E)
    t._ZN7QVectorI19QXmlStreamAttributeED1Ev 0x0001c090   Section       34  servicemetadata.o(t._ZN7QVectorI19QXmlStreamAttributeED1Ev)
    t._ZN7QVectorIbE13detach_helperEv        0x0001c0b2   Section       18  proxyobject.o(t._ZN7QVectorIbE13detach_helperEv)
    t._ZN7QVectorIbE4fillERKbi               0x0001c0c4   Section       72  proxyobject.o(t._ZN7QVectorIbE4fillERKbi)
    t._ZN7QVectorIbE4freeEP16QVectorTypedDataIbE 0x0001c10c   Section       24  proxyobject.o(t._ZN7QVectorIbE4freeEP16QVectorTypedDataIbE)
    t._ZN7QVectorIbE6mallocEi                0x0001c124   Section       50  proxyobject.o(t._ZN7QVectorIbE6mallocEi)
    t._ZN7QVectorIbE6resizeEi                0x0001c156   Section       82  proxyobject.o(t._ZN7QVectorIbE6resizeEi)
    t._ZN7QVectorIbE7reallocEii              0x0001c1a8   Section      410  proxyobject.o(t._ZN7QVectorIbE7reallocEii)
    t._ZN7QVectorIbE7reallocEii.clean        0x0001c342   Section        8  proxyobject.o(t._ZN7QVectorIbE7reallocEii.clean)
    t._ZN7QVectorIbED1Ev                     0x0001c34a   Section       34  proxyobject.o(t._ZN7QVectorIbED1Ev)
    t._ZN8QPointerI7QObjectED1Ev             0x0001c36c   Section       14  objectendpoint.o(t._ZN8QPointerI7QObjectED1Ev)
    t._ZN8QPointerI7QObjectEaSEPS0_          0x0001c37a   Section       24  objectendpoint.o(t._ZN8QPointerI7QObjectEaSEPS0_)
    t._ZN8TIpcArgsC1IP7HBufC16P8TPckgBufIiES5_EET_T0_T1_ 0x0001c392   Section       36  databasemanager_symbian.o(t._ZN8TIpcArgsC1IP7HBufC16P8TPckgBufIiES5_EET_T0_T1_)
    t._ZN8TPckgBufIiEC1ERKi                  0x0001c3b6   Section       40  databasemanager_symbian.o(t._ZN8TPckgBufIiEC1ERKi)
    t._ZN8TPckgBufIiEC1Ev                    0x0001c3de   Section       28  databasemanager_symbian.o(t._ZN8TPckgBufIiEC1Ev)
    t._ZN9QHashNodeI5QUuidP7QObjectEC1ERKS0_RKS2_ 0x0001c3fa   Section       30  instancemanager.o(t._ZN9QHashNodeI5QUuidP7QObjectEC1ERKS0_RKS2_)
    t._ZN9QHashNodeI5QUuidPN10QtMobility8ResponseEEC1ERKS0_RKS3_ 0x0001c418   Section       30  objectendpoint.o(t._ZN9QHashNodeI5QUuidPN10QtMobility8ResponseEEC1ERKS0_RKS3_)
    t._ZN9QHashNodeI7QString8QVariantEC1ERKS0_RKS1_ 0x0001c436   Section       40  qservicecontext.o(t._ZN9QHashNodeI7QString8QVariantEC1ERKS0_RKS1_)
    t._ZN9QHashNodeI7QString8QVariantEC1ERKS0_RKS1_.clean 0x0001c45e   Section       12  qservicecontext.o(t._ZN9QHashNodeI7QString8QVariantEC1ERKS0_RKS1_.clean)
    t._ZN9QHashNodeI7QStringS0_EC1ERKS0_S3_  0x0001c46a   Section       40  servicemetadata.o(t._ZN9QHashNodeI7QStringS0_EC1ERKS0_S3_)
    t._ZN9QHashNodeI7QStringS0_EC1ERKS0_S3_.clean 0x0001c492   Section       12  servicemetadata.o(t._ZN9QHashNodeI7QStringS0_EC1ERKS0_S3_.clean)
    t._ZN9QHashNodeI7QStringiEC1ERKS0_RKi    0x0001c49e   Section       30  servicemetadata.o(t._ZN9QHashNodeI7QStringiEC1ERKS0_RKi)
    t._ZN9QHashNodeIN10QtMobility22QRemoteServiceRegister5EntryENS0_22ServiceIdentDescriptorEEC1ERKS2_RKS3_ 0x0001c4bc   Section       40  instancemanager.o(t._ZN9QHashNodeIN10QtMobility22QRemoteServiceRegister5EntryENS0_22ServiceIdentDescriptorEEC1ERKS2_RKS3_)
    t._ZN9QHashNodeIN10QtMobility22QRemoteServiceRegister5EntryENS0_22ServiceIdentDescriptorEEC1ERKS2_RKS3_.clean 0x0001c4e4   Section       12  instancemanager.o(t._ZN9QHashNodeIN10QtMobility22QRemoteServiceRegister5EntryENS0_22ServiceIdentDescriptorEEC1ERKS2_RKS3_.clean)
    t._ZN9QHashNodeIN10QtMobility27QServiceInterfaceDescriptor9AttributeE8QVariantEC1ERKS2_RKS3_ 0x0001c4f0   Section       30  servicemetadata.o(t._ZN9QHashNodeIN10QtMobility27QServiceInterfaceDescriptor9AttributeE8QVariantEC1ERKS2_RKS3_)
    t._ZNK28QExplicitlySharedDataPointerIN10QtMobility22QServicePackagePrivateEEcvbEv 0x0001c50e   Section       16  qservicepackage.o(t._ZNK28QExplicitlySharedDataPointerIN10QtMobility22QServicePackagePrivateEEcvbEv)
    t._ZNK4QSetI7QStringE6toListEv           0x0001c51e   Section      196  qservicemanager.o(t._ZNK4QSetI7QStringE6toListEv)
    t._ZNK4QSetI7QStringE6toListEv.clean     0x0001c5e2   Section       10  qservicemanager.o(t._ZNK4QSetI7QStringE6toListEv.clean)
    t._ZNK5QHashI5QUuidP7QObjectE4keysEv     0x0001c5ec   Section      120  instancemanager.o(t._ZNK5QHashI5QUuidP7QObjectE4keysEv)
    t._ZNK5QHashI5QUuidP7QObjectE4keysEv.clean 0x0001c664   Section       10  instancemanager.o(t._ZNK5QHashI5QUuidP7QObjectE4keysEv.clean)
    t._ZNK5QHashI5QUuidP7QObjectE8findNodeERKS0_Pj 0x0001c66e   Section      202  instancemanager.o(t._ZNK5QHashI5QUuidP7QObjectE8findNodeERKS0_Pj)
    t._ZNK5QHashI5QUuidP7QObjectE8findNodeERKS0_Pj.clean 0x0001c738   Section       10  instancemanager.o(t._ZNK5QHashI5QUuidP7QObjectE8findNodeERKS0_Pj.clean)
    t._ZNK5QHashI5QUuidPN10QtMobility8ResponseEE5valueERKS0_ 0x0001c742   Section       40  objectendpoint.o(t._ZNK5QHashI5QUuidPN10QtMobility8ResponseEE5valueERKS0_)
    t._ZNK5QHashI5QUuidPN10QtMobility8ResponseEE8findNodeERKS0_Pj 0x0001c76a   Section      202  objectendpoint.o(t._ZNK5QHashI5QUuidPN10QtMobility8ResponseEE8findNodeERKS0_Pj)
    t._ZNK5QHashI5QUuidPN10QtMobility8ResponseEE8findNodeERKS0_Pj.clean 0x0001c834   Section       10  objectendpoint.o(t._ZNK5QHashI5QUuidPN10QtMobility8ResponseEE8findNodeERKS0_Pj.clean)
    t._ZNK5QHashI7QString15QHashDummyValueE8findNodeERKS0_Pj 0x0001c83e   Section      116  servicemetadata.o(t._ZNK5QHashI7QString15QHashDummyValueE8findNodeERKS0_Pj)
    t._ZNK5QHashI7QString8QVariantE8findNodeERKS0_Pj 0x0001c8b2   Section      116  qservicecontext.o(t._ZNK5QHashI7QString8QVariantE8findNodeERKS0_Pj)
    t._ZNK5QHashI7QStringS0_E14const_iteratorneERKS2_ 0x0001c926   Section       18  qserviceinterfacedescriptor.o(t._ZNK5QHashI7QStringS0_E14const_iteratorneERKS2_)
    t._ZNK5QHashI7QStringS0_E4keysEv         0x0001c938   Section       94  qservicefilter.o(t._ZNK5QHashI7QStringS0_E4keysEv)
    t._ZNK5QHashI7QStringS0_E4keysEv.clean   0x0001c996   Section       10  qservicefilter.o(t._ZNK5QHashI7QStringS0_E4keysEv.clean)
    t._ZNK5QHashI7QStringS0_E5beginEv        0x0001c9a0   Section       44  qservicefilter.o(t._ZNK5QHashI7QStringS0_E5beginEv)
    t._ZNK5QHashI7QStringS0_E8findNodeERKS0_Pj 0x0001c9cc   Section      116  servicemetadata.o(t._ZNK5QHashI7QStringS0_E8findNodeERKS0_Pj)
    t._ZNK5QHashI7QStringS0_EeqERKS1_        0x0001ca40   Section      274  qserviceinterfacedescriptor.o(t._ZNK5QHashI7QStringS0_EeqERKS1_)
    t._ZNK5QHashI7QStringiE8containsERKS0_   0x0001cb52   Section       32  servicemetadata.o(t._ZNK5QHashI7QStringiE8containsERKS0_)
    t._ZNK5QHashI7QStringiE8findNodeERKS0_Pj 0x0001cb72   Section      116  servicemetadata.o(t._ZNK5QHashI7QStringiE8findNodeERKS0_Pj)
    t._ZNK5QHashIN10QtMobility22QRemoteServiceRegister5EntryENS0_22ServiceIdentDescriptorEE4keysEv 0x0001cbe8   Section      120  instancemanager.o(t._ZNK5QHashIN10QtMobility22QRemoteServiceRegister5EntryENS0_22ServiceIdentDescriptorEE4keysEv)
    t._ZNK5QHashIN10QtMobility22QRemoteServiceRegister5EntryENS0_22ServiceIdentDescriptorEE4keysEv.clean 0x0001cc60   Section       10  instancemanager.o(t._ZNK5QHashIN10QtMobility22QRemoteServiceRegister5EntryENS0_22ServiceIdentDescriptorEE4keysEv.clean)
    t._ZNK5QHashIN10QtMobility22QRemoteServiceRegister5EntryENS0_22ServiceIdentDescriptorEE8containsERKS2_ 0x0001cc6a   Section       32  instancemanager.o(t._ZNK5QHashIN10QtMobility22QRemoteServiceRegister5EntryENS0_22ServiceIdentDescriptorEE8containsERKS2_)
    t._ZNK5QHashIN10QtMobility22QRemoteServiceRegister5EntryENS0_22ServiceIdentDescriptorEE8findNodeERKS2_Pj 0x0001cc8a   Section      178  instancemanager.o(t._ZNK5QHashIN10QtMobility22QRemoteServiceRegister5EntryENS0_22ServiceIdentDescriptorEE8findNodeERKS2_Pj)
    t._ZNK5QHashIN10QtMobility22QRemoteServiceRegister5EntryENS0_22ServiceIdentDescriptorEE8findNodeERKS2_Pj.clean 0x0001cd3c   Section       22  instancemanager.o(t._ZNK5QHashIN10QtMobility22QRemoteServiceRegister5EntryENS0_22ServiceIdentDescriptorEE8findNodeERKS2_Pj.clean)
    t._ZNK5QHashIN10QtMobility22QRemoteServiceRegister5EntryENS0_22ServiceIdentDescriptorEEixERKS2_ 0x0001cd52   Section       62  instancemanager.o(t._ZNK5QHashIN10QtMobility22QRemoteServiceRegister5EntryENS0_22ServiceIdentDescriptorEEixERKS2_)
    t._ZNK5QHashIN10QtMobility27QServiceInterfaceDescriptor9AttributeE8QVariantE14const_iteratorneERKS5_ 0x0001cd90   Section       18  qserviceinterfacedescriptor.o(t._ZNK5QHashIN10QtMobility27QServiceInterfaceDescriptor9AttributeE8QVariantE14const_iteratorneERKS5_)
    t._ZNK5QHashIN10QtMobility27QServiceInterfaceDescriptor9AttributeE8QVariantE8findNodeERKS2_Pj 0x0001cda2   Section      100  servicemetadata.o(t._ZNK5QHashIN10QtMobility27QServiceInterfaceDescriptor9AttributeE8QVariantE8findNodeERKS2_Pj)
    t._ZNK5QHashIN10QtMobility27QServiceInterfaceDescriptor9AttributeE8QVariantEeqERKS4_ 0x0001ce06   Section      262  qserviceinterfacedescriptor.o(t._ZNK5QHashIN10QtMobility27QServiceInterfaceDescriptor9AttributeE8QVariantEeqERKS4_)
    t._ZNK5QListI10QByteArrayE4sizeEv        0x0001cf0c   Section       12  qmetaobjectbuilder.o(t._ZNK5QListI10QByteArrayE4sizeEv)
    t._ZNK5QListI23QMetaEnumBuilderPrivateE4sizeEv 0x0001cf18   Section       12  qmetaobjectbuilder.o(t._ZNK5QListI23QMetaEnumBuilderPrivateE4sizeEv)
    t._ZNK5QListI25QMetaMethodBuilderPrivateE4sizeEv 0x0001cf24   Section       12  qmetaobjectbuilder.o(t._ZNK5QListI25QMetaMethodBuilderPrivateE4sizeEv)
    t._ZNK5QListI27QMetaPropertyBuilderPrivateE4sizeEv 0x0001cf30   Section       12  qmetaobjectbuilder.o(t._ZNK5QListI27QMetaPropertyBuilderPrivateE4sizeEv)
    t._ZNK5QListI8QVariantE4sizeEv           0x0001cf3c   Section       16  objectendpoint.o(t._ZNK5QListI8QVariantE4sizeEv)
    t._ZNK5QListI8QVariantEixEi              0x0001cf4c   Section       30  qslotinvoker.o(t._ZNK5QListI8QVariantEixEi)
    t._ZNK5QListIN10QtMobility15QServicePackageEE7isEmptyEv 0x0001cf6a   Section       24  ipcendpoint.o(t._ZNK5QListIN10QtMobility15QServicePackageEE7isEmptyEv)
    t._ZNK5QListIN10QtMobility27QServiceInterfaceDescriptorEE2atEi 0x0001cf82   Section       22  servicemetadata.o(t._ZNK5QListIN10QtMobility27QServiceInterfaceDescriptorEE2atEi)
    t._ZNK5QListIPFRK11QMetaObjectvEE4sizeEv 0x0001cf98   Section       12  qmetaobjectbuilder.o(t._ZNK5QListIPFRK11QMetaObjectvEE4sizeEv)
    t._ZlsI10QByteArrayER11QDataStreamS2_RK5QListIT_E 0x0001cfa4   Section       70  qmetaobjectbuilder.o(t._ZlsI10QByteArrayER11QDataStreamS2_RK5QListIT_E)
    t._ZlsI7QStringER11QDataStreamS2_RK5QListIT_E 0x0001cfea   Section       90  qservicefilter.o(t._ZlsI7QStringER11QDataStreamS2_RK5QListIT_E)
    t._ZlsI7QStringS0_ER11QDataStreamS2_RK5QHashIT_T0_E 0x0001d044   Section      106  qservicefilter.o(t._ZlsI7QStringS0_ER11QDataStreamS2_RK5QHashIT_T0_E)
    t._ZlsI8QVariantER11QDataStreamS2_RK5QListIT_E 0x0001d0ae   Section       72  objectendpoint.o(t._ZlsI8QVariantER11QDataStreamS2_RK5QListIT_E)
    t._ZlsIN10QtMobility27QServiceInterfaceDescriptor9AttributeE8QVariantER11QDataStreamS5_RK5QHashIT_T0_E 0x0001d0f6   Section      114  qserviceinterfacedescriptor.o(t._ZlsIN10QtMobility27QServiceInterfaceDescriptor9AttributeE8QVariantER11QDataStreamS5_RK5QHashIT_T0_E)
    t._ZlsIN10QtMobility27QServiceInterfaceDescriptorEER11QDataStreamS3_RK5QListIT_E 0x0001d168   Section       80  servicemetadata.o(t._ZlsIN10QtMobility27QServiceInterfaceDescriptorEER11QDataStreamS3_RK5QListIT_E)
    t._ZlsIiER11QDataStreamS1_RK5QListIT_E   0x0001d1b8   Section       74  qmetaobjectbuilder.o(t._ZlsIiER11QDataStreamS1_RK5QListIT_E)
    t._ZrsI10QByteArrayER11QDataStreamS2_R5QListIT_E 0x0001d202   Section       94  qmetaobjectbuilder.o(t._ZrsI10QByteArrayER11QDataStreamS2_R5QListIT_E)
    t._ZrsI10QByteArrayER11QDataStreamS2_R5QListIT_E.clean 0x0001d260   Section       10  qmetaobjectbuilder.o(t._ZrsI10QByteArrayER11QDataStreamS2_R5QListIT_E.clean)
    t._ZrsI7QStringER11QDataStreamS2_R5QListIT_E 0x0001d26a   Section       94  qservicefilter.o(t._ZrsI7QStringER11QDataStreamS2_R5QListIT_E)
    t._ZrsI7QStringER11QDataStreamS2_R5QListIT_E.clean 0x0001d2c8   Section       10  qservicefilter.o(t._ZrsI7QStringER11QDataStreamS2_R5QListIT_E.clean)
    t._ZrsI7QStringS0_ER11QDataStreamS2_R5QHashIT_T0_E 0x0001d2d2   Section      188  qserviceinterfacedescriptor.o(t._ZrsI7QStringS0_ER11QDataStreamS2_R5QHashIT_T0_E)
    t._ZrsI7QStringS0_ER11QDataStreamS2_R5QHashIT_T0_E.clean 0x0001d38e   Section       16  qserviceinterfacedescriptor.o(t._ZrsI7QStringS0_ER11QDataStreamS2_R5QHashIT_T0_E.clean)
    t._ZrsI8QVariantER11QDataStreamS2_R5QListIT_E 0x0001d39e   Section       98  objectendpoint.o(t._ZrsI8QVariantER11QDataStreamS2_R5QListIT_E)
    t._ZrsI8QVariantER11QDataStreamS2_R5QListIT_E.clean 0x0001d400   Section       10  objectendpoint.o(t._ZrsI8QVariantER11QDataStreamS2_R5QListIT_E.clean)
    t._ZrsIN10QtMobility27QServiceInterfaceDescriptor9AttributeE8QVariantER11QDataStreamS5_R5QHashIT_T0_E 0x0001d40a   Section      274  qserviceinterfacedescriptor.o(t._ZrsIN10QtMobility27QServiceInterfaceDescriptor9AttributeE8QVariantER11QDataStreamS5_R5QHashIT_T0_E)
    t._ZrsIN10QtMobility27QServiceInterfaceDescriptor9AttributeE8QVariantER11QDataStreamS5_R5QHashIT_T0_E.clean 0x0001d51c   Section       24  qserviceinterfacedescriptor.o(t._ZrsIN10QtMobility27QServiceInterfaceDescriptor9AttributeE8QVariantER11QDataStreamS5_R5QHashIT_T0_E.clean)
    t._ZrsIN10QtMobility27QServiceInterfaceDescriptorEER11QDataStreamS3_R5QListIT_E 0x0001d534   Section       94  servicemetadata.o(t._ZrsIN10QtMobility27QServiceInterfaceDescriptorEER11QDataStreamS3_R5QListIT_E)
    t._ZrsIN10QtMobility27QServiceInterfaceDescriptorEER11QDataStreamS3_R5QListIT_E.clean 0x0001d592   Section       10  servicemetadata.o(t._ZrsIN10QtMobility27QServiceInterfaceDescriptorEER11QDataStreamS3_R5QListIT_E.clean)
    t._ZrsIiER11QDataStreamS1_R5QListIT_E    0x0001d59c   Section       74  qmetaobjectbuilder.o(t._ZrsIiER11QDataStreamS1_R5QListIT_E)
    .extab._ZN10QtMobility15ServiceMetaDataC1ERK7QString 0x0001d5e8   Data           0  servicemetadata.o(.ARM.extab)
    .extab._ZN10QtMobility15ServiceMetaDataC1EP9QIODevice 0x0001d630   Data           0  servicemetadata.o(.ARM.extab)
    .extab._ZN10QtMobility15ServiceMetaDataD1Ev 0x0001d668   Data           0  servicemetadata.o(.ARM.extab)
    .extab._ZN10QtMobility15ServiceMetaData13clearMetadataEv 0x0001d6a8   Data           0  servicemetadata.o(.ARM.extab)
    .extab._ZNK10QtMobility15ServiceMetaData12checkVersionERK7QString 0x0001d6c8   Data           0  servicemetadata.o(.ARM.extab)
    .extab._ZNK10QtMobility15ServiceMetaData16transformVersionERK7QStringPiS4_ 0x0001d6f0   Data           0  servicemetadata.o(.ARM.extab)
    .extab._ZN10QtMobility15ServiceMetaData22latestInterfaceVersionERK7QString 0x0001d718   Data           0  servicemetadata.o(.ARM.extab)
    .extab._ZN10QtMobility15ServiceMetaData23processInterfaceElementER16QXmlStreamReader 0x0001d750   Data           0  servicemetadata.o(.ARM.extab)
    .extab._ZN10QtMobility15ServiceMetaData21processServiceElementER16QXmlStreamReader 0x0001d9b8   Data           0  servicemetadata.o(.ARM.extab)
    .extab._ZN10QtMobility15ServiceMetaData21processVersionElementER16QXmlStreamReader 0x0001da48   Data           0  servicemetadata.o(.ARM.extab)
    .extab._ZN10QtMobility15ServiceMetaData15extractMetadataEv 0x0001dab8   Data           0  servicemetadata.o(.ARM.extab)
    .extab._ZNK10QtMobility15ServiceMetaData16latestInterfacesEv 0x0001dc70   Data           0  servicemetadata.o(.ARM.extab)
    .extab._ZNK10QtMobility15ServiceMetaData12parseResultsEv 0x0001dc80   Data           0  servicemetadata.o(.ARM.extab)
    .extab._ZplRK7QStringS1_                 0x0001dcc0   Data           0  servicemetadata.o(.ARM.extab)
    .extab._Z23qStringComparisonHelperRK10QStringRefPKc 0x0001dcd0   Data           0  servicemetadata.o(.ARM.extab)
    .extab._ZN5QListIN10QtMobility27QServiceInterfaceDescriptorEE14node_constructEPNS2_4NodeERKS1_ 0x0001dce0   Data           0  servicemetadata.o(.ARM.extab)
    .extab._ZN5QListIN10QtMobility27QServiceInterfaceDescriptorEE9node_copyEPNS2_4NodeES4_S4_ 0x0001dcf0   Data           0  servicemetadata.o(.ARM.extab)
    .extab._ZN5QListIN10QtMobility27QServiceInterfaceDescriptorEE18detach_helper_growEii 0x0001dd14   Data           0  servicemetadata.o(.ARM.extab)
    .extab._ZN5QListIN10QtMobility27QServiceInterfaceDescriptorEE6appendERKS1_ 0x0001dd44   Data           0  servicemetadata.o(.ARM.extab)
    .extab._ZN5QListIN10QtMobility27QServiceInterfaceDescriptorEE13detach_helperEi 0x0001dd74   Data           0  servicemetadata.o(.ARM.extab)
    .extab._ZN5QListIN10QtMobility27QServiceInterfaceDescriptorEE5clearEv 0x0001dd90   Data           0  servicemetadata.o(.ARM.extab)
    .extab._ZrsIN10QtMobility27QServiceInterfaceDescriptorEER11QDataStreamS3_R5QListIT_E 0x0001dda0   Data           0  servicemetadata.o(.ARM.extab)
    .extab._ZN7QString5clearEv               0x0001ddb0   Data           0  servicemetadata.o(.ARM.extab)
    .extab._ZNK20QXmlStreamAttributes12hasAttributeERK7QString 0x0001ddc0   Data           0  servicemetadata.o(.ARM.extab)
    .extab._ZN6QDebuglsEPKc                  0x0001ddd0   Data           0  servicemetadata.o(.ARM.extab)
    .extab._ZN9QHashNodeI7QStringS0_EC1ERKS0_S3_ 0x0001dde0   Data           0  servicemetadata.o(.ARM.extab)
    .extab._ZN5QHashIN10QtMobility27QServiceInterfaceDescriptor9AttributeE8QVariantEixERKS2_ 0x0001ddf0   Data           0  servicemetadata.o(.ARM.extab)
    .extab._ZN5QHashI7QStringiEixERKS0_      0x0001de10   Data           0  servicemetadata.o(.ARM.extab)
    .extab._ZN10QtMobility22ServiceMetaDataResultsD1Ev 0x0001de28   Data           0  servicemetadata.o(.ARM.extab)
    .extab._ZN5QHashI7QStringiE13duplicateNodeEPN9QHashData4NodeEPv 0x0001de50   Data           0  servicemetadata.o(.ARM.extab)
    .extab._ZN5QHashI7QString15QHashDummyValueE13duplicateNodeEPN9QHashData4NodeEPv 0x0001de60   Data           0  servicemetadata.o(.ARM.extab)
    .extab._ZN5QHashIN10QtMobility27QServiceInterfaceDescriptor9AttributeE8QVariantE13duplicateNodeEPN9QHashData4NodeEPv 0x0001de70   Data           0  servicemetadata.o(.ARM.extab)
    .extab._ZN5QHashI7QString15QHashDummyValueE6insertERKS0_RKS1_ 0x0001de80   Data           0  servicemetadata.o(.ARM.extab)
    .extab._ZN5QHashI7QStringS0_E11deleteNode2EPN9QHashData4NodeE 0x0001de90   Data           0  servicemetadata.o(.ARM.extab)
    .extab._ZN5QHashI7QStringS0_E13duplicateNodeEPN9QHashData4NodeEPv 0x0001dea0   Data           0  servicemetadata.o(.ARM.extab)
    .extab._ZN5QHashI7QStringS0_EixERKS0_    0x0001deb0   Data           0  servicemetadata.o(.ARM.extab)
    .extab._ZN10QtMobility15QServiceManagerC1EP7QObject 0x0001ded0   Data           0  qservicemanager.o(.ARM.extab)
    .extab._ZN10QtMobility15QServiceManagerC1ENS_8QService5ScopeEP7QObject 0x0001def0   Data           0  qservicemanager.o(.ARM.extab)
    .extab._ZN10QtMobility15QServiceManagerD1Ev 0x0001df08   Data           0  qservicemanager.o(.ARM.extab)
    .extab._ZNK10QtMobility15QServiceManager12findServicesERK7QString 0x0001df18   Data           0  qservicemanager.o(.ARM.extab)
    .extab._ZNK10QtMobility15QServiceManager14findInterfacesERKNS_14QServiceFilterE 0x0001df38   Data           0  qservicemanager.o(.ARM.extab)
    .extab._ZNK10QtMobility15QServiceManager14findInterfacesERK7QString 0x0001df50   Data           0  qservicemanager.o(.ARM.extab)
    .extab._ZNK10QtMobility15QServiceManager16interfaceDefaultERK7QString 0x0001df60   Data           0  qservicemanager.o(.ARM.extab)
    .extab._ZN10QtMobility34qservicemanager_resolveLibraryPathERK7QString 0x0001df78   Data           0  qservicemanager.o(.ARM.extab)
    .extab._ZN10QtMobility15QServiceManager13loadInterfaceERKNS_27QServiceInterfaceDescriptorEPNS_15QServiceContextEPNS_24QAbstractSecuritySessionE 0x0001e030   Data           0  qservicemanager.o(.ARM.extab)
    .extab._ZN10QtMobility15QServiceManager13loadInterfaceERK7QStringPNS_15QServiceContextEPNS_24QAbstractSecuritySessionE 0x0001e1d8   Data           0  qservicemanager.o(.ARM.extab)
    .extab._ZN10QtMobility15QServiceManager10addServiceEP9QIODevice 0x0001e1e8   Data           0  qservicemanager.o(.ARM.extab)
    .extab._ZN10QtMobility15QServiceManager10addServiceERK7QString 0x0001e258   Data           0  qservicemanager.o(.ARM.extab)
    .extab._ZN10QtMobility15QServiceManager13removeServiceERK7QString 0x0001e268   Data           0  qservicemanager.o(.ARM.extab)
    .extab._ZNK13QLatin1StringeqEPKc         0x0001e320   Data           0  qservicemanager.o(.ARM.extab)
    .extab._ZN5QListI7QStringE9node_copyEPNS1_4NodeES3_S3_ 0x0001e330   Data           0  qservicemanager.o(.ARM.extab)
    .extab._ZN5QListI7QStringE13detach_helperEi 0x0001e354   Data           0  qservicemanager.o(.ARM.extab)
    .extab._ZN5QListI7QStringE14node_constructEPNS1_4NodeERKS0_ 0x0001e370   Data           0  qservicemanager.o(.ARM.extab)
    .extab._ZN5QListI7QStringE18detach_helper_growEii 0x0001e380   Data           0  qservicemanager.o(.ARM.extab)
    .extab._ZN5QListI7QStringE6appendERKS0_  0x0001e3b0   Data           0  qservicemanager.o(.ARM.extab)
    .extab._ZN10QtMobility22QServiceManagerPrivateC1EPNS_15QServiceManagerE 0x0001e3e0   Data           0  qservicemanager.o(.ARM.extab)
    .extab._ZNK4QSetI7QStringE6toListEv      0x0001e400   Data           0  qservicemanager.o(.ARM.extab)
    .extab._ZN10QtMobility21QServicePluginCleanupD1Ev 0x0001e410   Data           0  qservicemanager.o(.ARM.extab)
    .extab._ZN10QtMobility22QServiceManagerPrivateD1Ev 0x0001e420   Data           0  qservicemanager.o(.ARM.extab)
    .extab._ZplRK7QString5QChar              0x0001e430   Data           0  qservicemanager.o(.ARM.extab)
    .extab._ZN10QtMobility15QServiceContext11qt_metacallEN11QMetaObject4CallEiPPv 0x0001e440   Data           0  qservicecontext.o(.ARM.extab)
    .extab._ZN10QtMobility15QServiceContextC2EP7QObject 0x0001e458   Data           0  qservicecontext.o(.ARM.extab)
    .extab._ZN10QtMobility15QServiceContextD2Ev 0x0001e490   Data           0  qservicecontext.o(.ARM.extab)
    .extab._ZN10QtMobility15QServiceContext15resetClientDataEv 0x0001e4a8   Data           0  qservicecontext.o(.ARM.extab)
    .extab._ZN9QHashNodeI7QString8QVariantEC1ERKS0_RKS1_ 0x0001e4b8   Data           0  qservicecontext.o(.ARM.extab)
    .extab._ZN5QHashI7QString8QVariantE11deleteNode2EPN9QHashData4NodeE 0x0001e4c8   Data           0  qservicecontext.o(.ARM.extab)
    .extab._ZN5QHashI7QString8QVariantE13duplicateNodeEPN9QHashData4NodeEPv 0x0001e4d8   Data           0  qservicecontext.o(.ARM.extab)
    .extab._ZN5QHashI7QString8QVariantEixERKS0_ 0x0001e4e8   Data           0  qservicecontext.o(.ARM.extab)
    .extab._ZN10QtMobility24ServiceContextClientDataD1Ev 0x0001e508   Data           0  qservicecontext.o(.ARM.extab)
    .extab._ZN10QtMobility27QServiceInterfaceDescriptoraSERKS0_ 0x0001e518   Data           0  qserviceinterfacedescriptor.o(.ARM.extab)
    .extab._ZNK10QtMobility27QServiceInterfaceDescriptor11serviceNameEv 0x0001e528   Data           0  qserviceinterfacedescriptor.o(.ARM.extab)
    .extab._ZNK10QtMobility27QServiceInterfaceDescriptor13interfaceNameEv 0x0001e538   Data           0  qserviceinterfacedescriptor.o(.ARM.extab)
    .extab._ZNK10QtMobility27QServiceInterfaceDescriptor15customAttributeERK7QString 0x0001e548   Data           0  qserviceinterfacedescriptor.o(.ARM.extab)
    .extab._ZNK10QtMobility27QServiceInterfaceDescriptor16customAttributesEv 0x0001e558   Data           0  qserviceinterfacedescriptor.o(.ARM.extab)
    .extab._ZN10QtMobilitylsE6QDebugRKNS_27QServiceInterfaceDescriptorE 0x0001e568   Data           0  qserviceinterfacedescriptor.o(.ARM.extab)
    .extab._ZN10QtMobilityrsER11QDataStreamRNS_27QServiceInterfaceDescriptorE 0x0001e5c0   Data           0  qserviceinterfacedescriptor.o(.ARM.extab)
    .extab._ZN5QHashIN10QtMobility27QServiceInterfaceDescriptor9AttributeE8QVariantE5clearEv 0x0001e5e8   Data           0  qserviceinterfacedescriptor.o(.ARM.extab)
    .extab._ZrsIN10QtMobility27QServiceInterfaceDescriptor9AttributeE8QVariantER11QDataStreamS5_R5QHashIT_T0_E 0x0001e5f8   Data           0  qserviceinterfacedescriptor.o(.ARM.extab)
    .extab._ZN5QHashI7QStringS0_E5clearEv    0x0001e618   Data           0  qserviceinterfacedescriptor.o(.ARM.extab)
    .extab._ZN5QHashI7QStringS0_E10createNodeEjRKS0_S3_PP9QHashNodeIS0_S0_E 0x0001e628   Data           0  qserviceinterfacedescriptor.o(.ARM.extab)
    .extab._ZrsI7QStringS0_ER11QDataStreamS2_R5QHashIT_T0_E 0x0001e640   Data           0  qserviceinterfacedescriptor.o(.ARM.extab)
    .extab._ZN10QtMobility34QServiceInterfaceDescriptorPrivateC1Ev 0x0001e660   Data           0  qserviceinterfacedescriptor.o(.ARM.extab)
    .extab._ZN10QtMobility34QServiceInterfaceDescriptorPrivateD1Ev 0x0001e680   Data           0  qserviceinterfacedescriptor.o(.ARM.extab)
    .extab._ZN10QtMobility14QServiceFilterC1Ev 0x0001e6a0   Data           0  qservicefilter.o(.ARM.extab)
    .extab._ZN10QtMobility14QServiceFilterD1Ev 0x0001e6b0   Data           0  qservicefilter.o(.ARM.extab)
    .extab._ZN10QtMobility14QServiceFilterC1ERKS0_ 0x0001e6d0   Data           0  qservicefilter.o(.ARM.extab)
    .extab._ZN10QtMobility14QServiceFilter12setInterfaceERK7QStringS3_NS0_16VersionMatchRuleE 0x0001e6e0   Data           0  qservicefilter.o(.ARM.extab)
    .extab._ZN10QtMobility14QServiceFilterC1ERK7QStringS3_NS0_16VersionMatchRuleE 0x0001e720   Data           0  qservicefilter.o(.ARM.extab)
    .extab._ZNK10QtMobility14QServiceFilter16customAttributesEv 0x0001e730   Data           0  qservicefilter.o(.ARM.extab)
    .extab._ZN10QtMobilityrsER11QDataStreamRNS_14QServiceFilterE 0x0001e740   Data           0  qservicefilter.o(.ARM.extab)
    .extab._ZN5QListI7QStringE5clearEv       0x0001e758   Data           0  qservicefilter.o(.ARM.extab)
    .extab._ZrsI7QStringER11QDataStreamS2_R5QListIT_E 0x0001e768   Data           0  qservicefilter.o(.ARM.extab)
    .extab._ZN10QtMobility21QServiceFilterPrivateC1Ev 0x0001e778   Data           0  qservicefilter.o(.ARM.extab)
    .extab._ZNK5QHashI7QStringS0_E4keysEv    0x0001e798   Data           0  qservicefilter.o(.ARM.extab)
    .extab._ZN5QHashI7QStringS0_E6removeERKS0_ 0x0001e7a8   Data           0  qservicefilter.o(.ARM.extab)
    .extab._ZN10QtMobility7DBErrorC1Ev       0x0001e7bc   Data           0  dberror.o(.ARM.extab)
    .extab._ZN7QStringaSEPKc                 0x0001e7dc   Data           0  dberror.o(.ARM.extab)
    .extab._ZN10QtMobility22QRemoteServiceRegisterC1EP7QObject 0x0001e7ec   Data           0  qremoteserviceregister.o(.ARM.extab)
    .extab._ZN10QtMobility22QRemoteServiceRegister5EntryC1Ev 0x0001e7fc   Data           0  qremoteserviceregister.o(.ARM.extab)
    .extab._ZN10QtMobility22QRemoteServiceRegister11createEntryERK7QStringS3_S3_PFP7QObjectvEPK11QMetaObject 0x0001e824   Data           0  qremoteserviceregister.o(.ARM.extab)
    .extab._ZN10QtMobilitylsE6QDebugRKNS_22QRemoteServiceRegister5EntryE 0x0001e84c   Data           0  qremoteserviceregister.o(.ARM.extab)
    .extab._ZN10QtMobility34QRemoteServiceRegisterEntryPrivateD1Ev 0x0001e87c   Data           0  qremoteserviceregister.o(.ARM.extab)
    .extab._ZN10QtMobility23RDatabaseManagerSession11StartServerEv 0x0001e894   Data           0  databasemanager_symbian.o(.ARM.extab)
    .extab._ZN10QtMobility23RDatabaseManagerSession15RegisterServiceERNS_22ServiceMetaDataResultsE 0x0001e8a0   Data           0  databasemanager_symbian.o(.ARM.extab)
    .extab._ZN10QtMobility23RDatabaseManagerSession10InterfacesERKNS_14QServiceFilterE 0x0001e8c0   Data           0  databasemanager_symbian.o(.ARM.extab)
    .extab._ZN10QtMobility23RDatabaseManagerSession12ServiceNamesERK7QString 0x0001e908   Data           0  databasemanager_symbian.o(.ARM.extab)
    .extab._ZN10QtMobility23RDatabaseManagerSession16InterfaceDefaultERK7QString 0x0001e930   Data           0  databasemanager_symbian.o(.ARM.extab)
    .extab._ZN10QtMobility23RDatabaseManagerSession19SetInterfaceDefaultERKNS_27QServiceInterfaceDescriptorE 0x0001e958   Data           0  databasemanager_symbian.o(.ARM.extab)
    .extab._ZN10QtMobility23RDatabaseManagerSession9LastErrorEv 0x0001e978   Data           0  databasemanager_symbian.o(.ARM.extab)
    .extab._ZN10QtMobility28DatabaseManagerSignalMonitorC1ERNS_15DatabaseManagerERNS_23RDatabaseManagerSessionE 0x0001e998   Data           0  databasemanager_symbian.o(.ARM.extab)
    .extab._ZN10QtMobility15DatabaseManagerC1Ev 0x0001e9a8   Data           0  databasemanager_symbian.o(.ARM.extab)
    .extab._ZN10QtMobility15DatabaseManagerD1Ev 0x0001e9c0   Data           0  databasemanager_symbian.o(.ARM.extab)
    .extab._ZN10QtMobility28DatabaseManagerSignalMonitorD1Ev 0x0001e9d0   Data           0  databasemanager_symbian.o(.ARM.extab)
    .extab._ZN10QtMobility28DatabaseManagerSignalMonitor4RunLEv 0x0001e9e0   Data           0  databasemanager_symbian.o(.ARM.extab)
    .extab._ZN5CBasenwEj                     0x0001e9f0   Data           0  databasemanager_symbian.o(.ARM.extab)
    .extab._ZN10QtMobility22ServiceMessageListenerC1EPNS_15RServiceSessionEPNS_21SymbianClientEndPointE 0x0001ea00   Data           0  qremoteserviceregister_s60.o(.ARM.extab)
    .extab._ZN10QtMobility15RServiceSession11StartServerEv 0x0001ea18   Data           0  qremoteserviceregister_s60.o(.ARM.extab)
    .extab._ZN10QtMobility15RServiceSessionC1E7QString 0x0001ea2c   Data           0  qremoteserviceregister_s60.o(.ARM.extab)
    .extab._ZN10QtMobility29QRemoteServiceRegisterPrivate15proxyForServiceERKNS_22QRemoteServiceRegister5EntryERK7QString 0x0001ea44   Data           0  qremoteserviceregister_s60.o(.ARM.extab)
    .extab._ZN10QtMobility29QRemoteServiceRegisterPrivate22constructPrivateObjectEP7QObject 0x0001ea8c   Data           0  qremoteserviceregister_s60.o(.ARM.extab)
    .extab._ZN10QtMobility15RServiceSessionD1Ev 0x0001ea9c   Data           0  qremoteserviceregister_s60.o(.ARM.extab)
    .extab._ZN10QtMobility15RServiceSession18SendServicePackageERKNS_15QServicePackageE 0x0001eab4   Data           0  qremoteserviceregister_s60.o(.ARM.extab)
    .extab._ZN10QtMobility36QRemoteServiceRegisterSymbianPrivate15processIncomingEPNS_29CServiceProviderServerSessionE 0x0001ead4   Data           0  qremoteserviceregister_s60.o(.ARM.extab)
    .extab._ZN10QtMobility29CServiceProviderServerSessionC1ERNS_22CServiceProviderServerE 0x0001eaf4   Data           0  qremoteserviceregister_s60.o(.ARM.extab)
    .extab._ZN10QtMobility29CServiceProviderServerSessionD1Ev 0x0001eb14   Data           0  qremoteserviceregister_s60.o(.ARM.extab)
    .extab._ZN10QtMobility29CServiceProviderServerSession19SendServicePackageLERKNS_15QServicePackageE 0x0001eb34   Data           0  qremoteserviceregister_s60.o(.ARM.extab)
    .extab._ZN10QtMobility29CServiceProviderServerSession21HandlePackageRequestLERK9RMessage2 0x0001eb6c   Data           0  qremoteserviceregister_s60.o(.ARM.extab)
    .extab._ZN10QtMobility29CServiceProviderServerSession21HandleServicePackageLERK9RMessage2 0x0001eb84   Data           0  qremoteserviceregister_s60.o(.ARM.extab)
    .extab._ZN10QtMobility36QRemoteServiceRegisterSymbianPrivateD1Ev 0x0001ebec   Data           0  qremoteserviceregister_s60.o(.ARM.extab)
    .extab._ZN10QtMobility36QRemoteServiceRegisterSymbianPrivate15publishServicesERK7QString 0x0001ebfc   Data           0  qremoteserviceregister_s60.o(.ARM.extab)
    .extab._ZN10QtMobility22ServiceMessageListenerD1Ev 0x0001ec0c   Data           0  qremoteserviceregister_s60.o(.ARM.extab)
    .extab._ZN10QtMobility22ServiceMessageListener4RunLEv 0x0001ec24   Data           0  qremoteserviceregister_s60.o(.ARM.extab)
    .extab._ZN6QDebugC1E9QtMsgType           0x0001ec54   Data           0  qremoteserviceregister_s60.o(.ARM.extab)
    .extab._ZN6QDebugD1Ev                    0x0001ec6c   Data           0  qremoteserviceregister_s60.o(.ARM.extab)
    .extab._ZN5QListIN10QtMobility15QServicePackageEE9node_copyEPNS2_4NodeES4_S4_ 0x0001ec90   Data           0  qremoteserviceregister_s60.o(.ARM.extab)
    .extab._ZN5QListIN10QtMobility15QServicePackageEE13detach_helperEi 0x0001ecb4   Data           0  qremoteserviceregister_s60.o(.ARM.extab)
    .extab._ZN5QListIN10QtMobility15QServicePackageEE14node_constructEPNS2_4NodeERKS1_ 0x0001ecd0   Data           0  qremoteserviceregister_s60.o(.ARM.extab)
    .extab._ZN5QListIN10QtMobility15QServicePackageEE18detach_helper_growEii 0x0001ece0   Data           0  qremoteserviceregister_s60.o(.ARM.extab)
    .extab._ZN5QListIN10QtMobility15QServicePackageEE6appendERKS1_ 0x0001ed10   Data           0  qremoteserviceregister_s60.o(.ARM.extab)
    .extab._ZN10QtMobility21SymbianServerEndPointD1Ev 0x0001ed40   Data           0  qremoteserviceregister_s60.o(.ARM.extab)
    .extab._ZN10QtMobility21SymbianServerEndPoint12flushPackageERKNS_15QServicePackageE 0x0001ed50   Data           0  qremoteserviceregister_s60.o(.ARM.extab)
    .extab._ZN10QtMobility12openRequestsEv   0x0001ed88   Data           0  objectendpoint.o(.ARM.extab)
    .extab._ZN10QtMobility14ObjectEndPoint12propertyCallERKNS_15QServicePackageE 0x0001eda0   Data           0  objectendpoint.o(.ARM.extab)
    .extab._ZN10QtMobility14ObjectEndPoint10methodCallERKNS_15QServicePackageE 0x0001ee20   Data           0  objectendpoint.o(.ARM.extab)
    .extab._ZN10QtMobility14ObjectEndPoint13objectRequestERKNS_15QServicePackageE 0x0001eee0   Data           0  objectendpoint.o(.ARM.extab)
    .extab._ZN10QtMobility14ObjectEndPoint15newPackageReadyEv 0x0001efd8   Data           0  objectendpoint.o(.ARM.extab)
    .extab._ZN10QtMobility14ObjectEndPointC1ENS0_4TypeEPNS_19QServiceIpcEndPointEP7QObject 0x0001f000   Data           0  objectendpoint.o(.ARM.extab)
    .extab._ZN10QtMobility14ObjectEndPointD1Ev 0x0001f030   Data           0  objectendpoint.o(.ARM.extab)
    .extab._ZN10QtMobility14ObjectEndPoint15waitForResponseERK5QUuid 0x0001f048   Data           0  objectendpoint.o(.ARM.extab)
    .extab._ZN10QtMobility14ObjectEndPoint14constructProxyERKNS_22QRemoteServiceRegister5EntryE 0x0001f070   Data           0  objectendpoint.o(.ARM.extab)
    .extab._ZN10QtMobility14ObjectEndPoint12invokeRemoteEiRK5QListI8QVariantEi 0x0001f0c8   Data           0  objectendpoint.o(.ARM.extab)
    .extab._ZN10QtMobility14ObjectEndPoint20invokeRemotePropertyEiRK8QVariantiN11QMetaObject4CallE 0x0001f180   Data           0  objectendpoint.o(.ARM.extab)
    .extab._ZN5QListI8QVariantE14node_constructEPNS1_4NodeERKS0_ 0x0001f238   Data           0  objectendpoint.o(.ARM.extab)
    .extab._ZN5QListI8QVariantE9node_copyEPNS1_4NodeES3_S3_ 0x0001f248   Data           0  objectendpoint.o(.ARM.extab)
    .extab._ZN5QListI8QVariantE18detach_helper_growEii 0x0001f26c   Data           0  objectendpoint.o(.ARM.extab)
    .extab._ZN5QListI8QVariantE6appendERKS0_ 0x0001f29c   Data           0  objectendpoint.o(.ARM.extab)
    .extab._ZN5QListI8QVariantE13detach_helperEi 0x0001f2cc   Data           0  objectendpoint.o(.ARM.extab)
    .extab._ZN5QListI8QVariantE5clearEv      0x0001f2e8   Data           0  objectendpoint.o(.ARM.extab)
    .extab._ZrsI8QVariantER11QDataStreamS2_R5QListIT_E 0x0001f2f8   Data           0  objectendpoint.o(.ARM.extab)
    .extab._ZNK5QHashI5QUuidPN10QtMobility8ResponseEE8findNodeERKS0_Pj 0x0001f308   Data           0  objectendpoint.o(.ARM.extab)
    .extab._ZN5QHashI5QUuidPN10QtMobility8ResponseEE4takeERKS0_ 0x0001f318   Data           0  objectendpoint.o(.ARM.extab)
    .extab._ZN5QHashI5QUuidPN10QtMobility8ResponseEE6insertERKS0_RKS3_ 0x0001f32c   Data           0  objectendpoint.o(.ARM.extab)
    .extab._ZN10QtMobility22QServicePackagePrivateC1Ev 0x0001f344   Data           0  objectendpoint.o(.ARM.extab)
    .extab._ZN10QtMobility21ObjectEndPointPrivate23setupSignalInterceptersEP7QObject 0x0001f374   Data           0  objectendpoint.o(.ARM.extab)
    .extab._ZN5QHashI5QUuidPN10QtMobility8ResponseEE13duplicateNodeEPN9QHashData4NodeEPv 0x0001f3a4   Data           0  objectendpoint.o(.ARM.extab)
    .extab._ZN10QtMobility22QServicePackagePrivate5cleanEv 0x0001f3b4   Data           0  objectendpoint.o(.ARM.extab)
    .extab._ZN10QtMobility12QSlotInvoker6invokeERK5QListI8QVariantE 0x0001f3cc   Data           0  qslotinvoker.o(.ARM.extab)
    .extab._ZN10QtMobility12QSlotInvoker11qt_metacallEN11QMetaObject4CallEiPPv 0x0001f41c   Data           0  qslotinvoker.o(.ARM.extab)
    .extab._ZN10QtMobility12QSlotInvokerC1EP7QObjectRK10QByteArrayS2_ 0x0001f42c   Data           0  qslotinvoker.o(.ARM.extab)
    .extab._ZN10QtMobility12QSlotInvokerD1Ev 0x0001f48c   Data           0  qslotinvoker.o(.ARM.extab)
    .extab._ZN10QtMobility18QSignalIntercepter15connectionTypesERK10QByteArrayRi 0x0001f4a4   Data           0  qsignalintercepter.o(.ARM.extab)
    .extab._ZN10QtMobility18QSignalIntercepterC2EP7QObjectRK10QByteArrayS2_ 0x0001f4b4   Data           0  qsignalintercepter.o(.ARM.extab)
    .extab._ZN10QtMobility18QSignalIntercepterD2Ev 0x0001f4f4   Data           0  qsignalintercepter.o(.ARM.extab)
    .extab._ZN10QtMobility18QSignalIntercepter11qt_metacallEN11QMetaObject4CallEiPPv 0x0001f50c   Data           0  qsignalintercepter.o(.ARM.extab)
    .extab._Z19buildParameterNamesRK10QByteArrayRK5QListIS_E 0x0001f52c   Data           0  qmetaobjectbuilder.o(.ARM.extab)
    .extab._Z16resolveClassNameRK4QMapI10QByteArrayPK11QMetaObjectERKS0_ 0x0001f554   Data           0  qmetaobjectbuilder.o(.ARM.extab)
    .extab._ZN18QMetaObjectBuilderC1Ev       0x0001f564   Data           0  qmetaobjectbuilder.o(.ARM.extab)
    .extab._ZN18QMetaObjectBuilder13addEnumeratorERK10QByteArray 0x0001f574   Data           0  qmetaobjectbuilder.o(.ARM.extab)
    .extab._ZN18QMetaObjectBuilder13addEnumeratorERK9QMetaEnum 0x0001f594   Data           0  qmetaobjectbuilder.o(.ARM.extab)
    .extab._ZN18QMetaMethodBuilder13setReturnTypeERK10QByteArray 0x0001f5ac   Data           0  qmetaobjectbuilder.o(.ARM.extab)
    .extab._ZN18QMetaObjectBuilder14addConstructorERK10QByteArray 0x0001f5bc   Data           0  qmetaobjectbuilder.o(.ARM.extab)
    .extab._ZN18QMetaObjectBuilder7addSlotERK10QByteArray 0x0001f5dc   Data           0  qmetaobjectbuilder.o(.ARM.extab)
    .extab._ZN18QMetaObjectBuilder9addSignalERK10QByteArray 0x0001f5fc   Data           0  qmetaobjectbuilder.o(.ARM.extab)
    .extab._ZN18QMetaObjectBuilder9addMethodERK10QByteArray 0x0001f61c   Data           0  qmetaobjectbuilder.o(.ARM.extab)
    .extab._ZN18QMetaObjectBuilder9addMethodERK11QMetaMethod 0x0001f63c   Data           0  qmetaobjectbuilder.o(.ARM.extab)
    .extab._ZN18QMetaObjectBuilder13indexOfMethodERK10QByteArray 0x0001f67c   Data           0  qmetaobjectbuilder.o(.ARM.extab)
    .extab._ZN18QMetaObjectBuilder11addPropertyERK10QByteArrayS2_i 0x0001f694   Data           0  qmetaobjectbuilder.o(.ARM.extab)
    .extab._ZN18QMetaObjectBuilder11addPropertyERK13QMetaProperty 0x0001f6bc   Data           0  qmetaobjectbuilder.o(.ARM.extab)
    .extab._ZN18QMetaObjectBuilder14addConstructorERK11QMetaMethod 0x0001f6e4   Data           0  qmetaobjectbuilder.o(.ARM.extab)
    .extab._ZN18QMetaObjectBuilder13addMetaObjectEPK11QMetaObject6QFlagsINS_9AddMemberEE 0x0001f70c   Data           0  qmetaobjectbuilder.o(.ARM.extab)
    .extab._ZN18QMetaObjectBuilderC1EPK11QMetaObject6QFlagsINS_9AddMemberEE 0x0001f72c   Data           0  qmetaobjectbuilder.o(.ARM.extab)
    .extab._ZN18QMetaObjectBuilder9addMethodERK10QByteArrayS2_ 0x0001f73c   Data           0  qmetaobjectbuilder.o(.ARM.extab)
    .extab._ZN18QMetaObjectBuilder13indexOfSignalERK10QByteArray 0x0001f74c   Data           0  qmetaobjectbuilder.o(.ARM.extab)
    .extab._ZN18QMetaObjectBuilder11indexOfSlotERK10QByteArray 0x0001f764   Data           0  qmetaobjectbuilder.o(.ARM.extab)
    .extab._ZN18QMetaObjectBuilder18indexOfConstructorERK10QByteArray 0x0001f77c   Data           0  qmetaobjectbuilder.o(.ARM.extab)
    .extab._ZNK18QMetaObjectBuilder17toRelocatableDataEPb 0x0001f794   Data           0  qmetaobjectbuilder.o(.ARM.extab)
    .extab._ZNK18QMetaObjectBuilder9serializeER11QDataStream 0x0001f7a4   Data           0  qmetaobjectbuilder.o(.ARM.extab)
    .extab._ZN18QMetaObjectBuilder11deserializeER11QDataStreamRK4QMapI10QByteArrayPK11QMetaObjectE 0x0001f7c4   Data           0  qmetaobjectbuilder.o(.ARM.extab)
    .extab._ZN5QListI10QByteArrayE9node_copyEPNS1_4NodeES3_S3_ 0x0001f85c   Data           0  qmetaobjectbuilder.o(.ARM.extab)
    .extab._ZN5QListI10QByteArrayE13detach_helperEi 0x0001f880   Data           0  qmetaobjectbuilder.o(.ARM.extab)
    .extab._ZN5QListIPFRK11QMetaObjectvEE13detach_helperEi 0x0001f89c   Data           0  qmetaobjectbuilder.o(.ARM.extab)
    .extab._ZN25QMetaMethodBuilderPrivateD1Ev 0x0001f8b8   Data           0  qmetaobjectbuilder.o(.ARM.extab)
    .extab._ZN25QMetaMethodBuilderPrivateC1ERKS_ 0x0001f8d8   Data           0  qmetaobjectbuilder.o(.ARM.extab)
    .extab._ZN5QListI25QMetaMethodBuilderPrivateE9node_copyEPNS1_4NodeES3_S3_ 0x0001f8f8   Data           0  qmetaobjectbuilder.o(.ARM.extab)
    .extab._ZN5QListI25QMetaMethodBuilderPrivateE13detach_helperEi 0x0001f91c   Data           0  qmetaobjectbuilder.o(.ARM.extab)
    .extab._ZN5QListIiE13detach_helperEi     0x0001f938   Data           0  qmetaobjectbuilder.o(.ARM.extab)
    .extab._ZN23QMetaEnumBuilderPrivateD1Ev  0x0001f954   Data           0  qmetaobjectbuilder.o(.ARM.extab)
    .extab._ZN23QMetaEnumBuilderPrivateC1ERKS_ 0x0001f96c   Data           0  qmetaobjectbuilder.o(.ARM.extab)
    .extab._ZN5QListI23QMetaEnumBuilderPrivateE9node_copyEPNS1_4NodeES3_S3_ 0x0001f984   Data           0  qmetaobjectbuilder.o(.ARM.extab)
    .extab._ZN5QListI23QMetaEnumBuilderPrivateE13detach_helperEi 0x0001f9a8   Data           0  qmetaobjectbuilder.o(.ARM.extab)
    .extab._ZN27QMetaPropertyBuilderPrivateC1ERKS_ 0x0001f9c4   Data           0  qmetaobjectbuilder.o(.ARM.extab)
    .extab._ZN5QListI27QMetaPropertyBuilderPrivateE9node_copyEPNS1_4NodeES3_S3_ 0x0001f9d4   Data           0  qmetaobjectbuilder.o(.ARM.extab)
    .extab._ZN5QListI27QMetaPropertyBuilderPrivateE13detach_helperEi 0x0001f9f8   Data           0  qmetaobjectbuilder.o(.ARM.extab)
    .extab._ZN5QListI10QByteArrayE14node_constructEPNS1_4NodeERKS0_ 0x0001fa14   Data           0  qmetaobjectbuilder.o(.ARM.extab)
    .extab._ZN5QListI10QByteArrayE18detach_helper_growEii 0x0001fa24   Data           0  qmetaobjectbuilder.o(.ARM.extab)
    .extab._ZN5QListI10QByteArrayE6appendERKS0_ 0x0001fa54   Data           0  qmetaobjectbuilder.o(.ARM.extab)
    .extab._ZN5QListI10QByteArrayE5clearEv   0x0001fa84   Data           0  qmetaobjectbuilder.o(.ARM.extab)
    .extab._ZrsI10QByteArrayER11QDataStreamS2_R5QListIT_E 0x0001fa94   Data           0  qmetaobjectbuilder.o(.ARM.extab)
    .extab._ZN5QListIiE18detach_helper_growEii 0x0001faa4   Data           0  qmetaobjectbuilder.o(.ARM.extab)
    .extab._ZN5QListIiE6appendERKi           0x0001fad4   Data           0  qmetaobjectbuilder.o(.ARM.extab)
    .extab._ZN5QListIiE5clearEv              0x0001faf0   Data           0  qmetaobjectbuilder.o(.ARM.extab)
    .extab._ZN25QMetaObjectBuilderPrivateC1Ev 0x0001fb00   Data           0  qmetaobjectbuilder.o(.ARM.extab)
    .extab._ZN5QListIPFRK11QMetaObjectvEE18detach_helper_growEii 0x0001fb40   Data           0  qmetaobjectbuilder.o(.ARM.extab)
    .extab._ZN5QListIPFRK11QMetaObjectvEE6appendERKS4_ 0x0001fb70   Data           0  qmetaobjectbuilder.o(.ARM.extab)
    .extab._ZN5QListI23QMetaEnumBuilderPrivateE14node_constructEPNS1_4NodeERKS0_ 0x0001fb8c   Data           0  qmetaobjectbuilder.o(.ARM.extab)
    .extab._ZN5QListI23QMetaEnumBuilderPrivateE18detach_helper_growEii 0x0001fb9c   Data           0  qmetaobjectbuilder.o(.ARM.extab)
    .extab._ZN5QListI23QMetaEnumBuilderPrivateE6appendERKS0_ 0x0001fbcc   Data           0  qmetaobjectbuilder.o(.ARM.extab)
    .extab._ZN25QMetaMethodBuilderPrivateC1EN11QMetaMethod10MethodTypeERK10QByteArrayS4_NS0_6AccessE 0x0001fbfc   Data           0  qmetaobjectbuilder.o(.ARM.extab)
    .extab._ZN5QListI25QMetaMethodBuilderPrivateE14node_constructEPNS1_4NodeERKS0_ 0x0001fc34   Data           0  qmetaobjectbuilder.o(.ARM.extab)
    .extab._ZN5QListI25QMetaMethodBuilderPrivateE18detach_helper_growEii 0x0001fc44   Data           0  qmetaobjectbuilder.o(.ARM.extab)
    .extab._ZN5QListI25QMetaMethodBuilderPrivateE6appendERKS0_ 0x0001fc74   Data           0  qmetaobjectbuilder.o(.ARM.extab)
    .extab._ZN5QListI27QMetaPropertyBuilderPrivateE14node_constructEPNS1_4NodeERKS0_ 0x0001fca4   Data           0  qmetaobjectbuilder.o(.ARM.extab)
    .extab._ZN5QListI27QMetaPropertyBuilderPrivateE18detach_helper_growEii 0x0001fcb4   Data           0  qmetaobjectbuilder.o(.ARM.extab)
    .extab._ZN5QListI27QMetaPropertyBuilderPrivateE6appendERKS0_ 0x0001fce4   Data           0  qmetaobjectbuilder.o(.ARM.extab)
    .extab._ZN5QListIPFRK11QMetaObjectvEE5clearEv 0x0001fd14   Data           0  qmetaobjectbuilder.o(.ARM.extab)
    .extab._ZN5QListI25QMetaMethodBuilderPrivateE5clearEv 0x0001fd24   Data           0  qmetaobjectbuilder.o(.ARM.extab)
    .extab._ZN5QListI23QMetaEnumBuilderPrivateE5clearEv 0x0001fd34   Data           0  qmetaobjectbuilder.o(.ARM.extab)
    .extab._ZN5QListI27QMetaPropertyBuilderPrivateE5clearEv 0x0001fd44   Data           0  qmetaobjectbuilder.o(.ARM.extab)
    .extab._ZN27QMetaPropertyBuilderPrivateD1Ev 0x0001fd54   Data           0  qmetaobjectbuilder.o(.ARM.extab)
    .extab._ZN25QMetaObjectBuilderPrivateD1Ev 0x0001fd64   Data           0  qmetaobjectbuilder.o(.ARM.extab)
    .extab._ZN10QtMobility15InstanceManagerC1EP7QObject 0x0001fda4   Data           0  instancemanager.o(.ARM.extab)
    .extab._ZN10QtMobility15InstanceManagerD1Ev 0x0001fdbc   Data           0  instancemanager.o(.ARM.extab)
    .extab._ZN10QtMobility15InstanceManager7addTypeERKNS_22QRemoteServiceRegister5EntryE 0x0001fe24   Data           0  instancemanager.o(.ARM.extab)
    .extab._ZNK10QtMobility15InstanceManager10metaObjectERKNS_22QRemoteServiceRegister5EntryE 0x0001fe94   Data           0  instancemanager.o(.ARM.extab)
    .extab._ZNK10QtMobility15InstanceManager10allEntriesEv 0x0001fea4   Data           0  instancemanager.o(.ARM.extab)
    .extab._ZNK10QtMobility15InstanceManager14totalInstancesEv 0x0001feb4   Data           0  instancemanager.o(.ARM.extab)
    .extab._ZN10QtMobility15InstanceManager20createObjectInstanceERKNS_22QRemoteServiceRegister5EntryER5QUuid 0x0001fedc   Data           0  instancemanager.o(.ARM.extab)
    .extab._ZN10QtMobility15InstanceManager20removeObjectInstanceERKNS_22QRemoteServiceRegister5EntryERK5QUuid 0x0001ff04   Data           0  instancemanager.o(.ARM.extab)
    .extab._ZN10QtMobility12typeRegisterEv   0x0001ff24   Data           0  instancemanager.o(.ARM.extab)
    .extab._ZN5QListIN10QtMobility22QRemoteServiceRegister5EntryEE9node_copyEPNS3_4NodeES5_S5_ 0x0001ff3c   Data           0  instancemanager.o(.ARM.extab)
    .extab._ZN5QListIN10QtMobility22QRemoteServiceRegister5EntryEE13detach_helperEi 0x0001ff60   Data           0  instancemanager.o(.ARM.extab)
    .extab._ZN9QHashData9hasShrunkEv         0x0001ff7c   Data           0  instancemanager.o(.ARM.extab)
    .extab._ZN5QListIN10QtMobility22QRemoteServiceRegister5EntryEE14node_constructEPNS3_4NodeERKS2_ 0x0001ff90   Data           0  instancemanager.o(.ARM.extab)
    .extab._ZN5QListIN10QtMobility22QRemoteServiceRegister5EntryEE18detach_helper_growEii 0x0001ffa0   Data           0  instancemanager.o(.ARM.extab)
    .extab._ZN5QListIN10QtMobility22QRemoteServiceRegister5EntryEE6appendERKS2_ 0x0001ffd0   Data           0  instancemanager.o(.ARM.extab)
    .extab._ZN5QListI5QUuidE9node_copyEPNS1_4NodeES3_S3_ 0x00020000   Data           0  instancemanager.o(.ARM.extab)
    .extab._ZN5QListI5QUuidE13detach_helperEi 0x00020024   Data           0  instancemanager.o(.ARM.extab)
    .extab._ZN5QListI5QUuidE14node_constructEPNS1_4NodeERKS0_ 0x00020040   Data           0  instancemanager.o(.ARM.extab)
    .extab._ZN5QListI5QUuidE18detach_helper_growEii 0x00020050   Data           0  instancemanager.o(.ARM.extab)
    .extab._ZN5QListI5QUuidE6appendERKS0_    0x00020080   Data           0  instancemanager.o(.ARM.extab)
    .extab._ZN10QtMobility22ServiceIdentDescriptorC1ERKS0_ 0x000200b0   Data           0  instancemanager.o(.ARM.extab)
    .extab._ZN9QHashNodeIN10QtMobility22QRemoteServiceRegister5EntryENS0_22ServiceIdentDescriptorEEC1ERKS2_RKS3_ 0x000200c0   Data           0  instancemanager.o(.ARM.extab)
    .extab._ZN10QtMobility22ServiceIdentDescriptorC1Ev 0x000200d0   Data           0  instancemanager.o(.ARM.extab)
    .extab._ZNK5QHashI5QUuidP7QObjectE8findNodeERKS0_Pj 0x000200e8   Data           0  instancemanager.o(.ARM.extab)
    .extab._ZNK5QHashI5QUuidP7QObjectE4keysEv 0x000200f8   Data           0  instancemanager.o(.ARM.extab)
    .extab._ZNK5QHashIN10QtMobility22QRemoteServiceRegister5EntryENS0_22ServiceIdentDescriptorEE8findNodeERKS2_Pj 0x00020108   Data           0  instancemanager.o(.ARM.extab)
    .extab._ZN5QHashIN10QtMobility22QRemoteServiceRegister5EntryENS0_22ServiceIdentDescriptorEE4takeERKS2_ 0x00020138   Data           0  instancemanager.o(.ARM.extab)
    .extab._ZNK5QHashIN10QtMobility22QRemoteServiceRegister5EntryENS0_22ServiceIdentDescriptorEE4keysEv 0x00020148   Data           0  instancemanager.o(.ARM.extab)
    .extab._ZN5QHashIN10QtMobility22QRemoteServiceRegister5EntryENS0_22ServiceIdentDescriptorEE10createNodeEjRKS2_RKS3_PP9QHashNodeIS2_S3_E 0x00020158   Data           0  instancemanager.o(.ARM.extab)
    .extab._ZN5QHashIN10QtMobility22QRemoteServiceRegister5EntryENS0_22ServiceIdentDescriptorEEixERKS2_ 0x00020170   Data           0  instancemanager.o(.ARM.extab)
    .extab._ZN10QtMobility22ServiceIdentDescriptorD1Ev 0x00020180   Data           0  instancemanager.o(.ARM.extab)
    .extab._ZN5QHashI5QUuidP7QObjectE13duplicateNodeEPN9QHashData4NodeEPv 0x00020190   Data           0  instancemanager.o(.ARM.extab)
    .extab._ZN5QHashI5QUuidP7QObjectE6insertERKS0_RKS2_ 0x000201a0   Data           0  instancemanager.o(.ARM.extab)
    .extab._ZN5QHashIN10QtMobility22QRemoteServiceRegister5EntryENS0_22ServiceIdentDescriptorEE11deleteNode2EPN9QHashData4NodeE 0x000201b8   Data           0  instancemanager.o(.ARM.extab)
    .extab._ZN5QHashIN10QtMobility22QRemoteServiceRegister5EntryENS0_22ServiceIdentDescriptorEE13duplicateNodeEPN9QHashData4NodeEPv 0x000201c8   Data           0  instancemanager.o(.ARM.extab)
    .extab._ZNK10QtMobility15QServicePackage14createResponseEv 0x000201d8   Data           0  qservicepackage.o(.ARM.extab)
    .extab._ZN10QtMobilityrsER11QDataStreamRNS_15QServicePackageE 0x000201f0   Data           0  qservicepackage.o(.ARM.extab)
    .extab._ZN10QtMobilitylsE6QDebugRKNS_15QServicePackageE 0x00020218   Data           0  qservicepackage.o(.ARM.extab)
    .extab._ZN10QtMobility22QServicePackagePrivateD1Ev 0x00020278   Data           0  qservicepackage.o(.ARM.extab)
    .extab._ZN28QExplicitlySharedDataPointerIN10QtMobility22QServicePackagePrivateEE13detach_helperEv 0x00020288   Data           0  qservicepackage.o(.ARM.extab)
    .extab._ZN10QtMobility13QServiceProxyC1ERK10QByteArrayPNS_14ObjectEndPointEP7QObject 0x000202a0   Data           0  proxyobject.o(.ARM.extab)
    .extab._ZN10QtMobility13QServiceProxyD1Ev 0x00020318   Data           0  proxyobject.o(.ARM.extab)
    .extab._ZN10QtMobility13QServiceProxy11qt_metacallEN11QMetaObject4CallEiPPv 0x00020330   Data           0  proxyobject.o(.ARM.extab)
    .extab._ZN7QVectorIbE7reallocEii         0x00020438   Data           0  proxyobject.o(.ARM.extab)
    .extab._ZN10QtMobility19QServiceIpcEndPointC2EP7QObject 0x00020454   Data           0  ipcendpoint.o(.ARM.extab)
    .extab._ZN10QtMobility19QServiceIpcEndPointD2Ev 0x00020464   Data           0  ipcendpoint.o(.ARM.extab)
    .extab._ZN10QtMobility19QServiceIpcEndPoint11nextPackageEv 0x0002047c   Data           0  ipcendpoint.o(.ARM.extab)
    .extab._ZN5QListIN10QtMobility15QServicePackageEE5clearEv 0x0002048c   Data           0  ipcendpoint.o(.ARM.extab)
    .extab._ZN10QtMobility29QRemoteServiceRegisterPrivateC2EP7QObject 0x0002049c   Data           0  qremoteserviceregister_p.o(.ARM.extab)
    .constdata$1                             0x000204ac   Data           0  servicemetadata.o(.constdata)
    .constdata                               0x000204ac   Section      140  servicemetadata.o(.constdata)
    .constdata$1                             0x00020538   Data           0  qservicemanager.o(.constdata)
    .constdata                               0x00020538   Section      704  qservicemanager.o(.constdata)
    QtMobility::qt_meta_data_QServiceManager 0x00020568   Data         100  qservicemanager.o(.constdata)
    QtMobility::qt_meta_stringdata_QServiceManager 0x000205cc   Data         114  qservicemanager.o(.constdata)
    QtMobility::qt_meta_data_QServicePluginCleanup 0x00020640   Data          60  qservicemanager.o(.constdata)
    QtMobility::qt_meta_stringdata_QServicePluginCleanup 0x0002067c   Data          23  qservicemanager.o(.constdata)
    QtMobility::qt_meta_data_QServiceManagerPrivate 0x00020694   Data         100  qservicemanager.o(.constdata)
    QtMobility::qt_meta_stringdata_QServiceManagerPrivate 0x000206f8   Data         137  qservicemanager.o(.constdata)
    .constdata$1                             0x000207f8   Data           0  qservicecontext.o(.constdata)
    .constdata                               0x000207f8   Section      145  qservicecontext.o(.constdata)
    QtMobility::qt_meta_data_QServiceContext 0x00020808   Data          84  qservicecontext.o(.constdata)
    QtMobility::qt_meta_stringdata_QServiceContext 0x0002085c   Data          45  qservicecontext.o(.constdata)
    .constdata$1                             0x0002088c   Data           0  qabstractsecuritysession.o(.constdata)
    .constdata                               0x0002088c   Section      102  qabstractsecuritysession.o(.constdata)
    QtMobility::qt_meta_data_QAbstractSecuritySession 0x0002089c   Data          60  qabstractsecuritysession.o(.constdata)
    QtMobility::qt_meta_stringdata_QAbstractSecuritySession 0x000208d8   Data          26  qabstractsecuritysession.o(.constdata)
    .constdata$1                             0x000208f4   Data           0  qserviceinterfacedescriptor.o(.constdata)
    .constdata                               0x000208f4   Section       68  qserviceinterfacedescriptor.o(.constdata)
    .constdata$1                             0x00020938   Data           0  qremoteserviceregister.o(.constdata)
    .constdata                               0x00020938   Section      356  qremoteserviceregister.o(.constdata)
    QtMobility::qt_meta_data_QRemoteServiceRegister 0x00020948   Data         112  qremoteserviceregister.o(.constdata)
    QtMobility::qt_meta_stringdata_QRemoteServiceRegister 0x000209b8   Data         128  qremoteserviceregister.o(.constdata)
    .constdata$1                             0x00020a9c   Data           0  databasemanager_symbian.o(.constdata)
    KNullDesC                                0x00020a9c   Data           8  databasemanager_symbian.o(.constdata)
    .constdata                               0x00020a9c   Section      372  databasemanager_symbian.o(.constdata)
    KDatabaseManagerServerName               0x00020aa4   Data          60  databasemanager_symbian.o(.constdata)
    KDatabaseManagerServerProcess            0x00020ae0   Data          56  databasemanager_symbian.o(.constdata)
    QtMobility::qt_meta_data_DatabaseManager 0x00020b28   Data         100  databasemanager_symbian.o(.constdata)
    QtMobility::qt_meta_stringdata_DatabaseManager 0x00020b8c   Data         132  databasemanager_symbian.o(.constdata)
    .constdata$1                             0x00020c10   Data           0  qremoteserviceregister_s60.o(.constdata)
    KNullDesC                                0x00020c10   Data           8  qremoteserviceregister_s60.o(.constdata)
    .constdata                               0x00020c10   Section      724  qremoteserviceregister_s60.o(.constdata)
    QtMobility::myRanges                     0x00020c58   Data           4  qremoteserviceregister_s60.o(.constdata)
    QtMobility::myElementsIndex              0x00020c5c   Data           1  qremoteserviceregister_s60.o(.constdata)
    QtMobility::myElements                   0x00020c60   Data          12  qremoteserviceregister_s60.o(.constdata)
    QtMobility::myPolicy                     0x00020c6c   Data          16  qremoteserviceregister_s60.o(.constdata)
    QtMobility::qt_meta_data_RServiceSession 0x00020c7c   Data         120  qremoteserviceregister_s60.o(.constdata)
    QtMobility::qt_meta_stringdata_RServiceSession 0x00020cf4   Data         137  qremoteserviceregister_s60.o(.constdata)
    QtMobility::qt_meta_data_QRemoteServiceRegisterSymbianPrivate 0x00020d80   Data          60  qremoteserviceregister_s60.o(.constdata)
    QtMobility::qt_meta_stringdata_QRemoteServiceRegisterSymbianPrivate 0x00020dbc   Data          38  qremoteserviceregister_s60.o(.constdata)
    QtMobility::qt_meta_data_SymbianClientEndPoint 0x00020de4   Data          60  qremoteserviceregister_s60.o(.constdata)
    QtMobility::qt_meta_stringdata_SymbianClientEndPoint 0x00020e20   Data          23  qremoteserviceregister_s60.o(.constdata)
    QtMobility::qt_meta_data_SymbianServerEndPoint 0x00020e38   Data          60  qremoteserviceregister_s60.o(.constdata)
    QtMobility::qt_meta_stringdata_SymbianServerEndPoint 0x00020e74   Data          23  qremoteserviceregister_s60.o(.constdata)
    .constdata$1                             0x00020ee4   Data           0  objectendpoint.o(.constdata)
    .constdata                               0x00020ee4   Section      211  objectendpoint.o(.constdata)
    QtMobility::qt_meta_data_ObjectEndPoint  0x00020ef4   Data         120  objectendpoint.o(.constdata)
    QtMobility::qt_meta_stringdata_ObjectEndPoint 0x00020f6c   Data          75  objectendpoint.o(.constdata)
    .constdata$1                             0x00020fb8   Data           0  qslotinvoker.o(.constdata)
    .constdata                               0x00020fb8   Section      189  qslotinvoker.o(.constdata)
    QtMobility::qt_meta_data_QSlotInvoker    0x00020fc8   Data         100  qslotinvoker.o(.constdata)
    QtMobility::qt_meta_stringdata_QSlotInvoker 0x0002102c   Data          73  qslotinvoker.o(.constdata)
    .constdata$1                             0x00021078   Data           0  qsignalintercepter.o(.constdata)
    .constdata                               0x00021078   Section       76  qsignalintercepter.o(.constdata)
    .constdata$1                             0x000210c4   Data           0  instancemanager.o(.constdata)
    .constdata                               0x000210c4   Section      275  instancemanager.o(.constdata)
    QtMobility::qt_meta_data_InstanceManager 0x000210d4   Data         120  instancemanager.o(.constdata)
    QtMobility::qt_meta_stringdata_InstanceManager 0x0002114c   Data         139  instancemanager.o(.constdata)
    .constdata$1                             0x000211d8   Data           0  proxyobject.o(.constdata)
    .constdata                               0x000211d8   Section       72  proxyobject.o(.constdata)
    .constdata$1                             0x00021220   Data           0  ipcendpoint.o(.constdata)
    .constdata                               0x00021220   Section      165  ipcendpoint.o(.constdata)
    QtMobility::qt_meta_data_QServiceIpcEndPoint 0x00021230   Data         100  ipcendpoint.o(.constdata)
    QtMobility::qt_meta_stringdata_QServiceIpcEndPoint 0x00021294   Data          49  ipcendpoint.o(.constdata)
    .constdata$1                             0x000212c8   Data           0  qremoteserviceregister_p.o(.constdata)
    .constdata                               0x000212c8   Section      149  qremoteserviceregister_p.o(.constdata)
    QtMobility::qt_meta_data_QRemoteServiceRegisterPrivate 0x000212d8   Data          72  qremoteserviceregister_p.o(.constdata)
    QtMobility::qt_meta_stringdata_QRemoteServiceRegisterPrivate 0x00021320   Data          61  qremoteserviceregister_p.o(.constdata)
    .constdata__ZN9stlp_priv15_Integer_limitsIaLan128ELa127ELin1ELb1EE6digitsE 0x00021360   Section        4  servicemetadata.o(.constdata__ZN9stlp_priv15_Integer_limitsIaLan128ELa127ELin1ELb1EE6digitsE)
    .constdata__ZN9stlp_priv15_Integer_limitsIbLb0ELb1ELi1ELb0EE6digitsE 0x00021364   Section        4  servicemetadata.o(.constdata__ZN9stlp_priv15_Integer_limitsIbLb0ELb1ELi1ELb0EE6digitsE)
    .constdata__ZN9stlp_priv15_Integer_limitsIcLc128ELc127ELin1ELb1EE6digitsE 0x00021368   Section        4  servicemetadata.o(.constdata__ZN9stlp_priv15_Integer_limitsIcLc128ELc127ELin1ELb1EE6digitsE)
    .constdata__ZN9stlp_priv15_Integer_limitsIhLh0ELh255ELin1ELb1EE6digitsE 0x0002136c   Section        4  servicemetadata.o(.constdata__ZN9stlp_priv15_Integer_limitsIhLh0ELh255ELin1ELb1EE6digitsE)
    .constdata__ZN9stlp_priv15_Integer_limitsIiLin2147483648ELi2147483647ELin1ELb1EE6digitsE 0x00021370   Section        4  servicemetadata.o(.constdata__ZN9stlp_priv15_Integer_limitsIiLin2147483648ELi2147483647ELin1ELb1EE6digitsE)
    .constdata__ZN9stlp_priv15_Integer_limitsIiLin2147483648ELi2147483647ELin1ELb1EE9is_signedE 0x00021374   Section        1  servicemetadata.o(.constdata__ZN9stlp_priv15_Integer_limitsIiLin2147483648ELi2147483647ELin1ELb1EE9is_signedE)
    .constdata__ZN9stlp_priv15_Integer_limitsIjLj0ELj4294967295ELin1ELb1EE6digitsE 0x00021378   Section        4  servicemetadata.o(.constdata__ZN9stlp_priv15_Integer_limitsIjLj0ELj4294967295ELin1ELb1EE6digitsE)
    .constdata__ZN9stlp_priv15_Integer_limitsIlLln2147483648ELl2147483647ELin1ELb1EE6digitsE 0x0002137c   Section        4  servicemetadata.o(.constdata__ZN9stlp_priv15_Integer_limitsIlLln2147483648ELl2147483647ELin1ELb1EE6digitsE)
    .constdata__ZN9stlp_priv15_Integer_limitsImLm0ELm4294967295ELin1ELb1EE6digitsE 0x00021380   Section        4  servicemetadata.o(.constdata__ZN9stlp_priv15_Integer_limitsImLm0ELm4294967295ELin1ELb1EE6digitsE)
    .constdata__ZN9stlp_priv15_Integer_limitsIsLsn32768ELs32767ELin1ELb1EE6digitsE 0x00021384   Section        4  servicemetadata.o(.constdata__ZN9stlp_priv15_Integer_limitsIsLsn32768ELs32767ELin1ELb1EE6digitsE)
    .constdata__ZN9stlp_priv15_Integer_limitsItLt0ELt65535ELin1ELb1EE6digitsE 0x00021388   Section        4  servicemetadata.o(.constdata__ZN9stlp_priv15_Integer_limitsItLt0ELt65535ELin1ELb1EE6digitsE)
    .constdata__ZN9stlp_priv15_Integer_limitsIwLw0ELw65535ELin1ELb1EE6digitsE 0x0002138c   Section        4  servicemetadata.o(.constdata__ZN9stlp_priv15_Integer_limitsIwLw0ELw65535ELin1ELb1EE6digitsE)
    .constdata__ZN9stlp_priv15_Integer_limitsIxLxn9223372036854775808ELx9223372036854775807ELin1ELb1EE6digitsE 0x00021390   Section        4  servicemetadata.o(.constdata__ZN9stlp_priv15_Integer_limitsIxLxn9223372036854775808ELx9223372036854775807ELin1ELb1EE6digitsE)
    .constdata__ZN9stlp_priv15_Integer_limitsIyLy0ELy18446744073709551615ELin1ELb1EE6digitsE 0x00021394   Section        4  servicemetadata.o(.constdata__ZN9stlp_priv15_Integer_limitsIyLy0ELy18446744073709551615ELin1ELb1EE6digitsE)
    .constdata__ZTI11QSharedData             0x00021398   Section        8  objectendpoint.o(.constdata__ZTI11QSharedData)
    .constdata__ZTI11RHandleBase             0x000213a0   Section        8  qremoteserviceregister_s60.o(.constdata__ZTI11RHandleBase)
    .constdata__ZTI12RSessionBase            0x000213a8   Section       12  qremoteserviceregister_s60.o(.constdata__ZTI12RSessionBase)
    .constdata__ZTI18QMetaObjectBuilder      0x000213b4   Section        8  qmetaobjectbuilder.o(.constdata__ZTI18QMetaObjectBuilder)
    .constdata__ZTIN10QtMobility12QSlotInvokerE 0x000213bc   Section       12  qslotinvoker.o(.constdata__ZTIN10QtMobility12QSlotInvokerE)
    .constdata__ZTIN10QtMobility13QServiceProxyE 0x000213c8   Section       12  proxyobject.o(.constdata__ZTIN10QtMobility13QServiceProxyE)
    .constdata__ZTIN10QtMobility14ObjectEndPointE 0x000213d4   Section       12  objectendpoint.o(.constdata__ZTIN10QtMobility14ObjectEndPointE)
    .constdata__ZTIN10QtMobility15DatabaseManagerE 0x000213e0   Section       12  databasemanager_symbian.o(.constdata__ZTIN10QtMobility15DatabaseManagerE)
    .constdata__ZTIN10QtMobility15InstanceManagerE 0x000213ec   Section       12  instancemanager.o(.constdata__ZTIN10QtMobility15InstanceManagerE)
    .constdata__ZTIN10QtMobility15QServiceContextE 0x000213f8   Section       12  qservicecontext.o(.constdata__ZTIN10QtMobility15QServiceContextE)
    .constdata__ZTIN10QtMobility15QServiceManagerE 0x00021404   Section       12  qservicemanager.o(.constdata__ZTIN10QtMobility15QServiceManagerE)
    .constdata__ZTIN10QtMobility15RServiceSessionE 0x00021410   Section       32  qremoteserviceregister_s60.o(.constdata__ZTIN10QtMobility15RServiceSessionE)
    .constdata__ZTIN10QtMobility18QSignalIntercepterE 0x00021430   Section       12  qsignalintercepter.o(.constdata__ZTIN10QtMobility18QSignalIntercepterE)
    .constdata__ZTIN10QtMobility19QServiceIpcEndPointE 0x0002143c   Section       12  ipcendpoint.o(.constdata__ZTIN10QtMobility19QServiceIpcEndPointE)
    .constdata__ZTIN10QtMobility21QServicePluginCleanupE 0x00021448   Section       12  qservicemanager.o(.constdata__ZTIN10QtMobility21QServicePluginCleanupE)
    .constdata__ZTIN10QtMobility21SymbianClientEndPointE 0x00021454   Section       12  qremoteserviceregister_s60.o(.constdata__ZTIN10QtMobility21SymbianClientEndPointE)
    .constdata__ZTIN10QtMobility21SymbianServerEndPointE 0x00021460   Section       12  qremoteserviceregister_s60.o(.constdata__ZTIN10QtMobility21SymbianServerEndPointE)
    .constdata__ZTIN10QtMobility22CServiceProviderServerE 0x0002146c   Section       12  qremoteserviceregister_s60.o(.constdata__ZTIN10QtMobility22CServiceProviderServerE)
    .constdata__ZTIN10QtMobility22QRemoteServiceRegisterE 0x00021478   Section       12  qremoteserviceregister.o(.constdata__ZTIN10QtMobility22QRemoteServiceRegisterE)
    .constdata__ZTIN10QtMobility22QServiceManagerPrivateE 0x00021484   Section       12  qservicemanager.o(.constdata__ZTIN10QtMobility22QServiceManagerPrivateE)
    .constdata__ZTIN10QtMobility22QServicePackagePrivateE 0x00021490   Section       24  objectendpoint.o(.constdata__ZTIN10QtMobility22QServicePackagePrivateE)
    .constdata__ZTIN10QtMobility22ServiceMessageListenerE 0x000214a8   Section       12  qremoteserviceregister_s60.o(.constdata__ZTIN10QtMobility22ServiceMessageListenerE)
    .constdata__ZTIN10QtMobility23QServicePluginInterfaceE 0x000214b4   Section        8  qserviceplugininterface.o(.constdata__ZTIN10QtMobility23QServicePluginInterfaceE)
    .constdata__ZTIN10QtMobility24QAbstractSecuritySessionE 0x000214bc   Section       12  qabstractsecuritysession.o(.constdata__ZTIN10QtMobility24QAbstractSecuritySessionE)
    .constdata__ZTIN10QtMobility24ServiceContextClientDataE 0x000214c8   Section       12  qservicecontext.o(.constdata__ZTIN10QtMobility24ServiceContextClientDataE)
    .constdata__ZTIN10QtMobility24ServiceSignalIntercepterE 0x000214d4   Section       12  objectendpoint.o(.constdata__ZTIN10QtMobility24ServiceSignalIntercepterE)
    .constdata__ZTIN10QtMobility28DatabaseManagerSignalMonitorE 0x000214e0   Section       12  databasemanager_symbian.o(.constdata__ZTIN10QtMobility28DatabaseManagerSignalMonitorE)
    .constdata__ZTIN10QtMobility29CServiceProviderServerSessionE 0x000214ec   Section       12  qremoteserviceregister_s60.o(.constdata__ZTIN10QtMobility29CServiceProviderServerSessionE)
    .constdata__ZTIN10QtMobility29QRemoteServiceRegisterPrivateE 0x000214f8   Section       12  qremoteserviceregister_p.o(.constdata__ZTIN10QtMobility29QRemoteServiceRegisterPrivateE)
    .constdata__ZTIN10QtMobility36QRemoteServiceRegisterSymbianPrivateE 0x00021504   Section       12  qremoteserviceregister_s60.o(.constdata__ZTIN10QtMobility36QRemoteServiceRegisterSymbianPrivateE)
    .constdata__ZTS11QSharedData             0x00021510   Section       14  objectendpoint.o(.constdata__ZTS11QSharedData)
    .constdata__ZTS11RHandleBase             0x0002151e   Section       14  qremoteserviceregister_s60.o(.constdata__ZTS11RHandleBase)
    .constdata__ZTS12RSessionBase            0x0002152c   Section       15  qremoteserviceregister_s60.o(.constdata__ZTS12RSessionBase)
    .constdata__ZTS18QMetaObjectBuilder      0x0002153b   Section       21  qmetaobjectbuilder.o(.constdata__ZTS18QMetaObjectBuilder)
    .constdata__ZTSN10QtMobility12QSlotInvokerE 0x00021550   Section       29  qslotinvoker.o(.constdata__ZTSN10QtMobility12QSlotInvokerE)
    .constdata__ZTSN10QtMobility13QServiceProxyE 0x0002156d   Section       30  proxyobject.o(.constdata__ZTSN10QtMobility13QServiceProxyE)
    .constdata__ZTSN10QtMobility14ObjectEndPointE 0x0002158b   Section       31  objectendpoint.o(.constdata__ZTSN10QtMobility14ObjectEndPointE)
    .constdata__ZTSN10QtMobility15DatabaseManagerE 0x000215aa   Section       32  databasemanager_symbian.o(.constdata__ZTSN10QtMobility15DatabaseManagerE)
    .constdata__ZTSN10QtMobility15InstanceManagerE 0x000215ca   Section       32  instancemanager.o(.constdata__ZTSN10QtMobility15InstanceManagerE)
    .constdata__ZTSN10QtMobility15QServiceContextE 0x000215ea   Section       32  qservicecontext.o(.constdata__ZTSN10QtMobility15QServiceContextE)
    .constdata__ZTSN10QtMobility15QServiceManagerE 0x0002160a   Section       32  qservicemanager.o(.constdata__ZTSN10QtMobility15QServiceManagerE)
    .constdata__ZTSN10QtMobility15RServiceSessionE 0x0002162a   Section       32  qremoteserviceregister_s60.o(.constdata__ZTSN10QtMobility15RServiceSessionE)
    .constdata__ZTSN10QtMobility18QSignalIntercepterE 0x0002164a   Section       35  qsignalintercepter.o(.constdata__ZTSN10QtMobility18QSignalIntercepterE)
    .constdata__ZTSN10QtMobility19QServiceIpcEndPointE 0x0002166d   Section       36  ipcendpoint.o(.constdata__ZTSN10QtMobility19QServiceIpcEndPointE)
    .constdata__ZTSN10QtMobility21QServicePluginCleanupE 0x00021691   Section       38  qservicemanager.o(.constdata__ZTSN10QtMobility21QServicePluginCleanupE)
    .constdata__ZTSN10QtMobility21SymbianClientEndPointE 0x000216b7   Section       38  qremoteserviceregister_s60.o(.constdata__ZTSN10QtMobility21SymbianClientEndPointE)
    .constdata__ZTSN10QtMobility21SymbianServerEndPointE 0x000216dd   Section       38  qremoteserviceregister_s60.o(.constdata__ZTSN10QtMobility21SymbianServerEndPointE)
    .constdata__ZTSN10QtMobility22CServiceProviderServerE 0x00021703   Section       39  qremoteserviceregister_s60.o(.constdata__ZTSN10QtMobility22CServiceProviderServerE)
    .constdata__ZTSN10QtMobility22QRemoteServiceRegisterE 0x0002172a   Section       39  qremoteserviceregister.o(.constdata__ZTSN10QtMobility22QRemoteServiceRegisterE)
    .constdata__ZTSN10QtMobility22QServiceManagerPrivateE 0x00021751   Section       39  qservicemanager.o(.constdata__ZTSN10QtMobility22QServiceManagerPrivateE)
    .constdata__ZTSN10QtMobility22QServicePackagePrivateE 0x00021778   Section       39  objectendpoint.o(.constdata__ZTSN10QtMobility22QServicePackagePrivateE)
    .constdata__ZTSN10QtMobility22ServiceMessageListenerE 0x0002179f   Section       39  qremoteserviceregister_s60.o(.constdata__ZTSN10QtMobility22ServiceMessageListenerE)
    .constdata__ZTSN10QtMobility23QServicePluginInterfaceE 0x000217c6   Section       40  qserviceplugininterface.o(.constdata__ZTSN10QtMobility23QServicePluginInterfaceE)
    .constdata__ZTSN10QtMobility24QAbstractSecuritySessionE 0x000217ee   Section       41  qabstractsecuritysession.o(.constdata__ZTSN10QtMobility24QAbstractSecuritySessionE)
    .constdata__ZTSN10QtMobility24ServiceContextClientDataE 0x00021817   Section       41  qservicecontext.o(.constdata__ZTSN10QtMobility24ServiceContextClientDataE)
    .constdata__ZTSN10QtMobility24ServiceSignalIntercepterE 0x00021840   Section       41  objectendpoint.o(.constdata__ZTSN10QtMobility24ServiceSignalIntercepterE)
    .constdata__ZTSN10QtMobility28DatabaseManagerSignalMonitorE 0x00021869   Section       45  databasemanager_symbian.o(.constdata__ZTSN10QtMobility28DatabaseManagerSignalMonitorE)
    .constdata__ZTSN10QtMobility29CServiceProviderServerSessionE 0x00021896   Section       46  qremoteserviceregister_s60.o(.constdata__ZTSN10QtMobility29CServiceProviderServerSessionE)
    .constdata__ZTSN10QtMobility29QRemoteServiceRegisterPrivateE 0x000218c4   Section       46  qremoteserviceregister_p.o(.constdata__ZTSN10QtMobility29QRemoteServiceRegisterPrivateE)
    .constdata__ZTSN10QtMobility36QRemoteServiceRegisterSymbianPrivateE 0x000218f2   Section       53  qremoteserviceregister_s60.o(.constdata__ZTSN10QtMobility36QRemoteServiceRegisterSymbianPrivateE)
    .constdata__ZTV18QMetaObjectBuilder      0x00021928   Section       16  qmetaobjectbuilder.o(.constdata__ZTV18QMetaObjectBuilder)
    .constdata__ZTVN10QtMobility12QSlotInvokerE 0x00021938   Section       56  qslotinvoker.o(.constdata__ZTVN10QtMobility12QSlotInvokerE)
    .constdata__ZTVN10QtMobility13QServiceProxyE 0x00021970   Section       56  proxyobject.o(.constdata__ZTVN10QtMobility13QServiceProxyE)
    .constdata__ZTVN10QtMobility14ObjectEndPointE 0x000219a8   Section       56  objectendpoint.o(.constdata__ZTVN10QtMobility14ObjectEndPointE)
    .constdata__ZTVN10QtMobility15DatabaseManagerE 0x000219e0   Section       56  databasemanager_symbian.o(.constdata__ZTVN10QtMobility15DatabaseManagerE)
    .constdata__ZTVN10QtMobility15InstanceManagerE 0x00021a18   Section       56  instancemanager.o(.constdata__ZTVN10QtMobility15InstanceManagerE)
    .constdata__ZTVN10QtMobility15QServiceContextE 0x00021a50   Section       60  qservicecontext.o(.constdata__ZTVN10QtMobility15QServiceContextE)
    .constdata__ZTVN10QtMobility15QServiceManagerE 0x00021a8c   Section       56  qservicemanager.o(.constdata__ZTVN10QtMobility15QServiceManagerE)
    .constdata__ZTVN10QtMobility15RServiceSessionE 0x00021ac4   Section       56  qremoteserviceregister_s60.o(.constdata__ZTVN10QtMobility15RServiceSessionE)
    .constdata__ZTVN10QtMobility18QSignalIntercepterE 0x00021afc   Section       60  qsignalintercepter.o(.constdata__ZTVN10QtMobility18QSignalIntercepterE)
    .constdata__ZTVN10QtMobility19QServiceIpcEndPointE 0x00021b38   Section       60  ipcendpoint.o(.constdata__ZTVN10QtMobility19QServiceIpcEndPointE)
    .constdata__ZTVN10QtMobility21QServicePluginCleanupE 0x00021b74   Section       56  qservicemanager.o(.constdata__ZTVN10QtMobility21QServicePluginCleanupE)
    .constdata__ZTVN10QtMobility21SymbianClientEndPointE 0x00021bac   Section       60  qremoteserviceregister_s60.o(.constdata__ZTVN10QtMobility21SymbianClientEndPointE)
    .constdata__ZTVN10QtMobility21SymbianServerEndPointE 0x00021be8   Section       60  qremoteserviceregister_s60.o(.constdata__ZTVN10QtMobility21SymbianServerEndPointE)
    .constdata__ZTVN10QtMobility22CServiceProviderServerE 0x00021c24   Section       48  qremoteserviceregister_s60.o(.constdata__ZTVN10QtMobility22CServiceProviderServerE)
    .constdata__ZTVN10QtMobility22QRemoteServiceRegisterE 0x00021c54   Section       56  qremoteserviceregister.o(.constdata__ZTVN10QtMobility22QRemoteServiceRegisterE)
    .constdata__ZTVN10QtMobility22QServiceManagerPrivateE 0x00021c8c   Section       56  qservicemanager.o(.constdata__ZTVN10QtMobility22QServiceManagerPrivateE)
    .constdata__ZTVN10QtMobility22QServicePackagePrivateE 0x00021cc4   Section       12  objectendpoint.o(.constdata__ZTVN10QtMobility22QServicePackagePrivateE)
    .constdata__ZTVN10QtMobility22ServiceMessageListenerE 0x00021cd0   Section       32  qremoteserviceregister_s60.o(.constdata__ZTVN10QtMobility22ServiceMessageListenerE)
    .constdata__ZTVN10QtMobility23QServicePluginInterfaceE 0x00021cf0   Section       28  qserviceplugininterface.o(.constdata__ZTVN10QtMobility23QServicePluginInterfaceE)
    .constdata__ZTVN10QtMobility24QAbstractSecuritySessionE 0x00021d0c   Section       60  qabstractsecuritysession.o(.constdata__ZTVN10QtMobility24QAbstractSecuritySessionE)
    .constdata__ZTVN10QtMobility24ServiceContextClientDataE 0x00021d48   Section       16  qservicecontext.o(.constdata__ZTVN10QtMobility24ServiceContextClientDataE)
    .constdata__ZTVN10QtMobility24ServiceSignalIntercepterE 0x00021d58   Section       60  objectendpoint.o(.constdata__ZTVN10QtMobility24ServiceSignalIntercepterE)
    .constdata__ZTVN10QtMobility28DatabaseManagerSignalMonitorE 0x00021d94   Section       32  databasemanager_symbian.o(.constdata__ZTVN10QtMobility28DatabaseManagerSignalMonitorE)
    .constdata__ZTVN10QtMobility29CServiceProviderServerSessionE 0x00021db4   Section       40  qremoteserviceregister_s60.o(.constdata__ZTVN10QtMobility29CServiceProviderServerSessionE)
    .constdata__ZTVN10QtMobility29QRemoteServiceRegisterPrivateE 0x00021ddc   Section       76  qremoteserviceregister_p.o(.constdata__ZTVN10QtMobility29QRemoteServiceRegisterPrivateE)
    .constdata__ZTVN10QtMobility36QRemoteServiceRegisterSymbianPrivateE 0x00021e28   Section       76  qremoteserviceregister_s60.o(.constdata__ZTVN10QtMobility36QRemoteServiceRegisterSymbianPrivateE)
    .ARM.exidx                               0x00021e74   Section        8  ucppinit.o(.ARM.exidx)
    .data$0                                  0x00400000   Data           0  objectendpoint.o(.data)
    QtMobility::this_openRequests            0x00400000   Data           8  objectendpoint.o(.data)
    .data                                    0x00400000   Section       16  objectendpoint.o(.data)
    _ZGVcleanup@_ZN10QtMobility12openRequestsEv_0 0x00400008   Data           4  objectendpoint.o(.data)
    cleanup@_ZN10QtMobility12openRequestsEv_1 0x0040000c   Data           4  objectendpoint.o(.data)
    .data$0                                  0x00400010   Data           0  instancemanager.o(.data)
    QtMobility::this_typeRegister            0x00400010   Data           8  instancemanager.o(.data)
    .data                                    0x00400010   Section       16  instancemanager.o(.data)
    _ZGVcleanup@_ZN10QtMobility12typeRegisterEv_0 0x00400018   Data           4  instancemanager.o(.data)
    cleanup@_ZN10QtMobility12typeRegisterEv_1 0x0040001c   Data           4  instancemanager.o(.data)
    .data$0                                  0x00400020   Data           0  ucppfini.o(.data)
    .data                                    0x00400020   Section        4  ucppfini.o(.data)
    .data__ZNSt19_Atomic_swap_structILi1EE12_S_swap_lockE 0x00400024   Section       12  servicemetadata.o(.data__ZNSt19_Atomic_swap_structILi1EE12_S_swap_lockE)
    .bss$5                                   0x00400030   Data           0  ucppfini.o(.bss)
    .bss                                     0x00400030   Section     2048  ucppfini.o(.bss)

    Global Symbols

    Symbol Name                              Value     Ov Type        Size  Object(Section)

    BuildAttributes$$THUMB_ISAv2$ARM_ISAv5$M$VFPv2$PE$A:L22$X:L11$S22$IEEE1$IW$USESV6$~STKCKD$USESV7$~SHL$OSPACE$ROPI$IEEEJ$EBA8$UX$FPIC$INDIRECT$REQ8$PRES8$EABIv2 0x00000000   Number         0  anon$$obj.o ABSOLUTE
    QtCore{00040703}[2001b2dc].dll           0x00000000   Data           0  anon$$obj.o ABSOLUTE
    QtServiceFramework{00010103}[2002ac84].dll 0x00000000   Data           0  anon$$obj.o ABSOLUTE
    drtaeabi{000a0000}.dll                   0x00000000   Data           0  anon$$obj.o ABSOLUTE
    euser{000a0000}[100039e5].dll            0x00000000   Data           0  anon$$obj.o ABSOLUTE
    libc{00010001}[10207369].dll             0x00000000   Data           0  anon$$obj.o ABSOLUTE
    stdnew{000a0000}[20022178].dll           0x00000000   Data           0  anon$$obj.o ABSOLUTE
    SHT$$INIT_ARRAY$$Base                     - Undefined Weak Reference
    SHT$$INIT_ARRAY$$Limit                    - Undefined Weak Reference
    qt_message_output(QtMsgType, const char*)  - Undefined Reference
    _Z17qt_message_output9QtMsgTypePKc@QtCore{00040703}[2001b2dc].dll  - Undefined Reference
    qt_symbian_throwIfError(int)              - Undefined Reference
    _Z23qt_symbian_throwIfErrori@QtCore{00040703}[2001b2dc].dll  - Undefined Reference
    QBasicAtomicPointer_testAndSetOrdered(void*volatile *, void*, void*)  - Undefined Reference
    _Z37QBasicAtomicPointer_testAndSetOrderedPVPvS_S_@QtCore{00040703}[2001b2dc].dll  - Undefined Reference
    qFree(void*)                              - Undefined Reference
    _Z5qFreePv@QtCore{00040703}[2001b2dc].dll  - Undefined Reference
    qHash(const QString&)                     - Undefined Reference
    _Z5qHashRK7QString@QtCore{00040703}[2001b2dc].dll  - Undefined Reference
    qMalloc(unsigned)                         - Undefined Reference
    _Z7qMallocj@QtCore{00040703}[2001b2dc].dll  - Undefined Reference
    qMemSet(void*, int, unsigned)             - Undefined Reference
    _Z7qMemSetPvij@QtCore{00040703}[2001b2dc].dll  - Undefined Reference
    qstrcmp(const QByteArray&, const char*)   - Undefined Reference
    _Z7qstrcmpRK10QByteArrayPKc@QtCore{00040703}[2001b2dc].dll  - Undefined Reference
    qstrcmp(const QByteArray&, const QByteArray&)  - Undefined Reference
    _Z7qstrcmpRK10QByteArrayS1_@QtCore{00040703}[2001b2dc].dll  - Undefined Reference
    qWarning(const char*, ...)                - Undefined Reference
    _Z8qWarningPKcz@QtCore{00040703}[2001b2dc].dll  - Undefined Reference
    qBadAlloc()                               - Undefined Reference
    _Z9qBadAllocv@QtCore{00040703}[2001b2dc].dll  - Undefined Reference
    QByteArray::shared_null                   - Undefined Reference
    _ZN10QByteArray11shared_nullE@QtCore{00040703}[2001b2dc].dll  - Undefined Reference
    QByteArray::clear()                       - Undefined Reference
    _ZN10QByteArray5clearEv@QtCore{00040703}[2001b2dc].dll  - Undefined Reference
    QByteArray::append(const char*, int)      - Undefined Reference
    _ZN10QByteArray6appendEPKci@QtCore{00040703}[2001b2dc].dll  - Undefined Reference
    QByteArray::append(const QByteArray&)     - Undefined Reference
    _ZN10QByteArray6appendERKS_@QtCore{00040703}[2001b2dc].dll  - Undefined Reference
    QByteArray::append(char)                  - Undefined Reference
    _ZN10QByteArray6appendEc@QtCore{00040703}[2001b2dc].dll  - Undefined Reference
    QByteArray::remove(int, int)              - Undefined Reference
    _ZN10QByteArray6removeEii@QtCore{00040703}[2001b2dc].dll  - Undefined Reference
    QByteArray::resize(int)                   - Undefined Reference
    _ZN10QByteArray6resizeEi@QtCore{00040703}[2001b2dc].dll  - Undefined Reference
    QByteArray::realloc(int)                  - Undefined Reference
    _ZN10QByteArray7reallocEi@QtCore{00040703}[2001b2dc].dll  - Undefined Reference
    QByteArray::QByteArray(const char*)       - Undefined Reference
    _ZN10QByteArrayC1EPKc@QtCore{00040703}[2001b2dc].dll  - Undefined Reference
    QByteArray::QByteArray(const char*, int)  - Undefined Reference
    _ZN10QByteArrayC1EPKci@QtCore{00040703}[2001b2dc].dll  - Undefined Reference
    QByteArray::QByteArray(int, char)         - Undefined Reference
    _ZN10QByteArrayC1Eic@QtCore{00040703}[2001b2dc].dll  - Undefined Reference
    QByteArray::operator =(const char*)       - Undefined Reference
    _ZN10QByteArrayaSEPKc@QtCore{00040703}[2001b2dc].dll  - Undefined Reference
    QByteArray::operator =(const QByteArray&)  - Undefined Reference
    _ZN10QByteArrayaSERKS_@QtCore{00040703}[2001b2dc].dll  - Undefined Reference
    QEventLoop::processEvents(QFlags<QEventLoop::ProcessEventsFlag>, int)  - Undefined Reference
    _ZN10QEventLoop13processEventsE6QFlagsINS_17ProcessEventsFlagEEi@QtCore{00040703}[2001b2dc].dll  - Undefined Reference
    QEventLoop::QEventLoop(QObject*)          - Undefined Reference
    _ZN10QEventLoopC1EP7QObject@QtCore{00040703}[2001b2dc].dll  - Undefined Reference
    TBufBase16::TBufBase16(int)               - Undefined Reference
    _ZN10TBufBase16C1Ei@euser{000a0000}[100039e5].dll  - Undefined Reference
    QDataStream::resetStatus()                - Undefined Reference
    _ZN11QDataStream11resetStatusEv@QtCore{00040703}[2001b2dc].dll  - Undefined Reference
    QDataStream::setStatus(QDataStream::Status)  - Undefined Reference
    _ZN11QDataStream9setStatusENS_6StatusE@QtCore{00040703}[2001b2dc].dll  - Undefined Reference
    QDataStream::QDataStream(QByteArray*, QFlags<QIODevice::OpenModeFlag>)  - Undefined Reference
    _ZN11QDataStreamC1EP10QByteArray6QFlagsIN9QIODevice12OpenModeFlagEE@QtCore{00040703}[2001b2dc].dll  - Undefined Reference
    QDataStream::QDataStream(const QByteArray&)  - Undefined Reference
    _ZN11QDataStreamC1ERK10QByteArray@QtCore{00040703}[2001b2dc].dll  - Undefined Reference
    QDataStream::~QDataStream()               - Undefined Reference
    _ZN11QDataStreamD1Ev@QtCore{00040703}[2001b2dc].dll  - Undefined Reference
    QDataStream::operator <<(signed char)     - Undefined Reference
    _ZN11QDataStreamlsEa@QtCore{00040703}[2001b2dc].dll  - Undefined Reference
    QDataStream::operator <<(bool)            - Undefined Reference
    _ZN11QDataStreamlsEb@QtCore{00040703}[2001b2dc].dll  - Undefined Reference
    QDataStream::operator <<(int)             - Undefined Reference
    _ZN11QDataStreamlsEi@QtCore{00040703}[2001b2dc].dll  - Undefined Reference
    QDataStream::operator <<(short)           - Undefined Reference
    _ZN11QDataStreamlsEs@QtCore{00040703}[2001b2dc].dll  - Undefined Reference
    QDataStream::operator >>(signed char&)    - Undefined Reference
    _ZN11QDataStreamrsERa@QtCore{00040703}[2001b2dc].dll  - Undefined Reference
    QDataStream::operator >>(bool&)           - Undefined Reference
    _ZN11QDataStreamrsERb@QtCore{00040703}[2001b2dc].dll  - Undefined Reference
    QDataStream::operator >>(int&)            - Undefined Reference
    _ZN11QDataStreamrsERi@QtCore{00040703}[2001b2dc].dll  - Undefined Reference
    QDataStream::operator >>(short&)          - Undefined Reference
    _ZN11QDataStreamrsERs@QtCore{00040703}[2001b2dc].dll  - Undefined Reference
    QMetaObject::disconnect(const QObject*, int, const QObject*, int)  - Undefined Reference
    _ZN11QMetaObject10disconnectEPK7QObjectiS2_i@QtCore{00040703}[2001b2dc].dll  - Undefined Reference
    QMetaObject::changeGuard(QObject**, QObject*)  - Undefined Reference
    _ZN11QMetaObject11changeGuardEPP7QObjectS1_@QtCore{00040703}[2001b2dc].dll  - Undefined Reference
    QMetaObject::removeGuard(QObject**)       - Undefined Reference
    _ZN11QMetaObject11removeGuardEPP7QObject@QtCore{00040703}[2001b2dc].dll  - Undefined Reference
    QMetaObject::normalizedType(const char*)  - Undefined Reference
    _ZN11QMetaObject14normalizedTypeEPKc@QtCore{00040703}[2001b2dc].dll  - Undefined Reference
    QMetaObject::normalizedSignature(const char*)  - Undefined Reference
    _ZN11QMetaObject19normalizedSignatureEPKc@QtCore{00040703}[2001b2dc].dll  - Undefined Reference
    QMetaObject::connect(const QObject*, int, const QObject*, int, int, int*)  - Undefined Reference
    _ZN11QMetaObject7connectEPK7QObjectiS2_iiPi@QtCore{00040703}[2001b2dc].dll  - Undefined Reference
    QMetaObject::activate(QObject*, const QMetaObject*, int, void**)  - Undefined Reference
    _ZN11QMetaObject8activateEP7QObjectPKS_iPPv@QtCore{00040703}[2001b2dc].dll  - Undefined Reference
    QMetaObject::addGuard(QObject**)          - Undefined Reference
    _ZN11QMetaObject8addGuardEPP7QObject@QtCore{00040703}[2001b2dc].dll  - Undefined Reference
    QTextStream::QTextStream(QString*, QFlags<QIODevice::OpenModeFlag>)  - Undefined Reference
    _ZN11QTextStreamC1EP7QString6QFlagsIN9QIODevice12OpenModeFlagEE@QtCore{00040703}[2001b2dc].dll  - Undefined Reference
    QTextStream::~QTextStream()               - Undefined Reference
    _ZN11QTextStreamD1Ev@QtCore{00040703}[2001b2dc].dll  - Undefined Reference
    QTextStream::operator <<(const char*)     - Undefined Reference
    _ZN11QTextStreamlsEPKc@QtCore{00040703}[2001b2dc].dll  - Undefined Reference
    QTextStream::operator <<(const QString&)  - Undefined Reference
    _ZN11QTextStreamlsERK7QString@QtCore{00040703}[2001b2dc].dll  - Undefined Reference
    QTextStream::operator <<(char)            - Undefined Reference
    _ZN11QTextStreamlsEc@QtCore{00040703}[2001b2dc].dll  - Undefined Reference
    QTextStream::operator <<(int)             - Undefined Reference
    _ZN11QTextStreamlsEi@QtCore{00040703}[2001b2dc].dll  - Undefined Reference
    QVectorData::reallocate(QVectorData*, int, int, int)  - Undefined Reference
    _ZN11QVectorData10reallocateEPS_iii@QtCore{00040703}[2001b2dc].dll  - Undefined Reference
    QVectorData::shared_null                  - Undefined Reference
    _ZN11QVectorData11shared_nullE@QtCore{00040703}[2001b2dc].dll  - Undefined Reference
    QVectorData::free(QVectorData*, int)      - Undefined Reference
    _ZN11QVectorData4freeEPS_i@QtCore{00040703}[2001b2dc].dll  - Undefined Reference
    QVectorData::grow(int, int, int, bool)    - Undefined Reference
    _ZN11QVectorData4growEiiib@QtCore{00040703}[2001b2dc].dll  - Undefined Reference
    QVectorData::allocate(int, int)           - Undefined Reference
    _ZN11QVectorData8allocateEii@QtCore{00040703}[2001b2dc].dll  - Undefined Reference
    RHandleBase::Close()                      - Undefined Reference
    _ZN11RHandleBase5CloseEv@euser{000a0000}[100039e5].dll  - Undefined Reference
    TFindServer::Next(TBuf<(int)256>&)        - Undefined Reference
    _ZN11TFindServer4NextER4TBufILi256EE@euser{000a0000}[100039e5].dll  - Undefined Reference
    CleanupStack::Pop()                       - Undefined Reference
    _ZN12CleanupStack3PopEv@euser{000a0000}[100039e5].dll  - Undefined Reference
    CleanupStack::Check(void*)                - Undefined Reference
    _ZN12CleanupStack5CheckEPv@euser{000a0000}[100039e5].dll  - Undefined Reference
    CleanupStack::PushL(CBase*)               - Undefined Reference
    _ZN12CleanupStack5PushLEP5CBase@euser{000a0000}[100039e5].dll  - Undefined Reference
    RSessionBase::CreateSession(const TDesC16&, const TVersion&, int, TIpcSessionType, const TSecurityPolicy*, TRequestStatus*)  - Undefined Reference
    _ZN12RSessionBase13CreateSessionERK7TDesC16RK8TVersioni15TIpcSessionTypePK15TSecurityPolicyP14TRequestStatus@euser{000a0000}[100039e5].dll  - Undefined Reference
    CPolicyServer::Extension_(unsigned, void*&, void*)  - Undefined Reference
    _ZN13CPolicyServer10Extension_EjRPvS0_@euser{000a0000}[100039e5].dll  - Undefined Reference
    CPolicyServer::CustomFailureActionL(const RMessage2&, int, const TSecurityInfo&)  - Undefined Reference
    _ZN13CPolicyServer20CustomFailureActionLERK9RMessage2iRK13TSecurityInfo@euser{000a0000}[100039e5].dll  - Undefined Reference
    CPolicyServer::RunL()                     - Undefined Reference
    _ZN13CPolicyServer4RunLEv@euser{000a0000}[100039e5].dll  - Undefined Reference
    CPolicyServer::RunError(int)              - Undefined Reference
    _ZN13CPolicyServer8RunErrorEi@euser{000a0000}[100039e5].dll  - Undefined Reference
    CPolicyServer::CPolicyServer__sub_object(int, const CPolicyServer::TPolicy&, CServer2::TServerType)  - Undefined Reference
    _ZN13CPolicyServerC2EiRKNS_7TPolicyEN8CServer211TServerTypeE@euser{000a0000}[100039e5].dll  - Undefined Reference
    QPluginLoader::instance()                 - Undefined Reference
    _ZN13QPluginLoader8instanceEv@QtCore{00040703}[2001b2dc].dll  - Undefined Reference
    QPluginLoader::QPluginLoader(const QString&, QObject*)  - Undefined Reference
    _ZN13QPluginLoaderC1ERK7QStringP7QObject@QtCore{00040703}[2001b2dc].dll  - Undefined Reference
    QObjectUserData::~QObjectUserData()       - Undefined Reference
    _ZN15QObjectUserDataD1Ev@QtCore{00040703}[2001b2dc].dll  - Undefined Reference
    TFindHandleBase::TFindHandleBase(const TDesC16&)  - Undefined Reference
    _ZN15TFindHandleBaseC1ERK7TDesC16@euser{000a0000}[100039e5].dll  - Undefined Reference
    CActiveScheduler::Add(CActive*)           - Undefined Reference
    _ZN16CActiveScheduler3AddEP7CActive@euser{000a0000}[100039e5].dll  - Undefined Reference
    QCoreApplication::libraryPaths()          - Undefined Reference
    _ZN16QCoreApplication12libraryPathsEv@QtCore{00040703}[2001b2dc].dll  - Undefined Reference
    QCoreApplication::exit(int)               - Undefined Reference
    _ZN16QCoreApplication4exitEi@QtCore{00040703}[2001b2dc].dll  - Undefined Reference
    QCoreApplication::self                    - Undefined Reference
    _ZN16QCoreApplication4selfE@QtCore{00040703}[2001b2dc].dll  - Undefined Reference
    QSystemSemaphore::setKey(const QString&, int, QSystemSemaphore::AccessMode)  - Undefined Reference
    _ZN16QSystemSemaphore6setKeyERK7QStringiNS_10AccessModeE@QtCore{00040703}[2001b2dc].dll  - Undefined Reference
    QSystemSemaphore::acquire()               - Undefined Reference
    _ZN16QSystemSemaphore7acquireEv@QtCore{00040703}[2001b2dc].dll  - Undefined Reference
    QSystemSemaphore::release(int)            - Undefined Reference
    _ZN16QSystemSemaphore7releaseEi@QtCore{00040703}[2001b2dc].dll  - Undefined Reference
    QSystemSemaphore::QSystemSemaphore(const QString&, int, QSystemSemaphore::AccessMode)  - Undefined Reference
    _ZN16QSystemSemaphoreC1ERK7QStringiNS_10AccessModeE@QtCore{00040703}[2001b2dc].dll  - Undefined Reference
    QSystemSemaphore::~QSystemSemaphore()     - Undefined Reference
    _ZN16QSystemSemaphoreD1Ev@QtCore{00040703}[2001b2dc].dll  - Undefined Reference
    QXmlStreamReader::readElementText()       - Undefined Reference
    _ZN16QXmlStreamReader15readElementTextEv@QtCore{00040703}[2001b2dc].dll  - Undefined Reference
    QXmlStreamReader::readNext()              - Undefined Reference
    _ZN16QXmlStreamReader8readNextEv@QtCore{00040703}[2001b2dc].dll  - Undefined Reference
    QXmlStreamReader::setDevice(QIODevice*)   - Undefined Reference
    _ZN16QXmlStreamReader9setDeviceEP9QIODevice@QtCore{00040703}[2001b2dc].dll  - Undefined Reference
    QXmlStreamReader::QXmlStreamReader()      - Undefined Reference
    _ZN16QXmlStreamReaderC1Ev@QtCore{00040703}[2001b2dc].dll  - Undefined Reference
    QXmlStreamReader::~QXmlStreamReader()     - Undefined Reference
    _ZN16QXmlStreamReaderD1Ev@QtCore{00040703}[2001b2dc].dll  - Undefined Reference
    QXmlStreamAttribute::~QXmlStreamAttribute()  - Undefined Reference
    _ZN19QXmlStreamAttributeD1Ev@QtCore{00040703}[2001b2dc].dll  - Undefined Reference
    QDir::toNativeSeparators(const QString&)  - Undefined Reference
    _ZN4QDir18toNativeSeparatorsERK7QString@QtCore{00040703}[2001b2dc].dll  - Undefined Reference
    QDir::separator()                         - Undefined Reference
    _ZN4QDir9separatorEv@QtCore{00040703}[2001b2dc].dll  - Undefined Reference
    User::WaitForRequest(TRequestStatus&)     - Undefined Reference
    _ZN4User14WaitForRequestER14TRequestStatus@euser{000a0000}[100039e5].dll  - Undefined Reference
    User::MarkCleanupStack()                  - Undefined Reference
    _ZN4User16MarkCleanupStackEv@euser{000a0000}[100039e5].dll  - Undefined Reference
    User::UnMarkCleanupStack(TTrapHandler*)   - Undefined Reference
    _ZN4User18UnMarkCleanupStackEP12TTrapHandler@euser{000a0000}[100039e5].dll  - Undefined Reference
    User::QueryVersionSupported(const TVersion&, const TVersion&)  - Undefined Reference
    _ZN4User21QueryVersionSupportedERK8TVersionS2_@euser{000a0000}[100039e5].dll  - Undefined Reference
    User::After(TTimeIntervalMicroSeconds32)  - Undefined Reference
    _ZN4User5AfterE27TTimeIntervalMicroSeconds32@euser{000a0000}[100039e5].dll  - Undefined Reference
    User::Leave(int)                          - Undefined Reference
    _ZN4User5LeaveEi@euser{000a0000}[100039e5].dll  - Undefined Reference
    User::AllocZ(int)                         - Undefined Reference
    _ZN4User6AllocZEi@euser{000a0000}[100039e5].dll  - Undefined Reference
    User::AllocZL(int)                        - Undefined Reference
    _ZN4User7AllocZLEi@euser{000a0000}[100039e5].dll  - Undefined Reference
    User::Invariant()                         - Undefined Reference
    _ZN4User9InvariantEv@euser{000a0000}[100039e5].dll  - Undefined Reference
    User::LockedDec(int&)                     - Undefined Reference
    _ZN4User9LockedDecERi@euser{000a0000}[100039e5].dll  - Undefined Reference
    User::LockedInc(int&)                     - Undefined Reference
    _ZN4User9LockedIncERi@euser{000a0000}[100039e5].dll  - Undefined Reference
    QFile::exists(const QString&)             - Undefined Reference
    _ZN5QFile6existsERK7QString@QtCore{00040703}[2001b2dc].dll  - Undefined Reference
    QFile::QFile(const QString&)              - Undefined Reference
    _ZN5QFileC1ERK7QString@QtCore{00040703}[2001b2dc].dll  - Undefined Reference
    QTime::start()                            - Undefined Reference
    _ZN5QTime5startEv@QtCore{00040703}[2001b2dc].dll  - Undefined Reference
    QUuid::createUuid()                       - Undefined Reference
    _ZN5QUuid10createUuidEv@QtCore{00040703}[2001b2dc].dll  - Undefined Reference
    HBufC8::Des()                             - Undefined Reference
    _ZN6HBufC83DesEv@euser{000a0000}[100039e5].dll  - Undefined Reference
    HBufC8::New(int)                          - Undefined Reference
    _ZN6HBufC83NewEi@euser{000a0000}[100039e5].dll  - Undefined Reference
    QMutex::lock()                            - Undefined Reference
    _ZN6QMutex4lockEv@QtCore{00040703}[2001b2dc].dll  - Undefined Reference
    QMutex::unlock()                          - Undefined Reference
    _ZN6QMutex6unlockEv@QtCore{00040703}[2001b2dc].dll  - Undefined Reference
    QMutex::QMutex(QMutex::RecursionMode)     - Undefined Reference
    _ZN6QMutexC1ENS_13RecursionModeE@QtCore{00040703}[2001b2dc].dll  - Undefined Reference
    QMutex::~QMutex()                         - Undefined Reference
    _ZN6QMutexD1Ev@QtCore{00040703}[2001b2dc].dll  - Undefined Reference
    QTimer::singleShot(int, QObject*, const char*)  - Undefined Reference
    _ZN6QTimer10singleShotEiP7QObjectPKc@QtCore{00040703}[2001b2dc].dll  - Undefined Reference
    TDes16::Copy(const TDesC16&)              - Undefined Reference
    _ZN6TDes164CopyERK7TDesC16@euser{000a0000}[100039e5].dll  - Undefined Reference
    TPtrC8::TPtrC8(const unsigned char*, int)  - Undefined Reference
    _ZN6TPtrC8C1EPKhi@euser{000a0000}[100039e5].dll  - Undefined Reference
    CActive::Extension_(unsigned, void*&, void*)  - Undefined Reference
    _ZN7CActive10Extension_EjRPvS0_@euser{000a0000}[100039e5].dll  - Undefined Reference
    CActive::Cancel()                         - Undefined Reference
    _ZN7CActive6CancelEv@euser{000a0000}[100039e5].dll  - Undefined Reference
    CActive::RunError(int)                    - Undefined Reference
    _ZN7CActive8RunErrorEi@euser{000a0000}[100039e5].dll  - Undefined Reference
    CActive::SetActive()                      - Undefined Reference
    _ZN7CActive9SetActiveEv@euser{000a0000}[100039e5].dll  - Undefined Reference
    CActive::CActive__sub_object(int)         - Undefined Reference
    _ZN7CActiveC2Ei@euser{000a0000}[100039e5].dll  - Undefined Reference
    CActive::~CActive__sub_object()           - Undefined Reference
    _ZN7CActiveD2Ev@euser{000a0000}[100039e5].dll  - Undefined Reference
    HBufC16::Des()                            - Undefined Reference
    _ZN7HBufC163DesEv@euser{000a0000}[100039e5].dll  - Undefined Reference
    HBufC16::New(int)                         - Undefined Reference
    _ZN7HBufC163NewEi@euser{000a0000}[100039e5].dll  - Undefined Reference
    QObject::childEvent(QChildEvent*)         - Undefined Reference
    _ZN7QObject10childEventEP11QChildEvent@QtCore{00040703}[2001b2dc].dll  - Undefined Reference
    QObject::disconnect(const QObject*, const char*, const QObject*, const char*)  - Undefined Reference
    _ZN7QObject10disconnectEPKS_PKcS1_S3_@QtCore{00040703}[2001b2dc].dll  - Undefined Reference
    QObject::timerEvent(QTimerEvent*)         - Undefined Reference
    _ZN7QObject10timerEventEP11QTimerEvent@QtCore{00040703}[2001b2dc].dll  - Undefined Reference
    QObject::customEvent(QEvent*)             - Undefined Reference
    _ZN7QObject11customEventEP6QEvent@QtCore{00040703}[2001b2dc].dll  - Undefined Reference
    QObject::eventFilter(QObject*, QEvent*)   - Undefined Reference
    _ZN7QObject11eventFilterEPS_P6QEvent@QtCore{00040703}[2001b2dc].dll  - Undefined Reference
    QObject::qt_metacall(QMetaObject::Call, int, void**)  - Undefined Reference
    _ZN7QObject11qt_metacallEN11QMetaObject4CallEiPPv@QtCore{00040703}[2001b2dc].dll  - Undefined Reference
    QObject::qt_metacast(const char*)         - Undefined Reference
    _ZN7QObject11qt_metacastEPKc@QtCore{00040703}[2001b2dc].dll  - Undefined Reference
    QObject::setUserData(unsigned, QObjectUserData*)  - Undefined Reference
    _ZN7QObject11setUserDataEjP15QObjectUserData@QtCore{00040703}[2001b2dc].dll  - Undefined Reference
    QObject::connectNotify(const char*)       - Undefined Reference
    _ZN7QObject13connectNotifyEPKc@QtCore{00040703}[2001b2dc].dll  - Undefined Reference
    QObject::disconnectNotify(const char*)    - Undefined Reference
    _ZN7QObject16disconnectNotifyEPKc@QtCore{00040703}[2001b2dc].dll  - Undefined Reference
    QObject::staticMetaObject                 - Undefined Reference
    _ZN7QObject16staticMetaObjectE@QtCore{00040703}[2001b2dc].dll  - Undefined Reference
    QObject::event(QEvent*)                   - Undefined Reference
    _ZN7QObject5eventEP6QEvent@QtCore{00040703}[2001b2dc].dll  - Undefined Reference
    QObject::connect(const QObject*, const char*, const QObject*, const char*, Qt::ConnectionType)  - Undefined Reference
    _ZN7QObject7connectEPKS_PKcS1_S3_N2Qt14ConnectionTypeE@QtCore{00040703}[2001b2dc].dll  - Undefined Reference
    QObject::setParent(QObject*)              - Undefined Reference
    _ZN7QObject9setParentEPS_@QtCore{00040703}[2001b2dc].dll  - Undefined Reference
    QObject::QObject(QObject*)                - Undefined Reference
    _ZN7QObjectC1EPS_@QtCore{00040703}[2001b2dc].dll  - Undefined Reference
    QObject::~QObject()                       - Undefined Reference
    _ZN7QObjectD1Ev@QtCore{00040703}[2001b2dc].dll  - Undefined Reference
    QRegExp::capturedTexts()                  - Undefined Reference
    _ZN7QRegExp13capturedTextsEv@QtCore{00040703}[2001b2dc].dll  - Undefined Reference
    QRegExp::QRegExp(const QString&, Qt::CaseSensitivity, QRegExp::PatternSyntax)  - Undefined Reference
    _ZN7QRegExpC1ERK7QStringN2Qt15CaseSensitivityENS_13PatternSyntaxE@QtCore{00040703}[2001b2dc].dll  - Undefined Reference
    QRegExp::~QRegExp()                       - Undefined Reference
    _ZN7QRegExpD1Ev@QtCore{00040703}[2001b2dc].dll  - Undefined Reference
    QString::shared_null                      - Undefined Reference
    _ZN7QString11shared_nullE@QtCore{00040703}[2001b2dc].dll  - Undefined Reference
    QString::codecForCStrings                 - Undefined Reference
    _ZN7QString16codecForCStringsE@QtCore{00040703}[2001b2dc].dll  - Undefined Reference
    QString::fromAscii_helper(const char*, int)  - Undefined Reference
    _ZN7QString16fromAscii_helperEPKci@QtCore{00040703}[2001b2dc].dll  - Undefined Reference
    QString::fromLatin1_helper(const char*, int)  - Undefined Reference
    _ZN7QString17fromLatin1_helperEPKci@QtCore{00040703}[2001b2dc].dll  - Undefined Reference
    QString::free(QString::Data*)             - Undefined Reference
    _ZN7QString4freeEPNS_4DataE@QtCore{00040703}[2001b2dc].dll  - Undefined Reference
    QString::grow(int)                        - Undefined Reference
    _ZN7QString4growEi@QtCore{00040703}[2001b2dc].dll  - Undefined Reference
    QString::append(const QLatin1String&)     - Undefined Reference
    _ZN7QString6appendERK13QLatin1String@QtCore{00040703}[2001b2dc].dll  - Undefined Reference
    QString::append(const QString&)           - Undefined Reference
    _ZN7QString6appendERKS_@QtCore{00040703}[2001b2dc].dll  - Undefined Reference
    QString::number(int, int)                 - Undefined Reference
    _ZN7QString6numberEii@QtCore{00040703}[2001b2dc].dll  - Undefined Reference
    QString::realloc(int)                     - Undefined Reference
    _ZN7QString7reallocEi@QtCore{00040703}[2001b2dc].dll  - Undefined Reference
    QString::fromAscii(const char*, int)      - Undefined Reference
    _ZN7QString9fromAsciiEPKci@QtCore{00040703}[2001b2dc].dll  - Undefined Reference
    QString::fromUtf16(const unsigned short*, int)  - Undefined Reference
    _ZN7QString9fromUtf16EPKti@QtCore{00040703}[2001b2dc].dll  - Undefined Reference
    QString::operator =(const QString&)       - Undefined Reference
    _ZN7QStringaSERKS_@QtCore{00040703}[2001b2dc].dll  - Undefined Reference
    TPtrC16::TPtrC16(const unsigned short*)   - Undefined Reference
    _ZN7TPtrC16C1EPKt@euser{000a0000}[100039e5].dll  - Undefined Reference
    CServer2::Start(const TDesC16&)           - Undefined Reference
    _ZN8CServer25StartERK7TDesC16@euser{000a0000}[100039e5].dll  - Undefined Reference
    CServer2::DoCancel()                      - Undefined Reference
    _ZN8CServer28DoCancelEv@euser{000a0000}[100039e5].dll  - Undefined Reference
    CServer2::DoConnect(const RMessage2&)     - Undefined Reference
    _ZN8CServer29DoConnectERK9RMessage2@euser{000a0000}[100039e5].dll  - Undefined Reference
    CServer2::~CServer2__sub_object()         - Undefined Reference
    _ZN8CServer2D2Ev@euser{000a0000}[100039e5].dll  - Undefined Reference
    QLibrary::load()                          - Undefined Reference
    _ZN8QLibrary4loadEv@QtCore{00040703}[2001b2dc].dll  - Undefined Reference
    QLibrary::unload()                        - Undefined Reference
    _ZN8QLibrary6unloadEv@QtCore{00040703}[2001b2dc].dll  - Undefined Reference
    QLibrary::QLibrary(const QString&, QObject*)  - Undefined Reference
    _ZN8QLibraryC1ERK7QStringP7QObject@QtCore{00040703}[2001b2dc].dll  - Undefined Reference
    QLibrary::~QLibrary()                     - Undefined Reference
    _ZN8QLibraryD1Ev@QtCore{00040703}[2001b2dc].dll  - Undefined Reference
    QMapData::shared_null                     - Undefined Reference
    _ZN8QMapData11shared_nullE@QtCore{00040703}[2001b2dc].dll  - Undefined Reference
    QMapData::continueFreeData(int)           - Undefined Reference
    _ZN8QMapData16continueFreeDataEi@QtCore{00040703}[2001b2dc].dll  - Undefined Reference
    QVariant::nameToType(const char*)         - Undefined Reference
    _ZN8QVariant10nameToTypeEPKc@QtCore{00040703}[2001b2dc].dll  - Undefined Reference
    QVariant::data()                          - Undefined Reference
    _ZN8QVariant4dataEv@QtCore{00040703}[2001b2dc].dll  - Undefined Reference
    QVariant::QVariant(const QByteArray&)     - Undefined Reference
    _ZN8QVariantC1ERK10QByteArray@QtCore{00040703}[2001b2dc].dll  - Undefined Reference
    QVariant::QVariant(const QStringList&)    - Undefined Reference
    _ZN8QVariantC1ERK11QStringList@QtCore{00040703}[2001b2dc].dll  - Undefined Reference
    QVariant::QVariant(const QString&)        - Undefined Reference
    _ZN8QVariantC1ERK7QString@QtCore{00040703}[2001b2dc].dll  - Undefined Reference
    QVariant::QVariant(const QVariant&)       - Undefined Reference
    _ZN8QVariantC1ERKS_@QtCore{00040703}[2001b2dc].dll  - Undefined Reference
    QVariant::QVariant(int)                   - Undefined Reference
    _ZN8QVariantC1Ei@QtCore{00040703}[2001b2dc].dll  - Undefined Reference
    QVariant::QVariant(int, const void*)      - Undefined Reference
    _ZN8QVariantC1EiPKv@QtCore{00040703}[2001b2dc].dll  - Undefined Reference
    QVariant::~QVariant()                     - Undefined Reference
    _ZN8QVariantD1Ev@QtCore{00040703}[2001b2dc].dll  - Undefined Reference
    QVariant::operator =(const QVariant&)     - Undefined Reference
    _ZN8QVariantaSERKS_@QtCore{00040703}[2001b2dc].dll  - Undefined Reference
    RProcess::Rendezvous(int)                 - Undefined Reference
    _ZN8RProcess10RendezvousEi@euser{000a0000}[100039e5].dll  - Undefined Reference
    RProcess::Kill(int)                       - Undefined Reference
    _ZN8RProcess4KillEi@euser{000a0000}[100039e5].dll  - Undefined Reference
    RProcess::Create(const TDesC16&, const TDesC16&, TOwnerType)  - Undefined Reference
    _ZN8RProcess6CreateERK7TDesC16S2_10TOwnerType@euser{000a0000}[100039e5].dll  - Undefined Reference
    RProcess::Resume()                        - Undefined Reference
    _ZN8RProcess6ResumeEv@euser{000a0000}[100039e5].dll  - Undefined Reference
    TVersion::TVersion(int, int, int)         - Undefined Reference
    _ZN8TVersionC1Eiii@euser{000a0000}[100039e5].dll  - Undefined Reference
    TVersion::TVersion()                      - Undefined Reference
    _ZN8TVersionC1Ev@euser{000a0000}[100039e5].dll  - Undefined Reference
    CSession2::Disconnect(const RMessage2&)   - Undefined Reference
    _ZN9CSession210DisconnectERK9RMessage2@euser{000a0000}[100039e5].dll  - Undefined Reference
    CSession2::Extension_(unsigned, void*&, void*)  - Undefined Reference
    _ZN9CSession210Extension_EjRPvS0_@euser{000a0000}[100039e5].dll  - Undefined Reference
    CSession2::ServiceError(const RMessage2&, int)  - Undefined Reference
    _ZN9CSession212ServiceErrorERK9RMessage2i@euser{000a0000}[100039e5].dll  - Undefined Reference
    CSession2::CountResources()               - Undefined Reference
    _ZN9CSession214CountResourcesEv@euser{000a0000}[100039e5].dll  - Undefined Reference
    CSession2::CreateL()                      - Undefined Reference
    _ZN9CSession27CreateLEv@euser{000a0000}[100039e5].dll  - Undefined Reference
    CSession2::CSession2__sub_object()        - Undefined Reference
    _ZN9CSession2C2Ev@euser{000a0000}[100039e5].dll  - Undefined Reference
    CSession2::~CSession2__sub_object()       - Undefined Reference
    _ZN9CSession2D2Ev@euser{000a0000}[100039e5].dll  - Undefined Reference
    QFileInfo::QFileInfo(const QString&)      - Undefined Reference
    _ZN9QFileInfoC1ERK7QString@QtCore{00040703}[2001b2dc].dll  - Undefined Reference
    QFileInfo::~QFileInfo()                   - Undefined Reference
    _ZN9QFileInfoD1Ev@QtCore{00040703}[2001b2dc].dll  - Undefined Reference
    QHashData::free_helper(void(*)(QHashData::Node*))  - Undefined Reference
    _ZN9QHashData11free_helperEPFvPNS_4NodeEE@QtCore{00040703}[2001b2dc].dll  - Undefined Reference
    QHashData::shared_null                    - Undefined Reference
    _ZN9QHashData11shared_nullE@QtCore{00040703}[2001b2dc].dll  - Undefined Reference
    QHashData::allocateNode(int)              - Undefined Reference
    _ZN9QHashData12allocateNodeEi@QtCore{00040703}[2001b2dc].dll  - Undefined Reference
    QHashData::previousNode(QHashData::Node*)  - Undefined Reference
    _ZN9QHashData12previousNodeEPNS_4NodeE@QtCore{00040703}[2001b2dc].dll  - Undefined Reference
    QHashData::detach_helper2(void(*)(QHashData::Node*, void*), void(*)(QHashData::Node*), int, int)  - Undefined Reference
    _ZN9QHashData14detach_helper2EPFvPNS_4NodeEPvEPFvS1_Eii@QtCore{00040703}[2001b2dc].dll  - Undefined Reference
    QHashData::rehash(int)                    - Undefined Reference
    _ZN9QHashData6rehashEi@QtCore{00040703}[2001b2dc].dll  - Undefined Reference
    QHashData::freeNode(void*)                - Undefined Reference
    _ZN9QHashData8freeNodeEPv@QtCore{00040703}[2001b2dc].dll  - Undefined Reference
    QHashData::nextNode(QHashData::Node*)     - Undefined Reference
    _ZN9QHashData8nextNodeEPNS_4NodeE@QtCore{00040703}[2001b2dc].dll  - Undefined Reference
    QListData::detach_grow(int*, int)         - Undefined Reference
    _ZN9QListData11detach_growEPii@QtCore{00040703}[2001b2dc].dll  - Undefined Reference
    QListData::shared_null                    - Undefined Reference
    _ZN9QListData11shared_nullE@QtCore{00040703}[2001b2dc].dll  - Undefined Reference
    QListData::erase(void**)                  - Undefined Reference
    _ZN9QListData5eraseEPPv@QtCore{00040703}[2001b2dc].dll  - Undefined Reference
    QListData::append()                       - Undefined Reference
    _ZN9QListData6appendEv@QtCore{00040703}[2001b2dc].dll  - Undefined Reference
    QListData::detach(int)                    - Undefined Reference
    _ZN9QListData6detachEi@QtCore{00040703}[2001b2dc].dll  - Undefined Reference
    QListData::remove(int)                    - Undefined Reference
    _ZN9QListData6removeEi@QtCore{00040703}[2001b2dc].dll  - Undefined Reference
    QListData::prepend()                      - Undefined Reference
    _ZN9QListData7prependEv@QtCore{00040703}[2001b2dc].dll  - Undefined Reference
    QListData::realloc(int)                   - Undefined Reference
    _ZN9QListData7reallocEi@QtCore{00040703}[2001b2dc].dll  - Undefined Reference
    QMetaType::registerType(const char*, void(*)(void*), void*(*)(const void*))  - Undefined Reference
    _ZN9QMetaType12registerTypeEPKcPFvPvEPFS2_PKvE@QtCore{00040703}[2001b2dc].dll  - Undefined Reference
    QMetaType::registerTypedef(const char*, int)  - Undefined Reference
    _ZN9QMetaType15registerTypedefEPKci@QtCore{00040703}[2001b2dc].dll  - Undefined Reference
    QMetaType::load(QDataStream&, int, void*)  - Undefined Reference
    _ZN9QMetaType4loadER11QDataStreamiPv@QtCore{00040703}[2001b2dc].dll  - Undefined Reference
    QMetaType::save(QDataStream&, int, const void*)  - Undefined Reference
    _ZN9QMetaType4saveER11QDataStreamiPKv@QtCore{00040703}[2001b2dc].dll  - Undefined Reference
    QMetaType::type(const char*)              - Undefined Reference
    _ZN9QMetaType4typeEPKc@QtCore{00040703}[2001b2dc].dll  - Undefined Reference
    TBufBase8::TBufBase8(int)                 - Undefined Reference
    _ZN9TBufBase8C1Ei@euser{000a0000}[100039e5].dll  - Undefined Reference
    TBufBase8::TBufBase8(int, int)            - Undefined Reference
    _ZN9TBufBase8C1Eii@euser{000a0000}[100039e5].dll  - Undefined Reference
    QByteArray::mid(int, int) const           - Undefined Reference
    _ZNK10QByteArray3midEii@QtCore{00040703}[2001b2dc].dll  - Undefined Reference
    QByteArray::indexOf(char, int) const      - Undefined Reference
    _ZNK10QByteArray7indexOfEci@QtCore{00040703}[2001b2dc].dll  - Undefined Reference
    QByteArray::endsWith(char) const          - Undefined Reference
    _ZNK10QByteArray8endsWithEc@QtCore{00040703}[2001b2dc].dll  - Undefined Reference
    QStringRef::toString() const              - Undefined Reference
    _ZNK10QStringRef8toStringEv@QtCore{00040703}[2001b2dc].dll  - Undefined Reference
    QDataStream::atEnd() const                - Undefined Reference
    _ZNK11QDataStream5atEndEv@QtCore{00040703}[2001b2dc].dll  - Undefined Reference
    QDataStream::status() const               - Undefined Reference
    _ZNK11QDataStream6statusEv@QtCore{00040703}[2001b2dc].dll  - Undefined Reference
    QMetaMethod::attributes() const           - Undefined Reference
    _ZNK11QMetaMethod10attributesEv@QtCore{00040703}[2001b2dc].dll  - Undefined Reference
    QMetaMethod::methodType() const           - Undefined Reference
    _ZNK11QMetaMethod10methodTypeEv@QtCore{00040703}[2001b2dc].dll  - Undefined Reference
    QMetaMethod::parameterNames() const       - Undefined Reference
    _ZNK11QMetaMethod14parameterNamesEv@QtCore{00040703}[2001b2dc].dll  - Undefined Reference
    QMetaMethod::parameterTypes() const       - Undefined Reference
    _ZNK11QMetaMethod14parameterTypesEv@QtCore{00040703}[2001b2dc].dll  - Undefined Reference
    QMetaMethod::tag() const                  - Undefined Reference
    _ZNK11QMetaMethod3tagEv@QtCore{00040703}[2001b2dc].dll  - Undefined Reference
    QMetaMethod::access() const               - Undefined Reference
    _ZNK11QMetaMethod6accessEv@QtCore{00040703}[2001b2dc].dll  - Undefined Reference
    QMetaMethod::invoke(QObject*, Qt::ConnectionType, QGenericReturnArgument, QGenericArgument, QGenericArgument, QGenericArgument, QGenericArgument, QGenericArgument, QGenericArgument, QGenericArgument, QGenericArgument, QGenericArgument, QGenericArgument) const  - Undefined Reference
    _ZNK11QMetaMethod6invokeEP7QObjectN2Qt14ConnectionTypeE22QGenericReturnArgument16QGenericArgumentS5_S5_S5_S5_S5_S5_S5_S5_S5_@QtCore{00040703}[2001b2dc].dll  - Undefined Reference
    QMetaMethod::typeName() const             - Undefined Reference
    _ZNK11QMetaMethod8typeNameEv@QtCore{00040703}[2001b2dc].dll  - Undefined Reference
    QMetaMethod::signature() const            - Undefined Reference
    _ZNK11QMetaMethod9signatureEv@QtCore{00040703}[2001b2dc].dll  - Undefined Reference
    QMetaObject::enumerator(int) const        - Undefined Reference
    _ZNK11QMetaObject10enumeratorEi@QtCore{00040703}[2001b2dc].dll  - Undefined Reference
    QMetaObject::constructor(int) const       - Undefined Reference
    _ZNK11QMetaObject11constructorEi@QtCore{00040703}[2001b2dc].dll  - Undefined Reference
    QMetaObject::methodCount() const          - Undefined Reference
    _ZNK11QMetaObject11methodCountEv@QtCore{00040703}[2001b2dc].dll  - Undefined Reference
    QMetaObject::methodOffset() const         - Undefined Reference
    _ZNK11QMetaObject12methodOffsetEv@QtCore{00040703}[2001b2dc].dll  - Undefined Reference
    QMetaObject::indexOfMethod(const char*) const  - Undefined Reference
    _ZNK11QMetaObject13indexOfMethodEPKc@QtCore{00040703}[2001b2dc].dll  - Undefined Reference
    QMetaObject::indexOfSignal(const char*) const  - Undefined Reference
    _ZNK11QMetaObject13indexOfSignalEPKc@QtCore{00040703}[2001b2dc].dll  - Undefined Reference
    QMetaObject::propertyCount() const        - Undefined Reference
    _ZNK11QMetaObject13propertyCountEv@QtCore{00040703}[2001b2dc].dll  - Undefined Reference
    QMetaObject::classInfoCount() const       - Undefined Reference
    _ZNK11QMetaObject14classInfoCountEv@QtCore{00040703}[2001b2dc].dll  - Undefined Reference
    QMetaObject::propertyOffset() const       - Undefined Reference
    _ZNK11QMetaObject14propertyOffsetEv@QtCore{00040703}[2001b2dc].dll  - Undefined Reference
    QMetaObject::classInfoOffset() const      - Undefined Reference
    _ZNK11QMetaObject15classInfoOffsetEv@QtCore{00040703}[2001b2dc].dll  - Undefined Reference
    QMetaObject::enumeratorCount() const      - Undefined Reference
    _ZNK11QMetaObject15enumeratorCountEv@QtCore{00040703}[2001b2dc].dll  - Undefined Reference
    QMetaObject::constructorCount() const     - Undefined Reference
    _ZNK11QMetaObject16constructorCountEv@QtCore{00040703}[2001b2dc].dll  - Undefined Reference
    QMetaObject::enumeratorOffset() const     - Undefined Reference
    _ZNK11QMetaObject16enumeratorOffsetEv@QtCore{00040703}[2001b2dc].dll  - Undefined Reference
    QMetaObject::method(int) const            - Undefined Reference
    _ZNK11QMetaObject6methodEi@QtCore{00040703}[2001b2dc].dll  - Undefined Reference
    QMetaObject::property(int) const          - Undefined Reference
    _ZNK11QMetaObject8propertyEi@QtCore{00040703}[2001b2dc].dll  - Undefined Reference
    QMetaObject::classInfo(int) const         - Undefined Reference
    _ZNK11QMetaObject9classInfoEi@QtCore{00040703}[2001b2dc].dll  - Undefined Reference
    RMessagePtr2::GetDesLength(int) const     - Undefined Reference
    _ZNK12RMessagePtr212GetDesLengthEi@euser{000a0000}[100039e5].dll  - Undefined Reference
    RMessagePtr2::GetDesMaxLength(int) const  - Undefined Reference
    _ZNK12RMessagePtr215GetDesMaxLengthEi@euser{000a0000}[100039e5].dll  - Undefined Reference
    RMessagePtr2::ReadL(int, TDes8&, int) const  - Undefined Reference
    _ZNK12RMessagePtr25ReadLEiR5TDes8i@euser{000a0000}[100039e5].dll  - Undefined Reference
    RMessagePtr2::WriteL(int, const TDesC8&, int) const  - Undefined Reference
    _ZNK12RMessagePtr26WriteLEiRK6TDesC8i@euser{000a0000}[100039e5].dll  - Undefined Reference
    RMessagePtr2::Complete(int) const         - Undefined Reference
    _ZNK12RMessagePtr28CompleteEi@euser{000a0000}[100039e5].dll  - Undefined Reference
    RSessionBase::DoSendReceive(int, const TIpcArgs*) const  - Undefined Reference
    _ZNK12RSessionBase13DoSendReceiveEiPK8TIpcArgs@euser{000a0000}[100039e5].dll  - Undefined Reference
    RSessionBase::DoSendReceive(int, const TIpcArgs*, TRequestStatus&) const  - Undefined Reference
    _ZNK12RSessionBase13DoSendReceiveEiPK8TIpcArgsR14TRequestStatus@euser{000a0000}[100039e5].dll  - Undefined Reference
    QMetaProperty::isEditable(const QObject*) const  - Undefined Reference
    _ZNK13QMetaProperty10isEditableEPK7QObject@QtCore{00040703}[2001b2dc].dll  - Undefined Reference
    QMetaProperty::isEnumType() const         - Undefined Reference
    _ZNK13QMetaProperty10isEnumTypeEv@QtCore{00040703}[2001b2dc].dll  - Undefined Reference
    QMetaProperty::isReadable() const         - Undefined Reference
    _ZNK13QMetaProperty10isReadableEv@QtCore{00040703}[2001b2dc].dll  - Undefined Reference
    QMetaProperty::isWritable() const         - Undefined Reference
    _ZNK13QMetaProperty10isWritableEv@QtCore{00040703}[2001b2dc].dll  - Undefined Reference
    QMetaProperty::hasStdCppSet() const       - Undefined Reference
    _ZNK13QMetaProperty12hasStdCppSetEv@QtCore{00040703}[2001b2dc].dll  - Undefined Reference
    QMetaProperty::isDesignable(const QObject*) const  - Undefined Reference
    _ZNK13QMetaProperty12isDesignableEPK7QObject@QtCore{00040703}[2001b2dc].dll  - Undefined Reference
    QMetaProperty::isResettable() const       - Undefined Reference
    _ZNK13QMetaProperty12isResettableEv@QtCore{00040703}[2001b2dc].dll  - Undefined Reference
    QMetaProperty::isScriptable(const QObject*) const  - Undefined Reference
    _ZNK13QMetaProperty12isScriptableEPK7QObject@QtCore{00040703}[2001b2dc].dll  - Undefined Reference
    QMetaProperty::notifySignal() const       - Undefined Reference
    _ZNK13QMetaProperty12notifySignalEv@QtCore{00040703}[2001b2dc].dll  - Undefined Reference
    QMetaProperty::hasNotifySignal() const    - Undefined Reference
    _ZNK13QMetaProperty15hasNotifySignalEv@QtCore{00040703}[2001b2dc].dll  - Undefined Reference
    QMetaProperty::name() const               - Undefined Reference
    _ZNK13QMetaProperty4nameEv@QtCore{00040703}[2001b2dc].dll  - Undefined Reference
    QMetaProperty::read(const QObject*) const  - Undefined Reference
    _ZNK13QMetaProperty4readEPK7QObject@QtCore{00040703}[2001b2dc].dll  - Undefined Reference
    QMetaProperty::type() const               - Undefined Reference
    _ZNK13QMetaProperty4typeEv@QtCore{00040703}[2001b2dc].dll  - Undefined Reference
    QMetaProperty::reset(QObject*) const      - Undefined Reference
    _ZNK13QMetaProperty5resetEP7QObject@QtCore{00040703}[2001b2dc].dll  - Undefined Reference
    QMetaProperty::write(QObject*, const QVariant&) const  - Undefined Reference
    _ZNK13QMetaProperty5writeEP7QObjectRK8QVariant@QtCore{00040703}[2001b2dc].dll  - Undefined Reference
    QMetaProperty::isUser(const QObject*) const  - Undefined Reference
    _ZNK13QMetaProperty6isUserEPK7QObject@QtCore{00040703}[2001b2dc].dll  - Undefined Reference
    QMetaProperty::isStored(const QObject*) const  - Undefined Reference
    _ZNK13QMetaProperty8isStoredEPK7QObject@QtCore{00040703}[2001b2dc].dll  - Undefined Reference
    QMetaProperty::typeName() const           - Undefined Reference
    _ZNK13QMetaProperty8typeNameEv@QtCore{00040703}[2001b2dc].dll  - Undefined Reference
    QMetaClassInfo::name() const              - Undefined Reference
    _ZNK14QMetaClassInfo4nameEv@QtCore{00040703}[2001b2dc].dll  - Undefined Reference
    QMetaClassInfo::value() const             - Undefined Reference
    _ZNK14QMetaClassInfo5valueEv@QtCore{00040703}[2001b2dc].dll  - Undefined Reference
    XLeaveException::GetReason() const        - Undefined Reference
    _ZNK15XLeaveException9GetReasonEv@euser{000a0000}[100039e5].dll  - Undefined Reference
    QSystemSemaphore::error() const           - Undefined Reference
    _ZNK16QSystemSemaphore5errorEv@QtCore{00040703}[2001b2dc].dll  - Undefined Reference
    QXmlStreamReader::attributes() const      - Undefined Reference
    _ZNK16QXmlStreamReader10attributesEv@QtCore{00040703}[2001b2dc].dll  - Undefined Reference
    QXmlStreamReader::name() const            - Undefined Reference
    _ZNK16QXmlStreamReader4nameEv@QtCore{00040703}[2001b2dc].dll  - Undefined Reference
    QXmlStreamReader::atEnd() const           - Undefined Reference
    _ZNK16QXmlStreamReader5atEndEv@QtCore{00040703}[2001b2dc].dll  - Undefined Reference
    QXmlStreamReader::tokenType() const       - Undefined Reference
    _ZNK16QXmlStreamReader9tokenTypeEv@QtCore{00040703}[2001b2dc].dll  - Undefined Reference
    QXmlStreamAttributes::value(const QString&) const  - Undefined Reference
    _ZNK20QXmlStreamAttributes5valueERK7QString@QtCore{00040703}[2001b2dc].dll  - Undefined Reference
    QTime::elapsed() const                    - Undefined Reference
    _ZNK5QTime7elapsedEv@QtCore{00040703}[2001b2dc].dll  - Undefined Reference
    QUuid::toString() const                   - Undefined Reference
    _ZNK5QUuid8toStringEv@QtCore{00040703}[2001b2dc].dll  - Undefined Reference
    TDesC8::Ptr() const                       - Undefined Reference
    _ZNK6TDesC83PtrEv@euser{000a0000}[100039e5].dll  - Undefined Reference
    QObject::metaObject() const               - Undefined Reference
    _ZNK7QObject10metaObjectEv@QtCore{00040703}[2001b2dc].dll  - Undefined Reference
    QObject::userData(unsigned) const         - Undefined Reference
    _ZNK7QObject8userDataEj@QtCore{00040703}[2001b2dc].dll  - Undefined Reference
    QObject::receivers(const char*) const     - Undefined Reference
    _ZNK7QObject9receiversEPKc@QtCore{00040703}[2001b2dc].dll  - Undefined Reference
    QRegExp::matchedLength() const            - Undefined Reference
    _ZNK7QRegExp13matchedLengthEv@QtCore{00040703}[2001b2dc].dll  - Undefined Reference
    QRegExp::indexIn(const QString&, int, QRegExp::CaretMode) const  - Undefined Reference
    _ZNK7QRegExp7indexInERK7QStringiNS_9CaretModeE@QtCore{00040703}[2001b2dc].dll  - Undefined Reference
    QString::startsWith(const QString&, Qt::CaseSensitivity) const  - Undefined Reference
    _ZNK7QString10startsWithERKS_N2Qt15CaseSensitivityE@QtCore{00040703}[2001b2dc].dll  - Undefined Reference
    QString::toLocal8Bit() const              - Undefined Reference
    _ZNK7QString11toLocal8BitEv@QtCore{00040703}[2001b2dc].dll  - Undefined Reference
    QString::arg(const QString&, int, const QChar&) const  - Undefined Reference
    _ZNK7QString3argERKS_iRK5QChar@QtCore{00040703}[2001b2dc].dll  - Undefined Reference
    QString::arg(long long, int, int, const QChar&) const  - Undefined Reference
    _ZNK7QString3argExiiRK5QChar@QtCore{00040703}[2001b2dc].dll  - Undefined Reference
    QString::split(const QString&, QString::SplitBehavior, Qt::CaseSensitivity) const  - Undefined Reference
    _ZNK7QString5splitERKS_NS_13SplitBehaviorEN2Qt15CaseSensitivityE@QtCore{00040703}[2001b2dc].dll  - Undefined Reference
    QString::toInt(bool*, int) const          - Undefined Reference
    _ZNK7QString5toIntEPbi@QtCore{00040703}[2001b2dc].dll  - Undefined Reference
    QString::utf16() const                    - Undefined Reference
    _ZNK7QString5utf16Ev@QtCore{00040703}[2001b2dc].dll  - Undefined Reference
    QString::toLower() const                  - Undefined Reference
    _ZNK7QString7toLowerEv@QtCore{00040703}[2001b2dc].dll  - Undefined Reference
    QString::operator ==(const QLatin1String&) const  - Undefined Reference
    _ZNK7QStringeqERK13QLatin1String@QtCore{00040703}[2001b2dc].dll  - Undefined Reference
    QString::operator ==(const QString&) const  - Undefined Reference
    _ZNK7QStringeqERKS_@QtCore{00040703}[2001b2dc].dll  - Undefined Reference
    TDesC16::Ptr() const                      - Undefined Reference
    _ZNK7TDesC163PtrEv@euser{000a0000}[100039e5].dll  - Undefined Reference
    QVariant::toByteArray() const             - Undefined Reference
    _ZNK8QVariant11toByteArrayEv@QtCore{00040703}[2001b2dc].dll  - Undefined Reference
    QVariant::toStringList() const            - Undefined Reference
    _ZNK8QVariant12toStringListEv@QtCore{00040703}[2001b2dc].dll  - Undefined Reference
    QVariant::cmp(const QVariant&) const      - Undefined Reference
    _ZNK8QVariant3cmpERKS_@QtCore{00040703}[2001b2dc].dll  - Undefined Reference
    QVariant::type() const                    - Undefined Reference
    _ZNK8QVariant4typeEv@QtCore{00040703}[2001b2dc].dll  - Undefined Reference
    QVariant::toInt(bool*) const              - Undefined Reference
    _ZNK8QVariant5toIntEPb@QtCore{00040703}[2001b2dc].dll  - Undefined Reference
    QVariant::toString() const                - Undefined Reference
    _ZNK8QVariant8toStringEv@QtCore{00040703}[2001b2dc].dll  - Undefined Reference
    QVariant::typeName() const                - Undefined Reference
    _ZNK8QVariant8typeNameEv@QtCore{00040703}[2001b2dc].dll  - Undefined Reference
    QVariant::userType() const                - Undefined Reference
    _ZNK8QVariant8userTypeEv@QtCore{00040703}[2001b2dc].dll  - Undefined Reference
    QVariant::constData() const               - Undefined Reference
    _ZNK8QVariant9constDataEv@QtCore{00040703}[2001b2dc].dll  - Undefined Reference
    RProcess::Rendezvous(TRequestStatus&) const  - Undefined Reference
    _ZNK8RProcess10RendezvousER14TRequestStatus@euser{000a0000}[100039e5].dll  - Undefined Reference
    QFileInfo::completeBaseName() const       - Undefined Reference
    _ZNK9QFileInfo16completeBaseNameEv@QtCore{00040703}[2001b2dc].dll  - Undefined Reference
    QFileInfo::suffix() const                 - Undefined Reference
    _ZNK9QFileInfo6suffixEv@QtCore{00040703}[2001b2dc].dll  - Undefined Reference
    QIODevice::isOpen() const                 - Undefined Reference
    _ZNK9QIODevice6isOpenEv@QtCore{00040703}[2001b2dc].dll  - Undefined Reference
    QMetaEnum::key(int) const                 - Undefined Reference
    _ZNK9QMetaEnum3keyEi@QtCore{00040703}[2001b2dc].dll  - Undefined Reference
    QMetaEnum::name() const                   - Undefined Reference
    _ZNK9QMetaEnum4nameEv@QtCore{00040703}[2001b2dc].dll  - Undefined Reference
    QMetaEnum::value(int) const               - Undefined Reference
    _ZNK9QMetaEnum5valueEi@QtCore{00040703}[2001b2dc].dll  - Undefined Reference
    QMetaEnum::isFlag() const                 - Undefined Reference
    _ZNK9QMetaEnum6isFlagEv@QtCore{00040703}[2001b2dc].dll  - Undefined Reference
    QMetaEnum::keyCount() const               - Undefined Reference
    _ZNK9QMetaEnum8keyCountEv@QtCore{00040703}[2001b2dc].dll  - Undefined Reference
    typeinfo for CPolicyServer                - Undefined Reference
    _ZTI13CPolicyServer@euser{000a0000}[100039e5].dll  - Undefined Reference
    typeinfo for QObjectUserData              - Undefined Reference
    _ZTI15QObjectUserData@QtCore{00040703}[2001b2dc].dll  - Undefined Reference
    typeinfo for XLeaveException              - Undefined Reference
    _ZTI15XLeaveException@drtaeabi{000a0000}.dll  - Undefined Reference
    typeinfo for CActive                      - Undefined Reference
    _ZTI7CActive@euser{000a0000}[100039e5].dll  - Undefined Reference
    typeinfo for QObject                      - Undefined Reference
    _ZTI7QObject@QtCore{00040703}[2001b2dc].dll  - Undefined Reference
    typeinfo for CSession2                    - Undefined Reference
    _ZTI9CSession2@euser{000a0000}[100039e5].dll  - Undefined Reference
    typeinfo for std::bad_alloc               - Undefined Reference
    _ZTISt9bad_alloc@stdnew{000a0000}[20022178].dll  - Undefined Reference
    vtable for QObjectUserData                - Undefined Reference
    _ZTV15QObjectUserData@QtCore{00040703}[2001b2dc].dll  - Undefined Reference
    vtable for __cxxabiv1::__class_type_info  - Undefined Reference
    _ZTVN10__cxxabiv117__class_type_infoE@drtaeabi{000a0000}.dll  - Undefined Reference
    vtable for __cxxabiv1::__si_class_type_info  - Undefined Reference
    _ZTVN10__cxxabiv120__si_class_type_infoE@drtaeabi{000a0000}.dll  - Undefined Reference
    vtable for __cxxabiv1::__vmi_class_type_info  - Undefined Reference
    _ZTVN10__cxxabiv121__vmi_class_type_infoE@drtaeabi{000a0000}.dll  - Undefined Reference
    operator delete (void*)                   - Undefined Reference
    _ZdlPv@stdnew{000a0000}[20022178].dll     - Undefined Reference
    operator ==(const QLatin1String&, const QStringRef&)  - Undefined Reference
    _ZeqRK13QLatin1StringRK10QStringRef@QtCore{00040703}[2001b2dc].dll  - Undefined Reference
    operator ==(const QString&, const QStringRef&)  - Undefined Reference
    _ZeqRK7QStringRK10QStringRef@QtCore{00040703}[2001b2dc].dll  - Undefined Reference
    operator <<(QDataStream&, const QByteArray&)  - Undefined Reference
    _ZlsR11QDataStreamRK10QByteArray@QtCore{00040703}[2001b2dc].dll  - Undefined Reference
    operator <<(QDataStream&, const QUuid&)   - Undefined Reference
    _ZlsR11QDataStreamRK5QUuid@QtCore{00040703}[2001b2dc].dll  - Undefined Reference
    operator <<(QDataStream&, const QString&)  - Undefined Reference
    _ZlsR11QDataStreamRK7QString@QtCore{00040703}[2001b2dc].dll  - Undefined Reference
    operator <<(QDataStream&, const QVariant&)  - Undefined Reference
    _ZlsR11QDataStreamRK8QVariant@QtCore{00040703}[2001b2dc].dll  - Undefined Reference
    operator new(unsigned)                    - Undefined Reference
    _Znwj@stdnew{000a0000}[20022178].dll      - Undefined Reference
    operator >>(QDataStream&, QByteArray&)    - Undefined Reference
    _ZrsR11QDataStreamR10QByteArray@QtCore{00040703}[2001b2dc].dll  - Undefined Reference
    operator >>(QDataStream&, QUuid&)         - Undefined Reference
    _ZrsR11QDataStreamR5QUuid@QtCore{00040703}[2001b2dc].dll  - Undefined Reference
    operator >>(QDataStream&, QString&)       - Undefined Reference
    _ZrsR11QDataStreamR7QString@QtCore{00040703}[2001b2dc].dll  - Undefined Reference
    operator >>(QDataStream&, QVariant&)      - Undefined Reference
    _ZrsR11QDataStreamR8QVariant@QtCore{00040703}[2001b2dc].dll  - Undefined Reference
    __aeabi_memclr4                           - Undefined Reference
    __aeabi_memclr4@drtaeabi{000a0000}.dll    - Undefined Reference
    __aeabi_memcpy                            - Undefined Reference
    __aeabi_memcpy4                           - Undefined Reference
    __aeabi_memcpy4@drtaeabi{000a0000}.dll    - Undefined Reference
    __aeabi_memcpy@drtaeabi{000a0000}.dll     - Undefined Reference
    __aeabi_uidivmod                          - Undefined Reference
    __aeabi_uidivmod@drtaeabi{000a0000}.dll   - Undefined Reference
    __aeabi_unwind_cpp_pr0                    - Undefined Reference
    __aeabi_unwind_cpp_pr0@drtaeabi{000a0000}.dll  - Undefined Reference
    __aeabi_unwind_cpp_pr1                    - Undefined Reference
    __aeabi_unwind_cpp_pr1@drtaeabi{000a0000}.dll  - Undefined Reference
    __cxa_begin_catch                         - Undefined Reference
    __cxa_begin_catch@drtaeabi{000a0000}.dll  - Undefined Reference
    __cxa_call_unexpected                     - Undefined Reference
    __cxa_call_unexpected@drtaeabi{000a0000}.dll  - Undefined Reference
    __cxa_end_catch                           - Undefined Reference
    __cxa_end_catch@drtaeabi{000a0000}.dll    - Undefined Reference
    __cxa_end_cleanup                         - Undefined Reference
    __cxa_end_cleanup@drtaeabi{000a0000}.dll  - Undefined Reference
    __cxa_guard_abort                         - Undefined Reference
    __cxa_guard_abort@drtaeabi{000a0000}.dll  - Undefined Reference
    __cxa_guard_acquire                       - Undefined Reference
    __cxa_guard_acquire@drtaeabi{000a0000}.dll  - Undefined Reference
    __cxa_guard_release                       - Undefined Reference
    __cxa_guard_release@drtaeabi{000a0000}.dll  - Undefined Reference
    __cxa_pure_virtual                        - Undefined Reference
    __cxa_pure_virtual@drtaeabi{000a0000}.dll  - Undefined Reference
    __cxa_rethrow                             - Undefined Reference
    __cxa_rethrow@drtaeabi{000a0000}.dll      - Undefined Reference
    memcmp                                    - Undefined Reference
    memcmp@libc{00010001}[10207369].dll       - Undefined Reference
    strcmp                                    - Undefined Reference
    strcmp@libc{00010001}[10207369].dll       - Undefined Reference
    Image$$ER_RO$$Base                       0x00008000   Number         0  anon$$obj.o(linker$$defined$$symbols)
    _E32Dll                                  0x00008000   ARM Code      40  uc_dll_.o(.emb_text)
    Symbian$$CPP$$Exception$$Descriptor      0x00008014   Data           0  uc_dll_.o(.emb_text)
    __cpp_initialize__aeabi_                 0x00008028   ARM Code      52  ucppinit.o(.emb_text)
    std::nothrow                             0x0000805c   ARM Code       0  ucppinit.o(.emb_text)
    __PLT                                    0x0000805c   ARM Code       0  anon$$obj.o(.plt)
    QtMobility::ServiceMetaData::ServiceMetaData(const QString&) 0x00008a15   Thumb Code   126  servicemetadata.o(.text)
    QtMobility::ServiceMetaData::ServiceMetaData__sub_object(const QString&) 0x00008a15   Thumb Code     0  servicemetadata.o(.text)
    QtMobility::ServiceMetaData::ServiceMetaData(QIODevice*) 0x00008a93   Thumb Code   102  servicemetadata.o(.text)
    QtMobility::ServiceMetaData::ServiceMetaData__sub_object(QIODevice*) 0x00008a93   Thumb Code     0  servicemetadata.o(.text)
    QtMobility::ServiceMetaData::~ServiceMetaData() 0x00008af9   Thumb Code   114  servicemetadata.o(.text)
    QtMobility::ServiceMetaData::~ServiceMetaData__sub_object() 0x00008af9   Thumb Code     0  servicemetadata.o(.text)
    QtMobility::ServiceMetaData::clearMetadata() 0x00008b6b   Thumb Code   250  servicemetadata.o(.text)
    QtMobility::ServiceMetaData::setDevice(QIODevice*) 0x00008c65   Thumb Code    20  servicemetadata.o(.text)
    QtMobility::ServiceMetaData::device() const 0x00008c79   Thumb Code     6  servicemetadata.o(.text)
    QtMobility::ServiceMetaData::checkVersion(const QString&) const 0x00008c7f   Thumb Code   164  servicemetadata.o(.text)
    QtMobility::ServiceMetaData::transformVersion(const QString&, int*, int*) const 0x00008d23   Thumb Code   144  servicemetadata.o(.text)
    QtMobility::ServiceMetaData::greaterThan(const QString&, const QString&) const 0x00008db3   Thumb Code    82  servicemetadata.o(.text)
    QtMobility::ServiceMetaData::latestInterfaceVersion(const QString&) 0x00008e05   Thumb Code   158  servicemetadata.o(.text)
    QtMobility::ServiceMetaData::lessThan(const QtMobility::QServiceInterfaceDescriptor&, const QtMobility::QServiceInterfaceDescriptor&) const 0x00008ea3   Thumb Code    70  servicemetadata.o(.text)
    QtMobility::ServiceMetaData::processInterfaceElement(QXmlStreamReader&) 0x00008ee9   Thumb Code  1808  servicemetadata.o(.text)
    QtMobility::ServiceMetaData::processServiceElement(QXmlStreamReader&) 0x000095f9   Thumb Code  1254  servicemetadata.o(.text)
    QtMobility::ServiceMetaData::processVersionElement(QXmlStreamReader&) 0x00009adf   Thumb Code   502  servicemetadata.o(.text)
    QtMobility::ServiceMetaData::extractMetadata() 0x00009cd5   Thumb Code  1950  servicemetadata.o(.text)
    QtMobility::ServiceMetaData::getLatestError() const 0x0000a473   Thumb Code     6  servicemetadata.o(.text)
    QtMobility::ServiceMetaData::latestInterfaces() const 0x0000a479   Thumb Code   162  servicemetadata.o(.text)
    QtMobility::ServiceMetaData::parseResults() const 0x0000a51b   Thumb Code   142  servicemetadata.o(.text)
    QtMobility::operator <<(QDataStream&, const QtMobility::ServiceMetaDataResults&) 0x0000a5a9   Thumb Code    66  servicemetadata.o(.text)
    QtMobility::operator >>(QDataStream&, QtMobility::ServiceMetaDataResults&) 0x0000a5eb   Thumb Code    66  servicemetadata.o(.text)
    QtMobility::QServiceManager::getStaticMetaObject() 0x0000a675   Thumb Code     4  qservicemanager.o(.text)
    QtMobility::QServiceManager::metaObject() const 0x0000a679   Thumb Code    28  qservicemanager.o(.text)
    QtMobility::QServiceManager::qt_metacast(const char*) 0x0000a695   Thumb Code    40  qservicemanager.o(.text)
    QtMobility::QServiceManager::serviceRemoved(const QString&, QtMobility::QService::Scope) 0x0000a6bd   Thumb Code    40  qservicemanager.o(.text)
    QtMobility::QServiceManager::serviceAdded(const QString&, QtMobility::QService::Scope) 0x0000a6e5   Thumb Code    38  qservicemanager.o(.text)
    QtMobility::QServiceManager::qt_metacall(QMetaObject::Call, int, void**) 0x0000a70b   Thumb Code    84  qservicemanager.o(.text)
    QtMobility::QServiceManager::QServiceManager(QObject*) 0x0000a75f   Thumb Code    70  qservicemanager.o(.text)
    QtMobility::QServiceManager::QServiceManager__sub_object(QObject*) 0x0000a75f   Thumb Code     0  qservicemanager.o(.text)
    QtMobility::QServiceManager::QServiceManager(QtMobility::QService::Scope, QObject*) 0x0000a7a5   Thumb Code    60  qservicemanager.o(.text)
    QtMobility::QServiceManager::QServiceManager__sub_object(QtMobility::QService::Scope, QObject*) 0x0000a7a5   Thumb Code     0  qservicemanager.o(.text)
    QtMobility::QServiceManager::~QServiceManager() 0x0000a7e1   Thumb Code    34  qservicemanager.o(.text)
    QtMobility::QServiceManager::~QServiceManager__sub_object() 0x0000a7e1   Thumb Code     0  qservicemanager.o(.text)
    QtMobility::QServiceManager::~QServiceManager__deallocating() 0x0000a803   Thumb Code    22  qservicemanager.o(.text)
    QtMobility::QServiceManager::scope() const 0x0000a819   Thumb Code     8  qservicemanager.o(.text)
    QtMobility::QServiceManager::findServices(const QString&) const 0x0000a821   Thumb Code   122  qservicemanager.o(.text)
    QtMobility::QServiceManager::findInterfaces(const QtMobility::QServiceFilter&) const 0x0000a89b   Thumb Code   194  qservicemanager.o(.text)
    QtMobility::QServiceManager::findInterfaces(const QString&) const 0x0000a95d   Thumb Code    50  qservicemanager.o(.text)
    QtMobility::QServiceManager::interfaceDefault(const QString&) const 0x0000a98f   Thumb Code   112  qservicemanager.o(.text)
    QtMobility::QServiceManager::loadInterface(const QtMobility::QServiceInterfaceDescriptor&, QtMobility::QServiceContext*, QtMobility::QAbstractSecuritySession*) 0x0000ab9d   Thumb Code   972  qservicemanager.o(.text)
    QtMobility::QServiceManager::loadInterface(const QString&, QtMobility::QServiceContext*, QtMobility::QAbstractSecuritySession*) 0x0000af69   Thumb Code    46  qservicemanager.o(.text)
    QtMobility::QServiceManager::addService(QIODevice*) 0x0000af97   Thumb Code   302  qservicemanager.o(.text)
    QtMobility::QServiceManager::addService(const QString&) 0x0000b0c5   Thumb Code    68  qservicemanager.o(.text)
    QtMobility::QServiceManager::removeService(const QString&) 0x0000b109   Thumb Code   682  qservicemanager.o(.text)
    QtMobility::QServiceManager::setInterfaceDefault(const QString&, const QString&) 0x0000b3b3   Thumb Code    92  qservicemanager.o(.text)
    QtMobility::QServiceManager::setInterfaceDefault(const QtMobility::QServiceInterfaceDescriptor&) 0x0000b40f   Thumb Code    56  qservicemanager.o(.text)
    QtMobility::QServiceManager::error() const 0x0000b447   Thumb Code     8  qservicemanager.o(.text)
    QtMobility::QServiceManager::connectNotify(const char*) 0x0000b44f   Thumb Code    74  qservicemanager.o(.text)
    QtMobility::QServiceManager::disconnectNotify(const char*) 0x0000b499   Thumb Code    98  qservicemanager.o(.text)
    QtMobility::QServicePluginCleanup::getStaticMetaObject() 0x0000b4fb   Thumb Code     4  qservicemanager.o(.text)
    QtMobility::QServicePluginCleanup::metaObject() const 0x0000b4ff   Thumb Code    28  qservicemanager.o(.text)
    QtMobility::QServicePluginCleanup::qt_metacast(const char*) 0x0000b51b   Thumb Code    40  qservicemanager.o(.text)
    QtMobility::QServicePluginCleanup::qt_metacall(QMetaObject::Call, int, void**) 0x0000b543   Thumb Code    36  qservicemanager.o(.text)
    QtMobility::QServiceManagerPrivate::getStaticMetaObject() 0x0000b567   Thumb Code     4  qservicemanager.o(.text)
    QtMobility::QServiceManagerPrivate::metaObject() const 0x0000b56b   Thumb Code    28  qservicemanager.o(.text)
    QtMobility::QServiceManagerPrivate::qt_metacast(const char*) 0x0000b587   Thumb Code    42  qservicemanager.o(.text)
    QtMobility::QServiceManagerPrivate::qt_metacall(QMetaObject::Call, int, void**) 0x0000b5b1   Thumb Code   128  qservicemanager.o(.text)
    QtMobility::QServicePluginInterface::QServicePluginInterface__sub_object() 0x0000b691   Thumb Code     6  qserviceplugininterface.o(.text)
    QtMobility::QServicePluginInterface::~QServicePluginInterface() 0x0000b697   Thumb Code     0  qserviceplugininterface.o(.text)
    QtMobility::QServicePluginInterface::~QServicePluginInterface__sub_object() 0x0000b697   Thumb Code     2  qserviceplugininterface.o(.text)
    QtMobility::QServicePluginInterface::~QServicePluginInterface__deallocating() 0x0000b699   Thumb Code    22  qserviceplugininterface.o(.text)
    QtMobility::QServicePluginInterface::installService() 0x0000b6af   Thumb Code     2  qserviceplugininterface.o(.text)
    QtMobility::QServicePluginInterface::uninstallService() 0x0000b6b1   Thumb Code     2  qserviceplugininterface.o(.text)
    QtMobility::QServiceContext::getStaticMetaObject() 0x0000b6b9   Thumb Code     4  qservicecontext.o(.text)
    QtMobility::QServiceContext::metaObject() const 0x0000b6bd   Thumb Code    28  qservicecontext.o(.text)
    QtMobility::QServiceContext::qt_metacast(const char*) 0x0000b6d9   Thumb Code    40  qservicecontext.o(.text)
    QtMobility::QServiceContext::setClientName(const QString&) 0x0000b701   Thumb Code    18  qservicecontext.o(.text)
    QtMobility::QServiceContext::setClientId(const QString&) 0x0000b713   Thumb Code    18  qservicecontext.o(.text)
    QtMobility::QServiceContext::clientName() const 0x0000b725   Thumb Code    20  qservicecontext.o(.text)
    QtMobility::QServiceContext::clientId() const 0x0000b739   Thumb Code    20  qservicecontext.o(.text)
    QtMobility::QServiceContext::qt_metacall(QMetaObject::Call, int, void**) 0x0000b74d   Thumb Code   252  qservicecontext.o(.text)
    QtMobility::QServiceContext::QServiceContext__sub_object(QObject*) 0x0000b849   Thumb Code   114  qservicecontext.o(.text)
    QtMobility::QServiceContext::~QServiceContext() 0x0000b8bb   Thumb Code     0  qservicecontext.o(.text)
    QtMobility::QServiceContext::~QServiceContext__sub_object() 0x0000b8bb   Thumb Code    42  qservicecontext.o(.text)
    QtMobility::QServiceContext::~QServiceContext__deallocating() 0x0000b8e5   Thumb Code    22  qservicecontext.o(.text)
    QtMobility::QServiceContext::clientData(const QString&) const 0x0000b8fb   Thumb Code    82  qservicecontext.o(.text)
    QtMobility::QServiceContext::setClientData(const QString&, const QVariant&) 0x0000b94d   Thumb Code    36  qservicecontext.o(.text)
    QtMobility::QServiceContext::resetClientData() 0x0000b971   Thumb Code   100  qservicecontext.o(.text)
    QtMobility::QAbstractSecuritySession::getStaticMetaObject() 0x0000b9e9   Thumb Code     4  qabstractsecuritysession.o(.text)
    QtMobility::QAbstractSecuritySession::metaObject() const 0x0000b9ed   Thumb Code    28  qabstractsecuritysession.o(.text)
    QtMobility::QAbstractSecuritySession::qt_metacast(const char*) 0x0000ba09   Thumb Code    40  qabstractsecuritysession.o(.text)
    QtMobility::QAbstractSecuritySession::qt_metacall(QMetaObject::Call, int, void**) 0x0000ba31   Thumb Code    36  qabstractsecuritysession.o(.text)
    QtMobility::QAbstractSecuritySession::QAbstractSecuritySession__sub_object(QObject*) 0x0000ba55   Thumb Code    24  qabstractsecuritysession.o(.text)
    QtMobility::QAbstractSecuritySession::~QAbstractSecuritySession() 0x0000ba6d   Thumb Code     0  qabstractsecuritysession.o(.text)
    QtMobility::QAbstractSecuritySession::~QAbstractSecuritySession__sub_object() 0x0000ba6d   Thumb Code    14  qabstractsecuritysession.o(.text)
    QtMobility::QAbstractSecuritySession::~QAbstractSecuritySession__deallocating() 0x0000ba7b   Thumb Code    22  qabstractsecuritysession.o(.text)
    QtMobility::operator <<(QDataStream&, const QtMobility::QServiceInterfaceDescriptor::Attribute&) 0x0000ba9d   Thumb Code    22  qserviceinterfacedescriptor.o(.text)
    QtMobility::operator >>(QDataStream&, QtMobility::QServiceInterfaceDescriptor::Attribute&) 0x0000bab3   Thumb Code    26  qserviceinterfacedescriptor.o(.text)
    QtMobility::QServiceInterfaceDescriptor::QServiceInterfaceDescriptor() 0x0000bacd   Thumb Code     6  qserviceinterfacedescriptor.o(.text)
    QtMobility::QServiceInterfaceDescriptor::QServiceInterfaceDescriptor__sub_object() 0x0000bacd   Thumb Code     0  qserviceinterfacedescriptor.o(.text)
    QtMobility::QServiceInterfaceDescriptor::isValid() const 0x0000bad3   Thumb Code    16  qserviceinterfacedescriptor.o(.text)
    QtMobility::QServiceInterfaceDescriptor::operator =(const QtMobility::QServiceInterfaceDescriptor&) 0x0000bae3   Thumb Code   140  qserviceinterfacedescriptor.o(.text)
    QtMobility::QServiceInterfaceDescriptor::QServiceInterfaceDescriptor(const QtMobility::QServiceInterfaceDescriptor&) 0x0000bb6f   Thumb Code    22  qserviceinterfacedescriptor.o(.text)
    QtMobility::QServiceInterfaceDescriptor::QServiceInterfaceDescriptor__sub_object(const QtMobility::QServiceInterfaceDescriptor&) 0x0000bb6f   Thumb Code     0  qserviceinterfacedescriptor.o(.text)
    QtMobility::QServiceInterfaceDescriptor::~QServiceInterfaceDescriptor() 0x0000bb85   Thumb Code    32  qserviceinterfacedescriptor.o(.text)
    QtMobility::QServiceInterfaceDescriptor::~QServiceInterfaceDescriptor__sub_object() 0x0000bb85   Thumb Code     0  qserviceinterfacedescriptor.o(.text)
    QtMobility::QServiceInterfaceDescriptor::operator ==(const QtMobility::QServiceInterfaceDescriptor&) const 0x0000bba5   Thumb Code   140  qserviceinterfacedescriptor.o(.text)
    QtMobility::QServiceInterfaceDescriptor::serviceName() const 0x0000bc31   Thumb Code    52  qserviceinterfacedescriptor.o(.text)
    QtMobility::QServiceInterfaceDescriptor::interfaceName() const 0x0000bc65   Thumb Code    54  qserviceinterfacedescriptor.o(.text)
    QtMobility::QServiceInterfaceDescriptor::majorVersion() const 0x0000bc9b   Thumb Code    20  qserviceinterfacedescriptor.o(.text)
    QtMobility::QServiceInterfaceDescriptor::minorVersion() const 0x0000bcaf   Thumb Code    20  qserviceinterfacedescriptor.o(.text)
    QtMobility::QServiceInterfaceDescriptor::scope() const 0x0000bcc3   Thumb Code    18  qserviceinterfacedescriptor.o(.text)
    QtMobility::QServiceInterfaceDescriptor::attribute(QtMobility::QServiceInterfaceDescriptor::Attribute) const 0x0000bcd5   Thumb Code    86  qserviceinterfacedescriptor.o(.text)
    QtMobility::QServiceInterfaceDescriptor::customAttribute(const QString&) const 0x0000bd2b   Thumb Code   152  qserviceinterfacedescriptor.o(.text)
    QtMobility::QServiceInterfaceDescriptor::customAttributes() const 0x0000bdc3   Thumb Code    80  qserviceinterfacedescriptor.o(.text)
    QtMobility::operator <<(QDebug, const QtMobility::QServiceInterfaceDescriptor&) 0x0000be13   Thumb Code   434  qserviceinterfacedescriptor.o(.text)
    QtMobility::operator <<(QDataStream&, const QtMobility::QServiceInterfaceDescriptor&) 0x0000bfc5   Thumb Code   158  qserviceinterfacedescriptor.o(.text)
    QtMobility::operator >>(QDataStream&, QtMobility::QServiceInterfaceDescriptor&) 0x0000c063   Thumb Code   298  qserviceinterfacedescriptor.o(.text)
    QtMobility::QServiceFilter::QServiceFilter() 0x0000c249   Thumb Code    60  qservicefilter.o(.text)
    QtMobility::QServiceFilter::QServiceFilter__sub_object() 0x0000c249   Thumb Code     0  qservicefilter.o(.text)
    QtMobility::QServiceFilter::~QServiceFilter() 0x0000c285   Thumb Code    60  qservicefilter.o(.text)
    QtMobility::QServiceFilter::~QServiceFilter__sub_object() 0x0000c285   Thumb Code     0  qservicefilter.o(.text)
    QtMobility::QServiceFilter::operator =(const QtMobility::QServiceFilter&) 0x0000c2c1   Thumb Code    98  qservicefilter.o(.text)
    QtMobility::QServiceFilter::QServiceFilter(const QtMobility::QServiceFilter&) 0x0000c323   Thumb Code    48  qservicefilter.o(.text)
    QtMobility::QServiceFilter::QServiceFilter__sub_object(const QtMobility::QServiceFilter&) 0x0000c323   Thumb Code     0  qservicefilter.o(.text)
    QtMobility::QServiceFilter::setInterface(const QString&, const QString&, QtMobility::QServiceFilter::VersionMatchRule) 0x0000c353   Thumb Code   414  qservicefilter.o(.text)
    QtMobility::QServiceFilter::QServiceFilter(const QString&, const QString&, QtMobility::QServiceFilter::VersionMatchRule) 0x0000c4f1   Thumb Code    88  qservicefilter.o(.text)
    QtMobility::QServiceFilter::QServiceFilter__sub_object(const QString&, const QString&, QtMobility::QServiceFilter::VersionMatchRule) 0x0000c4f1   Thumb Code     0  qservicefilter.o(.text)
    QtMobility::QServiceFilter::setServiceName(const QString&) 0x0000c549   Thumb Code    18  qservicefilter.o(.text)
    QtMobility::QServiceFilter::serviceName() const 0x0000c55b   Thumb Code    20  qservicefilter.o(.text)
    QtMobility::QServiceFilter::interfaceName() const 0x0000c56f   Thumb Code    18  qservicefilter.o(.text)
    QtMobility::QServiceFilter::majorVersion() const 0x0000c581   Thumb Code     8  qservicefilter.o(.text)
    QtMobility::QServiceFilter::minorVersion() const 0x0000c589   Thumb Code     8  qservicefilter.o(.text)
    QtMobility::QServiceFilter::versionMatchRule() const 0x0000c591   Thumb Code     8  qservicefilter.o(.text)
    QtMobility::QServiceFilter::customAttributes() const 0x0000c599   Thumb Code    40  qservicefilter.o(.text)
    QtMobility::QServiceFilter::customAttribute(const QString&) const 0x0000c5c1   Thumb Code    72  qservicefilter.o(.text)
    QtMobility::QServiceFilter::setCustomAttribute(const QString&, const QString&) 0x0000c609   Thumb Code   116  qservicefilter.o(.text)
    QtMobility::QServiceFilter::clearCustomAttribute(const QString&) 0x0000c67d   Thumb Code    42  qservicefilter.o(.text)
    QtMobility::QServiceFilter::setCapabilities(QtMobility::QServiceFilter::CapabilityMatchRule, const QStringList&) 0x0000c6a7   Thumb Code    28  qservicefilter.o(.text)
    QtMobility::QServiceFilter::capabilities() const 0x0000c6c3   Thumb Code    28  qservicefilter.o(.text)
    QtMobility::QServiceFilter::capabilityMatchRule() const 0x0000c6df   Thumb Code     8  qservicefilter.o(.text)
    QtMobility::operator <<(QDataStream&, const QtMobility::QServiceFilter&) 0x0000c6e7   Thumb Code   324  qservicefilter.o(.text)
    QtMobility::operator >>(QDataStream&, QtMobility::QServiceFilter&) 0x0000c82b   Thumb Code   254  qservicefilter.o(.text)
    QtMobility::DBError::setError(QtMobility::DBError::ErrorCode, const QString&) 0x0000c999   Thumb Code   162  dberror.o(.text)
    QtMobility::DBError::DBError()           0x0000ca3b   Thumb Code    40  dberror.o(.text)
    QtMobility::DBError::DBError__sub_object() 0x0000ca3b   Thumb Code     0  dberror.o(.text)
    QtMobility::QRemoteServiceRegister::getStaticMetaObject() 0x0000cad5   Thumb Code     4  qremoteserviceregister.o(.text)
    QtMobility::QRemoteServiceRegister::metaObject() const 0x0000cad9   Thumb Code    28  qremoteserviceregister.o(.text)
    QtMobility::QRemoteServiceRegister::qt_metacast(const char*) 0x0000caf5   Thumb Code    40  qremoteserviceregister.o(.text)
    QtMobility::QRemoteServiceRegister::setQuitOnLastInstanceClosed(bool) 0x0000cb1d   Thumb Code    20  qremoteserviceregister.o(.text)
    QtMobility::QRemoteServiceRegister::quitOnLastInstanceClosed() const 0x0000cb31   Thumb Code    16  qremoteserviceregister.o(.text)
    QtMobility::QRemoteServiceRegister::instanceClosed(const QtMobility::QRemoteServiceRegister::Entry&) 0x0000cb41   Thumb Code    30  qremoteserviceregister.o(.text)
    QtMobility::QRemoteServiceRegister::allInstancesClosed() 0x0000cb5f   Thumb Code    18  qremoteserviceregister.o(.text)
    QtMobility::QRemoteServiceRegister::qt_metacall(QMetaObject::Call, int, void**) 0x0000cb71   Thumb Code   176  qremoteserviceregister.o(.text)
    QtMobility::QRemoteServiceRegister::QRemoteServiceRegister(QObject*) 0x0000cc21   Thumb Code    72  qremoteserviceregister.o(.text)
    QtMobility::QRemoteServiceRegister::QRemoteServiceRegister__sub_object(QObject*) 0x0000cc21   Thumb Code     0  qremoteserviceregister.o(.text)
    QtMobility::QRemoteServiceRegister::~QRemoteServiceRegister() 0x0000cc69   Thumb Code    14  qremoteserviceregister.o(.text)
    QtMobility::QRemoteServiceRegister::~QRemoteServiceRegister__sub_object() 0x0000cc69   Thumb Code     0  qremoteserviceregister.o(.text)
    QtMobility::QRemoteServiceRegister::~QRemoteServiceRegister__deallocating() 0x0000cc77   Thumb Code    22  qremoteserviceregister.o(.text)
    QtMobility::QRemoteServiceRegister::publishEntries(const QString&) 0x0000cc8d   Thumb Code    20  qremoteserviceregister.o(.text)
    QtMobility::QRemoteServiceRegister::setSecurityFilter(bool(*)(const void*)) 0x0000cca1   Thumb Code    20  qremoteserviceregister.o(.text)
    QtMobility::QRemoteServiceRegister::Entry::~Entry() 0x0000ccb5   Thumb Code    14  qremoteserviceregister.o(.text)
    QtMobility::QRemoteServiceRegister::Entry::~Entry__sub_object() 0x0000ccb5   Thumb Code     0  qremoteserviceregister.o(.text)
    QtMobility::QRemoteServiceRegister::Entry::Entry(const QtMobility::QRemoteServiceRegister::Entry&) 0x0000ccc3   Thumb Code    28  qremoteserviceregister.o(.text)
    QtMobility::QRemoteServiceRegister::Entry::Entry__sub_object(const QtMobility::QRemoteServiceRegister::Entry&) 0x0000ccc3   Thumb Code     0  qremoteserviceregister.o(.text)
    QtMobility::QRemoteServiceRegister::Entry::Entry() 0x0000ccdf   Thumb Code   144  qremoteserviceregister.o(.text)
    QtMobility::QRemoteServiceRegister::Entry::Entry__sub_object() 0x0000ccdf   Thumb Code     0  qremoteserviceregister.o(.text)
    QtMobility::QRemoteServiceRegister::createEntry(const QString&, const QString&, const QString&, QObject*(*)(), const QMetaObject*) 0x0000cd6f   Thumb Code   256  qremoteserviceregister.o(.text)
    QtMobility::QRemoteServiceRegister::Entry::operator =(const QtMobility::QRemoteServiceRegister::Entry&) 0x0000ce6f   Thumb Code   158  qremoteserviceregister.o(.text)
    QtMobility::QRemoteServiceRegister::Entry::operator ==(const QtMobility::QRemoteServiceRegister::Entry&) const 0x0000cf0d   Thumb Code    84  qremoteserviceregister.o(.text)
    QtMobility::QRemoteServiceRegister::Entry::operator !=(const QtMobility::QRemoteServiceRegister::Entry&) const 0x0000cf61   Thumb Code    20  qremoteserviceregister.o(.text)
    QtMobility::QRemoteServiceRegister::Entry::isValid() const 0x0000cf75   Thumb Code    84  qremoteserviceregister.o(.text)
    QtMobility::QRemoteServiceRegister::Entry::interfaceName() const 0x0000cfc9   Thumb Code    24  qremoteserviceregister.o(.text)
    QtMobility::QRemoteServiceRegister::Entry::serviceName() const 0x0000cfe1   Thumb Code    26  qremoteserviceregister.o(.text)
    QtMobility::QRemoteServiceRegister::Entry::version() const 0x0000cffb   Thumb Code    26  qremoteserviceregister.o(.text)
    QtMobility::QRemoteServiceRegister::Entry::setInstantiationType(QtMobility::QRemoteServiceRegister::InstanceType) 0x0000d015   Thumb Code     8  qremoteserviceregister.o(.text)
    QtMobility::QRemoteServiceRegister::Entry::instantiationType() const 0x0000d01d   Thumb Code    10  qremoteserviceregister.o(.text)
    QtMobility::QRemoteServiceRegister::Entry::metaObject() const 0x0000d027   Thumb Code    10  qremoteserviceregister.o(.text)
    QtMobility::operator >>(QDataStream&, QtMobility::QRemoteServiceRegister::Entry&) 0x0000d031   Thumb Code    56  qremoteserviceregister.o(.text)
    QtMobility::operator <<(QDataStream&, const QtMobility::QRemoteServiceRegister::Entry&) 0x0000d069   Thumb Code    56  qremoteserviceregister.o(.text)
    QtMobility::operator <<(QDebug, const QtMobility::QRemoteServiceRegister::Entry&) 0x0000d0a1   Thumb Code   170  qremoteserviceregister.o(.text)
    QtMobility::RDatabaseManagerSession::RDatabaseManagerSession() 0x0000d175   Thumb Code    82  databasemanager_symbian.o(.text)
    QtMobility::RDatabaseManagerSession::RDatabaseManagerSession__sub_object() 0x0000d175   Thumb Code     0  databasemanager_symbian.o(.text)
    QtMobility::RDatabaseManagerSession::StartServer() 0x0000d1c7   Thumb Code   224  databasemanager_symbian.o(.text)
    QtMobility::RDatabaseManagerSession::Connect() 0x0000d2a7   Thumb Code   102  databasemanager_symbian.o(.text)
    QtMobility::RDatabaseManagerSession::Close() 0x0000d30d   Thumb Code    12  databasemanager_symbian.o(.text)
    QtMobility::RDatabaseManagerSession::Version() const 0x0000d319   Thumb Code    20  databasemanager_symbian.o(.text)
    QtMobility::RDatabaseManagerSession::RegisterService(QtMobility::ServiceMetaDataResults&) 0x0000d32d   Thumb Code   158  databasemanager_symbian.o(.text)
    QtMobility::RDatabaseManagerSession::UnregisterService(const QString&) 0x0000d3cb   Thumb Code    92  databasemanager_symbian.o(.text)
    QtMobility::RDatabaseManagerSession::ServiceInitialized(const QString&) 0x0000d427   Thumb Code    92  databasemanager_symbian.o(.text)
    QtMobility::RDatabaseManagerSession::Interfaces(const QtMobility::QServiceFilter&) 0x0000d483   Thumb Code   298  databasemanager_symbian.o(.text)
    QtMobility::RDatabaseManagerSession::ServiceNames(const QString&) 0x0000d5ad   Thumb Code   242  databasemanager_symbian.o(.text)
    QtMobility::RDatabaseManagerSession::InterfaceDefault(const QString&) 0x0000d69f   Thumb Code   236  databasemanager_symbian.o(.text)
    QtMobility::RDatabaseManagerSession::SetInterfaceDefault(const QString&, const QString&) 0x0000d78b   Thumb Code   122  databasemanager_symbian.o(.text)
    QtMobility::RDatabaseManagerSession::SetInterfaceDefault(const QtMobility::QServiceInterfaceDescriptor&) 0x0000d805   Thumb Code   158  databasemanager_symbian.o(.text)
    QtMobility::RDatabaseManagerSession::LastError() 0x0000d8a3   Thumb Code    52  databasemanager_symbian.o(.text)
    QtMobility::RDatabaseManagerSession::SetChangeNotificationsEnabled(bool) 0x0000d8d7   Thumb Code    54  databasemanager_symbian.o(.text)
    QtMobility::RDatabaseManagerSession::NotifyServiceSignal(TRequestStatus&) 0x0000d90d   Thumb Code    88  databasemanager_symbian.o(.text)
    QtMobility::RDatabaseManagerSession::CancelNotifyServiceSignal() const 0x0000d965   Thumb Code    38  databasemanager_symbian.o(.text)
    QtMobility::DatabaseManager::getStaticMetaObject() 0x0000d98b   Thumb Code     4  databasemanager_symbian.o(.text)
    QtMobility::DatabaseManager::metaObject() const 0x0000d98f   Thumb Code    28  databasemanager_symbian.o(.text)
    QtMobility::DatabaseManager::qt_metacast(const char*) 0x0000d9ab   Thumb Code    40  databasemanager_symbian.o(.text)
    QtMobility::DatabaseManager::serviceRemoved(const QString&, QtMobility::DatabaseManager::DbScope) 0x0000d9d3   Thumb Code    40  databasemanager_symbian.o(.text)
    QtMobility::DatabaseManager::serviceAdded(const QString&, QtMobility::DatabaseManager::DbScope) 0x0000d9fb   Thumb Code    38  databasemanager_symbian.o(.text)
    QtMobility::DatabaseManager::qt_metacall(QMetaObject::Call, int, void**) 0x0000da21   Thumb Code    84  databasemanager_symbian.o(.text)
    QtMobility::DatabaseManagerSignalMonitor::issueNotifyServiceSignal() 0x0000da75   Thumb Code    20  databasemanager_symbian.o(.text)
    QtMobility::DatabaseManagerSignalMonitor::DatabaseManagerSignalMonitor(QtMobility::DatabaseManager&, QtMobility::RDatabaseManagerSession&) 0x0000da89   Thumb Code    42  databasemanager_symbian.o(.text)
    QtMobility::DatabaseManagerSignalMonitor::DatabaseManagerSignalMonitor__sub_object(QtMobility::DatabaseManager&, QtMobility::RDatabaseManagerSession&) 0x0000da89   Thumb Code     0  databasemanager_symbian.o(.text)
    QtMobility::DatabaseManager::DatabaseManager() 0x0000dab3   Thumb Code    90  databasemanager_symbian.o(.text)
    QtMobility::DatabaseManager::DatabaseManager__sub_object() 0x0000dab3   Thumb Code     0  databasemanager_symbian.o(.text)
    QtMobility::DatabaseManager::~DatabaseManager() 0x0000db0d   Thumb Code    42  databasemanager_symbian.o(.text)
    QtMobility::DatabaseManager::~DatabaseManager__sub_object() 0x0000db0d   Thumb Code     0  databasemanager_symbian.o(.text)
    QtMobility::DatabaseManager::~DatabaseManager__deallocating() 0x0000db37   Thumb Code    22  databasemanager_symbian.o(.text)
    QtMobility::DatabaseManager::registerService(QtMobility::ServiceMetaDataResults&, QtMobility::DatabaseManager::DbScope) 0x0000db4d   Thumb Code    24  databasemanager_symbian.o(.text)
    QtMobility::DatabaseManager::unregisterService(const QString&, QtMobility::DatabaseManager::DbScope) 0x0000db65   Thumb Code    24  databasemanager_symbian.o(.text)
    QtMobility::DatabaseManager::serviceInitialized(const QString&, QtMobility::DatabaseManager::DbScope) 0x0000db7d   Thumb Code    24  databasemanager_symbian.o(.text)
    QtMobility::DatabaseManager::getInterfaces(const QtMobility::QServiceFilter&, QtMobility::DatabaseManager::DbScope) 0x0000db95   Thumb Code    28  databasemanager_symbian.o(.text)
    QtMobility::DatabaseManager::getServiceNames(const QString&, QtMobility::DatabaseManager::DbScope) 0x0000dbb1   Thumb Code    28  databasemanager_symbian.o(.text)
    QtMobility::DatabaseManager::interfaceDefault(const QString&, QtMobility::DatabaseManager::DbScope) 0x0000dbcd   Thumb Code    28  databasemanager_symbian.o(.text)
    QtMobility::DatabaseManager::setInterfaceDefault(const QString&, const QString&, QtMobility::DatabaseManager::DbScope) 0x0000dbe9   Thumb Code    28  databasemanager_symbian.o(.text)
    QtMobility::DatabaseManager::setInterfaceDefault(const QtMobility::QServiceInterfaceDescriptor&, QtMobility::DatabaseManager::DbScope) 0x0000dc05   Thumb Code    24  databasemanager_symbian.o(.text)
    QtMobility::DatabaseManager::lastError() 0x0000dc1d   Thumb Code    18  databasemanager_symbian.o(.text)
    QtMobility::DatabaseManager::setChangeNotificationsEnabled(QtMobility::DatabaseManager::DbScope, bool) 0x0000dc2f   Thumb Code    24  databasemanager_symbian.o(.text)
    QtMobility::DatabaseManagerSignalMonitor::~DatabaseManagerSignalMonitor() 0x0000dc47   Thumb Code    24  databasemanager_symbian.o(.text)
    QtMobility::DatabaseManagerSignalMonitor::~DatabaseManagerSignalMonitor__sub_object() 0x0000dc47   Thumb Code     0  databasemanager_symbian.o(.text)
    QtMobility::DatabaseManagerSignalMonitor::~DatabaseManagerSignalMonitor__deallocating() 0x0000dc5f   Thumb Code    22  databasemanager_symbian.o(.text)
    QtMobility::DatabaseManagerSignalMonitor::DoCancel() 0x0000dc75   Thumb Code    12  databasemanager_symbian.o(.text)
    QtMobility::DatabaseManagerSignalMonitor::RunL() 0x0000dc81   Thumb Code   120  databasemanager_symbian.o(.text)
    QtMobility::RServiceSession::ListenForPackages(TRequestStatus&) 0x0000dd09   Thumb Code    78  qremoteserviceregister_s60.o(.text)
    QtMobility::ServiceMessageListener::StartListening() 0x0000dd57   Thumb Code    20  qremoteserviceregister_s60.o(.text)
    QtMobility::RServiceSession::setListener(QtMobility::ServiceMessageListener*) 0x0000dd6b   Thumb Code    10  qremoteserviceregister_s60.o(.text)
    QtMobility::ServiceMessageListener::ServiceMessageListener(QtMobility::RServiceSession*, QtMobility::SymbianClientEndPoint*) 0x0000dd75   Thumb Code    66  qremoteserviceregister_s60.o(.text)
    QtMobility::ServiceMessageListener::ServiceMessageListener__sub_object(QtMobility::RServiceSession*, QtMobility::SymbianClientEndPoint*) 0x0000dd75   Thumb Code     0  qremoteserviceregister_s60.o(.text)
    QtMobility::RServiceSession::Version() const 0x0000ddb7   Thumb Code    20  qremoteserviceregister_s60.o(.text)
    QtMobility::RServiceSession::StartServer() 0x0000ddcb   Thumb Code   268  qremoteserviceregister_s60.o(.text)
    QtMobility::RServiceSession::Connect()   0x0000ded7   Thumb Code    82  qremoteserviceregister_s60.o(.text)
    QtMobility::RServiceSession::RServiceSession(QString) 0x0000df29   Thumb Code   158  qremoteserviceregister_s60.o(.text)
    QtMobility::RServiceSession::RServiceSession__sub_object(QString) 0x0000df29   Thumb Code     0  qremoteserviceregister_s60.o(.text)
    QtMobility::QRemoteServiceRegisterPrivate::proxyForService(const QtMobility::QRemoteServiceRegister::Entry&, const QString&) 0x0000dfc7   Thumb Code   550  qremoteserviceregister_s60.o(.text)
    QtMobility::QRemoteServiceRegisterSymbianPrivate::QRemoteServiceRegisterSymbianPrivate(QObject*) 0x0000e1ed   Thumb Code    28  qremoteserviceregister_s60.o(.text)
    QtMobility::QRemoteServiceRegisterSymbianPrivate::QRemoteServiceRegisterSymbianPrivate__sub_object(QObject*) 0x0000e1ed   Thumb Code     0  qremoteserviceregister_s60.o(.text)
    QtMobility::QRemoteServiceRegisterPrivate::constructPrivateObject(QObject*) 0x0000e209   Thumb Code    32  qremoteserviceregister_s60.o(.text)
    QtMobility::RServiceSession::getStaticMetaObject() 0x0000e229   Thumb Code     4  qremoteserviceregister_s60.o(.text)
    QtMobility::RServiceSession::metaObject() const 0x0000e22d   Thumb Code    28  qremoteserviceregister_s60.o(.text)
    QtMobility::RServiceSession::qt_metacast(const char*) 0x0000e249   Thumb Code    58  qremoteserviceregister_s60.o(.text)
    QtMobility::RServiceSession::errorUnrecoverableIPCFault(QtMobility::QService::UnrecoverableIPCError) 0x0000e283   Thumb Code    32  qremoteserviceregister_s60.o(.text)
    QtMobility::RServiceSession::ipcFailure(QtMobility::QService::UnrecoverableIPCError) 0x0000e2a3   Thumb Code    16  qremoteserviceregister_s60.o(.text)
    QtMobility::RServiceSession::Disconnected() 0x0000e2b3   Thumb Code    18  qremoteserviceregister_s60.o(.text)
    QtMobility::RServiceSession::qt_metacall(QMetaObject::Call, int, void**) 0x0000e2c5   Thumb Code    92  qremoteserviceregister_s60.o(.text)
    QtMobility::RServiceSession::Close()     0x0000e321   Thumb Code    14  qremoteserviceregister_s60.o(.text)
    QtMobility::RServiceSession::~RServiceSession() 0x0000e32f   Thumb Code    68  qremoteserviceregister_s60.o(.text)
    QtMobility::RServiceSession::~RServiceSession__sub_object() 0x0000e32f   Thumb Code     0  qremoteserviceregister_s60.o(.text)
    QtMobility::RServiceSession::~RServiceSession__deallocating() 0x0000e373   Thumb Code    22  qremoteserviceregister_s60.o(.text)
    QtMobility::RServiceSession::SendServicePackage(const QtMobility::QServicePackage&) 0x0000e389   Thumb Code   180  qremoteserviceregister_s60.o(.text)
    QtMobility::RServiceSession::CancelListenForPackages() 0x0000e43d   Thumb Code    86  qremoteserviceregister_s60.o(.text)
    QtMobility::CServiceProviderServer::CServiceProviderServer(QtMobility::QRemoteServiceRegisterSymbianPrivate*) 0x0000e493   Thumb Code    40  qremoteserviceregister_s60.o(.text)
    QtMobility::CServiceProviderServer::CServiceProviderServer__sub_object(QtMobility::QRemoteServiceRegisterSymbianPrivate*) 0x0000e493   Thumb Code     0  qremoteserviceregister_s60.o(.text)
    QtMobility::CServiceProviderServerSession::SetParent(QtMobility::SymbianServerEndPoint*) 0x0000e4bb   Thumb Code     4  qremoteserviceregister_s60.o(.text)
    QtMobility::QRemoteServiceRegisterSymbianPrivate::processIncoming(QtMobility::CServiceProviderServerSession*) 0x0000e4bf   Thumb Code   120  qremoteserviceregister_s60.o(.text)
    QtMobility::CServiceProviderServerSession::ConstructL() 0x0000e537   Thumb Code    18  qremoteserviceregister_s60.o(.text)
    QtMobility::CServiceProviderServer::IncreaseSessions() 0x0000e549   Thumb Code     8  qremoteserviceregister_s60.o(.text)
    QtMobility::CServiceProviderServerSession::CServiceProviderServerSession(QtMobility::CServiceProviderServer&) 0x0000e551   Thumb Code   140  qremoteserviceregister_s60.o(.text)
    QtMobility::CServiceProviderServerSession::CServiceProviderServerSession__sub_object(QtMobility::CServiceProviderServer&) 0x0000e551   Thumb Code     0  qremoteserviceregister_s60.o(.text)
    QtMobility::CServiceProviderServerSession::NewLC(QtMobility::CServiceProviderServer&) 0x0000e5dd   Thumb Code    40  qremoteserviceregister_s60.o(.text)
    QtMobility::CServiceProviderServerSession::NewL(QtMobility::CServiceProviderServer&) 0x0000e605   Thumb Code    28  qremoteserviceregister_s60.o(.text)
    QtMobility::CServiceProviderServer::NewSessionL(const TVersion&, const RMessage2&) const 0x0000e621   Thumb Code    60  qremoteserviceregister_s60.o(.text)
    QtMobility::CServiceProviderServer::DecreaseSessions() 0x0000e65d   Thumb Code    44  qremoteserviceregister_s60.o(.text)
    QtMobility::CServiceProviderServer::setSecurityFilter(bool(*)(const void*)) 0x0000e689   Thumb Code     4  qremoteserviceregister_s60.o(.text)
    QtMobility::CServiceProviderServer::CustomSecurityCheckL(const RMessage2&, int&, TSecurityInfo&) 0x0000e68d   Thumb Code    38  qremoteserviceregister_s60.o(.text)
    QtMobility::CServiceProviderServerSession::~CServiceProviderServerSession() 0x0000e6b3   Thumb Code    86  qremoteserviceregister_s60.o(.text)
    QtMobility::CServiceProviderServerSession::~CServiceProviderServerSession__sub_object() 0x0000e6b3   Thumb Code     0  qremoteserviceregister_s60.o(.text)
    QtMobility::CServiceProviderServerSession::~CServiceProviderServerSession__deallocating() 0x0000e709   Thumb Code    22  qremoteserviceregister_s60.o(.text)
    QtMobility::CServiceProviderServerSession::HandlePackageRequestCancelL(const RMessage2&) 0x0000e71f   Thumb Code    38  qremoteserviceregister_s60.o(.text)
    QtMobility::CServiceProviderServerSession::SendServicePackageL(const QtMobility::QServicePackage&) 0x0000e745   Thumb Code   330  qremoteserviceregister_s60.o(.text)
    QtMobility::CServiceProviderServerSession::HandlePackageRequestL(const RMessage2&) 0x0000e88f   Thumb Code   158  qremoteserviceregister_s60.o(.text)
    QtMobility::CServiceProviderServerSession::HandleServicePackageL(const RMessage2&) 0x0000e92d   Thumb Code   254  qremoteserviceregister_s60.o(.text)
    QtMobility::CServiceProviderServerSession::ServiceL(const RMessage2&) 0x0000ea2b   Thumb Code    70  qremoteserviceregister_s60.o(.text)
    QtMobility::QRemoteServiceRegisterSymbianPrivate::getStaticMetaObject() 0x0000ea71   Thumb Code     4  qremoteserviceregister_s60.o(.text)
    QtMobility::QRemoteServiceRegisterSymbianPrivate::metaObject() const 0x0000ea75   Thumb Code    28  qremoteserviceregister_s60.o(.text)
    QtMobility::QRemoteServiceRegisterSymbianPrivate::qt_metacast(const char*) 0x0000ea91   Thumb Code    40  qremoteserviceregister_s60.o(.text)
    QtMobility::QRemoteServiceRegisterSymbianPrivate::qt_metacall(QMetaObject::Call, int, void**) 0x0000eab9   Thumb Code    36  qremoteserviceregister_s60.o(.text)
    QtMobility::QRemoteServiceRegisterSymbianPrivate::~QRemoteServiceRegisterSymbianPrivate() 0x0000eadd   Thumb Code    34  qremoteserviceregister_s60.o(.text)
    QtMobility::QRemoteServiceRegisterSymbianPrivate::~QRemoteServiceRegisterSymbianPrivate__sub_object() 0x0000eadd   Thumb Code     0  qremoteserviceregister_s60.o(.text)
    QtMobility::QRemoteServiceRegisterSymbianPrivate::~QRemoteServiceRegisterSymbianPrivate__deallocating() 0x0000eaff   Thumb Code    22  qremoteserviceregister_s60.o(.text)
    QtMobility::QRemoteServiceRegisterSymbianPrivate::publishServices(const QString&) 0x0000eb15   Thumb Code   106  qremoteserviceregister_s60.o(.text)
    QtMobility::QRemoteServiceRegisterSymbianPrivate::setSecurityFilter(bool(*)(const void*)) 0x0000eb7f   Thumb Code    30  qremoteserviceregister_s60.o(.text)
    QtMobility::ServiceMessageListener::~ServiceMessageListener() 0x0000eb9d   Thumb Code    36  qremoteserviceregister_s60.o(.text)
    QtMobility::ServiceMessageListener::~ServiceMessageListener__sub_object() 0x0000eb9d   Thumb Code     0  qremoteserviceregister_s60.o(.text)
    QtMobility::ServiceMessageListener::~ServiceMessageListener__deallocating() 0x0000ebc1   Thumb Code    22  qremoteserviceregister_s60.o(.text)
    QtMobility::ServiceMessageListener::DoCancel() 0x0000ebd7   Thumb Code    12  qremoteserviceregister_s60.o(.text)
    QtMobility::ServiceMessageListener::RunL() 0x0000ebe3   Thumb Code   250  qremoteserviceregister_s60.o(.text)
    QtMobility::SymbianClientEndPoint::getStaticMetaObject() 0x0000ecdd   Thumb Code     4  qremoteserviceregister_s60.o(.text)
    QtMobility::SymbianClientEndPoint::metaObject() const 0x0000ece1   Thumb Code    28  qremoteserviceregister_s60.o(.text)
    QtMobility::SymbianClientEndPoint::qt_metacast(const char*) 0x0000ecfd   Thumb Code    42  qremoteserviceregister_s60.o(.text)
    QtMobility::SymbianClientEndPoint::qt_metacall(QMetaObject::Call, int, void**) 0x0000ed27   Thumb Code    36  qremoteserviceregister_s60.o(.text)
    QtMobility::SymbianServerEndPoint::getStaticMetaObject() 0x0000ed4b   Thumb Code     4  qremoteserviceregister_s60.o(.text)
    QtMobility::SymbianServerEndPoint::metaObject() const 0x0000ed4f   Thumb Code    28  qremoteserviceregister_s60.o(.text)
    QtMobility::SymbianServerEndPoint::qt_metacast(const char*) 0x0000ed6b   Thumb Code    42  qremoteserviceregister_s60.o(.text)
    QtMobility::SymbianServerEndPoint::qt_metacall(QMetaObject::Call, int, void**) 0x0000ed95   Thumb Code    36  qremoteserviceregister_s60.o(.text)
    QtMobility::ObjectEndPoint::getStaticMetaObject() 0x0000edd1   Thumb Code     4  objectendpoint.o(.text)
    QtMobility::ObjectEndPoint::metaObject() const 0x0000edd5   Thumb Code    28  objectendpoint.o(.text)
    QtMobility::ObjectEndPoint::qt_metacast(const char*) 0x0000edf1   Thumb Code    40  objectendpoint.o(.text)
    QtMobility::ObjectEndPoint::disconnected() 0x0000ee19   Thumb Code    44  objectendpoint.o(.text)
    QtMobility::ObjectEndPoint::propertyCall(const QtMobility::QServicePackage&) 0x0000eef1   Thumb Code   494  objectendpoint.o(.text)
    QtMobility::ObjectEndPoint::methodCall(const QtMobility::QServicePackage&) 0x0000f0df   Thumb Code  1612  objectendpoint.o(.text)
    QtMobility::ObjectEndPoint::objectRequest(const QtMobility::QServicePackage&) 0x0000f72b   Thumb Code   684  objectendpoint.o(.text)
    QtMobility::ObjectEndPoint::newPackageReady() 0x0000f9d7   Thumb Code   286  objectendpoint.o(.text)
    QtMobility::ObjectEndPoint::pendingRequestFinished() 0x0000faf5   Thumb Code    18  objectendpoint.o(.text)
    QtMobility::ObjectEndPoint::qt_metacall(QMetaObject::Call, int, void**) 0x0000fb07   Thumb Code    84  objectendpoint.o(.text)
    QtMobility::ObjectEndPoint::ObjectEndPoint(QtMobility::ObjectEndPoint::Type, QtMobility::QServiceIpcEndPoint*, QObject*) 0x0000fb5b   Thumb Code   198  objectendpoint.o(.text)
    QtMobility::ObjectEndPoint::ObjectEndPoint__sub_object(QtMobility::ObjectEndPoint::Type, QtMobility::QServiceIpcEndPoint*, QObject*) 0x0000fb5b   Thumb Code     0  objectendpoint.o(.text)
    QtMobility::ObjectEndPoint::~ObjectEndPoint() 0x0000fc21   Thumb Code    60  objectendpoint.o(.text)
    QtMobility::ObjectEndPoint::~ObjectEndPoint__sub_object() 0x0000fc21   Thumb Code     0  objectendpoint.o(.text)
    QtMobility::ObjectEndPoint::~ObjectEndPoint__deallocating() 0x0000fc5d   Thumb Code    22  objectendpoint.o(.text)
    QtMobility::ObjectEndPoint::waitForResponse(const QUuid&) 0x0000fc73   Thumb Code   274  objectendpoint.o(.text)
    QtMobility::ObjectEndPoint::constructProxy(const QtMobility::QRemoteServiceRegister::Entry&) 0x0000fd85   Thumb Code   562  objectendpoint.o(.text)
    QtMobility::ObjectEndPoint::invokeRemote(int, const QList<QVariant>&, int) 0x0000ffb7   Thumb Code   474  objectendpoint.o(.text)
    QtMobility::ObjectEndPoint::invokeRemoteProperty(int, const QVariant&, int, QMetaObject::Call) 0x00010191   Thumb Code   586  objectendpoint.o(.text)
    QtMobility::QSlotInvoker::getStaticMetaObject() 0x000103dd   Thumb Code     4  qslotinvoker.o(.text)
    QtMobility::QSlotInvoker::metaObject() const 0x000103e1   Thumb Code    28  qslotinvoker.o(.text)
    QtMobility::QSlotInvoker::qt_metacast(const char*) 0x000103fd   Thumb Code    40  qslotinvoker.o(.text)
    QtMobility::QSlotInvoker::receiverDestroyed() 0x00010425   Thumb Code     8  qslotinvoker.o(.text)
    QtMobility::QSlotInvoker::invoke(const QList<QVariant>&) 0x0001042d   Thumb Code   442  qslotinvoker.o(.text)
    QtMobility::QSlotInvoker::qt_metacall(QMetaObject::Call, int, void**) 0x000105e7   Thumb Code   102  qslotinvoker.o(.text)
    QtMobility::QSlotInvoker::QSlotInvoker(QObject*, const QByteArray&, QObject*) 0x0001064d   Thumb Code   594  qslotinvoker.o(.text)
    QtMobility::QSlotInvoker::QSlotInvoker__sub_object(QObject*, const QByteArray&, QObject*) 0x0001064d   Thumb Code     0  qslotinvoker.o(.text)
    QtMobility::QSlotInvoker::~QSlotInvoker() 0x0001089f   Thumb Code    54  qslotinvoker.o(.text)
    QtMobility::QSlotInvoker::~QSlotInvoker__sub_object() 0x0001089f   Thumb Code     0  qslotinvoker.o(.text)
    QtMobility::QSlotInvoker::~QSlotInvoker__deallocating() 0x000108d5   Thumb Code    22  qslotinvoker.o(.text)
    QtMobility::QSlotInvoker::memberPresent() const 0x000108eb   Thumb Code    18  qslotinvoker.o(.text)
    QtMobility::QSlotInvoker::canInvoke(int) const 0x000108fd   Thumb Code    30  qslotinvoker.o(.text)
    QtMobility::QSlotInvoker::receiver() const 0x0001091b   Thumb Code     8  qslotinvoker.o(.text)
    QtMobility::QSlotInvoker::member() const 0x00010923   Thumb Code    24  qslotinvoker.o(.text)
    QtMobility::QSlotInvoker::parameterTypes() const 0x0001093b   Thumb Code     8  qslotinvoker.o(.text)
    QtMobility::QSlotInvoker::parameterTypesCount() const 0x00010943   Thumb Code     8  qslotinvoker.o(.text)
    QtMobility::QSignalIntercepter::typeFromName(const QByteArray&) 0x00010951   Thumb Code   100  qsignalintercepter.o(.text)
    QtMobility::QSignalIntercepter::connectionTypes(const QByteArray&, int&) 0x000109b5   Thumb Code   254  qsignalintercepter.o(.text)
    QtMobility::QSignalIntercepter::QSignalIntercepter__sub_object(QObject*, const QByteArray&, QObject*) 0x00010ab3   Thumb Code   436  qsignalintercepter.o(.text)
    QtMobility::QSignalIntercepter::~QSignalIntercepter() 0x00010c67   Thumb Code     0  qsignalintercepter.o(.text)
    QtMobility::QSignalIntercepter::~QSignalIntercepter__sub_object() 0x00010c67   Thumb Code   102  qsignalintercepter.o(.text)
    QtMobility::QSignalIntercepter::~QSignalIntercepter__deallocating() 0x00010ccd   Thumb Code    22  qsignalintercepter.o(.text)
    QtMobility::QSignalIntercepter::sender() const 0x00010ce3   Thumb Code     8  qsignalintercepter.o(.text)
    QtMobility::QSignalIntercepter::signal() const 0x00010ceb   Thumb Code    24  qsignalintercepter.o(.text)
    QtMobility::QSignalIntercepter::isValid() const 0x00010d03   Thumb Code   174  qsignalintercepter.o(.text)
    QtMobility::QSignalIntercepter::qt_metacall(QMetaObject::Call, int, void**) 0x00010db1   Thumb Code   212  qsignalintercepter.o(.text)
    qvariant_nameToType(const char*)         0x00010e89   Thumb Code   112  qmetaobjectbuilder.o(.text)
    isVariantType(const char*)               0x00010ef9   Thumb Code    22  qmetaobjectbuilder.o(.text)
    QMetaObjectBuilder::QMetaObjectBuilder() 0x00011a15   Thumb Code    34  qmetaobjectbuilder.o(.text)
    QMetaObjectBuilder::QMetaObjectBuilder__sub_object() 0x00011a15   Thumb Code     0  qmetaobjectbuilder.o(.text)
    QMetaObjectBuilder::setStaticMetacallFunction(int(*)(QMetaObject::Call, int, void**)) 0x00011a37   Thumb Code     6  qmetaobjectbuilder.o(.text)
    QMetaObjectBuilder::addRelatedMetaObject(const QMetaObject&(*const &)()) 0x00011a3d   Thumb Code    36  qmetaobjectbuilder.o(.text)
    QMetaObjectBuilder::addClassInfo(const QByteArray&, const QByteArray&) 0x00011a61   Thumb Code    56  qmetaobjectbuilder.o(.text)
    QMetaEnumBuilder::d_func() const         0x00011a99   Thumb Code    54  qmetaobjectbuilder.o(.text)
    QMetaEnumBuilder::addKey(const QByteArray&, int) 0x00011acf   Thumb Code    68  qmetaobjectbuilder.o(.text)
    QMetaEnumBuilder::setIsFlag(bool)        0x00011b13   Thumb Code    22  qmetaobjectbuilder.o(.text)
    QMetaObjectBuilder::addEnumerator(const QByteArray&) 0x00011b29   Thumb Code   110  qmetaobjectbuilder.o(.text)
    QMetaObjectBuilder::addEnumerator(const QMetaEnum&) 0x00011b97   Thumb Code   140  qmetaobjectbuilder.o(.text)
    QMetaMethodBuilder::d_func() const       0x00011c23   Thumb Code   108  qmetaobjectbuilder.o(.text)
    QMetaMethodBuilder::setAttributes(int)   0x00011c8f   Thumb Code    32  qmetaobjectbuilder.o(.text)
    QMetaMethodBuilder::setAccess(QMetaMethod::Access) 0x00011caf   Thumb Code    44  qmetaobjectbuilder.o(.text)
    QMetaMethodBuilder::setTag(const QByteArray&) 0x00011cdb   Thumb Code    46  qmetaobjectbuilder.o(.text)
    QMetaMethodBuilder::setParameterNames(const QList<QByteArray>&) 0x00011d09   Thumb Code    30  qmetaobjectbuilder.o(.text)
    QMetaMethodBuilder::setReturnType(const QByteArray&) 0x00011d27   Thumb Code    52  qmetaobjectbuilder.o(.text)
    QMetaObjectBuilder::addConstructor(const QByteArray&) 0x00011d5b   Thumb Code   102  qmetaobjectbuilder.o(.text)
    QMetaObjectBuilder::addSlot(const QByteArray&) 0x00011dc1   Thumb Code   100  qmetaobjectbuilder.o(.text)
    QMetaObjectBuilder::addSignal(const QByteArray&) 0x00011e25   Thumb Code   100  qmetaobjectbuilder.o(.text)
    QMetaObjectBuilder::addMethod(const QByteArray&) 0x00011e89   Thumb Code   100  qmetaobjectbuilder.o(.text)
    QMetaObjectBuilder::addMethod(const QMetaMethod&) 0x00011eed   Thumb Code   338  qmetaobjectbuilder.o(.text)
    QMetaMethodBuilder::index() const        0x0001203f   Thumb Code    20  qmetaobjectbuilder.o(.text)
    QMetaObjectBuilder::indexOfMethod(const QByteArray&) 0x00012053   Thumb Code    92  qmetaobjectbuilder.o(.text)
    QMetaPropertyBuilder::d_func() const     0x000120af   Thumb Code    54  qmetaobjectbuilder.o(.text)
    QMetaPropertyBuilder::setEnumOrFlag(bool) 0x000120e5   Thumb Code    30  qmetaobjectbuilder.o(.text)
    QMetaPropertyBuilder::setStdCppSet(bool) 0x00012103   Thumb Code    32  qmetaobjectbuilder.o(.text)
    QMetaPropertyBuilder::setUser(bool)      0x00012123   Thumb Code    32  qmetaobjectbuilder.o(.text)
    QMetaPropertyBuilder::setEditable(bool)  0x00012143   Thumb Code    32  qmetaobjectbuilder.o(.text)
    QMetaPropertyBuilder::setStored(bool)    0x00012163   Thumb Code    32  qmetaobjectbuilder.o(.text)
    QMetaPropertyBuilder::setScriptable(bool) 0x00012183   Thumb Code    32  qmetaobjectbuilder.o(.text)
    QMetaPropertyBuilder::setDesignable(bool) 0x000121a3   Thumb Code    32  qmetaobjectbuilder.o(.text)
    QMetaPropertyBuilder::setResettable(bool) 0x000121c3   Thumb Code    30  qmetaobjectbuilder.o(.text)
    QMetaPropertyBuilder::setWritable(bool)  0x000121e1   Thumb Code    30  qmetaobjectbuilder.o(.text)
    QMetaPropertyBuilder::setReadable(bool)  0x000121ff   Thumb Code    30  qmetaobjectbuilder.o(.text)
    QMetaObjectBuilder::addProperty(const QByteArray&, const QByteArray&, int) 0x0001221d   Thumb Code   160  qmetaobjectbuilder.o(.text)
    QMetaObjectBuilder::addProperty(const QMetaProperty&) 0x000122bd   Thumb Code   382  qmetaobjectbuilder.o(.text)
    QMetaObjectBuilder::addConstructor(const QMetaMethod&) 0x0001243b   Thumb Code   182  qmetaobjectbuilder.o(.text)
    QMetaObjectBuilder::addMetaObject(const QMetaObject*, QFlags<QMetaObjectBuilder::AddMember>) 0x000124f1   Thumb Code   950  qmetaobjectbuilder.o(.text)
    QMetaObjectBuilder::QMetaObjectBuilder(const QMetaObject*, QFlags<QMetaObjectBuilder::AddMember>) 0x000128a7   Thumb Code    62  qmetaobjectbuilder.o(.text)
    QMetaObjectBuilder::QMetaObjectBuilder__sub_object(const QMetaObject*, QFlags<QMetaObjectBuilder::AddMember>) 0x000128a7   Thumb Code     0  qmetaobjectbuilder.o(.text)
    QMetaObjectBuilder::~QMetaObjectBuilder() 0x000128e5   Thumb Code    30  qmetaobjectbuilder.o(.text)
    QMetaObjectBuilder::~QMetaObjectBuilder__sub_object() 0x000128e5   Thumb Code     0  qmetaobjectbuilder.o(.text)
    QMetaObjectBuilder::~QMetaObjectBuilder__deallocating() 0x00012903   Thumb Code    22  qmetaobjectbuilder.o(.text)
    QMetaObjectBuilder::className() const    0x00012919   Thumb Code    18  qmetaobjectbuilder.o(.text)
    QMetaObjectBuilder::setClassName(const QByteArray&) 0x0001292b   Thumb Code    16  qmetaobjectbuilder.o(.text)
    QMetaObjectBuilder::superClass() const   0x0001293b   Thumb Code     8  qmetaobjectbuilder.o(.text)
    QMetaObjectBuilder::setSuperClass(const QMetaObject*) 0x00012943   Thumb Code     8  qmetaobjectbuilder.o(.text)
    QMetaObjectBuilder::flags() const        0x0001294b   Thumb Code    22  qmetaobjectbuilder.o(.text)
    QMetaObjectBuilder::setFlags(QFlags<QMetaObjectBuilder::MetaObjectFlag>) 0x00012961   Thumb Code    10  qmetaobjectbuilder.o(.text)
    QMetaObjectBuilder::methodCount() const  0x0001296b   Thumb Code    16  qmetaobjectbuilder.o(.text)
    QMetaObjectBuilder::constructorCount() const 0x0001297b   Thumb Code    16  qmetaobjectbuilder.o(.text)
    QMetaObjectBuilder::propertyCount() const 0x0001298b   Thumb Code    16  qmetaobjectbuilder.o(.text)
    QMetaObjectBuilder::enumeratorCount() const 0x0001299b   Thumb Code    16  qmetaobjectbuilder.o(.text)
    QMetaObjectBuilder::classInfoCount() const 0x000129ab   Thumb Code    16  qmetaobjectbuilder.o(.text)
    QMetaObjectBuilder::relatedMetaObjectCount() const 0x000129bb   Thumb Code    16  qmetaobjectbuilder.o(.text)
    QMetaObjectBuilder::addMethod(const QByteArray&, const QByteArray&) 0x000129cb   Thumb Code    88  qmetaobjectbuilder.o(.text)
    QMetaObjectBuilder::method(int) const    0x00012a23   Thumb Code    56  qmetaobjectbuilder.o(.text)
    QMetaObjectBuilder::constructor(int) const 0x00012a5b   Thumb Code    58  qmetaobjectbuilder.o(.text)
    QMetaObjectBuilder::property(int) const  0x00012a95   Thumb Code    56  qmetaobjectbuilder.o(.text)
    QMetaObjectBuilder::enumerator(int) const 0x00012acd   Thumb Code    56  qmetaobjectbuilder.o(.text)
    QMetaObjectBuilder::relatedMetaObject(int) const 0x00012b05   Thumb Code    46  qmetaobjectbuilder.o(.text)
    QMetaObjectBuilder::classInfoName(int) const 0x00012b33   Thumb Code    62  qmetaobjectbuilder.o(.text)
    QMetaObjectBuilder::classInfoValue(int) const 0x00012b71   Thumb Code    62  qmetaobjectbuilder.o(.text)
    QMetaObjectBuilder::removeMethod(int)    0x00012baf   Thumb Code   166  qmetaobjectbuilder.o(.text)
    QMetaObjectBuilder::removeConstructor(int) 0x00012c55   Thumb Code    38  qmetaobjectbuilder.o(.text)
    QMetaObjectBuilder::removeProperty(int)  0x00012c7b   Thumb Code    80  qmetaobjectbuilder.o(.text)
    QMetaObjectBuilder::removeEnumerator(int) 0x00012ccb   Thumb Code    80  qmetaobjectbuilder.o(.text)
    QMetaObjectBuilder::removeClassInfo(int) 0x00012d1b   Thumb Code    50  qmetaobjectbuilder.o(.text)
    QMetaObjectBuilder::removeRelatedMetaObject(int) 0x00012d4d   Thumb Code    78  qmetaobjectbuilder.o(.text)
    QMetaObjectBuilder::indexOfSignal(const QByteArray&) 0x00012d9b   Thumb Code   114  qmetaobjectbuilder.o(.text)
    QMetaObjectBuilder::indexOfSlot(const QByteArray&) 0x00012e0d   Thumb Code   114  qmetaobjectbuilder.o(.text)
    QMetaObjectBuilder::indexOfConstructor(const QByteArray&) 0x00012e7f   Thumb Code    92  qmetaobjectbuilder.o(.text)
    QMetaObjectBuilder::indexOfProperty(const QByteArray&) 0x00012edb   Thumb Code    62  qmetaobjectbuilder.o(.text)
    QMetaObjectBuilder::indexOfEnumerator(const QByteArray&) 0x00012f19   Thumb Code    62  qmetaobjectbuilder.o(.text)
    QMetaObjectBuilder::indexOfClassInfo(const QByteArray&) 0x00012f57   Thumb Code    62  qmetaobjectbuilder.o(.text)
    QMetaObjectBuilder::staticMetacallFunction() const 0x00012f95   Thumb Code     8  qmetaobjectbuilder.o(.text)
    QMetaObjectBuilder::toMetaObject() const 0x00012f9d   Thumb Code    38  qmetaobjectbuilder.o(.text)
    QMetaObjectBuilder::toRelocatableData(bool*) const 0x00012fc3   Thumb Code   136  qmetaobjectbuilder.o(.text)
    QMetaObjectBuilder::fromRelocatableData(QMetaObject*, const QMetaObject*, const QByteArray&) 0x0001304b   Thumb Code    38  qmetaobjectbuilder.o(.text)
    QMetaObjectBuilder::serialize(QDataStream&) const 0x00013071   Thumb Code   620  qmetaobjectbuilder.o(.text)
    QMetaObjectBuilder::deserialize(QDataStream&, const QMap<QByteArray, const QMetaObject*>&) 0x000132dd   Thumb Code   992  qmetaobjectbuilder.o(.text)
    QMetaMethodBuilder::methodType() const   0x000136bd   Thumb Code    28  qmetaobjectbuilder.o(.text)
    QMetaMethodBuilder::signature() const    0x000136d9   Thumb Code    40  qmetaobjectbuilder.o(.text)
    QMetaMethodBuilder::returnType() const   0x00013701   Thumb Code    40  qmetaobjectbuilder.o(.text)
    QMetaMethodBuilder::parameterNames() const 0x00013729   Thumb Code    42  qmetaobjectbuilder.o(.text)
    QMetaMethodBuilder::tag() const          0x00013753   Thumb Code    42  qmetaobjectbuilder.o(.text)
    QMetaMethodBuilder::access() const       0x0001377d   Thumb Code    30  qmetaobjectbuilder.o(.text)
    QMetaMethodBuilder::attributes() const   0x0001379b   Thumb Code    26  qmetaobjectbuilder.o(.text)
    QMetaPropertyBuilder::name() const       0x000137b5   Thumb Code    40  qmetaobjectbuilder.o(.text)
    QMetaPropertyBuilder::type() const       0x000137dd   Thumb Code    40  qmetaobjectbuilder.o(.text)
    QMetaPropertyBuilder::hasNotifySignal() const 0x00013805   Thumb Code    32  qmetaobjectbuilder.o(.text)
    QMetaPropertyBuilder::notifySignal() const 0x00013825   Thumb Code    56  qmetaobjectbuilder.o(.text)
    QMetaPropertyBuilder::setNotifySignal(const QMetaMethodBuilder&) 0x0001385d   Thumb Code    60  qmetaobjectbuilder.o(.text)
    QMetaPropertyBuilder::removeNotifySignal() 0x00013899   Thumb Code    36  qmetaobjectbuilder.o(.text)
    QMetaPropertyBuilder::isReadable() const 0x000138bd   Thumb Code    30  qmetaobjectbuilder.o(.text)
    QMetaPropertyBuilder::isWritable() const 0x000138db   Thumb Code    30  qmetaobjectbuilder.o(.text)
    QMetaPropertyBuilder::isResettable() const 0x000138f9   Thumb Code    30  qmetaobjectbuilder.o(.text)
    QMetaPropertyBuilder::isDesignable() const 0x00013917   Thumb Code    32  qmetaobjectbuilder.o(.text)
    QMetaPropertyBuilder::isScriptable() const 0x00013937   Thumb Code    32  qmetaobjectbuilder.o(.text)
    QMetaPropertyBuilder::isStored() const   0x00013957   Thumb Code    32  qmetaobjectbuilder.o(.text)
    QMetaPropertyBuilder::isEditable() const 0x00013977   Thumb Code    32  qmetaobjectbuilder.o(.text)
    QMetaPropertyBuilder::isUser() const     0x00013997   Thumb Code    32  qmetaobjectbuilder.o(.text)
    QMetaPropertyBuilder::hasStdCppSet() const 0x000139b7   Thumb Code    32  qmetaobjectbuilder.o(.text)
    QMetaPropertyBuilder::isEnumOrFlag() const 0x000139d7   Thumb Code    30  qmetaobjectbuilder.o(.text)
    QMetaPropertyBuilder::isDynamic() const  0x000139f5   Thumb Code    32  qmetaobjectbuilder.o(.text)
    QMetaPropertyBuilder::setDynamic(bool)   0x00013a15   Thumb Code    32  qmetaobjectbuilder.o(.text)
    QMetaEnumBuilder::name() const           0x00013a35   Thumb Code    40  qmetaobjectbuilder.o(.text)
    QMetaEnumBuilder::isFlag() const         0x00013a5d   Thumb Code    24  qmetaobjectbuilder.o(.text)
    QMetaEnumBuilder::keyCount() const       0x00013a75   Thumb Code    30  qmetaobjectbuilder.o(.text)
    QMetaEnumBuilder::key(int) const         0x00013a93   Thumb Code    70  qmetaobjectbuilder.o(.text)
    QMetaEnumBuilder::value(int) const       0x00013ad9   Thumb Code    54  qmetaobjectbuilder.o(.text)
    QMetaEnumBuilder::removeKey(int)         0x00013b0f   Thumb Code    96  qmetaobjectbuilder.o(.text)
    QtMobility::InstanceManager::getStaticMetaObject() 0x00013b71   Thumb Code     4  instancemanager.o(.text)
    QtMobility::InstanceManager::metaObject() const 0x00013b75   Thumb Code    28  instancemanager.o(.text)
    QtMobility::InstanceManager::qt_metacast(const char*) 0x00013b91   Thumb Code    40  instancemanager.o(.text)
    QtMobility::InstanceManager::instanceClosed(const QtMobility::QRemoteServiceRegister::Entry&, const QUuid&) 0x00013bb9   Thumb Code    36  instancemanager.o(.text)
    QtMobility::InstanceManager::instanceClosed(const QtMobility::QRemoteServiceRegister::Entry&) 0x00013bdd   Thumb Code    30  instancemanager.o(.text)
    QtMobility::InstanceManager::allInstancesClosed() 0x00013bfb   Thumb Code    18  instancemanager.o(.text)
    QtMobility::InstanceManager::qt_metacall(QMetaObject::Call, int, void**) 0x00013c0d   Thumb Code    90  instancemanager.o(.text)
    QtMobility::InstanceManager::InstanceManager(QObject*) 0x00013c67   Thumb Code    60  instancemanager.o(.text)
    QtMobility::InstanceManager::InstanceManager__sub_object(QObject*) 0x00013c67   Thumb Code     0  instancemanager.o(.text)
    QtMobility::InstanceManager::~InstanceManager() 0x00013ca3   Thumb Code   344  instancemanager.o(.text)
    QtMobility::InstanceManager::~InstanceManager__sub_object() 0x00013ca3   Thumb Code     0  instancemanager.o(.text)
    QtMobility::InstanceManager::~InstanceManager__deallocating() 0x00013dfb   Thumb Code    22  instancemanager.o(.text)
    QtMobility::InstanceManager::addType(const QtMobility::QRemoteServiceRegister::Entry&) 0x00013e11   Thumb Code   398  instancemanager.o(.text)
    QtMobility::InstanceManager::metaObject(const QtMobility::QRemoteServiceRegister::Entry&) const 0x00013f9f   Thumb Code    78  instancemanager.o(.text)
    QtMobility::InstanceManager::allEntries() const 0x00013fed   Thumb Code    34  instancemanager.o(.text)
    QtMobility::InstanceManager::totalInstances() const 0x0001400f   Thumb Code   312  instancemanager.o(.text)
    QtMobility::InstanceManager::createObjectInstance(const QtMobility::QRemoteServiceRegister::Entry&, QUuid&) 0x00014147   Thumb Code   220  instancemanager.o(.text)
    QtMobility::InstanceManager::removeObjectInstance(const QtMobility::QRemoteServiceRegister::Entry&, const QUuid&) 0x00014223   Thumb Code   220  instancemanager.o(.text)
    QtMobility::InstanceManager::instance()  0x000143a3   Thumb Code     8  instancemanager.o(.text)
    QtMobility::QServicePackage::QServicePackage() 0x000143bd   Thumb Code    28  qservicepackage.o(.text)
    QtMobility::QServicePackage::QServicePackage__sub_object() 0x000143bd   Thumb Code     0  qservicepackage.o(.text)
    QtMobility::QServicePackage::QServicePackage(const QtMobility::QServicePackage&) 0x000143d9   Thumb Code    30  qservicepackage.o(.text)
    QtMobility::QServicePackage::QServicePackage__sub_object(const QtMobility::QServicePackage&) 0x000143d9   Thumb Code     0  qservicepackage.o(.text)
    QtMobility::QServicePackage::operator =(const QtMobility::QServicePackage&) 0x000143f7   Thumb Code    74  qservicepackage.o(.text)
    QtMobility::QServicePackage::~QServicePackage() 0x00014441   Thumb Code    14  qservicepackage.o(.text)
    QtMobility::QServicePackage::~QServicePackage__sub_object() 0x00014441   Thumb Code     0  qservicepackage.o(.text)
    QtMobility::QServicePackage::createResponse() const 0x0001444f   Thumb Code    92  qservicepackage.o(.text)
    QtMobility::QServicePackage::isValid() const 0x000144ab   Thumb Code    12  qservicepackage.o(.text)
    QtMobility::operator <<(QDataStream&, const QtMobility::QServicePackage&) 0x000144b7   Thumb Code   152  qservicepackage.o(.text)
    QtMobility::operator >>(QDataStream&, QtMobility::QServicePackage&) 0x0001454f   Thumb Code   452  qservicepackage.o(.text)
    QtMobility::operator <<(QDebug, const QtMobility::QServicePackage&) 0x00014713   Thumb Code   534  qservicepackage.o(.text)
    QtMobility::QServiceProxy::QServiceProxy(const QByteArray&, QtMobility::ObjectEndPoint*, QObject*) 0x00014929   Thumb Code   344  proxyobject.o(.text)
    QtMobility::QServiceProxy::QServiceProxy__sub_object(const QByteArray&, QtMobility::ObjectEndPoint*, QObject*) 0x00014929   Thumb Code     0  proxyobject.o(.text)
    QtMobility::QServiceProxy::~QServiceProxy() 0x00014a81   Thumb Code    66  proxyobject.o(.text)
    QtMobility::QServiceProxy::~QServiceProxy__sub_object() 0x00014a81   Thumb Code     0  proxyobject.o(.text)
    QtMobility::QServiceProxy::~QServiceProxy__deallocating() 0x00014ac3   Thumb Code    22  proxyobject.o(.text)
    QtMobility::QServiceProxy::metaObject() const 0x00014ad9   Thumb Code     8  proxyobject.o(.text)
    QtMobility::QServiceProxy::qt_metacall(QMetaObject::Call, int, void**) 0x00014ae1   Thumb Code  1478  proxyobject.o(.text)
    QtMobility::QServiceProxy::qt_metacast(const char*) 0x000150a7   Thumb Code    24  proxyobject.o(.text)
    QtMobility::QServiceIpcEndPoint::getStaticMetaObject() 0x0001510d   Thumb Code     4  ipcendpoint.o(.text)
    QtMobility::QServiceIpcEndPoint::metaObject() const 0x00015111   Thumb Code    28  ipcendpoint.o(.text)
    QtMobility::QServiceIpcEndPoint::qt_metacast(const char*) 0x0001512d   Thumb Code    40  ipcendpoint.o(.text)
    QtMobility::QServiceIpcEndPoint::disconnected() 0x00015155   Thumb Code    18  ipcendpoint.o(.text)
    QtMobility::QServiceIpcEndPoint::readyRead() 0x00015167   Thumb Code    18  ipcendpoint.o(.text)
    QtMobility::QServiceIpcEndPoint::qt_metacall(QMetaObject::Call, int, void**) 0x00015179   Thumb Code    72  ipcendpoint.o(.text)
    QtMobility::QServiceIpcEndPoint::QServiceIpcEndPoint__sub_object(QObject*) 0x000151c1   Thumb Code    40  ipcendpoint.o(.text)
    QtMobility::QServiceIpcEndPoint::~QServiceIpcEndPoint() 0x000151e9   Thumb Code     0  ipcendpoint.o(.text)
    QtMobility::QServiceIpcEndPoint::~QServiceIpcEndPoint__sub_object() 0x000151e9   Thumb Code    42  ipcendpoint.o(.text)
    QtMobility::QServiceIpcEndPoint::~QServiceIpcEndPoint__deallocating() 0x00015213   Thumb Code    22  ipcendpoint.o(.text)
    QtMobility::QServiceIpcEndPoint::packageAvailable() const 0x00015229   Thumb Code    18  ipcendpoint.o(.text)
    QtMobility::QServiceIpcEndPoint::nextPackage() 0x0001523b   Thumb Code   142  ipcendpoint.o(.text)
    QtMobility::QServiceIpcEndPoint::writePackage(QtMobility::QServicePackage) 0x000152c9   Thumb Code    18  ipcendpoint.o(.text)
    QtMobility::QRemoteServiceRegisterPrivate::getStaticMetaObject() 0x000152e9   Thumb Code     4  qremoteserviceregister_p.o(.text)
    QtMobility::QRemoteServiceRegisterPrivate::metaObject() const 0x000152ed   Thumb Code    28  qremoteserviceregister_p.o(.text)
    QtMobility::QRemoteServiceRegisterPrivate::qt_metacast(const char*) 0x00015309   Thumb Code    40  qremoteserviceregister_p.o(.text)
    QtMobility::QRemoteServiceRegisterPrivate::qt_metacall(QMetaObject::Call, int, void**) 0x00015331   Thumb Code   144  qremoteserviceregister_p.o(.text)
    QtMobility::QRemoteServiceRegisterPrivate::setQuitOnLastInstanceClosed(bool) 0x000153c1   Thumb Code    70  qremoteserviceregister_p.o(.text)
    QtMobility::QRemoteServiceRegisterPrivate::QRemoteServiceRegisterPrivate__sub_object(QObject*) 0x00015407   Thumb Code    36  qremoteserviceregister_p.o(.text)
    QtMobility::QRemoteServiceRegisterPrivate::~QRemoteServiceRegisterPrivate() 0x0001542b   Thumb Code     0  qremoteserviceregister_p.o(.text)
    QtMobility::QRemoteServiceRegisterPrivate::~QRemoteServiceRegisterPrivate__sub_object() 0x0001542b   Thumb Code    14  qremoteserviceregister_p.o(.text)
    QtMobility::QRemoteServiceRegisterPrivate::~QRemoteServiceRegisterPrivate__deallocating() 0x00015439   Thumb Code    22  qremoteserviceregister_p.o(.text)
    QtMobility::QRemoteServiceRegisterPrivate::quitOnLastInstanceClosed() const 0x0001544f   Thumb Code     6  qremoteserviceregister_p.o(.text)
    QtMobility::QRemoteServiceRegisterPrivate::setSecurityFilter(bool(*)(const void*)) 0x00015455   Thumb Code    10  qremoteserviceregister_p.o(.text)
    QtMobility::QRemoteServiceRegisterPrivate::getSecurityFilter() 0x0001545f   Thumb Code     6  qremoteserviceregister_p.o(.text)
    __ARM_switch8                            0x00015494   ARM Code      24  switch8.o(.text)
    __rt_switch8                             0x00015494   ARM Code       0  switch8.o(.text)
    _E32Dll_Body                             0x000154ac   ARM Code      76  uc_dll.o(.text)
    __aeabi_atexit                           0x000154fc   ARM Code      40  ucppfini.o(.text)
    __cxa_atexit                             0x00015524   ARM Code      64  ucppfini.o(.text)
    __cxa_finalize                           0x00015564   ARM Code      48  ucppfini.o(.text)
    run_static_dtors                         0x00015594   ARM Code      16  ucppfini.o(.text)
    __DLL_Export_Table__                     0x000155b0   ARM Code       4  dllexp.o(.text)
    qStringComparisonHelper(const QStringRef&, const char*) 0x000168a9   Thumb Code    72  servicemetadata.o(i._Z23qStringComparisonHelperRK10QStringRefPKc)
    qDebug()                                 0x000168ff   Thumb Code    16  objectendpoint.o(i._Z6qDebugv)
    qWarning()                               0x0001690f   Thumb Code    16  objectendpoint.o(i._Z8qWarningv)
    QByteArray::QByteArray(const QByteArray&) 0x0001691f   Thumb Code    20  qmetaobjectbuilder.o(i._ZN10QByteArrayC1ERKS_)
    QByteArray::QByteArray__sub_object(const QByteArray&) 0x0001691f   Thumb Code     0  qmetaobjectbuilder.o(i._ZN10QByteArrayC1ERKS_)
    QByteArray::QByteArray()                 0x00016935   Thumb Code    18  databasemanager_symbian.o(i._ZN10QByteArrayC1Ev)
    QByteArray::QByteArray__sub_object()     0x00016935   Thumb Code     0  databasemanager_symbian.o(i._ZN10QByteArrayC1Ev)
    QByteArray::~QByteArray()                0x0001694d   Thumb Code    24  servicemetadata.o(i._ZN10QByteArrayD1Ev)
    QByteArray::~QByteArray__sub_object()    0x0001694d   Thumb Code     0  servicemetadata.o(i._ZN10QByteArrayD1Ev)
    QStringRef::~QStringRef()                0x00016965   Thumb Code     2  servicemetadata.o(i._ZN10QStringRefD1Ev)
    QStringRef::~QStringRef__sub_object()    0x00016965   Thumb Code     0  servicemetadata.o(i._ZN10QStringRefD1Ev)
    QtMobility::ObjectEndPointPrivate::triggerConnectedSlots(QObject*, const QMetaObject*, int, void**) 0x00016967   Thumb Code    96  objectendpoint.o(i._ZN10QtMobility21ObjectEndPointPrivate21triggerConnectedSlotsEP7QObjectPK11QMetaObjectiPPv)
    QtMobility::ObjectEndPointPrivate::setupSignalIntercepters(QObject*) 0x000169c9   Thumb Code   266  objectendpoint.o(i._ZN10QtMobility21ObjectEndPointPrivate23setupSignalInterceptersEP7QObject)
    QtMobility::QServiceFilterPrivate::QServiceFilterPrivate() 0x00016b0f   Thumb Code    52  qservicefilter.o(i._ZN10QtMobility21QServiceFilterPrivateC1Ev)
    QtMobility::QServiceFilterPrivate::QServiceFilterPrivate__sub_object() 0x00016b0f   Thumb Code     0  qservicefilter.o(i._ZN10QtMobility21QServiceFilterPrivateC1Ev)
    QtMobility::QServicePluginCleanup::~QServicePluginCleanup__deallocating() 0x00016b61   Thumb Code    22  qservicemanager.o(i._ZN10QtMobility21QServicePluginCleanupD0Ev)
    QtMobility::QServicePluginCleanup::~QServicePluginCleanup() 0x00016b79   Thumb Code    40  qservicemanager.o(i._ZN10QtMobility21QServicePluginCleanupD1Ev)
    QtMobility::QServicePluginCleanup::~QServicePluginCleanup__sub_object() 0x00016b79   Thumb Code     0  qservicemanager.o(i._ZN10QtMobility21QServicePluginCleanupD1Ev)
    QtMobility::SymbianClientEndPoint::flushPackage(const QtMobility::QServicePackage&) 0x00016baf   Thumb Code    16  qremoteserviceregister_s60.o(i._ZN10QtMobility21SymbianClientEndPoint12flushPackageERKNS_15QServicePackageE)
    QtMobility::SymbianClientEndPoint::~SymbianClientEndPoint__deallocating() 0x00016bbf   Thumb Code    28  qremoteserviceregister_s60.o(i._ZN10QtMobility21SymbianClientEndPointD0Ev)
    QtMobility::SymbianClientEndPoint::~SymbianClientEndPoint() 0x00016bdb   Thumb Code    14  qremoteserviceregister_s60.o(i._ZN10QtMobility21SymbianClientEndPointD1Ev)
    QtMobility::SymbianClientEndPoint::~SymbianClientEndPoint__sub_object() 0x00016bdb   Thumb Code     0  qremoteserviceregister_s60.o(i._ZN10QtMobility21SymbianClientEndPointD1Ev)
    QtMobility::SymbianServerEndPoint::flushPackage(const QtMobility::QServicePackage&) 0x00016be9   Thumb Code   120  qremoteserviceregister_s60.o(i._ZN10QtMobility21SymbianServerEndPoint12flushPackageERKNS_15QServicePackageE)
    QtMobility::SymbianServerEndPoint::~SymbianServerEndPoint__deallocating() 0x00016c99   Thumb Code    22  qremoteserviceregister_s60.o(i._ZN10QtMobility21SymbianServerEndPointD0Ev)
    QtMobility::SymbianServerEndPoint::~SymbianServerEndPoint() 0x00016cb1   Thumb Code    24  qremoteserviceregister_s60.o(i._ZN10QtMobility21SymbianServerEndPointD1Ev)
    QtMobility::SymbianServerEndPoint::~SymbianServerEndPoint__sub_object() 0x00016cb1   Thumb Code     0  qremoteserviceregister_s60.o(i._ZN10QtMobility21SymbianServerEndPointD1Ev)
    QtMobility::CServiceProviderServer::~CServiceProviderServer__deallocating() 0x00016cd7   Thumb Code    22  qremoteserviceregister_s60.o(i._ZN10QtMobility22CServiceProviderServerD0Ev)
    QtMobility::CServiceProviderServer::~CServiceProviderServer() 0x00016ced   Thumb Code    16  qremoteserviceregister_s60.o(i._ZN10QtMobility22CServiceProviderServerD1Ev)
    QtMobility::CServiceProviderServer::~CServiceProviderServer__sub_object() 0x00016ced   Thumb Code     0  qremoteserviceregister_s60.o(i._ZN10QtMobility22CServiceProviderServerD1Ev)
    QtMobility::QServiceManagerPrivate::setError() 0x00016cfd   Thumb Code   154  qservicemanager.o(i._ZN10QtMobility22QServiceManagerPrivate8setErrorEv)
    QtMobility::QServiceManagerPrivate::QServiceManagerPrivate(QtMobility::QServiceManager*) 0x00016da5   Thumb Code    90  qservicemanager.o(i._ZN10QtMobility22QServiceManagerPrivateC1EPNS_15QServiceManagerE)
    QtMobility::QServiceManagerPrivate::QServiceManagerPrivate__sub_object(QtMobility::QServiceManager*) 0x00016da5   Thumb Code     0  qservicemanager.o(i._ZN10QtMobility22QServiceManagerPrivateC1EPNS_15QServiceManagerE)
    QtMobility::QServiceManagerPrivate::~QServiceManagerPrivate__deallocating() 0x00016ee9   Thumb Code    22  qservicemanager.o(i._ZN10QtMobility22QServiceManagerPrivateD0Ev)
    QtMobility::QServiceManagerPrivate::~QServiceManagerPrivate() 0x00016f01   Thumb Code    34  qservicemanager.o(i._ZN10QtMobility22QServiceManagerPrivateD1Ev)
    QtMobility::QServiceManagerPrivate::~QServiceManagerPrivate__sub_object() 0x00016f01   Thumb Code     0  qservicemanager.o(i._ZN10QtMobility22QServiceManagerPrivateD1Ev)
    QtMobility::QServicePackagePrivate::clean() 0x00016f33   Thumb Code    98  objectendpoint.o(i._ZN10QtMobility22QServicePackagePrivate5cleanEv)
    QtMobility::QServicePackagePrivate::QServicePackagePrivate() 0x00016fa9   Thumb Code   136  objectendpoint.o(i._ZN10QtMobility22QServicePackagePrivateC1Ev)
    QtMobility::QServicePackagePrivate::QServicePackagePrivate__sub_object() 0x00016fa9   Thumb Code     0  objectendpoint.o(i._ZN10QtMobility22QServicePackagePrivateC1Ev)
    QtMobility::QServicePackagePrivate::~QServicePackagePrivate() 0x0001705d   Thumb Code    36  qservicepackage.o(i._ZN10QtMobility22QServicePackagePrivateD1Ev)
    QtMobility::QServicePackagePrivate::~QServicePackagePrivate__sub_object() 0x0001705d   Thumb Code     0  qservicepackage.o(i._ZN10QtMobility22QServicePackagePrivateD1Ev)
    QtMobility::ServiceIdentDescriptor::ServiceIdentDescriptor(const QtMobility::ServiceIdentDescriptor&) 0x00017091   Thumb Code    82  instancemanager.o(i._ZN10QtMobility22ServiceIdentDescriptorC1ERKS0_)
    QtMobility::ServiceIdentDescriptor::ServiceIdentDescriptor__sub_object(const QtMobility::ServiceIdentDescriptor&) 0x00017091   Thumb Code     0  instancemanager.o(i._ZN10QtMobility22ServiceIdentDescriptorC1ERKS0_)
    QtMobility::ServiceIdentDescriptor::ServiceIdentDescriptor() 0x000170ed   Thumb Code    54  instancemanager.o(i._ZN10QtMobility22ServiceIdentDescriptorC1Ev)
    QtMobility::ServiceIdentDescriptor::ServiceIdentDescriptor__sub_object() 0x000170ed   Thumb Code     0  instancemanager.o(i._ZN10QtMobility22ServiceIdentDescriptorC1Ev)
    QtMobility::ServiceIdentDescriptor::~ServiceIdentDescriptor() 0x0001713b   Thumb Code    22  instancemanager.o(i._ZN10QtMobility22ServiceIdentDescriptorD1Ev)
    QtMobility::ServiceIdentDescriptor::~ServiceIdentDescriptor__sub_object() 0x0001713b   Thumb Code     0  instancemanager.o(i._ZN10QtMobility22ServiceIdentDescriptorD1Ev)
    QtMobility::ServiceMetaDataResults::~ServiceMetaDataResults() 0x0001715b   Thumb Code    64  servicemetadata.o(i._ZN10QtMobility22ServiceMetaDataResultsD1Ev)
    QtMobility::ServiceMetaDataResults::~ServiceMetaDataResults__sub_object() 0x0001715b   Thumb Code     0  servicemetadata.o(i._ZN10QtMobility22ServiceMetaDataResultsD1Ev)
    QtMobility::ServiceContextClientData::~ServiceContextClientData__deallocating() 0x000171c9   Thumb Code    22  qservicecontext.o(i._ZN10QtMobility24ServiceContextClientDataD0Ev)
    QtMobility::ServiceContextClientData::~ServiceContextClientData() 0x000171e1   Thumb Code    26  qservicecontext.o(i._ZN10QtMobility24ServiceContextClientDataD1Ev)
    QtMobility::ServiceContextClientData::~ServiceContextClientData__sub_object() 0x000171e1   Thumb Code     0  qservicecontext.o(i._ZN10QtMobility24ServiceContextClientDataD1Ev)
    QtMobility::ServiceSignalIntercepter::activated(const QList<QVariant>&) 0x0001720b   Thumb Code    34  objectendpoint.o(i._ZN10QtMobility24ServiceSignalIntercepter9activatedERK5QListI8QVariantE)
    QtMobility::ServiceSignalIntercepter::~ServiceSignalIntercepter__deallocating() 0x0001722d   Thumb Code    24  objectendpoint.o(i._ZN10QtMobility24ServiceSignalIntercepterD0Ev)
    QtMobility::ServiceSignalIntercepter::~ServiceSignalIntercepter() 0x00017245   Thumb Code    14  objectendpoint.o(i._ZN10QtMobility24ServiceSignalIntercepterD1Ev)
    QtMobility::ServiceSignalIntercepter::~ServiceSignalIntercepter__sub_object() 0x00017245   Thumb Code     0  objectendpoint.o(i._ZN10QtMobility24ServiceSignalIntercepterD1Ev)
    QtMobility::QRemoteServiceRegisterEntryPrivate::~QRemoteServiceRegisterEntryPrivate() 0x00017253   Thumb Code    40  qremoteserviceregister.o(i._ZN10QtMobility34QRemoteServiceRegisterEntryPrivateD1Ev)
    QtMobility::QRemoteServiceRegisterEntryPrivate::~QRemoteServiceRegisterEntryPrivate__sub_object() 0x00017253   Thumb Code     0  qremoteserviceregister.o(i._ZN10QtMobility34QRemoteServiceRegisterEntryPrivateD1Ev)
    QtMobility::QServiceInterfaceDescriptorPrivate::QServiceInterfaceDescriptorPrivate() 0x00017291   Thumb Code    60  qserviceinterfacedescriptor.o(i._ZN10QtMobility34QServiceInterfaceDescriptorPrivateC1Ev)
    QtMobility::QServiceInterfaceDescriptorPrivate::QServiceInterfaceDescriptorPrivate__sub_object() 0x00017291   Thumb Code     0  qserviceinterfacedescriptor.o(i._ZN10QtMobility34QServiceInterfaceDescriptorPrivateC1Ev)
    QtMobility::QServiceInterfaceDescriptorPrivate::~QServiceInterfaceDescriptorPrivate() 0x000172eb   Thumb Code    46  qserviceinterfacedescriptor.o(i._ZN10QtMobility34QServiceInterfaceDescriptorPrivateD1Ev)
    QtMobility::QServiceInterfaceDescriptorPrivate::~QServiceInterfaceDescriptorPrivate__sub_object() 0x000172eb   Thumb Code     0  qserviceinterfacedescriptor.o(i._ZN10QtMobility34QServiceInterfaceDescriptorPrivateD1Ev)
    QtMobility::DBError::~DBError()          0x00017337   Thumb Code    14  databasemanager_symbian.o(i._ZN10QtMobility7DBErrorD1Ev)
    QtMobility::DBError::~DBError__sub_object() 0x00017337   Thumb Code     0  databasemanager_symbian.o(i._ZN10QtMobility7DBErrorD1Ev)
    QDataStream::operator <<(unsigned short) 0x00017345   Thumb Code    18  qserviceinterfacedescriptor.o(i._ZN11QDataStreamlsEt)
    QStringList::~QStringList()              0x00017357   Thumb Code    14  servicemetadata.o(i._ZN11QStringListD1Ev)
    QStringList::~QStringList__sub_object()  0x00017357   Thumb Code     0  servicemetadata.o(i._ZN11QStringListD1Ev)
    QMutexLocker::QMutexLocker(QMutex*)      0x00017365   Thumb Code    34  instancemanager.o(i._ZN12QMutexLockerC1EP6QMutex)
    QMutexLocker::QMutexLocker__sub_object(QMutex*) 0x00017365   Thumb Code     0  instancemanager.o(i._ZN12QMutexLockerC1EP6QMutex)
    QMutexLocker::~QMutexLocker()            0x00017387   Thumb Code    42  instancemanager.o(i._ZN12QMutexLockerD1Ev)
    QMutexLocker::~QMutexLocker__sub_object() 0x00017387   Thumb Code     0  instancemanager.o(i._ZN12QMutexLockerD1Ev)
    QBasicAtomicInt::ref()                   0x000173b1   Thumb Code    24  servicemetadata.o(i._ZN15QBasicAtomicInt3refEv)
    QBasicAtomicInt::deref()                 0x000173c9   Thumb Code    24  servicemetadata.o(i._ZN15QBasicAtomicInt5derefEv)
    QForeachContainer<QList<QByteArray>>::~QForeachContainer() 0x000173e1   Thumb Code    14  qmetaobjectbuilder.o(i._ZN17QForeachContainerI5QListI10QByteArrayEED1Ev)
    QForeachContainer<QList<QByteArray>>::~QForeachContainer__sub_object() 0x000173e1   Thumb Code     0  qmetaobjectbuilder.o(i._ZN17QForeachContainerI5QListI10QByteArrayEED1Ev)
    QForeachContainer<QList<QtMobility::QRemoteServiceRegister::Entry>>::~QForeachContainer() 0x000173ef   Thumb Code    14  instancemanager.o(i._ZN17QForeachContainerI5QListIN10QtMobility22QRemoteServiceRegister5EntryEEED1Ev)
    QForeachContainer<QList<QtMobility::QRemoteServiceRegister::Entry>>::~QForeachContainer__sub_object() 0x000173ef   Thumb Code     0  instancemanager.o(i._ZN17QForeachContainerI5QListIN10QtMobility22QRemoteServiceRegister5EntryEEED1Ev)
    QXmlStreamAttributes::~QXmlStreamAttributes() 0x000173fd   Thumb Code    14  servicemetadata.o(i._ZN20QXmlStreamAttributesD1Ev)
    QXmlStreamAttributes::~QXmlStreamAttributes__sub_object() 0x000173fd   Thumb Code     0  servicemetadata.o(i._ZN20QXmlStreamAttributesD1Ev)
    QMetaEnumBuilderPrivate::QMetaEnumBuilderPrivate(const QMetaEnumBuilderPrivate&) 0x0001740b   Thumb Code    78  qmetaobjectbuilder.o(i._ZN23QMetaEnumBuilderPrivateC1ERKS_)
    QMetaEnumBuilderPrivate::QMetaEnumBuilderPrivate__sub_object(const QMetaEnumBuilderPrivate&) 0x0001740b   Thumb Code     0  qmetaobjectbuilder.o(i._ZN23QMetaEnumBuilderPrivateC1ERKS_)
    QMetaEnumBuilderPrivate::~QMetaEnumBuilderPrivate() 0x0001746f   Thumb Code    38  qmetaobjectbuilder.o(i._ZN23QMetaEnumBuilderPrivateD1Ev)
    QMetaEnumBuilderPrivate::~QMetaEnumBuilderPrivate__sub_object() 0x0001746f   Thumb Code     0  qmetaobjectbuilder.o(i._ZN23QMetaEnumBuilderPrivateD1Ev)
    QMetaMethodBuilderPrivate::QMetaMethodBuilderPrivate(QMetaMethod::MethodType, const QByteArray&, const QByteArray&, QMetaMethod::Access) 0x000174ab   Thumb Code   118  qmetaobjectbuilder.o(i._ZN25QMetaMethodBuilderPrivateC1EN11QMetaMethod10MethodTypeERK10QByteArrayS4_NS0_6AccessE)
    QMetaMethodBuilderPrivate::QMetaMethodBuilderPrivate__sub_object(QMetaMethod::MethodType, const QByteArray&, const QByteArray&, QMetaMethod::Access) 0x000174ab   Thumb Code     0  qmetaobjectbuilder.o(i._ZN25QMetaMethodBuilderPrivateC1EN11QMetaMethod10MethodTypeERK10QByteArrayS4_NS0_6AccessE)
    QMetaMethodBuilderPrivate::QMetaMethodBuilderPrivate(const QMetaMethodBuilderPrivate&) 0x00017553   Thumb Code    66  qmetaobjectbuilder.o(i._ZN25QMetaMethodBuilderPrivateC1ERKS_)
    QMetaMethodBuilderPrivate::QMetaMethodBuilderPrivate__sub_object(const QMetaMethodBuilderPrivate&) 0x00017553   Thumb Code     0  qmetaobjectbuilder.o(i._ZN25QMetaMethodBuilderPrivateC1ERKS_)
    QMetaMethodBuilderPrivate::~QMetaMethodBuilderPrivate() 0x000175b3   Thumb Code    46  qmetaobjectbuilder.o(i._ZN25QMetaMethodBuilderPrivateD1Ev)
    QMetaMethodBuilderPrivate::~QMetaMethodBuilderPrivate__sub_object() 0x000175b3   Thumb Code     0  qmetaobjectbuilder.o(i._ZN25QMetaMethodBuilderPrivateD1Ev)
    QMetaObjectBuilderPrivate::QMetaObjectBuilderPrivate() 0x00017601   Thumb Code   112  qmetaobjectbuilder.o(i._ZN25QMetaObjectBuilderPrivateC1Ev)
    QMetaObjectBuilderPrivate::QMetaObjectBuilderPrivate__sub_object() 0x00017601   Thumb Code     0  qmetaobjectbuilder.o(i._ZN25QMetaObjectBuilderPrivateC1Ev)
    QMetaObjectBuilderPrivate::~QMetaObjectBuilderPrivate() 0x000176c7   Thumb Code    98  qmetaobjectbuilder.o(i._ZN25QMetaObjectBuilderPrivateD1Ev)
    QMetaObjectBuilderPrivate::~QMetaObjectBuilderPrivate__sub_object() 0x000176c7   Thumb Code     0  qmetaobjectbuilder.o(i._ZN25QMetaObjectBuilderPrivateD1Ev)
    QMetaPropertyBuilderPrivate::setFlag(int, bool) 0x0001777b   Thumb Code    20  qmetaobjectbuilder.o(i._ZN27QMetaPropertyBuilderPrivate7setFlagEib)
    QMetaPropertyBuilderPrivate::QMetaPropertyBuilderPrivate(const QMetaPropertyBuilderPrivate&) 0x0001778f   Thumb Code    38  qmetaobjectbuilder.o(i._ZN27QMetaPropertyBuilderPrivateC1ERKS_)
    QMetaPropertyBuilderPrivate::QMetaPropertyBuilderPrivate__sub_object(const QMetaPropertyBuilderPrivate&) 0x0001778f   Thumb Code     0  qmetaobjectbuilder.o(i._ZN27QMetaPropertyBuilderPrivateC1ERKS_)
    QMetaPropertyBuilderPrivate::~QMetaPropertyBuilderPrivate() 0x000177bf   Thumb Code    22  qmetaobjectbuilder.o(i._ZN27QMetaPropertyBuilderPrivateD1Ev)
    QMetaPropertyBuilderPrivate::~QMetaPropertyBuilderPrivate__sub_object() 0x000177bf   Thumb Code     0  qmetaobjectbuilder.o(i._ZN27QMetaPropertyBuilderPrivateD1Ev)
    QSet<QString>::~QSet()                   0x000177df   Thumb Code    14  servicemetadata.o(i._ZN4QSetI7QStringED1Ev)
    QSet<QString>::~QSet__sub_object()       0x000177df   Thumb Code     0  servicemetadata.o(i._ZN4QSetI7QStringED1Ev)
    CBase::operator new(unsigned)            0x000177ed   Thumb Code    16  databasemanager_symbian.o(i._ZN5CBasenwEj)
    QUuid::QUuid(const QUuid&)               0x000177fd   Thumb Code    32  objectendpoint.o(i._ZN5QUuidC1ERKS_)
    QUuid::QUuid__sub_object(const QUuid&)   0x000177fd   Thumb Code     0  objectendpoint.o(i._ZN5QUuidC1ERKS_)
    QUuid::QUuid()                           0x0001781d   Thumb Code    28  objectendpoint.o(i._ZN5QUuidC1Ev)
    QUuid::QUuid__sub_object()               0x0001781d   Thumb Code     0  objectendpoint.o(i._ZN5QUuidC1Ev)
    QDebug::maybeSpace()                     0x00017839   Thumb Code    24  servicemetadata.o(i._ZN6QDebug10maybeSpaceEv)
    QDebug::space()                          0x00017851   Thumb Code    22  qservicepackage.o(i._ZN6QDebug5spaceEv)
    QDebug::QDebug(QtMsgType)                0x00017867   Thumb Code    92  qremoteserviceregister_s60.o(i._ZN6QDebugC1E9QtMsgType)
    QDebug::QDebug__sub_object(QtMsgType)    0x00017867   Thumb Code     0  qremoteserviceregister_s60.o(i._ZN6QDebugC1E9QtMsgType)
    QDebug::QDebug(const QDebug&)            0x000178db   Thumb Code    16  qservicepackage.o(i._ZN6QDebugC1ERKS_)
    QDebug::QDebug__sub_object(const QDebug&) 0x000178db   Thumb Code     0  qservicepackage.o(i._ZN6QDebugC1ERKS_)
    QDebug::~QDebug()                        0x000178eb   Thumb Code   144  qremoteserviceregister_s60.o(i._ZN6QDebugD1Ev)
    QDebug::~QDebug__sub_object()            0x000178eb   Thumb Code     0  qremoteserviceregister_s60.o(i._ZN6QDebugD1Ev)
    QDebug::operator <<(const char*)         0x0001798f   Thumb Code    44  servicemetadata.o(i._ZN6QDebuglsEPKc)
    QDebug::operator <<(const QString&)      0x000179c5   Thumb Code    38  servicemetadata.o(i._ZN6QDebuglsERK7QString)
    QString::clear()                         0x000179eb   Thumb Code    40  servicemetadata.o(i._ZN7QString5clearEv)
    QString::QString(const char*)            0x00017a1d   Thumb Code    22  servicemetadata.o(i._ZN7QStringC1EPKc)
    QString::QString__sub_object(const char*) 0x00017a1d   Thumb Code     0  servicemetadata.o(i._ZN7QStringC1EPKc)
    QString::QString(const QString&)         0x00017a33   Thumb Code    22  servicemetadata.o(i._ZN7QStringC1ERKS_)
    QString::QString__sub_object(const QString&) 0x00017a33   Thumb Code     0  servicemetadata.o(i._ZN7QStringC1ERKS_)
    QString::QString()                       0x00017a49   Thumb Code    18  servicemetadata.o(i._ZN7QStringC1Ev)
    QString::QString__sub_object()           0x00017a49   Thumb Code     0  servicemetadata.o(i._ZN7QStringC1Ev)
    QString::~QString()                      0x00017a61   Thumb Code    24  servicemetadata.o(i._ZN7QStringD1Ev)
    QString::~QString__sub_object()          0x00017a61   Thumb Code     0  servicemetadata.o(i._ZN7QStringD1Ev)
    QString::operator =(const char*)         0x00017a79   Thumb Code    40  dberror.o(i._ZN7QStringaSEPKc)
    QVariant::QVariant()                     0x00017aab   Thumb Code    38  qservicecontext.o(i._ZN8QVariantC1Ev)
    QVariant::QVariant__sub_object()         0x00017aab   Thumb Code     0  qservicecontext.o(i._ZN8QVariantC1Ev)
    TIpcArgs::Set(int, TDes8*)               0x00017ad1   Thumb Code    22  databasemanager_symbian.o(i._ZN8TIpcArgs3SetEiP5TDes8)
    QHashData::willGrow()                    0x00017ae7   Thumb Code    32  servicemetadata.o(i._ZN9QHashData8willGrowEv)
    QHashData::firstNode()                   0x00017b07   Thumb Code    36  qserviceinterfacedescriptor.o(i._ZN9QHashData9firstNodeEv)
    QHashData::hasShrunk()                   0x00017b2b   Thumb Code    82  instancemanager.o(i._ZN9QHashData9hasShrunkEv)
    RSessionBase::SendReceive(int, const TIpcArgs&) const 0x00017b7d   Thumb Code    20  databasemanager_symbian.o(i._ZNK12RSessionBase11SendReceiveEiRK8TIpcArgs)
    QLatin1String::operator ==(const char*) const 0x00017b91   Thumb Code    40  qservicemanager.o(i._ZNK13QLatin1StringeqEPKc)
    QBasicAtomicInt::operator ==(int) const  0x00017bc3   Thumb Code    16  qmetaobjectbuilder.o(i._ZNK15QBasicAtomicInteqEi)
    QBasicAtomicInt::operator !=(int) const  0x00017bd3   Thumb Code    16  servicemetadata.o(i._ZNK15QBasicAtomicIntneEi)
    QXmlStreamReader::isEndElement() const   0x00017be3   Thumb Code    22  servicemetadata.o(i._ZNK16QXmlStreamReader12isEndElementEv)
    QXmlStreamReader::isStartElement() const 0x00017bf9   Thumb Code    22  servicemetadata.o(i._ZNK16QXmlStreamReader14isStartElementEv)
    QXmlStreamAttributes::hasAttribute(const QString&) const 0x00017c0f   Thumb Code    52  servicemetadata.o(i._ZNK20QXmlStreamAttributes12hasAttributeERK7QString)
    QMetaMethodBuilderPrivate::methodType() const 0x00017c4d   Thumb Code    12  qmetaobjectbuilder.o(i._ZNK25QMetaMethodBuilderPrivate10methodTypeEv)
    QMetaPropertyBuilderPrivate::flag(int) const 0x00017c59   Thumb Code    16  qmetaobjectbuilder.o(i._ZNK27QMetaPropertyBuilderPrivate4flagEi)
    QObject::connect(const QObject*, const char*, const char*, Qt::ConnectionType) const 0x00017c69   Thumb Code    30  qservicemanager.o(i._ZNK7QObject7connectEPKS_PKcS3_N2Qt14ConnectionTypeE)
    QString::arg(int, int, int, const QChar&) const 0x00017c87   Thumb Code    36  qserviceinterfacedescriptor.o(i._ZNK7QString3argEiiiRK5QChar)
    QString::isNull() const                  0x00017cad   Thumb Code    18  servicemetadata.o(i._ZNK7QString6isNullEv)
    QString::isEmpty() const                 0x00017cc5   Thumb Code    18  servicemetadata.o(i._ZNK7QString7isEmptyEv)
    QListData::at(int) const                 0x00017cd7   Thumb Code    20  servicemetadata.o(i._ZNK9QListData2atEi)
    QListData::end() const                   0x00017ceb   Thumb Code    16  servicemetadata.o(i._ZNK9QListData3endEv)
    QListData::size() const                  0x00017cfb   Thumb Code    14  qmetaobjectbuilder.o(i._ZNK9QListData4sizeEv)
    QListData::begin() const                 0x00017d09   Thumb Code    16  servicemetadata.o(i._ZNK9QListData5beginEv)
    QListData::isEmpty() const               0x00017d19   Thumb Code    22  instancemanager.o(i._ZNK9QListData7isEmptyEv)
    operator delete (void*, void*)           0x00017d2f   Thumb Code     2  servicemetadata.o(i._ZdlPvS_)
    operator ==(const QByteArray&, const char*) 0x00017d31   Thumb Code    50  objectendpoint.o(i._ZeqRK10QByteArrayPKc)
    operator ==(const QByteArray&, const QByteArray&) 0x00017d63   Thumb Code    68  qmetaobjectbuilder.o(i._ZeqRK10QByteArrayS1_)
    operator ==(const QStringRef&, const char*) 0x00017da7   Thumb Code    16  servicemetadata.o(i._ZeqRK10QStringRefPKc)
    operator !=(const QStringRef&, const char*) 0x00017db7   Thumb Code    20  servicemetadata.o(i._ZneRK10QStringRefPKc)
    operator new(unsigned, void*)            0x00017dcb   Thumb Code     6  servicemetadata.o(i._ZnwjPv)
    operator +(const QString&, QChar)        0x00017dd1   Thumb Code   128  qservicemanager.o(i._ZplRK7QString5QChar)
    operator +(const QString&, const QString&) 0x00017e5b   Thumb Code    44  servicemetadata.o(i._ZplRK7QStringS1_)
    qobject_cast<QtMobility::QServicePluginInterface*>(QObject*) 0x00017e91   Thumb Code    24  qservicemanager.o(t._Z12qobject_castIPN10QtMobility23QServicePluginInterfaceEET_P7QObject)
    qMapLessThanKey<QByteArray>(const T1&, const T1&) 0x00017ead   Thumb Code    20  qmetaobjectbuilder.o(t._Z15qMapLessThanKeyI10QByteArrayEbRKT_S3_)
    qRegisterMetaType<QtMobility::QService::UnrecoverableIPCError>(const char*, T1*) 0x00017ec1   Thumb Code    56  qservicemanager.o(t._Z17qRegisterMetaTypeIN10QtMobility8QService21UnrecoverableIPCErrorEEiPKcPT_)
    qMetaTypeDeleteHelper<QtMobility::QService::UnrecoverableIPCError>(T1*) 0x00017f01   Thumb Code    12  qservicemanager.o(t._Z21qMetaTypeDeleteHelperIN10QtMobility8QService21UnrecoverableIPCErrorEEvPT_)
    qMetaTypeConstructHelper<QtMobility::QService::UnrecoverableIPCError>(const T1*) 0x00017f0d   Thumb Code    50  qservicemanager.o(t._Z24qMetaTypeConstructHelperIN10QtMobility8QService21UnrecoverableIPCErrorEEPvPKT_)
    TAlignedBuf8<(int)4>::TAlignedBuf8(int)  0x00017f3f   Thumb Code    20  databasemanager_symbian.o(t._ZN12TAlignedBuf8ILi4EEC1Ei)
    TAlignedBuf8<(int)4>::TAlignedBuf8__sub_object(int) 0x00017f3f   Thumb Code     0  databasemanager_symbian.o(t._ZN12TAlignedBuf8ILi4EEC1Ei)
    QHashDummyNode<QString, QHashDummyValue>::QHashDummyNode(const QString&) 0x00017f53   Thumb Code    24  servicemetadata.o(t._ZN14QHashDummyNodeI7QString15QHashDummyValueEC1ERKS0_)
    QHashDummyNode<QString, QHashDummyValue>::QHashDummyNode__sub_object(const QString&) 0x00017f53   Thumb Code     0  servicemetadata.o(t._ZN14QHashDummyNodeI7QString15QHashDummyValueEC1ERKS0_)
    QVarLengthArray<void*, (int)32>::~QVarLengthArray() 0x00017f6b   Thumb Code    26  objectendpoint.o(t._ZN15QVarLengthArrayIPvLi32EED1Ev)
    QVarLengthArray<void*, (int)32>::~QVarLengthArray__sub_object() 0x00017f6b   Thumb Code     0  objectendpoint.o(t._ZN15QVarLengthArrayIPvLi32EED1Ev)
    QGlobalStaticDeleter<QHash<QUuid, QtMobility::Response*>>::~QGlobalStaticDeleter() 0x00017f85   Thumb Code    42  objectendpoint.o(t._ZN20QGlobalStaticDeleterI5QHashI5QUuidPN10QtMobility8ResponseEEED1Ev)
    QGlobalStaticDeleter<QHash<QUuid, QtMobility::Response*>>::~QGlobalStaticDeleter__sub_object() 0x00017f85   Thumb Code     0  objectendpoint.o(t._ZN20QGlobalStaticDeleterI5QHashI5QUuidPN10QtMobility8ResponseEEED1Ev)
    QGlobalStaticDeleter<QtMobility::InstanceManager>::~QGlobalStaticDeleter() 0x00017faf   Thumb Code    38  instancemanager.o(t._ZN20QGlobalStaticDeleterIN10QtMobility15InstanceManagerEED1Ev)
    QGlobalStaticDeleter<QtMobility::InstanceManager>::~QGlobalStaticDeleter__sub_object() 0x00017faf   Thumb Code     0  instancemanager.o(t._ZN20QGlobalStaticDeleterIN10QtMobility15InstanceManagerEED1Ev)
    QExplicitlySharedDataPointer<QtMobility::QServicePackagePrivate>::detach_helper() 0x00017fd5   Thumb Code   184  qservicepackage.o(t._ZN28QExplicitlySharedDataPointerIN10QtMobility22QServicePackagePrivateEE13detach_helperEv)
    QExplicitlySharedDataPointer<QtMobility::QServicePackagePrivate>::~QExplicitlySharedDataPointer() 0x000180ad   Thumb Code    44  qservicepackage.o(t._ZN28QExplicitlySharedDataPointerIN10QtMobility22QServicePackagePrivateEED1Ev)
    QExplicitlySharedDataPointer<QtMobility::QServicePackagePrivate>::~QExplicitlySharedDataPointer__sub_object() 0x000180ad   Thumb Code     0  qservicepackage.o(t._ZN28QExplicitlySharedDataPointerIN10QtMobility22QServicePackagePrivateEED1Ev)
    QExplicitlySharedDataPointer<QtMobility::QServicePackagePrivate>::operator =(QtMobility::QServicePackagePrivate*) 0x000180d9   Thumb Code    62  qservicepackage.o(t._ZN28QExplicitlySharedDataPointerIN10QtMobility22QServicePackagePrivateEEaSEPS1_)
    QExplicitlySharedDataPointer<QtMobility::QRemoteServiceRegisterEntryPrivate>::~QExplicitlySharedDataPointer() 0x00018117   Thumb Code    42  qremoteserviceregister.o(t._ZN28QExplicitlySharedDataPointerIN10QtMobility34QRemoteServiceRegisterEntryPrivateEED1Ev)
    QExplicitlySharedDataPointer<QtMobility::QRemoteServiceRegisterEntryPrivate>::~QExplicitlySharedDataPointer__sub_object() 0x00018117   Thumb Code     0  qremoteserviceregister.o(t._ZN28QExplicitlySharedDataPointerIN10QtMobility34QRemoteServiceRegisterEntryPrivateEED1Ev)
    QExplicitlySharedDataPointer<QtMobility::QRemoteServiceRegisterEntryPrivate>::operator =(const QExplicitlySharedDataPointer<QtMobility::QRemoteServiceRegisterEntryPrivate>&) 0x00018141   Thumb Code    68  instancemanager.o(t._ZN28QExplicitlySharedDataPointerIN10QtMobility34QRemoteServiceRegisterEntryPrivateEEaSERKS2_)
    QMap<QByteArray, const QMetaObject*>::freeData(QMapData*) 0x00018185   Thumb Code    56  proxyobject.o(t._ZN4QMapI10QByteArrayPK11QMetaObjectE8freeDataEP8QMapData)
    QMap<QByteArray, const QMetaObject*>::~QMap() 0x000181bd   Thumb Code    38  proxyobject.o(t._ZN4QMapI10QByteArrayPK11QMetaObjectED1Ev)
    QMap<QByteArray, const QMetaObject*>::~QMap__sub_object() 0x000181bd   Thumb Code     0  proxyobject.o(t._ZN4QMapI10QByteArrayPK11QMetaObjectED1Ev)
    QSet<QString>::QSet()                    0x000181e3   Thumb Code    14  servicemetadata.o(t._ZN4QSetI7QStringEC1Ev)
    QSet<QString>::QSet__sub_object()        0x000181e3   Thumb Code     0  servicemetadata.o(t._ZN4QSetI7QStringEC1Ev)
    QHash<QUuid, QObject*>::deleteNode2(QHashData::Node*) 0x000181f1   Thumb Code     6  instancemanager.o(t._ZN5QHashI5QUuidP7QObjectE11deleteNode2EPN9QHashData4NodeE)
    QHash<QUuid, QObject*>::detach_helper()  0x000181f9   Thumb Code    52  instancemanager.o(t._ZN5QHashI5QUuidP7QObjectE13detach_helperEv)
    QHash<QUuid, QObject*>::duplicateNode(QHashData::Node*, void*) 0x00018235   Thumb Code    48  instancemanager.o(t._ZN5QHashI5QUuidP7QObjectE13duplicateNodeEPN9QHashData4NodeEPv)
    QHash<QUuid, QObject*>::take(const QUuid&) 0x00018273   Thumb Code   120  instancemanager.o(t._ZN5QHashI5QUuidP7QObjectE4takeERKS0_)
    QHash<QUuid, QObject*>::detach()         0x000182eb   Thumb Code    28  instancemanager.o(t._ZN5QHashI5QUuidP7QObjectE6detachEv)
    QHash<QUuid, QObject*>::insert(const QUuid&, QObject*const &) 0x00018307   Thumb Code   176  instancemanager.o(t._ZN5QHashI5QUuidP7QObjectE6insertERKS0_RKS2_)
    QHash<QUuid, QObject*>::freeData(QHashData*) 0x000183c5   Thumb Code    16  instancemanager.o(t._ZN5QHashI5QUuidP7QObjectE8freeDataEP9QHashData)
    QHash<QUuid, QObject*>::~QHash()         0x000183d9   Thumb Code    30  instancemanager.o(t._ZN5QHashI5QUuidP7QObjectED1Ev)
    QHash<QUuid, QObject*>::~QHash__sub_object() 0x000183d9   Thumb Code     0  instancemanager.o(t._ZN5QHashI5QUuidP7QObjectED1Ev)
    QHash<QUuid, QtMobility::Response*>::deleteNode2(QHashData::Node*) 0x000183f7   Thumb Code     6  objectendpoint.o(t._ZN5QHashI5QUuidPN10QtMobility8ResponseEE11deleteNode2EPN9QHashData4NodeE)
    QHash<QUuid, QtMobility::Response*>::detach_helper() 0x000183fd   Thumb Code    52  objectendpoint.o(t._ZN5QHashI5QUuidPN10QtMobility8ResponseEE13detach_helperEv)
    QHash<QUuid, QtMobility::Response*>::duplicateNode(QHashData::Node*, void*) 0x00018439   Thumb Code    48  objectendpoint.o(t._ZN5QHashI5QUuidPN10QtMobility8ResponseEE13duplicateNodeEPN9QHashData4NodeEPv)
    QHash<QUuid, QtMobility::Response*>::take(const QUuid&) 0x00018477   Thumb Code   204  objectendpoint.o(t._ZN5QHashI5QUuidPN10QtMobility8ResponseEE4takeERKS0_)
    QHash<QUuid, QtMobility::Response*>::detach() 0x00018543   Thumb Code    28  objectendpoint.o(t._ZN5QHashI5QUuidPN10QtMobility8ResponseEE6detachEv)
    QHash<QUuid, QtMobility::Response*>::insert(const QUuid&, QtMobility::Response*const &) 0x0001855f   Thumb Code   204  objectendpoint.o(t._ZN5QHashI5QUuidPN10QtMobility8ResponseEE6insertERKS0_RKS3_)
    QHash<QUuid, QtMobility::Response*>::freeData(QHashData*) 0x00018639   Thumb Code    16  objectendpoint.o(t._ZN5QHashI5QUuidPN10QtMobility8ResponseEE8freeDataEP9QHashData)
    QHash<QUuid, QtMobility::Response*>::~QHash() 0x0001864d   Thumb Code    30  objectendpoint.o(t._ZN5QHashI5QUuidPN10QtMobility8ResponseEED1Ev)
    QHash<QUuid, QtMobility::Response*>::~QHash__sub_object() 0x0001864d   Thumb Code     0  objectendpoint.o(t._ZN5QHashI5QUuidPN10QtMobility8ResponseEED1Ev)
    QHash<QString, QHashDummyValue>::deleteNode2(QHashData::Node*) 0x0001866b   Thumb Code    24  servicemetadata.o(t._ZN5QHashI7QString15QHashDummyValueE11deleteNode2EPN9QHashData4NodeE)
    QHash<QString, QHashDummyValue>::detach_helper() 0x00018685   Thumb Code    52  servicemetadata.o(t._ZN5QHashI7QString15QHashDummyValueE13detach_helperEv)
    QHash<QString, QHashDummyValue>::duplicateNode(QHashData::Node*, void*) 0x000186c1   Thumb Code    44  servicemetadata.o(t._ZN5QHashI7QString15QHashDummyValueE13duplicateNodeEPN9QHashData4NodeEPv)
    QHash<QString, QHashDummyValue>::insert(const QString&, const QHashDummyValue&) 0x000186f9   Thumb Code   186  servicemetadata.o(t._ZN5QHashI7QString15QHashDummyValueE6insertERKS0_RKS1_)
    QHash<QString, QHashDummyValue>::freeData(QHashData*) 0x000187c1   Thumb Code    16  servicemetadata.o(t._ZN5QHashI7QString15QHashDummyValueE8freeDataEP9QHashData)
    QHash<QString, QHashDummyValue>::QHash() 0x000187d5   Thumb Code    22  servicemetadata.o(t._ZN5QHashI7QString15QHashDummyValueEC1Ev)
    QHash<QString, QHashDummyValue>::QHash__sub_object() 0x000187d5   Thumb Code     0  servicemetadata.o(t._ZN5QHashI7QString15QHashDummyValueEC1Ev)
    QHash<QString, QHashDummyValue>::~QHash() 0x000187f1   Thumb Code    30  servicemetadata.o(t._ZN5QHashI7QString15QHashDummyValueED1Ev)
    QHash<QString, QHashDummyValue>::~QHash__sub_object() 0x000187f1   Thumb Code     0  servicemetadata.o(t._ZN5QHashI7QString15QHashDummyValueED1Ev)
    QHash<QString, QVariant>::deleteNode2(QHashData::Node*) 0x0001880f   Thumb Code    36  qservicecontext.o(t._ZN5QHashI7QString8QVariantE11deleteNode2EPN9QHashData4NodeE)
    QHash<QString, QVariant>::detach_helper() 0x00018841   Thumb Code    52  qservicecontext.o(t._ZN5QHashI7QString8QVariantE13detach_helperEv)
    QHash<QString, QVariant>::duplicateNode(QHashData::Node*, void*) 0x0001887d   Thumb Code    48  qservicecontext.o(t._ZN5QHashI7QString8QVariantE13duplicateNodeEPN9QHashData4NodeEPv)
    QHash<QString, QVariant>::freeData(QHashData*) 0x000188bd   Thumb Code    16  qservicecontext.o(t._ZN5QHashI7QString8QVariantE8freeDataEP9QHashData)
    QHash<QString, QVariant>::QHash()        0x000188d1   Thumb Code    22  qservicecontext.o(t._ZN5QHashI7QString8QVariantEC1Ev)
    QHash<QString, QVariant>::QHash__sub_object() 0x000188d1   Thumb Code     0  qservicecontext.o(t._ZN5QHashI7QString8QVariantEC1Ev)
    QHash<QString, QVariant>::~QHash()       0x000188ed   Thumb Code    30  qservicecontext.o(t._ZN5QHashI7QString8QVariantED1Ev)
    QHash<QString, QVariant>::~QHash__sub_object() 0x000188ed   Thumb Code     0  qservicecontext.o(t._ZN5QHashI7QString8QVariantED1Ev)
    QHash<QString, QVariant>::operator [](const QString&) 0x0001890b   Thumb Code   242  qservicecontext.o(t._ZN5QHashI7QString8QVariantEixERKS0_)
    QHash<QString, QString>::createNode(unsigned, const QString&, const QString&, QHashNode<QString, QString>**) 0x00018a15   Thumb Code   100  qserviceinterfacedescriptor.o(t._ZN5QHashI7QStringS0_E10createNodeEjRKS0_S3_PP9QHashNodeIS0_S0_E)
    QHash<QString, QString>::deleteNode2(QHashData::Node*) 0x00018a87   Thumb Code    36  servicemetadata.o(t._ZN5QHashI7QStringS0_E11deleteNode2EPN9QHashData4NodeE)
    QHash<QString, QString>::detach_helper() 0x00018ab9   Thumb Code    52  servicemetadata.o(t._ZN5QHashI7QStringS0_E13detach_helperEv)
    QHash<QString, QString>::duplicateNode(QHashData::Node*, void*) 0x00018af5   Thumb Code    46  servicemetadata.o(t._ZN5QHashI7QStringS0_E13duplicateNodeEPN9QHashData4NodeEPv)
    QHash<QString, QString>::clear()         0x00018b31   Thumb Code    28  qserviceinterfacedescriptor.o(t._ZN5QHashI7QStringS0_E5clearEv)
    QHash<QString, QString>::detach()        0x00018b57   Thumb Code    28  qserviceinterfacedescriptor.o(t._ZN5QHashI7QStringS0_E6detachEv)
    QHash<QString, QString>::remove(const QString&) 0x00018b73   Thumb Code   248  qservicefilter.o(t._ZN5QHashI7QStringS0_E6removeERKS0_)
    QHash<QString, QString>::freeData(QHashData*) 0x00018c6d   Thumb Code    16  servicemetadata.o(t._ZN5QHashI7QStringS0_E8freeDataEP9QHashData)
    QHash<QString, QString>::QHash()         0x00018c81   Thumb Code    22  qserviceinterfacedescriptor.o(t._ZN5QHashI7QStringS0_EC1Ev)
    QHash<QString, QString>::QHash__sub_object() 0x00018c81   Thumb Code     0  qserviceinterfacedescriptor.o(t._ZN5QHashI7QStringS0_EC1Ev)
    QHash<QString, QString>::~QHash()        0x00018c9d   Thumb Code    30  qserviceinterfacedescriptor.o(t._ZN5QHashI7QStringS0_ED1Ev)
    QHash<QString, QString>::~QHash__sub_object() 0x00018c9d   Thumb Code     0  qserviceinterfacedescriptor.o(t._ZN5QHashI7QStringS0_ED1Ev)
    QHash<QString, QString>::operator =(const QHash<QString, QString>&) 0x00018cbb   Thumb Code    70  qserviceinterfacedescriptor.o(t._ZN5QHashI7QStringS0_EaSERKS1_)
    QHash<QString, QString>::operator [](const QString&) 0x00018d01   Thumb Code   208  servicemetadata.o(t._ZN5QHashI7QStringS0_EixERKS0_)
    QHash<QString, int>::deleteNode2(QHashData::Node*) 0x00018de9   Thumb Code    24  servicemetadata.o(t._ZN5QHashI7QStringiE11deleteNode2EPN9QHashData4NodeE)
    QHash<QString, int>::detach_helper()     0x00018e01   Thumb Code    52  servicemetadata.o(t._ZN5QHashI7QStringiE13detach_helperEv)
    QHash<QString, int>::duplicateNode(QHashData::Node*, void*) 0x00018e3d   Thumb Code    46  servicemetadata.o(t._ZN5QHashI7QStringiE13duplicateNodeEPN9QHashData4NodeEPv)
    QHash<QString, int>::freeData(QHashData*) 0x00018e79   Thumb Code    16  servicemetadata.o(t._ZN5QHashI7QStringiE8freeDataEP9QHashData)
    QHash<QString, int>::QHash()             0x00018e8d   Thumb Code    22  servicemetadata.o(t._ZN5QHashI7QStringiEC1Ev)
    QHash<QString, int>::QHash__sub_object() 0x00018e8d   Thumb Code     0  servicemetadata.o(t._ZN5QHashI7QStringiEC1Ev)
    QHash<QString, int>::~QHash()            0x00018ea9   Thumb Code    30  servicemetadata.o(t._ZN5QHashI7QStringiED1Ev)
    QHash<QString, int>::~QHash__sub_object() 0x00018ea9   Thumb Code     0  servicemetadata.o(t._ZN5QHashI7QStringiED1Ev)
    QHash<QString, int>::operator [](const QString&) 0x00018ec7   Thumb Code   182  servicemetadata.o(t._ZN5QHashI7QStringiEixERKS0_)
    QHash<QtMobility::QRemoteServiceRegister::Entry, QtMobility::ServiceIdentDescriptor>::createNode(unsigned, const QtMobility::QRemoteServiceRegister::Entry&, const QtMobility::ServiceIdentDescriptor&, QHashNode<QtMobility::QRemoteServiceRegister::Entry, QtMobility::ServiceIdentDescriptor>**) 0x00018f8b   Thumb Code   100  instancemanager.o(t._ZN5QHashIN10QtMobility22QRemoteServiceRegister5EntryENS0_22ServiceIdentDescriptorEE10createNodeEjRKS2_RKS3_PP9QHashNodeIS2_S3_E)
    QHash<QtMobility::QRemoteServiceRegister::Entry, QtMobility::ServiceIdentDescriptor>::deleteNode2(QHashData::Node*) 0x00018ffd   Thumb Code    36  instancemanager.o(t._ZN5QHashIN10QtMobility22QRemoteServiceRegister5EntryENS0_22ServiceIdentDescriptorEE11deleteNode2EPN9QHashData4NodeE)
    QHash<QtMobility::QRemoteServiceRegister::Entry, QtMobility::ServiceIdentDescriptor>::detach_helper() 0x0001902d   Thumb Code    52  instancemanager.o(t._ZN5QHashIN10QtMobility22QRemoteServiceRegister5EntryENS0_22ServiceIdentDescriptorEE13detach_helperEv)
    QHash<QtMobility::QRemoteServiceRegister::Entry, QtMobility::ServiceIdentDescriptor>::duplicateNode(QHashData::Node*, void*) 0x00019069   Thumb Code    46  instancemanager.o(t._ZN5QHashIN10QtMobility22QRemoteServiceRegister5EntryENS0_22ServiceIdentDescriptorEE13duplicateNodeEPN9QHashData4NodeEPv)
    QHash<QtMobility::QRemoteServiceRegister::Entry, QtMobility::ServiceIdentDescriptor>::take(const QtMobility::QRemoteServiceRegister::Entry&) 0x000190a5   Thumb Code   146  instancemanager.o(t._ZN5QHashIN10QtMobility22QRemoteServiceRegister5EntryENS0_22ServiceIdentDescriptorEE4takeERKS2_)
    QHash<QtMobility::QRemoteServiceRegister::Entry, QtMobility::ServiceIdentDescriptor>::detach() 0x00019141   Thumb Code    28  instancemanager.o(t._ZN5QHashIN10QtMobility22QRemoteServiceRegister5EntryENS0_22ServiceIdentDescriptorEE6detachEv)
    QHash<QtMobility::QRemoteServiceRegister::Entry, QtMobility::ServiceIdentDescriptor>::insert(const QtMobility::QRemoteServiceRegister::Entry&, const QtMobility::ServiceIdentDescriptor&) 0x0001915d   Thumb Code   206  instancemanager.o(t._ZN5QHashIN10QtMobility22QRemoteServiceRegister5EntryENS0_22ServiceIdentDescriptorEE6insertERKS2_RKS3_)
    QHash<QtMobility::QRemoteServiceRegister::Entry, QtMobility::ServiceIdentDescriptor>::freeData(QHashData*) 0x0001922d   Thumb Code    16  instancemanager.o(t._ZN5QHashIN10QtMobility22QRemoteServiceRegister5EntryENS0_22ServiceIdentDescriptorEE8freeDataEP9QHashData)
    QHash<QtMobility::QRemoteServiceRegister::Entry, QtMobility::ServiceIdentDescriptor>::~QHash() 0x00019241   Thumb Code    30  instancemanager.o(t._ZN5QHashIN10QtMobility22QRemoteServiceRegister5EntryENS0_22ServiceIdentDescriptorEED1Ev)
    QHash<QtMobility::QRemoteServiceRegister::Entry, QtMobility::ServiceIdentDescriptor>::~QHash__sub_object() 0x00019241   Thumb Code     0  instancemanager.o(t._ZN5QHashIN10QtMobility22QRemoteServiceRegister5EntryENS0_22ServiceIdentDescriptorEED1Ev)
    QHash<QtMobility::QRemoteServiceRegister::Entry, QtMobility::ServiceIdentDescriptor>::operator [](const QtMobility::QRemoteServiceRegister::Entry&) 0x0001925f   Thumb Code   106  instancemanager.o(t._ZN5QHashIN10QtMobility22QRemoteServiceRegister5EntryENS0_22ServiceIdentDescriptorEEixERKS2_)
    QHash<QtMobility::QServiceInterfaceDescriptor::Attribute, QVariant>::deleteNode2(QHashData::Node*) 0x000192d3   Thumb Code    24  servicemetadata.o(t._ZN5QHashIN10QtMobility27QServiceInterfaceDescriptor9AttributeE8QVariantE11deleteNode2EPN9QHashData4NodeE)
    QHash<QtMobility::QServiceInterfaceDescriptor::Attribute, QVariant>::detach_helper() 0x000192ed   Thumb Code    52  servicemetadata.o(t._ZN5QHashIN10QtMobility27QServiceInterfaceDescriptor9AttributeE8QVariantE13detach_helperEv)
    QHash<QtMobility::QServiceInterfaceDescriptor::Attribute, QVariant>::duplicateNode(QHashData::Node*, void*) 0x00019329   Thumb Code    48  servicemetadata.o(t._ZN5QHashIN10QtMobility27QServiceInterfaceDescriptor9AttributeE8QVariantE13duplicateNodeEPN9QHashData4NodeEPv)
    QHash<QtMobility::QServiceInterfaceDescriptor::Attribute, QVariant>::clear() 0x00019367   Thumb Code    28  qserviceinterfacedescriptor.o(t._ZN5QHashIN10QtMobility27QServiceInterfaceDescriptor9AttributeE8QVariantE5clearEv)
    QHash<QtMobility::QServiceInterfaceDescriptor::Attribute, QVariant>::freeData(QHashData*) 0x0001938d   Thumb Code    16  servicemetadata.o(t._ZN5QHashIN10QtMobility27QServiceInterfaceDescriptor9AttributeE8QVariantE8freeDataEP9QHashData)
    QHash<QtMobility::QServiceInterfaceDescriptor::Attribute, QVariant>::QHash() 0x000193a1   Thumb Code    22  qserviceinterfacedescriptor.o(t._ZN5QHashIN10QtMobility27QServiceInterfaceDescriptor9AttributeE8QVariantEC1Ev)
    QHash<QtMobility::QServiceInterfaceDescriptor::Attribute, QVariant>::QHash__sub_object() 0x000193a1   Thumb Code     0  qserviceinterfacedescriptor.o(t._ZN5QHashIN10QtMobility27QServiceInterfaceDescriptor9AttributeE8QVariantEC1Ev)
    QHash<QtMobility::QServiceInterfaceDescriptor::Attribute, QVariant>::~QHash() 0x000193bd   Thumb Code    30  servicemetadata.o(t._ZN5QHashIN10QtMobility27QServiceInterfaceDescriptor9AttributeE8QVariantED1Ev)
    QHash<QtMobility::QServiceInterfaceDescriptor::Attribute, QVariant>::~QHash__sub_object() 0x000193bd   Thumb Code     0  servicemetadata.o(t._ZN5QHashIN10QtMobility27QServiceInterfaceDescriptor9AttributeE8QVariantED1Ev)
    QHash<QtMobility::QServiceInterfaceDescriptor::Attribute, QVariant>::operator =(const QHash<QtMobility::QServiceInterfaceDescriptor::Attribute, QVariant>&) 0x000193db   Thumb Code    70  qserviceinterfacedescriptor.o(t._ZN5QHashIN10QtMobility27QServiceInterfaceDescriptor9AttributeE8QVariantEaSERKS4_)
    QHash<QtMobility::QServiceInterfaceDescriptor::Attribute, QVariant>::operator [](const QtMobility::QServiceInterfaceDescriptor::Attribute&) 0x00019421   Thumb Code   242  servicemetadata.o(t._ZN5QHashIN10QtMobility27QServiceInterfaceDescriptor9AttributeE8QVariantEixERKS2_)
    QList<QByteArray>::detach_helper(int)    0x0001952b   Thumb Code    94  qmetaobjectbuilder.o(t._ZN5QListI10QByteArrayE13detach_helperEi)
    QList<QByteArray>::detach_helper()       0x00019591   Thumb Code    16  qmetaobjectbuilder.o(t._ZN5QListI10QByteArrayE13detach_helperEv)
    QList<QByteArray>::node_destruct(QList<QByteArray>::Node*, QList<QByteArray>::Node*) 0x000195a1   Thumb Code    26  qmetaobjectbuilder.o(t._ZN5QListI10QByteArrayE13node_destructEPNS1_4NodeES3_)
    QList<QByteArray>::node_construct(QList<QByteArray>::Node*, const QByteArray&) 0x000195bb   Thumb Code    36  qmetaobjectbuilder.o(t._ZN5QListI10QByteArrayE14node_constructEPNS1_4NodeERKS0_)
    QList<QByteArray>::detach_helper_grow(int, int) 0x000195ed   Thumb Code   208  qmetaobjectbuilder.o(t._ZN5QListI10QByteArrayE18detach_helper_growEii)
    QList<QByteArray>::free(QListData::Data*) 0x000196cd   Thumb Code    52  qmetaobjectbuilder.o(t._ZN5QListI10QByteArrayE4freeEPN9QListData4DataE)
    QList<QByteArray>::clear()               0x00019701   Thumb Code    28  qmetaobjectbuilder.o(t._ZN5QListI10QByteArrayE5clearEv)
    QList<QByteArray>::append(const QByteArray&) 0x00019729   Thumb Code   114  qmetaobjectbuilder.o(t._ZN5QListI10QByteArrayE6appendERKS0_)
    QList<QByteArray>::detach()              0x000197af   Thumb Code    24  qmetaobjectbuilder.o(t._ZN5QListI10QByteArrayE6detachEv)
    QList<QByteArray>::reserve(int)          0x000197c7   Thumb Code    46  qmetaobjectbuilder.o(t._ZN5QListI10QByteArrayE7reserveEi)
    QList<QByteArray>::removeAt(int)         0x000197f5   Thumb Code    56  qmetaobjectbuilder.o(t._ZN5QListI10QByteArrayE8removeAtEi)
    QList<QByteArray>::node_copy(QList<QByteArray>::Node*, QList<QByteArray>::Node*, QList<QByteArray>::Node*) 0x0001982d   Thumb Code    82  qmetaobjectbuilder.o(t._ZN5QListI10QByteArrayE9node_copyEPNS1_4NodeES3_S3_)
    QList<QByteArray>::QList(const QList<QByteArray>&) 0x00019895   Thumb Code    36  qmetaobjectbuilder.o(t._ZN5QListI10QByteArrayEC1ERKS1_)
    QList<QByteArray>::QList__sub_object(const QList<QByteArray>&) 0x00019895   Thumb Code     0  qmetaobjectbuilder.o(t._ZN5QListI10QByteArrayEC1ERKS1_)
    QList<QByteArray>::QList()               0x000198b9   Thumb Code    18  qmetaobjectbuilder.o(t._ZN5QListI10QByteArrayEC1Ev)
    QList<QByteArray>::QList__sub_object()   0x000198b9   Thumb Code     0  qmetaobjectbuilder.o(t._ZN5QListI10QByteArrayEC1Ev)
    QList<QByteArray>::~QList()              0x000198d1   Thumb Code    32  objectendpoint.o(t._ZN5QListI10QByteArrayED1Ev)
    QList<QByteArray>::~QList__sub_object()  0x000198d1   Thumb Code     0  objectendpoint.o(t._ZN5QListI10QByteArrayED1Ev)
    QList<QByteArray>::operator =(const QList<QByteArray>&) 0x000198f1   Thumb Code    64  qmetaobjectbuilder.o(t._ZN5QListI10QByteArrayEaSERKS1_)
    QList<QByteArray>::operator [](int)      0x00019931   Thumb Code    28  qmetaobjectbuilder.o(t._ZN5QListI10QByteArrayEixEi)
    QList<QMetaEnumBuilderPrivate>::detach_helper(int) 0x0001994d   Thumb Code    94  qmetaobjectbuilder.o(t._ZN5QListI23QMetaEnumBuilderPrivateE13detach_helperEi)
    QList<QMetaEnumBuilderPrivate>::detach_helper() 0x000199b3   Thumb Code    16  qmetaobjectbuilder.o(t._ZN5QListI23QMetaEnumBuilderPrivateE13detach_helperEv)
    QList<QMetaEnumBuilderPrivate>::node_destruct(QList<QMetaEnumBuilderPrivate>::Node*) 0x000199c3   Thumb Code    28  qmetaobjectbuilder.o(t._ZN5QListI23QMetaEnumBuilderPrivateE13node_destructEPNS1_4NodeE)
    QList<QMetaEnumBuilderPrivate>::node_destruct(QList<QMetaEnumBuilderPrivate>::Node*, QList<QMetaEnumBuilderPrivate>::Node*) 0x000199df   Thumb Code    38  qmetaobjectbuilder.o(t._ZN5QListI23QMetaEnumBuilderPrivateE13node_destructEPNS1_4NodeES3_)
    QList<QMetaEnumBuilderPrivate>::node_construct(QList<QMetaEnumBuilderPrivate>::Node*, const QMetaEnumBuilderPrivate&) 0x00019a05   Thumb Code    34  qmetaobjectbuilder.o(t._ZN5QListI23QMetaEnumBuilderPrivateE14node_constructEPNS1_4NodeERKS0_)
    QList<QMetaEnumBuilderPrivate>::detach_helper_grow(int, int) 0x00019a35   Thumb Code   208  qmetaobjectbuilder.o(t._ZN5QListI23QMetaEnumBuilderPrivateE18detach_helper_growEii)
    QList<QMetaEnumBuilderPrivate>::free(QListData::Data*) 0x00019b15   Thumb Code    52  qmetaobjectbuilder.o(t._ZN5QListI23QMetaEnumBuilderPrivateE4freeEPN9QListData4DataE)
    QList<QMetaEnumBuilderPrivate>::clear()  0x00019b49   Thumb Code    76  qmetaobjectbuilder.o(t._ZN5QListI23QMetaEnumBuilderPrivateE5clearEv)
    QList<QMetaEnumBuilderPrivate>::append(const QMetaEnumBuilderPrivate&) 0x00019ba1   Thumb Code   106  qmetaobjectbuilder.o(t._ZN5QListI23QMetaEnumBuilderPrivateE6appendERKS0_)
    QList<QMetaEnumBuilderPrivate>::detach() 0x00019c1f   Thumb Code    24  qmetaobjectbuilder.o(t._ZN5QListI23QMetaEnumBuilderPrivateE6detachEv)
    QList<QMetaEnumBuilderPrivate>::node_copy(QList<QMetaEnumBuilderPrivate>::Node*, QList<QMetaEnumBuilderPrivate>::Node*, QList<QMetaEnumBuilderPrivate>::Node*) 0x00019c37   Thumb Code    92  qmetaobjectbuilder.o(t._ZN5QListI23QMetaEnumBuilderPrivateE9node_copyEPNS1_4NodeES3_S3_)
    QList<QMetaEnumBuilderPrivate>::QList()  0x00019ca9   Thumb Code    18  qmetaobjectbuilder.o(t._ZN5QListI23QMetaEnumBuilderPrivateEC1Ev)
    QList<QMetaEnumBuilderPrivate>::QList__sub_object() 0x00019ca9   Thumb Code     0  qmetaobjectbuilder.o(t._ZN5QListI23QMetaEnumBuilderPrivateEC1Ev)
    QList<QMetaEnumBuilderPrivate>::~QList() 0x00019cc1   Thumb Code    32  qmetaobjectbuilder.o(t._ZN5QListI23QMetaEnumBuilderPrivateED1Ev)
    QList<QMetaEnumBuilderPrivate>::~QList__sub_object() 0x00019cc1   Thumb Code     0  qmetaobjectbuilder.o(t._ZN5QListI23QMetaEnumBuilderPrivateED1Ev)
    QList<QMetaEnumBuilderPrivate>::operator [](int) 0x00019ce1   Thumb Code    28  qmetaobjectbuilder.o(t._ZN5QListI23QMetaEnumBuilderPrivateEixEi)
    QList<QMetaMethodBuilderPrivate>::detach_helper(int) 0x00019cfd   Thumb Code    94  qmetaobjectbuilder.o(t._ZN5QListI25QMetaMethodBuilderPrivateE13detach_helperEi)
    QList<QMetaMethodBuilderPrivate>::detach_helper() 0x00019d63   Thumb Code    16  qmetaobjectbuilder.o(t._ZN5QListI25QMetaMethodBuilderPrivateE13detach_helperEv)
    QList<QMetaMethodBuilderPrivate>::node_destruct(QList<QMetaMethodBuilderPrivate>::Node*) 0x00019d73   Thumb Code    28  qmetaobjectbuilder.o(t._ZN5QListI25QMetaMethodBuilderPrivateE13node_destructEPNS1_4NodeE)
    QList<QMetaMethodBuilderPrivate>::node_destruct(QList<QMetaMethodBuilderPrivate>::Node*, QList<QMetaMethodBuilderPrivate>::Node*) 0x00019d8f   Thumb Code    38  qmetaobjectbuilder.o(t._ZN5QListI25QMetaMethodBuilderPrivateE13node_destructEPNS1_4NodeES3_)
    QList<QMetaMethodBuilderPrivate>::node_construct(QList<QMetaMethodBuilderPrivate>::Node*, const QMetaMethodBuilderPrivate&) 0x00019db5   Thumb Code    34  qmetaobjectbuilder.o(t._ZN5QListI25QMetaMethodBuilderPrivateE14node_constructEPNS1_4NodeERKS0_)
    QList<QMetaMethodBuilderPrivate>::detach_helper_grow(int, int) 0x00019de5   Thumb Code   208  qmetaobjectbuilder.o(t._ZN5QListI25QMetaMethodBuilderPrivateE18detach_helper_growEii)
    QList<QMetaMethodBuilderPrivate>::free(QListData::Data*) 0x00019ec5   Thumb Code    52  qmetaobjectbuilder.o(t._ZN5QListI25QMetaMethodBuilderPrivateE4freeEPN9QListData4DataE)
    QList<QMetaMethodBuilderPrivate>::clear() 0x00019ef9   Thumb Code    76  qmetaobjectbuilder.o(t._ZN5QListI25QMetaMethodBuilderPrivateE5clearEv)
    QList<QMetaMethodBuilderPrivate>::append(const QMetaMethodBuilderPrivate&) 0x00019f51   Thumb Code   106  qmetaobjectbuilder.o(t._ZN5QListI25QMetaMethodBuilderPrivateE6appendERKS0_)
    QList<QMetaMethodBuilderPrivate>::detach() 0x00019fcf   Thumb Code    24  qmetaobjectbuilder.o(t._ZN5QListI25QMetaMethodBuilderPrivateE6detachEv)
    QList<QMetaMethodBuilderPrivate>::removeAt(int) 0x00019fe7   Thumb Code    54  qmetaobjectbuilder.o(t._ZN5QListI25QMetaMethodBuilderPrivateE8removeAtEi)
    QList<QMetaMethodBuilderPrivate>::node_copy(QList<QMetaMethodBuilderPrivate>::Node*, QList<QMetaMethodBuilderPrivate>::Node*, QList<QMetaMethodBuilderPrivate>::Node*) 0x0001a01d   Thumb Code    92  qmetaobjectbuilder.o(t._ZN5QListI25QMetaMethodBuilderPrivateE9node_copyEPNS1_4NodeES3_S3_)
    QList<QMetaMethodBuilderPrivate>::QList() 0x0001a091   Thumb Code    18  qmetaobjectbuilder.o(t._ZN5QListI25QMetaMethodBuilderPrivateEC1Ev)
    QList<QMetaMethodBuilderPrivate>::QList__sub_object() 0x0001a091   Thumb Code     0  qmetaobjectbuilder.o(t._ZN5QListI25QMetaMethodBuilderPrivateEC1Ev)
    QList<QMetaMethodBuilderPrivate>::~QList() 0x0001a0a9   Thumb Code    32  qmetaobjectbuilder.o(t._ZN5QListI25QMetaMethodBuilderPrivateED1Ev)
    QList<QMetaMethodBuilderPrivate>::~QList__sub_object() 0x0001a0a9   Thumb Code     0  qmetaobjectbuilder.o(t._ZN5QListI25QMetaMethodBuilderPrivateED1Ev)
    QList<QMetaMethodBuilderPrivate>::operator [](int) 0x0001a0c9   Thumb Code    28  qmetaobjectbuilder.o(t._ZN5QListI25QMetaMethodBuilderPrivateEixEi)
    QList<QMetaPropertyBuilderPrivate>::detach_helper(int) 0x0001a0e5   Thumb Code    94  qmetaobjectbuilder.o(t._ZN5QListI27QMetaPropertyBuilderPrivateE13detach_helperEi)
    QList<QMetaPropertyBuilderPrivate>::detach_helper() 0x0001a14b   Thumb Code    16  qmetaobjectbuilder.o(t._ZN5QListI27QMetaPropertyBuilderPrivateE13detach_helperEv)
    QList<QMetaPropertyBuilderPrivate>::node_destruct(QList<QMetaPropertyBuilderPrivate>::Node*) 0x0001a15b   Thumb Code    28  qmetaobjectbuilder.o(t._ZN5QListI27QMetaPropertyBuilderPrivateE13node_destructEPNS1_4NodeE)
    QList<QMetaPropertyBuilderPrivate>::node_destruct(QList<QMetaPropertyBuilderPrivate>::Node*, QList<QMetaPropertyBuilderPrivate>::Node*) 0x0001a177   Thumb Code    38  qmetaobjectbuilder.o(t._ZN5QListI27QMetaPropertyBuilderPrivateE13node_destructEPNS1_4NodeES3_)
    QList<QMetaPropertyBuilderPrivate>::node_construct(QList<QMetaPropertyBuilderPrivate>::Node*, const QMetaPropertyBuilderPrivate&) 0x0001a19d   Thumb Code    34  qmetaobjectbuilder.o(t._ZN5QListI27QMetaPropertyBuilderPrivateE14node_constructEPNS1_4NodeERKS0_)
    QList<QMetaPropertyBuilderPrivate>::detach_helper_grow(int, int) 0x0001a1cd   Thumb Code   208  qmetaobjectbuilder.o(t._ZN5QListI27QMetaPropertyBuilderPrivateE18detach_helper_growEii)
    QList<QMetaPropertyBuilderPrivate>::free(QListData::Data*) 0x0001a2ad   Thumb Code    52  qmetaobjectbuilder.o(t._ZN5QListI27QMetaPropertyBuilderPrivateE4freeEPN9QListData4DataE)
    QList<QMetaPropertyBuilderPrivate>::clear() 0x0001a2e1   Thumb Code    76  qmetaobjectbuilder.o(t._ZN5QListI27QMetaPropertyBuilderPrivateE5clearEv)
    QList<QMetaPropertyBuilderPrivate>::append(const QMetaPropertyBuilderPrivate&) 0x0001a339   Thumb Code   106  qmetaobjectbuilder.o(t._ZN5QListI27QMetaPropertyBuilderPrivateE6appendERKS0_)
    QList<QMetaPropertyBuilderPrivate>::detach() 0x0001a3b7   Thumb Code    24  qmetaobjectbuilder.o(t._ZN5QListI27QMetaPropertyBuilderPrivateE6detachEv)
    QList<QMetaPropertyBuilderPrivate>::node_copy(QList<QMetaPropertyBuilderPrivate>::Node*, QList<QMetaPropertyBuilderPrivate>::Node*, QList<QMetaPropertyBuilderPrivate>::Node*) 0x0001a3cf   Thumb Code    92  qmetaobjectbuilder.o(t._ZN5QListI27QMetaPropertyBuilderPrivateE9node_copyEPNS1_4NodeES3_S3_)
    QList<QMetaPropertyBuilderPrivate>::QList() 0x0001a441   Thumb Code    18  qmetaobjectbuilder.o(t._ZN5QListI27QMetaPropertyBuilderPrivateEC1Ev)
    QList<QMetaPropertyBuilderPrivate>::QList__sub_object() 0x0001a441   Thumb Code     0  qmetaobjectbuilder.o(t._ZN5QListI27QMetaPropertyBuilderPrivateEC1Ev)
    QList<QMetaPropertyBuilderPrivate>::~QList() 0x0001a459   Thumb Code    32  qmetaobjectbuilder.o(t._ZN5QListI27QMetaPropertyBuilderPrivateED1Ev)
    QList<QMetaPropertyBuilderPrivate>::~QList__sub_object() 0x0001a459   Thumb Code     0  qmetaobjectbuilder.o(t._ZN5QListI27QMetaPropertyBuilderPrivateED1Ev)
    QList<QMetaPropertyBuilderPrivate>::operator [](int) 0x0001a479   Thumb Code    28  qmetaobjectbuilder.o(t._ZN5QListI27QMetaPropertyBuilderPrivateEixEi)
    QList<QUuid>::detach_helper(int)         0x0001a495   Thumb Code    94  instancemanager.o(t._ZN5QListI5QUuidE13detach_helperEi)
    QList<QUuid>::detach_helper()            0x0001a4fb   Thumb Code    16  instancemanager.o(t._ZN5QListI5QUuidE13detach_helperEv)
    QList<QUuid>::node_destruct(QList<QUuid>::Node*, QList<QUuid>::Node*) 0x0001a50b   Thumb Code    26  instancemanager.o(t._ZN5QListI5QUuidE13node_destructEPNS1_4NodeES3_)
    QList<QUuid>::node_construct(QList<QUuid>::Node*, const QUuid&) 0x0001a525   Thumb Code    34  instancemanager.o(t._ZN5QListI5QUuidE14node_constructEPNS1_4NodeERKS0_)
    QList<QUuid>::detach_helper_grow(int, int) 0x0001a555   Thumb Code   208  instancemanager.o(t._ZN5QListI5QUuidE18detach_helper_growEii)
    QList<QUuid>::free(QListData::Data*)     0x0001a635   Thumb Code    58  instancemanager.o(t._ZN5QListI5QUuidE4freeEPN9QListData4DataE)
    QList<QUuid>::begin()                    0x0001a66f   Thumb Code    40  instancemanager.o(t._ZN5QListI5QUuidE5beginEv)
    QList<QUuid>::append(const QUuid&)       0x0001a699   Thumb Code   106  instancemanager.o(t._ZN5QListI5QUuidE6appendERKS0_)
    QList<QUuid>::reserve(int)               0x0001a717   Thumb Code    46  instancemanager.o(t._ZN5QListI5QUuidE7reserveEi)
    QList<QUuid>::node_copy(QList<QUuid>::Node*, QList<QUuid>::Node*, QList<QUuid>::Node*) 0x0001a745   Thumb Code    80  instancemanager.o(t._ZN5QListI5QUuidE9node_copyEPNS1_4NodeES3_S3_)
    QList<QUuid>::~QList()                   0x0001a7ab   Thumb Code    32  instancemanager.o(t._ZN5QListI5QUuidED1Ev)
    QList<QUuid>::~QList__sub_object()       0x0001a7ab   Thumb Code     0  instancemanager.o(t._ZN5QListI5QUuidED1Ev)
    QList<QString>::detach_helper(int)       0x0001a7cb   Thumb Code    94  qservicemanager.o(t._ZN5QListI7QStringE13detach_helperEi)
    QList<QString>::detach_helper()          0x0001a831   Thumb Code    16  servicemetadata.o(t._ZN5QListI7QStringE13detach_helperEv)
    QList<QString>::node_destruct(QList<QString>::Node*, QList<QString>::Node*) 0x0001a841   Thumb Code    26  qservicemanager.o(t._ZN5QListI7QStringE13node_destructEPNS1_4NodeES3_)
    QList<QString>::node_construct(QList<QString>::Node*, const QString&) 0x0001a85b   Thumb Code    36  qservicemanager.o(t._ZN5QListI7QStringE14node_constructEPNS1_4NodeERKS0_)
    QList<QString>::detach_helper_grow(int, int) 0x0001a88d   Thumb Code   208  qservicemanager.o(t._ZN5QListI7QStringE18detach_helper_growEii)
    QList<QString>::free(QListData::Data*)   0x0001a96d   Thumb Code    58  qservicemanager.o(t._ZN5QListI7QStringE4freeEPN9QListData4DataE)
    QList<QString>::clear()                  0x0001a9a7   Thumb Code    28  qservicefilter.o(t._ZN5QListI7QStringE5clearEv)
    QList<QString>::append(const QString&)   0x0001a9cd   Thumb Code   114  qservicemanager.o(t._ZN5QListI7QStringE6appendERKS0_)
    QList<QString>::reserve(int)             0x0001aa53   Thumb Code    46  qservicemanager.o(t._ZN5QListI7QStringE7reserveEi)
    QList<QString>::node_copy(QList<QString>::Node*, QList<QString>::Node*, QList<QString>::Node*) 0x0001aa81   Thumb Code    82  qservicemanager.o(t._ZN5QListI7QStringE9node_copyEPNS1_4NodeES3_S3_)
    QList<QString>::QList(const QList<QString>&) 0x0001aae9   Thumb Code    36  qservicefilter.o(t._ZN5QListI7QStringEC1ERKS1_)
    QList<QString>::QList__sub_object(const QList<QString>&) 0x0001aae9   Thumb Code     0  qservicefilter.o(t._ZN5QListI7QStringEC1ERKS1_)
    QList<QString>::QList()                  0x0001ab0d   Thumb Code    18  qservicemanager.o(t._ZN5QListI7QStringEC1Ev)
    QList<QString>::QList__sub_object()      0x0001ab0d   Thumb Code     0  qservicemanager.o(t._ZN5QListI7QStringEC1Ev)
    QList<QString>::~QList()                 0x0001ab25   Thumb Code    32  servicemetadata.o(t._ZN5QListI7QStringED1Ev)
    QList<QString>::~QList__sub_object()     0x0001ab25   Thumb Code     0  servicemetadata.o(t._ZN5QListI7QStringED1Ev)
    QList<QString>::operator =(const QList<QString>&) 0x0001ab45   Thumb Code    64  qservicefilter.o(t._ZN5QListI7QStringEaSERKS1_)
    QList<QString>::operator [](int)         0x0001ab85   Thumb Code    42  servicemetadata.o(t._ZN5QListI7QStringEixEi)
    QList<QVariant>::detach_helper(int)      0x0001abaf   Thumb Code    94  objectendpoint.o(t._ZN5QListI8QVariantE13detach_helperEi)
    QList<QVariant>::detach_helper()         0x0001ac15   Thumb Code    16  objectendpoint.o(t._ZN5QListI8QVariantE13detach_helperEv)
    QList<QVariant>::node_destruct(QList<QVariant>::Node*, QList<QVariant>::Node*) 0x0001ac25   Thumb Code    38  objectendpoint.o(t._ZN5QListI8QVariantE13node_destructEPNS1_4NodeES3_)
    QList<QVariant>::node_construct(QList<QVariant>::Node*, const QVariant&) 0x0001ac4b   Thumb Code    34  objectendpoint.o(t._ZN5QListI8QVariantE14node_constructEPNS1_4NodeERKS0_)
    QList<QVariant>::detach_helper_grow(int, int) 0x0001ac7b   Thumb Code   208  objectendpoint.o(t._ZN5QListI8QVariantE18detach_helper_growEii)
    QList<QVariant>::free(QListData::Data*)  0x0001ad5b   Thumb Code    58  objectendpoint.o(t._ZN5QListI8QVariantE4freeEPN9QListData4DataE)
    QList<QVariant>::clear()                 0x0001ad95   Thumb Code    76  objectendpoint.o(t._ZN5QListI8QVariantE5clearEv)
    QList<QVariant>::append(const QVariant&) 0x0001aded   Thumb Code   106  objectendpoint.o(t._ZN5QListI8QVariantE6appendERKS0_)
    QList<QVariant>::reserve(int)            0x0001ae6b   Thumb Code    46  objectendpoint.o(t._ZN5QListI8QVariantE7reserveEi)
    QList<QVariant>::node_copy(QList<QVariant>::Node*, QList<QVariant>::Node*, QList<QVariant>::Node*) 0x0001ae99   Thumb Code    92  objectendpoint.o(t._ZN5QListI8QVariantE9node_copyEPNS1_4NodeES3_S3_)
    QList<QVariant>::QList()                 0x0001af0d   Thumb Code    18  objectendpoint.o(t._ZN5QListI8QVariantEC1Ev)
    QList<QVariant>::QList__sub_object()     0x0001af0d   Thumb Code     0  objectendpoint.o(t._ZN5QListI8QVariantEC1Ev)
    QList<QVariant>::~QList()                0x0001af25   Thumb Code    32  objectendpoint.o(t._ZN5QListI8QVariantED1Ev)
    QList<QVariant>::~QList__sub_object()    0x0001af25   Thumb Code     0  objectendpoint.o(t._ZN5QListI8QVariantED1Ev)
    QList<QVariant>::operator [](int)        0x0001af45   Thumb Code    42  objectendpoint.o(t._ZN5QListI8QVariantEixEi)
    QList<QtMobility::QServicePackage>::detach_helper(int) 0x0001af6f   Thumb Code    94  qremoteserviceregister_s60.o(t._ZN5QListIN10QtMobility15QServicePackageEE13detach_helperEi)
    QList<QtMobility::QServicePackage>::detach_helper() 0x0001afd5   Thumb Code    16  qremoteserviceregister_s60.o(t._ZN5QListIN10QtMobility15QServicePackageEE13detach_helperEv)
    QList<QtMobility::QServicePackage>::node_destruct(QList<QtMobility::QServicePackage>::Node*) 0x0001afe5   Thumb Code    28  qremoteserviceregister_s60.o(t._ZN5QListIN10QtMobility15QServicePackageEE13node_destructEPNS2_4NodeE)
    QList<QtMobility::QServicePackage>::node_destruct(QList<QtMobility::QServicePackage>::Node*, QList<QtMobility::QServicePackage>::Node*) 0x0001b001   Thumb Code    38  qremoteserviceregister_s60.o(t._ZN5QListIN10QtMobility15QServicePackageEE13node_destructEPNS2_4NodeES4_)
    QList<QtMobility::QServicePackage>::node_construct(QList<QtMobility::QServicePackage>::Node*, const QtMobility::QServicePackage&) 0x0001b027   Thumb Code    34  qremoteserviceregister_s60.o(t._ZN5QListIN10QtMobility15QServicePackageEE14node_constructEPNS2_4NodeERKS1_)
    QList<QtMobility::QServicePackage>::detach_helper_grow(int, int) 0x0001b057   Thumb Code   208  qremoteserviceregister_s60.o(t._ZN5QListIN10QtMobility15QServicePackageEE18detach_helper_growEii)
    QList<QtMobility::QServicePackage>::free(QListData::Data*) 0x0001b137   Thumb Code    58  qremoteserviceregister_s60.o(t._ZN5QListIN10QtMobility15QServicePackageEE4freeEPN9QListData4DataE)
    QList<QtMobility::QServicePackage>::begin() 0x0001b171   Thumb Code    40  qremoteserviceregister_s60.o(t._ZN5QListIN10QtMobility15QServicePackageEE5beginEv)
    QList<QtMobility::QServicePackage>::clear() 0x0001b199   Thumb Code    76  ipcendpoint.o(t._ZN5QListIN10QtMobility15QServicePackageEE5clearEv)
    QList<QtMobility::QServicePackage>::append(const QtMobility::QServicePackage&) 0x0001b1f1   Thumb Code   106  qremoteserviceregister_s60.o(t._ZN5QListIN10QtMobility15QServicePackageEE6appendERKS1_)
    QList<QtMobility::QServicePackage>::node_copy(QList<QtMobility::QServicePackage>::Node*, QList<QtMobility::QServicePackage>::Node*, QList<QtMobility::QServicePackage>::Node*) 0x0001b26f   Thumb Code    92  qremoteserviceregister_s60.o(t._ZN5QListIN10QtMobility15QServicePackageEE9node_copyEPNS2_4NodeES4_S4_)
    QList<QtMobility::QServicePackage>::QList() 0x0001b2e1   Thumb Code    18  ipcendpoint.o(t._ZN5QListIN10QtMobility15QServicePackageEEC1Ev)
    QList<QtMobility::QServicePackage>::QList__sub_object() 0x0001b2e1   Thumb Code     0  ipcendpoint.o(t._ZN5QListIN10QtMobility15QServicePackageEEC1Ev)
    QList<QtMobility::QServicePackage>::~QList() 0x0001b2f9   Thumb Code    32  qremoteserviceregister_s60.o(t._ZN5QListIN10QtMobility15QServicePackageEED1Ev)
    QList<QtMobility::QServicePackage>::~QList__sub_object() 0x0001b2f9   Thumb Code     0  qremoteserviceregister_s60.o(t._ZN5QListIN10QtMobility15QServicePackageEED1Ev)
    QList<QtMobility::QRemoteServiceRegister::Entry>::detach_helper(int) 0x0001b319   Thumb Code    94  instancemanager.o(t._ZN5QListIN10QtMobility22QRemoteServiceRegister5EntryEE13detach_helperEi)
    QList<QtMobility::QRemoteServiceRegister::Entry>::detach_helper() 0x0001b37f   Thumb Code    16  instancemanager.o(t._ZN5QListIN10QtMobility22QRemoteServiceRegister5EntryEE13detach_helperEv)
    QList<QtMobility::QRemoteServiceRegister::Entry>::node_destruct(QList<QtMobility::QRemoteServiceRegister::Entry>::Node*) 0x0001b38f   Thumb Code    28  instancemanager.o(t._ZN5QListIN10QtMobility22QRemoteServiceRegister5EntryEE13node_destructEPNS3_4NodeE)
    QList<QtMobility::QRemoteServiceRegister::Entry>::node_destruct(QList<QtMobility::QRemoteServiceRegister::Entry>::Node*, QList<QtMobility::QRemoteServiceRegister::Entry>::Node*) 0x0001b3ab   Thumb Code    38  instancemanager.o(t._ZN5QListIN10QtMobility22QRemoteServiceRegister5EntryEE13node_destructEPNS3_4NodeES5_)
    QList<QtMobility::QRemoteServiceRegister::Entry>::node_construct(QList<QtMobility::QRemoteServiceRegister::Entry>::Node*, const QtMobility::QRemoteServiceRegister::Entry&) 0x0001b3d1   Thumb Code    34  instancemanager.o(t._ZN5QListIN10QtMobility22QRemoteServiceRegister5EntryEE14node_constructEPNS3_4NodeERKS2_)
    QList<QtMobility::QRemoteServiceRegister::Entry>::detach_helper_grow(int, int) 0x0001b401   Thumb Code   208  instancemanager.o(t._ZN5QListIN10QtMobility22QRemoteServiceRegister5EntryEE18detach_helper_growEii)
    QList<QtMobility::QRemoteServiceRegister::Entry>::free(QListData::Data*) 0x0001b4e1   Thumb Code    58  instancemanager.o(t._ZN5QListIN10QtMobility22QRemoteServiceRegister5EntryEE4freeEPN9QListData4DataE)
    QList<QtMobility::QRemoteServiceRegister::Entry>::begin() 0x0001b51b   Thumb Code    40  instancemanager.o(t._ZN5QListIN10QtMobility22QRemoteServiceRegister5EntryEE5beginEv)
    QList<QtMobility::QRemoteServiceRegister::Entry>::append(const QtMobility::QRemoteServiceRegister::Entry&) 0x0001b545   Thumb Code   106  instancemanager.o(t._ZN5QListIN10QtMobility22QRemoteServiceRegister5EntryEE6appendERKS2_)
    QList<QtMobility::QRemoteServiceRegister::Entry>::reserve(int) 0x0001b5c3   Thumb Code    46  instancemanager.o(t._ZN5QListIN10QtMobility22QRemoteServiceRegister5EntryEE7reserveEi)
    QList<QtMobility::QRemoteServiceRegister::Entry>::node_copy(QList<QtMobility::QRemoteServiceRegister::Entry>::Node*, QList<QtMobility::QRemoteServiceRegister::Entry>::Node*, QList<QtMobility::QRemoteServiceRegister::Entry>::Node*) 0x0001b5f1   Thumb Code    92  instancemanager.o(t._ZN5QListIN10QtMobility22QRemoteServiceRegister5EntryEE9node_copyEPNS3_4NodeES5_S5_)
    QList<QtMobility::QRemoteServiceRegister::Entry>::~QList() 0x0001b663   Thumb Code    32  instancemanager.o(t._ZN5QListIN10QtMobility22QRemoteServiceRegister5EntryEED1Ev)
    QList<QtMobility::QRemoteServiceRegister::Entry>::~QList__sub_object() 0x0001b663   Thumb Code     0  instancemanager.o(t._ZN5QListIN10QtMobility22QRemoteServiceRegister5EntryEED1Ev)
    QList<QtMobility::QServiceInterfaceDescriptor>::detach_helper(int) 0x0001b683   Thumb Code    94  servicemetadata.o(t._ZN5QListIN10QtMobility27QServiceInterfaceDescriptorEE13detach_helperEi)
    QList<QtMobility::QServiceInterfaceDescriptor>::detach_helper() 0x0001b6e9   Thumb Code    16  servicemetadata.o(t._ZN5QListIN10QtMobility27QServiceInterfaceDescriptorEE13detach_helperEv)
    QList<QtMobility::QServiceInterfaceDescriptor>::node_destruct(QList<QtMobility::QServiceInterfaceDescriptor>::Node*, QList<QtMobility::QServiceInterfaceDescriptor>::Node*) 0x0001b6f9   Thumb Code    38  servicemetadata.o(t._ZN5QListIN10QtMobility27QServiceInterfaceDescriptorEE13node_destructEPNS2_4NodeES4_)
    QList<QtMobility::QServiceInterfaceDescriptor>::node_construct(QList<QtMobility::QServiceInterfaceDescriptor>::Node*, const QtMobility::QServiceInterfaceDescriptor&) 0x0001b71f   Thumb Code    34  servicemetadata.o(t._ZN5QListIN10QtMobility27QServiceInterfaceDescriptorEE14node_constructEPNS2_4NodeERKS1_)
    QList<QtMobility::QServiceInterfaceDescriptor>::detach_helper_grow(int, int) 0x0001b74f   Thumb Code   208  servicemetadata.o(t._ZN5QListIN10QtMobility27QServiceInterfaceDescriptorEE18detach_helper_growEii)
    QList<QtMobility::QServiceInterfaceDescriptor>::free(QListData::Data*) 0x0001b82f   Thumb Code    58  servicemetadata.o(t._ZN5QListIN10QtMobility27QServiceInterfaceDescriptorEE4freeEPN9QListData4DataE)
    QList<QtMobility::QServiceInterfaceDescriptor>::clear() 0x0001b869   Thumb Code    28  servicemetadata.o(t._ZN5QListIN10QtMobility27QServiceInterfaceDescriptorEE5clearEv)
    QList<QtMobility::QServiceInterfaceDescriptor>::append(const QtMobility::QServiceInterfaceDescriptor&) 0x0001b891   Thumb Code   106  servicemetadata.o(t._ZN5QListIN10QtMobility27QServiceInterfaceDescriptorEE6appendERKS1_)
    QList<QtMobility::QServiceInterfaceDescriptor>::reserve(int) 0x0001b90f   Thumb Code    46  servicemetadata.o(t._ZN5QListIN10QtMobility27QServiceInterfaceDescriptorEE7reserveEi)
    QList<QtMobility::QServiceInterfaceDescriptor>::node_copy(QList<QtMobility::QServiceInterfaceDescriptor>::Node*, QList<QtMobility::QServiceInterfaceDescriptor>::Node*, QList<QtMobility::QServiceInterfaceDescriptor>::Node*) 0x0001b93d   Thumb Code    92  servicemetadata.o(t._ZN5QListIN10QtMobility27QServiceInterfaceDescriptorEE9node_copyEPNS2_4NodeES4_S4_)
    QList<QtMobility::QServiceInterfaceDescriptor>::QList() 0x0001b9b1   Thumb Code    18  servicemetadata.o(t._ZN5QListIN10QtMobility27QServiceInterfaceDescriptorEEC1Ev)
    QList<QtMobility::QServiceInterfaceDescriptor>::QList__sub_object() 0x0001b9b1   Thumb Code     0  servicemetadata.o(t._ZN5QListIN10QtMobility27QServiceInterfaceDescriptorEEC1Ev)
    QList<QtMobility::QServiceInterfaceDescriptor>::~QList() 0x0001b9c9   Thumb Code    32  servicemetadata.o(t._ZN5QListIN10QtMobility27QServiceInterfaceDescriptorEED1Ev)
    QList<QtMobility::QServiceInterfaceDescriptor>::~QList__sub_object() 0x0001b9c9   Thumb Code     0  servicemetadata.o(t._ZN5QListIN10QtMobility27QServiceInterfaceDescriptorEED1Ev)
    QList<QtMobility::QServiceInterfaceDescriptor>::operator =(const QList<QtMobility::QServiceInterfaceDescriptor>&) 0x0001b9e9   Thumb Code    64  servicemetadata.o(t._ZN5QListIN10QtMobility27QServiceInterfaceDescriptorEEaSERKS2_)
    QList<QtMobility::QServiceInterfaceDescriptor>::operator [](int) 0x0001ba29   Thumb Code    42  qservicemanager.o(t._ZN5QListIN10QtMobility27QServiceInterfaceDescriptorEEixEi)
    QList<const QMetaObject&(*)()>::detach_helper(int) 0x0001ba53   Thumb Code    94  qmetaobjectbuilder.o(t._ZN5QListIPFRK11QMetaObjectvEE13detach_helperEi)
    QList<const QMetaObject&(*)()>::detach_helper() 0x0001bab9   Thumb Code    16  qmetaobjectbuilder.o(t._ZN5QListIPFRK11QMetaObjectvEE13detach_helperEv)
    QList<const QMetaObject&(*)()>::detach_helper_grow(int, int) 0x0001bac9   Thumb Code   204  qmetaobjectbuilder.o(t._ZN5QListIPFRK11QMetaObjectvEE18detach_helper_growEii)
    QList<const QMetaObject&(*)()>::free(QListData::Data*) 0x0001bba5   Thumb Code    52  qmetaobjectbuilder.o(t._ZN5QListIPFRK11QMetaObjectvEE4freeEPN9QListData4DataE)
    QList<const QMetaObject&(*)()>::clear()  0x0001bbd9   Thumb Code    76  qmetaobjectbuilder.o(t._ZN5QListIPFRK11QMetaObjectvEE5clearEv)
    QList<const QMetaObject&(*)()>::append(const QMetaObject&(*const &)()) 0x0001bc31   Thumb Code    94  qmetaobjectbuilder.o(t._ZN5QListIPFRK11QMetaObjectvEE6appendERKS4_)
    QList<const QMetaObject&(*)()>::detach() 0x0001bc9f   Thumb Code    24  qmetaobjectbuilder.o(t._ZN5QListIPFRK11QMetaObjectvEE6detachEv)
    QList<const QMetaObject&(*)()>::node_copy(QList<const QMetaObject&(*)()>::Node*, QList<const QMetaObject&(*)()>::Node*, QList<const QMetaObject&(*)()>::Node*) 0x0001bcb7   Thumb Code    46  qmetaobjectbuilder.o(t._ZN5QListIPFRK11QMetaObjectvEE9node_copyEPNS5_4NodeES7_S7_)
    QList<const QMetaObject&(*)()>::QList()  0x0001bce5   Thumb Code    18  qmetaobjectbuilder.o(t._ZN5QListIPFRK11QMetaObjectvEEC1Ev)
    QList<const QMetaObject&(*)()>::QList__sub_object() 0x0001bce5   Thumb Code     0  qmetaobjectbuilder.o(t._ZN5QListIPFRK11QMetaObjectvEEC1Ev)
    QList<const QMetaObject&(*)()>::~QList() 0x0001bcfd   Thumb Code    32  qmetaobjectbuilder.o(t._ZN5QListIPFRK11QMetaObjectvEED1Ev)
    QList<const QMetaObject&(*)()>::~QList__sub_object() 0x0001bcfd   Thumb Code     0  qmetaobjectbuilder.o(t._ZN5QListIPFRK11QMetaObjectvEED1Ev)
    QList<const QMetaObject&(*)()>::operator [](int) 0x0001bd1d   Thumb Code    28  qmetaobjectbuilder.o(t._ZN5QListIPFRK11QMetaObjectvEEixEi)
    QList<int>::detach_helper(int)           0x0001bd39   Thumb Code    94  qmetaobjectbuilder.o(t._ZN5QListIiE13detach_helperEi)
    QList<int>::detach_helper()              0x0001bd9f   Thumb Code    16  qmetaobjectbuilder.o(t._ZN5QListIiE13detach_helperEv)
    QList<int>::detach_helper_grow(int, int) 0x0001bdaf   Thumb Code   204  qmetaobjectbuilder.o(t._ZN5QListIiE18detach_helper_growEii)
    QList<int>::free(QListData::Data*)       0x0001be8b   Thumb Code    52  qmetaobjectbuilder.o(t._ZN5QListIiE4freeEPN9QListData4DataE)
    QList<int>::clear()                      0x0001bebf   Thumb Code    76  qmetaobjectbuilder.o(t._ZN5QListIiE5clearEv)
    QList<int>::append(const int&)           0x0001bf15   Thumb Code    94  qmetaobjectbuilder.o(t._ZN5QListIiE6appendERKi)
    QList<int>::detach()                     0x0001bf83   Thumb Code    24  qmetaobjectbuilder.o(t._ZN5QListIiE6detachEv)
    QList<int>::reserve(int)                 0x0001bf9b   Thumb Code    46  qmetaobjectbuilder.o(t._ZN5QListIiE7reserveEi)
    QList<int>::node_copy(QList<int>::Node*, QList<int>::Node*, QList<int>::Node*) 0x0001bfc9   Thumb Code    46  qmetaobjectbuilder.o(t._ZN5QListIiE9node_copyEPNS0_4NodeES2_S2_)
    QList<int>::QList()                      0x0001bff9   Thumb Code    18  qmetaobjectbuilder.o(t._ZN5QListIiEC1Ev)
    QList<int>::QList__sub_object()          0x0001bff9   Thumb Code     0  qmetaobjectbuilder.o(t._ZN5QListIiEC1Ev)
    QList<int>::~QList()                     0x0001c011   Thumb Code    32  qmetaobjectbuilder.o(t._ZN5QListIiED1Ev)
    QList<int>::~QList__sub_object()         0x0001c011   Thumb Code     0  qmetaobjectbuilder.o(t._ZN5QListIiED1Ev)
    QList<int>::operator [](int)             0x0001c031   Thumb Code    28  qmetaobjectbuilder.o(t._ZN5QListIiEixEi)
    QQueue<QtMobility::QServicePackage>::~QQueue() 0x0001c04d   Thumb Code    14  qremoteserviceregister_s60.o(t._ZN6QQueueIN10QtMobility15QServicePackageEED1Ev)
    QQueue<QtMobility::QServicePackage>::~QQueue__sub_object() 0x0001c04d   Thumb Code     0  qremoteserviceregister_s60.o(t._ZN6QQueueIN10QtMobility15QServicePackageEED1Ev)
    QVector<QXmlStreamAttribute>::free(QVectorTypedData<QXmlStreamAttribute>*) 0x0001c05b   Thumb Code    54  servicemetadata.o(t._ZN7QVectorI19QXmlStreamAttributeE4freeEP16QVectorTypedDataIS0_E)
    QVector<QXmlStreamAttribute>::~QVector() 0x0001c091   Thumb Code    34  servicemetadata.o(t._ZN7QVectorI19QXmlStreamAttributeED1Ev)
    QVector<QXmlStreamAttribute>::~QVector__sub_object() 0x0001c091   Thumb Code     0  servicemetadata.o(t._ZN7QVectorI19QXmlStreamAttributeED1Ev)
    QVector<bool>::detach_helper()           0x0001c0b3   Thumb Code    18  proxyobject.o(t._ZN7QVectorIbE13detach_helperEv)
    QVector<bool>::fill(const bool&, int)    0x0001c0c5   Thumb Code    72  proxyobject.o(t._ZN7QVectorIbE4fillERKbi)
    QVector<bool>::free(QVectorTypedData<bool>*) 0x0001c10d   Thumb Code    24  proxyobject.o(t._ZN7QVectorIbE4freeEP16QVectorTypedDataIbE)
    QVector<bool>::malloc(int)               0x0001c125   Thumb Code    50  proxyobject.o(t._ZN7QVectorIbE6mallocEi)
    QVector<bool>::resize(int)               0x0001c157   Thumb Code    82  proxyobject.o(t._ZN7QVectorIbE6resizeEi)
    QVector<bool>::realloc(int, int)         0x0001c1a9   Thumb Code   410  proxyobject.o(t._ZN7QVectorIbE7reallocEii)
    QVector<bool>::~QVector()                0x0001c34b   Thumb Code    34  proxyobject.o(t._ZN7QVectorIbED1Ev)
    QVector<bool>::~QVector__sub_object()    0x0001c34b   Thumb Code     0  proxyobject.o(t._ZN7QVectorIbED1Ev)
    QPointer<QObject>::~QPointer()           0x0001c36d   Thumb Code    14  objectendpoint.o(t._ZN8QPointerI7QObjectED1Ev)
    QPointer<QObject>::~QPointer__sub_object() 0x0001c36d   Thumb Code     0  objectendpoint.o(t._ZN8QPointerI7QObjectED1Ev)
    QPointer<QObject>::operator =(QObject*)  0x0001c37b   Thumb Code    24  objectendpoint.o(t._ZN8QPointerI7QObjectEaSEPS0_)
    TIpcArgs::TIpcArgs<HBufC16*, TPckgBuf<int>*, TPckgBuf<int>*>(T1, T2, T3) 0x0001c393   Thumb Code    36  databasemanager_symbian.o(t._ZN8TIpcArgsC1IP7HBufC16P8TPckgBufIiES5_EET_T0_T1_)
    TIpcArgs::TIpcArgs__sub_object<HBufC16*, TPckgBuf<int>*, TPckgBuf<int>*>(T1, T2, T3) 0x0001c393   Thumb Code     0  databasemanager_symbian.o(t._ZN8TIpcArgsC1IP7HBufC16P8TPckgBufIiES5_EET_T0_T1_)
    TPckgBuf<int>::TPckgBuf(const int&)      0x0001c3b7   Thumb Code    40  databasemanager_symbian.o(t._ZN8TPckgBufIiEC1ERKi)
    TPckgBuf<int>::TPckgBuf__sub_object(const int&) 0x0001c3b7   Thumb Code     0  databasemanager_symbian.o(t._ZN8TPckgBufIiEC1ERKi)
    TPckgBuf<int>::TPckgBuf()                0x0001c3df   Thumb Code    28  databasemanager_symbian.o(t._ZN8TPckgBufIiEC1Ev)
    TPckgBuf<int>::TPckgBuf__sub_object()    0x0001c3df   Thumb Code     0  databasemanager_symbian.o(t._ZN8TPckgBufIiEC1Ev)
    QHashNode<QUuid, QObject*>::QHashNode(const QUuid&, QObject*const &) 0x0001c3fb   Thumb Code    30  instancemanager.o(t._ZN9QHashNodeI5QUuidP7QObjectEC1ERKS0_RKS2_)
    QHashNode<QUuid, QObject*>::QHashNode__sub_object(const QUuid&, QObject*const &) 0x0001c3fb   Thumb Code     0  instancemanager.o(t._ZN9QHashNodeI5QUuidP7QObjectEC1ERKS0_RKS2_)
    QHashNode<QUuid, QtMobility::Response*>::QHashNode(const QUuid&, QtMobility::Response*const &) 0x0001c419   Thumb Code    30  objectendpoint.o(t._ZN9QHashNodeI5QUuidPN10QtMobility8ResponseEEC1ERKS0_RKS3_)
    QHashNode<QUuid, QtMobility::Response*>::QHashNode__sub_object(const QUuid&, QtMobility::Response*const &) 0x0001c419   Thumb Code     0  objectendpoint.o(t._ZN9QHashNodeI5QUuidPN10QtMobility8ResponseEEC1ERKS0_RKS3_)
    QHashNode<QString, QVariant>::QHashNode(const QString&, const QVariant&) 0x0001c437   Thumb Code    40  qservicecontext.o(t._ZN9QHashNodeI7QString8QVariantEC1ERKS0_RKS1_)
    QHashNode<QString, QVariant>::QHashNode__sub_object(const QString&, const QVariant&) 0x0001c437   Thumb Code     0  qservicecontext.o(t._ZN9QHashNodeI7QString8QVariantEC1ERKS0_RKS1_)
    QHashNode<QString, QString>::QHashNode(const QString&, const QString&) 0x0001c46b   Thumb Code    40  servicemetadata.o(t._ZN9QHashNodeI7QStringS0_EC1ERKS0_S3_)
    QHashNode<QString, QString>::QHashNode__sub_object(const QString&, const QString&) 0x0001c46b   Thumb Code     0  servicemetadata.o(t._ZN9QHashNodeI7QStringS0_EC1ERKS0_S3_)
    QHashNode<QString, int>::QHashNode(const QString&, const int&) 0x0001c49f   Thumb Code    30  servicemetadata.o(t._ZN9QHashNodeI7QStringiEC1ERKS0_RKi)
    QHashNode<QString, int>::QHashNode__sub_object(const QString&, const int&) 0x0001c49f   Thumb Code     0  servicemetadata.o(t._ZN9QHashNodeI7QStringiEC1ERKS0_RKi)
    QHashNode<QtMobility::QRemoteServiceRegister::Entry, QtMobility::ServiceIdentDescriptor>::QHashNode(const QtMobility::QRemoteServiceRegister::Entry&, const QtMobility::ServiceIdentDescriptor&) 0x0001c4bd   Thumb Code    40  instancemanager.o(t._ZN9QHashNodeIN10QtMobility22QRemoteServiceRegister5EntryENS0_22ServiceIdentDescriptorEEC1ERKS2_RKS3_)
    QHashNode<QtMobility::QRemoteServiceRegister::Entry, QtMobility::ServiceIdentDescriptor>::QHashNode__sub_object(const QtMobility::QRemoteServiceRegister::Entry&, const QtMobility::ServiceIdentDescriptor&) 0x0001c4bd   Thumb Code     0  instancemanager.o(t._ZN9QHashNodeIN10QtMobility22QRemoteServiceRegister5EntryENS0_22ServiceIdentDescriptorEEC1ERKS2_RKS3_)
    QHashNode<QtMobility::QServiceInterfaceDescriptor::Attribute, QVariant>::QHashNode(const QtMobility::QServiceInterfaceDescriptor::Attribute&, const QVariant&) 0x0001c4f1   Thumb Code    30  servicemetadata.o(t._ZN9QHashNodeIN10QtMobility27QServiceInterfaceDescriptor9AttributeE8QVariantEC1ERKS2_RKS3_)
    QHashNode<QtMobility::QServiceInterfaceDescriptor::Attribute, QVariant>::QHashNode__sub_object(const QtMobility::QServiceInterfaceDescriptor::Attribute&, const QVariant&) 0x0001c4f1   Thumb Code     0  servicemetadata.o(t._ZN9QHashNodeIN10QtMobility27QServiceInterfaceDescriptor9AttributeE8QVariantEC1ERKS2_RKS3_)
    QExplicitlySharedDataPointer<QtMobility::QServicePackagePrivate>::operator bool() const 0x0001c50f   Thumb Code    16  qservicepackage.o(t._ZNK28QExplicitlySharedDataPointerIN10QtMobility22QServicePackagePrivateEEcvbEv)
    QSet<QString>::toList() const            0x0001c51f   Thumb Code   196  qservicemanager.o(t._ZNK4QSetI7QStringE6toListEv)
    QHash<QUuid, QObject*>::keys() const     0x0001c5ed   Thumb Code   114  instancemanager.o(t._ZNK5QHashI5QUuidP7QObjectE4keysEv)
    QHash<QUuid, QObject*>::findNode(const QUuid&, unsigned*) const 0x0001c66f   Thumb Code   202  instancemanager.o(t._ZNK5QHashI5QUuidP7QObjectE8findNodeERKS0_Pj)
    QHash<QUuid, QtMobility::Response*>::value(const QUuid&) const 0x0001c743   Thumb Code    40  objectendpoint.o(t._ZNK5QHashI5QUuidPN10QtMobility8ResponseEE5valueERKS0_)
    QHash<QUuid, QtMobility::Response*>::findNode(const QUuid&, unsigned*) const 0x0001c76b   Thumb Code   202  objectendpoint.o(t._ZNK5QHashI5QUuidPN10QtMobility8ResponseEE8findNodeERKS0_Pj)
    QHash<QString, QHashDummyValue>::findNode(const QString&, unsigned*) const 0x0001c83f   Thumb Code   116  servicemetadata.o(t._ZNK5QHashI7QString15QHashDummyValueE8findNodeERKS0_Pj)
    QHash<QString, QVariant>::findNode(const QString&, unsigned*) const 0x0001c8b3   Thumb Code   116  qservicecontext.o(t._ZNK5QHashI7QString8QVariantE8findNodeERKS0_Pj)
    QHash<QString, QString>::const_iterator::operator !=(const QHash<QString, QString>::const_iterator&) const 0x0001c927   Thumb Code    18  qserviceinterfacedescriptor.o(t._ZNK5QHashI7QStringS0_E14const_iteratorneERKS2_)
    QHash<QString, QString>::keys() const    0x0001c939   Thumb Code    94  qservicefilter.o(t._ZNK5QHashI7QStringS0_E4keysEv)
    QHash<QString, QString>::begin() const   0x0001c9a1   Thumb Code    44  qservicefilter.o(t._ZNK5QHashI7QStringS0_E5beginEv)
    QHash<QString, QString>::findNode(const QString&, unsigned*) const 0x0001c9cd   Thumb Code   116  servicemetadata.o(t._ZNK5QHashI7QStringS0_E8findNodeERKS0_Pj)
    QHash<QString, QString>::operator ==(const QHash<QString, QString>&) const 0x0001ca41   Thumb Code   274  qserviceinterfacedescriptor.o(t._ZNK5QHashI7QStringS0_EeqERKS1_)
    QHash<QString, int>::contains(const QString&) const 0x0001cb53   Thumb Code    32  servicemetadata.o(t._ZNK5QHashI7QStringiE8containsERKS0_)
    QHash<QString, int>::findNode(const QString&, unsigned*) const 0x0001cb73   Thumb Code   116  servicemetadata.o(t._ZNK5QHashI7QStringiE8findNodeERKS0_Pj)
    QHash<QtMobility::QRemoteServiceRegister::Entry, QtMobility::ServiceIdentDescriptor>::keys() const 0x0001cbe9   Thumb Code   114  instancemanager.o(t._ZNK5QHashIN10QtMobility22QRemoteServiceRegister5EntryENS0_22ServiceIdentDescriptorEE4keysEv)
    QHash<QtMobility::QRemoteServiceRegister::Entry, QtMobility::ServiceIdentDescriptor>::contains(const QtMobility::QRemoteServiceRegister::Entry&) const 0x0001cc6b   Thumb Code    32  instancemanager.o(t._ZNK5QHashIN10QtMobility22QRemoteServiceRegister5EntryENS0_22ServiceIdentDescriptorEE8containsERKS2_)
    QHash<QtMobility::QRemoteServiceRegister::Entry, QtMobility::ServiceIdentDescriptor>::findNode(const QtMobility::QRemoteServiceRegister::Entry&, unsigned*) const 0x0001cc8b   Thumb Code   178  instancemanager.o(t._ZNK5QHashIN10QtMobility22QRemoteServiceRegister5EntryENS0_22ServiceIdentDescriptorEE8findNodeERKS2_Pj)
    QHash<QtMobility::QRemoteServiceRegister::Entry, QtMobility::ServiceIdentDescriptor>::operator [](const QtMobility::QRemoteServiceRegister::Entry&) const 0x0001cd53   Thumb Code    62  instancemanager.o(t._ZNK5QHashIN10QtMobility22QRemoteServiceRegister5EntryENS0_22ServiceIdentDescriptorEEixERKS2_)
    QHash<QtMobility::QServiceInterfaceDescriptor::Attribute, QVariant>::const_iterator::operator !=(const QHash<QtMobility::QServiceInterfaceDescriptor::Attribute, QVariant>::const_iterator&) const 0x0001cd91   Thumb Code    18  qserviceinterfacedescriptor.o(t._ZNK5QHashIN10QtMobility27QServiceInterfaceDescriptor9AttributeE8QVariantE14const_iteratorneERKS5_)
    QHash<QtMobility::QServiceInterfaceDescriptor::Attribute, QVariant>::findNode(const QtMobility::QServiceInterfaceDescriptor::Attribute&, unsigned*) const 0x0001cda3   Thumb Code   100  servicemetadata.o(t._ZNK5QHashIN10QtMobility27QServiceInterfaceDescriptor9AttributeE8QVariantE8findNodeERKS2_Pj)
    QHash<QtMobility::QServiceInterfaceDescriptor::Attribute, QVariant>::operator ==(const QHash<QtMobility::QServiceInterfaceDescriptor::Attribute, QVariant>&) const 0x0001ce07   Thumb Code   262  qserviceinterfacedescriptor.o(t._ZNK5QHashIN10QtMobility27QServiceInterfaceDescriptor9AttributeE8QVariantEeqERKS4_)
    QList<QByteArray>::size() const          0x0001cf0d   Thumb Code    12  qmetaobjectbuilder.o(t._ZNK5QListI10QByteArrayE4sizeEv)
    QList<QMetaEnumBuilderPrivate>::size() const 0x0001cf19   Thumb Code    12  qmetaobjectbuilder.o(t._ZNK5QListI23QMetaEnumBuilderPrivateE4sizeEv)
    QList<QMetaMethodBuilderPrivate>::size() const 0x0001cf25   Thumb Code    12  qmetaobjectbuilder.o(t._ZNK5QListI25QMetaMethodBuilderPrivateE4sizeEv)
    QList<QMetaPropertyBuilderPrivate>::size() const 0x0001cf31   Thumb Code    12  qmetaobjectbuilder.o(t._ZNK5QListI27QMetaPropertyBuilderPrivateE4sizeEv)
    QList<QVariant>::size() const            0x0001cf3d   Thumb Code    16  objectendpoint.o(t._ZNK5QListI8QVariantE4sizeEv)
    QList<QVariant>::operator [](int) const  0x0001cf4d   Thumb Code    30  qslotinvoker.o(t._ZNK5QListI8QVariantEixEi)
    QList<QtMobility::QServicePackage>::isEmpty() const 0x0001cf6b   Thumb Code    24  ipcendpoint.o(t._ZNK5QListIN10QtMobility15QServicePackageEE7isEmptyEv)
    QList<QtMobility::QServiceInterfaceDescriptor>::at(int) const 0x0001cf83   Thumb Code    22  servicemetadata.o(t._ZNK5QListIN10QtMobility27QServiceInterfaceDescriptorEE2atEi)
    QList<const QMetaObject&(*)()>::size() const 0x0001cf99   Thumb Code    12  qmetaobjectbuilder.o(t._ZNK5QListIPFRK11QMetaObjectvEE4sizeEv)
    operator <<<QByteArray>(QDataStream&, const QList<T1>&) 0x0001cfa5   Thumb Code    70  qmetaobjectbuilder.o(t._ZlsI10QByteArrayER11QDataStreamS2_RK5QListIT_E)
    operator <<<QString>(QDataStream&, const QList<T1>&) 0x0001cfeb   Thumb Code    90  qservicefilter.o(t._ZlsI7QStringER11QDataStreamS2_RK5QListIT_E)
    operator <<<QString, QString>(QDataStream&, const QHash<T1, T2>&) 0x0001d045   Thumb Code   106  qservicefilter.o(t._ZlsI7QStringS0_ER11QDataStreamS2_RK5QHashIT_T0_E)
    operator <<<QVariant>(QDataStream&, const QList<T1>&) 0x0001d0af   Thumb Code    72  objectendpoint.o(t._ZlsI8QVariantER11QDataStreamS2_RK5QListIT_E)
    operator <<<QtMobility::QServiceInterfaceDescriptor::Attribute, QVariant>(QDataStream&, const QHash<T1, T2>&) 0x0001d0f7   Thumb Code   114  qserviceinterfacedescriptor.o(t._ZlsIN10QtMobility27QServiceInterfaceDescriptor9AttributeE8QVariantER11QDataStreamS5_RK5QHashIT_T0_E)
    operator <<<QtMobility::QServiceInterfaceDescriptor>(QDataStream&, const QList<T1>&) 0x0001d169   Thumb Code    80  servicemetadata.o(t._ZlsIN10QtMobility27QServiceInterfaceDescriptorEER11QDataStreamS3_RK5QListIT_E)
    operator <<<int>(QDataStream&, const QList<T1>&) 0x0001d1b9   Thumb Code    74  qmetaobjectbuilder.o(t._ZlsIiER11QDataStreamS1_RK5QListIT_E)
    operator >><QByteArray>(QDataStream&, QList<T1>&) 0x0001d203   Thumb Code    94  qmetaobjectbuilder.o(t._ZrsI10QByteArrayER11QDataStreamS2_R5QListIT_E)
    operator >><QString>(QDataStream&, QList<T1>&) 0x0001d26b   Thumb Code    94  qservicefilter.o(t._ZrsI7QStringER11QDataStreamS2_R5QListIT_E)
    operator >><QString, QString>(QDataStream&, QHash<T1, T2>&) 0x0001d2d3   Thumb Code   188  qserviceinterfacedescriptor.o(t._ZrsI7QStringS0_ER11QDataStreamS2_R5QHashIT_T0_E)
    operator >><QVariant>(QDataStream&, QList<T1>&) 0x0001d39f   Thumb Code    98  objectendpoint.o(t._ZrsI8QVariantER11QDataStreamS2_R5QListIT_E)
    operator >><QtMobility::QServiceInterfaceDescriptor::Attribute, QVariant>(QDataStream&, QHash<T1, T2>&) 0x0001d40b   Thumb Code   274  qserviceinterfacedescriptor.o(t._ZrsIN10QtMobility27QServiceInterfaceDescriptor9AttributeE8QVariantER11QDataStreamS5_R5QHashIT_T0_E)
    operator >><QtMobility::QServiceInterfaceDescriptor>(QDataStream&, QList<T1>&) 0x0001d535   Thumb Code    94  servicemetadata.o(t._ZrsIN10QtMobility27QServiceInterfaceDescriptorEER11QDataStreamS3_R5QListIT_E)
    operator >><int>(QDataStream&, QList<T1>&) 0x0001d59d   Thumb Code    74  qmetaobjectbuilder.o(t._ZrsIiER11QDataStreamS1_R5QListIT_E)
    QtMobility::QServiceManager::staticMetaObject 0x00020538   Data          16  qservicemanager.o(.constdata)
    QtMobility::QServicePluginCleanup::staticMetaObject 0x00020548   Data          16  qservicemanager.o(.constdata)
    QtMobility::QServiceManagerPrivate::staticMetaObject 0x00020558   Data          16  qservicemanager.o(.constdata)
    QtMobility::QServiceContext::staticMetaObject 0x000207f8   Data          16  qservicecontext.o(.constdata)
    QtMobility::QAbstractSecuritySession::staticMetaObject 0x0002088c   Data          16  qabstractsecuritysession.o(.constdata)
    QtMobility::QRemoteServiceRegister::staticMetaObject 0x00020938   Data          16  qremoteserviceregister.o(.constdata)
    QtMobility::DatabaseManager::staticMetaObject 0x00020b18   Data          16  databasemanager_symbian.o(.constdata)
    QtMobility::RServiceSession::staticMetaObject 0x00020c18   Data          16  qremoteserviceregister_s60.o(.constdata)
    QtMobility::QRemoteServiceRegisterSymbianPrivate::staticMetaObject 0x00020c28   Data          16  qremoteserviceregister_s60.o(.constdata)
    QtMobility::SymbianClientEndPoint::staticMetaObject 0x00020c38   Data          16  qremoteserviceregister_s60.o(.constdata)
    QtMobility::SymbianServerEndPoint::staticMetaObject 0x00020c48   Data          16  qremoteserviceregister_s60.o(.constdata)
    QtMobility::ObjectEndPoint::staticMetaObject 0x00020ee4   Data          16  objectendpoint.o(.constdata)
    QtMobility::QSlotInvoker::staticMetaObject 0x00020fb8   Data          16  qslotinvoker.o(.constdata)
    QtMobility::InstanceManager::staticMetaObject 0x000210c4   Data          16  instancemanager.o(.constdata)
    QtMobility::QServiceIpcEndPoint::staticMetaObject 0x00021220   Data          16  ipcendpoint.o(.constdata)
    QtMobility::QRemoteServiceRegisterPrivate::staticMetaObject 0x000212c8   Data          16  qremoteserviceregister_p.o(.constdata)
    stlp_priv::_Integer_limits<signed char, (signed char)-128, (signed char)127, (int)-1, (bool)1>::digits 0x00021360   Data           4  servicemetadata.o(.constdata__ZN9stlp_priv15_Integer_limitsIaLan128ELa127ELin1ELb1EE6digitsE)
    stlp_priv::_Integer_limits<bool, (bool)0, (bool)1, (int)1, (bool)0>::digits 0x00021364   Data           4  servicemetadata.o(.constdata__ZN9stlp_priv15_Integer_limitsIbLb0ELb1ELi1ELb0EE6digitsE)
    stlp_priv::_Integer_limits<char, (char)128, (char)127, (int)-1, (bool)1>::digits 0x00021368   Data           4  servicemetadata.o(.constdata__ZN9stlp_priv15_Integer_limitsIcLc128ELc127ELin1ELb1EE6digitsE)
    stlp_priv::_Integer_limits<unsigned char, (unsigned char)0, (unsigned char)255, (int)-1, (bool)1>::digits 0x0002136c   Data           4  servicemetadata.o(.constdata__ZN9stlp_priv15_Integer_limitsIhLh0ELh255ELin1ELb1EE6digitsE)
    stlp_priv::_Integer_limits<int, (int)-2147483648, (int)2147483647, (int)-1, (bool)1>::digits 0x00021370   Data           4  servicemetadata.o(.constdata__ZN9stlp_priv15_Integer_limitsIiLin2147483648ELi2147483647ELin1ELb1EE6digitsE)
    stlp_priv::_Integer_limits<int, (int)-2147483648, (int)2147483647, (int)-1, (bool)1>::is_signed 0x00021374   Data           1  servicemetadata.o(.constdata__ZN9stlp_priv15_Integer_limitsIiLin2147483648ELi2147483647ELin1ELb1EE9is_signedE)
    stlp_priv::_Integer_limits<unsigned, (unsigned)0, (unsigned)4294967295, (int)-1, (bool)1>::digits 0x00021378   Data           4  servicemetadata.o(.constdata__ZN9stlp_priv15_Integer_limitsIjLj0ELj4294967295ELin1ELb1EE6digitsE)
    stlp_priv::_Integer_limits<long, (long)-2147483648, (long)2147483647, (int)-1, (bool)1>::digits 0x0002137c   Data           4  servicemetadata.o(.constdata__ZN9stlp_priv15_Integer_limitsIlLln2147483648ELl2147483647ELin1ELb1EE6digitsE)
    stlp_priv::_Integer_limits<unsigned long, (unsigned long)0, (unsigned long)4294967295, (int)-1, (bool)1>::digits 0x00021380   Data           4  servicemetadata.o(.constdata__ZN9stlp_priv15_Integer_limitsImLm0ELm4294967295ELin1ELb1EE6digitsE)
    stlp_priv::_Integer_limits<short, (short)-32768, (short)32767, (int)-1, (bool)1>::digits 0x00021384   Data           4  servicemetadata.o(.constdata__ZN9stlp_priv15_Integer_limitsIsLsn32768ELs32767ELin1ELb1EE6digitsE)
    stlp_priv::_Integer_limits<unsigned short, (unsigned short)0, (unsigned short)65535, (int)-1, (bool)1>::digits 0x00021388   Data           4  servicemetadata.o(.constdata__ZN9stlp_priv15_Integer_limitsItLt0ELt65535ELin1ELb1EE6digitsE)
    stlp_priv::_Integer_limits<wchar_t, (wchar_t)0, (wchar_t)65535, (int)-1, (bool)1>::digits 0x0002138c   Data           4  servicemetadata.o(.constdata__ZN9stlp_priv15_Integer_limitsIwLw0ELw65535ELin1ELb1EE6digitsE)
    stlp_priv::_Integer_limits<long long, (long long)-9223372036854775808, (long long)9223372036854775807, (int)-1, (bool)1>::digits 0x00021390   Data           4  servicemetadata.o(.constdata__ZN9stlp_priv15_Integer_limitsIxLxn9223372036854775808ELx9223372036854775807ELin1ELb1EE6digitsE)
    stlp_priv::_Integer_limits<unsigned long long, (unsigned long long)0, (unsigned long long)18446744073709551615, (int)-1, (bool)1>::digits 0x00021394   Data           4  servicemetadata.o(.constdata__ZN9stlp_priv15_Integer_limitsIyLy0ELy18446744073709551615ELin1ELb1EE6digitsE)
    typeinfo for QSharedData                 0x00021398   Data           8  objectendpoint.o(.constdata__ZTI11QSharedData)
    typeinfo for RHandleBase                 0x000213a0   Data           8  qremoteserviceregister_s60.o(.constdata__ZTI11RHandleBase)
    typeinfo for RSessionBase                0x000213a8   Data          12  qremoteserviceregister_s60.o(.constdata__ZTI12RSessionBase)
    typeinfo for QMetaObjectBuilder          0x000213b4   Data           8  qmetaobjectbuilder.o(.constdata__ZTI18QMetaObjectBuilder)
    typeinfo for QtMobility::QSlotInvoker    0x000213bc   Data          12  qslotinvoker.o(.constdata__ZTIN10QtMobility12QSlotInvokerE)
    typeinfo for QtMobility::QServiceProxy   0x000213c8   Data          12  proxyobject.o(.constdata__ZTIN10QtMobility13QServiceProxyE)
    typeinfo for QtMobility::ObjectEndPoint  0x000213d4   Data          12  objectendpoint.o(.constdata__ZTIN10QtMobility14ObjectEndPointE)
    typeinfo for QtMobility::DatabaseManager 0x000213e0   Data          12  databasemanager_symbian.o(.constdata__ZTIN10QtMobility15DatabaseManagerE)
    typeinfo for QtMobility::InstanceManager 0x000213ec   Data          12  instancemanager.o(.constdata__ZTIN10QtMobility15InstanceManagerE)
    typeinfo for QtMobility::QServiceContext 0x000213f8   Data          12  qservicecontext.o(.constdata__ZTIN10QtMobility15QServiceContextE)
    typeinfo for QtMobility::QServiceManager 0x00021404   Data          12  qservicemanager.o(.constdata__ZTIN10QtMobility15QServiceManagerE)
    typeinfo for QtMobility::RServiceSession 0x00021410   Data          32  qremoteserviceregister_s60.o(.constdata__ZTIN10QtMobility15RServiceSessionE)
    typeinfo for QtMobility::QSignalIntercepter 0x00021430   Data          12  qsignalintercepter.o(.constdata__ZTIN10QtMobility18QSignalIntercepterE)
    typeinfo for QtMobility::QServiceIpcEndPoint 0x0002143c   Data          12  ipcendpoint.o(.constdata__ZTIN10QtMobility19QServiceIpcEndPointE)
    typeinfo for QtMobility::QServicePluginCleanup 0x00021448   Data          12  qservicemanager.o(.constdata__ZTIN10QtMobility21QServicePluginCleanupE)
    typeinfo for QtMobility::SymbianClientEndPoint 0x00021454   Data          12  qremoteserviceregister_s60.o(.constdata__ZTIN10QtMobility21SymbianClientEndPointE)
    typeinfo for QtMobility::SymbianServerEndPoint 0x00021460   Data          12  qremoteserviceregister_s60.o(.constdata__ZTIN10QtMobility21SymbianServerEndPointE)
    typeinfo for QtMobility::CServiceProviderServer 0x0002146c   Data          12  qremoteserviceregister_s60.o(.constdata__ZTIN10QtMobility22CServiceProviderServerE)
    typeinfo for QtMobility::QRemoteServiceRegister 0x00021478   Data          12  qremoteserviceregister.o(.constdata__ZTIN10QtMobility22QRemoteServiceRegisterE)
    typeinfo for QtMobility::QServiceManagerPrivate 0x00021484   Data          12  qservicemanager.o(.constdata__ZTIN10QtMobility22QServiceManagerPrivateE)
    typeinfo for QtMobility::QServicePackagePrivate 0x00021490   Data          24  objectendpoint.o(.constdata__ZTIN10QtMobility22QServicePackagePrivateE)
    typeinfo for QtMobility::ServiceMessageListener 0x000214a8   Data          12  qremoteserviceregister_s60.o(.constdata__ZTIN10QtMobility22ServiceMessageListenerE)
    typeinfo for QtMobility::QServicePluginInterface 0x000214b4   Data           8  qserviceplugininterface.o(.constdata__ZTIN10QtMobility23QServicePluginInterfaceE)
    typeinfo for QtMobility::QAbstractSecuritySession 0x000214bc   Data          12  qabstractsecuritysession.o(.constdata__ZTIN10QtMobility24QAbstractSecuritySessionE)
    typeinfo for QtMobility::ServiceContextClientData 0x000214c8   Data          12  qservicecontext.o(.constdata__ZTIN10QtMobility24ServiceContextClientDataE)
    typeinfo for QtMobility::ServiceSignalIntercepter 0x000214d4   Data          12  objectendpoint.o(.constdata__ZTIN10QtMobility24ServiceSignalIntercepterE)
    typeinfo for QtMobility::DatabaseManagerSignalMonitor 0x000214e0   Data          12  databasemanager_symbian.o(.constdata__ZTIN10QtMobility28DatabaseManagerSignalMonitorE)
    typeinfo for QtMobility::CServiceProviderServerSession 0x000214ec   Data          12  qremoteserviceregister_s60.o(.constdata__ZTIN10QtMobility29CServiceProviderServerSessionE)
    typeinfo for QtMobility::QRemoteServiceRegisterPrivate 0x000214f8   Data          12  qremoteserviceregister_p.o(.constdata__ZTIN10QtMobility29QRemoteServiceRegisterPrivateE)
    typeinfo for QtMobility::QRemoteServiceRegisterSymbianPrivate 0x00021504   Data          12  qremoteserviceregister_s60.o(.constdata__ZTIN10QtMobility36QRemoteServiceRegisterSymbianPrivateE)
    typeinfo name for QSharedData            0x00021510   Data          14  objectendpoint.o(.constdata__ZTS11QSharedData)
    typeinfo name for RHandleBase            0x0002151e   Data          14  qremoteserviceregister_s60.o(.constdata__ZTS11RHandleBase)
    typeinfo name for RSessionBase           0x0002152c   Data          15  qremoteserviceregister_s60.o(.constdata__ZTS12RSessionBase)
    typeinfo name for QMetaObjectBuilder     0x0002153b   Data          21  qmetaobjectbuilder.o(.constdata__ZTS18QMetaObjectBuilder)
    typeinfo name for QtMobility::QSlotInvoker 0x00021550   Data          29  qslotinvoker.o(.constdata__ZTSN10QtMobility12QSlotInvokerE)
    typeinfo name for QtMobility::QServiceProxy 0x0002156d   Data          30  proxyobject.o(.constdata__ZTSN10QtMobility13QServiceProxyE)
    typeinfo name for QtMobility::ObjectEndPoint 0x0002158b   Data          31  objectendpoint.o(.constdata__ZTSN10QtMobility14ObjectEndPointE)
    typeinfo name for QtMobility::DatabaseManager 0x000215aa   Data          32  databasemanager_symbian.o(.constdata__ZTSN10QtMobility15DatabaseManagerE)
    typeinfo name for QtMobility::InstanceManager 0x000215ca   Data          32  instancemanager.o(.constdata__ZTSN10QtMobility15InstanceManagerE)
    typeinfo name for QtMobility::QServiceContext 0x000215ea   Data          32  qservicecontext.o(.constdata__ZTSN10QtMobility15QServiceContextE)
    typeinfo name for QtMobility::QServiceManager 0x0002160a   Data          32  qservicemanager.o(.constdata__ZTSN10QtMobility15QServiceManagerE)
    typeinfo name for QtMobility::RServiceSession 0x0002162a   Data          32  qremoteserviceregister_s60.o(.constdata__ZTSN10QtMobility15RServiceSessionE)
    typeinfo name for QtMobility::QSignalIntercepter 0x0002164a   Data          35  qsignalintercepter.o(.constdata__ZTSN10QtMobility18QSignalIntercepterE)
    typeinfo name for QtMobility::QServiceIpcEndPoint 0x0002166d   Data          36  ipcendpoint.o(.constdata__ZTSN10QtMobility19QServiceIpcEndPointE)
    typeinfo name for QtMobility::QServicePluginCleanup 0x00021691   Data          38  qservicemanager.o(.constdata__ZTSN10QtMobility21QServicePluginCleanupE)
    typeinfo name for QtMobility::SymbianClientEndPoint 0x000216b7   Data          38  qremoteserviceregister_s60.o(.constdata__ZTSN10QtMobility21SymbianClientEndPointE)
    typeinfo name for QtMobility::SymbianServerEndPoint 0x000216dd   Data          38  qremoteserviceregister_s60.o(.constdata__ZTSN10QtMobility21SymbianServerEndPointE)
    typeinfo name for QtMobility::CServiceProviderServer 0x00021703   Data          39  qremoteserviceregister_s60.o(.constdata__ZTSN10QtMobility22CServiceProviderServerE)
    typeinfo name for QtMobility::QRemoteServiceRegister 0x0002172a   Data          39  qremoteserviceregister.o(.constdata__ZTSN10QtMobility22QRemoteServiceRegisterE)
    typeinfo name for QtMobility::QServiceManagerPrivate 0x00021751   Data          39  qservicemanager.o(.constdata__ZTSN10QtMobility22QServiceManagerPrivateE)
    typeinfo name for QtMobility::QServicePackagePrivate 0x00021778   Data          39  objectendpoint.o(.constdata__ZTSN10QtMobility22QServicePackagePrivateE)
    typeinfo name for QtMobility::ServiceMessageListener 0x0002179f   Data          39  qremoteserviceregister_s60.o(.constdata__ZTSN10QtMobility22ServiceMessageListenerE)
    typeinfo name for QtMobility::QServicePluginInterface 0x000217c6   Data          40  qserviceplugininterface.o(.constdata__ZTSN10QtMobility23QServicePluginInterfaceE)
    typeinfo name for QtMobility::QAbstractSecuritySession 0x000217ee   Data          41  qabstractsecuritysession.o(.constdata__ZTSN10QtMobility24QAbstractSecuritySessionE)
    typeinfo name for QtMobility::ServiceContextClientData 0x00021817   Data          41  qservicecontext.o(.constdata__ZTSN10QtMobility24ServiceContextClientDataE)
    typeinfo name for QtMobility::ServiceSignalIntercepter 0x00021840   Data          41  objectendpoint.o(.constdata__ZTSN10QtMobility24ServiceSignalIntercepterE)
    typeinfo name for QtMobility::DatabaseManagerSignalMonitor 0x00021869   Data          45  databasemanager_symbian.o(.constdata__ZTSN10QtMobility28DatabaseManagerSignalMonitorE)
    typeinfo name for QtMobility::CServiceProviderServerSession 0x00021896   Data          46  qremoteserviceregister_s60.o(.constdata__ZTSN10QtMobility29CServiceProviderServerSessionE)
    typeinfo name for QtMobility::QRemoteServiceRegisterPrivate 0x000218c4   Data          46  qremoteserviceregister_p.o(.constdata__ZTSN10QtMobility29QRemoteServiceRegisterPrivateE)
    typeinfo name for QtMobility::QRemoteServiceRegisterSymbianPrivate 0x000218f2   Data          53  qremoteserviceregister_s60.o(.constdata__ZTSN10QtMobility36QRemoteServiceRegisterSymbianPrivateE)
    vtable for QMetaObjectBuilder            0x00021928   Data          16  qmetaobjectbuilder.o(.constdata__ZTV18QMetaObjectBuilder)
    vtable for QtMobility::QSlotInvoker      0x00021938   Data          56  qslotinvoker.o(.constdata__ZTVN10QtMobility12QSlotInvokerE)
    vtable for QtMobility::QServiceProxy     0x00021970   Data          56  proxyobject.o(.constdata__ZTVN10QtMobility13QServiceProxyE)
    vtable for QtMobility::ObjectEndPoint    0x000219a8   Data          56  objectendpoint.o(.constdata__ZTVN10QtMobility14ObjectEndPointE)
    vtable for QtMobility::DatabaseManager   0x000219e0   Data          56  databasemanager_symbian.o(.constdata__ZTVN10QtMobility15DatabaseManagerE)
    vtable for QtMobility::InstanceManager   0x00021a18   Data          56  instancemanager.o(.constdata__ZTVN10QtMobility15InstanceManagerE)
    vtable for QtMobility::QServiceContext   0x00021a50   Data          60  qservicecontext.o(.constdata__ZTVN10QtMobility15QServiceContextE)
    vtable for QtMobility::QServiceManager   0x00021a8c   Data          56  qservicemanager.o(.constdata__ZTVN10QtMobility15QServiceManagerE)
    vtable for QtMobility::RServiceSession   0x00021ac4   Data          56  qremoteserviceregister_s60.o(.constdata__ZTVN10QtMobility15RServiceSessionE)
    vtable for QtMobility::QSignalIntercepter 0x00021afc   Data          60  qsignalintercepter.o(.constdata__ZTVN10QtMobility18QSignalIntercepterE)
    vtable for QtMobility::QServiceIpcEndPoint 0x00021b38   Data          60  ipcendpoint.o(.constdata__ZTVN10QtMobility19QServiceIpcEndPointE)
    vtable for QtMobility::QServicePluginCleanup 0x00021b74   Data          56  qservicemanager.o(.constdata__ZTVN10QtMobility21QServicePluginCleanupE)
    vtable for QtMobility::SymbianClientEndPoint 0x00021bac   Data          60  qremoteserviceregister_s60.o(.constdata__ZTVN10QtMobility21SymbianClientEndPointE)
    vtable for QtMobility::SymbianServerEndPoint 0x00021be8   Data          60  qremoteserviceregister_s60.o(.constdata__ZTVN10QtMobility21SymbianServerEndPointE)
    vtable for QtMobility::CServiceProviderServer 0x00021c24   Data          48  qremoteserviceregister_s60.o(.constdata__ZTVN10QtMobility22CServiceProviderServerE)
    vtable for QtMobility::QRemoteServiceRegister 0x00021c54   Data          56  qremoteserviceregister.o(.constdata__ZTVN10QtMobility22QRemoteServiceRegisterE)
    vtable for QtMobility::QServiceManagerPrivate 0x00021c8c   Data          56  qservicemanager.o(.constdata__ZTVN10QtMobility22QServiceManagerPrivateE)
    vtable for QtMobility::QServicePackagePrivate 0x00021cc4   Data          12  objectendpoint.o(.constdata__ZTVN10QtMobility22QServicePackagePrivateE)
    vtable for QtMobility::ServiceMessageListener 0x00021cd0   Data          32  qremoteserviceregister_s60.o(.constdata__ZTVN10QtMobility22ServiceMessageListenerE)
    vtable for QtMobility::QServicePluginInterface 0x00021cf0   Data          28  qserviceplugininterface.o(.constdata__ZTVN10QtMobility23QServicePluginInterfaceE)
    vtable for QtMobility::QAbstractSecuritySession 0x00021d0c   Data          60  qabstractsecuritysession.o(.constdata__ZTVN10QtMobility24QAbstractSecuritySessionE)
    vtable for QtMobility::ServiceContextClientData 0x00021d48   Data          16  qservicecontext.o(.constdata__ZTVN10QtMobility24ServiceContextClientDataE)
    vtable for QtMobility::ServiceSignalIntercepter 0x00021d58   Data          60  objectendpoint.o(.constdata__ZTVN10QtMobility24ServiceSignalIntercepterE)
    vtable for QtMobility::DatabaseManagerSignalMonitor 0x00021d94   Data          32  databasemanager_symbian.o(.constdata__ZTVN10QtMobility28DatabaseManagerSignalMonitorE)
    vtable for QtMobility::CServiceProviderServerSession 0x00021db4   Data          40  qremoteserviceregister_s60.o(.constdata__ZTVN10QtMobility29CServiceProviderServerSessionE)
    vtable for QtMobility::QRemoteServiceRegisterPrivate 0x00021ddc   Data          76  qremoteserviceregister_p.o(.constdata__ZTVN10QtMobility29QRemoteServiceRegisterPrivateE)
    vtable for QtMobility::QRemoteServiceRegisterSymbianPrivate 0x00021e28   Data          76  qremoteserviceregister_s60.o(.constdata__ZTVN10QtMobility36QRemoteServiceRegisterSymbianPrivateE)
    .ARM.exidx$$Base                         0x00021e74   Number         0  ucppinit.o(.ARM.exidx)
    .ARM.exidx$$Limit                        0x00023774   Number         0  qmetaobjectbuilder.o(.ARM.exidx)
    Image$$ER_RO$$Limit                      0x00023774   Number         0  anon$$obj.o(linker$$defined$$symbols)
    __dso_handle                             0x00400020   Data           4  ucppfini.o(.data)
    std::_Atomic_swap_struct<(int)1>::_S_swap_lock 0x00400024   Data          12  servicemetadata.o(.data__ZNSt19_Atomic_swap_structILi1EE12_S_swap_lockE)
    dtor_rec                                 0x00400030   Data        2048  ucppfini.o(.bss)

