ARM Linker, RVCT2.2 [Build 686]

================================================================================

Image Symbol Table

    Local Symbols

    Symbol Name                              Value     Ov Type        Size  Object(Section)

    ../../unhosted.s                         0x00000000   Number         0  switch8.o ABSOLUTE
    M:\\epoc32\\build\\euser\\c_e18a23aea4fd210f\\edll_lib\\armv5\\udeb\\uc_dll_.cpp 0x00000000   Number         0  uc_dll_.o ABSOLUTE
    M:\\sf\\os\\kernelhwsrv\\kernel\\eka\\compsupp\\rvct\\ucppinit.cpp 0x00000000   Number         0  ucppinit.o ABSOLUTE
    M:\epoc32\build\euser\c_e18a23aea4fd210f\edll_lib\armv5\udeb\uc_dll_.cpp 0x00000000   Number         0  uc_dll_.o ABSOLUTE
    M:\sf\os\kernelhwsrv\kernel\eka\compsupp\rvct\dllexp.cpp 0x00000000   Number         0  dllexp.o ABSOLUTE
    M:\sf\os\kernelhwsrv\kernel\eka\compsupp\rvct\ucppfini.cpp 0x00000000   Number         0  ucppfini.o ABSOLUTE
    M:\sf\os\kernelhwsrv\kernel\eka\compsupp\rvct\ucppinit.cpp 0x00000000   Number         0  ucppinit.o ABSOLUTE
    M:\sf\os\kernelhwsrv\kernel\eka\euser\epoc\arm\uc_dll.cpp 0x00000000   Number         0  uc_dll.o ABSOLUTE
    S:\sf\mw\qt\src\sql\drivers\sqlite\qsql_sqlite.cpp 0x00000000   Number         0  qsql_sqlite.o ABSOLUTE
    S:\sf\mw\qt\src\sql\kernel\qsqlcachedresult.cpp 0x00000000   Number         0  qsqlcachedresult.o ABSOLUTE
    S:\sf\mw\qt\src\sql\kernel\qsqldatabase.cpp 0x00000000   Number         0  qsqldatabase.o ABSOLUTE
    S:\sf\mw\qt\src\sql\kernel\qsqldriver.cpp 0x00000000   Number         0  qsqldriver.o ABSOLUTE
    S:\sf\mw\qt\src\sql\kernel\qsqldriverplugin.cpp 0x00000000   Number         0  qsqldriverplugin.o ABSOLUTE
    S:\sf\mw\qt\src\sql\kernel\qsqlerror.cpp 0x00000000   Number         0  qsqlerror.o ABSOLUTE
    S:\sf\mw\qt\src\sql\kernel\qsqlfield.cpp 0x00000000   Number         0  qsqlfield.o ABSOLUTE
    S:\sf\mw\qt\src\sql\kernel\qsqlindex.cpp 0x00000000   Number         0  qsqlindex.o ABSOLUTE
    S:\sf\mw\qt\src\sql\kernel\qsqlquery.cpp 0x00000000   Number         0  qsqlquery.o ABSOLUTE
    S:\sf\mw\qt\src\sql\kernel\qsqlrecord.cpp 0x00000000   Number         0  qsqlrecord.o ABSOLUTE
    S:\sf\mw\qt\src\sql\kernel\qsqlresult.cpp 0x00000000   Number         0  qsqlresult.o ABSOLUTE
    S:\sf\mw\qt\src\sql\models\qsqlquerymodel.cpp 0x00000000   Number         0  qsqlquerymodel.o ABSOLUTE
    S:\sf\mw\qt\src\sql\models\qsqlrelationaldelegate.cpp 0x00000000   Number         0  qsqlrelationaldelegate.o ABSOLUTE
    S:\sf\mw\qt\src\sql\models\qsqlrelationaltablemodel.cpp 0x00000000   Number         0  qsqlrelationaltablemodel.o ABSOLUTE
    S:\sf\mw\qt\src\sql\models\qsqltablemodel.cpp 0x00000000   Number         0  qsqltablemodel.o ABSOLUTE
    S:\sf\mw\qt\src\sql\tmp\moc\debug_shared\moc_qsql_sqlite.cpp 0x00000000   Number         0  moc_qsql_sqlite.o ABSOLUTE
    S:\sf\mw\qt\src\sql\tmp\moc\debug_shared\moc_qsqldriver.cpp 0x00000000   Number         0  moc_qsqldriver.o ABSOLUTE
    S:\sf\mw\qt\src\sql\tmp\moc\debug_shared\moc_qsqldriverplugin.cpp 0x00000000   Number         0  moc_qsqldriverplugin.o ABSOLUTE
    S:\sf\mw\qt\src\sql\tmp\moc\debug_shared\moc_qsqlquerymodel.cpp 0x00000000   Number         0  moc_qsqlquerymodel.o ABSOLUTE
    S:\sf\mw\qt\src\sql\tmp\moc\debug_shared\moc_qsqlrelationaltablemodel.cpp 0x00000000   Number         0  moc_qsqlrelationaltablemodel.o ABSOLUTE
    S:\sf\mw\qt\src\sql\tmp\moc\debug_shared\moc_qsqltablemodel.cpp 0x00000000   Number         0  moc_qsqltablemodel.o ABSOLUTE
    .emb_text                                0x00008000   Section       40  uc_dll_.o(.emb_text)
    Symbian$$eit_base                        0x00008014   Data           4  uc_dll_.o(.emb_text)
    Symbian$$eit_limit                       0x00008018   Data           4  uc_dll_.o(.emb_text)
    Symbian$$code_seg_base                   0x0000801c   Data           4  uc_dll_.o(.emb_text)
    Symbian$$code_seg_limit                  0x00008020   Data           4  uc_dll_.o(.emb_text)
    Symbian$$reserved                        0x00008024   Data           4  uc_dll_.o(.emb_text)
    .emb_text                                0x00008028   Section       52  ucppinit.o(.emb_text)
    loop                                     0x0000803c   ARM Code       0  ucppinit.o(.emb_text)
    ret                                      0x00008044   ARM Code       0  ucppinit.o(.emb_text)
    base                                     0x00008054   Data           0  ucppinit.o(.emb_text)
    limit                                    0x00008058   Data           0  ucppinit.o(.emb_text)
    _q_escapeIdentifier(const QString&)      0x000086f5   Thumb Code   328  qsql_sqlite.o(.text)
    .text                                    0x000086f4   Section     7500  qsql_sqlite.o(.text)
    qGetColumnType(const QString&)           0x0000883d   Thumb Code   164  qsql_sqlite.o(.text)
    qMakeError(sqlite3*, const QString&, QSqlError::ErrorType, int) 0x000088e1   Thumb Code    54  qsql_sqlite.o(.text)
    qGetTableInfo(QSqlQuery&, const QString&, bool) 0x00008917   Thumb Code   558  qsql_sqlite.o(.text)
    |L1.2336|                                0x00009014   Data           0  qsql_sqlite.o(.text)
    |L1.2352|                                0x00009024   Data           0  qsql_sqlite.o(.text)
    nullDriver()                             0x0000a441   Thumb Code   162  qsqlquery.o(.text)
    .text                                    0x0000a440   Section     4164  qsqlquery.o(.text)
    nullResult()                             0x0000a4e3   Thumb Code   180  qsqlquery.o(.text)
    nullQueryPrivate()                       0x0000a5e1   Thumb Code   178  qsqlquery.o(.text)
    qInit(QSqlQuery*, const QString&, QSqlDatabase) 0x0000a8cf   Thumb Code   158  qsqlquery.o(.text)
    |L1.2232|                                0x0000acf8   Data           0  qsqlquery.o(.text)
    loader()                                 0x0000b485   Thumb Code   204  qsqldatabase.o(.text)
    .text                                    0x0000b484   Section     5068  qsqldatabase.o(.text)
    dbDict()                                 0x0000b673   Thumb Code   188  qsqldatabase.o(.text)
    |L1.1040|                                0x0000b894   Data           0  qsqldatabase.o(.text)
    |L1.1116|                                0x0000b8e0   Data           0  qsqldatabase.o(.text)
    |L1.1160|                                0x0000b90c   Data           0  qsqldatabase.o(.text)
    cleanDriverDict()                        0x0000b98f   Thumb Code   136  qsqldatabase.o(.text)
    .text                                    0x0000c850   Section     1522  qsqlfield.o(.text)
    .text                                    0x0000ce44   Section     1832  qsqlrecord.o(.text)
    .text                                    0x0000d56c   Section     5312  qsqldriver.o(.text)
    prepareIdentifier(const QString&, QSqlDriver::IdentifierType, const QSqlDriver*) 0x0000d659   Thumb Code    88  qsqldriver.o(.text)
    |L1.1052|                                0x0000d988   Data           0  qsqldriver.o(.text)
    |L1.1068|                                0x0000d998   Data           0  qsqldriver.o(.text)
    |L1.1076|                                0x0000d9a0   Data           0  qsqldriver.o(.text)
    |L1.2352|                                0x0000de9c   Data           0  qsqldriver.o(.text)
    |L1.2508|                                0x0000df38   Data           0  qsqldriver.o(.text)
    |L1.2540|                                0x0000df58   Data           0  qsqldriver.o(.text)
    |L1.2544|                                0x0000df5c   Data           0  qsqldriver.o(.text)
    |L1.2560|                                0x0000df6c   Data           0  qsqldriver.o(.text)
    .text                                    0x0000ea2c   Section      120  qsqldriverplugin.o(.text)
    .text                                    0x0000eaa4   Section      620  qsqlerror.o(.text)
    qFieldSerial(int)                        0x0000ed11   Thumb Code    78  qsqlresult.o(.text)
    .text                                    0x0000ed10   Section     3596  qsqlresult.o(.text)
    qIsAlnum(QChar)                          0x0000ed5f   Thumb Code    40  qsqlresult.o(.text)
    .text                                    0x0000fb1c   Section     1080  qsqlindex.o(.text)
    .text                                    0x0000ff54   Section     1416  qsqlcachedresult.o(.text)
    .text                                    0x000104dc   Section     4048  qsqlquerymodel.o(.text)
    .text                                    0x000114ac   Section    10412  qsqltablemodel.o(.text)
    |L1.1068|                                0x000118d8   Data           0  qsqltablemodel.o(.text)
    |L1.6180|                                0x00012cd0   Data           0  qsqltablemodel.o(.text)
    |L1.7892|                                0x00013380   Data           0  qsqltablemodel.o(.text)
    qAppendWhereClause(QString&, const QString&, const QString&) 0x00013d59   Thumb Code   144  qsqlrelationaltablemodel.o(.text)
    .text                                    0x00013d58   Section     5458  qsqlrelationaltablemodel.o(.text)
    |L1.1008|                                0x00014148   Data           0  qsqlrelationaltablemodel.o(.text)
    .text                                    0x000152ac   Section      388  moc_qsqldriver.o(.text)
    .text                                    0x00015430   Section      280  moc_qsqldriverplugin.o(.text)
    .text                                    0x00015548   Section      120  moc_qsql_sqlite.o(.text)
    .text                                    0x000155c0   Section      120  moc_qsqlquerymodel.o(.text)
    .text                                    0x00015638   Section      404  moc_qsqltablemodel.o(.text)
    .text                                    0x000157cc   Section      148  moc_qsqlrelationaltablemodel.o(.text)
    .text                                    0x00015860   Section       24  switch8.o(.text)
    .text                                    0x00015878   Section       80  uc_dll.o(.text)
    .text                                    0x000158c8   Section      180  ucppfini.o(.text)
    .text                                    0x0001597c   Section        4  dllexp.o(.text)
    .text.clean                              0x00015980   Section      936  qsql_sqlite.o(.text.clean)
    .text.clean                              0x00015d28   Section      328  qsqlquery.o(.text.clean)
    .text.clean                              0x00015e70   Section      656  qsqldatabase.o(.text.clean)
    .text.clean                              0x00016100   Section      100  qsqlfield.o(.text.clean)
    .text.clean                              0x00016164   Section      190  qsqlrecord.o(.text.clean)
    .text.clean                              0x00016222   Section      456  qsqldriver.o(.text.clean)
    .text.clean                              0x000163ea   Section        8  qsqldriverplugin.o(.text.clean)
    .text.clean                              0x000163f2   Section       56  qsqlerror.o(.text.clean)
    .text.clean                              0x0001642a   Section      206  qsqlresult.o(.text.clean)
    .text.clean                              0x000164f8   Section      154  qsqlindex.o(.text.clean)
    .text.clean                              0x00016592   Section       30  qsqlcachedresult.o(.text.clean)
    .text.clean                              0x000165b0   Section      384  qsqlquerymodel.o(.text.clean)
    .text.clean                              0x00016730   Section     1026  qsqltablemodel.o(.text.clean)
    .text.clean                              0x00016b32   Section      822  qsqlrelationaltablemodel.o(.text.clean)
    .text.clean                              0x00016e68   Section       18  moc_qsqldriver.o(.text.clean)
    i._ZN10QByteArray4dataEv                 0x00016e7a   Section       44  qsqldatabase.o(i._ZN10QByteArray4dataEv)
    i._ZN10QByteArrayD1Ev                    0x00016ea6   Section       24  qsql_sqlite.o(i._ZN10QByteArrayD1Ev)
    i._ZN11QModelIndexC1ERKS_                0x00016ebe   Section       18  qsqltablemodel.o(i._ZN11QModelIndexC1ERKS_)
    i._ZN11QModelIndexC1Ev                   0x00016ed0   Section       16  qsqlquerymodel.o(i._ZN11QModelIndexC1Ev)
    i._ZN11QModelIndexD1Ev                   0x00016ee0   Section        8  qsqlquerymodel.o(i._ZN11QModelIndexD1Ev)
    i._ZN11QReadLockerC1EP14QReadWriteLock   0x00016ee8   Section      132  qsqldatabase.o(i._ZN11QReadLockerC1EP14QReadWriteLock)
    i._ZN11QReadLockerD1Ev                   0x00016f6c   Section       48  qsqldatabase.o(i._ZN11QReadLockerD1Ev)
    i._ZN11QStringListC1Ev                   0x00016f9c   Section       24  qsqldriver.o(i._ZN11QStringListC1Ev)
    i._ZN11QStringListD1Ev                   0x00016fb4   Section       14  qsql_sqlite.o(i._ZN11QStringListD1Ev)
    i._ZN12QSqlRelationC1ERKS_               0x00016fc2   Section       46  qsqlrelationaltablemodel.o(i._ZN12QSqlRelationC1ERKS_)
    i._ZN12QSqlRelationC1ERKS_.clean         0x00016ff0   Section       18  qsqlrelationaltablemodel.o(i._ZN12QSqlRelationC1ERKS_.clean)
    i._ZN12QSqlRelationD1Ev                  0x00017002   Section       34  qsqlrelationaltablemodel.o(i._ZN12QSqlRelationD1Ev)
    i._ZN12QSqlRelationD1Ev.clean            0x00017024   Section       18  qsqlrelationaltablemodel.o(i._ZN12QSqlRelationD1Ev.clean)
    i._ZN12QSqlRelationaSERKS_               0x00017036   Section       38  qsqlrelationaltablemodel.o(i._ZN12QSqlRelationaSERKS_)
    i._ZN12QWriteLockerC1EP14QReadWriteLock  0x0001705c   Section      136  qsqldatabase.o(i._ZN12QWriteLockerC1EP14QReadWriteLock)
    i._ZN12QWriteLockerD1Ev                  0x000170e4   Section       48  qsqldatabase.o(i._ZN12QWriteLockerD1Ev)
    i._ZN13QConcatenableI11QLatin1CharE8appendToES0_RP5QChar 0x00017114   Section       30  qsqldriver.o(i._ZN13QConcatenableI11QLatin1CharE8appendToES0_RP5QChar)
    i._ZN13QConcatenableI13QLatin1StringE4sizeERKS0_ 0x00017132   Section       26  qsql_sqlite.o(i._ZN13QConcatenableI13QLatin1StringE4sizeERKS0_)
    i._ZN13QConcatenableI13QLatin1StringE8appendToERKS0_RP5QChar 0x0001714c   Section       52  qsql_sqlite.o(i._ZN13QConcatenableI13QLatin1StringE8appendToERKS0_RP5QChar)
    i._ZN13QConcatenableI7QStringE8appendToERKS0_RP5QChar 0x00017180   Section       42  qsql_sqlite.o(i._ZN13QConcatenableI7QStringE8appendToERKS0_RP5QChar)
    i._ZN13QSQLiteDriver2trEPKcS1_           0x000171ac   Section       28  qsql_sqlite.o(i._ZN13QSQLiteDriver2trEPKcS1_)
    i._ZN14QSqlNullDriver12setLastErrorERK9QSqlError 0x000171c8   Section        2  qsqlquery.o(i._ZN14QSqlNullDriver12setLastErrorERK9QSqlError)
    i._ZN14QSqlNullDriver12setOpenErrorEb    0x000171ca   Section        2  qsqlquery.o(i._ZN14QSqlNullDriver12setOpenErrorEb)
    i._ZN14QSqlNullDriver4openERK7QStringS2_S2_S2_iS2_ 0x000171cc   Section       12  qsqlquery.o(i._ZN14QSqlNullDriver4openERK7QStringS2_S2_S2_iS2_)
    i._ZN14QSqlNullDriver5closeEv            0x000171d8   Section        2  qsqlquery.o(i._ZN14QSqlNullDriver5closeEv)
    i._ZN14QSqlNullDriver7setOpenEb          0x000171da   Section        2  qsqlquery.o(i._ZN14QSqlNullDriver7setOpenEb)
    i._ZN14QSqlNullDriverC1Ev                0x000171dc   Section      128  qsqlquery.o(i._ZN14QSqlNullDriverC1Ev)
    i._ZN14QSqlNullDriverC1Ev.clean          0x0001725c   Section       28  qsqlquery.o(i._ZN14QSqlNullDriverC1Ev.clean)
    i._ZN14QSqlNullDriverD0Ev                0x00017278   Section       24  qsqlquery.o(i._ZN14QSqlNullDriverD0Ev)
    i._ZN14QSqlNullDriverD1Ev                0x00017290   Section       14  qsqlquery.o(i._ZN14QSqlNullDriverD1Ev)
    i._ZN14QSqlNullResult10fetchFirstEv      0x0001729e   Section        6  qsqlquery.o(i._ZN14QSqlNullResult10fetchFirstEv)
    i._ZN14QSqlNullResult11savePrepareERK7QString 0x000172a4   Section        6  qsqlquery.o(i._ZN14QSqlNullResult11savePrepareERK7QString)
    i._ZN14QSqlNullResult12setLastErrorERK9QSqlError 0x000172aa   Section        2  qsqlquery.o(i._ZN14QSqlNullResult12setLastErrorERK9QSqlError)
    i._ZN14QSqlNullResult14setForwardOnlyEb  0x000172ac   Section        2  qsqlquery.o(i._ZN14QSqlNullResult14setForwardOnlyEb)
    i._ZN14QSqlNullResult15numRowsAffectedEv 0x000172ae   Section        6  qsqlquery.o(i._ZN14QSqlNullResult15numRowsAffectedEv)
    i._ZN14QSqlNullResult4dataEi             0x000172b4   Section       18  qsqlquery.o(i._ZN14QSqlNullResult4dataEi)
    i._ZN14QSqlNullResult4execEv             0x000172c6   Section        6  qsqlquery.o(i._ZN14QSqlNullResult4execEv)
    i._ZN14QSqlNullResult4sizeEv             0x000172cc   Section        8  qsqlquery.o(i._ZN14QSqlNullResult4sizeEv)
    i._ZN14QSqlNullResult5fetchEi            0x000172d4   Section        6  qsqlquery.o(i._ZN14QSqlNullResult5fetchEi)
    i._ZN14QSqlNullResult5resetERK7QString   0x000172da   Section        6  qsqlquery.o(i._ZN14QSqlNullResult5resetERK7QString)
    i._ZN14QSqlNullResult5setAtEi            0x000172e0   Section        2  qsqlquery.o(i._ZN14QSqlNullResult5setAtEi)
    i._ZN14QSqlNullResult6isNullEi           0x000172e2   Section        6  qsqlquery.o(i._ZN14QSqlNullResult6isNullEi)
    i._ZN14QSqlNullResult7prepareERK7QString 0x000172e8   Section        6  qsqlquery.o(i._ZN14QSqlNullResult7prepareERK7QString)
    i._ZN14QSqlNullResult8setQueryERK7QString 0x000172ee   Section        2  qsqlquery.o(i._ZN14QSqlNullResult8setQueryERK7QString)
    i._ZN14QSqlNullResult9bindValueERK7QStringRK8QVariant6QFlagsIN4QSql13ParamTypeFlagEE 0x000172f0   Section        2  qsqlquery.o(i._ZN14QSqlNullResult9bindValueERK7QStringRK8QVariant6QFlagsIN4QSql13ParamTypeFlagEE)
    i._ZN14QSqlNullResult9bindValueEiRK8QVariant6QFlagsIN4QSql13ParamTypeFlagEE 0x000172f2   Section        2  qsqlquery.o(i._ZN14QSqlNullResult9bindValueEiRK8QVariant6QFlagsIN4QSql13ParamTypeFlagEE)
    i._ZN14QSqlNullResult9fetchLastEv        0x000172f4   Section        6  qsqlquery.o(i._ZN14QSqlNullResult9fetchLastEv)
    i._ZN14QSqlNullResult9setActiveEb        0x000172fa   Section        2  qsqlquery.o(i._ZN14QSqlNullResult9setActiveEb)
    i._ZN14QSqlNullResult9setSelectEb        0x000172fc   Section        2  qsqlquery.o(i._ZN14QSqlNullResult9setSelectEb)
    i._ZN14QSqlNullResultC1EPK10QSqlDriver   0x00017300   Section      128  qsqlquery.o(i._ZN14QSqlNullResultC1EPK10QSqlDriver)
    i._ZN14QSqlNullResultC1EPK10QSqlDriver.clean 0x00017380   Section       28  qsqlquery.o(i._ZN14QSqlNullResultC1EPK10QSqlDriver.clean)
    i._ZN14QSqlNullResultD0Ev                0x0001739c   Section       24  qsqlquery.o(i._ZN14QSqlNullResultD0Ev)
    i._ZN14QSqlNullResultD1Ev                0x000173b4   Section       14  qsqlquery.o(i._ZN14QSqlNullResultD1Ev)
    i._ZN15QBasicAtomicInt3refEv             0x000173c2   Section       24  qsql_sqlite.o(i._ZN15QBasicAtomicInt3refEv)
    i._ZN15QBasicAtomicInt5derefEv           0x000173da   Section       24  qsql_sqlite.o(i._ZN15QBasicAtomicInt5derefEv)
    i._ZN15QConnectionDictD1Ev               0x000173f2   Section       22  qsqldatabase.o(i._ZN15QConnectionDictD1Ev)
    i._ZN15QConnectionDictD1Ev.clean         0x00017408   Section       10  qsqldatabase.o(i._ZN15QConnectionDictD1Ev.clean)
    i._ZN15QtSharedPointer20ExternalRefCountData7destroyEv 0x00017412   Section        6  qsqldriver.o(i._ZN15QtSharedPointer20ExternalRefCountData7destroyEv)
    i._ZN15QtSharedPointer20ExternalRefCountDataD0Ev 0x00017418   Section       22  qsqldriver.o(i._ZN15QtSharedPointer20ExternalRefCountDataD0Ev)
    i._ZN15QtSharedPointer20ExternalRefCountDataD1Ev 0x00017430   Section      108  qsqldriver.o(i._ZN15QtSharedPointer20ExternalRefCountDataD1Ev)
    i._ZN16QSqlFieldPrivateD1Ev              0x0001749c   Section       28  qsqlfield.o(i._ZN16QSqlFieldPrivateD1Ev)
    i._ZN16QSqlFieldPrivateD1Ev.clean        0x000174b8   Section       10  qsqlfield.o(i._ZN16QSqlFieldPrivateD1Ev.clean)
    i._ZN17QFactoryInterfaceD0Ev             0x000174c2   Section       18  qsqldriverplugin.o(i._ZN17QFactoryInterfaceD0Ev)
    i._ZN17QFactoryInterfaceD2Ev             0x000174d4   Section        2  qsqldriverplugin.o(i._ZN17QFactoryInterfaceD2Ev)
    i._ZN17QForeachContainerI11QStringListED1Ev 0x000174d6   Section       14  qsql_sqlite.o(i._ZN17QForeachContainerI11QStringListED1Ev)
    i._ZN17QSqlDriverPrivateC1Ev             0x000174e4   Section      104  qsqldriver.o(i._ZN17QSqlDriverPrivateC1Ev)
    i._ZN17QSqlDriverPrivateC1Ev.clean       0x0001754c   Section       22  qsqldriver.o(i._ZN17QSqlDriverPrivateC1Ev.clean)
    i._ZN17QSqlRecordPrivate8containsEi      0x00017562   Section       24  qsqlrecord.o(i._ZN17QSqlRecordPrivate8containsEi)
    i._ZN17QSqlResultPrivate10clearIndexEv   0x0001757a   Section      196  qsqlresult.o(i._ZN17QSqlResultPrivate10clearIndexEv)
    i._ZN17QSqlResultPrivate10clearIndexEv.clean 0x0001763e   Section       30  qsqlresult.o(i._ZN17QSqlResultPrivate10clearIndexEv.clean)
    i._ZN17QSqlResultPrivate5clearEv         0x0001765c   Section       46  qsqlresult.o(i._ZN17QSqlResultPrivate5clearEv)
    i._ZN17QSqlResultPrivate5clearEv.clean   0x0001768a   Section       10  qsqlresult.o(i._ZN17QSqlResultPrivate5clearEv.clean)
    i._ZN17QSqlResultPrivateC1EP10QSqlResult 0x00017694   Section      166  qsqlresult.o(i._ZN17QSqlResultPrivateC1EP10QSqlResult)
    i._ZN17QSqlResultPrivateC1EP10QSqlResult.clean 0x0001773a   Section       86  qsqlresult.o(i._ZN17QSqlResultPrivateC1EP10QSqlResult.clean)
    i._ZN17QSqlResultPrivateD1Ev             0x00017790   Section       92  qsqlresult.o(i._ZN17QSqlResultPrivateD1Ev)
    i._ZN17QSqlResultPrivateD1Ev.clean       0x000177ec   Section       72  qsqlresult.o(i._ZN17QSqlResultPrivateD1Ev.clean)
    i._ZN19QSqlDatabasePrivateC1EP12QSqlDatabaseP10QSqlDriver 0x00017834   Section      146  qsqldatabase.o(i._ZN19QSqlDatabasePrivateC1EP12QSqlDatabaseP10QSqlDriver)
    i._ZN19QSqlDatabasePrivateC1EP12QSqlDatabaseP10QSqlDriver.clean 0x000178c6   Section       84  qsqldatabase.o(i._ZN19QSqlDatabasePrivateC1EP12QSqlDatabaseP10QSqlDriver.clean)
    i._ZN21QSqlQueryModelPrivateC1Ev         0x0001791c   Section      228  qsqlquerymodel.o(i._ZN21QSqlQueryModelPrivateC1Ev)
    i._ZN21QSqlQueryModelPrivateC1Ev.clean   0x00017a00   Section       98  qsqlquerymodel.o(i._ZN21QSqlQueryModelPrivateC1Ev.clean)
    i._ZN21QSqlTableModelPrivate11ModifiedRowC1ENS_2OpERK10QSqlRecord 0x00017a62   Section       36  qsqltablemodel.o(i._ZN21QSqlTableModelPrivate11ModifiedRowC1ENS_2OpERK10QSqlRecord)
    i._ZN21QSqlTableModelPrivate11ModifiedRowC1ENS_2OpERK10QSqlRecord.clean 0x00017a86   Section       10  qsqltablemodel.o(i._ZN21QSqlTableModelPrivate11ModifiedRowC1ENS_2OpERK10QSqlRecord.clean)
    i._ZN21QSqlTableModelPrivate11ModifiedRowC1ERKS0_ 0x00017a90   Section       40  qsqltablemodel.o(i._ZN21QSqlTableModelPrivate11ModifiedRowC1ERKS0_)
    i._ZN21QSqlTableModelPrivate11ModifiedRowC1ERKS0_.clean 0x00017ab8   Section       10  qsqltablemodel.o(i._ZN21QSqlTableModelPrivate11ModifiedRowC1ERKS0_.clean)
    i._ZN21QSqlTableModelPrivate11ModifiedRowD1Ev 0x00017ac2   Section       28  qsqltablemodel.o(i._ZN21QSqlTableModelPrivate11ModifiedRowD1Ev)
    i._ZN21QSqlTableModelPrivate11ModifiedRowD1Ev.clean 0x00017ade   Section       10  qsqltablemodel.o(i._ZN21QSqlTableModelPrivate11ModifiedRowD1Ev.clean)
    i._ZN21QSqlTableModelPrivate11ModifiedRowaSERKS0_ 0x00017ae8   Section       34  qsqltablemodel.o(i._ZN21QSqlTableModelPrivate11ModifiedRowaSERKS0_)
    i._ZN21QSqlTableModelPrivateC1Ev         0x00017b0c   Section      228  qsqltablemodel.o(i._ZN21QSqlTableModelPrivateC1Ev)
    i._ZN21QSqlTableModelPrivateC1Ev.clean   0x00017bf0   Section      134  qsqltablemodel.o(i._ZN21QSqlTableModelPrivateC1Ev.clean)
    i._ZN21QSqlTableModelPrivateD0Ev         0x00017c76   Section       22  qsqltablemodel.o(i._ZN21QSqlTableModelPrivateD0Ev)
    i._ZN21QSqlTableModelPrivateD1Ev         0x00017c8c   Section      136  qsqltablemodel.o(i._ZN21QSqlTableModelPrivateD1Ev)
    i._ZN21QSqlTableModelPrivateD1Ev.clean   0x00017d14   Section      106  qsqltablemodel.o(i._ZN21QSqlTableModelPrivateD1Ev.clean)
    i._ZN25QAbstractItemModelPrivate10PersistentD1Ev 0x00017d7e   Section       34  qsqlquerymodel.o(i._ZN25QAbstractItemModelPrivate10PersistentD1Ev)
    i._ZN25QAbstractItemModelPrivate10PersistentD1Ev.clean 0x00017da0   Section       18  qsqlquerymodel.o(i._ZN25QAbstractItemModelPrivate10PersistentD1Ev.clean)
    i._ZN25QAbstractItemModelPrivateC1Ev     0x00017db4   Section      196  qsqlquerymodel.o(i._ZN25QAbstractItemModelPrivateC1Ev)
    i._ZN25QAbstractItemModelPrivateC1Ev.clean 0x00017e78   Section       52  qsqlquerymodel.o(i._ZN25QAbstractItemModelPrivateC1Ev.clean)
    i._ZN25QAbstractItemModelPrivateD0Ev     0x00017eac   Section       22  qsqlquerymodel.o(i._ZN25QAbstractItemModelPrivateD0Ev)
    i._ZN25QAbstractItemModelPrivateD1Ev     0x00017ec4   Section       64  qsqlquerymodel.o(i._ZN25QAbstractItemModelPrivateD1Ev)
    i._ZN25QAbstractItemModelPrivateD1Ev.clean 0x00017f04   Section       34  qsqlquerymodel.o(i._ZN25QAbstractItemModelPrivateD1Ev.clean)
    i._ZN26QSqlDriverFactoryInterfaceD0Ev    0x00017f26   Section       18  qsqldriverplugin.o(i._ZN26QSqlDriverFactoryInterfaceD0Ev)
    i._ZN26QSqlDriverFactoryInterfaceD2Ev    0x00017f38   Section        2  qsqldriverplugin.o(i._ZN26QSqlDriverFactoryInterfaceD2Ev)
    i._ZN31QSqlRelationalTableModelPrivateD0Ev 0x00017f3a   Section       22  qsqlrelationaltablemodel.o(i._ZN31QSqlRelationalTableModelPrivateD0Ev)
    i._ZN31QSqlRelationalTableModelPrivateD1Ev 0x00017f50   Section       56  qsqlrelationaltablemodel.o(i._ZN31QSqlRelationalTableModelPrivateD1Ev)
    i._ZN31QSqlRelationalTableModelPrivateD1Ev.clean 0x00017f88   Section       26  qsqlrelationaltablemodel.o(i._ZN31QSqlRelationalTableModelPrivateD1Ev.clean)
    i._ZN6QDebug10maybeSpaceEv               0x00017fa2   Section       24  qsqldatabase.o(i._ZN6QDebug10maybeSpaceEv)
    i._ZN6QDebug5spaceEv                     0x00017fba   Section       22  qsqldatabase.o(i._ZN6QDebug5spaceEv)
    i._ZN6QDebugC1ERKS_                      0x00017fd0   Section       16  qsqldatabase.o(i._ZN6QDebugC1ERKS_)
    i._ZN6QDebugD1Ev                         0x00017fe0   Section      112  qsqldatabase.o(i._ZN6QDebugD1Ev)
    i._ZN6QDebugD1Ev.clean                   0x00018050   Section       20  qsqldatabase.o(i._ZN6QDebugD1Ev.clean)
    i._ZN6QDebuglsEPKc                       0x00018064   Section       44  qsqldatabase.o(i._ZN6QDebuglsEPKc)
    i._ZN6QDebuglsEPKc.clean                 0x00018090   Section       10  qsqldatabase.o(i._ZN6QDebuglsEPKc.clean)
    i._ZN6QDebuglsERK7QString                0x0001809a   Section       38  qsqldatabase.o(i._ZN6QDebuglsERK7QString)
    i._ZN6QDebuglsEc                         0x000180c0   Section       22  qsqlfield.o(i._ZN6QDebuglsEc)
    i._ZN6QDebuglsEi                         0x000180d6   Section       22  qsqlfield.o(i._ZN6QDebuglsEi)
    i._ZN7QHolderC1ERK7QStringi              0x000180ec   Section       24  qsqlresult.o(i._ZN7QHolderC1ERK7QStringi)
    i._ZN7QHolderC1ERKS_                     0x00018104   Section       24  qsqlresult.o(i._ZN7QHolderC1ERKS_)
    i._ZN7QHolderD1Ev                        0x0001811c   Section       14  qsqlresult.o(i._ZN7QHolderD1Ev)
    i._ZN7QString4dataEv                     0x0001812a   Section       40  qsqlindex.o(i._ZN7QString4dataEv)
    i._ZN7QString5clearEv                    0x00018154   Section       56  qsqldriver.o(i._ZN7QString5clearEv)
    i._ZN7QString5clearEv.clean              0x0001818c   Section       10  qsqldriver.o(i._ZN7QString5clearEv.clean)
    i._ZN7QString6detachEv                   0x00018196   Section       34  qsqldriver.o(i._ZN7QString6detachEv)
    i._ZN7QString7prependERK13QLatin1String  0x000181b8   Section       18  qsqldriver.o(i._ZN7QString7prependERK13QLatin1String)
    i._ZN7QString7reserveEi                  0x000181ca   Section       58  qsqlresult.o(i._ZN7QString7reserveEi)
    i._ZN7QString7squeezeEv                  0x00018204   Section       58  qsqlresult.o(i._ZN7QString7squeezeEv)
    i._ZN7QStringC1ERK13QLatin1String        0x0001823e   Section       26  qsql_sqlite.o(i._ZN7QStringC1ERK13QLatin1String)
    i._ZN7QStringC1ERKS_                     0x00018258   Section      124  qsql_sqlite.o(i._ZN7QStringC1ERKS_)
    i._ZN7QStringC1Ev                        0x000182d4   Section       24  qsql_sqlite.o(i._ZN7QStringC1Ev)
    i._ZN7QStringD1Ev                        0x000182ec   Section       24  qsql_sqlite.o(i._ZN7QStringD1Ev)
    i._ZN7QStringaSERK13QLatin1String        0x00018304   Section       42  qsqldriver.o(i._ZN7QStringaSERK13QLatin1String)
    i._ZN7QStringaSERK13QLatin1String.clean  0x0001832e   Section       10  qsqldriver.o(i._ZN7QStringaSERK13QLatin1String.clean)
    i._ZN7QStringpLE5QChar                   0x00018338   Section       94  qsqldriver.o(i._ZN7QStringpLE5QChar)
    i._ZN8QVariantC1Ev                       0x00018396   Section       38  qsql_sqlite.o(i._ZN8QVariantC1Ev)
    i._ZN9QHashData8willGrowEv               0x000183bc   Section       32  qsqldatabase.o(i._ZN9QHashData8willGrowEv)
    i._ZN9QHashData9firstNodeEv              0x000183dc   Section       36  qsqldatabase.o(i._ZN9QHashData9firstNodeEv)
    i._ZN9QHashData9hasShrunkEv              0x00018400   Section       82  qsqldatabase.o(i._ZN9QHashData9hasShrunkEv)
    i._ZN9QRelationC1ERKS_                   0x00018452   Section       74  qsqlrelationaltablemodel.o(i._ZN9QRelationC1ERKS_)
    i._ZN9QRelationC1ERKS_.clean             0x0001849c   Section       10  qsqlrelationaltablemodel.o(i._ZN9QRelationC1ERKS_.clean)
    i._ZN9QRelationC1Ev                      0x000184a6   Section       62  qsqlrelationaltablemodel.o(i._ZN9QRelationC1Ev)
    i._ZN9QRelationC1Ev.clean                0x000184e4   Section       28  qsqlrelationaltablemodel.o(i._ZN9QRelationC1Ev.clean)
    i._ZN9QRelationD1Ev                      0x00018500   Section       26  qsqlrelationaltablemodel.o(i._ZN9QRelationD1Ev)
    i._ZN9QRelationD1Ev.clean                0x0001851a   Section       10  qsqlrelationaltablemodel.o(i._ZN9QRelationD1Ev.clean)
    i._ZNK10QSqlRecordneERKS_                0x00018524   Section       20  qsqlquerymodel.o(i._ZNK10QSqlRecordneERKS_)
    i._ZNK11QModelIndex7isValidEv            0x00018538   Section       28  qsqlquerymodel.o(i._ZNK11QModelIndex7isValidEv)
    i._ZNK11QModelIndex7siblingEii           0x00018554   Section      158  qsqltablemodel.o(i._ZNK11QModelIndex7siblingEii)
    i._ZNK11QModelIndex7siblingEii.clean     0x000185f2   Section       38  qsqltablemodel.o(i._ZNK11QModelIndex7siblingEii.clean)
    i._ZNK12QSqlRelation13displayColumnEv    0x00018618   Section       20  qsqlrelationaltablemodel.o(i._ZNK12QSqlRelation13displayColumnEv)
    i._ZNK12QSqlRelation7isValidEv           0x0001862c   Section       44  qsqlrelationaltablemodel.o(i._ZNK12QSqlRelation7isValidEv)
    i._ZNK12QSqlRelation9tableNameEv         0x00018658   Section       18  qsqlrelationaltablemodel.o(i._ZNK12QSqlRelation9tableNameEv)
    i._ZNK14QSqlNullDriver10hasFeatureEN10QSqlDriver13DriverFeatureE 0x0001866a   Section        6  qsqlquery.o(i._ZNK14QSqlNullDriver10hasFeatureEN10QSqlDriver13DriverFeatureE)
    i._ZNK14QSqlNullDriver12createResultEv   0x00018670   Section       32  qsqlquery.o(i._ZNK14QSqlNullDriver12createResultEv)
    i._ZNK14QSqlNullDriver12createResultEv.clean 0x00018690   Section       14  qsqlquery.o(i._ZNK14QSqlNullDriver12createResultEv.clean)
    i._ZNK15QBasicAtomicInteqEi              0x0001869e   Section       16  qsql_sqlite.o(i._ZNK15QBasicAtomicInteqEi)
    i._ZNK15QBasicAtomicIntneEi              0x000186ae   Section       16  qsql_sqlite.o(i._ZNK15QBasicAtomicIntneEi)
    i._ZNK15QBasicAtomicIntntEv              0x000186be   Section       16  qsql_sqlite.o(i._ZNK15QBasicAtomicIntntEv)
    i._ZNK18QAbstractItemModel11createIndexEiiPv 0x000186ce   Section       18  qsqlquerymodel.o(i._ZNK18QAbstractItemModel11createIndexEiiPv)
    i._ZNK23QSqlCachedResultPrivate10cacheCountEv 0x000186e0   Section      136  qsqlcachedresult.o(i._ZNK23QSqlCachedResultPrivate10cacheCountEv)
    i._ZNK7QString2atEi                      0x00018768   Section      140  qsqlresult.o(i._ZNK7QString2atEi)
    i._ZNK7QString3argEiiiRK5QChar           0x000187f4   Section       36  qsqlrelationaltablemodel.o(i._ZNK7QString3argEiiiRK5QChar)
    i._ZNK7QString7isEmptyEv                 0x00018818   Section       18  qsql_sqlite.o(i._ZNK7QString7isEmptyEv)
    i._ZNK7QStringneERKS_                    0x0001882a   Section       20  qsql_sqlite.o(i._ZNK7QStringneERKS_)
    i._ZNK8QVariant7isValidEv                0x0001883e   Section       18  qsqldriver.o(i._ZNK8QVariant7isValidEv)
    i._ZNK8QVarianteqERKS_                   0x00018850   Section       16  qsqlfield.o(i._ZNK8QVarianteqERKS_)
    i._ZNK9QListData2atEi                    0x00018860   Section       20  qsqlindex.o(i._ZNK9QListData2atEi)
    i._ZNK9QListData3endEv                   0x00018874   Section       16  qsql_sqlite.o(i._ZNK9QListData3endEv)
    i._ZNK9QListData5beginEv                 0x00018884   Section       16  qsql_sqlite.o(i._ZNK9QListData5beginEv)
    i._ZNK9QSqlField5valueEv                 0x00018894   Section       18  qsqldriver.o(i._ZNK9QSqlField5valueEv)
    i._ZdlPvS_                               0x000188a6   Section        2  qsql_sqlite.o(i._ZdlPvS_)
    i._Zeq5QCharS_                           0x000188a8   Section       24  qsqlresult.o(i._Zeq5QCharS_)
    i._Zne5QCharS_                           0x000188c0   Section       24  qsqlresult.o(i._Zne5QCharS_)
    i._ZnwjPv                                0x000188d8   Section        6  qsql_sqlite.o(i._ZnwjPv)
    t._Z10qDeleteAllIN5QHashI7QStringP21QSqlDriverCreatorBaseE14const_iteratorEEvT_S6_ 0x000188de   Section       54  qsqldatabase.o(t._Z10qDeleteAllIN5QHashI7QStringP21QSqlDriverCreatorBaseE14const_iteratorEEvT_S6_)
    t._Z13qAtomicDetachI16QSqlFieldPrivateEvRPT_ 0x00018914   Section      218  qsqlfield.o(t._Z13qAtomicDetachI16QSqlFieldPrivateEvRPT_)
    t._Z13qAtomicDetachI16QSqlFieldPrivateEvRPT_.clean 0x000189ee   Section       26  qsqlfield.o(t._Z13qAtomicDetachI16QSqlFieldPrivateEvRPT_.clean)
    t._Z15qMapLessThanKeyIiEbRKT_S2_         0x00018a08   Section       18  qsqltablemodel.o(t._Z15qMapLessThanKeyIiEbRKT_S2_)
    t._Z17qRegisterMetaTypeIP12sqlite3_stmtEiPKcPT_ 0x00018a1c   Section       64  qsql_sqlite.o(t._Z17qRegisterMetaTypeIP12sqlite3_stmtEiPKcPT_)
    t._Z17qRegisterMetaTypeIP7sqlite3EiPKcPT_ 0x00018a5c   Section       64  qsql_sqlite.o(t._Z17qRegisterMetaTypeIP7sqlite3EiPKcPT_)
    t._Z21qMetaTypeDeleteHelperIP12sqlite3_stmtEvPT_ 0x00018a9c   Section       12  qsql_sqlite.o(t._Z21qMetaTypeDeleteHelperIP12sqlite3_stmtEvPT_)
    t._Z21qMetaTypeDeleteHelperIP7sqlite3EvPT_ 0x00018aa8   Section       12  qsql_sqlite.o(t._Z21qMetaTypeDeleteHelperIP7sqlite3EvPT_)
    t._Z24qMetaTypeConstructHelperIP12sqlite3_stmtEPvPKT_ 0x00018ab4   Section       50  qsql_sqlite.o(t._Z24qMetaTypeConstructHelperIP12sqlite3_stmtEPvPKT_)
    t._Z24qMetaTypeConstructHelperIP7sqlite3EPvPKT_ 0x00018ae6   Section       50  qsql_sqlite.o(t._Z24qMetaTypeConstructHelperIP7sqlite3EPvPKT_)
    t._Z4qMaxIiERKT_S2_S2_                   0x00018b18   Section       18  qsqlquerymodel.o(t._Z4qMaxIiERKT_S2_S2_)
    t._Z4qMinIiERKT_S2_S2_                   0x00018b2a   Section       18  qsqlresult.o(t._Z4qMinIiERKT_S2_S2_)
    t._ZN12QMetaTypeId2IP12sqlite3_stmtE14qt_metatype_idEv 0x00018b3c   Section       64  qsql_sqlite.o(t._ZN12QMetaTypeId2IP12sqlite3_stmtE14qt_metatype_idEv)
    t._ZN12QMetaTypeId2IP7sqlite3E14qt_metatype_idEv 0x00018b7c   Section       60  qsql_sqlite.o(t._ZN12QMetaTypeId2IP7sqlite3E14qt_metatype_idEv)
    t._ZN15QVarLengthArrayIiLi56EE6resizeEi  0x00018bb8   Section       26  qsqlquerymodel.o(t._ZN15QVarLengthArrayIiLi56EE6resizeEi)
    t._ZN15QVarLengthArrayIiLi56EE7reallocEii 0x00018bd4   Section      168  qsqlquerymodel.o(t._ZN15QVarLengthArrayIiLi56EE7reallocEii)
    t._ZN15QVarLengthArrayIiLi56EE7reallocEii.clean 0x00018c7c   Section        4  qsqlquerymodel.o(t._ZN15QVarLengthArrayIiLi56EE7reallocEii.clean)
    t._ZN15QVarLengthArrayIiLi56EED1Ev       0x00018c80   Section       26  qsqlquerymodel.o(t._ZN15QVarLengthArrayIiLi56EED1Ev)
    t._ZN15QVarLengthArrayIiLi56EEixEi       0x00018c9c   Section       64  qsqlquerymodel.o(t._ZN15QVarLengthArrayIiLi56EEixEi)
    t._ZN20QGlobalStaticDeleterI14QFactoryLoaderED1Ev 0x00018cdc   Section       38  qsqldatabase.o(t._ZN20QGlobalStaticDeleterI14QFactoryLoaderED1Ev)
    t._ZN20QGlobalStaticDeleterI14QSqlNullDriverED1Ev 0x00018d02   Section       38  qsqlquery.o(t._ZN20QGlobalStaticDeleterI14QSqlNullDriverED1Ev)
    t._ZN20QGlobalStaticDeleterI14QSqlNullResultED1Ev 0x00018d28   Section       38  qsqlquery.o(t._ZN20QGlobalStaticDeleterI14QSqlNullResultED1Ev)
    t._ZN20QGlobalStaticDeleterI15QConnectionDictED1Ev 0x00018d4e   Section       42  qsqldatabase.o(t._ZN20QGlobalStaticDeleterI15QConnectionDictED1Ev)
    t._ZN20QGlobalStaticDeleterI16QSqlQueryPrivateED1Ev 0x00018d78   Section       42  qsqlquery.o(t._ZN20QGlobalStaticDeleterI16QSqlQueryPrivateED1Ev)
    t._ZN4QMapI7QString8QVariantE11node_createEP8QMapDataPPNS3_4NodeERKS0_RKS1_ 0x00018da4   Section      256  qsqlquery.o(t._ZN4QMapI7QString8QVariantE11node_createEP8QMapDataPPNS3_4NodeERKS0_RKS1_)
    t._ZN4QMapI7QString8QVariantE11node_createEP8QMapDataPPNS3_4NodeERKS0_RKS1_.clean 0x00018ea4   Section       38  qsqlquery.o(t._ZN4QMapI7QString8QVariantE11node_createEP8QMapDataPPNS3_4NodeERKS0_RKS1_.clean)
    t._ZN4QMapI7QString8QVariantE13detach_helperEv 0x00018eca   Section      148  qsqlquery.o(t._ZN4QMapI7QString8QVariantE13detach_helperEv)
    t._ZN4QMapI7QString8QVariantE13detach_helperEv.clean 0x00018f5e   Section        8  qsqlquery.o(t._ZN4QMapI7QString8QVariantE13detach_helperEv.clean)
    t._ZN4QMapI7QString8QVariantE8freeDataEP8QMapData 0x00018f66   Section       64  qsqlquery.o(t._ZN4QMapI7QString8QVariantE8freeDataEP8QMapData)
    t._ZN4QMapI7QString8QVariantED1Ev        0x00018fa6   Section       38  qsqlquery.o(t._ZN4QMapI7QString8QVariantED1Ev)
    t._ZN4QMapIiN21QSqlTableModelPrivate11ModifiedRowEE11node_createEP8QMapDataPPNS3_4NodeERKiRKS1_ 0x00018fcc   Section      130  qsqltablemodel.o(t._ZN4QMapIiN21QSqlTableModelPrivate11ModifiedRowEE11node_createEP8QMapDataPPNS3_4NodeERKiRKS1_)
    t._ZN4QMapIiN21QSqlTableModelPrivate11ModifiedRowEE11node_createEP8QMapDataPPNS3_4NodeERKiRKS1_.clean 0x0001904e   Section       28  qsqltablemodel.o(t._ZN4QMapIiN21QSqlTableModelPrivate11ModifiedRowEE11node_createEP8QMapDataPPNS3_4NodeERKiRKS1_.clean)
    t._ZN4QMapIiN21QSqlTableModelPrivate11ModifiedRowEE13detach_helperEv 0x0001906a   Section      146  qsqltablemodel.o(t._ZN4QMapIiN21QSqlTableModelPrivate11ModifiedRowEE13detach_helperEv)
    t._ZN4QMapIiN21QSqlTableModelPrivate11ModifiedRowEE13detach_helperEv.clean 0x000190fc   Section        8  qsqltablemodel.o(t._ZN4QMapIiN21QSqlTableModelPrivate11ModifiedRowEE13detach_helperEv.clean)
    t._ZN4QMapIiN21QSqlTableModelPrivate11ModifiedRowEE3endEv 0x00019104   Section       18  qsqltablemodel.o(t._ZN4QMapIiN21QSqlTableModelPrivate11ModifiedRowEE3endEv)
    t._ZN4QMapIiN21QSqlTableModelPrivate11ModifiedRowEE5clearEv 0x00019116   Section       82  qsqltablemodel.o(t._ZN4QMapIiN21QSqlTableModelPrivate11ModifiedRowEE5clearEv)
    t._ZN4QMapIiN21QSqlTableModelPrivate11ModifiedRowEE5clearEv.clean 0x00019168   Section       10  qsqltablemodel.o(t._ZN4QMapIiN21QSqlTableModelPrivate11ModifiedRowEE5clearEv.clean)
    t._ZN4QMapIiN21QSqlTableModelPrivate11ModifiedRowEE5eraseENS2_8iteratorE 0x00019172   Section      248  qsqltablemodel.o(t._ZN4QMapIiN21QSqlTableModelPrivate11ModifiedRowEE5eraseENS2_8iteratorE)
    t._ZN4QMapIiN21QSqlTableModelPrivate11ModifiedRowEE6detachEv 0x0001926a   Section       28  qsqltablemodel.o(t._ZN4QMapIiN21QSqlTableModelPrivate11ModifiedRowEE6detachEv)
    t._ZN4QMapIiN21QSqlTableModelPrivate11ModifiedRowEE6insertERKiRKS1_ 0x00019286   Section       80  qsqltablemodel.o(t._ZN4QMapIiN21QSqlTableModelPrivate11ModifiedRowEE6insertERKiRKS1_)
    t._ZN4QMapIiN21QSqlTableModelPrivate11ModifiedRowEE6removeERKi 0x000192d6   Section      256  qsqltablemodel.o(t._ZN4QMapIiN21QSqlTableModelPrivate11ModifiedRowEE6removeERKi)
    t._ZN4QMapIiN21QSqlTableModelPrivate11ModifiedRowEE8freeDataEP8QMapData 0x000193d6   Section       56  qsqltablemodel.o(t._ZN4QMapIiN21QSqlTableModelPrivate11ModifiedRowEE8freeDataEP8QMapData)
    t._ZN4QMapIiN21QSqlTableModelPrivate11ModifiedRowEEC1Ev 0x00019410   Section       28  qsqltablemodel.o(t._ZN4QMapIiN21QSqlTableModelPrivate11ModifiedRowEEC1Ev)
    t._ZN4QMapIiN21QSqlTableModelPrivate11ModifiedRowEED1Ev 0x0001942c   Section       38  qsqltablemodel.o(t._ZN4QMapIiN21QSqlTableModelPrivate11ModifiedRowEED1Ev)
    t._ZN4QMapIiN21QSqlTableModelPrivate11ModifiedRowEEixERKi 0x00019452   Section       98  qsqltablemodel.o(t._ZN4QMapIiN21QSqlTableModelPrivate11ModifiedRowEEixERKi)
    t._ZN4QMapIiN21QSqlTableModelPrivate11ModifiedRowEEixERKi.clean 0x000194b4   Section       16  qsqltablemodel.o(t._ZN4QMapIiN21QSqlTableModelPrivate11ModifiedRowEEixERKi.clean)
    t._ZN5QHashI11QModelIndexP25QPersistentModelIndexDataE11deleteNode2EPN9QHashData4NodeE 0x000194c4   Section       24  qsqlquerymodel.o(t._ZN5QHashI11QModelIndexP25QPersistentModelIndexDataE11deleteNode2EPN9QHashData4NodeE)
    t._ZN5QHashI11QModelIndexP25QPersistentModelIndexDataE8freeDataEP9QHashData 0x000194dc   Section       20  qsqlquerymodel.o(t._ZN5QHashI11QModelIndexP25QPersistentModelIndexDataE8freeDataEP9QHashData)
    t._ZN5QHashI11QModelIndexP25QPersistentModelIndexDataED1Ev 0x000194f0   Section       30  qsqlquerymodel.o(t._ZN5QHashI11QModelIndexP25QPersistentModelIndexDataED1Ev)
    t._ZN5QHashI7QString12QSqlDatabaseE11deleteNode2EPN9QHashData4NodeE 0x0001950e   Section       36  qsqldatabase.o(t._ZN5QHashI7QString12QSqlDatabaseE11deleteNode2EPN9QHashData4NodeE)
    t._ZN5QHashI7QString12QSqlDatabaseE11deleteNode2EPN9QHashData4NodeE.clean 0x00019532   Section       12  qsqldatabase.o(t._ZN5QHashI7QString12QSqlDatabaseE11deleteNode2EPN9QHashData4NodeE.clean)
    t._ZN5QHashI7QString12QSqlDatabaseE13detach_helperEv 0x00019540   Section       60  qsqldatabase.o(t._ZN5QHashI7QString12QSqlDatabaseE13detach_helperEv)
    t._ZN5QHashI7QString12QSqlDatabaseE13duplicateNodeEPN9QHashData4NodeEPv 0x0001957c   Section       46  qsqldatabase.o(t._ZN5QHashI7QString12QSqlDatabaseE13duplicateNodeEPN9QHashData4NodeEPv)
    t._ZN5QHashI7QString12QSqlDatabaseE13duplicateNodeEPN9QHashData4NodeEPv.clean 0x000195aa   Section       14  qsqldatabase.o(t._ZN5QHashI7QString12QSqlDatabaseE13duplicateNodeEPN9QHashData4NodeEPv.clean)
    t._ZN5QHashI7QString12QSqlDatabaseE4takeERKS0_ 0x000195b8   Section      146  qsqldatabase.o(t._ZN5QHashI7QString12QSqlDatabaseE4takeERKS0_)
    t._ZN5QHashI7QString12QSqlDatabaseE4takeERKS0_.clean 0x0001964a   Section       10  qsqldatabase.o(t._ZN5QHashI7QString12QSqlDatabaseE4takeERKS0_.clean)
    t._ZN5QHashI7QString12QSqlDatabaseE6detachEv 0x00019654   Section       28  qsqldatabase.o(t._ZN5QHashI7QString12QSqlDatabaseE6detachEv)
    t._ZN5QHashI7QString12QSqlDatabaseE6insertERKS0_RKS1_ 0x00019670   Section      182  qsqldatabase.o(t._ZN5QHashI7QString12QSqlDatabaseE6insertERKS0_RKS1_)
    t._ZN5QHashI7QString12QSqlDatabaseE6insertERKS0_RKS1_.clean 0x00019726   Section       14  qsqldatabase.o(t._ZN5QHashI7QString12QSqlDatabaseE6insertERKS0_RKS1_.clean)
    t._ZN5QHashI7QString12QSqlDatabaseE8freeDataEP9QHashData 0x00019734   Section       20  qsqldatabase.o(t._ZN5QHashI7QString12QSqlDatabaseE8freeDataEP9QHashData)
    t._ZN5QHashI7QString12QSqlDatabaseEC1Ev  0x00019748   Section       28  qsqldatabase.o(t._ZN5QHashI7QString12QSqlDatabaseEC1Ev)
    t._ZN5QHashI7QString12QSqlDatabaseED1Ev  0x00019764   Section       30  qsqldatabase.o(t._ZN5QHashI7QString12QSqlDatabaseED1Ev)
    t._ZN5QHashI7QString8QVariantE11deleteNode2EPN9QHashData4NodeE 0x00019782   Section       36  qsqlrelationaltablemodel.o(t._ZN5QHashI7QString8QVariantE11deleteNode2EPN9QHashData4NodeE)
    t._ZN5QHashI7QString8QVariantE11deleteNode2EPN9QHashData4NodeE.clean 0x000197a6   Section       12  qsqlrelationaltablemodel.o(t._ZN5QHashI7QString8QVariantE11deleteNode2EPN9QHashData4NodeE.clean)
    t._ZN5QHashI7QString8QVariantE13detach_helperEv 0x000197b4   Section       60  qsqlrelationaltablemodel.o(t._ZN5QHashI7QString8QVariantE13detach_helperEv)
    t._ZN5QHashI7QString8QVariantE13duplicateNodeEPN9QHashData4NodeEPv 0x000197f0   Section       48  qsqlrelationaltablemodel.o(t._ZN5QHashI7QString8QVariantE13duplicateNodeEPN9QHashData4NodeEPv)
    t._ZN5QHashI7QString8QVariantE13duplicateNodeEPN9QHashData4NodeEPv.clean 0x00019820   Section       14  qsqlrelationaltablemodel.o(t._ZN5QHashI7QString8QVariantE13duplicateNodeEPN9QHashData4NodeEPv.clean)
    t._ZN5QHashI7QString8QVariantE6detachEv  0x0001982e   Section       28  qsqlrelationaltablemodel.o(t._ZN5QHashI7QString8QVariantE6detachEv)
    t._ZN5QHashI7QString8QVariantE8freeDataEP9QHashData 0x0001984c   Section       20  qsqlrelationaltablemodel.o(t._ZN5QHashI7QString8QVariantE8freeDataEP9QHashData)
    t._ZN5QHashI7QString8QVariantEC1Ev       0x00019860   Section       28  qsqlrelationaltablemodel.o(t._ZN5QHashI7QString8QVariantEC1Ev)
    t._ZN5QHashI7QString8QVariantED1Ev       0x0001987c   Section       30  qsqlrelationaltablemodel.o(t._ZN5QHashI7QString8QVariantED1Ev)
    t._ZN5QHashI7QString8QVariantEaSERKS2_   0x0001989a   Section       70  qsqlrelationaltablemodel.o(t._ZN5QHashI7QString8QVariantEaSERKS2_)
    t._ZN5QHashI7QString8QVariantEixERKS0_   0x000198e0   Section      188  qsqlrelationaltablemodel.o(t._ZN5QHashI7QString8QVariantEixERKS0_)
    t._ZN5QHashI7QString8QVariantEixERKS0_.clean 0x0001999c   Section       24  qsqlrelationaltablemodel.o(t._ZN5QHashI7QString8QVariantEixERKS0_.clean)
    t._ZN5QHashI7QStringP21QSqlDriverCreatorBaseE11deleteNode2EPN9QHashData4NodeE 0x000199b4   Section       24  qsqldatabase.o(t._ZN5QHashI7QStringP21QSqlDriverCreatorBaseE11deleteNode2EPN9QHashData4NodeE)
    t._ZN5QHashI7QStringP21QSqlDriverCreatorBaseE13detach_helperEv 0x000199cc   Section       60  qsqldatabase.o(t._ZN5QHashI7QStringP21QSqlDriverCreatorBaseE13detach_helperEv)
    t._ZN5QHashI7QStringP21QSqlDriverCreatorBaseE13duplicateNodeEPN9QHashData4NodeEPv 0x00019a08   Section       46  qsqldatabase.o(t._ZN5QHashI7QStringP21QSqlDriverCreatorBaseE13duplicateNodeEPN9QHashData4NodeEPv)
    t._ZN5QHashI7QStringP21QSqlDriverCreatorBaseE13duplicateNodeEPN9QHashData4NodeEPv.clean 0x00019a36   Section       14  qsqldatabase.o(t._ZN5QHashI7QStringP21QSqlDriverCreatorBaseE13duplicateNodeEPN9QHashData4NodeEPv.clean)
    t._ZN5QHashI7QStringP21QSqlDriverCreatorBaseE4takeERKS0_ 0x00019a44   Section      132  qsqldatabase.o(t._ZN5QHashI7QStringP21QSqlDriverCreatorBaseE4takeERKS0_)
    t._ZN5QHashI7QStringP21QSqlDriverCreatorBaseE6detachEv 0x00019ac8   Section       28  qsqldatabase.o(t._ZN5QHashI7QStringP21QSqlDriverCreatorBaseE6detachEv)
    t._ZN5QHashI7QStringP21QSqlDriverCreatorBaseE6insertERKS0_RKS2_ 0x00019ae4   Section      176  qsqldatabase.o(t._ZN5QHashI7QStringP21QSqlDriverCreatorBaseE6insertERKS0_RKS2_)
    t._ZN5QHashI7QStringP21QSqlDriverCreatorBaseE6insertERKS0_RKS2_.clean 0x00019b94   Section       14  qsqldatabase.o(t._ZN5QHashI7QStringP21QSqlDriverCreatorBaseE6insertERKS0_RKS2_.clean)
    t._ZN5QHashI7QStringP21QSqlDriverCreatorBaseE8freeDataEP9QHashData 0x00019ba4   Section       20  qsqldatabase.o(t._ZN5QHashI7QStringP21QSqlDriverCreatorBaseE8freeDataEP9QHashData)
    t._ZN5QHashI7QStringP21QSqlDriverCreatorBaseEC1ERKS3_ 0x00019bb8   Section       40  qsqldatabase.o(t._ZN5QHashI7QStringP21QSqlDriverCreatorBaseEC1ERKS3_)
    t._ZN5QHashI7QStringP21QSqlDriverCreatorBaseEC1Ev 0x00019be0   Section       28  qsqldatabase.o(t._ZN5QHashI7QStringP21QSqlDriverCreatorBaseEC1Ev)
    t._ZN5QHashI7QStringP21QSqlDriverCreatorBaseED1Ev 0x00019bfc   Section       30  qsqldatabase.o(t._ZN5QHashI7QStringP21QSqlDriverCreatorBaseED1Ev)
    t._ZN5QHashI7QStringiE11deleteNode2EPN9QHashData4NodeE 0x00019c1a   Section       24  qsqlresult.o(t._ZN5QHashI7QStringiE11deleteNode2EPN9QHashData4NodeE)
    t._ZN5QHashI7QStringiE13detach_helperEv  0x00019c34   Section       60  qsqlresult.o(t._ZN5QHashI7QStringiE13detach_helperEv)
    t._ZN5QHashI7QStringiE13duplicateNodeEPN9QHashData4NodeEPv 0x00019c70   Section       46  qsqlresult.o(t._ZN5QHashI7QStringiE13duplicateNodeEPN9QHashData4NodeEPv)
    t._ZN5QHashI7QStringiE13duplicateNodeEPN9QHashData4NodeEPv.clean 0x00019c9e   Section       14  qsqlresult.o(t._ZN5QHashI7QStringiE13duplicateNodeEPN9QHashData4NodeEPv.clean)
    t._ZN5QHashI7QStringiE6insertERKS0_RKi   0x00019cac   Section      194  qsqlrelationaltablemodel.o(t._ZN5QHashI7QStringiE6insertERKS0_RKi)
    t._ZN5QHashI7QStringiE6insertERKS0_RKi.clean 0x00019d6e   Section       14  qsqlrelationaltablemodel.o(t._ZN5QHashI7QStringiE6insertERKS0_RKi.clean)
    t._ZN5QHashI7QStringiE8freeDataEP9QHashData 0x00019d7c   Section       20  qsqlresult.o(t._ZN5QHashI7QStringiE8freeDataEP9QHashData)
    t._ZN5QHashI7QStringiEC1Ev               0x00019d90   Section       28  qsqlresult.o(t._ZN5QHashI7QStringiEC1Ev)
    t._ZN5QHashI7QStringiED1Ev               0x00019dac   Section       30  qsqlresult.o(t._ZN5QHashI7QStringiED1Ev)
    t._ZN5QHashI7QStringiEixERKS0_           0x00019dca   Section      182  qsqlresult.o(t._ZN5QHashI7QStringiEixERKS0_)
    t._ZN5QHashI7QStringiEixERKS0_.clean     0x00019e80   Section       14  qsqlresult.o(t._ZN5QHashI7QStringiEixERKS0_.clean)
    t._ZN5QHashIi10QByteArrayE11deleteNode2EPN9QHashData4NodeE 0x00019e8e   Section       24  qsqlquerymodel.o(t._ZN5QHashIi10QByteArrayE11deleteNode2EPN9QHashData4NodeE)
    t._ZN5QHashIi10QByteArrayE13detach_helperEv 0x00019ea8   Section       60  qsqlquerymodel.o(t._ZN5QHashIi10QByteArrayE13detach_helperEv)
    t._ZN5QHashIi10QByteArrayE13duplicateNodeEPN9QHashData4NodeEPv 0x00019ee4   Section       76  qsqlquerymodel.o(t._ZN5QHashIi10QByteArrayE13duplicateNodeEPN9QHashData4NodeEPv)
    t._ZN5QHashIi10QByteArrayE13duplicateNodeEPN9QHashData4NodeEPv.clean 0x00019f30   Section       14  qsqlquerymodel.o(t._ZN5QHashIi10QByteArrayE13duplicateNodeEPN9QHashData4NodeEPv.clean)
    t._ZN5QHashIi10QByteArrayE8freeDataEP9QHashData 0x00019f40   Section       20  qsqlquerymodel.o(t._ZN5QHashIi10QByteArrayE8freeDataEP9QHashData)
    t._ZN5QHashIi10QByteArrayED1Ev           0x00019f54   Section       30  qsqlquerymodel.o(t._ZN5QHashIi10QByteArrayED1Ev)
    t._ZN5QHashIi6QFlagsIN4QSql13ParamTypeFlagEEE11deleteNode2EPN9QHashData4NodeE 0x00019f72   Section        6  qsqlresult.o(t._ZN5QHashIi6QFlagsIN4QSql13ParamTypeFlagEEE11deleteNode2EPN9QHashData4NodeE)
    t._ZN5QHashIi6QFlagsIN4QSql13ParamTypeFlagEEE13detach_helperEv 0x00019f78   Section       60  qsqlresult.o(t._ZN5QHashIi6QFlagsIN4QSql13ParamTypeFlagEEE13detach_helperEv)
    t._ZN5QHashIi6QFlagsIN4QSql13ParamTypeFlagEEE13duplicateNodeEPN9QHashData4NodeEPv 0x00019fb4   Section       60  qsqlresult.o(t._ZN5QHashIi6QFlagsIN4QSql13ParamTypeFlagEEE13duplicateNodeEPN9QHashData4NodeEPv)
    t._ZN5QHashIi6QFlagsIN4QSql13ParamTypeFlagEEE8freeDataEP9QHashData 0x00019ff0   Section       20  qsqlresult.o(t._ZN5QHashIi6QFlagsIN4QSql13ParamTypeFlagEEE8freeDataEP9QHashData)
    t._ZN5QHashIi6QFlagsIN4QSql13ParamTypeFlagEEEC1Ev 0x0001a004   Section       28  qsqlresult.o(t._ZN5QHashIi6QFlagsIN4QSql13ParamTypeFlagEEEC1Ev)
    t._ZN5QHashIi6QFlagsIN4QSql13ParamTypeFlagEEED1Ev 0x0001a020   Section       30  qsqlresult.o(t._ZN5QHashIi6QFlagsIN4QSql13ParamTypeFlagEEED1Ev)
    t._ZN5QHashIi6QFlagsIN4QSql13ParamTypeFlagEEEixERKi 0x0001a03e   Section      194  qsqlresult.o(t._ZN5QHashIi6QFlagsIN4QSql13ParamTypeFlagEEEixERKi)
    t._ZN5QHashIi6QFlagsIN4QSql13ParamTypeFlagEEEixERKi.clean 0x0001a100   Section        4  qsqlresult.o(t._ZN5QHashIi6QFlagsIN4QSql13ParamTypeFlagEEEixERKi.clean)
    t._ZN5QHashIi8QVariantE11deleteNode2EPN9QHashData4NodeE 0x0001a104   Section       24  qsqlquerymodel.o(t._ZN5QHashIi8QVariantE11deleteNode2EPN9QHashData4NodeE)
    t._ZN5QHashIi8QVariantE13detach_helperEv 0x0001a11c   Section       60  qsqlquerymodel.o(t._ZN5QHashIi8QVariantE13detach_helperEv)
    t._ZN5QHashIi8QVariantE13duplicateNodeEPN9QHashData4NodeEPv 0x0001a158   Section       46  qsqlquerymodel.o(t._ZN5QHashIi8QVariantE13duplicateNodeEPN9QHashData4NodeEPv)
    t._ZN5QHashIi8QVariantE13duplicateNodeEPN9QHashData4NodeEPv.clean 0x0001a186   Section       14  qsqlquerymodel.o(t._ZN5QHashIi8QVariantE13duplicateNodeEPN9QHashData4NodeEPv.clean)
    t._ZN5QHashIi8QVariantE6detachEv         0x0001a194   Section       28  qsqlquerymodel.o(t._ZN5QHashIi8QVariantE6detachEv)
    t._ZN5QHashIi8QVariantE8freeDataEP9QHashData 0x0001a1b0   Section       20  qsqlquerymodel.o(t._ZN5QHashIi8QVariantE8freeDataEP9QHashData)
    t._ZN5QHashIi8QVariantEC1ERKS1_          0x0001a1c4   Section       40  qsqlquerymodel.o(t._ZN5QHashIi8QVariantEC1ERKS1_)
    t._ZN5QHashIi8QVariantEC1Ev              0x0001a1ec   Section       28  qsqlquerymodel.o(t._ZN5QHashIi8QVariantEC1Ev)
    t._ZN5QHashIi8QVariantED1Ev              0x0001a208   Section       30  qsqlquerymodel.o(t._ZN5QHashIi8QVariantED1Ev)
    t._ZN5QHashIi8QVariantEixERKi            0x0001a226   Section      218  qsqlquerymodel.o(t._ZN5QHashIi8QVariantEixERKi)
    t._ZN5QHashIi8QVariantEixERKi.clean      0x0001a300   Section       24  qsqlquerymodel.o(t._ZN5QHashIi8QVariantEixERKi.clean)
    t._ZN5QListI7QStringE13detach_helperEi   0x0001a318   Section       94  qsql_sqlite.o(t._ZN5QListI7QStringE13detach_helperEi)
    t._ZN5QListI7QStringE13detach_helperEi.clean 0x0001a376   Section        8  qsql_sqlite.o(t._ZN5QListI7QStringE13detach_helperEi.clean)
    t._ZN5QListI7QStringE13detach_helperEv   0x0001a37e   Section       16  qsql_sqlite.o(t._ZN5QListI7QStringE13detach_helperEv)
    t._ZN5QListI7QStringE13node_destructEPNS1_4NodeES3_ 0x0001a38e   Section       26  qsql_sqlite.o(t._ZN5QListI7QStringE13node_destructEPNS1_4NodeES3_)
    t._ZN5QListI7QStringE14node_constructEPNS1_4NodeERKS0_ 0x0001a3a8   Section       36  qsql_sqlite.o(t._ZN5QListI7QStringE14node_constructEPNS1_4NodeERKS0_)
    t._ZN5QListI7QStringE14node_constructEPNS1_4NodeERKS0_.clean 0x0001a3cc   Section       14  qsql_sqlite.o(t._ZN5QListI7QStringE14node_constructEPNS1_4NodeERKS0_.clean)
    t._ZN5QListI7QStringE18detach_helper_growEii 0x0001a3da   Section      208  qsql_sqlite.o(t._ZN5QListI7QStringE18detach_helper_growEii)
    t._ZN5QListI7QStringE18detach_helper_growEii.clean 0x0001a4aa   Section       16  qsql_sqlite.o(t._ZN5QListI7QStringE18detach_helper_growEii.clean)
    t._ZN5QListI7QStringE4freeEPN9QListData4DataE 0x0001a4ba   Section       58  qsql_sqlite.o(t._ZN5QListI7QStringE4freeEPN9QListData4DataE)
    t._ZN5QListI7QStringE6appendERKS0_       0x0001a4f4   Section      120  qsql_sqlite.o(t._ZN5QListI7QStringE6appendERKS0_)
    t._ZN5QListI7QStringE6appendERKS0_.clean 0x0001a56c   Section       14  qsql_sqlite.o(t._ZN5QListI7QStringE6appendERKS0_.clean)
    t._ZN5QListI7QStringE7reserveEi          0x0001a57a   Section       46  qsqldatabase.o(t._ZN5QListI7QStringE7reserveEi)
    t._ZN5QListI7QStringE9node_copyEPNS1_4NodeES3_S3_ 0x0001a5a8   Section       82  qsql_sqlite.o(t._ZN5QListI7QStringE9node_copyEPNS1_4NodeES3_S3_)
    t._ZN5QListI7QStringE9node_copyEPNS1_4NodeES3_S3_.clean 0x0001a5fa   Section       22  qsql_sqlite.o(t._ZN5QListI7QStringE9node_copyEPNS1_4NodeES3_S3_.clean)
    t._ZN5QListI7QStringEC1Ev                0x0001a610   Section       24  qsqldatabase.o(t._ZN5QListI7QStringEC1Ev)
    t._ZN5QListI7QStringED1Ev                0x0001a628   Section       32  qsql_sqlite.o(t._ZN5QListI7QStringED1Ev)
    t._ZN5QListI7QStringEixEi                0x0001a648   Section      192  qsqlrelationaltablemodel.o(t._ZN5QListI7QStringEixEi)
    t._ZN5QListI8QVariantE4freeEPN9QListData4DataE 0x0001a708   Section       82  qsqlresult.o(t._ZN5QListI8QVariantE4freeEPN9QListData4DataE)
    t._ZN5QListI8QVariantED1Ev               0x0001a75a   Section       32  qsqlresult.o(t._ZN5QListI8QVariantED1Ev)
    t._ZN5QListIbE13detach_helperEi          0x0001a77a   Section       94  qsqlindex.o(t._ZN5QListIbE13detach_helperEi)
    t._ZN5QListIbE13detach_helperEi.clean    0x0001a7d8   Section        8  qsqlindex.o(t._ZN5QListIbE13detach_helperEi.clean)
    t._ZN5QListIbE13detach_helperEv          0x0001a7e0   Section       16  qsqlindex.o(t._ZN5QListIbE13detach_helperEv)
    t._ZN5QListIbE18detach_helper_growEii    0x0001a7f0   Section      204  qsqlindex.o(t._ZN5QListIbE18detach_helper_growEii)
    t._ZN5QListIbE18detach_helper_growEii.clean 0x0001a8bc   Section       16  qsqlindex.o(t._ZN5QListIbE18detach_helper_growEii.clean)
    t._ZN5QListIbE4freeEPN9QListData4DataE   0x0001a8cc   Section       58  qsqlindex.o(t._ZN5QListIbE4freeEPN9QListData4DataE)
    t._ZN5QListIbE6appendERKb                0x0001a908   Section      100  qsqlindex.o(t._ZN5QListIbE6appendERKb)
    t._ZN5QListIbE6appendERKb.clean          0x0001a96c   Section       10  qsqlindex.o(t._ZN5QListIbE6appendERKb.clean)
    t._ZN5QListIbE9node_copyEPNS0_4NodeES2_S2_ 0x0001a976   Section       46  qsqlindex.o(t._ZN5QListIbE9node_copyEPNS0_4NodeES2_S2_)
    t._ZN5QListIbED1Ev                       0x0001a9a4   Section       32  qsqlindex.o(t._ZN5QListIbED1Ev)
    t._ZN6QStackI7QVectorIP25QPersistentModelIndexDataEEC1Ev 0x0001a9c4   Section       24  qsqlquerymodel.o(t._ZN6QStackI7QVectorIP25QPersistentModelIndexDataEEC1Ev)
    t._ZN6QStackI7QVectorIP25QPersistentModelIndexDataEED1Ev 0x0001a9dc   Section       14  qsqlquerymodel.o(t._ZN6QStackI7QVectorIP25QPersistentModelIndexDataEED1Ev)
    t._ZN6QStackIN25QAbstractItemModelPrivate6ChangeEED1Ev 0x0001a9ea   Section       14  qsqlquerymodel.o(t._ZN6QStackIN25QAbstractItemModelPrivate6ChangeEED1Ev)
    t._ZN7QVectorI5QHashIi8QVariantEE13detach_helperEv 0x0001a9f8   Section       18  qsqlquerymodel.o(t._ZN7QVectorI5QHashIi8QVariantEE13detach_helperEv)
    t._ZN7QVectorI5QHashIi8QVariantEE4freeEP16QVectorTypedDataIS2_E 0x0001aa0a   Section       52  qsqlquerymodel.o(t._ZN7QVectorI5QHashIi8QVariantEE4freeEP16QVectorTypedDataIS2_E)
    t._ZN7QVectorI5QHashIi8QVariantEE6mallocEi 0x0001aa3e   Section       52  qsqlquerymodel.o(t._ZN7QVectorI5QHashIi8QVariantEE6mallocEi)
    t._ZN7QVectorI5QHashIi8QVariantEE6resizeEi 0x0001aa72   Section       82  qsqlquerymodel.o(t._ZN7QVectorI5QHashIi8QVariantEE6resizeEi)
    t._ZN7QVectorI5QHashIi8QVariantEE7reallocEii 0x0001aac4   Section      568  qsqlquerymodel.o(t._ZN7QVectorI5QHashIi8QVariantEE7reallocEii)
    t._ZN7QVectorI5QHashIi8QVariantEE7reallocEii.clean 0x0001acfc   Section       32  qsqlquerymodel.o(t._ZN7QVectorI5QHashIi8QVariantEE7reallocEii.clean)
    t._ZN7QVectorI5QHashIi8QVariantEEC1Ev    0x0001ad1c   Section       24  qsqlquerymodel.o(t._ZN7QVectorI5QHashIi8QVariantEEC1Ev)
    t._ZN7QVectorI5QHashIi8QVariantEED1Ev    0x0001ad34   Section       34  qsqlquerymodel.o(t._ZN7QVectorI5QHashIi8QVariantEED1Ev)
    t._ZN7QVectorI5QHashIi8QVariantEEaSERKS3_ 0x0001ad56   Section       54  qsqlquerymodel.o(t._ZN7QVectorI5QHashIi8QVariantEEaSERKS3_)
    t._ZN7QVectorI7QHolderE13detach_helperEv 0x0001ad8c   Section       18  qsqlresult.o(t._ZN7QVectorI7QHolderE13detach_helperEv)
    t._ZN7QVectorI7QHolderE4freeEP16QVectorTypedDataIS0_E 0x0001ad9e   Section       52  qsqlresult.o(t._ZN7QVectorI7QHolderE4freeEP16QVectorTypedDataIS0_E)
    t._ZN7QVectorI7QHolderE6appendERKS0_     0x0001add2   Section      180  qsqlresult.o(t._ZN7QVectorI7QHolderE6appendERKS0_)
    t._ZN7QVectorI7QHolderE6appendERKS0_.clean 0x0001ae86   Section       28  qsqlresult.o(t._ZN7QVectorI7QHolderE6appendERKS0_.clean)
    t._ZN7QVectorI7QHolderE6mallocEi         0x0001aea2   Section       52  qsqlresult.o(t._ZN7QVectorI7QHolderE6mallocEi)
    t._ZN7QVectorI7QHolderE7reallocEii       0x0001aed8   Section      596  qsqlresult.o(t._ZN7QVectorI7QHolderE7reallocEii)
    t._ZN7QVectorI7QHolderE7reallocEii.clean 0x0001b12c   Section       42  qsqlresult.o(t._ZN7QVectorI7QHolderE7reallocEii.clean)
    t._ZN7QVectorI7QHolderEC1Ev              0x0001b158   Section       24  qsqlresult.o(t._ZN7QVectorI7QHolderEC1Ev)
    t._ZN7QVectorI7QHolderED1Ev              0x0001b170   Section       34  qsqlresult.o(t._ZN7QVectorI7QHolderED1Ev)
    t._ZN7QVectorI7QHolderEaSERKS1_          0x0001b192   Section       54  qsqlresult.o(t._ZN7QVectorI7QHolderEaSERKS1_)
    t._ZN7QVectorI8QVariantE13detach_helperEv 0x0001b1c8   Section       18  qsql_sqlite.o(t._ZN7QVectorI8QVariantE13detach_helperEv)
    t._ZN7QVectorI8QVariantE4freeEP16QVectorTypedDataIS0_E 0x0001b1da   Section       52  qsql_sqlite.o(t._ZN7QVectorI8QVariantE4freeEP16QVectorTypedDataIS0_E)
    t._ZN7QVectorI8QVariantE5clearEv         0x0001b20e   Section       28  qsqlcachedresult.o(t._ZN7QVectorI8QVariantE5clearEv)
    t._ZN7QVectorI8QVariantE5clearEv.clean   0x0001b22a   Section       10  qsqlcachedresult.o(t._ZN7QVectorI8QVariantE5clearEv.clean)
    t._ZN7QVectorI8QVariantE6appendERKS0_    0x0001b234   Section      184  qsqlresult.o(t._ZN7QVectorI8QVariantE6appendERKS0_)
    t._ZN7QVectorI8QVariantE6appendERKS0_.clean 0x0001b2ec   Section       28  qsqlresult.o(t._ZN7QVectorI8QVariantE6appendERKS0_.clean)
    t._ZN7QVectorI8QVariantE6mallocEi        0x0001b308   Section       52  qsql_sqlite.o(t._ZN7QVectorI8QVariantE6mallocEi)
    t._ZN7QVectorI8QVariantE6resizeEi        0x0001b33c   Section       82  qsql_sqlite.o(t._ZN7QVectorI8QVariantE6resizeEi)
    t._ZN7QVectorI8QVariantE7reallocEii      0x0001b390   Section      708  qsqlresult.o(t._ZN7QVectorI8QVariantE7reallocEii)
    t._ZN7QVectorI8QVariantE7reallocEii.clean 0x0001b654   Section       36  qsqlresult.o(t._ZN7QVectorI8QVariantE7reallocEii.clean)
    t._ZN7QVectorI8QVariantEC1Ev             0x0001b678   Section       24  qsql_sqlite.o(t._ZN7QVectorI8QVariantEC1Ev)
    t._ZN7QVectorI8QVariantED1Ev             0x0001b690   Section       34  qsql_sqlite.o(t._ZN7QVectorI8QVariantED1Ev)
    t._ZN7QVectorI8QVariantEaSERKS1_         0x0001b6b2   Section       54  qsql_sqlite.o(t._ZN7QVectorI8QVariantEaSERKS1_)
    t._ZN7QVectorI8QVariantEixEi             0x0001b6e8   Section      180  qsql_sqlite.o(t._ZN7QVectorI8QVariantEixEi)
    t._ZN7QVectorI9QRelationE13detach_helperEv 0x0001b79c   Section       18  qsqlrelationaltablemodel.o(t._ZN7QVectorI9QRelationE13detach_helperEv)
    t._ZN7QVectorI9QRelationE4freeEP16QVectorTypedDataIS0_E 0x0001b7ae   Section       54  qsqlrelationaltablemodel.o(t._ZN7QVectorI9QRelationE4freeEP16QVectorTypedDataIS0_E)
    t._ZN7QVectorI9QRelationE5eraseEPS0_S2_  0x0001b7e4   Section      254  qsqlrelationaltablemodel.o(t._ZN7QVectorI9QRelationE5eraseEPS0_S2_)
    t._ZN7QVectorI9QRelationE6detachEv       0x0001b8e2   Section       24  qsqlrelationaltablemodel.o(t._ZN7QVectorI9QRelationE6detachEv)
    t._ZN7QVectorI9QRelationE6mallocEi       0x0001b8fa   Section       54  qsqlrelationaltablemodel.o(t._ZN7QVectorI9QRelationE6mallocEi)
    t._ZN7QVectorI9QRelationE6removeEi       0x0001b930   Section      192  qsqlrelationaltablemodel.o(t._ZN7QVectorI9QRelationE6removeEi)
    t._ZN7QVectorI9QRelationE6resizeEi       0x0001b9f0   Section       82  qsqlrelationaltablemodel.o(t._ZN7QVectorI9QRelationE6resizeEi)
    t._ZN7QVectorI9QRelationE7reallocEii     0x0001ba44   Section      568  qsqlrelationaltablemodel.o(t._ZN7QVectorI9QRelationE7reallocEii)
    t._ZN7QVectorI9QRelationE7reallocEii.clean 0x0001bc7c   Section       32  qsqlrelationaltablemodel.o(t._ZN7QVectorI9QRelationE7reallocEii.clean)
    t._ZN7QVectorI9QRelationEC1Ev            0x0001bc9c   Section       24  qsqlrelationaltablemodel.o(t._ZN7QVectorI9QRelationEC1Ev)
    t._ZN7QVectorI9QRelationED1Ev            0x0001bcb4   Section       34  qsqlrelationaltablemodel.o(t._ZN7QVectorI9QRelationED1Ev)
    t._ZN7QVectorI9QRelationEaSERKS1_        0x0001bcd6   Section       54  qsqlrelationaltablemodel.o(t._ZN7QVectorI9QRelationEaSERKS1_)
    t._ZN7QVectorI9QRelationEixEi            0x0001bd0c   Section      168  qsqlrelationaltablemodel.o(t._ZN7QVectorI9QRelationEixEi)
    t._ZN7QVectorI9QSqlFieldE13detach_helperEv 0x0001bdb4   Section       18  qsqlrecord.o(t._ZN7QVectorI9QSqlFieldE13detach_helperEv)
    t._ZN7QVectorI9QSqlFieldE4freeEP16QVectorTypedDataIS0_E 0x0001bdc6   Section       54  qsqlrecord.o(t._ZN7QVectorI9QSqlFieldE4freeEP16QVectorTypedDataIS0_E)
    t._ZN7QVectorI9QSqlFieldE5eraseEPS0_S2_  0x0001bdfc   Section      216  qsqlrecord.o(t._ZN7QVectorI9QSqlFieldE5eraseEPS0_S2_)
    t._ZN7QVectorI9QSqlFieldE6appendERKS0_   0x0001bed4   Section      188  qsqlrecord.o(t._ZN7QVectorI9QSqlFieldE6appendERKS0_)
    t._ZN7QVectorI9QSqlFieldE6appendERKS0_.clean 0x0001bf90   Section       28  qsqlrecord.o(t._ZN7QVectorI9QSqlFieldE6appendERKS0_.clean)
    t._ZN7QVectorI9QSqlFieldE6detachEv       0x0001bfac   Section       24  qsqlrecord.o(t._ZN7QVectorI9QSqlFieldE6detachEv)
    t._ZN7QVectorI9QSqlFieldE6insertEPS0_iRKS0_ 0x0001bfc4   Section      392  qsqlrecord.o(t._ZN7QVectorI9QSqlFieldE6insertEPS0_iRKS0_)
    t._ZN7QVectorI9QSqlFieldE6insertEPS0_iRKS0_.clean 0x0001c14c   Section       28  qsqlrecord.o(t._ZN7QVectorI9QSqlFieldE6insertEPS0_iRKS0_.clean)
    t._ZN7QVectorI9QSqlFieldE6mallocEi       0x0001c168   Section       54  qsqlrecord.o(t._ZN7QVectorI9QSqlFieldE6mallocEi)
    t._ZN7QVectorI9QSqlFieldE6removeEi       0x0001c1a0   Section      192  qsqlrecord.o(t._ZN7QVectorI9QSqlFieldE6removeEi)
    t._ZN7QVectorI9QSqlFieldE7reallocEii     0x0001c260   Section      608  qsqlrecord.o(t._ZN7QVectorI9QSqlFieldE7reallocEii)
    t._ZN7QVectorI9QSqlFieldE7reallocEii.clean 0x0001c4c0   Section       42  qsqlrecord.o(t._ZN7QVectorI9QSqlFieldE7reallocEii.clean)
    t._ZN7QVectorI9QSqlFieldEC1Ev            0x0001c4ec   Section       24  qsqlrecord.o(t._ZN7QVectorI9QSqlFieldEC1Ev)
    t._ZN7QVectorI9QSqlFieldED1Ev            0x0001c504   Section       34  qsqlrecord.o(t._ZN7QVectorI9QSqlFieldED1Ev)
    t._ZN7QVectorI9QSqlFieldEaSERKS1_        0x0001c526   Section       54  qsqlrecord.o(t._ZN7QVectorI9QSqlFieldEaSERKS1_)
    t._ZN7QVectorI9QSqlFieldEixEi            0x0001c55c   Section      168  qsqlrecord.o(t._ZN7QVectorI9QSqlFieldEixEi)
    t._ZN7QVectorIN25QAbstractItemModelPrivate6ChangeEE4freeEP16QVectorTypedDataIS1_E 0x0001c604   Section       58  qsqlquerymodel.o(t._ZN7QVectorIN25QAbstractItemModelPrivate6ChangeEE4freeEP16QVectorTypedDataIS1_E)
    t._ZN7QVectorIN25QAbstractItemModelPrivate6ChangeEED1Ev 0x0001c63e   Section       34  qsqlquerymodel.o(t._ZN7QVectorIN25QAbstractItemModelPrivate6ChangeEED1Ev)
    t._ZN7QVectorIP25QPersistentModelIndexDataE4freeEP16QVectorTypedDataIS1_E 0x0001c660   Section       24  qsqlquerymodel.o(t._ZN7QVectorIP25QPersistentModelIndexDataE4freeEP16QVectorTypedDataIS1_E)
    t._ZN7QVectorIS_IP25QPersistentModelIndexDataEE4freeEP16QVectorTypedDataIS2_E 0x0001c678   Section       76  qsqlquerymodel.o(t._ZN7QVectorIS_IP25QPersistentModelIndexDataEE4freeEP16QVectorTypedDataIS2_E)
    t._ZN7QVectorIS_IP25QPersistentModelIndexDataEED1Ev 0x0001c6c4   Section       34  qsqlquerymodel.o(t._ZN7QVectorIS_IP25QPersistentModelIndexDataEED1Ev)
    t._ZN9QHashNodeI7QString12QSqlDatabaseEC1ERKS0_RKS1_ 0x0001c6e6   Section       40  qsqldatabase.o(t._ZN9QHashNodeI7QString12QSqlDatabaseEC1ERKS0_RKS1_)
    t._ZN9QHashNodeI7QString12QSqlDatabaseEC1ERKS0_RKS1_.clean 0x0001c70e   Section       12  qsqldatabase.o(t._ZN9QHashNodeI7QString12QSqlDatabaseEC1ERKS0_RKS1_.clean)
    t._ZN9QHashNodeI7QString8QVariantEC1ERKS0_RKS1_ 0x0001c71a   Section       40  qsqlrelationaltablemodel.o(t._ZN9QHashNodeI7QString8QVariantEC1ERKS0_RKS1_)
    t._ZN9QHashNodeI7QString8QVariantEC1ERKS0_RKS1_.clean 0x0001c742   Section       12  qsqlrelationaltablemodel.o(t._ZN9QHashNodeI7QString8QVariantEC1ERKS0_RKS1_.clean)
    t._ZN9QHashNodeI7QStringP21QSqlDriverCreatorBaseEC1ERKS0_RKS2_ 0x0001c74e   Section       30  qsqldatabase.o(t._ZN9QHashNodeI7QStringP21QSqlDriverCreatorBaseEC1ERKS0_RKS2_)
    t._ZN9QHashNodeI7QStringiEC1ERKS0_RKi    0x0001c76c   Section       30  qsqlresult.o(t._ZN9QHashNodeI7QStringiEC1ERKS0_RKi)
    t._ZN9QHashNodeIi8QVariantEC1EiRKS0_     0x0001c78a   Section       26  qsqlquerymodel.o(t._ZN9QHashNodeIi8QVariantEC1EiRKS0_)
    t._ZNK14QScopedPointerI11QObjectData21QScopedPointerDeleterIS0_EEptEv 0x0001c7a4   Section       40  moc_qsqldriver.o(t._ZNK14QScopedPointerI11QObjectData21QScopedPointerDeleterIS0_EEptEv)
    t._ZNK14QStringBuilderI13QLatin1String7QStringEcvS1_Ev 0x0001c7cc   Section      216  qsqltablemodel.o(t._ZNK14QStringBuilderI13QLatin1String7QStringEcvS1_Ev)
    t._ZNK14QStringBuilderI13QLatin1String7QStringEcvS1_Ev.clean 0x0001c8a4   Section       10  qsqltablemodel.o(t._ZNK14QStringBuilderI13QLatin1String7QStringEcvS1_Ev.clean)
    t._ZNK14QStringBuilderI7QString11QLatin1CharEcvS0_Ev 0x0001c8ae   Section      176  qsqlrecord.o(t._ZNK14QStringBuilderI7QString11QLatin1CharEcvS0_Ev)
    t._ZNK14QStringBuilderI7QString11QLatin1CharEcvS0_Ev.clean 0x0001c95e   Section       10  qsqlrecord.o(t._ZNK14QStringBuilderI7QString11QLatin1CharEcvS0_Ev.clean)
    t._ZNK14QStringBuilderIS_I11QLatin1Char7QStringES0_EcvS1_Ev 0x0001c968   Section      162  qsqldriver.o(t._ZNK14QStringBuilderIS_I11QLatin1Char7QStringES0_EcvS1_Ev)
    t._ZNK14QStringBuilderIS_I11QLatin1Char7QStringES0_EcvS1_Ev.clean 0x0001ca0a   Section       10  qsqldriver.o(t._ZNK14QStringBuilderIS_I11QLatin1Char7QStringES0_EcvS1_Ev.clean)
    t._ZNK14QStringBuilderIS_IS_IS_I13QLatin1String7QStringES0_ES1_ES0_EcvS1_Ev 0x0001ca14   Section      208  qsql_sqlite.o(t._ZNK14QStringBuilderIS_IS_IS_I13QLatin1String7QStringES0_ES1_ES0_EcvS1_Ev)
    t._ZNK14QStringBuilderIS_IS_IS_I13QLatin1String7QStringES0_ES1_ES0_EcvS1_Ev.clean 0x0001cae4   Section       10  qsql_sqlite.o(t._ZNK14QStringBuilderIS_IS_IS_I13QLatin1String7QStringES0_ES1_ES0_EcvS1_Ev.clean)
    t._ZNK4QMapI7QString8QVariantE15mutableFindNodeEPPN8QMapData4NodeERKS0_ 0x0001caee   Section      116  qsqlquery.o(t._ZNK4QMapI7QString8QVariantE15mutableFindNodeEPPN8QMapData4NodeERKS0_)
    t._ZNK4QMapIiN21QSqlTableModelPrivate11ModifiedRowEE14const_iteratorneERKS3_ 0x0001cb62   Section       18  qsqltablemodel.o(t._ZNK4QMapIiN21QSqlTableModelPrivate11ModifiedRowEE14const_iteratorneERKS3_)
    t._ZNK4QMapIiN21QSqlTableModelPrivate11ModifiedRowEE15mutableFindNodeEPPN8QMapData4NodeERKi 0x0001cb74   Section      108  qsqltablemodel.o(t._ZNK4QMapIiN21QSqlTableModelPrivate11ModifiedRowEE15mutableFindNodeEPPN8QMapData4NodeERKi)
    t._ZNK4QMapIiN21QSqlTableModelPrivate11ModifiedRowEE5valueERKi 0x0001cbe0   Section       84  qsqltablemodel.o(t._ZNK4QMapIiN21QSqlTableModelPrivate11ModifiedRowEE5valueERKi)
    t._ZNK4QMapIiN21QSqlTableModelPrivate11ModifiedRowEE5valueERKi.clean 0x0001cc34   Section       10  qsqltablemodel.o(t._ZNK4QMapIiN21QSqlTableModelPrivate11ModifiedRowEE5valueERKi.clean)
    t._ZNK4QMapIiN21QSqlTableModelPrivate11ModifiedRowEE7isEmptyEv 0x0001cc3e   Section       18  qsqltablemodel.o(t._ZNK4QMapIiN21QSqlTableModelPrivate11ModifiedRowEE7isEmptyEv)
    t._ZNK4QMapIiN21QSqlTableModelPrivate11ModifiedRowEE8findNodeERKi 0x0001cc50   Section      104  qsqltablemodel.o(t._ZNK4QMapIiN21QSqlTableModelPrivate11ModifiedRowEE8findNodeERKi)
    t._ZNK4QMapIiN21QSqlTableModelPrivate11ModifiedRowEE8iterator3keyEv 0x0001ccb8   Section       12  qsqltablemodel.o(t._ZNK4QMapIiN21QSqlTableModelPrivate11ModifiedRowEE8iterator3keyEv)
    t._ZNK4QMapIiN21QSqlTableModelPrivate11ModifiedRowEE8iteratoreqERKS3_ 0x0001ccc4   Section       18  qsqltablemodel.o(t._ZNK4QMapIiN21QSqlTableModelPrivate11ModifiedRowEE8iteratoreqERKS3_)
    t._ZNK4QMapIiN21QSqlTableModelPrivate11ModifiedRowEE8iteratorneERKS3_ 0x0001ccd6   Section       18  qsqltablemodel.o(t._ZNK4QMapIiN21QSqlTableModelPrivate11ModifiedRowEE8iteratorneERKS3_)
    t._ZNK5QHashI7QString12QSqlDatabaseE4keysEv 0x0001cce8   Section      108  qsqldatabase.o(t._ZNK5QHashI7QString12QSqlDatabaseE4keysEv)
    t._ZNK5QHashI7QString12QSqlDatabaseE4keysEv.clean 0x0001cd54   Section       10  qsqldatabase.o(t._ZNK5QHashI7QString12QSqlDatabaseE4keysEv.clean)
    t._ZNK5QHashI7QString12QSqlDatabaseE8containsERKS0_ 0x0001cd5e   Section       32  qsqldatabase.o(t._ZNK5QHashI7QString12QSqlDatabaseE8containsERKS0_)
    t._ZNK5QHashI7QString12QSqlDatabaseE8findNodeERKS0_Pj 0x0001cd80   Section      240  qsqldatabase.o(t._ZNK5QHashI7QString12QSqlDatabaseE8findNodeERKS0_Pj)
    t._ZNK5QHashI7QString8QVariantE8findNodeERKS0_Pj 0x0001ce70   Section      240  qsqlrelationaltablemodel.o(t._ZNK5QHashI7QString8QVariantE8findNodeERKS0_Pj)
    t._ZNK5QHashI7QStringP21QSqlDriverCreatorBaseE14const_iteratorneERKS4_ 0x0001cf60   Section       18  qsqldatabase.o(t._ZNK5QHashI7QStringP21QSqlDriverCreatorBaseE14const_iteratorneERKS4_)
    t._ZNK5QHashI7QStringP21QSqlDriverCreatorBaseE8findNodeERKS0_Pj 0x0001cf74   Section      240  qsqldatabase.o(t._ZNK5QHashI7QStringP21QSqlDriverCreatorBaseE8findNodeERKS0_Pj)
    t._ZNK5QHashI7QStringiE3keyERKi          0x0001d064   Section       36  qsqlresult.o(t._ZNK5QHashI7QStringiE3keyERKi)
    t._ZNK5QHashI7QStringiE3keyERKi.clean    0x0001d088   Section       10  qsqlresult.o(t._ZNK5QHashI7QStringiE3keyERKi.clean)
    t._ZNK5QHashI7QStringiE3keyERKiRKS0_     0x0001d092   Section      120  qsqlresult.o(t._ZNK5QHashI7QStringiE3keyERKiRKS0_)
    t._ZNK5QHashI7QStringiE5valueERKS0_      0x0001d10a   Section       40  qsqlrelationaltablemodel.o(t._ZNK5QHashI7QStringiE5valueERKS0_)
    t._ZNK5QHashI7QStringiE5valueERKS0_RKi   0x0001d132   Section       42  qsqlresult.o(t._ZNK5QHashI7QStringiE5valueERKS0_RKi)
    t._ZNK5QHashI7QStringiE8findNodeERKS0_Pj 0x0001d15c   Section      240  qsqlresult.o(t._ZNK5QHashI7QStringiE8findNodeERKS0_Pj)
    t._ZNK5QHashIi6QFlagsIN4QSql13ParamTypeFlagEEE5valueERKiRKS3_ 0x0001d24c   Section       68  qsqlresult.o(t._ZNK5QHashIi6QFlagsIN4QSql13ParamTypeFlagEEE5valueERKiRKS3_)
    t._ZNK5QHashIi6QFlagsIN4QSql13ParamTypeFlagEEE7isEmptyEv 0x0001d290   Section       18  qsqlresult.o(t._ZNK5QHashIi6QFlagsIN4QSql13ParamTypeFlagEEE7isEmptyEv)
    t._ZNK5QHashIi6QFlagsIN4QSql13ParamTypeFlagEEE8findNodeERKiPj 0x0001d2a4   Section      216  qsqlresult.o(t._ZNK5QHashIi6QFlagsIN4QSql13ParamTypeFlagEEE8findNodeERKiPj)
    t._ZNK5QHashIi8QVariantE5valueERKi       0x0001d37c   Section       58  qsqlquerymodel.o(t._ZNK5QHashIi8QVariantE5valueERKi)
    t._ZNK5QHashIi8QVariantE8findNodeERKiPj  0x0001d3b8   Section      216  qsqlquerymodel.o(t._ZNK5QHashIi8QVariantE8findNodeERKiPj)
    t._ZNK7QVectorI5QHashIi8QVariantEE5valueEi 0x0001d490   Section       48  qsqlquerymodel.o(t._ZNK7QVectorI5QHashIi8QVariantEE5valueEi)
    t._ZNK7QVectorI7QHolderE2atEi            0x0001d4c0   Section      148  qsqlresult.o(t._ZNK7QVectorI7QHolderE2atEi)
    t._ZNK7QVectorI8QVariantE2atEi           0x0001d554   Section      148  qsqlresult.o(t._ZNK7QVectorI8QVariantE2atEi)
    t._ZNK7QVectorI8QVariantE5valueEi        0x0001d5e8   Section       48  qsqlresult.o(t._ZNK7QVectorI8QVariantE5valueEi)
    t._ZNK7QVectorI9QRelationE5valueEi       0x0001d618   Section       50  qsqlrelationaltablemodel.o(t._ZNK7QVectorI9QRelationE5valueEi)
    t._ZNK7QVectorI9QRelationE5valueEiRKS0_  0x0001d64a   Section       48  qsqlrelationaltablemodel.o(t._ZNK7QVectorI9QRelationE5valueEiRKS0_)
    t._ZNK7QVectorI9QSqlFieldE2atEi          0x0001d67c   Section      152  qsqlrecord.o(t._ZNK7QVectorI9QSqlFieldE2atEi)
    t._ZNK7QVectorI9QSqlFieldE5valueEi       0x0001d714   Section       68  qsqlrecord.o(t._ZNK7QVectorI9QSqlFieldE5valueEi)
    t._ZNK7QVectorI9QSqlFieldE5valueEi.clean 0x0001d758   Section       10  qsqlrecord.o(t._ZNK7QVectorI9QSqlFieldE5valueEi.clean)
    t._ZNK7QVectorI9QSqlFieldEeqERKS1_       0x0001d762   Section      108  qsqlrecord.o(t._ZNK7QVectorI9QSqlFieldEeqERKS1_)
    t._ZplI11QLatin1Char7QStringE14QStringBuilderIN13QConcatenableIT_E4typeENS3_IT0_E4typeEERKS4_RKS7_ 0x0001d7ce   Section       18  qsqldriver.o(t._ZplI11QLatin1Char7QStringE14QStringBuilderIN13QConcatenableIT_E4typeENS3_IT0_E4typeEERKS4_RKS7_)
    t._ZplI13QLatin1String7QStringE14QStringBuilderIN13QConcatenableIT_E4typeENS3_IT0_E4typeEERKS4_RKS7_ 0x0001d7e0   Section       18  qsql_sqlite.o(t._ZplI13QLatin1String7QStringE14QStringBuilderIN13QConcatenableIT_E4typeENS3_IT0_E4typeEERKS4_RKS7_)
    t._ZplI14QStringBuilderI11QLatin1Char7QStringES1_ES0_IN13QConcatenableIT_E4typeENS4_IT0_E4typeEERKS5_RKS8_ 0x0001d7f2   Section       18  qsqldriver.o(t._ZplI14QStringBuilderI11QLatin1Char7QStringES1_ES0_IN13QConcatenableIT_E4typeENS4_IT0_E4typeEERKS5_RKS8_)
    t._ZplI14QStringBuilderI13QLatin1String7QStringES1_ES0_IN13QConcatenableIT_E4typeENS4_IT0_E4typeEERKS5_RKS8_ 0x0001d804   Section       18  qsql_sqlite.o(t._ZplI14QStringBuilderI13QLatin1String7QStringES1_ES0_IN13QConcatenableIT_E4typeENS4_IT0_E4typeEERKS5_RKS8_)
    t._ZplI14QStringBuilderIS0_I13QLatin1String7QStringES1_ES2_ES0_IN13QConcatenableIT_E4typeENS5_IT0_E4typeEERKS6_RKS9_ 0x0001d816   Section       18  qsql_sqlite.o(t._ZplI14QStringBuilderIS0_I13QLatin1String7QStringES1_ES2_ES0_IN13QConcatenableIT_E4typeENS5_IT0_E4typeEERKS6_RKS9_)
    t._ZplI14QStringBuilderIS0_IS0_I13QLatin1String7QStringES1_ES2_ES1_ES0_IN13QConcatenableIT_E4typeENS6_IT0_E4typeEERKS7_RKSA_ 0x0001d828   Section       18  qsql_sqlite.o(t._ZplI14QStringBuilderIS0_IS0_I13QLatin1String7QStringES1_ES2_ES1_ES0_IN13QConcatenableIT_E4typeENS6_IT0_E4typeEERKS7_RKSA_)
    t._ZplI7QString11QLatin1CharE14QStringBuilderIN13QConcatenableIT_E4typeENS3_IT0_E4typeEERKS4_RKS7_ 0x0001d83a   Section       18  qsqlrecord.o(t._ZplI7QString11QLatin1CharE14QStringBuilderIN13QConcatenableIT_E4typeENS3_IT0_E4typeEERKS4_RKS7_)
    .extab._Z19_q_escapeIdentifierRK7QString 0x0001d84c   Data           0  qsql_sqlite.o(.ARM.extab)
    .extab._Z14qGetColumnTypeRK7QString      0x0001d89c   Data           0  qsql_sqlite.o(.ARM.extab)
    .extab._Z10qMakeErrorP7sqlite3RK7QStringN9QSqlError9ErrorTypeEi 0x0001d8bc   Data           0  qsql_sqlite.o(.ARM.extab)
    .extab._Z13qGetTableInfoR9QSqlQueryRK7QStringb 0x0001d8cc   Data           0  qsql_sqlite.o(.ARM.extab)
    .extab._ZN20QSQLiteResultPrivateC1EP13QSQLiteResult 0x0001d9e4   Data           0  qsql_sqlite.o(.ARM.extab)
    .extab._ZN13QSQLiteResultC1EPK13QSQLiteDriver 0x0001d9f4   Data           0  qsql_sqlite.o(.ARM.extab)
    .extab._ZN13QSQLiteResultD1Ev            0x0001da0c   Data           0  qsql_sqlite.o(.ARM.extab)
    .extab._ZN20QSQLiteResultPrivate11initColumnsEb 0x0001da24   Data           0  qsql_sqlite.o(.ARM.extab)
    .extab._ZN20QSQLiteResultPrivate9fetchNextER7QVectorI8QVariantEib 0x0001da6c   Data           0  qsql_sqlite.o(.ARM.extab)
    .extab._ZN13QSQLiteResult7prepareERK7QString 0x0001db2c   Data           0  qsql_sqlite.o(.ARM.extab)
    .extab._ZN13QSQLiteResult4execEv         0x0001db4c   Data           0  qsql_sqlite.o(.ARM.extab)
    .extab._ZN13QSQLiteDriverC1EP7QObject    0x0001dc4c   Data           0  qsql_sqlite.o(.ARM.extab)
    .extab._ZN13QSQLiteDriverC1EP7sqlite3P7QObject 0x0001dc5c   Data           0  qsql_sqlite.o(.ARM.extab)
    .extab._ZN13QSQLiteDriver4openERK7QStringS2_S2_S2_iS2_ 0x0001dc6c   Data           0  qsql_sqlite.o(.ARM.extab)
    .extab._ZN13QSQLiteDriver5closeEv        0x0001dce4   Data           0  qsql_sqlite.o(.ARM.extab)
    .extab._ZNK13QSQLiteDriver12createResultEv 0x0001dd04   Data           0  qsql_sqlite.o(.ARM.extab)
    .extab._ZN13QSQLiteDriver16beginTransactionEv 0x0001dd14   Data           0  qsql_sqlite.o(.ARM.extab)
    .extab._ZN13QSQLiteDriver17commitTransactionEv 0x0001dd74   Data           0  qsql_sqlite.o(.ARM.extab)
    .extab._ZN13QSQLiteDriver19rollbackTransactionEv 0x0001ddd4   Data           0  qsql_sqlite.o(.ARM.extab)
    .extab._ZNK13QSQLiteDriver6tablesEN4QSql9TableTypeE 0x0001de34   Data           0  qsql_sqlite.o(.ARM.extab)
    .extab._ZNK13QSQLiteDriver6recordERK7QString 0x0001defc   Data           0  qsql_sqlite.o(.ARM.extab)
    .extab._ZNK13QSQLiteDriver12primaryIndexERK7QString 0x0001df3c   Data           0  qsql_sqlite.o(.ARM.extab)
    .extab._ZN5QListI7QStringE9node_copyEPNS1_4NodeES3_S3_ 0x0001df84   Data           0  qsql_sqlite.o(.ARM.extab)
    .extab._ZN5QListI7QStringE13detach_helperEi 0x0001dfa8   Data           0  qsql_sqlite.o(.ARM.extab)
    .extab._ZN5QListI7QStringE14node_constructEPNS1_4NodeERKS0_ 0x0001dfc4   Data           0  qsql_sqlite.o(.ARM.extab)
    .extab._ZN5QListI7QStringE18detach_helper_growEii 0x0001dfd4   Data           0  qsql_sqlite.o(.ARM.extab)
    .extab._ZN5QListI7QStringE6appendERKS0_  0x0001e004   Data           0  qsql_sqlite.o(.ARM.extab)
    .extab._ZNK14QStringBuilderIS_IS_IS_I13QLatin1String7QStringES0_ES1_ES0_EcvS1_Ev 0x0001e034   Data           0  qsql_sqlite.o(.ARM.extab)
    .extab._Z10nullDriverv                   0x0001e044   Data           0  qsqlquery.o(.ARM.extab)
    .extab._Z10nullResultv                   0x0001e05c   Data           0  qsqlquery.o(.ARM.extab)
    .extab._Z16nullQueryPrivatev             0x0001e074   Data           0  qsqlquery.o(.ARM.extab)
    .extab._ZN9QSqlQueryC1EP10QSqlResult     0x0001e08c   Data           0  qsqlquery.o(.ARM.extab)
    .extab._ZN9QSqlQuery4execERK7QString     0x0001e09c   Data           0  qsqlquery.o(.ARM.extab)
    .extab._Z5qInitP9QSqlQueryRK7QString12QSqlDatabase 0x0001e0dc   Data           0  qsqlquery.o(.ARM.extab)
    .extab._ZN9QSqlQueryC1ERK7QString12QSqlDatabase 0x0001e11c   Data           0  qsqlquery.o(.ARM.extab)
    .extab._ZN9QSqlQueryC1E12QSqlDatabase    0x0001e12c   Data           0  qsqlquery.o(.ARM.extab)
    .extab._ZNK9QSqlQuery6recordEv           0x0001e14c   Data           0  qsqlquery.o(.ARM.extab)
    .extab._ZN9QSqlQuery5clearEv             0x0001e16c   Data           0  qsqlquery.o(.ARM.extab)
    .extab._ZN9QSqlQuery4execEv              0x0001e17c   Data           0  qsqlquery.o(.ARM.extab)
    .extab._ZN9QSqlQuery7prepareERK7QString  0x0001e1b4   Data           0  qsqlquery.o(.ARM.extab)
    .extab._ZNK9QSqlQuery11boundValuesEv     0x0001e1ec   Data           0  qsqlquery.o(.ARM.extab)
    .extab._ZN9QSqlQuery6finishEv            0x0001e224   Data           0  qsqlquery.o(.ARM.extab)
    .extab._ZN14QSqlNullResultC1EPK10QSqlDriver 0x0001e254   Data           0  qsqlquery.o(.ARM.extab)
    .extab._ZN4QMapI7QString8QVariantE11node_createEP8QMapDataPPNS3_4NodeERKS0_RKS1_ 0x0001e294   Data           0  qsqlquery.o(.ARM.extab)
    .extab._ZN4QMapI7QString8QVariantE13detach_helperEv 0x0001e2e0   Data           0  qsqlquery.o(.ARM.extab)
    .extab._ZN14QSqlNullDriverC1Ev           0x0001e2fc   Data           0  qsqlquery.o(.ARM.extab)
    .extab._ZNK14QSqlNullDriver12createResultEv 0x0001e33c   Data           0  qsqlquery.o(.ARM.extab)
    .extab._Z6loaderv                        0x0001e34c   Data           0  qsqldatabase.o(.ARM.extab)
    .extab._ZN19QSqlDatabasePrivate11shared_nullEv 0x0001e374   Data           0  qsqldatabase.o(.ARM.extab)
    .extab._ZN19QSqlDatabasePrivateD1Ev      0x0001e39c   Data           0  qsqldatabase.o(.ARM.extab)
    .extab._Z6dbDictv                        0x0001e3dc   Data           0  qsqldatabase.o(.ARM.extab)
    .extab._ZN19QSqlDatabasePrivate12invalidateDbERK12QSqlDatabaseRK7QString 0x0001e3fc   Data           0  qsqldatabase.o(.ARM.extab)
    .extab._ZN19QSqlDatabasePrivate16cleanConnectionsEv 0x0001e414   Data           0  qsqldatabase.o(.ARM.extab)
    .extab._ZN19QSqlDatabasePrivate10driverDictEv 0x0001e42c   Data           0  qsqldatabase.o(.ARM.extab)
    .extab._Z15cleanDriverDictv              0x0001e444   Data           0  qsqldatabase.o(.ARM.extab)
    .extab._Zls6QDebugRK12QSqlDatabase       0x0001e454   Data           0  qsqldatabase.o(.ARM.extab)
    .extab._ZNK12QSqlDatabase4execERK7QString 0x0001e494   Data           0  qsqldatabase.o(.ARM.extab)
    .extab._ZN19QSqlDatabasePrivate11addDatabaseERK12QSqlDatabaseRK7QString 0x0001e4b4   Data           0  qsqldatabase.o(.ARM.extab)
    .extab._ZN12QSqlDatabase7driversEv       0x0001e4e4   Data           0  qsqldatabase.o(.ARM.extab)
    .extab._ZN19QSqlDatabasePrivate4initERK7QString 0x0001e524   Data           0  qsqldatabase.o(.ARM.extab)
    .extab._ZN12QSqlDatabaseC1ERK7QString    0x0001e57c   Data           0  qsqldatabase.o(.ARM.extab)
    .extab._ZN12QSqlDatabase11addDatabaseERK7QStringS2_ 0x0001e58c   Data           0  qsqldatabase.o(.ARM.extab)
    .extab._ZN12QSqlDatabaseC1EP10QSqlDriver 0x0001e59c   Data           0  qsqldatabase.o(.ARM.extab)
    .extab._ZN12QSqlDatabase11addDatabaseEP10QSqlDriverRK7QString 0x0001e5ac   Data           0  qsqldatabase.o(.ARM.extab)
    .extab._ZN12QSqlDatabase13cloneDatabaseERKS_RK7QString 0x0001e5bc   Data           0  qsqldatabase.o(.ARM.extab)
    .extab._ZN19QSqlDatabasePrivate8databaseERK7QStringb 0x0001e5d4   Data           0  qsqldatabase.o(.ARM.extab)
    .extab._ZN19QSqlDatabasePrivate14removeDatabaseERK7QString 0x0001e624   Data           0  qsqldatabase.o(.ARM.extab)
    .extab._ZN12QSqlDatabase8containsERK7QString 0x0001e64c   Data           0  qsqldatabase.o(.ARM.extab)
    .extab._ZN12QSqlDatabase15connectionNamesEv 0x0001e65c   Data           0  qsqldatabase.o(.ARM.extab)
    .extab._ZN12QSqlDatabase17isDriverAvailableERK7QString 0x0001e67c   Data           0  qsqldatabase.o(.ARM.extab)
    .extab._ZN19QSqlDatabasePrivateC1ERKS_   0x0001e68c   Data           0  qsqldatabase.o(.ARM.extab)
    .extab._ZN19QSqlDatabasePrivateC1EP12QSqlDatabaseP10QSqlDriver 0x0001e6cc   Data           0  qsqldatabase.o(.ARM.extab)
    .extab._ZN9QHashNodeI7QString12QSqlDatabaseEC1ERKS0_RKS1_ 0x0001e70c   Data           0  qsqldatabase.o(.ARM.extab)
    .extab._ZN6QDebuglsEPKc                  0x0001e71c   Data           0  qsqldatabase.o(.ARM.extab)
    .extab._ZN9QHashData9hasShrunkEv         0x0001e72c   Data           0  qsqldatabase.o(.ARM.extab)
    .extab._ZN5QHashI7QString12QSqlDatabaseE4takeERKS0_ 0x0001e740   Data           0  qsqldatabase.o(.ARM.extab)
    .extab._ZNK5QHashI7QString12QSqlDatabaseE4keysEv 0x0001e750   Data           0  qsqldatabase.o(.ARM.extab)
    .extab._ZN5QHashI7QString12QSqlDatabaseE11deleteNode2EPN9QHashData4NodeE 0x0001e760   Data           0  qsqldatabase.o(.ARM.extab)
    .extab._ZN15QConnectionDictD1Ev          0x0001e770   Data           0  qsqldatabase.o(.ARM.extab)
    .extab._ZN5QHashI7QString12QSqlDatabaseE13duplicateNodeEPN9QHashData4NodeEPv 0x0001e780   Data           0  qsqldatabase.o(.ARM.extab)
    .extab._ZN5QHashI7QStringP21QSqlDriverCreatorBaseE13duplicateNodeEPN9QHashData4NodeEPv 0x0001e790   Data           0  qsqldatabase.o(.ARM.extab)
    .extab._ZN5QHashI7QString12QSqlDatabaseE6insertERKS0_RKS1_ 0x0001e7a0   Data           0  qsqldatabase.o(.ARM.extab)
    .extab._ZN6QDebugD1Ev                    0x0001e7b8   Data           0  qsqldatabase.o(.ARM.extab)
    .extab._ZN5QHashI7QStringP21QSqlDriverCreatorBaseE6insertERKS0_RKS2_ 0x0001e7dc   Data           0  qsqldatabase.o(.ARM.extab)
    .extab._Zls6QDebugRK9QSqlField           0x0001e7f4   Data           0  qsqlfield.o(.ARM.extab)
    .extab._ZN9QSqlFieldC1ERK7QStringN8QVariant4TypeE 0x0001e834   Data           0  qsqlfield.o(.ARM.extab)
    .extab._ZN9QSqlFieldC1ERKS_              0x0001e854   Data           0  qsqlfield.o(.ARM.extab)
    .extab._ZN9QSqlFieldD1Ev                 0x0001e864   Data           0  qsqlfield.o(.ARM.extab)
    .extab._ZN9QSqlField5clearEv             0x0001e874   Data           0  qsqlfield.o(.ARM.extab)
    .extab._ZN16QSqlFieldPrivateD1Ev         0x0001e884   Data           0  qsqlfield.o(.ARM.extab)
    .extab._Z13qAtomicDetachI16QSqlFieldPrivateEvRPT_ 0x0001e894   Data           0  qsqlfield.o(.ARM.extab)
    .extab._ZNK10QSqlRecord5valueEi          0x0001e8ac   Data           0  qsqlrecord.o(.ARM.extab)
    .extab._Zls6QDebugRK10QSqlRecord         0x0001e8bc   Data           0  qsqlrecord.o(.ARM.extab)
    .extab._ZN10QSqlRecordC1Ev               0x0001e934   Data           0  qsqlrecord.o(.ARM.extab)
    .extab._ZNK10QSqlRecord7indexOfERK7QString 0x0001e944   Data           0  qsqlrecord.o(.ARM.extab)
    .extab._ZN10QSqlRecord6detachEv          0x0001e97c   Data           0  qsqlrecord.o(.ARM.extab)
    .extab._ZNK10QSqlRecord6isNullEi         0x0001e98c   Data           0  qsqlrecord.o(.ARM.extab)
    .extab._ZNK10QSqlRecord9fieldNameEi      0x0001e99c   Data           0  qsqlrecord.o(.ARM.extab)
    .extab._ZNK10QSqlRecord11isGeneratedEi   0x0001e9ac   Data           0  qsqlrecord.o(.ARM.extab)
    .extab._ZN10QSqlRecord5clearEv           0x0001e9bc   Data           0  qsqlrecord.o(.ARM.extab)
    .extab._ZNK17QSqlRecordPrivate11createFieldEiRK7QString 0x0001e9cc   Data           0  qsqlrecord.o(.ARM.extab)
    .extab._ZN7QVectorI9QSqlFieldE7reallocEii 0x0001e9fc   Data           0  qsqlrecord.o(.ARM.extab)
    .extab._ZNK7QVectorI9QSqlFieldE5valueEi  0x0001ea38   Data           0  qsqlrecord.o(.ARM.extab)
    .extab._ZN7QVectorI9QSqlFieldE6appendERKS0_ 0x0001ea48   Data           0  qsqlrecord.o(.ARM.extab)
    .extab._ZN7QVectorI9QSqlFieldE6insertEPS0_iRKS0_ 0x0001ea68   Data           0  qsqlrecord.o(.ARM.extab)
    .extab._ZNK14QStringBuilderI7QString11QLatin1CharEcvS0_Ev 0x0001ea98   Data           0  qsqlrecord.o(.ARM.extab)
    .extab._Z17prepareIdentifierRK7QStringN10QSqlDriver14IdentifierTypeEPKS2_ 0x0001eaa8   Data           0  qsqldriver.o(.ARM.extab)
    .extab._ZN10QSqlDriverC2EP7QObject       0x0001eac8   Data           0  qsqldriver.o(.ARM.extab)
    .extab._ZNK10QSqlDriver12primaryIndexERK7QString 0x0001ead8   Data           0  qsqldriver.o(.ARM.extab)
    .extab._ZNK10QSqlDriver11formatValueERK9QSqlFieldb 0x0001eaf8   Data           0  qsqldriver.o(.ARM.extab)
    .extab._ZNK10QSqlDriver12sqlStatementENS_13StatementTypeERK7QStringRK10QSqlRecordb 0x0001ecd8   Data           0  qsqldriver.o(.ARM.extab)
    .extab._ZNK10QSqlDriver25subscribedToNotificationsEv 0x0001ee18   Data           0  qsqldriver.o(.ARM.extab)
    .extab._ZNK10QSqlDriver15stripDelimitersERK7QStringNS_14IdentifierTypeE 0x0001ee28   Data           0  qsqldriver.o(.ARM.extab)
    .extab._ZNK10QSqlDriver29stripDelimitersImplementationERK7QStringNS_14IdentifierTypeE 0x0001ee38   Data           0  qsqldriver.o(.ARM.extab)
    .extab._ZN17QSqlDriverPrivateD1Ev        0x0001ee58   Data           0  qsqldriver.o(.ARM.extab)
    .extab._ZN7QStringaSERK13QLatin1String   0x0001ee68   Data           0  qsqldriver.o(.ARM.extab)
    .extab._ZN7QString5clearEv               0x0001ee78   Data           0  qsqldriver.o(.ARM.extab)
    .extab._ZNK14QStringBuilderIS_I11QLatin1Char7QStringES0_EcvS1_Ev 0x0001ee88   Data           0  qsqldriver.o(.ARM.extab)
    .extab._ZN17QSqlDriverPrivateC1Ev        0x0001ee98   Data           0  qsqldriver.o(.ARM.extab)
    .extab._Zls6QDebugRK9QSqlError           0x0001eec8   Data           0  qsqlerror.o(.ARM.extab)
    .extab._ZN9QSqlErrorC1ERK7QStringS2_NS_9ErrorTypeEi 0x0001eee8   Data           0  qsqlerror.o(.ARM.extab)
    .extab._ZN9QSqlErrorC1ERKS_              0x0001eef8   Data           0  qsqlerror.o(.ARM.extab)
    .extab._ZN9QSqlErrorD1Ev                 0x0001ef08   Data           0  qsqlerror.o(.ARM.extab)
    .extab._ZNK9QSqlError4textEv             0x0001ef18   Data           0  qsqlerror.o(.ARM.extab)
    .extab._ZN10QSqlResultC2EPK10QSqlDriver  0x0001ef28   Data           0  qsqlresult.o(.ARM.extab)
    .extab._ZN10QSqlResult4execEv            0x0001ef38   Data           0  qsqlresult.o(.ARM.extab)
    .extab._ZN10QSqlResult7prepareERK7QString 0x0001f018   Data           0  qsqlresult.o(.ARM.extab)
    .extab._ZN17QSqlResultPrivate24namedToPositionalBindingEv 0x0001f038   Data           0  qsqlresult.o(.ARM.extab)
    .extab._ZN17QSqlResultPrivate24positionalToNamedBindingEv 0x0001f058   Data           0  qsqlresult.o(.ARM.extab)
    .extab._ZN10QSqlResult11savePrepareERK7QString 0x0001f078   Data           0  qsqlresult.o(.ARM.extab)
    .extab._ZN10QSqlResult9bindValueEiRK8QVariant6QFlagsIN4QSql13ParamTypeFlagEE 0x0001f090   Data           0  qsqlresult.o(.ARM.extab)
    .extab._ZN10QSqlResult9execBatchEb       0x0001f0a0   Data           0  qsqlresult.o(.ARM.extab)
    .extab._ZN7QVectorI7QHolderE7reallocEii  0x0001f0c8   Data           0  qsqlresult.o(.ARM.extab)
    .extab._ZN7QVectorI7QHolderE6appendERKS0_ 0x0001f104   Data           0  qsqlresult.o(.ARM.extab)
    .extab._ZN5QHashI7QStringiEixERKS0_      0x0001f124   Data           0  qsqlresult.o(.ARM.extab)
    .extab._ZN7QVectorI8QVariantE7reallocEii 0x0001f13c   Data           0  qsqlresult.o(.ARM.extab)
    .extab._ZN17QSqlResultPrivate5clearEv    0x0001f17c   Data           0  qsqlresult.o(.ARM.extab)
    .extab._ZN5QHashIi6QFlagsIN4QSql13ParamTypeFlagEEEixERKi 0x0001f18c   Data           0  qsqlresult.o(.ARM.extab)
    .extab._ZN7QVectorI8QVariantE6appendERKS0_ 0x0001f19c   Data           0  qsqlresult.o(.ARM.extab)
    .extab._ZNK5QHashI7QStringiE3keyERKi     0x0001f1bc   Data           0  qsqlresult.o(.ARM.extab)
    .extab._ZN17QSqlResultPrivateD1Ev        0x0001f1cc   Data           0  qsqlresult.o(.ARM.extab)
    .extab._ZN17QSqlResultPrivateC1EP10QSqlResult 0x0001f204   Data           0  qsqlresult.o(.ARM.extab)
    .extab._ZN5QHashI7QStringiE13duplicateNodeEPN9QHashData4NodeEPv 0x0001f25c   Data           0  qsqlresult.o(.ARM.extab)
    .extab._ZN17QSqlResultPrivate10clearIndexEv 0x0001f26c   Data           0  qsqlresult.o(.ARM.extab)
    .extab._ZN9QSqlIndexC1ERK7QStringS2_     0x0001f28c   Data           0  qsqlindex.o(.ARM.extab)
    .extab._ZN9QSqlIndexC1ERKS_              0x0001f2ac   Data           0  qsqlindex.o(.ARM.extab)
    .extab._ZN9QSqlIndexD1Ev                 0x0001f2cc   Data           0  qsqlindex.o(.ARM.extab)
    .extab._ZNK9QSqlIndex11createFieldEiRK7QStringb 0x0001f2ec   Data           0  qsqlindex.o(.ARM.extab)
    .extab._ZN5QListIbE13detach_helperEi     0x0001f35c   Data           0  qsqlindex.o(.ARM.extab)
    .extab._ZN5QListIbE18detach_helper_growEii 0x0001f378   Data           0  qsqlindex.o(.ARM.extab)
    .extab._ZN5QListIbE6appendERKb           0x0001f3a8   Data           0  qsqlindex.o(.ARM.extab)
    .extab._ZN16QSqlCachedResultD2Ev         0x0001f3c4   Data           0  qsqlcachedresult.o(.ARM.extab)
    .extab._ZN16QSqlCachedResultC2EPK10QSqlDriver 0x0001f3d4   Data           0  qsqlcachedresult.o(.ARM.extab)
    .extab._ZN7QVectorI8QVariantE5clearEv    0x0001f3ec   Data           0  qsqlcachedresult.o(.ARM.extab)
    .extab._ZN14QSqlQueryModelC1EP7QObject   0x0001f3fc   Data           0  qsqlquerymodel.o(.ARM.extab)
    .extab._ZNK14QSqlQueryModel6recordEi     0x0001f40c   Data           0  qsqlquerymodel.o(.ARM.extab)
    .extab._ZN21QSqlQueryModelPrivate8prefetchEi 0x0001f434   Data           0  qsqlquerymodel.o(.ARM.extab)
    .extab._ZNK14QSqlQueryModel4dataERK11QModelIndexi 0x0001f454   Data           0  qsqlquerymodel.o(.ARM.extab)
    .extab._ZNK14QSqlQueryModel10headerDataEiN2Qt11OrientationEi 0x0001f494   Data           0  qsqlquerymodel.o(.ARM.extab)
    .extab._ZN14QSqlQueryModel13setHeaderDataEiN2Qt11OrientationERK8QVarianti 0x0001f4ec   Data           0  qsqlquerymodel.o(.ARM.extab)
    .extab._ZN14QSqlQueryModel13insertColumnsEiiRK11QModelIndex 0x0001f4fc   Data           0  qsqlquerymodel.o(.ARM.extab)
    .extab._ZN14QSqlQueryModel8setQueryERK9QSqlQuery 0x0001f514   Data           0  qsqlquerymodel.o(.ARM.extab)
    .extab._ZN14QSqlQueryModel8setQueryERK7QStringRK12QSqlDatabase 0x0001f5ec   Data           0  qsqlquerymodel.o(.ARM.extab)
    .extab._ZN14QSqlQueryModel5clearEv       0x0001f60c   Data           0  qsqlquerymodel.o(.ARM.extab)
    .extab._ZN21QSqlQueryModelPrivateD1Ev    0x0001f644   Data           0  qsqlquerymodel.o(.ARM.extab)
    .extab._ZN25QAbstractItemModelPrivate10PersistentD1Ev 0x0001f67c   Data           0  qsqlquerymodel.o(.ARM.extab)
    .extab._ZN25QAbstractItemModelPrivateD1Ev 0x0001f694   Data           0  qsqlquerymodel.o(.ARM.extab)
    .extab._ZN21QSqlQueryModelPrivateC1Ev    0x0001f6b4   Data           0  qsqlquerymodel.o(.ARM.extab)
    .extab._ZN7QVectorI5QHashIi8QVariantEE7reallocEii 0x0001f72c   Data           0  qsqlquerymodel.o(.ARM.extab)
    .extab._ZN5QHashIi10QByteArrayE13duplicateNodeEPN9QHashData4NodeEPv 0x0001f758   Data           0  qsqlquerymodel.o(.ARM.extab)
    .extab._ZN25QAbstractItemModelPrivateC1Ev 0x0001f768   Data           0  qsqlquerymodel.o(.ARM.extab)
    .extab._ZN5QHashIi8QVariantE13duplicateNodeEPN9QHashData4NodeEPv 0x0001f798   Data           0  qsqlquerymodel.o(.ARM.extab)
    .extab._ZN5QHashIi8QVariantEixERKi       0x0001f7a8   Data           0  qsqlquerymodel.o(.ARM.extab)
    .extab._ZN14QSqlTableModelC1EP7QObject12QSqlDatabase 0x0001f7c8   Data           0  qsqltablemodel.o(.ARM.extab)
    .extab._ZN21QSqlTableModelPrivate25initRecordAndPrimaryIndexEv 0x0001f7f0   Data           0  qsqltablemodel.o(.ARM.extab)
    .extab._ZN14QSqlTableModel6selectEv      0x0001f808   Data           0  qsqltablemodel.o(.ARM.extab)
    .extab._ZN14QSqlTableModel8setTableERK7QString 0x0001f858   Data           0  qsqltablemodel.o(.ARM.extab)
    .extab._ZNK14QSqlTableModel5flagsERK11QModelIndex 0x0001f888   Data           0  qsqltablemodel.o(.ARM.extab)
    .extab._ZNK14QSqlTableModel12indexInQueryERK11QModelIndex 0x0001f898   Data           0  qsqltablemodel.o(.ARM.extab)
    .extab._ZNK14QSqlTableModel4dataERK11QModelIndexi 0x0001f8a8   Data           0  qsqltablemodel.o(.ARM.extab)
    .extab._ZN21QSqlTableModelPrivate13primaryValuesEi 0x0001f950   Data           0  qsqltablemodel.o(.ARM.extab)
    .extab._ZN14QSqlTableModel7setDataERK11QModelIndexRK8QVarianti 0x0001f9a0   Data           0  qsqltablemodel.o(.ARM.extab)
    .extab._ZNK14QSqlTableModel7isDirtyERK11QModelIndex 0x0001f9c8   Data           0  qsqltablemodel.o(.ARM.extab)
    .extab._ZNK14QSqlTableModel8rowCountERK11QModelIndex 0x0001f9f0   Data           0  qsqltablemodel.o(.ARM.extab)
    .extab._ZN21QSqlTableModelPrivate17revertInsertedRowEv 0x0001fa00   Data           0  qsqltablemodel.o(.ARM.extab)
    .extab._ZN14QSqlTableModel10removeRowsEiiRK11QModelIndex 0x0001fa10   Data           0  qsqltablemodel.o(.ARM.extab)
    .extab._ZN14QSqlTableModel10insertRowsEiiRK11QModelIndex 0x0001fa40   Data           0  qsqltablemodel.o(.ARM.extab)
    .extab._ZN21QSqlTableModelPrivate9setRecordEiRK10QSqlRecord 0x0001fa60   Data           0  qsqltablemodel.o(.ARM.extab)
    .extab._ZN14QSqlTableModel9setRecordEiRK10QSqlRecord 0x0001fa98   Data           0  qsqltablemodel.o(.ARM.extab)
    .extab._ZN14QSqlTableModel12insertRecordEiRK10QSqlRecord 0x0001fb10   Data           0  qsqltablemodel.o(.ARM.extab)
    .extab._ZN14QSqlTableModel9revertRowEi   0x0001fb28   Data           0  qsqltablemodel.o(.ARM.extab)
    .extab._ZN14QSqlTableModelC1ER21QSqlTableModelPrivateP7QObject12QSqlDatabase 0x0001fb40   Data           0  qsqltablemodel.o(.ARM.extab)
    .extab._ZN21QSqlTableModelPrivate4execERK7QStringbRK10QSqlRecordS5_ 0x0001fb70   Data           0  qsqltablemodel.o(.ARM.extab)
    .extab._ZN14QSqlTableModel16updateRowInTableEiRK10QSqlRecord 0x0001fbc8   Data           0  qsqltablemodel.o(.ARM.extab)
    .extab._ZN14QSqlTableModel18insertRowIntoTableERK10QSqlRecord 0x0001fc78   Data           0  qsqltablemodel.o(.ARM.extab)
    .extab._ZN14QSqlTableModel18deleteRowFromTableEi 0x0001fce8   Data           0  qsqltablemodel.o(.ARM.extab)
    .extab._ZNK14QSqlTableModel13orderByClauseEv 0x0001fd88   Data           0  qsqltablemodel.o(.ARM.extab)
    .extab._ZNK14QSqlTableModel15selectStatementEv 0x0001fde8   Data           0  qsqltablemodel.o(.ARM.extab)
    .extab._ZNK21QSqlTableModelPrivate6recordERK7QVectorI8QVariantE 0x0001feb8   Data           0  qsqltablemodel.o(.ARM.extab)
    .extab._ZN21QSqlTableModelPrivate15revertCachedRowEi 0x0001fec8   Data           0  qsqltablemodel.o(.ARM.extab)
    .extab._ZNK21QSqlTableModelPrivate11nameToIndexERK7QString 0x0001ff20   Data           0  qsqltablemodel.o(.ARM.extab)
    .extab._ZNK11QModelIndex7siblingEii      0x0001ff40   Data           0  qsqltablemodel.o(.ARM.extab)
    .extab._ZN21QSqlTableModelPrivateC1Ev    0x0001ff60   Data           0  qsqltablemodel.o(.ARM.extab)
    .extab._ZNK14QStringBuilderI13QLatin1String7QStringEcvS1_Ev 0x0001ffe0   Data           0  qsqltablemodel.o(.ARM.extab)
    .extab._ZN21QSqlTableModelPrivate11ModifiedRowC1ERKS0_ 0x0001fff0   Data           0  qsqltablemodel.o(.ARM.extab)
    .extab._ZN21QSqlTableModelPrivate11ModifiedRowC1ENS_2OpERK10QSqlRecord 0x00020000   Data           0  qsqltablemodel.o(.ARM.extab)
    .extab._ZNK4QMapIiN21QSqlTableModelPrivate11ModifiedRowEE5valueERKi 0x00020010   Data           0  qsqltablemodel.o(.ARM.extab)
    .extab._ZN4QMapIiN21QSqlTableModelPrivate11ModifiedRowEE11node_createEP8QMapDataPPNS3_4NodeERKiRKS1_ 0x00020020   Data           0  qsqltablemodel.o(.ARM.extab)
    .extab._ZN4QMapIiN21QSqlTableModelPrivate11ModifiedRowEE13detach_helperEv 0x00020058   Data           0  qsqltablemodel.o(.ARM.extab)
    .extab._ZN4QMapIiN21QSqlTableModelPrivate11ModifiedRowEEixERKi 0x00020074   Data           0  qsqltablemodel.o(.ARM.extab)
    .extab._ZN4QMapIiN21QSqlTableModelPrivate11ModifiedRowEE5clearEv 0x00020094   Data           0  qsqltablemodel.o(.ARM.extab)
    .extab._ZN21QSqlTableModelPrivateD1Ev    0x000200a4   Data           0  qsqltablemodel.o(.ARM.extab)
    .extab._ZN21QSqlTableModelPrivate11ModifiedRowD1Ev 0x000200e4   Data           0  qsqltablemodel.o(.ARM.extab)
    .extab._ZN24QSqlRelationalTableModelC1EP7QObject12QSqlDatabase 0x000200f4   Data           0  qsqlrelationaltablemodel.o(.ARM.extab)
    .extab._ZN9QRelation13populateModelEv    0x00020124   Data           0  qsqlrelationaltablemodel.o(.ARM.extab)
    .extab._ZN9QRelation18populateDictionaryEv 0x0002014c   Data           0  qsqlrelationaltablemodel.o(.ARM.extab)
    .extab._ZNK24QSqlRelationalTableModel4dataERK11QModelIndexi 0x00020264   Data           0  qsqlrelationaltablemodel.o(.ARM.extab)
    .extab._ZN24QSqlRelationalTableModel7setDataERK11QModelIndexRK8QVarianti 0x000202bc   Data           0  qsqlrelationaltablemodel.o(.ARM.extab)
    .extab._ZN9QRelation15clearDictionaryEv  0x000202d4   Data           0  qsqlrelationaltablemodel.o(.ARM.extab)
    .extab._ZN24QSqlRelationalTableModel5clearEv 0x000202e4   Data           0  qsqlrelationaltablemodel.o(.ARM.extab)
    .extab._ZN24QSqlRelationalTableModel8setTableERK7QString 0x000202f4   Data           0  qsqlrelationaltablemodel.o(.ARM.extab)
    .extab._ZNK24QSqlRelationalTableModel8relationEi 0x00020304   Data           0  qsqlrelationaltablemodel.o(.ARM.extab)
    .extab._ZNK31QSqlRelationalTableModelPrivate13relationFieldERK7QStringS2_ 0x00020314   Data           0  qsqlrelationaltablemodel.o(.ARM.extab)
    .extab._ZNK24QSqlRelationalTableModel15selectStatementEv 0x00020324   Data           0  qsqlrelationaltablemodel.o(.ARM.extab)
    .extab._ZNK31QSqlRelationalTableModelPrivate19translateFieldNamesEiR10QSqlRecord 0x000206c4   Data           0  qsqlrelationaltablemodel.o(.ARM.extab)
    .extab._ZN24QSqlRelationalTableModel16updateRowInTableEiRK10QSqlRecord 0x000206f4   Data           0  qsqlrelationaltablemodel.o(.ARM.extab)
    .extab._ZN24QSqlRelationalTableModel18insertRowIntoTableERK10QSqlRecord 0x00020704   Data           0  qsqlrelationaltablemodel.o(.ARM.extab)
    .extab._ZNK24QSqlRelationalTableModel13orderByClauseEv 0x00020714   Data           0  qsqlrelationaltablemodel.o(.ARM.extab)
    .extab._ZNK31QSqlRelationalTableModelPrivate11nameToIndexERK7QString 0x00020784   Data           0  qsqlrelationaltablemodel.o(.ARM.extab)
    .extab._ZN9QHashNodeI7QString8QVariantEC1ERKS0_RKS1_ 0x000207a4   Data           0  qsqlrelationaltablemodel.o(.ARM.extab)
    .extab._ZN5QHashI7QString8QVariantEixERKS0_ 0x000207b4   Data           0  qsqlrelationaltablemodel.o(.ARM.extab)
    .extab._ZN12QSqlRelationC1ERKS_          0x000207d4   Data           0  qsqlrelationaltablemodel.o(.ARM.extab)
    .extab._ZN12QSqlRelationD1Ev             0x000207ec   Data           0  qsqlrelationaltablemodel.o(.ARM.extab)
    .extab._ZN9QRelationC1Ev                 0x00020804   Data           0  qsqlrelationaltablemodel.o(.ARM.extab)
    .extab._ZN9QRelationC1ERKS_              0x00020824   Data           0  qsqlrelationaltablemodel.o(.ARM.extab)
    .extab._ZN7QVectorI9QRelationE7reallocEii 0x00020834   Data           0  qsqlrelationaltablemodel.o(.ARM.extab)
    .extab._ZN5QHashI7QStringiE6insertERKS0_RKi 0x00020860   Data           0  qsqlrelationaltablemodel.o(.ARM.extab)
    .extab._ZN31QSqlRelationalTableModelPrivateD1Ev 0x00020878   Data           0  qsqlrelationaltablemodel.o(.ARM.extab)
    .extab._ZN5QHashI7QString8QVariantE11deleteNode2EPN9QHashData4NodeE 0x00020890   Data           0  qsqlrelationaltablemodel.o(.ARM.extab)
    .extab._ZN5QHashI7QString8QVariantE13duplicateNodeEPN9QHashData4NodeEPv 0x000208a0   Data           0  qsqlrelationaltablemodel.o(.ARM.extab)
    .extab._ZN9QRelationD1Ev                 0x000208b0   Data           0  qsqlrelationaltablemodel.o(.ARM.extab)
    .extab._ZN10QSqlDriver11qt_metacallEN11QMetaObject4CallEiPPv 0x000208c0   Data           0  moc_qsqldriver.o(.ARM.extab)
    .constdata$1                             0x000208d8   Data           0  qsql_sqlite.o(.constdata)
    .constdata                               0x000208d8   Section       96  qsql_sqlite.o(.constdata)
    .constdata$1                             0x00020938   Data           0  qsqldatabase.o(.constdata)
    .constdata                               0x00020938   Section      356  qsqldatabase.o(.constdata)
    .constdata$1                             0x00020a9c   Data           0  qsqldriver.o(.constdata)
    hexchars@_ZNK10QSqlDriver11formatValueERK9QSqlFieldb_0 0x00020a9c   Data          17  qsqldriver.o(.constdata)
    .constdata                               0x00020a9c   Section       96  qsqldriver.o(.constdata)
    .constdata$1                             0x00020afc   Data           0  qsqlresult.o(.constdata)
    .constdata                               0x00020afc   Section       38  qsqlresult.o(.constdata)
    .constdata$1                             0x00020b24   Data           0  qsqlcachedresult.o(.constdata)
    .constdata                               0x00020b24   Section       76  qsqlcachedresult.o(.constdata)
    .constdata$1                             0x00020b70   Data           0  qsqlquerymodel.o(.constdata)
    .constdata                               0x00020b70   Section       72  qsqlquerymodel.o(.constdata)
    .constdata$1                             0x00020bb8   Data           0  moc_qsqldriver.o(.constdata)
    qt_meta_data_QSqlDriver                  0x00020bb8   Data         180  moc_qsqldriver.o(.constdata)
    .constdata                               0x00020bb8   Section      600  moc_qsqldriver.o(.constdata)
    qt_meta_stringdata_QSqlDriver            0x00020c6c   Data         333  moc_qsqldriver.o(.constdata)
    .constdata$1                             0x00020e10   Data           0  moc_qsqldriverplugin.o(.constdata)
    qt_meta_data_QSqlDriverPlugin            0x00020e10   Data          60  moc_qsqldriverplugin.o(.constdata)
    .constdata                               0x00020e10   Section      164  moc_qsqldriverplugin.o(.constdata)
    qt_meta_stringdata_QSqlDriverPlugin      0x00020e4c   Data          18  moc_qsqldriverplugin.o(.constdata)
    .constdata$1                             0x00020eb4   Data           0  moc_qsql_sqlite.o(.constdata)
    qt_meta_data_QSQLiteDriver               0x00020eb4   Data          60  moc_qsql_sqlite.o(.constdata)
    .constdata                               0x00020eb4   Section      160  moc_qsql_sqlite.o(.constdata)
    qt_meta_stringdata_QSQLiteDriver         0x00020ef0   Data          15  moc_qsql_sqlite.o(.constdata)
    .constdata$1                             0x00020f54   Data           0  moc_qsqlquerymodel.o(.constdata)
    qt_meta_data_QSqlQueryModel              0x00020f54   Data          60  moc_qsqlquerymodel.o(.constdata)
    .constdata                               0x00020f54   Section      160  moc_qsqlquerymodel.o(.constdata)
    qt_meta_stringdata_QSqlQueryModel        0x00020f90   Data          16  moc_qsqlquerymodel.o(.constdata)
    .constdata$1                             0x00020ff4   Data           0  moc_qsqltablemodel.o(.constdata)
    qt_meta_data_QSqlTableModel              0x00020ff4   Data         220  moc_qsqltablemodel.o(.constdata)
    .constdata                               0x00020ff4   Section      496  moc_qsqltablemodel.o(.constdata)
    qt_meta_stringdata_QSqlTableModel        0x000210d0   Data         189  moc_qsqltablemodel.o(.constdata)
    .constdata$1                             0x000211e4   Data           0  moc_qsqlrelationaltablemodel.o(.constdata)
    qt_meta_data_QSqlRelationalTableModel    0x000211e4   Data          80  moc_qsqlrelationaltablemodel.o(.constdata)
    .constdata                               0x000211e4   Section      212  moc_qsqlrelationaltablemodel.o(.constdata)
    qt_meta_stringdata_QSqlRelationalTableModel 0x00021234   Data          46  moc_qsqlrelationaltablemodel.o(.constdata)
    .constdata__ZN9stlp_priv15_Integer_limitsIaLan128ELa127ELin1ELb1EE6digitsE 0x000212b8   Section        4  qsql_sqlite.o(.constdata__ZN9stlp_priv15_Integer_limitsIaLan128ELa127ELin1ELb1EE6digitsE)
    .constdata__ZN9stlp_priv15_Integer_limitsIbLb0ELb1ELi1ELb0EE6digitsE 0x000212bc   Section        4  qsql_sqlite.o(.constdata__ZN9stlp_priv15_Integer_limitsIbLb0ELb1ELi1ELb0EE6digitsE)
    .constdata__ZN9stlp_priv15_Integer_limitsIcLc128ELc127ELin1ELb1EE6digitsE 0x000212c0   Section        4  qsql_sqlite.o(.constdata__ZN9stlp_priv15_Integer_limitsIcLc128ELc127ELin1ELb1EE6digitsE)
    .constdata__ZN9stlp_priv15_Integer_limitsIhLh0ELh255ELin1ELb1EE6digitsE 0x000212c4   Section        4  qsql_sqlite.o(.constdata__ZN9stlp_priv15_Integer_limitsIhLh0ELh255ELin1ELb1EE6digitsE)
    .constdata__ZN9stlp_priv15_Integer_limitsIiLin2147483648ELi2147483647ELin1ELb1EE6digitsE 0x000212c8   Section        4  qsql_sqlite.o(.constdata__ZN9stlp_priv15_Integer_limitsIiLin2147483648ELi2147483647ELin1ELb1EE6digitsE)
    .constdata__ZN9stlp_priv15_Integer_limitsIiLin2147483648ELi2147483647ELin1ELb1EE9is_signedE 0x000212cc   Section        1  qsql_sqlite.o(.constdata__ZN9stlp_priv15_Integer_limitsIiLin2147483648ELi2147483647ELin1ELb1EE9is_signedE)
    .constdata__ZN9stlp_priv15_Integer_limitsIjLj0ELj4294967295ELin1ELb1EE6digitsE 0x000212d0   Section        4  qsql_sqlite.o(.constdata__ZN9stlp_priv15_Integer_limitsIjLj0ELj4294967295ELin1ELb1EE6digitsE)
    .constdata__ZN9stlp_priv15_Integer_limitsIlLln2147483648ELl2147483647ELin1ELb1EE6digitsE 0x000212d4   Section        4  qsql_sqlite.o(.constdata__ZN9stlp_priv15_Integer_limitsIlLln2147483648ELl2147483647ELin1ELb1EE6digitsE)
    .constdata__ZN9stlp_priv15_Integer_limitsImLm0ELm4294967295ELin1ELb1EE6digitsE 0x000212d8   Section        4  qsql_sqlite.o(.constdata__ZN9stlp_priv15_Integer_limitsImLm0ELm4294967295ELin1ELb1EE6digitsE)
    .constdata__ZN9stlp_priv15_Integer_limitsIsLsn32768ELs32767ELin1ELb1EE6digitsE 0x000212dc   Section        4  qsql_sqlite.o(.constdata__ZN9stlp_priv15_Integer_limitsIsLsn32768ELs32767ELin1ELb1EE6digitsE)
    .constdata__ZN9stlp_priv15_Integer_limitsItLt0ELt65535ELin1ELb1EE6digitsE 0x000212e0   Section        4  qsql_sqlite.o(.constdata__ZN9stlp_priv15_Integer_limitsItLt0ELt65535ELin1ELb1EE6digitsE)
    .constdata__ZN9stlp_priv15_Integer_limitsIwLw0ELw65535ELin1ELb1EE6digitsE 0x000212e4   Section        4  qsql_sqlite.o(.constdata__ZN9stlp_priv15_Integer_limitsIwLw0ELw65535ELin1ELb1EE6digitsE)
    .constdata__ZN9stlp_priv15_Integer_limitsIxLxn9223372036854775808ELx9223372036854775807ELin1ELb1EE6digitsE 0x000212e8   Section        4  qsql_sqlite.o(.constdata__ZN9stlp_priv15_Integer_limitsIxLxn9223372036854775808ELx9223372036854775807ELin1ELb1EE6digitsE)
    .constdata__ZN9stlp_priv15_Integer_limitsIyLy0ELy18446744073709551615ELin1ELb1EE6digitsE 0x000212ec   Section        4  qsql_sqlite.o(.constdata__ZN9stlp_priv15_Integer_limitsIyLy0ELy18446744073709551615ELin1ELb1EE6digitsE)
    .constdata__ZTI10QSqlDriver              0x000212f0   Section       12  moc_qsqldriver.o(.constdata__ZTI10QSqlDriver)
    .constdata__ZTI10QSqlResult              0x000212fc   Section        8  qsqlresult.o(.constdata__ZTI10QSqlResult)
    .constdata__ZTI13QSQLiteDriver           0x00021304   Section       12  moc_qsql_sqlite.o(.constdata__ZTI13QSQLiteDriver)
    .constdata__ZTI13QSQLiteResult           0x00021310   Section       12  qsql_sqlite.o(.constdata__ZTI13QSQLiteResult)
    .constdata__ZTI14QSqlNullDriver          0x0002131c   Section       12  qsqlquery.o(.constdata__ZTI14QSqlNullDriver)
    .constdata__ZTI14QSqlNullResult          0x00021328   Section       12  qsqlquery.o(.constdata__ZTI14QSqlNullResult)
    .constdata__ZTI14QSqlQueryModel          0x00021334   Section       12  moc_qsqlquerymodel.o(.constdata__ZTI14QSqlQueryModel)
    .constdata__ZTI14QSqlTableModel          0x00021340   Section       12  moc_qsqltablemodel.o(.constdata__ZTI14QSqlTableModel)
    .constdata__ZTI16QSqlCachedResult        0x0002134c   Section       12  qsqlcachedresult.o(.constdata__ZTI16QSqlCachedResult)
    .constdata__ZTI16QSqlDriverPlugin        0x00021358   Section       32  moc_qsqldriverplugin.o(.constdata__ZTI16QSqlDriverPlugin)
    .constdata__ZTI17QFactoryInterface       0x00021378   Section        8  qsqldriverplugin.o(.constdata__ZTI17QFactoryInterface)
    .constdata__ZTI17QSqlDriverPrivate       0x00021380   Section       12  qsqldriver.o(.constdata__ZTI17QSqlDriverPrivate)
    .constdata__ZTI21QSqlQueryModelPrivate   0x0002138c   Section       12  qsqlquerymodel.o(.constdata__ZTI21QSqlQueryModelPrivate)
    .constdata__ZTI21QSqlTableModelPrivate   0x00021398   Section       12  qsqltablemodel.o(.constdata__ZTI21QSqlTableModelPrivate)
    .constdata__ZTI24QSqlRelationalTableModel 0x000213a4   Section       12  moc_qsqlrelationaltablemodel.o(.constdata__ZTI24QSqlRelationalTableModel)
    .constdata__ZTI25QAbstractItemModelPrivate 0x000213b0   Section       12  qsqlquerymodel.o(.constdata__ZTI25QAbstractItemModelPrivate)
    .constdata__ZTI26QSqlDriverFactoryInterface 0x000213bc   Section       12  qsqldriverplugin.o(.constdata__ZTI26QSqlDriverFactoryInterface)
    .constdata__ZTI31QSqlRelationalTableModelPrivate 0x000213c8   Section       12  qsqlrelationaltablemodel.o(.constdata__ZTI31QSqlRelationalTableModelPrivate)
    .constdata__ZTIN15QtSharedPointer20ExternalRefCountDataE 0x000213d4   Section        8  qsqldriver.o(.constdata__ZTIN15QtSharedPointer20ExternalRefCountDataE)
    .constdata__ZTS10QSqlDriver              0x000213dc   Section       13  moc_qsqldriver.o(.constdata__ZTS10QSqlDriver)
    .constdata__ZTS10QSqlResult              0x000213e9   Section       13  qsqlresult.o(.constdata__ZTS10QSqlResult)
    .constdata__ZTS13QSQLiteDriver           0x000213f6   Section       16  moc_qsql_sqlite.o(.constdata__ZTS13QSQLiteDriver)
    .constdata__ZTS13QSQLiteResult           0x00021406   Section       16  qsql_sqlite.o(.constdata__ZTS13QSQLiteResult)
    .constdata__ZTS14QSqlNullDriver          0x00021416   Section       17  qsqlquery.o(.constdata__ZTS14QSqlNullDriver)
    .constdata__ZTS14QSqlNullResult          0x00021427   Section       17  qsqlquery.o(.constdata__ZTS14QSqlNullResult)
    .constdata__ZTS14QSqlQueryModel          0x00021438   Section       17  moc_qsqlquerymodel.o(.constdata__ZTS14QSqlQueryModel)
    .constdata__ZTS14QSqlTableModel          0x00021449   Section       17  moc_qsqltablemodel.o(.constdata__ZTS14QSqlTableModel)
    .constdata__ZTS16QSqlCachedResult        0x0002145a   Section       19  qsqlcachedresult.o(.constdata__ZTS16QSqlCachedResult)
    .constdata__ZTS16QSqlDriverPlugin        0x0002146d   Section       19  moc_qsqldriverplugin.o(.constdata__ZTS16QSqlDriverPlugin)
    .constdata__ZTS17QFactoryInterface       0x00021480   Section       20  qsqldriverplugin.o(.constdata__ZTS17QFactoryInterface)
    .constdata__ZTS17QSqlDriverPrivate       0x00021494   Section       20  qsqldriver.o(.constdata__ZTS17QSqlDriverPrivate)
    .constdata__ZTS21QSqlQueryModelPrivate   0x000214a8   Section       24  qsqlquerymodel.o(.constdata__ZTS21QSqlQueryModelPrivate)
    .constdata__ZTS21QSqlTableModelPrivate   0x000214c0   Section       24  qsqltablemodel.o(.constdata__ZTS21QSqlTableModelPrivate)
    .constdata__ZTS24QSqlRelationalTableModel 0x000214d8   Section       27  moc_qsqlrelationaltablemodel.o(.constdata__ZTS24QSqlRelationalTableModel)
    .constdata__ZTS25QAbstractItemModelPrivate 0x000214f3   Section       28  qsqlquerymodel.o(.constdata__ZTS25QAbstractItemModelPrivate)
    .constdata__ZTS26QSqlDriverFactoryInterface 0x0002150f   Section       29  qsqldriverplugin.o(.constdata__ZTS26QSqlDriverFactoryInterface)
    .constdata__ZTS31QSqlRelationalTableModelPrivate 0x0002152c   Section       34  qsqlrelationaltablemodel.o(.constdata__ZTS31QSqlRelationalTableModelPrivate)
    .constdata__ZTSN15QtSharedPointer20ExternalRefCountDataE 0x0002154e   Section       42  qsqldriver.o(.constdata__ZTSN15QtSharedPointer20ExternalRefCountDataE)
    .constdata__ZTV10QSqlDriver              0x00021578   Section      128  moc_qsqldriver.o(.constdata__ZTV10QSqlDriver)
    .constdata__ZTV10QSqlResult              0x000215f8   Section      116  qsqlresult.o(.constdata__ZTV10QSqlResult)
    .constdata__ZTV13QSQLiteDriver           0x0002166c   Section      128  moc_qsql_sqlite.o(.constdata__ZTV13QSQLiteDriver)
    .constdata__ZTV13QSQLiteResult           0x000216ec   Section      120  qsql_sqlite.o(.constdata__ZTV13QSQLiteResult)
    .constdata__ZTV14QSqlNullDriver          0x00021764   Section      128  qsqlquery.o(.constdata__ZTV14QSqlNullDriver)
    .constdata__ZTV14QSqlNullResult          0x000217e4   Section      116  qsqlquery.o(.constdata__ZTV14QSqlNullResult)
    .constdata__ZTV14QSqlQueryModel          0x00021858   Section      176  moc_qsqlquerymodel.o(.constdata__ZTV14QSqlQueryModel)
    .constdata__ZTV14QSqlTableModel          0x00021908   Section      220  moc_qsqltablemodel.o(.constdata__ZTV14QSqlTableModel)
    .constdata__ZTV16QSqlCachedResult        0x000219e4   Section      120  qsqlcachedresult.o(.constdata__ZTV16QSqlCachedResult)
    .constdata__ZTV16QSqlDriverPlugin        0x00021a5c   Section       88  moc_qsqldriverplugin.o(.constdata__ZTV16QSqlDriverPlugin)
    .constdata__ZTV17QFactoryInterface       0x00021ab4   Section       20  qsqldriverplugin.o(.constdata__ZTV17QFactoryInterface)
    .constdata__ZTV17QSqlDriverPrivate       0x00021ac8   Section       16  qsqldriver.o(.constdata__ZTV17QSqlDriverPrivate)
    .constdata__ZTV21QSqlQueryModelPrivate   0x00021ad8   Section       16  qsqlquerymodel.o(.constdata__ZTV21QSqlQueryModelPrivate)
    .constdata__ZTV21QSqlTableModelPrivate   0x00021ae8   Section       32  qsqltablemodel.o(.constdata__ZTV21QSqlTableModelPrivate)
    .constdata__ZTV24QSqlRelationalTableModel 0x00021b08   Section      228  moc_qsqlrelationaltablemodel.o(.constdata__ZTV24QSqlRelationalTableModel)
    .constdata__ZTV25QAbstractItemModelPrivate 0x00021bec   Section       16  qsqlquerymodel.o(.constdata__ZTV25QAbstractItemModelPrivate)
    .constdata__ZTV26QSqlDriverFactoryInterface 0x00021bfc   Section       24  qsqldriverplugin.o(.constdata__ZTV26QSqlDriverFactoryInterface)
    .constdata__ZTV31QSqlRelationalTableModelPrivate 0x00021c14   Section       32  qsqlrelationaltablemodel.o(.constdata__ZTV31QSqlRelationalTableModelPrivate)
    .constdata__ZTVN15QtSharedPointer20ExternalRefCountDataE 0x00021c34   Section       20  qsqldriver.o(.constdata__ZTVN15QtSharedPointer20ExternalRefCountDataE)
    .conststring$3                           0x00021c48   Data           0  qsqldatabase.o(.conststring)
    .conststring                             0x00021c48   Section       26  qsqldatabase.o(.conststring)
    .ARM.exidx                               0x00021c64   Section        8  ucppinit.o(.ARM.exidx)
    .data$0                                  0x00400000   Data           0  qsqlquery.o(.data)
    this_nullQueryPrivate                    0x00400000   Data           8  qsqlquery.o(.data)
    .data                                    0x00400000   Section       48  qsqlquery.o(.data)
    this_nullDriver                          0x00400008   Data           8  qsqlquery.o(.data)
    this_nullResult                          0x00400010   Data           8  qsqlquery.o(.data)
    _ZGVcleanup@_Z16nullQueryPrivatev_0      0x00400018   Data           4  qsqlquery.o(.data)
    cleanup@_Z16nullQueryPrivatev_1          0x0040001c   Data           4  qsqlquery.o(.data)
    _ZGVcleanup@_Z10nullDriverv_0            0x00400020   Data           4  qsqlquery.o(.data)
    cleanup@_Z10nullDriverv_1                0x00400024   Data           4  qsqlquery.o(.data)
    _ZGVcleanup@_Z10nullResultv_0            0x00400028   Data           4  qsqlquery.o(.data)
    cleanup@_Z10nullResultv_1                0x0040002c   Data           4  qsqlquery.o(.data)
    .data$0                                  0x00400030   Data           0  qsqldatabase.o(.data)
    this_loader                              0x00400030   Data           8  qsqldatabase.o(.data)
    .data                                    0x00400030   Section       64  qsqldatabase.o(.data)
    this_dbDict                              0x00400038   Data           8  qsqldatabase.o(.data)
    qDriverDictInit                          0x00400040   Data           1  qsqldatabase.o(.data)
    _ZGVcleanup@_Z6loaderv_0                 0x00400048   Data           4  qsqldatabase.o(.data)
    cleanup@_Z6loaderv_1                     0x0040004c   Data           4  qsqldatabase.o(.data)
    _ZGVcleanup@_Z6dbDictv_0                 0x00400050   Data           4  qsqldatabase.o(.data)
    cleanup@_Z6dbDictv_1                     0x00400054   Data           4  qsqldatabase.o(.data)
    _ZGVn@_ZN19QSqlDatabasePrivate11shared_nullEv_0 0x00400058   Data           4  qsqldatabase.o(.data)
    _ZGVdr@_ZN19QSqlDatabasePrivate11shared_nullEv_1 0x0040005c   Data           4  qsqldatabase.o(.data)
    dr@_ZN19QSqlDatabasePrivate11shared_nullEv_2 0x00400060   Data           8  qsqldatabase.o(.data)
    _ZGVdict@_ZN19QSqlDatabasePrivate10driverDictEv_0 0x00400068   Data           4  qsqldatabase.o(.data)
    dict@_ZN19QSqlDatabasePrivate10driverDictEv_1 0x0040006c   Data           4  qsqldatabase.o(.data)
    .data$0                                  0x00400070   Data           0  ucppfini.o(.data)
    .data                                    0x00400070   Section        4  ucppfini.o(.data)
    .data__ZNSt19_Atomic_swap_structILi1EE12_S_swap_lockE 0x00400074   Section       12  qsql_sqlite.o(.data__ZNSt19_Atomic_swap_structILi1EE12_S_swap_lockE)
    .data__ZZN11QMetaTypeIdIP12sqlite3_stmtE14qt_metatype_idEvE11metatype_id 0x00400080   Section        4  qsql_sqlite.o(.data__ZZN11QMetaTypeIdIP12sqlite3_stmtE14qt_metatype_idEvE11metatype_id)
    .data__ZZN11QMetaTypeIdIP7sqlite3E14qt_metatype_idEvE11metatype_id 0x00400084   Section        4  qsql_sqlite.o(.data__ZZN11QMetaTypeIdIP7sqlite3E14qt_metatype_idEvE11metatype_id)
    .bss$5                                   0x00400088   Data           0  qsqldatabase.o(.bss)
    n@_ZN19QSqlDatabasePrivate11shared_nullEv_3 0x00400088   Data          48  qsqldatabase.o(.bss)
    .bss                                     0x00400088   Section       48  qsqldatabase.o(.bss)
    .bss$5                                   0x004000b8   Data           0  ucppfini.o(.bss)
    .bss                                     0x004000b8   Section     2048  ucppfini.o(.bss)

    Global Symbols

    Symbol Name                              Value     Ov Type        Size  Object(Section)

    BuildAttributes$$THUMB_ISAv2$ARM_ISAv5$M$VFPv2$PE$A:L22$X:L11$S22$IEEE1$IW$USESV6$~STKCKD$USESV7$~SHL$OSPACE$ROPI$IEEEJ$EBA8$UX$FPIC$INDIRECT$REQ8$PRES8$EABIv2 0x00000000   Number         0  anon$$obj.o ABSOLUTE
    QtCore{00040703}[2001b2dc].dll           0x00000000   Data           0  anon$$obj.o ABSOLUTE
    QtSql{00040703}[2001e61d].dll            0x00000000   Data           0  anon$$obj.o ABSOLUTE
    typeinfo for QSqlDriverFactoryInterface  0x00000000   Data          12  moc_qsqldriverplugin.o(.constdata__ZTI26QSqlDriverFactoryInterface)
    drtaeabi{000a0000}.dll                   0x00000000   Data           0  anon$$obj.o ABSOLUTE
    drtrvct2_2{000a0000}.dll                 0x00000000   Data           0  anon$$obj.o ABSOLUTE
    euser{000a0000}[100039e5].dll            0x00000000   Data           0  anon$$obj.o ABSOLUTE
    libc{00010001}[10207369].dll             0x00000000   Data           0  anon$$obj.o ABSOLUTE
    sqlite3{00060003}[10285a79].dll          0x00000000   Data           0  anon$$obj.o ABSOLUTE
    stdnew{000a0000}[20022178].dll           0x00000000   Data           0  anon$$obj.o ABSOLUTE
    SHT$$INIT_ARRAY$$Base                     - Undefined Weak Reference
    SHT$$INIT_ARRAY$$Limit                    - Undefined Weak Reference
    qt_assert_x(const char*, const char*, const char*, int)  - Undefined Reference
    _Z11qt_assert_xPKcS0_S0_i@QtCore{00040703}[2001b2dc].dll  - Undefined Reference
    qAddPostRoutine(void(*)())                - Undefined Reference
    _Z15qAddPostRoutinePFvvE@QtCore{00040703}[2001b2dc].dll  - Undefined Reference
    qt_message_output(QtMsgType, const char*)  - Undefined Reference
    _Z17qt_message_output9QtMsgTypePKc@QtCore{00040703}[2001b2dc].dll  - Undefined Reference
    QBasicAtomicPointer_testAndSetOrdered(void*volatile *, void*, void*)  - Undefined Reference
    _Z37QBasicAtomicPointer_testAndSetOrderedPVPvS_S_@QtCore{00040703}[2001b2dc].dll  - Undefined Reference
    qFree(void*)                              - Undefined Reference
    _Z5qFreePv@QtCore{00040703}[2001b2dc].dll  - Undefined Reference
    qHash(const QString&)                     - Undefined Reference
    _Z5qHashRK7QString@QtCore{00040703}[2001b2dc].dll  - Undefined Reference
    qMalloc(unsigned)                         - Undefined Reference
    _Z7qMallocj@QtCore{00040703}[2001b2dc].dll  - Undefined Reference
    qMemCopy(void*, const void*, unsigned)    - Undefined Reference
    _Z8qMemCopyPvPKvj@QtCore{00040703}[2001b2dc].dll  - Undefined Reference
    qWarning(const char*, ...)                - Undefined Reference
    _Z8qWarningPKcz@QtCore{00040703}[2001b2dc].dll  - Undefined Reference
    qBadAlloc()                               - Undefined Reference
    _Z9qBadAllocv@QtCore{00040703}[2001b2dc].dll  - Undefined Reference
    qt_assert(const char*, const char*, int)  - Undefined Reference
    _Z9qt_assertPKcS0_i@QtCore{00040703}[2001b2dc].dll  - Undefined Reference
    QByteArray::realloc(int)                  - Undefined Reference
    _ZN10QByteArray7reallocEi@QtCore{00040703}[2001b2dc].dll  - Undefined Reference
    QByteArray::QByteArray(const char*, int)  - Undefined Reference
    _ZN10QByteArrayC1EPKci@QtCore{00040703}[2001b2dc].dll  - Undefined Reference
    QMetaObject::invokeMethod(QObject*, const char*, Qt::ConnectionType, QGenericReturnArgument, QGenericArgument, QGenericArgument, QGenericArgument, QGenericArgument, QGenericArgument, QGenericArgument, QGenericArgument, QGenericArgument, QGenericArgument, QGenericArgument)  - Undefined Reference
    _ZN11QMetaObject12invokeMethodEP7QObjectPKcN2Qt14ConnectionTypeE22QGenericReturnArgument16QGenericArgumentS7_S7_S7_S7_S7_S7_S7_S7_S7_@QtCore{00040703}[2001b2dc].dll  - Undefined Reference
    QMetaObject::activate(QObject*, const QMetaObject*, int, void**)  - Undefined Reference
    _ZN11QMetaObject8activateEP7QObjectPKS_iPPv@QtCore{00040703}[2001b2dc].dll  - Undefined Reference
    QTextStream::QTextStream(QString*, QFlags<QIODevice::OpenModeFlag>)  - Undefined Reference
    _ZN11QTextStreamC1EP7QString6QFlagsIN9QIODevice12OpenModeFlagEE@QtCore{00040703}[2001b2dc].dll  - Undefined Reference
    QTextStream::~QTextStream()               - Undefined Reference
    _ZN11QTextStreamD1Ev@QtCore{00040703}[2001b2dc].dll  - Undefined Reference
    QTextStream::operator <<(const char*)     - Undefined Reference
    _ZN11QTextStreamlsEPKc@QtCore{00040703}[2001b2dc].dll  - Undefined Reference
    QTextStream::operator <<(const QString&)  - Undefined Reference
    _ZN11QTextStreamlsERK7QString@QtCore{00040703}[2001b2dc].dll  - Undefined Reference
    QTextStream::operator <<(char)            - Undefined Reference
    _ZN11QTextStreamlsEc@QtCore{00040703}[2001b2dc].dll  - Undefined Reference
    QTextStream::operator <<(int)             - Undefined Reference
    _ZN11QTextStreamlsEi@QtCore{00040703}[2001b2dc].dll  - Undefined Reference
    QVectorData::reallocate(QVectorData*, int, int, int)  - Undefined Reference
    _ZN11QVectorData10reallocateEPS_iii@QtCore{00040703}[2001b2dc].dll  - Undefined Reference
    QVectorData::shared_null                  - Undefined Reference
    _ZN11QVectorData11shared_nullE@QtCore{00040703}[2001b2dc].dll  - Undefined Reference
    QVectorData::free(QVectorData*, int)      - Undefined Reference
    _ZN11QVectorData4freeEPS_i@QtCore{00040703}[2001b2dc].dll  - Undefined Reference
    QVectorData::grow(int, int, int, bool)    - Undefined Reference
    _ZN11QVectorData4growEiiib@QtCore{00040703}[2001b2dc].dll  - Undefined Reference
    QVectorData::allocate(int, int)           - Undefined Reference
    _ZN11QVectorData8allocateEii@QtCore{00040703}[2001b2dc].dll  - Undefined Reference
    QFactoryLoader::QFactoryLoader(const char*, const QString&, Qt::CaseSensitivity)  - Undefined Reference
    _ZN14QFactoryLoaderC1EPKcRK7QStringN2Qt15CaseSensitivityE@QtCore{00040703}[2001b2dc].dll  - Undefined Reference
    QObjectPrivate::QObjectPrivate(int)       - Undefined Reference
    _ZN14QObjectPrivateC1Ei@QtCore{00040703}[2001b2dc].dll  - Undefined Reference
    QObjectPrivate::~QObjectPrivate()         - Undefined Reference
    _ZN14QObjectPrivateD1Ev@QtCore{00040703}[2001b2dc].dll  - Undefined Reference
    QReadWriteLock::lockForRead()             - Undefined Reference
    _ZN14QReadWriteLock11lockForReadEv@QtCore{00040703}[2001b2dc].dll  - Undefined Reference
    QReadWriteLock::lockForWrite()            - Undefined Reference
    _ZN14QReadWriteLock12lockForWriteEv@QtCore{00040703}[2001b2dc].dll  - Undefined Reference
    QReadWriteLock::unlock()                  - Undefined Reference
    _ZN14QReadWriteLock6unlockEv@QtCore{00040703}[2001b2dc].dll  - Undefined Reference
    QReadWriteLock::QReadWriteLock()          - Undefined Reference
    _ZN14QReadWriteLockC1Ev@QtCore{00040703}[2001b2dc].dll  - Undefined Reference
    QReadWriteLock::~QReadWriteLock()         - Undefined Reference
    _ZN14QReadWriteLockD1Ev@QtCore{00040703}[2001b2dc].dll  - Undefined Reference
    QCoreApplication::self                    - Undefined Reference
    _ZN16QCoreApplication4selfE@QtCore{00040703}[2001b2dc].dll  - Undefined Reference
    QCoreApplication::translate(const char*, const char*, const char*, QCoreApplication::Encoding)  - Undefined Reference
    _ZN16QCoreApplication9translateEPKcS1_S1_NS_8EncodingE@QtCore{00040703}[2001b2dc].dll  - Undefined Reference
    QAbstractItemModel::insertRows(int, int, const QModelIndex&)  - Undefined Reference
    _ZN18QAbstractItemModel10insertRowsEiiRK11QModelIndex@QtCore{00040703}[2001b2dc].dll  - Undefined Reference
    QAbstractItemModel::removeRows(int, int, const QModelIndex&)  - Undefined Reference
    _ZN18QAbstractItemModel10removeRowsEiiRK11QModelIndex@QtCore{00040703}[2001b2dc].dll  - Undefined Reference
    QAbstractItemModel::dataChanged(const QModelIndex&, const QModelIndex&)  - Undefined Reference
    _ZN18QAbstractItemModel11dataChangedERK11QModelIndexS2_@QtCore{00040703}[2001b2dc].dll  - Undefined Reference
    QAbstractItemModel::setItemData(const QModelIndex&, const QMap<int, QVariant>&)  - Undefined Reference
    _ZN18QAbstractItemModel11setItemDataERK11QModelIndexRK4QMapIi8QVariantE@QtCore{00040703}[2001b2dc].dll  - Undefined Reference
    QAbstractItemModel::endInsertRows()       - Undefined Reference
    _ZN18QAbstractItemModel13endInsertRowsEv@QtCore{00040703}[2001b2dc].dll  - Undefined Reference
    QAbstractItemModel::endRemoveRows()       - Undefined Reference
    _ZN18QAbstractItemModel13endRemoveRowsEv@QtCore{00040703}[2001b2dc].dll  - Undefined Reference
    QAbstractItemModel::beginInsertRows(const QModelIndex&, int, int)  - Undefined Reference
    _ZN18QAbstractItemModel15beginInsertRowsERK11QModelIndexii@QtCore{00040703}[2001b2dc].dll  - Undefined Reference
    QAbstractItemModel::beginRemoveRows(const QModelIndex&, int, int)  - Undefined Reference
    _ZN18QAbstractItemModel15beginRemoveRowsERK11QModelIndexii@QtCore{00040703}[2001b2dc].dll  - Undefined Reference
    QAbstractItemModel::endInsertColumns()    - Undefined Reference
    _ZN18QAbstractItemModel16endInsertColumnsEv@QtCore{00040703}[2001b2dc].dll  - Undefined Reference
    QAbstractItemModel::endRemoveColumns()    - Undefined Reference
    _ZN18QAbstractItemModel16endRemoveColumnsEv@QtCore{00040703}[2001b2dc].dll  - Undefined Reference
    QAbstractItemModel::headerDataChanged(Qt::Orientation, int, int)  - Undefined Reference
    _ZN18QAbstractItemModel17headerDataChangedEN2Qt11OrientationEii@QtCore{00040703}[2001b2dc].dll  - Undefined Reference
    QAbstractItemModel::beginInsertColumns(const QModelIndex&, int, int)  - Undefined Reference
    _ZN18QAbstractItemModel18beginInsertColumnsERK11QModelIndexii@QtCore{00040703}[2001b2dc].dll  - Undefined Reference
    QAbstractItemModel::beginRemoveColumns(const QModelIndex&, int, int)  - Undefined Reference
    _ZN18QAbstractItemModel18beginRemoveColumnsERK11QModelIndexii@QtCore{00040703}[2001b2dc].dll  - Undefined Reference
    QAbstractItemModel::sort(int, Qt::SortOrder)  - Undefined Reference
    _ZN18QAbstractItemModel4sortEiN2Qt9SortOrderE@QtCore{00040703}[2001b2dc].dll  - Undefined Reference
    QAbstractItemModel::reset()               - Undefined Reference
    _ZN18QAbstractItemModel5resetEv@QtCore{00040703}[2001b2dc].dll  - Undefined Reference
    QAbstractItemModel::revert()              - Undefined Reference
    _ZN18QAbstractItemModel6revertEv@QtCore{00040703}[2001b2dc].dll  - Undefined Reference
    QAbstractItemModel::submit()              - Undefined Reference
    _ZN18QAbstractItemModel6submitEv@QtCore{00040703}[2001b2dc].dll  - Undefined Reference
    QAbstractItemModel::setData(const QModelIndex&, const QVariant&, int)  - Undefined Reference
    _ZN18QAbstractItemModel7setDataERK11QModelIndexRK8QVarianti@QtCore{00040703}[2001b2dc].dll  - Undefined Reference
    QAbstractTableModel::qt_metacall(QMetaObject::Call, int, void**)  - Undefined Reference
    _ZN19QAbstractTableModel11qt_metacallEN11QMetaObject4CallEiPPv@QtCore{00040703}[2001b2dc].dll  - Undefined Reference
    QAbstractTableModel::qt_metacast(const char*)  - Undefined Reference
    _ZN19QAbstractTableModel11qt_metacastEPKc@QtCore{00040703}[2001b2dc].dll  - Undefined Reference
    QAbstractTableModel::dropMimeData(const QMimeData*, Qt::DropAction, int, int, const QModelIndex&)  - Undefined Reference
    _ZN19QAbstractTableModel12dropMimeDataEPK9QMimeDataN2Qt10DropActionEiiRK11QModelIndex@QtCore{00040703}[2001b2dc].dll  - Undefined Reference
    QAbstractTableModel::staticMetaObject     - Undefined Reference
    _ZN19QAbstractTableModel16staticMetaObjectE@QtCore{00040703}[2001b2dc].dll  - Undefined Reference
    QAbstractTableModel::QAbstractTableModel__sub_object(QAbstractItemModelPrivate&, QObject*)  - Undefined Reference
    _ZN19QAbstractTableModelC2ER25QAbstractItemModelPrivateP7QObject@QtCore{00040703}[2001b2dc].dll  - Undefined Reference
    QAbstractTableModel::~QAbstractTableModel__sub_object()  - Undefined Reference
    _ZN19QAbstractTableModelD2Ev@QtCore{00040703}[2001b2dc].dll  - Undefined Reference
    QAbstractItemModelPrivate::defaultRoleNames()  - Undefined Reference
    _ZN25QAbstractItemModelPrivate16defaultRoleNamesEv@QtCore{00040703}[2001b2dc].dll  - Undefined Reference
    User::LockedDec(int&)                     - Undefined Reference
    _ZN4User9LockedDecERi@euser{000a0000}[100039e5].dll  - Undefined Reference
    User::LockedInc(int&)                     - Undefined Reference
    _ZN4User9LockedIncERi@euser{000a0000}[100039e5].dll  - Undefined Reference
    QObject::childEvent(QChildEvent*)         - Undefined Reference
    _ZN7QObject10childEventEP11QChildEvent@QtCore{00040703}[2001b2dc].dll  - Undefined Reference
    QObject::timerEvent(QTimerEvent*)         - Undefined Reference
    _ZN7QObject10timerEventEP11QTimerEvent@QtCore{00040703}[2001b2dc].dll  - Undefined Reference
    QObject::customEvent(QEvent*)             - Undefined Reference
    _ZN7QObject11customEventEP6QEvent@QtCore{00040703}[2001b2dc].dll  - Undefined Reference
    QObject::eventFilter(QObject*, QEvent*)   - Undefined Reference
    _ZN7QObject11eventFilterEPS_P6QEvent@QtCore{00040703}[2001b2dc].dll  - Undefined Reference
    QObject::qt_metacall(QMetaObject::Call, int, void**)  - Undefined Reference
    _ZN7QObject11qt_metacallEN11QMetaObject4CallEiPPv@QtCore{00040703}[2001b2dc].dll  - Undefined Reference
    QObject::qt_metacast(const char*)         - Undefined Reference
    _ZN7QObject11qt_metacastEPKc@QtCore{00040703}[2001b2dc].dll  - Undefined Reference
    QObject::connectNotify(const char*)       - Undefined Reference
    _ZN7QObject13connectNotifyEPKc@QtCore{00040703}[2001b2dc].dll  - Undefined Reference
    QObject::disconnectNotify(const char*)    - Undefined Reference
    _ZN7QObject16disconnectNotifyEPKc@QtCore{00040703}[2001b2dc].dll  - Undefined Reference
    QObject::staticMetaObject                 - Undefined Reference
    _ZN7QObject16staticMetaObjectE@QtCore{00040703}[2001b2dc].dll  - Undefined Reference
    QObject::event(QEvent*)                   - Undefined Reference
    _ZN7QObject5eventEP6QEvent@QtCore{00040703}[2001b2dc].dll  - Undefined Reference
    QObject::QObject(QObject*)                - Undefined Reference
    _ZN7QObjectC1EPS_@QtCore{00040703}[2001b2dc].dll  - Undefined Reference
    QObject::QObject(QObjectPrivate&, QObject*)  - Undefined Reference
    _ZN7QObjectC1ER14QObjectPrivatePS_@QtCore{00040703}[2001b2dc].dll  - Undefined Reference
    QObject::~QObject()                       - Undefined Reference
    _ZN7QObjectD1Ev@QtCore{00040703}[2001b2dc].dll  - Undefined Reference
    QString::fromLatin1(const char*, int)     - Undefined Reference
    _ZN7QString10fromLatin1EPKci@QtCore{00040703}[2001b2dc].dll  - Undefined Reference
    QString::shared_null                      - Undefined Reference
    _ZN7QString11shared_nullE@QtCore{00040703}[2001b2dc].dll  - Undefined Reference
    QString::fromLatin1_helper(const char*, int)  - Undefined Reference
    _ZN7QString17fromLatin1_helperEPKci@QtCore{00040703}[2001b2dc].dll  - Undefined Reference
    QString::chop(int)                        - Undefined Reference
    _ZN7QString4chopEi@QtCore{00040703}[2001b2dc].dll  - Undefined Reference
    QString::free(QString::Data*)             - Undefined Reference
    _ZN7QString4freeEPNS_4DataE@QtCore{00040703}[2001b2dc].dll  - Undefined Reference
    QString::grow(int)                        - Undefined Reference
    _ZN7QString4growEi@QtCore{00040703}[2001b2dc].dll  - Undefined Reference
    QString::append(QChar)                    - Undefined Reference
    _ZN7QString6appendE5QChar@QtCore{00040703}[2001b2dc].dll  - Undefined Reference
    QString::append(const QLatin1String&)     - Undefined Reference
    _ZN7QString6appendERK13QLatin1String@QtCore{00040703}[2001b2dc].dll  - Undefined Reference
    QString::append(const QString&)           - Undefined Reference
    _ZN7QString6appendERKS_@QtCore{00040703}[2001b2dc].dll  - Undefined Reference
    QString::expand(int)                      - Undefined Reference
    _ZN7QString6expandEi@QtCore{00040703}[2001b2dc].dll  - Undefined Reference
    QString::insert(int, QChar)               - Undefined Reference
    _ZN7QString6insertEi5QChar@QtCore{00040703}[2001b2dc].dll  - Undefined Reference
    QString::insert(int, const QChar*, int)   - Undefined Reference
    _ZN7QString6insertEiPK5QChari@QtCore{00040703}[2001b2dc].dll  - Undefined Reference
    QString::insert(int, const QLatin1String&)  - Undefined Reference
    _ZN7QString6insertEiRK13QLatin1String@QtCore{00040703}[2001b2dc].dll  - Undefined Reference
    QString::number(int, int)                 - Undefined Reference
    _ZN7QString6numberEii@QtCore{00040703}[2001b2dc].dll  - Undefined Reference
    QString::remove(QChar, Qt::CaseSensitivity)  - Undefined Reference
    _ZN7QString6removeE5QCharN2Qt15CaseSensitivityE@QtCore{00040703}[2001b2dc].dll  - Undefined Reference
    QString::realloc(int)                     - Undefined Reference
    _ZN7QString7reallocEi@QtCore{00040703}[2001b2dc].dll  - Undefined Reference
    QString::realloc()                        - Undefined Reference
    _ZN7QString7reallocEv@QtCore{00040703}[2001b2dc].dll  - Undefined Reference
    QString::replace(QChar, const QLatin1String&, Qt::CaseSensitivity)  - Undefined Reference
    _ZN7QString7replaceE5QCharRK13QLatin1StringN2Qt15CaseSensitivityE@QtCore{00040703}[2001b2dc].dll  - Undefined Reference
    QString::replace(int, int, const QString&)  - Undefined Reference
    _ZN7QString7replaceEiiRKS_@QtCore{00040703}[2001b2dc].dll  - Undefined Reference
    QString::truncate(int)                    - Undefined Reference
    _ZN7QString8truncateEi@QtCore{00040703}[2001b2dc].dll  - Undefined Reference
    QString::fromAscii(const char*, int)      - Undefined Reference
    _ZN7QString9fromAsciiEPKci@QtCore{00040703}[2001b2dc].dll  - Undefined Reference
    QString::QString(QChar)                   - Undefined Reference
    _ZN7QStringC1E5QChar@QtCore{00040703}[2001b2dc].dll  - Undefined Reference
    QString::QString(const QChar*)            - Undefined Reference
    _ZN7QStringC1EPK5QChar@QtCore{00040703}[2001b2dc].dll  - Undefined Reference
    QString::QString(const QChar*, int)       - Undefined Reference
    _ZN7QStringC1EPK5QChari@QtCore{00040703}[2001b2dc].dll  - Undefined Reference
    QString::QString(int, Qt::Initialization)  - Undefined Reference
    _ZN7QStringC1EiN2Qt14InitializationE@QtCore{00040703}[2001b2dc].dll  - Undefined Reference
    QString::operator =(const QString&)       - Undefined Reference
    _ZN7QStringaSERKS_@QtCore{00040703}[2001b2dc].dll  - Undefined Reference
    QMapData::createData(int)                 - Undefined Reference
    _ZN8QMapData10createDataEi@QtCore{00040703}[2001b2dc].dll  - Undefined Reference
    QMapData::node_create(QMapData::Node**, int, int)  - Undefined Reference
    _ZN8QMapData11node_createEPPNS_4NodeEii@QtCore{00040703}[2001b2dc].dll  - Undefined Reference
    QMapData::node_delete(QMapData::Node**, int, QMapData::Node*)  - Undefined Reference
    _ZN8QMapData11node_deleteEPPNS_4NodeEiS1_@QtCore{00040703}[2001b2dc].dll  - Undefined Reference
    QMapData::shared_null                     - Undefined Reference
    _ZN8QMapData11shared_nullE@QtCore{00040703}[2001b2dc].dll  - Undefined Reference
    QMapData::continueFreeData(int)           - Undefined Reference
    _ZN8QMapData16continueFreeDataEi@QtCore{00040703}[2001b2dc].dll  - Undefined Reference
    QVariant::typeToName(QVariant::Type)      - Undefined Reference
    _ZN8QVariant10typeToNameENS_4TypeE@QtCore{00040703}[2001b2dc].dll  - Undefined Reference
    QVariant::QVariant(QVariant::Type)        - Undefined Reference
    _ZN8QVariantC1ENS_4TypeE@QtCore{00040703}[2001b2dc].dll  - Undefined Reference
    QVariant::QVariant(const QByteArray&)     - Undefined Reference
    _ZN8QVariantC1ERK10QByteArray@QtCore{00040703}[2001b2dc].dll  - Undefined Reference
    QVariant::QVariant(const QLatin1String&)  - Undefined Reference
    _ZN8QVariantC1ERK13QLatin1String@QtCore{00040703}[2001b2dc].dll  - Undefined Reference
    QVariant::QVariant(const QString&)        - Undefined Reference
    _ZN8QVariantC1ERK7QString@QtCore{00040703}[2001b2dc].dll  - Undefined Reference
    QVariant::QVariant(const QVariant&)       - Undefined Reference
    _ZN8QVariantC1ERKS_@QtCore{00040703}[2001b2dc].dll  - Undefined Reference
    QVariant::QVariant(double)                - Undefined Reference
    _ZN8QVariantC1Ed@QtCore{00040703}[2001b2dc].dll  - Undefined Reference
    QVariant::QVariant(int)                   - Undefined Reference
    _ZN8QVariantC1Ei@QtCore{00040703}[2001b2dc].dll  - Undefined Reference
    QVariant::QVariant(int, const void*, unsigned)  - Undefined Reference
    _ZN8QVariantC1EiPKvj@QtCore{00040703}[2001b2dc].dll  - Undefined Reference
    QVariant::QVariant(long long)             - Undefined Reference
    _ZN8QVariantC1Ex@QtCore{00040703}[2001b2dc].dll  - Undefined Reference
    QVariant::~QVariant()                     - Undefined Reference
    _ZN8QVariantD1Ev@QtCore{00040703}[2001b2dc].dll  - Undefined Reference
    QVariant::operator =(const QVariant&)     - Undefined Reference
    _ZN8QVariantaSERKS_@QtCore{00040703}[2001b2dc].dll  - Undefined Reference
    QDateTime::~QDateTime()                   - Undefined Reference
    _ZN9QDateTimeD1Ev@QtCore{00040703}[2001b2dc].dll  - Undefined Reference
    QHashData::free_helper(void(*)(QHashData::Node*))  - Undefined Reference
    _ZN9QHashData11free_helperEPFvPNS_4NodeEE@QtCore{00040703}[2001b2dc].dll  - Undefined Reference
    QHashData::shared_null                    - Undefined Reference
    _ZN9QHashData11shared_nullE@QtCore{00040703}[2001b2dc].dll  - Undefined Reference
    QHashData::allocateNode(int)              - Undefined Reference
    _ZN9QHashData12allocateNodeEi@QtCore{00040703}[2001b2dc].dll  - Undefined Reference
    QHashData::detach_helper2(void(*)(QHashData::Node*, void*), void(*)(QHashData::Node*), int, int)  - Undefined Reference
    _ZN9QHashData14detach_helper2EPFvPNS_4NodeEPvEPFvS1_Eii@QtCore{00040703}[2001b2dc].dll  - Undefined Reference
    QHashData::rehash(int)                    - Undefined Reference
    _ZN9QHashData6rehashEi@QtCore{00040703}[2001b2dc].dll  - Undefined Reference
    QHashData::freeNode(void*)                - Undefined Reference
    _ZN9QHashData8freeNodeEPv@QtCore{00040703}[2001b2dc].dll  - Undefined Reference
    QHashData::nextNode(QHashData::Node*)     - Undefined Reference
    _ZN9QHashData8nextNodeEPNS_4NodeE@QtCore{00040703}[2001b2dc].dll  - Undefined Reference
    QListData::detach_grow(int*, int)         - Undefined Reference
    _ZN9QListData11detach_growEPii@QtCore{00040703}[2001b2dc].dll  - Undefined Reference
    QListData::shared_null                    - Undefined Reference
    _ZN9QListData11shared_nullE@QtCore{00040703}[2001b2dc].dll  - Undefined Reference
    QListData::append()                       - Undefined Reference
    _ZN9QListData6appendEv@QtCore{00040703}[2001b2dc].dll  - Undefined Reference
    QListData::detach(int)                    - Undefined Reference
    _ZN9QListData6detachEi@QtCore{00040703}[2001b2dc].dll  - Undefined Reference
    QListData::realloc(int)                   - Undefined Reference
    _ZN9QListData7reallocEi@QtCore{00040703}[2001b2dc].dll  - Undefined Reference
    QMetaType::registerType(const char*, void(*)(void*), void*(*)(const void*))  - Undefined Reference
    _ZN9QMetaType12registerTypeEPKcPFvPvEPFS2_PKvE@QtCore{00040703}[2001b2dc].dll  - Undefined Reference
    QMetaType::registerTypedef(const char*, int)  - Undefined Reference
    _ZN9QMetaType15registerTypedefEPKci@QtCore{00040703}[2001b2dc].dll  - Undefined Reference
    QtPrivate::QStringList_join(const QStringList*, const QString&)  - Undefined Reference
    _ZN9QtPrivate16QStringList_joinEPK11QStringListRK7QString@QtCore{00040703}[2001b2dc].dll  - Undefined Reference
    QtPrivate::QStringList_contains(const QStringList*, const QString&, Qt::CaseSensitivity)  - Undefined Reference
    _ZN9QtPrivate20QStringList_containsEPK11QStringListRK7QStringN2Qt15CaseSensitivityE@QtCore{00040703}[2001b2dc].dll  - Undefined Reference
    QMetaObject::tr(const char*, const char*) const  - Undefined Reference
    _ZNK11QMetaObject2trEPKcS1_@QtCore{00040703}[2001b2dc].dll  - Undefined Reference
    QFactoryLoader::keys() const              - Undefined Reference
    _ZNK14QFactoryLoader4keysEv@QtCore{00040703}[2001b2dc].dll  - Undefined Reference
    QFactoryLoader::instance(const QString&) const  - Undefined Reference
    _ZNK14QFactoryLoader8instanceERK7QString@QtCore{00040703}[2001b2dc].dll  - Undefined Reference
    QAbstractItemModel::headerData(int, Qt::Orientation, int) const  - Undefined Reference
    _ZNK18QAbstractItemModel10headerDataEiN2Qt11OrientationEi@QtCore{00040703}[2001b2dc].dll  - Undefined Reference
    QAbstractItemModel::supportedDropActions() const  - Undefined Reference
    _ZNK18QAbstractItemModel20supportedDropActionsEv@QtCore{00040703}[2001b2dc].dll  - Undefined Reference
    QAbstractItemModel::span(const QModelIndex&) const  - Undefined Reference
    _ZNK18QAbstractItemModel4spanERK11QModelIndex@QtCore{00040703}[2001b2dc].dll  - Undefined Reference
    QAbstractItemModel::buddy(const QModelIndex&) const  - Undefined Reference
    _ZNK18QAbstractItemModel5buddyERK11QModelIndex@QtCore{00040703}[2001b2dc].dll  - Undefined Reference
    QAbstractItemModel::flags(const QModelIndex&) const  - Undefined Reference
    _ZNK18QAbstractItemModel5flagsERK11QModelIndex@QtCore{00040703}[2001b2dc].dll  - Undefined Reference
    QAbstractItemModel::match(const QModelIndex&, int, const QVariant&, int, QFlags<Qt::MatchFlag>) const  - Undefined Reference
    _ZNK18QAbstractItemModel5matchERK11QModelIndexiRK8QVarianti6QFlagsIN2Qt9MatchFlagEE@QtCore{00040703}[2001b2dc].dll  - Undefined Reference
    QAbstractItemModel::itemData(const QModelIndex&) const  - Undefined Reference
    _ZNK18QAbstractItemModel8itemDataERK11QModelIndex@QtCore{00040703}[2001b2dc].dll  - Undefined Reference
    QAbstractItemModel::mimeData(const QList<QModelIndex>&) const  - Undefined Reference
    _ZNK18QAbstractItemModel8mimeDataERK5QListI11QModelIndexE@QtCore{00040703}[2001b2dc].dll  - Undefined Reference
    QAbstractItemModel::mimeTypes() const     - Undefined Reference
    _ZNK18QAbstractItemModel9mimeTypesEv@QtCore{00040703}[2001b2dc].dll  - Undefined Reference
    QAbstractTableModel::hasChildren(const QModelIndex&) const  - Undefined Reference
    _ZNK19QAbstractTableModel11hasChildrenERK11QModelIndex@QtCore{00040703}[2001b2dc].dll  - Undefined Reference
    QAbstractTableModel::index(int, int, const QModelIndex&) const  - Undefined Reference
    _ZNK19QAbstractTableModel5indexEiiRK11QModelIndex@QtCore{00040703}[2001b2dc].dll  - Undefined Reference
    QAbstractTableModel::parent(const QModelIndex&) const  - Undefined Reference
    _ZNK19QAbstractTableModel6parentERK11QModelIndex@QtCore{00040703}[2001b2dc].dll  - Undefined Reference
    QChar::isSpace() const                    - Undefined Reference
    _ZNK5QChar7isSpaceEv@QtCore{00040703}[2001b2dc].dll  - Undefined Reference
    QDate::isValid() const                    - Undefined Reference
    _ZNK5QDate7isValidEv@QtCore{00040703}[2001b2dc].dll  - Undefined Reference
    QDate::toString(Qt::DateFormat) const     - Undefined Reference
    _ZNK5QDate8toStringEN2Qt10DateFormatE@QtCore{00040703}[2001b2dc].dll  - Undefined Reference
    QTime::isValid() const                    - Undefined Reference
    _ZNK5QTime7isValidEv@QtCore{00040703}[2001b2dc].dll  - Undefined Reference
    QTime::toString(Qt::DateFormat) const     - Undefined Reference
    _ZNK5QTime8toStringEN2Qt10DateFormatE@QtCore{00040703}[2001b2dc].dll  - Undefined Reference
    QString::startsWith(const QLatin1String&, Qt::CaseSensitivity) const  - Undefined Reference
    _ZNK7QString10startsWithERK13QLatin1StringN2Qt15CaseSensitivityE@QtCore{00040703}[2001b2dc].dll  - Undefined Reference
    QString::startsWith(const QChar&, Qt::CaseSensitivity) const  - Undefined Reference
    _ZNK7QString10startsWithERK5QCharN2Qt15CaseSensitivityE@QtCore{00040703}[2001b2dc].dll  - Undefined Reference
    QString::lastIndexOf(QChar, int, Qt::CaseSensitivity) const  - Undefined Reference
    _ZNK7QString11lastIndexOfE5QChariN2Qt15CaseSensitivityE@QtCore{00040703}[2001b2dc].dll  - Undefined Reference
    QString::toLocal8Bit() const              - Undefined Reference
    _ZNK7QString11toLocal8BitEv@QtCore{00040703}[2001b2dc].dll  - Undefined Reference
    QString::arg(const QString&, int, const QChar&) const  - Undefined Reference
    _ZNK7QString3argERKS_iRK5QChar@QtCore{00040703}[2001b2dc].dll  - Undefined Reference
    QString::arg(long long, int, int, const QChar&) const  - Undefined Reference
    _ZNK7QString3argExiiRK5QChar@QtCore{00040703}[2001b2dc].dll  - Undefined Reference
    QString::mid(int, int) const              - Undefined Reference
    _ZNK7QString3midEii@QtCore{00040703}[2001b2dc].dll  - Undefined Reference
    QString::left(int) const                  - Undefined Reference
    _ZNK7QString4leftEi@QtCore{00040703}[2001b2dc].dll  - Undefined Reference
    QString::right(int) const                 - Undefined Reference
    _ZNK7QString5rightEi@QtCore{00040703}[2001b2dc].dll  - Undefined Reference
    QString::split(const QChar&, QString::SplitBehavior, Qt::CaseSensitivity) const  - Undefined Reference
    _ZNK7QString5splitERK5QCharNS_13SplitBehaviorEN2Qt15CaseSensitivityE@QtCore{00040703}[2001b2dc].dll  - Undefined Reference
    QString::toInt(bool*, int) const          - Undefined Reference
    _ZNK7QString5toIntEPbi@QtCore{00040703}[2001b2dc].dll  - Undefined Reference
    QString::utf16() const                    - Undefined Reference
    _ZNK7QString5utf16Ev@QtCore{00040703}[2001b2dc].dll  - Undefined Reference
    QString::toUtf8() const                   - Undefined Reference
    _ZNK7QString6toUtf8Ev@QtCore{00040703}[2001b2dc].dll  - Undefined Reference
    QString::compare(const QString&, Qt::CaseSensitivity) const  - Undefined Reference
    _ZNK7QString7compareERKS_N2Qt15CaseSensitivityE@QtCore{00040703}[2001b2dc].dll  - Undefined Reference
    QString::indexOf(QChar, int, Qt::CaseSensitivity) const  - Undefined Reference
    _ZNK7QString7indexOfE5QChariN2Qt15CaseSensitivityE@QtCore{00040703}[2001b2dc].dll  - Undefined Reference
    QString::section(const QString&, int, int, QFlags<QString::SectionFlag>) const  - Undefined Reference
    _ZNK7QString7sectionERKS_ii6QFlagsINS_11SectionFlagEE@QtCore{00040703}[2001b2dc].dll  - Undefined Reference
    QString::toLower() const                  - Undefined Reference
    _ZNK7QString7toLowerEv@QtCore{00040703}[2001b2dc].dll  - Undefined Reference
    QString::toUpper() const                  - Undefined Reference
    _ZNK7QString7toUpperEv@QtCore{00040703}[2001b2dc].dll  - Undefined Reference
    QString::trimmed() const                  - Undefined Reference
    _ZNK7QString7trimmedEv@QtCore{00040703}[2001b2dc].dll  - Undefined Reference
    QString::endsWith(const QLatin1String&, Qt::CaseSensitivity) const  - Undefined Reference
    _ZNK7QString8endsWithERK13QLatin1StringN2Qt15CaseSensitivityE@QtCore{00040703}[2001b2dc].dll  - Undefined Reference
    QString::endsWith(const QChar&, Qt::CaseSensitivity) const  - Undefined Reference
    _ZNK7QString8endsWithERK5QCharN2Qt15CaseSensitivityE@QtCore{00040703}[2001b2dc].dll  - Undefined Reference
    QString::toLatin1() const                 - Undefined Reference
    _ZNK7QString8toLatin1Ev@QtCore{00040703}[2001b2dc].dll  - Undefined Reference
    QString::operator ==(const QLatin1String&) const  - Undefined Reference
    _ZNK7QStringeqERK13QLatin1String@QtCore{00040703}[2001b2dc].dll  - Undefined Reference
    QString::operator ==(const QString&) const  - Undefined Reference
    _ZNK7QStringeqERKS_@QtCore{00040703}[2001b2dc].dll  - Undefined Reference
    QString::operator <(const QString&) const  - Undefined Reference
    _ZNK7QStringltERKS_@QtCore{00040703}[2001b2dc].dll  - Undefined Reference
    QVariant::toDateTime() const              - Undefined Reference
    _ZNK8QVariant10toDateTimeEv@QtCore{00040703}[2001b2dc].dll  - Undefined Reference
    QVariant::toLongLong(bool*) const         - Undefined Reference
    _ZNK8QVariant10toLongLongEPb@QtCore{00040703}[2001b2dc].dll  - Undefined Reference
    QVariant::toByteArray() const             - Undefined Reference
    _ZNK8QVariant11toByteArrayEv@QtCore{00040703}[2001b2dc].dll  - Undefined Reference
    QVariant::cmp(const QVariant&) const      - Undefined Reference
    _ZNK8QVariant3cmpERKS_@QtCore{00040703}[2001b2dc].dll  - Undefined Reference
    QVariant::type() const                    - Undefined Reference
    _ZNK8QVariant4typeEv@QtCore{00040703}[2001b2dc].dll  - Undefined Reference
    QVariant::toInt(bool*) const              - Undefined Reference
    _ZNK8QVariant5toIntEPb@QtCore{00040703}[2001b2dc].dll  - Undefined Reference
    QVariant::isNull() const                  - Undefined Reference
    _ZNK8QVariant6isNullEv@QtCore{00040703}[2001b2dc].dll  - Undefined Reference
    QVariant::toBool() const                  - Undefined Reference
    _ZNK8QVariant6toBoolEv@QtCore{00040703}[2001b2dc].dll  - Undefined Reference
    QVariant::toDate() const                  - Undefined Reference
    _ZNK8QVariant6toDateEv@QtCore{00040703}[2001b2dc].dll  - Undefined Reference
    QVariant::toList() const                  - Undefined Reference
    _ZNK8QVariant6toListEv@QtCore{00040703}[2001b2dc].dll  - Undefined Reference
    QVariant::toTime() const                  - Undefined Reference
    _ZNK8QVariant6toTimeEv@QtCore{00040703}[2001b2dc].dll  - Undefined Reference
    QVariant::toDouble(bool*) const           - Undefined Reference
    _ZNK8QVariant8toDoubleEPb@QtCore{00040703}[2001b2dc].dll  - Undefined Reference
    QVariant::toString() const                - Undefined Reference
    _ZNK8QVariant8toStringEv@QtCore{00040703}[2001b2dc].dll  - Undefined Reference
    QVariant::constData() const               - Undefined Reference
    _ZNK8QVariant9constDataEv@QtCore{00040703}[2001b2dc].dll  - Undefined Reference
    QDateTime::isValid() const                - Undefined Reference
    _ZNK9QDateTime7isValidEv@QtCore{00040703}[2001b2dc].dll  - Undefined Reference
    QDateTime::toString(Qt::DateFormat) const  - Undefined Reference
    _ZNK9QDateTime8toStringEN2Qt10DateFormatE@QtCore{00040703}[2001b2dc].dll  - Undefined Reference
    typeinfo for QObjectPrivate               - Undefined Reference
    _ZTI14QObjectPrivate@QtCore{00040703}[2001b2dc].dll  - Undefined Reference
    typeinfo for QAbstractTableModel          - Undefined Reference
    _ZTI19QAbstractTableModel@QtCore{00040703}[2001b2dc].dll  - Undefined Reference
    typeinfo for QObject                      - Undefined Reference
    _ZTI7QObject@QtCore{00040703}[2001b2dc].dll  - Undefined Reference
    typeinfo for std::bad_alloc               - Undefined Reference
    _ZTISt9bad_alloc@stdnew{000a0000}[20022178].dll  - Undefined Reference
    vtable for __cxxabiv1::__class_type_info  - Undefined Reference
    _ZTVN10__cxxabiv117__class_type_infoE@drtaeabi{000a0000}.dll  - Undefined Reference
    vtable for __cxxabiv1::__si_class_type_info  - Undefined Reference
    _ZTVN10__cxxabiv120__si_class_type_infoE@drtaeabi{000a0000}.dll  - Undefined Reference
    vtable for __cxxabiv1::__vmi_class_type_info  - Undefined Reference
    _ZTVN10__cxxabiv121__vmi_class_type_infoE@drtaeabi{000a0000}.dll  - Undefined Reference
    operator delete (void*)                   - Undefined Reference
    _ZdlPv@stdnew{000a0000}[20022178].dll     - Undefined Reference
    operator <<(QDebug, const QVariant&)      - Undefined Reference
    _Zls6QDebugRK8QVariant@QtCore{00040703}[2001b2dc].dll  - Undefined Reference
    operator new(unsigned)                    - Undefined Reference
    _Znwj@stdnew{000a0000}[20022178].dll      - Undefined Reference
    __ARM_ll_cmpu                             - Undefined Reference
    __ARM_ll_cmpu@drtrvct2_2{000a0000}.dll    - Undefined Reference
    __aeabi_idivmod                           - Undefined Reference
    __aeabi_idivmod@drtaeabi{000a0000}.dll    - Undefined Reference
    __aeabi_memclr4                           - Undefined Reference
    __aeabi_memclr4@drtaeabi{000a0000}.dll    - Undefined Reference
    __aeabi_memcpy                            - Undefined Reference
    __aeabi_memcpy4                           - Undefined Reference
    __aeabi_memcpy4@drtaeabi{000a0000}.dll    - Undefined Reference
    __aeabi_memcpy@drtaeabi{000a0000}.dll     - Undefined Reference
    __aeabi_uidivmod                          - Undefined Reference
    __aeabi_uidivmod@drtaeabi{000a0000}.dll   - Undefined Reference
    __aeabi_unwind_cpp_pr0                    - Undefined Reference
    __aeabi_unwind_cpp_pr0@drtaeabi{000a0000}.dll  - Undefined Reference
    __cxa_begin_catch                         - Undefined Reference
    __cxa_begin_catch@drtaeabi{000a0000}.dll  - Undefined Reference
    __cxa_end_catch                           - Undefined Reference
    __cxa_end_catch@drtaeabi{000a0000}.dll    - Undefined Reference
    __cxa_end_cleanup                         - Undefined Reference
    __cxa_end_cleanup@drtaeabi{000a0000}.dll  - Undefined Reference
    __cxa_guard_abort                         - Undefined Reference
    __cxa_guard_abort@drtaeabi{000a0000}.dll  - Undefined Reference
    __cxa_guard_acquire                       - Undefined Reference
    __cxa_guard_acquire@drtaeabi{000a0000}.dll  - Undefined Reference
    __cxa_guard_release                       - Undefined Reference
    __cxa_guard_release@drtaeabi{000a0000}.dll  - Undefined Reference
    __cxa_pure_virtual                        - Undefined Reference
    __cxa_pure_virtual@drtaeabi{000a0000}.dll  - Undefined Reference
    __cxa_rethrow                             - Undefined Reference
    __cxa_rethrow@drtaeabi{000a0000}.dll      - Undefined Reference
    sqlite3_bind_blob                         - Undefined Reference
    sqlite3_bind_blob@sqlite3{00060003}[10285a79].dll  - Undefined Reference
    sqlite3_bind_double                       - Undefined Reference
    sqlite3_bind_double@sqlite3{00060003}[10285a79].dll  - Undefined Reference
    sqlite3_bind_int                          - Undefined Reference
    sqlite3_bind_int64                        - Undefined Reference
    sqlite3_bind_int64@sqlite3{00060003}[10285a79].dll  - Undefined Reference
    sqlite3_bind_int@sqlite3{00060003}[10285a79].dll  - Undefined Reference
    sqlite3_bind_null                         - Undefined Reference
    sqlite3_bind_null@sqlite3{00060003}[10285a79].dll  - Undefined Reference
    sqlite3_bind_parameter_count              - Undefined Reference
    sqlite3_bind_parameter_count@sqlite3{00060003}[10285a79].dll  - Undefined Reference
    sqlite3_bind_text16                       - Undefined Reference
    sqlite3_bind_text16@sqlite3{00060003}[10285a79].dll  - Undefined Reference
    sqlite3_busy_timeout                      - Undefined Reference
    sqlite3_busy_timeout@sqlite3{00060003}[10285a79].dll  - Undefined Reference
    sqlite3_changes                           - Undefined Reference
    sqlite3_changes@sqlite3{00060003}[10285a79].dll  - Undefined Reference
    sqlite3_close                             - Undefined Reference
    sqlite3_close@sqlite3{00060003}[10285a79].dll  - Undefined Reference
    sqlite3_column_blob                       - Undefined Reference
    sqlite3_column_blob@sqlite3{00060003}[10285a79].dll  - Undefined Reference
    sqlite3_column_bytes                      - Undefined Reference
    sqlite3_column_bytes16                    - Undefined Reference
    sqlite3_column_bytes16@sqlite3{00060003}[10285a79].dll  - Undefined Reference
    sqlite3_column_bytes@sqlite3{00060003}[10285a79].dll  - Undefined Reference
    sqlite3_column_count                      - Undefined Reference
    sqlite3_column_count@sqlite3{00060003}[10285a79].dll  - Undefined Reference
    sqlite3_column_decltype16                 - Undefined Reference
    sqlite3_column_decltype16@sqlite3{00060003}[10285a79].dll  - Undefined Reference
    sqlite3_column_double                     - Undefined Reference
    sqlite3_column_double@sqlite3{00060003}[10285a79].dll  - Undefined Reference
    sqlite3_column_int                        - Undefined Reference
    sqlite3_column_int64                      - Undefined Reference
    sqlite3_column_int64@sqlite3{00060003}[10285a79].dll  - Undefined Reference
    sqlite3_column_int@sqlite3{00060003}[10285a79].dll  - Undefined Reference
    sqlite3_column_name16                     - Undefined Reference
    sqlite3_column_name16@sqlite3{00060003}[10285a79].dll  - Undefined Reference
    sqlite3_column_text16                     - Undefined Reference
    sqlite3_column_text16@sqlite3{00060003}[10285a79].dll  - Undefined Reference
    sqlite3_column_type                       - Undefined Reference
    sqlite3_column_type@sqlite3{00060003}[10285a79].dll  - Undefined Reference
    sqlite3_enable_shared_cache               - Undefined Reference
    sqlite3_enable_shared_cache@sqlite3{00060003}[10285a79].dll  - Undefined Reference
    sqlite3_errmsg16                          - Undefined Reference
    sqlite3_errmsg16@sqlite3{00060003}[10285a79].dll  - Undefined Reference
    sqlite3_finalize                          - Undefined Reference
    sqlite3_finalize@sqlite3{00060003}[10285a79].dll  - Undefined Reference
    sqlite3_last_insert_rowid                 - Undefined Reference
    sqlite3_last_insert_rowid@sqlite3{00060003}[10285a79].dll  - Undefined Reference
    sqlite3_open_v2                           - Undefined Reference
    sqlite3_open_v2@sqlite3{00060003}[10285a79].dll  - Undefined Reference
    sqlite3_prepare16_v2                      - Undefined Reference
    sqlite3_prepare16_v2@sqlite3{00060003}[10285a79].dll  - Undefined Reference
    sqlite3_reset                             - Undefined Reference
    sqlite3_reset@sqlite3{00060003}[10285a79].dll  - Undefined Reference
    sqlite3_step                              - Undefined Reference
    sqlite3_step@sqlite3{00060003}[10285a79].dll  - Undefined Reference
    strcmp                                    - Undefined Reference
    strcmp@libc{00010001}[10207369].dll       - Undefined Reference
    strlen                                    - Undefined Reference
    strlen@libc{00010001}[10207369].dll       - Undefined Reference
    Image$$ER_RO$$Base                       0x00008000   Number         0  anon$$obj.o(linker$$defined$$symbols)
    _E32Dll                                  0x00008000   ARM Code      40  uc_dll_.o(.emb_text)
    Symbian$$CPP$$Exception$$Descriptor      0x00008014   Data           0  uc_dll_.o(.emb_text)
    __cpp_initialize__aeabi_                 0x00008028   ARM Code      52  ucppinit.o(.emb_text)
    std::nothrow                             0x0000805c   ARM Code       0  ucppinit.o(.emb_text)
    __PLT                                    0x0000805c   ARM Code       0  anon$$obj.o(.plt)
    QSQLiteResultPrivate::QSQLiteResultPrivate(QSQLiteResult*) 0x00008b45   Thumb Code   128  qsql_sqlite.o(.text)
    QSQLiteResultPrivate::QSQLiteResultPrivate__sub_object(QSQLiteResult*) 0x00008b45   Thumb Code     0  qsql_sqlite.o(.text)
    QSQLiteResult::QSQLiteResult(const QSQLiteDriver*) 0x00008bc5   Thumb Code    56  qsql_sqlite.o(.text)
    QSQLiteResult::QSQLiteResult__sub_object(const QSQLiteDriver*) 0x00008bc5   Thumb Code     0  qsql_sqlite.o(.text)
    QSQLiteResultPrivate::finalize()         0x00008bfd   Thumb Code    24  qsql_sqlite.o(.text)
    QSQLiteResultPrivate::cleanup()          0x00008c15   Thumb Code    58  qsql_sqlite.o(.text)
    QSQLiteResult::~QSQLiteResult()          0x00008c4f   Thumb Code    62  qsql_sqlite.o(.text)
    QSQLiteResult::~QSQLiteResult__sub_object() 0x00008c4f   Thumb Code     0  qsql_sqlite.o(.text)
    QSQLiteResult::~QSQLiteResult__deallocating() 0x00008c8d   Thumb Code    22  qsql_sqlite.o(.text)
    QSQLiteResult::handle() const            0x00008ca3   Thumb Code    40  qsql_sqlite.o(.text)
    QSQLiteResultPrivate::initColumns(bool)  0x00008ccb   Thumb Code   282  qsql_sqlite.o(.text)
    QSQLiteResultPrivate::fetchNext(QVector<QVariant>&, int, bool) 0x00008de5   Thumb Code  1250  qsql_sqlite.o(.text)
    QSQLiteResult::gotoNext(QVector<QVariant>&, int) 0x000092c7   Thumb Code    22  qsql_sqlite.o(.text)
    QSQLiteResult::reset(const QString&)     0x000092dd   Thumb Code    32  qsql_sqlite.o(.text)
    QSQLiteResult::prepare(const QString&)   0x000092fd   Thumb Code   202  qsql_sqlite.o(.text)
    QSQLiteResult::exec()                    0x000093c7   Thumb Code  1122  qsql_sqlite.o(.text)
    QSQLiteResult::size()                    0x00009829   Thumb Code     8  qsql_sqlite.o(.text)
    QSQLiteResult::numRowsAffected()         0x00009831   Thumb Code    14  qsql_sqlite.o(.text)
    QSQLiteResult::lastInsertId() const      0x0000983f   Thumb Code    68  qsql_sqlite.o(.text)
    QSQLiteResult::record() const            0x00009883   Thumb Code    52  qsql_sqlite.o(.text)
    QSQLiteResult::virtual_hook(int, void*)  0x000098b7   Thumb Code    44  qsql_sqlite.o(.text)
    QSQLiteDriver::QSQLiteDriver(QObject*)   0x000098e3   Thumb Code    44  qsql_sqlite.o(.text)
    QSQLiteDriver::QSQLiteDriver__sub_object(QObject*) 0x000098e3   Thumb Code     0  qsql_sqlite.o(.text)
    QSQLiteDriver::QSQLiteDriver(sqlite3*, QObject*) 0x0000990f   Thumb Code    78  qsql_sqlite.o(.text)
    QSQLiteDriver::QSQLiteDriver__sub_object(sqlite3*, QObject*) 0x0000990f   Thumb Code     0  qsql_sqlite.o(.text)
    QSQLiteDriver::~QSQLiteDriver()          0x0000995d   Thumb Code    24  qsql_sqlite.o(.text)
    QSQLiteDriver::~QSQLiteDriver__sub_object() 0x0000995d   Thumb Code     0  qsql_sqlite.o(.text)
    QSQLiteDriver::~QSQLiteDriver__deallocating() 0x00009975   Thumb Code    22  qsql_sqlite.o(.text)
    QSQLiteDriver::hasFeature(QSqlDriver::DriverFeature) const 0x0000998b   Thumb Code    62  qsql_sqlite.o(.text)
    QSQLiteDriver::open(const QString&, const QString&, const QString&, const QString&, int, const QString&) 0x000099c9   Thumb Code   744  qsql_sqlite.o(.text)
    QSQLiteDriver::close()                   0x00009cb1   Thumb Code   116  qsql_sqlite.o(.text)
    QSQLiteDriver::createResult() const      0x00009d25   Thumb Code    32  qsql_sqlite.o(.text)
    QSQLiteDriver::beginTransaction()        0x00009d45   Thumb Code   194  qsql_sqlite.o(.text)
    QSQLiteDriver::commitTransaction()       0x00009e07   Thumb Code   194  qsql_sqlite.o(.text)
    QSQLiteDriver::rollbackTransaction()     0x00009ec9   Thumb Code   412  qsql_sqlite.o(.text)
    QSQLiteDriver::tables(QSql::TableType) const 0x0000a065   Thumb Code   504  qsql_sqlite.o(.text)
    QSQLiteDriver::record(const QString&) const 0x0000a25d   Thumb Code   152  qsql_sqlite.o(.text)
    QSQLiteDriver::primaryIndex(const QString&) const 0x0000a2f5   Thumb Code   168  qsql_sqlite.o(.text)
    QSQLiteDriver::handle() const            0x0000a39d   Thumb Code   140  qsql_sqlite.o(.text)
    QSQLiteDriver::escapeIdentifier(const QString&, QSqlDriver::IdentifierType) const 0x0000a429   Thumb Code    24  qsql_sqlite.o(.text)
    QSqlQueryPrivate::~QSqlQueryPrivate()    0x0000a597   Thumb Code    42  qsqlquery.o(.text)
    QSqlQueryPrivate::~QSqlQueryPrivate__sub_object() 0x0000a597   Thumb Code     0  qsqlquery.o(.text)
    QSqlQueryPrivate::QSqlQueryPrivate(QSqlResult*) 0x0000a5c1   Thumb Code    32  qsqlquery.o(.text)
    QSqlQueryPrivate::QSqlQueryPrivate__sub_object(QSqlResult*) 0x0000a5c1   Thumb Code     0  qsqlquery.o(.text)
    QSqlQuery::driver() const                0x0000a693   Thumb Code    14  qsqlquery.o(.text)
    QSqlQuery::setForwardOnly(bool)          0x0000a6a1   Thumb Code    22  qsqlquery.o(.text)
    QSqlQuery::~QSqlQuery()                  0x0000a6b7   Thumb Code    36  qsqlquery.o(.text)
    QSqlQuery::~QSqlQuery__sub_object()      0x0000a6b7   Thumb Code     0  qsqlquery.o(.text)
    QSqlQuery::QSqlQuery(QSqlResult*)        0x0000a6db   Thumb Code    34  qsqlquery.o(.text)
    QSqlQuery::QSqlQuery__sub_object(QSqlResult*) 0x0000a6db   Thumb Code     0  qsqlquery.o(.text)
    QSqlQuery::operator =(const QSqlQuery&)  0x0000a6fd   Thumb Code    56  qsqlquery.o(.text)
    QSqlQuery::isForwardOnly() const         0x0000a735   Thumb Code    14  qsqlquery.o(.text)
    QSqlQuery::exec(const QString&)          0x0000a743   Thumb Code   396  qsqlquery.o(.text)
    QSqlQueryPrivate::shared_null()          0x0000a96d   Thumb Code    18  qsqlquery.o(.text)
    QSqlQuery::QSqlQuery(const QString&, QSqlDatabase) 0x0000a97f   Thumb Code    44  qsqlquery.o(.text)
    QSqlQuery::QSqlQuery__sub_object(const QString&, QSqlDatabase) 0x0000a97f   Thumb Code     0  qsqlquery.o(.text)
    QSqlQuery::QSqlQuery(QSqlDatabase)       0x0000a9ab   Thumb Code    56  qsqlquery.o(.text)
    QSqlQuery::QSqlQuery__sub_object(QSqlDatabase) 0x0000a9ab   Thumb Code     0  qsqlquery.o(.text)
    QSqlQuery::QSqlQuery(const QSqlQuery&)   0x0000a9e3   Thumb Code    20  qsqlquery.o(.text)
    QSqlQuery::QSqlQuery__sub_object(const QSqlQuery&) 0x0000a9e3   Thumb Code     0  qsqlquery.o(.text)
    QSqlQuery::isValid() const               0x0000a9f7   Thumb Code    14  qsqlquery.o(.text)
    QSqlQuery::isActive() const              0x0000aa05   Thumb Code    14  qsqlquery.o(.text)
    QSqlQuery::isNull(int) const             0x0000aa13   Thumb Code    50  qsqlquery.o(.text)
    QSqlQuery::at() const                    0x0000aa45   Thumb Code    14  qsqlquery.o(.text)
    QSqlQuery::lastQuery() const             0x0000aa53   Thumb Code    18  qsqlquery.o(.text)
    QSqlQuery::numRowsAffected() const       0x0000aa65   Thumb Code    34  qsqlquery.o(.text)
    QSqlQuery::lastError() const             0x0000aa87   Thumb Code    18  qsqlquery.o(.text)
    QSqlQuery::isSelect() const              0x0000aa99   Thumb Code    14  qsqlquery.o(.text)
    QSqlQuery::size() const                  0x0000aaa7   Thumb Code    58  qsqlquery.o(.text)
    QSqlQuery::result() const                0x0000aae1   Thumb Code     8  qsqlquery.o(.text)
    QSqlQuery::value(int) const              0x0000aae9   Thumb Code    66  qsqlquery.o(.text)
    QSqlQuery::record() const                0x0000ab2b   Thumb Code    74  qsqlquery.o(.text)
    QSqlQuery::setNumericalPrecisionPolicy(QSql::NumericalPrecisionPolicy) 0x0000ab75   Thumb Code    18  qsqlquery.o(.text)
    QSqlQuery::numericalPrecisionPolicy() const 0x0000ab87   Thumb Code    14  qsqlquery.o(.text)
    QSqlQuery::seek(int, bool)               0x0000ab95   Thumb Code   544  qsqlquery.o(.text)
    QSqlQuery::next()                        0x0000adb5   Thumb Code   106  qsqlquery.o(.text)
    QSqlQuery::previous()                    0x0000ae1f   Thumb Code   126  qsqlquery.o(.text)
    QSqlQuery::first()                       0x0000ae9d   Thumb Code    78  qsqlquery.o(.text)
    QSqlQuery::last()                        0x0000aeeb   Thumb Code    48  qsqlquery.o(.text)
    QSqlQuery::clear()                       0x0000af1b   Thumb Code    48  qsqlquery.o(.text)
    QSqlQuery::exec()                        0x0000af4b   Thumb Code   132  qsqlquery.o(.text)
    QSqlQuery::execBatch(QSqlQuery::BatchExecutionMode) 0x0000afcf   Thumb Code    28  qsqlquery.o(.text)
    QSqlQuery::prepare(const QString&)       0x0000afeb   Thumb Code   356  qsqlquery.o(.text)
    QSqlQuery::bindValue(const QString&, const QVariant&, QFlags<QSql::ParamTypeFlag>) 0x0000b14f   Thumb Code    38  qsqlquery.o(.text)
    QSqlQuery::bindValue(int, const QVariant&, QFlags<QSql::ParamTypeFlag>) 0x0000b175   Thumb Code    38  qsqlquery.o(.text)
    QSqlQuery::addBindValue(const QVariant&, QFlags<QSql::ParamTypeFlag>) 0x0000b19b   Thumb Code    32  qsqlquery.o(.text)
    QSqlQuery::boundValue(const QString&) const 0x0000b1bb   Thumb Code    22  qsqlquery.o(.text)
    QSqlQuery::boundValue(int) const         0x0000b1d1   Thumb Code   132  qsqlquery.o(.text)
    QSqlQuery::boundValues() const           0x0000b255   Thumb Code   260  qsqlquery.o(.text)
    QSqlQuery::executedQuery() const         0x0000b359   Thumb Code    18  qsqlquery.o(.text)
    QSqlQuery::lastInsertId() const          0x0000b36b   Thumb Code    22  qsqlquery.o(.text)
    QSqlQuery::finish()                      0x0000b381   Thumb Code   128  qsqlquery.o(.text)
    QSqlQuery::nextResult()                  0x0000b401   Thumb Code    28  qsqlquery.o(.text)
    QSqlDatabasePrivate::shared_null()       0x0000b551   Thumb Code   110  qsqldatabase.o(.text)
    QSqlDatabasePrivate::~QSqlDatabasePrivate() 0x0000b5bf   Thumb Code   120  qsqldatabase.o(.text)
    QSqlDatabasePrivate::~QSqlDatabasePrivate__sub_object() 0x0000b5bf   Thumb Code     0  qsqldatabase.o(.text)
    QSqlDatabase::close()                    0x0000b637   Thumb Code    18  qsqldatabase.o(.text)
    QSqlDatabase::~QSqlDatabase()            0x0000b649   Thumb Code    42  qsqldatabase.o(.text)
    QSqlDatabase::~QSqlDatabase__sub_object() 0x0000b649   Thumb Code     0  qsqldatabase.o(.text)
    QSqlDatabase::QSqlDatabase(const QSqlDatabase&) 0x0000b72f   Thumb Code    20  qsqldatabase.o(.text)
    QSqlDatabase::QSqlDatabase__sub_object(const QSqlDatabase&) 0x0000b72f   Thumb Code     0  qsqldatabase.o(.text)
    QSqlDatabasePrivate::disable()           0x0000b743   Thumb Code    42  qsqldatabase.o(.text)
    QSqlDatabasePrivate::invalidateDb(const QSqlDatabase&, const QString&) 0x0000b76d   Thumb Code   104  qsqldatabase.o(.text)
    QSqlDatabasePrivate::cleanConnections()  0x0000b7d5   Thumb Code   366  qsqldatabase.o(.text)
    QSqlDatabasePrivate::driverDict()        0x0000b943   Thumb Code    76  qsqldatabase.o(.text)
    QSqlDatabase::isOpen() const             0x0000ba17   Thumb Code    18  qsqldatabase.o(.text)
    QSqlDatabase::userName() const           0x0000ba29   Thumb Code    22  qsqldatabase.o(.text)
    QSqlDatabase::port() const               0x0000ba3f   Thumb Code     8  qsqldatabase.o(.text)
    QSqlDatabase::hostName() const           0x0000ba47   Thumb Code    22  qsqldatabase.o(.text)
    QSqlDatabase::databaseName() const       0x0000ba5d   Thumb Code    22  qsqldatabase.o(.text)
    QSqlDatabase::driverName() const         0x0000ba73   Thumb Code    22  qsqldatabase.o(.text)
    QSqlDatabase::isValid() const            0x0000ba89   Thumb Code    34  qsqldatabase.o(.text)
    operator <<(QDebug, const QSqlDatabase&) 0x0000baab   Thumb Code   304  qsqldatabase.o(.text)
    QSqlDatabase::QSqlDatabase()             0x0000bbdb   Thumb Code    20  qsqldatabase.o(.text)
    QSqlDatabase::QSqlDatabase__sub_object() 0x0000bbdb   Thumb Code     0  qsqldatabase.o(.text)
    QSqlDatabase::operator =(const QSqlDatabase&) 0x0000bbef   Thumb Code    56  qsqldatabase.o(.text)
    QSqlDatabase::open()                     0x0000bc27   Thumb Code    40  qsqldatabase.o(.text)
    QSqlDatabase::setUserName(const QString&) 0x0000bc4f   Thumb Code    30  qsqldatabase.o(.text)
    QSqlDatabase::open(const QString&, const QString&) 0x0000bc6d   Thumb Code    52  qsqldatabase.o(.text)
    QSqlDatabase::isOpenError() const        0x0000bca1   Thumb Code    14  qsqldatabase.o(.text)
    QSqlDatabase::tables(QSql::TableType) const 0x0000bcaf   Thumb Code    26  qsqldatabase.o(.text)
    QSqlDatabase::primaryIndex(const QString&) const 0x0000bcc9   Thumb Code   172  qsqldatabase.o(.text)
    QSqlDatabase::record(const QString&) const 0x0000bd75   Thumb Code    26  qsqldatabase.o(.text)
    QSqlDatabase::exec(const QString&) const 0x0000bd8f   Thumb Code    96  qsqldatabase.o(.text)
    QSqlDatabase::lastError() const          0x0000bdef   Thumb Code    18  qsqldatabase.o(.text)
    QSqlDatabase::transaction()              0x0000be01   Thumb Code    38  qsqldatabase.o(.text)
    QSqlDatabase::commit()                   0x0000be27   Thumb Code    38  qsqldatabase.o(.text)
    QSqlDatabase::rollback()                 0x0000be4d   Thumb Code    38  qsqldatabase.o(.text)
    QSqlDatabase::setDatabaseName(const QString&) 0x0000be73   Thumb Code    30  qsqldatabase.o(.text)
    QSqlDatabase::setPassword(const QString&) 0x0000be91   Thumb Code    30  qsqldatabase.o(.text)
    QSqlDatabase::setHostName(const QString&) 0x0000beaf   Thumb Code    30  qsqldatabase.o(.text)
    QSqlDatabase::setPort(int)               0x0000becd   Thumb Code    22  qsqldatabase.o(.text)
    QSqlDatabase::setConnectOptions(const QString&) 0x0000bee3   Thumb Code    30  qsqldatabase.o(.text)
    QSqlDatabase::password() const           0x0000bf01   Thumb Code    22  qsqldatabase.o(.text)
    QSqlDatabase::connectOptions() const     0x0000bf17   Thumb Code    22  qsqldatabase.o(.text)
    QSqlDatabase::connectionName() const     0x0000bf2d   Thumb Code    22  qsqldatabase.o(.text)
    QSqlDatabase::driver() const             0x0000bf43   Thumb Code     8  qsqldatabase.o(.text)
    QSqlDatabase::setNumericalPrecisionPolicy(QSql::NumericalPrecisionPolicy) 0x0000bf4b   Thumb Code    36  qsqldatabase.o(.text)
    QSqlDatabase::numericalPrecisionPolicy() const 0x0000bf6f   Thumb Code    34  qsqldatabase.o(.text)
    QSqlDatabasePrivate::addDatabase(const QSqlDatabase&, const QString&) 0x0000bf91   Thumb Code   142  qsqldatabase.o(.text)
    QSqlDatabase::drivers()                  0x0000c01f   Thumb Code   344  qsqldatabase.o(.text)
    QSqlDatabasePrivate::init(const QString&) 0x0000c177   Thumb Code   416  qsqldatabase.o(.text)
    QSqlDatabase::QSqlDatabase(const QString&) 0x0000c317   Thumb Code   150  qsqldatabase.o(.text)
    QSqlDatabase::QSqlDatabase__sub_object(const QString&) 0x0000c317   Thumb Code     0  qsqldatabase.o(.text)
    QSqlDatabase::addDatabase(const QString&, const QString&) 0x0000c3ad   Thumb Code    28  qsqldatabase.o(.text)
    QSqlDatabase::QSqlDatabase(QSqlDriver*)  0x0000c3c9   Thumb Code    36  qsqldatabase.o(.text)
    QSqlDatabase::QSqlDatabase__sub_object(QSqlDriver*) 0x0000c3c9   Thumb Code     0  qsqldatabase.o(.text)
    QSqlDatabase::addDatabase(QSqlDriver*, const QString&) 0x0000c3ed   Thumb Code    28  qsqldatabase.o(.text)
    QSqlDatabasePrivate::copy(const QSqlDatabasePrivate*) 0x0000c409   Thumb Code    92  qsqldatabase.o(.text)
    QSqlDatabase::cloneDatabase(const QSqlDatabase&, const QString&) 0x0000c465   Thumb Code    84  qsqldatabase.o(.text)
    QSqlDatabasePrivate::database(const QString&, bool) 0x0000c4b9   Thumb Code   298  qsqldatabase.o(.text)
    QSqlDatabase::database(const QString&, bool) 0x0000c5e3   Thumb Code    20  qsqldatabase.o(.text)
    QSqlDatabasePrivate::removeDatabase(const QString&) 0x0000c5f7   Thumb Code    90  qsqldatabase.o(.text)
    QSqlDatabase::removeDatabase(const QString&) 0x0000c651   Thumb Code    12  qsqldatabase.o(.text)
    QSqlDatabase::contains(const QString&)   0x0000c65d   Thumb Code    38  qsqldatabase.o(.text)
    QSqlDatabase::connectionNames()          0x0000c683   Thumb Code    78  qsqldatabase.o(.text)
    QSqlDatabase::registerSqlDriver(const QString&, QSqlDriverCreatorBase*) 0x0000c6d1   Thumb Code    54  qsqldatabase.o(.text)
    QSqlDatabase::isDriverAvailable(const QString&) 0x0000c707   Thumb Code    62  qsqldatabase.o(.text)
    QSqlDatabasePrivate::QSqlDatabasePrivate(const QSqlDatabasePrivate&) 0x0000c745   Thumb Code   202  qsqldatabase.o(.text)
    QSqlDatabasePrivate::QSqlDatabasePrivate__sub_object(const QSqlDatabasePrivate&) 0x0000c745   Thumb Code     0  qsqldatabase.o(.text)
    QSqlField::defaultValue() const          0x0000c851   Thumb Code    22  qsqlfield.o(.text)
    QSqlField::typeID() const                0x0000c867   Thumb Code     8  qsqlfield.o(.text)
    QSqlField::isGenerated() const           0x0000c86f   Thumb Code    12  qsqlfield.o(.text)
    QSqlField::requiredStatus() const        0x0000c87b   Thumb Code     8  qsqlfield.o(.text)
    QSqlField::precision() const             0x0000c883   Thumb Code     8  qsqlfield.o(.text)
    QSqlField::length() const                0x0000c88b   Thumb Code     8  qsqlfield.o(.text)
    QSqlField::type() const                  0x0000c893   Thumb Code     8  qsqlfield.o(.text)
    QSqlField::name() const                  0x0000c89b   Thumb Code    20  qsqlfield.o(.text)
    operator <<(QDebug, const QSqlField&)    0x0000c8af   Thumb Code   510  qsqlfield.o(.text)
    QSqlField::QSqlField(const QString&, QVariant::Type) 0x0000caad   Thumb Code   138  qsqlfield.o(.text)
    QSqlField::QSqlField__sub_object(const QString&, QVariant::Type) 0x0000caad   Thumb Code     0  qsqlfield.o(.text)
    QSqlField::QSqlField(const QSqlField&)   0x0000cb37   Thumb Code    36  qsqlfield.o(.text)
    QSqlField::QSqlField__sub_object(const QSqlField&) 0x0000cb37   Thumb Code     0  qsqlfield.o(.text)
    QSqlField::operator =(const QSqlField&)  0x0000cb5b   Thumb Code    64  qsqlfield.o(.text)
    QSqlField::operator ==(const QSqlField&) const 0x0000cb9b   Thumb Code   156  qsqlfield.o(.text)
    QSqlField::~QSqlField()                  0x0000cc37   Thumb Code    42  qsqlfield.o(.text)
    QSqlField::~QSqlField__sub_object()      0x0000cc37   Thumb Code     0  qsqlfield.o(.text)
    QSqlField::isReadOnly() const            0x0000cc61   Thumb Code   124  qsqlfield.o(.text)
    QSqlField::setValue(const QVariant&)     0x0000ccdd   Thumb Code    28  qsqlfield.o(.text)
    QSqlField::detach()                      0x0000ccf9   Thumb Code    14  qsqlfield.o(.text)
    QSqlField::setName(const QString&)       0x0000cd07   Thumb Code    24  qsqlfield.o(.text)
    QSqlField::isNull() const                0x0000cd1f   Thumb Code    12  qsqlfield.o(.text)
    QSqlField::setReadOnly(bool)             0x0000cd2b   Thumb Code    18  qsqlfield.o(.text)
    QSqlField::clear()                       0x0000cd3d   Thumb Code    50  qsqlfield.o(.text)
    QSqlField::isAutoValue() const           0x0000cd6f   Thumb Code    12  qsqlfield.o(.text)
    QSqlField::setType(QVariant::Type)       0x0000cd7b   Thumb Code    18  qsqlfield.o(.text)
    QSqlField::setRequiredStatus(QSqlField::RequiredStatus) 0x0000cd8d   Thumb Code    18  qsqlfield.o(.text)
    QSqlField::setLength(int)                0x0000cd9f   Thumb Code    18  qsqlfield.o(.text)
    QSqlField::setPrecision(int)             0x0000cdb1   Thumb Code    18  qsqlfield.o(.text)
    QSqlField::setDefaultValue(const QVariant&) 0x0000cdc3   Thumb Code    26  qsqlfield.o(.text)
    QSqlField::setSqlType(int)               0x0000cddd   Thumb Code    18  qsqlfield.o(.text)
    QSqlField::setGenerated(bool)            0x0000cdef   Thumb Code    32  qsqlfield.o(.text)
    QSqlField::setAutoValue(bool)            0x0000ce0f   Thumb Code    34  qsqlfield.o(.text)
    QSqlField::isValid() const               0x0000ce31   Thumb Code    18  qsqlfield.o(.text)
    QSqlRecordPrivate::QSqlRecordPrivate(const QSqlRecordPrivate&) 0x0000ce45   Thumb Code    60  qsqlrecord.o(.text)
    QSqlRecordPrivate::QSqlRecordPrivate__sub_object(const QSqlRecordPrivate&) 0x0000ce45   Thumb Code     0  qsqlrecord.o(.text)
    QSqlRecord::value(int) const             0x0000ce81   Thumb Code    44  qsqlrecord.o(.text)
    QSqlRecord::field(int) const             0x0000cead   Thumb Code    20  qsqlrecord.o(.text)
    QSqlRecord::count() const                0x0000cec1   Thumb Code    10  qsqlrecord.o(.text)
    operator <<(QDebug, const QSqlRecord&)   0x0000cecb   Thumb Code   290  qsqlrecord.o(.text)
    QSqlRecordPrivate::QSqlRecordPrivate()   0x0000cfed   Thumb Code    36  qsqlrecord.o(.text)
    QSqlRecordPrivate::QSqlRecordPrivate__sub_object() 0x0000cfed   Thumb Code     0  qsqlrecord.o(.text)
    QSqlRecord::QSqlRecord()                 0x0000d011   Thumb Code    30  qsqlrecord.o(.text)
    QSqlRecord::QSqlRecord__sub_object()     0x0000d011   Thumb Code     0  qsqlrecord.o(.text)
    QSqlRecord::QSqlRecord(const QSqlRecord&) 0x0000d02f   Thumb Code    22  qsqlrecord.o(.text)
    QSqlRecord::QSqlRecord__sub_object(const QSqlRecord&) 0x0000d02f   Thumb Code     0  qsqlrecord.o(.text)
    QSqlRecord::operator =(const QSqlRecord&) 0x0000d045   Thumb Code    62  qsqlrecord.o(.text)
    QSqlRecord::~QSqlRecord()                0x0000d083   Thumb Code    40  qsqlrecord.o(.text)
    QSqlRecord::~QSqlRecord__sub_object()    0x0000d083   Thumb Code     0  qsqlrecord.o(.text)
    QSqlRecord::operator ==(const QSqlRecord&) const 0x0000d0ab   Thumb Code    16  qsqlrecord.o(.text)
    QSqlRecord::indexOf(const QString&) const 0x0000d0bb   Thumb Code   110  qsqlrecord.o(.text)
    QSqlRecord::value(const QString&) const  0x0000d129   Thumb Code    30  qsqlrecord.o(.text)
    QSqlRecord::detach()                     0x0000d147   Thumb Code    90  qsqlrecord.o(.text)
    QSqlRecord::setValue(int, const QVariant&) 0x0000d1a1   Thumb Code    46  qsqlrecord.o(.text)
    QSqlRecord::setValue(const QString&, const QVariant&) 0x0000d1cf   Thumb Code    30  qsqlrecord.o(.text)
    QSqlRecord::setNull(int)                 0x0000d1ed   Thumb Code    42  qsqlrecord.o(.text)
    QSqlRecord::setNull(const QString&)      0x0000d217   Thumb Code    26  qsqlrecord.o(.text)
    QSqlRecord::isNull(int) const            0x0000d231   Thumb Code    40  qsqlrecord.o(.text)
    QSqlRecord::isNull(const QString&) const 0x0000d259   Thumb Code    44  qsqlrecord.o(.text)
    QSqlRecord::fieldName(int) const         0x0000d285   Thumb Code    38  qsqlrecord.o(.text)
    QSqlRecord::field(const QString&) const  0x0000d2ab   Thumb Code    30  qsqlrecord.o(.text)
    QSqlRecord::isGenerated(int) const       0x0000d2c9   Thumb Code    40  qsqlrecord.o(.text)
    QSqlRecord::isGenerated(const QString&) const 0x0000d2f1   Thumb Code    26  qsqlrecord.o(.text)
    QSqlRecord::setGenerated(int, bool)      0x0000d30b   Thumb Code    46  qsqlrecord.o(.text)
    QSqlRecord::setGenerated(const QString&, bool) 0x0000d339   Thumb Code    30  qsqlrecord.o(.text)
    QSqlRecord::append(const QSqlField&)     0x0000d357   Thumb Code    22  qsqlrecord.o(.text)
    QSqlRecord::replace(int, const QSqlField&) 0x0000d36d   Thumb Code    46  qsqlrecord.o(.text)
    QSqlRecord::insert(int, const QSqlField&) 0x0000d39b   Thumb Code    86  qsqlrecord.o(.text)
    QSqlRecord::remove(int)                  0x0000d3f1   Thumb Code    36  qsqlrecord.o(.text)
    QSqlRecord::isEmpty() const              0x0000d415   Thumb Code    20  qsqlrecord.o(.text)
    QSqlRecord::contains(const QString&) const 0x0000d429   Thumb Code    20  qsqlrecord.o(.text)
    QSqlRecord::clear()                      0x0000d43d   Thumb Code    38  qsqlrecord.o(.text)
    QSqlRecord::clearValues()                0x0000d463   Thumb Code    44  qsqlrecord.o(.text)
    QSqlRecordPrivate::createField(int, const QString&) const 0x0000d48f   Thumb Code   118  qsqlrecord.o(.text)
    QSqlDriver::isIdentifierEscaped(const QString&, QSqlDriver::IdentifierType) const 0x0000d56d   Thumb Code   236  qsqldriver.o(.text)
    QSqlDriver::QSqlDriver__sub_object(QObject*) 0x0000d6b1   Thumb Code    46  qsqldriver.o(.text)
    QSqlDriver::~QSqlDriver()                0x0000d6df   Thumb Code     0  qsqldriver.o(.text)
    QSqlDriver::~QSqlDriver__sub_object()    0x0000d6df   Thumb Code    14  qsqldriver.o(.text)
    QSqlDriver::~QSqlDriver__deallocating()  0x0000d6ed   Thumb Code    22  qsqldriver.o(.text)
    QSqlDriver::isOpen() const               0x0000d703   Thumb Code    22  qsqldriver.o(.text)
    QSqlDriver::isOpenError() const          0x0000d719   Thumb Code    22  qsqldriver.o(.text)
    QSqlDriver::beginTransaction()           0x0000d72f   Thumb Code     6  qsqldriver.o(.text)
    QSqlDriver::commitTransaction()          0x0000d735   Thumb Code     6  qsqldriver.o(.text)
    QSqlDriver::rollbackTransaction()        0x0000d73b   Thumb Code     6  qsqldriver.o(.text)
    QSqlDriver::tables(QSql::TableType) const 0x0000d741   Thumb Code    18  qsqldriver.o(.text)
    QSqlDriver::primaryIndex(const QString&) const 0x0000d753   Thumb Code    52  qsqldriver.o(.text)
    QSqlDriver::record(const QString&) const 0x0000d787   Thumb Code    18  qsqldriver.o(.text)
    QSqlDriver::formatValue(const QSqlField&, bool) const 0x0000d799   Thumb Code  1390  qsqldriver.o(.text)
    QSqlDriver::escapeIdentifier(const QString&, QSqlDriver::IdentifierType) const 0x0000dd07   Thumb Code    22  qsqldriver.o(.text)
    QSqlDriver::sqlStatement(QSqlDriver::StatementType, const QString&, const QSqlRecord&, bool) const 0x0000dd1d   Thumb Code  1760  qsqldriver.o(.text)
    QSqlDriver::lastError() const            0x0000e3fd   Thumb Code    34  qsqldriver.o(.text)
    QSqlDriver::handle() const               0x0000e41f   Thumb Code    54  qsqldriver.o(.text)
    QSqlDriver::subscribeToNotification(const QString&) 0x0000e455   Thumb Code   218  qsqldriver.o(.text)
    QSqlDriver::unsubscribeFromNotification(const QString&) 0x0000e52f   Thumb Code   218  qsqldriver.o(.text)
    QSqlDriver::subscribedToNotifications() const 0x0000e609   Thumb Code   204  qsqldriver.o(.text)
    QSqlDriver::stripDelimiters(const QString&, QSqlDriver::IdentifierType) const 0x0000e6d5   Thumb Code   240  qsqldriver.o(.text)
    QSqlDriver::setNumericalPrecisionPolicy(QSql::NumericalPrecisionPolicy) 0x0000e7c5   Thumb Code    16  qsqldriver.o(.text)
    QSqlDriver::numericalPrecisionPolicy() const 0x0000e7d5   Thumb Code    18  qsqldriver.o(.text)
    QSqlDriver::setOpen(bool)                0x0000e7e7   Thumb Code    34  qsqldriver.o(.text)
    QSqlDriver::setOpenError(bool)           0x0000e809   Thumb Code   244  qsqldriver.o(.text)
    QSqlDriver::setLastError(const QSqlError&) 0x0000e8fd   Thumb Code    32  qsqldriver.o(.text)
    QSqlDriver::subscribeToNotificationImplementation(const QString&) 0x0000e91d   Thumb Code    10  qsqldriver.o(.text)
    QSqlDriver::unsubscribeFromNotificationImplementation(const QString&) 0x0000e927   Thumb Code    10  qsqldriver.o(.text)
    QSqlDriver::subscribedToNotificationsImplementation() const 0x0000e931   Thumb Code    16  qsqldriver.o(.text)
    QSqlDriver::isIdentifierEscapedImplementation(const QString&, QSqlDriver::IdentifierType) const 0x0000e941   Thumb Code   102  qsqldriver.o(.text)
    QSqlDriver::stripDelimitersImplementation(const QString&, QSqlDriver::IdentifierType) const 0x0000e9a7   Thumb Code    78  qsqldriver.o(.text)
    QSqlDriverPrivate::~QSqlDriverPrivate()  0x0000e9f5   Thumb Code    30  qsqldriver.o(.text)
    QSqlDriverPrivate::~QSqlDriverPrivate__sub_object() 0x0000e9f5   Thumb Code     0  qsqldriver.o(.text)
    QSqlDriverPrivate::~QSqlDriverPrivate__deallocating() 0x0000ea13   Thumb Code    22  qsqldriver.o(.text)
    QSqlDriverPlugin::QSqlDriverPlugin__sub_object(QObject*) 0x0000ea2d   Thumb Code    34  qsqldriverplugin.o(.text)
    QSqlDriverPlugin::~QSqlDriverPlugin()    0x0000ea4f   Thumb Code     0  qsqldriverplugin.o(.text)
    QSqlDriverPlugin::~QSqlDriverPlugin__sub_object() 0x0000ea4f   Thumb Code    22  qsqldriverplugin.o(.text)
    QSqlDriverPlugin::~QSqlDriverPlugin__deallocating() 0x0000ea65   Thumb Code    22  qsqldriverplugin.o(.text)
    thunk{-8} to QSqlDriverPlugin::~QSqlDriverPlugin__deallocating() 0x0000ea7b   Thumb Code    14  qsqldriverplugin.o(.text)
    thunk{-8} to QSqlDriverPlugin::~QSqlDriverPlugin() 0x0000ea89   Thumb Code    14  qsqldriverplugin.o(.text)
    QSqlError::databaseText() const          0x0000eaa5   Thumb Code    18  qsqlerror.o(.text)
    QSqlError::driverText() const            0x0000eab7   Thumb Code    18  qsqlerror.o(.text)
    QSqlError::number() const                0x0000eac9   Thumb Code     6  qsqlerror.o(.text)
    operator <<(QDebug, const QSqlError&)    0x0000eacf   Thumb Code   182  qsqlerror.o(.text)
    QSqlError::QSqlError(const QString&, const QString&, QSqlError::ErrorType, int) 0x0000eb85   Thumb Code    50  qsqlerror.o(.text)
    QSqlError::QSqlError__sub_object(const QString&, const QString&, QSqlError::ErrorType, int) 0x0000eb85   Thumb Code     0  qsqlerror.o(.text)
    QSqlError::QSqlError(const QSqlError&)   0x0000ebb7   Thumb Code    38  qsqlerror.o(.text)
    QSqlError::QSqlError__sub_object(const QSqlError&) 0x0000ebb7   Thumb Code     0  qsqlerror.o(.text)
    QSqlError::operator =(const QSqlError&)  0x0000ebdd   Thumb Code    34  qsqlerror.o(.text)
    QSqlError::~QSqlError()                  0x0000ebff   Thumb Code    22  qsqlerror.o(.text)
    QSqlError::~QSqlError__sub_object()      0x0000ebff   Thumb Code     0  qsqlerror.o(.text)
    QSqlError::setDriverText(const QString&) 0x0000ec15   Thumb Code    16  qsqlerror.o(.text)
    QSqlError::setDatabaseText(const QString&) 0x0000ec25   Thumb Code    16  qsqlerror.o(.text)
    QSqlError::type() const                  0x0000ec35   Thumb Code     6  qsqlerror.o(.text)
    QSqlError::setType(QSqlError::ErrorType) 0x0000ec3b   Thumb Code     4  qsqlerror.o(.text)
    QSqlError::setNumber(int)                0x0000ec3f   Thumb Code     4  qsqlerror.o(.text)
    QSqlError::text() const                  0x0000ec43   Thumb Code   170  qsqlerror.o(.text)
    QSqlError::isValid() const               0x0000eced   Thumb Code    16  qsqlerror.o(.text)
    QSqlResult::~QSqlResult()                0x0000ed87   Thumb Code     0  qsqlresult.o(.text)
    QSqlResult::~QSqlResult__sub_object()    0x0000ed87   Thumb Code    30  qsqlresult.o(.text)
    QSqlResult::~QSqlResult__deallocating()  0x0000eda5   Thumb Code    22  qsqlresult.o(.text)
    QSqlResult::handle() const               0x0000edbb   Thumb Code    16  qsqlresult.o(.text)
    QSqlResult::setNumericalPrecisionPolicy(QSql::NumericalPrecisionPolicy) 0x0000edcb   Thumb Code    24  qsqlresult.o(.text)
    QSqlResult::QSqlResult__sub_object(const QSqlDriver*) 0x0000ede3   Thumb Code    62  qsqlresult.o(.text)
    QSqlResult::at() const                   0x0000ee21   Thumb Code     8  qsqlresult.o(.text)
    QSqlResult::lastQuery() const            0x0000ee29   Thumb Code    22  qsqlresult.o(.text)
    QSqlResult::lastError() const            0x0000ee3f   Thumb Code    22  qsqlresult.o(.text)
    QSqlResult::isValid() const              0x0000ee55   Thumb Code    26  qsqlresult.o(.text)
    QSqlResult::isActive() const             0x0000ee6f   Thumb Code     8  qsqlresult.o(.text)
    QSqlResult::isSelect() const             0x0000ee77   Thumb Code     8  qsqlresult.o(.text)
    QSqlResult::isForwardOnly() const        0x0000ee7f   Thumb Code    10  qsqlresult.o(.text)
    QSqlResult::driver() const               0x0000ee89   Thumb Code     8  qsqlresult.o(.text)
    QSqlResult::setAt(int)                   0x0000ee91   Thumb Code     6  qsqlresult.o(.text)
    QSqlResult::setActive(bool)              0x0000ee97   Thumb Code    54  qsqlresult.o(.text)
    QSqlResult::setLastError(const QSqlError&) 0x0000eecd   Thumb Code    20  qsqlresult.o(.text)
    QSqlResult::setQuery(const QString&)     0x0000eee1   Thumb Code    20  qsqlresult.o(.text)
    QSqlResult::setSelect(bool)              0x0000eef5   Thumb Code     6  qsqlresult.o(.text)
    QSqlResult::setForwardOnly(bool)         0x0000eefb   Thumb Code     8  qsqlresult.o(.text)
    QSqlResult::exec()                       0x0000ef03   Thumb Code   678  qsqlresult.o(.text)
    QSqlResult::prepare(const QString&)      0x0000f1a9   Thumb Code   274  qsqlresult.o(.text)
    QSqlResultPrivate::namedToPositionalBinding() 0x0000f2bb   Thumb Code   318  qsqlresult.o(.text)
    QSqlResultPrivate::positionalToNamedBinding() 0x0000f3f9   Thumb Code   182  qsqlresult.o(.text)
    QSqlResult::savePrepare(const QString&)  0x0000f4af   Thumb Code   186  qsqlresult.o(.text)
    QSqlResult::bindValue(int, const QVariant&, QFlags<QSql::ParamTypeFlag>) 0x0000f569   Thumb Code   144  qsqlresult.o(.text)
    QSqlResult::bindValue(const QString&, const QVariant&, QFlags<QSql::ParamTypeFlag>) 0x0000f5f9   Thumb Code   184  qsqlresult.o(.text)
    QSqlResult::addBindValue(const QVariant&, QFlags<QSql::ParamTypeFlag>) 0x0000f6b1   Thumb Code    64  qsqlresult.o(.text)
    QSqlResult::boundValue(const QString&) const 0x0000f6f1   Thumb Code    46  qsqlresult.o(.text)
    QSqlResult::boundValue(int) const        0x0000f71f   Thumb Code    24  qsqlresult.o(.text)
    QSqlResult::bindValueType(const QString&) const 0x0000f737   Thumb Code    58  qsqlresult.o(.text)
    QSqlResult::bindValueType(int) const     0x0000f771   Thumb Code    36  qsqlresult.o(.text)
    QSqlResult::boundValueCount() const      0x0000f795   Thumb Code    14  qsqlresult.o(.text)
    QSqlResult::boundValues() const          0x0000f7a3   Thumb Code     8  qsqlresult.o(.text)
    QSqlResult::executedQuery() const        0x0000f7ab   Thumb Code    22  qsqlresult.o(.text)
    QSqlResultPrivate::holderAt(int) const   0x0000f7c1   Thumb Code    20  qsqlresult.o(.text)
    QSqlResult::boundValueName(int) const    0x0000f7d5   Thumb Code    20  qsqlresult.o(.text)
    QSqlResult::clear()                      0x0000f7e9   Thumb Code    12  qsqlresult.o(.text)
    QSqlResult::hasOutValues() const         0x0000f7f5   Thumb Code   120  qsqlresult.o(.text)
    QSqlResult::bindingSyntax() const        0x0000f86d   Thumb Code     8  qsqlresult.o(.text)
    QSqlResult::fetchNext()                  0x0000f875   Thumb Code    24  qsqlresult.o(.text)
    QSqlResult::fetchPrevious()              0x0000f88d   Thumb Code    24  qsqlresult.o(.text)
    QSqlResult::record() const               0x0000f8a5   Thumb Code    16  qsqlresult.o(.text)
    QSqlResult::lastInsertId() const         0x0000f8b5   Thumb Code    16  qsqlresult.o(.text)
    QSqlResult::virtual_hook(int, void*)     0x0000f8c5   Thumb Code     2  qsqlresult.o(.text)
    QSqlResult::execBatch(bool)              0x0000f8c7   Thumb Code   372  qsqlresult.o(.text)
    QSqlResult::detachFromResultSet()        0x0000fa3b   Thumb Code    62  qsqlresult.o(.text)
    QSqlResult::numericalPrecisionPolicy() const 0x0000fa79   Thumb Code     8  qsqlresult.o(.text)
    QSqlResult::nextResult()                 0x0000fa81   Thumb Code    52  qsqlresult.o(.text)
    QSqlResult::resetBindCount()             0x0000fab5   Thumb Code     8  qsqlresult.o(.text)
    QSqlIndex::QSqlIndex(const QString&, const QString&) 0x0000fb1d   Thumb Code    62  qsqlindex.o(.text)
    QSqlIndex::QSqlIndex__sub_object(const QString&, const QString&) 0x0000fb1d   Thumb Code     0  qsqlindex.o(.text)
    QSqlIndex::QSqlIndex(const QSqlIndex&)   0x0000fb5b   Thumb Code    84  qsqlindex.o(.text)
    QSqlIndex::QSqlIndex__sub_object(const QSqlIndex&) 0x0000fb5b   Thumb Code     0  qsqlindex.o(.text)
    QSqlIndex::~QSqlIndex()                  0x0000fbaf   Thumb Code    46  qsqlindex.o(.text)
    QSqlIndex::~QSqlIndex__sub_object()      0x0000fbaf   Thumb Code     0  qsqlindex.o(.text)
    QSqlIndex::operator =(const QSqlIndex&)  0x0000fbdd   Thumb Code   112  qsqlindex.o(.text)
    QSqlIndex::setCursorName(const QString&) 0x0000fc4d   Thumb Code    16  qsqlindex.o(.text)
    QSqlIndex::setName(const QString&)       0x0000fc5d   Thumb Code    18  qsqlindex.o(.text)
    QSqlIndex::append(const QSqlField&, bool) 0x0000fc6f   Thumb Code    26  qsqlindex.o(.text)
    QSqlIndex::append(const QSqlField&)      0x0000fc89   Thumb Code    18  qsqlindex.o(.text)
    QSqlIndex::isDescending(int) const       0x0000fc9b   Thumb Code    92  qsqlindex.o(.text)
    QSqlIndex::setDescending(int, bool)      0x0000fcf7   Thumb Code   110  qsqlindex.o(.text)
    QSqlIndex::createField(int, const QString&, bool) const 0x0000fd65   Thumb Code   370  qsqlindex.o(.text)
    QSqlCachedResult::~QSqlCachedResult()    0x0000ff55   Thumb Code     0  qsqlcachedresult.o(.text)
    QSqlCachedResult::~QSqlCachedResult__sub_object() 0x0000ff55   Thumb Code    38  qsqlcachedresult.o(.text)
    QSqlCachedResult::~QSqlCachedResult__deallocating() 0x0000ff7b   Thumb Code    22  qsqlcachedresult.o(.text)
    QSqlCachedResultPrivate::QSqlCachedResultPrivate() 0x0000ff91   Thumb Code    26  qsqlcachedresult.o(.text)
    QSqlCachedResultPrivate::QSqlCachedResultPrivate__sub_object() 0x0000ff91   Thumb Code     0  qsqlcachedresult.o(.text)
    QSqlCachedResult::QSqlCachedResult__sub_object(const QSqlDriver*) 0x0000ffab   Thumb Code    46  qsqlcachedresult.o(.text)
    QSqlCachedResultPrivate::cleanup()       0x0000ffd9   Thumb Code    22  qsqlcachedresult.o(.text)
    QSqlCachedResultPrivate::init(int, bool) 0x0000ffef   Thumb Code    64  qsqlcachedresult.o(.text)
    QSqlCachedResult::init(int)              0x0001002f   Thumb Code    26  qsqlcachedresult.o(.text)
    QSqlCachedResult::cleanup()              0x00010049   Thumb Code    34  qsqlcachedresult.o(.text)
    QSqlCachedResult::clearValues()          0x0001006b   Thumb Code    28  qsqlcachedresult.o(.text)
    QSqlCachedResult::data(int)              0x00010087   Thumb Code    98  qsqlcachedresult.o(.text)
    QSqlCachedResult::isNull(int)            0x000100e9   Thumb Code    84  qsqlcachedresult.o(.text)
    QSqlCachedResultPrivate::canSeek(int) const 0x0001013d   Thumb Code    38  qsqlcachedresult.o(.text)
    QSqlCachedResultPrivate::revertLast()    0x00010163   Thumb Code    18  qsqlcachedresult.o(.text)
    QSqlCachedResultPrivate::nextIndex()     0x00010175   Thumb Code    88  qsqlcachedresult.o(.text)
    QSqlCachedResult::cacheNext()            0x000101cd   Thumb Code   106  qsqlcachedresult.o(.text)
    QSqlCachedResult::fetch(int)             0x00010237   Thumb Code   370  qsqlcachedresult.o(.text)
    QSqlCachedResult::fetchNext()            0x000103a9   Thumb Code    56  qsqlcachedresult.o(.text)
    QSqlCachedResult::fetchPrevious()        0x000103e1   Thumb Code    24  qsqlcachedresult.o(.text)
    QSqlCachedResult::fetchFirst()           0x000103f9   Thumb Code    60  qsqlcachedresult.o(.text)
    QSqlCachedResult::fetchLast()            0x00010435   Thumb Code   112  qsqlcachedresult.o(.text)
    QSqlCachedResult::colCount() const       0x000104a5   Thumb Code     8  qsqlcachedresult.o(.text)
    QSqlCachedResult::cache()                0x000104ad   Thumb Code     6  qsqlcachedresult.o(.text)
    QSqlCachedResult::virtual_hook(int, void*) 0x000104b3   Thumb Code    42  qsqlcachedresult.o(.text)
    QSqlQueryModel::QSqlQueryModel(QObject*) 0x000104dd   Thumb Code    48  qsqlquerymodel.o(.text)
    QSqlQueryModel::QSqlQueryModel__sub_object(QObject*) 0x000104dd   Thumb Code     0  qsqlquerymodel.o(.text)
    QSqlQueryModel::~QSqlQueryModel()        0x0001050d   Thumb Code    14  qsqlquerymodel.o(.text)
    QSqlQueryModel::~QSqlQueryModel__sub_object() 0x0001050d   Thumb Code     0  qsqlquerymodel.o(.text)
    QSqlQueryModel::~QSqlQueryModel__deallocating() 0x0001051b   Thumb Code    22  qsqlquerymodel.o(.text)
    QSqlQueryModel::rowCount(const QModelIndex&) const 0x00010531   Thumb Code    44  qsqlquerymodel.o(.text)
    QSqlQueryModel::columnCount(const QModelIndex&) const 0x0001055d   Thumb Code    44  qsqlquerymodel.o(.text)
    QSqlQueryModel::record(int) const        0x00010589   Thumb Code   146  qsqlquerymodel.o(.text)
    QSqlQueryModel::record() const           0x0001061b   Thumb Code    34  qsqlquerymodel.o(.text)
    QSqlQueryModelPrivate::prefetch(int)     0x0001063d   Thumb Code   376  qsqlquerymodel.o(.text)
    QSqlQueryModel::indexInQuery(const QModelIndex&) const 0x000107b5   Thumb Code   172  qsqlquerymodel.o(.text)
    QSqlQueryModel::data(const QModelIndex&, int) const 0x00010861   Thumb Code   292  qsqlquerymodel.o(.text)
    QSqlQueryModel::headerData(int, Qt::Orientation, int) const 0x00010985   Thumb Code   292  qsqlquerymodel.o(.text)
    QSqlQueryModel::setHeaderData(int, Qt::Orientation, const QVariant&, int) 0x00010aa9   Thumb Code   258  qsqlquerymodel.o(.text)
    QSqlQueryModel::insertColumns(int, int, const QModelIndex&) 0x00010bab   Thumb Code   336  qsqlquerymodel.o(.text)
    QSqlQueryModel::removeColumns(int, int, const QModelIndex&) 0x00010cfb   Thumb Code   150  qsqlquerymodel.o(.text)
    QSqlQueryModelPrivate::initColOffsets(int) 0x00010d91   Thumb Code    40  qsqlquerymodel.o(.text)
    QSqlQueryModel::setQuery(const QSqlQuery&) 0x00010db9   Thumb Code  1132  qsqlquerymodel.o(.text)
    QSqlQueryModel::setQuery(const QString&, const QSqlDatabase&) 0x00011225   Thumb Code    52  qsqlquerymodel.o(.text)
    QSqlQueryModel::query() const            0x00011259   Thumb Code    34  qsqlquerymodel.o(.text)
    QSqlQueryModel::clear()                  0x0001127b   Thumb Code   174  qsqlquerymodel.o(.text)
    QSqlQueryModel::lastError() const        0x00011329   Thumb Code    34  qsqlquerymodel.o(.text)
    QSqlQueryModel::fetchMore(const QModelIndex&) 0x0001134b   Thumb Code    68  qsqlquerymodel.o(.text)
    QSqlQueryModel::canFetchMore(const QModelIndex&) const 0x0001138f   Thumb Code    50  qsqlquerymodel.o(.text)
    QSqlQueryModel::queryChange()            0x000113c1   Thumb Code     2  qsqlquerymodel.o(.text)
    QSqlQueryModel::setLastError(const QSqlError&) 0x000113c3   Thumb Code    32  qsqlquerymodel.o(.text)
    QSqlQueryModel::QSqlQueryModel(QSqlQueryModelPrivate&, QObject*) 0x000113e3   Thumb Code    86  qsqlquerymodel.o(.text)
    QSqlQueryModel::QSqlQueryModel__sub_object(QSqlQueryModelPrivate&, QObject*) 0x000113e3   Thumb Code     0  qsqlquerymodel.o(.text)
    QSqlQueryModelPrivate::~QSqlQueryModelPrivate() 0x00011439   Thumb Code    90  qsqlquerymodel.o(.text)
    QSqlQueryModelPrivate::~QSqlQueryModelPrivate__sub_object() 0x00011439   Thumb Code     0  qsqlquerymodel.o(.text)
    QSqlQueryModelPrivate::~QSqlQueryModelPrivate__deallocating() 0x00011493   Thumb Code    22  qsqlquerymodel.o(.text)
    QSqlTableModel::QSqlTableModel(QObject*, QSqlDatabase) 0x000114ad   Thumb Code   164  qsqltablemodel.o(.text)
    QSqlTableModel::QSqlTableModel__sub_object(QObject*, QSqlDatabase) 0x000114ad   Thumb Code     0  qsqltablemodel.o(.text)
    QSqlTableModel::~QSqlTableModel()        0x00011551   Thumb Code    14  qsqltablemodel.o(.text)
    QSqlTableModel::~QSqlTableModel__sub_object() 0x00011551   Thumb Code     0  qsqltablemodel.o(.text)
    QSqlTableModel::~QSqlTableModel__deallocating() 0x0001155f   Thumb Code    22  qsqltablemodel.o(.text)
    QSqlTableModelPrivate::initRecordAndPrimaryIndex() 0x00011575   Thumb Code    76  qsqltablemodel.o(.text)
    QSqlTableModel::setQuery(const QSqlQuery&) 0x000115c1   Thumb Code    16  qsqltablemodel.o(.text)
    QSqlTableModel::revertAll()              0x000115d1   Thumb Code   170  qsqltablemodel.o(.text)
    QSqlTableModel::select()                 0x0001167b   Thumb Code   190  qsqltablemodel.o(.text)
    QSqlTableModel::setTable(const QString&) 0x00011739   Thumb Code   172  qsqltablemodel.o(.text)
    QSqlTableModel::tableName() const        0x000117e5   Thumb Code    36  qsqltablemodel.o(.text)
    QSqlTableModel::flags(const QModelIndex&) const 0x00011809   Thumb Code   238  qsqltablemodel.o(.text)
    QSqlTableModel::indexInQuery(const QModelIndex&) const 0x000118f7   Thumb Code   270  qsqltablemodel.o(.text)
    QSqlTableModel::data(const QModelIndex&, int) const 0x00011a05   Thumb Code   530  qsqltablemodel.o(.text)
    QSqlTableModelPrivate::primaryValues(int) 0x00011c17   Thumb Code   220  qsqltablemodel.o(.text)
    QSqlTableModel::setData(const QModelIndex&, const QVariant&, int) 0x00011cf3   Thumb Code   568  qsqltablemodel.o(.text)
    QSqlTableModel::headerData(int, Qt::Orientation, int) const 0x00011f2b   Thumb Code   190  qsqltablemodel.o(.text)
    QSqlTableModel::isDirty(const QModelIndex&) const 0x00011fe9   Thumb Code   250  qsqltablemodel.o(.text)
    QSqlTableModelPrivate::clear()           0x000120e3   Thumb Code    88  qsqltablemodel.o(.text)
    QSqlTableModel::clear()                  0x0001213b   Thumb Code    32  qsqltablemodel.o(.text)
    QSqlTableModel::setEditStrategy(QSqlTableModel::EditStrategy) 0x0001215b   Thumb Code    36  qsqltablemodel.o(.text)
    QSqlTableModel::editStrategy() const     0x0001217f   Thumb Code    26  qsqltablemodel.o(.text)
    QSqlTableModel::primaryKey() const       0x00012199   Thumb Code    36  qsqltablemodel.o(.text)
    QSqlTableModel::database() const         0x000121bd   Thumb Code    36  qsqltablemodel.o(.text)
    QSqlTableModel::fieldIndex(const QString&) const 0x000121e1   Thumb Code    32  qsqltablemodel.o(.text)
    QSqlTableModel::sort(int, Qt::SortOrder) 0x00012201   Thumb Code    34  qsqltablemodel.o(.text)
    QSqlTableModel::setSort(int, Qt::SortOrder) 0x00012223   Thumb Code    28  qsqltablemodel.o(.text)
    QSqlTableModel::filter() const           0x0001223f   Thumb Code    36  qsqltablemodel.o(.text)
    QSqlTableModel::setFilter(const QString&) 0x00012263   Thumb Code    56  qsqltablemodel.o(.text)
    QSqlTableModel::rowCount(const QModelIndex&) const 0x0001229b   Thumb Code   182  qsqltablemodel.o(.text)
    QSqlTableModel::removeColumns(int, int, const QModelIndex&) 0x00012351   Thumb Code   112  qsqltablemodel.o(.text)
    QSqlTableModelPrivate::revertInsertedRow() 0x000123c1   Thumb Code    76  qsqltablemodel.o(.text)
    QSqlTableModel::removeRows(int, int, const QModelIndex&) 0x0001240d   Thumb Code   428  qsqltablemodel.o(.text)
    QSqlTableModel::insertRows(int, int, const QModelIndex&) 0x000125b9   Thumb Code   478  qsqltablemodel.o(.text)
    QSqlTableModel::submitAll()              0x00012797   Thumb Code   526  qsqltablemodel.o(.text)
    QSqlTableModelPrivate::setRecord(int, const QSqlRecord&) 0x000129a5   Thumb Code   270  qsqltablemodel.o(.text)
    QSqlTableModel::setRecord(int, const QSqlRecord&) 0x00012ab3   Thumb Code   726  qsqltablemodel.o(.text)
    QSqlTableModel::insertRecord(int, const QSqlRecord&) 0x00012d89   Thumb Code   166  qsqltablemodel.o(.text)
    QSqlTableModel::revertRow(int)           0x00012e2f   Thumb Code   234  qsqltablemodel.o(.text)
    QSqlTableModel::submit()                 0x00012f19   Thumb Code    54  qsqltablemodel.o(.text)
    QSqlTableModel::revert()                 0x00012f4f   Thumb Code    38  qsqltablemodel.o(.text)
    QSqlTableModel::QSqlTableModel(QSqlTableModelPrivate&, QObject*, QSqlDatabase) 0x00012f75   Thumb Code   132  qsqltablemodel.o(.text)
    QSqlTableModel::QSqlTableModel__sub_object(QSqlTableModelPrivate&, QObject*, QSqlDatabase) 0x00012f75   Thumb Code     0  qsqltablemodel.o(.text)
    QSqlTableModelPrivate::exec(const QString&, bool, const QSqlRecord&, const QSqlRecord&) 0x00012ff9   Thumb Code   534  qsqltablemodel.o(.text)
    QSqlTableModel::updateRowInTable(int, const QSqlRecord&) 0x0001320f   Thumb Code   512  qsqltablemodel.o(.text)
    QSqlTableModel::insertRowIntoTable(const QSqlRecord&) 0x0001340f   Thumb Code   246  qsqltablemodel.o(.text)
    QSqlTableModel::deleteRowFromTable(int)  0x00013505   Thumb Code   416  qsqltablemodel.o(.text)
    QSqlTableModel::orderByClause() const    0x000136a5   Thumb Code   234  qsqltablemodel.o(.text)
    QSqlTableModel::selectStatement() const  0x0001378f   Thumb Code   572  qsqltablemodel.o(.text)
    QSqlTableModel::setPrimaryKey(const QSqlIndex&) 0x000139cb   Thumb Code    34  qsqltablemodel.o(.text)
    QSqlTableModelPrivate::clearEditBuffer() 0x000139ed   Thumb Code    20  qsqltablemodel.o(.text)
    QSqlTableModelPrivate::clearCache()      0x00013a01   Thumb Code    16  qsqltablemodel.o(.text)
    QSqlTableModelPrivate::record(const QVector<QVariant>&) const 0x00013a11   Thumb Code    98  qsqltablemodel.o(.text)
    QSqlTableModelPrivate::revertCachedRow(int) 0x00013a73   Thumb Code   420  qsqltablemodel.o(.text)
    QSqlTableModelPrivate::nameToIndex(const QString&) const 0x00013c17   Thumb Code   100  qsqltablemodel.o(.text)
    QSqlRelationalTableModel::QSqlRelationalTableModel(QObject*, QSqlDatabase) 0x00013de9   Thumb Code   114  qsqlrelationaltablemodel.o(.text)
    QSqlRelationalTableModel::QSqlRelationalTableModel__sub_object(QObject*, QSqlDatabase) 0x00013de9   Thumb Code     0  qsqlrelationaltablemodel.o(.text)
    QSqlRelationalTableModel::~QSqlRelationalTableModel() 0x00013e5b   Thumb Code    14  qsqlrelationaltablemodel.o(.text)
    QSqlRelationalTableModel::~QSqlRelationalTableModel__sub_object() 0x00013e5b   Thumb Code     0  qsqlrelationaltablemodel.o(.text)
    QSqlRelationalTableModel::~QSqlRelationalTableModel__deallocating() 0x00013e69   Thumb Code    22  qsqlrelationaltablemodel.o(.text)
    QRelation::isValid()                     0x00013e7f   Thumb Code    28  qsqlrelationaltablemodel.o(.text)
    QRelation::populateModel()               0x00013e9b   Thumb Code   152  qsqlrelationaltablemodel.o(.text)
    QRelation::populateDictionary()          0x00013f33   Thumb Code   610  qsqlrelationaltablemodel.o(.text)
    QRelation::isDictionaryInitialized()     0x00014195   Thumb Code     6  qsqlrelationaltablemodel.o(.text)
    QSqlRelationalTableModel::data(const QModelIndex&, int) const 0x0001419b   Thumb Code   418  qsqlrelationaltablemodel.o(.text)
    QSqlRelationalTableModel::setData(const QModelIndex&, const QVariant&, int) 0x0001433d   Thumb Code   232  qsqlrelationaltablemodel.o(.text)
    QSqlRelationalTableModel::removeColumns(int, int, const QModelIndex&) 0x00014425   Thumb Code   146  qsqlrelationaltablemodel.o(.text)
    QRelation::clearDictionary()             0x000144b7   Thumb Code    38  qsqlrelationaltablemodel.o(.text)
    QRelation::clear()                       0x000144dd   Thumb Code    32  qsqlrelationaltablemodel.o(.text)
    QSqlRelationalTableModelPrivate::clearChanges() 0x000144fd   Thumb Code    46  qsqlrelationaltablemodel.o(.text)
    QSqlRelationalTableModel::clear()        0x0001452b   Thumb Code    62  qsqlrelationaltablemodel.o(.text)
    QSqlRelationalTableModel::select()       0x00014569   Thumb Code    12  qsqlrelationaltablemodel.o(.text)
    QSqlRelationalTableModel::setTable(const QString&) 0x00014575   Thumb Code    62  qsqlrelationaltablemodel.o(.text)
    QRelation::init(QSqlRelationalTableModel*, const QSqlRelation&) 0x000145b3   Thumb Code    40  qsqlrelationaltablemodel.o(.text)
    QSqlRelationalTableModel::setRelation(int, const QSqlRelation&) 0x000145db   Thumb Code    72  qsqlrelationaltablemodel.o(.text)
    QSqlRelationalTableModel::relation(int) const 0x00014623   Thumb Code    58  qsqlrelationaltablemodel.o(.text)
    QSqlRelationalTableModel::relationModel(int) const 0x0001465d   Thumb Code    84  qsqlrelationaltablemodel.o(.text)
    QSqlRelationalTableModel::revertRow(int) 0x000146b1   Thumb Code    16  qsqlrelationaltablemodel.o(.text)
    QSqlRelationalTableModelPrivate::relationField(const QString&, const QString&) const 0x000146c1   Thumb Code   130  qsqlrelationaltablemodel.o(.text)
    QSqlRelationalTableModel::selectStatement() const 0x00014743   Thumb Code  2094  qsqlrelationaltablemodel.o(.text)
    QSqlRelationalTableModelPrivate::translateFieldNames(int, QSqlRecord&) const 0x00014f71   Thumb Code   206  qsqlrelationaltablemodel.o(.text)
    QSqlRelationalTableModel::updateRowInTable(int, const QSqlRecord&) 0x0001503f   Thumb Code    62  qsqlrelationaltablemodel.o(.text)
    QSqlRelationalTableModel::insertRowIntoTable(const QSqlRecord&) 0x0001507d   Thumb Code    58  qsqlrelationaltablemodel.o(.text)
    QSqlRelationalTableModel::orderByClause() const 0x000150b7   Thumb Code   252  qsqlrelationaltablemodel.o(.text)
    QSqlRelationalTableModelPrivate::nameToIndex(const QString&) const 0x000151b3   Thumb Code   162  qsqlrelationaltablemodel.o(.text)
    QSqlRelationalTableModelPrivate::clearEditBuffer() 0x00015255   Thumb Code    20  qsqlrelationaltablemodel.o(.text)
    QSqlRelationalTableModelPrivate::clearCache() 0x00015269   Thumb Code    50  qsqlrelationaltablemodel.o(.text)
    QSqlRelationalTableModelPrivate::revertCachedRow(int) 0x0001529b   Thumb Code    16  qsqlrelationaltablemodel.o(.text)
    QSqlDriver::getStaticMetaObject()        0x000152ad   Thumb Code     4  moc_qsqldriver.o(.text)
    QSqlDriver::metaObject() const           0x000152b1   Thumb Code    30  moc_qsqldriver.o(.text)
    QSqlDriver::qt_metacast(const char*)     0x000152cf   Thumb Code    40  moc_qsqldriver.o(.text)
    QSqlDriver::notification(const QString&) 0x000152f7   Thumb Code    30  moc_qsqldriver.o(.text)
    QSqlDriver::qt_metacall(QMetaObject::Call, int, void**) 0x00015315   Thumb Code   276  moc_qsqldriver.o(.text)
    QSqlDriverPlugin::getStaticMetaObject()  0x00015431   Thumb Code     4  moc_qsqldriverplugin.o(.text)
    QSqlDriverPlugin::metaObject() const     0x00015435   Thumb Code    30  moc_qsqldriverplugin.o(.text)
    QSqlDriverPlugin::qt_metacast(const char*) 0x00015453   Thumb Code    94  moc_qsqldriverplugin.o(.text)
    QSqlDriverPlugin::qt_metacall(QMetaObject::Call, int, void**) 0x000154b1   Thumb Code    36  moc_qsqldriverplugin.o(.text)
    QSQLiteDriver::getStaticMetaObject()     0x00015549   Thumb Code     4  moc_qsql_sqlite.o(.text)
    QSQLiteDriver::metaObject() const        0x0001554d   Thumb Code    30  moc_qsql_sqlite.o(.text)
    QSQLiteDriver::qt_metacast(const char*)  0x0001556b   Thumb Code    40  moc_qsql_sqlite.o(.text)
    QSQLiteDriver::qt_metacall(QMetaObject::Call, int, void**) 0x00015593   Thumb Code    36  moc_qsql_sqlite.o(.text)
    QSqlQueryModel::getStaticMetaObject()    0x000155c1   Thumb Code     4  moc_qsqlquerymodel.o(.text)
    QSqlQueryModel::metaObject() const       0x000155c5   Thumb Code    30  moc_qsqlquerymodel.o(.text)
    QSqlQueryModel::qt_metacast(const char*) 0x000155e3   Thumb Code    40  moc_qsqlquerymodel.o(.text)
    QSqlQueryModel::qt_metacall(QMetaObject::Call, int, void**) 0x0001560b   Thumb Code    36  moc_qsqlquerymodel.o(.text)
    QSqlTableModel::getStaticMetaObject()    0x00015639   Thumb Code     4  moc_qsqltablemodel.o(.text)
    QSqlTableModel::metaObject() const       0x0001563d   Thumb Code    30  moc_qsqltablemodel.o(.text)
    QSqlTableModel::qt_metacast(const char*) 0x0001565b   Thumb Code    40  moc_qsqltablemodel.o(.text)
    QSqlTableModel::beforeDelete(int)        0x00015683   Thumb Code    32  moc_qsqltablemodel.o(.text)
    QSqlTableModel::beforeUpdate(int, QSqlRecord&) 0x000156a3   Thumb Code    40  moc_qsqltablemodel.o(.text)
    QSqlTableModel::beforeInsert(QSqlRecord&) 0x000156cb   Thumb Code    30  moc_qsqltablemodel.o(.text)
    QSqlTableModel::primeInsert(int, QSqlRecord&) 0x000156e9   Thumb Code    38  moc_qsqltablemodel.o(.text)
    QSqlTableModel::qt_metacall(QMetaObject::Call, int, void**) 0x0001570f   Thumb Code   182  moc_qsqltablemodel.o(.text)
    QSqlRelationalTableModel::getStaticMetaObject() 0x000157cd   Thumb Code     4  moc_qsqlrelationaltablemodel.o(.text)
    QSqlRelationalTableModel::metaObject() const 0x000157d1   Thumb Code    30  moc_qsqlrelationaltablemodel.o(.text)
    QSqlRelationalTableModel::qt_metacast(const char*) 0x000157ef   Thumb Code    40  moc_qsqlrelationaltablemodel.o(.text)
    QSqlRelationalTableModel::qt_metacall(QMetaObject::Call, int, void**) 0x00015817   Thumb Code    66  moc_qsqlrelationaltablemodel.o(.text)
    __ARM_switch8                            0x00015860   ARM Code      24  switch8.o(.text)
    __rt_switch8                             0x00015860   ARM Code       0  switch8.o(.text)
    _E32Dll_Body                             0x00015878   ARM Code      76  uc_dll.o(.text)
    __aeabi_atexit                           0x000158c8   ARM Code      40  ucppfini.o(.text)
    __cxa_atexit                             0x000158f0   ARM Code      64  ucppfini.o(.text)
    __cxa_finalize                           0x00015930   ARM Code      48  ucppfini.o(.text)
    run_static_dtors                         0x00015960   ARM Code      16  ucppfini.o(.text)
    __DLL_Export_Table__                     0x0001597c   ARM Code       4  dllexp.o(.text)
    QByteArray::data()                       0x00016e7b   Thumb Code    44  qsqldatabase.o(i._ZN10QByteArray4dataEv)
    QByteArray::~QByteArray()                0x00016ea7   Thumb Code    24  qsql_sqlite.o(i._ZN10QByteArrayD1Ev)
    QByteArray::~QByteArray__sub_object()    0x00016ea7   Thumb Code     0  qsql_sqlite.o(i._ZN10QByteArrayD1Ev)
    QModelIndex::QModelIndex(const QModelIndex&) 0x00016ebf   Thumb Code    18  qsqltablemodel.o(i._ZN11QModelIndexC1ERKS_)
    QModelIndex::QModelIndex__sub_object(const QModelIndex&) 0x00016ebf   Thumb Code     0  qsqltablemodel.o(i._ZN11QModelIndexC1ERKS_)
    QModelIndex::QModelIndex()               0x00016ed1   Thumb Code    16  qsqlquerymodel.o(i._ZN11QModelIndexC1Ev)
    QModelIndex::QModelIndex__sub_object()   0x00016ed1   Thumb Code     0  qsqlquerymodel.o(i._ZN11QModelIndexC1Ev)
    QModelIndex::~QModelIndex()              0x00016ee1   Thumb Code     8  qsqlquerymodel.o(i._ZN11QModelIndexD1Ev)
    QModelIndex::~QModelIndex__sub_object()  0x00016ee1   Thumb Code     0  qsqlquerymodel.o(i._ZN11QModelIndexD1Ev)
    QReadLocker::QReadLocker(QReadWriteLock*) 0x00016ee9   Thumb Code    76  qsqldatabase.o(i._ZN11QReadLockerC1EP14QReadWriteLock)
    QReadLocker::QReadLocker__sub_object(QReadWriteLock*) 0x00016ee9   Thumb Code     0  qsqldatabase.o(i._ZN11QReadLockerC1EP14QReadWriteLock)
    QReadLocker::~QReadLocker()              0x00016f6d   Thumb Code    48  qsqldatabase.o(i._ZN11QReadLockerD1Ev)
    QReadLocker::~QReadLocker__sub_object()  0x00016f6d   Thumb Code     0  qsqldatabase.o(i._ZN11QReadLockerD1Ev)
    QStringList::QStringList()               0x00016f9d   Thumb Code    20  qsqldriver.o(i._ZN11QStringListC1Ev)
    QStringList::QStringList__sub_object()   0x00016f9d   Thumb Code     0  qsqldriver.o(i._ZN11QStringListC1Ev)
    QStringList::~QStringList()              0x00016fb5   Thumb Code    14  qsql_sqlite.o(i._ZN11QStringListD1Ev)
    QStringList::~QStringList__sub_object()  0x00016fb5   Thumb Code     0  qsql_sqlite.o(i._ZN11QStringListD1Ev)
    QSqlRelation::QSqlRelation(const QSqlRelation&) 0x00016fc3   Thumb Code    46  qsqlrelationaltablemodel.o(i._ZN12QSqlRelationC1ERKS_)
    QSqlRelation::QSqlRelation__sub_object(const QSqlRelation&) 0x00016fc3   Thumb Code     0  qsqlrelationaltablemodel.o(i._ZN12QSqlRelationC1ERKS_)
    QSqlRelation::~QSqlRelation()            0x00017003   Thumb Code    34  qsqlrelationaltablemodel.o(i._ZN12QSqlRelationD1Ev)
    QSqlRelation::~QSqlRelation__sub_object() 0x00017003   Thumb Code     0  qsqlrelationaltablemodel.o(i._ZN12QSqlRelationD1Ev)
    QSqlRelation::operator =(const QSqlRelation&) 0x00017037   Thumb Code    38  qsqlrelationaltablemodel.o(i._ZN12QSqlRelationaSERKS_)
    QWriteLocker::QWriteLocker(QReadWriteLock*) 0x0001705d   Thumb Code    76  qsqldatabase.o(i._ZN12QWriteLockerC1EP14QReadWriteLock)
    QWriteLocker::QWriteLocker__sub_object(QReadWriteLock*) 0x0001705d   Thumb Code     0  qsqldatabase.o(i._ZN12QWriteLockerC1EP14QReadWriteLock)
    QWriteLocker::~QWriteLocker()            0x000170e5   Thumb Code    48  qsqldatabase.o(i._ZN12QWriteLockerD1Ev)
    QWriteLocker::~QWriteLocker__sub_object() 0x000170e5   Thumb Code     0  qsqldatabase.o(i._ZN12QWriteLockerD1Ev)
    QConcatenable<QLatin1Char>::appendTo(QLatin1Char, QChar*&) 0x00017115   Thumb Code    30  qsqldriver.o(i._ZN13QConcatenableI11QLatin1CharE8appendToES0_RP5QChar)
    QConcatenable<QLatin1String>::size(const QLatin1String&) 0x00017133   Thumb Code    26  qsql_sqlite.o(i._ZN13QConcatenableI13QLatin1StringE4sizeERKS0_)
    QConcatenable<QLatin1String>::appendTo(const QLatin1String&, QChar*&) 0x0001714d   Thumb Code    52  qsql_sqlite.o(i._ZN13QConcatenableI13QLatin1StringE8appendToERKS0_RP5QChar)
    QConcatenable<QString>::appendTo(const QString&, QChar*&) 0x00017181   Thumb Code    42  qsql_sqlite.o(i._ZN13QConcatenableI7QStringE8appendToERKS0_RP5QChar)
    QSQLiteDriver::tr(const char*, const char*) 0x000171ad   Thumb Code    22  qsql_sqlite.o(i._ZN13QSQLiteDriver2trEPKcS1_)
    QSqlNullDriver::setLastError(const QSqlError&) 0x000171c9   Thumb Code     2  qsqlquery.o(i._ZN14QSqlNullDriver12setLastErrorERK9QSqlError)
    QSqlNullDriver::setOpenError(bool)       0x000171cb   Thumb Code     2  qsqlquery.o(i._ZN14QSqlNullDriver12setOpenErrorEb)
    QSqlNullDriver::open(const QString&, const QString&, const QString&, const QString&, int, const QString&) 0x000171cd   Thumb Code    12  qsqlquery.o(i._ZN14QSqlNullDriver4openERK7QStringS2_S2_S2_iS2_)
    QSqlNullDriver::close()                  0x000171d9   Thumb Code     2  qsqlquery.o(i._ZN14QSqlNullDriver5closeEv)
    QSqlNullDriver::setOpen(bool)            0x000171db   Thumb Code     2  qsqlquery.o(i._ZN14QSqlNullDriver7setOpenEb)
    QSqlNullDriver::QSqlNullDriver()         0x000171dd   Thumb Code   104  qsqlquery.o(i._ZN14QSqlNullDriverC1Ev)
    QSqlNullDriver::QSqlNullDriver__sub_object() 0x000171dd   Thumb Code     0  qsqlquery.o(i._ZN14QSqlNullDriverC1Ev)
    QSqlNullDriver::~QSqlNullDriver__deallocating() 0x00017279   Thumb Code    24  qsqlquery.o(i._ZN14QSqlNullDriverD0Ev)
    QSqlNullDriver::~QSqlNullDriver()        0x00017291   Thumb Code    14  qsqlquery.o(i._ZN14QSqlNullDriverD1Ev)
    QSqlNullDriver::~QSqlNullDriver__sub_object() 0x00017291   Thumb Code     0  qsqlquery.o(i._ZN14QSqlNullDriverD1Ev)
    QSqlNullResult::fetchFirst()             0x0001729f   Thumb Code     6  qsqlquery.o(i._ZN14QSqlNullResult10fetchFirstEv)
    QSqlNullResult::savePrepare(const QString&) 0x000172a5   Thumb Code     6  qsqlquery.o(i._ZN14QSqlNullResult11savePrepareERK7QString)
    QSqlNullResult::setLastError(const QSqlError&) 0x000172ab   Thumb Code     2  qsqlquery.o(i._ZN14QSqlNullResult12setLastErrorERK9QSqlError)
    QSqlNullResult::setForwardOnly(bool)     0x000172ad   Thumb Code     2  qsqlquery.o(i._ZN14QSqlNullResult14setForwardOnlyEb)
    QSqlNullResult::numRowsAffected()        0x000172af   Thumb Code     6  qsqlquery.o(i._ZN14QSqlNullResult15numRowsAffectedEv)
    QSqlNullResult::data(int)                0x000172b5   Thumb Code    18  qsqlquery.o(i._ZN14QSqlNullResult4dataEi)
    QSqlNullResult::exec()                   0x000172c7   Thumb Code     6  qsqlquery.o(i._ZN14QSqlNullResult4execEv)
    QSqlNullResult::size()                   0x000172cd   Thumb Code     8  qsqlquery.o(i._ZN14QSqlNullResult4sizeEv)
    QSqlNullResult::fetch(int)               0x000172d5   Thumb Code     6  qsqlquery.o(i._ZN14QSqlNullResult5fetchEi)
    QSqlNullResult::reset(const QString&)    0x000172db   Thumb Code     6  qsqlquery.o(i._ZN14QSqlNullResult5resetERK7QString)
    QSqlNullResult::setAt(int)               0x000172e1   Thumb Code     2  qsqlquery.o(i._ZN14QSqlNullResult5setAtEi)
    QSqlNullResult::isNull(int)              0x000172e3   Thumb Code     6  qsqlquery.o(i._ZN14QSqlNullResult6isNullEi)
    QSqlNullResult::prepare(const QString&)  0x000172e9   Thumb Code     6  qsqlquery.o(i._ZN14QSqlNullResult7prepareERK7QString)
    QSqlNullResult::setQuery(const QString&) 0x000172ef   Thumb Code     2  qsqlquery.o(i._ZN14QSqlNullResult8setQueryERK7QString)
    QSqlNullResult::bindValue(const QString&, const QVariant&, QFlags<QSql::ParamTypeFlag>) 0x000172f1   Thumb Code     2  qsqlquery.o(i._ZN14QSqlNullResult9bindValueERK7QStringRK8QVariant6QFlagsIN4QSql13ParamTypeFlagEE)
    QSqlNullResult::bindValue(int, const QVariant&, QFlags<QSql::ParamTypeFlag>) 0x000172f3   Thumb Code     2  qsqlquery.o(i._ZN14QSqlNullResult9bindValueEiRK8QVariant6QFlagsIN4QSql13ParamTypeFlagEE)
    QSqlNullResult::fetchLast()              0x000172f5   Thumb Code     6  qsqlquery.o(i._ZN14QSqlNullResult9fetchLastEv)
    QSqlNullResult::setActive(bool)          0x000172fb   Thumb Code     2  qsqlquery.o(i._ZN14QSqlNullResult9setActiveEb)
    QSqlNullResult::setSelect(bool)          0x000172fd   Thumb Code     2  qsqlquery.o(i._ZN14QSqlNullResult9setSelectEb)
    QSqlNullResult::QSqlNullResult(const QSqlDriver*) 0x00017301   Thumb Code   104  qsqlquery.o(i._ZN14QSqlNullResultC1EPK10QSqlDriver)
    QSqlNullResult::QSqlNullResult__sub_object(const QSqlDriver*) 0x00017301   Thumb Code     0  qsqlquery.o(i._ZN14QSqlNullResultC1EPK10QSqlDriver)
    QSqlNullResult::~QSqlNullResult__deallocating() 0x0001739d   Thumb Code    24  qsqlquery.o(i._ZN14QSqlNullResultD0Ev)
    QSqlNullResult::~QSqlNullResult()        0x000173b5   Thumb Code    14  qsqlquery.o(i._ZN14QSqlNullResultD1Ev)
    QSqlNullResult::~QSqlNullResult__sub_object() 0x000173b5   Thumb Code     0  qsqlquery.o(i._ZN14QSqlNullResultD1Ev)
    QBasicAtomicInt::ref()                   0x000173c3   Thumb Code    24  qsql_sqlite.o(i._ZN15QBasicAtomicInt3refEv)
    QBasicAtomicInt::deref()                 0x000173db   Thumb Code    24  qsql_sqlite.o(i._ZN15QBasicAtomicInt5derefEv)
    QConnectionDict::~QConnectionDict()      0x000173f3   Thumb Code    22  qsqldatabase.o(i._ZN15QConnectionDictD1Ev)
    QConnectionDict::~QConnectionDict__sub_object() 0x000173f3   Thumb Code     0  qsqldatabase.o(i._ZN15QConnectionDictD1Ev)
    QtSharedPointer::ExternalRefCountData::destroy() 0x00017413   Thumb Code     6  qsqldriver.o(i._ZN15QtSharedPointer20ExternalRefCountData7destroyEv)
    QtSharedPointer::ExternalRefCountData::~ExternalRefCountData__deallocating() 0x00017419   Thumb Code    22  qsqldriver.o(i._ZN15QtSharedPointer20ExternalRefCountDataD0Ev)
    QtSharedPointer::ExternalRefCountData::~ExternalRefCountData() 0x00017431   Thumb Code    70  qsqldriver.o(i._ZN15QtSharedPointer20ExternalRefCountDataD1Ev)
    QtSharedPointer::ExternalRefCountData::~ExternalRefCountData__sub_object() 0x00017431   Thumb Code     0  qsqldriver.o(i._ZN15QtSharedPointer20ExternalRefCountDataD1Ev)
    QSqlFieldPrivate::~QSqlFieldPrivate()    0x0001749d   Thumb Code    28  qsqlfield.o(i._ZN16QSqlFieldPrivateD1Ev)
    QSqlFieldPrivate::~QSqlFieldPrivate__sub_object() 0x0001749d   Thumb Code     0  qsqlfield.o(i._ZN16QSqlFieldPrivateD1Ev)
    QFactoryInterface::~QFactoryInterface__deallocating() 0x000174c3   Thumb Code    18  qsqldriverplugin.o(i._ZN17QFactoryInterfaceD0Ev)
    QFactoryInterface::~QFactoryInterface()  0x000174d5   Thumb Code     0  qsqldriverplugin.o(i._ZN17QFactoryInterfaceD2Ev)
    QFactoryInterface::~QFactoryInterface__sub_object() 0x000174d5   Thumb Code     2  qsqldriverplugin.o(i._ZN17QFactoryInterfaceD2Ev)
    QForeachContainer<QStringList>::~QForeachContainer() 0x000174d7   Thumb Code    14  qsql_sqlite.o(i._ZN17QForeachContainerI11QStringListED1Ev)
    QForeachContainer<QStringList>::~QForeachContainer__sub_object() 0x000174d7   Thumb Code     0  qsql_sqlite.o(i._ZN17QForeachContainerI11QStringListED1Ev)
    QSqlDriverPrivate::QSqlDriverPrivate()   0x000174e5   Thumb Code    94  qsqldriver.o(i._ZN17QSqlDriverPrivateC1Ev)
    QSqlDriverPrivate::QSqlDriverPrivate__sub_object() 0x000174e5   Thumb Code     0  qsqldriver.o(i._ZN17QSqlDriverPrivateC1Ev)
    QSqlRecordPrivate::contains(int)         0x00017563   Thumb Code    24  qsqlrecord.o(i._ZN17QSqlRecordPrivate8containsEi)
    QSqlResultPrivate::clearIndex()          0x0001757b   Thumb Code   196  qsqlresult.o(i._ZN17QSqlResultPrivate10clearIndexEv)
    QSqlResultPrivate::clear()               0x0001765d   Thumb Code    46  qsqlresult.o(i._ZN17QSqlResultPrivate5clearEv)
    QSqlResultPrivate::QSqlResultPrivate(QSqlResult*) 0x00017695   Thumb Code   166  qsqlresult.o(i._ZN17QSqlResultPrivateC1EP10QSqlResult)
    QSqlResultPrivate::QSqlResultPrivate__sub_object(QSqlResult*) 0x00017695   Thumb Code     0  qsqlresult.o(i._ZN17QSqlResultPrivateC1EP10QSqlResult)
    QSqlResultPrivate::~QSqlResultPrivate()  0x00017791   Thumb Code    92  qsqlresult.o(i._ZN17QSqlResultPrivateD1Ev)
    QSqlResultPrivate::~QSqlResultPrivate__sub_object() 0x00017791   Thumb Code     0  qsqlresult.o(i._ZN17QSqlResultPrivateD1Ev)
    QSqlDatabasePrivate::QSqlDatabasePrivate(QSqlDatabase*, QSqlDriver*) 0x00017835   Thumb Code   146  qsqldatabase.o(i._ZN19QSqlDatabasePrivateC1EP12QSqlDatabaseP10QSqlDriver)
    QSqlDatabasePrivate::QSqlDatabasePrivate__sub_object(QSqlDatabase*, QSqlDriver*) 0x00017835   Thumb Code     0  qsqldatabase.o(i._ZN19QSqlDatabasePrivateC1EP12QSqlDatabaseP10QSqlDriver)
    QSqlQueryModelPrivate::QSqlQueryModelPrivate() 0x0001791d   Thumb Code   222  qsqlquerymodel.o(i._ZN21QSqlQueryModelPrivateC1Ev)
    QSqlQueryModelPrivate::QSqlQueryModelPrivate__sub_object() 0x0001791d   Thumb Code     0  qsqlquerymodel.o(i._ZN21QSqlQueryModelPrivateC1Ev)
    QSqlTableModelPrivate::ModifiedRow::ModifiedRow(QSqlTableModelPrivate::Op, const QSqlRecord&) 0x00017a63   Thumb Code    36  qsqltablemodel.o(i._ZN21QSqlTableModelPrivate11ModifiedRowC1ENS_2OpERK10QSqlRecord)
    QSqlTableModelPrivate::ModifiedRow::ModifiedRow__sub_object(QSqlTableModelPrivate::Op, const QSqlRecord&) 0x00017a63   Thumb Code     0  qsqltablemodel.o(i._ZN21QSqlTableModelPrivate11ModifiedRowC1ENS_2OpERK10QSqlRecord)
    QSqlTableModelPrivate::ModifiedRow::ModifiedRow(const QSqlTableModelPrivate::ModifiedRow&) 0x00017a91   Thumb Code    40  qsqltablemodel.o(i._ZN21QSqlTableModelPrivate11ModifiedRowC1ERKS0_)
    QSqlTableModelPrivate::ModifiedRow::ModifiedRow__sub_object(const QSqlTableModelPrivate::ModifiedRow&) 0x00017a91   Thumb Code     0  qsqltablemodel.o(i._ZN21QSqlTableModelPrivate11ModifiedRowC1ERKS0_)
    QSqlTableModelPrivate::ModifiedRow::~ModifiedRow() 0x00017ac3   Thumb Code    28  qsqltablemodel.o(i._ZN21QSqlTableModelPrivate11ModifiedRowD1Ev)
    QSqlTableModelPrivate::ModifiedRow::~ModifiedRow__sub_object() 0x00017ac3   Thumb Code     0  qsqltablemodel.o(i._ZN21QSqlTableModelPrivate11ModifiedRowD1Ev)
    QSqlTableModelPrivate::ModifiedRow::operator =(const QSqlTableModelPrivate::ModifiedRow&) 0x00017ae9   Thumb Code    34  qsqltablemodel.o(i._ZN21QSqlTableModelPrivate11ModifiedRowaSERKS0_)
    QSqlTableModelPrivate::QSqlTableModelPrivate() 0x00017b0d   Thumb Code   222  qsqltablemodel.o(i._ZN21QSqlTableModelPrivateC1Ev)
    QSqlTableModelPrivate::QSqlTableModelPrivate__sub_object() 0x00017b0d   Thumb Code     0  qsqltablemodel.o(i._ZN21QSqlTableModelPrivateC1Ev)
    QSqlTableModelPrivate::~QSqlTableModelPrivate__deallocating() 0x00017c77   Thumb Code    22  qsqltablemodel.o(i._ZN21QSqlTableModelPrivateD0Ev)
    QSqlTableModelPrivate::~QSqlTableModelPrivate() 0x00017c8d   Thumb Code   130  qsqltablemodel.o(i._ZN21QSqlTableModelPrivateD1Ev)
    QSqlTableModelPrivate::~QSqlTableModelPrivate__sub_object() 0x00017c8d   Thumb Code     0  qsqltablemodel.o(i._ZN21QSqlTableModelPrivateD1Ev)
    QAbstractItemModelPrivate::Persistent::~Persistent() 0x00017d7f   Thumb Code    34  qsqlquerymodel.o(i._ZN25QAbstractItemModelPrivate10PersistentD1Ev)
    QAbstractItemModelPrivate::Persistent::~Persistent__sub_object() 0x00017d7f   Thumb Code     0  qsqlquerymodel.o(i._ZN25QAbstractItemModelPrivate10PersistentD1Ev)
    QAbstractItemModelPrivate::QAbstractItemModelPrivate() 0x00017db5   Thumb Code   178  qsqlquerymodel.o(i._ZN25QAbstractItemModelPrivateC1Ev)
    QAbstractItemModelPrivate::QAbstractItemModelPrivate__sub_object() 0x00017db5   Thumb Code     0  qsqlquerymodel.o(i._ZN25QAbstractItemModelPrivateC1Ev)
    QAbstractItemModelPrivate::~QAbstractItemModelPrivate__deallocating() 0x00017ead   Thumb Code    22  qsqlquerymodel.o(i._ZN25QAbstractItemModelPrivateD0Ev)
    QAbstractItemModelPrivate::~QAbstractItemModelPrivate() 0x00017ec5   Thumb Code    58  qsqlquerymodel.o(i._ZN25QAbstractItemModelPrivateD1Ev)
    QAbstractItemModelPrivate::~QAbstractItemModelPrivate__sub_object() 0x00017ec5   Thumb Code     0  qsqlquerymodel.o(i._ZN25QAbstractItemModelPrivateD1Ev)
    QSqlDriverFactoryInterface::~QSqlDriverFactoryInterface__deallocating() 0x00017f27   Thumb Code    18  qsqldriverplugin.o(i._ZN26QSqlDriverFactoryInterfaceD0Ev)
    QSqlDriverFactoryInterface::~QSqlDriverFactoryInterface() 0x00017f39   Thumb Code     0  qsqldriverplugin.o(i._ZN26QSqlDriverFactoryInterfaceD2Ev)
    QSqlDriverFactoryInterface::~QSqlDriverFactoryInterface__sub_object() 0x00017f39   Thumb Code     2  qsqldriverplugin.o(i._ZN26QSqlDriverFactoryInterfaceD2Ev)
    QSqlRelationalTableModelPrivate::~QSqlRelationalTableModelPrivate__deallocating() 0x00017f3b   Thumb Code    22  qsqlrelationaltablemodel.o(i._ZN31QSqlRelationalTableModelPrivateD0Ev)
    QSqlRelationalTableModelPrivate::~QSqlRelationalTableModelPrivate() 0x00017f51   Thumb Code    50  qsqlrelationaltablemodel.o(i._ZN31QSqlRelationalTableModelPrivateD1Ev)
    QSqlRelationalTableModelPrivate::~QSqlRelationalTableModelPrivate__sub_object() 0x00017f51   Thumb Code     0  qsqlrelationaltablemodel.o(i._ZN31QSqlRelationalTableModelPrivateD1Ev)
    QDebug::maybeSpace()                     0x00017fa3   Thumb Code    24  qsqldatabase.o(i._ZN6QDebug10maybeSpaceEv)
    QDebug::space()                          0x00017fbb   Thumb Code    22  qsqldatabase.o(i._ZN6QDebug5spaceEv)
    QDebug::QDebug(const QDebug&)            0x00017fd1   Thumb Code    16  qsqldatabase.o(i._ZN6QDebugC1ERKS_)
    QDebug::QDebug__sub_object(const QDebug&) 0x00017fd1   Thumb Code     0  qsqldatabase.o(i._ZN6QDebugC1ERKS_)
    QDebug::~QDebug()                        0x00017fe1   Thumb Code   112  qsqldatabase.o(i._ZN6QDebugD1Ev)
    QDebug::~QDebug__sub_object()            0x00017fe1   Thumb Code     0  qsqldatabase.o(i._ZN6QDebugD1Ev)
    QDebug::operator <<(const char*)         0x00018065   Thumb Code    44  qsqldatabase.o(i._ZN6QDebuglsEPKc)
    QDebug::operator <<(const QString&)      0x0001809b   Thumb Code    38  qsqldatabase.o(i._ZN6QDebuglsERK7QString)
    QDebug::operator <<(char)                0x000180c1   Thumb Code    22  qsqlfield.o(i._ZN6QDebuglsEc)
    QDebug::operator <<(int)                 0x000180d7   Thumb Code    22  qsqlfield.o(i._ZN6QDebuglsEi)
    QHolder::QHolder(const QString&, int)    0x000180ed   Thumb Code    24  qsqlresult.o(i._ZN7QHolderC1ERK7QStringi)
    QHolder::QHolder__sub_object(const QString&, int) 0x000180ed   Thumb Code     0  qsqlresult.o(i._ZN7QHolderC1ERK7QStringi)
    QHolder::QHolder(const QHolder&)         0x00018105   Thumb Code    24  qsqlresult.o(i._ZN7QHolderC1ERKS_)
    QHolder::QHolder__sub_object(const QHolder&) 0x00018105   Thumb Code     0  qsqlresult.o(i._ZN7QHolderC1ERKS_)
    QHolder::~QHolder()                      0x0001811d   Thumb Code    14  qsqlresult.o(i._ZN7QHolderD1Ev)
    QHolder::~QHolder__sub_object()          0x0001811d   Thumb Code     0  qsqlresult.o(i._ZN7QHolderD1Ev)
    QString::data()                          0x0001812b   Thumb Code    40  qsqlindex.o(i._ZN7QString4dataEv)
    QString::clear()                         0x00018155   Thumb Code    50  qsqldriver.o(i._ZN7QString5clearEv)
    QString::detach()                        0x00018197   Thumb Code    34  qsqldriver.o(i._ZN7QString6detachEv)
    QString::prepend(const QLatin1String&)   0x000181b9   Thumb Code    18  qsqldriver.o(i._ZN7QString7prependERK13QLatin1String)
    QString::reserve(int)                    0x000181cb   Thumb Code    58  qsqlresult.o(i._ZN7QString7reserveEi)
    QString::squeeze()                       0x00018205   Thumb Code    58  qsqlresult.o(i._ZN7QString7squeezeEv)
    QString::QString(const QLatin1String&)   0x0001823f   Thumb Code    26  qsql_sqlite.o(i._ZN7QStringC1ERK13QLatin1String)
    QString::QString__sub_object(const QLatin1String&) 0x0001823f   Thumb Code     0  qsql_sqlite.o(i._ZN7QStringC1ERK13QLatin1String)
    QString::QString(const QString&)         0x00018259   Thumb Code    40  qsql_sqlite.o(i._ZN7QStringC1ERKS_)
    QString::QString__sub_object(const QString&) 0x00018259   Thumb Code     0  qsql_sqlite.o(i._ZN7QStringC1ERKS_)
    QString::QString()                       0x000182d5   Thumb Code    18  qsql_sqlite.o(i._ZN7QStringC1Ev)
    QString::QString__sub_object()           0x000182d5   Thumb Code     0  qsql_sqlite.o(i._ZN7QStringC1Ev)
    QString::~QString()                      0x000182ed   Thumb Code    24  qsql_sqlite.o(i._ZN7QStringD1Ev)
    QString::~QString__sub_object()          0x000182ed   Thumb Code     0  qsql_sqlite.o(i._ZN7QStringD1Ev)
    QString::operator =(const QLatin1String&) 0x00018305   Thumb Code    42  qsqldriver.o(i._ZN7QStringaSERK13QLatin1String)
    QString::operator +=(QChar)              0x00018339   Thumb Code    94  qsqldriver.o(i._ZN7QStringpLE5QChar)
    QVariant::QVariant()                     0x00018397   Thumb Code    38  qsql_sqlite.o(i._ZN8QVariantC1Ev)
    QVariant::QVariant__sub_object()         0x00018397   Thumb Code     0  qsql_sqlite.o(i._ZN8QVariantC1Ev)
    QHashData::willGrow()                    0x000183bd   Thumb Code    32  qsqldatabase.o(i._ZN9QHashData8willGrowEv)
    QHashData::firstNode()                   0x000183dd   Thumb Code    36  qsqldatabase.o(i._ZN9QHashData9firstNodeEv)
    QHashData::hasShrunk()                   0x00018401   Thumb Code    82  qsqldatabase.o(i._ZN9QHashData9hasShrunkEv)
    QRelation::QRelation(const QRelation&)   0x00018453   Thumb Code    74  qsqlrelationaltablemodel.o(i._ZN9QRelationC1ERKS_)
    QRelation::QRelation__sub_object(const QRelation&) 0x00018453   Thumb Code     0  qsqlrelationaltablemodel.o(i._ZN9QRelationC1ERKS_)
    QRelation::QRelation()                   0x000184a7   Thumb Code    62  qsqlrelationaltablemodel.o(i._ZN9QRelationC1Ev)
    QRelation::QRelation__sub_object()       0x000184a7   Thumb Code     0  qsqlrelationaltablemodel.o(i._ZN9QRelationC1Ev)
    QRelation::~QRelation()                  0x00018501   Thumb Code    26  qsqlrelationaltablemodel.o(i._ZN9QRelationD1Ev)
    QRelation::~QRelation__sub_object()      0x00018501   Thumb Code     0  qsqlrelationaltablemodel.o(i._ZN9QRelationD1Ev)
    QSqlRecord::operator !=(const QSqlRecord&) const 0x00018525   Thumb Code    20  qsqlquerymodel.o(i._ZNK10QSqlRecordneERKS_)
    QModelIndex::isValid() const             0x00018539   Thumb Code    28  qsqlquerymodel.o(i._ZNK11QModelIndex7isValidEv)
    QModelIndex::sibling(int, int) const     0x00018555   Thumb Code   158  qsqltablemodel.o(i._ZNK11QModelIndex7siblingEii)
    QSqlRelation::displayColumn() const      0x00018619   Thumb Code    20  qsqlrelationaltablemodel.o(i._ZNK12QSqlRelation13displayColumnEv)
    QSqlRelation::isValid() const            0x0001862d   Thumb Code    44  qsqlrelationaltablemodel.o(i._ZNK12QSqlRelation7isValidEv)
    QSqlRelation::tableName() const          0x00018659   Thumb Code    18  qsqlrelationaltablemodel.o(i._ZNK12QSqlRelation9tableNameEv)
    QSqlNullDriver::hasFeature(QSqlDriver::DriverFeature) const 0x0001866b   Thumb Code     6  qsqlquery.o(i._ZNK14QSqlNullDriver10hasFeatureEN10QSqlDriver13DriverFeatureE)
    QSqlNullDriver::createResult() const     0x00018671   Thumb Code    32  qsqlquery.o(i._ZNK14QSqlNullDriver12createResultEv)
    QBasicAtomicInt::operator ==(int) const  0x0001869f   Thumb Code    16  qsql_sqlite.o(i._ZNK15QBasicAtomicInteqEi)
    QBasicAtomicInt::operator !=(int) const  0x000186af   Thumb Code    16  qsql_sqlite.o(i._ZNK15QBasicAtomicIntneEi)
    QBasicAtomicInt::operator !() const      0x000186bf   Thumb Code    16  qsql_sqlite.o(i._ZNK15QBasicAtomicIntntEv)
    QAbstractItemModel::createIndex(int, int, void*) const 0x000186cf   Thumb Code    18  qsqlquerymodel.o(i._ZNK18QAbstractItemModel11createIndexEiiPv)
    QSqlCachedResultPrivate::cacheCount() const 0x000186e1   Thumb Code    58  qsqlcachedresult.o(i._ZNK23QSqlCachedResultPrivate10cacheCountEv)
    QString::at(int) const                   0x00018769   Thumb Code    48  qsqlresult.o(i._ZNK7QString2atEi)
    QString::arg(int, int, int, const QChar&) const 0x000187f5   Thumb Code    36  qsqlrelationaltablemodel.o(i._ZNK7QString3argEiiiRK5QChar)
    QString::isEmpty() const                 0x00018819   Thumb Code    18  qsql_sqlite.o(i._ZNK7QString7isEmptyEv)
    QString::operator !=(const QString&) const 0x0001882b   Thumb Code    20  qsql_sqlite.o(i._ZNK7QStringneERKS_)
    QVariant::isValid() const                0x0001883f   Thumb Code    18  qsqldriver.o(i._ZNK8QVariant7isValidEv)
    QVariant::operator ==(const QVariant&) const 0x00018851   Thumb Code    16  qsqlfield.o(i._ZNK8QVarianteqERKS_)
    QListData::at(int) const                 0x00018861   Thumb Code    20  qsqlindex.o(i._ZNK9QListData2atEi)
    QListData::end() const                   0x00018875   Thumb Code    16  qsql_sqlite.o(i._ZNK9QListData3endEv)
    QListData::begin() const                 0x00018885   Thumb Code    16  qsql_sqlite.o(i._ZNK9QListData5beginEv)
    QSqlField::value() const                 0x00018895   Thumb Code    18  qsqldriver.o(i._ZNK9QSqlField5valueEv)
    operator delete (void*, void*)           0x000188a7   Thumb Code     2  qsql_sqlite.o(i._ZdlPvS_)
    operator ==(QChar, QChar)                0x000188a9   Thumb Code    24  qsqlresult.o(i._Zeq5QCharS_)
    operator !=(QChar, QChar)                0x000188c1   Thumb Code    24  qsqlresult.o(i._Zne5QCharS_)
    operator new(unsigned, void*)            0x000188d9   Thumb Code     6  qsql_sqlite.o(i._ZnwjPv)
    qDeleteAll<QHash<QString, QSqlDriverCreatorBase*>::const_iterator>(T1, T1) 0x000188df   Thumb Code    54  qsqldatabase.o(t._Z10qDeleteAllIN5QHashI7QStringP21QSqlDriverCreatorBaseE14const_iteratorEEvT_S6_)
    qAtomicDetach<QSqlFieldPrivate>(T1*&)    0x00018915   Thumb Code   218  qsqlfield.o(t._Z13qAtomicDetachI16QSqlFieldPrivateEvRPT_)
    qMapLessThanKey<int>(const T1&, const T1&) 0x00018a09   Thumb Code    18  qsqltablemodel.o(t._Z15qMapLessThanKeyIiEbRKT_S2_)
    qRegisterMetaType<sqlite3_stmt*>(const char*, T1*) 0x00018a1d   Thumb Code    56  qsql_sqlite.o(t._Z17qRegisterMetaTypeIP12sqlite3_stmtEiPKcPT_)
    qRegisterMetaType<sqlite3*>(const char*, T1*) 0x00018a5d   Thumb Code    56  qsql_sqlite.o(t._Z17qRegisterMetaTypeIP7sqlite3EiPKcPT_)
    qMetaTypeDeleteHelper<sqlite3_stmt*>(T1*) 0x00018a9d   Thumb Code    12  qsql_sqlite.o(t._Z21qMetaTypeDeleteHelperIP12sqlite3_stmtEvPT_)
    qMetaTypeDeleteHelper<sqlite3*>(T1*)     0x00018aa9   Thumb Code    12  qsql_sqlite.o(t._Z21qMetaTypeDeleteHelperIP7sqlite3EvPT_)
    qMetaTypeConstructHelper<sqlite3_stmt*>(const T1*) 0x00018ab5   Thumb Code    50  qsql_sqlite.o(t._Z24qMetaTypeConstructHelperIP12sqlite3_stmtEPvPKT_)
    qMetaTypeConstructHelper<sqlite3*>(const T1*) 0x00018ae7   Thumb Code    50  qsql_sqlite.o(t._Z24qMetaTypeConstructHelperIP7sqlite3EPvPKT_)
    qMax<int>(const T1&, const T1&)          0x00018b19   Thumb Code    18  qsqlquerymodel.o(t._Z4qMaxIiERKT_S2_S2_)
    qMin<int>(const T1&, const T1&)          0x00018b2b   Thumb Code    18  qsqlresult.o(t._Z4qMinIiERKT_S2_S2_)
    QMetaTypeId2<sqlite3_stmt*>::qt_metatype_id() 0x00018b3d   Thumb Code    44  qsql_sqlite.o(t._ZN12QMetaTypeId2IP12sqlite3_stmtE14qt_metatype_idEv)
    QMetaTypeId2<sqlite3*>::qt_metatype_id() 0x00018b7d   Thumb Code    44  qsql_sqlite.o(t._ZN12QMetaTypeId2IP7sqlite3E14qt_metatype_idEv)
    QVarLengthArray<int, (int)56>::resize(int) 0x00018bb9   Thumb Code    26  qsqlquerymodel.o(t._ZN15QVarLengthArrayIiLi56EE6resizeEi)
    QVarLengthArray<int, (int)56>::realloc(int, int) 0x00018bd5   Thumb Code   146  qsqlquerymodel.o(t._ZN15QVarLengthArrayIiLi56EE7reallocEii)
    QVarLengthArray<int, (int)56>::~QVarLengthArray() 0x00018c81   Thumb Code    26  qsqlquerymodel.o(t._ZN15QVarLengthArrayIiLi56EED1Ev)
    QVarLengthArray<int, (int)56>::~QVarLengthArray__sub_object() 0x00018c81   Thumb Code     0  qsqlquerymodel.o(t._ZN15QVarLengthArrayIiLi56EED1Ev)
    QVarLengthArray<int, (int)56>::operator [](int) 0x00018c9d   Thumb Code    40  qsqlquerymodel.o(t._ZN15QVarLengthArrayIiLi56EEixEi)
    QGlobalStaticDeleter<QFactoryLoader>::~QGlobalStaticDeleter() 0x00018cdd   Thumb Code    38  qsqldatabase.o(t._ZN20QGlobalStaticDeleterI14QFactoryLoaderED1Ev)
    QGlobalStaticDeleter<QFactoryLoader>::~QGlobalStaticDeleter__sub_object() 0x00018cdd   Thumb Code     0  qsqldatabase.o(t._ZN20QGlobalStaticDeleterI14QFactoryLoaderED1Ev)
    QGlobalStaticDeleter<QSqlNullDriver>::~QGlobalStaticDeleter() 0x00018d03   Thumb Code    38  qsqlquery.o(t._ZN20QGlobalStaticDeleterI14QSqlNullDriverED1Ev)
    QGlobalStaticDeleter<QSqlNullDriver>::~QGlobalStaticDeleter__sub_object() 0x00018d03   Thumb Code     0  qsqlquery.o(t._ZN20QGlobalStaticDeleterI14QSqlNullDriverED1Ev)
    QGlobalStaticDeleter<QSqlNullResult>::~QGlobalStaticDeleter() 0x00018d29   Thumb Code    38  qsqlquery.o(t._ZN20QGlobalStaticDeleterI14QSqlNullResultED1Ev)
    QGlobalStaticDeleter<QSqlNullResult>::~QGlobalStaticDeleter__sub_object() 0x00018d29   Thumb Code     0  qsqlquery.o(t._ZN20QGlobalStaticDeleterI14QSqlNullResultED1Ev)
    QGlobalStaticDeleter<QConnectionDict>::~QGlobalStaticDeleter() 0x00018d4f   Thumb Code    42  qsqldatabase.o(t._ZN20QGlobalStaticDeleterI15QConnectionDictED1Ev)
    QGlobalStaticDeleter<QConnectionDict>::~QGlobalStaticDeleter__sub_object() 0x00018d4f   Thumb Code     0  qsqldatabase.o(t._ZN20QGlobalStaticDeleterI15QConnectionDictED1Ev)
    QGlobalStaticDeleter<QSqlQueryPrivate>::~QGlobalStaticDeleter() 0x00018d79   Thumb Code    42  qsqlquery.o(t._ZN20QGlobalStaticDeleterI16QSqlQueryPrivateED1Ev)
    QGlobalStaticDeleter<QSqlQueryPrivate>::~QGlobalStaticDeleter__sub_object() 0x00018d79   Thumb Code     0  qsqlquery.o(t._ZN20QGlobalStaticDeleterI16QSqlQueryPrivateED1Ev)
    QMap<QString, QVariant>::node_create(QMapData*, QMapData::Node**, const QString&, const QVariant&) 0x00018da5   Thumb Code   170  qsqlquery.o(t._ZN4QMapI7QString8QVariantE11node_createEP8QMapDataPPNS3_4NodeERKS0_RKS1_)
    QMap<QString, QVariant>::detach_helper() 0x00018ecb   Thumb Code   148  qsqlquery.o(t._ZN4QMapI7QString8QVariantE13detach_helperEv)
    QMap<QString, QVariant>::freeData(QMapData*) 0x00018f67   Thumb Code    64  qsqlquery.o(t._ZN4QMapI7QString8QVariantE8freeDataEP8QMapData)
    QMap<QString, QVariant>::~QMap()         0x00018fa7   Thumb Code    38  qsqlquery.o(t._ZN4QMapI7QString8QVariantED1Ev)
    QMap<QString, QVariant>::~QMap__sub_object() 0x00018fa7   Thumb Code     0  qsqlquery.o(t._ZN4QMapI7QString8QVariantED1Ev)
    QMap<int, QSqlTableModelPrivate::ModifiedRow>::node_create(QMapData*, QMapData::Node**, const int&, const QSqlTableModelPrivate::ModifiedRow&) 0x00018fcd   Thumb Code   130  qsqltablemodel.o(t._ZN4QMapIiN21QSqlTableModelPrivate11ModifiedRowEE11node_createEP8QMapDataPPNS3_4NodeERKiRKS1_)
    QMap<int, QSqlTableModelPrivate::ModifiedRow>::detach_helper() 0x0001906b   Thumb Code   146  qsqltablemodel.o(t._ZN4QMapIiN21QSqlTableModelPrivate11ModifiedRowEE13detach_helperEv)
    QMap<int, QSqlTableModelPrivate::ModifiedRow>::end() 0x00019105   Thumb Code    18  qsqltablemodel.o(t._ZN4QMapIiN21QSqlTableModelPrivate11ModifiedRowEE3endEv)
    QMap<int, QSqlTableModelPrivate::ModifiedRow>::clear() 0x00019117   Thumb Code    82  qsqltablemodel.o(t._ZN4QMapIiN21QSqlTableModelPrivate11ModifiedRowEE5clearEv)
    QMap<int, QSqlTableModelPrivate::ModifiedRow>::erase(QMap<int, QSqlTableModelPrivate::ModifiedRow>::iterator) 0x00019173   Thumb Code   248  qsqltablemodel.o(t._ZN4QMapIiN21QSqlTableModelPrivate11ModifiedRowEE5eraseENS2_8iteratorE)
    QMap<int, QSqlTableModelPrivate::ModifiedRow>::detach() 0x0001926b   Thumb Code    28  qsqltablemodel.o(t._ZN4QMapIiN21QSqlTableModelPrivate11ModifiedRowEE6detachEv)
    QMap<int, QSqlTableModelPrivate::ModifiedRow>::insert(const int&, const QSqlTableModelPrivate::ModifiedRow&) 0x00019287   Thumb Code    80  qsqltablemodel.o(t._ZN4QMapIiN21QSqlTableModelPrivate11ModifiedRowEE6insertERKiRKS1_)
    QMap<int, QSqlTableModelPrivate::ModifiedRow>::remove(const int&) 0x000192d7   Thumb Code   256  qsqltablemodel.o(t._ZN4QMapIiN21QSqlTableModelPrivate11ModifiedRowEE6removeERKi)
    QMap<int, QSqlTableModelPrivate::ModifiedRow>::freeData(QMapData*) 0x000193d7   Thumb Code    56  qsqltablemodel.o(t._ZN4QMapIiN21QSqlTableModelPrivate11ModifiedRowEE8freeDataEP8QMapData)
    QMap<int, QSqlTableModelPrivate::ModifiedRow>::QMap() 0x00019411   Thumb Code    22  qsqltablemodel.o(t._ZN4QMapIiN21QSqlTableModelPrivate11ModifiedRowEEC1Ev)
    QMap<int, QSqlTableModelPrivate::ModifiedRow>::QMap__sub_object() 0x00019411   Thumb Code     0  qsqltablemodel.o(t._ZN4QMapIiN21QSqlTableModelPrivate11ModifiedRowEEC1Ev)
    QMap<int, QSqlTableModelPrivate::ModifiedRow>::~QMap() 0x0001942d   Thumb Code    38  qsqltablemodel.o(t._ZN4QMapIiN21QSqlTableModelPrivate11ModifiedRowEED1Ev)
    QMap<int, QSqlTableModelPrivate::ModifiedRow>::~QMap__sub_object() 0x0001942d   Thumb Code     0  qsqltablemodel.o(t._ZN4QMapIiN21QSqlTableModelPrivate11ModifiedRowEED1Ev)
    QMap<int, QSqlTableModelPrivate::ModifiedRow>::operator [](const int&) 0x00019453   Thumb Code    98  qsqltablemodel.o(t._ZN4QMapIiN21QSqlTableModelPrivate11ModifiedRowEEixERKi)
    QHash<QModelIndex, QPersistentModelIndexData*>::deleteNode2(QHashData::Node*) 0x000194c5   Thumb Code    24  qsqlquerymodel.o(t._ZN5QHashI11QModelIndexP25QPersistentModelIndexDataE11deleteNode2EPN9QHashData4NodeE)
    QHash<QModelIndex, QPersistentModelIndexData*>::freeData(QHashData*) 0x000194dd   Thumb Code    16  qsqlquerymodel.o(t._ZN5QHashI11QModelIndexP25QPersistentModelIndexDataE8freeDataEP9QHashData)
    QHash<QModelIndex, QPersistentModelIndexData*>::~QHash() 0x000194f1   Thumb Code    30  qsqlquerymodel.o(t._ZN5QHashI11QModelIndexP25QPersistentModelIndexDataED1Ev)
    QHash<QModelIndex, QPersistentModelIndexData*>::~QHash__sub_object() 0x000194f1   Thumb Code     0  qsqlquerymodel.o(t._ZN5QHashI11QModelIndexP25QPersistentModelIndexDataED1Ev)
    QHash<QString, QSqlDatabase>::deleteNode2(QHashData::Node*) 0x0001950f   Thumb Code    36  qsqldatabase.o(t._ZN5QHashI7QString12QSqlDatabaseE11deleteNode2EPN9QHashData4NodeE)
    QHash<QString, QSqlDatabase>::detach_helper() 0x00019541   Thumb Code    52  qsqldatabase.o(t._ZN5QHashI7QString12QSqlDatabaseE13detach_helperEv)
    QHash<QString, QSqlDatabase>::duplicateNode(QHashData::Node*, void*) 0x0001957d   Thumb Code    46  qsqldatabase.o(t._ZN5QHashI7QString12QSqlDatabaseE13duplicateNodeEPN9QHashData4NodeEPv)
    QHash<QString, QSqlDatabase>::take(const QString&) 0x000195b9   Thumb Code   146  qsqldatabase.o(t._ZN5QHashI7QString12QSqlDatabaseE4takeERKS0_)
    QHash<QString, QSqlDatabase>::detach()   0x00019655   Thumb Code    28  qsqldatabase.o(t._ZN5QHashI7QString12QSqlDatabaseE6detachEv)
    QHash<QString, QSqlDatabase>::insert(const QString&, const QSqlDatabase&) 0x00019671   Thumb Code   182  qsqldatabase.o(t._ZN5QHashI7QString12QSqlDatabaseE6insertERKS0_RKS1_)
    QHash<QString, QSqlDatabase>::freeData(QHashData*) 0x00019735   Thumb Code    16  qsqldatabase.o(t._ZN5QHashI7QString12QSqlDatabaseE8freeDataEP9QHashData)
    QHash<QString, QSqlDatabase>::QHash()    0x00019749   Thumb Code    22  qsqldatabase.o(t._ZN5QHashI7QString12QSqlDatabaseEC1Ev)
    QHash<QString, QSqlDatabase>::QHash__sub_object() 0x00019749   Thumb Code     0  qsqldatabase.o(t._ZN5QHashI7QString12QSqlDatabaseEC1Ev)
    QHash<QString, QSqlDatabase>::~QHash()   0x00019765   Thumb Code    30  qsqldatabase.o(t._ZN5QHashI7QString12QSqlDatabaseED1Ev)
    QHash<QString, QSqlDatabase>::~QHash__sub_object() 0x00019765   Thumb Code     0  qsqldatabase.o(t._ZN5QHashI7QString12QSqlDatabaseED1Ev)
    QHash<QString, QVariant>::deleteNode2(QHashData::Node*) 0x00019783   Thumb Code    36  qsqlrelationaltablemodel.o(t._ZN5QHashI7QString8QVariantE11deleteNode2EPN9QHashData4NodeE)
    QHash<QString, QVariant>::detach_helper() 0x000197b5   Thumb Code    52  qsqlrelationaltablemodel.o(t._ZN5QHashI7QString8QVariantE13detach_helperEv)
    QHash<QString, QVariant>::duplicateNode(QHashData::Node*, void*) 0x000197f1   Thumb Code    48  qsqlrelationaltablemodel.o(t._ZN5QHashI7QString8QVariantE13duplicateNodeEPN9QHashData4NodeEPv)
    QHash<QString, QVariant>::detach()       0x0001982f   Thumb Code    28  qsqlrelationaltablemodel.o(t._ZN5QHashI7QString8QVariantE6detachEv)
    QHash<QString, QVariant>::freeData(QHashData*) 0x0001984d   Thumb Code    16  qsqlrelationaltablemodel.o(t._ZN5QHashI7QString8QVariantE8freeDataEP9QHashData)
    QHash<QString, QVariant>::QHash()        0x00019861   Thumb Code    22  qsqlrelationaltablemodel.o(t._ZN5QHashI7QString8QVariantEC1Ev)
    QHash<QString, QVariant>::QHash__sub_object() 0x00019861   Thumb Code     0  qsqlrelationaltablemodel.o(t._ZN5QHashI7QString8QVariantEC1Ev)
    QHash<QString, QVariant>::~QHash()       0x0001987d   Thumb Code    30  qsqlrelationaltablemodel.o(t._ZN5QHashI7QString8QVariantED1Ev)
    QHash<QString, QVariant>::~QHash__sub_object() 0x0001987d   Thumb Code     0  qsqlrelationaltablemodel.o(t._ZN5QHashI7QString8QVariantED1Ev)
    QHash<QString, QVariant>::operator =(const QHash<QString, QVariant>&) 0x0001989b   Thumb Code    70  qsqlrelationaltablemodel.o(t._ZN5QHashI7QString8QVariantEaSERKS2_)
    QHash<QString, QVariant>::operator [](const QString&) 0x000198e1   Thumb Code   188  qsqlrelationaltablemodel.o(t._ZN5QHashI7QString8QVariantEixERKS0_)
    QHash<QString, QSqlDriverCreatorBase*>::deleteNode2(QHashData::Node*) 0x000199b5   Thumb Code    24  qsqldatabase.o(t._ZN5QHashI7QStringP21QSqlDriverCreatorBaseE11deleteNode2EPN9QHashData4NodeE)
    QHash<QString, QSqlDriverCreatorBase*>::detach_helper() 0x000199cd   Thumb Code    52  qsqldatabase.o(t._ZN5QHashI7QStringP21QSqlDriverCreatorBaseE13detach_helperEv)
    QHash<QString, QSqlDriverCreatorBase*>::duplicateNode(QHashData::Node*, void*) 0x00019a09   Thumb Code    46  qsqldatabase.o(t._ZN5QHashI7QStringP21QSqlDriverCreatorBaseE13duplicateNodeEPN9QHashData4NodeEPv)
    QHash<QString, QSqlDriverCreatorBase*>::take(const QString&) 0x00019a45   Thumb Code   132  qsqldatabase.o(t._ZN5QHashI7QStringP21QSqlDriverCreatorBaseE4takeERKS0_)
    QHash<QString, QSqlDriverCreatorBase*>::detach() 0x00019ac9   Thumb Code    28  qsqldatabase.o(t._ZN5QHashI7QStringP21QSqlDriverCreatorBaseE6detachEv)
    QHash<QString, QSqlDriverCreatorBase*>::insert(const QString&, QSqlDriverCreatorBase*const &) 0x00019ae5   Thumb Code   176  qsqldatabase.o(t._ZN5QHashI7QStringP21QSqlDriverCreatorBaseE6insertERKS0_RKS2_)
    QHash<QString, QSqlDriverCreatorBase*>::freeData(QHashData*) 0x00019ba5   Thumb Code    16  qsqldatabase.o(t._ZN5QHashI7QStringP21QSqlDriverCreatorBaseE8freeDataEP9QHashData)
    QHash<QString, QSqlDriverCreatorBase*>::QHash(const QHash<QString, QSqlDriverCreatorBase*>&) 0x00019bb9   Thumb Code    40  qsqldatabase.o(t._ZN5QHashI7QStringP21QSqlDriverCreatorBaseEC1ERKS3_)
    QHash<QString, QSqlDriverCreatorBase*>::QHash__sub_object(const QHash<QString, QSqlDriverCreatorBase*>&) 0x00019bb9   Thumb Code     0  qsqldatabase.o(t._ZN5QHashI7QStringP21QSqlDriverCreatorBaseEC1ERKS3_)
    QHash<QString, QSqlDriverCreatorBase*>::QHash() 0x00019be1   Thumb Code    22  qsqldatabase.o(t._ZN5QHashI7QStringP21QSqlDriverCreatorBaseEC1Ev)
    QHash<QString, QSqlDriverCreatorBase*>::QHash__sub_object() 0x00019be1   Thumb Code     0  qsqldatabase.o(t._ZN5QHashI7QStringP21QSqlDriverCreatorBaseEC1Ev)
    QHash<QString, QSqlDriverCreatorBase*>::~QHash() 0x00019bfd   Thumb Code    30  qsqldatabase.o(t._ZN5QHashI7QStringP21QSqlDriverCreatorBaseED1Ev)
    QHash<QString, QSqlDriverCreatorBase*>::~QHash__sub_object() 0x00019bfd   Thumb Code     0  qsqldatabase.o(t._ZN5QHashI7QStringP21QSqlDriverCreatorBaseED1Ev)
    QHash<QString, int>::deleteNode2(QHashData::Node*) 0x00019c1b   Thumb Code    24  qsqlresult.o(t._ZN5QHashI7QStringiE11deleteNode2EPN9QHashData4NodeE)
    QHash<QString, int>::detach_helper()     0x00019c35   Thumb Code    52  qsqlresult.o(t._ZN5QHashI7QStringiE13detach_helperEv)
    QHash<QString, int>::duplicateNode(QHashData::Node*, void*) 0x00019c71   Thumb Code    46  qsqlresult.o(t._ZN5QHashI7QStringiE13duplicateNodeEPN9QHashData4NodeEPv)
    QHash<QString, int>::insert(const QString&, const int&) 0x00019cad   Thumb Code   194  qsqlrelationaltablemodel.o(t._ZN5QHashI7QStringiE6insertERKS0_RKi)
    QHash<QString, int>::freeData(QHashData*) 0x00019d7d   Thumb Code    16  qsqlresult.o(t._ZN5QHashI7QStringiE8freeDataEP9QHashData)
    QHash<QString, int>::QHash()             0x00019d91   Thumb Code    22  qsqlresult.o(t._ZN5QHashI7QStringiEC1Ev)
    QHash<QString, int>::QHash__sub_object() 0x00019d91   Thumb Code     0  qsqlresult.o(t._ZN5QHashI7QStringiEC1Ev)
    QHash<QString, int>::~QHash()            0x00019dad   Thumb Code    30  qsqlresult.o(t._ZN5QHashI7QStringiED1Ev)
    QHash<QString, int>::~QHash__sub_object() 0x00019dad   Thumb Code     0  qsqlresult.o(t._ZN5QHashI7QStringiED1Ev)
    QHash<QString, int>::operator [](const QString&) 0x00019dcb   Thumb Code   182  qsqlresult.o(t._ZN5QHashI7QStringiEixERKS0_)
    QHash<int, QByteArray>::deleteNode2(QHashData::Node*) 0x00019e8f   Thumb Code    24  qsqlquerymodel.o(t._ZN5QHashIi10QByteArrayE11deleteNode2EPN9QHashData4NodeE)
    QHash<int, QByteArray>::detach_helper()  0x00019ea9   Thumb Code    52  qsqlquerymodel.o(t._ZN5QHashIi10QByteArrayE13detach_helperEv)
    QHash<int, QByteArray>::duplicateNode(QHashData::Node*, void*) 0x00019ee5   Thumb Code    76  qsqlquerymodel.o(t._ZN5QHashIi10QByteArrayE13duplicateNodeEPN9QHashData4NodeEPv)
    QHash<int, QByteArray>::freeData(QHashData*) 0x00019f41   Thumb Code    16  qsqlquerymodel.o(t._ZN5QHashIi10QByteArrayE8freeDataEP9QHashData)
    QHash<int, QByteArray>::~QHash()         0x00019f55   Thumb Code    30  qsqlquerymodel.o(t._ZN5QHashIi10QByteArrayED1Ev)
    QHash<int, QByteArray>::~QHash__sub_object() 0x00019f55   Thumb Code     0  qsqlquerymodel.o(t._ZN5QHashIi10QByteArrayED1Ev)
    QHash<int, QFlags<QSql::ParamTypeFlag>>::deleteNode2(QHashData::Node*) 0x00019f73   Thumb Code     6  qsqlresult.o(t._ZN5QHashIi6QFlagsIN4QSql13ParamTypeFlagEEE11deleteNode2EPN9QHashData4NodeE)
    QHash<int, QFlags<QSql::ParamTypeFlag>>::detach_helper() 0x00019f79   Thumb Code    52  qsqlresult.o(t._ZN5QHashIi6QFlagsIN4QSql13ParamTypeFlagEEE13detach_helperEv)
    QHash<int, QFlags<QSql::ParamTypeFlag>>::duplicateNode(QHashData::Node*, void*) 0x00019fb5   Thumb Code    60  qsqlresult.o(t._ZN5QHashIi6QFlagsIN4QSql13ParamTypeFlagEEE13duplicateNodeEPN9QHashData4NodeEPv)
    QHash<int, QFlags<QSql::ParamTypeFlag>>::freeData(QHashData*) 0x00019ff1   Thumb Code    16  qsqlresult.o(t._ZN5QHashIi6QFlagsIN4QSql13ParamTypeFlagEEE8freeDataEP9QHashData)
    QHash<int, QFlags<QSql::ParamTypeFlag>>::QHash() 0x0001a005   Thumb Code    22  qsqlresult.o(t._ZN5QHashIi6QFlagsIN4QSql13ParamTypeFlagEEEC1Ev)
    QHash<int, QFlags<QSql::ParamTypeFlag>>::QHash__sub_object() 0x0001a005   Thumb Code     0  qsqlresult.o(t._ZN5QHashIi6QFlagsIN4QSql13ParamTypeFlagEEEC1Ev)
    QHash<int, QFlags<QSql::ParamTypeFlag>>::~QHash() 0x0001a021   Thumb Code    30  qsqlresult.o(t._ZN5QHashIi6QFlagsIN4QSql13ParamTypeFlagEEED1Ev)
    QHash<int, QFlags<QSql::ParamTypeFlag>>::~QHash__sub_object() 0x0001a021   Thumb Code     0  qsqlresult.o(t._ZN5QHashIi6QFlagsIN4QSql13ParamTypeFlagEEED1Ev)
    QHash<int, QFlags<QSql::ParamTypeFlag>>::operator [](const int&) 0x0001a03f   Thumb Code   194  qsqlresult.o(t._ZN5QHashIi6QFlagsIN4QSql13ParamTypeFlagEEEixERKi)
    QHash<int, QVariant>::deleteNode2(QHashData::Node*) 0x0001a105   Thumb Code    24  qsqlquerymodel.o(t._ZN5QHashIi8QVariantE11deleteNode2EPN9QHashData4NodeE)
    QHash<int, QVariant>::detach_helper()    0x0001a11d   Thumb Code    52  qsqlquerymodel.o(t._ZN5QHashIi8QVariantE13detach_helperEv)
    QHash<int, QVariant>::duplicateNode(QHashData::Node*, void*) 0x0001a159   Thumb Code    46  qsqlquerymodel.o(t._ZN5QHashIi8QVariantE13duplicateNodeEPN9QHashData4NodeEPv)
    QHash<int, QVariant>::detach()           0x0001a195   Thumb Code    28  qsqlquerymodel.o(t._ZN5QHashIi8QVariantE6detachEv)
    QHash<int, QVariant>::freeData(QHashData*) 0x0001a1b1   Thumb Code    16  qsqlquerymodel.o(t._ZN5QHashIi8QVariantE8freeDataEP9QHashData)
    QHash<int, QVariant>::QHash(const QHash<int, QVariant>&) 0x0001a1c5   Thumb Code    40  qsqlquerymodel.o(t._ZN5QHashIi8QVariantEC1ERKS1_)
    QHash<int, QVariant>::QHash__sub_object(const QHash<int, QVariant>&) 0x0001a1c5   Thumb Code     0  qsqlquerymodel.o(t._ZN5QHashIi8QVariantEC1ERKS1_)
    QHash<int, QVariant>::QHash()            0x0001a1ed   Thumb Code    22  qsqlquerymodel.o(t._ZN5QHashIi8QVariantEC1Ev)
    QHash<int, QVariant>::QHash__sub_object() 0x0001a1ed   Thumb Code     0  qsqlquerymodel.o(t._ZN5QHashIi8QVariantEC1Ev)
    QHash<int, QVariant>::~QHash()           0x0001a209   Thumb Code    30  qsqlquerymodel.o(t._ZN5QHashIi8QVariantED1Ev)
    QHash<int, QVariant>::~QHash__sub_object() 0x0001a209   Thumb Code     0  qsqlquerymodel.o(t._ZN5QHashIi8QVariantED1Ev)
    QHash<int, QVariant>::operator [](const int&) 0x0001a227   Thumb Code   218  qsqlquerymodel.o(t._ZN5QHashIi8QVariantEixERKi)
    QList<QString>::detach_helper(int)       0x0001a319   Thumb Code    94  qsql_sqlite.o(t._ZN5QListI7QStringE13detach_helperEi)
    QList<QString>::detach_helper()          0x0001a37f   Thumb Code    16  qsql_sqlite.o(t._ZN5QListI7QStringE13detach_helperEv)
    QList<QString>::node_destruct(QList<QString>::Node*, QList<QString>::Node*) 0x0001a38f   Thumb Code    26  qsql_sqlite.o(t._ZN5QListI7QStringE13node_destructEPNS1_4NodeES3_)
    QList<QString>::node_construct(QList<QString>::Node*, const QString&) 0x0001a3a9   Thumb Code    36  qsql_sqlite.o(t._ZN5QListI7QStringE14node_constructEPNS1_4NodeERKS0_)
    QList<QString>::detach_helper_grow(int, int) 0x0001a3db   Thumb Code   208  qsql_sqlite.o(t._ZN5QListI7QStringE18detach_helper_growEii)
    QList<QString>::free(QListData::Data*)   0x0001a4bb   Thumb Code    58  qsql_sqlite.o(t._ZN5QListI7QStringE4freeEPN9QListData4DataE)
    QList<QString>::append(const QString&)   0x0001a4f5   Thumb Code   114  qsql_sqlite.o(t._ZN5QListI7QStringE6appendERKS0_)
    QList<QString>::reserve(int)             0x0001a57b   Thumb Code    46  qsqldatabase.o(t._ZN5QListI7QStringE7reserveEi)
    QList<QString>::node_copy(QList<QString>::Node*, QList<QString>::Node*, QList<QString>::Node*) 0x0001a5a9   Thumb Code    82  qsql_sqlite.o(t._ZN5QListI7QStringE9node_copyEPNS1_4NodeES3_S3_)
    QList<QString>::QList()                  0x0001a611   Thumb Code    18  qsqldatabase.o(t._ZN5QListI7QStringEC1Ev)
    QList<QString>::QList__sub_object()      0x0001a611   Thumb Code     0  qsqldatabase.o(t._ZN5QListI7QStringEC1Ev)
    QList<QString>::~QList()                 0x0001a629   Thumb Code    32  qsql_sqlite.o(t._ZN5QListI7QStringED1Ev)
    QList<QString>::~QList__sub_object()     0x0001a629   Thumb Code     0  qsql_sqlite.o(t._ZN5QListI7QStringED1Ev)
    QList<QString>::operator [](int)         0x0001a649   Thumb Code    88  qsqlrelationaltablemodel.o(t._ZN5QListI7QStringEixEi)
    QList<QVariant>::free(QListData::Data*)  0x0001a709   Thumb Code    82  qsqlresult.o(t._ZN5QListI8QVariantE4freeEPN9QListData4DataE)
    QList<QVariant>::~QList()                0x0001a75b   Thumb Code    32  qsqlresult.o(t._ZN5QListI8QVariantED1Ev)
    QList<QVariant>::~QList__sub_object()    0x0001a75b   Thumb Code     0  qsqlresult.o(t._ZN5QListI8QVariantED1Ev)
    QList<bool>::detach_helper(int)          0x0001a77b   Thumb Code    94  qsqlindex.o(t._ZN5QListIbE13detach_helperEi)
    QList<bool>::detach_helper()             0x0001a7e1   Thumb Code    16  qsqlindex.o(t._ZN5QListIbE13detach_helperEv)
    QList<bool>::detach_helper_grow(int, int) 0x0001a7f1   Thumb Code   204  qsqlindex.o(t._ZN5QListIbE18detach_helper_growEii)
    QList<bool>::free(QListData::Data*)      0x0001a8cd   Thumb Code    58  qsqlindex.o(t._ZN5QListIbE4freeEPN9QListData4DataE)
    QList<bool>::append(const bool&)         0x0001a909   Thumb Code    96  qsqlindex.o(t._ZN5QListIbE6appendERKb)
    QList<bool>::node_copy(QList<bool>::Node*, QList<bool>::Node*, QList<bool>::Node*) 0x0001a977   Thumb Code    46  qsqlindex.o(t._ZN5QListIbE9node_copyEPNS0_4NodeES2_S2_)
    QList<bool>::~QList()                    0x0001a9a5   Thumb Code    32  qsqlindex.o(t._ZN5QListIbED1Ev)
    QList<bool>::~QList__sub_object()        0x0001a9a5   Thumb Code     0  qsqlindex.o(t._ZN5QListIbED1Ev)
    QStack<QVector<QPersistentModelIndexData*>>::QStack() 0x0001a9c5   Thumb Code    20  qsqlquerymodel.o(t._ZN6QStackI7QVectorIP25QPersistentModelIndexDataEEC1Ev)
    QStack<QVector<QPersistentModelIndexData*>>::QStack__sub_object() 0x0001a9c5   Thumb Code     0  qsqlquerymodel.o(t._ZN6QStackI7QVectorIP25QPersistentModelIndexDataEEC1Ev)
    QStack<QVector<QPersistentModelIndexData*>>::~QStack() 0x0001a9dd   Thumb Code    14  qsqlquerymodel.o(t._ZN6QStackI7QVectorIP25QPersistentModelIndexDataEED1Ev)
    QStack<QVector<QPersistentModelIndexData*>>::~QStack__sub_object() 0x0001a9dd   Thumb Code     0  qsqlquerymodel.o(t._ZN6QStackI7QVectorIP25QPersistentModelIndexDataEED1Ev)
    QStack<QAbstractItemModelPrivate::Change>::~QStack() 0x0001a9eb   Thumb Code    14  qsqlquerymodel.o(t._ZN6QStackIN25QAbstractItemModelPrivate6ChangeEED1Ev)
    QStack<QAbstractItemModelPrivate::Change>::~QStack__sub_object() 0x0001a9eb   Thumb Code     0  qsqlquerymodel.o(t._ZN6QStackIN25QAbstractItemModelPrivate6ChangeEED1Ev)
    QVector<QHash<int, QVariant>>::detach_helper() 0x0001a9f9   Thumb Code    18  qsqlquerymodel.o(t._ZN7QVectorI5QHashIi8QVariantEE13detach_helperEv)
    QVector<QHash<int, QVariant>>::free(QVectorTypedData<QHash<int, QVariant>>*) 0x0001aa0b   Thumb Code    52  qsqlquerymodel.o(t._ZN7QVectorI5QHashIi8QVariantEE4freeEP16QVectorTypedDataIS2_E)
    QVector<QHash<int, QVariant>>::malloc(int) 0x0001aa3f   Thumb Code    52  qsqlquerymodel.o(t._ZN7QVectorI5QHashIi8QVariantEE6mallocEi)
    QVector<QHash<int, QVariant>>::resize(int) 0x0001aa73   Thumb Code    82  qsqlquerymodel.o(t._ZN7QVectorI5QHashIi8QVariantEE6resizeEi)
    QVector<QHash<int, QVariant>>::realloc(int, int) 0x0001aac5   Thumb Code   486  qsqlquerymodel.o(t._ZN7QVectorI5QHashIi8QVariantEE7reallocEii)
    QVector<QHash<int, QVariant>>::QVector() 0x0001ad1d   Thumb Code    18  qsqlquerymodel.o(t._ZN7QVectorI5QHashIi8QVariantEEC1Ev)
    QVector<QHash<int, QVariant>>::QVector__sub_object() 0x0001ad1d   Thumb Code     0  qsqlquerymodel.o(t._ZN7QVectorI5QHashIi8QVariantEEC1Ev)
    QVector<QHash<int, QVariant>>::~QVector() 0x0001ad35   Thumb Code    34  qsqlquerymodel.o(t._ZN7QVectorI5QHashIi8QVariantEED1Ev)
    QVector<QHash<int, QVariant>>::~QVector__sub_object() 0x0001ad35   Thumb Code     0  qsqlquerymodel.o(t._ZN7QVectorI5QHashIi8QVariantEED1Ev)
    QVector<QHash<int, QVariant>>::operator =(const QVector<QHash<int, QVariant>>&) 0x0001ad57   Thumb Code    54  qsqlquerymodel.o(t._ZN7QVectorI5QHashIi8QVariantEEaSERKS3_)
    QVector<QHolder>::detach_helper()        0x0001ad8d   Thumb Code    18  qsqlresult.o(t._ZN7QVectorI7QHolderE13detach_helperEv)
    QVector<QHolder>::free(QVectorTypedData<QHolder>*) 0x0001ad9f   Thumb Code    52  qsqlresult.o(t._ZN7QVectorI7QHolderE4freeEP16QVectorTypedDataIS0_E)
    QVector<QHolder>::append(const QHolder&) 0x0001add3   Thumb Code   180  qsqlresult.o(t._ZN7QVectorI7QHolderE6appendERKS0_)
    QVector<QHolder>::malloc(int)            0x0001aea3   Thumb Code    52  qsqlresult.o(t._ZN7QVectorI7QHolderE6mallocEi)
    QVector<QHolder>::realloc(int, int)      0x0001aed9   Thumb Code   516  qsqlresult.o(t._ZN7QVectorI7QHolderE7reallocEii)
    QVector<QHolder>::QVector()              0x0001b159   Thumb Code    18  qsqlresult.o(t._ZN7QVectorI7QHolderEC1Ev)
    QVector<QHolder>::QVector__sub_object()  0x0001b159   Thumb Code     0  qsqlresult.o(t._ZN7QVectorI7QHolderEC1Ev)
    QVector<QHolder>::~QVector()             0x0001b171   Thumb Code    34  qsqlresult.o(t._ZN7QVectorI7QHolderED1Ev)
    QVector<QHolder>::~QVector__sub_object() 0x0001b171   Thumb Code     0  qsqlresult.o(t._ZN7QVectorI7QHolderED1Ev)
    QVector<QHolder>::operator =(const QVector<QHolder>&) 0x0001b193   Thumb Code    54  qsqlresult.o(t._ZN7QVectorI7QHolderEaSERKS1_)
    QVector<QVariant>::detach_helper()       0x0001b1c9   Thumb Code    18  qsql_sqlite.o(t._ZN7QVectorI8QVariantE13detach_helperEv)
    QVector<QVariant>::free(QVectorTypedData<QVariant>*) 0x0001b1db   Thumb Code    52  qsql_sqlite.o(t._ZN7QVectorI8QVariantE4freeEP16QVectorTypedDataIS0_E)
    QVector<QVariant>::clear()               0x0001b20f   Thumb Code    28  qsqlcachedresult.o(t._ZN7QVectorI8QVariantE5clearEv)
    QVector<QVariant>::append(const QVariant&) 0x0001b235   Thumb Code   184  qsqlresult.o(t._ZN7QVectorI8QVariantE6appendERKS0_)
    QVector<QVariant>::malloc(int)           0x0001b309   Thumb Code    52  qsql_sqlite.o(t._ZN7QVectorI8QVariantE6mallocEi)
    QVector<QVariant>::resize(int)           0x0001b33d   Thumb Code    82  qsql_sqlite.o(t._ZN7QVectorI8QVariantE6resizeEi)
    QVector<QVariant>::realloc(int, int)     0x0001b391   Thumb Code   626  qsqlresult.o(t._ZN7QVectorI8QVariantE7reallocEii)
    QVector<QVariant>::QVector()             0x0001b679   Thumb Code    18  qsql_sqlite.o(t._ZN7QVectorI8QVariantEC1Ev)
    QVector<QVariant>::QVector__sub_object() 0x0001b679   Thumb Code     0  qsql_sqlite.o(t._ZN7QVectorI8QVariantEC1Ev)
    QVector<QVariant>::~QVector()            0x0001b691   Thumb Code    34  qsql_sqlite.o(t._ZN7QVectorI8QVariantED1Ev)
    QVector<QVariant>::~QVector__sub_object() 0x0001b691   Thumb Code     0  qsql_sqlite.o(t._ZN7QVectorI8QVariantED1Ev)
    QVector<QVariant>::operator =(const QVector<QVariant>&) 0x0001b6b3   Thumb Code    54  qsql_sqlite.o(t._ZN7QVectorI8QVariantEaSERKS1_)
    QVector<QVariant>::operator [](int)      0x0001b6e9   Thumb Code    70  qsql_sqlite.o(t._ZN7QVectorI8QVariantEixEi)
    QVector<QRelation>::detach_helper()      0x0001b79d   Thumb Code    18  qsqlrelationaltablemodel.o(t._ZN7QVectorI9QRelationE13detach_helperEv)
    QVector<QRelation>::free(QVectorTypedData<QRelation>*) 0x0001b7af   Thumb Code    54  qsqlrelationaltablemodel.o(t._ZN7QVectorI9QRelationE4freeEP16QVectorTypedDataIS0_E)
    QVector<QRelation>::erase(QRelation*, QRelation*) 0x0001b7e5   Thumb Code   254  qsqlrelationaltablemodel.o(t._ZN7QVectorI9QRelationE5eraseEPS0_S2_)
    QVector<QRelation>::detach()             0x0001b8e3   Thumb Code    24  qsqlrelationaltablemodel.o(t._ZN7QVectorI9QRelationE6detachEv)
    QVector<QRelation>::malloc(int)          0x0001b8fb   Thumb Code    54  qsqlrelationaltablemodel.o(t._ZN7QVectorI9QRelationE6mallocEi)
    QVector<QRelation>::remove(int)          0x0001b931   Thumb Code    88  qsqlrelationaltablemodel.o(t._ZN7QVectorI9QRelationE6removeEi)
    QVector<QRelation>::resize(int)          0x0001b9f1   Thumb Code    82  qsqlrelationaltablemodel.o(t._ZN7QVectorI9QRelationE6resizeEi)
    QVector<QRelation>::realloc(int, int)    0x0001ba45   Thumb Code   488  qsqlrelationaltablemodel.o(t._ZN7QVectorI9QRelationE7reallocEii)
    QVector<QRelation>::QVector()            0x0001bc9d   Thumb Code    18  qsqlrelationaltablemodel.o(t._ZN7QVectorI9QRelationEC1Ev)
    QVector<QRelation>::QVector__sub_object() 0x0001bc9d   Thumb Code     0  qsqlrelationaltablemodel.o(t._ZN7QVectorI9QRelationEC1Ev)
    QVector<QRelation>::~QVector()           0x0001bcb5   Thumb Code    34  qsqlrelationaltablemodel.o(t._ZN7QVectorI9QRelationED1Ev)
    QVector<QRelation>::~QVector__sub_object() 0x0001bcb5   Thumb Code     0  qsqlrelationaltablemodel.o(t._ZN7QVectorI9QRelationED1Ev)
    QVector<QRelation>::operator =(const QVector<QRelation>&) 0x0001bcd7   Thumb Code    54  qsqlrelationaltablemodel.o(t._ZN7QVectorI9QRelationEaSERKS1_)
    QVector<QRelation>::operator [](int)     0x0001bd0d   Thumb Code    58  qsqlrelationaltablemodel.o(t._ZN7QVectorI9QRelationEixEi)
    QVector<QSqlField>::detach_helper()      0x0001bdb5   Thumb Code    18  qsqlrecord.o(t._ZN7QVectorI9QSqlFieldE13detach_helperEv)
    QVector<QSqlField>::free(QVectorTypedData<QSqlField>*) 0x0001bdc7   Thumb Code    54  qsqlrecord.o(t._ZN7QVectorI9QSqlFieldE4freeEP16QVectorTypedDataIS0_E)
    QVector<QSqlField>::erase(QSqlField*, QSqlField*) 0x0001bdfd   Thumb Code   216  qsqlrecord.o(t._ZN7QVectorI9QSqlFieldE5eraseEPS0_S2_)
    QVector<QSqlField>::append(const QSqlField&) 0x0001bed5   Thumb Code   188  qsqlrecord.o(t._ZN7QVectorI9QSqlFieldE6appendERKS0_)
    QVector<QSqlField>::detach()             0x0001bfad   Thumb Code    24  qsqlrecord.o(t._ZN7QVectorI9QSqlFieldE6detachEv)
    QVector<QSqlField>::insert(QSqlField*, int, const QSqlField&) 0x0001bfc5   Thumb Code   392  qsqlrecord.o(t._ZN7QVectorI9QSqlFieldE6insertEPS0_iRKS0_)
    QVector<QSqlField>::malloc(int)          0x0001c169   Thumb Code    54  qsqlrecord.o(t._ZN7QVectorI9QSqlFieldE6mallocEi)
    QVector<QSqlField>::remove(int)          0x0001c1a1   Thumb Code    88  qsqlrecord.o(t._ZN7QVectorI9QSqlFieldE6removeEi)
    QVector<QSqlField>::realloc(int, int)    0x0001c261   Thumb Code   528  qsqlrecord.o(t._ZN7QVectorI9QSqlFieldE7reallocEii)
    QVector<QSqlField>::QVector()            0x0001c4ed   Thumb Code    18  qsqlrecord.o(t._ZN7QVectorI9QSqlFieldEC1Ev)
    QVector<QSqlField>::QVector__sub_object() 0x0001c4ed   Thumb Code     0  qsqlrecord.o(t._ZN7QVectorI9QSqlFieldEC1Ev)
    QVector<QSqlField>::~QVector()           0x0001c505   Thumb Code    34  qsqlrecord.o(t._ZN7QVectorI9QSqlFieldED1Ev)
    QVector<QSqlField>::~QVector__sub_object() 0x0001c505   Thumb Code     0  qsqlrecord.o(t._ZN7QVectorI9QSqlFieldED1Ev)
    QVector<QSqlField>::operator =(const QVector<QSqlField>&) 0x0001c527   Thumb Code    54  qsqlrecord.o(t._ZN7QVectorI9QSqlFieldEaSERKS1_)
    QVector<QSqlField>::operator [](int)     0x0001c55d   Thumb Code    58  qsqlrecord.o(t._ZN7QVectorI9QSqlFieldEixEi)
    QVector<QAbstractItemModelPrivate::Change>::free(QVectorTypedData<QAbstractItemModelPrivate::Change>*) 0x0001c605   Thumb Code    58  qsqlquerymodel.o(t._ZN7QVectorIN25QAbstractItemModelPrivate6ChangeEE4freeEP16QVectorTypedDataIS1_E)
    QVector<QAbstractItemModelPrivate::Change>::~QVector() 0x0001c63f   Thumb Code    34  qsqlquerymodel.o(t._ZN7QVectorIN25QAbstractItemModelPrivate6ChangeEED1Ev)
    QVector<QAbstractItemModelPrivate::Change>::~QVector__sub_object() 0x0001c63f   Thumb Code     0  qsqlquerymodel.o(t._ZN7QVectorIN25QAbstractItemModelPrivate6ChangeEED1Ev)
    QVector<QPersistentModelIndexData*>::free(QVectorTypedData<QPersistentModelIndexData*>*) 0x0001c661   Thumb Code    24  qsqlquerymodel.o(t._ZN7QVectorIP25QPersistentModelIndexDataE4freeEP16QVectorTypedDataIS1_E)
    QVector<QVector<QPersistentModelIndexData*>>::free(QVectorTypedData<QVector<QPersistentModelIndexData*>>*) 0x0001c679   Thumb Code    76  qsqlquerymodel.o(t._ZN7QVectorIS_IP25QPersistentModelIndexDataEE4freeEP16QVectorTypedDataIS2_E)
    QVector<QVector<QPersistentModelIndexData*>>::~QVector() 0x0001c6c5   Thumb Code    34  qsqlquerymodel.o(t._ZN7QVectorIS_IP25QPersistentModelIndexDataEED1Ev)
    QVector<QVector<QPersistentModelIndexData*>>::~QVector__sub_object() 0x0001c6c5   Thumb Code     0  qsqlquerymodel.o(t._ZN7QVectorIS_IP25QPersistentModelIndexDataEED1Ev)
    QHashNode<QString, QSqlDatabase>::QHashNode(const QString&, const QSqlDatabase&) 0x0001c6e7   Thumb Code    40  qsqldatabase.o(t._ZN9QHashNodeI7QString12QSqlDatabaseEC1ERKS0_RKS1_)
    QHashNode<QString, QSqlDatabase>::QHashNode__sub_object(const QString&, const QSqlDatabase&) 0x0001c6e7   Thumb Code     0  qsqldatabase.o(t._ZN9QHashNodeI7QString12QSqlDatabaseEC1ERKS0_RKS1_)
    QHashNode<QString, QVariant>::QHashNode(const QString&, const QVariant&) 0x0001c71b   Thumb Code    40  qsqlrelationaltablemodel.o(t._ZN9QHashNodeI7QString8QVariantEC1ERKS0_RKS1_)
    QHashNode<QString, QVariant>::QHashNode__sub_object(const QString&, const QVariant&) 0x0001c71b   Thumb Code     0  qsqlrelationaltablemodel.o(t._ZN9QHashNodeI7QString8QVariantEC1ERKS0_RKS1_)
    QHashNode<QString, QSqlDriverCreatorBase*>::QHashNode(const QString&, QSqlDriverCreatorBase*const &) 0x0001c74f   Thumb Code    30  qsqldatabase.o(t._ZN9QHashNodeI7QStringP21QSqlDriverCreatorBaseEC1ERKS0_RKS2_)
    QHashNode<QString, QSqlDriverCreatorBase*>::QHashNode__sub_object(const QString&, QSqlDriverCreatorBase*const &) 0x0001c74f   Thumb Code     0  qsqldatabase.o(t._ZN9QHashNodeI7QStringP21QSqlDriverCreatorBaseEC1ERKS0_RKS2_)
    QHashNode<QString, int>::QHashNode(const QString&, const int&) 0x0001c76d   Thumb Code    30  qsqlresult.o(t._ZN9QHashNodeI7QStringiEC1ERKS0_RKi)
    QHashNode<QString, int>::QHashNode__sub_object(const QString&, const int&) 0x0001c76d   Thumb Code     0  qsqlresult.o(t._ZN9QHashNodeI7QStringiEC1ERKS0_RKi)
    QHashNode<int, QVariant>::QHashNode(int, const QVariant&) 0x0001c78b   Thumb Code    26  qsqlquerymodel.o(t._ZN9QHashNodeIi8QVariantEC1EiRKS0_)
    QHashNode<int, QVariant>::QHashNode__sub_object(int, const QVariant&) 0x0001c78b   Thumb Code     0  qsqlquerymodel.o(t._ZN9QHashNodeIi8QVariantEC1EiRKS0_)
    QScopedPointer<QObjectData, QScopedPointerDeleter<QObjectData>>::operator ->() const 0x0001c7a5   Thumb Code    30  moc_qsqldriver.o(t._ZNK14QScopedPointerI11QObjectData21QScopedPointerDeleterIS0_EEptEv)
    QStringBuilder<QLatin1String, QString>::operator QString() const 0x0001c7cd   Thumb Code   216  qsqltablemodel.o(t._ZNK14QStringBuilderI13QLatin1String7QStringEcvS1_Ev)
    QStringBuilder<QString, QLatin1Char>::operator QString() const 0x0001c8af   Thumb Code   176  qsqlrecord.o(t._ZNK14QStringBuilderI7QString11QLatin1CharEcvS0_Ev)
    QStringBuilder<QStringBuilder<QLatin1Char, QString>, QLatin1Char>::operator QString() const 0x0001c969   Thumb Code   162  qsqldriver.o(t._ZNK14QStringBuilderIS_I11QLatin1Char7QStringES0_EcvS1_Ev)
    QStringBuilder<QStringBuilder<QStringBuilder<QStringBuilder<QLatin1String, QString>, QLatin1String>, QString>, QLatin1String>::operator QString() const 0x0001ca15   Thumb Code   208  qsql_sqlite.o(t._ZNK14QStringBuilderIS_IS_IS_I13QLatin1String7QStringES0_ES1_ES0_EcvS1_Ev)
    QMap<QString, QVariant>::mutableFindNode(QMapData::Node**, const QString&) const 0x0001caef   Thumb Code   116  qsqlquery.o(t._ZNK4QMapI7QString8QVariantE15mutableFindNodeEPPN8QMapData4NodeERKS0_)
    QMap<int, QSqlTableModelPrivate::ModifiedRow>::const_iterator::operator !=(const QMap<int, QSqlTableModelPrivate::ModifiedRow>::const_iterator&) const 0x0001cb63   Thumb Code    18  qsqltablemodel.o(t._ZNK4QMapIiN21QSqlTableModelPrivate11ModifiedRowEE14const_iteratorneERKS3_)
    QMap<int, QSqlTableModelPrivate::ModifiedRow>::mutableFindNode(QMapData::Node**, const int&) const 0x0001cb75   Thumb Code   108  qsqltablemodel.o(t._ZNK4QMapIiN21QSqlTableModelPrivate11ModifiedRowEE15mutableFindNodeEPPN8QMapData4NodeERKi)
    QMap<int, QSqlTableModelPrivate::ModifiedRow>::value(const int&) const 0x0001cbe1   Thumb Code    84  qsqltablemodel.o(t._ZNK4QMapIiN21QSqlTableModelPrivate11ModifiedRowEE5valueERKi)
    QMap<int, QSqlTableModelPrivate::ModifiedRow>::isEmpty() const 0x0001cc3f   Thumb Code    18  qsqltablemodel.o(t._ZNK4QMapIiN21QSqlTableModelPrivate11ModifiedRowEE7isEmptyEv)
    QMap<int, QSqlTableModelPrivate::ModifiedRow>::findNode(const int&) const 0x0001cc51   Thumb Code   104  qsqltablemodel.o(t._ZNK4QMapIiN21QSqlTableModelPrivate11ModifiedRowEE8findNodeERKi)
    QMap<int, QSqlTableModelPrivate::ModifiedRow>::iterator::key() const 0x0001ccb9   Thumb Code    12  qsqltablemodel.o(t._ZNK4QMapIiN21QSqlTableModelPrivate11ModifiedRowEE8iterator3keyEv)
    QMap<int, QSqlTableModelPrivate::ModifiedRow>::iterator::operator ==(const QMap<int, QSqlTableModelPrivate::ModifiedRow>::iterator&) const 0x0001ccc5   Thumb Code    18  qsqltablemodel.o(t._ZNK4QMapIiN21QSqlTableModelPrivate11ModifiedRowEE8iteratoreqERKS3_)
    QMap<int, QSqlTableModelPrivate::ModifiedRow>::iterator::operator !=(const QMap<int, QSqlTableModelPrivate::ModifiedRow>::iterator&) const 0x0001ccd7   Thumb Code    18  qsqltablemodel.o(t._ZNK4QMapIiN21QSqlTableModelPrivate11ModifiedRowEE8iteratorneERKS3_)
    QHash<QString, QSqlDatabase>::keys() const 0x0001cce9   Thumb Code   108  qsqldatabase.o(t._ZNK5QHashI7QString12QSqlDatabaseE4keysEv)
    QHash<QString, QSqlDatabase>::contains(const QString&) const 0x0001cd5f   Thumb Code    32  qsqldatabase.o(t._ZNK5QHashI7QString12QSqlDatabaseE8containsERKS0_)
    QHash<QString, QSqlDatabase>::findNode(const QString&, unsigned*) const 0x0001cd81   Thumb Code   150  qsqldatabase.o(t._ZNK5QHashI7QString12QSqlDatabaseE8findNodeERKS0_Pj)
    QHash<QString, QVariant>::findNode(const QString&, unsigned*) const 0x0001ce71   Thumb Code   150  qsqlrelationaltablemodel.o(t._ZNK5QHashI7QString8QVariantE8findNodeERKS0_Pj)
    QHash<QString, QSqlDriverCreatorBase*>::const_iterator::operator !=(const QHash<QString, QSqlDriverCreatorBase*>::const_iterator&) const 0x0001cf61   Thumb Code    18  qsqldatabase.o(t._ZNK5QHashI7QStringP21QSqlDriverCreatorBaseE14const_iteratorneERKS4_)
    QHash<QString, QSqlDriverCreatorBase*>::findNode(const QString&, unsigned*) const 0x0001cf75   Thumb Code   150  qsqldatabase.o(t._ZNK5QHashI7QStringP21QSqlDriverCreatorBaseE8findNodeERKS0_Pj)
    QHash<QString, int>::key(const int&) const 0x0001d065   Thumb Code    36  qsqlresult.o(t._ZNK5QHashI7QStringiE3keyERKi)
    QHash<QString, int>::key(const int&, const QString&) const 0x0001d093   Thumb Code   120  qsqlresult.o(t._ZNK5QHashI7QStringiE3keyERKiRKS0_)
    QHash<QString, int>::value(const QString&) const 0x0001d10b   Thumb Code    40  qsqlrelationaltablemodel.o(t._ZNK5QHashI7QStringiE5valueERKS0_)
    QHash<QString, int>::value(const QString&, const int&) const 0x0001d133   Thumb Code    42  qsqlresult.o(t._ZNK5QHashI7QStringiE5valueERKS0_RKi)
    QHash<QString, int>::findNode(const QString&, unsigned*) const 0x0001d15d   Thumb Code   150  qsqlresult.o(t._ZNK5QHashI7QStringiE8findNodeERKS0_Pj)
    QHash<int, QFlags<QSql::ParamTypeFlag>>::value(const int&, const QFlags<QSql::ParamTypeFlag>&) const 0x0001d24d   Thumb Code    68  qsqlresult.o(t._ZNK5QHashIi6QFlagsIN4QSql13ParamTypeFlagEEE5valueERKiRKS3_)
    QHash<int, QFlags<QSql::ParamTypeFlag>>::isEmpty() const 0x0001d291   Thumb Code    18  qsqlresult.o(t._ZNK5QHashIi6QFlagsIN4QSql13ParamTypeFlagEEE7isEmptyEv)
    QHash<int, QFlags<QSql::ParamTypeFlag>>::findNode(const int&, unsigned*) const 0x0001d2a5   Thumb Code   128  qsqlresult.o(t._ZNK5QHashIi6QFlagsIN4QSql13ParamTypeFlagEEE8findNodeERKiPj)
    QHash<int, QVariant>::value(const int&) const 0x0001d37d   Thumb Code    58  qsqlquerymodel.o(t._ZNK5QHashIi8QVariantE5valueERKi)
    QHash<int, QVariant>::findNode(const int&, unsigned*) const 0x0001d3b9   Thumb Code   128  qsqlquerymodel.o(t._ZNK5QHashIi8QVariantE8findNodeERKiPj)
    QVector<QHash<int, QVariant>>::value(int) const 0x0001d491   Thumb Code    48  qsqlquerymodel.o(t._ZNK7QVectorI5QHashIi8QVariantEE5valueEi)
    QVector<QHolder>::at(int) const          0x0001d4c1   Thumb Code    48  qsqlresult.o(t._ZNK7QVectorI7QHolderE2atEi)
    QVector<QVariant>::at(int) const         0x0001d555   Thumb Code    48  qsqlresult.o(t._ZNK7QVectorI8QVariantE2atEi)
    QVector<QVariant>::value(int) const      0x0001d5e9   Thumb Code    48  qsqlresult.o(t._ZNK7QVectorI8QVariantE5valueEi)
    QVector<QRelation>::value(int) const     0x0001d619   Thumb Code    50  qsqlrelationaltablemodel.o(t._ZNK7QVectorI9QRelationE5valueEi)
    QVector<QRelation>::value(int, const QRelation&) const 0x0001d64b   Thumb Code    48  qsqlrelationaltablemodel.o(t._ZNK7QVectorI9QRelationE5valueEiRKS0_)
    QVector<QSqlField>::at(int) const        0x0001d67d   Thumb Code    50  qsqlrecord.o(t._ZNK7QVectorI9QSqlFieldE2atEi)
    QVector<QSqlField>::value(int) const     0x0001d715   Thumb Code    68  qsqlrecord.o(t._ZNK7QVectorI9QSqlFieldE5valueEi)
    QVector<QSqlField>::operator ==(const QVector<QSqlField>&) const 0x0001d763   Thumb Code   108  qsqlrecord.o(t._ZNK7QVectorI9QSqlFieldEeqERKS1_)
    operator +<QLatin1Char, QString>(const T1&, const T2&) 0x0001d7cf   Thumb Code    18  qsqldriver.o(t._ZplI11QLatin1Char7QStringE14QStringBuilderIN13QConcatenableIT_E4typeENS3_IT0_E4typeEERKS4_RKS7_)
    operator +<QLatin1String, QString>(const T1&, const T2&) 0x0001d7e1   Thumb Code    18  qsql_sqlite.o(t._ZplI13QLatin1String7QStringE14QStringBuilderIN13QConcatenableIT_E4typeENS3_IT0_E4typeEERKS4_RKS7_)
    operator +<QStringBuilder<QLatin1Char, QString>, QLatin1Char>(const T1&, const T2&) 0x0001d7f3   Thumb Code    18  qsqldriver.o(t._ZplI14QStringBuilderI11QLatin1Char7QStringES1_ES0_IN13QConcatenableIT_E4typeENS4_IT0_E4typeEERKS5_RKS8_)
    operator +<QStringBuilder<QLatin1String, QString>, QLatin1String>(const T1&, const T2&) 0x0001d805   Thumb Code    18  qsql_sqlite.o(t._ZplI14QStringBuilderI13QLatin1String7QStringES1_ES0_IN13QConcatenableIT_E4typeENS4_IT0_E4typeEERKS5_RKS8_)
    operator +<QStringBuilder<QStringBuilder<QLatin1String, QString>, QLatin1String>, QString>(const T1&, const T2&) 0x0001d817   Thumb Code    18  qsql_sqlite.o(t._ZplI14QStringBuilderIS0_I13QLatin1String7QStringES1_ES2_ES0_IN13QConcatenableIT_E4typeENS5_IT0_E4typeEERKS6_RKS9_)
    operator +<QStringBuilder<QStringBuilder<QStringBuilder<QLatin1String, QString>, QLatin1String>, QString>, QLatin1String>(const T1&, const T2&) 0x0001d829   Thumb Code    18  qsql_sqlite.o(t._ZplI14QStringBuilderIS0_IS0_I13QLatin1String7QStringES1_ES2_ES1_ES0_IN13QConcatenableIT_E4typeENS6_IT0_E4typeEERKS7_RKSA_)
    operator +<QString, QLatin1Char>(const T1&, const T2&) 0x0001d83b   Thumb Code    18  qsqlrecord.o(t._ZplI7QString11QLatin1CharE14QStringBuilderIN13QConcatenableIT_E4typeENS3_IT0_E4typeEERKS4_RKS7_)
    QSqlDriver::staticMetaObject             0x00020dbc   Data          16  moc_qsqldriver.o(.constdata)
    QSqlDriverPlugin::staticMetaObject       0x00020e60   Data          16  moc_qsqldriverplugin.o(.constdata)
    QSQLiteDriver::staticMetaObject          0x00020f00   Data          16  moc_qsql_sqlite.o(.constdata)
    QSqlQueryModel::staticMetaObject         0x00020fa0   Data          16  moc_qsqlquerymodel.o(.constdata)
    QSqlTableModel::staticMetaObject         0x00021190   Data          16  moc_qsqltablemodel.o(.constdata)
    QSqlRelationalTableModel::staticMetaObject 0x00021264   Data          16  moc_qsqlrelationaltablemodel.o(.constdata)
    stlp_priv::_Integer_limits<signed char, (signed char)-128, (signed char)127, (int)-1, (bool)1>::digits 0x000212b8   Data           4  qsql_sqlite.o(.constdata__ZN9stlp_priv15_Integer_limitsIaLan128ELa127ELin1ELb1EE6digitsE)
    stlp_priv::_Integer_limits<bool, (bool)0, (bool)1, (int)1, (bool)0>::digits 0x000212bc   Data           4  qsql_sqlite.o(.constdata__ZN9stlp_priv15_Integer_limitsIbLb0ELb1ELi1ELb0EE6digitsE)
    stlp_priv::_Integer_limits<char, (char)128, (char)127, (int)-1, (bool)1>::digits 0x000212c0   Data           4  qsql_sqlite.o(.constdata__ZN9stlp_priv15_Integer_limitsIcLc128ELc127ELin1ELb1EE6digitsE)
    stlp_priv::_Integer_limits<unsigned char, (unsigned char)0, (unsigned char)255, (int)-1, (bool)1>::digits 0x000212c4   Data           4  qsql_sqlite.o(.constdata__ZN9stlp_priv15_Integer_limitsIhLh0ELh255ELin1ELb1EE6digitsE)
    stlp_priv::_Integer_limits<int, (int)-2147483648, (int)2147483647, (int)-1, (bool)1>::digits 0x000212c8   Data           4  qsql_sqlite.o(.constdata__ZN9stlp_priv15_Integer_limitsIiLin2147483648ELi2147483647ELin1ELb1EE6digitsE)
    stlp_priv::_Integer_limits<int, (int)-2147483648, (int)2147483647, (int)-1, (bool)1>::is_signed 0x000212cc   Data           1  qsql_sqlite.o(.constdata__ZN9stlp_priv15_Integer_limitsIiLin2147483648ELi2147483647ELin1ELb1EE9is_signedE)
    stlp_priv::_Integer_limits<unsigned, (unsigned)0, (unsigned)4294967295, (int)-1, (bool)1>::digits 0x000212d0   Data           4  qsql_sqlite.o(.constdata__ZN9stlp_priv15_Integer_limitsIjLj0ELj4294967295ELin1ELb1EE6digitsE)
    stlp_priv::_Integer_limits<long, (long)-2147483648, (long)2147483647, (int)-1, (bool)1>::digits 0x000212d4   Data           4  qsql_sqlite.o(.constdata__ZN9stlp_priv15_Integer_limitsIlLln2147483648ELl2147483647ELin1ELb1EE6digitsE)
    stlp_priv::_Integer_limits<unsigned long, (unsigned long)0, (unsigned long)4294967295, (int)-1, (bool)1>::digits 0x000212d8   Data           4  qsql_sqlite.o(.constdata__ZN9stlp_priv15_Integer_limitsImLm0ELm4294967295ELin1ELb1EE6digitsE)
    stlp_priv::_Integer_limits<short, (short)-32768, (short)32767, (int)-1, (bool)1>::digits 0x000212dc   Data           4  qsql_sqlite.o(.constdata__ZN9stlp_priv15_Integer_limitsIsLsn32768ELs32767ELin1ELb1EE6digitsE)
    stlp_priv::_Integer_limits<unsigned short, (unsigned short)0, (unsigned short)65535, (int)-1, (bool)1>::digits 0x000212e0   Data           4  qsql_sqlite.o(.constdata__ZN9stlp_priv15_Integer_limitsItLt0ELt65535ELin1ELb1EE6digitsE)
    stlp_priv::_Integer_limits<wchar_t, (wchar_t)0, (wchar_t)65535, (int)-1, (bool)1>::digits 0x000212e4   Data           4  qsql_sqlite.o(.constdata__ZN9stlp_priv15_Integer_limitsIwLw0ELw65535ELin1ELb1EE6digitsE)
    stlp_priv::_Integer_limits<long long, (long long)-9223372036854775808, (long long)9223372036854775807, (int)-1, (bool)1>::digits 0x000212e8   Data           4  qsql_sqlite.o(.constdata__ZN9stlp_priv15_Integer_limitsIxLxn9223372036854775808ELx9223372036854775807ELin1ELb1EE6digitsE)
    stlp_priv::_Integer_limits<unsigned long long, (unsigned long long)0, (unsigned long long)18446744073709551615, (int)-1, (bool)1>::digits 0x000212ec   Data           4  qsql_sqlite.o(.constdata__ZN9stlp_priv15_Integer_limitsIyLy0ELy18446744073709551615ELin1ELb1EE6digitsE)
    typeinfo for QSqlDriver                  0x000212f0   Data          12  moc_qsqldriver.o(.constdata__ZTI10QSqlDriver)
    typeinfo for QSqlResult                  0x000212fc   Data           8  qsqlresult.o(.constdata__ZTI10QSqlResult)
    typeinfo for QSQLiteDriver               0x00021304   Data          12  moc_qsql_sqlite.o(.constdata__ZTI13QSQLiteDriver)
    typeinfo for QSQLiteResult               0x00021310   Data          12  qsql_sqlite.o(.constdata__ZTI13QSQLiteResult)
    typeinfo for QSqlNullDriver              0x0002131c   Data          12  qsqlquery.o(.constdata__ZTI14QSqlNullDriver)
    typeinfo for QSqlNullResult              0x00021328   Data          12  qsqlquery.o(.constdata__ZTI14QSqlNullResult)
    typeinfo for QSqlQueryModel              0x00021334   Data          12  moc_qsqlquerymodel.o(.constdata__ZTI14QSqlQueryModel)
    typeinfo for QSqlTableModel              0x00021340   Data          12  moc_qsqltablemodel.o(.constdata__ZTI14QSqlTableModel)
    typeinfo for QSqlCachedResult            0x0002134c   Data          12  qsqlcachedresult.o(.constdata__ZTI16QSqlCachedResult)
    typeinfo for QSqlDriverPlugin            0x00021358   Data          32  moc_qsqldriverplugin.o(.constdata__ZTI16QSqlDriverPlugin)
    typeinfo for QFactoryInterface           0x00021378   Data           8  qsqldriverplugin.o(.constdata__ZTI17QFactoryInterface)
    typeinfo for QSqlDriverPrivate           0x00021380   Data          12  qsqldriver.o(.constdata__ZTI17QSqlDriverPrivate)
    typeinfo for QSqlQueryModelPrivate       0x0002138c   Data          12  qsqlquerymodel.o(.constdata__ZTI21QSqlQueryModelPrivate)
    typeinfo for QSqlTableModelPrivate       0x00021398   Data          12  qsqltablemodel.o(.constdata__ZTI21QSqlTableModelPrivate)
    typeinfo for QSqlRelationalTableModel    0x000213a4   Data          12  moc_qsqlrelationaltablemodel.o(.constdata__ZTI24QSqlRelationalTableModel)
    typeinfo for QAbstractItemModelPrivate   0x000213b0   Data          12  qsqlquerymodel.o(.constdata__ZTI25QAbstractItemModelPrivate)
    typeinfo for QSqlDriverFactoryInterface  0x000213bc   Data          12  qsqldriverplugin.o(.constdata__ZTI26QSqlDriverFactoryInterface)
    typeinfo for QSqlRelationalTableModelPrivate 0x000213c8   Data          12  qsqlrelationaltablemodel.o(.constdata__ZTI31QSqlRelationalTableModelPrivate)
    typeinfo for QtSharedPointer::ExternalRefCountData 0x000213d4   Data           8  qsqldriver.o(.constdata__ZTIN15QtSharedPointer20ExternalRefCountDataE)
    typeinfo name for QSqlDriver             0x000213dc   Data          13  moc_qsqldriver.o(.constdata__ZTS10QSqlDriver)
    typeinfo name for QSqlResult             0x000213e9   Data          13  qsqlresult.o(.constdata__ZTS10QSqlResult)
    typeinfo name for QSQLiteDriver          0x000213f6   Data          16  moc_qsql_sqlite.o(.constdata__ZTS13QSQLiteDriver)
    typeinfo name for QSQLiteResult          0x00021406   Data          16  qsql_sqlite.o(.constdata__ZTS13QSQLiteResult)
    typeinfo name for QSqlNullDriver         0x00021416   Data          17  qsqlquery.o(.constdata__ZTS14QSqlNullDriver)
    typeinfo name for QSqlNullResult         0x00021427   Data          17  qsqlquery.o(.constdata__ZTS14QSqlNullResult)
    typeinfo name for QSqlQueryModel         0x00021438   Data          17  moc_qsqlquerymodel.o(.constdata__ZTS14QSqlQueryModel)
    typeinfo name for QSqlTableModel         0x00021449   Data          17  moc_qsqltablemodel.o(.constdata__ZTS14QSqlTableModel)
    typeinfo name for QSqlCachedResult       0x0002145a   Data          19  qsqlcachedresult.o(.constdata__ZTS16QSqlCachedResult)
    typeinfo name for QSqlDriverPlugin       0x0002146d   Data          19  moc_qsqldriverplugin.o(.constdata__ZTS16QSqlDriverPlugin)
    typeinfo name for QFactoryInterface      0x00021480   Data          20  qsqldriverplugin.o(.constdata__ZTS17QFactoryInterface)
    typeinfo name for QSqlDriverPrivate      0x00021494   Data          20  qsqldriver.o(.constdata__ZTS17QSqlDriverPrivate)
    typeinfo name for QSqlQueryModelPrivate  0x000214a8   Data          24  qsqlquerymodel.o(.constdata__ZTS21QSqlQueryModelPrivate)
    typeinfo name for QSqlTableModelPrivate  0x000214c0   Data          24  qsqltablemodel.o(.constdata__ZTS21QSqlTableModelPrivate)
    typeinfo name for QSqlRelationalTableModel 0x000214d8   Data          27  moc_qsqlrelationaltablemodel.o(.constdata__ZTS24QSqlRelationalTableModel)
    typeinfo name for QAbstractItemModelPrivate 0x000214f3   Data          28  qsqlquerymodel.o(.constdata__ZTS25QAbstractItemModelPrivate)
    typeinfo name for QSqlDriverFactoryInterface 0x0002150f   Data          29  qsqldriverplugin.o(.constdata__ZTS26QSqlDriverFactoryInterface)
    typeinfo name for QSqlRelationalTableModelPrivate 0x0002152c   Data          34  qsqlrelationaltablemodel.o(.constdata__ZTS31QSqlRelationalTableModelPrivate)
    typeinfo name for QtSharedPointer::ExternalRefCountData 0x0002154e   Data          42  qsqldriver.o(.constdata__ZTSN15QtSharedPointer20ExternalRefCountDataE)
    vtable for QSqlDriver                    0x00021578   Data         128  moc_qsqldriver.o(.constdata__ZTV10QSqlDriver)
    vtable for QSqlResult                    0x000215f8   Data         116  qsqlresult.o(.constdata__ZTV10QSqlResult)
    vtable for QSQLiteDriver                 0x0002166c   Data         128  moc_qsql_sqlite.o(.constdata__ZTV13QSQLiteDriver)
    vtable for QSQLiteResult                 0x000216ec   Data         120  qsql_sqlite.o(.constdata__ZTV13QSQLiteResult)
    vtable for QSqlNullDriver                0x00021764   Data         128  qsqlquery.o(.constdata__ZTV14QSqlNullDriver)
    vtable for QSqlNullResult                0x000217e4   Data         116  qsqlquery.o(.constdata__ZTV14QSqlNullResult)
    vtable for QSqlQueryModel                0x00021858   Data         176  moc_qsqlquerymodel.o(.constdata__ZTV14QSqlQueryModel)
    vtable for QSqlTableModel                0x00021908   Data         220  moc_qsqltablemodel.o(.constdata__ZTV14QSqlTableModel)
    vtable for QSqlCachedResult              0x000219e4   Data         120  qsqlcachedresult.o(.constdata__ZTV16QSqlCachedResult)
    vtable for QSqlDriverPlugin              0x00021a5c   Data          88  moc_qsqldriverplugin.o(.constdata__ZTV16QSqlDriverPlugin)
    vtable for QFactoryInterface             0x00021ab4   Data          20  qsqldriverplugin.o(.constdata__ZTV17QFactoryInterface)
    vtable for QSqlDriverPrivate             0x00021ac8   Data          16  qsqldriver.o(.constdata__ZTV17QSqlDriverPrivate)
    vtable for QSqlQueryModelPrivate         0x00021ad8   Data          16  qsqlquerymodel.o(.constdata__ZTV21QSqlQueryModelPrivate)
    vtable for QSqlTableModelPrivate         0x00021ae8   Data          32  qsqltablemodel.o(.constdata__ZTV21QSqlTableModelPrivate)
    vtable for QSqlRelationalTableModel      0x00021b08   Data         228  moc_qsqlrelationaltablemodel.o(.constdata__ZTV24QSqlRelationalTableModel)
    vtable for QAbstractItemModelPrivate     0x00021bec   Data          16  qsqlquerymodel.o(.constdata__ZTV25QAbstractItemModelPrivate)
    vtable for QSqlDriverFactoryInterface    0x00021bfc   Data          24  qsqldriverplugin.o(.constdata__ZTV26QSqlDriverFactoryInterface)
    vtable for QSqlRelationalTableModelPrivate 0x00021c14   Data          32  qsqlrelationaltablemodel.o(.constdata__ZTV31QSqlRelationalTableModelPrivate)
    vtable for QtSharedPointer::ExternalRefCountData 0x00021c34   Data          20  qsqldriver.o(.constdata__ZTVN15QtSharedPointer20ExternalRefCountDataE)
    .ARM.exidx$$Base                         0x00021c64   Number         0  ucppinit.o(.ARM.exidx)
    .ARM.exidx$$Limit                        0x00023244   Number         0  qsqldriver.o(.ARM.exidx)
    Image$$ER_RO$$Limit                      0x00023244   Number         0  anon$$obj.o(linker$$defined$$symbols)
    QSqlDatabase::defaultConnection          0x00400044   Data           4  qsqldatabase.o(.data)
    __dso_handle                             0x00400070   Data           4  ucppfini.o(.data)
    std::_Atomic_swap_struct<(int)1>::_S_swap_lock 0x00400074   Data          12  qsql_sqlite.o(.data__ZNSt19_Atomic_swap_structILi1EE12_S_swap_lockE)
    QMetaTypeId<sqlite3_stmt*>::qt_metatype_id()::metatype_id 0x00400080   Data           4  qsql_sqlite.o(.data__ZZN11QMetaTypeIdIP12sqlite3_stmtE14qt_metatype_idEvE11metatype_id)
    QMetaTypeId<sqlite3*>::qt_metatype_id()::metatype_id 0x00400084   Data           4  qsql_sqlite.o(.data__ZZN11QMetaTypeIdIP7sqlite3E14qt_metatype_idEvE11metatype_id)
    dtor_rec                                 0x004000b8   Data        2048  ucppfini.o(.bss)

