ARM Linker, RVCT2.2 [Build 686]

================================================================================

Image Symbol Table

    Local Symbols

    Symbol Name                              Value     Ov Type        Size  Object(Section)

    ../../unhosted.s                         0x00000000   Number         0  switch8.o ABSOLUTE
    M:\\epoc32\\build\\euser\\c_e18a23aea4fd210f\\edll_lib\\armv5\\udeb\\uc_dll_.cpp 0x00000000   Number         0  uc_dll_.o ABSOLUTE
    M:\\sf\\os\\kernelhwsrv\\kernel\\eka\\compsupp\\rvct\\ucppinit.cpp 0x00000000   Number         0  ucppinit.o ABSOLUTE
    M:\epoc32\build\euser\c_e18a23aea4fd210f\edll_lib\armv5\udeb\uc_dll_.cpp 0x00000000   Number         0  uc_dll_.o ABSOLUTE
    M:\sf\os\kernelhwsrv\kernel\eka\compsupp\rvct\dllexp.cpp 0x00000000   Number         0  dllexp.o ABSOLUTE
    M:\sf\os\kernelhwsrv\kernel\eka\compsupp\rvct\ucppinit.cpp 0x00000000   Number         0  ucppinit.o ABSOLUTE
    M:\sf\os\kernelhwsrv\kernel\eka\euser\epoc\arm\uc_dll.cpp 0x00000000   Number         0  uc_dll.o ABSOLUTE
    S:\sf\mw\qt\src\svg\qgraphicssvgitem.cpp 0x00000000   Number         0  qgraphicssvgitem.o ABSOLUTE
    S:\sf\mw\qt\src\svg\qsvgfont.cpp         0x00000000   Number         0  qsvgfont.o ABSOLUTE
    S:\sf\mw\qt\src\svg\qsvggenerator.cpp    0x00000000   Number         0  qsvggenerator.o ABSOLUTE
    S:\sf\mw\qt\src\svg\qsvggraphics.cpp     0x00000000   Number         0  qsvggraphics.o ABSOLUTE
    S:\sf\mw\qt\src\svg\qsvghandler.cpp      0x00000000   Number         0  qsvghandler.o ABSOLUTE
    S:\sf\mw\qt\src\svg\qsvgnode.cpp         0x00000000   Number         0  qsvgnode.o ABSOLUTE
    S:\sf\mw\qt\src\svg\qsvgrenderer.cpp     0x00000000   Number         0  qsvgrenderer.o ABSOLUTE
    S:\sf\mw\qt\src\svg\qsvgstructure.cpp    0x00000000   Number         0  qsvgstructure.o ABSOLUTE
    S:\sf\mw\qt\src\svg\qsvgstyle.cpp        0x00000000   Number         0  qsvgstyle.o ABSOLUTE
    S:\sf\mw\qt\src\svg\qsvgtinydocument.cpp 0x00000000   Number         0  qsvgtinydocument.o ABSOLUTE
    S:\sf\mw\qt\src\svg\qsvgwidget.cpp       0x00000000   Number         0  qsvgwidget.o ABSOLUTE
    S:\sf\mw\qt\src\svg\tmp\moc\debug_shared\moc_qsvgwidget.cpp 0x00000000   Number         0  moc_qsvgwidget.o ABSOLUTE
    .emb_text                                0x00008000   Section       40  uc_dll_.o(.emb_text)
    Symbian$$eit_base                        0x00008014   Data           4  uc_dll_.o(.emb_text)
    Symbian$$eit_limit                       0x00008018   Data           4  uc_dll_.o(.emb_text)
    Symbian$$code_seg_base                   0x0000801c   Data           4  uc_dll_.o(.emb_text)
    Symbian$$code_seg_limit                  0x00008020   Data           4  uc_dll_.o(.emb_text)
    Symbian$$reserved                        0x00008024   Data           4  uc_dll_.o(.emb_text)
    .emb_text                                0x00008028   Section       52  ucppinit.o(.emb_text)
    loop                                     0x0000803c   ARM Code       0  ucppinit.o(.emb_text)
    ret                                      0x00008044   ARM Code       0  ucppinit.o(.emb_text)
    base                                     0x00008054   Data           0  ucppinit.o(.emb_text)
    limit                                    0x00008058   Data           0  ucppinit.o(.emb_text)
    qFuzzyIsNull(float)                      0x00008df5   Thumb Code    44  qsvggraphics.o(.text)
    .text                                    0x00008df4   Section     6804  qsvggraphics.o(.text)
    boundsOnStroke(QPainter*, const QPainterPath&, float) 0x00008e21   Thumb Code    98  qsvggraphics.o(.text)
    qIsNull(float)                           0x0000a857   Thumb Code    20  qsvggraphics.o(.text)
    .text                                    0x0000a888   Section    40560  qsvghandler.o(.text)
    someId(const QXmlStreamAttributes&)      0x0000a9b3   Thumb Code    94  qsvghandler.o(.text)
    toDouble(const QChar*&)                  0x0000aa11   Thumb Code   698  qsvghandler.o(.text)
    toDouble(const QString&, bool*)          0x0000accb   Thumb Code    68  qsvghandler.o(.text)
    toDouble(const QStringRef&, bool*)       0x0000ad0f   Thumb Code    56  qsvghandler.o(.text)
    parseNumbersList(const QChar*&)          0x0000ad47   Thumb Code   276  qsvghandler.o(.text)
    |L1.1320|                                0x0000adb0   Data           0  qsvghandler.o(.text)
    parseNumbersArray(const QChar*&, QVarLengthArray<float, (int)8>&) 0x0000ae5b   Thumb Code   238  qsvghandler.o(.text)
    parsePercentageList(const QChar*&)       0x0000af49   Thumb Code   402  qsvghandler.o(.text)
    idFromUrl(const QString&)                0x0000b0db   Thumb Code   164  qsvghandler.o(.text)
    trimRef(const QStringRef&)               0x0000b17f   Thumb Code   200  qsvghandler.o(.text)
    resolveColor(const QStringRef&, QColor&, QSvgHandler*) 0x0000b2ab   Thumb Code   584  qsvghandler.o(.text)
    constructColor(const QStringRef&, const QStringRef&, QColor&, QSvgHandler*) 0x0000b4f3   Thumb Code   108  qsvghandler.o(.text)
    parseLength(const QString&, QSvgHandler::LengthType&, QSvgHandler*, bool*) 0x0000b565   Thumb Code   454  qsvghandler.o(.text)
    |L1.3468|                                0x0000b614   Data           0  qsvghandler.o(.text)
    |L1.3528|                                0x0000b650   Data           0  qsvghandler.o(.text)
    convertToNumber(const QString&, QSvgHandler*, bool*) 0x0000b72b   Thumb Code    66  qsvghandler.o(.text)
    pathArcSegment(QPainterPath&, float, float, float, float, float, float, float) 0x0000b76d   Thumb Code   690  qsvghandler.o(.text)
    pathArc(QPainterPath&, float, float, float, int, int, float, float, float, float) 0x0000ba1f   Thumb Code  1250  qsvghandler.o(.text)
    |L1.4632|                                0x0000baa0   Data           0  qsvghandler.o(.text)
    |L1.5676|                                0x0000beb4   Data           0  qsvghandler.o(.text)
    parsePathDataFast(const QStringRef&, QPainterPath&) 0x0000bf01   Thumb Code  2512  qsvghandler.o(.text)
    createSvgGlyph(QSvgFont*, const QXmlStreamAttributes&) 0x0000c8d1   Thumb Code   168  qsvghandler.o(.text)
    convertToPixels(float, bool, QSvgHandler::LengthType) 0x0000c979   Thumb Code   154  qsvghandler.o(.text)
    parseColor(QSvgNode*, const QSvgAttributes&, QSvgHandler*) 0x0000caaf   Thumb Code    50  qsvghandler.o(.text)
    styleFromUrl(QSvgNode*, const QString&)  0x0000cae1   Thumb Code    54  qsvghandler.o(.text)
    parseBrush(QSvgNode*, const QSvgAttributes&, QSvgHandler*) 0x0000cb17   Thumb Code   734  qsvghandler.o(.text)
    |L1.9292|                                0x0000ccd4   Data           0  qsvghandler.o(.text)
    |L1.9368|                                0x0000cd20   Data           0  qsvghandler.o(.text)
    parseTransformationMatrix(const QStringRef&) 0x0000cdf5   Thumb Code  1522  qsvghandler.o(.text)
    |L1.10468|                               0x0000d16c   Data           0  qsvghandler.o(.text)
    parsePen(QSvgNode*, const QSvgAttributes&, QSvgHandler*) 0x0000d3e7   Thumb Code  1436  qsvghandler.o(.text)
    parseFont(QSvgNode*, const QSvgAttributes&, QSvgHandler*) 0x0000d983   Thumb Code  1348  qsvghandler.o(.text)
    parseTransform(QSvgNode*, const QSvgAttributes&, QSvgHandler*) 0x0000dec7   Thumb Code   102  qsvghandler.o(.text)
    parseVisibility(QSvgNode*, const QSvgAttributes&, QSvgHandler*) 0x0000df2d   Thumb Code   260  qsvghandler.o(.text)
    parseCSStoXMLAttrs(const QVector<QCss::Declaration>&, QXmlStreamAttributes&) 0x0000e031   Thumb Code   640  qsvghandler.o(.text)
    |L1.15288|                               0x0000e440   Data           0  qsvghandler.o(.text)
    |L1.15352|                               0x0000e480   Data           0  qsvghandler.o(.text)
    |L1.15396|                               0x0000e4ac   Data           0  qsvghandler.o(.text)
    |L1.17012|                               0x0000eafc   Data           0  qsvghandler.o(.text)
    |L1.17028|                               0x0000eb0c   Data           0  qsvghandler.o(.text)
    |L1.17044|                               0x0000eb1c   Data           0  qsvghandler.o(.text)
    |L1.17052|                               0x0000eb24   Data           0  qsvghandler.o(.text)
    |L1.17068|                               0x0000eb34   Data           0  qsvghandler.o(.text)
    |L1.17076|                               0x0000eb3c   Data           0  qsvghandler.o(.text)
    |L1.17084|                               0x0000eb44   Data           0  qsvghandler.o(.text)
    |L1.17092|                               0x0000eb4c   Data           0  qsvghandler.o(.text)
    |L1.17104|                               0x0000eb58   Data           0  qsvghandler.o(.text)
    |L1.17108|                               0x0000eb5c   Data           0  qsvghandler.o(.text)
    |L1.17120|                               0x0000eb68   Data           0  qsvghandler.o(.text)
    |L1.17132|                               0x0000eb74   Data           0  qsvghandler.o(.text)
    |L1.17144|                               0x0000eb80   Data           0  qsvghandler.o(.text)
    |L1.17156|                               0x0000eb8c   Data           0  qsvghandler.o(.text)
    |L1.17168|                               0x0000eb98   Data           0  qsvghandler.o(.text)
    |L1.17184|                               0x0000eba8   Data           0  qsvghandler.o(.text)
    |L1.17192|                               0x0000ebb0   Data           0  qsvghandler.o(.text)
    |L1.17200|                               0x0000ebb8   Data           0  qsvghandler.o(.text)
    |L1.17208|                               0x0000ebc0   Data           0  qsvghandler.o(.text)
    |L1.17220|                               0x0000ebcc   Data           0  qsvghandler.o(.text)
    |L1.17232|                               0x0000ebd8   Data           0  qsvghandler.o(.text)
    |L1.17244|                               0x0000ebe4   Data           0  qsvghandler.o(.text)
    |L1.17256|                               0x0000ebf0   Data           0  qsvghandler.o(.text)
    |L1.18264|                               0x0000efe0   Data           0  qsvghandler.o(.text)
    |L1.18272|                               0x0000efe8   Data           0  qsvghandler.o(.text)
    |L1.18284|                               0x0000eff4   Data           0  qsvghandler.o(.text)
    |L1.18288|                               0x0000eff8   Data           0  qsvghandler.o(.text)
    |L1.18300|                               0x0000f004   Data           0  qsvghandler.o(.text)
    |L1.18312|                               0x0000f010   Data           0  qsvghandler.o(.text)
    |L1.18324|                               0x0000f01c   Data           0  qsvghandler.o(.text)
    |L1.18340|                               0x0000f02c   Data           0  qsvghandler.o(.text)
    displayStringToEnum(const QString&)      0x0000f2bd   Thumb Code   702  qsvghandler.o(.text)
    parseOthers(QSvgNode*, const QSvgAttributes&, QSvgHandler*) 0x0000f57b   Thumb Code    84  qsvghandler.o(.text)
    svgToQtCompositionMode(const QString&)   0x0000f5cf   Thumb Code   890  qsvghandler.o(.text)
    parseCompOp(QSvgNode*, const QSvgAttributes&, QSvgHandler*) 0x0000f949   Thumb Code   114  qsvghandler.o(.text)
    parseOpacity(QSvgNode*, const QSvgAttributes&, QSvgHandler*) 0x0000f9bb   Thumb Code   162  qsvghandler.o(.text)
    parseStyle(QSvgNode*, const QSvgAttributes&, QSvgHandler*) 0x0000fa5d   Thumb Code   102  qsvghandler.o(.text)
    parseStyle(QSvgNode*, const QXmlStreamAttributes&, QSvgHandler*) 0x0000fac3   Thumb Code    46  qsvghandler.o(.text)
    cssStyleLookup(QSvgNode*, QSvgHandler*, QSvgStyleSelector*) 0x0000faf1   Thumb Code    68  qsvghandler.o(.text)
    parseCoreNode(QSvgNode*, const QXmlStreamAttributes&) 0x0000fb35   Thumb Code   610  qsvghandler.o(.text)
    parseAnchorNode(QSvgNode*, const QXmlStreamAttributes&, QSvgHandler*) 0x0000fd97   Thumb Code    14  qsvghandler.o(.text)
    parseAnimateNode(QSvgNode*, const QXmlStreamAttributes&, QSvgHandler*) 0x0000fda5   Thumb Code    14  qsvghandler.o(.text)
    parseAnimateColorNode(QSvgNode*, const QXmlStreamAttributes&, QSvgHandler*) 0x0000fdd1   Thumb Code  1192  qsvghandler.o(.text)
    |L1.22136|                               0x0000ff00   Data           0  qsvghandler.o(.text)
    |L1.22232|                               0x0000ff60   Data           0  qsvghandler.o(.text)
    |L1.22240|                               0x0000ff68   Data           0  qsvghandler.o(.text)
    |L1.22252|                               0x0000ff74   Data           0  qsvghandler.o(.text)
    |L1.22260|                               0x0000ff7c   Data           0  qsvghandler.o(.text)
    |L1.22268|                               0x0000ff84   Data           0  qsvghandler.o(.text)
    |L1.22272|                               0x0000ff88   Data           0  qsvghandler.o(.text)
    |L1.22288|                               0x0000ff98   Data           0  qsvghandler.o(.text)
    parseAimateMotionNode(QSvgNode*, const QXmlStreamAttributes&, QSvgHandler*) 0x00010279   Thumb Code    14  qsvghandler.o(.text)
    parseNumberTriplet(QVector<float>&, const QChar*&) 0x00010287   Thumb Code    64  qsvghandler.o(.text)
    parseAnimateTransformNode(QSvgNode*, const QXmlStreamAttributes&, QSvgHandler*) 0x000102c7   Thumb Code  1648  qsvghandler.o(.text)
    |L1.23544|                               0x00010480   Data           0  qsvghandler.o(.text)
    |L1.23552|                               0x00010488   Data           0  qsvghandler.o(.text)
    createAnimationNode(QSvgNode*, const QXmlStreamAttributes&, QSvgHandler*) 0x00010937   Thumb Code    14  qsvghandler.o(.text)
    parseAudioNode(QSvgNode*, const QXmlStreamAttributes&, QSvgHandler*) 0x00010945   Thumb Code    14  qsvghandler.o(.text)
    createCircleNode(QSvgNode*, const QXmlStreamAttributes&, QSvgHandler*) 0x00010953   Thumb Code   334  qsvghandler.o(.text)
    createDefsNode(QSvgNode*, const QXmlStreamAttributes&, QSvgHandler*) 0x00010aa1   Thumb Code    52  qsvghandler.o(.text)
    parseDescNode(QSvgNode*, const QXmlStreamAttributes&, QSvgHandler*) 0x00010ad5   Thumb Code    14  qsvghandler.o(.text)
    parseDiscardNode(QSvgNode*, const QXmlStreamAttributes&, QSvgHandler*) 0x00010ae3   Thumb Code    14  qsvghandler.o(.text)
    createEllipseNode(QSvgNode*, const QXmlStreamAttributes&, QSvgHandler*) 0x00010af1   Thumb Code   286  qsvghandler.o(.text)
    createFontNode(QSvgNode*, const QXmlStreamAttributes&, QSvgHandler*) 0x00010c0f   Thumb Code   280  qsvghandler.o(.text)
    parseFontFaceNode(QSvgStyleProperty*, const QXmlStreamAttributes&, QSvgHandler*) 0x00010d27   Thumb Code   248  qsvghandler.o(.text)
    parseFontFaceNameNode(QSvgStyleProperty*, const QXmlStreamAttributes&, QSvgHandler*) 0x00010e1f   Thumb Code   230  qsvghandler.o(.text)
    parseFontFaceSrcNode(QSvgStyleProperty*, const QXmlStreamAttributes&, QSvgHandler*) 0x00010f05   Thumb Code    14  qsvghandler.o(.text)
    parseFontFaceUriNode(QSvgStyleProperty*, const QXmlStreamAttributes&, QSvgHandler*) 0x00010f13   Thumb Code    14  qsvghandler.o(.text)
    parseForeignObjectNode(QSvgNode*, const QXmlStreamAttributes&, QSvgHandler*) 0x00010f21   Thumb Code    14  qsvghandler.o(.text)
    createGNode(QSvgNode*, const QXmlStreamAttributes&, QSvgHandler*) 0x00010f2f   Thumb Code    52  qsvghandler.o(.text)
    parseGlyphNode(QSvgStyleProperty*, const QXmlStreamAttributes&, QSvgHandler*) 0x00010f63   Thumb Code    44  qsvghandler.o(.text)
    parseHandlerNode(QSvgNode*, const QXmlStreamAttributes&, QSvgHandler*) 0x00010f8f   Thumb Code    14  qsvghandler.o(.text)
    parseHkernNode(QSvgNode*, const QXmlStreamAttributes&, QSvgHandler*) 0x00010f9d   Thumb Code    14  qsvghandler.o(.text)
    createImageNode(QSvgNode*, const QXmlStreamAttributes&, QSvgHandler*) 0x00010fab   Thumb Code   724  qsvghandler.o(.text)
    createLineNode(QSvgNode*, const QXmlStreamAttributes&, QSvgHandler*) 0x0001127f   Thumb Code   410  qsvghandler.o(.text)
    |L1.27384|                               0x00011380   Data           0  qsvghandler.o(.text)
    |L1.27392|                               0x00011388   Data           0  qsvghandler.o(.text)
    |L1.27400|                               0x00011390   Data           0  qsvghandler.o(.text)
    parseBaseGradient(QSvgNode*, const QXmlStreamAttributes&, QSvgGradientStyle*, QSvgHandler*) 0x0001141f   Thumb Code   616  qsvghandler.o(.text)
    createLinearGradientNode(QSvgNode*, const QXmlStreamAttributes&, QSvgHandler*) 0x00011687   Thumb Code   490  qsvghandler.o(.text)
    |L1.28600|                               0x00011840   Data           0  qsvghandler.o(.text)
    parseMetadataNode(QSvgNode*, const QXmlStreamAttributes&, QSvgHandler*) 0x00011871   Thumb Code    14  qsvghandler.o(.text)
    parseMissingGlyphNode(QSvgStyleProperty*, const QXmlStreamAttributes&, QSvgHandler*) 0x0001187f   Thumb Code    44  qsvghandler.o(.text)
    parseMpathNode(QSvgNode*, const QXmlStreamAttributes&, QSvgHandler*) 0x000118ab   Thumb Code    14  qsvghandler.o(.text)
    createPathNode(QSvgNode*, const QXmlStreamAttributes&, QSvgHandler*) 0x000118b9   Thumb Code    98  qsvghandler.o(.text)
    createPolygonNode(QSvgNode*, const QXmlStreamAttributes&, QSvgHandler*) 0x0001191b   Thumb Code   196  qsvghandler.o(.text)
    createPolylineNode(QSvgNode*, const QXmlStreamAttributes&, QSvgHandler*) 0x000119df   Thumb Code   196  qsvghandler.o(.text)
    parsePrefetchNode(QSvgNode*, const QXmlStreamAttributes&, QSvgHandler*) 0x00011aa3   Thumb Code    14  qsvghandler.o(.text)
    createRadialGradientNode(QSvgNode*, const QXmlStreamAttributes&, QSvgHandler*) 0x00011ab1   Thumb Code   396  qsvghandler.o(.text)
    createRectNode(QSvgNode*, const QXmlStreamAttributes&, QSvgHandler*) 0x00011c3d   Thumb Code   624  qsvghandler.o(.text)
    parseScriptNode(QSvgNode*, const QXmlStreamAttributes&, QSvgHandler*) 0x00011ead   Thumb Code    14  qsvghandler.o(.text)
    parseSetNode(QSvgNode*, const QXmlStreamAttributes&, QSvgHandler*) 0x00011ebb   Thumb Code    14  qsvghandler.o(.text)
    createSolidColorNode(QSvgNode*, const QXmlStreamAttributes&, QSvgHandler*) 0x00011ec9   Thumb Code   166  qsvghandler.o(.text)
    parseStopNode(QSvgStyleProperty*, const QXmlStreamAttributes&, QSvgHandler*) 0x00011f75   Thumb Code   872  qsvghandler.o(.text)
    parseStyleNode(QSvgNode*, const QXmlStreamAttributes&, QSvgHandler*) 0x000122e3   Thumb Code   102  qsvghandler.o(.text)
    createSvgNode(QSvgNode*, const QXmlStreamAttributes&, QSvgHandler*) 0x0001234d   Thumb Code  1022  qsvghandler.o(.text)
    |L1.31976|                               0x00012570   Data           0  qsvghandler.o(.text)
    createSwitchNode(QSvgNode*, const QXmlStreamAttributes&, QSvgHandler*) 0x0001274b   Thumb Code    52  qsvghandler.o(.text)
    parseTbreakNode(QSvgNode*, const QXmlStreamAttributes&, QSvgHandler*) 0x0001277f   Thumb Code    40  qsvghandler.o(.text)
    createTextNode(QSvgNode*, const QXmlStreamAttributes&, QSvgHandler*) 0x000127a7   Thumb Code   152  qsvghandler.o(.text)
    createTextAreaNode(QSvgNode*, const QXmlStreamAttributes&, QSvgHandler*) 0x0001283f   Thumb Code   150  qsvghandler.o(.text)
    createTspanNode(QSvgNode*, const QXmlStreamAttributes&, QSvgHandler*) 0x000128d5   Thumb Code    76  qsvghandler.o(.text)
    parseTitleNode(QSvgNode*, const QXmlStreamAttributes&, QSvgHandler*) 0x00012921   Thumb Code    14  qsvghandler.o(.text)
    createUseNode(QSvgNode*, const QXmlStreamAttributes&, QSvgHandler*) 0x0001292f   Thumb Code   462  qsvghandler.o(.text)
    createVideoNode(QSvgNode*, const QXmlStreamAttributes&, QSvgHandler*) 0x00012afd   Thumb Code    14  qsvghandler.o(.text)
    findGroupFactory(const QString&)         0x00012b0b   Thumb Code   260  qsvghandler.o(.text)
    findGraphicsFactory(const QString&)      0x00012c0f   Thumb Code   500  qsvghandler.o(.text)
    findUtilFactory(const QString&)          0x00012e03   Thumb Code   856  qsvghandler.o(.text)
    findStyleFactoryMethod(const QString&)   0x0001315b   Thumb Code   196  qsvghandler.o(.text)
    findStyleUtilFactoryMethod(const QString&) 0x0001321f   Thumb Code   544  qsvghandler.o(.text)
    |L1.38252|                               0x00013df4   Data           0  qsvghandler.o(.text)
    |L1.38260|                               0x00013dfc   Data           0  qsvghandler.o(.text)
    |L1.38336|                               0x00013e48   Data           0  qsvghandler.o(.text)
    qFuzzyIsNull(float)                      0x00014633   Thumb Code    26  qsvghandler.o(.text)
    qsvg_hex2int(const char*)                0x0001464d   Thumb Code    22  qsvghandler.o(.text)
    qsvg_hex2int(char)                       0x00014663   Thumb Code    18  qsvghandler.o(.text)
    isDigit(unsigned short)                  0x00014675   Thumb Code    28  qsvghandler.o(.text)
    stringToList(const QString&)             0x00014691   Thumb Code    46  qsvghandler.o(.text)
    qsvg_h2i(char)                           0x000146bf   Thumb Code    50  qsvghandler.o(.text)
    .text                                    0x000146f8   Section     2500  qsvgnode.o(.text)
    .text                                    0x000150bc   Section     1784  qsvgstructure.o(.text)
    qFuzzyIsNull(float)                      0x000157b5   Thumb Code    44  qsvgstyle.o(.text)
    .text                                    0x000157b4   Section     7112  qsvgstyle.o(.text)
    |L1.1008|                                0x00015ba4   Data           0  qsvgstyle.o(.text)
    .text                                    0x0001737c   Section      808  qsvgfont.o(.text)
    qFuzzyCompare(float, float)              0x000176a5   Thumb Code    84  qsvgtinydocument.o(.text)
    .text                                    0x000176a4   Section     3972  qsvgtinydocument.o(.text)
    qt_inflateGZipDataFrom(QIODevice*)       0x000176f9   Thumb Code   460  qsvgtinydocument.o(.text)
    .text                                    0x00018628   Section     2564  qsvgrenderer.o(.text)
    loadDocument<QString>(QSvgRenderer*, QSvgRendererPrivate*, const T1&) 0x00018647   Thumb Code   212  qsvgrenderer.o(.text)
    loadDocument<QByteArray>(QSvgRenderer*, QSvgRendererPrivate*, const T1&) 0x0001871b   Thumb Code   212  qsvgrenderer.o(.text)
    loadDocument<QXmlStreamReader*>(QSvgRenderer*, QSvgRendererPrivate*, const T1&) 0x000187ef   Thumb Code   212  qsvgrenderer.o(.text)
    .text                                    0x0001902c   Section      820  qsvgwidget.o(.text)
    qFuzzyCompare(float, float)              0x00019361   Thumb Code    76  qgraphicssvgitem.o(.text)
    .text                                    0x00019360   Section     2228  qgraphicssvgitem.o(.text)
    qt_graphicsItem_highlightSelected(QGraphicsItem*, QPainter*, const QStyleOptionGraphicsItem*) 0x000193ad   Thumb Code   718  qgraphicssvgitem.o(.text)
    translate_color(const QColor&, QString*, QString*) 0x00019c15   Thumb Code   284  qsvggenerator.o(.text)
    .text                                    0x00019c14   Section     6308  qsvggenerator.o(.text)
    translate_dashPattern(QVector<float>, const float&, QString*) 0x00019d31   Thumb Code   304  qsvggenerator.o(.text)
    |L1.952|                                 0x00019fcc   Data           0  qsvggenerator.o(.text)
    |L1.2320|                                0x0001a524   Data           0  qsvggenerator.o(.text)
    |L1.5408|                                0x0001b134   Data           0  qsvggenerator.o(.text)
    |L1.5428|                                0x0001b148   Data           0  qsvggenerator.o(.text)
    |L1.5500|                                0x0001b190   Data           0  qsvggenerator.o(.text)
    .text                                    0x0001b4b8   Section      160  moc_qsvgwidget.o(.text)
    .text                                    0x0001b558   Section       24  switch8.o(.text)
    .text                                    0x0001b570   Section       80  uc_dll.o(.text)
    .text                                    0x0001b5c0   Section        4  dllexp.o(.text)
    .text.clean                              0x0001b5c4   Section      508  qsvggraphics.o(.text.clean)
    .text.clean                              0x0001b7c0   Section     4072  qsvghandler.o(.text.clean)
    .text.clean                              0x0001c7a8   Section      240  qsvgnode.o(.text.clean)
    .text.clean                              0x0001c898   Section      152  qsvgstructure.o(.text.clean)
    .text.clean                              0x0001c930   Section      504  qsvgstyle.o(.text.clean)
    .text.clean                              0x0001cb28   Section       56  qsvgfont.o(.text.clean)
    .text.clean                              0x0001cb60   Section      306  qsvgtinydocument.o(.text.clean)
    .text.clean                              0x0001cc92   Section       98  qsvgrenderer.o(.text.clean)
    .text.clean                              0x0001ccf4   Section       78  qsvgwidget.o(.text.clean)
    .text.clean                              0x0001cd42   Section      130  qgraphicssvgitem.o(.text.clean)
    .text.clean                              0x0001cdc4   Section      334  qsvggenerator.o(.text.clean)
    i._Z4qCosf                               0x0001cf12   Section       34  qsvghandler.o(i._Z4qCosf)
    i._Z4qSinf                               0x0001cf34   Section       34  qsvghandler.o(i._Z4qSinf)
    i._Z4qTanf                               0x0001cf56   Section       34  qsvghandler.o(i._Z4qTanf)
    i._Z5qCeilf                              0x0001cf78   Section       20  qsvgstyle.o(i._Z5qCeilf)
    i._Z5qSqrtf                              0x0001cf8c   Section       34  qsvghandler.o(i._Z5qSqrtf)
    i._Z6qAtan2ff                            0x0001cfae   Section       50  qsvghandler.o(i._Z6qAtan2ff)
    i._Z6qFloorf                             0x0001cfe0   Section       20  qsvgstyle.o(i._Z6qFloorf)
    i._Z6qRoundf                             0x0001cff4   Section      156  qsvgtinydocument.o(i._Z6qRoundf)
    i._ZN10QByteArray4dataEv                 0x0001d090   Section       44  qsvgtinydocument.o(i._ZN10QByteArray4dataEv)
    i._ZN10QByteArrayC1ERKS_                 0x0001d0bc   Section       20  qsvgtinydocument.o(i._ZN10QByteArrayC1ERKS_)
    i._ZN10QByteArrayC1Ev                    0x0001d0d0   Section       24  qsvgtinydocument.o(i._ZN10QByteArrayC1Ev)
    i._ZN10QByteArrayD1Ev                    0x0001d0e8   Section       24  qsvghandler.o(i._ZN10QByteArrayD1Ev)
    i._ZN10QMultiHashI7QStringN4QCss9StyleRuleEEC1ERKS3_ 0x0001d100   Section       60  qsvghandler.o(i._ZN10QMultiHashI7QStringN4QCss9StyleRuleEEC1ERKS3_)
    i._ZN10QMultiHashI7QStringN4QCss9StyleRuleEED1Ev 0x0001d13c   Section       14  qsvghandler.o(i._ZN10QMultiHashI7QStringN4QCss9StyleRuleEED1Ev)
    i._ZN10QMultiHashI7QStringN4QCss9StyleRuleEEaSERKS3_ 0x0001d14a   Section       72  qsvghandler.o(i._ZN10QMultiHashI7QStringN4QCss9StyleRuleEEaSERKS3_)
    i._ZN10QStringRefC1EPK7QString           0x0001d192   Section       24  qsvghandler.o(i._ZN10QStringRefC1EPK7QString)
    i._ZN10QStringRefC1Ev                    0x0001d1aa   Section       10  qsvghandler.o(i._ZN10QStringRefC1Ev)
    i._ZN10QStringRefD1Ev                    0x0001d1b4   Section        2  qsvghandler.o(i._ZN10QStringRefD1Ev)
    i._ZN10QStringRefaSERKS_                 0x0001d1b6   Section       14  qsvghandler.o(i._ZN10QStringRefaSERKS_)
    i._ZN10QSvgCircleD0Ev                    0x0001d1c4   Section       24  qsvggraphics.o(i._ZN10QSvgCircleD0Ev)
    i._ZN10QSvgCircleD1Ev                    0x0001d1dc   Section       14  qsvggraphics.o(i._ZN10QSvgCircleD1Ev)
    i._ZN10QSvgSwitchD0Ev                    0x0001d1ea   Section       22  qsvgstructure.o(i._ZN10QSvgSwitchD0Ev)
    i._ZN10QSvgSwitchD1Ev                    0x0001d200   Section       48  qsvgstructure.o(i._ZN10QSvgSwitchD1Ev)
    i._ZN10QSvgSwitchD1Ev.clean              0x0001d230   Section       22  qsvgstructure.o(i._ZN10QSvgSwitchD1Ev.clean)
    i._ZN10QTransformC1ERKS_                 0x0001d246   Section       76  qsvgtinydocument.o(i._ZN10QTransformC1ERKS_)
    i._ZN11QStringListC1ERKS_                0x0001d292   Section       38  qsvghandler.o(i._ZN11QStringListC1ERKS_)
    i._ZN11QStringListC1Ev                   0x0001d2b8   Section       14  qsvghandler.o(i._ZN11QStringListC1Ev)
    i._ZN11QStringListD1Ev                   0x0001d2c6   Section       14  qsvghandler.o(i._ZN11QStringListD1Ev)
    i._ZN11QStringListaSERKS_                0x0001d2d4   Section       66  qsvghandler.o(i._ZN11QStringListaSERKS_)
    i._ZN11QSvgEllipseD0Ev                   0x0001d316   Section       22  qsvggraphics.o(i._ZN11QSvgEllipseD0Ev)
    i._ZN11QSvgEllipseD1Ev                   0x0001d32c   Section       14  qsvggraphics.o(i._ZN11QSvgEllipseD1Ev)
    i._ZN11QSvgPolygonD0Ev                   0x0001d33a   Section       22  qsvggraphics.o(i._ZN11QSvgPolygonD0Ev)
    i._ZN11QSvgPolygonD1Ev                   0x0001d350   Section       36  qsvggraphics.o(i._ZN11QSvgPolygonD1Ev)
    i._ZN11QSvgPolygonD1Ev.clean             0x0001d374   Section       10  qsvggraphics.o(i._ZN11QSvgPolygonD1Ev.clean)
    i._ZN11QTextLayout11FormatRangeC1ERKS0_  0x0001d37e   Section       38  qsvggraphics.o(i._ZN11QTextLayout11FormatRangeC1ERKS0_)
    i._ZN11QTextLayout11FormatRangeC1Ev      0x0001d3a4   Section       20  qsvggraphics.o(i._ZN11QTextLayout11FormatRangeC1Ev)
    i._ZN11QTextLayout11FormatRangeD1Ev      0x0001d3b8   Section       20  qsvggraphics.o(i._ZN11QTextLayout11FormatRangeD1Ev)
    i._ZN12QPainterPath6lineToEff            0x0001d3cc   Section       28  qsvghandler.o(i._ZN12QPainterPath6lineToEff)
    i._ZN12QSvgPolylineD0Ev                  0x0001d3e8   Section       22  qsvggraphics.o(i._ZN12QSvgPolylineD0Ev)
    i._ZN12QSvgPolylineD1Ev                  0x0001d400   Section       36  qsvggraphics.o(i._ZN12QSvgPolylineD1Ev)
    i._ZN12QSvgPolylineD1Ev.clean            0x0001d424   Section       10  qsvggraphics.o(i._ZN12QSvgPolylineD1Ev.clean)
    i._ZN13QSvgAnimationD0Ev                 0x0001d42e   Section       24  qsvggraphics.o(i._ZN13QSvgAnimationD0Ev)
    i._ZN13QSvgAnimationD1Ev                 0x0001d446   Section       14  qsvggraphics.o(i._ZN13QSvgAnimationD1Ev)
    i._ZN13QSvgFillStyleD0Ev                 0x0001d454   Section       22  qsvgstyle.o(i._ZN13QSvgFillStyleD0Ev)
    i._ZN13QSvgFillStyleD1Ev                 0x0001d46c   Section       60  qsvgstyle.o(i._ZN13QSvgFillStyleD1Ev)
    i._ZN13QSvgFillStyleD1Ev.clean           0x0001d4a8   Section       34  qsvgstyle.o(i._ZN13QSvgFillStyleD1Ev.clean)
    i._ZN13QSvgFontStyle10setVariantEN5QFont14CapitalizationE 0x0001d4ca   Section       28  qsvghandler.o(i._ZN13QSvgFontStyle10setVariantEN5QFont14CapitalizationE)
    i._ZN13QSvgFontStyle13setTextAnchorE6QFlagsIN2Qt13AlignmentFlagEE 0x0001d4e6   Section       22  qsvghandler.o(i._ZN13QSvgFontStyle13setTextAnchorE6QFlagsIN2Qt13AlignmentFlagEE)
    i._ZN13QSvgFontStyle8setStyleEN5QFont5StyleE 0x0001d4fc   Section       28  qsvghandler.o(i._ZN13QSvgFontStyle8setStyleEN5QFont5StyleE)
    i._ZN13QSvgFontStyle9setWeightEi         0x0001d518   Section       14  qsvghandler.o(i._ZN13QSvgFontStyle9setWeightEi)
    i._ZN13QSvgFontStyleD0Ev                 0x0001d526   Section       22  qsvgstyle.o(i._ZN13QSvgFontStyleD0Ev)
    i._ZN13QSvgFontStyleD1Ev                 0x0001d53c   Section       48  qsvgstyle.o(i._ZN13QSvgFontStyleD1Ev)
    i._ZN13QSvgFontStyleD1Ev.clean           0x0001d56c   Section       22  qsvgstyle.o(i._ZN13QSvgFontStyleD1Ev.clean)
    i._ZN14QSvgAttributesD1Ev                0x0001d582   Section      274  qsvghandler.o(i._ZN14QSvgAttributesD1Ev)
    i._ZN14QSvgAttributesD1Ev.clean          0x0001d694   Section      366  qsvghandler.o(i._ZN14QSvgAttributesD1Ev.clean)
    i._ZN14QSvgRefCounted5derefEv            0x0001d802   Section       26  qsvghandler.o(i._ZN14QSvgRefCounted5derefEv)
    i._ZN14QSvgRefCountedD0Ev                0x0001d81c   Section       18  qsvgstyle.o(i._ZN14QSvgRefCountedD0Ev)
    i._ZN14QSvgRefCountedD1Ev                0x0001d82e   Section        2  qsvgstyle.o(i._ZN14QSvgRefCountedD1Ev)
    i._ZN14QWidgetPrivate14aboutToDestroyEv  0x0001d830   Section        2  qsvgwidget.o(i._ZN14QWidgetPrivate14aboutToDestroyEv)
    i._ZN15QBasicAtomicInt3refEv             0x0001d832   Section       24  qsvggraphics.o(i._ZN15QBasicAtomicInt3refEv)
    i._ZN15QBasicAtomicInt5derefEv           0x0001d84a   Section       24  qsvggraphics.o(i._ZN15QBasicAtomicInt5derefEv)
    i._ZN15QGraphicsObjectD2Ev               0x0001d862   Section       26  qgraphicssvgitem.o(i._ZN15QGraphicsObjectD2Ev)
    i._ZN15QGraphicsObjectD2Ev.clean         0x0001d87c   Section       10  qgraphicssvgitem.o(i._ZN15QGraphicsObjectD2Ev.clean)
    i._ZN15QSvgCompOpStyleD0Ev               0x0001d886   Section       24  qsvgstyle.o(i._ZN15QSvgCompOpStyleD0Ev)
    i._ZN15QSvgCompOpStyleD1Ev               0x0001d89e   Section       14  qsvgstyle.o(i._ZN15QSvgCompOpStyleD1Ev)
    i._ZN15QSvgPaintEngine10qfontToSvgERK5QFont 0x0001d8ac   Section      516  qsvggenerator.o(i._ZN15QSvgPaintEngine10qfontToSvgERK5QFont)
    i._ZN15QSvgPaintEngine10qfontToSvgERK5QFont.clean 0x0001dab0   Section       34  qsvggenerator.o(i._ZN15QSvgPaintEngine10qfontToSvgERK5QFont.clean)
    i._ZN15QSvgPaintEngine11qbrushToSvgERK6QBrush 0x0001dad4   Section     1258  qsvggenerator.o(i._ZN15QSvgPaintEngine11qbrushToSvgERK6QBrush)
    i._ZN15QSvgPaintEngine11qbrushToSvgERK6QBrush.clean 0x0001dfbe   Section      140  qsvggenerator.o(i._ZN15QSvgPaintEngine11qbrushToSvgERK6QBrush.clean)
    i._ZN15QSvgPaintEngine15setOutputDeviceEP9QIODevice 0x0001e04c   Section      104  qsvggenerator.o(i._ZN15QSvgPaintEngine15setOutputDeviceEP9QIODevice)
    i._ZN15QSvgPaintEngine17saveGradientStopsER11QTextStreamPK9QGradient 0x0001e0b4   Section     2344  qsvggenerator.o(i._ZN15QSvgPaintEngine17saveGradientStopsER11QTextStreamPK9QGradient)
    i._ZN15QSvgPaintEngine17saveGradientStopsER11QTextStreamPK9QGradient.clean 0x0001e9dc   Section       90  qsvggenerator.o(i._ZN15QSvgPaintEngine17saveGradientStopsER11QTextStreamPK9QGradient.clean)
    i._ZN15QSvgPaintEngine17saveGradientUnitsER11QTextStreamPK9QGradient 0x0001ea38   Section      208  qsvggenerator.o(i._ZN15QSvgPaintEngine17saveGradientUnitsER11QTextStreamPK9QGradient)
    i._ZN15QSvgPaintEngine17saveGradientUnitsER11QTextStreamPK9QGradient.clean 0x0001eb08   Section       34  qsvggenerator.o(i._ZN15QSvgPaintEngine17saveGradientUnitsER11QTextStreamPK9QGradient.clean)
    i._ZN15QSvgPaintEngine18generateQtDefaultsEv 0x0001eb2c   Section      436  qsvggenerator.o(i._ZN15QSvgPaintEngine18generateQtDefaultsEv)
    i._ZN15QSvgPaintEngine18generateQtDefaultsEv.clean 0x0001ece0   Section       58  qsvggenerator.o(i._ZN15QSvgPaintEngine18generateQtDefaultsEv.clean)
    i._ZN15QSvgPaintEngine23saveLinearGradientBrushEPK9QGradient 0x0001ed1c   Section      664  qsvggenerator.o(i._ZN15QSvgPaintEngine23saveLinearGradientBrushEPK9QGradient)
    i._ZN15QSvgPaintEngine23saveLinearGradientBrushEPK9QGradient.clean 0x0001efb4   Section       94  qsvggenerator.o(i._ZN15QSvgPaintEngine23saveLinearGradientBrushEPK9QGradient.clean)
    i._ZN15QSvgPaintEngine23saveRadialGradientBrushEPK9QGradient 0x0001f014   Section      748  qsvggenerator.o(i._ZN15QSvgPaintEngine23saveRadialGradientBrushEPK9QGradient)
    i._ZN15QSvgPaintEngine23saveRadialGradientBrushEPK9QGradient.clean 0x0001f300   Section      106  qsvggenerator.o(i._ZN15QSvgPaintEngine23saveRadialGradientBrushEPK9QGradient.clean)
    i._ZN15QSvgPaintEngine9qpenToSvgERK4QPen 0x0001f36c   Section     1888  qsvggenerator.o(i._ZN15QSvgPaintEngine9qpenToSvgERK4QPen)
    |L51.1688|                               0x0001fa04   Data           0  qsvggenerator.o(i._ZN15QSvgPaintEngine9qpenToSvgERK4QPen)
    i._ZN15QSvgPaintEngine9qpenToSvgERK4QPen.clean 0x0001facc   Section      160  qsvggenerator.o(i._ZN15QSvgPaintEngine9qpenToSvgERK4QPen.clean)
    i._ZN15QSvgPaintEngineD0Ev               0x0001fb6c   Section       24  qsvggenerator.o(i._ZN15QSvgPaintEngineD0Ev)
    i._ZN15QSvgPaintEngineD1Ev               0x0001fb84   Section       14  qsvggenerator.o(i._ZN15QSvgPaintEngineD1Ev)
    i._ZN15QSvgStrokeStyle10setLineCapEN2Qt11PenCapStyleE 0x0001fb92   Section       28  qsvghandler.o(i._ZN15QSvgStrokeStyle10setLineCapEN2Qt11PenCapStyleE)
    i._ZN15QSvgStrokeStyle11setLineJoinEN2Qt12PenJoinStyleE 0x0001fbae   Section       28  qsvghandler.o(i._ZN15QSvgStrokeStyle11setLineJoinEN2Qt12PenJoinStyleE)
    i._ZN15QSvgStrokeStyle15setVectorEffectEb 0x0001fbca   Section       30  qsvghandler.o(i._ZN15QSvgStrokeStyle15setVectorEffectEb)
    i._ZN15QSvgStrokeStyle9setStrokeE6QBrush 0x0001fbe8   Section       32  qsvghandler.o(i._ZN15QSvgStrokeStyle9setStrokeE6QBrush)
    i._ZN15QSvgStrokeStyleD0Ev               0x0001fc08   Section       22  qsvgstyle.o(i._ZN15QSvgStrokeStyleD0Ev)
    i._ZN15QSvgStrokeStyleD1Ev               0x0001fc20   Section       60  qsvgstyle.o(i._ZN15QSvgStrokeStyleD1Ev)
    i._ZN15QSvgStrokeStyleD1Ev.clean         0x0001fc5c   Section       34  qsvgstyle.o(i._ZN15QSvgStrokeStyleD1Ev.clean)
    i._ZN15QTextCharFormatD1Ev               0x0001fc7e   Section       14  qsvggraphics.o(i._ZN15QTextCharFormatD1Ev)
    i._ZN15QtSharedPointer20ExternalRefCountData7destroyEv 0x0001fc8c   Section        6  qsvggraphics.o(i._ZN15QtSharedPointer20ExternalRefCountData7destroyEv)
    i._ZN15QtSharedPointer20ExternalRefCountDataD0Ev 0x0001fc92   Section       22  qsvggraphics.o(i._ZN15QtSharedPointer20ExternalRefCountDataD0Ev)
    i._ZN15QtSharedPointer20ExternalRefCountDataD1Ev 0x0001fca8   Section      108  qsvggraphics.o(i._ZN15QtSharedPointer20ExternalRefCountDataD1Ev)
    i._ZN16QGraphicsSvgItemD0Ev              0x0001fd14   Section       24  qgraphicssvgitem.o(i._ZN16QGraphicsSvgItemD0Ev)
    i._ZN16QGraphicsSvgItemD1Ev              0x0001fd2c   Section       14  qgraphicssvgitem.o(i._ZN16QGraphicsSvgItemD1Ev)
    i._ZN16QSvgAnimateColorD0Ev              0x0001fd3a   Section       22  qsvgstyle.o(i._ZN16QSvgAnimateColorD0Ev)
    i._ZN16QSvgAnimateColorD1Ev              0x0001fd50   Section       60  qsvgstyle.o(i._ZN16QSvgAnimateColorD1Ev)
    i._ZN16QSvgAnimateColorD1Ev.clean        0x0001fd8c   Section       34  qsvgstyle.o(i._ZN16QSvgAnimateColorD1Ev.clean)
    i._ZN16QSvgCssAttributeC1ERKS_           0x0001fdae   Section       34  qsvghandler.o(i._ZN16QSvgCssAttributeC1ERKS_)
    i._ZN16QSvgCssAttributeC1ERKS_.clean     0x0001fdd0   Section       10  qsvghandler.o(i._ZN16QSvgCssAttributeC1ERKS_.clean)
    i._ZN16QSvgCssAttributeC1Ev              0x0001fdda   Section       26  qsvghandler.o(i._ZN16QSvgCssAttributeC1Ev)
    i._ZN16QSvgCssAttributeC1Ev.clean        0x0001fdf4   Section       10  qsvghandler.o(i._ZN16QSvgCssAttributeC1Ev.clean)
    i._ZN16QSvgCssAttributeD1Ev              0x0001fdfe   Section       26  qsvghandler.o(i._ZN16QSvgCssAttributeD1Ev)
    i._ZN16QSvgCssAttributeD1Ev.clean        0x0001fe18   Section       10  qsvghandler.o(i._ZN16QSvgCssAttributeD1Ev.clean)
    i._ZN16QSvgOpacityStyleD0Ev              0x0001fe22   Section       24  qsvgstyle.o(i._ZN16QSvgOpacityStyleD0Ev)
    i._ZN16QSvgOpacityStyleD1Ev              0x0001fe3a   Section       14  qsvgstyle.o(i._ZN16QSvgOpacityStyleD1Ev)
    i._ZN16QSvgQualityStyleD0Ev              0x0001fe48   Section       24  qsvgstyle.o(i._ZN16QSvgQualityStyleD0Ev)
    i._ZN16QSvgQualityStyleD1Ev              0x0001fe60   Section       14  qsvgstyle.o(i._ZN16QSvgQualityStyleD1Ev)
    i._ZN17QForeachContainerI5QListIP8QSvgNodeEED1Ev 0x0001fe6e   Section       14  qsvgstructure.o(i._ZN17QForeachContainerI5QListIP8QSvgNodeEED1Ev)
    i._ZN17QForeachContainerI7QVectorI5QPairIf6QColorEEED1Ev 0x0001fe7c   Section       14  qsvggenerator.o(i._ZN17QForeachContainerI7QVectorI5QPairIf6QColorEEED1Ev)
    i._ZN17QForeachContainerI7QVectorIfEED1Ev 0x0001fe8a   Section       14  qsvggenerator.o(i._ZN17QForeachContainerI7QVectorIfEED1Ev)
    i._ZN17QSvgGradientStyleD0Ev             0x0001fe98   Section       22  qsvgstyle.o(i._ZN17QSvgGradientStyleD0Ev)
    i._ZN17QSvgGradientStyleD1Ev             0x0001feb0   Section       60  qsvgstyle.o(i._ZN17QSvgGradientStyleD1Ev)
    i._ZN17QSvgGradientStyleD1Ev.clean       0x0001feec   Section       22  qsvgstyle.o(i._ZN17QSvgGradientStyleD1Ev.clean)
    i._ZN17QSvgStylePropertyC2Ev             0x0001ff04   Section       24  qsvgstyle.o(i._ZN17QSvgStylePropertyC2Ev)
    i._ZN17QSvgStyleSelectorD0Ev             0x0001ff1c   Section       28  qsvghandler.o(i._ZN17QSvgStyleSelectorD0Ev)
    i._ZN17QSvgStyleSelectorD1Ev             0x0001ff38   Section       14  qsvghandler.o(i._ZN17QSvgStyleSelectorD1Ev)
    i._ZN17QSvgWidgetPrivateC1Ev             0x0001ff48   Section       32  qsvgwidget.o(i._ZN17QSvgWidgetPrivateC1Ev)
    i._ZN17QSvgWidgetPrivateD0Ev             0x0001ff68   Section       24  qsvgwidget.o(i._ZN17QSvgWidgetPrivateD0Ev)
    i._ZN17QSvgWidgetPrivateD1Ev             0x0001ff80   Section       14  qsvgwidget.o(i._ZN17QSvgWidgetPrivateD1Ev)
    i._ZN18QSvgTransformStyleD0Ev            0x0001ff8e   Section       24  qsvgstyle.o(i._ZN18QSvgTransformStyleD0Ev)
    i._ZN18QSvgTransformStyleD1Ev            0x0001ffa6   Section       14  qsvgstyle.o(i._ZN18QSvgTransformStyleD1Ev)
    i._ZN19QPaintEnginePrivate18systemStateChangedEv 0x0001ffb4   Section        2  qsvggenerator.o(i._ZN19QPaintEnginePrivate18systemStateChangedEv)
    i._ZN19QPaintEnginePrivateD0Ev           0x0001ffb6   Section       22  qsvggenerator.o(i._ZN19QPaintEnginePrivateD0Ev)
    i._ZN19QPaintEnginePrivateD1Ev           0x0001ffcc   Section       40  qsvggenerator.o(i._ZN19QPaintEnginePrivateD1Ev)
    i._ZN19QPaintEnginePrivateD1Ev.clean     0x0001fff4   Section       12  qsvggenerator.o(i._ZN19QPaintEnginePrivateD1Ev.clean)
    i._ZN19QSvgRendererPrivateC1Ev           0x00020000   Section       40  qsvgrenderer.o(i._ZN19QSvgRendererPrivateC1Ev)
    i._ZN19QSvgRendererPrivateD0Ev           0x00020028   Section       22  qsvgrenderer.o(i._ZN19QSvgRendererPrivateD0Ev)
    i._ZN19QSvgRendererPrivateD1Ev           0x00020040   Section       40  qsvgrenderer.o(i._ZN19QSvgRendererPrivateD1Ev)
    i._ZN19QSvgRendererPrivateD1Ev.clean     0x00020068   Section       10  qsvgrenderer.o(i._ZN19QSvgRendererPrivateD1Ev.clean)
    i._ZN19QSvgSolidColorStyle5brushEP8QPainterR15QSvgExtraStates 0x00020072   Section       26  qsvgstyle.o(i._ZN19QSvgSolidColorStyle5brushEP8QPainterR15QSvgExtraStates)
    i._ZN19QSvgSolidColorStyleD0Ev           0x0002008c   Section       22  qsvgstyle.o(i._ZN19QSvgSolidColorStyleD0Ev)
    i._ZN19QSvgSolidColorStyleD1Ev           0x000200a4   Section       48  qsvgstyle.o(i._ZN19QSvgSolidColorStyleD1Ev)
    i._ZN19QSvgSolidColorStyleD1Ev.clean     0x000200d4   Section       22  qsvgstyle.o(i._ZN19QSvgSolidColorStyleD1Ev.clean)
    i._ZN19QXmlStreamStringRefC1ERK10QStringRef 0x000200ea   Section       70  qsvghandler.o(i._ZN19QXmlStreamStringRefC1ERK10QStringRef)
    i._ZN19QXmlStreamStringRefC1ERK10QStringRef.clean 0x00020130   Section       16  qsvghandler.o(i._ZN19QXmlStreamStringRefC1ERK10QStringRef.clean)
    i._ZN19QXmlStreamStringRefC1ERKS_        0x00020140   Section       28  qsvghandler.o(i._ZN19QXmlStreamStringRefC1ERKS_)
    i._ZN19QXmlStreamStringRefC1Ev           0x0002015c   Section       22  qsvghandler.o(i._ZN19QXmlStreamStringRefC1Ev)
    i._ZN19QXmlStreamStringRefD1Ev           0x00020172   Section       14  qsvghandler.o(i._ZN19QXmlStreamStringRefD1Ev)
    i._ZN19QXmlStreamStringRefaSERKS_        0x00020180   Section       26  qsvghandler.o(i._ZN19QXmlStreamStringRefaSERKS_)
    i._ZN20QGraphicsItemPrivate11ExtraStructC1ERKS0_ 0x0002019a   Section       30  qgraphicssvgitem.o(i._ZN20QGraphicsItemPrivate11ExtraStructC1ERKS0_)
    i._ZN20QGraphicsItemPrivate11ExtraStructD1Ev 0x000201b8   Section       20  qgraphicssvgitem.o(i._ZN20QGraphicsItemPrivate11ExtraStructD1Ev)
    i._ZN20QGraphicsItemPrivate11resolveFontEj 0x000201cc   Section       62  qgraphicssvgitem.o(i._ZN20QGraphicsItemPrivate11resolveFontEj)
    i._ZN20QGraphicsItemPrivate14resolvePaletteEj 0x0002020a   Section       62  qgraphicssvgitem.o(i._ZN20QGraphicsItemPrivate14resolvePaletteEj)
    i._ZN20QGraphicsItemPrivate16transformChangedEv 0x00020248   Section        2  qgraphicssvgitem.o(i._ZN20QGraphicsItemPrivate16transformChangedEv)
    i._ZN20QGraphicsItemPrivate8setExtraENS_5ExtraERK8QVariant 0x0002024c   Section      316  qgraphicssvgitem.o(i._ZN20QGraphicsItemPrivate8setExtraENS_5ExtraERK8QVariant)
    i._ZN20QGraphicsItemPrivate8setExtraENS_5ExtraERK8QVariant.clean 0x00020388   Section       16  qgraphicssvgitem.o(i._ZN20QGraphicsItemPrivate8setExtraENS_5ExtraERK8QVariant.clean)
    i._ZN20QGraphicsItemPrivateC1Ev          0x00020398   Section      916  qgraphicssvgitem.o(i._ZN20QGraphicsItemPrivateC1Ev)
    i._ZN20QGraphicsItemPrivateC1Ev.clean    0x0002072c   Section       46  qgraphicssvgitem.o(i._ZN20QGraphicsItemPrivateC1Ev.clean)
    i._ZN20QGraphicsItemPrivateD1Ev          0x0002075c   Section       72  qgraphicssvgitem.o(i._ZN20QGraphicsItemPrivateD1Ev)
    i._ZN20QGraphicsItemPrivateD1Ev.clean    0x000207a4   Section       46  qgraphicssvgitem.o(i._ZN20QGraphicsItemPrivateD1Ev.clean)
    i._ZN20QSvgAnimateTransform10animActiveEf 0x000207d2   Section       96  qsvgstyle.o(i._ZN20QSvgAnimateTransform10animActiveEf)
    i._ZN20QSvgAnimateTransformD0Ev          0x00020832   Section       22  qsvgstyle.o(i._ZN20QSvgAnimateTransformD0Ev)
    i._ZN20QSvgAnimateTransformD1Ev          0x00020848   Section       36  qsvgstyle.o(i._ZN20QSvgAnimateTransformD1Ev)
    i._ZN20QSvgAnimateTransformD1Ev.clean    0x0002086c   Section       10  qsvgstyle.o(i._ZN20QSvgAnimateTransformD1Ev.clean)
    i._ZN20QXmlStreamAttributesD1Ev          0x00020876   Section       14  qsvghandler.o(i._ZN20QXmlStreamAttributesD1Ev)
    i._ZN21QSvgFillStylePropertyC2Ev         0x00020884   Section       24  qsvgstyle.o(i._ZN21QSvgFillStylePropertyC2Ev)
    i._ZN21QSvgFillStylePropertyD0Ev         0x0002089c   Section       22  qsvgstyle.o(i._ZN21QSvgFillStylePropertyD0Ev)
    i._ZN21QSvgFillStylePropertyD2Ev         0x000208b2   Section       14  qsvgstyle.o(i._ZN21QSvgFillStylePropertyD2Ev)
    i._ZN21QSvgViewportFillStyleD0Ev         0x000208c0   Section       22  qsvgstyle.o(i._ZN21QSvgViewportFillStyleD0Ev)
    i._ZN21QSvgViewportFillStyleD1Ev         0x000208d8   Section       48  qsvgstyle.o(i._ZN21QSvgViewportFillStyleD1Ev)
    i._ZN21QSvgViewportFillStyleD1Ev.clean   0x00020908   Section       22  qsvgstyle.o(i._ZN21QSvgViewportFillStyleD1Ev.clean)
    i._ZN22QGraphicsEffectPrivateD1Ev        0x0002091e   Section       14  qsvgwidget.o(i._ZN22QGraphicsEffectPrivateD1Ev)
    i._ZN22QSvgPaintEnginePrivate11_attributesC1Ev 0x0002092c   Section      144  qsvggenerator.o(i._ZN22QSvgPaintEnginePrivate11_attributesC1Ev)
    i._ZN22QSvgPaintEnginePrivate11_attributesC1Ev.clean 0x000209bc   Section      126  qsvggenerator.o(i._ZN22QSvgPaintEnginePrivate11_attributesC1Ev.clean)
    i._ZN22QSvgPaintEnginePrivate11_attributesD1Ev 0x00020a3a   Section      142  qsvggenerator.o(i._ZN22QSvgPaintEnginePrivate11_attributesD1Ev)
    i._ZN22QSvgPaintEnginePrivate11_attributesD1Ev.clean 0x00020ac8   Section      126  qsvggenerator.o(i._ZN22QSvgPaintEnginePrivate11_attributesD1Ev.clean)
    i._ZN22QSvgPaintEnginePrivate20generateGradientNameEv 0x00020b48   Section      124  qsvggenerator.o(i._ZN22QSvgPaintEnginePrivate20generateGradientNameEv)
    i._ZN22QSvgPaintEnginePrivate20generateGradientNameEv.clean 0x00020bc4   Section       16  qsvggenerator.o(i._ZN22QSvgPaintEnginePrivate20generateGradientNameEv.clean)
    i._ZN22QSvgPaintEnginePrivateC1Ev        0x00020bd4   Section      468  qsvggenerator.o(i._ZN22QSvgPaintEnginePrivateC1Ev)
    i._ZN22QSvgPaintEnginePrivateC1Ev.clean  0x00020da8   Section      130  qsvggenerator.o(i._ZN22QSvgPaintEnginePrivateC1Ev.clean)
    i._ZN22QSvgPaintEnginePrivateD0Ev        0x00020e2a   Section       22  qsvggenerator.o(i._ZN22QSvgPaintEnginePrivateD0Ev)
    i._ZN22QSvgPaintEnginePrivateD1Ev        0x00020e40   Section      120  qsvggenerator.o(i._ZN22QSvgPaintEnginePrivateD1Ev)
    i._ZN22QSvgPaintEnginePrivateD1Ev.clean  0x00020eb8   Section       94  qsvggenerator.o(i._ZN22QSvgPaintEnginePrivateD1Ev.clean)
    i._ZN23QGraphicsSvgItemPrivate17updateDefaultSizeEv 0x00020f16   Section      246  qgraphicssvgitem.o(i._ZN23QGraphicsSvgItemPrivate17updateDefaultSizeEv)
    i._ZN23QGraphicsSvgItemPrivate4initEP13QGraphicsItem 0x0002100c   Section      268  qgraphicssvgitem.o(i._ZN23QGraphicsSvgItemPrivate4initEP13QGraphicsItem)
    i._ZN23QGraphicsSvgItemPrivate4initEP13QGraphicsItem.clean 0x00021118   Section       14  qgraphicssvgitem.o(i._ZN23QGraphicsSvgItemPrivate4initEP13QGraphicsItem.clean)
    i._ZN23QGraphicsSvgItemPrivate6q_funcEv  0x00021126   Section       22  qgraphicssvgitem.o(i._ZN23QGraphicsSvgItemPrivate6q_funcEv)
    i._ZN23QGraphicsSvgItemPrivateC1Ev       0x0002113c   Section       72  qgraphicssvgitem.o(i._ZN23QGraphicsSvgItemPrivateC1Ev)
    i._ZN23QGraphicsSvgItemPrivateC1Ev.clean 0x00021184   Section       10  qgraphicssvgitem.o(i._ZN23QGraphicsSvgItemPrivateC1Ev.clean)
    i._ZN23QGraphicsSvgItemPrivateD0Ev       0x0002118e   Section       22  qgraphicssvgitem.o(i._ZN23QGraphicsSvgItemPrivateD0Ev)
    i._ZN23QGraphicsSvgItemPrivateD1Ev       0x000211a4   Section       36  qgraphicssvgitem.o(i._ZN23QGraphicsSvgItemPrivateD1Ev)
    i._ZN23QGraphicsSvgItemPrivateD1Ev.clean 0x000211c8   Section       10  qgraphicssvgitem.o(i._ZN23QGraphicsSvgItemPrivateD1Ev.clean)
    i._ZN26QGraphicsBlurEffectPrivateD0Ev    0x000211d2   Section       22  qsvgwidget.o(i._ZN26QGraphicsBlurEffectPrivateD0Ev)
    i._ZN26QGraphicsBlurEffectPrivateD1Ev    0x000211e8   Section       40  qsvgwidget.o(i._ZN26QGraphicsBlurEffectPrivateD1Ev)
    i._ZN26QGraphicsBlurEffectPrivateD1Ev.clean 0x00021210   Section       10  qsvgwidget.o(i._ZN26QGraphicsBlurEffectPrivateD1Ev.clean)
    i._ZN30QGraphicsColorizeEffectPrivateD0Ev 0x0002121a   Section       22  qsvgwidget.o(i._ZN30QGraphicsColorizeEffectPrivateD0Ev)
    i._ZN30QGraphicsColorizeEffectPrivateD1Ev 0x00021230   Section       40  qsvgwidget.o(i._ZN30QGraphicsColorizeEffectPrivateD1Ev)
    i._ZN30QGraphicsColorizeEffectPrivateD1Ev.clean 0x00021258   Section       10  qsvgwidget.o(i._ZN30QGraphicsColorizeEffectPrivateD1Ev.clean)
    i._ZN32QGraphicsDropShadowEffectPrivateD0Ev 0x00021262   Section       22  qsvgwidget.o(i._ZN32QGraphicsDropShadowEffectPrivateD0Ev)
    i._ZN32QGraphicsDropShadowEffectPrivateD1Ev 0x00021278   Section       40  qsvgwidget.o(i._ZN32QGraphicsDropShadowEffectPrivateD1Ev)
    i._ZN32QGraphicsDropShadowEffectPrivateD1Ev.clean 0x000212a0   Section       10  qsvgwidget.o(i._ZN32QGraphicsDropShadowEffectPrivateD1Ev.clean)
    i._ZN4QCss10ImportRuleD1Ev               0x000212aa   Section       22  qsvghandler.o(i._ZN4QCss10ImportRuleD1Ev)
    i._ZN4QCss10ImportRuleD1Ev.clean         0x000212c0   Section       10  qsvghandler.o(i._ZN4QCss10ImportRuleD1Ev.clean)
    i._ZN4QCss10StyleSheetC1ERKS0_           0x000212ca   Section      168  qsvghandler.o(i._ZN4QCss10StyleSheetC1ERKS0_)
    i._ZN4QCss10StyleSheetC1ERKS0_.clean     0x00021372   Section       54  qsvghandler.o(i._ZN4QCss10StyleSheetC1ERKS0_.clean)
    i._ZN4QCss10StyleSheetC1Ev               0x000213a8   Section      100  qsvghandler.o(i._ZN4QCss10StyleSheetC1Ev)
    i._ZN4QCss10StyleSheetC1Ev.clean         0x0002140c   Section       54  qsvghandler.o(i._ZN4QCss10StyleSheetC1Ev.clean)
    i._ZN4QCss10StyleSheetD1Ev               0x00021442   Section       70  qsvghandler.o(i._ZN4QCss10StyleSheetD1Ev)
    i._ZN4QCss10StyleSheetD1Ev.clean         0x00021488   Section       54  qsvghandler.o(i._ZN4QCss10StyleSheetD1Ev.clean)
    i._ZN4QCss10StyleSheetaSERKS0_           0x000214be   Section       82  qsvghandler.o(i._ZN4QCss10StyleSheetaSERKS0_)
    i._ZN4QCss11DeclarationC1Ev              0x00021510   Section      112  qsvghandler.o(i._ZN4QCss11DeclarationC1Ev)
    i._ZN4QCss11DeclarationC1Ev.clean        0x00021580   Section       36  qsvghandler.o(i._ZN4QCss11DeclarationC1Ev.clean)
    i._ZN4QCss13BasicSelectorC1ERKS0_        0x000215a4   Section      110  qsvghandler.o(i._ZN4QCss13BasicSelectorC1ERKS0_)
    i._ZN4QCss13BasicSelectorC1ERKS0_.clean  0x00021612   Section       30  qsvghandler.o(i._ZN4QCss13BasicSelectorC1ERKS0_.clean)
    i._ZN4QCss13BasicSelectorD1Ev            0x00021630   Section       46  qsvghandler.o(i._ZN4QCss13BasicSelectorD1Ev)
    i._ZN4QCss13BasicSelectorD1Ev.clean      0x0002165e   Section       30  qsvghandler.o(i._ZN4QCss13BasicSelectorD1Ev.clean)
    i._ZN4QCss17AttributeSelectorD1Ev        0x0002167c   Section       22  qsvghandler.o(i._ZN4QCss17AttributeSelectorD1Ev)
    i._ZN4QCss17AttributeSelectorD1Ev.clean  0x00021692   Section       10  qsvghandler.o(i._ZN4QCss17AttributeSelectorD1Ev.clean)
    i._ZN4QCss5ValueC1ERKS0_                 0x0002169c   Section       30  qsvghandler.o(i._ZN4QCss5ValueC1ERKS0_)
    i._ZN4QCss5ValueD1Ev                     0x000216ba   Section       20  qsvghandler.o(i._ZN4QCss5ValueD1Ev)
    i._ZN4QCss6Parser4nextEv                 0x000216ce   Section       22  qsvghandler.o(i._ZN4QCss6Parser4nextEv)
    i._ZN4QCss6Parser9skipSpaceEv            0x000216e4   Section       20  qsvghandler.o(i._ZN4QCss6Parser9skipSpaceEv)
    i._ZN4QCss6ParserD1Ev                    0x000216f8   Section       26  qsvghandler.o(i._ZN4QCss6ParserD1Ev)
    i._ZN4QCss6ParserD1Ev.clean              0x00021712   Section       10  qsvghandler.o(i._ZN4QCss6ParserD1Ev.clean)
    i._ZN4QCss6PseudoD1Ev                    0x0002171c   Section       32  qsvghandler.o(i._ZN4QCss6PseudoD1Ev)
    i._ZN4QCss6PseudoD1Ev.clean              0x0002173c   Section       12  qsvghandler.o(i._ZN4QCss6PseudoD1Ev.clean)
    i._ZN4QCss8PageRuleD1Ev                  0x00021748   Section       22  qsvghandler.o(i._ZN4QCss8PageRuleD1Ev)
    i._ZN4QCss8PageRuleD1Ev.clean            0x0002175e   Section       10  qsvghandler.o(i._ZN4QCss8PageRuleD1Ev.clean)
    i._ZN4QCss9MediaRuleD1Ev                 0x00021768   Section       22  qsvghandler.o(i._ZN4QCss9MediaRuleD1Ev)
    i._ZN4QCss9MediaRuleD1Ev.clean           0x0002177e   Section       10  qsvghandler.o(i._ZN4QCss9MediaRuleD1Ev.clean)
    i._ZN4QCss9StyleRuleC1ERKS0_             0x00021788   Section       50  qsvghandler.o(i._ZN4QCss9StyleRuleC1ERKS0_)
    i._ZN4QCss9StyleRuleC1ERKS0_.clean       0x000217ba   Section       10  qsvghandler.o(i._ZN4QCss9StyleRuleC1ERKS0_.clean)
    i._ZN4QCss9StyleRuleD1Ev                 0x000217c4   Section       22  qsvghandler.o(i._ZN4QCss9StyleRuleD1Ev)
    i._ZN4QCss9StyleRuleD1Ev.clean           0x000217da   Section       10  qsvghandler.o(i._ZN4QCss9StyleRuleD1Ev.clean)
    i._ZN5QPairIf6QColorEC1ERKS1_            0x000217e4   Section       24  qsvgstyle.o(i._ZN5QPairIf6QColorEC1ERKS1_)
    i._ZN5QRectC1Ev                          0x000217fc   Section       14  qsvgrenderer.o(i._ZN5QRectC1Ev)
    i._ZN5QSvgGD0Ev                          0x0002180a   Section       24  qsvgstructure.o(i._ZN5QSvgGD0Ev)
    i._ZN5QSvgGD1Ev                          0x00021822   Section       14  qsvgstructure.o(i._ZN5QSvgGD1Ev)
    i._ZN6QColorC1ERKS_                      0x00021830   Section       24  qsvghandler.o(i._ZN6QColorC1ERKS_)
    i._ZN6QColorC1Eiiii                      0x00021848   Section       32  qsvghandler.o(i._ZN6QColorC1Eiiii)
    i._ZN6QColorC1Ev                         0x00021868   Section       14  qsvghandler.o(i._ZN6QColorC1Ev)
    i._ZN6QDebug10maybeSpaceEv               0x00021876   Section       24  qsvghandler.o(i._ZN6QDebug10maybeSpaceEv)
    i._ZN6QDebugC1E9QtMsgType                0x0002188e   Section       92  qsvghandler.o(i._ZN6QDebugC1E9QtMsgType)
    i._ZN6QDebugC1E9QtMsgType.clean          0x000218ea   Section       24  qsvghandler.o(i._ZN6QDebugC1E9QtMsgType.clean)
    i._ZN6QDebugD1Ev                         0x00021902   Section      144  qsvghandler.o(i._ZN6QDebugD1Ev)
    i._ZN6QDebugD1Ev.clean                   0x00021992   Section       20  qsvghandler.o(i._ZN6QDebugD1Ev.clean)
    i._ZN6QDebuglsEPKc                       0x000219a6   Section       44  qsvghandler.o(i._ZN6QDebuglsEPKc)
    i._ZN6QDebuglsEPKc.clean                 0x000219d2   Section       10  qsvghandler.o(i._ZN6QDebuglsEPKc.clean)
    i._ZN6QDebuglsERK7QString                0x000219dc   Section       38  qsvghandler.o(i._ZN6QDebuglsERK7QString)
    i._ZN6QRectFC1ERK5QRect                  0x00021a02   Section       70  qsvggraphics.o(i._ZN6QRectFC1ERK5QRect)
    i._ZN6QRectFC1ERK7QPointFRK6QSizeF       0x00021a48   Section       26  qsvgtinydocument.o(i._ZN6QRectFC1ERK7QPointFRK6QSizeF)
    i._ZN6QRectFC1ERKS_                      0x00021a62   Section       18  qsvggraphics.o(i._ZN6QRectFC1ERKS_)
    i._ZN6QRectFC1Effff                      0x00021a74   Section       14  qsvghandler.o(i._ZN6QRectFC1Effff)
    i._ZN6QRectFC1Ev                         0x00021a82   Section       12  qsvgtinydocument.o(i._ZN6QRectFC1Ev)
    i._ZN7QPointFC1Ev                        0x00021a8e   Section        8  qsvghandler.o(i._ZN7QPointFC1Ev)
    i._ZN7QStringC1ERK13QLatin1String        0x00021a96   Section       26  qsvghandler.o(i._ZN7QStringC1ERK13QLatin1String)
    i._ZN7QStringC1ERKS_                     0x00021ab0   Section       52  qsvghandler.o(i._ZN7QStringC1ERKS_)
    i._ZN7QStringC1Ev                        0x00021ae4   Section       24  qsvggraphics.o(i._ZN7QStringC1Ev)
    i._ZN7QStringD1Ev                        0x00021afc   Section       24  qsvggraphics.o(i._ZN7QStringD1Ev)
    i._ZN7QStringaSERK13QLatin1String        0x00021b14   Section       42  qsvggenerator.o(i._ZN7QStringaSERK13QLatin1String)
    i._ZN7QStringaSERK13QLatin1String.clean  0x00021b3e   Section       10  qsvggenerator.o(i._ZN7QStringaSERK13QLatin1String.clean)
    i._ZN7QStringpLE5QChar                   0x00021b48   Section       94  qsvghandler.o(i._ZN7QStringpLE5QChar)
    i._ZN7QSvgArcD0Ev                        0x00021ba6   Section       22  qsvggraphics.o(i._ZN7QSvgArcD0Ev)
    i._ZN7QSvgArcD1Ev                        0x00021bbc   Section       36  qsvggraphics.o(i._ZN7QSvgArcD1Ev)
    i._ZN7QSvgArcD1Ev.clean                  0x00021be0   Section       10  qsvggraphics.o(i._ZN7QSvgArcD1Ev.clean)
    i._ZN7QSvgUseD0Ev                        0x00021bea   Section       24  qsvggraphics.o(i._ZN7QSvgUseD0Ev)
    i._ZN7QSvgUseD1Ev                        0x00021c02   Section       14  qsvggraphics.o(i._ZN7QSvgUseD1Ev)
    i._ZN8QPainter11drawPolygonERK9QPolygonFN2Qt8FillRuleE 0x00021c10   Section       34  qsvggraphics.o(i._ZN8QPainter11drawPolygonERK9QPolygonFN2Qt8FillRuleE)
    i._ZN8QPainter9translateEff              0x00021c32   Section       28  qsvgfont.o(i._ZN8QPainter9translateEff)
    i._ZN8QSvgDefsD0Ev                       0x00021c4e   Section       24  qsvgstructure.o(i._ZN8QSvgDefsD0Ev)
    i._ZN8QSvgDefsD1Ev                       0x00021c66   Section       14  qsvgstructure.o(i._ZN8QSvgDefsD1Ev)
    i._ZN8QSvgFontD0Ev                       0x00021c74   Section       22  qsvgfont.o(i._ZN8QSvgFontD0Ev)
    i._ZN8QSvgFontD1Ev                       0x00021c8c   Section       40  qsvgfont.o(i._ZN8QSvgFontD1Ev)
    i._ZN8QSvgFontD1Ev.clean                 0x00021cb4   Section       22  qsvgfont.o(i._ZN8QSvgFontD1Ev.clean)
    i._ZN8QSvgLineD0Ev                       0x00021cca   Section       24  qsvggraphics.o(i._ZN8QSvgLineD0Ev)
    i._ZN8QSvgLineD1Ev                       0x00021ce2   Section       14  qsvggraphics.o(i._ZN8QSvgLineD1Ev)
    i._ZN8QSvgPathD0Ev                       0x00021cf0   Section       22  qsvggraphics.o(i._ZN8QSvgPathD0Ev)
    i._ZN8QSvgPathD1Ev                       0x00021d08   Section       36  qsvggraphics.o(i._ZN8QSvgPathD1Ev)
    i._ZN8QSvgPathD1Ev.clean                 0x00021d2c   Section       10  qsvggraphics.o(i._ZN8QSvgPathD1Ev.clean)
    i._ZN8QSvgRectD0Ev                       0x00021d36   Section       24  qsvggraphics.o(i._ZN8QSvgRectD0Ev)
    i._ZN8QSvgRectD1Ev                       0x00021d4e   Section       14  qsvggraphics.o(i._ZN8QSvgRectD1Ev)
    i._ZN8QVariantC1Ev                       0x00021d5c   Section       38  qsvghandler.o(i._ZN8QVariantC1Ev)
    i._ZN9QHashData8willGrowEv               0x00021d82   Section       32  qsvgtinydocument.o(i._ZN9QHashData8willGrowEv)
    i._ZN9QPolygonFC1ERKS_                   0x00021da2   Section       38  qsvggraphics.o(i._ZN9QPolygonFC1ERKS_)
    i._ZN9QPolygonFC1Ei                      0x00021dc8   Section       18  qsvghandler.o(i._ZN9QPolygonFC1Ei)
    i._ZN9QPolygonFD1Ev                      0x00021dda   Section       14  qsvggraphics.o(i._ZN9QPolygonFD1Ev)
    i._ZN9QSvgGlyphC1ERKS_                   0x00021de8   Section       28  qsvgfont.o(i._ZN9QSvgGlyphC1ERKS_)
    i._ZN9QSvgGlyphD1Ev                      0x00021e04   Section       16  qsvgfont.o(i._ZN9QSvgGlyphD1Ev)
    i._ZN9QSvgImageD0Ev                      0x00021e14   Section       22  qsvggraphics.o(i._ZN9QSvgImageD0Ev)
    i._ZN9QSvgImageD1Ev                      0x00021e2c   Section       36  qsvggraphics.o(i._ZN9QSvgImageD1Ev)
    i._ZN9QSvgImageD1Ev.clean                0x00021e50   Section       10  qsvggraphics.o(i._ZN9QSvgImageD1Ev.clean)
    i._ZN9QSvgStyleC1Ev                      0x00021e5c   Section      332  qsvgnode.o(i._ZN9QSvgStyleC1Ev)
    i._ZN9QSvgStyleC1Ev.clean                0x00021fa8   Section      102  qsvgnode.o(i._ZN9QSvgStyleC1Ev.clean)
    i._ZN9QSvgTspan4drawEP8QPainterR15QSvgExtraStates 0x00022010   Section       76  qsvghandler.o(i._ZN9QSvgTspan4drawEP8QPainterR15QSvgExtraStates)
    i._ZN9QSvgTspanD0Ev                      0x0002205c   Section       22  qsvggraphics.o(i._ZN9QSvgTspanD0Ev)
    i._ZN9QSvgTspanD1Ev                      0x00022074   Section       36  qsvggraphics.o(i._ZN9QSvgTspanD1Ev)
    i._ZN9QSvgTspanD1Ev.clean                0x00022098   Section       10  qsvggraphics.o(i._ZN9QSvgTspanD1Ev.clean)
    i._ZN9QSvgVideoD0Ev                      0x000220a2   Section       24  qsvggraphics.o(i._ZN9QSvgVideoD0Ev)
    i._ZN9QSvgVideoD1Ev                      0x000220ba   Section       14  qsvggraphics.o(i._ZN9QSvgVideoD1Ev)
    i._ZNK10QStringRef2atEi                  0x000220c8   Section      136  qsvghandler.o(i._ZNK10QStringRef2atEi)
    i._ZNK10QStringRef7isEmptyEv             0x00022150   Section       16  qsvghandler.o(i._ZNK10QStringRef7isEmptyEv)
    i._ZNK10QStringRef7unicodeEv             0x00022160   Section       32  qsvghandler.o(i._ZNK10QStringRef7unicodeEv)
    i._ZNK10QStringRef9constDataEv           0x00022180   Section       12  qsvghandler.o(i._ZNK10QStringRef9constDataEv)
    i._ZNK11QSvgHandler2okEv                 0x0002218c   Section       44  qsvgtinydocument.o(i._ZNK11QSvgHandler2okEv)
    i._ZNK12QPaintDevice7devTypeEv           0x000221b8   Section        6  qsvggenerator.o(i._ZNK12QPaintDevice7devTypeEv)
    i._ZNK12QPainterPath12elementCountEv     0x000221be   Section       54  qsvggenerator.o(i._ZNK12QPainterPath12elementCountEv)
    i._ZNK12QPainterPath9elementAtEi         0x000221f4   Section      332  qsvggenerator.o(i._ZNK12QPainterPath9elementAtEi)
    i._ZNK15QBasicAtomicInteqEi              0x00022340   Section       16  qsvggraphics.o(i._ZNK15QBasicAtomicInteqEi)
    i._ZNK15QBasicAtomicIntneEi              0x00022350   Section       16  qsvggraphics.o(i._ZNK15QBasicAtomicIntneEi)
    i._ZNK15QSvgPaintEngine4sizeEv           0x00022360   Section       22  qsvggenerator.o(i._ZNK15QSvgPaintEngine4sizeEv)
    i._ZNK15QSvgPaintEngine4typeEv           0x00022376   Section        6  qsvggenerator.o(i._ZNK15QSvgPaintEngine4typeEv)
    i._ZNK16QSvgTinyDocument7viewBoxEv       0x0002237c   Section       40  qsvgtinydocument.o(i._ZNK16QSvgTinyDocument7viewBoxEv)
    i._ZNK17QSvgStyleSelector10isNullNodeEN4QCss13StyleSelector7NodePtrE 0x000223a4   Section       18  qsvghandler.o(i._ZNK17QSvgStyleSelector10isNullNodeEN4QCss13StyleSelector7NodePtrE)
    i._ZNK17QSvgStyleSelector10nodeToNameEP8QSvgNode 0x000223b8   Section       44  qsvghandler.o(i._ZNK17QSvgStyleSelector10nodeToNameEP8QSvgNode)
    i._ZNK17QSvgStyleSelector10parentNodeEN4QCss13StyleSelector7NodePtrE 0x000223e4   Section       44  qsvghandler.o(i._ZNK17QSvgStyleSelector10parentNodeEN4QCss13StyleSelector7NodePtrE)
    i._ZNK17QSvgStyleSelector13duplicateNodeEN4QCss13StyleSelector7NodePtrE 0x00022410   Section       18  qsvghandler.o(i._ZNK17QSvgStyleSelector13duplicateNodeEN4QCss13StyleSelector7NodePtrE)
    i._ZNK17QSvgStyleSelector13hasAttributesEN4QCss13StyleSelector7NodePtrE 0x00022422   Section      112  qsvghandler.o(i._ZNK17QSvgStyleSelector13hasAttributesEN4QCss13StyleSelector7NodePtrE)
    i._ZNK17QSvgStyleSelector13hasAttributesEN4QCss13StyleSelector7NodePtrE.clean 0x00022492   Section       26  qsvghandler.o(i._ZNK17QSvgStyleSelector13hasAttributesEN4QCss13StyleSelector7NodePtrE.clean)
    i._ZNK17QSvgStyleSelector14nodeNameEqualsEN4QCss13StyleSelector7NodePtrERK7QString 0x000224ac   Section       70  qsvghandler.o(i._ZNK17QSvgStyleSelector14nodeNameEqualsEN4QCss13StyleSelector7NodePtrERK7QString)
    i._ZNK17QSvgStyleSelector14nodeNameEqualsEN4QCss13StyleSelector7NodePtrERK7QString.clean 0x000224f2   Section       10  qsvghandler.o(i._ZNK17QSvgStyleSelector14nodeNameEqualsEN4QCss13StyleSelector7NodePtrERK7QString.clean)
    i._ZNK17QSvgStyleSelector19previousSiblingNodeEN4QCss13StyleSelector7NodePtrE 0x000224fc   Section      114  qsvghandler.o(i._ZNK17QSvgStyleSelector19previousSiblingNodeEN4QCss13StyleSelector7NodePtrE)
    i._ZNK17QSvgStyleSelector7nodeIdsEN4QCss13StyleSelector7NodePtrE 0x0002256e   Section       76  qsvghandler.o(i._ZNK17QSvgStyleSelector7nodeIdsEN4QCss13StyleSelector7NodePtrE)
    i._ZNK17QSvgStyleSelector7nodeIdsEN4QCss13StyleSelector7NodePtrE.clean 0x000225ba   Section       24  qsvghandler.o(i._ZNK17QSvgStyleSelector7nodeIdsEN4QCss13StyleSelector7NodePtrE.clean)
    i._ZNK17QSvgStyleSelector8freeNodeEN4QCss13StyleSelector7NodePtrE 0x000225d2   Section        8  qsvghandler.o(i._ZNK17QSvgStyleSelector8freeNodeEN4QCss13StyleSelector7NodePtrE)
    i._ZNK17QSvgStyleSelector9attributeEN4QCss13StyleSelector7NodePtrERK7QString 0x000225dc   Section      208  qsvghandler.o(i._ZNK17QSvgStyleSelector9attributeEN4QCss13StyleSelector7NodePtrERK7QString)
    i._ZNK17QSvgStyleSelector9attributeEN4QCss13StyleSelector7NodePtrERK7QString.clean 0x000226ac   Section       18  qsvghandler.o(i._ZNK17QSvgStyleSelector9attributeEN4QCss13StyleSelector7NodePtrERK7QString.clean)
    i._ZNK17QSvgStyleSelector9nodeNamesEN4QCss13StyleSelector7NodePtrE 0x000226be   Section       70  qsvghandler.o(i._ZNK17QSvgStyleSelector9nodeNamesEN4QCss13StyleSelector7NodePtrE)
    i._ZNK17QSvgStyleSelector9nodeNamesEN4QCss13StyleSelector7NodePtrE.clean 0x00022704   Section       20  qsvghandler.o(i._ZNK17QSvgStyleSelector9nodeNamesEN4QCss13StyleSelector7NodePtrE.clean)
    i._ZNK19QXmlStreamStringRefcv10QStringRefEv 0x00022718   Section       14  qsvghandler.o(i._ZNK19QXmlStreamStringRefcv10QStringRefEv)
    i._ZNK4QCss6Parser6symbolEv              0x00022726   Section       16  qsvghandler.o(i._ZNK4QCss6Parser6symbolEv)
    i._ZNK4QCss6Parser7hasNextEv             0x00022736   Section       22  qsvghandler.o(i._ZNK4QCss6Parser7hasNextEv)
    i._ZNK5QChar8toLatin1Ev                  0x0002274c   Section       20  qsvghandler.o(i._ZNK5QChar8toLatin1Ev)
    i._ZNK5QTime6isNullEv                    0x00022760   Section       16  qsvgtinydocument.o(i._ZNK5QTime6isNullEv)
    i._ZNK6QRectF6isNullEv                   0x00022770   Section       68  qsvgtinydocument.o(i._ZNK6QRectF6isNullEv)
    i._ZNK6QRectF8adjustedEffff              0x000227b4   Section      100  qgraphicssvgitem.o(i._ZNK6QRectF8adjustedEffff)
    i._ZNK7QMatrix10isIdentityEv             0x00022818   Section       92  qsvghandler.o(i._ZNK7QMatrix10isIdentityEv)
    i._ZNK7QPointF6isNullEv                  0x00022874   Section       32  qsvggraphics.o(i._ZNK7QPointF6isNullEv)
    i._ZNK7QString2atEi                      0x00022894   Section      140  qsvghandler.o(i._ZNK7QString2atEi)
    i._ZNK7QString3argEiiiRK5QChar           0x00022920   Section       36  qsvggenerator.o(i._ZNK7QString3argEiiiRK5QChar)
    i._ZNK7QString6isNullEv                  0x00022944   Section       24  qsvghandler.o(i._ZNK7QString6isNullEv)
    i._ZNK7QString7isEmptyEv                 0x0002295c   Section       18  qsvggraphics.o(i._ZNK7QString7isEmptyEv)
    i._ZNK7QString8constEndEv                0x0002296e   Section       16  qsvgfont.o(i._ZNK7QString8constEndEv)
    i._ZNK8QPalette10windowTextEv            0x0002297e   Section       18  qgraphicssvgitem.o(i._ZNK8QPalette10windowTextEv)
    i._ZNK8QSvgNode6nodeIdEv                 0x00022990   Section       20  qsvghandler.o(i._ZNK8QSvgNode6nodeIdEv)
    i._ZNK9QListData2atEi                    0x000229a4   Section       20  qgraphicssvgitem.o(i._ZNK9QListData2atEi)
    i._ZNK9QListData3endEv                   0x000229b8   Section       16  qsvggraphics.o(i._ZNK9QListData3endEv)
    i._ZNK9QListData4sizeEv                  0x000229c8   Section       14  qgraphicssvgitem.o(i._ZNK9QListData4sizeEv)
    i._ZNK9QListData5beginEv                 0x000229d6   Section       16  qsvggraphics.o(i._ZNK9QListData5beginEv)
    i._ZNK9QSvgTspan4typeEv                  0x000229e6   Section        6  qsvggraphics.o(i._ZNK9QSvgTspan4typeEv)
    i._ZThn8_N16QGraphicsSvgItemD0Ev         0x000229ec   Section       14  qgraphicssvgitem.o(i._ZThn8_N16QGraphicsSvgItemD0Ev)
    i._ZThn8_N16QGraphicsSvgItemD1Ev         0x000229fa   Section       18  qgraphicssvgitem.o(i._ZThn8_N16QGraphicsSvgItemD1Ev)
    i._ZdlPvS_                               0x00022a0c   Section        2  qsvggraphics.o(i._ZdlPvS_)
    i._Zeq5QCharS_                           0x00022a0e   Section       24  qsvghandler.o(i._Zeq5QCharS_)
    i._ZeqRK10QStringRefRK13QLatin1String    0x00022a26   Section       16  qsvghandler.o(i._ZeqRK10QStringRefRK13QLatin1String)
    i._ZlsR11QTextStreamPFS0_S0_E            0x00022a36   Section       12  qsvggenerator.o(i._ZlsR11QTextStreamPFS0_S0_E)
    i._Zne5QCharS_                           0x00022a42   Section       24  qsvghandler.o(i._Zne5QCharS_)
    i._ZneRK10QStringRefRK13QLatin1String    0x00022a5a   Section       22  qsvghandler.o(i._ZneRK10QStringRefRK13QLatin1String)
    i._ZngRK7QPointF                         0x00022a70   Section       32  qsvggraphics.o(i._ZngRK7QPointF)
    i._ZnwjPv                                0x00022a90   Section        6  qsvggraphics.o(i._ZnwjPv)
    t._Z10qDeleteAllIN5QListIP8QSvgNodeE14const_iteratorEEvT_S5_ 0x00022a96   Section       56  qsvgstructure.o(t._Z10qDeleteAllIN5QListIP8QSvgNodeE14const_iteratorEEvT_S5_)
    t._Z4qAbsIfET_RKS0_                      0x00022ace   Section       28  qsvghandler.o(t._Z4qAbsIfET_RKS0_)
    t._Z4qMaxIfERKT_S2_S2_                   0x00022aea   Section       24  qsvggraphics.o(t._Z4qMaxIfERKT_S2_S2_)
    t._Z4qMinIfERKT_S2_S2_                   0x00022b02   Section       24  qsvggraphics.o(t._Z4qMinIfERKT_S2_S2_)
    t._Z4qMinIiERKT_S2_S2_                   0x00022b1a   Section       18  qsvggraphics.o(t._Z4qMinIiERKT_S2_S2_)
    t._ZN10QMultiHashI7QStringN4QCss9StyleRuleEEC1Ev 0x00022b2c   Section       28  qsvghandler.o(t._ZN10QMultiHashI7QStringN4QCss9StyleRuleEEC1Ev)
    t._ZN14QScopedPointerI20QSvgGeneratorPrivate21QScopedPointerDeleterIS0_EED1Ev 0x00022b48   Section       40  qsvggenerator.o(t._ZN14QScopedPointerI20QSvgGeneratorPrivate21QScopedPointerDeleterIS0_EED1Ev)
    t._ZN14QSvgRefCounterI13QSvgFillStyleED1Ev 0x00022b70   Section       20  qsvgnode.o(t._ZN14QSvgRefCounterI13QSvgFillStyleED1Ev)
    t._ZN14QSvgRefCounterI13QSvgFontStyleED1Ev 0x00022b84   Section       20  qsvgnode.o(t._ZN14QSvgRefCounterI13QSvgFontStyleED1Ev)
    t._ZN14QSvgRefCounterI15QSvgCompOpStyleED1Ev 0x00022b98   Section       20  qsvgstyle.o(t._ZN14QSvgRefCounterI15QSvgCompOpStyleED1Ev)
    t._ZN14QSvgRefCounterI15QSvgStrokeStyleED1Ev 0x00022bac   Section       20  qsvgnode.o(t._ZN14QSvgRefCounterI15QSvgStrokeStyleED1Ev)
    t._ZN14QSvgRefCounterI16QSvgAnimateColorED1Ev 0x00022bc0   Section       20  qsvgnode.o(t._ZN14QSvgRefCounterI16QSvgAnimateColorED1Ev)
    t._ZN14QSvgRefCounterI16QSvgOpacityStyleED1Ev 0x00022bd4   Section       20  qsvgstyle.o(t._ZN14QSvgRefCounterI16QSvgOpacityStyleED1Ev)
    t._ZN14QSvgRefCounterI16QSvgQualityStyleED1Ev 0x00022be8   Section       20  qsvgnode.o(t._ZN14QSvgRefCounterI16QSvgQualityStyleED1Ev)
    t._ZN14QSvgRefCounterI17QSvgGradientStyleED1Ev 0x00022bfc   Section       20  qsvgnode.o(t._ZN14QSvgRefCounterI17QSvgGradientStyleED1Ev)
    t._ZN14QSvgRefCounterI17QSvgStylePropertyED1Ev 0x00022c10   Section       20  qsvghandler.o(t._ZN14QSvgRefCounterI17QSvgStylePropertyED1Ev)
    t._ZN14QSvgRefCounterI17QSvgStylePropertyEaSEPS0_ 0x00022c24   Section       38  qsvghandler.o(t._ZN14QSvgRefCounterI17QSvgStylePropertyEaSEPS0_)
    t._ZN14QSvgRefCounterI18QSvgTransformStyleED1Ev 0x00022c4a   Section       20  qsvgnode.o(t._ZN14QSvgRefCounterI18QSvgTransformStyleED1Ev)
    t._ZN14QSvgRefCounterI19QSvgSolidColorStyleED1Ev 0x00022c5e   Section       20  qsvgnode.o(t._ZN14QSvgRefCounterI19QSvgSolidColorStyleED1Ev)
    t._ZN14QSvgRefCounterI20QSvgAnimateTransformEC1ERKS1_ 0x00022c72   Section       22  qsvgnode.o(t._ZN14QSvgRefCounterI20QSvgAnimateTransformEC1ERKS1_)
    t._ZN14QSvgRefCounterI20QSvgAnimateTransformED1Ev 0x00022c88   Section       20  qsvgnode.o(t._ZN14QSvgRefCounterI20QSvgAnimateTransformED1Ev)
    t._ZN14QSvgRefCounterI21QSvgFillStylePropertyEC1ERKS1_ 0x00022c9c   Section       22  qsvgtinydocument.o(t._ZN14QSvgRefCounterI21QSvgFillStylePropertyEC1ERKS1_)
    t._ZN14QSvgRefCounterI21QSvgFillStylePropertyED1Ev 0x00022cb2   Section       20  qsvgtinydocument.o(t._ZN14QSvgRefCounterI21QSvgFillStylePropertyED1Ev)
    t._ZN14QSvgRefCounterI21QSvgViewportFillStyleED1Ev 0x00022cc6   Section       20  qsvgnode.o(t._ZN14QSvgRefCounterI21QSvgViewportFillStyleED1Ev)
    t._ZN14QSvgRefCounterI8QSvgFontEC1ERKS1_ 0x00022cda   Section       22  qsvgtinydocument.o(t._ZN14QSvgRefCounterI8QSvgFontEC1ERKS1_)
    t._ZN14QSvgRefCounterI8QSvgFontED1Ev     0x00022cf0   Section       20  qsvgtinydocument.o(t._ZN14QSvgRefCounterI8QSvgFontED1Ev)
    t._ZN15QVarLengthArrayIfLi8EE6appendERKf 0x00022d04   Section       46  qsvghandler.o(t._ZN15QVarLengthArrayIfLi8EE6appendERKf)
    t._ZN15QVarLengthArrayIfLi8EE7reallocEii 0x00022d34   Section      160  qsvghandler.o(t._ZN15QVarLengthArrayIfLi8EE7reallocEii)
    t._ZN15QVarLengthArrayIfLi8EE7reallocEii.clean 0x00022dd4   Section        4  qsvghandler.o(t._ZN15QVarLengthArrayIfLi8EE7reallocEii.clean)
    t._ZN15QVarLengthArrayIfLi8EEC1Ei        0x00022dd8   Section       58  qsvghandler.o(t._ZN15QVarLengthArrayIfLi8EEC1Ei)
    t._ZN15QVarLengthArrayIfLi8EED1Ev        0x00022e12   Section       26  qsvghandler.o(t._ZN15QVarLengthArrayIfLi8EED1Ev)
    t._ZN15QVarLengthArrayIfLi8EEixEi        0x00022e2c   Section       48  qsvghandler.o(t._ZN15QVarLengthArrayIfLi8EEixEi)
    t._ZN28QExplicitlySharedDataPointerIN4QCss11Declaration15DeclarationDataEED1Ev 0x00022e5c   Section       70  qsvghandler.o(t._ZN28QExplicitlySharedDataPointerIN4QCss11Declaration15DeclarationDataEED1Ev)
    t._ZN28QExplicitlySharedDataPointerIN4QCss11Declaration15DeclarationDataEED1Ev.clean 0x00022ea2   Section       22  qsvghandler.o(t._ZN28QExplicitlySharedDataPointerIN4QCss11Declaration15DeclarationDataEED1Ev.clean)
    t._ZN4QMapIN2Qt11GestureTypeE6QFlagsINS0_11GestureFlagEEE8freeDataEP8QMapData 0x00022eb8   Section       48  qgraphicssvgitem.o(t._ZN4QMapIN2Qt11GestureTypeE6QFlagsINS0_11GestureFlagEEE8freeDataEP8QMapData)
    t._ZN4QMapIN2Qt11GestureTypeE6QFlagsINS0_11GestureFlagEEED1Ev 0x00022ee8   Section       38  qgraphicssvgitem.o(t._ZN4QMapIN2Qt11GestureTypeE6QFlagsINS0_11GestureFlagEEED1Ev)
    t._ZN4QMapIP7QWidget5QRectE8freeDataEP8QMapData 0x00022f0e   Section       48  qgraphicssvgitem.o(t._ZN4QMapIP7QWidget5QRectE8freeDataEP8QMapData)
    t._ZN4QMapIP7QWidget5QRectED1Ev          0x00022f3e   Section       38  qgraphicssvgitem.o(t._ZN4QMapIP7QWidget5QRectED1Ev)
    t._ZN5QHashI5QChar9QSvgGlyphE11deleteNode2EPN9QHashData4NodeE 0x00022f64   Section       24  qsvgfont.o(t._ZN5QHashI5QChar9QSvgGlyphE11deleteNode2EPN9QHashData4NodeE)
    t._ZN5QHashI5QChar9QSvgGlyphE13detach_helperEv 0x00022f7c   Section       60  qsvgfont.o(t._ZN5QHashI5QChar9QSvgGlyphE13detach_helperEv)
    t._ZN5QHashI5QChar9QSvgGlyphE13duplicateNodeEPN9QHashData4NodeEPv 0x00022fb8   Section       46  qsvgfont.o(t._ZN5QHashI5QChar9QSvgGlyphE13duplicateNodeEPN9QHashData4NodeEPv)
    t._ZN5QHashI5QChar9QSvgGlyphE13duplicateNodeEPN9QHashData4NodeEPv.clean 0x00022fe6   Section       14  qsvgfont.o(t._ZN5QHashI5QChar9QSvgGlyphE13duplicateNodeEPN9QHashData4NodeEPv.clean)
    t._ZN5QHashI5QChar9QSvgGlyphE6insertERKS0_RKS1_ 0x00022ff4   Section      250  qsvgfont.o(t._ZN5QHashI5QChar9QSvgGlyphE6insertERKS0_RKS1_)
    t._ZN5QHashI5QChar9QSvgGlyphE6insertERKS0_RKS1_.clean 0x000230ee   Section       14  qsvgfont.o(t._ZN5QHashI5QChar9QSvgGlyphE6insertERKS0_RKS1_.clean)
    t._ZN5QHashI5QChar9QSvgGlyphE8freeDataEP9QHashData 0x000230fc   Section       20  qsvgfont.o(t._ZN5QHashI5QChar9QSvgGlyphE8freeDataEP9QHashData)
    t._ZN5QHashI5QChar9QSvgGlyphED1Ev        0x00023110   Section       30  qsvgfont.o(t._ZN5QHashI5QChar9QSvgGlyphED1Ev)
    t._ZN5QHashI7QString14QSvgRefCounterI21QSvgFillStylePropertyEE11deleteNode2EPN9QHashData4NodeE 0x0002312e   Section       36  qsvgtinydocument.o(t._ZN5QHashI7QString14QSvgRefCounterI21QSvgFillStylePropertyEE11deleteNode2EPN9QHashData4NodeE)
    t._ZN5QHashI7QString14QSvgRefCounterI21QSvgFillStylePropertyEE11deleteNode2EPN9QHashData4NodeE.clean 0x00023152   Section       12  qsvgtinydocument.o(t._ZN5QHashI7QString14QSvgRefCounterI21QSvgFillStylePropertyEE11deleteNode2EPN9QHashData4NodeE.clean)
    t._ZN5QHashI7QString14QSvgRefCounterI21QSvgFillStylePropertyEE13detach_helperEv 0x00023160   Section       60  qsvgtinydocument.o(t._ZN5QHashI7QString14QSvgRefCounterI21QSvgFillStylePropertyEE13detach_helperEv)
    t._ZN5QHashI7QString14QSvgRefCounterI21QSvgFillStylePropertyEE13duplicateNodeEPN9QHashData4NodeEPv 0x0002319c   Section       46  qsvgtinydocument.o(t._ZN5QHashI7QString14QSvgRefCounterI21QSvgFillStylePropertyEE13duplicateNodeEPN9QHashData4NodeEPv)
    t._ZN5QHashI7QString14QSvgRefCounterI21QSvgFillStylePropertyEE13duplicateNodeEPN9QHashData4NodeEPv.clean 0x000231ca   Section       14  qsvgtinydocument.o(t._ZN5QHashI7QString14QSvgRefCounterI21QSvgFillStylePropertyEE13duplicateNodeEPN9QHashData4NodeEPv.clean)
    t._ZN5QHashI7QString14QSvgRefCounterI21QSvgFillStylePropertyEE6insertERKS0_RKS3_ 0x000231d8   Section      234  qsvgtinydocument.o(t._ZN5QHashI7QString14QSvgRefCounterI21QSvgFillStylePropertyEE6insertERKS0_RKS3_)
    t._ZN5QHashI7QString14QSvgRefCounterI21QSvgFillStylePropertyEE6insertERKS0_RKS3_.clean 0x000232c2   Section       14  qsvgtinydocument.o(t._ZN5QHashI7QString14QSvgRefCounterI21QSvgFillStylePropertyEE6insertERKS0_RKS3_.clean)
    t._ZN5QHashI7QString14QSvgRefCounterI21QSvgFillStylePropertyEE8freeDataEP9QHashData 0x000232d0   Section       20  qsvgtinydocument.o(t._ZN5QHashI7QString14QSvgRefCounterI21QSvgFillStylePropertyEE8freeDataEP9QHashData)
    t._ZN5QHashI7QString14QSvgRefCounterI21QSvgFillStylePropertyEED1Ev 0x000232e4   Section       30  qsvgtinydocument.o(t._ZN5QHashI7QString14QSvgRefCounterI21QSvgFillStylePropertyEED1Ev)
    t._ZN5QHashI7QString14QSvgRefCounterI8QSvgFontEE11deleteNode2EPN9QHashData4NodeE 0x00023302   Section       36  qsvgtinydocument.o(t._ZN5QHashI7QString14QSvgRefCounterI8QSvgFontEE11deleteNode2EPN9QHashData4NodeE)
    t._ZN5QHashI7QString14QSvgRefCounterI8QSvgFontEE11deleteNode2EPN9QHashData4NodeE.clean 0x00023326   Section       12  qsvgtinydocument.o(t._ZN5QHashI7QString14QSvgRefCounterI8QSvgFontEE11deleteNode2EPN9QHashData4NodeE.clean)
    t._ZN5QHashI7QString14QSvgRefCounterI8QSvgFontEE13detach_helperEv 0x00023334   Section       60  qsvgtinydocument.o(t._ZN5QHashI7QString14QSvgRefCounterI8QSvgFontEE13detach_helperEv)
    t._ZN5QHashI7QString14QSvgRefCounterI8QSvgFontEE13duplicateNodeEPN9QHashData4NodeEPv 0x00023370   Section       46  qsvgtinydocument.o(t._ZN5QHashI7QString14QSvgRefCounterI8QSvgFontEE13duplicateNodeEPN9QHashData4NodeEPv)
    t._ZN5QHashI7QString14QSvgRefCounterI8QSvgFontEE13duplicateNodeEPN9QHashData4NodeEPv.clean 0x0002339e   Section       14  qsvgtinydocument.o(t._ZN5QHashI7QString14QSvgRefCounterI8QSvgFontEE13duplicateNodeEPN9QHashData4NodeEPv.clean)
    t._ZN5QHashI7QString14QSvgRefCounterI8QSvgFontEE6insertERKS0_RKS3_ 0x000233ac   Section      234  qsvgtinydocument.o(t._ZN5QHashI7QString14QSvgRefCounterI8QSvgFontEE6insertERKS0_RKS3_)
    t._ZN5QHashI7QString14QSvgRefCounterI8QSvgFontEE6insertERKS0_RKS3_.clean 0x00023496   Section       14  qsvgtinydocument.o(t._ZN5QHashI7QString14QSvgRefCounterI8QSvgFontEE6insertERKS0_RKS3_.clean)
    t._ZN5QHashI7QString14QSvgRefCounterI8QSvgFontEE8freeDataEP9QHashData 0x000234a4   Section       20  qsvgtinydocument.o(t._ZN5QHashI7QString14QSvgRefCounterI8QSvgFontEE8freeDataEP9QHashData)
    t._ZN5QHashI7QString14QSvgRefCounterI8QSvgFontEED1Ev 0x000234b8   Section       30  qsvgtinydocument.o(t._ZN5QHashI7QString14QSvgRefCounterI8QSvgFontEED1Ev)
    t._ZN5QHashI7QStringN4QCss9StyleRuleEE11deleteNode2EPN9QHashData4NodeE 0x000234d6   Section       36  qsvghandler.o(t._ZN5QHashI7QStringN4QCss9StyleRuleEE11deleteNode2EPN9QHashData4NodeE)
    t._ZN5QHashI7QStringN4QCss9StyleRuleEE11deleteNode2EPN9QHashData4NodeE.clean 0x000234fa   Section       12  qsvghandler.o(t._ZN5QHashI7QStringN4QCss9StyleRuleEE11deleteNode2EPN9QHashData4NodeE.clean)
    t._ZN5QHashI7QStringN4QCss9StyleRuleEE13detach_helperEv 0x00023508   Section       60  qsvghandler.o(t._ZN5QHashI7QStringN4QCss9StyleRuleEE13detach_helperEv)
    t._ZN5QHashI7QStringN4QCss9StyleRuleEE13duplicateNodeEPN9QHashData4NodeEPv 0x00023544   Section       76  qsvghandler.o(t._ZN5QHashI7QStringN4QCss9StyleRuleEE13duplicateNodeEPN9QHashData4NodeEPv)
    t._ZN5QHashI7QStringN4QCss9StyleRuleEE13duplicateNodeEPN9QHashData4NodeEPv.clean 0x00023590   Section       26  qsvghandler.o(t._ZN5QHashI7QStringN4QCss9StyleRuleEE13duplicateNodeEPN9QHashData4NodeEPv.clean)
    t._ZN5QHashI7QStringN4QCss9StyleRuleEE8freeDataEP9QHashData 0x000235ac   Section       20  qsvghandler.o(t._ZN5QHashI7QStringN4QCss9StyleRuleEE8freeDataEP9QHashData)
    t._ZN5QHashI7QStringN4QCss9StyleRuleEED1Ev 0x000235c0   Section       30  qsvghandler.o(t._ZN5QHashI7QStringN4QCss9StyleRuleEED1Ev)
    t._ZN5QHashI7QStringP8QSvgNodeE11deleteNode2EPN9QHashData4NodeE 0x000235de   Section       24  qsvgstructure.o(t._ZN5QHashI7QStringP8QSvgNodeE11deleteNode2EPN9QHashData4NodeE)
    t._ZN5QHashI7QStringP8QSvgNodeE13detach_helperEv 0x000235f8   Section       60  qsvgtinydocument.o(t._ZN5QHashI7QStringP8QSvgNodeE13detach_helperEv)
    t._ZN5QHashI7QStringP8QSvgNodeE13duplicateNodeEPN9QHashData4NodeEPv 0x00023634   Section       46  qsvgtinydocument.o(t._ZN5QHashI7QStringP8QSvgNodeE13duplicateNodeEPN9QHashData4NodeEPv)
    t._ZN5QHashI7QStringP8QSvgNodeE13duplicateNodeEPN9QHashData4NodeEPv.clean 0x00023662   Section       14  qsvgtinydocument.o(t._ZN5QHashI7QStringP8QSvgNodeE13duplicateNodeEPN9QHashData4NodeEPv.clean)
    t._ZN5QHashI7QStringP8QSvgNodeE6insertERKS0_RKS2_ 0x00023670   Section      194  qsvgtinydocument.o(t._ZN5QHashI7QStringP8QSvgNodeE6insertERKS0_RKS2_)
    t._ZN5QHashI7QStringP8QSvgNodeE6insertERKS0_RKS2_.clean 0x00023732   Section       14  qsvgtinydocument.o(t._ZN5QHashI7QStringP8QSvgNodeE6insertERKS0_RKS2_.clean)
    t._ZN5QHashI7QStringP8QSvgNodeE8freeDataEP9QHashData 0x00023740   Section       20  qsvgstructure.o(t._ZN5QHashI7QStringP8QSvgNodeE8freeDataEP9QHashData)
    t._ZN5QHashI7QStringP8QSvgNodeED1Ev      0x00023754   Section       30  qsvgstructure.o(t._ZN5QHashI7QStringP8QSvgNodeED1Ev)
    t._ZN5QListI14QSvgRefCounterI20QSvgAnimateTransformEE13detach_helperEi 0x00023772   Section       94  qsvgnode.o(t._ZN5QListI14QSvgRefCounterI20QSvgAnimateTransformEE13detach_helperEi)
    t._ZN5QListI14QSvgRefCounterI20QSvgAnimateTransformEE13detach_helperEi.clean 0x000237d0   Section        8  qsvgnode.o(t._ZN5QListI14QSvgRefCounterI20QSvgAnimateTransformEE13detach_helperEi.clean)
    t._ZN5QListI14QSvgRefCounterI20QSvgAnimateTransformEE13detach_helperEv 0x000237d8   Section       16  qsvgnode.o(t._ZN5QListI14QSvgRefCounterI20QSvgAnimateTransformEE13detach_helperEv)
    t._ZN5QListI14QSvgRefCounterI20QSvgAnimateTransformEE13node_destructEPNS3_4NodeES5_ 0x000237e8   Section       38  qsvgnode.o(t._ZN5QListI14QSvgRefCounterI20QSvgAnimateTransformEE13node_destructEPNS3_4NodeES5_)
    t._ZN5QListI14QSvgRefCounterI20QSvgAnimateTransformEE14node_constructEPNS3_4NodeERKS2_ 0x0002380e   Section       34  qsvgnode.o(t._ZN5QListI14QSvgRefCounterI20QSvgAnimateTransformEE14node_constructEPNS3_4NodeERKS2_)
    t._ZN5QListI14QSvgRefCounterI20QSvgAnimateTransformEE14node_constructEPNS3_4NodeERKS2_.clean 0x00023830   Section       14  qsvgnode.o(t._ZN5QListI14QSvgRefCounterI20QSvgAnimateTransformEE14node_constructEPNS3_4NodeERKS2_.clean)
    t._ZN5QListI14QSvgRefCounterI20QSvgAnimateTransformEE18detach_helper_growEii 0x0002383e   Section      208  qsvgnode.o(t._ZN5QListI14QSvgRefCounterI20QSvgAnimateTransformEE18detach_helper_growEii)
    t._ZN5QListI14QSvgRefCounterI20QSvgAnimateTransformEE18detach_helper_growEii.clean 0x0002390e   Section       16  qsvgnode.o(t._ZN5QListI14QSvgRefCounterI20QSvgAnimateTransformEE18detach_helper_growEii.clean)
    t._ZN5QListI14QSvgRefCounterI20QSvgAnimateTransformEE4freeEPN9QListData4DataE 0x0002391e   Section       58  qsvgnode.o(t._ZN5QListI14QSvgRefCounterI20QSvgAnimateTransformEE4freeEPN9QListData4DataE)
    t._ZN5QListI14QSvgRefCounterI20QSvgAnimateTransformEE6appendERKS2_ 0x00023958   Section      112  qsvgnode.o(t._ZN5QListI14QSvgRefCounterI20QSvgAnimateTransformEE6appendERKS2_)
    t._ZN5QListI14QSvgRefCounterI20QSvgAnimateTransformEE6appendERKS2_.clean 0x000239c8   Section       14  qsvgnode.o(t._ZN5QListI14QSvgRefCounterI20QSvgAnimateTransformEE6appendERKS2_.clean)
    t._ZN5QListI14QSvgRefCounterI20QSvgAnimateTransformEE9node_copyEPNS3_4NodeES5_S5_ 0x000239d6   Section       92  qsvgnode.o(t._ZN5QListI14QSvgRefCounterI20QSvgAnimateTransformEE9node_copyEPNS3_4NodeES5_S5_)
    t._ZN5QListI14QSvgRefCounterI20QSvgAnimateTransformEE9node_copyEPNS3_4NodeES5_S5_.clean 0x00023a32   Section       22  qsvgnode.o(t._ZN5QListI14QSvgRefCounterI20QSvgAnimateTransformEE9node_copyEPNS3_4NodeES5_S5_.clean)
    t._ZN5QListI14QSvgRefCounterI20QSvgAnimateTransformEED1Ev 0x00023a48   Section       32  qsvgnode.o(t._ZN5QListI14QSvgRefCounterI20QSvgAnimateTransformEED1Ev)
    t._ZN5QListI6QColorE13detach_helperEi    0x00023a68   Section      186  qsvgstyle.o(t._ZN5QListI6QColorE13detach_helperEi)
    t._ZN5QListI6QColorE13detach_helperEi.clean 0x00023b22   Section       32  qsvgstyle.o(t._ZN5QListI6QColorE13detach_helperEi.clean)
    t._ZN5QListI6QColorE13detach_helperEv    0x00023b42   Section       16  qsvgstyle.o(t._ZN5QListI6QColorE13detach_helperEv)
    t._ZN5QListI6QColorE13node_destructEPNS1_4NodeES3_ 0x00023b52   Section       26  qsvghandler.o(t._ZN5QListI6QColorE13node_destructEPNS1_4NodeES3_)
    t._ZN5QListI6QColorE14node_constructEPNS1_4NodeERKS0_ 0x00023b6c   Section       34  qsvghandler.o(t._ZN5QListI6QColorE14node_constructEPNS1_4NodeERKS0_)
    t._ZN5QListI6QColorE14node_constructEPNS1_4NodeERKS0_.clean 0x00023b8e   Section       14  qsvghandler.o(t._ZN5QListI6QColorE14node_constructEPNS1_4NodeERKS0_.clean)
    t._ZN5QListI6QColorE18detach_helper_growEii 0x00023b9c   Section      208  qsvghandler.o(t._ZN5QListI6QColorE18detach_helper_growEii)
    t._ZN5QListI6QColorE18detach_helper_growEii.clean 0x00023c6c   Section       16  qsvghandler.o(t._ZN5QListI6QColorE18detach_helper_growEii.clean)
    t._ZN5QListI6QColorE4freeEPN9QListData4DataE 0x00023c7c   Section       52  qsvghandler.o(t._ZN5QListI6QColorE4freeEPN9QListData4DataE)
    t._ZN5QListI6QColorE6appendERKS0_        0x00023cb0   Section      112  qsvghandler.o(t._ZN5QListI6QColorE6appendERKS0_)
    t._ZN5QListI6QColorE6appendERKS0_.clean  0x00023d20   Section       14  qsvghandler.o(t._ZN5QListI6QColorE6appendERKS0_.clean)
    t._ZN5QListI6QColorE9node_copyEPNS1_4NodeES3_S3_ 0x00023d2e   Section       80  qsvghandler.o(t._ZN5QListI6QColorE9node_copyEPNS1_4NodeES3_S3_)
    t._ZN5QListI6QColorE9node_copyEPNS1_4NodeES3_S3_.clean 0x00023d7e   Section       22  qsvghandler.o(t._ZN5QListI6QColorE9node_copyEPNS1_4NodeES3_S3_.clean)
    t._ZN5QListI6QColorED1Ev                 0x00023d94   Section       32  qsvghandler.o(t._ZN5QListI6QColorED1Ev)
    t._ZN5QListI6QColorEixEi                 0x00023db4   Section      192  qsvgstyle.o(t._ZN5QListI6QColorEixEi)
    t._ZN5QListI7QStringE13detach_helperEi   0x00023e74   Section       94  qsvghandler.o(t._ZN5QListI7QStringE13detach_helperEi)
    t._ZN5QListI7QStringE13detach_helperEi.clean 0x00023ed2   Section        8  qsvghandler.o(t._ZN5QListI7QStringE13detach_helperEi.clean)
    t._ZN5QListI7QStringE13detach_helperEv   0x00023eda   Section       16  qsvghandler.o(t._ZN5QListI7QStringE13detach_helperEv)
    t._ZN5QListI7QStringE13node_destructEPNS1_4NodeES3_ 0x00023eea   Section       26  qsvghandler.o(t._ZN5QListI7QStringE13node_destructEPNS1_4NodeES3_)
    t._ZN5QListI7QStringE14node_constructEPNS1_4NodeERKS0_ 0x00023f04   Section       36  qsvghandler.o(t._ZN5QListI7QStringE14node_constructEPNS1_4NodeERKS0_)
    t._ZN5QListI7QStringE14node_constructEPNS1_4NodeERKS0_.clean 0x00023f28   Section       14  qsvghandler.o(t._ZN5QListI7QStringE14node_constructEPNS1_4NodeERKS0_.clean)
    t._ZN5QListI7QStringE18detach_helper_growEii 0x00023f36   Section      208  qsvghandler.o(t._ZN5QListI7QStringE18detach_helper_growEii)
    t._ZN5QListI7QStringE18detach_helper_growEii.clean 0x00024006   Section       16  qsvghandler.o(t._ZN5QListI7QStringE18detach_helper_growEii.clean)
    t._ZN5QListI7QStringE4freeEPN9QListData4DataE 0x00024016   Section       52  qsvghandler.o(t._ZN5QListI7QStringE4freeEPN9QListData4DataE)
    t._ZN5QListI7QStringE6appendERKS0_       0x0002404c   Section      120  qsvghandler.o(t._ZN5QListI7QStringE6appendERKS0_)
    t._ZN5QListI7QStringE6appendERKS0_.clean 0x000240c4   Section       14  qsvghandler.o(t._ZN5QListI7QStringE6appendERKS0_.clean)
    t._ZN5QListI7QStringE9node_copyEPNS1_4NodeES3_S3_ 0x000240d2   Section       82  qsvghandler.o(t._ZN5QListI7QStringE9node_copyEPNS1_4NodeES3_S3_)
    t._ZN5QListI7QStringE9node_copyEPNS1_4NodeES3_S3_.clean 0x00024124   Section       22  qsvghandler.o(t._ZN5QListI7QStringE9node_copyEPNS1_4NodeES3_S3_.clean)
    t._ZN5QListI7QStringEC1Ev                0x0002413c   Section       24  qsvghandler.o(t._ZN5QListI7QStringEC1Ev)
    t._ZN5QListI7QStringED1Ev                0x00024154   Section       32  qsvghandler.o(t._ZN5QListI7QStringED1Ev)
    t._ZN5QListIN11QTextLayout11FormatRangeEE13detach_helperEi 0x00024174   Section       94  qsvggraphics.o(t._ZN5QListIN11QTextLayout11FormatRangeEE13detach_helperEi)
    t._ZN5QListIN11QTextLayout11FormatRangeEE13detach_helperEi.clean 0x000241d2   Section        8  qsvggraphics.o(t._ZN5QListIN11QTextLayout11FormatRangeEE13detach_helperEi.clean)
    t._ZN5QListIN11QTextLayout11FormatRangeEE13detach_helperEv 0x000241da   Section       16  qsvggraphics.o(t._ZN5QListIN11QTextLayout11FormatRangeEE13detach_helperEv)
    t._ZN5QListIN11QTextLayout11FormatRangeEE13node_destructEPNS2_4NodeES4_ 0x000241ea   Section       38  qsvggraphics.o(t._ZN5QListIN11QTextLayout11FormatRangeEE13node_destructEPNS2_4NodeES4_)
    t._ZN5QListIN11QTextLayout11FormatRangeEE14node_constructEPNS2_4NodeERKS1_ 0x00024210   Section       34  qsvggraphics.o(t._ZN5QListIN11QTextLayout11FormatRangeEE14node_constructEPNS2_4NodeERKS1_)
    t._ZN5QListIN11QTextLayout11FormatRangeEE14node_constructEPNS2_4NodeERKS1_.clean 0x00024232   Section       14  qsvggraphics.o(t._ZN5QListIN11QTextLayout11FormatRangeEE14node_constructEPNS2_4NodeERKS1_.clean)
    t._ZN5QListIN11QTextLayout11FormatRangeEE18detach_helper_growEii 0x00024240   Section      208  qsvggraphics.o(t._ZN5QListIN11QTextLayout11FormatRangeEE18detach_helper_growEii)
    t._ZN5QListIN11QTextLayout11FormatRangeEE18detach_helper_growEii.clean 0x00024310   Section       16  qsvggraphics.o(t._ZN5QListIN11QTextLayout11FormatRangeEE18detach_helper_growEii.clean)
    t._ZN5QListIN11QTextLayout11FormatRangeEE4freeEPN9QListData4DataE 0x00024320   Section       52  qsvggraphics.o(t._ZN5QListIN11QTextLayout11FormatRangeEE4freeEPN9QListData4DataE)
    t._ZN5QListIN11QTextLayout11FormatRangeEE6appendERKS1_ 0x00024354   Section      112  qsvggraphics.o(t._ZN5QListIN11QTextLayout11FormatRangeEE6appendERKS1_)
    t._ZN5QListIN11QTextLayout11FormatRangeEE6appendERKS1_.clean 0x000243c4   Section       14  qsvggraphics.o(t._ZN5QListIN11QTextLayout11FormatRangeEE6appendERKS1_.clean)
    t._ZN5QListIN11QTextLayout11FormatRangeEE9node_copyEPNS2_4NodeES4_S4_ 0x000243d2   Section       92  qsvggraphics.o(t._ZN5QListIN11QTextLayout11FormatRangeEE9node_copyEPNS2_4NodeES4_S4_)
    t._ZN5QListIN11QTextLayout11FormatRangeEE9node_copyEPNS2_4NodeES4_S4_.clean 0x0002442e   Section       22  qsvggraphics.o(t._ZN5QListIN11QTextLayout11FormatRangeEE9node_copyEPNS2_4NodeES4_S4_.clean)
    t._ZN5QListIN11QTextLayout11FormatRangeEEC1ERKS2_ 0x00024444   Section       36  qsvggraphics.o(t._ZN5QListIN11QTextLayout11FormatRangeEEC1ERKS2_)
    t._ZN5QListIN11QTextLayout11FormatRangeEEC1Ev 0x00024468   Section       24  qsvggraphics.o(t._ZN5QListIN11QTextLayout11FormatRangeEEC1Ev)
    t._ZN5QListIN11QTextLayout11FormatRangeEED1Ev 0x00024480   Section       32  qsvggraphics.o(t._ZN5QListIN11QTextLayout11FormatRangeEED1Ev)
    t._ZN5QListIN11QTextLayout11FormatRangeEEaSERKS2_ 0x000244a0   Section       64  qsvggraphics.o(t._ZN5QListIN11QTextLayout11FormatRangeEEaSERKS2_)
    t._ZN5QListIN20QGraphicsItemPrivate11ExtraStructEE13detach_helperEi 0x000244e0   Section       94  qgraphicssvgitem.o(t._ZN5QListIN20QGraphicsItemPrivate11ExtraStructEE13detach_helperEi)
    t._ZN5QListIN20QGraphicsItemPrivate11ExtraStructEE13detach_helperEi.clean 0x0002453e   Section        8  qgraphicssvgitem.o(t._ZN5QListIN20QGraphicsItemPrivate11ExtraStructEE13detach_helperEi.clean)
    t._ZN5QListIN20QGraphicsItemPrivate11ExtraStructEE13detach_helperEv 0x00024546   Section       16  qgraphicssvgitem.o(t._ZN5QListIN20QGraphicsItemPrivate11ExtraStructEE13detach_helperEv)
    t._ZN5QListIN20QGraphicsItemPrivate11ExtraStructEE13node_destructEPNS2_4NodeES4_ 0x00024556   Section       38  qgraphicssvgitem.o(t._ZN5QListIN20QGraphicsItemPrivate11ExtraStructEE13node_destructEPNS2_4NodeES4_)
    t._ZN5QListIN20QGraphicsItemPrivate11ExtraStructEE14node_constructEPNS2_4NodeERKS1_ 0x0002457c   Section       34  qgraphicssvgitem.o(t._ZN5QListIN20QGraphicsItemPrivate11ExtraStructEE14node_constructEPNS2_4NodeERKS1_)
    t._ZN5QListIN20QGraphicsItemPrivate11ExtraStructEE14node_constructEPNS2_4NodeERKS1_.clean 0x0002459e   Section       14  qgraphicssvgitem.o(t._ZN5QListIN20QGraphicsItemPrivate11ExtraStructEE14node_constructEPNS2_4NodeERKS1_.clean)
    t._ZN5QListIN20QGraphicsItemPrivate11ExtraStructEE18detach_helper_growEii 0x000245ac   Section      208  qgraphicssvgitem.o(t._ZN5QListIN20QGraphicsItemPrivate11ExtraStructEE18detach_helper_growEii)
    t._ZN5QListIN20QGraphicsItemPrivate11ExtraStructEE18detach_helper_growEii.clean 0x0002467c   Section       16  qgraphicssvgitem.o(t._ZN5QListIN20QGraphicsItemPrivate11ExtraStructEE18detach_helper_growEii.clean)
    t._ZN5QListIN20QGraphicsItemPrivate11ExtraStructEE4freeEPN9QListData4DataE 0x0002468c   Section       58  qgraphicssvgitem.o(t._ZN5QListIN20QGraphicsItemPrivate11ExtraStructEE4freeEPN9QListData4DataE)
    t._ZN5QListIN20QGraphicsItemPrivate11ExtraStructEE6appendERKS1_ 0x000246c8   Section      112  qgraphicssvgitem.o(t._ZN5QListIN20QGraphicsItemPrivate11ExtraStructEE6appendERKS1_)
    t._ZN5QListIN20QGraphicsItemPrivate11ExtraStructEE6appendERKS1_.clean 0x00024738   Section       14  qgraphicssvgitem.o(t._ZN5QListIN20QGraphicsItemPrivate11ExtraStructEE6appendERKS1_.clean)
    t._ZN5QListIN20QGraphicsItemPrivate11ExtraStructEE9node_copyEPNS2_4NodeES4_S4_ 0x00024746   Section       92  qgraphicssvgitem.o(t._ZN5QListIN20QGraphicsItemPrivate11ExtraStructEE9node_copyEPNS2_4NodeES4_S4_)
    t._ZN5QListIN20QGraphicsItemPrivate11ExtraStructEE9node_copyEPNS2_4NodeES4_S4_.clean 0x000247a2   Section       22  qgraphicssvgitem.o(t._ZN5QListIN20QGraphicsItemPrivate11ExtraStructEE9node_copyEPNS2_4NodeES4_S4_.clean)
    t._ZN5QListIN20QGraphicsItemPrivate11ExtraStructEED1Ev 0x000247b8   Section       32  qgraphicssvgitem.o(t._ZN5QListIN20QGraphicsItemPrivate11ExtraStructEED1Ev)
    t._ZN5QListIP13QGraphicsItemE4freeEPN9QListData4DataE 0x000247d8   Section       58  qgraphicssvgitem.o(t._ZN5QListIP13QGraphicsItemE4freeEPN9QListData4DataE)
    t._ZN5QListIP13QGraphicsItemED1Ev        0x00024812   Section       32  qgraphicssvgitem.o(t._ZN5QListIP13QGraphicsItemED1Ev)
    t._ZN5QListIP17QSvgStructureNodeE4freeEPN9QListData4DataE 0x00024832   Section       58  qsvgstructure.o(t._ZN5QListIP17QSvgStructureNodeE4freeEPN9QListData4DataE)
    t._ZN5QListIP17QSvgStructureNodeED1Ev    0x0002486c   Section       32  qsvgstructure.o(t._ZN5QListIP17QSvgStructureNodeED1Ev)
    t._ZN5QListIP8QSvgNodeE13detach_helperEi 0x0002488c   Section       94  qsvgstructure.o(t._ZN5QListIP8QSvgNodeE13detach_helperEi)
    t._ZN5QListIP8QSvgNodeE13detach_helperEi.clean 0x000248ea   Section        8  qsvgstructure.o(t._ZN5QListIP8QSvgNodeE13detach_helperEi.clean)
    t._ZN5QListIP8QSvgNodeE13detach_helperEv 0x000248f2   Section       16  qsvghandler.o(t._ZN5QListIP8QSvgNodeE13detach_helperEv)
    t._ZN5QListIP8QSvgNodeE18detach_helper_growEii 0x00024902   Section      204  qsvgstructure.o(t._ZN5QListIP8QSvgNodeE18detach_helper_growEii)
    t._ZN5QListIP8QSvgNodeE18detach_helper_growEii.clean 0x000249ce   Section       16  qsvgstructure.o(t._ZN5QListIP8QSvgNodeE18detach_helper_growEii.clean)
    t._ZN5QListIP8QSvgNodeE3endEv            0x000249de   Section       26  qsvgstructure.o(t._ZN5QListIP8QSvgNodeE3endEv)
    t._ZN5QListIP8QSvgNodeE4freeEPN9QListData4DataE 0x000249f8   Section       52  qsvghandler.o(t._ZN5QListIP8QSvgNodeE4freeEPN9QListData4DataE)
    t._ZN5QListIP8QSvgNodeE5beginEv          0x00024a2c   Section       26  qsvgstructure.o(t._ZN5QListIP8QSvgNodeE5beginEv)
    t._ZN5QListIP8QSvgNodeE6appendERKS1_     0x00024a48   Section      100  qsvgstructure.o(t._ZN5QListIP8QSvgNodeE6appendERKS1_)
    t._ZN5QListIP8QSvgNodeE6appendERKS1_.clean 0x00024aac   Section       10  qsvgstructure.o(t._ZN5QListIP8QSvgNodeE6appendERKS1_.clean)
    t._ZN5QListIP8QSvgNodeE6detachEv         0x00024ab6   Section       24  qsvghandler.o(t._ZN5QListIP8QSvgNodeE6detachEv)
    t._ZN5QListIP8QSvgNodeE9node_copyEPNS2_4NodeES4_S4_ 0x00024ace   Section       46  qsvgstructure.o(t._ZN5QListIP8QSvgNodeE9node_copyEPNS2_4NodeES4_S4_)
    t._ZN5QListIP8QSvgNodeEC1Ev              0x00024afc   Section       24  qsvghandler.o(t._ZN5QListIP8QSvgNodeEC1Ev)
    t._ZN5QListIP8QSvgNodeED1Ev              0x00024b14   Section       32  qsvghandler.o(t._ZN5QListIP8QSvgNodeED1Ev)
    t._ZN5QListIPP13QGraphicsItemE4freeEPN9QListData4DataE 0x00024b34   Section       58  qgraphicssvgitem.o(t._ZN5QListIPP13QGraphicsItemE4freeEPN9QListData4DataE)
    t._ZN5QListIPP13QGraphicsItemED1Ev       0x00024b6e   Section       32  qgraphicssvgitem.o(t._ZN5QListIPP13QGraphicsItemED1Ev)
    t._ZN6QStackI15QTextCharFormatED1Ev      0x00024b8e   Section       14  qsvggraphics.o(t._ZN6QStackI15QTextCharFormatED1Ev)
    t._ZN6QStackI6QColorE3popEv              0x00024b9c   Section      180  qsvghandler.o(t._ZN6QStackI6QColorE3popEv)
    t._ZN6QStackI6QColorEC1Ev                0x00024c50   Section       24  qsvghandler.o(t._ZN6QStackI6QColorEC1Ev)
    t._ZN6QStackI6QColorED1Ev                0x00024c68   Section       14  qsvghandler.o(t._ZN6QStackI6QColorED1Ev)
    t._ZN6QStackIN11QSvgHandler11CurrentNodeEE3topEv 0x00024c78   Section      144  qsvghandler.o(t._ZN6QStackIN11QSvgHandler11CurrentNodeEE3topEv)
    t._ZN6QStackIN11QSvgHandler11CurrentNodeEEC1Ev 0x00024d08   Section       24  qsvghandler.o(t._ZN6QStackIN11QSvgHandler11CurrentNodeEEC1Ev)
    t._ZN6QStackIN11QSvgHandler11CurrentNodeEED1Ev 0x00024d20   Section       14  qsvghandler.o(t._ZN6QStackIN11QSvgHandler11CurrentNodeEED1Ev)
    t._ZN6QStackIN8QSvgText14WhitespaceModeEE3topEv 0x00024d30   Section      144  qsvghandler.o(t._ZN6QStackIN8QSvgText14WhitespaceModeEE3topEv)
    t._ZN6QStackIN8QSvgText14WhitespaceModeEE4pushERKS1_ 0x00024dc0   Section       16  qsvghandler.o(t._ZN6QStackIN8QSvgText14WhitespaceModeEE4pushERKS1_)
    t._ZN6QStackIN8QSvgText14WhitespaceModeEEC1Ev 0x00024dd0   Section       24  qsvghandler.o(t._ZN6QStackIN8QSvgText14WhitespaceModeEEC1Ev)
    t._ZN6QStackIN8QSvgText14WhitespaceModeEED1Ev 0x00024de8   Section       14  qsvghandler.o(t._ZN6QStackIN8QSvgText14WhitespaceModeEED1Ev)
    t._ZN6QStackIP8QSvgNodeE3topEv           0x00024df8   Section      144  qsvghandler.o(t._ZN6QStackIP8QSvgNodeE3topEv)
    t._ZN6QStackIP8QSvgNodeEC1Ev             0x00024e88   Section       24  qsvghandler.o(t._ZN6QStackIP8QSvgNodeEC1Ev)
    t._ZN6QStackIP8QSvgNodeED1Ev             0x00024ea0   Section       14  qsvghandler.o(t._ZN6QStackIP8QSvgNodeED1Ev)
    t._ZN6QStackIiE3topEv                    0x00024eb0   Section      144  qsvghandler.o(t._ZN6QStackIiE3topEv)
    t._ZN6QStackIiEC1Ev                      0x00024f40   Section       24  qsvghandler.o(t._ZN6QStackIiEC1Ev)
    t._ZN6QStackIiED1Ev                      0x00024f58   Section       14  qsvghandler.o(t._ZN6QStackIiED1Ev)
    t._ZN7QVectorI15QTextCharFormatE4freeEP16QVectorTypedDataIS0_E 0x00024f66   Section       52  qsvggraphics.o(t._ZN7QVectorI15QTextCharFormatE4freeEP16QVectorTypedDataIS0_E)
    t._ZN7QVectorI15QTextCharFormatED1Ev     0x00024f9a   Section       34  qsvggraphics.o(t._ZN7QVectorI15QTextCharFormatED1Ev)
    t._ZN7QVectorI16QSvgCssAttributeE4freeEP16QVectorTypedDataIS0_E 0x00024fbc   Section       54  qsvghandler.o(t._ZN7QVectorI16QSvgCssAttributeE4freeEP16QVectorTypedDataIS0_E)
    t._ZN7QVectorI16QSvgCssAttributeE6appendERKS0_ 0x00024ff2   Section      188  qsvghandler.o(t._ZN7QVectorI16QSvgCssAttributeE6appendERKS0_)
    t._ZN7QVectorI16QSvgCssAttributeE6appendERKS0_.clean 0x000250ae   Section       28  qsvghandler.o(t._ZN7QVectorI16QSvgCssAttributeE6appendERKS0_.clean)
    t._ZN7QVectorI16QSvgCssAttributeE6mallocEi 0x000250ca   Section       54  qsvghandler.o(t._ZN7QVectorI16QSvgCssAttributeE6mallocEi)
    t._ZN7QVectorI16QSvgCssAttributeE7reallocEii 0x00025100   Section      560  qsvghandler.o(t._ZN7QVectorI16QSvgCssAttributeE7reallocEii)
    t._ZN7QVectorI16QSvgCssAttributeE7reallocEii.clean 0x00025330   Section       32  qsvghandler.o(t._ZN7QVectorI16QSvgCssAttributeE7reallocEii.clean)
    t._ZN7QVectorI16QSvgCssAttributeE7reserveEi 0x00025350   Section       54  qsvghandler.o(t._ZN7QVectorI16QSvgCssAttributeE7reserveEi)
    t._ZN7QVectorI16QSvgCssAttributeED1Ev    0x00025386   Section       34  qsvghandler.o(t._ZN7QVectorI16QSvgCssAttributeED1Ev)
    t._ZN7QVectorI19QXmlStreamAttributeE13detach_helperEv 0x000253a8   Section       18  qsvghandler.o(t._ZN7QVectorI19QXmlStreamAttributeE13detach_helperEv)
    t._ZN7QVectorI19QXmlStreamAttributeE4freeEP16QVectorTypedDataIS0_E 0x000253ba   Section       54  qsvghandler.o(t._ZN7QVectorI19QXmlStreamAttributeE4freeEP16QVectorTypedDataIS0_E)
    t._ZN7QVectorI19QXmlStreamAttributeE6mallocEi 0x000253f0   Section       54  qsvghandler.o(t._ZN7QVectorI19QXmlStreamAttributeE6mallocEi)
    t._ZN7QVectorI19QXmlStreamAttributeE7reallocEii 0x00025428   Section      712  qsvghandler.o(t._ZN7QVectorI19QXmlStreamAttributeE7reallocEii)
    t._ZN7QVectorI19QXmlStreamAttributeE7reallocEii.clean 0x000256f0   Section       36  qsvghandler.o(t._ZN7QVectorI19QXmlStreamAttributeE7reallocEii.clean)
    t._ZN7QVectorI19QXmlStreamAttributeED1Ev 0x00025714   Section       34  qsvghandler.o(t._ZN7QVectorI19QXmlStreamAttributeED1Ev)
    t._ZN7QVectorI5QListIN11QTextLayout11FormatRangeEEE13detach_helperEv 0x00025736   Section       18  qsvggraphics.o(t._ZN7QVectorI5QListIN11QTextLayout11FormatRangeEEE13detach_helperEv)
    t._ZN7QVectorI5QListIN11QTextLayout11FormatRangeEEE4backEv 0x00025748   Section      144  qsvggraphics.o(t._ZN7QVectorI5QListIN11QTextLayout11FormatRangeEEE4backEv)
    t._ZN7QVectorI5QListIN11QTextLayout11FormatRangeEEE4freeEP16QVectorTypedDataIS3_E 0x000257d8   Section       52  qsvggraphics.o(t._ZN7QVectorI5QListIN11QTextLayout11FormatRangeEEE4freeEP16QVectorTypedDataIS3_E)
    t._ZN7QVectorI5QListIN11QTextLayout11FormatRangeEEE6appendERKS3_ 0x0002580c   Section      180  qsvggraphics.o(t._ZN7QVectorI5QListIN11QTextLayout11FormatRangeEEE6appendERKS3_)
    t._ZN7QVectorI5QListIN11QTextLayout11FormatRangeEEE6appendERKS3_.clean 0x000258c0   Section       28  qsvggraphics.o(t._ZN7QVectorI5QListIN11QTextLayout11FormatRangeEEE6appendERKS3_.clean)
    t._ZN7QVectorI5QListIN11QTextLayout11FormatRangeEEE6detachEv 0x000258dc   Section       24  qsvggraphics.o(t._ZN7QVectorI5QListIN11QTextLayout11FormatRangeEEE6detachEv)
    t._ZN7QVectorI5QListIN11QTextLayout11FormatRangeEEE6mallocEi 0x000258f4   Section       52  qsvggraphics.o(t._ZN7QVectorI5QListIN11QTextLayout11FormatRangeEEE6mallocEi)
    t._ZN7QVectorI5QListIN11QTextLayout11FormatRangeEEE7reallocEii 0x00025928   Section      556  qsvggraphics.o(t._ZN7QVectorI5QListIN11QTextLayout11FormatRangeEEE7reallocEii)
    t._ZN7QVectorI5QListIN11QTextLayout11FormatRangeEEE7reallocEii.clean 0x00025b54   Section       32  qsvggraphics.o(t._ZN7QVectorI5QListIN11QTextLayout11FormatRangeEEE7reallocEii.clean)
    t._ZN7QVectorI5QListIN11QTextLayout11FormatRangeEEED1Ev 0x00025b74   Section       34  qsvggraphics.o(t._ZN7QVectorI5QListIN11QTextLayout11FormatRangeEEED1Ev)
    t._ZN7QVectorI5QPairIf6QColorEE13detach_helperEv 0x00025b96   Section       18  qsvghandler.o(t._ZN7QVectorI5QPairIf6QColorEE13detach_helperEv)
    t._ZN7QVectorI5QPairIf6QColorEE4backEv   0x00025ba8   Section      160  qsvghandler.o(t._ZN7QVectorI5QPairIf6QColorEE4backEv)
    t._ZN7QVectorI5QPairIf6QColorEE4freeEP16QVectorTypedDataIS2_E 0x00025c48   Section       50  qsvghandler.o(t._ZN7QVectorI5QPairIf6QColorEE4freeEP16QVectorTypedDataIS2_E)
    t._ZN7QVectorI5QPairIf6QColorEE6appendERKS2_ 0x00025c7a   Section      182  qsvgstyle.o(t._ZN7QVectorI5QPairIf6QColorEE6appendERKS2_)
    t._ZN7QVectorI5QPairIf6QColorEE6appendERKS2_.clean 0x00025d30   Section       22  qsvgstyle.o(t._ZN7QVectorI5QPairIf6QColorEE6appendERKS2_.clean)
    t._ZN7QVectorI5QPairIf6QColorEE6mallocEi 0x00025d46   Section       54  qsvghandler.o(t._ZN7QVectorI5QPairIf6QColorEE6mallocEi)
    t._ZN7QVectorI5QPairIf6QColorEE7reallocEii 0x00025d7c   Section      584  qsvgstyle.o(t._ZN7QVectorI5QPairIf6QColorEE7reallocEii)
    t._ZN7QVectorI5QPairIf6QColorEE7reallocEii.clean 0x00025fc4   Section       32  qsvgstyle.o(t._ZN7QVectorI5QPairIf6QColorEE7reallocEii.clean)
    t._ZN7QVectorI5QPairIf6QColorEED1Ev      0x00025fe4   Section       34  qsvghandler.o(t._ZN7QVectorI5QPairIf6QColorEED1Ev)
    t._ZN7QVectorI5QPairIf6QColorEEaSERKS3_  0x00026006   Section       54  qsvghandler.o(t._ZN7QVectorI5QPairIf6QColorEEaSERKS3_)
    t._ZN7QVectorI6QColorE13detach_helperEv  0x0002603c   Section       18  qsvghandler.o(t._ZN7QVectorI6QColorE13detach_helperEv)
    t._ZN7QVectorI6QColorE4freeEP16QVectorTypedDataIS0_E 0x0002604e   Section       48  qsvghandler.o(t._ZN7QVectorI6QColorE4freeEP16QVectorTypedDataIS0_E)
    t._ZN7QVectorI6QColorE6appendERKS0_      0x0002607e   Section      178  qsvghandler.o(t._ZN7QVectorI6QColorE6appendERKS0_)
    t._ZN7QVectorI6QColorE6appendERKS0_.clean 0x00026130   Section       22  qsvghandler.o(t._ZN7QVectorI6QColorE6appendERKS0_.clean)
    t._ZN7QVectorI6QColorE6mallocEi          0x00026146   Section       52  qsvghandler.o(t._ZN7QVectorI6QColorE6mallocEi)
    t._ZN7QVectorI6QColorE6resizeEi          0x0002617a   Section       82  qsvghandler.o(t._ZN7QVectorI6QColorE6resizeEi)
    t._ZN7QVectorI6QColorE7reallocEii        0x000261cc   Section      552  qsvghandler.o(t._ZN7QVectorI6QColorE7reallocEii)
    t._ZN7QVectorI6QColorE7reallocEii.clean  0x000263f4   Section       32  qsvghandler.o(t._ZN7QVectorI6QColorE7reallocEii.clean)
    t._ZN7QVectorI6QColorED1Ev               0x00026414   Section       34  qsvghandler.o(t._ZN7QVectorI6QColorED1Ev)
    t._ZN7QVectorI7QPointFE13detach_helperEv 0x00026436   Section       18  qsvggraphics.o(t._ZN7QVectorI7QPointFE13detach_helperEv)
    t._ZN7QVectorI7QPointFE4freeEP16QVectorTypedDataIS0_E 0x00026448   Section       48  qsvggraphics.o(t._ZN7QVectorI7QPointFE4freeEP16QVectorTypedDataIS0_E)
    t._ZN7QVectorI7QPointFE6mallocEi         0x00026478   Section       52  qsvggraphics.o(t._ZN7QVectorI7QPointFE6mallocEi)
    t._ZN7QVectorI7QPointFE7reallocEii       0x000264ac   Section      700  qsvggraphics.o(t._ZN7QVectorI7QPointFE7reallocEii)
    t._ZN7QVectorI7QPointFE7reallocEii.clean 0x00026768   Section       18  qsvggraphics.o(t._ZN7QVectorI7QPointFE7reallocEii.clean)
    t._ZN7QVectorI7QPointFEC1Ei              0x0002677a   Section      138  qsvghandler.o(t._ZN7QVectorI7QPointFEC1Ei)
    t._ZN7QVectorI7QPointFEC1Ei.clean        0x00026804   Section       12  qsvghandler.o(t._ZN7QVectorI7QPointFEC1Ei.clean)
    t._ZN7QVectorI7QPointFED1Ev              0x00026810   Section       34  qsvggraphics.o(t._ZN7QVectorI7QPointFED1Ev)
    t._ZN7QVectorI7QPointFEixEi              0x00026834   Section      180  qsvghandler.o(t._ZN7QVectorI7QPointFEixEi)
    t._ZN7QVectorI7QStringE13detach_helperEv 0x000268e8   Section       18  qsvggraphics.o(t._ZN7QVectorI7QStringE13detach_helperEv)
    t._ZN7QVectorI7QStringE4backEv           0x000268fc   Section      132  qsvggraphics.o(t._ZN7QVectorI7QStringE4backEv)
    t._ZN7QVectorI7QStringE4freeEP16QVectorTypedDataIS0_E 0x00026980   Section       52  qsvggraphics.o(t._ZN7QVectorI7QStringE4freeEP16QVectorTypedDataIS0_E)
    t._ZN7QVectorI7QStringE6appendERKS0_     0x000269b4   Section      180  qsvggraphics.o(t._ZN7QVectorI7QStringE6appendERKS0_)
    t._ZN7QVectorI7QStringE6appendERKS0_.clean 0x00026a68   Section       28  qsvggraphics.o(t._ZN7QVectorI7QStringE6appendERKS0_.clean)
    t._ZN7QVectorI7QStringE6detachEv         0x00026a84   Section       24  qsvggraphics.o(t._ZN7QVectorI7QStringE6detachEv)
    t._ZN7QVectorI7QStringE6mallocEi         0x00026a9c   Section       52  qsvggraphics.o(t._ZN7QVectorI7QStringE6mallocEi)
    t._ZN7QVectorI7QStringE7reallocEii       0x00026ad0   Section      700  qsvggraphics.o(t._ZN7QVectorI7QStringE7reallocEii)
    t._ZN7QVectorI7QStringE7reallocEii.clean 0x00026d8c   Section       36  qsvggraphics.o(t._ZN7QVectorI7QStringE7reallocEii.clean)
    t._ZN7QVectorI7QStringED1Ev              0x00026db0   Section       34  qsvggraphics.o(t._ZN7QVectorI7QStringED1Ev)
    t._ZN7QVectorI7QStringEixEi              0x00026dd4   Section      164  qsvggraphics.o(t._ZN7QVectorI7QStringEixEi)
    t._ZN7QVectorIN11QSvgHandler11CurrentNodeEE13detach_helperEv 0x00026e78   Section       18  qsvghandler.o(t._ZN7QVectorIN11QSvgHandler11CurrentNodeEE13detach_helperEv)
    t._ZN7QVectorIN11QSvgHandler11CurrentNodeEE4freeEP16QVectorTypedDataIS1_E 0x00026e8a   Section       48  qsvghandler.o(t._ZN7QVectorIN11QSvgHandler11CurrentNodeEE4freeEP16QVectorTypedDataIS1_E)
    t._ZN7QVectorIN11QSvgHandler11CurrentNodeEE6appendERKS1_ 0x00026eba   Section      178  qsvghandler.o(t._ZN7QVectorIN11QSvgHandler11CurrentNodeEE6appendERKS1_)
    t._ZN7QVectorIN11QSvgHandler11CurrentNodeEE6detachEv 0x00026f6c   Section       24  qsvghandler.o(t._ZN7QVectorIN11QSvgHandler11CurrentNodeEE6detachEv)
    t._ZN7QVectorIN11QSvgHandler11CurrentNodeEE6mallocEi 0x00026f84   Section       52  qsvghandler.o(t._ZN7QVectorIN11QSvgHandler11CurrentNodeEE6mallocEi)
    t._ZN7QVectorIN11QSvgHandler11CurrentNodeEE6resizeEi 0x00026fb8   Section       82  qsvghandler.o(t._ZN7QVectorIN11QSvgHandler11CurrentNodeEE6resizeEi)
    t._ZN7QVectorIN11QSvgHandler11CurrentNodeEE7reallocEii 0x0002700c   Section      528  qsvghandler.o(t._ZN7QVectorIN11QSvgHandler11CurrentNodeEE7reallocEii)
    t._ZN7QVectorIN11QSvgHandler11CurrentNodeEE7reallocEii.clean 0x0002721c   Section       10  qsvghandler.o(t._ZN7QVectorIN11QSvgHandler11CurrentNodeEE7reallocEii.clean)
    t._ZN7QVectorIN11QSvgHandler11CurrentNodeEED1Ev 0x00027226   Section       34  qsvghandler.o(t._ZN7QVectorIN11QSvgHandler11CurrentNodeEED1Ev)
    t._ZN7QVectorIN11QTextLayout11FormatRangeEE4freeEP16QVectorTypedDataIS1_E 0x00027248   Section       52  qsvggraphics.o(t._ZN7QVectorIN11QTextLayout11FormatRangeEE4freeEP16QVectorTypedDataIS1_E)
    t._ZN7QVectorIN11QTextLayout11FormatRangeEED1Ev 0x0002727c   Section       34  qsvggraphics.o(t._ZN7QVectorIN11QTextLayout11FormatRangeEED1Ev)
    t._ZN7QVectorIN4QCss10ImportRuleEE13detach_helperEv 0x0002729e   Section       18  qsvghandler.o(t._ZN7QVectorIN4QCss10ImportRuleEE13detach_helperEv)
    t._ZN7QVectorIN4QCss10ImportRuleEE4freeEP16QVectorTypedDataIS1_E 0x000272b0   Section       52  qsvghandler.o(t._ZN7QVectorIN4QCss10ImportRuleEE4freeEP16QVectorTypedDataIS1_E)
    t._ZN7QVectorIN4QCss10ImportRuleEE6mallocEi 0x000272e4   Section       52  qsvghandler.o(t._ZN7QVectorIN4QCss10ImportRuleEE6mallocEi)
    t._ZN7QVectorIN4QCss10ImportRuleEE7reallocEii 0x00027318   Section      588  qsvghandler.o(t._ZN7QVectorIN4QCss10ImportRuleEE7reallocEii)
    t._ZN7QVectorIN4QCss10ImportRuleEE7reallocEii.clean 0x00027564   Section       52  qsvghandler.o(t._ZN7QVectorIN4QCss10ImportRuleEE7reallocEii.clean)
    t._ZN7QVectorIN4QCss10ImportRuleEED1Ev   0x00027598   Section       34  qsvghandler.o(t._ZN7QVectorIN4QCss10ImportRuleEED1Ev)
    t._ZN7QVectorIN4QCss10ImportRuleEEaSERKS2_ 0x000275ba   Section       54  qsvghandler.o(t._ZN7QVectorIN4QCss10ImportRuleEEaSERKS2_)
    t._ZN7QVectorIN4QCss10StyleSheetEE4freeEP16QVectorTypedDataIS1_E 0x000275f0   Section       52  qsvghandler.o(t._ZN7QVectorIN4QCss10StyleSheetEE4freeEP16QVectorTypedDataIS1_E)
    t._ZN7QVectorIN4QCss10StyleSheetEE6appendERKS1_ 0x00027624   Section      184  qsvghandler.o(t._ZN7QVectorIN4QCss10StyleSheetEE6appendERKS1_)
    t._ZN7QVectorIN4QCss10StyleSheetEE6appendERKS1_.clean 0x000276dc   Section       28  qsvghandler.o(t._ZN7QVectorIN4QCss10StyleSheetEE6appendERKS1_.clean)
    t._ZN7QVectorIN4QCss10StyleSheetEE6mallocEi 0x000276f8   Section       52  qsvghandler.o(t._ZN7QVectorIN4QCss10StyleSheetEE6mallocEi)
    t._ZN7QVectorIN4QCss10StyleSheetEE7reallocEii 0x0002772c   Section      556  qsvghandler.o(t._ZN7QVectorIN4QCss10StyleSheetEE7reallocEii)
    t._ZN7QVectorIN4QCss10StyleSheetEE7reallocEii.clean 0x00027958   Section       32  qsvghandler.o(t._ZN7QVectorIN4QCss10StyleSheetEE7reallocEii.clean)
    t._ZN7QVectorIN4QCss10StyleSheetEED1Ev   0x00027978   Section       34  qsvghandler.o(t._ZN7QVectorIN4QCss10StyleSheetEED1Ev)
    t._ZN7QVectorIN4QCss11DeclarationEE13detach_helperEv 0x0002799a   Section       18  qsvghandler.o(t._ZN7QVectorIN4QCss11DeclarationEE13detach_helperEv)
    t._ZN7QVectorIN4QCss11DeclarationEE4freeEP16QVectorTypedDataIS1_E 0x000279ac   Section       56  qsvghandler.o(t._ZN7QVectorIN4QCss11DeclarationEE4freeEP16QVectorTypedDataIS1_E)
    t._ZN7QVectorIN4QCss11DeclarationEE6mallocEi 0x000279e4   Section       52  qsvghandler.o(t._ZN7QVectorIN4QCss11DeclarationEE6mallocEi)
    t._ZN7QVectorIN4QCss11DeclarationEE7reallocEii 0x00027a18   Section      580  qsvghandler.o(t._ZN7QVectorIN4QCss11DeclarationEE7reallocEii)
    t._ZN7QVectorIN4QCss11DeclarationEE7reallocEii.clean 0x00027c5c   Section       32  qsvghandler.o(t._ZN7QVectorIN4QCss11DeclarationEE7reallocEii.clean)
    t._ZN7QVectorIN4QCss11DeclarationEEC1ERKS2_ 0x00027c7c   Section       36  qsvghandler.o(t._ZN7QVectorIN4QCss11DeclarationEEC1ERKS2_)
    t._ZN7QVectorIN4QCss11DeclarationEEC1Ev  0x00027ca0   Section       24  qsvghandler.o(t._ZN7QVectorIN4QCss11DeclarationEEC1Ev)
    t._ZN7QVectorIN4QCss11DeclarationEED1Ev  0x00027cb8   Section       34  qsvghandler.o(t._ZN7QVectorIN4QCss11DeclarationEED1Ev)
    t._ZN7QVectorIN4QCss13BasicSelectorEE13detach_helperEv 0x00027cda   Section       18  qsvghandler.o(t._ZN7QVectorIN4QCss13BasicSelectorEE13detach_helperEv)
    t._ZN7QVectorIN4QCss13BasicSelectorEE4freeEP16QVectorTypedDataIS1_E 0x00027cec   Section       54  qsvghandler.o(t._ZN7QVectorIN4QCss13BasicSelectorEE4freeEP16QVectorTypedDataIS1_E)
    t._ZN7QVectorIN4QCss13BasicSelectorEE6mallocEi 0x00027d22   Section       54  qsvghandler.o(t._ZN7QVectorIN4QCss13BasicSelectorEE6mallocEi)
    t._ZN7QVectorIN4QCss13BasicSelectorEE7reallocEii 0x00027d58   Section      644  qsvghandler.o(t._ZN7QVectorIN4QCss13BasicSelectorEE7reallocEii)
    t._ZN7QVectorIN4QCss13BasicSelectorEE7reallocEii.clean 0x00027fdc   Section       66  qsvghandler.o(t._ZN7QVectorIN4QCss13BasicSelectorEE7reallocEii.clean)
    t._ZN7QVectorIN4QCss13BasicSelectorEED1Ev 0x0002801e   Section       34  qsvghandler.o(t._ZN7QVectorIN4QCss13BasicSelectorEED1Ev)
    t._ZN7QVectorIN4QCss17AttributeSelectorEE13detach_helperEv 0x00028040   Section       18  qsvghandler.o(t._ZN7QVectorIN4QCss17AttributeSelectorEE13detach_helperEv)
    t._ZN7QVectorIN4QCss17AttributeSelectorEE4freeEP16QVectorTypedDataIS1_E 0x00028052   Section       54  qsvghandler.o(t._ZN7QVectorIN4QCss17AttributeSelectorEE4freeEP16QVectorTypedDataIS1_E)
    t._ZN7QVectorIN4QCss17AttributeSelectorEE6mallocEi 0x00028088   Section       54  qsvghandler.o(t._ZN7QVectorIN4QCss17AttributeSelectorEE6mallocEi)
    t._ZN7QVectorIN4QCss17AttributeSelectorEE7reallocEii 0x000280c0   Section      612  qsvghandler.o(t._ZN7QVectorIN4QCss17AttributeSelectorEE7reallocEii)
    t._ZN7QVectorIN4QCss17AttributeSelectorEE7reallocEii.clean 0x00028324   Section       52  qsvghandler.o(t._ZN7QVectorIN4QCss17AttributeSelectorEE7reallocEii.clean)
    t._ZN7QVectorIN4QCss17AttributeSelectorEED1Ev 0x00028358   Section       34  qsvghandler.o(t._ZN7QVectorIN4QCss17AttributeSelectorEED1Ev)
    t._ZN7QVectorIN4QCss5ValueEE13detach_helperEv 0x0002837a   Section       18  qsvghandler.o(t._ZN7QVectorIN4QCss5ValueEE13detach_helperEv)
    t._ZN7QVectorIN4QCss5ValueEE4freeEP16QVectorTypedDataIS1_E 0x0002838c   Section       54  qsvghandler.o(t._ZN7QVectorIN4QCss5ValueEE4freeEP16QVectorTypedDataIS1_E)
    t._ZN7QVectorIN4QCss5ValueEE5firstEv     0x000283c4   Section      132  qsvghandler.o(t._ZN7QVectorIN4QCss5ValueEE5firstEv)
    t._ZN7QVectorIN4QCss5ValueEE6detachEv    0x00028448   Section       24  qsvghandler.o(t._ZN7QVectorIN4QCss5ValueEE6detachEv)
    t._ZN7QVectorIN4QCss5ValueEE6mallocEi    0x00028460   Section       54  qsvghandler.o(t._ZN7QVectorIN4QCss5ValueEE6mallocEi)
    t._ZN7QVectorIN4QCss5ValueEE7reallocEii  0x00028498   Section      576  qsvghandler.o(t._ZN7QVectorIN4QCss5ValueEE7reallocEii)
    t._ZN7QVectorIN4QCss5ValueEE7reallocEii.clean 0x000286d8   Section       32  qsvghandler.o(t._ZN7QVectorIN4QCss5ValueEE7reallocEii.clean)
    t._ZN7QVectorIN4QCss5ValueEED1Ev         0x000286f8   Section       34  qsvghandler.o(t._ZN7QVectorIN4QCss5ValueEED1Ev)
    t._ZN7QVectorIN4QCss6PseudoEE13detach_helperEv 0x0002871a   Section       18  qsvghandler.o(t._ZN7QVectorIN4QCss6PseudoEE13detach_helperEv)
    t._ZN7QVectorIN4QCss6PseudoEE4freeEP16QVectorTypedDataIS1_E 0x0002872c   Section       54  qsvghandler.o(t._ZN7QVectorIN4QCss6PseudoEE4freeEP16QVectorTypedDataIS1_E)
    t._ZN7QVectorIN4QCss6PseudoEE6mallocEi   0x00028762   Section       54  qsvghandler.o(t._ZN7QVectorIN4QCss6PseudoEE6mallocEi)
    t._ZN7QVectorIN4QCss6PseudoEE7reallocEii 0x00028798   Section      648  qsvghandler.o(t._ZN7QVectorIN4QCss6PseudoEE7reallocEii)
    t._ZN7QVectorIN4QCss6PseudoEE7reallocEii.clean 0x00028a20   Section       56  qsvghandler.o(t._ZN7QVectorIN4QCss6PseudoEE7reallocEii.clean)
    t._ZN7QVectorIN4QCss6PseudoEED1Ev        0x00028a58   Section       34  qsvghandler.o(t._ZN7QVectorIN4QCss6PseudoEED1Ev)
    t._ZN7QVectorIN4QCss6SymbolEE4freeEP16QVectorTypedDataIS1_E 0x00028a7a   Section       56  qsvghandler.o(t._ZN7QVectorIN4QCss6SymbolEE4freeEP16QVectorTypedDataIS1_E)
    t._ZN7QVectorIN4QCss6SymbolEED1Ev        0x00028ab2   Section       34  qsvghandler.o(t._ZN7QVectorIN4QCss6SymbolEED1Ev)
    t._ZN7QVectorIN4QCss8PageRuleEE13detach_helperEv 0x00028ad4   Section       18  qsvghandler.o(t._ZN7QVectorIN4QCss8PageRuleEE13detach_helperEv)
    t._ZN7QVectorIN4QCss8PageRuleEE4freeEP16QVectorTypedDataIS1_E 0x00028ae6   Section       52  qsvghandler.o(t._ZN7QVectorIN4QCss8PageRuleEE4freeEP16QVectorTypedDataIS1_E)
    t._ZN7QVectorIN4QCss8PageRuleEE6mallocEi 0x00028b1a   Section       52  qsvghandler.o(t._ZN7QVectorIN4QCss8PageRuleEE6mallocEi)
    t._ZN7QVectorIN4QCss8PageRuleEE7reallocEii 0x00028b50   Section      588  qsvghandler.o(t._ZN7QVectorIN4QCss8PageRuleEE7reallocEii)
    t._ZN7QVectorIN4QCss8PageRuleEE7reallocEii.clean 0x00028d9c   Section       52  qsvghandler.o(t._ZN7QVectorIN4QCss8PageRuleEE7reallocEii.clean)
    t._ZN7QVectorIN4QCss8PageRuleEED1Ev      0x00028dd0   Section       34  qsvghandler.o(t._ZN7QVectorIN4QCss8PageRuleEED1Ev)
    t._ZN7QVectorIN4QCss8PageRuleEEaSERKS2_  0x00028df2   Section       54  qsvghandler.o(t._ZN7QVectorIN4QCss8PageRuleEEaSERKS2_)
    t._ZN7QVectorIN4QCss8SelectorEE13detach_helperEv 0x00028e28   Section       18  qsvghandler.o(t._ZN7QVectorIN4QCss8SelectorEE13detach_helperEv)
    t._ZN7QVectorIN4QCss8SelectorEE4freeEP16QVectorTypedDataIS1_E 0x00028e3a   Section       56  qsvghandler.o(t._ZN7QVectorIN4QCss8SelectorEE4freeEP16QVectorTypedDataIS1_E)
    t._ZN7QVectorIN4QCss8SelectorEE6mallocEi 0x00028e72   Section       52  qsvghandler.o(t._ZN7QVectorIN4QCss8SelectorEE6mallocEi)
    t._ZN7QVectorIN4QCss8SelectorEE7reallocEii 0x00028ea8   Section      608  qsvghandler.o(t._ZN7QVectorIN4QCss8SelectorEE7reallocEii)
    t._ZN7QVectorIN4QCss8SelectorEE7reallocEii.clean 0x00029108   Section       32  qsvghandler.o(t._ZN7QVectorIN4QCss8SelectorEE7reallocEii.clean)
    t._ZN7QVectorIN4QCss8SelectorEED1Ev      0x00029128   Section       34  qsvghandler.o(t._ZN7QVectorIN4QCss8SelectorEED1Ev)
    t._ZN7QVectorIN4QCss9MediaRuleEE13detach_helperEv 0x0002914a   Section       18  qsvghandler.o(t._ZN7QVectorIN4QCss9MediaRuleEE13detach_helperEv)
    t._ZN7QVectorIN4QCss9MediaRuleEE4freeEP16QVectorTypedDataIS1_E 0x0002915c   Section       52  qsvghandler.o(t._ZN7QVectorIN4QCss9MediaRuleEE4freeEP16QVectorTypedDataIS1_E)
    t._ZN7QVectorIN4QCss9MediaRuleEE6mallocEi 0x00029190   Section       52  qsvghandler.o(t._ZN7QVectorIN4QCss9MediaRuleEE6mallocEi)
    t._ZN7QVectorIN4QCss9MediaRuleEE7reallocEii 0x000291c4   Section      588  qsvghandler.o(t._ZN7QVectorIN4QCss9MediaRuleEE7reallocEii)
    t._ZN7QVectorIN4QCss9MediaRuleEE7reallocEii.clean 0x00029410   Section       52  qsvghandler.o(t._ZN7QVectorIN4QCss9MediaRuleEE7reallocEii.clean)
    t._ZN7QVectorIN4QCss9MediaRuleEED1Ev     0x00029444   Section       34  qsvghandler.o(t._ZN7QVectorIN4QCss9MediaRuleEED1Ev)
    t._ZN7QVectorIN4QCss9MediaRuleEEaSERKS2_ 0x00029466   Section       54  qsvghandler.o(t._ZN7QVectorIN4QCss9MediaRuleEEaSERKS2_)
    t._ZN7QVectorIN4QCss9StyleRuleEE13detach_helperEv 0x0002949c   Section       18  qsvghandler.o(t._ZN7QVectorIN4QCss9StyleRuleEE13detach_helperEv)
    t._ZN7QVectorIN4QCss9StyleRuleEE4freeEP16QVectorTypedDataIS1_E 0x000294ae   Section       54  qsvghandler.o(t._ZN7QVectorIN4QCss9StyleRuleEE4freeEP16QVectorTypedDataIS1_E)
    t._ZN7QVectorIN4QCss9StyleRuleEE6mallocEi 0x000294e4   Section       54  qsvghandler.o(t._ZN7QVectorIN4QCss9StyleRuleEE6mallocEi)
    t._ZN7QVectorIN4QCss9StyleRuleEE7reallocEii 0x0002951c   Section      600  qsvghandler.o(t._ZN7QVectorIN4QCss9StyleRuleEE7reallocEii)
    t._ZN7QVectorIN4QCss9StyleRuleEE7reallocEii.clean 0x00029774   Section       42  qsvghandler.o(t._ZN7QVectorIN4QCss9StyleRuleEE7reallocEii.clean)
    t._ZN7QVectorIN4QCss9StyleRuleEEC1ERKS2_ 0x0002979e   Section       36  qsvghandler.o(t._ZN7QVectorIN4QCss9StyleRuleEEC1ERKS2_)
    t._ZN7QVectorIN4QCss9StyleRuleEEC1Ev     0x000297c4   Section       24  qsvghandler.o(t._ZN7QVectorIN4QCss9StyleRuleEEC1Ev)
    t._ZN7QVectorIN4QCss9StyleRuleEED1Ev     0x000297dc   Section       34  qsvghandler.o(t._ZN7QVectorIN4QCss9StyleRuleEED1Ev)
    t._ZN7QVectorIN4QCss9StyleRuleEEaSERKS2_ 0x000297fe   Section       54  qsvghandler.o(t._ZN7QVectorIN4QCss9StyleRuleEEaSERKS2_)
    t._ZN7QVectorIN8QSvgText14WhitespaceModeEE13detach_helperEv 0x00029834   Section       18  qsvghandler.o(t._ZN7QVectorIN8QSvgText14WhitespaceModeEE13detach_helperEv)
    t._ZN7QVectorIN8QSvgText14WhitespaceModeEE4freeEP16QVectorTypedDataIS1_E 0x00029846   Section       48  qsvghandler.o(t._ZN7QVectorIN8QSvgText14WhitespaceModeEE4freeEP16QVectorTypedDataIS1_E)
    t._ZN7QVectorIN8QSvgText14WhitespaceModeEE6appendERKS1_ 0x00029876   Section      178  qsvghandler.o(t._ZN7QVectorIN8QSvgText14WhitespaceModeEE6appendERKS1_)
    t._ZN7QVectorIN8QSvgText14WhitespaceModeEE6detachEv 0x00029928   Section       24  qsvghandler.o(t._ZN7QVectorIN8QSvgText14WhitespaceModeEE6detachEv)
    t._ZN7QVectorIN8QSvgText14WhitespaceModeEE6mallocEi 0x00029940   Section       52  qsvghandler.o(t._ZN7QVectorIN8QSvgText14WhitespaceModeEE6mallocEi)
    t._ZN7QVectorIN8QSvgText14WhitespaceModeEE6resizeEi 0x00029974   Section       82  qsvghandler.o(t._ZN7QVectorIN8QSvgText14WhitespaceModeEE6resizeEi)
    t._ZN7QVectorIN8QSvgText14WhitespaceModeEE7reallocEii 0x000299c8   Section      528  qsvghandler.o(t._ZN7QVectorIN8QSvgText14WhitespaceModeEE7reallocEii)
    t._ZN7QVectorIN8QSvgText14WhitespaceModeEE7reallocEii.clean 0x00029bd8   Section       10  qsvghandler.o(t._ZN7QVectorIN8QSvgText14WhitespaceModeEE7reallocEii.clean)
    t._ZN7QVectorIN8QSvgText14WhitespaceModeEED1Ev 0x00029be2   Section       34  qsvghandler.o(t._ZN7QVectorIN8QSvgText14WhitespaceModeEED1Ev)
    t._ZN7QVectorIP8QSvgNodeE13detach_helperEv 0x00029c04   Section       18  qsvghandler.o(t._ZN7QVectorIP8QSvgNodeE13detach_helperEv)
    t._ZN7QVectorIP8QSvgNodeE4freeEP16QVectorTypedDataIS1_E 0x00029c16   Section       24  qsvghandler.o(t._ZN7QVectorIP8QSvgNodeE4freeEP16QVectorTypedDataIS1_E)
    t._ZN7QVectorIP8QSvgNodeE6appendERKS1_   0x00029c2e   Section      142  qsvghandler.o(t._ZN7QVectorIP8QSvgNodeE6appendERKS1_)
    t._ZN7QVectorIP8QSvgNodeE6detachEv       0x00029cbc   Section       24  qsvghandler.o(t._ZN7QVectorIP8QSvgNodeE6detachEv)
    t._ZN7QVectorIP8QSvgNodeE6mallocEi       0x00029cd4   Section       52  qsvghandler.o(t._ZN7QVectorIP8QSvgNodeE6mallocEi)
    t._ZN7QVectorIP8QSvgNodeE6resizeEi       0x00029d08   Section       82  qsvghandler.o(t._ZN7QVectorIP8QSvgNodeE6resizeEi)
    t._ZN7QVectorIP8QSvgNodeE7reallocEii     0x00029d5c   Section      516  qsvghandler.o(t._ZN7QVectorIP8QSvgNodeE7reallocEii)
    t._ZN7QVectorIP8QSvgNodeE7reallocEii.clean 0x00029f60   Section        8  qsvghandler.o(t._ZN7QVectorIP8QSvgNodeE7reallocEii.clean)
    t._ZN7QVectorIP8QSvgNodeED1Ev            0x00029f68   Section       34  qsvghandler.o(t._ZN7QVectorIP8QSvgNodeED1Ev)
    t._ZN7QVectorIP8QSvgNodeEixEi            0x00029f8c   Section      180  qsvgtinydocument.o(t._ZN7QVectorIP8QSvgNodeEixEi)
    t._ZN7QVectorIP9QSvgTspanE13detach_helperEv 0x0002a040   Section       18  qsvggraphics.o(t._ZN7QVectorIP9QSvgTspanE13detach_helperEv)
    t._ZN7QVectorIP9QSvgTspanE4backEv        0x0002a054   Section      144  qsvggraphics.o(t._ZN7QVectorIP9QSvgTspanE4backEv)
    t._ZN7QVectorIP9QSvgTspanE4freeEP16QVectorTypedDataIS1_E 0x0002a0e4   Section       24  qsvggraphics.o(t._ZN7QVectorIP9QSvgTspanE4freeEP16QVectorTypedDataIS1_E)
    t._ZN7QVectorIP9QSvgTspanE6appendERKS1_  0x0002a0fc   Section      142  qsvggraphics.o(t._ZN7QVectorIP9QSvgTspanE6appendERKS1_)
    t._ZN7QVectorIP9QSvgTspanE6detachEv      0x0002a18a   Section       24  qsvggraphics.o(t._ZN7QVectorIP9QSvgTspanE6detachEv)
    t._ZN7QVectorIP9QSvgTspanE6mallocEi      0x0002a1a2   Section       52  qsvggraphics.o(t._ZN7QVectorIP9QSvgTspanE6mallocEi)
    t._ZN7QVectorIP9QSvgTspanE7reallocEii    0x0002a1d8   Section      516  qsvggraphics.o(t._ZN7QVectorIP9QSvgTspanE7reallocEii)
    t._ZN7QVectorIP9QSvgTspanE7reallocEii.clean 0x0002a3dc   Section        8  qsvggraphics.o(t._ZN7QVectorIP9QSvgTspanE7reallocEii.clean)
    t._ZN7QVectorIP9QSvgTspanED1Ev           0x0002a3e4   Section       34  qsvggraphics.o(t._ZN7QVectorIP9QSvgTspanED1Ev)
    t._ZN7QVectorIP9QSvgTspanEixEi           0x0002a408   Section      164  qsvggraphics.o(t._ZN7QVectorIP9QSvgTspanEixEi)
    t._ZN7QVectorIfE13detach_helperEv        0x0002a4ac   Section       18  qsvghandler.o(t._ZN7QVectorIfE13detach_helperEv)
    t._ZN7QVectorIfE4freeEP16QVectorTypedDataIfE 0x0002a4be   Section       24  qsvghandler.o(t._ZN7QVectorIfE4freeEP16QVectorTypedDataIfE)
    t._ZN7QVectorIfE6appendERKf              0x0002a4d6   Section      142  qsvghandler.o(t._ZN7QVectorIfE6appendERKf)
    t._ZN7QVectorIfE6mallocEi                0x0002a564   Section       52  qsvghandler.o(t._ZN7QVectorIfE6mallocEi)
    t._ZN7QVectorIfE7reallocEii              0x0002a598   Section      516  qsvghandler.o(t._ZN7QVectorIfE7reallocEii)
    t._ZN7QVectorIfE7reallocEii.clean        0x0002a79c   Section        8  qsvghandler.o(t._ZN7QVectorIfE7reallocEii.clean)
    t._ZN7QVectorIfE7reserveEi               0x0002a7a4   Section       54  qsvghandler.o(t._ZN7QVectorIfE7reserveEi)
    t._ZN7QVectorIfEC1Ev                     0x0002a7dc   Section       24  qsvghandler.o(t._ZN7QVectorIfEC1Ev)
    t._ZN7QVectorIfED1Ev                     0x0002a7f4   Section       34  qsvghandler.o(t._ZN7QVectorIfED1Ev)
    t._ZN7QVectorIfEaSERKS0_                 0x0002a816   Section       54  qsvghandler.o(t._ZN7QVectorIfEaSERKS0_)
    t._ZN7QVectorIfEixEi                     0x0002a84c   Section      180  qsvghandler.o(t._ZN7QVectorIfEixEi)
    t._ZN7QVectorIfEpLERKS0_                 0x0002a900   Section       94  qsvghandler.o(t._ZN7QVectorIfEpLERKS0_)
    t._ZN7QVectorIiE13detach_helperEv        0x0002a95e   Section       18  qsvghandler.o(t._ZN7QVectorIiE13detach_helperEv)
    t._ZN7QVectorIiE4freeEP16QVectorTypedDataIiE 0x0002a970   Section       24  qsvghandler.o(t._ZN7QVectorIiE4freeEP16QVectorTypedDataIiE)
    t._ZN7QVectorIiE6appendERKi              0x0002a988   Section      142  qsvghandler.o(t._ZN7QVectorIiE6appendERKi)
    t._ZN7QVectorIiE6detachEv                0x0002aa16   Section       24  qsvghandler.o(t._ZN7QVectorIiE6detachEv)
    t._ZN7QVectorIiE6mallocEi                0x0002aa2e   Section       52  qsvghandler.o(t._ZN7QVectorIiE6mallocEi)
    t._ZN7QVectorIiE6resizeEi                0x0002aa62   Section       82  qsvghandler.o(t._ZN7QVectorIiE6resizeEi)
    t._ZN7QVectorIiE7reallocEii              0x0002aab4   Section      516  qsvghandler.o(t._ZN7QVectorIiE7reallocEii)
    t._ZN7QVectorIiE7reallocEii.clean        0x0002acb8   Section        8  qsvghandler.o(t._ZN7QVectorIiE7reallocEii.clean)
    t._ZN7QVectorIiED1Ev                     0x0002acc0   Section       34  qsvghandler.o(t._ZN7QVectorIiED1Ev)
    t._ZN9QHashNodeI5QChar9QSvgGlyphEC1ERKS0_RKS1_ 0x0002ace2   Section       30  qsvgfont.o(t._ZN9QHashNodeI5QChar9QSvgGlyphEC1ERKS0_RKS1_)
    t._ZN9QHashNodeI7QString14QSvgRefCounterI21QSvgFillStylePropertyEEC1ERKS0_RKS3_ 0x0002ad00   Section       40  qsvgtinydocument.o(t._ZN9QHashNodeI7QString14QSvgRefCounterI21QSvgFillStylePropertyEEC1ERKS0_RKS3_)
    t._ZN9QHashNodeI7QString14QSvgRefCounterI21QSvgFillStylePropertyEEC1ERKS0_RKS3_.clean 0x0002ad28   Section       12  qsvgtinydocument.o(t._ZN9QHashNodeI7QString14QSvgRefCounterI21QSvgFillStylePropertyEEC1ERKS0_RKS3_.clean)
    t._ZN9QHashNodeI7QString14QSvgRefCounterI8QSvgFontEEC1ERKS0_RKS3_ 0x0002ad34   Section       40  qsvgtinydocument.o(t._ZN9QHashNodeI7QString14QSvgRefCounterI8QSvgFontEEC1ERKS0_RKS3_)
    t._ZN9QHashNodeI7QString14QSvgRefCounterI8QSvgFontEEC1ERKS0_RKS3_.clean 0x0002ad5c   Section       12  qsvgtinydocument.o(t._ZN9QHashNodeI7QString14QSvgRefCounterI8QSvgFontEEC1ERKS0_RKS3_.clean)
    t._ZN9QHashNodeI7QStringP8QSvgNodeEC1ERKS0_RKS2_ 0x0002ad68   Section       30  qsvgtinydocument.o(t._ZN9QHashNodeI7QStringP8QSvgNodeEC1ERKS0_RKS2_)
    t._ZNK14QScopedPointerI10QBrushData24QBrushDataPointerDeleterEptEv 0x0002ad88   Section       40  qsvggenerator.o(t._ZNK14QScopedPointerI10QBrushData24QBrushDataPointerDeleterEptEv)
    t._ZNK14QScopedPointerI11QObjectData21QScopedPointerDeleterIS0_EEptEv 0x0002adb0   Section       40  qsvgrenderer.o(t._ZNK14QScopedPointerI11QObjectData21QScopedPointerDeleterIS0_EEptEv)
    t._ZNK14QScopedPointerI19QPainterPathPrivate26QPainterPathPrivateDeleterEptEv 0x0002add8   Section       40  qsvggenerator.o(t._ZNK14QScopedPointerI19QPainterPathPrivate26QPainterPathPrivateDeleterEptEv)
    t._ZNK14QScopedPointerI20QGraphicsItemPrivate21QScopedPointerDeleterIS0_EEptEv 0x0002ae00   Section       40  qgraphicssvgitem.o(t._ZNK14QScopedPointerI20QGraphicsItemPrivate21QScopedPointerDeleterIS0_EEptEv)
    t._ZNK5QHashI5QChar9QSvgGlyphE8containsERKS0_ 0x0002ae28   Section       32  qsvgfont.o(t._ZNK5QHashI5QChar9QSvgGlyphE8containsERKS0_)
    t._ZNK5QHashI5QChar9QSvgGlyphE8findNodeERKS0_Pj 0x0002ae48   Section      268  qsvgfont.o(t._ZNK5QHashI5QChar9QSvgGlyphE8findNodeERKS0_Pj)
    t._ZNK5QHashI5QChar9QSvgGlyphEixERKS0_   0x0002af54   Section       92  qsvgfont.o(t._ZNK5QHashI5QChar9QSvgGlyphEixERKS0_)
    t._ZNK5QHashI7QString14QSvgRefCounterI21QSvgFillStylePropertyEE8findNodeERKS0_Pj 0x0002afb0   Section      240  qsvgtinydocument.o(t._ZNK5QHashI7QString14QSvgRefCounterI21QSvgFillStylePropertyEE8findNodeERKS0_Pj)
    t._ZNK5QHashI7QString14QSvgRefCounterI8QSvgFontEE8findNodeERKS0_Pj 0x0002b0a0   Section      240  qsvgtinydocument.o(t._ZNK5QHashI7QString14QSvgRefCounterI8QSvgFontEE8findNodeERKS0_Pj)
    t._ZNK5QHashI7QStringP8QSvgNodeE8findNodeERKS0_Pj 0x0002b190   Section      240  qsvgtinydocument.o(t._ZNK5QHashI7QStringP8QSvgNodeE8findNodeERKS0_Pj)
    t._ZNK5QListI14QSvgRefCounterI20QSvgAnimateTransformEE14const_iteratorneERKS4_ 0x0002b280   Section       18  qsvgstyle.o(t._ZNK5QListI14QSvgRefCounterI20QSvgAnimateTransformEE14const_iteratorneERKS4_)
    t._ZNK5QListI14QSvgRefCounterI20QSvgAnimateTransformEE7isEmptyEv 0x0002b292   Section       24  qsvgnode.o(t._ZNK5QListI14QSvgRefCounterI20QSvgAnimateTransformEE7isEmptyEv)
    t._ZNK5QListI14QSvgRefCounterI20QSvgAnimateTransformEE8constEndEv 0x0002b2aa   Section       20  qsvgstyle.o(t._ZNK5QListI14QSvgRefCounterI20QSvgAnimateTransformEE8constEndEv)
    t._ZNK5QListI7QStringE14const_iteratorneERKS2_ 0x0002b2be   Section       18  qsvgstructure.o(t._ZNK5QListI7QStringE14const_iteratorneERKS2_)
    t._ZNK5QListI7QStringE2atEi              0x0002b2d0   Section      164  qsvghandler.o(t._ZNK5QListI7QStringE2atEi)
    t._ZNK5QListI7QStringE7isEmptyEv         0x0002b374   Section       24  qsvgstructure.o(t._ZNK5QListI7QStringE7isEmptyEv)
    t._ZNK5QListIN11QTextLayout11FormatRangeEE7isEmptyEv 0x0002b38c   Section       24  qsvggraphics.o(t._ZNK5QListIN11QTextLayout11FormatRangeEE7isEmptyEv)
    t._ZNK5QListIN20QGraphicsItemPrivate11ExtraStructEE2atEi 0x0002b3a4   Section      152  qgraphicssvgitem.o(t._ZNK5QListIN20QGraphicsItemPrivate11ExtraStructEE2atEi)
    t._ZNK5QListIP13QGraphicsItemE2atEi      0x0002b43c   Section      152  qgraphicssvgitem.o(t._ZNK5QListIP13QGraphicsItemE2atEi)
    t._ZNK5QListIP8QSvgNodeE14const_iteratorneERKS3_ 0x0002b4d4   Section       18  qsvgstructure.o(t._ZNK5QListIP8QSvgNodeE14const_iteratorneERKS3_)
    t._ZNK5QListIP8QSvgNodeE8iteratorneERKS3_ 0x0002b4e6   Section       18  qsvgstructure.o(t._ZNK5QListIP8QSvgNodeE8iteratorneERKS3_)
    t._ZNK7QVectorI19QXmlStreamAttributeE2atEi 0x0002b4f8   Section      152  qsvghandler.o(t._ZNK7QVectorI19QXmlStreamAttributeE2atEi)
    t._ZNK7QVectorI5QPairIf6QColorEE2atEi    0x0002b590   Section      152  qsvggenerator.o(t._ZNK7QVectorI5QPairIf6QColorEE2atEi)
    t._ZNK7QVectorI6QColorE7isEmptyEv        0x0002b628   Section       18  qsvghandler.o(t._ZNK7QVectorI6QColorE7isEmptyEv)
    t._ZNK7QVectorI7QStringE7isEmptyEv       0x0002b63a   Section       18  qsvggraphics.o(t._ZNK7QVectorI7QStringE7isEmptyEv)
    t._ZNK7QVectorIN11QSvgHandler11CurrentNodeEE7isEmptyEv 0x0002b64c   Section       18  qsvghandler.o(t._ZNK7QVectorIN11QSvgHandler11CurrentNodeEE7isEmptyEv)
    t._ZNK7QVectorIN4QCss11DeclarationEE2atEi 0x0002b660   Section      148  qsvghandler.o(t._ZNK7QVectorIN4QCss11DeclarationEE2atEi)
    t._ZNK7QVectorIN4QCss6SymbolEE2atEi      0x0002b6f4   Section      148  qsvghandler.o(t._ZNK7QVectorIN4QCss6SymbolEE2atEi)
    t._ZNK7QVectorIN8QSvgText14WhitespaceModeEE7isEmptyEv 0x0002b788   Section       18  qsvghandler.o(t._ZNK7QVectorIN8QSvgText14WhitespaceModeEE7isEmptyEv)
    t._ZNK7QVectorIP8QSvgNodeE7isEmptyEv     0x0002b79a   Section       18  qsvghandler.o(t._ZNK7QVectorIP8QSvgNodeE7isEmptyEv)
    t._ZNK7QVectorIfE2atEi                   0x0002b7ac   Section      148  qsvghandler.o(t._ZNK7QVectorIfE2atEi)
    t._ZNK7QVectorIiE7isEmptyEv              0x0002b840   Section       18  qsvghandler.o(t._ZNK7QVectorIiE7isEmptyEv)
    .extab._Z14boundsOnStrokeP8QPainterRK12QPainterPathf 0x0002b854   Data           0  qsvggraphics.o(.ARM.extab)
    .extab._ZN7QSvgArcC1EP8QSvgNodeRK12QPainterPath 0x0002b884   Data           0  qsvggraphics.o(.ARM.extab)
    .extab._ZNK7QSvgArc6boundsEP8QPainterR15QSvgExtraStates 0x0002b894   Data           0  qsvggraphics.o(.ARM.extab)
    .extab._ZN11QSvgEllipseC1EP8QSvgNodeRK6QRectF 0x0002b8a4   Data           0  qsvggraphics.o(.ARM.extab)
    .extab._ZN11QSvgEllipse4drawEP8QPainterR15QSvgExtraStates 0x0002b8b4   Data           0  qsvggraphics.o(.ARM.extab)
    .extab._ZNK11QSvgEllipse6boundsEP8QPainterR15QSvgExtraStates 0x0002b8d4   Data           0  qsvggraphics.o(.ARM.extab)
    .extab._ZN9QSvgImageC1EP8QSvgNodeRK6QImageRK5QRect 0x0002b8f4   Data           0  qsvggraphics.o(.ARM.extab)
    .extab._ZNK8QSvgLine6boundsEP8QPainterR15QSvgExtraStates 0x0002b90c   Data           0  qsvggraphics.o(.ARM.extab)
    .extab._ZN8QSvgPathC1EP8QSvgNodeRK12QPainterPath 0x0002b91c   Data           0  qsvggraphics.o(.ARM.extab)
    .extab._ZN8QSvgPath4drawEP8QPainterR15QSvgExtraStates 0x0002b92c   Data           0  qsvggraphics.o(.ARM.extab)
    .extab._ZNK8QSvgPath6boundsEP8QPainterR15QSvgExtraStates 0x0002b94c   Data           0  qsvggraphics.o(.ARM.extab)
    .extab._ZN11QSvgPolygonC1EP8QSvgNodeRK9QPolygonF 0x0002b95c   Data           0  qsvggraphics.o(.ARM.extab)
    .extab._ZN11QSvgPolygon4drawEP8QPainterR15QSvgExtraStates 0x0002b96c   Data           0  qsvggraphics.o(.ARM.extab)
    .extab._ZNK11QSvgPolygon6boundsEP8QPainterR15QSvgExtraStates 0x0002b98c   Data           0  qsvggraphics.o(.ARM.extab)
    .extab._ZN12QSvgPolylineC1EP8QSvgNodeRK9QPolygonF 0x0002b9a4   Data           0  qsvggraphics.o(.ARM.extab)
    .extab._ZN12QSvgPolyline4drawEP8QPainterR15QSvgExtraStates 0x0002b9b4   Data           0  qsvggraphics.o(.ARM.extab)
    .extab._ZNK12QSvgPolyline6boundsEP8QPainterR15QSvgExtraStates 0x0002b9d4   Data           0  qsvggraphics.o(.ARM.extab)
    .extab._ZN8QSvgRectC1EP8QSvgNodeRK6QRectFii 0x0002b9ec   Data           0  qsvggraphics.o(.ARM.extab)
    .extab._ZN8QSvgRect4drawEP8QPainterR15QSvgExtraStates 0x0002b9fc   Data           0  qsvggraphics.o(.ARM.extab)
    .extab._ZNK8QSvgRect6boundsEP8QPainterR15QSvgExtraStates 0x0002ba34   Data           0  qsvggraphics.o(.ARM.extab)
    .extab._ZN8QSvgTextC1EP8QSvgNodeRK7QPointF 0x0002ba44   Data           0  qsvggraphics.o(.ARM.extab)
    .extab._ZN8QSvgTextD1Ev                  0x0002ba54   Data           0  qsvggraphics.o(.ARM.extab)
    .extab._ZN8QSvgText4drawEP8QPainterR15QSvgExtraStates 0x0002ba6c   Data           0  qsvggraphics.o(.ARM.extab)
    .extab._ZN8QSvgText7addTextERK7QString   0x0002bb9c   Data           0  qsvggraphics.o(.ARM.extab)
    .extab._ZN7QVectorI7QPointFE7reallocEii  0x0002bbb4   Data           0  qsvggraphics.o(.ARM.extab)
    .extab._ZN7QSvgArcD1Ev                   0x0002bbe4   Data           0  qsvggraphics.o(.ARM.extab)
    .extab._ZN9QSvgImageD1Ev                 0x0002bbf4   Data           0  qsvggraphics.o(.ARM.extab)
    .extab._ZN8QSvgPathD1Ev                  0x0002bc04   Data           0  qsvggraphics.o(.ARM.extab)
    .extab._ZN11QSvgPolygonD1Ev              0x0002bc14   Data           0  qsvggraphics.o(.ARM.extab)
    .extab._ZN12QSvgPolylineD1Ev             0x0002bc24   Data           0  qsvggraphics.o(.ARM.extab)
    .extab._ZN7QVectorIP9QSvgTspanE7reallocEii 0x0002bc34   Data           0  qsvggraphics.o(.ARM.extab)
    .extab._ZN5QListIN11QTextLayout11FormatRangeEE9node_copyEPNS2_4NodeES4_S4_ 0x0002bc50   Data           0  qsvggraphics.o(.ARM.extab)
    .extab._ZN5QListIN11QTextLayout11FormatRangeEE13detach_helperEi 0x0002bc74   Data           0  qsvggraphics.o(.ARM.extab)
    .extab._ZN7QVectorI5QListIN11QTextLayout11FormatRangeEEE7reallocEii 0x0002bc90   Data           0  qsvggraphics.o(.ARM.extab)
    .extab._ZN7QVectorI7QStringE7reallocEii  0x0002bcbc   Data           0  qsvggraphics.o(.ARM.extab)
    .extab._ZN5QListIN11QTextLayout11FormatRangeEE14node_constructEPNS2_4NodeERKS1_ 0x0002bcfc   Data           0  qsvggraphics.o(.ARM.extab)
    .extab._ZN5QListIN11QTextLayout11FormatRangeEE18detach_helper_growEii 0x0002bd0c   Data           0  qsvggraphics.o(.ARM.extab)
    .extab._ZN5QListIN11QTextLayout11FormatRangeEE6appendERKS1_ 0x0002bd3c   Data           0  qsvggraphics.o(.ARM.extab)
    .extab._ZN7QVectorI5QListIN11QTextLayout11FormatRangeEEE6appendERKS3_ 0x0002bd6c   Data           0  qsvggraphics.o(.ARM.extab)
    .extab._ZN7QVectorI7QStringE6appendERKS0_ 0x0002bd8c   Data           0  qsvggraphics.o(.ARM.extab)
    .extab._ZN9QSvgTspanD1Ev                 0x0002bdac   Data           0  qsvggraphics.o(.ARM.extab)
    .extab._Z6someIdRK20QXmlStreamAttributes 0x0002bdbc   Data           0  qsvghandler.o(.ARM.extab)
    .extab._Z16parseNumbersListRPK5QChar     0x0002bdec   Data           0  qsvghandler.o(.ARM.extab)
    .extab._Z19parsePercentageListRPK5QChar  0x0002bdfc   Data           0  qsvghandler.o(.ARM.extab)
    .extab._Z9idFromUrlRK7QString            0x0002be0c   Data           0  qsvghandler.o(.ARM.extab)
    .extab._Z12resolveColorRK10QStringRefR6QColorP11QSvgHandler 0x0002be1c   Data           0  qsvghandler.o(.ARM.extab)
    .extab._Z11parseLengthRK7QStringRN11QSvgHandler10LengthTypeEPS2_Pb 0x0002be6c   Data           0  qsvghandler.o(.ARM.extab)
    .extab._Z17parsePathDataFastRK10QStringRefR12QPainterPath 0x0002be7c   Data           0  qsvghandler.o(.ARM.extab)
    .extab._Z14createSvgGlyphP8QSvgFontRK20QXmlStreamAttributes 0x0002be94   Data           0  qsvghandler.o(.ARM.extab)
    .extab._Z12styleFromUrlP8QSvgNodeRK7QString 0x0002bec4   Data           0  qsvghandler.o(.ARM.extab)
    .extab._Z10parseBrushP8QSvgNodeRK14QSvgAttributesP11QSvgHandler 0x0002bed4   Data           0  qsvghandler.o(.ARM.extab)
    .extab._Z25parseTransformationMatrixRK10QStringRef 0x0002bf24   Data           0  qsvghandler.o(.ARM.extab)
    .extab._Z8parsePenP8QSvgNodeRK14QSvgAttributesP11QSvgHandler 0x0002bf5c   Data           0  qsvghandler.o(.ARM.extab)
    .extab._Z9parseFontP8QSvgNodeRK14QSvgAttributesP11QSvgHandler 0x0002bfdc   Data           0  qsvghandler.o(.ARM.extab)
    .extab._Z14parseTransformP8QSvgNodeRK14QSvgAttributesP11QSvgHandler 0x0002c024   Data           0  qsvghandler.o(.ARM.extab)
    .extab._Z18parseCSStoXMLAttrsRK7QVectorIN4QCss11DeclarationEER20QXmlStreamAttributes 0x0002c03c   Data           0  qsvghandler.o(.ARM.extab)
    .extab._ZN11QSvgHandler18parseCSStoXMLAttrsE7QStringP7QVectorI16QSvgCssAttributeE 0x0002c0a4   Data           0  qsvghandler.o(.ARM.extab)
    .extab._ZN14QSvgAttributesC1ERK20QXmlStreamAttributesP11QSvgHandler 0x0002c16c   Data           0  qsvghandler.o(.ARM.extab)
    .extab._Z11parseOthersP8QSvgNodeRK14QSvgAttributesP11QSvgHandler 0x0002c2f4   Data           0  qsvghandler.o(.ARM.extab)
    .extab._Z22svgToQtCompositionModeRK7QString 0x0002c30c   Data           0  qsvghandler.o(.ARM.extab)
    .extab._Z11parseCompOpP8QSvgNodeRK14QSvgAttributesP11QSvgHandler 0x0002c31c   Data           0  qsvghandler.o(.ARM.extab)
    .extab._Z12parseOpacityP8QSvgNodeRK14QSvgAttributesP11QSvgHandler 0x0002c344   Data           0  qsvghandler.o(.ARM.extab)
    .extab._Z10parseStyleP8QSvgNodeRK20QXmlStreamAttributesP11QSvgHandler 0x0002c36c   Data           0  qsvghandler.o(.ARM.extab)
    .extab._Z14cssStyleLookupP8QSvgNodeP11QSvgHandlerP17QSvgStyleSelector 0x0002c37c   Data           0  qsvghandler.o(.ARM.extab)
    .extab._Z13parseCoreNodeP8QSvgNodeRK20QXmlStreamAttributes 0x0002c39c   Data           0  qsvghandler.o(.ARM.extab)
    .extab._Z21parseAnimateColorNodeP8QSvgNodeRK20QXmlStreamAttributesP11QSvgHandler 0x0002c4d4   Data           0  qsvghandler.o(.ARM.extab)
    .extab._Z18parseNumberTripletR7QVectorIfERPK5QChar 0x0002c60c   Data           0  qsvghandler.o(.ARM.extab)
    .extab._Z25parseAnimateTransformNodeP8QSvgNodeRK20QXmlStreamAttributesP11QSvgHandler 0x0002c61c   Data           0  qsvghandler.o(.ARM.extab)
    .extab._Z16createCircleNodeP8QSvgNodeRK20QXmlStreamAttributesP11QSvgHandler 0x0002c894   Data           0  qsvghandler.o(.ARM.extab)
    .extab._Z14createDefsNodeP8QSvgNodeRK20QXmlStreamAttributesP11QSvgHandler 0x0002c8e4   Data           0  qsvghandler.o(.ARM.extab)
    .extab._Z17createEllipseNodeP8QSvgNodeRK20QXmlStreamAttributesP11QSvgHandler 0x0002c8f4   Data           0  qsvghandler.o(.ARM.extab)
    .extab._Z14createFontNodeP8QSvgNodeRK20QXmlStreamAttributesP11QSvgHandler 0x0002c95c   Data           0  qsvghandler.o(.ARM.extab)
    .extab._Z17parseFontFaceNodeP17QSvgStylePropertyRK20QXmlStreamAttributesP11QSvgHandler 0x0002c9c4   Data           0  qsvghandler.o(.ARM.extab)
    .extab._Z21parseFontFaceNameNodeP17QSvgStylePropertyRK20QXmlStreamAttributesP11QSvgHandler 0x0002ca14   Data           0  qsvghandler.o(.ARM.extab)
    .extab._Z11createGNodeP8QSvgNodeRK20QXmlStreamAttributesP11QSvgHandler 0x0002ca4c   Data           0  qsvghandler.o(.ARM.extab)
    .extab._Z15createImageNodeP8QSvgNodeRK20QXmlStreamAttributesP11QSvgHandler 0x0002ca5c   Data           0  qsvghandler.o(.ARM.extab)
    .extab._Z14createLineNodeP8QSvgNodeRK20QXmlStreamAttributesP11QSvgHandler 0x0002cbac   Data           0  qsvghandler.o(.ARM.extab)
    .extab._Z17parseBaseGradientP8QSvgNodeRK20QXmlStreamAttributesP17QSvgGradientStyleP11QSvgHandler 0x0002cc14   Data           0  qsvghandler.o(.ARM.extab)
    .extab._Z24createLinearGradientNodeP8QSvgNodeRK20QXmlStreamAttributesP11QSvgHandler 0x0002cca4   Data           0  qsvghandler.o(.ARM.extab)
    .extab._Z14createPathNodeP8QSvgNodeRK20QXmlStreamAttributesP11QSvgHandler 0x0002cd24   Data           0  qsvghandler.o(.ARM.extab)
    .extab._Z17createPolygonNodeP8QSvgNodeRK20QXmlStreamAttributesP11QSvgHandler 0x0002cd4c   Data           0  qsvghandler.o(.ARM.extab)
    .extab._Z18createPolylineNodeP8QSvgNodeRK20QXmlStreamAttributesP11QSvgHandler 0x0002cd8c   Data           0  qsvghandler.o(.ARM.extab)
    .extab._Z24createRadialGradientNodeP8QSvgNodeRK20QXmlStreamAttributesP11QSvgHandler 0x0002cdcc   Data           0  qsvghandler.o(.ARM.extab)
    .extab._Z14createRectNodeP8QSvgNodeRK20QXmlStreamAttributesP11QSvgHandler 0x0002ce64   Data           0  qsvghandler.o(.ARM.extab)
    .extab._Z20createSolidColorNodeP8QSvgNodeRK20QXmlStreamAttributesP11QSvgHandler 0x0002cefc   Data           0  qsvghandler.o(.ARM.extab)
    .extab._Z13parseStopNodeP17QSvgStylePropertyRK20QXmlStreamAttributesP11QSvgHandler 0x0002cf2c   Data           0  qsvghandler.o(.ARM.extab)
    .extab._Z14parseStyleNodeP8QSvgNodeRK20QXmlStreamAttributesP11QSvgHandler 0x0002d014   Data           0  qsvghandler.o(.ARM.extab)
    .extab._Z13createSvgNodeP8QSvgNodeRK20QXmlStreamAttributesP11QSvgHandler 0x0002d03c   Data           0  qsvghandler.o(.ARM.extab)
    .extab._Z16createSwitchNodeP8QSvgNodeRK20QXmlStreamAttributesP11QSvgHandler 0x0002d10c   Data           0  qsvghandler.o(.ARM.extab)
    .extab._Z14createTextNodeP8QSvgNodeRK20QXmlStreamAttributesP11QSvgHandler 0x0002d11c   Data           0  qsvghandler.o(.ARM.extab)
    .extab._Z18createTextAreaNodeP8QSvgNodeRK20QXmlStreamAttributesP11QSvgHandler 0x0002d154   Data           0  qsvghandler.o(.ARM.extab)
    .extab._Z15createTspanNodeP8QSvgNodeRK20QXmlStreamAttributesP11QSvgHandler 0x0002d18c   Data           0  qsvghandler.o(.ARM.extab)
    .extab._Z13createUseNodeP8QSvgNodeRK20QXmlStreamAttributesP11QSvgHandler 0x0002d1a4   Data           0  qsvghandler.o(.ARM.extab)
    .extab._Z16findGroupFactoryRK7QString    0x0002d24c   Data           0  qsvghandler.o(.ARM.extab)
    .extab._Z19findGraphicsFactoryRK7QString 0x0002d25c   Data           0  qsvghandler.o(.ARM.extab)
    .extab._Z15findUtilFactoryRK7QString     0x0002d26c   Data           0  qsvghandler.o(.ARM.extab)
    .extab._Z22findStyleFactoryMethodRK7QString 0x0002d27c   Data           0  qsvghandler.o(.ARM.extab)
    .extab._Z26findStyleUtilFactoryMethodRK7QString 0x0002d28c   Data           0  qsvghandler.o(.ARM.extab)
    .extab._ZN11QSvgHandler16resolveGradientsEP8QSvgNode 0x0002d29c   Data           0  qsvghandler.o(.ARM.extab)
    .extab._ZN11QSvgHandler21processingInstructionERK7QStringS2_ 0x0002d30c   Data           0  qsvghandler.o(.ARM.extab)
    .extab._ZN11QSvgHandler10charactersERK10QStringRef 0x0002d40c   Data           0  qsvghandler.o(.ARM.extab)
    .extab._ZN11QSvgHandler12startElementERK7QStringRK20QXmlStreamAttributes 0x0002d44c   Data           0  qsvghandler.o(.ARM.extab)
    .extab._ZN11QSvgHandler5parseEv          0x0002d4fc   Data           0  qsvghandler.o(.ARM.extab)
    .extab._ZN11QSvgHandler4initEv           0x0002d57c   Data           0  qsvghandler.o(.ARM.extab)
    .extab._ZN11QSvgHandlerC1EP9QIODevice    0x0002d59c   Data           0  qsvghandler.o(.ARM.extab)
    .extab._ZN11QSvgHandlerC1ERK10QByteArray 0x0002d5f4   Data           0  qsvghandler.o(.ARM.extab)
    .extab._ZN11QSvgHandlerC1EP16QXmlStreamReader 0x0002d64c   Data           0  qsvghandler.o(.ARM.extab)
    .extab._ZN11QSvgHandlerD1Ev              0x0002d694   Data           0  qsvghandler.o(.ARM.extab)
    .extab._ZN6QDebugC1E9QtMsgType           0x0002d6e4   Data           0  qsvghandler.o(.ARM.extab)
    .extab._ZN7QVectorIfE7reallocEii         0x0002d6fc   Data           0  qsvghandler.o(.ARM.extab)
    .extab._ZN7QVectorIiE7reallocEii         0x0002d718   Data           0  qsvghandler.o(.ARM.extab)
    .extab._ZN7QVectorI6QColorE7reallocEii   0x0002d734   Data           0  qsvghandler.o(.ARM.extab)
    .extab._ZN7QVectorI6QColorE6appendERKS0_ 0x0002d760   Data           0  qsvghandler.o(.ARM.extab)
    .extab._ZN7QVectorIN4QCss5ValueEE7reallocEii 0x0002d778   Data           0  qsvghandler.o(.ARM.extab)
    .extab._ZN28QExplicitlySharedDataPointerIN4QCss11Declaration15DeclarationDataEED1Ev 0x0002d7a4   Data           0  qsvghandler.o(.ARM.extab)
    .extab._ZN14QSvgAttributesD1Ev           0x0002d7bc   Data           0  qsvghandler.o(.ARM.extab)
    .extab._ZN16QSvgCssAttributeC1ERKS_      0x0002d7cc   Data           0  qsvghandler.o(.ARM.extab)
    .extab._ZN7QVectorI16QSvgCssAttributeE7reallocEii 0x0002d7dc   Data           0  qsvghandler.o(.ARM.extab)
    .extab._ZN7QVectorI16QSvgCssAttributeE6appendERKS0_ 0x0002d808   Data           0  qsvghandler.o(.ARM.extab)
    .extab._ZN19QXmlStreamStringRefC1ERK10QStringRef 0x0002d828   Data           0  qsvghandler.o(.ARM.extab)
    .extab._ZN6QDebugD1Ev                    0x0002d838   Data           0  qsvghandler.o(.ARM.extab)
    .extab._ZN6QDebuglsEPKc                  0x0002d85c   Data           0  qsvghandler.o(.ARM.extab)
    .extab._ZN5QListI7QStringE9node_copyEPNS1_4NodeES3_S3_ 0x0002d86c   Data           0  qsvghandler.o(.ARM.extab)
    .extab._ZN5QListI7QStringE13detach_helperEi 0x0002d890   Data           0  qsvghandler.o(.ARM.extab)
    .extab._ZN5QListI6QColorE14node_constructEPNS1_4NodeERKS0_ 0x0002d8ac   Data           0  qsvghandler.o(.ARM.extab)
    .extab._ZN5QListI6QColorE9node_copyEPNS1_4NodeES3_S3_ 0x0002d8bc   Data           0  qsvghandler.o(.ARM.extab)
    .extab._ZN5QListI6QColorE18detach_helper_growEii 0x0002d8e0   Data           0  qsvghandler.o(.ARM.extab)
    .extab._ZN5QListI6QColorE6appendERKS0_   0x0002d910   Data           0  qsvghandler.o(.ARM.extab)
    .extab._ZN7QVectorI7QPointFEC1Ei         0x0002d940   Data           0  qsvghandler.o(.ARM.extab)
    .extab._ZN7QVectorI19QXmlStreamAttributeE7reallocEii 0x0002d950   Data           0  qsvghandler.o(.ARM.extab)
    .extab._ZN5QListI7QStringE14node_constructEPNS1_4NodeERKS0_ 0x0002d990   Data           0  qsvghandler.o(.ARM.extab)
    .extab._ZN5QListI7QStringE18detach_helper_growEii 0x0002d9a0   Data           0  qsvghandler.o(.ARM.extab)
    .extab._ZN5QListI7QStringE6appendERKS0_  0x0002d9d0   Data           0  qsvghandler.o(.ARM.extab)
    .extab._ZN4QCss13BasicSelectorD1Ev       0x0002da00   Data           0  qsvghandler.o(.ARM.extab)
    .extab._ZN4QCss10StyleSheetD1Ev          0x0002da20   Data           0  qsvghandler.o(.ARM.extab)
    .extab._ZN7QVectorIN4QCss11DeclarationEE7reallocEii 0x0002da50   Data           0  qsvghandler.o(.ARM.extab)
    .extab._ZN7QVectorIN4QCss17AttributeSelectorEE7reallocEii 0x0002da7c   Data           0  qsvghandler.o(.ARM.extab)
    .extab._ZN7QVectorIN4QCss6PseudoEE7reallocEii 0x0002dab8   Data           0  qsvghandler.o(.ARM.extab)
    .extab._ZN7QVectorIN4QCss13BasicSelectorEE7reallocEii 0x0002daf4   Data           0  qsvghandler.o(.ARM.extab)
    .extab._ZN7QVectorIN4QCss8SelectorEE7reallocEii 0x0002db38   Data           0  qsvghandler.o(.ARM.extab)
    .extab._ZN4QCss9StyleRuleC1ERKS0_        0x0002db64   Data           0  qsvghandler.o(.ARM.extab)
    .extab._ZN7QVectorIN4QCss10ImportRuleEE7reallocEii 0x0002db74   Data           0  qsvghandler.o(.ARM.extab)
    .extab._ZN7QVectorIN4QCss8PageRuleEE7reallocEii 0x0002dbb0   Data           0  qsvghandler.o(.ARM.extab)
    .extab._ZN7QVectorIN4QCss9StyleRuleEE7reallocEii 0x0002dbec   Data           0  qsvghandler.o(.ARM.extab)
    .extab._ZN7QVectorIN4QCss9MediaRuleEE7reallocEii 0x0002dc20   Data           0  qsvghandler.o(.ARM.extab)
    .extab._ZN4QCss10StyleSheetC1ERKS0_      0x0002dc5c   Data           0  qsvghandler.o(.ARM.extab)
    .extab._ZN4QCss10StyleSheetC1Ev          0x0002dc8c   Data           0  qsvghandler.o(.ARM.extab)
    .extab._ZN7QVectorIN4QCss10StyleSheetEE7reallocEii 0x0002dcbc   Data           0  qsvghandler.o(.ARM.extab)
    .extab._ZN7QVectorIN4QCss10StyleSheetEE6appendERKS1_ 0x0002dce8   Data           0  qsvghandler.o(.ARM.extab)
    .extab._ZN7QVectorIP8QSvgNodeE7reallocEii 0x0002dd08   Data           0  qsvghandler.o(.ARM.extab)
    .extab._ZN7QVectorIN11QSvgHandler11CurrentNodeEE7reallocEii 0x0002dd24   Data           0  qsvghandler.o(.ARM.extab)
    .extab._ZN7QVectorIN8QSvgText14WhitespaceModeEE7reallocEii 0x0002dd40   Data           0  qsvghandler.o(.ARM.extab)
    .extab._ZN16QSvgCssAttributeD1Ev         0x0002dd5c   Data           0  qsvghandler.o(.ARM.extab)
    .extab._ZN16QSvgCssAttributeC1Ev         0x0002dd6c   Data           0  qsvghandler.o(.ARM.extab)
    .extab._ZN4QCss6ParserD1Ev               0x0002dd7c   Data           0  qsvghandler.o(.ARM.extab)
    .extab._ZN4QCss17AttributeSelectorD1Ev   0x0002dd8c   Data           0  qsvghandler.o(.ARM.extab)
    .extab._ZN4QCss6PseudoD1Ev               0x0002dd9c   Data           0  qsvghandler.o(.ARM.extab)
    .extab._ZN4QCss9StyleRuleD1Ev            0x0002ddac   Data           0  qsvghandler.o(.ARM.extab)
    .extab._ZN5QHashI7QStringN4QCss9StyleRuleEE11deleteNode2EPN9QHashData4NodeE 0x0002ddbc   Data           0  qsvghandler.o(.ARM.extab)
    .extab._ZN4QCss10ImportRuleD1Ev          0x0002ddcc   Data           0  qsvghandler.o(.ARM.extab)
    .extab._ZN4QCss8PageRuleD1Ev             0x0002dddc   Data           0  qsvghandler.o(.ARM.extab)
    .extab._ZN4QCss9MediaRuleD1Ev            0x0002ddec   Data           0  qsvghandler.o(.ARM.extab)
    .extab._ZN4QCss11DeclarationC1Ev         0x0002ddfc   Data           0  qsvghandler.o(.ARM.extab)
    .extab._ZN4QCss13BasicSelectorC1ERKS0_   0x0002de1c   Data           0  qsvghandler.o(.ARM.extab)
    .extab._ZN5QHashI7QStringN4QCss9StyleRuleEE13duplicateNodeEPN9QHashData4NodeEPv 0x0002de3c   Data           0  qsvghandler.o(.ARM.extab)
    .extab._ZNK17QSvgStyleSelector14nodeNameEqualsEN4QCss13StyleSelector7NodePtrERK7QString 0x0002de54   Data           0  qsvghandler.o(.ARM.extab)
    .extab._ZNK17QSvgStyleSelector9attributeEN4QCss13StyleSelector7NodePtrERK7QString 0x0002de64   Data           0  qsvghandler.o(.ARM.extab)
    .extab._ZNK17QSvgStyleSelector13hasAttributesEN4QCss13StyleSelector7NodePtrE 0x0002de7c   Data           0  qsvghandler.o(.ARM.extab)
    .extab._ZNK17QSvgStyleSelector7nodeIdsEN4QCss13StyleSelector7NodePtrE 0x0002de9c   Data           0  qsvghandler.o(.ARM.extab)
    .extab._ZNK17QSvgStyleSelector9nodeNamesEN4QCss13StyleSelector7NodePtrE 0x0002dec4   Data           0  qsvghandler.o(.ARM.extab)
    .extab._ZN8QSvgNodeC2EPS_                0x0002dedc   Data           0  qsvgnode.o(.ARM.extab)
    .extab._ZN8QSvgNodeD2Ev                  0x0002df1c   Data           0  qsvgnode.o(.ARM.extab)
    .extab._ZN8QSvgNode19appendStylePropertyEP17QSvgStylePropertyRK7QString 0x0002df5c   Data           0  qsvgnode.o(.ARM.extab)
    .extab._ZNK8QSvgNode13stylePropertyERK7QString 0x0002df6c   Data           0  qsvgnode.o(.ARM.extab)
    .extab._ZNK8QSvgNode17transformedBoundsEv 0x0002df7c   Data           0  qsvgnode.o(.ARM.extab)
    .extab._ZN8QSvgNode11strokeWidthEP8QPainter 0x0002dfcc   Data           0  qsvgnode.o(.ARM.extab)
    .extab._ZN9QSvgStyleC1Ev                 0x0002dff4   Data           0  qsvgnode.o(.ARM.extab)
    .extab._ZN5QListI14QSvgRefCounterI20QSvgAnimateTransformEE9node_copyEPNS3_4NodeES5_S5_ 0x0002e004   Data           0  qsvgnode.o(.ARM.extab)
    .extab._ZN5QListI14QSvgRefCounterI20QSvgAnimateTransformEE13detach_helperEi 0x0002e028   Data           0  qsvgnode.o(.ARM.extab)
    .extab._ZN5QListI14QSvgRefCounterI20QSvgAnimateTransformEE14node_constructEPNS3_4NodeERKS2_ 0x0002e044   Data           0  qsvgnode.o(.ARM.extab)
    .extab._ZN5QListI14QSvgRefCounterI20QSvgAnimateTransformEE18detach_helper_growEii 0x0002e054   Data           0  qsvgnode.o(.ARM.extab)
    .extab._ZN5QListI14QSvgRefCounterI20QSvgAnimateTransformEE6appendERKS2_ 0x0002e084   Data           0  qsvgnode.o(.ARM.extab)
    .extab._ZN17QSvgStructureNodeC2EP8QSvgNode 0x0002e0b4   Data           0  qsvgstructure.o(.ARM.extab)
    .extab._ZN17QSvgStructureNodeD2Ev        0x0002e0d4   Data           0  qsvgstructure.o(.ARM.extab)
    .extab._ZNK17QSvgStructureNode6boundsEP8QPainterR15QSvgExtraStates 0x0002e0fc   Data           0  qsvgstructure.o(.ARM.extab)
    .extab._ZN10QSvgSwitch4initEv            0x0002e114   Data           0  qsvgstructure.o(.ARM.extab)
    .extab._ZN10QSvgSwitchC1EP8QSvgNode      0x0002e12c   Data           0  qsvgstructure.o(.ARM.extab)
    .extab._ZN5QListIP8QSvgNodeE13detach_helperEi 0x0002e14c   Data           0  qsvgstructure.o(.ARM.extab)
    .extab._ZN5QListIP8QSvgNodeE18detach_helper_growEii 0x0002e168   Data           0  qsvgstructure.o(.ARM.extab)
    .extab._ZN5QListIP8QSvgNodeE6appendERKS1_ 0x0002e198   Data           0  qsvgstructure.o(.ARM.extab)
    .extab._ZN10QSvgSwitchD1Ev               0x0002e1b4   Data           0  qsvgstructure.o(.ARM.extab)
    .extab._ZN13QSvgFillStyleC1Ev            0x0002e1cc   Data           0  qsvgstyle.o(.ARM.extab)
    .extab._ZN13QSvgFillStyle5applyEP8QPainterPK8QSvgNodeR15QSvgExtraStates 0x0002e1ec   Data           0  qsvgstyle.o(.ARM.extab)
    .extab._ZN21QSvgViewportFillStyleC1ERK6QBrush 0x0002e1fc   Data           0  qsvgstyle.o(.ARM.extab)
    .extab._ZN13QSvgFontStyleC1EP8QSvgFontP16QSvgTinyDocument 0x0002e214   Data           0  qsvgstyle.o(.ARM.extab)
    .extab._ZN13QSvgFontStyleC1Ev            0x0002e22c   Data           0  qsvgstyle.o(.ARM.extab)
    .extab._ZN13QSvgFontStyle5applyEP8QPainterPK8QSvgNodeR15QSvgExtraStates 0x0002e244   Data           0  qsvgstyle.o(.ARM.extab)
    .extab._ZN15QSvgStrokeStyleC1Ev          0x0002e264   Data           0  qsvgstyle.o(.ARM.extab)
    .extab._ZN15QSvgStrokeStyle5applyEP8QPainterPK8QSvgNodeR15QSvgExtraStates 0x0002e284   Data           0  qsvgstyle.o(.ARM.extab)
    .extab._ZN15QSvgStrokeStyle12setDashArrayERK7QVectorIfE 0x0002e2e4   Data           0  qsvgstyle.o(.ARM.extab)
    .extab._ZN19QSvgSolidColorStyleC1ERK6QColor 0x0002e2f4   Data           0  qsvgstyle.o(.ARM.extab)
    .extab._ZN17QSvgGradientStyleC1EP9QGradient 0x0002e30c   Data           0  qsvgstyle.o(.ARM.extab)
    .extab._ZN17QSvgGradientStyle12resolveStopsEv 0x0002e31c   Data           0  qsvgstyle.o(.ARM.extab)
    .extab._ZN17QSvgGradientStyle5brushEP8QPainterR15QSvgExtraStates 0x0002e33c   Data           0  qsvgstyle.o(.ARM.extab)
    .extab._ZN18QSvgTransformStyleC1ERK10QTransform 0x0002e354   Data           0  qsvgstyle.o(.ARM.extab)
    .extab._ZN20QSvgAnimateTransformC1Eiii   0x0002e364   Data           0  qsvgstyle.o(.ARM.extab)
    .extab._ZN16QSvgAnimateColorC1Eiii       0x0002e37c   Data           0  qsvgstyle.o(.ARM.extab)
    .extab._ZN16QSvgAnimateColor5applyEP8QPainterPK8QSvgNodeR15QSvgExtraStates 0x0002e39c   Data           0  qsvgstyle.o(.ARM.extab)
    .extab._ZN9QSvgStyleD1Ev                 0x0002e3b4   Data           0  qsvgstyle.o(.ARM.extab)
    .extab._ZN7QVectorI5QPairIf6QColorEE7reallocEii 0x0002e414   Data           0  qsvgstyle.o(.ARM.extab)
    .extab._ZN7QVectorI5QPairIf6QColorEE6appendERKS2_ 0x0002e440   Data           0  qsvgstyle.o(.ARM.extab)
    .extab._ZN13QSvgFillStyleD1Ev            0x0002e458   Data           0  qsvgstyle.o(.ARM.extab)
    .extab._ZN21QSvgViewportFillStyleD1Ev    0x0002e478   Data           0  qsvgstyle.o(.ARM.extab)
    .extab._ZN13QSvgFontStyleD1Ev            0x0002e490   Data           0  qsvgstyle.o(.ARM.extab)
    .extab._ZN15QSvgStrokeStyleD1Ev          0x0002e4a8   Data           0  qsvgstyle.o(.ARM.extab)
    .extab._ZN19QSvgSolidColorStyleD1Ev      0x0002e4c8   Data           0  qsvgstyle.o(.ARM.extab)
    .extab._ZN17QSvgGradientStyleD1Ev        0x0002e4e0   Data           0  qsvgstyle.o(.ARM.extab)
    .extab._ZN20QSvgAnimateTransformD1Ev     0x0002e4f8   Data           0  qsvgstyle.o(.ARM.extab)
    .extab._ZN5QListI6QColorE13detach_helperEi 0x0002e508   Data           0  qsvgstyle.o(.ARM.extab)
    .extab._ZN16QSvgAnimateColorD1Ev         0x0002e54c   Data           0  qsvgstyle.o(.ARM.extab)
    .extab._ZN8QSvgFontC1Ef                  0x0002e56c   Data           0  qsvgfont.o(.ARM.extab)
    .extab._ZN8QSvgFont8addGlyphE5QCharRK12QPainterPathf 0x0002e584   Data           0  qsvgfont.o(.ARM.extab)
    .extab._ZNK8QSvgFont4drawEP8QPainterRK7QPointFRK7QStringf6QFlagsIN2Qt13AlignmentFlagEE 0x0002e594   Data           0  qsvgfont.o(.ARM.extab)
    .extab._ZN8QSvgFontD1Ev                  0x0002e5c4   Data           0  qsvgfont.o(.ARM.extab)
    .extab._ZN5QHashI5QChar9QSvgGlyphE13duplicateNodeEPN9QHashData4NodeEPv 0x0002e5dc   Data           0  qsvgfont.o(.ARM.extab)
    .extab._ZN5QHashI5QChar9QSvgGlyphE6insertERKS0_RKS1_ 0x0002e5ec   Data           0  qsvgfont.o(.ARM.extab)
    .extab._Z22qt_inflateGZipDataFromP9QIODevice 0x0002e604   Data           0  qsvgtinydocument.o(.ARM.extab)
    .extab._ZN16QSvgTinyDocument4loadERK10QByteArray 0x0002e654   Data           0  qsvgtinydocument.o(.ARM.extab)
    .extab._ZN16QSvgTinyDocument4loadERK7QString 0x0002e67c   Data           0  qsvgtinydocument.o(.ARM.extab)
    .extab._ZN16QSvgTinyDocument4loadEP16QXmlStreamReader 0x0002e71c   Data           0  qsvgtinydocument.o(.ARM.extab)
    .extab._ZN16QSvgTinyDocumentC1Ev         0x0002e72c   Data           0  qsvgtinydocument.o(.ARM.extab)
    .extab._ZN16QSvgTinyDocumentD1Ev         0x0002e754   Data           0  qsvgtinydocument.o(.ARM.extab)
    .extab._ZN16QSvgTinyDocument4drawEP8QPainterRK6QRectF 0x0002e774   Data           0  qsvgtinydocument.o(.ARM.extab)
    .extab._ZN16QSvgTinyDocument4drawEP8QPainterRK7QStringRK6QRectF 0x0002e79c   Data           0  qsvgtinydocument.o(.ARM.extab)
    .extab._ZNK16QSvgTinyDocument16matrixForElementERK7QString 0x0002e7dc   Data           0  qsvgtinydocument.o(.ARM.extab)
    .extab._ZN16QSvgTinyDocument10addSvgFontEP8QSvgFont 0x0002e7ec   Data           0  qsvgtinydocument.o(.ARM.extab)
    .extab._ZN16QSvgTinyDocument13addNamedStyleERK7QStringP21QSvgFillStyleProperty 0x0002e80c   Data           0  qsvgtinydocument.o(.ARM.extab)
    .extab._ZN9QHashNodeI7QString14QSvgRefCounterI8QSvgFontEEC1ERKS0_RKS3_ 0x0002e81c   Data           0  qsvgtinydocument.o(.ARM.extab)
    .extab._ZN9QHashNodeI7QString14QSvgRefCounterI21QSvgFillStylePropertyEEC1ERKS0_RKS3_ 0x0002e82c   Data           0  qsvgtinydocument.o(.ARM.extab)
    .extab._ZN5QHashI7QStringP8QSvgNodeE13duplicateNodeEPN9QHashData4NodeEPv 0x0002e83c   Data           0  qsvgtinydocument.o(.ARM.extab)
    .extab._ZN5QHashI7QStringP8QSvgNodeE6insertERKS0_RKS2_ 0x0002e84c   Data           0  qsvgtinydocument.o(.ARM.extab)
    .extab._ZN5QHashI7QString14QSvgRefCounterI21QSvgFillStylePropertyEE11deleteNode2EPN9QHashData4NodeE 0x0002e864   Data           0  qsvgtinydocument.o(.ARM.extab)
    .extab._ZN5QHashI7QString14QSvgRefCounterI8QSvgFontEE11deleteNode2EPN9QHashData4NodeE 0x0002e874   Data           0  qsvgtinydocument.o(.ARM.extab)
    .extab._ZN5QHashI7QString14QSvgRefCounterI8QSvgFontEE13duplicateNodeEPN9QHashData4NodeEPv 0x0002e884   Data           0  qsvgtinydocument.o(.ARM.extab)
    .extab._ZN5QHashI7QString14QSvgRefCounterI8QSvgFontEE6insertERKS0_RKS3_ 0x0002e894   Data           0  qsvgtinydocument.o(.ARM.extab)
    .extab._ZN5QHashI7QString14QSvgRefCounterI21QSvgFillStylePropertyEE13duplicateNodeEPN9QHashData4NodeEPv 0x0002e8ac   Data           0  qsvgtinydocument.o(.ARM.extab)
    .extab._ZN5QHashI7QString14QSvgRefCounterI21QSvgFillStylePropertyEE6insertERKS0_RKS3_ 0x0002e8bc   Data           0  qsvgtinydocument.o(.ARM.extab)
    .extab._Z12loadDocumentI7QStringEbP12QSvgRendererP19QSvgRendererPrivateRKT_ 0x0002e8d4   Data           0  qsvgrenderer.o(.ARM.extab)
    .extab._Z12loadDocumentI10QByteArrayEbP12QSvgRendererP19QSvgRendererPrivateRKT_ 0x0002e8e4   Data           0  qsvgrenderer.o(.ARM.extab)
    .extab._Z12loadDocumentIP16QXmlStreamReaderEbP12QSvgRendererP19QSvgRendererPrivateRKT_ 0x0002e8f4   Data           0  qsvgrenderer.o(.ARM.extab)
    .extab._ZN12QSvgRendererC1EP7QObject     0x0002e904   Data           0  qsvgrenderer.o(.ARM.extab)
    .extab._ZN12QSvgRendererC1ERK7QStringP7QObject 0x0002e914   Data           0  qsvgrenderer.o(.ARM.extab)
    .extab._ZN12QSvgRendererC1ERK10QByteArrayP7QObject 0x0002e924   Data           0  qsvgrenderer.o(.ARM.extab)
    .extab._ZN12QSvgRendererC1EP16QXmlStreamReaderP7QObject 0x0002e934   Data           0  qsvgrenderer.o(.ARM.extab)
    .extab._ZN19QSvgRendererPrivateD1Ev      0x0002e944   Data           0  qsvgrenderer.o(.ARM.extab)
    .extab._ZN10QSvgWidgetC1EP7QWidget       0x0002e954   Data           0  qsvgwidget.o(.ARM.extab)
    .extab._ZN10QSvgWidgetC1ERK7QStringP7QWidget 0x0002e974   Data           0  qsvgwidget.o(.ARM.extab)
    .extab._ZN10QSvgWidget10paintEventEP11QPaintEvent 0x0002e994   Data           0  qsvgwidget.o(.ARM.extab)
    .extab._ZN30QGraphicsColorizeEffectPrivateD1Ev 0x0002e9a4   Data           0  qsvgwidget.o(.ARM.extab)
    .extab._ZN26QGraphicsBlurEffectPrivateD1Ev 0x0002e9b4   Data           0  qsvgwidget.o(.ARM.extab)
    .extab._ZN32QGraphicsDropShadowEffectPrivateD1Ev 0x0002e9c4   Data           0  qsvgwidget.o(.ARM.extab)
    .extab._Z33qt_graphicsItem_highlightSelectedP13QGraphicsItemP8QPainterPK24QStyleOptionGraphicsItem 0x0002e9d4   Data           0  qgraphicssvgitem.o(.ARM.extab)
    .extab._ZN16QGraphicsSvgItem19setMaximumCacheSizeERK5QSize 0x0002ea2c   Data           0  qgraphicssvgitem.o(.ARM.extab)
    .extab._ZNK16QGraphicsSvgItem16maximumCacheSizeEv 0x0002ea3c   Data           0  qgraphicssvgitem.o(.ARM.extab)
    .extab._ZN16QGraphicsSvgItem11qt_metacallEN11QMetaObject4CallEiPPv 0x0002ea4c   Data           0  qgraphicssvgitem.o(.ARM.extab)
    .extab._ZN16QGraphicsSvgItemC1EP13QGraphicsItem 0x0002ea5c   Data           0  qgraphicssvgitem.o(.ARM.extab)
    .extab._ZN16QGraphicsSvgItemC1ERK7QStringP13QGraphicsItem 0x0002ea6c   Data           0  qgraphicssvgitem.o(.ARM.extab)
    .extab._ZN5QListIN20QGraphicsItemPrivate11ExtraStructEE9node_copyEPNS2_4NodeES4_S4_ 0x0002ea7c   Data           0  qgraphicssvgitem.o(.ARM.extab)
    .extab._ZN5QListIN20QGraphicsItemPrivate11ExtraStructEE13detach_helperEi 0x0002eaa0   Data           0  qgraphicssvgitem.o(.ARM.extab)
    .extab._ZN5QListIN20QGraphicsItemPrivate11ExtraStructEE14node_constructEPNS2_4NodeERKS1_ 0x0002eabc   Data           0  qgraphicssvgitem.o(.ARM.extab)
    .extab._ZN5QListIN20QGraphicsItemPrivate11ExtraStructEE18detach_helper_growEii 0x0002eacc   Data           0  qgraphicssvgitem.o(.ARM.extab)
    .extab._ZN5QListIN20QGraphicsItemPrivate11ExtraStructEE6appendERKS1_ 0x0002eafc   Data           0  qgraphicssvgitem.o(.ARM.extab)
    .extab._ZN20QGraphicsItemPrivate8setExtraENS_5ExtraERK8QVariant 0x0002eb2c   Data           0  qgraphicssvgitem.o(.ARM.extab)
    .extab._ZN23QGraphicsSvgItemPrivate4initEP13QGraphicsItem 0x0002eb4c   Data           0  qgraphicssvgitem.o(.ARM.extab)
    .extab._ZN20QGraphicsItemPrivateD1Ev     0x0002eb5c   Data           0  qgraphicssvgitem.o(.ARM.extab)
    .extab._ZN20QGraphicsItemPrivateC1Ev     0x0002eb84   Data           0  qgraphicssvgitem.o(.ARM.extab)
    .extab._ZN23QGraphicsSvgItemPrivateC1Ev  0x0002ebac   Data           0  qgraphicssvgitem.o(.ARM.extab)
    .extab._ZN15QGraphicsObjectD2Ev          0x0002ebbc   Data           0  qgraphicssvgitem.o(.ARM.extab)
    .extab._ZN23QGraphicsSvgItemPrivateD1Ev  0x0002ebcc   Data           0  qgraphicssvgitem.o(.ARM.extab)
    .extab._Z15translate_colorRK6QColorP7QStringS3_ 0x0002ebdc   Data           0  qsvggenerator.o(.ARM.extab)
    .extab._Z21translate_dashPattern7QVectorIfERKfP7QString 0x0002ec24   Data           0  qsvggenerator.o(.ARM.extab)
    .extab._ZN13QSvgGeneratorC1Ev            0x0002ec54   Data           0  qsvggenerator.o(.ARM.extab)
    .extab._ZN13QSvgGeneratorD1Ev            0x0002ec84   Data           0  qsvggenerator.o(.ARM.extab)
    .extab._ZN13QSvgGenerator11setFileNameERK7QString 0x0002ec9c   Data           0  qsvggenerator.o(.ARM.extab)
    .extab._ZN13QSvgGenerator15setOutputDeviceEP9QIODevice 0x0002ecac   Data           0  qsvggenerator.o(.ARM.extab)
    .extab._ZN15QSvgPaintEngine5beginEP12QPaintDevice 0x0002ecbc   Data           0  qsvggenerator.o(.ARM.extab)
    .extab._ZN15QSvgPaintEngine3endEv        0x0002ecfc   Data           0  qsvggenerator.o(.ARM.extab)
    .extab._ZN15QSvgPaintEngine11updateStateERK17QPaintEngineState 0x0002ed0c   Data           0  qsvggenerator.o(.ARM.extab)
    .extab._ZN15QSvgPaintEngine8drawPathERK12QPainterPath 0x0002ed2c   Data           0  qsvggenerator.o(.ARM.extab)
    .extab._ZN15QSvgPaintEngine9drawImageERK6QRectFRK6QImageS2_N2Qt19ImageConversionFlagE 0x0002ed3c   Data           0  qsvggenerator.o(.ARM.extab)
    .extab._ZN15QSvgPaintEngine10drawPixmapERK6QRectFRK7QPixmapS2_ 0x0002ed6c   Data           0  qsvggenerator.o(.ARM.extab)
    .extab._ZN15QSvgPaintEngine11drawPolygonEPK7QPointFiN12QPaintEngine15PolygonDrawModeE 0x0002ed7c   Data           0  qsvggenerator.o(.ARM.extab)
    .extab._ZN15QSvgPaintEngine12drawTextItemERK7QPointFRK9QTextItem 0x0002ed9c   Data           0  qsvggenerator.o(.ARM.extab)
    .extab._ZN7QStringaSERK13QLatin1String   0x0002edcc   Data           0  qsvggenerator.o(.ARM.extab)
    .extab._ZN22QSvgPaintEnginePrivate11_attributesD1Ev 0x0002eddc   Data           0  qsvggenerator.o(.ARM.extab)
    .extab._ZN19QPaintEnginePrivateD1Ev      0x0002ee3c   Data           0  qsvggenerator.o(.ARM.extab)
    .extab._ZN22QSvgPaintEnginePrivateC1Ev   0x0002ee4c   Data           0  qsvggenerator.o(.ARM.extab)
    .extab._ZN22QSvgPaintEnginePrivate20generateGradientNameEv 0x0002eeac   Data           0  qsvggenerator.o(.ARM.extab)
    .extab._ZN22QSvgPaintEnginePrivateD1Ev   0x0002eecc   Data           0  qsvggenerator.o(.ARM.extab)
    .extab._ZN15QSvgPaintEngine18generateQtDefaultsEv 0x0002ef14   Data           0  qsvggenerator.o(.ARM.extab)
    .extab._ZN15QSvgPaintEngine10qfontToSvgERK5QFont 0x0002ef54   Data           0  qsvggenerator.o(.ARM.extab)
    .extab._ZN15QSvgPaintEngine9qpenToSvgERK4QPen 0x0002ef7c   Data           0  qsvggenerator.o(.ARM.extab)
    .extab._ZN15QSvgPaintEngine17saveGradientStopsER11QTextStreamPK9QGradient 0x0002f0f4   Data           0  qsvggenerator.o(.ARM.extab)
    .extab._ZN15QSvgPaintEngine17saveGradientUnitsER11QTextStreamPK9QGradient 0x0002f1c4   Data           0  qsvggenerator.o(.ARM.extab)
    .extab._ZN15QSvgPaintEngine23saveRadialGradientBrushEPK9QGradient 0x0002f1ec   Data           0  qsvggenerator.o(.ARM.extab)
    .extab._ZN15QSvgPaintEngine23saveLinearGradientBrushEPK9QGradient 0x0002f2ec   Data           0  qsvggenerator.o(.ARM.extab)
    .extab._ZN15QSvgPaintEngine11qbrushToSvgERK6QBrush 0x0002f3cc   Data           0  qsvggenerator.o(.ARM.extab)
    .extab._ZN22QSvgPaintEnginePrivate11_attributesC1Ev 0x0002f4a4   Data           0  qsvggenerator.o(.ARM.extab)
    .constdata$1                             0x0002f504   Data           0  qsvggraphics.o(.constdata)
    .constdata                               0x0002f504   Section      148  qsvggraphics.o(.constdata)
    .constdata$1                             0x0002f598   Data           0  qsvghandler.o(.constdata)
    sizeTable@_Z9parseFontP8QSvgNodeRK14QSvgAttributesP11QSvgHandler_0 0x0002f598   Data          28  qsvghandler.o(.constdata)
    .constdata                               0x0002f598   Section      520  qsvghandler.o(.constdata)
    .constdata$1                             0x0002f7a0   Data           0  qsvgnode.o(.constdata)
    .constdata                               0x0002f7a0   Section      144  qsvgnode.o(.constdata)
    .constdata$1                             0x0002f830   Data           0  qsvgstructure.o(.constdata)
    asso_values@_Z21isSupportedSvgFeatureRK7QString_0 0x0002f830   Data         256  qsvgstructure.o(.constdata)
    .constdata                               0x0002f830   Section      332  qsvgstructure.o(.constdata)
    .constdata$1                             0x0002f97c   Data           0  qsvgstyle.o(.constdata)
    .constdata                               0x0002f97c   Section       76  qsvgstyle.o(.constdata)
    .constdata$1                             0x0002f9c8   Data           0  qsvgfont.o(.constdata)
    .constdata                               0x0002f9c8   Section       76  qsvgfont.o(.constdata)
    .constdata$1                             0x0002fa14   Data           0  qsvgtinydocument.o(.constdata)
    .constdata                               0x0002fa14   Section       76  qsvgtinydocument.o(.constdata)
    .constdata$1                             0x0002fa60   Data           0  qsvgrenderer.o(.constdata)
    qt_meta_data_QSvgRenderer                0x0002fa60   Data         256  qsvgrenderer.o(.constdata)
    .constdata                               0x0002fa60   Section      720  qsvgrenderer.o(.constdata)
    qt_meta_stringdata_QSvgRenderer          0x0002fb60   Data         301  qsvgrenderer.o(.constdata)
    .constdata$1                             0x0002fd30   Data           0  qsvgwidget.o(.constdata)
    .constdata                               0x0002fd30   Section       76  qsvgwidget.o(.constdata)
    .constdata$1                             0x0002fd7c   Data           0  qgraphicssvgitem.o(.constdata)
    qt_meta_data_QGraphicsSvgItem            0x0002fd7c   Data         104  qgraphicssvgitem.o(.constdata)
    .constdata                               0x0002fd7c   Section      344  qgraphicssvgitem.o(.constdata)
    qt_meta_stringdata_QGraphicsSvgItem      0x0002fde4   Data          77  qgraphicssvgitem.o(.constdata)
    .constdata$1                             0x0002fed4   Data           0  qsvggenerator.o(.constdata)
    .constdata                               0x0002fed4   Section      656  qsvggenerator.o(.constdata)
    .constdata$1                             0x00030164   Data           0  moc_qsvgwidget.o(.constdata)
    qt_meta_data_QSvgWidget                  0x00030164   Data         100  moc_qsvgwidget.o(.constdata)
    .constdata                               0x00030164   Section      320  moc_qsvgwidget.o(.constdata)
    qt_meta_stringdata_QSvgWidget            0x000301c8   Data          58  moc_qsvgwidget.o(.constdata)
    .constdata__ZN9stlp_priv15_Integer_limitsIaLan128ELa127ELin1ELb1EE6digitsE 0x000302a4   Section        4  qsvggraphics.o(.constdata__ZN9stlp_priv15_Integer_limitsIaLan128ELa127ELin1ELb1EE6digitsE)
    .constdata__ZN9stlp_priv15_Integer_limitsIbLb0ELb1ELi1ELb0EE6digitsE 0x000302a8   Section        4  qsvggraphics.o(.constdata__ZN9stlp_priv15_Integer_limitsIbLb0ELb1ELi1ELb0EE6digitsE)
    .constdata__ZN9stlp_priv15_Integer_limitsIcLc128ELc127ELin1ELb1EE6digitsE 0x000302ac   Section        4  qsvggraphics.o(.constdata__ZN9stlp_priv15_Integer_limitsIcLc128ELc127ELin1ELb1EE6digitsE)
    .constdata__ZN9stlp_priv15_Integer_limitsIhLh0ELh255ELin1ELb1EE6digitsE 0x000302b0   Section        4  qsvggraphics.o(.constdata__ZN9stlp_priv15_Integer_limitsIhLh0ELh255ELin1ELb1EE6digitsE)
    .constdata__ZN9stlp_priv15_Integer_limitsIiLin2147483648ELi2147483647ELin1ELb1EE6digitsE 0x000302b4   Section        4  qsvggraphics.o(.constdata__ZN9stlp_priv15_Integer_limitsIiLin2147483648ELi2147483647ELin1ELb1EE6digitsE)
    .constdata__ZN9stlp_priv15_Integer_limitsIiLin2147483648ELi2147483647ELin1ELb1EE9is_signedE 0x000302b8   Section        1  qsvggraphics.o(.constdata__ZN9stlp_priv15_Integer_limitsIiLin2147483648ELi2147483647ELin1ELb1EE9is_signedE)
    .constdata__ZN9stlp_priv15_Integer_limitsIjLj0ELj4294967295ELin1ELb1EE6digitsE 0x000302bc   Section        4  qsvggraphics.o(.constdata__ZN9stlp_priv15_Integer_limitsIjLj0ELj4294967295ELin1ELb1EE6digitsE)
    .constdata__ZN9stlp_priv15_Integer_limitsIlLln2147483648ELl2147483647ELin1ELb1EE6digitsE 0x000302c0   Section        4  qsvggraphics.o(.constdata__ZN9stlp_priv15_Integer_limitsIlLln2147483648ELl2147483647ELin1ELb1EE6digitsE)
    .constdata__ZN9stlp_priv15_Integer_limitsImLm0ELm4294967295ELin1ELb1EE6digitsE 0x000302c4   Section        4  qsvggraphics.o(.constdata__ZN9stlp_priv15_Integer_limitsImLm0ELm4294967295ELin1ELb1EE6digitsE)
    .constdata__ZN9stlp_priv15_Integer_limitsIsLsn32768ELs32767ELin1ELb1EE6digitsE 0x000302c8   Section        4  qsvggraphics.o(.constdata__ZN9stlp_priv15_Integer_limitsIsLsn32768ELs32767ELin1ELb1EE6digitsE)
    .constdata__ZN9stlp_priv15_Integer_limitsItLt0ELt65535ELin1ELb1EE6digitsE 0x000302cc   Section        4  qsvggraphics.o(.constdata__ZN9stlp_priv15_Integer_limitsItLt0ELt65535ELin1ELb1EE6digitsE)
    .constdata__ZN9stlp_priv15_Integer_limitsIwLw0ELw65535ELin1ELb1EE6digitsE 0x000302d0   Section        4  qsvggraphics.o(.constdata__ZN9stlp_priv15_Integer_limitsIwLw0ELw65535ELin1ELb1EE6digitsE)
    .constdata__ZN9stlp_priv15_Integer_limitsIxLxn9223372036854775808ELx9223372036854775807ELin1ELb1EE6digitsE 0x000302d4   Section        4  qsvggraphics.o(.constdata__ZN9stlp_priv15_Integer_limitsIxLxn9223372036854775808ELx9223372036854775807ELin1ELb1EE6digitsE)
    .constdata__ZN9stlp_priv15_Integer_limitsIyLy0ELy18446744073709551615ELin1ELb1EE6digitsE 0x000302d8   Section        4  qsvggraphics.o(.constdata__ZN9stlp_priv15_Integer_limitsIyLy0ELy18446744073709551615ELin1ELb1EE6digitsE)
    .constdata__ZTI10QSvgCircle              0x000302dc   Section       12  qsvggraphics.o(.constdata__ZTI10QSvgCircle)
    .constdata__ZTI10QSvgSwitch              0x000302e8   Section       12  qsvgstructure.o(.constdata__ZTI10QSvgSwitch)
    .constdata__ZTI10QSvgWidget              0x000302f4   Section       12  moc_qsvgwidget.o(.constdata__ZTI10QSvgWidget)
    .constdata__ZTI11QSvgEllipse             0x00030300   Section       12  qsvggraphics.o(.constdata__ZTI11QSvgEllipse)
    .constdata__ZTI11QSvgPolygon             0x0003030c   Section       12  qsvggraphics.o(.constdata__ZTI11QSvgPolygon)
    .constdata__ZTI12QSvgPolyline            0x00030318   Section       12  qsvggraphics.o(.constdata__ZTI12QSvgPolyline)
    .constdata__ZTI12QSvgRenderer            0x00030324   Section       12  qsvgrenderer.o(.constdata__ZTI12QSvgRenderer)
    .constdata__ZTI13QSvgAnimation           0x00030330   Section       12  qsvggraphics.o(.constdata__ZTI13QSvgAnimation)
    .constdata__ZTI13QSvgFillStyle           0x0003033c   Section       12  qsvgstyle.o(.constdata__ZTI13QSvgFillStyle)
    .constdata__ZTI13QSvgFontStyle           0x00030348   Section       12  qsvgstyle.o(.constdata__ZTI13QSvgFontStyle)
    .constdata__ZTI13QSvgGenerator           0x00030354   Section       12  qsvggenerator.o(.constdata__ZTI13QSvgGenerator)
    .constdata__ZTI14QSvgRefCounted          0x00030360   Section        8  qsvgstyle.o(.constdata__ZTI14QSvgRefCounted)
    .constdata__ZTI15QSvgCompOpStyle         0x00030368   Section       12  qsvgstyle.o(.constdata__ZTI15QSvgCompOpStyle)
    .constdata__ZTI15QSvgPaintEngine         0x00030374   Section       12  qsvggenerator.o(.constdata__ZTI15QSvgPaintEngine)
    .constdata__ZTI15QSvgStrokeStyle         0x00030380   Section       12  qsvgstyle.o(.constdata__ZTI15QSvgStrokeStyle)
    .constdata__ZTI16QGraphicsSvgItem        0x0003038c   Section       12  qgraphicssvgitem.o(.constdata__ZTI16QGraphicsSvgItem)
    .constdata__ZTI16QSvgAnimateColor        0x00030398   Section       12  qsvgstyle.o(.constdata__ZTI16QSvgAnimateColor)
    .constdata__ZTI16QSvgOpacityStyle        0x000303a4   Section       12  qsvgstyle.o(.constdata__ZTI16QSvgOpacityStyle)
    .constdata__ZTI16QSvgQualityStyle        0x000303b0   Section       12  qsvgstyle.o(.constdata__ZTI16QSvgQualityStyle)
    .constdata__ZTI16QSvgTinyDocument        0x000303bc   Section       12  qsvgtinydocument.o(.constdata__ZTI16QSvgTinyDocument)
    .constdata__ZTI17QSvgGradientStyle       0x000303c8   Section       12  qsvgstyle.o(.constdata__ZTI17QSvgGradientStyle)
    .constdata__ZTI17QSvgStructureNode       0x000303d4   Section       12  qsvgstructure.o(.constdata__ZTI17QSvgStructureNode)
    .constdata__ZTI17QSvgStyleProperty       0x000303e0   Section       12  qsvgstyle.o(.constdata__ZTI17QSvgStyleProperty)
    .constdata__ZTI17QSvgStyleSelector       0x000303ec   Section       12  qsvghandler.o(.constdata__ZTI17QSvgStyleSelector)
    .constdata__ZTI17QSvgWidgetPrivate       0x000303f8   Section       12  qsvgwidget.o(.constdata__ZTI17QSvgWidgetPrivate)
    .constdata__ZTI18QSvgTransformStyle      0x00030404   Section       12  qsvgstyle.o(.constdata__ZTI18QSvgTransformStyle)
    .constdata__ZTI19QPaintEnginePrivate     0x00030410   Section        8  qsvggenerator.o(.constdata__ZTI19QPaintEnginePrivate)
    .constdata__ZTI19QSvgRendererPrivate     0x00030418   Section       12  qsvgrenderer.o(.constdata__ZTI19QSvgRendererPrivate)
    .constdata__ZTI19QSvgSolidColorStyle     0x00030424   Section       12  qsvgstyle.o(.constdata__ZTI19QSvgSolidColorStyle)
    .constdata__ZTI20QSvgAnimateTransform    0x00030430   Section       12  qsvgstyle.o(.constdata__ZTI20QSvgAnimateTransform)
    .constdata__ZTI21QSvgFillStyleProperty   0x0003043c   Section       12  qsvgstyle.o(.constdata__ZTI21QSvgFillStyleProperty)
    .constdata__ZTI21QSvgViewportFillStyle   0x00030448   Section       12  qsvgstyle.o(.constdata__ZTI21QSvgViewportFillStyle)
    .constdata__ZTI22QGraphicsEffectPrivate  0x00030454   Section       12  qsvgwidget.o(.constdata__ZTI22QGraphicsEffectPrivate)
    .constdata__ZTI22QSvgPaintEnginePrivate  0x00030460   Section       12  qsvggenerator.o(.constdata__ZTI22QSvgPaintEnginePrivate)
    .constdata__ZTI23QGraphicsSvgItemPrivate 0x0003046c   Section       12  qgraphicssvgitem.o(.constdata__ZTI23QGraphicsSvgItemPrivate)
    .constdata__ZTI26QGraphicsBlurEffectPrivate 0x00030478   Section       12  qsvgwidget.o(.constdata__ZTI26QGraphicsBlurEffectPrivate)
    .constdata__ZTI30QGraphicsColorizeEffectPrivate 0x00030484   Section       12  qsvgwidget.o(.constdata__ZTI30QGraphicsColorizeEffectPrivate)
    .constdata__ZTI32QGraphicsDropShadowEffectPrivate 0x00030490   Section       12  qsvgwidget.o(.constdata__ZTI32QGraphicsDropShadowEffectPrivate)
    .constdata__ZTI5QSvgG                    0x0003049c   Section       12  qsvgstructure.o(.constdata__ZTI5QSvgG)
    .constdata__ZTI7QSvgArc                  0x000304a8   Section       12  qsvggraphics.o(.constdata__ZTI7QSvgArc)
    .constdata__ZTI7QSvgUse                  0x000304b4   Section       12  qsvggraphics.o(.constdata__ZTI7QSvgUse)
    .constdata__ZTI8QSvgDefs                 0x000304c0   Section       12  qsvgstructure.o(.constdata__ZTI8QSvgDefs)
    .constdata__ZTI8QSvgFont                 0x000304cc   Section       12  qsvgfont.o(.constdata__ZTI8QSvgFont)
    .constdata__ZTI8QSvgLine                 0x000304d8   Section       12  qsvggraphics.o(.constdata__ZTI8QSvgLine)
    .constdata__ZTI8QSvgNode                 0x000304e4   Section        8  qsvgnode.o(.constdata__ZTI8QSvgNode)
    .constdata__ZTI8QSvgPath                 0x000304ec   Section       12  qsvggraphics.o(.constdata__ZTI8QSvgPath)
    .constdata__ZTI8QSvgRect                 0x000304f8   Section       12  qsvggraphics.o(.constdata__ZTI8QSvgRect)
    .constdata__ZTI8QSvgText                 0x00030504   Section       12  qsvggraphics.o(.constdata__ZTI8QSvgText)
    .constdata__ZTI9QSvgImage                0x00030510   Section       12  qsvggraphics.o(.constdata__ZTI9QSvgImage)
    .constdata__ZTI9QSvgTspan                0x0003051c   Section       12  qsvggraphics.o(.constdata__ZTI9QSvgTspan)
    .constdata__ZTI9QSvgVideo                0x00030528   Section       12  qsvggraphics.o(.constdata__ZTI9QSvgVideo)
    .constdata__ZTIN15QtSharedPointer20ExternalRefCountDataE 0x00030534   Section        8  qsvggraphics.o(.constdata__ZTIN15QtSharedPointer20ExternalRefCountDataE)
    .constdata__ZTS10QSvgCircle              0x0003053c   Section       13  qsvggraphics.o(.constdata__ZTS10QSvgCircle)
    .constdata__ZTS10QSvgSwitch              0x00030549   Section       13  qsvgstructure.o(.constdata__ZTS10QSvgSwitch)
    .constdata__ZTS10QSvgWidget              0x00030556   Section       13  moc_qsvgwidget.o(.constdata__ZTS10QSvgWidget)
    .constdata__ZTS11QSvgEllipse             0x00030563   Section       14  qsvggraphics.o(.constdata__ZTS11QSvgEllipse)
    .constdata__ZTS11QSvgPolygon             0x00030571   Section       14  qsvggraphics.o(.constdata__ZTS11QSvgPolygon)
    .constdata__ZTS12QSvgPolyline            0x0003057f   Section       15  qsvggraphics.o(.constdata__ZTS12QSvgPolyline)
    .constdata__ZTS12QSvgRenderer            0x0003058e   Section       15  qsvgrenderer.o(.constdata__ZTS12QSvgRenderer)
    .constdata__ZTS13QSvgAnimation           0x0003059d   Section       16  qsvggraphics.o(.constdata__ZTS13QSvgAnimation)
    .constdata__ZTS13QSvgFillStyle           0x000305ad   Section       16  qsvgstyle.o(.constdata__ZTS13QSvgFillStyle)
    .constdata__ZTS13QSvgFontStyle           0x000305bd   Section       16  qsvgstyle.o(.constdata__ZTS13QSvgFontStyle)
    .constdata__ZTS13QSvgGenerator           0x000305cd   Section       16  qsvggenerator.o(.constdata__ZTS13QSvgGenerator)
    .constdata__ZTS14QSvgRefCounted          0x000305dd   Section       17  qsvgstyle.o(.constdata__ZTS14QSvgRefCounted)
    .constdata__ZTS15QSvgCompOpStyle         0x000305ee   Section       18  qsvgstyle.o(.constdata__ZTS15QSvgCompOpStyle)
    .constdata__ZTS15QSvgPaintEngine         0x00030600   Section       18  qsvggenerator.o(.constdata__ZTS15QSvgPaintEngine)
    .constdata__ZTS15QSvgStrokeStyle         0x00030612   Section       18  qsvgstyle.o(.constdata__ZTS15QSvgStrokeStyle)
    .constdata__ZTS16QGraphicsSvgItem        0x00030624   Section       19  qgraphicssvgitem.o(.constdata__ZTS16QGraphicsSvgItem)
    .constdata__ZTS16QSvgAnimateColor        0x00030637   Section       19  qsvgstyle.o(.constdata__ZTS16QSvgAnimateColor)
    .constdata__ZTS16QSvgOpacityStyle        0x0003064a   Section       19  qsvgstyle.o(.constdata__ZTS16QSvgOpacityStyle)
    .constdata__ZTS16QSvgQualityStyle        0x0003065d   Section       19  qsvgstyle.o(.constdata__ZTS16QSvgQualityStyle)
    .constdata__ZTS16QSvgTinyDocument        0x00030670   Section       19  qsvgtinydocument.o(.constdata__ZTS16QSvgTinyDocument)
    .constdata__ZTS17QSvgGradientStyle       0x00030683   Section       20  qsvgstyle.o(.constdata__ZTS17QSvgGradientStyle)
    .constdata__ZTS17QSvgStructureNode       0x00030697   Section       20  qsvgstructure.o(.constdata__ZTS17QSvgStructureNode)
    .constdata__ZTS17QSvgStyleProperty       0x000306ab   Section       20  qsvgstyle.o(.constdata__ZTS17QSvgStyleProperty)
    .constdata__ZTS17QSvgStyleSelector       0x000306bf   Section       20  qsvghandler.o(.constdata__ZTS17QSvgStyleSelector)
    .constdata__ZTS17QSvgWidgetPrivate       0x000306d3   Section       20  qsvgwidget.o(.constdata__ZTS17QSvgWidgetPrivate)
    .constdata__ZTS18QSvgTransformStyle      0x000306e7   Section       21  qsvgstyle.o(.constdata__ZTS18QSvgTransformStyle)
    .constdata__ZTS19QPaintEnginePrivate     0x000306fc   Section       22  qsvggenerator.o(.constdata__ZTS19QPaintEnginePrivate)
    .constdata__ZTS19QSvgRendererPrivate     0x00030712   Section       22  qsvgrenderer.o(.constdata__ZTS19QSvgRendererPrivate)
    .constdata__ZTS19QSvgSolidColorStyle     0x00030728   Section       22  qsvgstyle.o(.constdata__ZTS19QSvgSolidColorStyle)
    .constdata__ZTS20QSvgAnimateTransform    0x0003073e   Section       23  qsvgstyle.o(.constdata__ZTS20QSvgAnimateTransform)
    .constdata__ZTS21QSvgFillStyleProperty   0x00030755   Section       24  qsvgstyle.o(.constdata__ZTS21QSvgFillStyleProperty)
    .constdata__ZTS21QSvgViewportFillStyle   0x0003076d   Section       24  qsvgstyle.o(.constdata__ZTS21QSvgViewportFillStyle)
    .constdata__ZTS22QGraphicsEffectPrivate  0x00030785   Section       25  qsvgwidget.o(.constdata__ZTS22QGraphicsEffectPrivate)
    .constdata__ZTS22QSvgPaintEnginePrivate  0x0003079e   Section       25  qsvggenerator.o(.constdata__ZTS22QSvgPaintEnginePrivate)
    .constdata__ZTS23QGraphicsSvgItemPrivate 0x000307b7   Section       26  qgraphicssvgitem.o(.constdata__ZTS23QGraphicsSvgItemPrivate)
    .constdata__ZTS26QGraphicsBlurEffectPrivate 0x000307d1   Section       29  qsvgwidget.o(.constdata__ZTS26QGraphicsBlurEffectPrivate)
    .constdata__ZTS30QGraphicsColorizeEffectPrivate 0x000307ee   Section       33  qsvgwidget.o(.constdata__ZTS30QGraphicsColorizeEffectPrivate)
    .constdata__ZTS32QGraphicsDropShadowEffectPrivate 0x0003080f   Section       35  qsvgwidget.o(.constdata__ZTS32QGraphicsDropShadowEffectPrivate)
    .constdata__ZTS5QSvgG                    0x00030832   Section        7  qsvgstructure.o(.constdata__ZTS5QSvgG)
    .constdata__ZTS7QSvgArc                  0x00030839   Section        9  qsvggraphics.o(.constdata__ZTS7QSvgArc)
    .constdata__ZTS7QSvgUse                  0x00030842   Section        9  qsvggraphics.o(.constdata__ZTS7QSvgUse)
    .constdata__ZTS8QSvgDefs                 0x0003084b   Section       10  qsvgstructure.o(.constdata__ZTS8QSvgDefs)
    .constdata__ZTS8QSvgFont                 0x00030855   Section       10  qsvgfont.o(.constdata__ZTS8QSvgFont)
    .constdata__ZTS8QSvgLine                 0x0003085f   Section       10  qsvggraphics.o(.constdata__ZTS8QSvgLine)
    .constdata__ZTS8QSvgNode                 0x00030869   Section       10  qsvgnode.o(.constdata__ZTS8QSvgNode)
    .constdata__ZTS8QSvgPath                 0x00030873   Section       10  qsvggraphics.o(.constdata__ZTS8QSvgPath)
    .constdata__ZTS8QSvgRect                 0x0003087d   Section       10  qsvggraphics.o(.constdata__ZTS8QSvgRect)
    .constdata__ZTS8QSvgText                 0x00030887   Section       10  qsvggraphics.o(.constdata__ZTS8QSvgText)
    .constdata__ZTS9QSvgImage                0x00030891   Section       11  qsvggraphics.o(.constdata__ZTS9QSvgImage)
    .constdata__ZTS9QSvgTspan                0x0003089c   Section       11  qsvggraphics.o(.constdata__ZTS9QSvgTspan)
    .constdata__ZTS9QSvgVideo                0x000308a7   Section       11  qsvggraphics.o(.constdata__ZTS9QSvgVideo)
    .constdata__ZTSN15QtSharedPointer20ExternalRefCountDataE 0x000308b2   Section       42  qsvggraphics.o(.constdata__ZTSN15QtSharedPointer20ExternalRefCountDataE)
    .constdata__ZTV10QSvgCircle              0x000308dc   Section       32  qsvggraphics.o(.constdata__ZTV10QSvgCircle)
    .constdata__ZTV10QSvgSwitch              0x000308fc   Section       32  qsvgstructure.o(.constdata__ZTV10QSvgSwitch)
    .constdata__ZTV10QSvgWidget              0x0003091c   Section      248  moc_qsvgwidget.o(.constdata__ZTV10QSvgWidget)
    .constdata__ZTV11QSvgEllipse             0x00030a14   Section       32  qsvggraphics.o(.constdata__ZTV11QSvgEllipse)
    .constdata__ZTV11QSvgPolygon             0x00030a34   Section       32  qsvggraphics.o(.constdata__ZTV11QSvgPolygon)
    .constdata__ZTV12QSvgPolyline            0x00030a54   Section       32  qsvggraphics.o(.constdata__ZTV12QSvgPolyline)
    .constdata__ZTV12QSvgRenderer            0x00030a74   Section       56  qsvgrenderer.o(.constdata__ZTV12QSvgRenderer)
    .constdata__ZTV13QSvgAnimation           0x00030aac   Section       32  qsvggraphics.o(.constdata__ZTV13QSvgAnimation)
    .constdata__ZTV13QSvgFillStyle           0x00030acc   Section       28  qsvgstyle.o(.constdata__ZTV13QSvgFillStyle)
    .constdata__ZTV13QSvgFontStyle           0x00030ae8   Section       28  qsvgstyle.o(.constdata__ZTV13QSvgFontStyle)
    .constdata__ZTV13QSvgGenerator           0x00030b04   Section       28  qsvggenerator.o(.constdata__ZTV13QSvgGenerator)
    .constdata__ZTV14QSvgRefCounted          0x00030b20   Section       16  qsvgstyle.o(.constdata__ZTV14QSvgRefCounted)
    .constdata__ZTV15QSvgCompOpStyle         0x00030b30   Section       28  qsvgstyle.o(.constdata__ZTV15QSvgCompOpStyle)
    .constdata__ZTV15QSvgPaintEngine         0x00030b4c   Section       96  qsvggenerator.o(.constdata__ZTV15QSvgPaintEngine)
    .constdata__ZTV15QSvgStrokeStyle         0x00030bac   Section       28  qsvgstyle.o(.constdata__ZTV15QSvgStrokeStyle)
    .constdata__ZTV16QGraphicsSvgItem        0x00030bc8   Section      224  qgraphicssvgitem.o(.constdata__ZTV16QGraphicsSvgItem)
    .constdata__ZTV16QSvgAnimateColor        0x00030ca8   Section       28  qsvgstyle.o(.constdata__ZTV16QSvgAnimateColor)
    .constdata__ZTV16QSvgOpacityStyle        0x00030cc4   Section       28  qsvgstyle.o(.constdata__ZTV16QSvgOpacityStyle)
    .constdata__ZTV16QSvgQualityStyle        0x00030ce0   Section       28  qsvgstyle.o(.constdata__ZTV16QSvgQualityStyle)
    .constdata__ZTV16QSvgTinyDocument        0x00030cfc   Section       32  qsvgtinydocument.o(.constdata__ZTV16QSvgTinyDocument)
    .constdata__ZTV17QSvgGradientStyle       0x00030d1c   Section       32  qsvgstyle.o(.constdata__ZTV17QSvgGradientStyle)
    .constdata__ZTV17QSvgStructureNode       0x00030d3c   Section       32  qsvgstructure.o(.constdata__ZTV17QSvgStructureNode)
    .constdata__ZTV17QSvgStyleProperty       0x00030d5c   Section       28  qsvgstyle.o(.constdata__ZTV17QSvgStyleProperty)
    .constdata__ZTV17QSvgStyleSelector       0x00030d78   Section       56  qsvghandler.o(.constdata__ZTV17QSvgStyleSelector)
    .constdata__ZTV17QSvgWidgetPrivate       0x00030db0   Section       20  qsvgwidget.o(.constdata__ZTV17QSvgWidgetPrivate)
    .constdata__ZTV18QSvgTransformStyle      0x00030dc4   Section       28  qsvgstyle.o(.constdata__ZTV18QSvgTransformStyle)
    .constdata__ZTV19QPaintEnginePrivate     0x00030de0   Section       20  qsvggenerator.o(.constdata__ZTV19QPaintEnginePrivate)
    .constdata__ZTV19QSvgRendererPrivate     0x00030df4   Section       16  qsvgrenderer.o(.constdata__ZTV19QSvgRendererPrivate)
    .constdata__ZTV19QSvgSolidColorStyle     0x00030e04   Section       32  qsvgstyle.o(.constdata__ZTV19QSvgSolidColorStyle)
    .constdata__ZTV20QSvgAnimateTransform    0x00030e24   Section       28  qsvgstyle.o(.constdata__ZTV20QSvgAnimateTransform)
    .constdata__ZTV21QSvgFillStyleProperty   0x00030e40   Section       32  qsvgstyle.o(.constdata__ZTV21QSvgFillStyleProperty)
    .constdata__ZTV21QSvgViewportFillStyle   0x00030e60   Section       28  qsvgstyle.o(.constdata__ZTV21QSvgViewportFillStyle)
    .constdata__ZTV22QSvgPaintEnginePrivate  0x00030e7c   Section       20  qsvggenerator.o(.constdata__ZTV22QSvgPaintEnginePrivate)
    .constdata__ZTV23QGraphicsSvgItemPrivate 0x00030e90   Section       80  qgraphicssvgitem.o(.constdata__ZTV23QGraphicsSvgItemPrivate)
    .constdata__ZTV26QGraphicsBlurEffectPrivate 0x00030ee0   Section       16  qsvgwidget.o(.constdata__ZTV26QGraphicsBlurEffectPrivate)
    .constdata__ZTV30QGraphicsColorizeEffectPrivate 0x00030ef0   Section       16  qsvgwidget.o(.constdata__ZTV30QGraphicsColorizeEffectPrivate)
    .constdata__ZTV32QGraphicsDropShadowEffectPrivate 0x00030f00   Section       16  qsvgwidget.o(.constdata__ZTV32QGraphicsDropShadowEffectPrivate)
    .constdata__ZTV5QSvgG                    0x00030f10   Section       32  qsvgstructure.o(.constdata__ZTV5QSvgG)
    .constdata__ZTV7QSvgArc                  0x00030f30   Section       32  qsvggraphics.o(.constdata__ZTV7QSvgArc)
    .constdata__ZTV7QSvgUse                  0x00030f50   Section       32  qsvggraphics.o(.constdata__ZTV7QSvgUse)
    .constdata__ZTV8QSvgDefs                 0x00030f70   Section       32  qsvgstructure.o(.constdata__ZTV8QSvgDefs)
    .constdata__ZTV8QSvgFont                 0x00030f90   Section       16  qsvgfont.o(.constdata__ZTV8QSvgFont)
    .constdata__ZTV8QSvgLine                 0x00030fa0   Section       32  qsvggraphics.o(.constdata__ZTV8QSvgLine)
    .constdata__ZTV8QSvgNode                 0x00030fc0   Section       32  qsvgnode.o(.constdata__ZTV8QSvgNode)
    .constdata__ZTV8QSvgPath                 0x00030fe0   Section       32  qsvggraphics.o(.constdata__ZTV8QSvgPath)
    .constdata__ZTV8QSvgRect                 0x00031000   Section       32  qsvggraphics.o(.constdata__ZTV8QSvgRect)
    .constdata__ZTV8QSvgText                 0x00031020   Section       32  qsvggraphics.o(.constdata__ZTV8QSvgText)
    .constdata__ZTV9QSvgImage                0x00031040   Section       32  qsvggraphics.o(.constdata__ZTV9QSvgImage)
    .constdata__ZTV9QSvgTspan                0x00031060   Section       32  qsvggraphics.o(.constdata__ZTV9QSvgTspan)
    .constdata__ZTV9QSvgVideo                0x00031080   Section       32  qsvggraphics.o(.constdata__ZTV9QSvgVideo)
    .constdata__ZTVN15QtSharedPointer20ExternalRefCountDataE 0x000310a0   Section       20  qsvggraphics.o(.constdata__ZTVN15QtSharedPointer20ExternalRefCountDataE)
    .conststring$3                           0x000310b4   Data           0  qsvghandler.o(.conststring)
    .conststring                             0x000310b4   Section      117  qsvghandler.o(.conststring)
    .conststring$3                           0x00031122   Data           0  qsvgstructure.o(.conststring)
    .conststring                             0x00031122   Section     1151  qsvgstructure.o(.conststring)
    .ARM.exidx                               0x000315a0   Section        8  ucppinit.o(.ARM.exidx)
    .data$0                                  0x00400000   Data           0  qsvghandler.o(.data)
    qt_inherit_text                          0x00400000   Data           4  qsvghandler.o(.data)
    .data                                    0x00400000   Section       78  qsvghandler.o(.data)
    QSvgStyleSelector_nodeString             0x00400004   Data          72  qsvghandler.o(.data)
    magic@_Z7isDigitt_0                      0x0040004c   Data           2  qsvghandler.o(.data)
    .data$0                                  0x00400050   Data           0  qsvgstructure.o(.data)
    wordlist@_Z21isSupportedSvgFeatureRK7QString_1 0x00400050   Data         356  qsvgstructure.o(.data)
    .data                                    0x00400050   Section      356  qsvgstructure.o(.data)
    .data__ZNSt19_Atomic_swap_structILi1EE12_S_swap_lockE 0x004001b4   Section       12  qsvggraphics.o(.data__ZNSt19_Atomic_swap_structILi1EE12_S_swap_lockE)

    Global Symbols

    Symbol Name                              Value     Ov Type        Size  Object(Section)

    BuildAttributes$$THUMB_ISAv2$ARM_ISAv5$M$VFPv2$PE$A:L22$X:L11$S22$IEEE1$IW$USESV6$~STKCKD$USESV7$~SHL$OSPACE$ROPI$IEEEJ$EBA8$UX$FPIC$INDIRECT$REQ8$PRES8$EABIv2 0x00000000   Number         0  anon$$obj.o ABSOLUTE
    QtCore{00040703}[2001b2dc].dll           0x00000000   Data           0  anon$$obj.o ABSOLUTE
    QtGui{00040703}[2001b2dd].dll            0x00000000   Data           0  anon$$obj.o ABSOLUTE
    QtSvg{00040703}[2001b2e2].dll            0x00000000   Data           0  anon$$obj.o ABSOLUTE
    dfpaeabi{000a0000}.dll                   0x00000000   Data           0  anon$$obj.o ABSOLUTE
    drtaeabi{000a0000}.dll                   0x00000000   Data           0  anon$$obj.o ABSOLUTE
    euser{000a0000}[100039e5].dll            0x00000000   Data           0  anon$$obj.o ABSOLUTE
    libc{00010001}[10207369].dll             0x00000000   Data           0  anon$$obj.o ABSOLUTE
    libm{00010001}[102750d2].dll             0x00000000   Data           0  anon$$obj.o ABSOLUTE
    stdnew{000a0000}[20022178].dll           0x00000000   Data           0  anon$$obj.o ABSOLUTE
    SHT$$INIT_ARRAY$$Base                     - Undefined Weak Reference
    SHT$$INIT_ARRAY$$Limit                    - Undefined Weak Reference
    qt_assert_x(const char*, const char*, const char*, int)  - Undefined Reference
    _Z11qt_assert_xPKcS0_S0_i@QtCore{00040703}[2001b2dc].dll  - Undefined Reference
    qFlagLocation(const char*)                - Undefined Reference
    _Z13qFlagLocationPKc@QtCore{00040703}[2001b2dc].dll  - Undefined Reference
    qt_message_output(QtMsgType, const char*)  - Undefined Reference
    _Z17qt_message_output9QtMsgTypePKc@QtCore{00040703}[2001b2dc].dll  - Undefined Reference
    endl(QTextStream&)                        - Undefined Reference
    _Z4endlR11QTextStream@QtCore{00040703}[2001b2dc].dll  - Undefined Reference
    qFree(void*)                              - Undefined Reference
    _Z5qFreePv@QtCore{00040703}[2001b2dc].dll  - Undefined Reference
    qHash(const QString&)                     - Undefined Reference
    _Z5qHashRK7QString@QtCore{00040703}[2001b2dc].dll  - Undefined Reference
    qDebug(const char*, ...)                  - Undefined Reference
    _Z6qDebugPKcz@QtCore{00040703}[2001b2dc].dll  - Undefined Reference
    qMalloc(unsigned)                         - Undefined Reference
    _Z7qMallocj@QtCore{00040703}[2001b2dc].dll  - Undefined Reference
    qMemSet(void*, int, unsigned)             - Undefined Reference
    _Z7qMemSetPvij@QtCore{00040703}[2001b2dc].dll  - Undefined Reference
    qstrtod(const char*, const char**, bool*)  - Undefined Reference
    _Z7qstrtodPKcPS0_Pb@QtCore{00040703}[2001b2dc].dll  - Undefined Reference
    qMemCopy(void*, const void*, unsigned)    - Undefined Reference
    _Z8qMemCopyPvPKvj@QtCore{00040703}[2001b2dc].dll  - Undefined Reference
    qWarning(const char*, ...)                - Undefined Reference
    _Z8qWarningPKcz@QtCore{00040703}[2001b2dc].dll  - Undefined Reference
    qBadAlloc()                               - Undefined Reference
    _Z9qBadAllocv@QtCore{00040703}[2001b2dc].dll  - Undefined Reference
    qt_assert(const char*, const char*, int)  - Undefined Reference
    _Z9qt_assertPKcS0_i@QtCore{00040703}[2001b2dc].dll  - Undefined Reference
    QByteArray::fromBase64(const QByteArray&)  - Undefined Reference
    _ZN10QByteArray10fromBase64ERKS_@QtCore{00040703}[2001b2dc].dll  - Undefined Reference
    QByteArray::shared_null                   - Undefined Reference
    _ZN10QByteArray11shared_nullE@QtCore{00040703}[2001b2dc].dll  - Undefined Reference
    QByteArray::chop(int)                     - Undefined Reference
    _ZN10QByteArray4chopEi@QtCore{00040703}[2001b2dc].dll  - Undefined Reference
    QByteArray::resize(int)                   - Undefined Reference
    _ZN10QByteArray6resizeEi@QtCore{00040703}[2001b2dc].dll  - Undefined Reference
    QByteArray::realloc(int)                  - Undefined Reference
    _ZN10QByteArray7reallocEi@QtCore{00040703}[2001b2dc].dll  - Undefined Reference
    QByteArray::QByteArray(const char*)       - Undefined Reference
    _ZN10QByteArrayC1EPKc@QtCore{00040703}[2001b2dc].dll  - Undefined Reference
    QByteArray::operator =(const QByteArray&)  - Undefined Reference
    _ZN10QByteArrayaSERKS_@QtCore{00040703}[2001b2dc].dll  - Undefined Reference
    QTextCodec::codecForName(const QByteArray&)  - Undefined Reference
    _ZN10QTextCodec12codecForNameERK10QByteArray@QtCore{00040703}[2001b2dc].dll  - Undefined Reference
    QTransform::scale(float, float)           - Undefined Reference
    _ZN10QTransform5scaleEff@QtGui{00040703}[2001b2dd].dll  - Undefined Reference
    QTransform::shear(float, float)           - Undefined Reference
    _ZN10QTransform5shearEff@QtGui{00040703}[2001b2dd].dll  - Undefined Reference
    QTransform::rotate(float, Qt::Axis)       - Undefined Reference
    _ZN10QTransform6rotateEfN2Qt4AxisE@QtGui{00040703}[2001b2dd].dll  - Undefined Reference
    QTransform::translate(float, float)       - Undefined Reference
    _ZN10QTransform9translateEff@QtGui{00040703}[2001b2dd].dll  - Undefined Reference
    QTransform::QTransform(const QMatrix&)    - Undefined Reference
    _ZN10QTransformC1ERK7QMatrix@QtGui{00040703}[2001b2dd].dll  - Undefined Reference
    QTransform::QTransform()                  - Undefined Reference
    _ZN10QTransformC1Ev@QtGui{00040703}[2001b2dd].dll  - Undefined Reference
    QTransform::operator =(const QTransform&)  - Undefined Reference
    _ZN10QTransformaSERKS_@QtGui{00040703}[2001b2dd].dll  - Undefined Reference
    QTransform::operator *=(const QTransform&)  - Undefined Reference
    _ZN10QTransformmLERKS_@QtGui{00040703}[2001b2dd].dll  - Undefined Reference
    QMetaObject::activate(QObject*, const QMetaObject*, int, void**)  - Undefined Reference
    _ZN11QMetaObject8activateEP7QObjectPKS_iPPv@QtCore{00040703}[2001b2dc].dll  - Undefined Reference
    QTextFormat::setProperty(int, const QVariant&)  - Undefined Reference
    _ZN11QTextFormat11setPropertyEiRK8QVariant@QtGui{00040703}[2001b2dd].dll  - Undefined Reference
    QTextFormat::QTextFormat(const QTextFormat&)  - Undefined Reference
    _ZN11QTextFormatC1ERKS_@QtGui{00040703}[2001b2dd].dll  - Undefined Reference
    QTextFormat::~QTextFormat()               - Undefined Reference
    _ZN11QTextFormatD1Ev@QtGui{00040703}[2001b2dd].dll  - Undefined Reference
    QTextLayout::createLine()                 - Undefined Reference
    _ZN11QTextLayout10createLineEv@QtGui{00040703}[2001b2dd].dll  - Undefined Reference
    QTextLayout::beginLayout()                - Undefined Reference
    _ZN11QTextLayout11beginLayoutEv@QtGui{00040703}[2001b2dd].dll  - Undefined Reference
    QTextLayout::setTextOption(const QTextOption&)  - Undefined Reference
    _ZN11QTextLayout13setTextOptionERK11QTextOption@QtGui{00040703}[2001b2dd].dll  - Undefined Reference
    QTextLayout::setAdditionalFormats(const QList<QTextLayout::FormatRange>&)  - Undefined Reference
    _ZN11QTextLayout20setAdditionalFormatsERK5QListINS_11FormatRangeEE@QtGui{00040703}[2001b2dd].dll  - Undefined Reference
    QTextLayout::endLayout()                  - Undefined Reference
    _ZN11QTextLayout9endLayoutEv@QtGui{00040703}[2001b2dd].dll  - Undefined Reference
    QTextLayout::QTextLayout(const QString&)  - Undefined Reference
    _ZN11QTextLayoutC1ERK7QString@QtGui{00040703}[2001b2dd].dll  - Undefined Reference
    QTextLayout::~QTextLayout()               - Undefined Reference
    _ZN11QTextLayoutD1Ev@QtGui{00040703}[2001b2dd].dll  - Undefined Reference
    QTextOption::~QTextOption()               - Undefined Reference
    _ZN11QTextOptionD1Ev@QtGui{00040703}[2001b2dd].dll  - Undefined Reference
    QTextStream::setCodec(QTextCodec*)        - Undefined Reference
    _ZN11QTextStream8setCodecEP10QTextCodec@QtCore{00040703}[2001b2dc].dll  - Undefined Reference
    QTextStream::setDevice(QIODevice*)        - Undefined Reference
    _ZN11QTextStream9setDeviceEP9QIODevice@QtCore{00040703}[2001b2dc].dll  - Undefined Reference
    QTextStream::setString(QString*, QFlags<QIODevice::OpenModeFlag>)  - Undefined Reference
    _ZN11QTextStream9setStringEP7QString6QFlagsIN9QIODevice12OpenModeFlagEE@QtCore{00040703}[2001b2dc].dll  - Undefined Reference
    QTextStream::QTextStream(QString*, QFlags<QIODevice::OpenModeFlag>)  - Undefined Reference
    _ZN11QTextStreamC1EP7QString6QFlagsIN9QIODevice12OpenModeFlagEE@QtCore{00040703}[2001b2dc].dll  - Undefined Reference
    QTextStream::~QTextStream()               - Undefined Reference
    _ZN11QTextStreamD1Ev@QtCore{00040703}[2001b2dc].dll  - Undefined Reference
    QTextStream::operator <<(const char*)     - Undefined Reference
    _ZN11QTextStreamlsEPKc@QtCore{00040703}[2001b2dc].dll  - Undefined Reference
    QTextStream::operator <<(const QByteArray&)  - Undefined Reference
    _ZN11QTextStreamlsERK10QByteArray@QtCore{00040703}[2001b2dc].dll  - Undefined Reference
    QTextStream::operator <<(const QString&)  - Undefined Reference
    _ZN11QTextStreamlsERK7QString@QtCore{00040703}[2001b2dc].dll  - Undefined Reference
    QTextStream::operator <<(char)            - Undefined Reference
    _ZN11QTextStreamlsEc@QtCore{00040703}[2001b2dc].dll  - Undefined Reference
    QTextStream::operator <<(float)           - Undefined Reference
    _ZN11QTextStreamlsEf@QtCore{00040703}[2001b2dc].dll  - Undefined Reference
    QVectorData::reallocate(QVectorData*, int, int, int)  - Undefined Reference
    _ZN11QVectorData10reallocateEPS_iii@QtCore{00040703}[2001b2dc].dll  - Undefined Reference
    QVectorData::shared_null                  - Undefined Reference
    _ZN11QVectorData11shared_nullE@QtCore{00040703}[2001b2dc].dll  - Undefined Reference
    QVectorData::free(QVectorData*, int)      - Undefined Reference
    _ZN11QVectorData4freeEPS_i@QtCore{00040703}[2001b2dc].dll  - Undefined Reference
    QVectorData::grow(int, int, int, bool)    - Undefined Reference
    _ZN11QVectorData4growEiiib@QtCore{00040703}[2001b2dc].dll  - Undefined Reference
    QVectorData::allocate(int, int)           - Undefined Reference
    _ZN11QVectorData8allocateEii@QtCore{00040703}[2001b2dc].dll  - Undefined Reference
    QPaintDevice::QPaintDevice__sub_object()  - Undefined Reference
    _ZN12QPaintDeviceC2Ev@QtGui{00040703}[2001b2dd].dll  - Undefined Reference
    QPaintDevice::~QPaintDevice__sub_object()  - Undefined Reference
    _ZN12QPaintDeviceD2Ev@QtGui{00040703}[2001b2dd].dll  - Undefined Reference
    QPaintEngine::drawPoints(const QPoint*, int)  - Undefined Reference
    _ZN12QPaintEngine10drawPointsEPK6QPointi@QtGui{00040703}[2001b2dd].dll  - Undefined Reference
    QPaintEngine::drawPoints(const QPointF*, int)  - Undefined Reference
    _ZN12QPaintEngine10drawPointsEPK7QPointFi@QtGui{00040703}[2001b2dd].dll  - Undefined Reference
    QPaintEngine::drawEllipse(const QRect&)   - Undefined Reference
    _ZN12QPaintEngine11drawEllipseERK5QRect@QtGui{00040703}[2001b2dd].dll  - Undefined Reference
    QPaintEngine::drawEllipse(const QRectF&)  - Undefined Reference
    _ZN12QPaintEngine11drawEllipseERK6QRectF@QtGui{00040703}[2001b2dd].dll  - Undefined Reference
    QPaintEngine::drawPolygon(const QPoint*, int, QPaintEngine::PolygonDrawMode)  - Undefined Reference
    _ZN12QPaintEngine11drawPolygonEPK6QPointiNS_15PolygonDrawModeE@QtGui{00040703}[2001b2dd].dll  - Undefined Reference
    QPaintEngine::drawTiledPixmap(const QRectF&, const QPixmap&, const QPointF&)  - Undefined Reference
    _ZN12QPaintEngine15drawTiledPixmapERK6QRectFRK7QPixmapRK7QPointF@QtGui{00040703}[2001b2dd].dll  - Undefined Reference
    QPaintEngine::drawImage(const QRectF&, const QImage&, const QRectF&, QFlags<Qt::ImageConversionFlag>)  - Undefined Reference
    _ZN12QPaintEngine9drawImageERK6QRectFRK6QImageS2_6QFlagsIN2Qt19ImageConversionFlagEE@QtGui{00040703}[2001b2dd].dll  - Undefined Reference
    QPaintEngine::drawLines(const QLine*, int)  - Undefined Reference
    _ZN12QPaintEngine9drawLinesEPK5QLinei@QtGui{00040703}[2001b2dd].dll  - Undefined Reference
    QPaintEngine::drawLines(const QLineF*, int)  - Undefined Reference
    _ZN12QPaintEngine9drawLinesEPK6QLineFi@QtGui{00040703}[2001b2dd].dll  - Undefined Reference
    QPaintEngine::drawRects(const QRect*, int)  - Undefined Reference
    _ZN12QPaintEngine9drawRectsEPK5QRecti@QtGui{00040703}[2001b2dd].dll  - Undefined Reference
    QPaintEngine::drawRects(const QRectF*, int)  - Undefined Reference
    _ZN12QPaintEngine9drawRectsEPK6QRectFi@QtGui{00040703}[2001b2dd].dll  - Undefined Reference
    QPaintEngine::QPaintEngine__sub_object(QPaintEnginePrivate&, QFlags<QPaintEngine::PaintEngineFeature>)  - Undefined Reference
    _ZN12QPaintEngineC2ER19QPaintEnginePrivate6QFlagsINS_18PaintEngineFeatureEE@QtGui{00040703}[2001b2dd].dll  - Undefined Reference
    QPaintEngine::~QPaintEngine__sub_object()  - Undefined Reference
    _ZN12QPaintEngineD2Ev@QtGui{00040703}[2001b2dd].dll  - Undefined Reference
    QPainterPath::addEllipse(const QRectF&)   - Undefined Reference
    _ZN12QPainterPath10addEllipseERK6QRectF@QtGui{00040703}[2001b2dd].dll  - Undefined Reference
    QPainterPath::addPolygon(const QPolygonF&)  - Undefined Reference
    _ZN12QPainterPath10addPolygonERK9QPolygonF@QtGui{00040703}[2001b2dd].dll  - Undefined Reference
    QPainterPath::setFillRule(Qt::FillRule)   - Undefined Reference
    _ZN12QPainterPath11setFillRuleEN2Qt8FillRuleE@QtGui{00040703}[2001b2dd].dll  - Undefined Reference
    QPainterPath::closeSubpath()              - Undefined Reference
    _ZN12QPainterPath12closeSubpathEv@QtGui{00040703}[2001b2dd].dll  - Undefined Reference
    QPainterPath::lineTo(const QPointF&)      - Undefined Reference
    _ZN12QPainterPath6lineToERK7QPointF@QtGui{00040703}[2001b2dd].dll  - Undefined Reference
    QPainterPath::moveTo(const QPointF&)      - Undefined Reference
    _ZN12QPainterPath6moveToERK7QPointF@QtGui{00040703}[2001b2dd].dll  - Undefined Reference
    QPainterPath::quadTo(const QPointF&, const QPointF&)  - Undefined Reference
    _ZN12QPainterPath6quadToERK7QPointFS2_@QtGui{00040703}[2001b2dd].dll  - Undefined Reference
    QPainterPath::addRect(const QRectF&)      - Undefined Reference
    _ZN12QPainterPath7addRectERK6QRectF@QtGui{00040703}[2001b2dd].dll  - Undefined Reference
    QPainterPath::cubicTo(const QPointF&, const QPointF&, const QPointF&)  - Undefined Reference
    _ZN12QPainterPath7cubicToERK7QPointFS2_S2_@QtGui{00040703}[2001b2dd].dll  - Undefined Reference
    QPainterPath::QPainterPath(const QPointF&)  - Undefined Reference
    _ZN12QPainterPathC1ERK7QPointF@QtGui{00040703}[2001b2dd].dll  - Undefined Reference
    QPainterPath::QPainterPath(const QPainterPath&)  - Undefined Reference
    _ZN12QPainterPathC1ERKS_@QtGui{00040703}[2001b2dd].dll  - Undefined Reference
    QPainterPath::QPainterPath()              - Undefined Reference
    _ZN12QPainterPathC1Ev@QtGui{00040703}[2001b2dd].dll  - Undefined Reference
    QPainterPath::~QPainterPath()             - Undefined Reference
    _ZN12QPainterPathD1Ev@QtGui{00040703}[2001b2dd].dll  - Undefined Reference
    QPainterPath::operator =(const QPainterPath&)  - Undefined Reference
    _ZN12QPainterPathaSERKS_@QtGui{00040703}[2001b2dd].dll  - Undefined Reference
    QGraphicsItem::itemChange(QGraphicsItem::GraphicsItemChange, const QVariant&)  - Undefined Reference
    _ZN13QGraphicsItem10itemChangeENS_18GraphicsItemChangeERK8QVariant@QtGui{00040703}[2001b2dd].dll  - Undefined Reference
    QGraphicsItem::sceneEvent(QEvent*)        - Undefined Reference
    _ZN13QGraphicsItem10sceneEventEP6QEvent@QtGui{00040703}[2001b2dd].dll  - Undefined Reference
    QGraphicsItem::wheelEvent(QGraphicsSceneWheelEvent*)  - Undefined Reference
    _ZN13QGraphicsItem10wheelEventEP24QGraphicsSceneWheelEvent@QtGui{00040703}[2001b2dd].dll  - Undefined Reference
    QGraphicsItem::focusInEvent(QFocusEvent*)  - Undefined Reference
    _ZN13QGraphicsItem12focusInEventEP11QFocusEvent@QtGui{00040703}[2001b2dd].dll  - Undefined Reference
    QGraphicsItem::setCacheMode(QGraphicsItem::CacheMode, const QSize&)  - Undefined Reference
    _ZN13QGraphicsItem12setCacheModeENS_9CacheModeERK5QSize@QtGui{00040703}[2001b2dd].dll  - Undefined Reference
    QGraphicsItem::setExtension(QGraphicsItem::Extension, const QVariant&)  - Undefined Reference
    _ZN13QGraphicsItem12setExtensionENS_9ExtensionERK8QVariant@QtGui{00040703}[2001b2dd].dll  - Undefined Reference
    QGraphicsItem::dragMoveEvent(QGraphicsSceneDragDropEvent*)  - Undefined Reference
    _ZN13QGraphicsItem13dragMoveEventEP27QGraphicsSceneDragDropEvent@QtGui{00040703}[2001b2dd].dll  - Undefined Reference
    QGraphicsItem::focusOutEvent(QFocusEvent*)  - Undefined Reference
    _ZN13QGraphicsItem13focusOutEventEP11QFocusEvent@QtGui{00040703}[2001b2dd].dll  - Undefined Reference
    QGraphicsItem::keyPressEvent(QKeyEvent*)  - Undefined Reference
    _ZN13QGraphicsItem13keyPressEventEP9QKeyEvent@QtGui{00040703}[2001b2dd].dll  - Undefined Reference
    QGraphicsItem::setParentItem(QGraphicsItem*)  - Undefined Reference
    _ZN13QGraphicsItem13setParentItemEPS_@QtGui{00040703}[2001b2dd].dll  - Undefined Reference
    QGraphicsItem::dragEnterEvent(QGraphicsSceneDragDropEvent*)  - Undefined Reference
    _ZN13QGraphicsItem14dragEnterEventEP27QGraphicsSceneDragDropEvent@QtGui{00040703}[2001b2dd].dll  - Undefined Reference
    QGraphicsItem::dragLeaveEvent(QGraphicsSceneDragDropEvent*)  - Undefined Reference
    _ZN13QGraphicsItem14dragLeaveEventEP27QGraphicsSceneDragDropEvent@QtGui{00040703}[2001b2dd].dll  - Undefined Reference
    QGraphicsItem::hoverMoveEvent(QGraphicsSceneHoverEvent*)  - Undefined Reference
    _ZN13QGraphicsItem14hoverMoveEventEP24QGraphicsSceneHoverEvent@QtGui{00040703}[2001b2dd].dll  - Undefined Reference
    QGraphicsItem::mouseMoveEvent(QGraphicsSceneMouseEvent*)  - Undefined Reference
    _ZN13QGraphicsItem14mouseMoveEventEP24QGraphicsSceneMouseEvent@QtGui{00040703}[2001b2dd].dll  - Undefined Reference
    QGraphicsItem::hoverEnterEvent(QGraphicsSceneHoverEvent*)  - Undefined Reference
    _ZN13QGraphicsItem15hoverEnterEventEP24QGraphicsSceneHoverEvent@QtGui{00040703}[2001b2dd].dll  - Undefined Reference
    QGraphicsItem::hoverLeaveEvent(QGraphicsSceneHoverEvent*)  - Undefined Reference
    _ZN13QGraphicsItem15hoverLeaveEventEP24QGraphicsSceneHoverEvent@QtGui{00040703}[2001b2dd].dll  - Undefined Reference
    QGraphicsItem::keyReleaseEvent(QKeyEvent*)  - Undefined Reference
    _ZN13QGraphicsItem15keyReleaseEventEP9QKeyEvent@QtGui{00040703}[2001b2dd].dll  - Undefined Reference
    QGraphicsItem::mousePressEvent(QGraphicsSceneMouseEvent*)  - Undefined Reference
    _ZN13QGraphicsItem15mousePressEventEP24QGraphicsSceneMouseEvent@QtGui{00040703}[2001b2dd].dll  - Undefined Reference
    QGraphicsItem::contextMenuEvent(QGraphicsSceneContextMenuEvent*)  - Undefined Reference
    _ZN13QGraphicsItem16contextMenuEventEP30QGraphicsSceneContextMenuEvent@QtGui{00040703}[2001b2dd].dll  - Undefined Reference
    QGraphicsItem::inputMethodEvent(QInputMethodEvent*)  - Undefined Reference
    _ZN13QGraphicsItem16inputMethodEventEP17QInputMethodEvent@QtGui{00040703}[2001b2dd].dll  - Undefined Reference
    QGraphicsItem::sceneEventFilter(QGraphicsItem*, QEvent*)  - Undefined Reference
    _ZN13QGraphicsItem16sceneEventFilterEPS_P6QEvent@QtGui{00040703}[2001b2dd].dll  - Undefined Reference
    QGraphicsItem::mouseReleaseEvent(QGraphicsSceneMouseEvent*)  - Undefined Reference
    _ZN13QGraphicsItem17mouseReleaseEventEP24QGraphicsSceneMouseEvent@QtGui{00040703}[2001b2dd].dll  - Undefined Reference
    QGraphicsItem::mouseDoubleClickEvent(QGraphicsSceneMouseEvent*)  - Undefined Reference
    _ZN13QGraphicsItem21mouseDoubleClickEventEP24QGraphicsSceneMouseEvent@QtGui{00040703}[2001b2dd].dll  - Undefined Reference
    QGraphicsItem::prepareGeometryChange()    - Undefined Reference
    _ZN13QGraphicsItem21prepareGeometryChangeEv@QtGui{00040703}[2001b2dd].dll  - Undefined Reference
    QGraphicsItem::update(const QRectF&)      - Undefined Reference
    _ZN13QGraphicsItem6updateERK6QRectF@QtGui{00040703}[2001b2dd].dll  - Undefined Reference
    QGraphicsItem::advance(int)               - Undefined Reference
    _ZN13QGraphicsItem7advanceEi@QtGui{00040703}[2001b2dd].dll  - Undefined Reference
    QGraphicsItem::dropEvent(QGraphicsSceneDragDropEvent*)  - Undefined Reference
    _ZN13QGraphicsItem9dropEventEP27QGraphicsSceneDragDropEvent@QtGui{00040703}[2001b2dd].dll  - Undefined Reference
    QGraphicsItem::~QGraphicsItem__sub_object()  - Undefined Reference
    _ZN13QGraphicsItemD2Ev@QtGui{00040703}[2001b2dd].dll  - Undefined Reference
    QObjectPrivate::QObjectPrivate(int)       - Undefined Reference
    _ZN14QObjectPrivateC1Ei@QtCore{00040703}[2001b2dc].dll  - Undefined Reference
    QObjectPrivate::~QObjectPrivate()         - Undefined Reference
    _ZN14QObjectPrivateD1Ev@QtCore{00040703}[2001b2dc].dll  - Undefined Reference
    QWidgetPrivate::QWidgetPrivate(int)       - Undefined Reference
    _ZN14QWidgetPrivateC1Ei@QtGui{00040703}[2001b2dd].dll  - Undefined Reference
    QWidgetPrivate::~QWidgetPrivate()         - Undefined Reference
    _ZN14QWidgetPrivateD1Ev@QtGui{00040703}[2001b2dd].dll  - Undefined Reference
    QGraphicsObject::qt_metacall(QMetaObject::Call, int, void**)  - Undefined Reference
    _ZN15QGraphicsObject11qt_metacallEN11QMetaObject4CallEiPPv@QtGui{00040703}[2001b2dd].dll  - Undefined Reference
    QGraphicsObject::qt_metacast(const char*)  - Undefined Reference
    _ZN15QGraphicsObject11qt_metacastEPKc@QtGui{00040703}[2001b2dd].dll  - Undefined Reference
    QGraphicsObject::staticMetaObject         - Undefined Reference
    _ZN15QGraphicsObject16staticMetaObjectE@QtGui{00040703}[2001b2dd].dll  - Undefined Reference
    QGraphicsObject::QGraphicsObject__sub_object(QGraphicsItemPrivate&, QGraphicsItem*, QGraphicsScene*)  - Undefined Reference
    _ZN15QGraphicsObjectC2ER20QGraphicsItemPrivateP13QGraphicsItemP14QGraphicsScene@QtGui{00040703}[2001b2dd].dll  - Undefined Reference
    QLinearGradient::QLinearGradient(float, float, float, float)  - Undefined Reference
    _ZN15QLinearGradientC1Effff@QtGui{00040703}[2001b2dd].dll  - Undefined Reference
    QRadialGradient::QRadialGradient(float, float, float, float, float)  - Undefined Reference
    _ZN15QRadialGradientC1Efffff@QtGui{00040703}[2001b2dd].dll  - Undefined Reference
    QTextCharFormat::setFont(const QFont&)    - Undefined Reference
    _ZN15QTextCharFormat7setFontERK5QFont@QtGui{00040703}[2001b2dd].dll  - Undefined Reference
    QTextCharFormat::QTextCharFormat()        - Undefined Reference
    _ZN15QTextCharFormatC1Ev@QtGui{00040703}[2001b2dd].dll  - Undefined Reference
    QXmlStreamReader::setNamespaceProcessing(bool)  - Undefined Reference
    _ZN16QXmlStreamReader22setNamespaceProcessingEb@QtCore{00040703}[2001b2dc].dll  - Undefined Reference
    QXmlStreamReader::readNext()              - Undefined Reference
    _ZN16QXmlStreamReader8readNextEv@QtCore{00040703}[2001b2dc].dll  - Undefined Reference
    QXmlStreamReader::QXmlStreamReader(QIODevice*)  - Undefined Reference
    _ZN16QXmlStreamReaderC1EP9QIODevice@QtCore{00040703}[2001b2dc].dll  - Undefined Reference
    QXmlStreamReader::QXmlStreamReader(const QByteArray&)  - Undefined Reference
    _ZN16QXmlStreamReaderC1ERK10QByteArray@QtCore{00040703}[2001b2dc].dll  - Undefined Reference
    QXmlStreamReader::~QXmlStreamReader()     - Undefined Reference
    _ZN16QXmlStreamReaderD1Ev@QtCore{00040703}[2001b2dc].dll  - Undefined Reference
    QPainterPathStroker::setWidth(float)      - Undefined Reference
    _ZN19QPainterPathStroker8setWidthEf@QtGui{00040703}[2001b2dd].dll  - Undefined Reference
    QPainterPathStroker::QPainterPathStroker()  - Undefined Reference
    _ZN19QPainterPathStrokerC1Ev@QtGui{00040703}[2001b2dd].dll  - Undefined Reference
    QPainterPathStroker::~QPainterPathStroker()  - Undefined Reference
    _ZN19QPainterPathStrokerD1Ev@QtGui{00040703}[2001b2dd].dll  - Undefined Reference
    QXmlStreamAttribute::QXmlStreamAttribute(const QXmlStreamAttribute&)  - Undefined Reference
    _ZN19QXmlStreamAttributeC1ERKS_@QtCore{00040703}[2001b2dc].dll  - Undefined Reference
    QXmlStreamAttribute::QXmlStreamAttribute()  - Undefined Reference
    _ZN19QXmlStreamAttributeC1Ev@QtCore{00040703}[2001b2dc].dll  - Undefined Reference
    QXmlStreamAttribute::~QXmlStreamAttribute()  - Undefined Reference
    _ZN19QXmlStreamAttributeD1Ev@QtCore{00040703}[2001b2dc].dll  - Undefined Reference
    QGraphicsItemPrivate::resetWidth()        - Undefined Reference
    _ZN20QGraphicsItemPrivate10resetWidthEv@QtGui{00040703}[2001b2dd].dll  - Undefined Reference
    QGraphicsItemPrivate::resetHeight()       - Undefined Reference
    _ZN20QGraphicsItemPrivate11resetHeightEv@QtGui{00040703}[2001b2dd].dll  - Undefined Reference
    QGraphicsItemPrivate::setPosHelper(const QPointF&)  - Undefined Reference
    _ZN20QGraphicsItemPrivate12setPosHelperERK7QPointF@QtGui{00040703}[2001b2dd].dll  - Undefined Reference
    QGraphicsItemPrivate::siblingOrderChange()  - Undefined Reference
    _ZN20QGraphicsItemPrivate18siblingOrderChangeEv@QtGui{00040703}[2001b2dd].dll  - Undefined Reference
    QGraphicsItemPrivate::subFocusItemChange()  - Undefined Reference
    _ZN20QGraphicsItemPrivate18subFocusItemChangeEv@QtGui{00040703}[2001b2dd].dll  - Undefined Reference
    QGraphicsItemPrivate::focusScopeItemChange(bool)  - Undefined Reference
    _ZN20QGraphicsItemPrivate20focusScopeItemChangeEb@QtGui{00040703}[2001b2dd].dll  - Undefined Reference
    QGraphicsItemPrivate::updateSceneTransformFromParent()  - Undefined Reference
    _ZN20QGraphicsItemPrivate30updateSceneTransformFromParentEv@QtGui{00040703}[2001b2dd].dll  - Undefined Reference
    QGraphicsItemPrivate::setWidth(float)     - Undefined Reference
    _ZN20QGraphicsItemPrivate8setWidthEf@QtGui{00040703}[2001b2dd].dll  - Undefined Reference
    QGraphicsItemPrivate::setHeight(float)    - Undefined Reference
    _ZN20QGraphicsItemPrivate9setHeightEf@QtGui{00040703}[2001b2dd].dll  - Undefined Reference
    QXmlStreamAttributes::append(const QString&, const QString&, const QString&)  - Undefined Reference
    _ZN20QXmlStreamAttributes6appendERK7QStringS2_S2_@QtCore{00040703}[2001b2dc].dll  - Undefined Reference
    Qt::escape(const QString&)                - Undefined Reference
    _ZN2Qt6escapeERK7QString@QtGui{00040703}[2001b2dd].dll  - Undefined Reference
    Math::Cos(double&, const double&)         - Undefined Reference
    _ZN4Math3CosERdRKd@euser{000a0000}[100039e5].dll  - Undefined Reference
    Math::Sin(double&, const double&)         - Undefined Reference
    _ZN4Math3SinERdRKd@euser{000a0000}[100039e5].dll  - Undefined Reference
    Math::Tan(double&, const double&)         - Undefined Reference
    _ZN4Math3TanERdRKd@euser{000a0000}[100039e5].dll  - Undefined Reference
    Math::ATan(double&, const double&, const double&)  - Undefined Reference
    _ZN4Math4ATanERdRKdS2_@euser{000a0000}[100039e5].dll  - Undefined Reference
    Math::Sqrt(double&, const double&)        - Undefined Reference
    _ZN4Math4SqrtERdRKd@euser{000a0000}[100039e5].dll  - Undefined Reference
    QCss::StyleSelector::declarationsForNode(QCss::StyleSelector::NodePtr, const char*)  - Undefined Reference
    _ZN4QCss13StyleSelector19declarationsForNodeENS0_7NodePtrEPKc@QtGui{00040703}[2001b2dd].dll  - Undefined Reference
    QCss::StyleSelector::~StyleSelector__sub_object()  - Undefined Reference
    _ZN4QCss13StyleSelectorD2Ev@QtGui{00040703}[2001b2dd].dll  - Undefined Reference
    QCss::Parser::init(const QString&, bool)  - Undefined Reference
    _ZN4QCss6Parser4initERK7QStringb@QtGui{00040703}[2001b2dd].dll  - Undefined Reference
    QCss::Parser::test(QCss::TokenType)       - Undefined Reference
    _ZN4QCss6Parser4testENS_9TokenTypeE@QtGui{00040703}[2001b2dd].dll  - Undefined Reference
    QCss::Parser::parse(QCss::StyleSheet*, Qt::CaseSensitivity)  - Undefined Reference
    _ZN4QCss6Parser5parseEPNS_10StyleSheetEN2Qt15CaseSensitivityE@QtGui{00040703}[2001b2dd].dll  - Undefined Reference
    QCss::Parser::Parser(const QString&, bool)  - Undefined Reference
    _ZN4QCss6ParserC1ERK7QStringb@QtGui{00040703}[2001b2dd].dll  - Undefined Reference
    QCss::Parser::Parser()                    - Undefined Reference
    _ZN4QCss6ParserC1Ev@QtGui{00040703}[2001b2dd].dll  - Undefined Reference
    QPen::setCapStyle(Qt::PenCapStyle)        - Undefined Reference
    _ZN4QPen11setCapStyleEN2Qt11PenCapStyleE@QtGui{00040703}[2001b2dd].dll  - Undefined Reference
    QPen::setCosmetic(bool)                   - Undefined Reference
    _ZN4QPen11setCosmeticEb@QtGui{00040703}[2001b2dd].dll  - Undefined Reference
    QPen::setJoinStyle(Qt::PenJoinStyle)      - Undefined Reference
    _ZN4QPen12setJoinStyleEN2Qt12PenJoinStyleE@QtGui{00040703}[2001b2dd].dll  - Undefined Reference
    QPen::setDashOffset(float)                - Undefined Reference
    _ZN4QPen13setDashOffsetEf@QtGui{00040703}[2001b2dd].dll  - Undefined Reference
    QPen::setMiterLimit(float)                - Undefined Reference
    _ZN4QPen13setMiterLimitEf@QtGui{00040703}[2001b2dd].dll  - Undefined Reference
    QPen::setDashPattern(const QVector<float>&)  - Undefined Reference
    _ZN4QPen14setDashPatternERK7QVectorIfE@QtGui{00040703}[2001b2dd].dll  - Undefined Reference
    QPen::setBrush(const QBrush&)             - Undefined Reference
    _ZN4QPen8setBrushERK6QBrush@QtGui{00040703}[2001b2dd].dll  - Undefined Reference
    QPen::setColor(const QColor&)             - Undefined Reference
    _ZN4QPen8setColorERK6QColor@QtGui{00040703}[2001b2dd].dll  - Undefined Reference
    QPen::setStyle(Qt::PenStyle)              - Undefined Reference
    _ZN4QPen8setStyleEN2Qt8PenStyleE@QtGui{00040703}[2001b2dd].dll  - Undefined Reference
    QPen::setWidthF(float)                    - Undefined Reference
    _ZN4QPen9setWidthFEf@QtGui{00040703}[2001b2dd].dll  - Undefined Reference
    QPen::QPen(Qt::PenStyle)                  - Undefined Reference
    _ZN4QPenC1EN2Qt8PenStyleE@QtGui{00040703}[2001b2dd].dll  - Undefined Reference
    QPen::QPen(const QBrush&, float, Qt::PenStyle, Qt::PenCapStyle, Qt::PenJoinStyle)  - Undefined Reference
    _ZN4QPenC1ERK6QBrushfN2Qt8PenStyleENS3_11PenCapStyleENS3_12PenJoinStyleE@QtGui{00040703}[2001b2dd].dll  - Undefined Reference
    QPen::QPen(const QPen&)                   - Undefined Reference
    _ZN4QPenC1ERKS_@QtGui{00040703}[2001b2dd].dll  - Undefined Reference
    QPen::QPen()                              - Undefined Reference
    _ZN4QPenC1Ev@QtGui{00040703}[2001b2dd].dll  - Undefined Reference
    QPen::~QPen()                             - Undefined Reference
    _ZN4QPenD1Ev@QtGui{00040703}[2001b2dd].dll  - Undefined Reference
    QPen::operator =(const QPen&)             - Undefined Reference
    _ZN4QPenaSERKS_@QtGui{00040703}[2001b2dd].dll  - Undefined Reference
    User::LockedDec(int&)                     - Undefined Reference
    _ZN4User9LockedDecERi@euser{000a0000}[100039e5].dll  - Undefined Reference
    User::LockedInc(int&)                     - Undefined Reference
    _ZN4User9LockedIncERi@euser{000a0000}[100039e5].dll  - Undefined Reference
    QFile::open(QFlags<QIODevice::OpenModeFlag>)  - Undefined Reference
    _ZN5QFile4openE6QFlagsIN9QIODevice12OpenModeFlagEE@QtCore{00040703}[2001b2dc].dll  - Undefined Reference
    QFile::QFile(const QString&)              - Undefined Reference
    _ZN5QFileC1ERK7QString@QtCore{00040703}[2001b2dc].dll  - Undefined Reference
    QFile::~QFile()                           - Undefined Reference
    _ZN5QFileD1Ev@QtCore{00040703}[2001b2dc].dll  - Undefined Reference
    QFont::setPixelSize(int)                  - Undefined Reference
    _ZN5QFont12setPixelSizeEi@QtGui{00040703}[2001b2dd].dll  - Undefined Reference
    QFont::setPointSizeF(float)               - Undefined Reference
    _ZN5QFont13setPointSizeFEf@QtGui{00040703}[2001b2dd].dll  - Undefined Reference
    QFont::setCapitalization(QFont::Capitalization)  - Undefined Reference
    _ZN5QFont17setCapitalizationENS_14CapitalizationE@QtGui{00040703}[2001b2dd].dll  - Undefined Reference
    QFont::setStyle(QFont::Style)             - Undefined Reference
    _ZN5QFont8setStyleENS_5StyleE@QtGui{00040703}[2001b2dd].dll  - Undefined Reference
    QFont::setFamily(const QString&)          - Undefined Reference
    _ZN5QFont9setFamilyERK7QString@QtGui{00040703}[2001b2dd].dll  - Undefined Reference
    QFont::setWeight(int)                     - Undefined Reference
    _ZN5QFont9setWeightEi@QtGui{00040703}[2001b2dd].dll  - Undefined Reference
    QFont::QFont(const QFont&)                - Undefined Reference
    _ZN5QFontC1ERKS_@QtGui{00040703}[2001b2dd].dll  - Undefined Reference
    QFont::QFont()                            - Undefined Reference
    _ZN5QFontC1Ev@QtGui{00040703}[2001b2dd].dll  - Undefined Reference
    QFont::~QFont()                           - Undefined Reference
    _ZN5QFontD1Ev@QtGui{00040703}[2001b2dd].dll  - Undefined Reference
    QFont::operator =(const QFont&)           - Undefined Reference
    _ZN5QFontaSERKS_@QtGui{00040703}[2001b2dd].dll  - Undefined Reference
    QTime::start()                            - Undefined Reference
    _ZN5QTime5startEv@QtCore{00040703}[2001b2dc].dll  - Undefined Reference
    QTime::restart()                          - Undefined Reference
    _ZN5QTime7restartEv@QtCore{00040703}[2001b2dc].dll  - Undefined Reference
    QBrush::setColor(const QColor&)           - Undefined Reference
    _ZN6QBrush8setColorERK6QColor@QtGui{00040703}[2001b2dd].dll  - Undefined Reference
    QBrush::setMatrix(const QMatrix&)         - Undefined Reference
    _ZN6QBrush9setMatrixERK7QMatrix@QtGui{00040703}[2001b2dd].dll  - Undefined Reference
    QBrush::QBrush(Qt::BrushStyle)            - Undefined Reference
    _ZN6QBrushC1EN2Qt10BrushStyleE@QtGui{00040703}[2001b2dd].dll  - Undefined Reference
    QBrush::QBrush(Qt::GlobalColor, Qt::BrushStyle)  - Undefined Reference
    _ZN6QBrushC1EN2Qt11GlobalColorENS0_10BrushStyleE@QtGui{00040703}[2001b2dd].dll  - Undefined Reference
    QBrush::QBrush(const QColor&, Qt::BrushStyle)  - Undefined Reference
    _ZN6QBrushC1ERK6QColorN2Qt10BrushStyleE@QtGui{00040703}[2001b2dd].dll  - Undefined Reference
    QBrush::QBrush(const QGradient&)          - Undefined Reference
    _ZN6QBrushC1ERK9QGradient@QtGui{00040703}[2001b2dd].dll  - Undefined Reference
    QBrush::QBrush(const QBrush&)             - Undefined Reference
    _ZN6QBrushC1ERKS_@QtGui{00040703}[2001b2dd].dll  - Undefined Reference
    QBrush::QBrush()                          - Undefined Reference
    _ZN6QBrushC1Ev@QtGui{00040703}[2001b2dd].dll  - Undefined Reference
    QBrush::~QBrush()                         - Undefined Reference
    _ZN6QBrushD1Ev@QtGui{00040703}[2001b2dd].dll  - Undefined Reference
    QBrush::operator =(const QBrush&)         - Undefined Reference
    _ZN6QBrushaSERKS_@QtGui{00040703}[2001b2dd].dll  - Undefined Reference
    QColor::invalidate()                      - Undefined Reference
    _ZN6QColor10invalidateEv@QtGui{00040703}[2001b2dd].dll  - Undefined Reference
    QColor::setNamedColor(const QString&)     - Undefined Reference
    _ZN6QColor13setNamedColorERK7QString@QtGui{00040703}[2001b2dd].dll  - Undefined Reference
    QColor::setRgb(int, int, int, int)        - Undefined Reference
    _ZN6QColor6setRgbEiiii@QtGui{00040703}[2001b2dd].dll  - Undefined Reference
    QColor::setRgb(unsigned)                  - Undefined Reference
    _ZN6QColor6setRgbEj@QtGui{00040703}[2001b2dd].dll  - Undefined Reference
    QColor::fromRgba(unsigned)                - Undefined Reference
    _ZN6QColor8fromRgbaEj@QtGui{00040703}[2001b2dd].dll  - Undefined Reference
    QColor::setAlphaF(float)                  - Undefined Reference
    _ZN6QColor9setAlphaFEf@QtGui{00040703}[2001b2dd].dll  - Undefined Reference
    QColor::QColor(Qt::GlobalColor)           - Undefined Reference
    _ZN6QColorC1EN2Qt11GlobalColorE@QtGui{00040703}[2001b2dd].dll  - Undefined Reference
    QColor::operator =(const QColor&)         - Undefined Reference
    _ZN6QColoraSERKS_@QtGui{00040703}[2001b2dd].dll  - Undefined Reference
    QImage::fromData(const unsigned char*, int, const char*)  - Undefined Reference
    _ZN6QImage8fromDataEPKhiPKc@QtGui{00040703}[2001b2dd].dll  - Undefined Reference
    QImage::QImage(const QString&, const char*)  - Undefined Reference
    _ZN6QImageC1ERK7QStringPKc@QtGui{00040703}[2001b2dd].dll  - Undefined Reference
    QImage::QImage(const QImage&)             - Undefined Reference
    _ZN6QImageC1ERKS_@QtGui{00040703}[2001b2dd].dll  - Undefined Reference
    QImage::QImage(int, int, QImage::Format)  - Undefined Reference
    _ZN6QImageC1EiiNS_6FormatE@QtGui{00040703}[2001b2dd].dll  - Undefined Reference
    QImage::QImage()                          - Undefined Reference
    _ZN6QImageC1Ev@QtGui{00040703}[2001b2dd].dll  - Undefined Reference
    QImage::~QImage()                         - Undefined Reference
    _ZN6QImageD1Ev@QtGui{00040703}[2001b2dd].dll  - Undefined Reference
    QImage::operator =(const QImage&)         - Undefined Reference
    _ZN6QImageaSERKS_@QtGui{00040703}[2001b2dd].dll  - Undefined Reference
    QTimer::stop()                            - Undefined Reference
    _ZN6QTimer4stopEv@QtCore{00040703}[2001b2dc].dll  - Undefined Reference
    QTimer::start(int)                        - Undefined Reference
    _ZN6QTimer5startEi@QtCore{00040703}[2001b2dc].dll  - Undefined Reference
    QTimer::QTimer(QObject*)                  - Undefined Reference
    _ZN6QTimerC1EP7QObject@QtCore{00040703}[2001b2dc].dll  - Undefined Reference
    QBuffer::open(QFlags<QIODevice::OpenModeFlag>)  - Undefined Reference
    _ZN7QBuffer4openE6QFlagsIN9QIODevice12OpenModeFlagEE@QtCore{00040703}[2001b2dc].dll  - Undefined Reference
    QBuffer::close()                          - Undefined Reference
    _ZN7QBuffer5closeEv@QtCore{00040703}[2001b2dc].dll  - Undefined Reference
    QBuffer::QBuffer(QByteArray*, QObject*)   - Undefined Reference
    _ZN7QBufferC1EP10QByteArrayP7QObject@QtCore{00040703}[2001b2dc].dll  - Undefined Reference
    QBuffer::~QBuffer()                       - Undefined Reference
    _ZN7QBufferD1Ev@QtCore{00040703}[2001b2dc].dll  - Undefined Reference
    QLocale::QLocale()                        - Undefined Reference
    _ZN7QLocaleC1Ev@QtCore{00040703}[2001b2dc].dll  - Undefined Reference
    QMatrix::scale(float, float)              - Undefined Reference
    _ZN7QMatrix5scaleEff@QtGui{00040703}[2001b2dd].dll  - Undefined Reference
    QMatrix::shear(float, float)              - Undefined Reference
    _ZN7QMatrix5shearEff@QtGui{00040703}[2001b2dd].dll  - Undefined Reference
    QMatrix::rotate(float)                    - Undefined Reference
    _ZN7QMatrix6rotateEf@QtGui{00040703}[2001b2dd].dll  - Undefined Reference
    QMatrix::translate(float, float)          - Undefined Reference
    _ZN7QMatrix9translateEff@QtGui{00040703}[2001b2dd].dll  - Undefined Reference
    QMatrix::QMatrix(const QMatrix&)          - Undefined Reference
    _ZN7QMatrixC1ERKS_@QtGui{00040703}[2001b2dd].dll  - Undefined Reference
    QMatrix::QMatrix(float, float, float, float, float, float)  - Undefined Reference
    _ZN7QMatrixC1Effffff@QtGui{00040703}[2001b2dd].dll  - Undefined Reference
    QMatrix::QMatrix()                        - Undefined Reference
    _ZN7QMatrixC1Ev@QtGui{00040703}[2001b2dd].dll  - Undefined Reference
    QMatrix::operator =(const QMatrix&)       - Undefined Reference
    _ZN7QMatrixaSERKS_@QtGui{00040703}[2001b2dd].dll  - Undefined Reference
    QObject::childEvent(QChildEvent*)         - Undefined Reference
    _ZN7QObject10childEventEP11QChildEvent@QtCore{00040703}[2001b2dc].dll  - Undefined Reference
    QObject::timerEvent(QTimerEvent*)         - Undefined Reference
    _ZN7QObject10timerEventEP11QTimerEvent@QtCore{00040703}[2001b2dc].dll  - Undefined Reference
    QObject::customEvent(QEvent*)             - Undefined Reference
    _ZN7QObject11customEventEP6QEvent@QtCore{00040703}[2001b2dc].dll  - Undefined Reference
    QObject::eventFilter(QObject*, QEvent*)   - Undefined Reference
    _ZN7QObject11eventFilterEPS_P6QEvent@QtCore{00040703}[2001b2dc].dll  - Undefined Reference
    QObject::qt_metacall(QMetaObject::Call, int, void**)  - Undefined Reference
    _ZN7QObject11qt_metacallEN11QMetaObject4CallEiPPv@QtCore{00040703}[2001b2dc].dll  - Undefined Reference
    QObject::qt_metacast(const char*)         - Undefined Reference
    _ZN7QObject11qt_metacastEPKc@QtCore{00040703}[2001b2dc].dll  - Undefined Reference
    QObject::connectNotify(const char*)       - Undefined Reference
    _ZN7QObject13connectNotifyEPKc@QtCore{00040703}[2001b2dc].dll  - Undefined Reference
    QObject::disconnectNotify(const char*)    - Undefined Reference
    _ZN7QObject16disconnectNotifyEPKc@QtCore{00040703}[2001b2dc].dll  - Undefined Reference
    QObject::staticMetaObject                 - Undefined Reference
    _ZN7QObject16staticMetaObjectE@QtCore{00040703}[2001b2dc].dll  - Undefined Reference
    QObject::event(QEvent*)                   - Undefined Reference
    _ZN7QObject5eventEP6QEvent@QtCore{00040703}[2001b2dc].dll  - Undefined Reference
    QObject::connect(const QObject*, const char*, const QObject*, const char*, Qt::ConnectionType)  - Undefined Reference
    _ZN7QObject7connectEPKS_PKcS1_S3_N2Qt14ConnectionTypeE@QtCore{00040703}[2001b2dc].dll  - Undefined Reference
    QObject::QObject(QObjectPrivate&, QObject*)  - Undefined Reference
    _ZN7QObjectC1ER14QObjectPrivatePS_@QtCore{00040703}[2001b2dc].dll  - Undefined Reference
    QObject::~QObject()                       - Undefined Reference
    _ZN7QObjectD1Ev@QtCore{00040703}[2001b2dc].dll  - Undefined Reference
    QRegExp::setMinimal(bool)                 - Undefined Reference
    _ZN7QRegExp10setMinimalEb@QtCore{00040703}[2001b2dc].dll  - Undefined Reference
    QRegExp::cap(int)                         - Undefined Reference
    _ZN7QRegExp3capEi@QtCore{00040703}[2001b2dc].dll  - Undefined Reference
    QRegExp::QRegExp(const QString&, Qt::CaseSensitivity, QRegExp::PatternSyntax)  - Undefined Reference
    _ZN7QRegExpC1ERK7QStringN2Qt15CaseSensitivityENS_13PatternSyntaxE@QtCore{00040703}[2001b2dc].dll  - Undefined Reference
    QRegExp::~QRegExp()                       - Undefined Reference
    _ZN7QRegExpD1Ev@QtCore{00040703}[2001b2dc].dll  - Undefined Reference
    QRegion::QRegion()                        - Undefined Reference
    _ZN7QRegionC1Ev@QtGui{00040703}[2001b2dd].dll  - Undefined Reference
    QRegion::~QRegion()                       - Undefined Reference
    _ZN7QRegionD1Ev@QtGui{00040703}[2001b2dd].dll  - Undefined Reference
    QString::fromLatin1(const char*, int)     - Undefined Reference
    _ZN7QString10fromLatin1EPKci@QtCore{00040703}[2001b2dc].dll  - Undefined Reference
    QString::fromRawData(const QChar*, int)   - Undefined Reference
    _ZN7QString11fromRawDataEPK5QChari@QtCore{00040703}[2001b2dc].dll  - Undefined Reference
    QString::shared_null                      - Undefined Reference
    _ZN7QString11shared_nullE@QtCore{00040703}[2001b2dc].dll  - Undefined Reference
    QString::fromLatin1_helper(const char*, int)  - Undefined Reference
    _ZN7QString17fromLatin1_helperEPKci@QtCore{00040703}[2001b2dc].dll  - Undefined Reference
    QString::chop(int)                        - Undefined Reference
    _ZN7QString4chopEi@QtCore{00040703}[2001b2dc].dll  - Undefined Reference
    QString::free(QString::Data*)             - Undefined Reference
    _ZN7QString4freeEPNS_4DataE@QtCore{00040703}[2001b2dc].dll  - Undefined Reference
    QString::grow(int)                        - Undefined Reference
    _ZN7QString4growEi@QtCore{00040703}[2001b2dc].dll  - Undefined Reference
    QString::append(QChar)                    - Undefined Reference
    _ZN7QString6appendE5QChar@QtCore{00040703}[2001b2dc].dll  - Undefined Reference
    QString::append(const QString&)           - Undefined Reference
    _ZN7QString6appendERKS_@QtCore{00040703}[2001b2dc].dll  - Undefined Reference
    QString::insert(int, const QLatin1String&)  - Undefined Reference
    _ZN7QString6insertEiRK13QLatin1String@QtCore{00040703}[2001b2dc].dll  - Undefined Reference
    QString::number(double, char, int)        - Undefined Reference
    _ZN7QString6numberEdci@QtCore{00040703}[2001b2dc].dll  - Undefined Reference
    QString::number(int, int)                 - Undefined Reference
    _ZN7QString6numberEii@QtCore{00040703}[2001b2dc].dll  - Undefined Reference
    QString::remove(int, int)                 - Undefined Reference
    _ZN7QString6removeEii@QtCore{00040703}[2001b2dc].dll  - Undefined Reference
    QString::realloc(int)                     - Undefined Reference
    _ZN7QString7reallocEi@QtCore{00040703}[2001b2dc].dll  - Undefined Reference
    QString::replace(QChar, QChar, Qt::CaseSensitivity)  - Undefined Reference
    _ZN7QString7replaceE5QCharS0_N2Qt15CaseSensitivityE@QtCore{00040703}[2001b2dc].dll  - Undefined Reference
    QString::fromUtf8(const char*, int)       - Undefined Reference
    _ZN7QString8fromUtf8EPKci@QtCore{00040703}[2001b2dc].dll  - Undefined Reference
    QString::fromAscii(const char*, int)      - Undefined Reference
    _ZN7QString9fromAsciiEPKci@QtCore{00040703}[2001b2dc].dll  - Undefined Reference
    QString::operator =(const QString&)       - Undefined Reference
    _ZN7QStringaSERKS_@QtCore{00040703}[2001b2dc].dll  - Undefined Reference
    QWidget::closeEvent(QCloseEvent*)         - Undefined Reference
    _ZN7QWidget10closeEventEP11QCloseEvent@QtGui{00040703}[2001b2dd].dll  - Undefined Reference
    QWidget::enterEvent(QEvent*)              - Undefined Reference
    _ZN7QWidget10enterEventEP6QEvent@QtGui{00040703}[2001b2dd].dll  - Undefined Reference
    QWidget::fontChange(const QFont&)         - Undefined Reference
    _ZN7QWidget10fontChangeERK5QFont@QtGui{00040703}[2001b2dd].dll  - Undefined Reference
    QWidget::leaveEvent(QEvent*)              - Undefined Reference
    _ZN7QWidget10leaveEventEP6QEvent@QtGui{00040703}[2001b2dd].dll  - Undefined Reference
    QWidget::setVisible(bool)                 - Undefined Reference
    _ZN7QWidget10setVisibleEb@QtGui{00040703}[2001b2dd].dll  - Undefined Reference
    QWidget::wheelEvent(QWheelEvent*)         - Undefined Reference
    _ZN7QWidget10wheelEventEP11QWheelEvent@QtGui{00040703}[2001b2dd].dll  - Undefined Reference
    QWidget::actionEvent(QActionEvent*)       - Undefined Reference
    _ZN7QWidget11actionEventEP12QActionEvent@QtGui{00040703}[2001b2dd].dll  - Undefined Reference
    QWidget::changeEvent(QEvent*)             - Undefined Reference
    _ZN7QWidget11changeEventEP6QEvent@QtGui{00040703}[2001b2dd].dll  - Undefined Reference
    QWidget::qt_metacall(QMetaObject::Call, int, void**)  - Undefined Reference
    _ZN7QWidget11qt_metacallEN11QMetaObject4CallEiPPv@QtGui{00040703}[2001b2dd].dll  - Undefined Reference
    QWidget::qt_metacast(const char*)         - Undefined Reference
    _ZN7QWidget11qt_metacastEPKc@QtGui{00040703}[2001b2dd].dll  - Undefined Reference
    QWidget::resizeEvent(QResizeEvent*)       - Undefined Reference
    _ZN7QWidget11resizeEventEP12QResizeEvent@QtGui{00040703}[2001b2dd].dll  - Undefined Reference
    QWidget::styleChange(QStyle&)             - Undefined Reference
    _ZN7QWidget11styleChangeER6QStyle@QtGui{00040703}[2001b2dd].dll  - Undefined Reference
    QWidget::tabletEvent(QTabletEvent*)       - Undefined Reference
    _ZN7QWidget11tabletEventEP12QTabletEvent@QtGui{00040703}[2001b2dd].dll  - Undefined Reference
    QWidget::focusInEvent(QFocusEvent*)       - Undefined Reference
    _ZN7QWidget12focusInEventEP11QFocusEvent@QtGui{00040703}[2001b2dd].dll  - Undefined Reference
    QWidget::dragMoveEvent(QDragMoveEvent*)   - Undefined Reference
    _ZN7QWidget13dragMoveEventEP14QDragMoveEvent@QtGui{00040703}[2001b2dd].dll  - Undefined Reference
    QWidget::enabledChange(bool)              - Undefined Reference
    _ZN7QWidget13enabledChangeEb@QtGui{00040703}[2001b2dd].dll  - Undefined Reference
    QWidget::focusOutEvent(QFocusEvent*)      - Undefined Reference
    _ZN7QWidget13focusOutEventEP11QFocusEvent@QtGui{00040703}[2001b2dd].dll  - Undefined Reference
    QWidget::keyPressEvent(QKeyEvent*)        - Undefined Reference
    _ZN7QWidget13keyPressEventEP9QKeyEvent@QtGui{00040703}[2001b2dd].dll  - Undefined Reference
    QWidget::paletteChange(const QPalette&)   - Undefined Reference
    _ZN7QWidget13paletteChangeERK8QPalette@QtGui{00040703}[2001b2dd].dll  - Undefined Reference
    QWidget::dragEnterEvent(QDragEnterEvent*)  - Undefined Reference
    _ZN7QWidget14dragEnterEventEP15QDragEnterEvent@QtGui{00040703}[2001b2dd].dll  - Undefined Reference
    QWidget::dragLeaveEvent(QDragLeaveEvent*)  - Undefined Reference
    _ZN7QWidget14dragLeaveEventEP15QDragLeaveEvent@QtGui{00040703}[2001b2dd].dll  - Undefined Reference
    QWidget::languageChange()                 - Undefined Reference
    _ZN7QWidget14languageChangeEv@QtGui{00040703}[2001b2dd].dll  - Undefined Reference
    QWidget::mouseMoveEvent(QMouseEvent*)     - Undefined Reference
    _ZN7QWidget14mouseMoveEventEP11QMouseEvent@QtGui{00040703}[2001b2dd].dll  - Undefined Reference
    QWidget::keyReleaseEvent(QKeyEvent*)      - Undefined Reference
    _ZN7QWidget15keyReleaseEventEP9QKeyEvent@QtGui{00040703}[2001b2dd].dll  - Undefined Reference
    QWidget::mousePressEvent(QMouseEvent*)    - Undefined Reference
    _ZN7QWidget15mousePressEventEP11QMouseEvent@QtGui{00040703}[2001b2dd].dll  - Undefined Reference
    QWidget::contextMenuEvent(QContextMenuEvent*)  - Undefined Reference
    _ZN7QWidget16contextMenuEventEP17QContextMenuEvent@QtGui{00040703}[2001b2dd].dll  - Undefined Reference
    QWidget::inputMethodEvent(QInputMethodEvent*)  - Undefined Reference
    _ZN7QWidget16inputMethodEventEP17QInputMethodEvent@QtGui{00040703}[2001b2dd].dll  - Undefined Reference
    QWidget::staticMetaObject                 - Undefined Reference
    _ZN7QWidget16staticMetaObjectE@QtGui{00040703}[2001b2dd].dll  - Undefined Reference
    QWidget::mouseReleaseEvent(QMouseEvent*)  - Undefined Reference
    _ZN7QWidget17mouseReleaseEventEP11QMouseEvent@QtGui{00040703}[2001b2dd].dll  - Undefined Reference
    QWidget::focusNextPrevChild(bool)         - Undefined Reference
    _ZN7QWidget18focusNextPrevChildEb@QtGui{00040703}[2001b2dd].dll  - Undefined Reference
    QWidget::mouseDoubleClickEvent(QMouseEvent*)  - Undefined Reference
    _ZN7QWidget21mouseDoubleClickEventEP11QMouseEvent@QtGui{00040703}[2001b2dd].dll  - Undefined Reference
    QWidget::windowActivationChange(bool)     - Undefined Reference
    _ZN7QWidget22windowActivationChangeEb@QtGui{00040703}[2001b2dd].dll  - Undefined Reference
    QWidget::event(QEvent*)                   - Undefined Reference
    _ZN7QWidget5eventEP6QEvent@QtGui{00040703}[2001b2dd].dll  - Undefined Reference
    QWidget::dropEvent(QDropEvent*)           - Undefined Reference
    _ZN7QWidget9dropEventEP10QDropEvent@QtGui{00040703}[2001b2dd].dll  - Undefined Reference
    QWidget::hideEvent(QHideEvent*)           - Undefined Reference
    _ZN7QWidget9hideEventEP10QHideEvent@QtGui{00040703}[2001b2dd].dll  - Undefined Reference
    QWidget::moveEvent(QMoveEvent*)           - Undefined Reference
    _ZN7QWidget9moveEventEP10QMoveEvent@QtGui{00040703}[2001b2dd].dll  - Undefined Reference
    QWidget::showEvent(QShowEvent*)           - Undefined Reference
    _ZN7QWidget9showEventEP10QShowEvent@QtGui{00040703}[2001b2dd].dll  - Undefined Reference
    QWidget::QWidget(QWidgetPrivate&, QWidget*, QFlags<Qt::WindowType>)  - Undefined Reference
    _ZN7QWidgetC1ER14QWidgetPrivatePS_6QFlagsIN2Qt10WindowTypeEE@QtGui{00040703}[2001b2dd].dll  - Undefined Reference
    QWidget::~QWidget()                       - Undefined Reference
    _ZN7QWidgetD1Ev@QtGui{00040703}[2001b2dd].dll  - Undefined Reference
    QMapData::shared_null                     - Undefined Reference
    _ZN8QMapData11shared_nullE@QtCore{00040703}[2001b2dc].dll  - Undefined Reference
    QMapData::continueFreeData(int)           - Undefined Reference
    _ZN8QMapData16continueFreeDataEi@QtCore{00040703}[2001b2dc].dll  - Undefined Reference
    QPainter::setOpacity(float)               - Undefined Reference
    _ZN8QPainter10setOpacityEf@QtGui{00040703}[2001b2dd].dll  - Undefined Reference
    QPainter::drawEllipse(const QRectF&)      - Undefined Reference
    _ZN8QPainter11drawEllipseERK6QRectF@QtGui{00040703}[2001b2dd].dll  - Undefined Reference
    QPainter::drawPolygon(const QPointF*, int, Qt::FillRule)  - Undefined Reference
    _ZN8QPainter11drawPolygonEPK7QPointFiN2Qt8FillRuleE@QtGui{00040703}[2001b2dd].dll  - Undefined Reference
    QPainter::drawPolyline(const QPointF*, int)  - Undefined Reference
    _ZN8QPainter12drawPolylineEPK7QPointFi@QtGui{00040703}[2001b2dd].dll  - Undefined Reference
    QPainter::setRenderHint(QPainter::RenderHint, bool)  - Undefined Reference
    _ZN8QPainter13setRenderHintENS_10RenderHintEb@QtGui{00040703}[2001b2dd].dll  - Undefined Reference
    QPainter::drawRoundedRect(const QRectF&, float, float, Qt::SizeMode)  - Undefined Reference
    _ZN8QPainter15drawRoundedRectERK6QRectFffN2Qt8SizeModeE@QtGui{00040703}[2001b2dd].dll  - Undefined Reference
    QPainter::setWorldTransform(const QTransform&, bool)  - Undefined Reference
    _ZN8QPainter17setWorldTransformERK10QTransformb@QtGui{00040703}[2001b2dd].dll  - Undefined Reference
    QPainter::setCompositionMode(QPainter::CompositionMode)  - Undefined Reference
    _ZN8QPainter18setCompositionModeENS_15CompositionModeE@QtGui{00040703}[2001b2dd].dll  - Undefined Reference
    QPainter::save()                          - Undefined Reference
    _ZN8QPainter4saveEv@QtGui{00040703}[2001b2dd].dll  - Undefined Reference
    QPainter::scale(float, float)             - Undefined Reference
    _ZN8QPainter5scaleEff@QtGui{00040703}[2001b2dd].dll  - Undefined Reference
    QPainter::setPen(Qt::PenStyle)            - Undefined Reference
    _ZN8QPainter6setPenEN2Qt8PenStyleE@QtGui{00040703}[2001b2dd].dll  - Undefined Reference
    QPainter::setPen(const QPen&)             - Undefined Reference
    _ZN8QPainter6setPenERK4QPen@QtGui{00040703}[2001b2dd].dll  - Undefined Reference
    QPainter::restore()                       - Undefined Reference
    _ZN8QPainter7restoreEv@QtGui{00040703}[2001b2dd].dll  - Undefined Reference
    QPainter::setFont(const QFont&)           - Undefined Reference
    _ZN8QPainter7setFontERK5QFont@QtGui{00040703}[2001b2dd].dll  - Undefined Reference
    QPainter::drawPath(const QPainterPath&)   - Undefined Reference
    _ZN8QPainter8drawPathERK12QPainterPath@QtGui{00040703}[2001b2dd].dll  - Undefined Reference
    QPainter::setBrush(Qt::BrushStyle)        - Undefined Reference
    _ZN8QPainter8setBrushEN2Qt10BrushStyleE@QtGui{00040703}[2001b2dd].dll  - Undefined Reference
    QPainter::setBrush(const QBrush&)         - Undefined Reference
    _ZN8QPainter8setBrushERK6QBrush@QtGui{00040703}[2001b2dd].dll  - Undefined Reference
    QPainter::drawImage(const QRectF&, const QImage&, const QRectF&, QFlags<Qt::ImageConversionFlag>)  - Undefined Reference
    _ZN8QPainter9drawImageERK6QRectFRK6QImageS2_6QFlagsIN2Qt19ImageConversionFlagEE@QtGui{00040703}[2001b2dd].dll  - Undefined Reference
    QPainter::drawLines(const QLineF*, int)   - Undefined Reference
    _ZN8QPainter9drawLinesEPK6QLineFi@QtGui{00040703}[2001b2dd].dll  - Undefined Reference
    QPainter::drawRects(const QRectF*, int)   - Undefined Reference
    _ZN8QPainter9drawRectsEPK6QRectFi@QtGui{00040703}[2001b2dd].dll  - Undefined Reference
    QPainter::translate(const QPointF&)       - Undefined Reference
    _ZN8QPainter9translateERK7QPointF@QtGui{00040703}[2001b2dd].dll  - Undefined Reference
    QPainter::QPainter(QPaintDevice*)         - Undefined Reference
    _ZN8QPainterC1EP12QPaintDevice@QtGui{00040703}[2001b2dd].dll  - Undefined Reference
    QPainter::~QPainter()                     - Undefined Reference
    _ZN8QPainterD1Ev@QtGui{00040703}[2001b2dd].dll  - Undefined Reference
    QVariant::QVariant(const QSize&)          - Undefined Reference
    _ZN8QVariantC1ERK5QSize@QtCore{00040703}[2001b2dc].dll  - Undefined Reference
    QVariant::QVariant(const QVariant&)       - Undefined Reference
    _ZN8QVariantC1ERKS_@QtCore{00040703}[2001b2dc].dll  - Undefined Reference
    QVariant::~QVariant()                     - Undefined Reference
    _ZN8QVariantD1Ev@QtCore{00040703}[2001b2dc].dll  - Undefined Reference
    QVariant::operator =(const QVariant&)     - Undefined Reference
    _ZN8QVariantaSERKS_@QtCore{00040703}[2001b2dc].dll  - Undefined Reference
    QFileInfo::QFileInfo(const QString&)      - Undefined Reference
    _ZN9QFileInfoC1ERK7QString@QtCore{00040703}[2001b2dc].dll  - Undefined Reference
    QFileInfo::~QFileInfo()                   - Undefined Reference
    _ZN9QFileInfoD1Ev@QtCore{00040703}[2001b2dc].dll  - Undefined Reference
    QGradient::setColorAt(float, const QColor&)  - Undefined Reference
    _ZN9QGradient10setColorAtEfRK6QColor@QtGui{00040703}[2001b2dd].dll  - Undefined Reference
    QGradient::setCoordinateMode(QGradient::CoordinateMode)  - Undefined Reference
    _ZN9QGradient17setCoordinateModeENS_14CoordinateModeE@QtGui{00040703}[2001b2dd].dll  - Undefined Reference
    QGradient::setInterpolationMode(QGradient::InterpolationMode)  - Undefined Reference
    _ZN9QGradient20setInterpolationModeENS_17InterpolationModeE@QtGui{00040703}[2001b2dd].dll  - Undefined Reference
    QGradient::setStops(const QVector<QPair<float, QColor>>&)  - Undefined Reference
    _ZN9QGradient8setStopsERK7QVectorI5QPairIf6QColorEE@QtGui{00040703}[2001b2dd].dll  - Undefined Reference
    QHashData::free_helper(void(*)(QHashData::Node*))  - Undefined Reference
    _ZN9QHashData11free_helperEPFvPNS_4NodeEE@QtCore{00040703}[2001b2dc].dll  - Undefined Reference
    QHashData::shared_null                    - Undefined Reference
    _ZN9QHashData11shared_nullE@QtCore{00040703}[2001b2dc].dll  - Undefined Reference
    QHashData::allocateNode(int)              - Undefined Reference
    _ZN9QHashData12allocateNodeEi@QtCore{00040703}[2001b2dc].dll  - Undefined Reference
    QHashData::detach_helper2(void(*)(QHashData::Node*, void*), void(*)(QHashData::Node*), int, int)  - Undefined Reference
    _ZN9QHashData14detach_helper2EPFvPNS_4NodeEPvEPFvS1_Eii@QtCore{00040703}[2001b2dc].dll  - Undefined Reference
    QHashData::rehash(int)                    - Undefined Reference
    _ZN9QHashData6rehashEi@QtCore{00040703}[2001b2dc].dll  - Undefined Reference
    QIODevice::read(long long)                - Undefined Reference
    _ZN9QIODevice4readEx@QtCore{00040703}[2001b2dc].dll  - Undefined Reference
    QIODevice::readAll()                      - Undefined Reference
    _ZN9QIODevice7readAllEv@QtCore{00040703}[2001b2dc].dll  - Undefined Reference
    QListData::detach_grow(int*, int)         - Undefined Reference
    _ZN9QListData11detach_growEPii@QtCore{00040703}[2001b2dc].dll  - Undefined Reference
    QListData::shared_null                    - Undefined Reference
    _ZN9QListData11shared_nullE@QtCore{00040703}[2001b2dc].dll  - Undefined Reference
    QListData::append()                       - Undefined Reference
    _ZN9QListData6appendEv@QtCore{00040703}[2001b2dc].dll  - Undefined Reference
    QListData::detach(int)                    - Undefined Reference
    _ZN9QListData6detachEi@QtCore{00040703}[2001b2dc].dll  - Undefined Reference
    QTextLine::setPosition(const QPointF&)    - Undefined Reference
    _ZN9QTextLine11setPositionERK7QPointF@QtGui{00040703}[2001b2dd].dll  - Undefined Reference
    QTextLine::setLineWidth(float)            - Undefined Reference
    _ZN9QTextLine12setLineWidthEf@QtGui{00040703}[2001b2dd].dll  - Undefined Reference
    QByteArray::startsWith(const char*) const  - Undefined Reference
    _ZNK10QByteArray10startsWithEPKc@QtCore{00040703}[2001b2dc].dll  - Undefined Reference
    QByteArray::toBase64() const              - Undefined Reference
    _ZNK10QByteArray8toBase64Ev@QtCore{00040703}[2001b2dc].dll  - Undefined Reference
    QStringRef::toString() const              - Undefined Reference
    _ZNK10QStringRef8toStringEv@QtCore{00040703}[2001b2dc].dll  - Undefined Reference
    QTransform::map(const QPainterPath&) const  - Undefined Reference
    _ZNK10QTransform3mapERK12QPainterPath@QtGui{00040703}[2001b2dd].dll  - Undefined Reference
    QTransform::map(const QPointF&) const     - Undefined Reference
    _ZNK10QTransform3mapERK7QPointF@QtGui{00040703}[2001b2dd].dll  - Undefined Reference
    QTransform::map(const QPolygonF&) const   - Undefined Reference
    _ZNK10QTransform3mapERK9QPolygonF@QtGui{00040703}[2001b2dd].dll  - Undefined Reference
    QTransform::mapRect(const QRect&) const   - Undefined Reference
    _ZNK10QTransform7mapRectERK5QRect@QtGui{00040703}[2001b2dd].dll  - Undefined Reference
    QTransform::mapRect(const QRectF&) const  - Undefined Reference
    _ZNK10QTransform7mapRectERK6QRectF@QtGui{00040703}[2001b2dd].dll  - Undefined Reference
    QTransform::toAffine() const              - Undefined Reference
    _ZNK10QTransform8toAffineEv@QtGui{00040703}[2001b2dd].dll  - Undefined Reference
    QTextLayout::textOption() const           - Undefined Reference
    _ZNK11QTextLayout10textOptionEv@QtGui{00040703}[2001b2dd].dll  - Undefined Reference
    QTextLayout::draw(QPainter*, const QPointF&, const QVector<QTextLayout::FormatRange>&, const QRectF&) const  - Undefined Reference
    _ZNK11QTextLayout4drawEP8QPainterRK7QPointFRK7QVectorINS_11FormatRangeEERK6QRectF@QtGui{00040703}[2001b2dd].dll  - Undefined Reference
    QTextLayout::lineAt(int) const            - Undefined Reference
    _ZNK11QTextLayout6lineAtEi@QtGui{00040703}[2001b2dd].dll  - Undefined Reference
    QTextLayout::lineCount() const            - Undefined Reference
    _ZNK11QTextLayout9lineCountEv@QtGui{00040703}[2001b2dd].dll  - Undefined Reference
    QPaintEngine::coordinateOffset() const    - Undefined Reference
    _ZNK12QPaintEngine16coordinateOffsetEv@QtGui{00040703}[2001b2dd].dll  - Undefined Reference
    QPainterPath::boundingRect() const        - Undefined Reference
    _ZNK12QPainterPath12boundingRectEv@QtGui{00040703}[2001b2dd].dll  - Undefined Reference
    QPainterPath::fillRule() const            - Undefined Reference
    _ZNK12QPainterPath8fillRuleEv@QtGui{00040703}[2001b2dd].dll  - Undefined Reference
    QGraphicsItem::opaqueArea() const         - Undefined Reference
    _ZNK13QGraphicsItem10opaqueAreaEv@QtGui{00040703}[2001b2dd].dll  - Undefined Reference
    QGraphicsItem::isObscuredBy(const QGraphicsItem*) const  - Undefined Reference
    _ZNK13QGraphicsItem12isObscuredByEPKS_@QtGui{00040703}[2001b2dd].dll  - Undefined Reference
    QGraphicsItem::collidesWithItem(const QGraphicsItem*, Qt::ItemSelectionMode) const  - Undefined Reference
    _ZNK13QGraphicsItem16collidesWithItemEPKS_N2Qt17ItemSelectionModeE@QtGui{00040703}[2001b2dd].dll  - Undefined Reference
    QGraphicsItem::collidesWithPath(const QPainterPath&, Qt::ItemSelectionMode) const  - Undefined Reference
    _ZNK13QGraphicsItem16collidesWithPathERK12QPainterPathN2Qt17ItemSelectionModeE@QtGui{00040703}[2001b2dd].dll  - Undefined Reference
    QGraphicsItem::inputMethodQuery(Qt::InputMethodQuery) const  - Undefined Reference
    _ZNK13QGraphicsItem16inputMethodQueryEN2Qt16InputMethodQueryE@QtGui{00040703}[2001b2dd].dll  - Undefined Reference
    QGraphicsItem::supportsExtension(QGraphicsItem::Extension) const  - Undefined Reference
    _ZNK13QGraphicsItem17supportsExtensionENS_9ExtensionE@QtGui{00040703}[2001b2dd].dll  - Undefined Reference
    QGraphicsItem::shape() const              - Undefined Reference
    _ZNK13QGraphicsItem5shapeEv@QtGui{00040703}[2001b2dd].dll  - Undefined Reference
    QGraphicsItem::contains(const QPointF&) const  - Undefined Reference
    _ZNK13QGraphicsItem8containsERK7QPointF@QtGui{00040703}[2001b2dd].dll  - Undefined Reference
    QGraphicsItem::cacheMode() const          - Undefined Reference
    _ZNK13QGraphicsItem9cacheModeEv@QtGui{00040703}[2001b2dd].dll  - Undefined Reference
    QGraphicsItem::extension(const QVariant&) const  - Undefined Reference
    _ZNK13QGraphicsItem9extensionERK8QVariant@QtGui{00040703}[2001b2dd].dll  - Undefined Reference
    QLinearGradient::start() const            - Undefined Reference
    _ZNK15QLinearGradient5startEv@QtGui{00040703}[2001b2dd].dll  - Undefined Reference
    QLinearGradient::finalStop() const        - Undefined Reference
    _ZNK15QLinearGradient9finalStopEv@QtGui{00040703}[2001b2dd].dll  - Undefined Reference
    QRadialGradient::focalPoint() const       - Undefined Reference
    _ZNK15QRadialGradient10focalPointEv@QtGui{00040703}[2001b2dd].dll  - Undefined Reference
    QRadialGradient::center() const           - Undefined Reference
    _ZNK15QRadialGradient6centerEv@QtGui{00040703}[2001b2dd].dll  - Undefined Reference
    QRadialGradient::radius() const           - Undefined Reference
    _ZNK15QRadialGradient6radiusEv@QtGui{00040703}[2001b2dd].dll  - Undefined Reference
    QXmlStreamReader::attributes() const      - Undefined Reference
    _ZNK16QXmlStreamReader10attributesEv@QtCore{00040703}[2001b2dc].dll  - Undefined Reference
    QXmlStreamReader::lineNumber() const      - Undefined Reference
    _ZNK16QXmlStreamReader10lineNumberEv@QtCore{00040703}[2001b2dc].dll  - Undefined Reference
    QXmlStreamReader::errorString() const     - Undefined Reference
    _ZNK16QXmlStreamReader11errorStringEv@QtCore{00040703}[2001b2dc].dll  - Undefined Reference
    QXmlStreamReader::processingInstructionData() const  - Undefined Reference
    _ZNK16QXmlStreamReader25processingInstructionDataEv@QtCore{00040703}[2001b2dc].dll  - Undefined Reference
    QXmlStreamReader::processingInstructionTarget() const  - Undefined Reference
    _ZNK16QXmlStreamReader27processingInstructionTargetEv@QtCore{00040703}[2001b2dc].dll  - Undefined Reference
    QXmlStreamReader::name() const            - Undefined Reference
    _ZNK16QXmlStreamReader4nameEv@QtCore{00040703}[2001b2dc].dll  - Undefined Reference
    QXmlStreamReader::text() const            - Undefined Reference
    _ZNK16QXmlStreamReader4textEv@QtCore{00040703}[2001b2dc].dll  - Undefined Reference
    QXmlStreamReader::atEnd() const           - Undefined Reference
    _ZNK16QXmlStreamReader5atEndEv@QtCore{00040703}[2001b2dc].dll  - Undefined Reference
    QXmlStreamReader::error() const           - Undefined Reference
    _ZNK16QXmlStreamReader5errorEv@QtCore{00040703}[2001b2dc].dll  - Undefined Reference
    QGraphicsLineItem::pen() const            - Undefined Reference
    _ZNK17QGraphicsLineItem3penEv@QtGui{00040703}[2001b2dd].dll  - Undefined Reference
    QPaintEngineState::pen() const            - Undefined Reference
    _ZNK17QPaintEngineState3penEv@QtGui{00040703}[2001b2dd].dll  - Undefined Reference
    QPaintEngineState::font() const           - Undefined Reference
    _ZNK17QPaintEngineState4fontEv@QtGui{00040703}[2001b2dd].dll  - Undefined Reference
    QPaintEngineState::brush() const          - Undefined Reference
    _ZNK17QPaintEngineState5brushEv@QtGui{00040703}[2001b2dd].dll  - Undefined Reference
    QPaintEngineState::matrix() const         - Undefined Reference
    _ZNK17QPaintEngineState6matrixEv@QtGui{00040703}[2001b2dd].dll  - Undefined Reference
    QPaintEngineState::opacity() const        - Undefined Reference
    _ZNK17QPaintEngineState7opacityEv@QtGui{00040703}[2001b2dd].dll  - Undefined Reference
    QPainterPathStroker::createStroke(const QPainterPath&) const  - Undefined Reference
    _ZNK19QPainterPathStroker12createStrokeERK12QPainterPath@QtGui{00040703}[2001b2dd].dll  - Undefined Reference
    QGraphicsItemPrivate::isProxyWidget() const  - Undefined Reference
    _ZNK20QGraphicsItemPrivate13isProxyWidgetEv@QtGui{00040703}[2001b2dd].dll  - Undefined Reference
    QGraphicsItemPrivate::inputMethodQueryHelper(Qt::InputMethodQuery) const  - Undefined Reference
    _ZNK20QGraphicsItemPrivate22inputMethodQueryHelperEN2Qt16InputMethodQueryE@QtGui{00040703}[2001b2dd].dll  - Undefined Reference
    QGraphicsItemPrivate::width() const       - Undefined Reference
    _ZNK20QGraphicsItemPrivate5widthEv@QtGui{00040703}[2001b2dd].dll  - Undefined Reference
    QGraphicsItemPrivate::height() const      - Undefined Reference
    _ZNK20QGraphicsItemPrivate6heightEv@QtGui{00040703}[2001b2dd].dll  - Undefined Reference
    QXmlStreamAttributes::value(const QLatin1String&) const  - Undefined Reference
    _ZNK20QXmlStreamAttributes5valueERK13QLatin1String@QtCore{00040703}[2001b2dc].dll  - Undefined Reference
    QAbstractGraphicsShapeItem::pen() const   - Undefined Reference
    _ZNK26QAbstractGraphicsShapeItem3penEv@QtGui{00040703}[2001b2dd].dll  - Undefined Reference
    QCss::Value::toString() const             - Undefined Reference
    _ZNK4QCss5Value8toStringEv@QtGui{00040703}[2001b2dd].dll  - Undefined Reference
    QCss::Symbol::lexem() const               - Undefined Reference
    _ZNK4QCss6Symbol5lexemEv@QtGui{00040703}[2001b2dd].dll  - Undefined Reference
    QPen::dashOffset() const                  - Undefined Reference
    _ZNK4QPen10dashOffsetEv@QtGui{00040703}[2001b2dd].dll  - Undefined Reference
    QPen::isCosmetic() const                  - Undefined Reference
    _ZNK4QPen10isCosmeticEv@QtGui{00040703}[2001b2dd].dll  - Undefined Reference
    QPen::miterLimit() const                  - Undefined Reference
    _ZNK4QPen10miterLimitEv@QtGui{00040703}[2001b2dd].dll  - Undefined Reference
    QPen::dashPattern() const                 - Undefined Reference
    _ZNK4QPen11dashPatternEv@QtGui{00040703}[2001b2dd].dll  - Undefined Reference
    QPen::brush() const                       - Undefined Reference
    _ZNK4QPen5brushEv@QtGui{00040703}[2001b2dd].dll  - Undefined Reference
    QPen::color() const                       - Undefined Reference
    _ZNK4QPen5colorEv@QtGui{00040703}[2001b2dd].dll  - Undefined Reference
    QPen::style() const                       - Undefined Reference
    _ZNK4QPen5styleEv@QtGui{00040703}[2001b2dd].dll  - Undefined Reference
    QPen::width() const                       - Undefined Reference
    _ZNK4QPen5widthEv@QtGui{00040703}[2001b2dd].dll  - Undefined Reference
    QPen::widthF() const                      - Undefined Reference
    _ZNK4QPen6widthFEv@QtGui{00040703}[2001b2dd].dll  - Undefined Reference
    QPen::capStyle() const                    - Undefined Reference
    _ZNK4QPen8capStyleEv@QtGui{00040703}[2001b2dd].dll  - Undefined Reference
    QPen::joinStyle() const                   - Undefined Reference
    _ZNK4QPen9joinStyleEv@QtGui{00040703}[2001b2dd].dll  - Undefined Reference
    QPen::operator QVariant() const           - Undefined Reference
    _ZNK4QPencv8QVariantEv@QtGui{00040703}[2001b2dd].dll  - Undefined Reference
    QChar::isSpace() const                    - Undefined Reference
    _ZNK5QChar7isSpaceEv@QtCore{00040703}[2001b2dc].dll  - Undefined Reference
    QFont::pointSizeF() const                 - Undefined Reference
    _ZNK5QFont10pointSizeFEv@QtGui{00040703}[2001b2dd].dll  - Undefined Reference
    QFont::capitalization() const             - Undefined Reference
    _ZNK5QFont14capitalizationEv@QtGui{00040703}[2001b2dd].dll  - Undefined Reference
    QFont::style() const                      - Undefined Reference
    _ZNK5QFont5styleEv@QtGui{00040703}[2001b2dd].dll  - Undefined Reference
    QFont::family() const                     - Undefined Reference
    _ZNK5QFont6familyEv@QtGui{00040703}[2001b2dd].dll  - Undefined Reference
    QFont::weight() const                     - Undefined Reference
    _ZNK5QFont6weightEv@QtGui{00040703}[2001b2dd].dll  - Undefined Reference
    QFont::pixelSize() const                  - Undefined Reference
    _ZNK5QFont9pixelSizeEv@QtGui{00040703}[2001b2dd].dll  - Undefined Reference
    QTime::elapsed() const                    - Undefined Reference
    _ZNK5QTime7elapsedEv@QtCore{00040703}[2001b2dc].dll  - Undefined Reference
    QTime::addMSecs(int) const                - Undefined Reference
    _ZNK5QTime8addMSecsEi@QtCore{00040703}[2001b2dc].dll  - Undefined Reference
    QBrush::gradient() const                  - Undefined Reference
    _ZNK6QBrush8gradientEv@QtGui{00040703}[2001b2dd].dll  - Undefined Reference
    QBrush::operator QVariant() const         - Undefined Reference
    _ZNK6QBrushcv8QVariantEv@QtGui{00040703}[2001b2dd].dll  - Undefined Reference
    QColor::red() const                       - Undefined Reference
    _ZNK6QColor3redEv@QtGui{00040703}[2001b2dd].dll  - Undefined Reference
    QColor::blue() const                      - Undefined Reference
    _ZNK6QColor4blueEv@QtGui{00040703}[2001b2dd].dll  - Undefined Reference
    QColor::rgba() const                      - Undefined Reference
    _ZNK6QColor4rgbaEv@QtGui{00040703}[2001b2dd].dll  - Undefined Reference
    QColor::alpha() const                     - Undefined Reference
    _ZNK6QColor5alphaEv@QtGui{00040703}[2001b2dd].dll  - Undefined Reference
    QColor::green() const                     - Undefined Reference
    _ZNK6QColor5greenEv@QtGui{00040703}[2001b2dd].dll  - Undefined Reference
    QColor::alphaF() const                    - Undefined Reference
    _ZNK6QColor6alphaFEv@QtGui{00040703}[2001b2dd].dll  - Undefined Reference
    QImage::convertToFormat(QImage::Format, QFlags<Qt::ImageConversionFlag>) const  - Undefined Reference
    _ZNK6QImage15convertToFormatENS_6FormatE6QFlagsIN2Qt19ImageConversionFlagEE@QtGui{00040703}[2001b2dd].dll  - Undefined Reference
    QImage::save(QIODevice*, const char*, int) const  - Undefined Reference
    _ZNK6QImage4saveEP9QIODevicePKci@QtGui{00040703}[2001b2dd].dll  - Undefined Reference
    QImage::width() const                     - Undefined Reference
    _ZNK6QImage5widthEv@QtGui{00040703}[2001b2dd].dll  - Undefined Reference
    QImage::format() const                    - Undefined Reference
    _ZNK6QImage6formatEv@QtGui{00040703}[2001b2dd].dll  - Undefined Reference
    QImage::height() const                    - Undefined Reference
    _ZNK6QImage6heightEv@QtGui{00040703}[2001b2dd].dll  - Undefined Reference
    QImage::isNull() const                    - Undefined Reference
    _ZNK6QImage6isNullEv@QtGui{00040703}[2001b2dd].dll  - Undefined Reference
    QRectF::operator |(const QRectF&) const   - Undefined Reference
    _ZNK6QRectForERKS_@QtCore{00040703}[2001b2dc].dll  - Undefined Reference
    QLocale::name() const                     - Undefined Reference
    _ZNK7QLocale4nameEv@QtCore{00040703}[2001b2dc].dll  - Undefined Reference
    QMatrix::operator *(const QMatrix&) const  - Undefined Reference
    _ZNK7QMatrixmlERKS_@QtGui{00040703}[2001b2dd].dll  - Undefined Reference
    QPixmap::toImage() const                  - Undefined Reference
    _ZNK7QPixmap7toImageEv@QtGui{00040703}[2001b2dd].dll  - Undefined Reference
    QRegExp::matchedLength() const            - Undefined Reference
    _ZNK7QRegExp13matchedLengthEv@QtCore{00040703}[2001b2dc].dll  - Undefined Reference
    QRegExp::indexIn(const QString&, int, QRegExp::CaretMode) const  - Undefined Reference
    _ZNK7QRegExp7indexInERK7QStringiNS_9CaretModeE@QtCore{00040703}[2001b2dc].dll  - Undefined Reference
    QString::simplified() const               - Undefined Reference
    _ZNK7QString10simplifiedEv@QtCore{00040703}[2001b2dc].dll  - Undefined Reference
    QString::startsWith(const QLatin1String&, Qt::CaseSensitivity) const  - Undefined Reference
    _ZNK7QString10startsWithERK13QLatin1StringN2Qt15CaseSensitivityE@QtCore{00040703}[2001b2dc].dll  - Undefined Reference
    QString::startsWith(const QChar&, Qt::CaseSensitivity) const  - Undefined Reference
    _ZNK7QString10startsWithERK5QCharN2Qt15CaseSensitivityE@QtCore{00040703}[2001b2dc].dll  - Undefined Reference
    QString::startsWith(const QString&, Qt::CaseSensitivity) const  - Undefined Reference
    _ZNK7QString10startsWithERKS_N2Qt15CaseSensitivityE@QtCore{00040703}[2001b2dc].dll  - Undefined Reference
    QString::lastIndexOf(const QLatin1String&, int, Qt::CaseSensitivity) const  - Undefined Reference
    _ZNK7QString11lastIndexOfERK13QLatin1StringiN2Qt15CaseSensitivityE@QtCore{00040703}[2001b2dc].dll  - Undefined Reference
    QString::toLocal8Bit() const              - Undefined Reference
    _ZNK7QString11toLocal8BitEv@QtCore{00040703}[2001b2dc].dll  - Undefined Reference
    QString::arg(const QString&, int, const QChar&) const  - Undefined Reference
    _ZNK7QString3argERKS_iRK5QChar@QtCore{00040703}[2001b2dc].dll  - Undefined Reference
    QString::arg(double, int, char, int, const QChar&) const  - Undefined Reference
    _ZNK7QString3argEdiciRK5QChar@QtCore{00040703}[2001b2dc].dll  - Undefined Reference
    QString::arg(long long, int, int, const QChar&) const  - Undefined Reference
    _ZNK7QString3argExiiRK5QChar@QtCore{00040703}[2001b2dc].dll  - Undefined Reference
    QString::mid(int, int) const              - Undefined Reference
    _ZNK7QString3midEii@QtCore{00040703}[2001b2dc].dll  - Undefined Reference
    QString::split(const QChar&, QString::SplitBehavior, Qt::CaseSensitivity) const  - Undefined Reference
    _ZNK7QString5splitERK5QCharNS_13SplitBehaviorEN2Qt15CaseSensitivityE@QtCore{00040703}[2001b2dc].dll  - Undefined Reference
    QString::toInt(bool*, int) const          - Undefined Reference
    _ZNK7QString5toIntEPbi@QtCore{00040703}[2001b2dc].dll  - Undefined Reference
    QString::compare(const QString&, Qt::CaseSensitivity) const  - Undefined Reference
    _ZNK7QString7compareERKS_N2Qt15CaseSensitivityE@QtCore{00040703}[2001b2dc].dll  - Undefined Reference
    QString::indexOf(QChar, int, Qt::CaseSensitivity) const  - Undefined Reference
    _ZNK7QString7indexOfE5QChariN2Qt15CaseSensitivityE@QtCore{00040703}[2001b2dc].dll  - Undefined Reference
    QString::toAscii() const                  - Undefined Reference
    _ZNK7QString7toAsciiEv@QtCore{00040703}[2001b2dc].dll  - Undefined Reference
    QString::toLower() const                  - Undefined Reference
    _ZNK7QString7toLowerEv@QtCore{00040703}[2001b2dc].dll  - Undefined Reference
    QString::trimmed() const                  - Undefined Reference
    _ZNK7QString7trimmedEv@QtCore{00040703}[2001b2dc].dll  - Undefined Reference
    QString::endsWith(const QLatin1String&, Qt::CaseSensitivity) const  - Undefined Reference
    _ZNK7QString8endsWithERK13QLatin1StringN2Qt15CaseSensitivityE@QtCore{00040703}[2001b2dc].dll  - Undefined Reference
    QString::endsWith(const QChar&, Qt::CaseSensitivity) const  - Undefined Reference
    _ZNK7QString8endsWithERK5QCharN2Qt15CaseSensitivityE@QtCore{00040703}[2001b2dc].dll  - Undefined Reference
    QString::toDouble(bool*) const            - Undefined Reference
    _ZNK7QString8toDoubleEPb@QtCore{00040703}[2001b2dc].dll  - Undefined Reference
    QString::operator ==(const QLatin1String&) const  - Undefined Reference
    _ZNK7QStringeqERK13QLatin1String@QtCore{00040703}[2001b2dc].dll  - Undefined Reference
    QString::operator ==(const QString&) const  - Undefined Reference
    _ZNK7QStringeqERKS_@QtCore{00040703}[2001b2dc].dll  - Undefined Reference
    QWidget::paintEngine() const              - Undefined Reference
    _ZNK7QWidget11paintEngineEv@QtGui{00040703}[2001b2dd].dll  - Undefined Reference
    QWidget::heightForWidth(int) const        - Undefined Reference
    _ZNK7QWidget14heightForWidthEi@QtGui{00040703}[2001b2dd].dll  - Undefined Reference
    QWidget::minimumSizeHint() const          - Undefined Reference
    _ZNK7QWidget15minimumSizeHintEv@QtGui{00040703}[2001b2dd].dll  - Undefined Reference
    QWidget::inputMethodQuery(Qt::InputMethodQuery) const  - Undefined Reference
    _ZNK7QWidget16inputMethodQueryEN2Qt16InputMethodQueryE@QtGui{00040703}[2001b2dd].dll  - Undefined Reference
    QWidget::metric(QPaintDevice::PaintDeviceMetric) const  - Undefined Reference
    _ZNK7QWidget6metricEN12QPaintDevice17PaintDeviceMetricE@QtGui{00040703}[2001b2dd].dll  - Undefined Reference
    QWidget::devType() const                  - Undefined Reference
    _ZNK7QWidget7devTypeEv@QtGui{00040703}[2001b2dd].dll  - Undefined Reference
    QPainter::worldTransform() const          - Undefined Reference
    _ZNK8QPainter14worldTransformEv@QtGui{00040703}[2001b2dd].dll  - Undefined Reference
    QPainter::compositionMode() const         - Undefined Reference
    _ZNK8QPainter15compositionModeEv@QtGui{00040703}[2001b2dd].dll  - Undefined Reference
    QPainter::pen() const                     - Undefined Reference
    _ZNK8QPainter3penEv@QtGui{00040703}[2001b2dd].dll  - Undefined Reference
    QPainter::font() const                    - Undefined Reference
    _ZNK8QPainter4fontEv@QtGui{00040703}[2001b2dd].dll  - Undefined Reference
    QPainter::brush() const                   - Undefined Reference
    _ZNK8QPainter5brushEv@QtGui{00040703}[2001b2dd].dll  - Undefined Reference
    QPainter::device() const                  - Undefined Reference
    _ZNK8QPainter6deviceEv@QtGui{00040703}[2001b2dd].dll  - Undefined Reference
    QPainter::opacity() const                 - Undefined Reference
    _ZNK8QPainter7opacityEv@QtGui{00040703}[2001b2dd].dll  - Undefined Reference
    QPainter::transform() const               - Undefined Reference
    _ZNK8QPainter9transformEv@QtGui{00040703}[2001b2dd].dll  - Undefined Reference
    QPalette::brush(QPalette::ColorGroup, QPalette::ColorRole) const  - Undefined Reference
    _ZNK8QPalette5brushENS_10ColorGroupENS_9ColorRoleE@QtGui{00040703}[2001b2dd].dll  - Undefined Reference
    QVariant::toStringList() const            - Undefined Reference
    _ZNK8QVariant12toStringListEv@QtCore{00040703}[2001b2dc].dll  - Undefined Reference
    QVariant::toInt(bool*) const              - Undefined Reference
    _ZNK8QVariant5toIntEPb@QtCore{00040703}[2001b2dc].dll  - Undefined Reference
    QVariant::toSize() const                  - Undefined Reference
    _ZNK8QVariant6toSizeEv@QtCore{00040703}[2001b2dc].dll  - Undefined Reference
    QFileInfo::absoluteFilePath() const       - Undefined Reference
    _ZNK9QFileInfo16absoluteFilePathEv@QtCore{00040703}[2001b2dc].dll  - Undefined Reference
    QFileInfo::exists() const                 - Undefined Reference
    _ZNK9QFileInfo6existsEv@QtCore{00040703}[2001b2dc].dll  - Undefined Reference
    QGradient::coordinateMode() const         - Undefined Reference
    _ZNK9QGradient14coordinateModeEv@QtGui{00040703}[2001b2dd].dll  - Undefined Reference
    QGradient::interpolationMode() const      - Undefined Reference
    _ZNK9QGradient17interpolationModeEv@QtGui{00040703}[2001b2dd].dll  - Undefined Reference
    QGradient::stops() const                  - Undefined Reference
    _ZNK9QGradient5stopsEv@QtGui{00040703}[2001b2dd].dll  - Undefined Reference
    QIODevice::isReadable() const             - Undefined Reference
    _ZNK9QIODevice10isReadableEv@QtCore{00040703}[2001b2dc].dll  - Undefined Reference
    QIODevice::isWritable() const             - Undefined Reference
    _ZNK9QIODevice10isWritableEv@QtCore{00040703}[2001b2dc].dll  - Undefined Reference
    QIODevice::errorString() const            - Undefined Reference
    _ZNK9QIODevice11errorStringEv@QtCore{00040703}[2001b2dc].dll  - Undefined Reference
    QIODevice::isOpen() const                 - Undefined Reference
    _ZNK9QIODevice6isOpenEv@QtCore{00040703}[2001b2dc].dll  - Undefined Reference
    QPolygonF::boundingRect() const           - Undefined Reference
    _ZNK9QPolygonF12boundingRectEv@QtGui{00040703}[2001b2dd].dll  - Undefined Reference
    QTextItem::font() const                   - Undefined Reference
    _ZNK9QTextItem4fontEv@QtGui{00040703}[2001b2dd].dll  - Undefined Reference
    QTextLine::naturalTextWidth() const       - Undefined Reference
    _ZNK9QTextLine16naturalTextWidthEv@QtGui{00040703}[2001b2dd].dll  - Undefined Reference
    QTextLine::ascent() const                 - Undefined Reference
    _ZNK9QTextLine6ascentEv@QtGui{00040703}[2001b2dd].dll  - Undefined Reference
    QTextLine::height() const                 - Undefined Reference
    _ZNK9QTextLine6heightEv@QtGui{00040703}[2001b2dd].dll  - Undefined Reference
    typeinfo for QPaintDevice                 - Undefined Reference
    _ZTI12QPaintDevice@QtGui{00040703}[2001b2dd].dll  - Undefined Reference
    typeinfo for QPaintEngine                 - Undefined Reference
    _ZTI12QPaintEngine@QtGui{00040703}[2001b2dd].dll  - Undefined Reference
    typeinfo for QObjectPrivate               - Undefined Reference
    _ZTI14QObjectPrivate@QtCore{00040703}[2001b2dc].dll  - Undefined Reference
    typeinfo for QWidgetPrivate               - Undefined Reference
    _ZTI14QWidgetPrivate@QtGui{00040703}[2001b2dd].dll  - Undefined Reference
    typeinfo for QGraphicsObject              - Undefined Reference
    _ZTI15QGraphicsObject@QtGui{00040703}[2001b2dd].dll  - Undefined Reference
    typeinfo for QGraphicsItemPrivate         - Undefined Reference
    _ZTI20QGraphicsItemPrivate@QtGui{00040703}[2001b2dd].dll  - Undefined Reference
    typeinfo for QObject                      - Undefined Reference
    _ZTI7QObject@QtCore{00040703}[2001b2dc].dll  - Undefined Reference
    typeinfo for QWidget                      - Undefined Reference
    _ZTI7QWidget@QtGui{00040703}[2001b2dd].dll  - Undefined Reference
    typeinfo for QCss::StyleSelector          - Undefined Reference
    _ZTIN4QCss13StyleSelectorE@QtGui{00040703}[2001b2dd].dll  - Undefined Reference
    typeinfo for std::bad_alloc               - Undefined Reference
    _ZTISt9bad_alloc@stdnew{000a0000}[20022178].dll  - Undefined Reference
    vtable for QGraphicsItemPrivate           - Undefined Reference
    _ZTV20QGraphicsItemPrivate@QtGui{00040703}[2001b2dd].dll  - Undefined Reference
    vtable for __cxxabiv1::__class_type_info  - Undefined Reference
    _ZTVN10__cxxabiv117__class_type_infoE@drtaeabi{000a0000}.dll  - Undefined Reference
    vtable for __cxxabiv1::__si_class_type_info  - Undefined Reference
    _ZTVN10__cxxabiv120__si_class_type_infoE@drtaeabi{000a0000}.dll  - Undefined Reference
    vtable for QCss::StyleSelector            - Undefined Reference
    _ZTVN4QCss13StyleSelectorE@QtGui{00040703}[2001b2dd].dll  - Undefined Reference
    thunk{-8} to QWidget::paintEngine() const  - Undefined Reference
    _ZThn8_NK7QWidget11paintEngineEv@QtGui{00040703}[2001b2dd].dll  - Undefined Reference
    thunk{-8} to QWidget::metric(QPaintDevice::PaintDeviceMetric) const  - Undefined Reference
    _ZThn8_NK7QWidget6metricEN12QPaintDevice17PaintDeviceMetricE@QtGui{00040703}[2001b2dd].dll  - Undefined Reference
    thunk{-8} to QWidget::devType() const     - Undefined Reference
    _ZThn8_NK7QWidget7devTypeEv@QtGui{00040703}[2001b2dd].dll  - Undefined Reference
    operator delete (void*)                   - Undefined Reference
    _ZdlPv@stdnew{000a0000}[20022178].dll     - Undefined Reference
    operator ==(const QLatin1String&, const QStringRef&)  - Undefined Reference
    _ZeqRK13QLatin1StringRK10QStringRef@QtCore{00040703}[2001b2dc].dll  - Undefined Reference
    operator new(unsigned)                    - Undefined Reference
    _Znwj@stdnew{000a0000}[20022178].dll      - Undefined Reference
    __aeabi_cdcmpeq                           - Undefined Reference
    __aeabi_cdcmpeq@dfpaeabi{000a0000}.dll    - Undefined Reference
    __aeabi_cdcmple                           - Undefined Reference
    __aeabi_cdcmple@dfpaeabi{000a0000}.dll    - Undefined Reference
    __aeabi_cdrcmple                          - Undefined Reference
    __aeabi_cdrcmple@dfpaeabi{000a0000}.dll   - Undefined Reference
    __aeabi_cfcmpeq                           - Undefined Reference
    __aeabi_cfcmpeq@dfpaeabi{000a0000}.dll    - Undefined Reference
    __aeabi_cfcmple                           - Undefined Reference
    __aeabi_cfcmple@dfpaeabi{000a0000}.dll    - Undefined Reference
    __aeabi_cfrcmple                          - Undefined Reference
    __aeabi_cfrcmple@dfpaeabi{000a0000}.dll   - Undefined Reference
    __aeabi_d2f                               - Undefined Reference
    __aeabi_d2f@dfpaeabi{000a0000}.dll        - Undefined Reference
    __aeabi_d2iz                              - Undefined Reference
    __aeabi_d2iz@dfpaeabi{000a0000}.dll       - Undefined Reference
    __aeabi_dadd                              - Undefined Reference
    __aeabi_dadd@dfpaeabi{000a0000}.dll       - Undefined Reference
    __aeabi_ddiv                              - Undefined Reference
    __aeabi_ddiv@dfpaeabi{000a0000}.dll       - Undefined Reference
    __aeabi_dmul                              - Undefined Reference
    __aeabi_dmul@dfpaeabi{000a0000}.dll       - Undefined Reference
    __aeabi_drsub                             - Undefined Reference
    __aeabi_drsub@dfpaeabi{000a0000}.dll      - Undefined Reference
    __aeabi_dsub                              - Undefined Reference
    __aeabi_dsub@dfpaeabi{000a0000}.dll       - Undefined Reference
    __aeabi_f2d                               - Undefined Reference
    __aeabi_f2d@dfpaeabi{000a0000}.dll        - Undefined Reference
    __aeabi_f2iz                              - Undefined Reference
    __aeabi_f2iz@dfpaeabi{000a0000}.dll       - Undefined Reference
    __aeabi_fadd                              - Undefined Reference
    __aeabi_fadd@dfpaeabi{000a0000}.dll       - Undefined Reference
    __aeabi_fdiv                              - Undefined Reference
    __aeabi_fdiv@dfpaeabi{000a0000}.dll       - Undefined Reference
    __aeabi_fmul                              - Undefined Reference
    __aeabi_fmul@dfpaeabi{000a0000}.dll       - Undefined Reference
    __aeabi_frsub                             - Undefined Reference
    __aeabi_frsub@dfpaeabi{000a0000}.dll      - Undefined Reference
    __aeabi_fsub                              - Undefined Reference
    __aeabi_fsub@dfpaeabi{000a0000}.dll       - Undefined Reference
    __aeabi_i2d                               - Undefined Reference
    __aeabi_i2d@dfpaeabi{000a0000}.dll        - Undefined Reference
    __aeabi_i2f                               - Undefined Reference
    __aeabi_i2f@dfpaeabi{000a0000}.dll        - Undefined Reference
    __aeabi_idivmod                           - Undefined Reference
    __aeabi_idivmod@drtaeabi{000a0000}.dll    - Undefined Reference
    __aeabi_memcpy                            - Undefined Reference
    __aeabi_memcpy4                           - Undefined Reference
    __aeabi_memcpy4@drtaeabi{000a0000}.dll    - Undefined Reference
    __aeabi_memcpy@drtaeabi{000a0000}.dll     - Undefined Reference
    __aeabi_uidivmod                          - Undefined Reference
    __aeabi_uidivmod@drtaeabi{000a0000}.dll   - Undefined Reference
    __aeabi_unwind_cpp_pr0                    - Undefined Reference
    __aeabi_unwind_cpp_pr0@drtaeabi{000a0000}.dll  - Undefined Reference
    __cxa_begin_catch                         - Undefined Reference
    __cxa_begin_catch@drtaeabi{000a0000}.dll  - Undefined Reference
    __cxa_end_catch                           - Undefined Reference
    __cxa_end_catch@drtaeabi{000a0000}.dll    - Undefined Reference
    __cxa_end_cleanup                         - Undefined Reference
    __cxa_end_cleanup@drtaeabi{000a0000}.dll  - Undefined Reference
    __cxa_pure_virtual                        - Undefined Reference
    __cxa_pure_virtual@drtaeabi{000a0000}.dll  - Undefined Reference
    __cxa_rethrow                             - Undefined Reference
    __cxa_rethrow@drtaeabi{000a0000}.dll      - Undefined Reference
    ceilf                                     - Undefined Reference
    ceilf@libm{00010001}[102750d2].dll        - Undefined Reference
    floorf                                    - Undefined Reference
    floorf@libm{00010001}[102750d2].dll       - Undefined Reference
    inflate                                   - Undefined Reference
    inflate@QtCore{00040703}[2001b2dc].dll    - Undefined Reference
    inflateEnd                                - Undefined Reference
    inflateEnd@QtCore{00040703}[2001b2dc].dll  - Undefined Reference
    inflateInit2_                             - Undefined Reference
    inflateInit2_@QtCore{00040703}[2001b2dc].dll  - Undefined Reference
    inflateReset                              - Undefined Reference
    inflateReset@QtCore{00040703}[2001b2dc].dll  - Undefined Reference
    run_static_dtors                          - Undefined Weak Reference
    strcmp                                    - Undefined Reference
    strcmp@libc{00010001}[10207369].dll       - Undefined Reference
    strlen                                    - Undefined Reference
    strlen@libc{00010001}[10207369].dll       - Undefined Reference
    Image$$ER_RO$$Base                       0x00008000   Number         0  anon$$obj.o(linker$$defined$$symbols)
    _E32Dll                                  0x00008000   ARM Code      40  uc_dll_.o(.emb_text)
    Symbian$$CPP$$Exception$$Descriptor      0x00008014   Data           0  uc_dll_.o(.emb_text)
    __cpp_initialize__aeabi_                 0x00008028   ARM Code      52  ucppinit.o(.emb_text)
    std::nothrow                             0x0000805c   ARM Code       0  ucppinit.o(.emb_text)
    __PLT                                    0x0000805c   ARM Code       0  anon$$obj.o(.plt)
    QSvgAnimation::draw(QPainter*, QSvgExtraStates&) 0x00008e83   Thumb Code    16  qsvggraphics.o(.text)
    QSvgAnimation::type() const              0x00008e93   Thumb Code     6  qsvggraphics.o(.text)
    QSvgArc::QSvgArc(QSvgNode*, const QPainterPath&) 0x00008e99   Thumb Code    40  qsvggraphics.o(.text)
    QSvgArc::QSvgArc__sub_object(QSvgNode*, const QPainterPath&) 0x00008e99   Thumb Code     0  qsvggraphics.o(.text)
    QSvgArc::draw(QPainter*, QSvgExtraStates&) 0x00008ec1   Thumb Code    98  qsvggraphics.o(.text)
    QSvgArc::type() const                    0x00008f23   Thumb Code     6  qsvggraphics.o(.text)
    QSvgArc::bounds(QPainter*, QSvgExtraStates&) const 0x00008f29   Thumb Code   102  qsvggraphics.o(.text)
    QSvgEllipse::QSvgEllipse(QSvgNode*, const QRectF&) 0x00008f8f   Thumb Code    40  qsvggraphics.o(.text)
    QSvgEllipse::QSvgEllipse__sub_object(QSvgNode*, const QRectF&) 0x00008f8f   Thumb Code     0  qsvggraphics.o(.text)
    QSvgEllipse::draw(QPainter*, QSvgExtraStates&) 0x00008fb7   Thumb Code   194  qsvggraphics.o(.text)
    QSvgEllipse::type() const                0x00009079   Thumb Code     6  qsvggraphics.o(.text)
    QSvgEllipse::bounds(QPainter*, QSvgExtraStates&) const 0x0000907f   Thumb Code   120  qsvggraphics.o(.text)
    QSvgCircle::type() const                 0x000090f7   Thumb Code     6  qsvggraphics.o(.text)
    QSvgImage::QSvgImage(QSvgNode*, const QImage&, const QRect&) 0x000090fd   Thumb Code   154  qsvggraphics.o(.text)
    QSvgImage::QSvgImage__sub_object(QSvgNode*, const QImage&, const QRect&) 0x000090fd   Thumb Code     0  qsvggraphics.o(.text)
    QSvgImage::draw(QPainter*, QSvgExtraStates&) 0x00009197   Thumb Code   174  qsvggraphics.o(.text)
    QSvgImage::type() const                  0x00009245   Thumb Code     6  qsvggraphics.o(.text)
    QSvgImage::bounds(QPainter*, QSvgExtraStates&) const 0x0000924b   Thumb Code    50  qsvggraphics.o(.text)
    QSvgLine::QSvgLine(QSvgNode*, const QLineF&) 0x0000927d   Thumb Code    42  qsvggraphics.o(.text)
    QSvgLine::QSvgLine__sub_object(QSvgNode*, const QLineF&) 0x0000927d   Thumb Code     0  qsvggraphics.o(.text)
    QSvgLine::draw(QPainter*, QSvgExtraStates&) 0x000092a7   Thumb Code   102  qsvggraphics.o(.text)
    QSvgLine::type() const                   0x0000930d   Thumb Code     6  qsvggraphics.o(.text)
    QSvgLine::bounds(QPainter*, QSvgExtraStates&) const 0x00009313   Thumb Code   298  qsvggraphics.o(.text)
    QSvgPath::QSvgPath(QSvgNode*, const QPainterPath&) 0x0000943d   Thumb Code    40  qsvggraphics.o(.text)
    QSvgPath::QSvgPath__sub_object(QSvgNode*, const QPainterPath&) 0x0000943d   Thumb Code     0  qsvggraphics.o(.text)
    QSvgPath::draw(QPainter*, QSvgExtraStates&) 0x00009465   Thumb Code   204  qsvggraphics.o(.text)
    QSvgPath::type() const                   0x00009531   Thumb Code     6  qsvggraphics.o(.text)
    QSvgPath::bounds(QPainter*, QSvgExtraStates&) const 0x00009537   Thumb Code   102  qsvggraphics.o(.text)
    QSvgPolygon::QSvgPolygon(QSvgNode*, const QPolygonF&) 0x0000959d   Thumb Code    40  qsvggraphics.o(.text)
    QSvgPolygon::QSvgPolygon__sub_object(QSvgNode*, const QPolygonF&) 0x0000959d   Thumb Code     0  qsvggraphics.o(.text)
    QSvgPolygon::draw(QPainter*, QSvgExtraStates&) 0x000095c5   Thumb Code   212  qsvggraphics.o(.text)
    QSvgPolygon::type() const                0x00009699   Thumb Code     6  qsvggraphics.o(.text)
    QSvgPolygon::bounds(QPainter*, QSvgExtraStates&) const 0x0000969f   Thumb Code   124  qsvggraphics.o(.text)
    QSvgPolyline::QSvgPolyline(QSvgNode*, const QPolygonF&) 0x0000971b   Thumb Code    40  qsvggraphics.o(.text)
    QSvgPolyline::QSvgPolyline__sub_object(QSvgNode*, const QPolygonF&) 0x0000971b   Thumb Code     0  qsvggraphics.o(.text)
    QSvgPolyline::draw(QPainter*, QSvgExtraStates&) 0x00009743   Thumb Code   240  qsvggraphics.o(.text)
    QSvgPolyline::type() const               0x00009833   Thumb Code     6  qsvggraphics.o(.text)
    QSvgPolyline::bounds(QPainter*, QSvgExtraStates&) const 0x00009839   Thumb Code   124  qsvggraphics.o(.text)
    QSvgRect::QSvgRect(QSvgNode*, const QRectF&, int, int) 0x000098b5   Thumb Code    58  qsvggraphics.o(.text)
    QSvgRect::QSvgRect__sub_object(QSvgNode*, const QRectF&, int, int) 0x000098b5   Thumb Code     0  qsvggraphics.o(.text)
    QSvgRect::type() const                   0x000098ef   Thumb Code     6  qsvggraphics.o(.text)
    QSvgRect::draw(QPainter*, QSvgExtraStates&) 0x000098f5   Thumb Code   442  qsvggraphics.o(.text)
    QSvgRect::bounds(QPainter*, QSvgExtraStates&) const 0x00009aaf   Thumb Code   122  qsvggraphics.o(.text)
    QSvgText::QSvgText(QSvgNode*, const QPointF&) 0x00009b29   Thumb Code    74  qsvggraphics.o(.text)
    QSvgText::QSvgText__sub_object(QSvgNode*, const QPointF&) 0x00009b29   Thumb Code     0  qsvggraphics.o(.text)
    QSvgText::~QSvgText()                    0x00009b73   Thumb Code    86  qsvggraphics.o(.text)
    QSvgText::~QSvgText__sub_object()        0x00009b73   Thumb Code     0  qsvggraphics.o(.text)
    QSvgText::~QSvgText__deallocating()      0x00009bc9   Thumb Code    22  qsvggraphics.o(.text)
    QSvgText::setTextArea(const QSizeF&)     0x00009bdf   Thumb Code    18  qsvggraphics.o(.text)
    QSvgText::draw(QPainter*, QSvgExtraStates&) 0x00009bf1   Thumb Code  2770  qsvggraphics.o(.text)
    QSvgText::type() const                   0x0000a6c3   Thumb Code     6  qsvggraphics.o(.text)
    QSvgText::addText(const QString&)        0x0000a6c9   Thumb Code   134  qsvggraphics.o(.text)
    QSvgUse::QSvgUse(const QPointF&, QSvgNode*, QSvgNode*) 0x0000a74f   Thumb Code    38  qsvggraphics.o(.text)
    QSvgUse::QSvgUse__sub_object(const QPointF&, QSvgNode*, QSvgNode*) 0x0000a74f   Thumb Code     0  qsvggraphics.o(.text)
    QSvgUse::draw(QPainter*, QSvgExtraStates&) 0x0000a775   Thumb Code    98  qsvggraphics.o(.text)
    QSvgUse::type() const                    0x0000a7d7   Thumb Code     6  qsvggraphics.o(.text)
    QSvgUse::bounds(QPainter*, QSvgExtraStates&) const 0x0000a7dd   Thumb Code    86  qsvggraphics.o(.text)
    QSvgVideo::draw(QPainter*, QSvgExtraStates&) 0x0000a833   Thumb Code    30  qsvggraphics.o(.text)
    QSvgVideo::type() const                  0x0000a851   Thumb Code     6  qsvggraphics.o(.text)
    qsvg_get_hex_rgb(const char*, unsigned*) 0x0000a889   Thumb Code   240  qsvghandler.o(.text)
    qsvg_get_hex_rgb(const QChar*, int, unsigned*) 0x0000a979   Thumb Code    58  qsvghandler.o(.text)
    QSvgHandler::currentColor() const        0x0000b247   Thumb Code   100  qsvghandler.o(.text)
    QSvgHandler::defaultCoordinateSystem() const 0x0000b55f   Thumb Code     6  qsvghandler.o(.text)
    QSvgHandler::pushColor(const QColor&)    0x0000ca13   Thumb Code    34  qsvghandler.o(.text)
    QSvgHandler::popColor()                  0x0000ca35   Thumb Code   122  qsvghandler.o(.text)
    QSvgHandler::parseCSStoXMLAttrs(QString, QVector<QSvgCssAttribute>*) 0x0000e2b1   Thumb Code   788  qsvghandler.o(.text)
    QSvgAttributes::QSvgAttributes(const QXmlStreamAttributes&, QSvgHandler*) 0x0000e5c5   Thumb Code  3320  qsvghandler.o(.text)
    QSvgAttributes::QSvgAttributes__sub_object(const QXmlStreamAttributes&, QSvgHandler*) 0x0000e5c5   Thumb Code     0  qsvghandler.o(.text)
    QSvgHandler::setAnimPeriod(int, int)     0x0000fdb3   Thumb Code    30  qsvghandler.o(.text)
    QSvgHandler::document() const            0x00011419   Thumb Code     6  qsvghandler.o(.text)
    QSvgHandler::selector() const            0x00011f6f   Thumb Code     6  qsvghandler.o(.text)
    QSvgHandler::setInStyle(bool)            0x000122dd   Thumb Code     6  qsvghandler.o(.text)
    QSvgHandler::setDefaultCoordinateSystem(QSvgHandler::LengthType) 0x00012349   Thumb Code     4  qsvghandler.o(.text)
    QSvgHandler::resolveGradients(QSvgNode*) 0x0001343f   Thumb Code   500  qsvghandler.o(.text)
    QSvgHandler::processingInstruction(const QString&, const QString&) 0x00013633   Thumb Code   628  qsvghandler.o(.text)
    QSvgHandler::characters(const QStringRef&) 0x000138a7   Thumb Code   272  qsvghandler.o(.text)
    QSvgHandler::endElement(const QStringRef&) 0x000139b7   Thumb Code   360  qsvghandler.o(.text)
    QSvgHandler::pushColorCopy()             0x00013b1f   Thumb Code    54  qsvghandler.o(.text)
    QSvgHandler::startElement(const QString&, const QXmlStreamAttributes&) 0x00013b55   Thumb Code  1480  qsvghandler.o(.text)
    QSvgHandler::parse()                     0x0001411d   Thumb Code   572  qsvghandler.o(.text)
    QSvgHandler::init()                      0x00014359   Thumb Code   106  qsvghandler.o(.text)
    QSvgHandler::QSvgHandler(QIODevice*)     0x000143c3   Thumb Code   162  qsvghandler.o(.text)
    QSvgHandler::QSvgHandler__sub_object(QIODevice*) 0x000143c3   Thumb Code     0  qsvghandler.o(.text)
    QSvgHandler::QSvgHandler(const QByteArray&) 0x00014465   Thumb Code   162  qsvghandler.o(.text)
    QSvgHandler::QSvgHandler__sub_object(const QByteArray&) 0x00014465   Thumb Code     0  qsvghandler.o(.text)
    QSvgHandler::QSvgHandler(QXmlStreamReader*) 0x00014507   Thumb Code   128  qsvghandler.o(.text)
    QSvgHandler::QSvgHandler__sub_object(QXmlStreamReader*) 0x00014507   Thumb Code     0  qsvghandler.o(.text)
    QSvgHandler::~QSvgHandler()              0x00014587   Thumb Code   158  qsvghandler.o(.text)
    QSvgHandler::~QSvgHandler__sub_object()  0x00014587   Thumb Code     0  qsvghandler.o(.text)
    QSvgHandler::inStyle() const             0x00014625   Thumb Code     8  qsvghandler.o(.text)
    QSvgHandler::animationDuration() const   0x0001462d   Thumb Code     6  qsvghandler.o(.text)
    QSvgNode::QSvgNode__sub_object(QSvgNode*) 0x000146f9   Thumb Code   136  qsvgnode.o(.text)
    QSvgNode::~QSvgNode()                    0x00014781   Thumb Code     0  qsvgnode.o(.text)
    QSvgNode::~QSvgNode__sub_object()        0x00014781   Thumb Code   104  qsvgnode.o(.text)
    QSvgNode::~QSvgNode__deallocating()      0x000147e9   Thumb Code    22  qsvgnode.o(.text)
    QSvgNode::document() const               0x000147ff   Thumb Code    38  qsvgnode.o(.text)
    QSvgNode::appendStyleProperty(QSvgStyleProperty*, const QString&) 0x00014825   Thumb Code   624  qsvgnode.o(.text)
    QSvgNode::applyStyle(QPainter*, QSvgExtraStates&) const 0x00014a95   Thumb Code    76  qsvgnode.o(.text)
    QSvgNode::revertStyle(QPainter*, QSvgExtraStates&) const 0x00014ae1   Thumb Code    20  qsvgnode.o(.text)
    QSvgNode::styleProperty(QSvgStyleProperty::Type) const 0x00014af5   Thumb Code   358  qsvgnode.o(.text)
    QSvgNode::styleProperty(const QString&) const 0x00014c5b   Thumb Code    98  qsvgnode.o(.text)
    QSvgNode::bounds(QPainter*, QSvgExtraStates&) const 0x00014cbd   Thumb Code    30  qsvgnode.o(.text)
    QSvgNode::transformedBounds(QPainter*, QSvgExtraStates&) const 0x00014cdb   Thumb Code    56  qsvgnode.o(.text)
    QSvgNode::transformedBounds() const      0x00014d13   Thumb Code   388  qsvgnode.o(.text)
    QSvgNode::setRequiredFeatures(const QStringList&) 0x00014e97   Thumb Code    18  qsvgnode.o(.text)
    QSvgNode::requiredFeatures() const       0x00014ea9   Thumb Code     8  qsvgnode.o(.text)
    QSvgNode::setRequiredExtensions(const QStringList&) 0x00014eb1   Thumb Code    18  qsvgnode.o(.text)
    QSvgNode::requiredExtensions() const     0x00014ec3   Thumb Code     8  qsvgnode.o(.text)
    QSvgNode::setRequiredLanguages(const QStringList&) 0x00014ecb   Thumb Code    18  qsvgnode.o(.text)
    QSvgNode::requiredLanguages() const      0x00014edd   Thumb Code     8  qsvgnode.o(.text)
    QSvgNode::setRequiredFormats(const QStringList&) 0x00014ee5   Thumb Code    18  qsvgnode.o(.text)
    QSvgNode::requiredFormats() const        0x00014ef7   Thumb Code     8  qsvgnode.o(.text)
    QSvgNode::setRequiredFonts(const QStringList&) 0x00014eff   Thumb Code    18  qsvgnode.o(.text)
    QSvgNode::requiredFonts() const          0x00014f11   Thumb Code     8  qsvgnode.o(.text)
    QSvgNode::setVisible(bool)               0x00014f19   Thumb Code   232  qsvgnode.o(.text)
    QSvgNode::setDisplayMode(QSvgNode::DisplayMode) 0x00015001   Thumb Code     4  qsvgnode.o(.text)
    QSvgNode::displayMode() const            0x00015005   Thumb Code     6  qsvgnode.o(.text)
    QSvgNode::setNodeId(const QString&)      0x0001500b   Thumb Code    18  qsvgnode.o(.text)
    QSvgNode::setXmlClass(const QString&)    0x0001501d   Thumb Code    18  qsvgnode.o(.text)
    QSvgNode::strokeWidth(QPainter*)         0x0001502f   Thumb Code   134  qsvgnode.o(.text)
    QSvgStructureNode::QSvgStructureNode__sub_object(QSvgNode*) 0x000150bd   Thumb Code    82  qsvgstructure.o(.text)
    QSvgStructureNode::~QSvgStructureNode()  0x0001510f   Thumb Code     0  qsvgstructure.o(.text)
    QSvgStructureNode::~QSvgStructureNode__sub_object() 0x0001510f   Thumb Code   100  qsvgstructure.o(.text)
    QSvgStructureNode::~QSvgStructureNode__deallocating() 0x00015173   Thumb Code    22  qsvgstructure.o(.text)
    QSvgStructureNode::scopeNode(const QString&) const 0x00015189   Thumb Code    32  qsvgstructure.o(.text)
    QSvgStructureNode::addChild(QSvgNode*, const QString&) 0x000151a9   Thumb Code    62  qsvgstructure.o(.text)
    QSvgStructureNode::bounds(QPainter*, QSvgExtraStates&) const 0x000151e7   Thumb Code   314  qsvgstructure.o(.text)
    QSvgStructureNode::previousSiblingNode(QSvgNode*) const 0x00015321   Thumb Code   108  qsvgstructure.o(.text)
    QSvgG::QSvgG(QSvgNode*)                  0x0001538d   Thumb Code    24  qsvgstructure.o(.text)
    QSvgG::QSvgG__sub_object(QSvgNode*)      0x0001538d   Thumb Code     0  qsvgstructure.o(.text)
    QSvgG::draw(QPainter*, QSvgExtraStates&) 0x000153a5   Thumb Code   118  qsvgstructure.o(.text)
    QSvgG::type() const                      0x0001541b   Thumb Code     6  qsvgstructure.o(.text)
    QSvgDefs::QSvgDefs(QSvgNode*)            0x00015421   Thumb Code    24  qsvgstructure.o(.text)
    QSvgDefs::QSvgDefs__sub_object(QSvgNode*) 0x00015421   Thumb Code     0  qsvgstructure.o(.text)
    QSvgDefs::draw(QPainter*, QSvgExtraStates&) 0x00015439   Thumb Code     2  qsvgstructure.o(.text)
    QSvgDefs::type() const                   0x0001543b   Thumb Code     6  qsvgstructure.o(.text)
    QSvgSwitch::init()                       0x00015441   Thumb Code   174  qsvgstructure.o(.text)
    QSvgSwitch::QSvgSwitch(QSvgNode*)        0x000154ef   Thumb Code    54  qsvgstructure.o(.text)
    QSvgSwitch::QSvgSwitch__sub_object(QSvgNode*) 0x000154ef   Thumb Code     0  qsvgstructure.o(.text)
    QSvgSwitch::draw(QPainter*, QSvgExtraStates&) 0x00015525   Thumb Code   636  qsvgstructure.o(.text)
    QSvgSwitch::type() const                 0x000157a1   Thumb Code     6  qsvgstructure.o(.text)
    QSvgExtraStates::QSvgExtraStates()       0x000157e1   Thumb Code    42  qsvgstyle.o(.text)
    QSvgExtraStates::QSvgExtraStates__sub_object() 0x000157e1   Thumb Code     0  qsvgstyle.o(.text)
    QSvgStyleProperty::~QSvgStyleProperty()  0x0001580b   Thumb Code     0  qsvgstyle.o(.text)
    QSvgStyleProperty::~QSvgStyleProperty__sub_object() 0x0001580b   Thumb Code     4  qsvgstyle.o(.text)
    QSvgStyleProperty::~QSvgStyleProperty__deallocating() 0x0001580f   Thumb Code    22  qsvgstyle.o(.text)
    QSvgFillStyleProperty::apply(QPainter*, const QSvgNode*, QSvgExtraStates&) 0x00015825   Thumb Code    22  qsvgstyle.o(.text)
    QSvgFillStyleProperty::revert(QPainter*, QSvgExtraStates&) 0x0001583b   Thumb Code    20  qsvgstyle.o(.text)
    QSvgQualityStyle::QSvgQualityStyle(int)  0x0001584f   Thumb Code    24  qsvgstyle.o(.text)
    QSvgQualityStyle::QSvgQualityStyle__sub_object(int) 0x0001584f   Thumb Code     0  qsvgstyle.o(.text)
    QSvgQualityStyle::apply(QPainter*, const QSvgNode*, QSvgExtraStates&) 0x00015867   Thumb Code     2  qsvgstyle.o(.text)
    QSvgQualityStyle::revert(QPainter*, QSvgExtraStates&) 0x00015869   Thumb Code     2  qsvgstyle.o(.text)
    QSvgQualityStyle::type() const           0x0001586b   Thumb Code     6  qsvgstyle.o(.text)
    QSvgOpacityStyle::QSvgOpacityStyle(float) 0x00015871   Thumb Code    28  qsvgstyle.o(.text)
    QSvgOpacityStyle::QSvgOpacityStyle__sub_object(float) 0x00015871   Thumb Code     0  qsvgstyle.o(.text)
    QSvgOpacityStyle::apply(QPainter*, const QSvgNode*, QSvgExtraStates&) 0x0001588d   Thumb Code    40  qsvgstyle.o(.text)
    QSvgOpacityStyle::revert(QPainter*, QSvgExtraStates&) 0x000158b5   Thumb Code    18  qsvgstyle.o(.text)
    QSvgOpacityStyle::type() const           0x000158c7   Thumb Code     6  qsvgstyle.o(.text)
    QSvgFillStyle::QSvgFillStyle()           0x000158cd   Thumb Code   110  qsvgstyle.o(.text)
    QSvgFillStyle::QSvgFillStyle__sub_object() 0x000158cd   Thumb Code     0  qsvgstyle.o(.text)
    QSvgFillStyle::apply(QPainter*, const QSvgNode*, QSvgExtraStates&) 0x0001593b   Thumb Code   120  qsvgstyle.o(.text)
    QSvgFillStyle::revert(QPainter*, QSvgExtraStates&) 0x000159b3   Thumb Code    52  qsvgstyle.o(.text)
    QSvgFillStyle::type() const              0x000159e7   Thumb Code     6  qsvgstyle.o(.text)
    QSvgFillStyle::setFillRule(Qt::FillRule) 0x000159ed   Thumb Code    14  qsvgstyle.o(.text)
    QSvgFillStyle::setFillOpacity(float)     0x000159fb   Thumb Code    14  qsvgstyle.o(.text)
    QSvgFillStyle::setFillStyle(QSvgFillStyleProperty*) 0x00015a09   Thumb Code    14  qsvgstyle.o(.text)
    QSvgFillStyle::setBrush(QBrush)          0x00015a17   Thumb Code    32  qsvgstyle.o(.text)
    QSvgViewportFillStyle::QSvgViewportFillStyle(const QBrush&) 0x00015a37   Thumb Code    48  qsvgstyle.o(.text)
    QSvgViewportFillStyle::QSvgViewportFillStyle__sub_object(const QBrush&) 0x00015a37   Thumb Code     0  qsvgstyle.o(.text)
    QSvgViewportFillStyle::apply(QPainter*, const QSvgNode*, QSvgExtraStates&) 0x00015a67   Thumb Code    42  qsvgstyle.o(.text)
    QSvgViewportFillStyle::revert(QPainter*, QSvgExtraStates&) 0x00015a91   Thumb Code    20  qsvgstyle.o(.text)
    QSvgViewportFillStyle::type() const      0x00015aa5   Thumb Code     6  qsvgstyle.o(.text)
    QSvgFontStyle::QSvgFontStyle(QSvgFont*, QSvgTinyDocument*) 0x00015aab   Thumb Code   124  qsvgstyle.o(.text)
    QSvgFontStyle::QSvgFontStyle__sub_object(QSvgFont*, QSvgTinyDocument*) 0x00015aab   Thumb Code     0  qsvgstyle.o(.text)
    QSvgFontStyle::QSvgFontStyle()           0x00015b27   Thumb Code   214  qsvgstyle.o(.text)
    QSvgFontStyle::QSvgFontStyle__sub_object() 0x00015b27   Thumb Code     0  qsvgstyle.o(.text)
    QSvgFontStyle::SVGToQtWeight(int)        0x00015bfd   Thumb Code    88  qsvgstyle.o(.text)
    QSvgFontStyle::apply(QPainter*, const QSvgNode*, QSvgExtraStates&) 0x00015c55   Thumb Code   308  qsvgstyle.o(.text)
    QSvgFontStyle::revert(QPainter*, QSvgExtraStates&) 0x00015d89   Thumb Code    38  qsvgstyle.o(.text)
    QSvgFontStyle::type() const              0x00015daf   Thumb Code     6  qsvgstyle.o(.text)
    QSvgStrokeStyle::QSvgStrokeStyle()       0x00015db5   Thumb Code   170  qsvgstyle.o(.text)
    QSvgStrokeStyle::QSvgStrokeStyle__sub_object() 0x00015db5   Thumb Code     0  qsvgstyle.o(.text)
    QSvgStrokeStyle::apply(QPainter*, const QSvgNode*, QSvgExtraStates&) 0x00015e5f   Thumb Code   714  qsvgstyle.o(.text)
    QSvgStrokeStyle::revert(QPainter*, QSvgExtraStates&) 0x00016129   Thumb Code    36  qsvgstyle.o(.text)
    QSvgStrokeStyle::type() const            0x0001614d   Thumb Code     6  qsvgstyle.o(.text)
    QSvgStrokeStyle::setDashArray(const QVector<float>&) 0x00016153   Thumb Code   158  qsvgstyle.o(.text)
    QSvgSolidColorStyle::QSvgSolidColorStyle(const QColor&) 0x000161f1   Thumb Code    60  qsvgstyle.o(.text)
    QSvgSolidColorStyle::QSvgSolidColorStyle__sub_object(const QColor&) 0x000161f1   Thumb Code     0  qsvgstyle.o(.text)
    QSvgSolidColorStyle::type() const        0x0001622d   Thumb Code     6  qsvgstyle.o(.text)
    QSvgGradientStyle::QSvgGradientStyle(QGradient*) 0x00016233   Thumb Code    54  qsvgstyle.o(.text)
    QSvgGradientStyle::QSvgGradientStyle__sub_object(QGradient*) 0x00016233   Thumb Code     0  qsvgstyle.o(.text)
    QSvgGradientStyle::type() const          0x00016269   Thumb Code     6  qsvgstyle.o(.text)
    QSvgGradientStyle::setStopLink(const QString&, QSvgTinyDocument*) 0x0001626f   Thumb Code    22  qsvgstyle.o(.text)
    QSvgGradientStyle::resolveStops()        0x00016285   Thumb Code   168  qsvgstyle.o(.text)
    QSvgGradientStyle::setMatrix(const QMatrix&) 0x0001632d   Thumb Code    18  qsvgstyle.o(.text)
    QSvgGradientStyle::brush(QPainter*, QSvgExtraStates&) 0x0001633f   Thumb Code   244  qsvgstyle.o(.text)
    QSvgTransformStyle::QSvgTransformStyle(const QTransform&) 0x00016433   Thumb Code   108  qsvgstyle.o(.text)
    QSvgTransformStyle::QSvgTransformStyle__sub_object(const QTransform&) 0x00016433   Thumb Code     0  qsvgstyle.o(.text)
    QSvgTransformStyle::apply(QPainter*, const QSvgNode*, QSvgExtraStates&) 0x0001649f   Thumb Code    44  qsvgstyle.o(.text)
    QSvgTransformStyle::revert(QPainter*, QSvgExtraStates&) 0x000164cb   Thumb Code    22  qsvgstyle.o(.text)
    QSvgTransformStyle::type() const         0x000164e1   Thumb Code     6  qsvgstyle.o(.text)
    QSvgAnimateTransform::QSvgAnimateTransform(int, int, int) 0x000164e7   Thumb Code   140  qsvgstyle.o(.text)
    QSvgAnimateTransform::QSvgAnimateTransform__sub_object(int, int, int) 0x000164e7   Thumb Code     0  qsvgstyle.o(.text)
    QSvgAnimateTransform::setArgs(QSvgAnimateTransform::TransformType, QSvgAnimateTransform::Additive, const QVector<float>&) 0x00016573   Thumb Code   166  qsvgstyle.o(.text)
    QSvgAnimateTransform::setFreeze(bool)    0x00016619   Thumb Code     6  qsvgstyle.o(.text)
    QSvgAnimateTransform::setRepeatCount(float) 0x0001661f   Thumb Code     6  qsvgstyle.o(.text)
    QSvgAnimateTransform::resolveMatrix(const QSvgNode*) 0x00016625   Thumb Code  1154  qsvgstyle.o(.text)
    QSvgAnimateTransform::apply(QPainter*, const QSvgNode*, QSvgExtraStates&) 0x00016aa7   Thumb Code    58  qsvgstyle.o(.text)
    QSvgAnimateTransform::revert(QPainter*, QSvgExtraStates&) 0x00016ae1   Thumb Code    28  qsvgstyle.o(.text)
    QSvgAnimateTransform::type() const       0x00016afd   Thumb Code     6  qsvgstyle.o(.text)
    QSvgAnimateColor::QSvgAnimateColor(int, int, int) 0x00016b03   Thumb Code   124  qsvgstyle.o(.text)
    QSvgAnimateColor::QSvgAnimateColor__sub_object(int, int, int) 0x00016b03   Thumb Code     0  qsvgstyle.o(.text)
    QSvgAnimateColor::setArgs(bool, const QList<QColor>&) 0x00016b7f   Thumb Code    84  qsvgstyle.o(.text)
    QSvgAnimateColor::setFreeze(bool)        0x00016bd3   Thumb Code     6  qsvgstyle.o(.text)
    QSvgAnimateColor::setRepeatCount(float)  0x00016bd9   Thumb Code     4  qsvgstyle.o(.text)
    QSvgAnimateColor::apply(QPainter*, const QSvgNode*, QSvgExtraStates&) 0x00016bdd   Thumb Code   684  qsvgstyle.o(.text)
    QSvgAnimateColor::revert(QPainter*, QSvgExtraStates&) 0x00016e89   Thumb Code    40  qsvgstyle.o(.text)
    QSvgAnimateColor::type() const           0x00016eb1   Thumb Code     6  qsvgstyle.o(.text)
    QSvgCompOpStyle::QSvgCompOpStyle(QPainter::CompositionMode) 0x00016eb7   Thumb Code    24  qsvgstyle.o(.text)
    QSvgCompOpStyle::QSvgCompOpStyle__sub_object(QPainter::CompositionMode) 0x00016eb7   Thumb Code     0  qsvgstyle.o(.text)
    QSvgCompOpStyle::apply(QPainter*, const QSvgNode*, QSvgExtraStates&) 0x00016ecf   Thumb Code    28  qsvgstyle.o(.text)
    QSvgCompOpStyle::revert(QPainter*, QSvgExtraStates&) 0x00016eeb   Thumb Code    18  qsvgstyle.o(.text)
    QSvgCompOpStyle::type() const            0x00016efd   Thumb Code     6  qsvgstyle.o(.text)
    QSvgStyle::~QSvgStyle()                  0x00016f03   Thumb Code   142  qsvgstyle.o(.text)
    QSvgStyle::~QSvgStyle__sub_object()      0x00016f03   Thumb Code     0  qsvgstyle.o(.text)
    QSvgStyle::apply(QPainter*, const QSvgNode*, QSvgExtraStates&) 0x00016f91   Thumb Code   544  qsvgstyle.o(.text)
    QSvgStyle::revert(QPainter*, QSvgExtraStates&) 0x000171b1   Thumb Code   460  qsvgstyle.o(.text)
    QSvgGlyph::QSvgGlyph(QChar, const QPainterPath&, float) 0x0001737d   Thumb Code    32  qsvgfont.o(.text)
    QSvgGlyph::QSvgGlyph__sub_object(QChar, const QPainterPath&, float) 0x0001737d   Thumb Code     0  qsvgfont.o(.text)
    QSvgFont::QSvgFont(float)                0x0001739d   Thumb Code    64  qsvgfont.o(.text)
    QSvgFont::QSvgFont__sub_object(float)    0x0001739d   Thumb Code     0  qsvgfont.o(.text)
    QSvgFont::setFamilyName(const QString&)  0x000173dd   Thumb Code    18  qsvgfont.o(.text)
    QSvgFont::familyName() const             0x000173ef   Thumb Code    44  qsvgfont.o(.text)
    QSvgFont::setUnitsPerEm(float)           0x0001741b   Thumb Code     4  qsvgfont.o(.text)
    QSvgFont::addGlyph(QChar, const QPainterPath&, float) 0x0001741f   Thumb Code    64  qsvgfont.o(.text)
    QSvgFont::draw(QPainter*, const QPointF&, const QString&, float, QFlags<Qt::AlignmentFlag>) const 0x0001745f   Thumb Code   476  qsvgfont.o(.text)
    QSvgTinyDocument::load(const QByteArray&) 0x000178c5   Thumb Code   112  qsvgtinydocument.o(.text)
    QSvgTinyDocument::load(const QString&)   0x00017935   Thumb Code   620  qsvgtinydocument.o(.text)
    QSvgTinyDocument::load(QXmlStreamReader*) 0x00017ba1   Thumb Code    58  qsvgtinydocument.o(.text)
    QSvgTinyDocument::QSvgTinyDocument()     0x00017bdb   Thumb Code   168  qsvgtinydocument.o(.text)
    QSvgTinyDocument::QSvgTinyDocument__sub_object() 0x00017bdb   Thumb Code     0  qsvgtinydocument.o(.text)
    QSvgTinyDocument::~QSvgTinyDocument()    0x00017c83   Thumb Code    54  qsvgtinydocument.o(.text)
    QSvgTinyDocument::~QSvgTinyDocument__sub_object() 0x00017c83   Thumb Code     0  qsvgtinydocument.o(.text)
    QSvgTinyDocument::~QSvgTinyDocument__deallocating() 0x00017cb9   Thumb Code    22  qsvgtinydocument.o(.text)
    QSvgTinyDocument::type() const           0x00017ccf   Thumb Code     6  qsvgtinydocument.o(.text)
    QSvgTinyDocument::setWidth(int, bool)    0x00017cd5   Thumb Code    10  qsvgtinydocument.o(.text)
    QSvgTinyDocument::setHeight(int, bool)   0x00017cdf   Thumb Code    10  qsvgtinydocument.o(.text)
    QSvgTinyDocument::setViewBox(const QRectF&) 0x00017ce9   Thumb Code    20  qsvgtinydocument.o(.text)
    QSvgTinyDocument::mapSourceToTarget(QPainter*, const QRectF&, const QRectF&) 0x00017cfd   Thumb Code   578  qsvgtinydocument.o(.text)
    QSvgTinyDocument::draw(QPainter*, const QRectF&) 0x00017f3f   Thumb Code   362  qsvgtinydocument.o(.text)
    QSvgTinyDocument::draw(QPainter*)        0x000180a9   Thumb Code    26  qsvgtinydocument.o(.text)
    QSvgTinyDocument::draw(QPainter*, QSvgExtraStates&) 0x000180c3   Thumb Code    18  qsvgtinydocument.o(.text)
    QSvgTinyDocument::draw(QPainter*, const QString&, const QRectF&) 0x000180d5   Thumb Code   422  qsvgtinydocument.o(.text)
    QSvgTinyDocument::matrixForElement(const QString&) const 0x0001827b   Thumb Code   132  qsvgtinydocument.o(.text)
    QSvgTinyDocument::boundsOnElement(const QString&) const 0x000182ff   Thumb Code    34  qsvgtinydocument.o(.text)
    QSvgTinyDocument::elementExists(const QString&) const 0x00018321   Thumb Code    28  qsvgtinydocument.o(.text)
    QSvgTinyDocument::addSvgFont(QSvgFont*)  0x0001833d   Thumb Code    64  qsvgtinydocument.o(.text)
    QSvgTinyDocument::svgFont(const QString&) const 0x0001837d   Thumb Code    98  qsvgtinydocument.o(.text)
    QSvgTinyDocument::addNamedNode(const QString&, QSvgNode*) 0x000183df   Thumb Code    26  qsvgtinydocument.o(.text)
    QSvgTinyDocument::namedNode(const QString&) const 0x000183f9   Thumb Code    44  qsvgtinydocument.o(.text)
    QSvgTinyDocument::addNamedStyle(const QString&, QSvgFillStyleProperty*) 0x00018425   Thumb Code    52  qsvgtinydocument.o(.text)
    QSvgTinyDocument::namedStyle(const QString&) const 0x00018459   Thumb Code   144  qsvgtinydocument.o(.text)
    QSvgTinyDocument::restartAnimation()     0x000184e9   Thumb Code    14  qsvgtinydocument.o(.text)
    QSvgTinyDocument::animated() const       0x000184f7   Thumb Code     8  qsvgtinydocument.o(.text)
    QSvgTinyDocument::setAnimated(bool)      0x000184ff   Thumb Code     6  qsvgtinydocument.o(.text)
    QSvgTinyDocument::currentFrame() const   0x00018505   Thumb Code   124  qsvgtinydocument.o(.text)
    QSvgTinyDocument::setCurrentFrame(int)   0x00018581   Thumb Code   146  qsvgtinydocument.o(.text)
    QSvgTinyDocument::setFramesPerSecond(int) 0x00018613   Thumb Code     6  qsvgtinydocument.o(.text)
    QSvgRenderer::repaintNeeded()            0x00018629   Thumb Code    18  qsvgrenderer.o(.text)
    QSvgRendererPrivate::callRepaintNeeded(QSvgRenderer*) 0x0001863b   Thumb Code    12  qsvgrenderer.o(.text)
    QSvgRenderer::getStaticMetaObject()      0x000188c3   Thumb Code     4  qsvgrenderer.o(.text)
    QSvgRenderer::metaObject() const         0x000188c7   Thumb Code    30  qsvgrenderer.o(.text)
    QSvgRenderer::qt_metacast(const char*)   0x000188e5   Thumb Code    40  qsvgrenderer.o(.text)
    QSvgRenderer::setCurrentFrame(int)       0x0001890d   Thumb Code    30  qsvgrenderer.o(.text)
    QSvgRenderer::setFramesPerSecond(int)    0x0001892b   Thumb Code    38  qsvgrenderer.o(.text)
    QSvgRenderer::setViewBox(const QRectF&)  0x00018951   Thumb Code    36  qsvgrenderer.o(.text)
    QSvgRenderer::currentFrame() const       0x00018975   Thumb Code    26  qsvgrenderer.o(.text)
    QSvgRenderer::framesPerSecond() const    0x0001898f   Thumb Code    20  qsvgrenderer.o(.text)
    QSvgRenderer::viewBoxF() const           0x000189a3   Thumb Code   250  qsvgrenderer.o(.text)
    QSvgRenderer::render(QPainter*, const QString&, const QRectF&) 0x00018a9d   Thumb Code    48  qsvgrenderer.o(.text)
    QSvgRenderer::render(QPainter*, const QRectF&) 0x00018acd   Thumb Code    40  qsvgrenderer.o(.text)
    QSvgRenderer::render(QPainter*)          0x00018af5   Thumb Code    36  qsvgrenderer.o(.text)
    QSvgRenderer::load(QXmlStreamReader*)    0x00018b19   Thumb Code    30  qsvgrenderer.o(.text)
    QSvgRenderer::load(const QByteArray&)    0x00018b37   Thumb Code    32  qsvgrenderer.o(.text)
    QSvgRenderer::load(const QString&)       0x00018b57   Thumb Code    32  qsvgrenderer.o(.text)
    QSvgRenderer::qt_metacall(QMetaObject::Call, int, void**) 0x00018b77   Thumb Code   364  qsvgrenderer.o(.text)
    QSvgRenderer::QSvgRenderer(QObject*)     0x00018ce3   Thumb Code    46  qsvgrenderer.o(.text)
    QSvgRenderer::QSvgRenderer__sub_object(QObject*) 0x00018ce3   Thumb Code     0  qsvgrenderer.o(.text)
    QSvgRenderer::QSvgRenderer(const QString&, QObject*) 0x00018d11   Thumb Code    56  qsvgrenderer.o(.text)
    QSvgRenderer::QSvgRenderer__sub_object(const QString&, QObject*) 0x00018d11   Thumb Code     0  qsvgrenderer.o(.text)
    QSvgRenderer::QSvgRenderer(const QByteArray&, QObject*) 0x00018d49   Thumb Code    56  qsvgrenderer.o(.text)
    QSvgRenderer::QSvgRenderer__sub_object(const QByteArray&, QObject*) 0x00018d49   Thumb Code     0  qsvgrenderer.o(.text)
    QSvgRenderer::QSvgRenderer(QXmlStreamReader*, QObject*) 0x00018d81   Thumb Code    56  qsvgrenderer.o(.text)
    QSvgRenderer::QSvgRenderer__sub_object(QXmlStreamReader*, QObject*) 0x00018d81   Thumb Code     0  qsvgrenderer.o(.text)
    QSvgRenderer::~QSvgRenderer()            0x00018db9   Thumb Code    14  qsvgrenderer.o(.text)
    QSvgRenderer::~QSvgRenderer__sub_object() 0x00018db9   Thumb Code     0  qsvgrenderer.o(.text)
    QSvgRenderer::~QSvgRenderer__deallocating() 0x00018dc7   Thumb Code    22  qsvgrenderer.o(.text)
    QSvgRenderer::isValid() const            0x00018ddd   Thumb Code    30  qsvgrenderer.o(.text)
    QSvgRenderer::defaultSize() const        0x00018dfb   Thumb Code   146  qsvgrenderer.o(.text)
    QSvgRenderer::viewBox() const            0x00018e8d   Thumb Code   130  qsvgrenderer.o(.text)
    QSvgRenderer::setViewBox(const QRect&)   0x00018f0f   Thumb Code    52  qsvgrenderer.o(.text)
    QSvgRenderer::animated() const           0x00018f43   Thumb Code    36  qsvgrenderer.o(.text)
    QSvgRenderer::animationDuration() const  0x00018f67   Thumb Code    24  qsvgrenderer.o(.text)
    QSvgRenderer::boundsOnElement(const QString&) const 0x00018f7f   Thumb Code    64  qsvgrenderer.o(.text)
    QSvgRenderer::elementExists(const QString&) const 0x00018fbf   Thumb Code    42  qsvgrenderer.o(.text)
    QSvgRenderer::matrixForElement(const QString&) const 0x00018fe9   Thumb Code    62  qsvgrenderer.o(.text)
    QSvgWidget::QSvgWidget(QWidget*)         0x0001902d   Thumb Code   164  qsvgwidget.o(.text)
    QSvgWidget::QSvgWidget__sub_object(QWidget*) 0x0001902d   Thumb Code     0  qsvgwidget.o(.text)
    QSvgWidget::QSvgWidget(const QString&, QWidget*) 0x000190d1   Thumb Code   166  qsvgwidget.o(.text)
    QSvgWidget::QSvgWidget__sub_object(const QString&, QWidget*) 0x000190d1   Thumb Code     0  qsvgwidget.o(.text)
    QSvgWidget::~QSvgWidget()                0x00019177   Thumb Code    14  qsvgwidget.o(.text)
    QSvgWidget::~QSvgWidget__sub_object()    0x00019177   Thumb Code     0  qsvgwidget.o(.text)
    QSvgWidget::~QSvgWidget__deallocating()  0x00019185   Thumb Code    22  qsvgwidget.o(.text)
    thunk{-8} to QSvgWidget::~QSvgWidget__deallocating() 0x0001919b   Thumb Code    14  qsvgwidget.o(.text)
    thunk{-8} to QSvgWidget::~QSvgWidget()   0x000191a9   Thumb Code    14  qsvgwidget.o(.text)
    QSvgWidget::renderer() const             0x000191b7   Thumb Code    24  qsvgwidget.o(.text)
    QSvgWidget::sizeHint() const             0x000191cf   Thumb Code    66  qsvgwidget.o(.text)
    QSvgWidget::load(const QString&)         0x00019211   Thumb Code    34  qsvgwidget.o(.text)
    QSvgWidget::load(const QByteArray&)      0x00019233   Thumb Code    34  qsvgwidget.o(.text)
    QSvgWidget::paintEvent(QPaintEvent*)     0x00019255   Thumb Code    50  qsvgwidget.o(.text)
    QGraphicsSvgItem::getStaticMetaObject()  0x0001967b   Thumb Code     4  qgraphicssvgitem.o(.text)
    QGraphicsSvgItem::metaObject() const     0x0001967f   Thumb Code    30  qgraphicssvgitem.o(.text)
    QGraphicsSvgItem::qt_metacast(const char*) 0x0001969d   Thumb Code    60  qgraphicssvgitem.o(.text)
    QGraphicsSvgItem::setMaximumCacheSize(const QSize&) 0x000196d9   Thumb Code    64  qgraphicssvgitem.o(.text)
    QGraphicsSvgItem::setElementId(const QString&) 0x00019719   Thumb Code   108  qgraphicssvgitem.o(.text)
    QGraphicsSvgItem::maximumCacheSize() const 0x00019785   Thumb Code   150  qgraphicssvgitem.o(.text)
    QGraphicsSvgItem::elementId() const      0x0001981b   Thumb Code    56  qgraphicssvgitem.o(.text)
    QGraphicsSvgItem::qt_metacall(QMetaObject::Call, int, void**) 0x00019853   Thumb Code   304  qgraphicssvgitem.o(.text)
    QGraphicsSvgItem::QGraphicsSvgItem(QGraphicsItem*) 0x00019983   Thumb Code    72  qgraphicssvgitem.o(.text)
    QGraphicsSvgItem::QGraphicsSvgItem__sub_object(QGraphicsItem*) 0x00019983   Thumb Code     0  qgraphicssvgitem.o(.text)
    QGraphicsSvgItem::QGraphicsSvgItem(const QString&, QGraphicsItem*) 0x000199cb   Thumb Code    98  qgraphicssvgitem.o(.text)
    QGraphicsSvgItem::QGraphicsSvgItem__sub_object(const QString&, QGraphicsItem*) 0x000199cb   Thumb Code     0  qgraphicssvgitem.o(.text)
    QGraphicsSvgItem::setSharedRenderer(QSvgRenderer*) 0x00019a2d   Thumb Code    86  qgraphicssvgitem.o(.text)
    QGraphicsSvgItem::renderer() const       0x00019a83   Thumb Code    18  qgraphicssvgitem.o(.text)
    QGraphicsSvgItem::setCachingEnabled(bool) 0x00019a95   Thumb Code    44  qgraphicssvgitem.o(.text)
    QGraphicsSvgItem::isCachingEnabled() const 0x00019ac1   Thumb Code    24  qgraphicssvgitem.o(.text)
    QGraphicsSvgItem::boundingRect() const   0x00019ad9   Thumb Code    28  qgraphicssvgitem.o(.text)
    thunk{-8} to QGraphicsSvgItem::boundingRect() const 0x00019af5   Thumb Code    18  qgraphicssvgitem.o(.text)
    QGraphicsSvgItem::paint(QPainter*, const QStyleOptionGraphicsItem*, QWidget*) 0x00019b07   Thumb Code   134  qgraphicssvgitem.o(.text)
    thunk{-8} to QGraphicsSvgItem::paint(QPainter*, const QStyleOptionGraphicsItem*, QWidget*) 0x00019b8d   Thumb Code   116  qgraphicssvgitem.o(.text)
    QGraphicsSvgItem::type() const           0x00019c01   Thumb Code     6  qgraphicssvgitem.o(.text)
    thunk{-8} to QGraphicsSvgItem::type() const 0x00019c07   Thumb Code    14  qgraphicssvgitem.o(.text)
    QSvgGenerator::QSvgGenerator()           0x00019e61   Thumb Code   186  qsvggenerator.o(.text)
    QSvgGenerator::QSvgGenerator__sub_object() 0x00019e61   Thumb Code     0  qsvggenerator.o(.text)
    QSvgGenerator::~QSvgGenerator()          0x00019f1b   Thumb Code    96  qsvggenerator.o(.text)
    QSvgGenerator::~QSvgGenerator__sub_object() 0x00019f1b   Thumb Code     0  qsvggenerator.o(.text)
    QSvgGenerator::~QSvgGenerator__deallocating() 0x00019f7b   Thumb Code    22  qsvggenerator.o(.text)
    QSvgGenerator::title() const             0x00019f91   Thumb Code   172  qsvggenerator.o(.text)
    QSvgGenerator::setTitle(const QString&)  0x0001a03d   Thumb Code    52  qsvggenerator.o(.text)
    QSvgGenerator::description() const       0x0001a071   Thumb Code    58  qsvggenerator.o(.text)
    QSvgGenerator::setDescription(const QString&) 0x0001a0ab   Thumb Code    52  qsvggenerator.o(.text)
    QSvgGenerator::size() const              0x0001a0df   Thumb Code    30  qsvggenerator.o(.text)
    QSvgGenerator::setSize(const QSize&)     0x0001a0fd   Thumb Code    92  qsvggenerator.o(.text)
    QSvgGenerator::viewBox() const           0x0001a159   Thumb Code   118  qsvggenerator.o(.text)
    QSvgGenerator::viewBoxF() const          0x0001a1cf   Thumb Code    44  qsvggenerator.o(.text)
    QSvgGenerator::setViewBox(const QRectF&) 0x0001a1fb   Thumb Code    98  qsvggenerator.o(.text)
    QSvgGenerator::setViewBox(const QRect&)  0x0001a25d   Thumb Code    86  qsvggenerator.o(.text)
    QSvgGenerator::fileName() const          0x0001a2b3   Thumb Code    34  qsvggenerator.o(.text)
    QSvgGenerator::setFileName(const QString&) 0x0001a2d5   Thumb Code   138  qsvggenerator.o(.text)
    QSvgGenerator::outputDevice() const      0x0001a35f   Thumb Code    34  qsvggenerator.o(.text)
    QSvgGenerator::setOutputDevice(QIODevice*) 0x0001a381   Thumb Code    80  qsvggenerator.o(.text)
    QSvgGenerator::setResolution(int)        0x0001a3d1   Thumb Code    66  qsvggenerator.o(.text)
    QSvgGenerator::resolution() const        0x0001a413   Thumb Code    34  qsvggenerator.o(.text)
    QSvgGenerator::paintEngine() const       0x0001a435   Thumb Code    20  qsvggenerator.o(.text)
    QSvgGenerator::metric(QPaintDevice::PaintDeviceMetric) const 0x0001a449   Thumb Code   390  qsvggenerator.o(.text)
    QSvgPaintEngine::begin(QPaintDevice*)    0x0001a5cf   Thumb Code  1158  qsvggenerator.o(.text)
    QSvgPaintEngine::end()                   0x0001aa55   Thumb Code   208  qsvggenerator.o(.text)
    QSvgPaintEngine::updateState(const QPaintEngineState&) 0x0001ab25   Thumb Code   766  qsvggenerator.o(.text)
    QSvgPaintEngine::drawPath(const QPainterPath&) 0x0001ae23   Thumb Code   388  qsvggenerator.o(.text)
    QSvgPaintEngine::drawImage(const QRectF&, const QImage&, const QRectF&, Qt::ImageConversionFlag) 0x0001afa7   Thumb Code   286  qsvggenerator.o(.text)
    QSvgPaintEngine::drawPixmap(const QRectF&, const QPixmap&, const QRectF&) 0x0001b0c5   Thumb Code    46  qsvggenerator.o(.text)
    QSvgPaintEngine::drawPolygon(const QPointF*, int, QPaintEngine::PolygonDrawMode) 0x0001b0f3   Thumb Code   570  qsvggenerator.o(.text)
    QSvgPaintEngine::drawTextItem(const QPointF&, const QTextItem&) 0x0001b32d   Thumb Code   224  qsvggenerator.o(.text)
    QSvgWidget::getStaticMetaObject()        0x0001b4b9   Thumb Code     4  moc_qsvgwidget.o(.text)
    QSvgWidget::metaObject() const           0x0001b4bd   Thumb Code    30  moc_qsvgwidget.o(.text)
    QSvgWidget::qt_metacast(const char*)     0x0001b4db   Thumb Code    40  moc_qsvgwidget.o(.text)
    QSvgWidget::qt_metacall(QMetaObject::Call, int, void**) 0x0001b503   Thumb Code    76  moc_qsvgwidget.o(.text)
    __ARM_switch8                            0x0001b558   ARM Code      24  switch8.o(.text)
    __rt_switch8                             0x0001b558   ARM Code       0  switch8.o(.text)
    _E32Dll_Body                             0x0001b570   ARM Code      76  uc_dll.o(.text)
    __DLL_Export_Table__                     0x0001b5c0   ARM Code       4  dllexp.o(.text)
    qCos(float)                              0x0001cf13   Thumb Code    34  qsvghandler.o(i._Z4qCosf)
    qSin(float)                              0x0001cf35   Thumb Code    34  qsvghandler.o(i._Z4qSinf)
    qTan(float)                              0x0001cf57   Thumb Code    34  qsvghandler.o(i._Z4qTanf)
    qCeil(float)                             0x0001cf79   Thumb Code    20  qsvgstyle.o(i._Z5qCeilf)
    qSqrt(float)                             0x0001cf8d   Thumb Code    34  qsvghandler.o(i._Z5qSqrtf)
    qAtan2(float, float)                     0x0001cfaf   Thumb Code    50  qsvghandler.o(i._Z6qAtan2ff)
    qFloor(float)                            0x0001cfe1   Thumb Code    20  qsvgstyle.o(i._Z6qFloorf)
    qRound(float)                            0x0001cff5   Thumb Code   140  qsvgtinydocument.o(i._Z6qRoundf)
    QByteArray::data()                       0x0001d091   Thumb Code    44  qsvgtinydocument.o(i._ZN10QByteArray4dataEv)
    QByteArray::QByteArray(const QByteArray&) 0x0001d0bd   Thumb Code    20  qsvgtinydocument.o(i._ZN10QByteArrayC1ERKS_)
    QByteArray::QByteArray__sub_object(const QByteArray&) 0x0001d0bd   Thumb Code     0  qsvgtinydocument.o(i._ZN10QByteArrayC1ERKS_)
    QByteArray::QByteArray()                 0x0001d0d1   Thumb Code    18  qsvgtinydocument.o(i._ZN10QByteArrayC1Ev)
    QByteArray::QByteArray__sub_object()     0x0001d0d1   Thumb Code     0  qsvgtinydocument.o(i._ZN10QByteArrayC1Ev)
    QByteArray::~QByteArray()                0x0001d0e9   Thumb Code    24  qsvghandler.o(i._ZN10QByteArrayD1Ev)
    QByteArray::~QByteArray__sub_object()    0x0001d0e9   Thumb Code     0  qsvghandler.o(i._ZN10QByteArrayD1Ev)
    QMultiHash<QString, QCss::StyleRule>::QMultiHash(const QMultiHash<QString, QCss::StyleRule>&) 0x0001d101   Thumb Code    60  qsvghandler.o(i._ZN10QMultiHashI7QStringN4QCss9StyleRuleEEC1ERKS3_)
    QMultiHash<QString, QCss::StyleRule>::QMultiHash__sub_object(const QMultiHash<QString, QCss::StyleRule>&) 0x0001d101   Thumb Code     0  qsvghandler.o(i._ZN10QMultiHashI7QStringN4QCss9StyleRuleEEC1ERKS3_)
    QMultiHash<QString, QCss::StyleRule>::~QMultiHash() 0x0001d13d   Thumb Code    14  qsvghandler.o(i._ZN10QMultiHashI7QStringN4QCss9StyleRuleEED1Ev)
    QMultiHash<QString, QCss::StyleRule>::~QMultiHash__sub_object() 0x0001d13d   Thumb Code     0  qsvghandler.o(i._ZN10QMultiHashI7QStringN4QCss9StyleRuleEED1Ev)
    QMultiHash<QString, QCss::StyleRule>::operator =(const QMultiHash<QString, QCss::StyleRule>&) 0x0001d14b   Thumb Code    72  qsvghandler.o(i._ZN10QMultiHashI7QStringN4QCss9StyleRuleEEaSERKS3_)
    QStringRef::QStringRef(const QString*)   0x0001d193   Thumb Code    24  qsvghandler.o(i._ZN10QStringRefC1EPK7QString)
    QStringRef::QStringRef__sub_object(const QString*) 0x0001d193   Thumb Code     0  qsvghandler.o(i._ZN10QStringRefC1EPK7QString)
    QStringRef::QStringRef()                 0x0001d1ab   Thumb Code    10  qsvghandler.o(i._ZN10QStringRefC1Ev)
    QStringRef::QStringRef__sub_object()     0x0001d1ab   Thumb Code     0  qsvghandler.o(i._ZN10QStringRefC1Ev)
    QStringRef::~QStringRef()                0x0001d1b5   Thumb Code     2  qsvghandler.o(i._ZN10QStringRefD1Ev)
    QStringRef::~QStringRef__sub_object()    0x0001d1b5   Thumb Code     0  qsvghandler.o(i._ZN10QStringRefD1Ev)
    QStringRef::operator =(const QStringRef&) 0x0001d1b7   Thumb Code    14  qsvghandler.o(i._ZN10QStringRefaSERKS_)
    QSvgCircle::~QSvgCircle__deallocating()  0x0001d1c5   Thumb Code    24  qsvggraphics.o(i._ZN10QSvgCircleD0Ev)
    QSvgCircle::~QSvgCircle()                0x0001d1dd   Thumb Code    14  qsvggraphics.o(i._ZN10QSvgCircleD1Ev)
    QSvgCircle::~QSvgCircle__sub_object()    0x0001d1dd   Thumb Code     0  qsvggraphics.o(i._ZN10QSvgCircleD1Ev)
    QSvgSwitch::~QSvgSwitch__deallocating()  0x0001d1eb   Thumb Code    22  qsvgstructure.o(i._ZN10QSvgSwitchD0Ev)
    QSvgSwitch::~QSvgSwitch()                0x0001d201   Thumb Code    42  qsvgstructure.o(i._ZN10QSvgSwitchD1Ev)
    QSvgSwitch::~QSvgSwitch__sub_object()    0x0001d201   Thumb Code     0  qsvgstructure.o(i._ZN10QSvgSwitchD1Ev)
    QTransform::QTransform(const QTransform&) 0x0001d247   Thumb Code    76  qsvgtinydocument.o(i._ZN10QTransformC1ERKS_)
    QTransform::QTransform__sub_object(const QTransform&) 0x0001d247   Thumb Code     0  qsvgtinydocument.o(i._ZN10QTransformC1ERKS_)
    QStringList::QStringList(const QStringList&) 0x0001d293   Thumb Code    38  qsvghandler.o(i._ZN11QStringListC1ERKS_)
    QStringList::QStringList__sub_object(const QStringList&) 0x0001d293   Thumb Code     0  qsvghandler.o(i._ZN11QStringListC1ERKS_)
    QStringList::QStringList()               0x0001d2b9   Thumb Code    14  qsvghandler.o(i._ZN11QStringListC1Ev)
    QStringList::QStringList__sub_object()   0x0001d2b9   Thumb Code     0  qsvghandler.o(i._ZN11QStringListC1Ev)
    QStringList::~QStringList()              0x0001d2c7   Thumb Code    14  qsvghandler.o(i._ZN11QStringListD1Ev)
    QStringList::~QStringList__sub_object()  0x0001d2c7   Thumb Code     0  qsvghandler.o(i._ZN11QStringListD1Ev)
    QStringList::operator =(const QStringList&) 0x0001d2d5   Thumb Code    66  qsvghandler.o(i._ZN11QStringListaSERKS_)
    QSvgEllipse::~QSvgEllipse__deallocating() 0x0001d317   Thumb Code    22  qsvggraphics.o(i._ZN11QSvgEllipseD0Ev)
    QSvgEllipse::~QSvgEllipse()              0x0001d32d   Thumb Code    14  qsvggraphics.o(i._ZN11QSvgEllipseD1Ev)
    QSvgEllipse::~QSvgEllipse__sub_object()  0x0001d32d   Thumb Code     0  qsvggraphics.o(i._ZN11QSvgEllipseD1Ev)
    QSvgPolygon::~QSvgPolygon__deallocating() 0x0001d33b   Thumb Code    22  qsvggraphics.o(i._ZN11QSvgPolygonD0Ev)
    QSvgPolygon::~QSvgPolygon()              0x0001d351   Thumb Code    30  qsvggraphics.o(i._ZN11QSvgPolygonD1Ev)
    QSvgPolygon::~QSvgPolygon__sub_object()  0x0001d351   Thumb Code     0  qsvggraphics.o(i._ZN11QSvgPolygonD1Ev)
    QTextLayout::FormatRange::FormatRange(const QTextLayout::FormatRange&) 0x0001d37f   Thumb Code    38  qsvggraphics.o(i._ZN11QTextLayout11FormatRangeC1ERKS0_)
    QTextLayout::FormatRange::FormatRange__sub_object(const QTextLayout::FormatRange&) 0x0001d37f   Thumb Code     0  qsvggraphics.o(i._ZN11QTextLayout11FormatRangeC1ERKS0_)
    QTextLayout::FormatRange::FormatRange()  0x0001d3a5   Thumb Code    20  qsvggraphics.o(i._ZN11QTextLayout11FormatRangeC1Ev)
    QTextLayout::FormatRange::FormatRange__sub_object() 0x0001d3a5   Thumb Code     0  qsvggraphics.o(i._ZN11QTextLayout11FormatRangeC1Ev)
    QTextLayout::FormatRange::~FormatRange() 0x0001d3b9   Thumb Code    20  qsvggraphics.o(i._ZN11QTextLayout11FormatRangeD1Ev)
    QTextLayout::FormatRange::~FormatRange__sub_object() 0x0001d3b9   Thumb Code     0  qsvggraphics.o(i._ZN11QTextLayout11FormatRangeD1Ev)
    QPainterPath::lineTo(float, float)       0x0001d3cd   Thumb Code    28  qsvghandler.o(i._ZN12QPainterPath6lineToEff)
    QSvgPolyline::~QSvgPolyline__deallocating() 0x0001d3e9   Thumb Code    22  qsvggraphics.o(i._ZN12QSvgPolylineD0Ev)
    QSvgPolyline::~QSvgPolyline()            0x0001d401   Thumb Code    30  qsvggraphics.o(i._ZN12QSvgPolylineD1Ev)
    QSvgPolyline::~QSvgPolyline__sub_object() 0x0001d401   Thumb Code     0  qsvggraphics.o(i._ZN12QSvgPolylineD1Ev)
    QSvgAnimation::~QSvgAnimation__deallocating() 0x0001d42f   Thumb Code    24  qsvggraphics.o(i._ZN13QSvgAnimationD0Ev)
    QSvgAnimation::~QSvgAnimation()          0x0001d447   Thumb Code    14  qsvggraphics.o(i._ZN13QSvgAnimationD1Ev)
    QSvgAnimation::~QSvgAnimation__sub_object() 0x0001d447   Thumb Code     0  qsvggraphics.o(i._ZN13QSvgAnimationD1Ev)
    QSvgFillStyle::~QSvgFillStyle__deallocating() 0x0001d455   Thumb Code    22  qsvgstyle.o(i._ZN13QSvgFillStyleD0Ev)
    QSvgFillStyle::~QSvgFillStyle()          0x0001d46d   Thumb Code    54  qsvgstyle.o(i._ZN13QSvgFillStyleD1Ev)
    QSvgFillStyle::~QSvgFillStyle__sub_object() 0x0001d46d   Thumb Code     0  qsvgstyle.o(i._ZN13QSvgFillStyleD1Ev)
    QSvgFontStyle::setVariant(QFont::Capitalization) 0x0001d4cb   Thumb Code    28  qsvghandler.o(i._ZN13QSvgFontStyle10setVariantEN5QFont14CapitalizationE)
    QSvgFontStyle::setTextAnchor(QFlags<Qt::AlignmentFlag>) 0x0001d4e7   Thumb Code    22  qsvghandler.o(i._ZN13QSvgFontStyle13setTextAnchorE6QFlagsIN2Qt13AlignmentFlagEE)
    QSvgFontStyle::setStyle(QFont::Style)    0x0001d4fd   Thumb Code    28  qsvghandler.o(i._ZN13QSvgFontStyle8setStyleEN5QFont5StyleE)
    QSvgFontStyle::setWeight(int)            0x0001d519   Thumb Code    14  qsvghandler.o(i._ZN13QSvgFontStyle9setWeightEi)
    QSvgFontStyle::~QSvgFontStyle__deallocating() 0x0001d527   Thumb Code    22  qsvgstyle.o(i._ZN13QSvgFontStyleD0Ev)
    QSvgFontStyle::~QSvgFontStyle()          0x0001d53d   Thumb Code    42  qsvgstyle.o(i._ZN13QSvgFontStyleD1Ev)
    QSvgFontStyle::~QSvgFontStyle__sub_object() 0x0001d53d   Thumb Code     0  qsvgstyle.o(i._ZN13QSvgFontStyleD1Ev)
    QSvgAttributes::~QSvgAttributes()        0x0001d583   Thumb Code   274  qsvghandler.o(i._ZN14QSvgAttributesD1Ev)
    QSvgAttributes::~QSvgAttributes__sub_object() 0x0001d583   Thumb Code     0  qsvghandler.o(i._ZN14QSvgAttributesD1Ev)
    QSvgRefCounted::deref()                  0x0001d803   Thumb Code    26  qsvghandler.o(i._ZN14QSvgRefCounted5derefEv)
    QSvgRefCounted::~QSvgRefCounted__deallocating() 0x0001d81d   Thumb Code    18  qsvgstyle.o(i._ZN14QSvgRefCountedD0Ev)
    QSvgRefCounted::~QSvgRefCounted()        0x0001d82f   Thumb Code     2  qsvgstyle.o(i._ZN14QSvgRefCountedD1Ev)
    QSvgRefCounted::~QSvgRefCounted__sub_object() 0x0001d82f   Thumb Code     0  qsvgstyle.o(i._ZN14QSvgRefCountedD1Ev)
    QWidgetPrivate::aboutToDestroy()         0x0001d831   Thumb Code     2  qsvgwidget.o(i._ZN14QWidgetPrivate14aboutToDestroyEv)
    QBasicAtomicInt::ref()                   0x0001d833   Thumb Code    24  qsvggraphics.o(i._ZN15QBasicAtomicInt3refEv)
    QBasicAtomicInt::deref()                 0x0001d84b   Thumb Code    24  qsvggraphics.o(i._ZN15QBasicAtomicInt5derefEv)
    QGraphicsObject::~QGraphicsObject()      0x0001d863   Thumb Code     0  qgraphicssvgitem.o(i._ZN15QGraphicsObjectD2Ev)
    QGraphicsObject::~QGraphicsObject__sub_object() 0x0001d863   Thumb Code    26  qgraphicssvgitem.o(i._ZN15QGraphicsObjectD2Ev)
    QSvgCompOpStyle::~QSvgCompOpStyle__deallocating() 0x0001d887   Thumb Code    24  qsvgstyle.o(i._ZN15QSvgCompOpStyleD0Ev)
    QSvgCompOpStyle::~QSvgCompOpStyle()      0x0001d89f   Thumb Code    14  qsvgstyle.o(i._ZN15QSvgCompOpStyleD1Ev)
    QSvgCompOpStyle::~QSvgCompOpStyle__sub_object() 0x0001d89f   Thumb Code     0  qsvgstyle.o(i._ZN15QSvgCompOpStyleD1Ev)
    QSvgPaintEngine::qfontToSvg(const QFont&) 0x0001d8ad   Thumb Code   422  qsvggenerator.o(i._ZN15QSvgPaintEngine10qfontToSvgERK5QFont)
    QSvgPaintEngine::qbrushToSvg(const QBrush&) 0x0001dad5   Thumb Code  1258  qsvggenerator.o(i._ZN15QSvgPaintEngine11qbrushToSvgERK6QBrush)
    QSvgPaintEngine::setOutputDevice(QIODevice*) 0x0001e04d   Thumb Code    50  qsvggenerator.o(i._ZN15QSvgPaintEngine15setOutputDeviceEP9QIODevice)
    QSvgPaintEngine::saveGradientStops(QTextStream&, const QGradient*) 0x0001e0b5   Thumb Code  2344  qsvggenerator.o(i._ZN15QSvgPaintEngine17saveGradientStopsER11QTextStreamPK9QGradient)
    QSvgPaintEngine::saveGradientUnits(QTextStream&, const QGradient*) 0x0001ea39   Thumb Code   150  qsvggenerator.o(i._ZN15QSvgPaintEngine17saveGradientUnitsER11QTextStreamPK9QGradient)
    QSvgPaintEngine::generateQtDefaults()    0x0001eb2d   Thumb Code   300  qsvggenerator.o(i._ZN15QSvgPaintEngine18generateQtDefaultsEv)
    QSvgPaintEngine::saveLinearGradientBrush(const QGradient*) 0x0001ed1d   Thumb Code   570  qsvggenerator.o(i._ZN15QSvgPaintEngine23saveLinearGradientBrushEPK9QGradient)
    QSvgPaintEngine::saveRadialGradientBrush(const QGradient*) 0x0001f015   Thumb Code   646  qsvggenerator.o(i._ZN15QSvgPaintEngine23saveRadialGradientBrushEPK9QGradient)
    QSvgPaintEngine::qpenToSvg(const QPen&)  0x0001f36d   Thumb Code  1854  qsvggenerator.o(i._ZN15QSvgPaintEngine9qpenToSvgERK4QPen)
    QSvgPaintEngine::~QSvgPaintEngine__deallocating() 0x0001fb6d   Thumb Code    24  qsvggenerator.o(i._ZN15QSvgPaintEngineD0Ev)
    QSvgPaintEngine::~QSvgPaintEngine()      0x0001fb85   Thumb Code    14  qsvggenerator.o(i._ZN15QSvgPaintEngineD1Ev)
    QSvgPaintEngine::~QSvgPaintEngine__sub_object() 0x0001fb85   Thumb Code     0  qsvggenerator.o(i._ZN15QSvgPaintEngineD1Ev)
    QSvgStrokeStyle::setLineCap(Qt::PenCapStyle) 0x0001fb93   Thumb Code    28  qsvghandler.o(i._ZN15QSvgStrokeStyle10setLineCapEN2Qt11PenCapStyleE)
    QSvgStrokeStyle::setLineJoin(Qt::PenJoinStyle) 0x0001fbaf   Thumb Code    28  qsvghandler.o(i._ZN15QSvgStrokeStyle11setLineJoinEN2Qt12PenJoinStyleE)
    QSvgStrokeStyle::setVectorEffect(bool)   0x0001fbcb   Thumb Code    30  qsvghandler.o(i._ZN15QSvgStrokeStyle15setVectorEffectEb)
    QSvgStrokeStyle::setStroke(QBrush)       0x0001fbe9   Thumb Code    32  qsvghandler.o(i._ZN15QSvgStrokeStyle9setStrokeE6QBrush)
    QSvgStrokeStyle::~QSvgStrokeStyle__deallocating() 0x0001fc09   Thumb Code    22  qsvgstyle.o(i._ZN15QSvgStrokeStyleD0Ev)
    QSvgStrokeStyle::~QSvgStrokeStyle()      0x0001fc21   Thumb Code    54  qsvgstyle.o(i._ZN15QSvgStrokeStyleD1Ev)
    QSvgStrokeStyle::~QSvgStrokeStyle__sub_object() 0x0001fc21   Thumb Code     0  qsvgstyle.o(i._ZN15QSvgStrokeStyleD1Ev)
    QTextCharFormat::~QTextCharFormat()      0x0001fc7f   Thumb Code    14  qsvggraphics.o(i._ZN15QTextCharFormatD1Ev)
    QTextCharFormat::~QTextCharFormat__sub_object() 0x0001fc7f   Thumb Code     0  qsvggraphics.o(i._ZN15QTextCharFormatD1Ev)
    QtSharedPointer::ExternalRefCountData::destroy() 0x0001fc8d   Thumb Code     6  qsvggraphics.o(i._ZN15QtSharedPointer20ExternalRefCountData7destroyEv)
    QtSharedPointer::ExternalRefCountData::~ExternalRefCountData__deallocating() 0x0001fc93   Thumb Code    22  qsvggraphics.o(i._ZN15QtSharedPointer20ExternalRefCountDataD0Ev)
    QtSharedPointer::ExternalRefCountData::~ExternalRefCountData() 0x0001fca9   Thumb Code    70  qsvggraphics.o(i._ZN15QtSharedPointer20ExternalRefCountDataD1Ev)
    QtSharedPointer::ExternalRefCountData::~ExternalRefCountData__sub_object() 0x0001fca9   Thumb Code     0  qsvggraphics.o(i._ZN15QtSharedPointer20ExternalRefCountDataD1Ev)
    QGraphicsSvgItem::~QGraphicsSvgItem__deallocating() 0x0001fd15   Thumb Code    24  qgraphicssvgitem.o(i._ZN16QGraphicsSvgItemD0Ev)
    QGraphicsSvgItem::~QGraphicsSvgItem()    0x0001fd2d   Thumb Code    14  qgraphicssvgitem.o(i._ZN16QGraphicsSvgItemD1Ev)
    QGraphicsSvgItem::~QGraphicsSvgItem__sub_object() 0x0001fd2d   Thumb Code     0  qgraphicssvgitem.o(i._ZN16QGraphicsSvgItemD1Ev)
    QSvgAnimateColor::~QSvgAnimateColor__deallocating() 0x0001fd3b   Thumb Code    22  qsvgstyle.o(i._ZN16QSvgAnimateColorD0Ev)
    QSvgAnimateColor::~QSvgAnimateColor()    0x0001fd51   Thumb Code    54  qsvgstyle.o(i._ZN16QSvgAnimateColorD1Ev)
    QSvgAnimateColor::~QSvgAnimateColor__sub_object() 0x0001fd51   Thumb Code     0  qsvgstyle.o(i._ZN16QSvgAnimateColorD1Ev)
    QSvgCssAttribute::QSvgCssAttribute(const QSvgCssAttribute&) 0x0001fdaf   Thumb Code    34  qsvghandler.o(i._ZN16QSvgCssAttributeC1ERKS_)
    QSvgCssAttribute::QSvgCssAttribute__sub_object(const QSvgCssAttribute&) 0x0001fdaf   Thumb Code     0  qsvghandler.o(i._ZN16QSvgCssAttributeC1ERKS_)
    QSvgCssAttribute::QSvgCssAttribute()     0x0001fddb   Thumb Code    26  qsvghandler.o(i._ZN16QSvgCssAttributeC1Ev)
    QSvgCssAttribute::QSvgCssAttribute__sub_object() 0x0001fddb   Thumb Code     0  qsvghandler.o(i._ZN16QSvgCssAttributeC1Ev)
    QSvgCssAttribute::~QSvgCssAttribute()    0x0001fdff   Thumb Code    26  qsvghandler.o(i._ZN16QSvgCssAttributeD1Ev)
    QSvgCssAttribute::~QSvgCssAttribute__sub_object() 0x0001fdff   Thumb Code     0  qsvghandler.o(i._ZN16QSvgCssAttributeD1Ev)
    QSvgOpacityStyle::~QSvgOpacityStyle__deallocating() 0x0001fe23   Thumb Code    24  qsvgstyle.o(i._ZN16QSvgOpacityStyleD0Ev)
    QSvgOpacityStyle::~QSvgOpacityStyle()    0x0001fe3b   Thumb Code    14  qsvgstyle.o(i._ZN16QSvgOpacityStyleD1Ev)
    QSvgOpacityStyle::~QSvgOpacityStyle__sub_object() 0x0001fe3b   Thumb Code     0  qsvgstyle.o(i._ZN16QSvgOpacityStyleD1Ev)
    QSvgQualityStyle::~QSvgQualityStyle__deallocating() 0x0001fe49   Thumb Code    24  qsvgstyle.o(i._ZN16QSvgQualityStyleD0Ev)
    QSvgQualityStyle::~QSvgQualityStyle()    0x0001fe61   Thumb Code    14  qsvgstyle.o(i._ZN16QSvgQualityStyleD1Ev)
    QSvgQualityStyle::~QSvgQualityStyle__sub_object() 0x0001fe61   Thumb Code     0  qsvgstyle.o(i._ZN16QSvgQualityStyleD1Ev)
    QForeachContainer<QList<QSvgNode*>>::~QForeachContainer() 0x0001fe6f   Thumb Code    14  qsvgstructure.o(i._ZN17QForeachContainerI5QListIP8QSvgNodeEED1Ev)
    QForeachContainer<QList<QSvgNode*>>::~QForeachContainer__sub_object() 0x0001fe6f   Thumb Code     0  qsvgstructure.o(i._ZN17QForeachContainerI5QListIP8QSvgNodeEED1Ev)
    QForeachContainer<QVector<QPair<float, QColor>>>::~QForeachContainer() 0x0001fe7d   Thumb Code    14  qsvggenerator.o(i._ZN17QForeachContainerI7QVectorI5QPairIf6QColorEEED1Ev)
    QForeachContainer<QVector<QPair<float, QColor>>>::~QForeachContainer__sub_object() 0x0001fe7d   Thumb Code     0  qsvggenerator.o(i._ZN17QForeachContainerI7QVectorI5QPairIf6QColorEEED1Ev)
    QForeachContainer<QVector<float>>::~QForeachContainer() 0x0001fe8b   Thumb Code    14  qsvggenerator.o(i._ZN17QForeachContainerI7QVectorIfEED1Ev)
    QForeachContainer<QVector<float>>::~QForeachContainer__sub_object() 0x0001fe8b   Thumb Code     0  qsvggenerator.o(i._ZN17QForeachContainerI7QVectorIfEED1Ev)
    QSvgGradientStyle::~QSvgGradientStyle__deallocating() 0x0001fe99   Thumb Code    22  qsvgstyle.o(i._ZN17QSvgGradientStyleD0Ev)
    QSvgGradientStyle::~QSvgGradientStyle()  0x0001feb1   Thumb Code    56  qsvgstyle.o(i._ZN17QSvgGradientStyleD1Ev)
    QSvgGradientStyle::~QSvgGradientStyle__sub_object() 0x0001feb1   Thumb Code     0  qsvgstyle.o(i._ZN17QSvgGradientStyleD1Ev)
    QSvgStyleProperty::QSvgStyleProperty__sub_object() 0x0001ff05   Thumb Code    14  qsvgstyle.o(i._ZN17QSvgStylePropertyC2Ev)
    QSvgStyleSelector::~QSvgStyleSelector__deallocating() 0x0001ff1d   Thumb Code    28  qsvghandler.o(i._ZN17QSvgStyleSelectorD0Ev)
    QSvgStyleSelector::~QSvgStyleSelector()  0x0001ff39   Thumb Code    14  qsvghandler.o(i._ZN17QSvgStyleSelectorD1Ev)
    QSvgStyleSelector::~QSvgStyleSelector__sub_object() 0x0001ff39   Thumb Code     0  qsvghandler.o(i._ZN17QSvgStyleSelectorD1Ev)
    QSvgWidgetPrivate::QSvgWidgetPrivate()   0x0001ff49   Thumb Code    22  qsvgwidget.o(i._ZN17QSvgWidgetPrivateC1Ev)
    QSvgWidgetPrivate::QSvgWidgetPrivate__sub_object() 0x0001ff49   Thumb Code     0  qsvgwidget.o(i._ZN17QSvgWidgetPrivateC1Ev)
    QSvgWidgetPrivate::~QSvgWidgetPrivate__deallocating() 0x0001ff69   Thumb Code    24  qsvgwidget.o(i._ZN17QSvgWidgetPrivateD0Ev)
    QSvgWidgetPrivate::~QSvgWidgetPrivate()  0x0001ff81   Thumb Code    14  qsvgwidget.o(i._ZN17QSvgWidgetPrivateD1Ev)
    QSvgWidgetPrivate::~QSvgWidgetPrivate__sub_object() 0x0001ff81   Thumb Code     0  qsvgwidget.o(i._ZN17QSvgWidgetPrivateD1Ev)
    QSvgTransformStyle::~QSvgTransformStyle__deallocating() 0x0001ff8f   Thumb Code    24  qsvgstyle.o(i._ZN18QSvgTransformStyleD0Ev)
    QSvgTransformStyle::~QSvgTransformStyle() 0x0001ffa7   Thumb Code    14  qsvgstyle.o(i._ZN18QSvgTransformStyleD1Ev)
    QSvgTransformStyle::~QSvgTransformStyle__sub_object() 0x0001ffa7   Thumb Code     0  qsvgstyle.o(i._ZN18QSvgTransformStyleD1Ev)
    QPaintEnginePrivate::systemStateChanged() 0x0001ffb5   Thumb Code     2  qsvggenerator.o(i._ZN19QPaintEnginePrivate18systemStateChangedEv)
    QPaintEnginePrivate::~QPaintEnginePrivate__deallocating() 0x0001ffb7   Thumb Code    22  qsvggenerator.o(i._ZN19QPaintEnginePrivateD0Ev)
    QPaintEnginePrivate::~QPaintEnginePrivate() 0x0001ffcd   Thumb Code    36  qsvggenerator.o(i._ZN19QPaintEnginePrivateD1Ev)
    QPaintEnginePrivate::~QPaintEnginePrivate__sub_object() 0x0001ffcd   Thumb Code     0  qsvggenerator.o(i._ZN19QPaintEnginePrivateD1Ev)
    QSvgRendererPrivate::QSvgRendererPrivate() 0x00020001   Thumb Code    32  qsvgrenderer.o(i._ZN19QSvgRendererPrivateC1Ev)
    QSvgRendererPrivate::QSvgRendererPrivate__sub_object() 0x00020001   Thumb Code     0  qsvgrenderer.o(i._ZN19QSvgRendererPrivateC1Ev)
    QSvgRendererPrivate::~QSvgRendererPrivate__deallocating() 0x00020029   Thumb Code    22  qsvgrenderer.o(i._ZN19QSvgRendererPrivateD0Ev)
    QSvgRendererPrivate::~QSvgRendererPrivate() 0x00020041   Thumb Code    34  qsvgrenderer.o(i._ZN19QSvgRendererPrivateD1Ev)
    QSvgRendererPrivate::~QSvgRendererPrivate__sub_object() 0x00020041   Thumb Code     0  qsvgrenderer.o(i._ZN19QSvgRendererPrivateD1Ev)
    QSvgSolidColorStyle::brush(QPainter*, QSvgExtraStates&) 0x00020073   Thumb Code    26  qsvgstyle.o(i._ZN19QSvgSolidColorStyle5brushEP8QPainterR15QSvgExtraStates)
    QSvgSolidColorStyle::~QSvgSolidColorStyle__deallocating() 0x0002008d   Thumb Code    22  qsvgstyle.o(i._ZN19QSvgSolidColorStyleD0Ev)
    QSvgSolidColorStyle::~QSvgSolidColorStyle() 0x000200a5   Thumb Code    42  qsvgstyle.o(i._ZN19QSvgSolidColorStyleD1Ev)
    QSvgSolidColorStyle::~QSvgSolidColorStyle__sub_object() 0x000200a5   Thumb Code     0  qsvgstyle.o(i._ZN19QSvgSolidColorStyleD1Ev)
    QXmlStreamStringRef::QXmlStreamStringRef(const QStringRef&) 0x000200eb   Thumb Code    70  qsvghandler.o(i._ZN19QXmlStreamStringRefC1ERK10QStringRef)
    QXmlStreamStringRef::QXmlStreamStringRef__sub_object(const QStringRef&) 0x000200eb   Thumb Code     0  qsvghandler.o(i._ZN19QXmlStreamStringRefC1ERK10QStringRef)
    QXmlStreamStringRef::QXmlStreamStringRef(const QXmlStreamStringRef&) 0x00020141   Thumb Code    28  qsvghandler.o(i._ZN19QXmlStreamStringRefC1ERKS_)
    QXmlStreamStringRef::QXmlStreamStringRef__sub_object(const QXmlStreamStringRef&) 0x00020141   Thumb Code     0  qsvghandler.o(i._ZN19QXmlStreamStringRefC1ERKS_)
    QXmlStreamStringRef::QXmlStreamStringRef() 0x0002015d   Thumb Code    22  qsvghandler.o(i._ZN19QXmlStreamStringRefC1Ev)
    QXmlStreamStringRef::QXmlStreamStringRef__sub_object() 0x0002015d   Thumb Code     0  qsvghandler.o(i._ZN19QXmlStreamStringRefC1Ev)
    QXmlStreamStringRef::~QXmlStreamStringRef() 0x00020173   Thumb Code    14  qsvghandler.o(i._ZN19QXmlStreamStringRefD1Ev)
    QXmlStreamStringRef::~QXmlStreamStringRef__sub_object() 0x00020173   Thumb Code     0  qsvghandler.o(i._ZN19QXmlStreamStringRefD1Ev)
    QXmlStreamStringRef::operator =(const QXmlStreamStringRef&) 0x00020181   Thumb Code    26  qsvghandler.o(i._ZN19QXmlStreamStringRefaSERKS_)
    QGraphicsItemPrivate::ExtraStruct::ExtraStruct(const QGraphicsItemPrivate::ExtraStruct&) 0x0002019b   Thumb Code    30  qgraphicssvgitem.o(i._ZN20QGraphicsItemPrivate11ExtraStructC1ERKS0_)
    QGraphicsItemPrivate::ExtraStruct::ExtraStruct__sub_object(const QGraphicsItemPrivate::ExtraStruct&) 0x0002019b   Thumb Code     0  qgraphicssvgitem.o(i._ZN20QGraphicsItemPrivate11ExtraStructC1ERKS0_)
    QGraphicsItemPrivate::ExtraStruct::~ExtraStruct() 0x000201b9   Thumb Code    20  qgraphicssvgitem.o(i._ZN20QGraphicsItemPrivate11ExtraStructD1Ev)
    QGraphicsItemPrivate::ExtraStruct::~ExtraStruct__sub_object() 0x000201b9   Thumb Code     0  qgraphicssvgitem.o(i._ZN20QGraphicsItemPrivate11ExtraStructD1Ev)
    QGraphicsItemPrivate::resolveFont(unsigned) 0x000201cd   Thumb Code    62  qgraphicssvgitem.o(i._ZN20QGraphicsItemPrivate11resolveFontEj)
    QGraphicsItemPrivate::resolvePalette(unsigned) 0x0002020b   Thumb Code    62  qgraphicssvgitem.o(i._ZN20QGraphicsItemPrivate14resolvePaletteEj)
    QGraphicsItemPrivate::transformChanged() 0x00020249   Thumb Code     2  qgraphicssvgitem.o(i._ZN20QGraphicsItemPrivate16transformChangedEv)
    QGraphicsItemPrivate::setExtra(QGraphicsItemPrivate::Extra, const QVariant&) 0x0002024d   Thumb Code   212  qgraphicssvgitem.o(i._ZN20QGraphicsItemPrivate8setExtraENS_5ExtraERK8QVariant)
    QGraphicsItemPrivate::QGraphicsItemPrivate() 0x00020399   Thumb Code   904  qgraphicssvgitem.o(i._ZN20QGraphicsItemPrivateC1Ev)
    QGraphicsItemPrivate::QGraphicsItemPrivate__sub_object() 0x00020399   Thumb Code     0  qgraphicssvgitem.o(i._ZN20QGraphicsItemPrivateC1Ev)
    QGraphicsItemPrivate::~QGraphicsItemPrivate() 0x0002075d   Thumb Code    68  qgraphicssvgitem.o(i._ZN20QGraphicsItemPrivateD1Ev)
    QGraphicsItemPrivate::~QGraphicsItemPrivate__sub_object() 0x0002075d   Thumb Code     0  qgraphicssvgitem.o(i._ZN20QGraphicsItemPrivateD1Ev)
    QSvgAnimateTransform::animActive(float)  0x000207d3   Thumb Code    96  qsvgstyle.o(i._ZN20QSvgAnimateTransform10animActiveEf)
    QSvgAnimateTransform::~QSvgAnimateTransform__deallocating() 0x00020833   Thumb Code    22  qsvgstyle.o(i._ZN20QSvgAnimateTransformD0Ev)
    QSvgAnimateTransform::~QSvgAnimateTransform() 0x00020849   Thumb Code    30  qsvgstyle.o(i._ZN20QSvgAnimateTransformD1Ev)
    QSvgAnimateTransform::~QSvgAnimateTransform__sub_object() 0x00020849   Thumb Code     0  qsvgstyle.o(i._ZN20QSvgAnimateTransformD1Ev)
    QXmlStreamAttributes::~QXmlStreamAttributes() 0x00020877   Thumb Code    14  qsvghandler.o(i._ZN20QXmlStreamAttributesD1Ev)
    QXmlStreamAttributes::~QXmlStreamAttributes__sub_object() 0x00020877   Thumb Code     0  qsvghandler.o(i._ZN20QXmlStreamAttributesD1Ev)
    QSvgFillStyleProperty::QSvgFillStyleProperty__sub_object() 0x00020885   Thumb Code    20  qsvgstyle.o(i._ZN21QSvgFillStylePropertyC2Ev)
    QSvgFillStyleProperty::~QSvgFillStyleProperty__deallocating() 0x0002089d   Thumb Code    22  qsvgstyle.o(i._ZN21QSvgFillStylePropertyD0Ev)
    QSvgFillStyleProperty::~QSvgFillStyleProperty() 0x000208b3   Thumb Code     0  qsvgstyle.o(i._ZN21QSvgFillStylePropertyD2Ev)
    QSvgFillStyleProperty::~QSvgFillStyleProperty__sub_object() 0x000208b3   Thumb Code    14  qsvgstyle.o(i._ZN21QSvgFillStylePropertyD2Ev)
    QSvgViewportFillStyle::~QSvgViewportFillStyle__deallocating() 0x000208c1   Thumb Code    22  qsvgstyle.o(i._ZN21QSvgViewportFillStyleD0Ev)
    QSvgViewportFillStyle::~QSvgViewportFillStyle() 0x000208d9   Thumb Code    42  qsvgstyle.o(i._ZN21QSvgViewportFillStyleD1Ev)
    QSvgViewportFillStyle::~QSvgViewportFillStyle__sub_object() 0x000208d9   Thumb Code     0  qsvgstyle.o(i._ZN21QSvgViewportFillStyleD1Ev)
    QGraphicsEffectPrivate::~QGraphicsEffectPrivate() 0x0002091f   Thumb Code    14  qsvgwidget.o(i._ZN22QGraphicsEffectPrivateD1Ev)
    QGraphicsEffectPrivate::~QGraphicsEffectPrivate__sub_object() 0x0002091f   Thumb Code     0  qsvgwidget.o(i._ZN22QGraphicsEffectPrivateD1Ev)
    QSvgPaintEnginePrivate::_attributes::_attributes() 0x0002092d   Thumb Code   144  qsvggenerator.o(i._ZN22QSvgPaintEnginePrivate11_attributesC1Ev)
    QSvgPaintEnginePrivate::_attributes::_attributes__sub_object() 0x0002092d   Thumb Code     0  qsvggenerator.o(i._ZN22QSvgPaintEnginePrivate11_attributesC1Ev)
    QSvgPaintEnginePrivate::_attributes::~_attributes() 0x00020a3b   Thumb Code   142  qsvggenerator.o(i._ZN22QSvgPaintEnginePrivate11_attributesD1Ev)
    QSvgPaintEnginePrivate::_attributes::~_attributes__sub_object() 0x00020a3b   Thumb Code     0  qsvggenerator.o(i._ZN22QSvgPaintEnginePrivate11_attributesD1Ev)
    QSvgPaintEnginePrivate::generateGradientName() 0x00020b49   Thumb Code   110  qsvggenerator.o(i._ZN22QSvgPaintEnginePrivate20generateGradientNameEv)
    QSvgPaintEnginePrivate::QSvgPaintEnginePrivate() 0x00020bd5   Thumb Code   398  qsvggenerator.o(i._ZN22QSvgPaintEnginePrivateC1Ev)
    QSvgPaintEnginePrivate::QSvgPaintEnginePrivate__sub_object() 0x00020bd5   Thumb Code     0  qsvggenerator.o(i._ZN22QSvgPaintEnginePrivateC1Ev)
    QSvgPaintEnginePrivate::~QSvgPaintEnginePrivate__deallocating() 0x00020e2b   Thumb Code    22  qsvggenerator.o(i._ZN22QSvgPaintEnginePrivateD0Ev)
    QSvgPaintEnginePrivate::~QSvgPaintEnginePrivate() 0x00020e41   Thumb Code   114  qsvggenerator.o(i._ZN22QSvgPaintEnginePrivateD1Ev)
    QSvgPaintEnginePrivate::~QSvgPaintEnginePrivate__sub_object() 0x00020e41   Thumb Code     0  qsvggenerator.o(i._ZN22QSvgPaintEnginePrivateD1Ev)
    QGraphicsSvgItemPrivate::updateDefaultSize() 0x00020f17   Thumb Code   246  qgraphicssvgitem.o(i._ZN23QGraphicsSvgItemPrivate17updateDefaultSizeEv)
    QGraphicsSvgItemPrivate::init(QGraphicsItem*) 0x0002100d   Thumb Code   140  qgraphicssvgitem.o(i._ZN23QGraphicsSvgItemPrivate4initEP13QGraphicsItem)
    QGraphicsSvgItemPrivate::q_func()        0x00021127   Thumb Code    22  qgraphicssvgitem.o(i._ZN23QGraphicsSvgItemPrivate6q_funcEv)
    QGraphicsSvgItemPrivate::QGraphicsSvgItemPrivate() 0x0002113d   Thumb Code    62  qgraphicssvgitem.o(i._ZN23QGraphicsSvgItemPrivateC1Ev)
    QGraphicsSvgItemPrivate::QGraphicsSvgItemPrivate__sub_object() 0x0002113d   Thumb Code     0  qgraphicssvgitem.o(i._ZN23QGraphicsSvgItemPrivateC1Ev)
    QGraphicsSvgItemPrivate::~QGraphicsSvgItemPrivate__deallocating() 0x0002118f   Thumb Code    22  qgraphicssvgitem.o(i._ZN23QGraphicsSvgItemPrivateD0Ev)
    QGraphicsSvgItemPrivate::~QGraphicsSvgItemPrivate() 0x000211a5   Thumb Code    30  qgraphicssvgitem.o(i._ZN23QGraphicsSvgItemPrivateD1Ev)
    QGraphicsSvgItemPrivate::~QGraphicsSvgItemPrivate__sub_object() 0x000211a5   Thumb Code     0  qgraphicssvgitem.o(i._ZN23QGraphicsSvgItemPrivateD1Ev)
    QGraphicsBlurEffectPrivate::~QGraphicsBlurEffectPrivate__deallocating() 0x000211d3   Thumb Code    22  qsvgwidget.o(i._ZN26QGraphicsBlurEffectPrivateD0Ev)
    QGraphicsBlurEffectPrivate::~QGraphicsBlurEffectPrivate() 0x000211e9   Thumb Code    34  qsvgwidget.o(i._ZN26QGraphicsBlurEffectPrivateD1Ev)
    QGraphicsBlurEffectPrivate::~QGraphicsBlurEffectPrivate__sub_object() 0x000211e9   Thumb Code     0  qsvgwidget.o(i._ZN26QGraphicsBlurEffectPrivateD1Ev)
    QGraphicsColorizeEffectPrivate::~QGraphicsColorizeEffectPrivate__deallocating() 0x0002121b   Thumb Code    22  qsvgwidget.o(i._ZN30QGraphicsColorizeEffectPrivateD0Ev)
    QGraphicsColorizeEffectPrivate::~QGraphicsColorizeEffectPrivate() 0x00021231   Thumb Code    34  qsvgwidget.o(i._ZN30QGraphicsColorizeEffectPrivateD1Ev)
    QGraphicsColorizeEffectPrivate::~QGraphicsColorizeEffectPrivate__sub_object() 0x00021231   Thumb Code     0  qsvgwidget.o(i._ZN30QGraphicsColorizeEffectPrivateD1Ev)
    QGraphicsDropShadowEffectPrivate::~QGraphicsDropShadowEffectPrivate__deallocating() 0x00021263   Thumb Code    22  qsvgwidget.o(i._ZN32QGraphicsDropShadowEffectPrivateD0Ev)
    QGraphicsDropShadowEffectPrivate::~QGraphicsDropShadowEffectPrivate() 0x00021279   Thumb Code    34  qsvgwidget.o(i._ZN32QGraphicsDropShadowEffectPrivateD1Ev)
    QGraphicsDropShadowEffectPrivate::~QGraphicsDropShadowEffectPrivate__sub_object() 0x00021279   Thumb Code     0  qsvgwidget.o(i._ZN32QGraphicsDropShadowEffectPrivateD1Ev)
    QCss::ImportRule::~ImportRule()          0x000212ab   Thumb Code    22  qsvghandler.o(i._ZN4QCss10ImportRuleD1Ev)
    QCss::ImportRule::~ImportRule__sub_object() 0x000212ab   Thumb Code     0  qsvghandler.o(i._ZN4QCss10ImportRuleD1Ev)
    QCss::StyleSheet::StyleSheet(const QCss::StyleSheet&) 0x000212cb   Thumb Code   168  qsvghandler.o(i._ZN4QCss10StyleSheetC1ERKS0_)
    QCss::StyleSheet::StyleSheet__sub_object(const QCss::StyleSheet&) 0x000212cb   Thumb Code     0  qsvghandler.o(i._ZN4QCss10StyleSheetC1ERKS0_)
    QCss::StyleSheet::StyleSheet()           0x000213a9   Thumb Code    96  qsvghandler.o(i._ZN4QCss10StyleSheetC1Ev)
    QCss::StyleSheet::StyleSheet__sub_object() 0x000213a9   Thumb Code     0  qsvghandler.o(i._ZN4QCss10StyleSheetC1Ev)
    QCss::StyleSheet::~StyleSheet()          0x00021443   Thumb Code    70  qsvghandler.o(i._ZN4QCss10StyleSheetD1Ev)
    QCss::StyleSheet::~StyleSheet__sub_object() 0x00021443   Thumb Code     0  qsvghandler.o(i._ZN4QCss10StyleSheetD1Ev)
    QCss::StyleSheet::operator =(const QCss::StyleSheet&) 0x000214bf   Thumb Code    82  qsvghandler.o(i._ZN4QCss10StyleSheetaSERKS0_)
    QCss::Declaration::Declaration()         0x00021511   Thumb Code   108  qsvghandler.o(i._ZN4QCss11DeclarationC1Ev)
    QCss::Declaration::Declaration__sub_object() 0x00021511   Thumb Code     0  qsvghandler.o(i._ZN4QCss11DeclarationC1Ev)
    QCss::BasicSelector::BasicSelector(const QCss::BasicSelector&) 0x000215a5   Thumb Code   110  qsvghandler.o(i._ZN4QCss13BasicSelectorC1ERKS0_)
    QCss::BasicSelector::BasicSelector__sub_object(const QCss::BasicSelector&) 0x000215a5   Thumb Code     0  qsvghandler.o(i._ZN4QCss13BasicSelectorC1ERKS0_)
    QCss::BasicSelector::~BasicSelector()    0x00021631   Thumb Code    46  qsvghandler.o(i._ZN4QCss13BasicSelectorD1Ev)
    QCss::BasicSelector::~BasicSelector__sub_object() 0x00021631   Thumb Code     0  qsvghandler.o(i._ZN4QCss13BasicSelectorD1Ev)
    QCss::AttributeSelector::~AttributeSelector() 0x0002167d   Thumb Code    22  qsvghandler.o(i._ZN4QCss17AttributeSelectorD1Ev)
    QCss::AttributeSelector::~AttributeSelector__sub_object() 0x0002167d   Thumb Code     0  qsvghandler.o(i._ZN4QCss17AttributeSelectorD1Ev)
    QCss::Value::Value(const QCss::Value&)   0x0002169d   Thumb Code    30  qsvghandler.o(i._ZN4QCss5ValueC1ERKS0_)
    QCss::Value::Value__sub_object(const QCss::Value&) 0x0002169d   Thumb Code     0  qsvghandler.o(i._ZN4QCss5ValueC1ERKS0_)
    QCss::Value::~Value()                    0x000216bb   Thumb Code    20  qsvghandler.o(i._ZN4QCss5ValueD1Ev)
    QCss::Value::~Value__sub_object()        0x000216bb   Thumb Code     0  qsvghandler.o(i._ZN4QCss5ValueD1Ev)
    QCss::Parser::next()                     0x000216cf   Thumb Code    22  qsvghandler.o(i._ZN4QCss6Parser4nextEv)
    QCss::Parser::skipSpace()                0x000216e5   Thumb Code    20  qsvghandler.o(i._ZN4QCss6Parser9skipSpaceEv)
    QCss::Parser::~Parser()                  0x000216f9   Thumb Code    26  qsvghandler.o(i._ZN4QCss6ParserD1Ev)
    QCss::Parser::~Parser__sub_object()      0x000216f9   Thumb Code     0  qsvghandler.o(i._ZN4QCss6ParserD1Ev)
    QCss::Pseudo::~Pseudo()                  0x0002171d   Thumb Code    32  qsvghandler.o(i._ZN4QCss6PseudoD1Ev)
    QCss::Pseudo::~Pseudo__sub_object()      0x0002171d   Thumb Code     0  qsvghandler.o(i._ZN4QCss6PseudoD1Ev)
    QCss::PageRule::~PageRule()              0x00021749   Thumb Code    22  qsvghandler.o(i._ZN4QCss8PageRuleD1Ev)
    QCss::PageRule::~PageRule__sub_object()  0x00021749   Thumb Code     0  qsvghandler.o(i._ZN4QCss8PageRuleD1Ev)
    QCss::MediaRule::~MediaRule()            0x00021769   Thumb Code    22  qsvghandler.o(i._ZN4QCss9MediaRuleD1Ev)
    QCss::MediaRule::~MediaRule__sub_object() 0x00021769   Thumb Code     0  qsvghandler.o(i._ZN4QCss9MediaRuleD1Ev)
    QCss::StyleRule::StyleRule(const QCss::StyleRule&) 0x00021789   Thumb Code    50  qsvghandler.o(i._ZN4QCss9StyleRuleC1ERKS0_)
    QCss::StyleRule::StyleRule__sub_object(const QCss::StyleRule&) 0x00021789   Thumb Code     0  qsvghandler.o(i._ZN4QCss9StyleRuleC1ERKS0_)
    QCss::StyleRule::~StyleRule()            0x000217c5   Thumb Code    22  qsvghandler.o(i._ZN4QCss9StyleRuleD1Ev)
    QCss::StyleRule::~StyleRule__sub_object() 0x000217c5   Thumb Code     0  qsvghandler.o(i._ZN4QCss9StyleRuleD1Ev)
    QPair<float, QColor>::QPair(const QPair<float, QColor>&) 0x000217e5   Thumb Code    24  qsvgstyle.o(i._ZN5QPairIf6QColorEC1ERKS1_)
    QPair<float, QColor>::QPair__sub_object(const QPair<float, QColor>&) 0x000217e5   Thumb Code     0  qsvgstyle.o(i._ZN5QPairIf6QColorEC1ERKS1_)
    QRect::QRect()                           0x000217fd   Thumb Code    14  qsvgrenderer.o(i._ZN5QRectC1Ev)
    QRect::QRect__sub_object()               0x000217fd   Thumb Code     0  qsvgrenderer.o(i._ZN5QRectC1Ev)
    QSvgG::~QSvgG__deallocating()            0x0002180b   Thumb Code    24  qsvgstructure.o(i._ZN5QSvgGD0Ev)
    QSvgG::~QSvgG()                          0x00021823   Thumb Code    14  qsvgstructure.o(i._ZN5QSvgGD1Ev)
    QSvgG::~QSvgG__sub_object()              0x00021823   Thumb Code     0  qsvgstructure.o(i._ZN5QSvgGD1Ev)
    QColor::QColor(const QColor&)            0x00021831   Thumb Code    24  qsvghandler.o(i._ZN6QColorC1ERKS_)
    QColor::QColor__sub_object(const QColor&) 0x00021831   Thumb Code     0  qsvghandler.o(i._ZN6QColorC1ERKS_)
    QColor::QColor(int, int, int, int)       0x00021849   Thumb Code    32  qsvghandler.o(i._ZN6QColorC1Eiiii)
    QColor::QColor__sub_object(int, int, int, int) 0x00021849   Thumb Code     0  qsvghandler.o(i._ZN6QColorC1Eiiii)
    QColor::QColor()                         0x00021869   Thumb Code    14  qsvghandler.o(i._ZN6QColorC1Ev)
    QColor::QColor__sub_object()             0x00021869   Thumb Code     0  qsvghandler.o(i._ZN6QColorC1Ev)
    QDebug::maybeSpace()                     0x00021877   Thumb Code    24  qsvghandler.o(i._ZN6QDebug10maybeSpaceEv)
    QDebug::QDebug(QtMsgType)                0x0002188f   Thumb Code    92  qsvghandler.o(i._ZN6QDebugC1E9QtMsgType)
    QDebug::QDebug__sub_object(QtMsgType)    0x0002188f   Thumb Code     0  qsvghandler.o(i._ZN6QDebugC1E9QtMsgType)
    QDebug::~QDebug()                        0x00021903   Thumb Code   144  qsvghandler.o(i._ZN6QDebugD1Ev)
    QDebug::~QDebug__sub_object()            0x00021903   Thumb Code     0  qsvghandler.o(i._ZN6QDebugD1Ev)
    QDebug::operator <<(const char*)         0x000219a7   Thumb Code    44  qsvghandler.o(i._ZN6QDebuglsEPKc)
    QDebug::operator <<(const QString&)      0x000219dd   Thumb Code    38  qsvghandler.o(i._ZN6QDebuglsERK7QString)
    QRectF::QRectF(const QRect&)             0x00021a03   Thumb Code    70  qsvggraphics.o(i._ZN6QRectFC1ERK5QRect)
    QRectF::QRectF__sub_object(const QRect&) 0x00021a03   Thumb Code     0  qsvggraphics.o(i._ZN6QRectFC1ERK5QRect)
    QRectF::QRectF(const QPointF&, const QSizeF&) 0x00021a49   Thumb Code    26  qsvgtinydocument.o(i._ZN6QRectFC1ERK7QPointFRK6QSizeF)
    QRectF::QRectF__sub_object(const QPointF&, const QSizeF&) 0x00021a49   Thumb Code     0  qsvgtinydocument.o(i._ZN6QRectFC1ERK7QPointFRK6QSizeF)
    QRectF::QRectF(const QRectF&)            0x00021a63   Thumb Code    18  qsvggraphics.o(i._ZN6QRectFC1ERKS_)
    QRectF::QRectF__sub_object(const QRectF&) 0x00021a63   Thumb Code     0  qsvggraphics.o(i._ZN6QRectFC1ERKS_)
    QRectF::QRectF(float, float, float, float) 0x00021a75   Thumb Code    14  qsvghandler.o(i._ZN6QRectFC1Effff)
    QRectF::QRectF__sub_object(float, float, float, float) 0x00021a75   Thumb Code     0  qsvghandler.o(i._ZN6QRectFC1Effff)
    QRectF::QRectF()                         0x00021a83   Thumb Code    12  qsvgtinydocument.o(i._ZN6QRectFC1Ev)
    QRectF::QRectF__sub_object()             0x00021a83   Thumb Code     0  qsvgtinydocument.o(i._ZN6QRectFC1Ev)
    QPointF::QPointF()                       0x00021a8f   Thumb Code     8  qsvghandler.o(i._ZN7QPointFC1Ev)
    QPointF::QPointF__sub_object()           0x00021a8f   Thumb Code     0  qsvghandler.o(i._ZN7QPointFC1Ev)
    QString::QString(const QLatin1String&)   0x00021a97   Thumb Code    26  qsvghandler.o(i._ZN7QStringC1ERK13QLatin1String)
    QString::QString__sub_object(const QLatin1String&) 0x00021a97   Thumb Code     0  qsvghandler.o(i._ZN7QStringC1ERK13QLatin1String)
    QString::QString(const QString&)         0x00021ab1   Thumb Code    42  qsvghandler.o(i._ZN7QStringC1ERKS_)
    QString::QString__sub_object(const QString&) 0x00021ab1   Thumb Code     0  qsvghandler.o(i._ZN7QStringC1ERKS_)
    QString::QString()                       0x00021ae5   Thumb Code    18  qsvggraphics.o(i._ZN7QStringC1Ev)
    QString::QString__sub_object()           0x00021ae5   Thumb Code     0  qsvggraphics.o(i._ZN7QStringC1Ev)
    QString::~QString()                      0x00021afd   Thumb Code    24  qsvggraphics.o(i._ZN7QStringD1Ev)
    QString::~QString__sub_object()          0x00021afd   Thumb Code     0  qsvggraphics.o(i._ZN7QStringD1Ev)
    QString::operator =(const QLatin1String&) 0x00021b15   Thumb Code    42  qsvggenerator.o(i._ZN7QStringaSERK13QLatin1String)
    QString::operator +=(QChar)              0x00021b49   Thumb Code    94  qsvghandler.o(i._ZN7QStringpLE5QChar)
    QSvgArc::~QSvgArc__deallocating()        0x00021ba7   Thumb Code    22  qsvggraphics.o(i._ZN7QSvgArcD0Ev)
    QSvgArc::~QSvgArc()                      0x00021bbd   Thumb Code    30  qsvggraphics.o(i._ZN7QSvgArcD1Ev)
    QSvgArc::~QSvgArc__sub_object()          0x00021bbd   Thumb Code     0  qsvggraphics.o(i._ZN7QSvgArcD1Ev)
    QSvgUse::~QSvgUse__deallocating()        0x00021beb   Thumb Code    24  qsvggraphics.o(i._ZN7QSvgUseD0Ev)
    QSvgUse::~QSvgUse()                      0x00021c03   Thumb Code    14  qsvggraphics.o(i._ZN7QSvgUseD1Ev)
    QSvgUse::~QSvgUse__sub_object()          0x00021c03   Thumb Code     0  qsvggraphics.o(i._ZN7QSvgUseD1Ev)
    QPainter::drawPolygon(const QPolygonF&, Qt::FillRule) 0x00021c11   Thumb Code    34  qsvggraphics.o(i._ZN8QPainter11drawPolygonERK9QPolygonFN2Qt8FillRuleE)
    QPainter::translate(float, float)        0x00021c33   Thumb Code    28  qsvgfont.o(i._ZN8QPainter9translateEff)
    QSvgDefs::~QSvgDefs__deallocating()      0x00021c4f   Thumb Code    24  qsvgstructure.o(i._ZN8QSvgDefsD0Ev)
    QSvgDefs::~QSvgDefs()                    0x00021c67   Thumb Code    14  qsvgstructure.o(i._ZN8QSvgDefsD1Ev)
    QSvgDefs::~QSvgDefs__sub_object()        0x00021c67   Thumb Code     0  qsvgstructure.o(i._ZN8QSvgDefsD1Ev)
    QSvgFont::~QSvgFont__deallocating()      0x00021c75   Thumb Code    22  qsvgfont.o(i._ZN8QSvgFontD0Ev)
    QSvgFont::~QSvgFont()                    0x00021c8d   Thumb Code    36  qsvgfont.o(i._ZN8QSvgFontD1Ev)
    QSvgFont::~QSvgFont__sub_object()        0x00021c8d   Thumb Code     0  qsvgfont.o(i._ZN8QSvgFontD1Ev)
    QSvgLine::~QSvgLine__deallocating()      0x00021ccb   Thumb Code    24  qsvggraphics.o(i._ZN8QSvgLineD0Ev)
    QSvgLine::~QSvgLine()                    0x00021ce3   Thumb Code    14  qsvggraphics.o(i._ZN8QSvgLineD1Ev)
    QSvgLine::~QSvgLine__sub_object()        0x00021ce3   Thumb Code     0  qsvggraphics.o(i._ZN8QSvgLineD1Ev)
    QSvgPath::~QSvgPath__deallocating()      0x00021cf1   Thumb Code    22  qsvggraphics.o(i._ZN8QSvgPathD0Ev)
    QSvgPath::~QSvgPath()                    0x00021d09   Thumb Code    30  qsvggraphics.o(i._ZN8QSvgPathD1Ev)
    QSvgPath::~QSvgPath__sub_object()        0x00021d09   Thumb Code     0  qsvggraphics.o(i._ZN8QSvgPathD1Ev)
    QSvgRect::~QSvgRect__deallocating()      0x00021d37   Thumb Code    24  qsvggraphics.o(i._ZN8QSvgRectD0Ev)
    QSvgRect::~QSvgRect()                    0x00021d4f   Thumb Code    14  qsvggraphics.o(i._ZN8QSvgRectD1Ev)
    QSvgRect::~QSvgRect__sub_object()        0x00021d4f   Thumb Code     0  qsvggraphics.o(i._ZN8QSvgRectD1Ev)
    QVariant::QVariant()                     0x00021d5d   Thumb Code    38  qsvghandler.o(i._ZN8QVariantC1Ev)
    QVariant::QVariant__sub_object()         0x00021d5d   Thumb Code     0  qsvghandler.o(i._ZN8QVariantC1Ev)
    QHashData::willGrow()                    0x00021d83   Thumb Code    32  qsvgtinydocument.o(i._ZN9QHashData8willGrowEv)
    QPolygonF::QPolygonF(const QPolygonF&)   0x00021da3   Thumb Code    38  qsvggraphics.o(i._ZN9QPolygonFC1ERKS_)
    QPolygonF::QPolygonF__sub_object(const QPolygonF&) 0x00021da3   Thumb Code     0  qsvggraphics.o(i._ZN9QPolygonFC1ERKS_)
    QPolygonF::QPolygonF(int)                0x00021dc9   Thumb Code    18  qsvghandler.o(i._ZN9QPolygonFC1Ei)
    QPolygonF::QPolygonF__sub_object(int)    0x00021dc9   Thumb Code     0  qsvghandler.o(i._ZN9QPolygonFC1Ei)
    QPolygonF::~QPolygonF()                  0x00021ddb   Thumb Code    14  qsvggraphics.o(i._ZN9QPolygonFD1Ev)
    QPolygonF::~QPolygonF__sub_object()      0x00021ddb   Thumb Code     0  qsvggraphics.o(i._ZN9QPolygonFD1Ev)
    QSvgGlyph::QSvgGlyph(const QSvgGlyph&)   0x00021de9   Thumb Code    28  qsvgfont.o(i._ZN9QSvgGlyphC1ERKS_)
    QSvgGlyph::QSvgGlyph__sub_object(const QSvgGlyph&) 0x00021de9   Thumb Code     0  qsvgfont.o(i._ZN9QSvgGlyphC1ERKS_)
    QSvgGlyph::~QSvgGlyph()                  0x00021e05   Thumb Code    16  qsvgfont.o(i._ZN9QSvgGlyphD1Ev)
    QSvgGlyph::~QSvgGlyph__sub_object()      0x00021e05   Thumb Code     0  qsvgfont.o(i._ZN9QSvgGlyphD1Ev)
    QSvgImage::~QSvgImage__deallocating()    0x00021e15   Thumb Code    22  qsvggraphics.o(i._ZN9QSvgImageD0Ev)
    QSvgImage::~QSvgImage()                  0x00021e2d   Thumb Code    30  qsvggraphics.o(i._ZN9QSvgImageD1Ev)
    QSvgImage::~QSvgImage__sub_object()      0x00021e2d   Thumb Code     0  qsvggraphics.o(i._ZN9QSvgImageD1Ev)
    QSvgStyle::QSvgStyle()                   0x00021e5d   Thumb Code   326  qsvgnode.o(i._ZN9QSvgStyleC1Ev)
    QSvgStyle::QSvgStyle__sub_object()       0x00021e5d   Thumb Code     0  qsvgnode.o(i._ZN9QSvgStyleC1Ev)
    QSvgTspan::draw(QPainter*, QSvgExtraStates&) 0x00022011   Thumb Code    20  qsvghandler.o(i._ZN9QSvgTspan4drawEP8QPainterR15QSvgExtraStates)
    QSvgTspan::~QSvgTspan__deallocating()    0x0002205d   Thumb Code    22  qsvggraphics.o(i._ZN9QSvgTspanD0Ev)
    QSvgTspan::~QSvgTspan()                  0x00022075   Thumb Code    30  qsvggraphics.o(i._ZN9QSvgTspanD1Ev)
    QSvgTspan::~QSvgTspan__sub_object()      0x00022075   Thumb Code     0  qsvggraphics.o(i._ZN9QSvgTspanD1Ev)
    QSvgVideo::~QSvgVideo__deallocating()    0x000220a3   Thumb Code    24  qsvggraphics.o(i._ZN9QSvgVideoD0Ev)
    QSvgVideo::~QSvgVideo()                  0x000220bb   Thumb Code    14  qsvggraphics.o(i._ZN9QSvgVideoD1Ev)
    QSvgVideo::~QSvgVideo__sub_object()      0x000220bb   Thumb Code     0  qsvggraphics.o(i._ZN9QSvgVideoD1Ev)
    QStringRef::at(int) const                0x000220c9   Thumb Code    48  qsvghandler.o(i._ZNK10QStringRef2atEi)
    QStringRef::isEmpty() const              0x00022151   Thumb Code    16  qsvghandler.o(i._ZNK10QStringRef7isEmptyEv)
    QStringRef::unicode() const              0x00022161   Thumb Code    28  qsvghandler.o(i._ZNK10QStringRef7unicodeEv)
    QStringRef::constData() const            0x00022181   Thumb Code    12  qsvghandler.o(i._ZNK10QStringRef9constDataEv)
    QSvgHandler::ok() const                  0x0002218d   Thumb Code    44  qsvgtinydocument.o(i._ZNK11QSvgHandler2okEv)
    QPaintDevice::devType() const            0x000221b9   Thumb Code     6  qsvggenerator.o(i._ZNK12QPaintDevice7devTypeEv)
    QPainterPath::elementCount() const       0x000221bf   Thumb Code    54  qsvggenerator.o(i._ZNK12QPainterPath12elementCountEv)
    QPainterPath::elementAt(int) const       0x000221f5   Thumb Code   126  qsvggenerator.o(i._ZNK12QPainterPath9elementAtEi)
    QBasicAtomicInt::operator ==(int) const  0x00022341   Thumb Code    16  qsvggraphics.o(i._ZNK15QBasicAtomicInteqEi)
    QBasicAtomicInt::operator !=(int) const  0x00022351   Thumb Code    16  qsvggraphics.o(i._ZNK15QBasicAtomicIntneEi)
    QSvgPaintEngine::size() const            0x00022361   Thumb Code    22  qsvggenerator.o(i._ZNK15QSvgPaintEngine4sizeEv)
    QSvgPaintEngine::type() const            0x00022377   Thumb Code     6  qsvggenerator.o(i._ZNK15QSvgPaintEngine4typeEv)
    QSvgTinyDocument::viewBox() const        0x0002237d   Thumb Code    40  qsvgtinydocument.o(i._ZNK16QSvgTinyDocument7viewBoxEv)
    QSvgStyleSelector::isNullNode(QCss::StyleSelector::NodePtr) const 0x000223a5   Thumb Code    18  qsvghandler.o(i._ZNK17QSvgStyleSelector10isNullNodeEN4QCss13StyleSelector7NodePtrE)
    QSvgStyleSelector::nodeToName(QSvgNode*) const 0x000223b9   Thumb Code    40  qsvghandler.o(i._ZNK17QSvgStyleSelector10nodeToNameEP8QSvgNode)
    QSvgStyleSelector::parentNode(QCss::StyleSelector::NodePtr) const 0x000223e5   Thumb Code    44  qsvghandler.o(i._ZNK17QSvgStyleSelector10parentNodeEN4QCss13StyleSelector7NodePtrE)
    QSvgStyleSelector::duplicateNode(QCss::StyleSelector::NodePtr) const 0x00022411   Thumb Code    18  qsvghandler.o(i._ZNK17QSvgStyleSelector13duplicateNodeEN4QCss13StyleSelector7NodePtrE)
    QSvgStyleSelector::hasAttributes(QCss::StyleSelector::NodePtr) const 0x00022423   Thumb Code   112  qsvghandler.o(i._ZNK17QSvgStyleSelector13hasAttributesEN4QCss13StyleSelector7NodePtrE)
    QSvgStyleSelector::nodeNameEquals(QCss::StyleSelector::NodePtr, const QString&) const 0x000224ad   Thumb Code    70  qsvghandler.o(i._ZNK17QSvgStyleSelector14nodeNameEqualsEN4QCss13StyleSelector7NodePtrERK7QString)
    QSvgStyleSelector::previousSiblingNode(QCss::StyleSelector::NodePtr) const 0x000224fd   Thumb Code   114  qsvghandler.o(i._ZNK17QSvgStyleSelector19previousSiblingNodeEN4QCss13StyleSelector7NodePtrE)
    QSvgStyleSelector::nodeIds(QCss::StyleSelector::NodePtr) const 0x0002256f   Thumb Code    76  qsvghandler.o(i._ZNK17QSvgStyleSelector7nodeIdsEN4QCss13StyleSelector7NodePtrE)
    QSvgStyleSelector::freeNode(QCss::StyleSelector::NodePtr) const 0x000225d3   Thumb Code     8  qsvghandler.o(i._ZNK17QSvgStyleSelector8freeNodeEN4QCss13StyleSelector7NodePtrE)
    QSvgStyleSelector::attribute(QCss::StyleSelector::NodePtr, const QString&) const 0x000225dd   Thumb Code   186  qsvghandler.o(i._ZNK17QSvgStyleSelector9attributeEN4QCss13StyleSelector7NodePtrERK7QString)
    QSvgStyleSelector::nodeNames(QCss::StyleSelector::NodePtr) const 0x000226bf   Thumb Code    70  qsvghandler.o(i._ZNK17QSvgStyleSelector9nodeNamesEN4QCss13StyleSelector7NodePtrE)
    QXmlStreamStringRef::operator QStringRef() const 0x00022719   Thumb Code    14  qsvghandler.o(i._ZNK19QXmlStreamStringRefcv10QStringRefEv)
    QCss::Parser::symbol() const             0x00022727   Thumb Code    16  qsvghandler.o(i._ZNK4QCss6Parser6symbolEv)
    QCss::Parser::hasNext() const            0x00022737   Thumb Code    22  qsvghandler.o(i._ZNK4QCss6Parser7hasNextEv)
    QChar::toLatin1() const                  0x0002274d   Thumb Code    20  qsvghandler.o(i._ZNK5QChar8toLatin1Ev)
    QTime::isNull() const                    0x00022761   Thumb Code    16  qsvgtinydocument.o(i._ZNK5QTime6isNullEv)
    QRectF::isNull() const                   0x00022771   Thumb Code    58  qsvgtinydocument.o(i._ZNK6QRectF6isNullEv)
    QRectF::adjusted(float, float, float, float) const 0x000227b5   Thumb Code   100  qgraphicssvgitem.o(i._ZNK6QRectF8adjustedEffff)
    QMatrix::isIdentity() const              0x00022819   Thumb Code    92  qsvghandler.o(i._ZNK7QMatrix10isIdentityEv)
    QPointF::isNull() const                  0x00022875   Thumb Code    32  qsvggraphics.o(i._ZNK7QPointF6isNullEv)
    QString::at(int) const                   0x00022895   Thumb Code    48  qsvghandler.o(i._ZNK7QString2atEi)
    QString::arg(int, int, int, const QChar&) const 0x00022921   Thumb Code    36  qsvggenerator.o(i._ZNK7QString3argEiiiRK5QChar)
    QString::isNull() const                  0x00022945   Thumb Code    18  qsvghandler.o(i._ZNK7QString6isNullEv)
    QString::isEmpty() const                 0x0002295d   Thumb Code    18  qsvggraphics.o(i._ZNK7QString7isEmptyEv)
    QString::constEnd() const                0x0002296f   Thumb Code    16  qsvgfont.o(i._ZNK7QString8constEndEv)
    QPalette::windowText() const             0x0002297f   Thumb Code    18  qgraphicssvgitem.o(i._ZNK8QPalette10windowTextEv)
    QSvgNode::nodeId() const                 0x00022991   Thumb Code    20  qsvghandler.o(i._ZNK8QSvgNode6nodeIdEv)
    QListData::at(int) const                 0x000229a5   Thumb Code    20  qgraphicssvgitem.o(i._ZNK9QListData2atEi)
    QListData::end() const                   0x000229b9   Thumb Code    16  qsvggraphics.o(i._ZNK9QListData3endEv)
    QListData::size() const                  0x000229c9   Thumb Code    14  qgraphicssvgitem.o(i._ZNK9QListData4sizeEv)
    QListData::begin() const                 0x000229d7   Thumb Code    16  qsvggraphics.o(i._ZNK9QListData5beginEv)
    QSvgTspan::type() const                  0x000229e7   Thumb Code     6  qsvggraphics.o(i._ZNK9QSvgTspan4typeEv)
    thunk{-8} to QGraphicsSvgItem::~QGraphicsSvgItem__deallocating() 0x000229ed   Thumb Code    14  qgraphicssvgitem.o(i._ZThn8_N16QGraphicsSvgItemD0Ev)
    thunk{-8} to QGraphicsSvgItem::~QGraphicsSvgItem() 0x000229fb   Thumb Code    18  qgraphicssvgitem.o(i._ZThn8_N16QGraphicsSvgItemD1Ev)
    operator delete (void*, void*)           0x00022a0d   Thumb Code     2  qsvggraphics.o(i._ZdlPvS_)
    operator ==(QChar, QChar)                0x00022a0f   Thumb Code    24  qsvghandler.o(i._Zeq5QCharS_)
    operator ==(const QStringRef&, const QLatin1String&) 0x00022a27   Thumb Code    16  qsvghandler.o(i._ZeqRK10QStringRefRK13QLatin1String)
    operator <<(QTextStream&, QTextStream&(*)(QTextStream&)) 0x00022a37   Thumb Code    12  qsvggenerator.o(i._ZlsR11QTextStreamPFS0_S0_E)
    operator !=(QChar, QChar)                0x00022a43   Thumb Code    24  qsvghandler.o(i._Zne5QCharS_)
    operator !=(const QStringRef&, const QLatin1String&) 0x00022a5b   Thumb Code    22  qsvghandler.o(i._ZneRK10QStringRefRK13QLatin1String)
    operator -(const QPointF&)               0x00022a71   Thumb Code    32  qsvggraphics.o(i._ZngRK7QPointF)
    operator new(unsigned, void*)            0x00022a91   Thumb Code     6  qsvggraphics.o(i._ZnwjPv)
    qDeleteAll<QList<QSvgNode*>::const_iterator>(T1, T1) 0x00022a97   Thumb Code    56  qsvgstructure.o(t._Z10qDeleteAllIN5QListIP8QSvgNodeE14const_iteratorEEvT_S5_)
    qAbs<float>(const T1&)                   0x00022acf   Thumb Code    28  qsvghandler.o(t._Z4qAbsIfET_RKS0_)
    qMax<float>(const T1&, const T1&)        0x00022aeb   Thumb Code    24  qsvggraphics.o(t._Z4qMaxIfERKT_S2_S2_)
    qMin<float>(const T1&, const T1&)        0x00022b03   Thumb Code    24  qsvggraphics.o(t._Z4qMinIfERKT_S2_S2_)
    qMin<int>(const T1&, const T1&)          0x00022b1b   Thumb Code    18  qsvggraphics.o(t._Z4qMinIiERKT_S2_S2_)
    QMultiHash<QString, QCss::StyleRule>::QMultiHash() 0x00022b2d   Thumb Code    24  qsvghandler.o(t._ZN10QMultiHashI7QStringN4QCss9StyleRuleEEC1Ev)
    QMultiHash<QString, QCss::StyleRule>::QMultiHash__sub_object() 0x00022b2d   Thumb Code     0  qsvghandler.o(t._ZN10QMultiHashI7QStringN4QCss9StyleRuleEEC1Ev)
    QScopedPointer<QSvgGeneratorPrivate, QScopedPointerDeleter<QSvgGeneratorPrivate>>::~QScopedPointer() 0x00022b49   Thumb Code    40  qsvggenerator.o(t._ZN14QScopedPointerI20QSvgGeneratorPrivate21QScopedPointerDeleterIS0_EED1Ev)
    QScopedPointer<QSvgGeneratorPrivate, QScopedPointerDeleter<QSvgGeneratorPrivate>>::~QScopedPointer__sub_object() 0x00022b49   Thumb Code     0  qsvggenerator.o(t._ZN14QScopedPointerI20QSvgGeneratorPrivate21QScopedPointerDeleterIS0_EED1Ev)
    QSvgRefCounter<QSvgFillStyle>::~QSvgRefCounter() 0x00022b71   Thumb Code    20  qsvgnode.o(t._ZN14QSvgRefCounterI13QSvgFillStyleED1Ev)
    QSvgRefCounter<QSvgFillStyle>::~QSvgRefCounter__sub_object() 0x00022b71   Thumb Code     0  qsvgnode.o(t._ZN14QSvgRefCounterI13QSvgFillStyleED1Ev)
    QSvgRefCounter<QSvgFontStyle>::~QSvgRefCounter() 0x00022b85   Thumb Code    20  qsvgnode.o(t._ZN14QSvgRefCounterI13QSvgFontStyleED1Ev)
    QSvgRefCounter<QSvgFontStyle>::~QSvgRefCounter__sub_object() 0x00022b85   Thumb Code     0  qsvgnode.o(t._ZN14QSvgRefCounterI13QSvgFontStyleED1Ev)
    QSvgRefCounter<QSvgCompOpStyle>::~QSvgRefCounter() 0x00022b99   Thumb Code    20  qsvgstyle.o(t._ZN14QSvgRefCounterI15QSvgCompOpStyleED1Ev)
    QSvgRefCounter<QSvgCompOpStyle>::~QSvgRefCounter__sub_object() 0x00022b99   Thumb Code     0  qsvgstyle.o(t._ZN14QSvgRefCounterI15QSvgCompOpStyleED1Ev)
    QSvgRefCounter<QSvgStrokeStyle>::~QSvgRefCounter() 0x00022bad   Thumb Code    20  qsvgnode.o(t._ZN14QSvgRefCounterI15QSvgStrokeStyleED1Ev)
    QSvgRefCounter<QSvgStrokeStyle>::~QSvgRefCounter__sub_object() 0x00022bad   Thumb Code     0  qsvgnode.o(t._ZN14QSvgRefCounterI15QSvgStrokeStyleED1Ev)
    QSvgRefCounter<QSvgAnimateColor>::~QSvgRefCounter() 0x00022bc1   Thumb Code    20  qsvgnode.o(t._ZN14QSvgRefCounterI16QSvgAnimateColorED1Ev)
    QSvgRefCounter<QSvgAnimateColor>::~QSvgRefCounter__sub_object() 0x00022bc1   Thumb Code     0  qsvgnode.o(t._ZN14QSvgRefCounterI16QSvgAnimateColorED1Ev)
    QSvgRefCounter<QSvgOpacityStyle>::~QSvgRefCounter() 0x00022bd5   Thumb Code    20  qsvgstyle.o(t._ZN14QSvgRefCounterI16QSvgOpacityStyleED1Ev)
    QSvgRefCounter<QSvgOpacityStyle>::~QSvgRefCounter__sub_object() 0x00022bd5   Thumb Code     0  qsvgstyle.o(t._ZN14QSvgRefCounterI16QSvgOpacityStyleED1Ev)
    QSvgRefCounter<QSvgQualityStyle>::~QSvgRefCounter() 0x00022be9   Thumb Code    20  qsvgnode.o(t._ZN14QSvgRefCounterI16QSvgQualityStyleED1Ev)
    QSvgRefCounter<QSvgQualityStyle>::~QSvgRefCounter__sub_object() 0x00022be9   Thumb Code     0  qsvgnode.o(t._ZN14QSvgRefCounterI16QSvgQualityStyleED1Ev)
    QSvgRefCounter<QSvgGradientStyle>::~QSvgRefCounter() 0x00022bfd   Thumb Code    20  qsvgnode.o(t._ZN14QSvgRefCounterI17QSvgGradientStyleED1Ev)
    QSvgRefCounter<QSvgGradientStyle>::~QSvgRefCounter__sub_object() 0x00022bfd   Thumb Code     0  qsvgnode.o(t._ZN14QSvgRefCounterI17QSvgGradientStyleED1Ev)
    QSvgRefCounter<QSvgStyleProperty>::~QSvgRefCounter() 0x00022c11   Thumb Code    20  qsvghandler.o(t._ZN14QSvgRefCounterI17QSvgStylePropertyED1Ev)
    QSvgRefCounter<QSvgStyleProperty>::~QSvgRefCounter__sub_object() 0x00022c11   Thumb Code     0  qsvghandler.o(t._ZN14QSvgRefCounterI17QSvgStylePropertyED1Ev)
    QSvgRefCounter<QSvgStyleProperty>::operator =(QSvgStyleProperty*) 0x00022c25   Thumb Code    38  qsvghandler.o(t._ZN14QSvgRefCounterI17QSvgStylePropertyEaSEPS0_)
    QSvgRefCounter<QSvgTransformStyle>::~QSvgRefCounter() 0x00022c4b   Thumb Code    20  qsvgnode.o(t._ZN14QSvgRefCounterI18QSvgTransformStyleED1Ev)
    QSvgRefCounter<QSvgTransformStyle>::~QSvgRefCounter__sub_object() 0x00022c4b   Thumb Code     0  qsvgnode.o(t._ZN14QSvgRefCounterI18QSvgTransformStyleED1Ev)
    QSvgRefCounter<QSvgSolidColorStyle>::~QSvgRefCounter() 0x00022c5f   Thumb Code    20  qsvgnode.o(t._ZN14QSvgRefCounterI19QSvgSolidColorStyleED1Ev)
    QSvgRefCounter<QSvgSolidColorStyle>::~QSvgRefCounter__sub_object() 0x00022c5f   Thumb Code     0  qsvgnode.o(t._ZN14QSvgRefCounterI19QSvgSolidColorStyleED1Ev)
    QSvgRefCounter<QSvgAnimateTransform>::QSvgRefCounter(const QSvgRefCounter<QSvgAnimateTransform>&) 0x00022c73   Thumb Code    22  qsvgnode.o(t._ZN14QSvgRefCounterI20QSvgAnimateTransformEC1ERKS1_)
    QSvgRefCounter<QSvgAnimateTransform>::QSvgRefCounter__sub_object(const QSvgRefCounter<QSvgAnimateTransform>&) 0x00022c73   Thumb Code     0  qsvgnode.o(t._ZN14QSvgRefCounterI20QSvgAnimateTransformEC1ERKS1_)
    QSvgRefCounter<QSvgAnimateTransform>::~QSvgRefCounter() 0x00022c89   Thumb Code    20  qsvgnode.o(t._ZN14QSvgRefCounterI20QSvgAnimateTransformED1Ev)
    QSvgRefCounter<QSvgAnimateTransform>::~QSvgRefCounter__sub_object() 0x00022c89   Thumb Code     0  qsvgnode.o(t._ZN14QSvgRefCounterI20QSvgAnimateTransformED1Ev)
    QSvgRefCounter<QSvgFillStyleProperty>::QSvgRefCounter(const QSvgRefCounter<QSvgFillStyleProperty>&) 0x00022c9d   Thumb Code    22  qsvgtinydocument.o(t._ZN14QSvgRefCounterI21QSvgFillStylePropertyEC1ERKS1_)
    QSvgRefCounter<QSvgFillStyleProperty>::QSvgRefCounter__sub_object(const QSvgRefCounter<QSvgFillStyleProperty>&) 0x00022c9d   Thumb Code     0  qsvgtinydocument.o(t._ZN14QSvgRefCounterI21QSvgFillStylePropertyEC1ERKS1_)
    QSvgRefCounter<QSvgFillStyleProperty>::~QSvgRefCounter() 0x00022cb3   Thumb Code    20  qsvgtinydocument.o(t._ZN14QSvgRefCounterI21QSvgFillStylePropertyED1Ev)
    QSvgRefCounter<QSvgFillStyleProperty>::~QSvgRefCounter__sub_object() 0x00022cb3   Thumb Code     0  qsvgtinydocument.o(t._ZN14QSvgRefCounterI21QSvgFillStylePropertyED1Ev)
    QSvgRefCounter<QSvgViewportFillStyle>::~QSvgRefCounter() 0x00022cc7   Thumb Code    20  qsvgnode.o(t._ZN14QSvgRefCounterI21QSvgViewportFillStyleED1Ev)
    QSvgRefCounter<QSvgViewportFillStyle>::~QSvgRefCounter__sub_object() 0x00022cc7   Thumb Code     0  qsvgnode.o(t._ZN14QSvgRefCounterI21QSvgViewportFillStyleED1Ev)
    QSvgRefCounter<QSvgFont>::QSvgRefCounter(const QSvgRefCounter<QSvgFont>&) 0x00022cdb   Thumb Code    22  qsvgtinydocument.o(t._ZN14QSvgRefCounterI8QSvgFontEC1ERKS1_)
    QSvgRefCounter<QSvgFont>::QSvgRefCounter__sub_object(const QSvgRefCounter<QSvgFont>&) 0x00022cdb   Thumb Code     0  qsvgtinydocument.o(t._ZN14QSvgRefCounterI8QSvgFontEC1ERKS1_)
    QSvgRefCounter<QSvgFont>::~QSvgRefCounter() 0x00022cf1   Thumb Code    20  qsvgtinydocument.o(t._ZN14QSvgRefCounterI8QSvgFontED1Ev)
    QSvgRefCounter<QSvgFont>::~QSvgRefCounter__sub_object() 0x00022cf1   Thumb Code     0  qsvgtinydocument.o(t._ZN14QSvgRefCounterI8QSvgFontED1Ev)
    QVarLengthArray<float, (int)8>::append(const float&) 0x00022d05   Thumb Code    46  qsvghandler.o(t._ZN15QVarLengthArrayIfLi8EE6appendERKf)
    QVarLengthArray<float, (int)8>::realloc(int, int) 0x00022d35   Thumb Code   138  qsvghandler.o(t._ZN15QVarLengthArrayIfLi8EE7reallocEii)
    QVarLengthArray<float, (int)8>::QVarLengthArray(int) 0x00022dd9   Thumb Code    58  qsvghandler.o(t._ZN15QVarLengthArrayIfLi8EEC1Ei)
    QVarLengthArray<float, (int)8>::QVarLengthArray__sub_object(int) 0x00022dd9   Thumb Code     0  qsvghandler.o(t._ZN15QVarLengthArrayIfLi8EEC1Ei)
    QVarLengthArray<float, (int)8>::~QVarLengthArray() 0x00022e13   Thumb Code    26  qsvghandler.o(t._ZN15QVarLengthArrayIfLi8EED1Ev)
    QVarLengthArray<float, (int)8>::~QVarLengthArray__sub_object() 0x00022e13   Thumb Code     0  qsvghandler.o(t._ZN15QVarLengthArrayIfLi8EED1Ev)
    QVarLengthArray<float, (int)8>::operator [](int) 0x00022e2d   Thumb Code    42  qsvghandler.o(t._ZN15QVarLengthArrayIfLi8EEixEi)
    QExplicitlySharedDataPointer<QCss::Declaration::DeclarationData>::~QExplicitlySharedDataPointer() 0x00022e5d   Thumb Code    70  qsvghandler.o(t._ZN28QExplicitlySharedDataPointerIN4QCss11Declaration15DeclarationDataEED1Ev)
    QExplicitlySharedDataPointer<QCss::Declaration::DeclarationData>::~QExplicitlySharedDataPointer__sub_object() 0x00022e5d   Thumb Code     0  qsvghandler.o(t._ZN28QExplicitlySharedDataPointerIN4QCss11Declaration15DeclarationDataEED1Ev)
    QMap<Qt::GestureType, QFlags<Qt::GestureFlag>>::freeData(QMapData*) 0x00022eb9   Thumb Code    48  qgraphicssvgitem.o(t._ZN4QMapIN2Qt11GestureTypeE6QFlagsINS0_11GestureFlagEEE8freeDataEP8QMapData)
    QMap<Qt::GestureType, QFlags<Qt::GestureFlag>>::~QMap() 0x00022ee9   Thumb Code    38  qgraphicssvgitem.o(t._ZN4QMapIN2Qt11GestureTypeE6QFlagsINS0_11GestureFlagEEED1Ev)
    QMap<Qt::GestureType, QFlags<Qt::GestureFlag>>::~QMap__sub_object() 0x00022ee9   Thumb Code     0  qgraphicssvgitem.o(t._ZN4QMapIN2Qt11GestureTypeE6QFlagsINS0_11GestureFlagEEED1Ev)
    QMap<QWidget*, QRect>::freeData(QMapData*) 0x00022f0f   Thumb Code    48  qgraphicssvgitem.o(t._ZN4QMapIP7QWidget5QRectE8freeDataEP8QMapData)
    QMap<QWidget*, QRect>::~QMap()           0x00022f3f   Thumb Code    38  qgraphicssvgitem.o(t._ZN4QMapIP7QWidget5QRectED1Ev)
    QMap<QWidget*, QRect>::~QMap__sub_object() 0x00022f3f   Thumb Code     0  qgraphicssvgitem.o(t._ZN4QMapIP7QWidget5QRectED1Ev)
    QHash<QChar, QSvgGlyph>::deleteNode2(QHashData::Node*) 0x00022f65   Thumb Code    24  qsvgfont.o(t._ZN5QHashI5QChar9QSvgGlyphE11deleteNode2EPN9QHashData4NodeE)
    QHash<QChar, QSvgGlyph>::detach_helper() 0x00022f7d   Thumb Code    52  qsvgfont.o(t._ZN5QHashI5QChar9QSvgGlyphE13detach_helperEv)
    QHash<QChar, QSvgGlyph>::duplicateNode(QHashData::Node*, void*) 0x00022fb9   Thumb Code    46  qsvgfont.o(t._ZN5QHashI5QChar9QSvgGlyphE13duplicateNodeEPN9QHashData4NodeEPv)
    QHash<QChar, QSvgGlyph>::insert(const QChar&, const QSvgGlyph&) 0x00022ff5   Thumb Code   250  qsvgfont.o(t._ZN5QHashI5QChar9QSvgGlyphE6insertERKS0_RKS1_)
    QHash<QChar, QSvgGlyph>::freeData(QHashData*) 0x000230fd   Thumb Code    16  qsvgfont.o(t._ZN5QHashI5QChar9QSvgGlyphE8freeDataEP9QHashData)
    QHash<QChar, QSvgGlyph>::~QHash()        0x00023111   Thumb Code    30  qsvgfont.o(t._ZN5QHashI5QChar9QSvgGlyphED1Ev)
    QHash<QChar, QSvgGlyph>::~QHash__sub_object() 0x00023111   Thumb Code     0  qsvgfont.o(t._ZN5QHashI5QChar9QSvgGlyphED1Ev)
    QHash<QString, QSvgRefCounter<QSvgFillStyleProperty>>::deleteNode2(QHashData::Node*) 0x0002312f   Thumb Code    36  qsvgtinydocument.o(t._ZN5QHashI7QString14QSvgRefCounterI21QSvgFillStylePropertyEE11deleteNode2EPN9QHashData4NodeE)
    QHash<QString, QSvgRefCounter<QSvgFillStyleProperty>>::detach_helper() 0x00023161   Thumb Code    52  qsvgtinydocument.o(t._ZN5QHashI7QString14QSvgRefCounterI21QSvgFillStylePropertyEE13detach_helperEv)
    QHash<QString, QSvgRefCounter<QSvgFillStyleProperty>>::duplicateNode(QHashData::Node*, void*) 0x0002319d   Thumb Code    46  qsvgtinydocument.o(t._ZN5QHashI7QString14QSvgRefCounterI21QSvgFillStylePropertyEE13duplicateNodeEPN9QHashData4NodeEPv)
    QHash<QString, QSvgRefCounter<QSvgFillStyleProperty>>::insert(const QString&, const QSvgRefCounter<QSvgFillStyleProperty>&) 0x000231d9   Thumb Code   234  qsvgtinydocument.o(t._ZN5QHashI7QString14QSvgRefCounterI21QSvgFillStylePropertyEE6insertERKS0_RKS3_)
    QHash<QString, QSvgRefCounter<QSvgFillStyleProperty>>::freeData(QHashData*) 0x000232d1   Thumb Code    16  qsvgtinydocument.o(t._ZN5QHashI7QString14QSvgRefCounterI21QSvgFillStylePropertyEE8freeDataEP9QHashData)
    QHash<QString, QSvgRefCounter<QSvgFillStyleProperty>>::~QHash() 0x000232e5   Thumb Code    30  qsvgtinydocument.o(t._ZN5QHashI7QString14QSvgRefCounterI21QSvgFillStylePropertyEED1Ev)
    QHash<QString, QSvgRefCounter<QSvgFillStyleProperty>>::~QHash__sub_object() 0x000232e5   Thumb Code     0  qsvgtinydocument.o(t._ZN5QHashI7QString14QSvgRefCounterI21QSvgFillStylePropertyEED1Ev)
    QHash<QString, QSvgRefCounter<QSvgFont>>::deleteNode2(QHashData::Node*) 0x00023303   Thumb Code    36  qsvgtinydocument.o(t._ZN5QHashI7QString14QSvgRefCounterI8QSvgFontEE11deleteNode2EPN9QHashData4NodeE)
    QHash<QString, QSvgRefCounter<QSvgFont>>::detach_helper() 0x00023335   Thumb Code    52  qsvgtinydocument.o(t._ZN5QHashI7QString14QSvgRefCounterI8QSvgFontEE13detach_helperEv)
    QHash<QString, QSvgRefCounter<QSvgFont>>::duplicateNode(QHashData::Node*, void*) 0x00023371   Thumb Code    46  qsvgtinydocument.o(t._ZN5QHashI7QString14QSvgRefCounterI8QSvgFontEE13duplicateNodeEPN9QHashData4NodeEPv)
    QHash<QString, QSvgRefCounter<QSvgFont>>::insert(const QString&, const QSvgRefCounter<QSvgFont>&) 0x000233ad   Thumb Code   234  qsvgtinydocument.o(t._ZN5QHashI7QString14QSvgRefCounterI8QSvgFontEE6insertERKS0_RKS3_)
    QHash<QString, QSvgRefCounter<QSvgFont>>::freeData(QHashData*) 0x000234a5   Thumb Code    16  qsvgtinydocument.o(t._ZN5QHashI7QString14QSvgRefCounterI8QSvgFontEE8freeDataEP9QHashData)
    QHash<QString, QSvgRefCounter<QSvgFont>>::~QHash() 0x000234b9   Thumb Code    30  qsvgtinydocument.o(t._ZN5QHashI7QString14QSvgRefCounterI8QSvgFontEED1Ev)
    QHash<QString, QSvgRefCounter<QSvgFont>>::~QHash__sub_object() 0x000234b9   Thumb Code     0  qsvgtinydocument.o(t._ZN5QHashI7QString14QSvgRefCounterI8QSvgFontEED1Ev)
    QHash<QString, QCss::StyleRule>::deleteNode2(QHashData::Node*) 0x000234d7   Thumb Code    36  qsvghandler.o(t._ZN5QHashI7QStringN4QCss9StyleRuleEE11deleteNode2EPN9QHashData4NodeE)
    QHash<QString, QCss::StyleRule>::detach_helper() 0x00023509   Thumb Code    52  qsvghandler.o(t._ZN5QHashI7QStringN4QCss9StyleRuleEE13detach_helperEv)
    QHash<QString, QCss::StyleRule>::duplicateNode(QHashData::Node*, void*) 0x00023545   Thumb Code    76  qsvghandler.o(t._ZN5QHashI7QStringN4QCss9StyleRuleEE13duplicateNodeEPN9QHashData4NodeEPv)
    QHash<QString, QCss::StyleRule>::freeData(QHashData*) 0x000235ad   Thumb Code    16  qsvghandler.o(t._ZN5QHashI7QStringN4QCss9StyleRuleEE8freeDataEP9QHashData)
    QHash<QString, QCss::StyleRule>::~QHash() 0x000235c1   Thumb Code    30  qsvghandler.o(t._ZN5QHashI7QStringN4QCss9StyleRuleEED1Ev)
    QHash<QString, QCss::StyleRule>::~QHash__sub_object() 0x000235c1   Thumb Code     0  qsvghandler.o(t._ZN5QHashI7QStringN4QCss9StyleRuleEED1Ev)
    QHash<QString, QSvgNode*>::deleteNode2(QHashData::Node*) 0x000235df   Thumb Code    24  qsvgstructure.o(t._ZN5QHashI7QStringP8QSvgNodeE11deleteNode2EPN9QHashData4NodeE)
    QHash<QString, QSvgNode*>::detach_helper() 0x000235f9   Thumb Code    52  qsvgtinydocument.o(t._ZN5QHashI7QStringP8QSvgNodeE13detach_helperEv)
    QHash<QString, QSvgNode*>::duplicateNode(QHashData::Node*, void*) 0x00023635   Thumb Code    46  qsvgtinydocument.o(t._ZN5QHashI7QStringP8QSvgNodeE13duplicateNodeEPN9QHashData4NodeEPv)
    QHash<QString, QSvgNode*>::insert(const QString&, QSvgNode*const &) 0x00023671   Thumb Code   194  qsvgtinydocument.o(t._ZN5QHashI7QStringP8QSvgNodeE6insertERKS0_RKS2_)
    QHash<QString, QSvgNode*>::freeData(QHashData*) 0x00023741   Thumb Code    16  qsvgstructure.o(t._ZN5QHashI7QStringP8QSvgNodeE8freeDataEP9QHashData)
    QHash<QString, QSvgNode*>::~QHash()      0x00023755   Thumb Code    30  qsvgstructure.o(t._ZN5QHashI7QStringP8QSvgNodeED1Ev)
    QHash<QString, QSvgNode*>::~QHash__sub_object() 0x00023755   Thumb Code     0  qsvgstructure.o(t._ZN5QHashI7QStringP8QSvgNodeED1Ev)
    QList<QSvgRefCounter<QSvgAnimateTransform>>::detach_helper(int) 0x00023773   Thumb Code    94  qsvgnode.o(t._ZN5QListI14QSvgRefCounterI20QSvgAnimateTransformEE13detach_helperEi)
    QList<QSvgRefCounter<QSvgAnimateTransform>>::detach_helper() 0x000237d9   Thumb Code    16  qsvgnode.o(t._ZN5QListI14QSvgRefCounterI20QSvgAnimateTransformEE13detach_helperEv)
    QList<QSvgRefCounter<QSvgAnimateTransform>>::node_destruct(QList<QSvgRefCounter<QSvgAnimateTransform>>::Node*, QList<QSvgRefCounter<QSvgAnimateTransform>>::Node*) 0x000237e9   Thumb Code    38  qsvgnode.o(t._ZN5QListI14QSvgRefCounterI20QSvgAnimateTransformEE13node_destructEPNS3_4NodeES5_)
    QList<QSvgRefCounter<QSvgAnimateTransform>>::node_construct(QList<QSvgRefCounter<QSvgAnimateTransform>>::Node*, const QSvgRefCounter<QSvgAnimateTransform>&) 0x0002380f   Thumb Code    34  qsvgnode.o(t._ZN5QListI14QSvgRefCounterI20QSvgAnimateTransformEE14node_constructEPNS3_4NodeERKS2_)
    QList<QSvgRefCounter<QSvgAnimateTransform>>::detach_helper_grow(int, int) 0x0002383f   Thumb Code   208  qsvgnode.o(t._ZN5QListI14QSvgRefCounterI20QSvgAnimateTransformEE18detach_helper_growEii)
    QList<QSvgRefCounter<QSvgAnimateTransform>>::free(QListData::Data*) 0x0002391f   Thumb Code    58  qsvgnode.o(t._ZN5QListI14QSvgRefCounterI20QSvgAnimateTransformEE4freeEPN9QListData4DataE)
    QList<QSvgRefCounter<QSvgAnimateTransform>>::append(const QSvgRefCounter<QSvgAnimateTransform>&) 0x00023959   Thumb Code   106  qsvgnode.o(t._ZN5QListI14QSvgRefCounterI20QSvgAnimateTransformEE6appendERKS2_)
    QList<QSvgRefCounter<QSvgAnimateTransform>>::node_copy(QList<QSvgRefCounter<QSvgAnimateTransform>>::Node*, QList<QSvgRefCounter<QSvgAnimateTransform>>::Node*, QList<QSvgRefCounter<QSvgAnimateTransform>>::Node*) 0x000239d7   Thumb Code    92  qsvgnode.o(t._ZN5QListI14QSvgRefCounterI20QSvgAnimateTransformEE9node_copyEPNS3_4NodeES5_S5_)
    QList<QSvgRefCounter<QSvgAnimateTransform>>::~QList() 0x00023a49   Thumb Code    32  qsvgnode.o(t._ZN5QListI14QSvgRefCounterI20QSvgAnimateTransformEED1Ev)
    QList<QSvgRefCounter<QSvgAnimateTransform>>::~QList__sub_object() 0x00023a49   Thumb Code     0  qsvgnode.o(t._ZN5QListI14QSvgRefCounterI20QSvgAnimateTransformEED1Ev)
    QList<QColor>::detach_helper(int)        0x00023a69   Thumb Code   186  qsvgstyle.o(t._ZN5QListI6QColorE13detach_helperEi)
    QList<QColor>::detach_helper()           0x00023b43   Thumb Code    16  qsvgstyle.o(t._ZN5QListI6QColorE13detach_helperEv)
    QList<QColor>::node_destruct(QList<QColor>::Node*, QList<QColor>::Node*) 0x00023b53   Thumb Code    26  qsvghandler.o(t._ZN5QListI6QColorE13node_destructEPNS1_4NodeES3_)
    QList<QColor>::node_construct(QList<QColor>::Node*, const QColor&) 0x00023b6d   Thumb Code    34  qsvghandler.o(t._ZN5QListI6QColorE14node_constructEPNS1_4NodeERKS0_)
    QList<QColor>::detach_helper_grow(int, int) 0x00023b9d   Thumb Code   208  qsvghandler.o(t._ZN5QListI6QColorE18detach_helper_growEii)
    QList<QColor>::free(QListData::Data*)    0x00023c7d   Thumb Code    52  qsvghandler.o(t._ZN5QListI6QColorE4freeEPN9QListData4DataE)
    QList<QColor>::append(const QColor&)     0x00023cb1   Thumb Code   106  qsvghandler.o(t._ZN5QListI6QColorE6appendERKS0_)
    QList<QColor>::node_copy(QList<QColor>::Node*, QList<QColor>::Node*, QList<QColor>::Node*) 0x00023d2f   Thumb Code    80  qsvghandler.o(t._ZN5QListI6QColorE9node_copyEPNS1_4NodeES3_S3_)
    QList<QColor>::~QList()                  0x00023d95   Thumb Code    32  qsvghandler.o(t._ZN5QListI6QColorED1Ev)
    QList<QColor>::~QList__sub_object()      0x00023d95   Thumb Code     0  qsvghandler.o(t._ZN5QListI6QColorED1Ev)
    QList<QColor>::operator [](int)          0x00023db5   Thumb Code    88  qsvgstyle.o(t._ZN5QListI6QColorEixEi)
    QList<QString>::detach_helper(int)       0x00023e75   Thumb Code    94  qsvghandler.o(t._ZN5QListI7QStringE13detach_helperEi)
    QList<QString>::detach_helper()          0x00023edb   Thumb Code    16  qsvghandler.o(t._ZN5QListI7QStringE13detach_helperEv)
    QList<QString>::node_destruct(QList<QString>::Node*, QList<QString>::Node*) 0x00023eeb   Thumb Code    26  qsvghandler.o(t._ZN5QListI7QStringE13node_destructEPNS1_4NodeES3_)
    QList<QString>::node_construct(QList<QString>::Node*, const QString&) 0x00023f05   Thumb Code    36  qsvghandler.o(t._ZN5QListI7QStringE14node_constructEPNS1_4NodeERKS0_)
    QList<QString>::detach_helper_grow(int, int) 0x00023f37   Thumb Code   208  qsvghandler.o(t._ZN5QListI7QStringE18detach_helper_growEii)
    QList<QString>::free(QListData::Data*)   0x00024017   Thumb Code    52  qsvghandler.o(t._ZN5QListI7QStringE4freeEPN9QListData4DataE)
    QList<QString>::append(const QString&)   0x0002404d   Thumb Code   114  qsvghandler.o(t._ZN5QListI7QStringE6appendERKS0_)
    QList<QString>::node_copy(QList<QString>::Node*, QList<QString>::Node*, QList<QString>::Node*) 0x000240d3   Thumb Code    82  qsvghandler.o(t._ZN5QListI7QStringE9node_copyEPNS1_4NodeES3_S3_)
    QList<QString>::QList()                  0x0002413d   Thumb Code    18  qsvghandler.o(t._ZN5QListI7QStringEC1Ev)
    QList<QString>::QList__sub_object()      0x0002413d   Thumb Code     0  qsvghandler.o(t._ZN5QListI7QStringEC1Ev)
    QList<QString>::~QList()                 0x00024155   Thumb Code    32  qsvghandler.o(t._ZN5QListI7QStringED1Ev)
    QList<QString>::~QList__sub_object()     0x00024155   Thumb Code     0  qsvghandler.o(t._ZN5QListI7QStringED1Ev)
    QList<QTextLayout::FormatRange>::detach_helper(int) 0x00024175   Thumb Code    94  qsvggraphics.o(t._ZN5QListIN11QTextLayout11FormatRangeEE13detach_helperEi)
    QList<QTextLayout::FormatRange>::detach_helper() 0x000241db   Thumb Code    16  qsvggraphics.o(t._ZN5QListIN11QTextLayout11FormatRangeEE13detach_helperEv)
    QList<QTextLayout::FormatRange>::node_destruct(QList<QTextLayout::FormatRange>::Node*, QList<QTextLayout::FormatRange>::Node*) 0x000241eb   Thumb Code    38  qsvggraphics.o(t._ZN5QListIN11QTextLayout11FormatRangeEE13node_destructEPNS2_4NodeES4_)
    QList<QTextLayout::FormatRange>::node_construct(QList<QTextLayout::FormatRange>::Node*, const QTextLayout::FormatRange&) 0x00024211   Thumb Code    34  qsvggraphics.o(t._ZN5QListIN11QTextLayout11FormatRangeEE14node_constructEPNS2_4NodeERKS1_)
    QList<QTextLayout::FormatRange>::detach_helper_grow(int, int) 0x00024241   Thumb Code   208  qsvggraphics.o(t._ZN5QListIN11QTextLayout11FormatRangeEE18detach_helper_growEii)
    QList<QTextLayout::FormatRange>::free(QListData::Data*) 0x00024321   Thumb Code    52  qsvggraphics.o(t._ZN5QListIN11QTextLayout11FormatRangeEE4freeEPN9QListData4DataE)
    QList<QTextLayout::FormatRange>::append(const QTextLayout::FormatRange&) 0x00024355   Thumb Code   106  qsvggraphics.o(t._ZN5QListIN11QTextLayout11FormatRangeEE6appendERKS1_)
    QList<QTextLayout::FormatRange>::node_copy(QList<QTextLayout::FormatRange>::Node*, QList<QTextLayout::FormatRange>::Node*, QList<QTextLayout::FormatRange>::Node*) 0x000243d3   Thumb Code    92  qsvggraphics.o(t._ZN5QListIN11QTextLayout11FormatRangeEE9node_copyEPNS2_4NodeES4_S4_)
    QList<QTextLayout::FormatRange>::QList(const QList<QTextLayout::FormatRange>&) 0x00024445   Thumb Code    36  qsvggraphics.o(t._ZN5QListIN11QTextLayout11FormatRangeEEC1ERKS2_)
    QList<QTextLayout::FormatRange>::QList__sub_object(const QList<QTextLayout::FormatRange>&) 0x00024445   Thumb Code     0  qsvggraphics.o(t._ZN5QListIN11QTextLayout11FormatRangeEEC1ERKS2_)
    QList<QTextLayout::FormatRange>::QList() 0x00024469   Thumb Code    18  qsvggraphics.o(t._ZN5QListIN11QTextLayout11FormatRangeEEC1Ev)
    QList<QTextLayout::FormatRange>::QList__sub_object() 0x00024469   Thumb Code     0  qsvggraphics.o(t._ZN5QListIN11QTextLayout11FormatRangeEEC1Ev)
    QList<QTextLayout::FormatRange>::~QList() 0x00024481   Thumb Code    32  qsvggraphics.o(t._ZN5QListIN11QTextLayout11FormatRangeEED1Ev)
    QList<QTextLayout::FormatRange>::~QList__sub_object() 0x00024481   Thumb Code     0  qsvggraphics.o(t._ZN5QListIN11QTextLayout11FormatRangeEED1Ev)
    QList<QTextLayout::FormatRange>::operator =(const QList<QTextLayout::FormatRange>&) 0x000244a1   Thumb Code    64  qsvggraphics.o(t._ZN5QListIN11QTextLayout11FormatRangeEEaSERKS2_)
    QList<QGraphicsItemPrivate::ExtraStruct>::detach_helper(int) 0x000244e1   Thumb Code    94  qgraphicssvgitem.o(t._ZN5QListIN20QGraphicsItemPrivate11ExtraStructEE13detach_helperEi)
    QList<QGraphicsItemPrivate::ExtraStruct>::detach_helper() 0x00024547   Thumb Code    16  qgraphicssvgitem.o(t._ZN5QListIN20QGraphicsItemPrivate11ExtraStructEE13detach_helperEv)
    QList<QGraphicsItemPrivate::ExtraStruct>::node_destruct(QList<QGraphicsItemPrivate::ExtraStruct>::Node*, QList<QGraphicsItemPrivate::ExtraStruct>::Node*) 0x00024557   Thumb Code    38  qgraphicssvgitem.o(t._ZN5QListIN20QGraphicsItemPrivate11ExtraStructEE13node_destructEPNS2_4NodeES4_)
    QList<QGraphicsItemPrivate::ExtraStruct>::node_construct(QList<QGraphicsItemPrivate::ExtraStruct>::Node*, const QGraphicsItemPrivate::ExtraStruct&) 0x0002457d   Thumb Code    34  qgraphicssvgitem.o(t._ZN5QListIN20QGraphicsItemPrivate11ExtraStructEE14node_constructEPNS2_4NodeERKS1_)
    QList<QGraphicsItemPrivate::ExtraStruct>::detach_helper_grow(int, int) 0x000245ad   Thumb Code   208  qgraphicssvgitem.o(t._ZN5QListIN20QGraphicsItemPrivate11ExtraStructEE18detach_helper_growEii)
    QList<QGraphicsItemPrivate::ExtraStruct>::free(QListData::Data*) 0x0002468d   Thumb Code    58  qgraphicssvgitem.o(t._ZN5QListIN20QGraphicsItemPrivate11ExtraStructEE4freeEPN9QListData4DataE)
    QList<QGraphicsItemPrivate::ExtraStruct>::append(const QGraphicsItemPrivate::ExtraStruct&) 0x000246c9   Thumb Code   106  qgraphicssvgitem.o(t._ZN5QListIN20QGraphicsItemPrivate11ExtraStructEE6appendERKS1_)
    QList<QGraphicsItemPrivate::ExtraStruct>::node_copy(QList<QGraphicsItemPrivate::ExtraStruct>::Node*, QList<QGraphicsItemPrivate::ExtraStruct>::Node*, QList<QGraphicsItemPrivate::ExtraStruct>::Node*) 0x00024747   Thumb Code    92  qgraphicssvgitem.o(t._ZN5QListIN20QGraphicsItemPrivate11ExtraStructEE9node_copyEPNS2_4NodeES4_S4_)
    QList<QGraphicsItemPrivate::ExtraStruct>::~QList() 0x000247b9   Thumb Code    32  qgraphicssvgitem.o(t._ZN5QListIN20QGraphicsItemPrivate11ExtraStructEED1Ev)
    QList<QGraphicsItemPrivate::ExtraStruct>::~QList__sub_object() 0x000247b9   Thumb Code     0  qgraphicssvgitem.o(t._ZN5QListIN20QGraphicsItemPrivate11ExtraStructEED1Ev)
    QList<QGraphicsItem*>::free(QListData::Data*) 0x000247d9   Thumb Code    58  qgraphicssvgitem.o(t._ZN5QListIP13QGraphicsItemE4freeEPN9QListData4DataE)
    QList<QGraphicsItem*>::~QList()          0x00024813   Thumb Code    32  qgraphicssvgitem.o(t._ZN5QListIP13QGraphicsItemED1Ev)
    QList<QGraphicsItem*>::~QList__sub_object() 0x00024813   Thumb Code     0  qgraphicssvgitem.o(t._ZN5QListIP13QGraphicsItemED1Ev)
    QList<QSvgStructureNode*>::free(QListData::Data*) 0x00024833   Thumb Code    58  qsvgstructure.o(t._ZN5QListIP17QSvgStructureNodeE4freeEPN9QListData4DataE)
    QList<QSvgStructureNode*>::~QList()      0x0002486d   Thumb Code    32  qsvgstructure.o(t._ZN5QListIP17QSvgStructureNodeED1Ev)
    QList<QSvgStructureNode*>::~QList__sub_object() 0x0002486d   Thumb Code     0  qsvgstructure.o(t._ZN5QListIP17QSvgStructureNodeED1Ev)
    QList<QSvgNode*>::detach_helper(int)     0x0002488d   Thumb Code    94  qsvgstructure.o(t._ZN5QListIP8QSvgNodeE13detach_helperEi)
    QList<QSvgNode*>::detach_helper()        0x000248f3   Thumb Code    16  qsvghandler.o(t._ZN5QListIP8QSvgNodeE13detach_helperEv)
    QList<QSvgNode*>::detach_helper_grow(int, int) 0x00024903   Thumb Code   204  qsvgstructure.o(t._ZN5QListIP8QSvgNodeE18detach_helper_growEii)
    QList<QSvgNode*>::end()                  0x000249df   Thumb Code    26  qsvgstructure.o(t._ZN5QListIP8QSvgNodeE3endEv)
    QList<QSvgNode*>::free(QListData::Data*) 0x000249f9   Thumb Code    52  qsvghandler.o(t._ZN5QListIP8QSvgNodeE4freeEPN9QListData4DataE)
    QList<QSvgNode*>::begin()                0x00024a2d   Thumb Code    26  qsvgstructure.o(t._ZN5QListIP8QSvgNodeE5beginEv)
    QList<QSvgNode*>::append(QSvgNode*const &) 0x00024a49   Thumb Code    94  qsvgstructure.o(t._ZN5QListIP8QSvgNodeE6appendERKS1_)
    QList<QSvgNode*>::detach()               0x00024ab7   Thumb Code    24  qsvghandler.o(t._ZN5QListIP8QSvgNodeE6detachEv)
    QList<QSvgNode*>::node_copy(QList<QSvgNode*>::Node*, QList<QSvgNode*>::Node*, QList<QSvgNode*>::Node*) 0x00024acf   Thumb Code    46  qsvgstructure.o(t._ZN5QListIP8QSvgNodeE9node_copyEPNS2_4NodeES4_S4_)
    QList<QSvgNode*>::QList()                0x00024afd   Thumb Code    18  qsvghandler.o(t._ZN5QListIP8QSvgNodeEC1Ev)
    QList<QSvgNode*>::QList__sub_object()    0x00024afd   Thumb Code     0  qsvghandler.o(t._ZN5QListIP8QSvgNodeEC1Ev)
    QList<QSvgNode*>::~QList()               0x00024b15   Thumb Code    32  qsvghandler.o(t._ZN5QListIP8QSvgNodeED1Ev)
    QList<QSvgNode*>::~QList__sub_object()   0x00024b15   Thumb Code     0  qsvghandler.o(t._ZN5QListIP8QSvgNodeED1Ev)
    QList<QGraphicsItem**>::free(QListData::Data*) 0x00024b35   Thumb Code    58  qgraphicssvgitem.o(t._ZN5QListIPP13QGraphicsItemE4freeEPN9QListData4DataE)
    QList<QGraphicsItem**>::~QList()         0x00024b6f   Thumb Code    32  qgraphicssvgitem.o(t._ZN5QListIPP13QGraphicsItemED1Ev)
    QList<QGraphicsItem**>::~QList__sub_object() 0x00024b6f   Thumb Code     0  qgraphicssvgitem.o(t._ZN5QListIPP13QGraphicsItemED1Ev)
    QStack<QTextCharFormat>::~QStack()       0x00024b8f   Thumb Code    14  qsvggraphics.o(t._ZN6QStackI15QTextCharFormatED1Ev)
    QStack<QTextCharFormat>::~QStack__sub_object() 0x00024b8f   Thumb Code     0  qsvggraphics.o(t._ZN6QStackI15QTextCharFormatED1Ev)
    QStack<QColor>::pop()                    0x00024b9d   Thumb Code    98  qsvghandler.o(t._ZN6QStackI6QColorE3popEv)
    QStack<QColor>::QStack()                 0x00024c51   Thumb Code    20  qsvghandler.o(t._ZN6QStackI6QColorEC1Ev)
    QStack<QColor>::QStack__sub_object()     0x00024c51   Thumb Code     0  qsvghandler.o(t._ZN6QStackI6QColorEC1Ev)
    QStack<QColor>::~QStack()                0x00024c69   Thumb Code    14  qsvghandler.o(t._ZN6QStackI6QColorED1Ev)
    QStack<QColor>::~QStack__sub_object()    0x00024c69   Thumb Code     0  qsvghandler.o(t._ZN6QStackI6QColorED1Ev)
    QStack<QSvgHandler::CurrentNode>::top()  0x00024c79   Thumb Code    62  qsvghandler.o(t._ZN6QStackIN11QSvgHandler11CurrentNodeEE3topEv)
    QStack<QSvgHandler::CurrentNode>::QStack() 0x00024d09   Thumb Code    20  qsvghandler.o(t._ZN6QStackIN11QSvgHandler11CurrentNodeEEC1Ev)
    QStack<QSvgHandler::CurrentNode>::QStack__sub_object() 0x00024d09   Thumb Code     0  qsvghandler.o(t._ZN6QStackIN11QSvgHandler11CurrentNodeEEC1Ev)
    QStack<QSvgHandler::CurrentNode>::~QStack() 0x00024d21   Thumb Code    14  qsvghandler.o(t._ZN6QStackIN11QSvgHandler11CurrentNodeEED1Ev)
    QStack<QSvgHandler::CurrentNode>::~QStack__sub_object() 0x00024d21   Thumb Code     0  qsvghandler.o(t._ZN6QStackIN11QSvgHandler11CurrentNodeEED1Ev)
    QStack<QSvgText::WhitespaceMode>::top()  0x00024d31   Thumb Code    62  qsvghandler.o(t._ZN6QStackIN8QSvgText14WhitespaceModeEE3topEv)
    QStack<QSvgText::WhitespaceMode>::push(const QSvgText::WhitespaceMode&) 0x00024dc1   Thumb Code    16  qsvghandler.o(t._ZN6QStackIN8QSvgText14WhitespaceModeEE4pushERKS1_)
    QStack<QSvgText::WhitespaceMode>::QStack() 0x00024dd1   Thumb Code    20  qsvghandler.o(t._ZN6QStackIN8QSvgText14WhitespaceModeEEC1Ev)
    QStack<QSvgText::WhitespaceMode>::QStack__sub_object() 0x00024dd1   Thumb Code     0  qsvghandler.o(t._ZN6QStackIN8QSvgText14WhitespaceModeEEC1Ev)
    QStack<QSvgText::WhitespaceMode>::~QStack() 0x00024de9   Thumb Code    14  qsvghandler.o(t._ZN6QStackIN8QSvgText14WhitespaceModeEED1Ev)
    QStack<QSvgText::WhitespaceMode>::~QStack__sub_object() 0x00024de9   Thumb Code     0  qsvghandler.o(t._ZN6QStackIN8QSvgText14WhitespaceModeEED1Ev)
    QStack<QSvgNode*>::top()                 0x00024df9   Thumb Code    62  qsvghandler.o(t._ZN6QStackIP8QSvgNodeE3topEv)
    QStack<QSvgNode*>::QStack()              0x00024e89   Thumb Code    20  qsvghandler.o(t._ZN6QStackIP8QSvgNodeEC1Ev)
    QStack<QSvgNode*>::QStack__sub_object()  0x00024e89   Thumb Code     0  qsvghandler.o(t._ZN6QStackIP8QSvgNodeEC1Ev)
    QStack<QSvgNode*>::~QStack()             0x00024ea1   Thumb Code    14  qsvghandler.o(t._ZN6QStackIP8QSvgNodeED1Ev)
    QStack<QSvgNode*>::~QStack__sub_object() 0x00024ea1   Thumb Code     0  qsvghandler.o(t._ZN6QStackIP8QSvgNodeED1Ev)
    QStack<int>::top()                       0x00024eb1   Thumb Code    62  qsvghandler.o(t._ZN6QStackIiE3topEv)
    QStack<int>::QStack()                    0x00024f41   Thumb Code    20  qsvghandler.o(t._ZN6QStackIiEC1Ev)
    QStack<int>::QStack__sub_object()        0x00024f41   Thumb Code     0  qsvghandler.o(t._ZN6QStackIiEC1Ev)
    QStack<int>::~QStack()                   0x00024f59   Thumb Code    14  qsvghandler.o(t._ZN6QStackIiED1Ev)
    QStack<int>::~QStack__sub_object()       0x00024f59   Thumb Code     0  qsvghandler.o(t._ZN6QStackIiED1Ev)
    QVector<QTextCharFormat>::free(QVectorTypedData<QTextCharFormat>*) 0x00024f67   Thumb Code    52  qsvggraphics.o(t._ZN7QVectorI15QTextCharFormatE4freeEP16QVectorTypedDataIS0_E)
    QVector<QTextCharFormat>::~QVector()     0x00024f9b   Thumb Code    34  qsvggraphics.o(t._ZN7QVectorI15QTextCharFormatED1Ev)
    QVector<QTextCharFormat>::~QVector__sub_object() 0x00024f9b   Thumb Code     0  qsvggraphics.o(t._ZN7QVectorI15QTextCharFormatED1Ev)
    QVector<QSvgCssAttribute>::free(QVectorTypedData<QSvgCssAttribute>*) 0x00024fbd   Thumb Code    54  qsvghandler.o(t._ZN7QVectorI16QSvgCssAttributeE4freeEP16QVectorTypedDataIS0_E)
    QVector<QSvgCssAttribute>::append(const QSvgCssAttribute&) 0x00024ff3   Thumb Code   188  qsvghandler.o(t._ZN7QVectorI16QSvgCssAttributeE6appendERKS0_)
    QVector<QSvgCssAttribute>::malloc(int)   0x000250cb   Thumb Code    54  qsvghandler.o(t._ZN7QVectorI16QSvgCssAttributeE6mallocEi)
    QVector<QSvgCssAttribute>::realloc(int, int) 0x00025101   Thumb Code   480  qsvghandler.o(t._ZN7QVectorI16QSvgCssAttributeE7reallocEii)
    QVector<QSvgCssAttribute>::reserve(int)  0x00025351   Thumb Code    54  qsvghandler.o(t._ZN7QVectorI16QSvgCssAttributeE7reserveEi)
    QVector<QSvgCssAttribute>::~QVector()    0x00025387   Thumb Code    34  qsvghandler.o(t._ZN7QVectorI16QSvgCssAttributeED1Ev)
    QVector<QSvgCssAttribute>::~QVector__sub_object() 0x00025387   Thumb Code     0  qsvghandler.o(t._ZN7QVectorI16QSvgCssAttributeED1Ev)
    QVector<QXmlStreamAttribute>::detach_helper() 0x000253a9   Thumb Code    18  qsvghandler.o(t._ZN7QVectorI19QXmlStreamAttributeE13detach_helperEv)
    QVector<QXmlStreamAttribute>::free(QVectorTypedData<QXmlStreamAttribute>*) 0x000253bb   Thumb Code    54  qsvghandler.o(t._ZN7QVectorI19QXmlStreamAttributeE4freeEP16QVectorTypedDataIS0_E)
    QVector<QXmlStreamAttribute>::malloc(int) 0x000253f1   Thumb Code    54  qsvghandler.o(t._ZN7QVectorI19QXmlStreamAttributeE6mallocEi)
    QVector<QXmlStreamAttribute>::realloc(int, int) 0x00025429   Thumb Code   632  qsvghandler.o(t._ZN7QVectorI19QXmlStreamAttributeE7reallocEii)
    QVector<QXmlStreamAttribute>::~QVector() 0x00025715   Thumb Code    34  qsvghandler.o(t._ZN7QVectorI19QXmlStreamAttributeED1Ev)
    QVector<QXmlStreamAttribute>::~QVector__sub_object() 0x00025715   Thumb Code     0  qsvghandler.o(t._ZN7QVectorI19QXmlStreamAttributeED1Ev)
    QVector<QList<QTextLayout::FormatRange>>::detach_helper() 0x00025737   Thumb Code    18  qsvggraphics.o(t._ZN7QVectorI5QListIN11QTextLayout11FormatRangeEEE13detach_helperEv)
    QVector<QList<QTextLayout::FormatRange>>::back() 0x00025749   Thumb Code    66  qsvggraphics.o(t._ZN7QVectorI5QListIN11QTextLayout11FormatRangeEEE4backEv)
    QVector<QList<QTextLayout::FormatRange>>::free(QVectorTypedData<QList<QTextLayout::FormatRange>>*) 0x000257d9   Thumb Code    52  qsvggraphics.o(t._ZN7QVectorI5QListIN11QTextLayout11FormatRangeEEE4freeEP16QVectorTypedDataIS3_E)
    QVector<QList<QTextLayout::FormatRange>>::append(const QList<QTextLayout::FormatRange>&) 0x0002580d   Thumb Code   180  qsvggraphics.o(t._ZN7QVectorI5QListIN11QTextLayout11FormatRangeEEE6appendERKS3_)
    QVector<QList<QTextLayout::FormatRange>>::detach() 0x000258dd   Thumb Code    24  qsvggraphics.o(t._ZN7QVectorI5QListIN11QTextLayout11FormatRangeEEE6detachEv)
    QVector<QList<QTextLayout::FormatRange>>::malloc(int) 0x000258f5   Thumb Code    52  qsvggraphics.o(t._ZN7QVectorI5QListIN11QTextLayout11FormatRangeEEE6mallocEi)
    QVector<QList<QTextLayout::FormatRange>>::realloc(int, int) 0x00025929   Thumb Code   474  qsvggraphics.o(t._ZN7QVectorI5QListIN11QTextLayout11FormatRangeEEE7reallocEii)
    QVector<QList<QTextLayout::FormatRange>>::~QVector() 0x00025b75   Thumb Code    34  qsvggraphics.o(t._ZN7QVectorI5QListIN11QTextLayout11FormatRangeEEED1Ev)
    QVector<QList<QTextLayout::FormatRange>>::~QVector__sub_object() 0x00025b75   Thumb Code     0  qsvggraphics.o(t._ZN7QVectorI5QListIN11QTextLayout11FormatRangeEEED1Ev)
    QVector<QPair<float, QColor>>::detach_helper() 0x00025b97   Thumb Code    18  qsvghandler.o(t._ZN7QVectorI5QPairIf6QColorEE13detach_helperEv)
    QVector<QPair<float, QColor>>::back()    0x00025ba9   Thumb Code    82  qsvghandler.o(t._ZN7QVectorI5QPairIf6QColorEE4backEv)
    QVector<QPair<float, QColor>>::free(QVectorTypedData<QPair<float, QColor>>*) 0x00025c49   Thumb Code    50  qsvghandler.o(t._ZN7QVectorI5QPairIf6QColorEE4freeEP16QVectorTypedDataIS2_E)
    QVector<QPair<float, QColor>>::append(const QPair<float, QColor>&) 0x00025c7b   Thumb Code   182  qsvgstyle.o(t._ZN7QVectorI5QPairIf6QColorEE6appendERKS2_)
    QVector<QPair<float, QColor>>::malloc(int) 0x00025d47   Thumb Code    54  qsvghandler.o(t._ZN7QVectorI5QPairIf6QColorEE6mallocEi)
    QVector<QPair<float, QColor>>::realloc(int, int) 0x00025d7d   Thumb Code   502  qsvgstyle.o(t._ZN7QVectorI5QPairIf6QColorEE7reallocEii)
    QVector<QPair<float, QColor>>::~QVector() 0x00025fe5   Thumb Code    34  qsvghandler.o(t._ZN7QVectorI5QPairIf6QColorEED1Ev)
    QVector<QPair<float, QColor>>::~QVector__sub_object() 0x00025fe5   Thumb Code     0  qsvghandler.o(t._ZN7QVectorI5QPairIf6QColorEED1Ev)
    QVector<QPair<float, QColor>>::operator =(const QVector<QPair<float, QColor>>&) 0x00026007   Thumb Code    54  qsvghandler.o(t._ZN7QVectorI5QPairIf6QColorEEaSERKS3_)
    QVector<QColor>::detach_helper()         0x0002603d   Thumb Code    18  qsvghandler.o(t._ZN7QVectorI6QColorE13detach_helperEv)
    QVector<QColor>::free(QVectorTypedData<QColor>*) 0x0002604f   Thumb Code    48  qsvghandler.o(t._ZN7QVectorI6QColorE4freeEP16QVectorTypedDataIS0_E)
    QVector<QColor>::append(const QColor&)   0x0002607f   Thumb Code   178  qsvghandler.o(t._ZN7QVectorI6QColorE6appendERKS0_)
    QVector<QColor>::malloc(int)             0x00026147   Thumb Code    52  qsvghandler.o(t._ZN7QVectorI6QColorE6mallocEi)
    QVector<QColor>::resize(int)             0x0002617b   Thumb Code    82  qsvghandler.o(t._ZN7QVectorI6QColorE6resizeEi)
    QVector<QColor>::realloc(int, int)       0x000261cd   Thumb Code   470  qsvghandler.o(t._ZN7QVectorI6QColorE7reallocEii)
    QVector<QColor>::~QVector()              0x00026415   Thumb Code    34  qsvghandler.o(t._ZN7QVectorI6QColorED1Ev)
    QVector<QColor>::~QVector__sub_object()  0x00026415   Thumb Code     0  qsvghandler.o(t._ZN7QVectorI6QColorED1Ev)
    QVector<QPointF>::detach_helper()        0x00026437   Thumb Code    18  qsvggraphics.o(t._ZN7QVectorI7QPointFE13detach_helperEv)
    QVector<QPointF>::free(QVectorTypedData<QPointF>*) 0x00026449   Thumb Code    48  qsvggraphics.o(t._ZN7QVectorI7QPointFE4freeEP16QVectorTypedDataIS0_E)
    QVector<QPointF>::malloc(int)            0x00026479   Thumb Code    52  qsvggraphics.o(t._ZN7QVectorI7QPointFE6mallocEi)
    QVector<QPointF>::realloc(int, int)      0x000264ad   Thumb Code   618  qsvggraphics.o(t._ZN7QVectorI7QPointFE7reallocEii)
    QVector<QPointF>::QVector(int)           0x0002677b   Thumb Code   138  qsvghandler.o(t._ZN7QVectorI7QPointFEC1Ei)
    QVector<QPointF>::QVector__sub_object(int) 0x0002677b   Thumb Code     0  qsvghandler.o(t._ZN7QVectorI7QPointFEC1Ei)
    QVector<QPointF>::~QVector()             0x00026811   Thumb Code    34  qsvggraphics.o(t._ZN7QVectorI7QPointFED1Ev)
    QVector<QPointF>::~QVector__sub_object() 0x00026811   Thumb Code     0  qsvggraphics.o(t._ZN7QVectorI7QPointFED1Ev)
    QVector<QPointF>::operator [](int)       0x00026835   Thumb Code    70  qsvghandler.o(t._ZN7QVectorI7QPointFEixEi)
    QVector<QString>::detach_helper()        0x000268e9   Thumb Code    18  qsvggraphics.o(t._ZN7QVectorI7QStringE13detach_helperEv)
    QVector<QString>::back()                 0x000268fd   Thumb Code    56  qsvggraphics.o(t._ZN7QVectorI7QStringE4backEv)
    QVector<QString>::free(QVectorTypedData<QString>*) 0x00026981   Thumb Code    52  qsvggraphics.o(t._ZN7QVectorI7QStringE4freeEP16QVectorTypedDataIS0_E)
    QVector<QString>::append(const QString&) 0x000269b5   Thumb Code   180  qsvggraphics.o(t._ZN7QVectorI7QStringE6appendERKS0_)
    QVector<QString>::detach()               0x00026a85   Thumb Code    24  qsvggraphics.o(t._ZN7QVectorI7QStringE6detachEv)
    QVector<QString>::malloc(int)            0x00026a9d   Thumb Code    52  qsvggraphics.o(t._ZN7QVectorI7QStringE6mallocEi)
    QVector<QString>::realloc(int, int)      0x00026ad1   Thumb Code   620  qsvggraphics.o(t._ZN7QVectorI7QStringE7reallocEii)
    QVector<QString>::~QVector()             0x00026db1   Thumb Code    34  qsvggraphics.o(t._ZN7QVectorI7QStringED1Ev)
    QVector<QString>::~QVector__sub_object() 0x00026db1   Thumb Code     0  qsvggraphics.o(t._ZN7QVectorI7QStringED1Ev)
    QVector<QString>::operator [](int)       0x00026dd5   Thumb Code    56  qsvggraphics.o(t._ZN7QVectorI7QStringEixEi)
    QVector<QSvgHandler::CurrentNode>::detach_helper() 0x00026e79   Thumb Code    18  qsvghandler.o(t._ZN7QVectorIN11QSvgHandler11CurrentNodeEE13detach_helperEv)
    QVector<QSvgHandler::CurrentNode>::free(QVectorTypedData<QSvgHandler::CurrentNode>*) 0x00026e8b   Thumb Code    48  qsvghandler.o(t._ZN7QVectorIN11QSvgHandler11CurrentNodeEE4freeEP16QVectorTypedDataIS1_E)
    QVector<QSvgHandler::CurrentNode>::append(const QSvgHandler::CurrentNode&) 0x00026ebb   Thumb Code   178  qsvghandler.o(t._ZN7QVectorIN11QSvgHandler11CurrentNodeEE6appendERKS1_)
    QVector<QSvgHandler::CurrentNode>::detach() 0x00026f6d   Thumb Code    24  qsvghandler.o(t._ZN7QVectorIN11QSvgHandler11CurrentNodeEE6detachEv)
    QVector<QSvgHandler::CurrentNode>::malloc(int) 0x00026f85   Thumb Code    52  qsvghandler.o(t._ZN7QVectorIN11QSvgHandler11CurrentNodeEE6mallocEi)
    QVector<QSvgHandler::CurrentNode>::resize(int) 0x00026fb9   Thumb Code    82  qsvghandler.o(t._ZN7QVectorIN11QSvgHandler11CurrentNodeEE6resizeEi)
    QVector<QSvgHandler::CurrentNode>::realloc(int, int) 0x0002700d   Thumb Code   448  qsvghandler.o(t._ZN7QVectorIN11QSvgHandler11CurrentNodeEE7reallocEii)
    QVector<QSvgHandler::CurrentNode>::~QVector() 0x00027227   Thumb Code    34  qsvghandler.o(t._ZN7QVectorIN11QSvgHandler11CurrentNodeEED1Ev)
    QVector<QSvgHandler::CurrentNode>::~QVector__sub_object() 0x00027227   Thumb Code     0  qsvghandler.o(t._ZN7QVectorIN11QSvgHandler11CurrentNodeEED1Ev)
    QVector<QTextLayout::FormatRange>::free(QVectorTypedData<QTextLayout::FormatRange>*) 0x00027249   Thumb Code    52  qsvggraphics.o(t._ZN7QVectorIN11QTextLayout11FormatRangeEE4freeEP16QVectorTypedDataIS1_E)
    QVector<QTextLayout::FormatRange>::~QVector() 0x0002727d   Thumb Code    34  qsvggraphics.o(t._ZN7QVectorIN11QTextLayout11FormatRangeEED1Ev)
    QVector<QTextLayout::FormatRange>::~QVector__sub_object() 0x0002727d   Thumb Code     0  qsvggraphics.o(t._ZN7QVectorIN11QTextLayout11FormatRangeEED1Ev)
    QVector<QCss::ImportRule>::detach_helper() 0x0002729f   Thumb Code    18  qsvghandler.o(t._ZN7QVectorIN4QCss10ImportRuleEE13detach_helperEv)
    QVector<QCss::ImportRule>::free(QVectorTypedData<QCss::ImportRule>*) 0x000272b1   Thumb Code    52  qsvghandler.o(t._ZN7QVectorIN4QCss10ImportRuleEE4freeEP16QVectorTypedDataIS1_E)
    QVector<QCss::ImportRule>::malloc(int)   0x000272e5   Thumb Code    52  qsvghandler.o(t._ZN7QVectorIN4QCss10ImportRuleEE6mallocEi)
    QVector<QCss::ImportRule>::realloc(int, int) 0x00027319   Thumb Code   508  qsvghandler.o(t._ZN7QVectorIN4QCss10ImportRuleEE7reallocEii)
    QVector<QCss::ImportRule>::~QVector()    0x00027599   Thumb Code    34  qsvghandler.o(t._ZN7QVectorIN4QCss10ImportRuleEED1Ev)
    QVector<QCss::ImportRule>::~QVector__sub_object() 0x00027599   Thumb Code     0  qsvghandler.o(t._ZN7QVectorIN4QCss10ImportRuleEED1Ev)
    QVector<QCss::ImportRule>::operator =(const QVector<QCss::ImportRule>&) 0x000275bb   Thumb Code    54  qsvghandler.o(t._ZN7QVectorIN4QCss10ImportRuleEEaSERKS2_)
    QVector<QCss::StyleSheet>::free(QVectorTypedData<QCss::StyleSheet>*) 0x000275f1   Thumb Code    52  qsvghandler.o(t._ZN7QVectorIN4QCss10StyleSheetEE4freeEP16QVectorTypedDataIS1_E)
    QVector<QCss::StyleSheet>::append(const QCss::StyleSheet&) 0x00027625   Thumb Code   184  qsvghandler.o(t._ZN7QVectorIN4QCss10StyleSheetEE6appendERKS1_)
    QVector<QCss::StyleSheet>::malloc(int)   0x000276f9   Thumb Code    52  qsvghandler.o(t._ZN7QVectorIN4QCss10StyleSheetEE6mallocEi)
    QVector<QCss::StyleSheet>::realloc(int, int) 0x0002772d   Thumb Code   476  qsvghandler.o(t._ZN7QVectorIN4QCss10StyleSheetEE7reallocEii)
    QVector<QCss::StyleSheet>::~QVector()    0x00027979   Thumb Code    34  qsvghandler.o(t._ZN7QVectorIN4QCss10StyleSheetEED1Ev)
    QVector<QCss::StyleSheet>::~QVector__sub_object() 0x00027979   Thumb Code     0  qsvghandler.o(t._ZN7QVectorIN4QCss10StyleSheetEED1Ev)
    QVector<QCss::Declaration>::detach_helper() 0x0002799b   Thumb Code    18  qsvghandler.o(t._ZN7QVectorIN4QCss11DeclarationEE13detach_helperEv)
    QVector<QCss::Declaration>::free(QVectorTypedData<QCss::Declaration>*) 0x000279ad   Thumb Code    56  qsvghandler.o(t._ZN7QVectorIN4QCss11DeclarationEE4freeEP16QVectorTypedDataIS1_E)
    QVector<QCss::Declaration>::malloc(int)  0x000279e5   Thumb Code    52  qsvghandler.o(t._ZN7QVectorIN4QCss11DeclarationEE6mallocEi)
    QVector<QCss::Declaration>::realloc(int, int) 0x00027a19   Thumb Code   500  qsvghandler.o(t._ZN7QVectorIN4QCss11DeclarationEE7reallocEii)
    QVector<QCss::Declaration>::QVector(const QVector<QCss::Declaration>&) 0x00027c7d   Thumb Code    36  qsvghandler.o(t._ZN7QVectorIN4QCss11DeclarationEEC1ERKS2_)
    QVector<QCss::Declaration>::QVector__sub_object(const QVector<QCss::Declaration>&) 0x00027c7d   Thumb Code     0  qsvghandler.o(t._ZN7QVectorIN4QCss11DeclarationEEC1ERKS2_)
    QVector<QCss::Declaration>::QVector()    0x00027ca1   Thumb Code    18  qsvghandler.o(t._ZN7QVectorIN4QCss11DeclarationEEC1Ev)
    QVector<QCss::Declaration>::QVector__sub_object() 0x00027ca1   Thumb Code     0  qsvghandler.o(t._ZN7QVectorIN4QCss11DeclarationEEC1Ev)
    QVector<QCss::Declaration>::~QVector()   0x00027cb9   Thumb Code    34  qsvghandler.o(t._ZN7QVectorIN4QCss11DeclarationEED1Ev)
    QVector<QCss::Declaration>::~QVector__sub_object() 0x00027cb9   Thumb Code     0  qsvghandler.o(t._ZN7QVectorIN4QCss11DeclarationEED1Ev)
    QVector<QCss::BasicSelector>::detach_helper() 0x00027cdb   Thumb Code    18  qsvghandler.o(t._ZN7QVectorIN4QCss13BasicSelectorEE13detach_helperEv)
    QVector<QCss::BasicSelector>::free(QVectorTypedData<QCss::BasicSelector>*) 0x00027ced   Thumb Code    54  qsvghandler.o(t._ZN7QVectorIN4QCss13BasicSelectorEE4freeEP16QVectorTypedDataIS1_E)
    QVector<QCss::BasicSelector>::malloc(int) 0x00027d23   Thumb Code    54  qsvghandler.o(t._ZN7QVectorIN4QCss13BasicSelectorEE6mallocEi)
    QVector<QCss::BasicSelector>::realloc(int, int) 0x00027d59   Thumb Code   560  qsvghandler.o(t._ZN7QVectorIN4QCss13BasicSelectorEE7reallocEii)
    QVector<QCss::BasicSelector>::~QVector() 0x0002801f   Thumb Code    34  qsvghandler.o(t._ZN7QVectorIN4QCss13BasicSelectorEED1Ev)
    QVector<QCss::BasicSelector>::~QVector__sub_object() 0x0002801f   Thumb Code     0  qsvghandler.o(t._ZN7QVectorIN4QCss13BasicSelectorEED1Ev)
    QVector<QCss::AttributeSelector>::detach_helper() 0x00028041   Thumb Code    18  qsvghandler.o(t._ZN7QVectorIN4QCss17AttributeSelectorEE13detach_helperEv)
    QVector<QCss::AttributeSelector>::free(QVectorTypedData<QCss::AttributeSelector>*) 0x00028053   Thumb Code    54  qsvghandler.o(t._ZN7QVectorIN4QCss17AttributeSelectorEE4freeEP16QVectorTypedDataIS1_E)
    QVector<QCss::AttributeSelector>::malloc(int) 0x00028089   Thumb Code    54  qsvghandler.o(t._ZN7QVectorIN4QCss17AttributeSelectorEE6mallocEi)
    QVector<QCss::AttributeSelector>::realloc(int, int) 0x000280c1   Thumb Code   530  qsvghandler.o(t._ZN7QVectorIN4QCss17AttributeSelectorEE7reallocEii)
    QVector<QCss::AttributeSelector>::~QVector() 0x00028359   Thumb Code    34  qsvghandler.o(t._ZN7QVectorIN4QCss17AttributeSelectorEED1Ev)
    QVector<QCss::AttributeSelector>::~QVector__sub_object() 0x00028359   Thumb Code     0  qsvghandler.o(t._ZN7QVectorIN4QCss17AttributeSelectorEED1Ev)
    QVector<QCss::Value>::detach_helper()    0x0002837b   Thumb Code    18  qsvghandler.o(t._ZN7QVectorIN4QCss5ValueEE13detach_helperEv)
    QVector<QCss::Value>::free(QVectorTypedData<QCss::Value>*) 0x0002838d   Thumb Code    54  qsvghandler.o(t._ZN7QVectorIN4QCss5ValueEE4freeEP16QVectorTypedDataIS1_E)
    QVector<QCss::Value>::first()            0x000283c5   Thumb Code    54  qsvghandler.o(t._ZN7QVectorIN4QCss5ValueEE5firstEv)
    QVector<QCss::Value>::detach()           0x00028449   Thumb Code    24  qsvghandler.o(t._ZN7QVectorIN4QCss5ValueEE6detachEv)
    QVector<QCss::Value>::malloc(int)        0x00028461   Thumb Code    54  qsvghandler.o(t._ZN7QVectorIN4QCss5ValueEE6mallocEi)
    QVector<QCss::Value>::realloc(int, int)  0x00028499   Thumb Code   494  qsvghandler.o(t._ZN7QVectorIN4QCss5ValueEE7reallocEii)
    QVector<QCss::Value>::~QVector()         0x000286f9   Thumb Code    34  qsvghandler.o(t._ZN7QVectorIN4QCss5ValueEED1Ev)
    QVector<QCss::Value>::~QVector__sub_object() 0x000286f9   Thumb Code     0  qsvghandler.o(t._ZN7QVectorIN4QCss5ValueEED1Ev)
    QVector<QCss::Pseudo>::detach_helper()   0x0002871b   Thumb Code    18  qsvghandler.o(t._ZN7QVectorIN4QCss6PseudoEE13detach_helperEv)
    QVector<QCss::Pseudo>::free(QVectorTypedData<QCss::Pseudo>*) 0x0002872d   Thumb Code    54  qsvghandler.o(t._ZN7QVectorIN4QCss6PseudoEE4freeEP16QVectorTypedDataIS1_E)
    QVector<QCss::Pseudo>::malloc(int)       0x00028763   Thumb Code    54  qsvghandler.o(t._ZN7QVectorIN4QCss6PseudoEE6mallocEi)
    QVector<QCss::Pseudo>::realloc(int, int) 0x00028799   Thumb Code   558  qsvghandler.o(t._ZN7QVectorIN4QCss6PseudoEE7reallocEii)
    QVector<QCss::Pseudo>::~QVector()        0x00028a59   Thumb Code    34  qsvghandler.o(t._ZN7QVectorIN4QCss6PseudoEED1Ev)
    QVector<QCss::Pseudo>::~QVector__sub_object() 0x00028a59   Thumb Code     0  qsvghandler.o(t._ZN7QVectorIN4QCss6PseudoEED1Ev)
    QVector<QCss::Symbol>::free(QVectorTypedData<QCss::Symbol>*) 0x00028a7b   Thumb Code    56  qsvghandler.o(t._ZN7QVectorIN4QCss6SymbolEE4freeEP16QVectorTypedDataIS1_E)
    QVector<QCss::Symbol>::~QVector()        0x00028ab3   Thumb Code    34  qsvghandler.o(t._ZN7QVectorIN4QCss6SymbolEED1Ev)
    QVector<QCss::Symbol>::~QVector__sub_object() 0x00028ab3   Thumb Code     0  qsvghandler.o(t._ZN7QVectorIN4QCss6SymbolEED1Ev)
    QVector<QCss::PageRule>::detach_helper() 0x00028ad5   Thumb Code    18  qsvghandler.o(t._ZN7QVectorIN4QCss8PageRuleEE13detach_helperEv)
    QVector<QCss::PageRule>::free(QVectorTypedData<QCss::PageRule>*) 0x00028ae7   Thumb Code    52  qsvghandler.o(t._ZN7QVectorIN4QCss8PageRuleEE4freeEP16QVectorTypedDataIS1_E)
    QVector<QCss::PageRule>::malloc(int)     0x00028b1b   Thumb Code    52  qsvghandler.o(t._ZN7QVectorIN4QCss8PageRuleEE6mallocEi)
    QVector<QCss::PageRule>::realloc(int, int) 0x00028b51   Thumb Code   508  qsvghandler.o(t._ZN7QVectorIN4QCss8PageRuleEE7reallocEii)
    QVector<QCss::PageRule>::~QVector()      0x00028dd1   Thumb Code    34  qsvghandler.o(t._ZN7QVectorIN4QCss8PageRuleEED1Ev)
    QVector<QCss::PageRule>::~QVector__sub_object() 0x00028dd1   Thumb Code     0  qsvghandler.o(t._ZN7QVectorIN4QCss8PageRuleEED1Ev)
    QVector<QCss::PageRule>::operator =(const QVector<QCss::PageRule>&) 0x00028df3   Thumb Code    54  qsvghandler.o(t._ZN7QVectorIN4QCss8PageRuleEEaSERKS2_)
    QVector<QCss::Selector>::detach_helper() 0x00028e29   Thumb Code    18  qsvghandler.o(t._ZN7QVectorIN4QCss8SelectorEE13detach_helperEv)
    QVector<QCss::Selector>::free(QVectorTypedData<QCss::Selector>*) 0x00028e3b   Thumb Code    56  qsvghandler.o(t._ZN7QVectorIN4QCss8SelectorEE4freeEP16QVectorTypedDataIS1_E)
    QVector<QCss::Selector>::malloc(int)     0x00028e73   Thumb Code    52  qsvghandler.o(t._ZN7QVectorIN4QCss8SelectorEE6mallocEi)
    QVector<QCss::Selector>::realloc(int, int) 0x00028ea9   Thumb Code   524  qsvghandler.o(t._ZN7QVectorIN4QCss8SelectorEE7reallocEii)
    QVector<QCss::Selector>::~QVector()      0x00029129   Thumb Code    34  qsvghandler.o(t._ZN7QVectorIN4QCss8SelectorEED1Ev)
    QVector<QCss::Selector>::~QVector__sub_object() 0x00029129   Thumb Code     0  qsvghandler.o(t._ZN7QVectorIN4QCss8SelectorEED1Ev)
    QVector<QCss::MediaRule>::detach_helper() 0x0002914b   Thumb Code    18  qsvghandler.o(t._ZN7QVectorIN4QCss9MediaRuleEE13detach_helperEv)
    QVector<QCss::MediaRule>::free(QVectorTypedData<QCss::MediaRule>*) 0x0002915d   Thumb Code    52  qsvghandler.o(t._ZN7QVectorIN4QCss9MediaRuleEE4freeEP16QVectorTypedDataIS1_E)
    QVector<QCss::MediaRule>::malloc(int)    0x00029191   Thumb Code    52  qsvghandler.o(t._ZN7QVectorIN4QCss9MediaRuleEE6mallocEi)
    QVector<QCss::MediaRule>::realloc(int, int) 0x000291c5   Thumb Code   508  qsvghandler.o(t._ZN7QVectorIN4QCss9MediaRuleEE7reallocEii)
    QVector<QCss::MediaRule>::~QVector()     0x00029445   Thumb Code    34  qsvghandler.o(t._ZN7QVectorIN4QCss9MediaRuleEED1Ev)
    QVector<QCss::MediaRule>::~QVector__sub_object() 0x00029445   Thumb Code     0  qsvghandler.o(t._ZN7QVectorIN4QCss9MediaRuleEED1Ev)
    QVector<QCss::MediaRule>::operator =(const QVector<QCss::MediaRule>&) 0x00029467   Thumb Code    54  qsvghandler.o(t._ZN7QVectorIN4QCss9MediaRuleEEaSERKS2_)
    QVector<QCss::StyleRule>::detach_helper() 0x0002949d   Thumb Code    18  qsvghandler.o(t._ZN7QVectorIN4QCss9StyleRuleEE13detach_helperEv)
    QVector<QCss::StyleRule>::free(QVectorTypedData<QCss::StyleRule>*) 0x000294af   Thumb Code    54  qsvghandler.o(t._ZN7QVectorIN4QCss9StyleRuleEE4freeEP16QVectorTypedDataIS1_E)
    QVector<QCss::StyleRule>::malloc(int)    0x000294e5   Thumb Code    54  qsvghandler.o(t._ZN7QVectorIN4QCss9StyleRuleEE6mallocEi)
    QVector<QCss::StyleRule>::realloc(int, int) 0x0002951d   Thumb Code   516  qsvghandler.o(t._ZN7QVectorIN4QCss9StyleRuleEE7reallocEii)
    QVector<QCss::StyleRule>::QVector(const QVector<QCss::StyleRule>&) 0x0002979f   Thumb Code    36  qsvghandler.o(t._ZN7QVectorIN4QCss9StyleRuleEEC1ERKS2_)
    QVector<QCss::StyleRule>::QVector__sub_object(const QVector<QCss::StyleRule>&) 0x0002979f   Thumb Code     0  qsvghandler.o(t._ZN7QVectorIN4QCss9StyleRuleEEC1ERKS2_)
    QVector<QCss::StyleRule>::QVector()      0x000297c5   Thumb Code    18  qsvghandler.o(t._ZN7QVectorIN4QCss9StyleRuleEEC1Ev)
    QVector<QCss::StyleRule>::QVector__sub_object() 0x000297c5   Thumb Code     0  qsvghandler.o(t._ZN7QVectorIN4QCss9StyleRuleEEC1Ev)
    QVector<QCss::StyleRule>::~QVector()     0x000297dd   Thumb Code    34  qsvghandler.o(t._ZN7QVectorIN4QCss9StyleRuleEED1Ev)
    QVector<QCss::StyleRule>::~QVector__sub_object() 0x000297dd   Thumb Code     0  qsvghandler.o(t._ZN7QVectorIN4QCss9StyleRuleEED1Ev)
    QVector<QCss::StyleRule>::operator =(const QVector<QCss::StyleRule>&) 0x000297ff   Thumb Code    54  qsvghandler.o(t._ZN7QVectorIN4QCss9StyleRuleEEaSERKS2_)
    QVector<QSvgText::WhitespaceMode>::detach_helper() 0x00029835   Thumb Code    18  qsvghandler.o(t._ZN7QVectorIN8QSvgText14WhitespaceModeEE13detach_helperEv)
    QVector<QSvgText::WhitespaceMode>::free(QVectorTypedData<QSvgText::WhitespaceMode>*) 0x00029847   Thumb Code    48  qsvghandler.o(t._ZN7QVectorIN8QSvgText14WhitespaceModeEE4freeEP16QVectorTypedDataIS1_E)
    QVector<QSvgText::WhitespaceMode>::append(const QSvgText::WhitespaceMode&) 0x00029877   Thumb Code   178  qsvghandler.o(t._ZN7QVectorIN8QSvgText14WhitespaceModeEE6appendERKS1_)
    QVector<QSvgText::WhitespaceMode>::detach() 0x00029929   Thumb Code    24  qsvghandler.o(t._ZN7QVectorIN8QSvgText14WhitespaceModeEE6detachEv)
    QVector<QSvgText::WhitespaceMode>::malloc(int) 0x00029941   Thumb Code    52  qsvghandler.o(t._ZN7QVectorIN8QSvgText14WhitespaceModeEE6mallocEi)
    QVector<QSvgText::WhitespaceMode>::resize(int) 0x00029975   Thumb Code    82  qsvghandler.o(t._ZN7QVectorIN8QSvgText14WhitespaceModeEE6resizeEi)
    QVector<QSvgText::WhitespaceMode>::realloc(int, int) 0x000299c9   Thumb Code   448  qsvghandler.o(t._ZN7QVectorIN8QSvgText14WhitespaceModeEE7reallocEii)
    QVector<QSvgText::WhitespaceMode>::~QVector() 0x00029be3   Thumb Code    34  qsvghandler.o(t._ZN7QVectorIN8QSvgText14WhitespaceModeEED1Ev)
    QVector<QSvgText::WhitespaceMode>::~QVector__sub_object() 0x00029be3   Thumb Code     0  qsvghandler.o(t._ZN7QVectorIN8QSvgText14WhitespaceModeEED1Ev)
    QVector<QSvgNode*>::detach_helper()      0x00029c05   Thumb Code    18  qsvghandler.o(t._ZN7QVectorIP8QSvgNodeE13detach_helperEv)
    QVector<QSvgNode*>::free(QVectorTypedData<QSvgNode*>*) 0x00029c17   Thumb Code    24  qsvghandler.o(t._ZN7QVectorIP8QSvgNodeE4freeEP16QVectorTypedDataIS1_E)
    QVector<QSvgNode*>::append(QSvgNode*const &) 0x00029c2f   Thumb Code   142  qsvghandler.o(t._ZN7QVectorIP8QSvgNodeE6appendERKS1_)
    QVector<QSvgNode*>::detach()             0x00029cbd   Thumb Code    24  qsvghandler.o(t._ZN7QVectorIP8QSvgNodeE6detachEv)
    QVector<QSvgNode*>::malloc(int)          0x00029cd5   Thumb Code    52  qsvghandler.o(t._ZN7QVectorIP8QSvgNodeE6mallocEi)
    QVector<QSvgNode*>::resize(int)          0x00029d09   Thumb Code    82  qsvghandler.o(t._ZN7QVectorIP8QSvgNodeE6resizeEi)
    QVector<QSvgNode*>::realloc(int, int)    0x00029d5d   Thumb Code   436  qsvghandler.o(t._ZN7QVectorIP8QSvgNodeE7reallocEii)
    QVector<QSvgNode*>::~QVector()           0x00029f69   Thumb Code    34  qsvghandler.o(t._ZN7QVectorIP8QSvgNodeED1Ev)
    QVector<QSvgNode*>::~QVector__sub_object() 0x00029f69   Thumb Code     0  qsvghandler.o(t._ZN7QVectorIP8QSvgNodeED1Ev)
    QVector<QSvgNode*>::operator [](int)     0x00029f8d   Thumb Code    70  qsvgtinydocument.o(t._ZN7QVectorIP8QSvgNodeEixEi)
    QVector<QSvgTspan*>::detach_helper()     0x0002a041   Thumb Code    18  qsvggraphics.o(t._ZN7QVectorIP9QSvgTspanE13detach_helperEv)
    QVector<QSvgTspan*>::back()              0x0002a055   Thumb Code    66  qsvggraphics.o(t._ZN7QVectorIP9QSvgTspanE4backEv)
    QVector<QSvgTspan*>::free(QVectorTypedData<QSvgTspan*>*) 0x0002a0e5   Thumb Code    24  qsvggraphics.o(t._ZN7QVectorIP9QSvgTspanE4freeEP16QVectorTypedDataIS1_E)
    QVector<QSvgTspan*>::append(QSvgTspan*const &) 0x0002a0fd   Thumb Code   142  qsvggraphics.o(t._ZN7QVectorIP9QSvgTspanE6appendERKS1_)
    QVector<QSvgTspan*>::detach()            0x0002a18b   Thumb Code    24  qsvggraphics.o(t._ZN7QVectorIP9QSvgTspanE6detachEv)
    QVector<QSvgTspan*>::malloc(int)         0x0002a1a3   Thumb Code    52  qsvggraphics.o(t._ZN7QVectorIP9QSvgTspanE6mallocEi)
    QVector<QSvgTspan*>::realloc(int, int)   0x0002a1d9   Thumb Code   436  qsvggraphics.o(t._ZN7QVectorIP9QSvgTspanE7reallocEii)
    QVector<QSvgTspan*>::~QVector()          0x0002a3e5   Thumb Code    34  qsvggraphics.o(t._ZN7QVectorIP9QSvgTspanED1Ev)
    QVector<QSvgTspan*>::~QVector__sub_object() 0x0002a3e5   Thumb Code     0  qsvggraphics.o(t._ZN7QVectorIP9QSvgTspanED1Ev)
    QVector<QSvgTspan*>::operator [](int)    0x0002a409   Thumb Code    56  qsvggraphics.o(t._ZN7QVectorIP9QSvgTspanEixEi)
    QVector<float>::detach_helper()          0x0002a4ad   Thumb Code    18  qsvghandler.o(t._ZN7QVectorIfE13detach_helperEv)
    QVector<float>::free(QVectorTypedData<float>*) 0x0002a4bf   Thumb Code    24  qsvghandler.o(t._ZN7QVectorIfE4freeEP16QVectorTypedDataIfE)
    QVector<float>::append(const float&)     0x0002a4d7   Thumb Code   142  qsvghandler.o(t._ZN7QVectorIfE6appendERKf)
    QVector<float>::malloc(int)              0x0002a565   Thumb Code    52  qsvghandler.o(t._ZN7QVectorIfE6mallocEi)
    QVector<float>::realloc(int, int)        0x0002a599   Thumb Code   436  qsvghandler.o(t._ZN7QVectorIfE7reallocEii)
    QVector<float>::reserve(int)             0x0002a7a5   Thumb Code    54  qsvghandler.o(t._ZN7QVectorIfE7reserveEi)
    QVector<float>::QVector()                0x0002a7dd   Thumb Code    18  qsvghandler.o(t._ZN7QVectorIfEC1Ev)
    QVector<float>::QVector__sub_object()    0x0002a7dd   Thumb Code     0  qsvghandler.o(t._ZN7QVectorIfEC1Ev)
    QVector<float>::~QVector()               0x0002a7f5   Thumb Code    34  qsvghandler.o(t._ZN7QVectorIfED1Ev)
    QVector<float>::~QVector__sub_object()   0x0002a7f5   Thumb Code     0  qsvghandler.o(t._ZN7QVectorIfED1Ev)
    QVector<float>::operator =(const QVector<float>&) 0x0002a817   Thumb Code    54  qsvghandler.o(t._ZN7QVectorIfEaSERKS0_)
    QVector<float>::operator [](int)         0x0002a84d   Thumb Code    70  qsvghandler.o(t._ZN7QVectorIfEixEi)
    QVector<float>::operator +=(const QVector<float>&) 0x0002a901   Thumb Code    94  qsvghandler.o(t._ZN7QVectorIfEpLERKS0_)
    QVector<int>::detach_helper()            0x0002a95f   Thumb Code    18  qsvghandler.o(t._ZN7QVectorIiE13detach_helperEv)
    QVector<int>::free(QVectorTypedData<int>*) 0x0002a971   Thumb Code    24  qsvghandler.o(t._ZN7QVectorIiE4freeEP16QVectorTypedDataIiE)
    QVector<int>::append(const int&)         0x0002a989   Thumb Code   142  qsvghandler.o(t._ZN7QVectorIiE6appendERKi)
    QVector<int>::detach()                   0x0002aa17   Thumb Code    24  qsvghandler.o(t._ZN7QVectorIiE6detachEv)
    QVector<int>::malloc(int)                0x0002aa2f   Thumb Code    52  qsvghandler.o(t._ZN7QVectorIiE6mallocEi)
    QVector<int>::resize(int)                0x0002aa63   Thumb Code    82  qsvghandler.o(t._ZN7QVectorIiE6resizeEi)
    QVector<int>::realloc(int, int)          0x0002aab5   Thumb Code   436  qsvghandler.o(t._ZN7QVectorIiE7reallocEii)
    QVector<int>::~QVector()                 0x0002acc1   Thumb Code    34  qsvghandler.o(t._ZN7QVectorIiED1Ev)
    QVector<int>::~QVector__sub_object()     0x0002acc1   Thumb Code     0  qsvghandler.o(t._ZN7QVectorIiED1Ev)
    QHashNode<QChar, QSvgGlyph>::QHashNode(const QChar&, const QSvgGlyph&) 0x0002ace3   Thumb Code    30  qsvgfont.o(t._ZN9QHashNodeI5QChar9QSvgGlyphEC1ERKS0_RKS1_)
    QHashNode<QChar, QSvgGlyph>::QHashNode__sub_object(const QChar&, const QSvgGlyph&) 0x0002ace3   Thumb Code     0  qsvgfont.o(t._ZN9QHashNodeI5QChar9QSvgGlyphEC1ERKS0_RKS1_)
    QHashNode<QString, QSvgRefCounter<QSvgFillStyleProperty>>::QHashNode(const QString&, const QSvgRefCounter<QSvgFillStyleProperty>&) 0x0002ad01   Thumb Code    40  qsvgtinydocument.o(t._ZN9QHashNodeI7QString14QSvgRefCounterI21QSvgFillStylePropertyEEC1ERKS0_RKS3_)
    QHashNode<QString, QSvgRefCounter<QSvgFillStyleProperty>>::QHashNode__sub_object(const QString&, const QSvgRefCounter<QSvgFillStyleProperty>&) 0x0002ad01   Thumb Code     0  qsvgtinydocument.o(t._ZN9QHashNodeI7QString14QSvgRefCounterI21QSvgFillStylePropertyEEC1ERKS0_RKS3_)
    QHashNode<QString, QSvgRefCounter<QSvgFont>>::QHashNode(const QString&, const QSvgRefCounter<QSvgFont>&) 0x0002ad35   Thumb Code    40  qsvgtinydocument.o(t._ZN9QHashNodeI7QString14QSvgRefCounterI8QSvgFontEEC1ERKS0_RKS3_)
    QHashNode<QString, QSvgRefCounter<QSvgFont>>::QHashNode__sub_object(const QString&, const QSvgRefCounter<QSvgFont>&) 0x0002ad35   Thumb Code     0  qsvgtinydocument.o(t._ZN9QHashNodeI7QString14QSvgRefCounterI8QSvgFontEEC1ERKS0_RKS3_)
    QHashNode<QString, QSvgNode*>::QHashNode(const QString&, QSvgNode*const &) 0x0002ad69   Thumb Code    30  qsvgtinydocument.o(t._ZN9QHashNodeI7QStringP8QSvgNodeEC1ERKS0_RKS2_)
    QHashNode<QString, QSvgNode*>::QHashNode__sub_object(const QString&, QSvgNode*const &) 0x0002ad69   Thumb Code     0  qsvgtinydocument.o(t._ZN9QHashNodeI7QStringP8QSvgNodeEC1ERKS0_RKS2_)
    QScopedPointer<QBrushData, QBrushDataPointerDeleter>::operator ->() const 0x0002ad89   Thumb Code    30  qsvggenerator.o(t._ZNK14QScopedPointerI10QBrushData24QBrushDataPointerDeleterEptEv)
    QScopedPointer<QObjectData, QScopedPointerDeleter<QObjectData>>::operator ->() const 0x0002adb1   Thumb Code    30  qsvgrenderer.o(t._ZNK14QScopedPointerI11QObjectData21QScopedPointerDeleterIS0_EEptEv)
    QScopedPointer<QPainterPathPrivate, QPainterPathPrivateDeleter>::operator ->() const 0x0002add9   Thumb Code    30  qsvggenerator.o(t._ZNK14QScopedPointerI19QPainterPathPrivate26QPainterPathPrivateDeleterEptEv)
    QScopedPointer<QGraphicsItemPrivate, QScopedPointerDeleter<QGraphicsItemPrivate>>::operator ->() const 0x0002ae01   Thumb Code    30  qgraphicssvgitem.o(t._ZNK14QScopedPointerI20QGraphicsItemPrivate21QScopedPointerDeleterIS0_EEptEv)
    QHash<QChar, QSvgGlyph>::contains(const QChar&) const 0x0002ae29   Thumb Code    32  qsvgfont.o(t._ZNK5QHashI5QChar9QSvgGlyphE8containsERKS0_)
    QHash<QChar, QSvgGlyph>::findNode(const QChar&, unsigned*) const 0x0002ae49   Thumb Code   178  qsvgfont.o(t._ZNK5QHashI5QChar9QSvgGlyphE8findNodeERKS0_Pj)
    QHash<QChar, QSvgGlyph>::operator [](const QChar&) const 0x0002af55   Thumb Code    92  qsvgfont.o(t._ZNK5QHashI5QChar9QSvgGlyphEixERKS0_)
    QHash<QString, QSvgRefCounter<QSvgFillStyleProperty>>::findNode(const QString&, unsigned*) const 0x0002afb1   Thumb Code   150  qsvgtinydocument.o(t._ZNK5QHashI7QString14QSvgRefCounterI21QSvgFillStylePropertyEE8findNodeERKS0_Pj)
    QHash<QString, QSvgRefCounter<QSvgFont>>::findNode(const QString&, unsigned*) const 0x0002b0a1   Thumb Code   150  qsvgtinydocument.o(t._ZNK5QHashI7QString14QSvgRefCounterI8QSvgFontEE8findNodeERKS0_Pj)
    QHash<QString, QSvgNode*>::findNode(const QString&, unsigned*) const 0x0002b191   Thumb Code   150  qsvgtinydocument.o(t._ZNK5QHashI7QStringP8QSvgNodeE8findNodeERKS0_Pj)
    QList<QSvgRefCounter<QSvgAnimateTransform>>::const_iterator::operator !=(const QList<QSvgRefCounter<QSvgAnimateTransform>>::const_iterator&) const 0x0002b281   Thumb Code    18  qsvgstyle.o(t._ZNK5QListI14QSvgRefCounterI20QSvgAnimateTransformEE14const_iteratorneERKS4_)
    QList<QSvgRefCounter<QSvgAnimateTransform>>::isEmpty() const 0x0002b293   Thumb Code    24  qsvgnode.o(t._ZNK5QListI14QSvgRefCounterI20QSvgAnimateTransformEE7isEmptyEv)
    QList<QSvgRefCounter<QSvgAnimateTransform>>::constEnd() const 0x0002b2ab   Thumb Code    20  qsvgstyle.o(t._ZNK5QListI14QSvgRefCounterI20QSvgAnimateTransformEE8constEndEv)
    QList<QString>::const_iterator::operator !=(const QList<QString>::const_iterator&) const 0x0002b2bf   Thumb Code    18  qsvgstructure.o(t._ZNK5QListI7QStringE14const_iteratorneERKS2_)
    QList<QString>::at(int) const            0x0002b2d1   Thumb Code    68  qsvghandler.o(t._ZNK5QListI7QStringE2atEi)
    QList<QString>::isEmpty() const          0x0002b375   Thumb Code    24  qsvgstructure.o(t._ZNK5QListI7QStringE7isEmptyEv)
    QList<QTextLayout::FormatRange>::isEmpty() const 0x0002b38d   Thumb Code    24  qsvggraphics.o(t._ZNK5QListIN11QTextLayout11FormatRangeEE7isEmptyEv)
    QList<QGraphicsItemPrivate::ExtraStruct>::at(int) const 0x0002b3a5   Thumb Code    54  qgraphicssvgitem.o(t._ZNK5QListIN20QGraphicsItemPrivate11ExtraStructEE2atEi)
    QList<QGraphicsItem*>::at(int) const     0x0002b43d   Thumb Code    54  qgraphicssvgitem.o(t._ZNK5QListIP13QGraphicsItemE2atEi)
    QList<QSvgNode*>::const_iterator::operator !=(const QList<QSvgNode*>::const_iterator&) const 0x0002b4d5   Thumb Code    18  qsvgstructure.o(t._ZNK5QListIP8QSvgNodeE14const_iteratorneERKS3_)
    QList<QSvgNode*>::iterator::operator !=(const QList<QSvgNode*>::iterator&) const 0x0002b4e7   Thumb Code    18  qsvgstructure.o(t._ZNK5QListIP8QSvgNodeE8iteratorneERKS3_)
    QVector<QXmlStreamAttribute>::at(int) const 0x0002b4f9   Thumb Code    50  qsvghandler.o(t._ZNK7QVectorI19QXmlStreamAttributeE2atEi)
    QVector<QPair<float, QColor>>::at(int) const 0x0002b591   Thumb Code    50  qsvggenerator.o(t._ZNK7QVectorI5QPairIf6QColorEE2atEi)
    QVector<QColor>::isEmpty() const         0x0002b629   Thumb Code    18  qsvghandler.o(t._ZNK7QVectorI6QColorE7isEmptyEv)
    QVector<QString>::isEmpty() const        0x0002b63b   Thumb Code    18  qsvggraphics.o(t._ZNK7QVectorI7QStringE7isEmptyEv)
    QVector<QSvgHandler::CurrentNode>::isEmpty() const 0x0002b64d   Thumb Code    18  qsvghandler.o(t._ZNK7QVectorIN11QSvgHandler11CurrentNodeEE7isEmptyEv)
    QVector<QCss::Declaration>::at(int) const 0x0002b661   Thumb Code    48  qsvghandler.o(t._ZNK7QVectorIN4QCss11DeclarationEE2atEi)
    QVector<QCss::Symbol>::at(int) const     0x0002b6f5   Thumb Code    48  qsvghandler.o(t._ZNK7QVectorIN4QCss6SymbolEE2atEi)
    QVector<QSvgText::WhitespaceMode>::isEmpty() const 0x0002b789   Thumb Code    18  qsvghandler.o(t._ZNK7QVectorIN8QSvgText14WhitespaceModeEE7isEmptyEv)
    QVector<QSvgNode*>::isEmpty() const      0x0002b79b   Thumb Code    18  qsvghandler.o(t._ZNK7QVectorIP8QSvgNodeE7isEmptyEv)
    QVector<float>::at(int) const            0x0002b7ad   Thumb Code    48  qsvghandler.o(t._ZNK7QVectorIfE2atEi)
    QVector<int>::isEmpty() const            0x0002b841   Thumb Code    18  qsvghandler.o(t._ZNK7QVectorIiE7isEmptyEv)
    QSvgText::LINEBREAK                      0x0002f504   Data           4  qsvggraphics.o(.constdata)
    QSvgRenderer::staticMetaObject           0x0002fc90   Data          16  qsvgrenderer.o(.constdata)
    QGraphicsSvgItem::staticMetaObject       0x0002fe34   Data          16  qgraphicssvgitem.o(.constdata)
    QSvgWidget::staticMetaObject             0x00030204   Data          16  moc_qsvgwidget.o(.constdata)
    stlp_priv::_Integer_limits<signed char, (signed char)-128, (signed char)127, (int)-1, (bool)1>::digits 0x000302a4   Data           4  qsvggraphics.o(.constdata__ZN9stlp_priv15_Integer_limitsIaLan128ELa127ELin1ELb1EE6digitsE)
    stlp_priv::_Integer_limits<bool, (bool)0, (bool)1, (int)1, (bool)0>::digits 0x000302a8   Data           4  qsvggraphics.o(.constdata__ZN9stlp_priv15_Integer_limitsIbLb0ELb1ELi1ELb0EE6digitsE)
    stlp_priv::_Integer_limits<char, (char)128, (char)127, (int)-1, (bool)1>::digits 0x000302ac   Data           4  qsvggraphics.o(.constdata__ZN9stlp_priv15_Integer_limitsIcLc128ELc127ELin1ELb1EE6digitsE)
    stlp_priv::_Integer_limits<unsigned char, (unsigned char)0, (unsigned char)255, (int)-1, (bool)1>::digits 0x000302b0   Data           4  qsvggraphics.o(.constdata__ZN9stlp_priv15_Integer_limitsIhLh0ELh255ELin1ELb1EE6digitsE)
    stlp_priv::_Integer_limits<int, (int)-2147483648, (int)2147483647, (int)-1, (bool)1>::digits 0x000302b4   Data           4  qsvggraphics.o(.constdata__ZN9stlp_priv15_Integer_limitsIiLin2147483648ELi2147483647ELin1ELb1EE6digitsE)
    stlp_priv::_Integer_limits<int, (int)-2147483648, (int)2147483647, (int)-1, (bool)1>::is_signed 0x000302b8   Data           1  qsvggraphics.o(.constdata__ZN9stlp_priv15_Integer_limitsIiLin2147483648ELi2147483647ELin1ELb1EE9is_signedE)
    stlp_priv::_Integer_limits<unsigned, (unsigned)0, (unsigned)4294967295, (int)-1, (bool)1>::digits 0x000302bc   Data           4  qsvggraphics.o(.constdata__ZN9stlp_priv15_Integer_limitsIjLj0ELj4294967295ELin1ELb1EE6digitsE)
    stlp_priv::_Integer_limits<long, (long)-2147483648, (long)2147483647, (int)-1, (bool)1>::digits 0x000302c0   Data           4  qsvggraphics.o(.constdata__ZN9stlp_priv15_Integer_limitsIlLln2147483648ELl2147483647ELin1ELb1EE6digitsE)
    stlp_priv::_Integer_limits<unsigned long, (unsigned long)0, (unsigned long)4294967295, (int)-1, (bool)1>::digits 0x000302c4   Data           4  qsvggraphics.o(.constdata__ZN9stlp_priv15_Integer_limitsImLm0ELm4294967295ELin1ELb1EE6digitsE)
    stlp_priv::_Integer_limits<short, (short)-32768, (short)32767, (int)-1, (bool)1>::digits 0x000302c8   Data           4  qsvggraphics.o(.constdata__ZN9stlp_priv15_Integer_limitsIsLsn32768ELs32767ELin1ELb1EE6digitsE)
    stlp_priv::_Integer_limits<unsigned short, (unsigned short)0, (unsigned short)65535, (int)-1, (bool)1>::digits 0x000302cc   Data           4  qsvggraphics.o(.constdata__ZN9stlp_priv15_Integer_limitsItLt0ELt65535ELin1ELb1EE6digitsE)
    stlp_priv::_Integer_limits<wchar_t, (wchar_t)0, (wchar_t)65535, (int)-1, (bool)1>::digits 0x000302d0   Data           4  qsvggraphics.o(.constdata__ZN9stlp_priv15_Integer_limitsIwLw0ELw65535ELin1ELb1EE6digitsE)
    stlp_priv::_Integer_limits<long long, (long long)-9223372036854775808, (long long)9223372036854775807, (int)-1, (bool)1>::digits 0x000302d4   Data           4  qsvggraphics.o(.constdata__ZN9stlp_priv15_Integer_limitsIxLxn9223372036854775808ELx9223372036854775807ELin1ELb1EE6digitsE)
    stlp_priv::_Integer_limits<unsigned long long, (unsigned long long)0, (unsigned long long)18446744073709551615, (int)-1, (bool)1>::digits 0x000302d8   Data           4  qsvggraphics.o(.constdata__ZN9stlp_priv15_Integer_limitsIyLy0ELy18446744073709551615ELin1ELb1EE6digitsE)
    typeinfo for QSvgCircle                  0x000302dc   Data          12  qsvggraphics.o(.constdata__ZTI10QSvgCircle)
    typeinfo for QSvgSwitch                  0x000302e8   Data          12  qsvgstructure.o(.constdata__ZTI10QSvgSwitch)
    typeinfo for QSvgWidget                  0x000302f4   Data          12  moc_qsvgwidget.o(.constdata__ZTI10QSvgWidget)
    typeinfo for QSvgEllipse                 0x00030300   Data          12  qsvggraphics.o(.constdata__ZTI11QSvgEllipse)
    typeinfo for QSvgPolygon                 0x0003030c   Data          12  qsvggraphics.o(.constdata__ZTI11QSvgPolygon)
    typeinfo for QSvgPolyline                0x00030318   Data          12  qsvggraphics.o(.constdata__ZTI12QSvgPolyline)
    typeinfo for QSvgRenderer                0x00030324   Data          12  qsvgrenderer.o(.constdata__ZTI12QSvgRenderer)
    typeinfo for QSvgAnimation               0x00030330   Data          12  qsvggraphics.o(.constdata__ZTI13QSvgAnimation)
    typeinfo for QSvgFillStyle               0x0003033c   Data          12  qsvgstyle.o(.constdata__ZTI13QSvgFillStyle)
    typeinfo for QSvgFontStyle               0x00030348   Data          12  qsvgstyle.o(.constdata__ZTI13QSvgFontStyle)
    typeinfo for QSvgGenerator               0x00030354   Data          12  qsvggenerator.o(.constdata__ZTI13QSvgGenerator)
    typeinfo for QSvgRefCounted              0x00030360   Data           8  qsvgstyle.o(.constdata__ZTI14QSvgRefCounted)
    typeinfo for QSvgCompOpStyle             0x00030368   Data          12  qsvgstyle.o(.constdata__ZTI15QSvgCompOpStyle)
    typeinfo for QSvgPaintEngine             0x00030374   Data          12  qsvggenerator.o(.constdata__ZTI15QSvgPaintEngine)
    typeinfo for QSvgStrokeStyle             0x00030380   Data          12  qsvgstyle.o(.constdata__ZTI15QSvgStrokeStyle)
    typeinfo for QGraphicsSvgItem            0x0003038c   Data          12  qgraphicssvgitem.o(.constdata__ZTI16QGraphicsSvgItem)
    typeinfo for QSvgAnimateColor            0x00030398   Data          12  qsvgstyle.o(.constdata__ZTI16QSvgAnimateColor)
    typeinfo for QSvgOpacityStyle            0x000303a4   Data          12  qsvgstyle.o(.constdata__ZTI16QSvgOpacityStyle)
    typeinfo for QSvgQualityStyle            0x000303b0   Data          12  qsvgstyle.o(.constdata__ZTI16QSvgQualityStyle)
    typeinfo for QSvgTinyDocument            0x000303bc   Data          12  qsvgtinydocument.o(.constdata__ZTI16QSvgTinyDocument)
    typeinfo for QSvgGradientStyle           0x000303c8   Data          12  qsvgstyle.o(.constdata__ZTI17QSvgGradientStyle)
    typeinfo for QSvgStructureNode           0x000303d4   Data          12  qsvgstructure.o(.constdata__ZTI17QSvgStructureNode)
    typeinfo for QSvgStyleProperty           0x000303e0   Data          12  qsvgstyle.o(.constdata__ZTI17QSvgStyleProperty)
    typeinfo for QSvgStyleSelector           0x000303ec   Data          12  qsvghandler.o(.constdata__ZTI17QSvgStyleSelector)
    typeinfo for QSvgWidgetPrivate           0x000303f8   Data          12  qsvgwidget.o(.constdata__ZTI17QSvgWidgetPrivate)
    typeinfo for QSvgTransformStyle          0x00030404   Data          12  qsvgstyle.o(.constdata__ZTI18QSvgTransformStyle)
    typeinfo for QPaintEnginePrivate         0x00030410   Data           8  qsvggenerator.o(.constdata__ZTI19QPaintEnginePrivate)
    typeinfo for QSvgRendererPrivate         0x00030418   Data          12  qsvgrenderer.o(.constdata__ZTI19QSvgRendererPrivate)
    typeinfo for QSvgSolidColorStyle         0x00030424   Data          12  qsvgstyle.o(.constdata__ZTI19QSvgSolidColorStyle)
    typeinfo for QSvgAnimateTransform        0x00030430   Data          12  qsvgstyle.o(.constdata__ZTI20QSvgAnimateTransform)
    typeinfo for QSvgFillStyleProperty       0x0003043c   Data          12  qsvgstyle.o(.constdata__ZTI21QSvgFillStyleProperty)
    typeinfo for QSvgViewportFillStyle       0x00030448   Data          12  qsvgstyle.o(.constdata__ZTI21QSvgViewportFillStyle)
    typeinfo for QGraphicsEffectPrivate      0x00030454   Data          12  qsvgwidget.o(.constdata__ZTI22QGraphicsEffectPrivate)
    typeinfo for QSvgPaintEnginePrivate      0x00030460   Data          12  qsvggenerator.o(.constdata__ZTI22QSvgPaintEnginePrivate)
    typeinfo for QGraphicsSvgItemPrivate     0x0003046c   Data          12  qgraphicssvgitem.o(.constdata__ZTI23QGraphicsSvgItemPrivate)
    typeinfo for QGraphicsBlurEffectPrivate  0x00030478   Data          12  qsvgwidget.o(.constdata__ZTI26QGraphicsBlurEffectPrivate)
    typeinfo for QGraphicsColorizeEffectPrivate 0x00030484   Data          12  qsvgwidget.o(.constdata__ZTI30QGraphicsColorizeEffectPrivate)
    typeinfo for QGraphicsDropShadowEffectPrivate 0x00030490   Data          12  qsvgwidget.o(.constdata__ZTI32QGraphicsDropShadowEffectPrivate)
    typeinfo for QSvgG                       0x0003049c   Data          12  qsvgstructure.o(.constdata__ZTI5QSvgG)
    typeinfo for QSvgArc                     0x000304a8   Data          12  qsvggraphics.o(.constdata__ZTI7QSvgArc)
    typeinfo for QSvgUse                     0x000304b4   Data          12  qsvggraphics.o(.constdata__ZTI7QSvgUse)
    typeinfo for QSvgDefs                    0x000304c0   Data          12  qsvgstructure.o(.constdata__ZTI8QSvgDefs)
    typeinfo for QSvgFont                    0x000304cc   Data          12  qsvgfont.o(.constdata__ZTI8QSvgFont)
    typeinfo for QSvgLine                    0x000304d8   Data          12  qsvggraphics.o(.constdata__ZTI8QSvgLine)
    typeinfo for QSvgNode                    0x000304e4   Data           8  qsvgnode.o(.constdata__ZTI8QSvgNode)
    typeinfo for QSvgPath                    0x000304ec   Data          12  qsvggraphics.o(.constdata__ZTI8QSvgPath)
    typeinfo for QSvgRect                    0x000304f8   Data          12  qsvggraphics.o(.constdata__ZTI8QSvgRect)
    typeinfo for QSvgText                    0x00030504   Data          12  qsvggraphics.o(.constdata__ZTI8QSvgText)
    typeinfo for QSvgImage                   0x00030510   Data          12  qsvggraphics.o(.constdata__ZTI9QSvgImage)
    typeinfo for QSvgTspan                   0x0003051c   Data          12  qsvggraphics.o(.constdata__ZTI9QSvgTspan)
    typeinfo for QSvgVideo                   0x00030528   Data          12  qsvggraphics.o(.constdata__ZTI9QSvgVideo)
    typeinfo for QtSharedPointer::ExternalRefCountData 0x00030534   Data           8  qsvggraphics.o(.constdata__ZTIN15QtSharedPointer20ExternalRefCountDataE)
    typeinfo name for QSvgCircle             0x0003053c   Data          13  qsvggraphics.o(.constdata__ZTS10QSvgCircle)
    typeinfo name for QSvgSwitch             0x00030549   Data          13  qsvgstructure.o(.constdata__ZTS10QSvgSwitch)
    typeinfo name for QSvgWidget             0x00030556   Data          13  moc_qsvgwidget.o(.constdata__ZTS10QSvgWidget)
    typeinfo name for QSvgEllipse            0x00030563   Data          14  qsvggraphics.o(.constdata__ZTS11QSvgEllipse)
    typeinfo name for QSvgPolygon            0x00030571   Data          14  qsvggraphics.o(.constdata__ZTS11QSvgPolygon)
    typeinfo name for QSvgPolyline           0x0003057f   Data          15  qsvggraphics.o(.constdata__ZTS12QSvgPolyline)
    typeinfo name for QSvgRenderer           0x0003058e   Data          15  qsvgrenderer.o(.constdata__ZTS12QSvgRenderer)
    typeinfo name for QSvgAnimation          0x0003059d   Data          16  qsvggraphics.o(.constdata__ZTS13QSvgAnimation)
    typeinfo name for QSvgFillStyle          0x000305ad   Data          16  qsvgstyle.o(.constdata__ZTS13QSvgFillStyle)
    typeinfo name for QSvgFontStyle          0x000305bd   Data          16  qsvgstyle.o(.constdata__ZTS13QSvgFontStyle)
    typeinfo name for QSvgGenerator          0x000305cd   Data          16  qsvggenerator.o(.constdata__ZTS13QSvgGenerator)
    typeinfo name for QSvgRefCounted         0x000305dd   Data          17  qsvgstyle.o(.constdata__ZTS14QSvgRefCounted)
    typeinfo name for QSvgCompOpStyle        0x000305ee   Data          18  qsvgstyle.o(.constdata__ZTS15QSvgCompOpStyle)
    typeinfo name for QSvgPaintEngine        0x00030600   Data          18  qsvggenerator.o(.constdata__ZTS15QSvgPaintEngine)
    typeinfo name for QSvgStrokeStyle        0x00030612   Data          18  qsvgstyle.o(.constdata__ZTS15QSvgStrokeStyle)
    typeinfo name for QGraphicsSvgItem       0x00030624   Data          19  qgraphicssvgitem.o(.constdata__ZTS16QGraphicsSvgItem)
    typeinfo name for QSvgAnimateColor       0x00030637   Data          19  qsvgstyle.o(.constdata__ZTS16QSvgAnimateColor)
    typeinfo name for QSvgOpacityStyle       0x0003064a   Data          19  qsvgstyle.o(.constdata__ZTS16QSvgOpacityStyle)
    typeinfo name for QSvgQualityStyle       0x0003065d   Data          19  qsvgstyle.o(.constdata__ZTS16QSvgQualityStyle)
    typeinfo name for QSvgTinyDocument       0x00030670   Data          19  qsvgtinydocument.o(.constdata__ZTS16QSvgTinyDocument)
    typeinfo name for QSvgGradientStyle      0x00030683   Data          20  qsvgstyle.o(.constdata__ZTS17QSvgGradientStyle)
    typeinfo name for QSvgStructureNode      0x00030697   Data          20  qsvgstructure.o(.constdata__ZTS17QSvgStructureNode)
    typeinfo name for QSvgStyleProperty      0x000306ab   Data          20  qsvgstyle.o(.constdata__ZTS17QSvgStyleProperty)
    typeinfo name for QSvgStyleSelector      0x000306bf   Data          20  qsvghandler.o(.constdata__ZTS17QSvgStyleSelector)
    typeinfo name for QSvgWidgetPrivate      0x000306d3   Data          20  qsvgwidget.o(.constdata__ZTS17QSvgWidgetPrivate)
    typeinfo name for QSvgTransformStyle     0x000306e7   Data          21  qsvgstyle.o(.constdata__ZTS18QSvgTransformStyle)
    typeinfo name for QPaintEnginePrivate    0x000306fc   Data          22  qsvggenerator.o(.constdata__ZTS19QPaintEnginePrivate)
    typeinfo name for QSvgRendererPrivate    0x00030712   Data          22  qsvgrenderer.o(.constdata__ZTS19QSvgRendererPrivate)
    typeinfo name for QSvgSolidColorStyle    0x00030728   Data          22  qsvgstyle.o(.constdata__ZTS19QSvgSolidColorStyle)
    typeinfo name for QSvgAnimateTransform   0x0003073e   Data          23  qsvgstyle.o(.constdata__ZTS20QSvgAnimateTransform)
    typeinfo name for QSvgFillStyleProperty  0x00030755   Data          24  qsvgstyle.o(.constdata__ZTS21QSvgFillStyleProperty)
    typeinfo name for QSvgViewportFillStyle  0x0003076d   Data          24  qsvgstyle.o(.constdata__ZTS21QSvgViewportFillStyle)
    typeinfo name for QGraphicsEffectPrivate 0x00030785   Data          25  qsvgwidget.o(.constdata__ZTS22QGraphicsEffectPrivate)
    typeinfo name for QSvgPaintEnginePrivate 0x0003079e   Data          25  qsvggenerator.o(.constdata__ZTS22QSvgPaintEnginePrivate)
    typeinfo name for QGraphicsSvgItemPrivate 0x000307b7   Data          26  qgraphicssvgitem.o(.constdata__ZTS23QGraphicsSvgItemPrivate)
    typeinfo name for QGraphicsBlurEffectPrivate 0x000307d1   Data          29  qsvgwidget.o(.constdata__ZTS26QGraphicsBlurEffectPrivate)
    typeinfo name for QGraphicsColorizeEffectPrivate 0x000307ee   Data          33  qsvgwidget.o(.constdata__ZTS30QGraphicsColorizeEffectPrivate)
    typeinfo name for QGraphicsDropShadowEffectPrivate 0x0003080f   Data          35  qsvgwidget.o(.constdata__ZTS32QGraphicsDropShadowEffectPrivate)
    typeinfo name for QSvgG                  0x00030832   Data           7  qsvgstructure.o(.constdata__ZTS5QSvgG)
    typeinfo name for QSvgArc                0x00030839   Data           9  qsvggraphics.o(.constdata__ZTS7QSvgArc)
    typeinfo name for QSvgUse                0x00030842   Data           9  qsvggraphics.o(.constdata__ZTS7QSvgUse)
    typeinfo name for QSvgDefs               0x0003084b   Data          10  qsvgstructure.o(.constdata__ZTS8QSvgDefs)
    typeinfo name for QSvgFont               0x00030855   Data          10  qsvgfont.o(.constdata__ZTS8QSvgFont)
    typeinfo name for QSvgLine               0x0003085f   Data          10  qsvggraphics.o(.constdata__ZTS8QSvgLine)
    typeinfo name for QSvgNode               0x00030869   Data          10  qsvgnode.o(.constdata__ZTS8QSvgNode)
    typeinfo name for QSvgPath               0x00030873   Data          10  qsvggraphics.o(.constdata__ZTS8QSvgPath)
    typeinfo name for QSvgRect               0x0003087d   Data          10  qsvggraphics.o(.constdata__ZTS8QSvgRect)
    typeinfo name for QSvgText               0x00030887   Data          10  qsvggraphics.o(.constdata__ZTS8QSvgText)
    typeinfo name for QSvgImage              0x00030891   Data          11  qsvggraphics.o(.constdata__ZTS9QSvgImage)
    typeinfo name for QSvgTspan              0x0003089c   Data          11  qsvggraphics.o(.constdata__ZTS9QSvgTspan)
    typeinfo name for QSvgVideo              0x000308a7   Data          11  qsvggraphics.o(.constdata__ZTS9QSvgVideo)
    typeinfo name for QtSharedPointer::ExternalRefCountData 0x000308b2   Data          42  qsvggraphics.o(.constdata__ZTSN15QtSharedPointer20ExternalRefCountDataE)
    vtable for QSvgCircle                    0x000308dc   Data          32  qsvggraphics.o(.constdata__ZTV10QSvgCircle)
    vtable for QSvgSwitch                    0x000308fc   Data          32  qsvgstructure.o(.constdata__ZTV10QSvgSwitch)
    vtable for QSvgWidget                    0x0003091c   Data         248  moc_qsvgwidget.o(.constdata__ZTV10QSvgWidget)
    vtable for QSvgEllipse                   0x00030a14   Data          32  qsvggraphics.o(.constdata__ZTV11QSvgEllipse)
    vtable for QSvgPolygon                   0x00030a34   Data          32  qsvggraphics.o(.constdata__ZTV11QSvgPolygon)
    vtable for QSvgPolyline                  0x00030a54   Data          32  qsvggraphics.o(.constdata__ZTV12QSvgPolyline)
    vtable for QSvgRenderer                  0x00030a74   Data          56  qsvgrenderer.o(.constdata__ZTV12QSvgRenderer)
    vtable for QSvgAnimation                 0x00030aac   Data          32  qsvggraphics.o(.constdata__ZTV13QSvgAnimation)
    vtable for QSvgFillStyle                 0x00030acc   Data          28  qsvgstyle.o(.constdata__ZTV13QSvgFillStyle)
    vtable for QSvgFontStyle                 0x00030ae8   Data          28  qsvgstyle.o(.constdata__ZTV13QSvgFontStyle)
    vtable for QSvgGenerator                 0x00030b04   Data          28  qsvggenerator.o(.constdata__ZTV13QSvgGenerator)
    vtable for QSvgRefCounted                0x00030b20   Data          16  qsvgstyle.o(.constdata__ZTV14QSvgRefCounted)
    vtable for QSvgCompOpStyle               0x00030b30   Data          28  qsvgstyle.o(.constdata__ZTV15QSvgCompOpStyle)
    vtable for QSvgPaintEngine               0x00030b4c   Data          96  qsvggenerator.o(.constdata__ZTV15QSvgPaintEngine)
    vtable for QSvgStrokeStyle               0x00030bac   Data          28  qsvgstyle.o(.constdata__ZTV15QSvgStrokeStyle)
    vtable for QGraphicsSvgItem              0x00030bc8   Data         224  qgraphicssvgitem.o(.constdata__ZTV16QGraphicsSvgItem)
    vtable for QSvgAnimateColor              0x00030ca8   Data          28  qsvgstyle.o(.constdata__ZTV16QSvgAnimateColor)
    vtable for QSvgOpacityStyle              0x00030cc4   Data          28  qsvgstyle.o(.constdata__ZTV16QSvgOpacityStyle)
    vtable for QSvgQualityStyle              0x00030ce0   Data          28  qsvgstyle.o(.constdata__ZTV16QSvgQualityStyle)
    vtable for QSvgTinyDocument              0x00030cfc   Data          32  qsvgtinydocument.o(.constdata__ZTV16QSvgTinyDocument)
    vtable for QSvgGradientStyle             0x00030d1c   Data          32  qsvgstyle.o(.constdata__ZTV17QSvgGradientStyle)
    vtable for QSvgStructureNode             0x00030d3c   Data          32  qsvgstructure.o(.constdata__ZTV17QSvgStructureNode)
    vtable for QSvgStyleProperty             0x00030d5c   Data          28  qsvgstyle.o(.constdata__ZTV17QSvgStyleProperty)
    vtable for QSvgStyleSelector             0x00030d78   Data          56  qsvghandler.o(.constdata__ZTV17QSvgStyleSelector)
    vtable for QSvgWidgetPrivate             0x00030db0   Data          20  qsvgwidget.o(.constdata__ZTV17QSvgWidgetPrivate)
    vtable for QSvgTransformStyle            0x00030dc4   Data          28  qsvgstyle.o(.constdata__ZTV18QSvgTransformStyle)
    vtable for QPaintEnginePrivate           0x00030de0   Data          20  qsvggenerator.o(.constdata__ZTV19QPaintEnginePrivate)
    vtable for QSvgRendererPrivate           0x00030df4   Data          16  qsvgrenderer.o(.constdata__ZTV19QSvgRendererPrivate)
    vtable for QSvgSolidColorStyle           0x00030e04   Data          32  qsvgstyle.o(.constdata__ZTV19QSvgSolidColorStyle)
    vtable for QSvgAnimateTransform          0x00030e24   Data          28  qsvgstyle.o(.constdata__ZTV20QSvgAnimateTransform)
    vtable for QSvgFillStyleProperty         0x00030e40   Data          32  qsvgstyle.o(.constdata__ZTV21QSvgFillStyleProperty)
    vtable for QSvgViewportFillStyle         0x00030e60   Data          28  qsvgstyle.o(.constdata__ZTV21QSvgViewportFillStyle)
    vtable for QSvgPaintEnginePrivate        0x00030e7c   Data          20  qsvggenerator.o(.constdata__ZTV22QSvgPaintEnginePrivate)
    vtable for QGraphicsSvgItemPrivate       0x00030e90   Data          80  qgraphicssvgitem.o(.constdata__ZTV23QGraphicsSvgItemPrivate)
    vtable for QGraphicsBlurEffectPrivate    0x00030ee0   Data          16  qsvgwidget.o(.constdata__ZTV26QGraphicsBlurEffectPrivate)
    vtable for QGraphicsColorizeEffectPrivate 0x00030ef0   Data          16  qsvgwidget.o(.constdata__ZTV30QGraphicsColorizeEffectPrivate)
    vtable for QGraphicsDropShadowEffectPrivate 0x00030f00   Data          16  qsvgwidget.o(.constdata__ZTV32QGraphicsDropShadowEffectPrivate)
    vtable for QSvgG                         0x00030f10   Data          32  qsvgstructure.o(.constdata__ZTV5QSvgG)
    vtable for QSvgArc                       0x00030f30   Data          32  qsvggraphics.o(.constdata__ZTV7QSvgArc)
    vtable for QSvgUse                       0x00030f50   Data          32  qsvggraphics.o(.constdata__ZTV7QSvgUse)
    vtable for QSvgDefs                      0x00030f70   Data          32  qsvgstructure.o(.constdata__ZTV8QSvgDefs)
    vtable for QSvgFont                      0x00030f90   Data          16  qsvgfont.o(.constdata__ZTV8QSvgFont)
    vtable for QSvgLine                      0x00030fa0   Data          32  qsvggraphics.o(.constdata__ZTV8QSvgLine)
    vtable for QSvgNode                      0x00030fc0   Data          32  qsvgnode.o(.constdata__ZTV8QSvgNode)
    vtable for QSvgPath                      0x00030fe0   Data          32  qsvggraphics.o(.constdata__ZTV8QSvgPath)
    vtable for QSvgRect                      0x00031000   Data          32  qsvggraphics.o(.constdata__ZTV8QSvgRect)
    vtable for QSvgText                      0x00031020   Data          32  qsvggraphics.o(.constdata__ZTV8QSvgText)
    vtable for QSvgImage                     0x00031040   Data          32  qsvggraphics.o(.constdata__ZTV9QSvgImage)
    vtable for QSvgTspan                     0x00031060   Data          32  qsvggraphics.o(.constdata__ZTV9QSvgTspan)
    vtable for QSvgVideo                     0x00031080   Data          32  qsvggraphics.o(.constdata__ZTV9QSvgVideo)
    vtable for QtSharedPointer::ExternalRefCountData 0x000310a0   Data          20  qsvggraphics.o(.constdata__ZTVN15QtSharedPointer20ExternalRefCountDataE)
    .ARM.exidx$$Base                         0x000315a0   Number         0  ucppinit.o(.ARM.exidx)
    .ARM.exidx$$Limit                        0x000333c8   Number         0  qsvghandler.o(.ARM.exidx)
    Image$$ER_RO$$Limit                      0x000333c8   Number         0  anon$$obj.o(linker$$defined$$symbols)
    std::_Atomic_swap_struct<(int)1>::_S_swap_lock 0x004001b4   Data          12  qsvggraphics.o(.data__ZNSt19_Atomic_swap_structILi1EE12_S_swap_lockE)

