ARM Linker, RVCT2.2 [Build 686]

================================================================================

Image Symbol Table

    Local Symbols

    Symbol Name                              Value     Ov Type        Size  Object(Section)

    ../../unhosted.s                         0x00000000   Number         0  switch8.o ABSOLUTE
    M:\\epoc32\\build\\euser\\c_e18a23aea4fd210f\\edll_lib\\armv5\\udeb\\uc_dll_.cpp 0x00000000   Number         0  uc_dll_.o ABSOLUTE
    M:\\sf\\os\\kernelhwsrv\\kernel\\eka\\compsupp\\rvct\\ucppinit.cpp 0x00000000   Number         0  ucppinit.o ABSOLUTE
    M:\epoc32\build\euser\c_e18a23aea4fd210f\edll_lib\armv5\udeb\uc_dll_.cpp 0x00000000   Number         0  uc_dll_.o ABSOLUTE
    M:\sf\os\kernelhwsrv\kernel\eka\compsupp\rvct\dllexp.cpp 0x00000000   Number         0  dllexp.o ABSOLUTE
    M:\sf\os\kernelhwsrv\kernel\eka\compsupp\rvct\ucppfini.cpp 0x00000000   Number         0  ucppfini.o ABSOLUTE
    M:\sf\os\kernelhwsrv\kernel\eka\compsupp\rvct\ucppinit.cpp 0x00000000   Number         0  ucppinit.o ABSOLUTE
    M:\sf\os\kernelhwsrv\kernel\eka\euser\epoc\arm\uc_dll.cpp 0x00000000   Number         0  uc_dll.o ABSOLUTE
    S:\sf\mw\qtmobility\build\Release\QtSystemInfo\moc\moc_wlaninfo_s60.cpp 0x00000000   Number         0  moc_wlaninfo_s60.o ABSOLUTE
    S:\sf\mw\qtmobility\src\systeminfo\qsystemdeviceinfo.cpp 0x00000000   Number         0  qsystemdeviceinfo.o ABSOLUTE
    S:\sf\mw\qtmobility\src\systeminfo\qsystemdisplayinfo.cpp 0x00000000   Number         0  qsystemdisplayinfo.o ABSOLUTE
    S:\sf\mw\qtmobility\src\systeminfo\qsystemgeneralinfo.cpp 0x00000000   Number         0  qsystemgeneralinfo.o ABSOLUTE
    S:\sf\mw\qtmobility\src\systeminfo\qsysteminfo_s60.cpp 0x00000000   Number         0  qsysteminfo_s60.o ABSOLUTE
    S:\sf\mw\qtmobility\src\systeminfo\qsystemnetworkinfo.cpp 0x00000000   Number         0  qsystemnetworkinfo.o ABSOLUTE
    S:\sf\mw\qtmobility\src\systeminfo\qsystemscreensaver.cpp 0x00000000   Number         0  qsystemscreensaver.o ABSOLUTE
    S:\sf\mw\qtmobility\src\systeminfo\qsystemstorageinfo.cpp 0x00000000   Number         0  qsystemstorageinfo.o ABSOLUTE
    S:\sf\mw\qtmobility\src\systeminfo\symbian\chargingstatus_s60.cpp 0x00000000   Number         0  chargingstatus_s60.o ABSOLUTE
    S:\sf\mw\qtmobility\src\systeminfo\symbian\storagestatus_s60.cpp 0x00000000   Number         0  storagestatus_s60.o ABSOLUTE
    S:\sf\mw\qtmobility\src\systeminfo\symbian\telephonyinfo_s60.cpp 0x00000000   Number         0  telephonyinfo_s60.o ABSOLUTE
    S:\sf\mw\qtmobility\src\systeminfo\symbian\wlaninfo_s60.cpp 0x00000000   Number         0  wlaninfo_s60.o ABSOLUTE
    .emb_text                                0x00008000   Section       40  uc_dll_.o(.emb_text)
    Symbian$$eit_base                        0x00008014   Data           4  uc_dll_.o(.emb_text)
    Symbian$$eit_limit                       0x00008018   Data           4  uc_dll_.o(.emb_text)
    Symbian$$code_seg_base                   0x0000801c   Data           4  uc_dll_.o(.emb_text)
    Symbian$$code_seg_limit                  0x00008020   Data           4  uc_dll_.o(.emb_text)
    Symbian$$reserved                        0x00008024   Data           4  uc_dll_.o(.emb_text)
    .emb_text                                0x00008028   Section       52  ucppinit.o(.emb_text)
    loop                                     0x0000803c   ARM Code       0  ucppinit.o(.emb_text)
    ret                                      0x00008044   ARM Code       0  ucppinit.o(.emb_text)
    base                                     0x00008054   Data           0  ucppinit.o(.emb_text)
    limit                                    0x00008058   Data           0  ucppinit.o(.emb_text)
    .text                                    0x0000861c   Section      272  moc_wlaninfo_s60.o(.text)
    .text                                    0x0000872c   Section     1100  qsystemgeneralinfo.o(.text)
    QtMobility::sysinfoPrivate()             0x00008775   Thumb Code   164  qsystemgeneralinfo.o(.text)
    .text                                    0x00008b78   Section     2416  qsystemdeviceinfo.o(.text)
    QtMobility::deviceInfoPrivate()          0x00008bc1   Thumb Code   164  qsystemdeviceinfo.o(.text)
    |L1.1852|                                0x000092b4   Data           0  qsystemdeviceinfo.o(.text)
    |L1.1880|                                0x000092d0   Data           0  qsystemdeviceinfo.o(.text)
    |L1.1936|                                0x00009308   Data           0  qsystemdeviceinfo.o(.text)
    |L1.1968|                                0x00009328   Data           0  qsystemdeviceinfo.o(.text)
    |L1.2020|                                0x0000935c   Data           0  qsystemdeviceinfo.o(.text)
    .text                                    0x000094e8   Section      504  qsystemdisplayinfo.o(.text)
    QtMobility::displayInfoPrivate()         0x00009591   Thumb Code   164  qsystemdisplayinfo.o(.text)
    .text                                    0x000096e0   Section     2596  qsystemnetworkinfo.o(.text)
    QtMobility::netInfoPrivate()             0x00009729   Thumb Code   164  qsystemnetworkinfo.o(.text)
    |L1.1952|                                0x00009e80   Data           0  qsystemnetworkinfo.o(.text)
    |L1.1996|                                0x00009eac   Data           0  qsystemnetworkinfo.o(.text)
    |L1.2040|                                0x00009ed8   Data           0  qsystemnetworkinfo.o(.text)
    |L1.2096|                                0x00009f10   Data           0  qsystemnetworkinfo.o(.text)
    .text                                    0x0000a104   Section      376  qsystemscreensaver.o(.text)
    .text                                    0x0000a27c   Section      920  qsystemstorageinfo.o(.text)
    QtMobility::storageInfoPrivate()         0x0000a2c5   Thumb Code   164  qsystemstorageinfo.o(.text)
    .text                                    0x0000a614   Section    10944  qsysteminfo_s60.o(.text)
    |L1.4700|                                0x0000b870   Data           0  qsysteminfo_s60.o(.text)
    |L1.5944|                                0x0000bd4c   Data           0  qsysteminfo_s60.o(.text)
    .text                                    0x0000d0d4   Section     3544  telephonyinfo_s60.o(.text)
    .text                                    0x0000deac   Section      548  chargingstatus_s60.o(.text)
    .text                                    0x0000e0d0   Section      804  wlaninfo_s60.o(.text)
    .text                                    0x0000e3f4   Section     1040  storagestatus_s60.o(.text)
    .text                                    0x0000e804   Section       24  switch8.o(.text)
    .text                                    0x0000e81c   Section       80  uc_dll.o(.text)
    .text                                    0x0000e86c   Section      180  ucppfini.o(.text)
    .text                                    0x0000e920   Section        4  dllexp.o(.text)
    .text.clean                              0x0000e924   Section       84  qsystemgeneralinfo.o(.text.clean)
    .text.clean                              0x0000e978   Section      164  qsystemdeviceinfo.o(.text.clean)
    .text.clean                              0x0000ea1c   Section       48  qsystemdisplayinfo.o(.text.clean)
    .text.clean                              0x0000ea4c   Section      196  qsystemnetworkinfo.o(.text.clean)
    .text.clean                              0x0000eb10   Section       30  qsystemscreensaver.o(.text.clean)
    .text.clean                              0x0000eb30   Section       48  qsystemstorageinfo.o(.text.clean)
    .text.clean                              0x0000eb60   Section      496  qsysteminfo_s60.o(.text.clean)
    .text.clean                              0x0000ed50   Section      410  telephonyinfo_s60.o(.text.clean)
    .text.clean                              0x0000eeea   Section       64  chargingstatus_s60.o(.text.clean)
    .text.clean                              0x0000ef2a   Section       80  wlaninfo_s60.o(.text.clean)
    .text.clean                              0x0000ef7a   Section       74  storagestatus_s60.o(.text.clean)
    i._ZN10CPhoneInfoD0Ev                    0x0000efc4   Section       22  telephonyinfo_s60.o(i._ZN10CPhoneInfoD0Ev)
    i._ZN10CPhoneInfoD1Ev                    0x0000efdc   Section       72  telephonyinfo_s60.o(i._ZN10CPhoneInfoD1Ev)
    i._ZN10CPhoneInfoD1Ev.clean              0x0000f024   Section       42  telephonyinfo_s60.o(i._ZN10CPhoneInfoD1Ev.clean)
    i._ZN10QByteArrayD1Ev                    0x0000f04e   Section       24  qsystemgeneralinfo.o(i._ZN10QByteArrayD1Ev)
    i._ZN10QtMobility10DeviceInfo11batteryInfoEv 0x0000f066   Section       50  qsysteminfo_s60.o(i._ZN10QtMobility10DeviceInfo11batteryInfoEv)
    i._ZN10QtMobility10DeviceInfo11batteryInfoEv.clean 0x0000f098   Section       14  qsysteminfo_s60.o(i._ZN10QtMobility10DeviceInfo11batteryInfoEv.clean)
    i._ZN10QtMobility10DeviceInfo14chargingStatusEv 0x0000f0a6   Section       48  qsysteminfo_s60.o(i._ZN10QtMobility10DeviceInfo14chargingStatusEv)
    i._ZN10QtMobility10DeviceInfo14chargingStatusEv.clean 0x0000f0d6   Section       14  qsysteminfo_s60.o(i._ZN10QtMobility10DeviceInfo14chargingStatusEv.clean)
    i._ZN10QtMobility10DeviceInfo14subscriberInfoEv 0x0000f0e4   Section       50  qsysteminfo_s60.o(i._ZN10QtMobility10DeviceInfo14subscriberInfoEv)
    i._ZN10QtMobility10DeviceInfo14subscriberInfoEv.clean 0x0000f116   Section       14  qsysteminfo_s60.o(i._ZN10QtMobility10DeviceInfo14subscriberInfoEv.clean)
    i._ZN10QtMobility10DeviceInfo15cellNetworkInfoEv 0x0000f124   Section       52  qsysteminfo_s60.o(i._ZN10QtMobility10DeviceInfo15cellNetworkInfoEv)
    i._ZN10QtMobility10DeviceInfo15cellNetworkInfoEv.clean 0x0000f158   Section       14  qsysteminfo_s60.o(i._ZN10QtMobility10DeviceInfo15cellNetworkInfoEv.clean)
    i._ZN10QtMobility10DeviceInfo16mmcStorageStatusEv 0x0000f166   Section       48  qsysteminfo_s60.o(i._ZN10QtMobility10DeviceInfo16mmcStorageStatusEv)
    i._ZN10QtMobility10DeviceInfo16mmcStorageStatusEv.clean 0x0000f196   Section       14  qsysteminfo_s60.o(i._ZN10QtMobility10DeviceInfo16mmcStorageStatusEv.clean)
    i._ZN10QtMobility10DeviceInfo22cellSignalStrenghtInfoEv 0x0000f1a4   Section       50  qsysteminfo_s60.o(i._ZN10QtMobility10DeviceInfo22cellSignalStrenghtInfoEv)
    i._ZN10QtMobility10DeviceInfo22cellSignalStrenghtInfoEv.clean 0x0000f1d6   Section       14  qsysteminfo_s60.o(i._ZN10QtMobility10DeviceInfo22cellSignalStrenghtInfoEv.clean)
    i._ZN10QtMobility10DeviceInfo27cellNetworkRegistrationInfoEv 0x0000f1e4   Section       50  qsysteminfo_s60.o(i._ZN10QtMobility10DeviceInfo27cellNetworkRegistrationInfoEv)
    i._ZN10QtMobility10DeviceInfo27cellNetworkRegistrationInfoEv.clean 0x0000f216   Section       14  qsysteminfo_s60.o(i._ZN10QtMobility10DeviceInfo27cellNetworkRegistrationInfoEv.clean)
    i._ZN10QtMobility10DeviceInfo8instanceEv 0x0000f224   Section       68  qsysteminfo_s60.o(i._ZN10QtMobility10DeviceInfo8instanceEv)
    i._ZN10QtMobility10DeviceInfo8instanceEv.clean 0x0000f268   Section       14  qsysteminfo_s60.o(i._ZN10QtMobility10DeviceInfo8instanceEv.clean)
    i._ZN10QtMobility10DeviceInfo8wlanInfoEv 0x0000f276   Section       42  qsysteminfo_s60.o(i._ZN10QtMobility10DeviceInfo8wlanInfoEv)
    i._ZN10QtMobility10DeviceInfo8wlanInfoEv.clean 0x0000f2a0   Section       14  qsysteminfo_s60.o(i._ZN10QtMobility10DeviceInfo8wlanInfoEv.clean)
    i._ZN10QtMobility10DeviceInfo9phoneInfoEv 0x0000f2ae   Section       52  qsysteminfo_s60.o(i._ZN10QtMobility10DeviceInfo9phoneInfoEv)
    i._ZN10QtMobility10DeviceInfo9phoneInfoEv.clean 0x0000f2e2   Section       14  qsysteminfo_s60.o(i._ZN10QtMobility10DeviceInfo9phoneInfoEv.clean)
    i._ZN10QtMobility24QSystemDeviceInfoPrivate18countryCodeChangedEv 0x0000f2f0   Section        2  qsysteminfo_s60.o(i._ZN10QtMobility24QSystemDeviceInfoPrivate18countryCodeChangedEv)
    i._ZN10QtMobility24QSystemDeviceInfoPrivate18networkCodeChangedEv 0x0000f2f2   Section        2  qsysteminfo_s60.o(i._ZN10QtMobility24QSystemDeviceInfoPrivate18networkCodeChangedEv)
    i._ZN10QtMobility24QSystemDeviceInfoPrivate18networkModeChangedEv 0x0000f2f4   Section        2  qsysteminfo_s60.o(i._ZN10QtMobility24QSystemDeviceInfoPrivate18networkModeChangedEv)
    i._ZN10QtMobility24QSystemDeviceInfoPrivate18networkNameChangedEv 0x0000f2f6   Section        2  qsysteminfo_s60.o(i._ZN10QtMobility24QSystemDeviceInfoPrivate18networkNameChangedEv)
    i._ZN10QtMobility24QSystemDeviceInfoPrivate24cellNetworkStatusChangedEv 0x0000f2f8   Section        2  qsysteminfo_s60.o(i._ZN10QtMobility24QSystemDeviceInfoPrivate24cellNetworkStatusChangedEv)
    i._ZN10QtMobility24QSystemDeviceInfoPrivate32cellNetworkSignalStrengthChangedEv 0x0000f2fa   Section        2  qsysteminfo_s60.o(i._ZN10QtMobility24QSystemDeviceInfoPrivate32cellNetworkSignalStrengthChangedEv)
    i._ZN10QtMobility25QSystemNetworkInfoPrivate19batteryLevelChangedEv 0x0000f2fc   Section        2  qsysteminfo_s60.o(i._ZN10QtMobility25QSystemNetworkInfoPrivate19batteryLevelChangedEv)
    i._ZN10QtMobility25QSystemScreenSaverPrivateD0Ev 0x0000f2fe   Section       24  qsysteminfo_s60.o(i._ZN10QtMobility25QSystemScreenSaverPrivateD0Ev)
    i._ZN10QtMobility25QSystemScreenSaverPrivateD1Ev 0x0000f316   Section       14  qsysteminfo_s60.o(i._ZN10QtMobility25QSystemScreenSaverPrivateD1Ev)
    i._ZN11QStringListC1Ev                   0x0000f324   Section       14  qsysteminfo_s60.o(i._ZN11QStringListC1Ev)
    i._ZN11QStringListD1Ev                   0x0000f332   Section       14  qsystemgeneralinfo.o(i._ZN11QStringListD1Ev)
    i._ZN12CBatteryInfoD0Ev                  0x0000f340   Section       24  telephonyinfo_s60.o(i._ZN12CBatteryInfoD0Ev)
    i._ZN12CBatteryInfoD1Ev                  0x0000f358   Section       14  telephonyinfo_s60.o(i._ZN12CBatteryInfoD1Ev)
    i._ZN12CleanupStack13PopAndDestroyEPv    0x0000f366   Section       16  qsysteminfo_s60.o(i._ZN12CleanupStack13PopAndDestroyEPv)
    i._ZN12CleanupStack13PopAndDestroyEiPv   0x0000f376   Section       30  qsysteminfo_s60.o(i._ZN12CleanupStack13PopAndDestroyEiPv)
    i._ZN13CWlanScanInfoD0Ev                 0x0000f394   Section       22  moc_wlaninfo_s60.o(i._ZN13CWlanScanInfoD0Ev)
    i._ZN13CWlanScanInfoD2Ev                 0x0000f3ac   Section       36  moc_wlaninfo_s60.o(i._ZN13CWlanScanInfoD2Ev)
    i._ZN13CWlanScanInfoD2Ev.clean           0x0000f3d0   Section       10  moc_wlaninfo_s60.o(i._ZN13CWlanScanInfoD2Ev.clean)
    i._ZN15CSubscriberInfoD0Ev               0x0000f3da   Section       22  telephonyinfo_s60.o(i._ZN15CSubscriberInfoD0Ev)
    i._ZN15CSubscriberInfoD1Ev               0x0000f3f0   Section       36  telephonyinfo_s60.o(i._ZN15CSubscriberInfoD1Ev)
    i._ZN15CSubscriberInfoD1Ev.clean         0x0000f414   Section       10  telephonyinfo_s60.o(i._ZN15CSubscriberInfoD1Ev.clean)
    i._ZN15CWlanMgmtClientD0Ev               0x0000f41e   Section       22  moc_wlaninfo_s60.o(i._ZN15CWlanMgmtClientD0Ev)
    i._ZN15CWlanMgmtClientD2Ev               0x0000f434   Section       32  moc_wlaninfo_s60.o(i._ZN15CWlanMgmtClientD2Ev)
    i._ZN15CWlanMgmtClientD2Ev.clean         0x0000f454   Section       10  moc_wlaninfo_s60.o(i._ZN15CWlanMgmtClientD2Ev.clean)
    i._ZN15QBasicAtomicInt3refEv             0x0000f45e   Section       24  qsystemgeneralinfo.o(i._ZN15QBasicAtomicInt3refEv)
    i._ZN15QBasicAtomicInt5derefEv           0x0000f476   Section       24  qsystemgeneralinfo.o(i._ZN15QBasicAtomicInt5derefEv)
    i._ZN16CCellNetworkInfoD0Ev              0x0000f48e   Section       22  telephonyinfo_s60.o(i._ZN16CCellNetworkInfoD0Ev)
    i._ZN16CCellNetworkInfoD1Ev              0x0000f4a4   Section      120  telephonyinfo_s60.o(i._ZN16CCellNetworkInfoD1Ev)
    i._ZN16CCellNetworkInfoD1Ev.clean        0x0000f51c   Section       90  telephonyinfo_s60.o(i._ZN16CCellNetworkInfoD1Ev.clean)
    i._ZN17QForeachContainerI5QListIP22MStorageStatusObserverEED1Ev 0x0000f576   Section       14  storagestatus_s60.o(i._ZN17QForeachContainerI5QListIP22MStorageStatusObserverEED1Ev)
    i._ZN17QForeachContainerI5QListIP22MTelephonyInfoObserverEED1Ev 0x0000f584   Section       14  telephonyinfo_s60.o(i._ZN17QForeachContainerI5QListIP22MTelephonyInfoObserverEED1Ev)
    i._ZN17QForeachContainerI5QListIP23MChargingStatusObserverEED1Ev 0x0000f592   Section       14  chargingstatus_s60.o(i._ZN17QForeachContainerI5QListIP23MChargingStatusObserverEED1Ev)
    i._ZN22MWlanMgmtNotifications10RssChangedE13TWlanRssClassj 0x0000f5a0   Section        2  wlaninfo_s60.o(i._ZN22MWlanMgmtNotifications10RssChangedE13TWlanRssClassj)
    i._ZN22MWlanMgmtNotifications11BssRegainedEv 0x0000f5a2   Section        2  wlaninfo_s60.o(i._ZN22MWlanMgmtNotifications11BssRegainedEv)
    i._ZN22MWlanMgmtNotifications12BssidChangedER5TBuf8ILi6EE 0x0000f5a4   Section        2  wlaninfo_s60.o(i._ZN22MWlanMgmtNotifications12BssidChangedER5TBuf8ILi6EE)
    i._ZN22MWlanMgmtNotifications15OldNetworksLostEv 0x0000f5a6   Section        2  wlaninfo_s60.o(i._ZN22MWlanMgmtNotifications15OldNetworksLostEv)
    i._ZN22MWlanMgmtNotifications19NewNetworksDetectedEv 0x0000f5a8   Section        2  wlaninfo_s60.o(i._ZN22MWlanMgmtNotifications19NewNetworksDetectedEv)
    i._ZN22MWlanMgmtNotifications20TransmitPowerChangedEj 0x0000f5aa   Section        2  wlaninfo_s60.o(i._ZN22MWlanMgmtNotifications20TransmitPowerChangedEj)
    i._ZN22MWlanMgmtNotifications22ConnectionStateChangedE19TWlanConnectionMode 0x0000f5ac   Section        2  wlaninfo_s60.o(i._ZN22MWlanMgmtNotifications22ConnectionStateChangedE19TWlanConnectionMode)
    i._ZN22MWlanMgmtNotifications26TrafficStreamStatusChangedEj24TWlanTrafficStreamStatus 0x0000f5ae   Section        2  moc_wlaninfo_s60.o(i._ZN22MWlanMgmtNotifications26TrafficStreamStatusChangedEj24TWlanTrafficStreamStatus)
    i._ZN22MWlanMgmtNotifications7BssLostEv  0x0000f5b0   Section        2  wlaninfo_s60.o(i._ZN22MWlanMgmtNotifications7BssLostEv)
    i._ZN23CCellSignalStrengthInfoD0Ev       0x0000f5b2   Section       24  telephonyinfo_s60.o(i._ZN23CCellSignalStrengthInfoD0Ev)
    i._ZN23CCellSignalStrengthInfoD1Ev       0x0000f5ca   Section       14  telephonyinfo_s60.o(i._ZN23CCellSignalStrengthInfoD1Ev)
    i._ZN28CCellNetworkRegistrationInfoD0Ev  0x0000f5d8   Section       24  telephonyinfo_s60.o(i._ZN28CCellNetworkRegistrationInfoD0Ev)
    i._ZN28CCellNetworkRegistrationInfoD1Ev  0x0000f5f0   Section       14  telephonyinfo_s60.o(i._ZN28CCellNetworkRegistrationInfoD1Ev)
    i._ZN32MProEngProfileActivationObserver40HandleProfileActivationNotificationErrorEi 0x0000f5fe   Section        2  qsysteminfo_s60.o(i._ZN32MProEngProfileActivationObserver40HandleProfileActivationNotificationErrorEi)
    i._ZN32MProEngProfileActivationObserver9ExtensionEv 0x0000f600   Section        6  qsysteminfo_s60.o(i._ZN32MProEngProfileActivationObserver9ExtensionEv)
    i._ZN32MProEngProfileActivationObserverD0Ev 0x0000f606   Section       18  qsysteminfo_s60.o(i._ZN32MProEngProfileActivationObserverD0Ev)
    i._ZN32MProEngProfileActivationObserverD2Ev 0x0000f618   Section        2  qsysteminfo_s60.o(i._ZN32MProEngProfileActivationObserverD2Ev)
    i._ZN5CBasenwEj                          0x0000f61a   Section       16  qsysteminfo_s60.o(i._ZN5CBasenwEj)
    i._ZN5TDes8ixEi                          0x0000f62a   Section       16  storagestatus_s60.o(i._ZN5TDes8ixEi)
    i._ZN7QStringC1EPKc                      0x0000f63a   Section       22  qsysteminfo_s60.o(i._ZN7QStringC1EPKc)
    i._ZN7QStringC1ERK10QByteArray           0x0000f650   Section       70  qsysteminfo_s60.o(i._ZN7QStringC1ERK10QByteArray)
    i._ZN7QStringC1ERKS_                     0x0000f696   Section       22  qsystemgeneralinfo.o(i._ZN7QStringC1ERKS_)
    i._ZN7QStringC1Ev                        0x0000f6ac   Section       24  qsysteminfo_s60.o(i._ZN7QStringC1Ev)
    i._ZN7QStringD1Ev                        0x0000f6c4   Section       24  qsystemgeneralinfo.o(i._ZN7QStringD1Ev)
    i._ZN7QStringaSEc                        0x0000f6dc   Section       24  storagestatus_s60.o(i._ZN7QStringaSEc)
    i._ZN9CWlanInfo10RssChangedE13TWlanRssClassj 0x0000f6f4   Section        2  moc_wlaninfo_s60.o(i._ZN9CWlanInfo10RssChangedE13TWlanRssClassj)
    i._ZN9CWlanInfo11BssRegainedEv           0x0000f6f6   Section        2  moc_wlaninfo_s60.o(i._ZN9CWlanInfo11BssRegainedEv)
    i._ZN9CWlanInfo12BssidChangedER5TBuf8ILi6EE 0x0000f6f8   Section        2  moc_wlaninfo_s60.o(i._ZN9CWlanInfo12BssidChangedER5TBuf8ILi6EE)
    i._ZN9CWlanInfo15OldNetworksLostEv       0x0000f6fa   Section        2  moc_wlaninfo_s60.o(i._ZN9CWlanInfo15OldNetworksLostEv)
    i._ZN9CWlanInfo19NewNetworksDetectedEv   0x0000f6fc   Section        2  moc_wlaninfo_s60.o(i._ZN9CWlanInfo19NewNetworksDetectedEv)
    i._ZN9CWlanInfo20TransmitPowerChangedEj  0x0000f6fe   Section        2  moc_wlaninfo_s60.o(i._ZN9CWlanInfo20TransmitPowerChangedEj)
    i._ZN9CWlanInfo7BssLostEv                0x0000f700   Section        2  moc_wlaninfo_s60.o(i._ZN9CWlanInfo7BssLostEv)
    i._ZNK13QLatin1StringeqEPKc              0x0000f702   Section       40  qsysteminfo_s60.o(i._ZNK13QLatin1StringeqEPKc)
    i._ZNK13QLatin1StringeqEPKc.clean        0x0000f72a   Section       10  qsysteminfo_s60.o(i._ZNK13QLatin1StringeqEPKc.clean)
    i._ZNK14QDesktopWidget11screenCountEv    0x0000f734   Section       12  qsystemdisplayinfo.o(i._ZNK14QDesktopWidget11screenCountEv)
    i._ZNK15QBasicAtomicIntneEi              0x0000f740   Section       16  qsysteminfo_s60.o(i._ZNK15QBasicAtomicIntneEi)
    i._ZNK5TDes8ixEi                         0x0000f750   Section       16  storagestatus_s60.o(i._ZNK5TDes8ixEi)
    i._ZNK7QStringneERKS_                    0x0000f760   Section       20  telephonyinfo_s60.o(i._ZNK7QStringneERKS_)
    i._ZNK9QListData2atEi                    0x0000f774   Section       20  qsysteminfo_s60.o(i._ZNK9QListData2atEi)
    i._ZNK9QListData3endEv                   0x0000f788   Section       16  qsysteminfo_s60.o(i._ZNK9QListData3endEv)
    i._ZNK9QListData5beginEv                 0x0000f798   Section       16  qsystemgeneralinfo.o(i._ZNK9QListData5beginEv)
    i._ZThn8_N10QtMobility24QSystemDeviceInfoPrivate18countryCodeChangedEv 0x0000f7a8   Section        4  qsysteminfo_s60.o(i._ZThn8_N10QtMobility24QSystemDeviceInfoPrivate18countryCodeChangedEv)
    i._ZThn8_N10QtMobility24QSystemDeviceInfoPrivate18networkCodeChangedEv 0x0000f7ac   Section        4  qsysteminfo_s60.o(i._ZThn8_N10QtMobility24QSystemDeviceInfoPrivate18networkCodeChangedEv)
    i._ZThn8_N10QtMobility24QSystemDeviceInfoPrivate18networkModeChangedEv 0x0000f7b0   Section        4  qsysteminfo_s60.o(i._ZThn8_N10QtMobility24QSystemDeviceInfoPrivate18networkModeChangedEv)
    i._ZThn8_N10QtMobility24QSystemDeviceInfoPrivate18networkNameChangedEv 0x0000f7b4   Section        4  qsysteminfo_s60.o(i._ZThn8_N10QtMobility24QSystemDeviceInfoPrivate18networkNameChangedEv)
    i._ZThn8_N10QtMobility24QSystemDeviceInfoPrivate24cellNetworkStatusChangedEv 0x0000f7b8   Section        4  qsysteminfo_s60.o(i._ZThn8_N10QtMobility24QSystemDeviceInfoPrivate24cellNetworkStatusChangedEv)
    i._ZThn8_N10QtMobility24QSystemDeviceInfoPrivate32cellNetworkSignalStrengthChangedEv 0x0000f7bc   Section        4  qsysteminfo_s60.o(i._ZThn8_N10QtMobility24QSystemDeviceInfoPrivate32cellNetworkSignalStrengthChangedEv)
    i._ZThn8_N10QtMobility25QSystemNetworkInfoPrivate19batteryLevelChangedEv 0x0000f7c0   Section        4  qsysteminfo_s60.o(i._ZThn8_N10QtMobility25QSystemNetworkInfoPrivate19batteryLevelChangedEv)
    i._ZThn8_N9CWlanInfo10RssChangedE13TWlanRssClassj 0x0000f7c4   Section        4  moc_wlaninfo_s60.o(i._ZThn8_N9CWlanInfo10RssChangedE13TWlanRssClassj)
    i._ZThn8_N9CWlanInfo11BssRegainedEv      0x0000f7c8   Section        4  moc_wlaninfo_s60.o(i._ZThn8_N9CWlanInfo11BssRegainedEv)
    i._ZThn8_N9CWlanInfo12BssidChangedER5TBuf8ILi6EE 0x0000f7cc   Section        4  moc_wlaninfo_s60.o(i._ZThn8_N9CWlanInfo12BssidChangedER5TBuf8ILi6EE)
    i._ZThn8_N9CWlanInfo15OldNetworksLostEv  0x0000f7d0   Section        4  moc_wlaninfo_s60.o(i._ZThn8_N9CWlanInfo15OldNetworksLostEv)
    i._ZThn8_N9CWlanInfo19NewNetworksDetectedEv 0x0000f7d4   Section        4  moc_wlaninfo_s60.o(i._ZThn8_N9CWlanInfo19NewNetworksDetectedEv)
    i._ZThn8_N9CWlanInfo20TransmitPowerChangedEj 0x0000f7d8   Section        4  moc_wlaninfo_s60.o(i._ZThn8_N9CWlanInfo20TransmitPowerChangedEj)
    i._ZThn8_N9CWlanInfo7BssLostEv           0x0000f7dc   Section        4  moc_wlaninfo_s60.o(i._ZThn8_N9CWlanInfo7BssLostEv)
    i._ZdlPvS_                               0x0000f7e0   Section        2  qsystemgeneralinfo.o(i._ZdlPvS_)
    i._ZeqRK13QLatin1StringS1_               0x0000f7e2   Section       34  qsystemgeneralinfo.o(i._ZeqRK13QLatin1StringS1_)
    i._ZnwjPv                                0x0000f804   Section        6  qsystemgeneralinfo.o(i._ZnwjPv)
    t._Z17qRegisterMetaTypeI6QFlagsIN10QtMobility17QSystemDeviceInfo11InputMethodEEEiPKcPT_ 0x0000f80c   Section       64  qsystemdeviceinfo.o(t._Z17qRegisterMetaTypeI6QFlagsIN10QtMobility17QSystemDeviceInfo11InputMethodEEEiPKcPT_)
    t._Z17qRegisterMetaTypeIN10QtMobility11QSystemInfo7FeatureEEiPKcPT_ 0x0000f84c   Section       64  qsystemgeneralinfo.o(t._Z17qRegisterMetaTypeIN10QtMobility11QSystemInfo7FeatureEEiPKcPT_)
    t._Z17qRegisterMetaTypeIN10QtMobility11QSystemInfo7VersionEEiPKcPT_ 0x0000f88c   Section       64  qsystemgeneralinfo.o(t._Z17qRegisterMetaTypeIN10QtMobility11QSystemInfo7VersionEEiPKcPT_)
    t._Z17qRegisterMetaTypeIN10QtMobility17QSystemDeviceInfo10PowerStateEEiPKcPT_ 0x0000f8cc   Section       64  qsystemdeviceinfo.o(t._Z17qRegisterMetaTypeIN10QtMobility17QSystemDeviceInfo10PowerStateEEiPKcPT_)
    t._Z17qRegisterMetaTypeIN10QtMobility17QSystemDeviceInfo13BatteryStatusEEiPKcPT_ 0x0000f90c   Section       64  qsystemdeviceinfo.o(t._Z17qRegisterMetaTypeIN10QtMobility17QSystemDeviceInfo13BatteryStatusEEiPKcPT_)
    t._Z17qRegisterMetaTypeIN10QtMobility17QSystemDeviceInfo7ProfileEEiPKcPT_ 0x0000f94c   Section       64  qsystemdeviceinfo.o(t._Z17qRegisterMetaTypeIN10QtMobility17QSystemDeviceInfo7ProfileEEiPKcPT_)
    t._Z17qRegisterMetaTypeIN10QtMobility17QSystemDeviceInfo9SimStatusEEiPKcPT_ 0x0000f98c   Section       64  qsystemdeviceinfo.o(t._Z17qRegisterMetaTypeIN10QtMobility17QSystemDeviceInfo9SimStatusEEiPKcPT_)
    t._Z17qRegisterMetaTypeIN10QtMobility18QSystemNetworkInfo11NetworkModeEEiPKcPT_ 0x0000f9cc   Section       64  qsystemnetworkinfo.o(t._Z17qRegisterMetaTypeIN10QtMobility18QSystemNetworkInfo11NetworkModeEEiPKcPT_)
    t._Z17qRegisterMetaTypeIN10QtMobility18QSystemNetworkInfo13NetworkStatusEEiPKcPT_ 0x0000fa0c   Section       64  qsystemnetworkinfo.o(t._Z17qRegisterMetaTypeIN10QtMobility18QSystemNetworkInfo13NetworkStatusEEiPKcPT_)
    t._Z17qRegisterMetaTypeIN10QtMobility18QSystemStorageInfo9DriveTypeEEiPKcPT_ 0x0000fa4c   Section       64  qsystemstorageinfo.o(t._Z17qRegisterMetaTypeIN10QtMobility18QSystemStorageInfo9DriveTypeEEiPKcPT_)
    t._Z20qForeachContainerNewI5QListIP22MStorageStatusObserverEE17QForeachContainerIT_ERKS5_ 0x0000fa8c   Section      126  storagestatus_s60.o(t._Z20qForeachContainerNewI5QListIP22MStorageStatusObserverEE17QForeachContainerIT_ERKS5_)
    t._Z20qForeachContainerNewI5QListIP22MStorageStatusObserverEE17QForeachContainerIT_ERKS5_.clean 0x0000fb0a   Section       10  storagestatus_s60.o(t._Z20qForeachContainerNewI5QListIP22MStorageStatusObserverEE17QForeachContainerIT_ERKS5_.clean)
    t._Z20qForeachContainerNewI5QListIP22MTelephonyInfoObserverEE17QForeachContainerIT_ERKS5_ 0x0000fb14   Section      126  telephonyinfo_s60.o(t._Z20qForeachContainerNewI5QListIP22MTelephonyInfoObserverEE17QForeachContainerIT_ERKS5_)
    t._Z20qForeachContainerNewI5QListIP22MTelephonyInfoObserverEE17QForeachContainerIT_ERKS5_.clean 0x0000fb92   Section       10  telephonyinfo_s60.o(t._Z20qForeachContainerNewI5QListIP22MTelephonyInfoObserverEE17QForeachContainerIT_ERKS5_.clean)
    t._Z21qMetaTypeDeleteHelperI6QFlagsIN10QtMobility17QSystemDeviceInfo11InputMethodEEEvPT_ 0x0000fb9c   Section       12  qsystemdeviceinfo.o(t._Z21qMetaTypeDeleteHelperI6QFlagsIN10QtMobility17QSystemDeviceInfo11InputMethodEEEvPT_)
    t._Z21qMetaTypeDeleteHelperIN10QtMobility11QSystemInfo7FeatureEEvPT_ 0x0000fba8   Section       12  qsystemgeneralinfo.o(t._Z21qMetaTypeDeleteHelperIN10QtMobility11QSystemInfo7FeatureEEvPT_)
    t._Z21qMetaTypeDeleteHelperIN10QtMobility11QSystemInfo7VersionEEvPT_ 0x0000fbb4   Section       12  qsystemgeneralinfo.o(t._Z21qMetaTypeDeleteHelperIN10QtMobility11QSystemInfo7VersionEEvPT_)
    t._Z21qMetaTypeDeleteHelperIN10QtMobility17QSystemDeviceInfo10PowerStateEEvPT_ 0x0000fbc0   Section       12  qsystemdeviceinfo.o(t._Z21qMetaTypeDeleteHelperIN10QtMobility17QSystemDeviceInfo10PowerStateEEvPT_)
    t._Z21qMetaTypeDeleteHelperIN10QtMobility17QSystemDeviceInfo13BatteryStatusEEvPT_ 0x0000fbcc   Section       12  qsystemdeviceinfo.o(t._Z21qMetaTypeDeleteHelperIN10QtMobility17QSystemDeviceInfo13BatteryStatusEEvPT_)
    t._Z21qMetaTypeDeleteHelperIN10QtMobility17QSystemDeviceInfo7ProfileEEvPT_ 0x0000fbd8   Section       12  qsystemdeviceinfo.o(t._Z21qMetaTypeDeleteHelperIN10QtMobility17QSystemDeviceInfo7ProfileEEvPT_)
    t._Z21qMetaTypeDeleteHelperIN10QtMobility17QSystemDeviceInfo9SimStatusEEvPT_ 0x0000fbe4   Section       12  qsystemdeviceinfo.o(t._Z21qMetaTypeDeleteHelperIN10QtMobility17QSystemDeviceInfo9SimStatusEEvPT_)
    t._Z21qMetaTypeDeleteHelperIN10QtMobility18QSystemNetworkInfo11NetworkModeEEvPT_ 0x0000fbf0   Section       12  qsystemnetworkinfo.o(t._Z21qMetaTypeDeleteHelperIN10QtMobility18QSystemNetworkInfo11NetworkModeEEvPT_)
    t._Z21qMetaTypeDeleteHelperIN10QtMobility18QSystemNetworkInfo13NetworkStatusEEvPT_ 0x0000fbfc   Section       12  qsystemnetworkinfo.o(t._Z21qMetaTypeDeleteHelperIN10QtMobility18QSystemNetworkInfo13NetworkStatusEEvPT_)
    t._Z21qMetaTypeDeleteHelperIN10QtMobility18QSystemStorageInfo9DriveTypeEEvPT_ 0x0000fc08   Section       12  qsystemstorageinfo.o(t._Z21qMetaTypeDeleteHelperIN10QtMobility18QSystemStorageInfo9DriveTypeEEvPT_)
    t._Z24qMetaTypeConstructHelperI6QFlagsIN10QtMobility17QSystemDeviceInfo11InputMethodEEEPvPKT_ 0x0000fc14   Section       80  qsystemdeviceinfo.o(t._Z24qMetaTypeConstructHelperI6QFlagsIN10QtMobility17QSystemDeviceInfo11InputMethodEEEPvPKT_)
    t._Z24qMetaTypeConstructHelperI6QFlagsIN10QtMobility17QSystemDeviceInfo11InputMethodEEEPvPKT_.clean 0x0000fc64   Section        4  qsystemdeviceinfo.o(t._Z24qMetaTypeConstructHelperI6QFlagsIN10QtMobility17QSystemDeviceInfo11InputMethodEEEPvPKT_.clean)
    t._Z24qMetaTypeConstructHelperIN10QtMobility11QSystemInfo7FeatureEEPvPKT_ 0x0000fc68   Section       50  qsystemgeneralinfo.o(t._Z24qMetaTypeConstructHelperIN10QtMobility11QSystemInfo7FeatureEEPvPKT_)
    t._Z24qMetaTypeConstructHelperIN10QtMobility11QSystemInfo7VersionEEPvPKT_ 0x0000fc9a   Section       50  qsystemgeneralinfo.o(t._Z24qMetaTypeConstructHelperIN10QtMobility11QSystemInfo7VersionEEPvPKT_)
    t._Z24qMetaTypeConstructHelperIN10QtMobility17QSystemDeviceInfo10PowerStateEEPvPKT_ 0x0000fccc   Section       50  qsystemdeviceinfo.o(t._Z24qMetaTypeConstructHelperIN10QtMobility17QSystemDeviceInfo10PowerStateEEPvPKT_)
    t._Z24qMetaTypeConstructHelperIN10QtMobility17QSystemDeviceInfo13BatteryStatusEEPvPKT_ 0x0000fcfe   Section       50  qsystemdeviceinfo.o(t._Z24qMetaTypeConstructHelperIN10QtMobility17QSystemDeviceInfo13BatteryStatusEEPvPKT_)
    t._Z24qMetaTypeConstructHelperIN10QtMobility17QSystemDeviceInfo7ProfileEEPvPKT_ 0x0000fd30   Section       50  qsystemdeviceinfo.o(t._Z24qMetaTypeConstructHelperIN10QtMobility17QSystemDeviceInfo7ProfileEEPvPKT_)
    t._Z24qMetaTypeConstructHelperIN10QtMobility17QSystemDeviceInfo9SimStatusEEPvPKT_ 0x0000fd62   Section       50  qsystemdeviceinfo.o(t._Z24qMetaTypeConstructHelperIN10QtMobility17QSystemDeviceInfo9SimStatusEEPvPKT_)
    t._Z24qMetaTypeConstructHelperIN10QtMobility18QSystemNetworkInfo11NetworkModeEEPvPKT_ 0x0000fd94   Section       50  qsystemnetworkinfo.o(t._Z24qMetaTypeConstructHelperIN10QtMobility18QSystemNetworkInfo11NetworkModeEEPvPKT_)
    t._Z24qMetaTypeConstructHelperIN10QtMobility18QSystemNetworkInfo13NetworkStatusEEPvPKT_ 0x0000fdc6   Section       50  qsystemnetworkinfo.o(t._Z24qMetaTypeConstructHelperIN10QtMobility18QSystemNetworkInfo13NetworkStatusEEPvPKT_)
    t._Z24qMetaTypeConstructHelperIN10QtMobility18QSystemStorageInfo9DriveTypeEEPvPKT_ 0x0000fdf8   Section       50  qsystemstorageinfo.o(t._Z24qMetaTypeConstructHelperIN10QtMobility18QSystemStorageInfo9DriveTypeEEPvPKT_)
    t._ZN12CleanupCloseI10RWsSessionE5CloseEPv 0x0000fe2a   Section       12  qsysteminfo_s60.o(t._ZN12CleanupCloseI10RWsSessionE5CloseEPv)
    t._ZN12CleanupCloseI3RFsE5CloseEPv       0x0000fe36   Section       12  qsysteminfo_s60.o(t._ZN12CleanupCloseI3RFsE5CloseEPv)
    t._ZN12CleanupCloseI6RArrayIiEE5CloseEPv 0x0000fe42   Section       14  qsysteminfo_s60.o(t._ZN12CleanupCloseI6RArrayIiEE5CloseEPv)
    t._ZN20QGlobalStaticDeleterIN10QtMobility18QSystemInfoPrivateEED1Ev 0x0000fe50   Section       38  qsystemgeneralinfo.o(t._ZN20QGlobalStaticDeleterIN10QtMobility18QSystemInfoPrivateEED1Ev)
    t._ZN20QGlobalStaticDeleterIN10QtMobility24QSystemDeviceInfoPrivateEED1Ev 0x0000fe76   Section       38  qsystemdeviceinfo.o(t._ZN20QGlobalStaticDeleterIN10QtMobility24QSystemDeviceInfoPrivateEED1Ev)
    t._ZN20QGlobalStaticDeleterIN10QtMobility25QSystemDisplayInfoPrivateEED1Ev 0x0000fe9c   Section       38  qsystemdisplayinfo.o(t._ZN20QGlobalStaticDeleterIN10QtMobility25QSystemDisplayInfoPrivateEED1Ev)
    t._ZN20QGlobalStaticDeleterIN10QtMobility25QSystemNetworkInfoPrivateEED1Ev 0x0000fec2   Section       38  qsystemnetworkinfo.o(t._ZN20QGlobalStaticDeleterIN10QtMobility25QSystemNetworkInfoPrivateEED1Ev)
    t._ZN20QGlobalStaticDeleterIN10QtMobility25QSystemStorageInfoPrivateEED1Ev 0x0000fee8   Section       38  qsystemstorageinfo.o(t._ZN20QGlobalStaticDeleterIN10QtMobility25QSystemStorageInfoPrivateEED1Ev)
    t._ZN5QListI7QStringE13detach_helperEi   0x0000ff0e   Section       94  qsysteminfo_s60.o(t._ZN5QListI7QStringE13detach_helperEi)
    t._ZN5QListI7QStringE13detach_helperEi.clean 0x0000ff6c   Section        8  qsysteminfo_s60.o(t._ZN5QListI7QStringE13detach_helperEi.clean)
    t._ZN5QListI7QStringE13detach_helperEv   0x0000ff74   Section       16  qsystemgeneralinfo.o(t._ZN5QListI7QStringE13detach_helperEv)
    t._ZN5QListI7QStringE13node_destructEPNS1_4NodeES3_ 0x0000ff84   Section       26  qsysteminfo_s60.o(t._ZN5QListI7QStringE13node_destructEPNS1_4NodeES3_)
    t._ZN5QListI7QStringE14node_constructEPNS1_4NodeERKS0_ 0x0000ff9e   Section       36  qsysteminfo_s60.o(t._ZN5QListI7QStringE14node_constructEPNS1_4NodeERKS0_)
    t._ZN5QListI7QStringE14node_constructEPNS1_4NodeERKS0_.clean 0x0000ffc2   Section       14  qsysteminfo_s60.o(t._ZN5QListI7QStringE14node_constructEPNS1_4NodeERKS0_.clean)
    t._ZN5QListI7QStringE18detach_helper_growEii 0x0000ffd0   Section      208  qsysteminfo_s60.o(t._ZN5QListI7QStringE18detach_helper_growEii)
    t._ZN5QListI7QStringE18detach_helper_growEii.clean 0x000100a0   Section       16  qsysteminfo_s60.o(t._ZN5QListI7QStringE18detach_helper_growEii.clean)
    t._ZN5QListI7QStringE4freeEPN9QListData4DataE 0x000100b0   Section       58  qsysteminfo_s60.o(t._ZN5QListI7QStringE4freeEPN9QListData4DataE)
    t._ZN5QListI7QStringE6appendERKS0_       0x000100ec   Section      120  qsysteminfo_s60.o(t._ZN5QListI7QStringE6appendERKS0_)
    t._ZN5QListI7QStringE6appendERKS0_.clean 0x00010164   Section       14  qsysteminfo_s60.o(t._ZN5QListI7QStringE6appendERKS0_.clean)
    t._ZN5QListI7QStringE9node_copyEPNS1_4NodeES3_S3_ 0x00010172   Section       82  qsysteminfo_s60.o(t._ZN5QListI7QStringE9node_copyEPNS1_4NodeES3_S3_)
    t._ZN5QListI7QStringE9node_copyEPNS1_4NodeES3_S3_.clean 0x000101c4   Section       22  qsysteminfo_s60.o(t._ZN5QListI7QStringE9node_copyEPNS1_4NodeES3_S3_.clean)
    t._ZN5QListI7QStringEC1Ev                0x000101dc   Section       24  qsysteminfo_s60.o(t._ZN5QListI7QStringEC1Ev)
    t._ZN5QListI7QStringED1Ev                0x000101f4   Section       32  qsystemgeneralinfo.o(t._ZN5QListI7QStringED1Ev)
    t._ZN5QListIP22MStorageStatusObserverE13detach_helperEi 0x00010214   Section       94  storagestatus_s60.o(t._ZN5QListIP22MStorageStatusObserverE13detach_helperEi)
    t._ZN5QListIP22MStorageStatusObserverE13detach_helperEi.clean 0x00010272   Section        8  storagestatus_s60.o(t._ZN5QListIP22MStorageStatusObserverE13detach_helperEi.clean)
    t._ZN5QListIP22MStorageStatusObserverE13detach_helperEv 0x0001027a   Section       16  storagestatus_s60.o(t._ZN5QListIP22MStorageStatusObserverE13detach_helperEv)
    t._ZN5QListIP22MStorageStatusObserverE18detach_helper_growEii 0x0001028a   Section      204  storagestatus_s60.o(t._ZN5QListIP22MStorageStatusObserverE18detach_helper_growEii)
    t._ZN5QListIP22MStorageStatusObserverE18detach_helper_growEii.clean 0x00010356   Section       16  storagestatus_s60.o(t._ZN5QListIP22MStorageStatusObserverE18detach_helper_growEii.clean)
    t._ZN5QListIP22MStorageStatusObserverE4freeEPN9QListData4DataE 0x00010366   Section       58  storagestatus_s60.o(t._ZN5QListIP22MStorageStatusObserverE4freeEPN9QListData4DataE)
    t._ZN5QListIP22MStorageStatusObserverE6appendERKS1_ 0x000103a0   Section      100  storagestatus_s60.o(t._ZN5QListIP22MStorageStatusObserverE6appendERKS1_)
    t._ZN5QListIP22MStorageStatusObserverE6appendERKS1_.clean 0x00010404   Section       10  storagestatus_s60.o(t._ZN5QListIP22MStorageStatusObserverE6appendERKS1_.clean)
    t._ZN5QListIP22MStorageStatusObserverE9node_copyEPNS2_4NodeES4_S4_ 0x0001040e   Section       46  storagestatus_s60.o(t._ZN5QListIP22MStorageStatusObserverE9node_copyEPNS2_4NodeES4_S4_)
    t._ZN5QListIP22MStorageStatusObserverE9removeOneERKS1_ 0x0001043c   Section      128  storagestatus_s60.o(t._ZN5QListIP22MStorageStatusObserverE9removeOneERKS1_)
    t._ZN5QListIP22MStorageStatusObserverED1Ev 0x000104bc   Section       32  storagestatus_s60.o(t._ZN5QListIP22MStorageStatusObserverED1Ev)
    t._ZN5QListIP22MTelephonyInfoObserverE13detach_helperEi 0x000104dc   Section       94  telephonyinfo_s60.o(t._ZN5QListIP22MTelephonyInfoObserverE13detach_helperEi)
    t._ZN5QListIP22MTelephonyInfoObserverE13detach_helperEi.clean 0x0001053a   Section        8  telephonyinfo_s60.o(t._ZN5QListIP22MTelephonyInfoObserverE13detach_helperEi.clean)
    t._ZN5QListIP22MTelephonyInfoObserverE13detach_helperEv 0x00010542   Section       16  telephonyinfo_s60.o(t._ZN5QListIP22MTelephonyInfoObserverE13detach_helperEv)
    t._ZN5QListIP22MTelephonyInfoObserverE18detach_helper_growEii 0x00010552   Section      204  telephonyinfo_s60.o(t._ZN5QListIP22MTelephonyInfoObserverE18detach_helper_growEii)
    t._ZN5QListIP22MTelephonyInfoObserverE18detach_helper_growEii.clean 0x0001061e   Section       16  telephonyinfo_s60.o(t._ZN5QListIP22MTelephonyInfoObserverE18detach_helper_growEii.clean)
    t._ZN5QListIP22MTelephonyInfoObserverE4freeEPN9QListData4DataE 0x0001062e   Section       58  telephonyinfo_s60.o(t._ZN5QListIP22MTelephonyInfoObserverE4freeEPN9QListData4DataE)
    t._ZN5QListIP22MTelephonyInfoObserverE6appendERKS1_ 0x00010668   Section      100  telephonyinfo_s60.o(t._ZN5QListIP22MTelephonyInfoObserverE6appendERKS1_)
    t._ZN5QListIP22MTelephonyInfoObserverE6appendERKS1_.clean 0x000106cc   Section       10  telephonyinfo_s60.o(t._ZN5QListIP22MTelephonyInfoObserverE6appendERKS1_.clean)
    t._ZN5QListIP22MTelephonyInfoObserverE9node_copyEPNS2_4NodeES4_S4_ 0x000106d6   Section       46  telephonyinfo_s60.o(t._ZN5QListIP22MTelephonyInfoObserverE9node_copyEPNS2_4NodeES4_S4_)
    t._ZN5QListIP22MTelephonyInfoObserverE9removeOneERKS1_ 0x00010704   Section      128  telephonyinfo_s60.o(t._ZN5QListIP22MTelephonyInfoObserverE9removeOneERKS1_)
    t._ZN5QListIP22MTelephonyInfoObserverED1Ev 0x00010784   Section       32  telephonyinfo_s60.o(t._ZN5QListIP22MTelephonyInfoObserverED1Ev)
    t._ZN5QListIP23MChargingStatusObserverE13detach_helperEi 0x000107a4   Section       94  chargingstatus_s60.o(t._ZN5QListIP23MChargingStatusObserverE13detach_helperEi)
    t._ZN5QListIP23MChargingStatusObserverE13detach_helperEi.clean 0x00010802   Section        8  chargingstatus_s60.o(t._ZN5QListIP23MChargingStatusObserverE13detach_helperEi.clean)
    t._ZN5QListIP23MChargingStatusObserverE13detach_helperEv 0x0001080a   Section       16  chargingstatus_s60.o(t._ZN5QListIP23MChargingStatusObserverE13detach_helperEv)
    t._ZN5QListIP23MChargingStatusObserverE18detach_helper_growEii 0x0001081a   Section      204  chargingstatus_s60.o(t._ZN5QListIP23MChargingStatusObserverE18detach_helper_growEii)
    t._ZN5QListIP23MChargingStatusObserverE18detach_helper_growEii.clean 0x000108e6   Section       16  chargingstatus_s60.o(t._ZN5QListIP23MChargingStatusObserverE18detach_helper_growEii.clean)
    t._ZN5QListIP23MChargingStatusObserverE4freeEPN9QListData4DataE 0x000108f6   Section       58  chargingstatus_s60.o(t._ZN5QListIP23MChargingStatusObserverE4freeEPN9QListData4DataE)
    t._ZN5QListIP23MChargingStatusObserverE6appendERKS1_ 0x00010930   Section      100  chargingstatus_s60.o(t._ZN5QListIP23MChargingStatusObserverE6appendERKS1_)
    t._ZN5QListIP23MChargingStatusObserverE6appendERKS1_.clean 0x00010994   Section       10  chargingstatus_s60.o(t._ZN5QListIP23MChargingStatusObserverE6appendERKS1_.clean)
    t._ZN5QListIP23MChargingStatusObserverE9node_copyEPNS2_4NodeES4_S4_ 0x0001099e   Section       46  chargingstatus_s60.o(t._ZN5QListIP23MChargingStatusObserverE9node_copyEPNS2_4NodeES4_S4_)
    t._ZN5QListIP23MChargingStatusObserverE9removeOneERKS1_ 0x000109cc   Section      128  chargingstatus_s60.o(t._ZN5QListIP23MChargingStatusObserverE9removeOneERKS1_)
    t._ZN5QListIP23MChargingStatusObserverED1Ev 0x00010a4c   Section       32  chargingstatus_s60.o(t._ZN5QListIP23MChargingStatusObserverED1Ev)
    t._ZN5TBuf8ILi26EEC1Ev                   0x00010a6c   Section       16  storagestatus_s60.o(t._ZN5TBuf8ILi26EEC1Ev)
    t._ZNK17QForeachContainerI5QListIP22MStorageStatusObserverEE9conditionEv 0x00010a7c   Section       40  storagestatus_s60.o(t._ZNK17QForeachContainerI5QListIP22MStorageStatusObserverEE9conditionEv)
    t._ZNK17QForeachContainerI5QListIP22MTelephonyInfoObserverEE9conditionEv 0x00010aa4   Section       40  telephonyinfo_s60.o(t._ZNK17QForeachContainerI5QListIP22MTelephonyInfoObserverEE9conditionEv)
    t._ZNK5QListIP22MStorageStatusObserverE7indexOfERKS1_i 0x00010acc   Section      132  storagestatus_s60.o(t._ZNK5QListIP22MStorageStatusObserverE7indexOfERKS1_i)
    t._ZNK5QListIP22MTelephonyInfoObserverE7indexOfERKS1_i 0x00010b50   Section      132  telephonyinfo_s60.o(t._ZNK5QListIP22MTelephonyInfoObserverE7indexOfERKS1_i)
    t._ZNK5QListIP23MChargingStatusObserverE7indexOfERKS1_i 0x00010bd4   Section      132  chargingstatus_s60.o(t._ZNK5QListIP23MChargingStatusObserverE7indexOfERKS1_i)
    .extab._ZN13CWlanScanInfoD2Ev            0x00010c58   Data           0  moc_wlaninfo_s60.o(.ARM.extab)
    .extab._ZN15CWlanMgmtClientD2Ev          0x00010c68   Data           0  moc_wlaninfo_s60.o(.ARM.extab)
    .extab._ZN10QtMobility14sysinfoPrivateEv 0x00010c78   Data           0  qsystemgeneralinfo.o(.ARM.extab)
    .extab._ZN10QtMobility11QSystemInfo11qt_metacallEN11QMetaObject4CallEiPPv 0x00010c90   Data           0  qsystemgeneralinfo.o(.ARM.extab)
    .extab._ZN10QtMobility11QSystemInfoC1EP7QObject 0x00010cb0   Data           0  qsystemgeneralinfo.o(.ARM.extab)
    .extab._ZN10QtMobility11QSystemInfo13connectNotifyEPKc 0x00010cc0   Data           0  qsystemgeneralinfo.o(.ARM.extab)
    .extab._ZN10QtMobility11QSystemInfo16disconnectNotifyEPKc 0x00010cd0   Data           0  qsystemgeneralinfo.o(.ARM.extab)
    .extab._ZN10QtMobility17deviceInfoPrivateEv 0x00010ce0   Data           0  qsystemdeviceinfo.o(.ARM.extab)
    .extab._ZN10QtMobility17QSystemDeviceInfo11qt_metacallEN11QMetaObject4CallEiPPv 0x00010cf8   Data           0  qsystemdeviceinfo.o(.ARM.extab)
    .extab._ZN10QtMobility17QSystemDeviceInfoC1EP7QObject 0x00010d28   Data           0  qsystemdeviceinfo.o(.ARM.extab)
    .extab._ZN10QtMobility17QSystemDeviceInfo13connectNotifyEPKc 0x00010d38   Data           0  qsystemdeviceinfo.o(.ARM.extab)
    .extab._ZN10QtMobility17QSystemDeviceInfo16disconnectNotifyEPKc 0x00010d68   Data           0  qsystemdeviceinfo.o(.ARM.extab)
    .extab._ZN10QtMobility18displayInfoPrivateEv 0x00010d98   Data           0  qsystemdisplayinfo.o(.ARM.extab)
    .extab._ZN10QtMobility18QSystemDisplayInfo17displayBrightnessEi 0x00010db0   Data           0  qsystemdisplayinfo.o(.ARM.extab)
    .extab._ZN10QtMobility18QSystemDisplayInfo10colorDepthEi 0x00010dc8   Data           0  qsystemdisplayinfo.o(.ARM.extab)
    .extab._ZN10QtMobility14netInfoPrivateEv 0x00010de0   Data           0  qsystemnetworkinfo.o(.ARM.extab)
    .extab._ZN10QtMobility18QSystemNetworkInfo11qt_metacallEN11QMetaObject4CallEiPPv 0x00010df8   Data           0  qsystemnetworkinfo.o(.ARM.extab)
    .extab._ZN10QtMobility18QSystemNetworkInfoC1EP7QObject 0x00010e30   Data           0  qsystemnetworkinfo.o(.ARM.extab)
    .extab._ZN10QtMobility18QSystemNetworkInfo13connectNotifyEPKc 0x00010e40   Data           0  qsystemnetworkinfo.o(.ARM.extab)
    .extab._ZN10QtMobility18QSystemNetworkInfo16disconnectNotifyEPKc 0x00010e80   Data           0  qsystemnetworkinfo.o(.ARM.extab)
    .extab._ZN10QtMobility18QSystemScreenSaverC1EP7QObject 0x00010eb8   Data           0  qsystemscreensaver.o(.ARM.extab)
    .extab._ZN10QtMobility18QSystemScreenSaverD1Ev 0x00010ed8   Data           0  qsystemscreensaver.o(.ARM.extab)
    .extab._ZN10QtMobility18storageInfoPrivateEv 0x00010ee8   Data           0  qsystemstorageinfo.o(.ARM.extab)
    .extab._ZN10QtMobility18QSystemStorageInfo11qt_metacallEN11QMetaObject4CallEiPPv 0x00010f00   Data           0  qsystemstorageinfo.o(.ARM.extab)
    .extab._ZN10QtMobility18QSystemStorageInfoC1EP7QObject 0x00010f10   Data           0  qsystemstorageinfo.o(.ARM.extab)
    .extab._ZNK10QtMobility18QSystemInfoPrivate18availableLanguagesEv 0x00010f20   Data           0  qsysteminfo_s60.o(.ARM.extab)
    .extab._ZNK10QtMobility18QSystemInfoPrivate18currentCountryCodeEv 0x00010f68   Data           0  qsysteminfo_s60.o(.ARM.extab)
    .extab._ZNK10QtMobility18QSystemInfoPrivate10S60VersionEv 0x00010f78   Data           0  qsysteminfo_s60.o(.ARM.extab)
    .extab._ZN10QtMobility18QSystemInfoPrivate7versionENS_11QSystemInfo7VersionERK7QString 0x00010ff8   Data           0  qsysteminfo_s60.o(.ARM.extab)
    .extab._ZN10QtMobility18QSystemInfoPrivate19hasFeatureSupportedENS_11QSystemInfo7FeatureE 0x00011038   Data           0  qsysteminfo_s60.o(.ARM.extab)
    .extab._ZN10QtMobility25QSystemNetworkInfoPrivate22wlanNetworkNameChangedEv 0x00011090   Data           0  qsysteminfo_s60.o(.ARM.extab)
    .extab._ZN10QtMobility25QSystemNetworkInfoPrivateC1EP7QObject 0x000110a0   Data           0  qsysteminfo_s60.o(.ARM.extab)
    .extab._ZN10QtMobility25QSystemNetworkInfoPrivateD1Ev 0x000110b0   Data           0  qsysteminfo_s60.o(.ARM.extab)
    .extab._ZN10QtMobility25QSystemNetworkInfoPrivate21homeMobileCountryCodeEv 0x000110c0   Data           0  qsysteminfo_s60.o(.ARM.extab)
    .extab._ZN10QtMobility25QSystemNetworkInfoPrivate11networkNameENS_18QSystemNetworkInfo11NetworkModeE 0x000110d8   Data           0  qsysteminfo_s60.o(.ARM.extab)
    .extab._ZN10QtMobility25QSystemNetworkInfoPrivate10macAddressENS_18QSystemNetworkInfo11NetworkModeE 0x00011110   Data           0  qsysteminfo_s60.o(.ARM.extab)
    .extab._ZN10QtMobility25QSystemNetworkInfoPrivate18countryCodeChangedEv 0x000111a0   Data           0  qsysteminfo_s60.o(.ARM.extab)
    .extab._ZN10QtMobility25QSystemNetworkInfoPrivate18networkCodeChangedEv 0x000111b0   Data           0  qsysteminfo_s60.o(.ARM.extab)
    .extab._ZN10QtMobility25QSystemNetworkInfoPrivate18networkNameChangedEv 0x000111c0   Data           0  qsysteminfo_s60.o(.ARM.extab)
    .extab._ZN10QtMobility25QSystemDisplayInfoPrivate17displayBrightnessEi 0x000111d0   Data           0  qsysteminfo_s60.o(.ARM.extab)
    .extab._ZN10QtMobility25QSystemDisplayInfoPrivate10colorDepthEi 0x00011200   Data           0  qsysteminfo_s60.o(.ARM.extab)
    .extab._ZN10QtMobility25QSystemStorageInfoPrivateC1EP7QObject 0x00011230   Data           0  qsysteminfo_s60.o(.ARM.extab)
    .extab._ZN10QtMobility25QSystemStorageInfoPrivateD1Ev 0x00011240   Data           0  qsysteminfo_s60.o(.ARM.extab)
    .extab._ZN10QtMobility25QSystemStorageInfoPrivate13logicalDrivesEv 0x00011250   Data           0  qsysteminfo_s60.o(.ARM.extab)
    .extab._ZN10QtMobility24QSystemDeviceInfoPrivateC1EP7QObject 0x000112a0   Data           0  qsysteminfo_s60.o(.ARM.extab)
    .extab._ZN10QtMobility24QSystemDeviceInfoPrivateD1Ev 0x000112b0   Data           0  qsysteminfo_s60.o(.ARM.extab)
    .extab._ZN10QtMobility24QSystemDeviceInfoPrivate15inputMethodTypeEv 0x000112c0   Data           0  qsysteminfo_s60.o(.ARM.extab)
    .extab._ZN10QtMobility24QSystemDeviceInfoPrivate11productNameEv 0x000112f0   Data           0  qsysteminfo_s60.o(.ARM.extab)
    .extab._ZN10QtMobility24QSystemDeviceInfoPrivate14currentProfileEv 0x00011330   Data           0  qsysteminfo_s60.o(.ARM.extab)
    .extab._ZN10QtMobility24QSystemDeviceInfoPrivate26currentBluetoothPowerStateEv 0x00011360   Data           0  qsysteminfo_s60.o(.ARM.extab)
    .extab._ZN10QtMobility24QSystemDeviceInfoPrivate13connectNotifyEPKc 0x00011390   Data           0  qsysteminfo_s60.o(.ARM.extab)
    .extab._ZN10QtMobility25QSystemScreenSaverPrivate21setScreenSaverInhibitEv 0x000113e8   Data           0  qsysteminfo_s60.o(.ARM.extab)
    .extab._ZNK13QLatin1StringeqEPKc         0x000113f8   Data           0  qsysteminfo_s60.o(.ARM.extab)
    .extab._ZN5QListI7QStringE9node_copyEPNS1_4NodeES3_S3_ 0x00011408   Data           0  qsysteminfo_s60.o(.ARM.extab)
    .extab._ZN5QListI7QStringE13detach_helperEi 0x0001142c   Data           0  qsysteminfo_s60.o(.ARM.extab)
    .extab._ZN5QListI7QStringE14node_constructEPNS1_4NodeERKS0_ 0x00011448   Data           0  qsysteminfo_s60.o(.ARM.extab)
    .extab._ZN5QListI7QStringE18detach_helper_growEii 0x00011458   Data           0  qsysteminfo_s60.o(.ARM.extab)
    .extab._ZN5QListI7QStringE6appendERKS0_  0x00011488   Data           0  qsysteminfo_s60.o(.ARM.extab)
    .extab._ZN10QtMobility10DeviceInfo8instanceEv 0x000114b8   Data           0  qsysteminfo_s60.o(.ARM.extab)
    .extab._ZN10QtMobility10DeviceInfo8wlanInfoEv 0x000114c8   Data           0  qsysteminfo_s60.o(.ARM.extab)
    .extab._ZN10QtMobility10DeviceInfo14subscriberInfoEv 0x000114d8   Data           0  qsysteminfo_s60.o(.ARM.extab)
    .extab._ZN10QtMobility10DeviceInfo27cellNetworkRegistrationInfoEv 0x000114e8   Data           0  qsysteminfo_s60.o(.ARM.extab)
    .extab._ZN10QtMobility10DeviceInfo15cellNetworkInfoEv 0x000114f8   Data           0  qsysteminfo_s60.o(.ARM.extab)
    .extab._ZN10QtMobility10DeviceInfo22cellSignalStrenghtInfoEv 0x00011508   Data           0  qsysteminfo_s60.o(.ARM.extab)
    .extab._ZN10QtMobility10DeviceInfo16mmcStorageStatusEv 0x00011518   Data           0  qsysteminfo_s60.o(.ARM.extab)
    .extab._ZN10QtMobility10DeviceInfo9phoneInfoEv 0x00011528   Data           0  qsysteminfo_s60.o(.ARM.extab)
    .extab._ZN10QtMobility10DeviceInfo14chargingStatusEv 0x00011538   Data           0  qsysteminfo_s60.o(.ARM.extab)
    .extab._ZN10QtMobility10DeviceInfo11batteryInfoEv 0x00011548   Data           0  qsysteminfo_s60.o(.ARM.extab)
    .extab._ZN5CBasenwEj                     0x00011558   Data           0  qsysteminfo_s60.o(.ARM.extab)
    .extab._ZN14CTelephonyInfoC2ER10CTelephony 0x00011568   Data           0  telephonyinfo_s60.o(.ARM.extab)
    .extab._ZN14CTelephonyInfoD2Ev           0x00011588   Data           0  telephonyinfo_s60.o(.ARM.extab)
    .extab._ZN10CPhoneInfoC1ER10CTelephony   0x000115a0   Data           0  telephonyinfo_s60.o(.ARM.extab)
    .extab._ZN15CSubscriberInfoC1ER10CTelephony 0x000115f8   Data           0  telephonyinfo_s60.o(.ARM.extab)
    .extab._ZN12CBatteryInfoC1ER10CTelephony 0x00011620   Data           0  telephonyinfo_s60.o(.ARM.extab)
    .extab._ZN12CBatteryInfo4RunLEv          0x00011630   Data           0  telephonyinfo_s60.o(.ARM.extab)
    .extab._ZN16CCellNetworkInfoC1ER10CTelephony 0x00011640   Data           0  telephonyinfo_s60.o(.ARM.extab)
    .extab._ZN16CCellNetworkInfo4RunLEv      0x000116c0   Data           0  telephonyinfo_s60.o(.ARM.extab)
    .extab._ZN16CCellNetworkInfo15homeNetworkCodeEv 0x000116f0   Data           0  telephonyinfo_s60.o(.ARM.extab)
    .extab._ZN28CCellNetworkRegistrationInfoC1ER10CTelephony 0x00011700   Data           0  telephonyinfo_s60.o(.ARM.extab)
    .extab._ZN28CCellNetworkRegistrationInfo4RunLEv 0x00011710   Data           0  telephonyinfo_s60.o(.ARM.extab)
    .extab._ZN23CCellSignalStrengthInfoC1ER10CTelephony 0x00011720   Data           0  telephonyinfo_s60.o(.ARM.extab)
    .extab._ZN23CCellSignalStrengthInfo4RunLEv 0x00011730   Data           0  telephonyinfo_s60.o(.ARM.extab)
    .extab._ZN5QListIP22MTelephonyInfoObserverE13detach_helperEi 0x00011740   Data           0  telephonyinfo_s60.o(.ARM.extab)
    .extab._Z20qForeachContainerNewI5QListIP22MTelephonyInfoObserverEE17QForeachContainerIT_ERKS5_ 0x0001175c   Data           0  telephonyinfo_s60.o(.ARM.extab)
    .extab._ZN5QListIP22MTelephonyInfoObserverE18detach_helper_growEii 0x0001176c   Data           0  telephonyinfo_s60.o(.ARM.extab)
    .extab._ZN5QListIP22MTelephonyInfoObserverE6appendERKS1_ 0x0001179c   Data           0  telephonyinfo_s60.o(.ARM.extab)
    .extab._ZN10CPhoneInfoD1Ev               0x000117b8   Data           0  telephonyinfo_s60.o(.ARM.extab)
    .extab._ZN15CSubscriberInfoD1Ev          0x000117d8   Data           0  telephonyinfo_s60.o(.ARM.extab)
    .extab._ZN16CCellNetworkInfoD1Ev         0x000117e8   Data           0  telephonyinfo_s60.o(.ARM.extab)
    .extab._ZN15CChargingStatusC1Ev          0x00011820   Data           0  chargingstatus_s60.o(.ARM.extab)
    .extab._ZN15CChargingStatusD1Ev          0x00011838   Data           0  chargingstatus_s60.o(.ARM.extab)
    .extab._ZN15CChargingStatus4RunLEv       0x00011850   Data           0  chargingstatus_s60.o(.ARM.extab)
    .extab._ZN5QListIP23MChargingStatusObserverE13detach_helperEi 0x00011868   Data           0  chargingstatus_s60.o(.ARM.extab)
    .extab._ZN5QListIP23MChargingStatusObserverE18detach_helper_growEii 0x00011884   Data           0  chargingstatus_s60.o(.ARM.extab)
    .extab._ZN5QListIP23MChargingStatusObserverE6appendERKS1_ 0x000118b4   Data           0  chargingstatus_s60.o(.ARM.extab)
    .extab._ZN9CWlanInfoC1EP7QObject         0x000118d0   Data           0  wlaninfo_s60.o(.ARM.extab)
    .extab._ZN9CWlanInfoD1Ev                 0x00011928   Data           0  wlaninfo_s60.o(.ARM.extab)
    .extab._ZN9CWlanInfo11stopPollingEv      0x00011938   Data           0  wlaninfo_s60.o(.ARM.extab)
    .extab._ZN9CWlanInfo22ConnectionStateChangedE19TWlanConnectionMode 0x00011948   Data           0  wlaninfo_s60.o(.ARM.extab)
    .extab._ZN17CMMCStorageStatusC1Ev        0x00011960   Data           0  storagestatus_s60.o(.ARM.extab)
    .extab._ZN17CMMCStorageStatusD1Ev        0x00011978   Data           0  storagestatus_s60.o(.ARM.extab)
    .extab._ZN17CMMCStorageStatus17CompareDriveListsERK5TBuf8ILi26EE 0x00011990   Data           0  storagestatus_s60.o(.ARM.extab)
    .extab._ZN5QListIP22MStorageStatusObserverE13detach_helperEi 0x000119c8   Data           0  storagestatus_s60.o(.ARM.extab)
    .extab._Z20qForeachContainerNewI5QListIP22MStorageStatusObserverEE17QForeachContainerIT_ERKS5_ 0x000119e4   Data           0  storagestatus_s60.o(.ARM.extab)
    .extab._ZN5QListIP22MStorageStatusObserverE18detach_helper_growEii 0x000119f4   Data           0  storagestatus_s60.o(.ARM.extab)
    .extab._ZN5QListIP22MStorageStatusObserverE6appendERKS1_ 0x00011a24   Data           0  storagestatus_s60.o(.ARM.extab)
    .constdata$1                             0x00011a40   Data           0  moc_wlaninfo_s60.o(.constdata)
    qt_meta_data_CWlanInfo                   0x00011a40   Data         140  moc_wlaninfo_s60.o(.constdata)
    .constdata                               0x00011a40   Section      272  moc_wlaninfo_s60.o(.constdata)
    qt_meta_stringdata_CWlanInfo             0x00011acc   Data         115  moc_wlaninfo_s60.o(.constdata)
    .constdata$1                             0x00011b50   Data           0  qsystemgeneralinfo.o(.constdata)
    .constdata                               0x00011b50   Section      652  qsystemgeneralinfo.o(.constdata)
    QtMobility::qt_meta_data_QSystemInfo     0x00011b60   Data         296  qsystemgeneralinfo.o(.constdata)
    QtMobility::qt_meta_stringdata_QSystemInfo 0x00011c88   Data         340  qsystemgeneralinfo.o(.constdata)
    .constdata$1                             0x00011ddc   Data           0  qsystemdeviceinfo.o(.constdata)
    .constdata                               0x00011ddc   Section     1671  qsystemdeviceinfo.o(.constdata)
    QtMobility::qt_meta_data_QSystemDeviceInfo 0x00011dec   Data         752  qsystemdeviceinfo.o(.constdata)
    QtMobility::qt_meta_stringdata_QSystemDeviceInfo 0x000120dc   Data         903  qsystemdeviceinfo.o(.constdata)
    .constdata$1                             0x00012464   Data           0  qsystemdisplayinfo.o(.constdata)
    .constdata                               0x00012464   Section       96  qsystemdisplayinfo.o(.constdata)
    QtMobility::qt_meta_data_QSystemDisplayInfo 0x00012474   Data          60  qsystemdisplayinfo.o(.constdata)
    QtMobility::qt_meta_stringdata_QSystemDisplayInfo 0x000124b0   Data          20  qsystemdisplayinfo.o(.constdata)
    .constdata$1                             0x000124c4   Data           0  qsystemnetworkinfo.o(.constdata)
    .constdata                               0x000124c4   Section     1740  qsystemnetworkinfo.o(.constdata)
    QtMobility::qt_meta_data_QSystemNetworkInfo 0x000124d4   Data         560  qsystemnetworkinfo.o(.constdata)
    QtMobility::qt_meta_stringdata_QSystemNetworkInfo 0x00012704   Data        1001  qsystemnetworkinfo.o(.constdata)
    .constdata$1                             0x00012b90   Data           0  qsystemscreensaver.o(.constdata)
    .constdata                               0x00012b90   Section      179  qsystemscreensaver.o(.constdata)
    QtMobility::qt_meta_data_QSystemScreenSaver 0x00012ba0   Data          92  qsystemscreensaver.o(.constdata)
    QtMobility::qt_meta_stringdata_QSystemScreenSaver 0x00012bfc   Data          71  qsystemscreensaver.o(.constdata)
    .constdata$1                             0x00012c44   Data           0  qsystemstorageinfo.o(.constdata)
    .constdata                               0x00012c44   Section      515  qsystemstorageinfo.o(.constdata)
    QtMobility::qt_meta_data_QSystemStorageInfo 0x00012c54   Data         212  qsystemstorageinfo.o(.constdata)
    QtMobility::qt_meta_stringdata_QSystemStorageInfo 0x00012d28   Data         287  qsystemstorageinfo.o(.constdata)
    .constdata$1                             0x00012e48   Data           0  qsysteminfo_s60.o(.constdata)
    KNullDesC                                0x00012e48   Data           8  qsysteminfo_s60.o(.constdata)
    .constdata                               0x00012e48   Section     1728  qsysteminfo_s60.o(.constdata)
    KUidSystemCategory                       0x00012e50   Data           4  qsysteminfo_s60.o(.constdata)
    KCRUidBluetoothPowerState                0x00012e54   Data           4  qsysteminfo_s60.o(.constdata)
    KPSUidStartup                            0x00012e58   Data           4  qsysteminfo_s60.o(.constdata)
    QtMobility::qt_meta_data_QSystemInfoPrivate 0x00012ebc   Data          80  qsysteminfo_s60.o(.constdata)
    QtMobility::qt_meta_stringdata_QSystemInfoPrivate 0x00012f0c   Data          53  qsysteminfo_s60.o(.constdata)
    QtMobility::qt_meta_data_QSystemNetworkInfoPrivate 0x00012f44   Data         240  qsysteminfo_s60.o(.constdata)
    QtMobility::qt_meta_stringdata_QSystemNetworkInfoPrivate 0x00013034   Data         465  qsysteminfo_s60.o(.constdata)
    QtMobility::qt_meta_data_QSystemDisplayInfoPrivate 0x00013208   Data          60  qsysteminfo_s60.o(.constdata)
    QtMobility::qt_meta_stringdata_QSystemDisplayInfoPrivate 0x00013244   Data          27  qsysteminfo_s60.o(.constdata)
    QtMobility::qt_meta_data_QSystemStorageInfoPrivate 0x00013260   Data          80  qsysteminfo_s60.o(.constdata)
    QtMobility::qt_meta_stringdata_QSystemStorageInfoPrivate 0x000132b0   Data          64  qsysteminfo_s60.o(.constdata)
    QtMobility::qt_meta_data_QSystemDeviceInfoPrivate 0x000132f0   Data         160  qsysteminfo_s60.o(.constdata)
    QtMobility::qt_meta_stringdata_QSystemDeviceInfoPrivate 0x00013390   Data         234  qsysteminfo_s60.o(.constdata)
    QtMobility::qt_meta_data_QSystemScreenSaverPrivate 0x0001347c   Data          80  qsysteminfo_s60.o(.constdata)
    QtMobility::qt_meta_stringdata_QSystemScreenSaverPrivate 0x000134cc   Data          50  qsysteminfo_s60.o(.constdata)
    .constdata$1                             0x00013508   Data           0  telephonyinfo_s60.o(.constdata)
    KMmTsyModuleName                         0x00013508   Data          24  telephonyinfo_s60.o(.constdata)
    .constdata                               0x00013508   Section       24  telephonyinfo_s60.o(.constdata)
    .constdata$1                             0x00013520   Data           0  chargingstatus_s60.o(.constdata)
    KPSUidHWRMPowerState                     0x00013520   Data           4  chargingstatus_s60.o(.constdata)
    .constdata                               0x00013520   Section        4  chargingstatus_s60.o(.constdata)
    .constdata__ZN9stlp_priv15_Integer_limitsIaLan128ELa127ELin1ELb1EE6digitsE 0x00013524   Section        4  moc_wlaninfo_s60.o(.constdata__ZN9stlp_priv15_Integer_limitsIaLan128ELa127ELin1ELb1EE6digitsE)
    .constdata__ZN9stlp_priv15_Integer_limitsIbLb0ELb1ELi1ELb0EE6digitsE 0x00013528   Section        4  moc_wlaninfo_s60.o(.constdata__ZN9stlp_priv15_Integer_limitsIbLb0ELb1ELi1ELb0EE6digitsE)
    .constdata__ZN9stlp_priv15_Integer_limitsIcLc128ELc127ELin1ELb1EE6digitsE 0x0001352c   Section        4  moc_wlaninfo_s60.o(.constdata__ZN9stlp_priv15_Integer_limitsIcLc128ELc127ELin1ELb1EE6digitsE)
    .constdata__ZN9stlp_priv15_Integer_limitsIhLh0ELh255ELin1ELb1EE6digitsE 0x00013530   Section        4  moc_wlaninfo_s60.o(.constdata__ZN9stlp_priv15_Integer_limitsIhLh0ELh255ELin1ELb1EE6digitsE)
    .constdata__ZN9stlp_priv15_Integer_limitsIiLin2147483648ELi2147483647ELin1ELb1EE6digitsE 0x00013534   Section        4  moc_wlaninfo_s60.o(.constdata__ZN9stlp_priv15_Integer_limitsIiLin2147483648ELi2147483647ELin1ELb1EE6digitsE)
    .constdata__ZN9stlp_priv15_Integer_limitsIiLin2147483648ELi2147483647ELin1ELb1EE9is_signedE 0x00013538   Section        1  moc_wlaninfo_s60.o(.constdata__ZN9stlp_priv15_Integer_limitsIiLin2147483648ELi2147483647ELin1ELb1EE9is_signedE)
    .constdata__ZN9stlp_priv15_Integer_limitsIjLj0ELj4294967295ELin1ELb1EE6digitsE 0x0001353c   Section        4  moc_wlaninfo_s60.o(.constdata__ZN9stlp_priv15_Integer_limitsIjLj0ELj4294967295ELin1ELb1EE6digitsE)
    .constdata__ZN9stlp_priv15_Integer_limitsIlLln2147483648ELl2147483647ELin1ELb1EE6digitsE 0x00013540   Section        4  moc_wlaninfo_s60.o(.constdata__ZN9stlp_priv15_Integer_limitsIlLln2147483648ELl2147483647ELin1ELb1EE6digitsE)
    .constdata__ZN9stlp_priv15_Integer_limitsImLm0ELm4294967295ELin1ELb1EE6digitsE 0x00013544   Section        4  moc_wlaninfo_s60.o(.constdata__ZN9stlp_priv15_Integer_limitsImLm0ELm4294967295ELin1ELb1EE6digitsE)
    .constdata__ZN9stlp_priv15_Integer_limitsIsLsn32768ELs32767ELin1ELb1EE6digitsE 0x00013548   Section        4  moc_wlaninfo_s60.o(.constdata__ZN9stlp_priv15_Integer_limitsIsLsn32768ELs32767ELin1ELb1EE6digitsE)
    .constdata__ZN9stlp_priv15_Integer_limitsItLt0ELt65535ELin1ELb1EE6digitsE 0x0001354c   Section        4  moc_wlaninfo_s60.o(.constdata__ZN9stlp_priv15_Integer_limitsItLt0ELt65535ELin1ELb1EE6digitsE)
    .constdata__ZN9stlp_priv15_Integer_limitsIwLw0ELw65535ELin1ELb1EE6digitsE 0x00013550   Section        4  moc_wlaninfo_s60.o(.constdata__ZN9stlp_priv15_Integer_limitsIwLw0ELw65535ELin1ELb1EE6digitsE)
    .constdata__ZN9stlp_priv15_Integer_limitsIxLxn9223372036854775808ELx9223372036854775807ELin1ELb1EE6digitsE 0x00013554   Section        4  moc_wlaninfo_s60.o(.constdata__ZN9stlp_priv15_Integer_limitsIxLxn9223372036854775808ELx9223372036854775807ELin1ELb1EE6digitsE)
    .constdata__ZN9stlp_priv15_Integer_limitsIyLy0ELy18446744073709551615ELin1ELb1EE6digitsE 0x00013558   Section        4  moc_wlaninfo_s60.o(.constdata__ZN9stlp_priv15_Integer_limitsIyLy0ELy18446744073709551615ELin1ELb1EE6digitsE)
    .constdata__ZTI10CPhoneInfo              0x0001355c   Section       12  telephonyinfo_s60.o(.constdata__ZTI10CPhoneInfo)
    .constdata__ZTI12CBatteryInfo            0x00013568   Section       12  telephonyinfo_s60.o(.constdata__ZTI12CBatteryInfo)
    .constdata__ZTI13CWlanScanInfo           0x00013574   Section       40  moc_wlaninfo_s60.o(.constdata__ZTI13CWlanScanInfo)
    .constdata__ZTI14CTelephonyInfo          0x0001359c   Section       12  telephonyinfo_s60.o(.constdata__ZTI14CTelephonyInfo)
    .constdata__ZTI15CChargingStatus         0x000135a8   Section       12  chargingstatus_s60.o(.constdata__ZTI15CChargingStatus)
    .constdata__ZTI15CSubscriberInfo         0x000135b4   Section       12  telephonyinfo_s60.o(.constdata__ZTI15CSubscriberInfo)
    .constdata__ZTI15CWlanMgmtClient         0x000135c0   Section       32  moc_wlaninfo_s60.o(.constdata__ZTI15CWlanMgmtClient)
    .constdata__ZTI16CCellNetworkInfo        0x000135e0   Section       12  telephonyinfo_s60.o(.constdata__ZTI16CCellNetworkInfo)
    .constdata__ZTI17CMMCStorageStatus       0x000135ec   Section       12  storagestatus_s60.o(.constdata__ZTI17CMMCStorageStatus)
    .constdata__ZTI17MWlanScanInfoBase       0x000135f8   Section        8  moc_wlaninfo_s60.o(.constdata__ZTI17MWlanScanInfoBase)
    .constdata__ZTI18MWlanMgmtInterface      0x00013600   Section        8  moc_wlaninfo_s60.o(.constdata__ZTI18MWlanMgmtInterface)
    .constdata__ZTI22MStorageStatusObserver  0x00013608   Section        8  qsysteminfo_s60.o(.constdata__ZTI22MStorageStatusObserver)
    .constdata__ZTI22MTelephonyInfoObserver  0x00013610   Section        8  qsysteminfo_s60.o(.constdata__ZTI22MTelephonyInfoObserver)
    .constdata__ZTI22MWlanMgmtNotifications  0x00013618   Section        8  moc_wlaninfo_s60.o(.constdata__ZTI22MWlanMgmtNotifications)
    .constdata__ZTI23CCellSignalStrengthInfo 0x00013620   Section       12  telephonyinfo_s60.o(.constdata__ZTI23CCellSignalStrengthInfo)
    .constdata__ZTI23MChargingStatusObserver 0x0001362c   Section        8  qsysteminfo_s60.o(.constdata__ZTI23MChargingStatusObserver)
    .constdata__ZTI25MWlanScanInfoIteratorBase 0x00013634   Section        8  moc_wlaninfo_s60.o(.constdata__ZTI25MWlanScanInfoIteratorBase)
    .constdata__ZTI28CCellNetworkRegistrationInfo 0x0001363c   Section       12  telephonyinfo_s60.o(.constdata__ZTI28CCellNetworkRegistrationInfo)
    .constdata__ZTI32MProEngProfileActivationObserver 0x00013648   Section        8  qsysteminfo_s60.o(.constdata__ZTI32MProEngProfileActivationObserver)
    .constdata__ZTI9CWlanInfo                0x00013650   Section       32  moc_wlaninfo_s60.o(.constdata__ZTI9CWlanInfo)
    .constdata__ZTIN10QtMobility11QSystemInfoE 0x00013670   Section       12  qsystemgeneralinfo.o(.constdata__ZTIN10QtMobility11QSystemInfoE)
    .constdata__ZTIN10QtMobility17QSystemDeviceInfoE 0x0001367c   Section       12  qsystemdeviceinfo.o(.constdata__ZTIN10QtMobility17QSystemDeviceInfoE)
    .constdata__ZTIN10QtMobility18QSystemDisplayInfoE 0x00013688   Section       12  qsystemdisplayinfo.o(.constdata__ZTIN10QtMobility18QSystemDisplayInfoE)
    .constdata__ZTIN10QtMobility18QSystemInfoPrivateE 0x00013694   Section       12  qsysteminfo_s60.o(.constdata__ZTIN10QtMobility18QSystemInfoPrivateE)
    .constdata__ZTIN10QtMobility18QSystemNetworkInfoE 0x000136a0   Section       12  qsystemnetworkinfo.o(.constdata__ZTIN10QtMobility18QSystemNetworkInfoE)
    .constdata__ZTIN10QtMobility18QSystemScreenSaverE 0x000136ac   Section       12  qsystemscreensaver.o(.constdata__ZTIN10QtMobility18QSystemScreenSaverE)
    .constdata__ZTIN10QtMobility18QSystemStorageInfoE 0x000136b8   Section       12  qsystemstorageinfo.o(.constdata__ZTIN10QtMobility18QSystemStorageInfoE)
    .constdata__ZTIN10QtMobility24QSystemDeviceInfoPrivateE 0x000136c4   Section       56  qsysteminfo_s60.o(.constdata__ZTIN10QtMobility24QSystemDeviceInfoPrivateE)
    .constdata__ZTIN10QtMobility25QSystemDisplayInfoPrivateE 0x000136fc   Section       12  qsysteminfo_s60.o(.constdata__ZTIN10QtMobility25QSystemDisplayInfoPrivateE)
    .constdata__ZTIN10QtMobility25QSystemNetworkInfoPrivateE 0x00013708   Section       32  qsysteminfo_s60.o(.constdata__ZTIN10QtMobility25QSystemNetworkInfoPrivateE)
    .constdata__ZTIN10QtMobility25QSystemScreenSaverPrivateE 0x00013728   Section       12  qsysteminfo_s60.o(.constdata__ZTIN10QtMobility25QSystemScreenSaverPrivateE)
    .constdata__ZTIN10QtMobility25QSystemStorageInfoPrivateE 0x00013734   Section       32  qsysteminfo_s60.o(.constdata__ZTIN10QtMobility25QSystemStorageInfoPrivateE)
    .constdata__ZTS10CPhoneInfo              0x00013754   Section       13  telephonyinfo_s60.o(.constdata__ZTS10CPhoneInfo)
    .constdata__ZTS12CBatteryInfo            0x00013761   Section       15  telephonyinfo_s60.o(.constdata__ZTS12CBatteryInfo)
    .constdata__ZTS13CWlanScanInfo           0x00013770   Section       16  moc_wlaninfo_s60.o(.constdata__ZTS13CWlanScanInfo)
    .constdata__ZTS14CTelephonyInfo          0x00013780   Section       17  telephonyinfo_s60.o(.constdata__ZTS14CTelephonyInfo)
    .constdata__ZTS15CChargingStatus         0x00013791   Section       18  chargingstatus_s60.o(.constdata__ZTS15CChargingStatus)
    .constdata__ZTS15CSubscriberInfo         0x000137a3   Section       18  telephonyinfo_s60.o(.constdata__ZTS15CSubscriberInfo)
    .constdata__ZTS15CWlanMgmtClient         0x000137b5   Section       18  moc_wlaninfo_s60.o(.constdata__ZTS15CWlanMgmtClient)
    .constdata__ZTS16CCellNetworkInfo        0x000137c7   Section       19  telephonyinfo_s60.o(.constdata__ZTS16CCellNetworkInfo)
    .constdata__ZTS17CMMCStorageStatus       0x000137da   Section       20  storagestatus_s60.o(.constdata__ZTS17CMMCStorageStatus)
    .constdata__ZTS17MWlanScanInfoBase       0x000137ee   Section       20  moc_wlaninfo_s60.o(.constdata__ZTS17MWlanScanInfoBase)
    .constdata__ZTS18MWlanMgmtInterface      0x00013802   Section       21  moc_wlaninfo_s60.o(.constdata__ZTS18MWlanMgmtInterface)
    .constdata__ZTS22MStorageStatusObserver  0x00013817   Section       25  qsysteminfo_s60.o(.constdata__ZTS22MStorageStatusObserver)
    .constdata__ZTS22MTelephonyInfoObserver  0x00013830   Section       25  qsysteminfo_s60.o(.constdata__ZTS22MTelephonyInfoObserver)
    .constdata__ZTS22MWlanMgmtNotifications  0x00013849   Section       25  moc_wlaninfo_s60.o(.constdata__ZTS22MWlanMgmtNotifications)
    .constdata__ZTS23CCellSignalStrengthInfo 0x00013862   Section       26  telephonyinfo_s60.o(.constdata__ZTS23CCellSignalStrengthInfo)
    .constdata__ZTS23MChargingStatusObserver 0x0001387c   Section       26  qsysteminfo_s60.o(.constdata__ZTS23MChargingStatusObserver)
    .constdata__ZTS25MWlanScanInfoIteratorBase 0x00013896   Section       28  moc_wlaninfo_s60.o(.constdata__ZTS25MWlanScanInfoIteratorBase)
    .constdata__ZTS28CCellNetworkRegistrationInfo 0x000138b2   Section       31  telephonyinfo_s60.o(.constdata__ZTS28CCellNetworkRegistrationInfo)
    .constdata__ZTS32MProEngProfileActivationObserver 0x000138d1   Section       35  qsysteminfo_s60.o(.constdata__ZTS32MProEngProfileActivationObserver)
    .constdata__ZTS9CWlanInfo                0x000138f4   Section       11  moc_wlaninfo_s60.o(.constdata__ZTS9CWlanInfo)
    .constdata__ZTSN10QtMobility11QSystemInfoE 0x000138ff   Section       28  qsystemgeneralinfo.o(.constdata__ZTSN10QtMobility11QSystemInfoE)
    .constdata__ZTSN10QtMobility17QSystemDeviceInfoE 0x0001391b   Section       34  qsystemdeviceinfo.o(.constdata__ZTSN10QtMobility17QSystemDeviceInfoE)
    .constdata__ZTSN10QtMobility18QSystemDisplayInfoE 0x0001393d   Section       35  qsystemdisplayinfo.o(.constdata__ZTSN10QtMobility18QSystemDisplayInfoE)
    .constdata__ZTSN10QtMobility18QSystemInfoPrivateE 0x00013960   Section       35  qsysteminfo_s60.o(.constdata__ZTSN10QtMobility18QSystemInfoPrivateE)
    .constdata__ZTSN10QtMobility18QSystemNetworkInfoE 0x00013983   Section       35  qsystemnetworkinfo.o(.constdata__ZTSN10QtMobility18QSystemNetworkInfoE)
    .constdata__ZTSN10QtMobility18QSystemScreenSaverE 0x000139a6   Section       35  qsystemscreensaver.o(.constdata__ZTSN10QtMobility18QSystemScreenSaverE)
    .constdata__ZTSN10QtMobility18QSystemStorageInfoE 0x000139c9   Section       35  qsystemstorageinfo.o(.constdata__ZTSN10QtMobility18QSystemStorageInfoE)
    .constdata__ZTSN10QtMobility24QSystemDeviceInfoPrivateE 0x000139ec   Section       41  qsysteminfo_s60.o(.constdata__ZTSN10QtMobility24QSystemDeviceInfoPrivateE)
    .constdata__ZTSN10QtMobility25QSystemDisplayInfoPrivateE 0x00013a15   Section       42  qsysteminfo_s60.o(.constdata__ZTSN10QtMobility25QSystemDisplayInfoPrivateE)
    .constdata__ZTSN10QtMobility25QSystemNetworkInfoPrivateE 0x00013a3f   Section       42  qsysteminfo_s60.o(.constdata__ZTSN10QtMobility25QSystemNetworkInfoPrivateE)
    .constdata__ZTSN10QtMobility25QSystemScreenSaverPrivateE 0x00013a69   Section       42  qsysteminfo_s60.o(.constdata__ZTSN10QtMobility25QSystemScreenSaverPrivateE)
    .constdata__ZTSN10QtMobility25QSystemStorageInfoPrivateE 0x00013a93   Section       42  qsysteminfo_s60.o(.constdata__ZTSN10QtMobility25QSystemStorageInfoPrivateE)
    .constdata__ZTV10CPhoneInfo              0x00013ac0   Section       32  telephonyinfo_s60.o(.constdata__ZTV10CPhoneInfo)
    .constdata__ZTV12CBatteryInfo            0x00013ae0   Section       32  telephonyinfo_s60.o(.constdata__ZTV12CBatteryInfo)
    .constdata__ZTV13CWlanScanInfo           0x00013b00   Section      100  moc_wlaninfo_s60.o(.constdata__ZTV13CWlanScanInfo)
    .constdata__ZTV14CTelephonyInfo          0x00013b64   Section       32  telephonyinfo_s60.o(.constdata__ZTV14CTelephonyInfo)
    .constdata__ZTV15CChargingStatus         0x00013b84   Section       32  chargingstatus_s60.o(.constdata__ZTV15CChargingStatus)
    .constdata__ZTV15CSubscriberInfo         0x00013ba4   Section       32  telephonyinfo_s60.o(.constdata__ZTV15CSubscriberInfo)
    .constdata__ZTV15CWlanMgmtClient         0x00013bc4   Section      160  moc_wlaninfo_s60.o(.constdata__ZTV15CWlanMgmtClient)
    .constdata__ZTV16CCellNetworkInfo        0x00013c64   Section       32  telephonyinfo_s60.o(.constdata__ZTV16CCellNetworkInfo)
    .constdata__ZTV17CMMCStorageStatus       0x00013c84   Section       32  storagestatus_s60.o(.constdata__ZTV17CMMCStorageStatus)
    .constdata__ZTV22MStorageStatusObserver  0x00013ca4   Section       12  qsysteminfo_s60.o(.constdata__ZTV22MStorageStatusObserver)
    .constdata__ZTV22MTelephonyInfoObserver  0x00013cb0   Section       36  qsysteminfo_s60.o(.constdata__ZTV22MTelephonyInfoObserver)
    .constdata__ZTV22MWlanMgmtNotifications  0x00013cd4   Section       44  wlaninfo_s60.o(.constdata__ZTV22MWlanMgmtNotifications)
    .constdata__ZTV23CCellSignalStrengthInfo 0x00013d00   Section       32  telephonyinfo_s60.o(.constdata__ZTV23CCellSignalStrengthInfo)
    .constdata__ZTV23MChargingStatusObserver 0x00013d20   Section       12  qsysteminfo_s60.o(.constdata__ZTV23MChargingStatusObserver)
    .constdata__ZTV28CCellNetworkRegistrationInfo 0x00013d2c   Section       32  telephonyinfo_s60.o(.constdata__ZTV28CCellNetworkRegistrationInfo)
    .constdata__ZTV32MProEngProfileActivationObserver 0x00013d4c   Section       28  qsysteminfo_s60.o(.constdata__ZTV32MProEngProfileActivationObserver)
    .constdata__ZTV9CWlanInfo                0x00013d68   Section      132  moc_wlaninfo_s60.o(.constdata__ZTV9CWlanInfo)
    .constdata__ZTVN10QtMobility11QSystemInfoE 0x00013dec   Section       56  qsystemgeneralinfo.o(.constdata__ZTVN10QtMobility11QSystemInfoE)
    .constdata__ZTVN10QtMobility17QSystemDeviceInfoE 0x00013e24   Section       56  qsystemdeviceinfo.o(.constdata__ZTVN10QtMobility17QSystemDeviceInfoE)
    .constdata__ZTVN10QtMobility18QSystemDisplayInfoE 0x00013e5c   Section       56  qsystemdisplayinfo.o(.constdata__ZTVN10QtMobility18QSystemDisplayInfoE)
    .constdata__ZTVN10QtMobility18QSystemInfoPrivateE 0x00013e94   Section       56  qsysteminfo_s60.o(.constdata__ZTVN10QtMobility18QSystemInfoPrivateE)
    .constdata__ZTVN10QtMobility18QSystemNetworkInfoE 0x00013ecc   Section       56  qsystemnetworkinfo.o(.constdata__ZTVN10QtMobility18QSystemNetworkInfoE)
    .constdata__ZTVN10QtMobility18QSystemScreenSaverE 0x00013f04   Section       56  qsystemscreensaver.o(.constdata__ZTVN10QtMobility18QSystemScreenSaverE)
    .constdata__ZTVN10QtMobility18QSystemStorageInfoE 0x00013f3c   Section       56  qsystemstorageinfo.o(.constdata__ZTVN10QtMobility18QSystemStorageInfoE)
    .constdata__ZTVN10QtMobility24QSystemDeviceInfoPrivateE 0x00013f74   Section      204  qsysteminfo_s60.o(.constdata__ZTVN10QtMobility24QSystemDeviceInfoPrivateE)
    .constdata__ZTVN10QtMobility25QSystemDisplayInfoPrivateE 0x00014040   Section       56  qsysteminfo_s60.o(.constdata__ZTVN10QtMobility25QSystemDisplayInfoPrivateE)
    .constdata__ZTVN10QtMobility25QSystemNetworkInfoPrivateE 0x00014078   Section      120  qsysteminfo_s60.o(.constdata__ZTVN10QtMobility25QSystemNetworkInfoPrivateE)
    .constdata__ZTVN10QtMobility25QSystemScreenSaverPrivateE 0x000140f0   Section       56  qsysteminfo_s60.o(.constdata__ZTVN10QtMobility25QSystemScreenSaverPrivateE)
    .constdata__ZTVN10QtMobility25QSystemStorageInfoPrivateE 0x00014128   Section       72  qsysteminfo_s60.o(.constdata__ZTVN10QtMobility25QSystemStorageInfoPrivateE)
    .constdata___ARM__ZN15CWlanMgmtClient4NewLEv_anon0 0x00014170   Section        4  wlaninfo_s60.o(.constdata___ARM__ZN15CWlanMgmtClient4NewLEv_anon0)
    .ARM.exidx                               0x00014174   Section        8  ucppinit.o(.ARM.exidx)
    .data$0                                  0x00400000   Data           0  qsystemgeneralinfo.o(.data)
    QtMobility::this_sysinfoPrivate          0x00400000   Data           8  qsystemgeneralinfo.o(.data)
    .data                                    0x00400000   Section       16  qsystemgeneralinfo.o(.data)
    _ZGVcleanup@_ZN10QtMobility14sysinfoPrivateEv_0 0x00400008   Data           4  qsystemgeneralinfo.o(.data)
    cleanup@_ZN10QtMobility14sysinfoPrivateEv_1 0x0040000c   Data           4  qsystemgeneralinfo.o(.data)
    .data$0                                  0x00400010   Data           0  qsystemdeviceinfo.o(.data)
    QtMobility::this_deviceInfoPrivate       0x00400010   Data           8  qsystemdeviceinfo.o(.data)
    .data                                    0x00400010   Section       16  qsystemdeviceinfo.o(.data)
    _ZGVcleanup@_ZN10QtMobility17deviceInfoPrivateEv_0 0x00400018   Data           4  qsystemdeviceinfo.o(.data)
    cleanup@_ZN10QtMobility17deviceInfoPrivateEv_1 0x0040001c   Data           4  qsystemdeviceinfo.o(.data)
    .data$0                                  0x00400020   Data           0  qsystemdisplayinfo.o(.data)
    QtMobility::this_displayInfoPrivate      0x00400020   Data           8  qsystemdisplayinfo.o(.data)
    .data                                    0x00400020   Section       16  qsystemdisplayinfo.o(.data)
    _ZGVcleanup@_ZN10QtMobility18displayInfoPrivateEv_0 0x00400028   Data           4  qsystemdisplayinfo.o(.data)
    cleanup@_ZN10QtMobility18displayInfoPrivateEv_1 0x0040002c   Data           4  qsystemdisplayinfo.o(.data)
    .data$0                                  0x00400030   Data           0  qsystemnetworkinfo.o(.data)
    QtMobility::this_netInfoPrivate          0x00400030   Data           8  qsystemnetworkinfo.o(.data)
    .data                                    0x00400030   Section       16  qsystemnetworkinfo.o(.data)
    _ZGVcleanup@_ZN10QtMobility14netInfoPrivateEv_0 0x00400038   Data           4  qsystemnetworkinfo.o(.data)
    cleanup@_ZN10QtMobility14netInfoPrivateEv_1 0x0040003c   Data           4  qsystemnetworkinfo.o(.data)
    .data$0                                  0x00400040   Data           0  qsystemstorageinfo.o(.data)
    QtMobility::this_storageInfoPrivate      0x00400040   Data           8  qsystemstorageinfo.o(.data)
    .data                                    0x00400040   Section       16  qsystemstorageinfo.o(.data)
    _ZGVcleanup@_ZN10QtMobility18storageInfoPrivateEv_0 0x00400048   Data           4  qsystemstorageinfo.o(.data)
    cleanup@_ZN10QtMobility18storageInfoPrivateEv_1 0x0040004c   Data           4  qsystemstorageinfo.o(.data)
    .data$0                                  0x00400050   Data           0  qsysteminfo_s60.o(.data)
    .data                                    0x00400050   Section        4  qsysteminfo_s60.o(.data)
    .data$0                                  0x00400054   Data           0  ucppfini.o(.data)
    .data                                    0x00400054   Section        4  ucppfini.o(.data)
    .data__ZNSt19_Atomic_swap_structILi1EE12_S_swap_lockE 0x00400058   Section       12  moc_wlaninfo_s60.o(.data__ZNSt19_Atomic_swap_structILi1EE12_S_swap_lockE)
    .bss$5                                   0x00400064   Data           0  ucppfini.o(.bss)
    .bss                                     0x00400064   Section     2048  ucppfini.o(.bss)

    Global Symbols

    Symbol Name                              Value     Ov Type        Size  Object(Section)

    BuildAttributes$$THUMB_ISAv2$ARM_ISAv5$M$VFPv2$PE$A:L22$X:L11$S22$IEEE1$IW$USESV6$~STKCKD$USESV7$~SHL$OSPACE$ROPI$IEEEJ$EBA8$UX$FPIC$INDIRECT$REQ8$PRES8$EABIv2 0x00000000   Number         0  anon$$obj.o ABSOLUTE
    ProfileEngine{000a0000}[100058fa].dll    0x00000000   Data           0  anon$$obj.o ABSOLUTE
    PtiEngine{000a0000}[101f8610].dll        0x00000000   Data           0  anon$$obj.o ABSOLUTE
    QtCore{00040703}[2001b2dc].dll           0x00000000   Data           0  anon$$obj.o ABSOLUTE
    QtGui{00040703}[2001b2dd].dll            0x00000000   Data           0  anon$$obj.o ABSOLUTE
    QtNetwork{00040703}[2001b2de].dll        0x00000000   Data           0  anon$$obj.o ABSOLUTE
    QtSystemInfo{00010103}[2002ac7d].dll     0x00000000   Data           0  anon$$obj.o ABSOLUTE
    avkon{000a0000}[100056c6].dll            0x00000000   Data           0  anon$$obj.o ABSOLUTE
    bluetooth{000a0000}.dll                  0x00000000   Data           0  anon$$obj.o ABSOLUTE
    cenrepnotifhandler{000a0000}[10200c8a].dll 0x00000000   Data           0  anon$$obj.o ABSOLUTE
    centralrepository{000a0000}[101fbc70].dll 0x00000000   Data           0  anon$$obj.o ABSOLUTE
    cone{000a0000}[10003a41].dll             0x00000000   Data           0  anon$$obj.o ABSOLUTE
    dfpaeabi{000a0000}.dll                   0x00000000   Data           0  anon$$obj.o ABSOLUTE
    drtaeabi{000a0000}.dll                   0x00000000   Data           0  anon$$obj.o ABSOLUTE
    ecom{000a0000}[10009d8e].dll             0x00000000   Data           0  anon$$obj.o ABSOLUTE
    efsrv{000a0000}[100039e4].dll            0x00000000   Data           0  anon$$obj.o ABSOLUTE
    etel3rdparty{000a0000}[10004268].dll     0x00000000   Data           0  anon$$obj.o ABSOLUTE
    etelmm{000a0000}[100064dd].dll           0x00000000   Data           0  anon$$obj.o ABSOLUTE
    etel{000a0000}[10003d46].dll             0x00000000   Data           0  anon$$obj.o ABSOLUTE
    euser{000a0000}[100039e5].dll            0x00000000   Data           0  anon$$obj.o ABSOLUTE
    featdiscovery{000a0000}[10200c89].dll    0x00000000   Data           0  anon$$obj.o ABSOLUTE
    gdi{000a0000}[10003b15].dll              0x00000000   Data           0  anon$$obj.o ABSOLUTE
    hwrmvibraclient{000a0000}[1020502a].dll  0x00000000   Data           0  anon$$obj.o ABSOLUTE
    libc{00010001}[10207369].dll             0x00000000   Data           0  anon$$obj.o ABSOLUTE
    platformenv{000a0000}[101f857f].dll      0x00000000   Data           0  anon$$obj.o ABSOLUTE
    stdnew{000a0000}[20022178].dll           0x00000000   Data           0  anon$$obj.o ABSOLUTE
    sysutil{000a0000}[10005943].dll          0x00000000   Data           0  anon$$obj.o ABSOLUTE
    ws32{000a0000}[10003b21].dll             0x00000000   Data           0  anon$$obj.o ABSOLUTE
    SHT$$INIT_ARRAY$$Base                     - Undefined Weak Reference
    SHT$$INIT_ARRAY$$Limit                    - Undefined Weak Reference
    QBasicAtomicPointer_testAndSetOrdered(void*volatile *, void*, void*)  - Undefined Reference
    _Z37QBasicAtomicPointer_testAndSetOrderedPVPvS_S_@QtCore{00040703}[2001b2dc].dll  - Undefined Reference
    qFree(void*)                              - Undefined Reference
    _Z5qFreePv@QtCore{00040703}[2001b2dc].dll  - Undefined Reference
    qstrcmp(const char*, const char*)         - Undefined Reference
    _Z7qstrcmpPKcS0_@QtCore{00040703}[2001b2dc].dll  - Undefined Reference
    qVersion()                                - Undefined Reference
    _Z8qVersionv@QtCore{00040703}[2001b2dc].dll  - Undefined Reference
    CHWRMVibra::NewLC()                       - Undefined Reference
    _ZN10CHWRMVibra5NewLCEv@hwrmvibraclient{000a0000}[1020502a].dll  - Undefined Reference
    CPtiEngine::GetAvailableLanguagesL(RArray<int>&)  - Undefined Reference
    _ZN10CPtiEngine22GetAvailableLanguagesLER6RArrayIiE@PtiEngine{000a0000}[101f8610].dll  - Undefined Reference
    CPtiEngine::NewL(int)                     - Undefined Reference
    _ZN10CPtiEngine4NewLEi@PtiEngine{000a0000}[101f8610].dll  - Undefined Reference
    CTelephony::TPhoneIdV1::TPhoneIdV1()      - Undefined Reference
    _ZN10CTelephony10TPhoneIdV1C1Ev@etel3rdparty{000a0000}[10004268].dll  - Undefined Reference
    CTelephony::TBatteryInfoV1::TBatteryInfoV1()  - Undefined Reference
    _ZN10CTelephony14TBatteryInfoV1C1Ev@etel3rdparty{000a0000}[10004268].dll  - Undefined Reference
    CTelephony::TNetworkInfoV1::TNetworkInfoV1()  - Undefined Reference
    _ZN10CTelephony14TNetworkInfoV1C1Ev@etel3rdparty{000a0000}[10004268].dll  - Undefined Reference
    CTelephony::TSubscriberIdV1::TSubscriberIdV1()  - Undefined Reference
    _ZN10CTelephony15TSubscriberIdV1C1Ev@etel3rdparty{000a0000}[10004268].dll  - Undefined Reference
    CTelephony::TSignalStrengthV1::TSignalStrengthV1()  - Undefined Reference
    _ZN10CTelephony17TSignalStrengthV1C1Ev@etel3rdparty{000a0000}[10004268].dll  - Undefined Reference
    CTelephony::TNetworkRegistrationV1::TNetworkRegistrationV1()  - Undefined Reference
    _ZN10CTelephony22TNetworkRegistrationV1C1Ev@etel3rdparty{000a0000}[10004268].dll  - Undefined Reference
    CTelephony::NewL()                        - Undefined Reference
    _ZN10CTelephony4NewLEv@etel3rdparty{000a0000}[10004268].dll  - Undefined Reference
    QByteArray::QByteArray(const char*, int)  - Undefined Reference
    _ZN10QByteArrayC1EPKci@QtCore{00040703}[2001b2dc].dll  - Undefined Reference
    RTelServer::Connect(int)                  - Undefined Reference
    _ZN10RTelServer7ConnectEi@etel{000a0000}[10003d46].dll  - Undefined Reference
    RTelServer::RTelServer()                  - Undefined Reference
    _ZN10RTelServerC1Ev@etel{000a0000}[10003d46].dll  - Undefined Reference
    RWsSession::Close()                       - Undefined Reference
    _ZN10RWsSession5CloseEv@ws32{000a0000}[10003b21].dll  - Undefined Reference
    RWsSession::Connect()                     - Undefined Reference
    _ZN10RWsSession7ConnectEv@ws32{000a0000}[10003b21].dll  - Undefined Reference
    RWsSession::RWsSession()                  - Undefined Reference
    _ZN10RWsSessionC1Ev@ws32{000a0000}[10003b21].dll  - Undefined Reference
    TBTDevAddr::TBTDevAddr()                  - Undefined Reference
    _ZN10TBTDevAddrC1Ev@bluetooth{000a0000}.dll  - Undefined Reference
    TBufBase16::TBufBase16(int)               - Undefined Reference
    _ZN10TBufBase16C1Ei@euser{000a0000}[100039e5].dll  - Undefined Reference
    CRepository::Get(unsigned long, int&)     - Undefined Reference
    _ZN11CRepository3GetEmRi@centralrepository{000a0000}[101fbc70].dll  - Undefined Reference
    CRepository::NewL(TUid)                   - Undefined Reference
    _ZN11CRepository4NewLE4TUid@centralrepository{000a0000}[101fbc70].dll  - Undefined Reference
    CRepository::NewLC(TUid)                  - Undefined Reference
    _ZN11CRepository5NewLCE4TUid@centralrepository{000a0000}[101fbc70].dll  - Undefined Reference
    QMetaObject::normalizedSignature(const char*)  - Undefined Reference
    _ZN11QMetaObject19normalizedSignatureEPKc@QtCore{00040703}[2001b2dc].dll  - Undefined Reference
    QMetaObject::activate(QObject*, const QMetaObject*, int, void**)  - Undefined Reference
    _ZN11QMetaObject8activateEP7QObjectPKS_iPPv@QtCore{00040703}[2001b2dc].dll  - Undefined Reference
    RAknKeyLock::IsKeyLockEnabled()           - Undefined Reference
    _ZN11RAknKeyLock16IsKeyLockEnabledEv@avkon{000a0000}[100056c6].dll  - Undefined Reference
    RHandleBase::Close()                      - Undefined Reference
    _ZN11RHandleBase5CloseEv@euser{000a0000}[100039e5].dll  - Undefined Reference
    TVolumeInfo::TVolumeInfo()                - Undefined Reference
    _ZN11TVolumeInfoC1Ev@efsrv{000a0000}[100039e4].dll  - Undefined Reference
    CleanupStack::PopAndDestroy(int)          - Undefined Reference
    _ZN12CleanupStack13PopAndDestroyEi@euser{000a0000}[100039e5].dll  - Undefined Reference
    CleanupStack::PopAndDestroy()             - Undefined Reference
    _ZN12CleanupStack13PopAndDestroyEv@euser{000a0000}[100039e5].dll  - Undefined Reference
    CleanupStack::Check(void*)                - Undefined Reference
    _ZN12CleanupStack5CheckEPv@euser{000a0000}[100039e5].dll  - Undefined Reference
    CleanupStack::PushL(TCleanupItem)         - Undefined Reference
    _ZN12CleanupStack5PushLE12TCleanupItem@euser{000a0000}[100039e5].dll  - Undefined Reference
    CleanupStack::PushL(CBase*)               - Undefined Reference
    _ZN12CleanupStack5PushLEP5CBase@euser{000a0000}[100039e5].dll  - Undefined Reference
    RAknKeylock2::Connect()                   - Undefined Reference
    _ZN12RAknKeylock27ConnectEv@avkon{000a0000}[100056c6].dll  - Undefined Reference
    REComSession::CreateImplementationL(TUid, long)  - Undefined Reference
    _ZN12REComSession21CreateImplementationLE4TUidl@ecom{000a0000}[10009d8e].dll  - Undefined Reference
    REComSession::DestroyedImplementation(TUid)  - Undefined Reference
    _ZN12REComSession23DestroyedImplementationE4TUid@ecom{000a0000}[10009d8e].dll  - Undefined Reference
    RMobilePhone::TMobilePhoneNetworkInfoV1::TMobilePhoneNetworkInfoV1()  - Undefined Reference
    _ZN12RMobilePhone25TMobilePhoneNetworkInfoV1C1Ev@etelmm{000a0000}[100064dd].dll  - Undefined Reference
    RMobilePhone::RMobilePhone()              - Undefined Reference
    _ZN12RMobilePhoneC1Ev@etelmm{000a0000}[100064dd].dll  - Undefined Reference
    ProEngFactory::NewEngineL()               - Undefined Reference
    _ZN13ProEngFactory10NewEngineLEv@ProfileEngine{000a0000}[100058fa].dll  - Undefined Reference
    ProEngFactory::NewNotifyHandlerL()        - Undefined Reference
    _ZN13ProEngFactory17NewNotifyHandlerLEv@ProfileEngine{000a0000}[100058fa].dll  - Undefined Reference
    AknLayoutUtils::PenEnabled()              - Undefined Reference
    _ZN14AknLayoutUtils10PenEnabledEv@avkon{000a0000}[100056c6].dll  - Undefined Reference
    QDesktopWidget::QDesktopWidget()          - Undefined Reference
    _ZN14QDesktopWidgetC1Ev@QtGui{00040703}[2001b2dd].dll  - Undefined Reference
    QDesktopWidget::~QDesktopWidget()         - Undefined Reference
    _ZN14QDesktopWidgetD1Ev@QtGui{00040703}[2001b2dd].dll  - Undefined Reference
    CWsScreenDevice::Construct(int)           - Undefined Reference
    _ZN15CWsScreenDevice9ConstructEi@ws32{000a0000}[10003b21].dll  - Undefined Reference
    CWsScreenDevice::CWsScreenDevice(RWsSession&)  - Undefined Reference
    _ZN15CWsScreenDeviceC1ER10RWsSession@ws32{000a0000}[10003b21].dll  - Undefined Reference
    CActiveScheduler::Add(CActive*)           - Undefined Reference
    _ZN16CActiveScheduler3AddEP7CActive@euser{000a0000}[100039e5].dll  - Undefined Reference
    CFeatureDiscovery::IsFeatureSupportedL(int)  - Undefined Reference
    _ZN17CFeatureDiscovery19IsFeatureSupportedLEi@featdiscovery{000a0000}[10200c89].dll  - Undefined Reference
    QNetworkInterface::QNetworkInterface()    - Undefined Reference
    _ZN17QNetworkInterfaceC1Ev@QtNetwork{00040703}[2001b2de].dll  - Undefined Reference
    RPointerArrayBase::Close()                - Undefined Reference
    _ZN17RPointerArrayBase5CloseEv@euser{000a0000}[100039e5].dll  - Undefined Reference
    RPointerArrayBase::RPointerArrayBase()    - Undefined Reference
    _ZN17RPointerArrayBaseC1Ev@euser{000a0000}[100039e5].dll  - Undefined Reference
    TDisplayModeUtils::NumDisplayModeBitsPerPixel(TDisplayMode)  - Undefined Reference
    _ZN17TDisplayModeUtils26NumDisplayModeBitsPerPixelE12TDisplayMode@gdi{000a0000}[10003b15].dll  - Undefined Reference
    CActiveSchedulerWait::Start()             - Undefined Reference
    _ZN20CActiveSchedulerWait5StartEv@euser{000a0000}[100039e5].dll  - Undefined Reference
    CActiveSchedulerWait::AsyncStop()         - Undefined Reference
    _ZN20CActiveSchedulerWait9AsyncStopEv@euser{000a0000}[100039e5].dll  - Undefined Reference
    CActiveSchedulerWait::CActiveSchedulerWait()  - Undefined Reference
    _ZN20CActiveSchedulerWaitC1Ev@euser{000a0000}[100039e5].dll  - Undefined Reference
    CCenRepNotifyHandler::StartListeningL()   - Undefined Reference
    _ZN20CCenRepNotifyHandler15StartListeningLEv@cenrepnotifhandler{000a0000}[10200c8a].dll  - Undefined Reference
    CCenRepNotifyHandler::NewL(MCenRepNotifyHandlerCallback&, CRepository&, CCenRepNotifyHandler::TCenRepKeyType, unsigned long)  - Undefined Reference
    _ZN20CCenRepNotifyHandler4NewLER28MCenRepNotifyHandlerCallbackR11CRepositoryNS_14TCenRepKeyTypeEm@cenrepnotifhandler{000a0000}[10200c8a].dll  - Undefined Reference
    MCenRepNotifyHandlerCallback::HandleNotifyReal(unsigned long, double)  - Undefined Reference
    _ZN28MCenRepNotifyHandlerCallback16HandleNotifyRealEmd@cenrepnotifhandler{000a0000}[10200c8a].dll  - Undefined Reference
    MCenRepNotifyHandlerCallback::HandleNotifyError(unsigned long, int, CCenRepNotifyHandler*)  - Undefined Reference
    _ZN28MCenRepNotifyHandlerCallback17HandleNotifyErrorEmiP20CCenRepNotifyHandler@cenrepnotifhandler{000a0000}[10200c8a].dll  - Undefined Reference
    MCenRepNotifyHandlerCallback::HandleNotifyBinary(unsigned long, const TDesC8&)  - Undefined Reference
    _ZN28MCenRepNotifyHandlerCallback18HandleNotifyBinaryEmRK6TDesC8@cenrepnotifhandler{000a0000}[10200c8a].dll  - Undefined Reference
    MCenRepNotifyHandlerCallback::HandleNotifyString(unsigned long, const TDesC16&)  - Undefined Reference
    _ZN28MCenRepNotifyHandlerCallback18HandleNotifyStringEmRK7TDesC16@cenrepnotifhandler{000a0000}[10200c8a].dll  - Undefined Reference
    MCenRepNotifyHandlerCallback::HandleNotifyGeneric(unsigned long)  - Undefined Reference
    _ZN28MCenRepNotifyHandlerCallback19HandleNotifyGenericEm@cenrepnotifhandler{000a0000}[10200c8a].dll  - Undefined Reference
    RFs::CharToDrive(TChar, int&)             - Undefined Reference
    _ZN3RFs11CharToDriveE5TCharRi@efsrv{000a0000}[100039e4].dll  - Undefined Reference
    RFs::DriveToChar(int, TChar&)             - Undefined Reference
    _ZN3RFs11DriveToCharEiR5TChar@efsrv{000a0000}[100039e4].dll  - Undefined Reference
    RFs::NotifyChange(TNotifyType, TRequestStatus&)  - Undefined Reference
    _ZN3RFs12NotifyChangeE11TNotifyTypeR14TRequestStatus@efsrv{000a0000}[100039e4].dll  - Undefined Reference
    RFs::NotifyChangeCancel()                 - Undefined Reference
    _ZN3RFs18NotifyChangeCancelEv@efsrv{000a0000}[100039e4].dll  - Undefined Reference
    RFs::Close()                              - Undefined Reference
    _ZN3RFs5CloseEv@efsrv{000a0000}[100039e4].dll  - Undefined Reference
    RFs::Connect(int)                         - Undefined Reference
    _ZN3RFs7ConnectEi@efsrv{000a0000}[100039e4].dll  - Undefined Reference
    QDir::QDir(const QString&)                - Undefined Reference
    _ZN4QDirC1ERK7QString@QtCore{00040703}[2001b2dc].dll  - Undefined Reference
    QDir::~QDir()                             - Undefined Reference
    _ZN4QDirD1Ev@QtCore{00040703}[2001b2dc].dll  - Undefined Reference
    User::LeaveIfError(int)                   - Undefined Reference
    _ZN4User12LeaveIfErrorEi@euser{000a0000}[100039e5].dll  - Undefined Reference
    User::WaitForRequest(TRequestStatus&)     - Undefined Reference
    _ZN4User14WaitForRequestER14TRequestStatus@euser{000a0000}[100039e5].dll  - Undefined Reference
    User::MarkCleanupStack()                  - Undefined Reference
    _ZN4User16MarkCleanupStackEv@euser{000a0000}[100039e5].dll  - Undefined Reference
    User::UnMarkCleanupStack(TTrapHandler*)   - Undefined Reference
    _ZN4User18UnMarkCleanupStackEP12TTrapHandler@euser{000a0000}[100039e5].dll  - Undefined Reference
    User::ResetInactivityTime()               - Undefined Reference
    _ZN4User19ResetInactivityTimeEv@euser{000a0000}[100039e5].dll  - Undefined Reference
    User::AllocZ(int)                         - Undefined Reference
    _ZN4User6AllocZEi@euser{000a0000}[100039e5].dll  - Undefined Reference
    User::AllocZL(int)                        - Undefined Reference
    _ZN4User7AllocZLEi@euser{000a0000}[100039e5].dll  - Undefined Reference
    User::Language()                          - Undefined Reference
    _ZN4User8LanguageEv@euser{000a0000}[100039e5].dll  - Undefined Reference
    User::Invariant()                         - Undefined Reference
    _ZN4User9InvariantEv@euser{000a0000}[100039e5].dll  - Undefined Reference
    User::LockedDec(int&)                     - Undefined Reference
    _ZN4User9LockedDecERi@euser{000a0000}[100039e5].dll  - Undefined Reference
    User::LockedInc(int&)                     - Undefined Reference
    _ZN4User9LockedIncERi@euser{000a0000}[100039e5].dll  - Undefined Reference
    CBase::Extension_(unsigned, void*&, void*)  - Undefined Reference
    _ZN5CBase10Extension_EjRPvS0_@euser{000a0000}[100039e5].dll  - Undefined Reference
    CBase::~CBase()                           - Undefined Reference
    _ZN5CBaseD1Ev@euser{000a0000}[100039e5].dll  - Undefined Reference
    QChar::fromAscii(char)                    - Undefined Reference
    _ZN5QChar9fromAsciiEc@QtCore{00040703}[2001b2dc].dll  - Undefined Reference
    TDes8::Copy(const TDesC8&)                - Undefined Reference
    _ZN5TDes84CopyERK6TDesC8@euser{000a0000}[100039e5].dll  - Undefined Reference
    TPtr8::TPtr8(unsigned char*, int, int)    - Undefined Reference
    _ZN5TPtr8C1EPhii@euser{000a0000}[100039e5].dll  - Undefined Reference
    QTimer::setInterval(int)                  - Undefined Reference
    _ZN6QTimer11setIntervalEi@QtCore{00040703}[2001b2dc].dll  - Undefined Reference
    QTimer::stop()                            - Undefined Reference
    _ZN6QTimer4stopEv@QtCore{00040703}[2001b2dc].dll  - Undefined Reference
    QTimer::start(int)                        - Undefined Reference
    _ZN6QTimer5startEi@QtCore{00040703}[2001b2dc].dll  - Undefined Reference
    QTimer::start()                           - Undefined Reference
    _ZN6QTimer5startEv@QtCore{00040703}[2001b2dc].dll  - Undefined Reference
    QTimer::QTimer(QObject*)                  - Undefined Reference
    _ZN6QTimerC1EP7QObject@QtCore{00040703}[2001b2dc].dll  - Undefined Reference
    RPhone::Open(RTelServer&, const TDesC16&)  - Undefined Reference
    _ZN6RPhone4OpenER10RTelServerRK7TDesC16@etel{000a0000}[10003d46].dll  - Undefined Reference
    RPhone::Close()                           - Undefined Reference
    _ZN6RPhone5CloseEv@etel{000a0000}[10003d46].dll  - Undefined Reference
    CActive::Extension_(unsigned, void*&, void*)  - Undefined Reference
    _ZN7CActive10Extension_EjRPvS0_@euser{000a0000}[100039e5].dll  - Undefined Reference
    CActive::Cancel()                         - Undefined Reference
    _ZN7CActive6CancelEv@euser{000a0000}[100039e5].dll  - Undefined Reference
    CActive::RunError(int)                    - Undefined Reference
    _ZN7CActive8RunErrorEi@euser{000a0000}[100039e5].dll  - Undefined Reference
    CActive::SetActive()                      - Undefined Reference
    _ZN7CActive9SetActiveEv@euser{000a0000}[100039e5].dll  - Undefined Reference
    CActive::CActive__sub_object(int)         - Undefined Reference
    _ZN7CActiveC2Ei@euser{000a0000}[100039e5].dll  - Undefined Reference
    CActive::~CActive__sub_object()           - Undefined Reference
    _ZN7CActiveD2Ev@euser{000a0000}[100039e5].dll  - Undefined Reference
    CCoeEnv::Static()                         - Undefined Reference
    _ZN7CCoeEnv6StaticEv@cone{000a0000}[10003a41].dll  - Undefined Reference
    QLocale::system()                         - Undefined Reference
    _ZN7QLocale6systemEv@QtCore{00040703}[2001b2dc].dll  - Undefined Reference
    QObject::childEvent(QChildEvent*)         - Undefined Reference
    _ZN7QObject10childEventEP11QChildEvent@QtCore{00040703}[2001b2dc].dll  - Undefined Reference
    QObject::disconnect(const QObject*, const char*, const QObject*, const char*)  - Undefined Reference
    _ZN7QObject10disconnectEPKS_PKcS1_S3_@QtCore{00040703}[2001b2dc].dll  - Undefined Reference
    QObject::timerEvent(QTimerEvent*)         - Undefined Reference
    _ZN7QObject10timerEventEP11QTimerEvent@QtCore{00040703}[2001b2dc].dll  - Undefined Reference
    QObject::customEvent(QEvent*)             - Undefined Reference
    _ZN7QObject11customEventEP6QEvent@QtCore{00040703}[2001b2dc].dll  - Undefined Reference
    QObject::eventFilter(QObject*, QEvent*)   - Undefined Reference
    _ZN7QObject11eventFilterEPS_P6QEvent@QtCore{00040703}[2001b2dc].dll  - Undefined Reference
    QObject::qt_metacall(QMetaObject::Call, int, void**)  - Undefined Reference
    _ZN7QObject11qt_metacallEN11QMetaObject4CallEiPPv@QtCore{00040703}[2001b2dc].dll  - Undefined Reference
    QObject::qt_metacast(const char*)         - Undefined Reference
    _ZN7QObject11qt_metacastEPKc@QtCore{00040703}[2001b2dc].dll  - Undefined Reference
    QObject::connectNotify(const char*)       - Undefined Reference
    _ZN7QObject13connectNotifyEPKc@QtCore{00040703}[2001b2dc].dll  - Undefined Reference
    QObject::disconnectNotify(const char*)    - Undefined Reference
    _ZN7QObject16disconnectNotifyEPKc@QtCore{00040703}[2001b2dc].dll  - Undefined Reference
    QObject::staticMetaObject                 - Undefined Reference
    _ZN7QObject16staticMetaObjectE@QtCore{00040703}[2001b2dc].dll  - Undefined Reference
    QObject::event(QEvent*)                   - Undefined Reference
    _ZN7QObject5eventEP6QEvent@QtCore{00040703}[2001b2dc].dll  - Undefined Reference
    QObject::connect(const QObject*, const char*, const QObject*, const char*, Qt::ConnectionType)  - Undefined Reference
    _ZN7QObject7connectEPKS_PKcS1_S3_N2Qt14ConnectionTypeE@QtCore{00040703}[2001b2dc].dll  - Undefined Reference
    QObject::QObject(QObject*)                - Undefined Reference
    _ZN7QObjectC1EPS_@QtCore{00040703}[2001b2dc].dll  - Undefined Reference
    QObject::~QObject()                       - Undefined Reference
    _ZN7QObjectD1Ev@QtCore{00040703}[2001b2dc].dll  - Undefined Reference
    QRegExp::cap(int)                         - Undefined Reference
    _ZN7QRegExp3capEi@QtCore{00040703}[2001b2dc].dll  - Undefined Reference
    QRegExp::QRegExp(const QString&, Qt::CaseSensitivity, QRegExp::PatternSyntax)  - Undefined Reference
    _ZN7QRegExpC1ERK7QStringN2Qt15CaseSensitivityENS_13PatternSyntaxE@QtCore{00040703}[2001b2dc].dll  - Undefined Reference
    QRegExp::~QRegExp()                       - Undefined Reference
    _ZN7QRegExpD1Ev@QtCore{00040703}[2001b2dc].dll  - Undefined Reference
    QString::shared_null                      - Undefined Reference
    _ZN7QString11shared_nullE@QtCore{00040703}[2001b2dc].dll  - Undefined Reference
    QString::fromAscii_helper(const char*, int)  - Undefined Reference
    _ZN7QString16fromAscii_helperEPKci@QtCore{00040703}[2001b2dc].dll  - Undefined Reference
    QString::fromLatin1_helper(const char*, int)  - Undefined Reference
    _ZN7QString17fromLatin1_helperEPKci@QtCore{00040703}[2001b2dc].dll  - Undefined Reference
    QString::free(QString::Data*)             - Undefined Reference
    _ZN7QString4freeEPNS_4DataE@QtCore{00040703}[2001b2dc].dll  - Undefined Reference
    QString::append(const QString&)           - Undefined Reference
    _ZN7QString6appendERKS_@QtCore{00040703}[2001b2dc].dll  - Undefined Reference
    QString::fromAscii(const char*, int)      - Undefined Reference
    _ZN7QString9fromAsciiEPKci@QtCore{00040703}[2001b2dc].dll  - Undefined Reference
    QString::fromUtf16(const unsigned short*, int)  - Undefined Reference
    _ZN7QString9fromUtf16EPKti@QtCore{00040703}[2001b2dc].dll  - Undefined Reference
    QString::QString(QChar)                   - Undefined Reference
    _ZN7QStringC1E5QChar@QtCore{00040703}[2001b2dc].dll  - Undefined Reference
    QString::operator =(QChar)                - Undefined Reference
    _ZN7QStringaSE5QChar@QtCore{00040703}[2001b2dc].dll  - Undefined Reference
    QString::operator =(const QString&)       - Undefined Reference
    _ZN7QStringaSERKS_@QtCore{00040703}[2001b2dc].dll  - Undefined Reference
    SysUtil::GetSWVersion(TDes16&)            - Undefined Reference
    _ZN7SysUtil12GetSWVersionER6TDes16@sysutil{000a0000}[10005943].dll  - Undefined Reference
    TPtrC16::TPtrC16(const unsigned short*)   - Undefined Reference
    _ZN7TPtrC16C1EPKt@euser{000a0000}[100039e5].dll  - Undefined Reference
    DriveInfo::GetDriveStatus(RFs&, int, unsigned&)  - Undefined Reference
    _ZN9DriveInfo14GetDriveStatusER3RFsiRj@platformenv{000a0000}[101f857f].dll  - Undefined Reference
    DriveInfo::GetUserVisibleDrives(RFs&, TBuf8<(int)26>&, int&, unsigned)  - Undefined Reference
    _ZN9DriveInfo20GetUserVisibleDrivesER3RFsR5TBuf8ILi26EERij@platformenv{000a0000}[101f857f].dll  - Undefined Reference
    QListData::detach_grow(int*, int)         - Undefined Reference
    _ZN9QListData11detach_growEPii@QtCore{00040703}[2001b2dc].dll  - Undefined Reference
    QListData::shared_null                    - Undefined Reference
    _ZN9QListData11shared_nullE@QtCore{00040703}[2001b2dc].dll  - Undefined Reference
    QListData::append()                       - Undefined Reference
    _ZN9QListData6appendEv@QtCore{00040703}[2001b2dc].dll  - Undefined Reference
    QListData::detach(int)                    - Undefined Reference
    _ZN9QListData6detachEi@QtCore{00040703}[2001b2dc].dll  - Undefined Reference
    QListData::remove(int)                    - Undefined Reference
    _ZN9QListData6removeEi@QtCore{00040703}[2001b2dc].dll  - Undefined Reference
    QMetaType::registerType(const char*, void(*)(void*), void*(*)(const void*))  - Undefined Reference
    _ZN9QMetaType12registerTypeEPKcPFvPvEPFS2_PKvE@QtCore{00040703}[2001b2dc].dll  - Undefined Reference
    QMetaType::registerTypedef(const char*, int)  - Undefined Reference
    _ZN9QMetaType15registerTypedefEPKci@QtCore{00040703}[2001b2dc].dll  - Undefined Reference
    QtPrivate::QStringList_removeDuplicates(QStringList*)  - Undefined Reference
    _ZN9QtPrivate28QStringList_removeDuplicatesEP11QStringList@QtCore{00040703}[2001b2dc].dll  - Undefined Reference
    RNotifier::Close()                        - Undefined Reference
    _ZN9RNotifier5CloseEv@euser{000a0000}[100039e5].dll  - Undefined Reference
    RNotifier::RNotifier()                    - Undefined Reference
    _ZN9RNotifierC1Ev@euser{000a0000}[100039e5].dll  - Undefined Reference
    RProperty::Get(TUid, unsigned, TDes8&)    - Undefined Reference
    _ZN9RProperty3GetE4TUidjR5TDes8@euser{000a0000}[100039e5].dll  - Undefined Reference
    RProperty::Get(TUid, unsigned, int&)      - Undefined Reference
    _ZN9RProperty3GetE4TUidjRi@euser{000a0000}[100039e5].dll  - Undefined Reference
    RProperty::Get(int&)                      - Undefined Reference
    _ZN9RProperty3GetERi@euser{000a0000}[100039e5].dll  - Undefined Reference
    RProperty::Attach(TUid, unsigned, TOwnerType)  - Undefined Reference
    _ZN9RProperty6AttachE4TUidj10TOwnerType@euser{000a0000}[100039e5].dll  - Undefined Reference
    RProperty::Cancel()                       - Undefined Reference
    _ZN9RProperty6CancelEv@euser{000a0000}[100039e5].dll  - Undefined Reference
    RProperty::Subscribe(TRequestStatus&)     - Undefined Reference
    _ZN9RProperty9SubscribeER14TRequestStatus@euser{000a0000}[100039e5].dll  - Undefined Reference
    TBufBase8::TBufBase8(int)                 - Undefined Reference
    _ZN9TBufBase8C1Ei@euser{000a0000}[100039e5].dll  - Undefined Reference
    TBufBase8::TBufBase8(int, int)            - Undefined Reference
    _ZN9TBufBase8C1Eii@euser{000a0000}[100039e5].dll  - Undefined Reference
    CTelephony::GetPhoneId(TRequestStatus&, TDes8&) const  - Undefined Reference
    _ZNK10CTelephony10GetPhoneIdER14TRequestStatusR5TDes8@etel3rdparty{000a0000}[10004268].dll  - Undefined Reference
    CTelephony::CancelAsync(CTelephony::TCancellationRequest) const  - Undefined Reference
    _ZNK10CTelephony11CancelAsyncENS_20TCancellationRequestE@etel3rdparty{000a0000}[10004268].dll  - Undefined Reference
    CTelephony::NotifyChange(TRequestStatus&, const CTelephony::TNotificationEvent&, TDes8&) const  - Undefined Reference
    _ZNK10CTelephony12NotifyChangeER14TRequestStatusRKNS_18TNotificationEventER5TDes8@etel3rdparty{000a0000}[10004268].dll  - Undefined Reference
    CTelephony::GetBatteryInfo(TRequestStatus&, TDes8&) const  - Undefined Reference
    _ZNK10CTelephony14GetBatteryInfoER14TRequestStatusR5TDes8@etel3rdparty{000a0000}[10004268].dll  - Undefined Reference
    CTelephony::GetSubscriberId(TRequestStatus&, TDes8&) const  - Undefined Reference
    _ZNK10CTelephony15GetSubscriberIdER14TRequestStatusR5TDes8@etel3rdparty{000a0000}[10004268].dll  - Undefined Reference
    CTelephony::GetSignalStrength(TRequestStatus&, TDes8&) const  - Undefined Reference
    _ZNK10CTelephony17GetSignalStrengthER14TRequestStatusR5TDes8@etel3rdparty{000a0000}[10004268].dll  - Undefined Reference
    CTelephony::GetCurrentNetworkInfo(TRequestStatus&, TDes8&) const  - Undefined Reference
    _ZNK10CTelephony21GetCurrentNetworkInfoER14TRequestStatusR5TDes8@etel3rdparty{000a0000}[10004268].dll  - Undefined Reference
    CTelephony::GetNetworkRegistrationStatus(TRequestStatus&, TDes8&) const  - Undefined Reference
    _ZNK10CTelephony28GetNetworkRegistrationStatusER14TRequestStatusR5TDes8@etel3rdparty{000a0000}[10004268].dll  - Undefined Reference
    QByteArray::toHex() const                 - Undefined Reference
    _ZNK10QByteArray5toHexEv@QtCore{00040703}[2001b2dc].dll  - Undefined Reference
    RTelServer::GetPhoneInfo(int, RTelServer::TPhoneInfo&) const  - Undefined Reference
    _ZNK10RTelServer12GetPhoneInfoEiRNS_10TPhoneInfoE@etel{000a0000}[10003d46].dll  - Undefined Reference
    RTelServer::LoadPhoneModule(const TDesC16&) const  - Undefined Reference
    _ZNK10RTelServer15LoadPhoneModuleERK7TDesC16@etel{000a0000}[10003d46].dll  - Undefined Reference
    TBTDevAddr::GetReadable(TDes16&, const TDesC16&, const TDesC16&, const TDesC16&) const  - Undefined Reference
    _ZNK10TBTDevAddr11GetReadableER6TDes16RK7TDesC16S4_S4_@bluetooth{000a0000}.dll  - Undefined Reference
    RMobilePhone::GetHomeNetwork(TRequestStatus&, TDes8&) const  - Undefined Reference
    _ZNK12RMobilePhone14GetHomeNetworkER14TRequestStatusR5TDes8@etelmm{000a0000}[100064dd].dll  - Undefined Reference
    QDesktopWidget::numScreens() const        - Undefined Reference
    _ZNK14QDesktopWidget10numScreensEv@QtGui{00040703}[2001b2dd].dll  - Undefined Reference
    XLeaveException::GetReason() const        - Undefined Reference
    _ZNK15XLeaveException9GetReasonEv@euser{000a0000}[100039e5].dll  - Undefined Reference
    RPointerArrayBase::At(int) const          - Undefined Reference
    _ZNK17RPointerArrayBase2AtEi@euser{000a0000}[100039e5].dll  - Undefined Reference
    RPointerArrayBase::Count() const          - Undefined Reference
    _ZNK17RPointerArrayBase5CountEv@euser{000a0000}[100039e5].dll  - Undefined Reference
    RFs::Drive(TDriveInfo&, int) const        - Undefined Reference
    _ZNK3RFs5DriveER10TDriveInfoi@efsrv{000a0000}[100039e4].dll  - Undefined Reference
    RFs::Volume(TVolumeInfo&, int) const      - Undefined Reference
    _ZNK3RFs6VolumeER11TVolumeInfoi@efsrv{000a0000}[100039e4].dll  - Undefined Reference
    RFs::DriveList(TBuf8<(int)26>&) const     - Undefined Reference
    _ZNK3RFs9DriveListER5TBuf8ILi26EE@efsrv{000a0000}[100039e4].dll  - Undefined Reference
    QDir::entryList(const QStringList&, QFlags<QDir::Filter>, QFlags<QDir::SortFlag>) const  - Undefined Reference
    _ZNK4QDir9entryListERK11QStringList6QFlagsINS_6FilterEES3_INS_8SortFlagEE@QtCore{00040703}[2001b2dc].dll  - Undefined Reference
    QChar::toAscii() const                    - Undefined Reference
    _ZNK5QChar7toAsciiEv@QtCore{00040703}[2001b2dc].dll  - Undefined Reference
    TDesC8::AtC(int) const                    - Undefined Reference
    _ZNK6TDesC83AtCEi@euser{000a0000}[100039e5].dll  - Undefined Reference
    TDesC8::Mid(int, int) const               - Undefined Reference
    _ZNK6TDesC83MidEii@euser{000a0000}[100039e5].dll  - Undefined Reference
    TDesC8::Ptr() const                       - Undefined Reference
    _ZNK6TDesC83PtrEv@euser{000a0000}[100039e5].dll  - Undefined Reference
    QLocale::name() const                     - Undefined Reference
    _ZNK7QLocale4nameEv@QtCore{00040703}[2001b2dc].dll  - Undefined Reference
    QRegExp::indexIn(const QString&, int, QRegExp::CaretMode) const  - Undefined Reference
    _ZNK7QRegExp7indexInERK7QStringiNS_9CaretModeE@QtCore{00040703}[2001b2dc].dll  - Undefined Reference
    QString::mid(int, int) const              - Undefined Reference
    _ZNK7QString3midEii@QtCore{00040703}[2001b2dc].dll  - Undefined Reference
    QString::left(int) const                  - Undefined Reference
    _ZNK7QString4leftEi@QtCore{00040703}[2001b2dc].dll  - Undefined Reference
    QString::split(const QString&, QString::SplitBehavior, Qt::CaseSensitivity) const  - Undefined Reference
    _ZNK7QString5splitERKS_NS_13SplitBehaviorEN2Qt15CaseSensitivityE@QtCore{00040703}[2001b2dc].dll  - Undefined Reference
    QString::operator ==(const QLatin1String&) const  - Undefined Reference
    _ZNK7QStringeqERK13QLatin1String@QtCore{00040703}[2001b2dc].dll  - Undefined Reference
    QString::operator ==(const QString&) const  - Undefined Reference
    _ZNK7QStringeqERKS_@QtCore{00040703}[2001b2dc].dll  - Undefined Reference
    TDesC16::Ptr() const                      - Undefined Reference
    _ZNK7TDesC163PtrEv@euser{000a0000}[100039e5].dll  - Undefined Reference
    typeinfo for XLeaveException              - Undefined Reference
    _ZTI15XLeaveException@drtaeabi{000a0000}.dll  - Undefined Reference
    typeinfo for MCenRepNotifyHandlerCallback  - Undefined Reference
    _ZTI28MCenRepNotifyHandlerCallback@cenrepnotifhandler{000a0000}[10200c8a].dll  - Undefined Reference
    typeinfo for CBase                        - Undefined Reference
    _ZTI5CBase@euser{000a0000}[100039e5].dll  - Undefined Reference
    typeinfo for CActive                      - Undefined Reference
    _ZTI7CActive@euser{000a0000}[100039e5].dll  - Undefined Reference
    typeinfo for QObject                      - Undefined Reference
    _ZTI7QObject@QtCore{00040703}[2001b2dc].dll  - Undefined Reference
    vtable for MCenRepNotifyHandlerCallback   - Undefined Reference
    _ZTV28MCenRepNotifyHandlerCallback@cenrepnotifhandler{000a0000}[10200c8a].dll  - Undefined Reference
    vtable for __cxxabiv1::__class_type_info  - Undefined Reference
    _ZTVN10__cxxabiv117__class_type_infoE@drtaeabi{000a0000}.dll  - Undefined Reference
    vtable for __cxxabiv1::__si_class_type_info  - Undefined Reference
    _ZTVN10__cxxabiv120__si_class_type_infoE@drtaeabi{000a0000}.dll  - Undefined Reference
    vtable for __cxxabiv1::__vmi_class_type_info  - Undefined Reference
    _ZTVN10__cxxabiv121__vmi_class_type_infoE@drtaeabi{000a0000}.dll  - Undefined Reference
    operator delete (void*)                   - Undefined Reference
    _ZdlPv@stdnew{000a0000}[20022178].dll     - Undefined Reference
    operator new(unsigned)                    - Undefined Reference
    _Znwj@stdnew{000a0000}[20022178].dll      - Undefined Reference
    __aeabi_d2iz                              - Undefined Reference
    __aeabi_d2iz@dfpaeabi{000a0000}.dll       - Undefined Reference
    __aeabi_dadd                              - Undefined Reference
    __aeabi_dadd@dfpaeabi{000a0000}.dll       - Undefined Reference
    __aeabi_ddiv                              - Undefined Reference
    __aeabi_ddiv@dfpaeabi{000a0000}.dll       - Undefined Reference
    __aeabi_dmul                              - Undefined Reference
    __aeabi_dmul@dfpaeabi{000a0000}.dll       - Undefined Reference
    __aeabi_i2d                               - Undefined Reference
    __aeabi_i2d@dfpaeabi{000a0000}.dll        - Undefined Reference
    __aeabi_idivmod                           - Undefined Reference
    __aeabi_idivmod@drtaeabi{000a0000}.dll    - Undefined Reference
    __aeabi_memcpy                            - Undefined Reference
    __aeabi_memcpy4                           - Undefined Reference
    __aeabi_memcpy4@drtaeabi{000a0000}.dll    - Undefined Reference
    __aeabi_memcpy@drtaeabi{000a0000}.dll     - Undefined Reference
    __aeabi_unwind_cpp_pr0                    - Undefined Reference
    __aeabi_unwind_cpp_pr0@drtaeabi{000a0000}.dll  - Undefined Reference
    __cxa_begin_catch                         - Undefined Reference
    __cxa_begin_catch@drtaeabi{000a0000}.dll  - Undefined Reference
    __cxa_call_unexpected                     - Undefined Reference
    __cxa_call_unexpected@drtaeabi{000a0000}.dll  - Undefined Reference
    __cxa_end_catch                           - Undefined Reference
    __cxa_end_catch@drtaeabi{000a0000}.dll    - Undefined Reference
    __cxa_end_cleanup                         - Undefined Reference
    __cxa_end_cleanup@drtaeabi{000a0000}.dll  - Undefined Reference
    __cxa_guard_abort                         - Undefined Reference
    __cxa_guard_abort@drtaeabi{000a0000}.dll  - Undefined Reference
    __cxa_guard_acquire                       - Undefined Reference
    __cxa_guard_acquire@drtaeabi{000a0000}.dll  - Undefined Reference
    __cxa_guard_release                       - Undefined Reference
    __cxa_guard_release@drtaeabi{000a0000}.dll  - Undefined Reference
    __cxa_pure_virtual                        - Undefined Reference
    __cxa_pure_virtual@drtaeabi{000a0000}.dll  - Undefined Reference
    __cxa_rethrow                             - Undefined Reference
    __cxa_rethrow@drtaeabi{000a0000}.dll      - Undefined Reference
    strcmp                                    - Undefined Reference
    strcmp@libc{00010001}[10207369].dll       - Undefined Reference
    Image$$ER_RO$$Base                       0x00008000   Number         0  anon$$obj.o(linker$$defined$$symbols)
    _E32Dll                                  0x00008000   ARM Code      40  uc_dll_.o(.emb_text)
    Symbian$$CPP$$Exception$$Descriptor      0x00008014   Data           0  uc_dll_.o(.emb_text)
    __cpp_initialize__aeabi_                 0x00008028   ARM Code      52  ucppinit.o(.emb_text)
    std::nothrow                             0x0000805c   ARM Code       0  ucppinit.o(.emb_text)
    __PLT                                    0x0000805c   ARM Code       0  anon$$obj.o(.plt)
    CWlanInfo::getStaticMetaObject()         0x0000861d   Thumb Code     4  moc_wlaninfo_s60.o(.text)
    CWlanInfo::metaObject() const            0x00008621   Thumb Code    28  moc_wlaninfo_s60.o(.text)
    CWlanInfo::qt_metacast(const char*)      0x0000863d   Thumb Code    58  moc_wlaninfo_s60.o(.text)
    CWlanInfo::wlanNetworkStatusChanged()    0x00008677   Thumb Code    18  moc_wlaninfo_s60.o(.text)
    CWlanInfo::wlanNetworkSignalStrengthChanged() 0x00008689   Thumb Code    18  moc_wlaninfo_s60.o(.text)
    CWlanInfo::wlanNetworkNameChanged()      0x0000869b   Thumb Code    18  moc_wlaninfo_s60.o(.text)
    CWlanInfo::qt_metacall(QMetaObject::Call, int, void**) 0x000086ad   Thumb Code    96  moc_wlaninfo_s60.o(.text)
    QtMobility::QSystemInfo::getStaticMetaObject() 0x0000872d   Thumb Code     4  qsystemgeneralinfo.o(.text)
    QtMobility::QSystemInfo::metaObject() const 0x00008731   Thumb Code    28  qsystemgeneralinfo.o(.text)
    QtMobility::QSystemInfo::qt_metacast(const char*) 0x0000874d   Thumb Code    40  qsystemgeneralinfo.o(.text)
    QtMobility::QSystemInfo::currentCountryCode() 0x00008819   Thumb Code    22  qsystemgeneralinfo.o(.text)
    QtMobility::QSystemInfo::availableLanguages() 0x0000882f   Thumb Code    22  qsystemgeneralinfo.o(.text)
    QtMobility::QSystemInfo::currentLanguage() 0x00008845   Thumb Code    22  qsystemgeneralinfo.o(.text)
    QtMobility::QSystemInfo::currentLanguageChanged(const QString&) 0x0000885b   Thumb Code    30  qsystemgeneralinfo.o(.text)
    QtMobility::QSystemInfo::qt_metacall(QMetaObject::Call, int, void**) 0x00008879   Thumb Code   336  qsystemgeneralinfo.o(.text)
    QtMobility::QSystemInfo::QSystemInfo(QObject*) 0x000089c9   Thumb Code    46  qsystemgeneralinfo.o(.text)
    QtMobility::QSystemInfo::QSystemInfo__sub_object(QObject*) 0x000089c9   Thumb Code     0  qsystemgeneralinfo.o(.text)
    QtMobility::QSystemInfo::~QSystemInfo()  0x000089f7   Thumb Code    14  qsystemgeneralinfo.o(.text)
    QtMobility::QSystemInfo::~QSystemInfo__sub_object() 0x000089f7   Thumb Code     0  qsystemgeneralinfo.o(.text)
    QtMobility::QSystemInfo::~QSystemInfo__deallocating() 0x00008a05   Thumb Code    22  qsystemgeneralinfo.o(.text)
    QtMobility::QSystemInfo::version(QtMobility::QSystemInfo::Version, const QString&) 0x00008a1b   Thumb Code    68  qsystemgeneralinfo.o(.text)
    QtMobility::QSystemInfo::hasFeatureSupported(QtMobility::QSystemInfo::Feature) 0x00008a5f   Thumb Code    20  qsystemgeneralinfo.o(.text)
    QtMobility::QSystemInfo::connectNotify(const char*) 0x00008a73   Thumb Code    74  qsystemgeneralinfo.o(.text)
    QtMobility::QSystemInfo::disconnectNotify(const char*) 0x00008abd   Thumb Code   188  qsystemgeneralinfo.o(.text)
    QtMobility::QSystemDeviceInfo::getStaticMetaObject() 0x00008b79   Thumb Code     4  qsystemdeviceinfo.o(.text)
    QtMobility::QSystemDeviceInfo::metaObject() const 0x00008b7d   Thumb Code    28  qsystemdeviceinfo.o(.text)
    QtMobility::QSystemDeviceInfo::qt_metacast(const char*) 0x00008b99   Thumb Code    40  qsystemdeviceinfo.o(.text)
    QtMobility::QSystemDeviceInfo::currentPowerState() 0x00008c65   Thumb Code    16  qsystemdeviceinfo.o(.text)
    QtMobility::QSystemDeviceInfo::currentBluetoothPowerState() 0x00008c75   Thumb Code    16  qsystemdeviceinfo.o(.text)
    QtMobility::QSystemDeviceInfo::isDeviceLocked() 0x00008c85   Thumb Code    16  qsystemdeviceinfo.o(.text)
    QtMobility::QSystemDeviceInfo::batteryLevel() const 0x00008c95   Thumb Code    16  qsystemdeviceinfo.o(.text)
    QtMobility::QSystemDeviceInfo::productName() 0x00008ca5   Thumb Code    18  qsystemdeviceinfo.o(.text)
    QtMobility::QSystemDeviceInfo::model()   0x00008cb7   Thumb Code    18  qsystemdeviceinfo.o(.text)
    QtMobility::QSystemDeviceInfo::manufacturer() 0x00008cc9   Thumb Code    18  qsystemdeviceinfo.o(.text)
    QtMobility::QSystemDeviceInfo::imsi()    0x00008cdb   Thumb Code    18  qsystemdeviceinfo.o(.text)
    QtMobility::QSystemDeviceInfo::imei()    0x00008ced   Thumb Code    18  qsystemdeviceinfo.o(.text)
    QtMobility::QSystemDeviceInfo::inputMethodType() 0x00008cff   Thumb Code    22  qsystemdeviceinfo.o(.text)
    QtMobility::QSystemDeviceInfo::batteryStatus() 0x00008d15   Thumb Code    48  qsystemdeviceinfo.o(.text)
    QtMobility::QSystemDeviceInfo::simStatus() 0x00008d45   Thumb Code    14  qsystemdeviceinfo.o(.text)
    QtMobility::QSystemDeviceInfo::currentProfile() 0x00008d53   Thumb Code    16  qsystemdeviceinfo.o(.text)
    QtMobility::QSystemDeviceInfo::bluetoothStateChanged(bool) 0x00008d63   Thumb Code    32  qsystemdeviceinfo.o(.text)
    QtMobility::QSystemDeviceInfo::currentProfileChanged(QtMobility::QSystemDeviceInfo::Profile) 0x00008d83   Thumb Code    32  qsystemdeviceinfo.o(.text)
    QtMobility::QSystemDeviceInfo::powerStateChanged(QtMobility::QSystemDeviceInfo::PowerState) 0x00008da3   Thumb Code    32  qsystemdeviceinfo.o(.text)
    QtMobility::QSystemDeviceInfo::batteryStatusChanged(QtMobility::QSystemDeviceInfo::BatteryStatus) 0x00008dc3   Thumb Code    32  qsystemdeviceinfo.o(.text)
    QtMobility::QSystemDeviceInfo::batteryLevelChanged(int) 0x00008de3   Thumb Code    30  qsystemdeviceinfo.o(.text)
    QtMobility::QSystemDeviceInfo::qt_metacall(QMetaObject::Call, int, void**) 0x00008e01   Thumb Code   584  qsystemdeviceinfo.o(.text)
    QtMobility::QSystemDeviceInfo::QSystemDeviceInfo(QObject*) 0x00009049   Thumb Code    70  qsystemdeviceinfo.o(.text)
    QtMobility::QSystemDeviceInfo::QSystemDeviceInfo__sub_object(QObject*) 0x00009049   Thumb Code     0  qsystemdeviceinfo.o(.text)
    QtMobility::QSystemDeviceInfo::~QSystemDeviceInfo() 0x0000908f   Thumb Code    14  qsystemdeviceinfo.o(.text)
    QtMobility::QSystemDeviceInfo::~QSystemDeviceInfo__sub_object() 0x0000908f   Thumb Code     0  qsystemdeviceinfo.o(.text)
    QtMobility::QSystemDeviceInfo::~QSystemDeviceInfo__deallocating() 0x0000909d   Thumb Code    22  qsystemdeviceinfo.o(.text)
    QtMobility::QSystemDeviceInfo::connectNotify(const char*) 0x000090b3   Thumb Code   734  qsystemdeviceinfo.o(.text)
    QtMobility::QSystemDeviceInfo::disconnectNotify(const char*) 0x00009391   Thumb Code   324  qsystemdeviceinfo.o(.text)
    QtMobility::QSystemDisplayInfo::getStaticMetaObject() 0x000094e9   Thumb Code     4  qsystemdisplayinfo.o(.text)
    QtMobility::QSystemDisplayInfo::metaObject() const 0x000094ed   Thumb Code    28  qsystemdisplayinfo.o(.text)
    QtMobility::QSystemDisplayInfo::qt_metacast(const char*) 0x00009509   Thumb Code    40  qsystemdisplayinfo.o(.text)
    QtMobility::QSystemDisplayInfo::qt_metacall(QMetaObject::Call, int, void**) 0x00009531   Thumb Code    36  qsystemdisplayinfo.o(.text)
    QtMobility::QSystemDisplayInfo::QSystemDisplayInfo(QObject*) 0x00009555   Thumb Code    24  qsystemdisplayinfo.o(.text)
    QtMobility::QSystemDisplayInfo::QSystemDisplayInfo__sub_object(QObject*) 0x00009555   Thumb Code     0  qsystemdisplayinfo.o(.text)
    QtMobility::QSystemDisplayInfo::~QSystemDisplayInfo() 0x0000956d   Thumb Code    14  qsystemdisplayinfo.o(.text)
    QtMobility::QSystemDisplayInfo::~QSystemDisplayInfo__sub_object() 0x0000956d   Thumb Code     0  qsystemdisplayinfo.o(.text)
    QtMobility::QSystemDisplayInfo::~QSystemDisplayInfo__deallocating() 0x0000957b   Thumb Code    22  qsystemdisplayinfo.o(.text)
    QtMobility::QSystemDisplayInfo::displayBrightness(int) 0x00009635   Thumb Code    70  qsystemdisplayinfo.o(.text)
    QtMobility::QSystemDisplayInfo::colorDepth(int) 0x0000967b   Thumb Code    70  qsystemdisplayinfo.o(.text)
    QtMobility::QSystemNetworkInfo::getStaticMetaObject() 0x000096e1   Thumb Code     4  qsystemnetworkinfo.o(.text)
    QtMobility::QSystemNetworkInfo::metaObject() const 0x000096e5   Thumb Code    28  qsystemnetworkinfo.o(.text)
    QtMobility::QSystemNetworkInfo::qt_metacast(const char*) 0x00009701   Thumb Code    40  qsystemnetworkinfo.o(.text)
    QtMobility::QSystemNetworkInfo::currentMode() 0x000097cd   Thumb Code    16  qsystemnetworkinfo.o(.text)
    QtMobility::QSystemNetworkInfo::homeMobileNetworkCode() 0x000097dd   Thumb Code    18  qsystemnetworkinfo.o(.text)
    QtMobility::QSystemNetworkInfo::homeMobileCountryCode() 0x000097ef   Thumb Code    18  qsystemnetworkinfo.o(.text)
    QtMobility::QSystemNetworkInfo::currentMobileNetworkCode() 0x00009801   Thumb Code    18  qsystemnetworkinfo.o(.text)
    QtMobility::QSystemNetworkInfo::currentMobileCountryCode() 0x00009813   Thumb Code    18  qsystemnetworkinfo.o(.text)
    QtMobility::QSystemNetworkInfo::locationAreaCode() 0x00009825   Thumb Code    14  qsystemnetworkinfo.o(.text)
    QtMobility::QSystemNetworkInfo::cellId() 0x00009833   Thumb Code    14  qsystemnetworkinfo.o(.text)
    QtMobility::QSystemNetworkInfo::networkName(QtMobility::QSystemNetworkInfo::NetworkMode) 0x00009841   Thumb Code    20  qsystemnetworkinfo.o(.text)
    QtMobility::QSystemNetworkInfo::macAddress(QtMobility::QSystemNetworkInfo::NetworkMode) 0x00009855   Thumb Code    26  qsystemnetworkinfo.o(.text)
    QtMobility::QSystemNetworkInfo::networkSignalStrength(QtMobility::QSystemNetworkInfo::NetworkMode) 0x0000986f   Thumb Code    42  qsystemnetworkinfo.o(.text)
    QtMobility::QSystemNetworkInfo::networkStatus(QtMobility::QSystemNetworkInfo::NetworkMode) 0x00009899   Thumb Code    20  qsystemnetworkinfo.o(.text)
    QtMobility::QSystemNetworkInfo::networkModeChanged(QtMobility::QSystemNetworkInfo::NetworkMode) 0x000098ad   Thumb Code    32  qsystemnetworkinfo.o(.text)
    QtMobility::QSystemNetworkInfo::networkNameChanged(QtMobility::QSystemNetworkInfo::NetworkMode, const QString&) 0x000098cd   Thumb Code    40  qsystemnetworkinfo.o(.text)
    QtMobility::QSystemNetworkInfo::currentMobileNetworkCodeChanged(const QString&) 0x000098f5   Thumb Code    30  qsystemnetworkinfo.o(.text)
    QtMobility::QSystemNetworkInfo::currentMobileCountryCodeChanged(const QString&) 0x00009913   Thumb Code    30  qsystemnetworkinfo.o(.text)
    QtMobility::QSystemNetworkInfo::networkSignalStrengthChanged(QtMobility::QSystemNetworkInfo::NetworkMode, int) 0x00009931   Thumb Code    40  qsystemnetworkinfo.o(.text)
    QtMobility::QSystemNetworkInfo::networkStatusChanged(QtMobility::QSystemNetworkInfo::NetworkMode, QtMobility::QSystemNetworkInfo::NetworkStatus) 0x00009959   Thumb Code    38  qsystemnetworkinfo.o(.text)
    QtMobility::QSystemNetworkInfo::qt_metacall(QMetaObject::Call, int, void**) 0x0000997f   Thumb Code   618  qsystemnetworkinfo.o(.text)
    QtMobility::QSystemNetworkInfo::QSystemNetworkInfo(QObject*) 0x00009be9   Thumb Code    46  qsystemnetworkinfo.o(.text)
    QtMobility::QSystemNetworkInfo::QSystemNetworkInfo__sub_object(QObject*) 0x00009be9   Thumb Code     0  qsystemnetworkinfo.o(.text)
    QtMobility::QSystemNetworkInfo::~QSystemNetworkInfo() 0x00009c17   Thumb Code    14  qsystemnetworkinfo.o(.text)
    QtMobility::QSystemNetworkInfo::~QSystemNetworkInfo__sub_object() 0x00009c17   Thumb Code     0  qsystemnetworkinfo.o(.text)
    QtMobility::QSystemNetworkInfo::~QSystemNetworkInfo__deallocating() 0x00009c25   Thumb Code    22  qsystemnetworkinfo.o(.text)
    QtMobility::QSystemNetworkInfo::interfaceForMode(QtMobility::QSystemNetworkInfo::NetworkMode) 0x00009c3b   Thumb Code    26  qsystemnetworkinfo.o(.text)
    QtMobility::QSystemNetworkInfo::connectNotify(const char*) 0x00009c55   Thumb Code   788  qsystemnetworkinfo.o(.text)
    QtMobility::QSystemNetworkInfo::disconnectNotify(const char*) 0x00009f69   Thumb Code   392  qsystemnetworkinfo.o(.text)
    QtMobility::QSystemScreenSaver::getStaticMetaObject() 0x0000a105   Thumb Code     4  qsystemscreensaver.o(.text)
    QtMobility::QSystemScreenSaver::metaObject() const 0x0000a109   Thumb Code    28  qsystemscreensaver.o(.text)
    QtMobility::QSystemScreenSaver::qt_metacast(const char*) 0x0000a125   Thumb Code    40  qsystemscreensaver.o(.text)
    QtMobility::QSystemScreenSaver::screenSaverInhibited() 0x0000a14d   Thumb Code    12  qsystemscreensaver.o(.text)
    QtMobility::QSystemScreenSaver::setScreenSaverInhibit() 0x0000a159   Thumb Code    12  qsystemscreensaver.o(.text)
    QtMobility::QSystemScreenSaver::qt_metacall(QMetaObject::Call, int, void**) 0x0000a165   Thumb Code   154  qsystemscreensaver.o(.text)
    QtMobility::QSystemScreenSaver::QSystemScreenSaver(QObject*) 0x0000a1ff   Thumb Code    56  qsystemscreensaver.o(.text)
    QtMobility::QSystemScreenSaver::QSystemScreenSaver__sub_object(QObject*) 0x0000a1ff   Thumb Code     0  qsystemscreensaver.o(.text)
    QtMobility::QSystemScreenSaver::~QSystemScreenSaver() 0x0000a237   Thumb Code    34  qsystemscreensaver.o(.text)
    QtMobility::QSystemScreenSaver::~QSystemScreenSaver__sub_object() 0x0000a237   Thumb Code     0  qsystemscreensaver.o(.text)
    QtMobility::QSystemScreenSaver::~QSystemScreenSaver__deallocating() 0x0000a259   Thumb Code    22  qsystemscreensaver.o(.text)
    QtMobility::QSystemStorageInfo::getStaticMetaObject() 0x0000a27d   Thumb Code     4  qsystemstorageinfo.o(.text)
    QtMobility::QSystemStorageInfo::metaObject() const 0x0000a281   Thumb Code    28  qsystemstorageinfo.o(.text)
    QtMobility::QSystemStorageInfo::qt_metacast(const char*) 0x0000a29d   Thumb Code    40  qsystemstorageinfo.o(.text)
    QtMobility::QSystemStorageInfo::logicalDrives() 0x0000a369   Thumb Code    16  qsystemstorageinfo.o(.text)
    QtMobility::QSystemStorageInfo::typeForDrive(const QString&) 0x0000a379   Thumb Code    20  qsystemstorageinfo.o(.text)
    QtMobility::QSystemStorageInfo::availableDiskSpace(const QString&) 0x0000a38d   Thumb Code    24  qsystemstorageinfo.o(.text)
    QtMobility::QSystemStorageInfo::totalDiskSpace(const QString&) 0x0000a3a5   Thumb Code    24  qsystemstorageinfo.o(.text)
    QtMobility::QSystemStorageInfo::logicalDriveChanged(bool, const QString&) 0x0000a3bd   Thumb Code    38  qsystemstorageinfo.o(.text)
    QtMobility::QSystemStorageInfo::qt_metacall(QMetaObject::Call, int, void**) 0x0000a3e3   Thumb Code   368  qsystemstorageinfo.o(.text)
    QtMobility::QSystemStorageInfo::QSystemStorageInfo(QObject*) 0x0000a553   Thumb Code    54  qsystemstorageinfo.o(.text)
    QtMobility::QSystemStorageInfo::QSystemStorageInfo__sub_object(QObject*) 0x0000a553   Thumb Code     0  qsystemstorageinfo.o(.text)
    QtMobility::QSystemStorageInfo::~QSystemStorageInfo() 0x0000a589   Thumb Code    14  qsystemstorageinfo.o(.text)
    QtMobility::QSystemStorageInfo::~QSystemStorageInfo__sub_object() 0x0000a589   Thumb Code     0  qsystemstorageinfo.o(.text)
    QtMobility::QSystemStorageInfo::~QSystemStorageInfo__deallocating() 0x0000a597   Thumb Code    22  qsystemstorageinfo.o(.text)
    QtMobility::QSystemInfoPrivate::getStaticMetaObject() 0x0000a615   Thumb Code     4  qsysteminfo_s60.o(.text)
    QtMobility::QSystemInfoPrivate::metaObject() const 0x0000a619   Thumb Code    28  qsysteminfo_s60.o(.text)
    QtMobility::QSystemInfoPrivate::qt_metacast(const char*) 0x0000a635   Thumb Code    40  qsysteminfo_s60.o(.text)
    QtMobility::QSystemInfoPrivate::currentLanguageChanged(const QString&) 0x0000a65d   Thumb Code    30  qsysteminfo_s60.o(.text)
    QtMobility::QSystemInfoPrivate::qt_metacall(QMetaObject::Call, int, void**) 0x0000a67b   Thumb Code    60  qsysteminfo_s60.o(.text)
    QtMobility::QSystemInfoPrivate::QSystemInfoPrivate(QObject*) 0x0000a6b7   Thumb Code    24  qsysteminfo_s60.o(.text)
    QtMobility::QSystemInfoPrivate::QSystemInfoPrivate__sub_object(QObject*) 0x0000a6b7   Thumb Code     0  qsysteminfo_s60.o(.text)
    QtMobility::QSystemInfoPrivate::~QSystemInfoPrivate() 0x0000a6cf   Thumb Code    14  qsysteminfo_s60.o(.text)
    QtMobility::QSystemInfoPrivate::~QSystemInfoPrivate__sub_object() 0x0000a6cf   Thumb Code     0  qsysteminfo_s60.o(.text)
    QtMobility::QSystemInfoPrivate::~QSystemInfoPrivate__deallocating() 0x0000a6dd   Thumb Code    22  qsysteminfo_s60.o(.text)
    QtMobility::QSystemInfoPrivate::TLanguageToISO639_1(TLanguage) const 0x0000a6f3   Thumb Code  1438  qsysteminfo_s60.o(.text)
    QtMobility::QSystemInfoPrivate::currentLanguage() const 0x0000ac91   Thumb Code    24  qsysteminfo_s60.o(.text)
    QtMobility::QSystemInfoPrivate::availableLanguages() const 0x0000aca9   Thumb Code   216  qsysteminfo_s60.o(.text)
    QtMobility::QSystemInfoPrivate::currentCountryCode() const 0x0000ad81   Thumb Code    40  qsysteminfo_s60.o(.text)
    QtMobility::QSystemInfoPrivate::S60Version() const 0x0000ada9   Thumb Code   522  qsysteminfo_s60.o(.text)
    QtMobility::QSystemInfoPrivate::version(QtMobility::QSystemInfo::Version, const QString&) 0x0000afb3   Thumb Code   210  qsysteminfo_s60.o(.text)
    QtMobility::QSystemInfoPrivate::hasFeatureSupported(QtMobility::QSystemInfo::Feature) 0x0000b085   Thumb Code   254  qsysteminfo_s60.o(.text)
    QtMobility::QSystemInfoPrivate::QLocaleToISO639_1(QLocale::Language) const 0x0000b183   Thumb Code   922  qsysteminfo_s60.o(.text)
    QtMobility::QSystemNetworkInfoPrivate::getStaticMetaObject() 0x0000b51d   Thumb Code     4  qsysteminfo_s60.o(.text)
    QtMobility::QSystemNetworkInfoPrivate::metaObject() const 0x0000b521   Thumb Code    28  qsysteminfo_s60.o(.text)
    QtMobility::QSystemNetworkInfoPrivate::qt_metacast(const char*) 0x0000b53d   Thumb Code    58  qsysteminfo_s60.o(.text)
    QtMobility::QSystemNetworkInfoPrivate::networkStatusChanged(QtMobility::QSystemNetworkInfo::NetworkMode, QtMobility::QSystemNetworkInfo::NetworkStatus) 0x0000b577   Thumb Code    38  qsysteminfo_s60.o(.text)
    QtMobility::QSystemNetworkInfoPrivate::wlanNetworkStatusChanged() 0x0000b59d   Thumb Code    50  qsysteminfo_s60.o(.text)
    QtMobility::QSystemNetworkInfoPrivate::networkSignalStrengthChanged(QtMobility::QSystemNetworkInfo::NetworkMode, int) 0x0000b5cf   Thumb Code    40  qsysteminfo_s60.o(.text)
    QtMobility::QSystemNetworkInfoPrivate::wlanNetworkSignalStrengthChanged() 0x0000b5f7   Thumb Code    34  qsysteminfo_s60.o(.text)
    QtMobility::QSystemNetworkInfoPrivate::networkNameChanged(QtMobility::QSystemNetworkInfo::NetworkMode, const QString&) 0x0000b619   Thumb Code    40  qsysteminfo_s60.o(.text)
    QtMobility::QSystemNetworkInfoPrivate::wlanNetworkNameChanged() 0x0000b641   Thumb Code    74  qsysteminfo_s60.o(.text)
    QtMobility::QSystemNetworkInfoPrivate::networkModeChanged(QtMobility::QSystemNetworkInfo::NetworkMode) 0x0000b68b   Thumb Code    32  qsysteminfo_s60.o(.text)
    QtMobility::QSystemNetworkInfoPrivate::currentMobileNetworkCodeChanged(const QString&) 0x0000b6ab   Thumb Code    30  qsysteminfo_s60.o(.text)
    QtMobility::QSystemNetworkInfoPrivate::currentMobileCountryCodeChanged(const QString&) 0x0000b6c9   Thumb Code    30  qsysteminfo_s60.o(.text)
    QtMobility::QSystemNetworkInfoPrivate::qt_metacall(QMetaObject::Call, int, void**) 0x0000b6e7   Thumb Code   166  qsysteminfo_s60.o(.text)
    QtMobility::QSystemNetworkInfoPrivate::QSystemNetworkInfoPrivate(QObject*) 0x0000b78d   Thumb Code   444  qsysteminfo_s60.o(.text)
    QtMobility::QSystemNetworkInfoPrivate::QSystemNetworkInfoPrivate__sub_object(QObject*) 0x0000b78d   Thumb Code     0  qsysteminfo_s60.o(.text)
    QtMobility::QSystemNetworkInfoPrivate::~QSystemNetworkInfoPrivate() 0x0000b949   Thumb Code    98  qsysteminfo_s60.o(.text)
    QtMobility::QSystemNetworkInfoPrivate::~QSystemNetworkInfoPrivate__sub_object() 0x0000b949   Thumb Code     0  qsysteminfo_s60.o(.text)
    QtMobility::QSystemNetworkInfoPrivate::~QSystemNetworkInfoPrivate__deallocating() 0x0000b9ab   Thumb Code    22  qsysteminfo_s60.o(.text)
    QtMobility::QSystemNetworkInfoPrivate::networkStatus(QtMobility::QSystemNetworkInfo::NetworkMode) 0x0000b9c1   Thumb Code   198  qsysteminfo_s60.o(.text)
    QtMobility::QSystemNetworkInfoPrivate::networkSignalStrength(QtMobility::QSystemNetworkInfo::NetworkMode) 0x0000ba87   Thumb Code   136  qsysteminfo_s60.o(.text)
    QtMobility::QSystemNetworkInfoPrivate::cellId() 0x0000bb0f   Thumb Code    20  qsysteminfo_s60.o(.text)
    QtMobility::QSystemNetworkInfoPrivate::locationAreaCode() 0x0000bb23   Thumb Code    20  qsysteminfo_s60.o(.text)
    QtMobility::QSystemNetworkInfoPrivate::currentMobileCountryCode() 0x0000bb37   Thumb Code    26  qsysteminfo_s60.o(.text)
    QtMobility::QSystemNetworkInfoPrivate::currentMobileNetworkCode() 0x0000bb51   Thumb Code    26  qsysteminfo_s60.o(.text)
    QtMobility::QSystemNetworkInfoPrivate::homeMobileCountryCode() 0x0000bb6b   Thumb Code    68  qsysteminfo_s60.o(.text)
    QtMobility::QSystemNetworkInfoPrivate::homeMobileNetworkCode() 0x0000bbaf   Thumb Code    26  qsysteminfo_s60.o(.text)
    QtMobility::QSystemNetworkInfoPrivate::networkName(QtMobility::QSystemNetworkInfo::NetworkMode) 0x0000bbc9   Thumb Code   210  qsysteminfo_s60.o(.text)
    QtMobility::QSystemNetworkInfoPrivate::macAddress(QtMobility::QSystemNetworkInfo::NetworkMode) 0x0000bc9b   Thumb Code   462  qsysteminfo_s60.o(.text)
    QtMobility::QSystemNetworkInfoPrivate::interfaceForMode(QtMobility::QSystemNetworkInfo::NetworkMode) 0x0000be69   Thumb Code    18  qsysteminfo_s60.o(.text)
    QtMobility::QSystemNetworkInfoPrivate::currentMode() 0x0000be7b   Thumb Code    64  qsysteminfo_s60.o(.text)
    QtMobility::QSystemNetworkInfoPrivate::countryCodeChanged() 0x0000bebb   Thumb Code    40  qsysteminfo_s60.o(.text)
    thunk{-8} to QtMobility::QSystemNetworkInfoPrivate::countryCodeChanged() 0x0000bee3   Thumb Code    14  qsysteminfo_s60.o(.text)
    QtMobility::QSystemNetworkInfoPrivate::networkCodeChanged() 0x0000bef1   Thumb Code    40  qsysteminfo_s60.o(.text)
    thunk{-8} to QtMobility::QSystemNetworkInfoPrivate::networkCodeChanged() 0x0000bf19   Thumb Code    14  qsysteminfo_s60.o(.text)
    QtMobility::QSystemNetworkInfoPrivate::networkNameChanged() 0x0000bf27   Thumb Code    50  qsysteminfo_s60.o(.text)
    thunk{-8} to QtMobility::QSystemNetworkInfoPrivate::networkNameChanged() 0x0000bf59   Thumb Code    14  qsysteminfo_s60.o(.text)
    QtMobility::QSystemNetworkInfoPrivate::networkModeChanged() 0x0000bf67   Thumb Code    22  qsysteminfo_s60.o(.text)
    thunk{-8} to QtMobility::QSystemNetworkInfoPrivate::networkModeChanged() 0x0000bf7d   Thumb Code    14  qsysteminfo_s60.o(.text)
    QtMobility::QSystemNetworkInfoPrivate::cellNetworkSignalStrengthChanged() 0x0000bf8b   Thumb Code    42  qsysteminfo_s60.o(.text)
    thunk{-8} to QtMobility::QSystemNetworkInfoPrivate::cellNetworkSignalStrengthChanged() 0x0000bfb5   Thumb Code    14  qsysteminfo_s60.o(.text)
    QtMobility::QSystemNetworkInfoPrivate::cellNetworkStatusChanged() 0x0000bfc3   Thumb Code    34  qsysteminfo_s60.o(.text)
    thunk{-8} to QtMobility::QSystemNetworkInfoPrivate::cellNetworkStatusChanged() 0x0000bfe5   Thumb Code    14  qsysteminfo_s60.o(.text)
    QtMobility::QSystemDisplayInfoPrivate::getStaticMetaObject() 0x0000bff3   Thumb Code     4  qsysteminfo_s60.o(.text)
    QtMobility::QSystemDisplayInfoPrivate::metaObject() const 0x0000bff7   Thumb Code    28  qsysteminfo_s60.o(.text)
    QtMobility::QSystemDisplayInfoPrivate::qt_metacast(const char*) 0x0000c013   Thumb Code    40  qsysteminfo_s60.o(.text)
    QtMobility::QSystemDisplayInfoPrivate::qt_metacall(QMetaObject::Call, int, void**) 0x0000c03b   Thumb Code    36  qsysteminfo_s60.o(.text)
    QtMobility::QSystemDisplayInfoPrivate::QSystemDisplayInfoPrivate(QObject*) 0x0000c05f   Thumb Code    24  qsysteminfo_s60.o(.text)
    QtMobility::QSystemDisplayInfoPrivate::QSystemDisplayInfoPrivate__sub_object(QObject*) 0x0000c05f   Thumb Code     0  qsysteminfo_s60.o(.text)
    QtMobility::QSystemDisplayInfoPrivate::~QSystemDisplayInfoPrivate() 0x0000c077   Thumb Code    14  qsysteminfo_s60.o(.text)
    QtMobility::QSystemDisplayInfoPrivate::~QSystemDisplayInfoPrivate__sub_object() 0x0000c077   Thumb Code     0  qsysteminfo_s60.o(.text)
    QtMobility::QSystemDisplayInfoPrivate::~QSystemDisplayInfoPrivate__deallocating() 0x0000c085   Thumb Code    22  qsysteminfo_s60.o(.text)
    QtMobility::QSystemDisplayInfoPrivate::displayBrightness(int) 0x0000c09b   Thumb Code   108  qsysteminfo_s60.o(.text)
    QtMobility::QSystemDisplayInfoPrivate::colorDepth(int) 0x0000c107   Thumb Code   194  qsysteminfo_s60.o(.text)
    QtMobility::QSystemStorageInfoPrivate::getStaticMetaObject() 0x0000c1c9   Thumb Code     4  qsysteminfo_s60.o(.text)
    QtMobility::QSystemStorageInfoPrivate::metaObject() const 0x0000c1cd   Thumb Code    28  qsysteminfo_s60.o(.text)
    QtMobility::QSystemStorageInfoPrivate::qt_metacast(const char*) 0x0000c1e9   Thumb Code    58  qsysteminfo_s60.o(.text)
    QtMobility::QSystemStorageInfoPrivate::logicalDriveChanged(bool, const QString&) 0x0000c223   Thumb Code    38  qsysteminfo_s60.o(.text)
    QtMobility::QSystemStorageInfoPrivate::qt_metacall(QMetaObject::Call, int, void**) 0x0000c249   Thumb Code    64  qsysteminfo_s60.o(.text)
    QtMobility::QSystemStorageInfoPrivate::QSystemStorageInfoPrivate(QObject*) 0x0000c289   Thumb Code    76  qsysteminfo_s60.o(.text)
    QtMobility::QSystemStorageInfoPrivate::QSystemStorageInfoPrivate__sub_object(QObject*) 0x0000c289   Thumb Code     0  qsysteminfo_s60.o(.text)
    QtMobility::QSystemStorageInfoPrivate::~QSystemStorageInfoPrivate() 0x0000c2d5   Thumb Code    50  qsysteminfo_s60.o(.text)
    QtMobility::QSystemStorageInfoPrivate::~QSystemStorageInfoPrivate__sub_object() 0x0000c2d5   Thumb Code     0  qsysteminfo_s60.o(.text)
    QtMobility::QSystemStorageInfoPrivate::~QSystemStorageInfoPrivate__deallocating() 0x0000c307   Thumb Code    22  qsysteminfo_s60.o(.text)
    QtMobility::QSystemStorageInfoPrivate::totalDiskSpace(const QString&) 0x0000c31d   Thumb Code   112  qsysteminfo_s60.o(.text)
    QtMobility::QSystemStorageInfoPrivate::availableDiskSpace(const QString&) 0x0000c38d   Thumb Code   112  qsysteminfo_s60.o(.text)
    QtMobility::QSystemStorageInfoPrivate::logicalDrives() 0x0000c3fd   Thumb Code   298  qsysteminfo_s60.o(.text)
    QtMobility::QSystemStorageInfoPrivate::typeForDrive(const QString&) 0x0000c527   Thumb Code   190  qsysteminfo_s60.o(.text)
    QtMobility::QSystemStorageInfoPrivate::storageStatusChanged(bool, const QString&) 0x0000c5e5   Thumb Code    20  qsysteminfo_s60.o(.text)
    thunk{-8} to QtMobility::QSystemStorageInfoPrivate::storageStatusChanged(bool, const QString&) 0x0000c5f9   Thumb Code    22  qsysteminfo_s60.o(.text)
    QtMobility::QSystemDeviceInfoPrivate::getStaticMetaObject() 0x0000c60f   Thumb Code     4  qsysteminfo_s60.o(.text)
    QtMobility::QSystemDeviceInfoPrivate::metaObject() const 0x0000c613   Thumb Code    28  qsysteminfo_s60.o(.text)
    QtMobility::QSystemDeviceInfoPrivate::qt_metacast(const char*) 0x0000c62f   Thumb Code   112  qsysteminfo_s60.o(.text)
    QtMobility::QSystemDeviceInfoPrivate::powerStateChanged(QtMobility::QSystemDeviceInfo::PowerState) 0x0000c69f   Thumb Code    32  qsysteminfo_s60.o(.text)
    QtMobility::QSystemDeviceInfoPrivate::currentProfileChanged(QtMobility::QSystemDeviceInfo::Profile) 0x0000c6bf   Thumb Code    32  qsysteminfo_s60.o(.text)
    QtMobility::QSystemDeviceInfoPrivate::bluetoothStateChanged(bool) 0x0000c6df   Thumb Code    32  qsysteminfo_s60.o(.text)
    QtMobility::QSystemDeviceInfoPrivate::batteryStatusChanged(QtMobility::QSystemDeviceInfo::BatteryStatus) 0x0000c6ff   Thumb Code    32  qsysteminfo_s60.o(.text)
    QtMobility::QSystemDeviceInfoPrivate::batteryLevelChanged(int) 0x0000c71f   Thumb Code    30  qsysteminfo_s60.o(.text)
    QtMobility::QSystemDeviceInfoPrivate::qt_metacall(QMetaObject::Call, int, void**) 0x0000c73d   Thumb Code   120  qsysteminfo_s60.o(.text)
    QtMobility::QSystemDeviceInfoPrivate::QSystemDeviceInfoPrivate(QObject*) 0x0000c7b5   Thumb Code   128  qsysteminfo_s60.o(.text)
    QtMobility::QSystemDeviceInfoPrivate::QSystemDeviceInfoPrivate__sub_object(QObject*) 0x0000c7b5   Thumb Code     0  qsysteminfo_s60.o(.text)
    QtMobility::QSystemDeviceInfoPrivate::~QSystemDeviceInfoPrivate() 0x0000c835   Thumb Code   162  qsysteminfo_s60.o(.text)
    QtMobility::QSystemDeviceInfoPrivate::~QSystemDeviceInfoPrivate__sub_object() 0x0000c835   Thumb Code     0  qsysteminfo_s60.o(.text)
    QtMobility::QSystemDeviceInfoPrivate::~QSystemDeviceInfoPrivate__deallocating() 0x0000c8d7   Thumb Code    22  qsysteminfo_s60.o(.text)
    thunk{-12} to QtMobility::QSystemDeviceInfoPrivate::~QSystemDeviceInfoPrivate__deallocating() 0x0000c8ed   Thumb Code    14  qsysteminfo_s60.o(.text)
    thunk{-12} to QtMobility::QSystemDeviceInfoPrivate::~QSystemDeviceInfoPrivate() 0x0000c8fb   Thumb Code    14  qsysteminfo_s60.o(.text)
    QtMobility::QSystemDeviceInfoPrivate::inputMethodType() 0x0000c909   Thumb Code   140  qsysteminfo_s60.o(.text)
    QtMobility::QSystemDeviceInfoPrivate::imei() 0x0000c995   Thumb Code   152  qsysteminfo_s60.o(.text)
    QtMobility::QSystemDeviceInfoPrivate::simStatus() 0x0000ca2d   Thumb Code    70  qsysteminfo_s60.o(.text)
    QtMobility::QSystemDeviceInfoPrivate::imsi() 0x0000ca73   Thumb Code    44  qsysteminfo_s60.o(.text)
    QtMobility::QSystemDeviceInfoPrivate::manufacturer() 0x0000ca9f   Thumb Code    26  qsysteminfo_s60.o(.text)
    QtMobility::QSystemDeviceInfoPrivate::model() 0x0000cab9   Thumb Code    26  qsysteminfo_s60.o(.text)
    QtMobility::QSystemDeviceInfoPrivate::productName() 0x0000cad3   Thumb Code   154  qsysteminfo_s60.o(.text)
    QtMobility::QSystemDeviceInfoPrivate::batteryLevel() const 0x0000cb6d   Thumb Code    22  qsysteminfo_s60.o(.text)
    QtMobility::QSystemDeviceInfoPrivate::currentPowerState() 0x0000cb83   Thumb Code    62  qsysteminfo_s60.o(.text)
    QtMobility::QSystemDeviceInfoPrivate::batteryStatus() 0x0000cbc1   Thumb Code    90  qsysteminfo_s60.o(.text)
    QtMobility::QSystemDeviceInfoPrivate::isDeviceLocked() 0x0000cc1b   Thumb Code    60  qsysteminfo_s60.o(.text)
    QtMobility::QSystemDeviceInfoPrivate::s60ProfileIdToProfile(int) const 0x0000cc57   Thumb Code    72  qsysteminfo_s60.o(.text)
    QtMobility::QSystemDeviceInfoPrivate::currentProfile() 0x0000cc9f   Thumb Code   102  qsysteminfo_s60.o(.text)
    QtMobility::QSystemDeviceInfoPrivate::currentBluetoothPowerState() 0x0000cd05   Thumb Code   102  qsysteminfo_s60.o(.text)
    QtMobility::QSystemDeviceInfoPrivate::connectNotify(const char*) 0x0000cd6b   Thumb Code   378  qsysteminfo_s60.o(.text)
    QtMobility::QSystemDeviceInfoPrivate::HandleProfileActivatedL(int) 0x0000cee5   Thumb Code    26  qsysteminfo_s60.o(.text)
    thunk{-12} to QtMobility::QSystemDeviceInfoPrivate::HandleProfileActivatedL(int) 0x0000ceff   Thumb Code    18  qsysteminfo_s60.o(.text)
    QtMobility::QSystemDeviceInfoPrivate::HandleNotifyInt(unsigned long, int) 0x0000cf11   Thumb Code    24  qsysteminfo_s60.o(.text)
    thunk{-16} to QtMobility::QSystemDeviceInfoPrivate::HandleNotifyInt(unsigned long, int) 0x0000cf29   Thumb Code    22  qsysteminfo_s60.o(.text)
    QtMobility::QSystemDeviceInfoPrivate::batteryLevelChanged() 0x0000cf3f   Thumb Code    46  qsysteminfo_s60.o(.text)
    thunk{-8} to QtMobility::QSystemDeviceInfoPrivate::batteryLevelChanged() 0x0000cf6d   Thumb Code    14  qsysteminfo_s60.o(.text)
    QtMobility::QSystemDeviceInfoPrivate::chargingStatusChanged() 0x0000cf7b   Thumb Code    22  qsysteminfo_s60.o(.text)
    thunk{-20} to QtMobility::QSystemDeviceInfoPrivate::chargingStatusChanged() 0x0000cf91   Thumb Code    14  qsysteminfo_s60.o(.text)
    QtMobility::QSystemScreenSaverPrivate::getStaticMetaObject() 0x0000cf9f   Thumb Code     4  qsysteminfo_s60.o(.text)
    QtMobility::QSystemScreenSaverPrivate::metaObject() const 0x0000cfa3   Thumb Code    28  qsysteminfo_s60.o(.text)
    QtMobility::QSystemScreenSaverPrivate::qt_metacast(const char*) 0x0000cfbf   Thumb Code    40  qsysteminfo_s60.o(.text)
    QtMobility::QSystemScreenSaverPrivate::resetInactivityTime() 0x0000cfe7   Thumb Code    10  qsysteminfo_s60.o(.text)
    QtMobility::QSystemScreenSaverPrivate::qt_metacall(QMetaObject::Call, int, void**) 0x0000cff1   Thumb Code    58  qsysteminfo_s60.o(.text)
    QtMobility::QSystemScreenSaverPrivate::QSystemScreenSaverPrivate(QObject*) 0x0000d02b   Thumb Code    28  qsysteminfo_s60.o(.text)
    QtMobility::QSystemScreenSaverPrivate::QSystemScreenSaverPrivate__sub_object(QObject*) 0x0000d02b   Thumb Code     0  qsysteminfo_s60.o(.text)
    QtMobility::QSystemScreenSaverPrivate::screenSaverInhibited() 0x0000d047   Thumb Code     6  qsysteminfo_s60.o(.text)
    QtMobility::QSystemScreenSaverPrivate::setScreenSaverInhibit() 0x0000d04d   Thumb Code    82  qsysteminfo_s60.o(.text)
    CTelephonyInfo::CTelephonyInfo__sub_object(CTelephony&) 0x0000d0d5   Thumb Code    88  telephonyinfo_s60.o(.text)
    CTelephonyInfo::~CTelephonyInfo()        0x0000d12d   Thumb Code     0  telephonyinfo_s60.o(.text)
    CTelephonyInfo::~CTelephonyInfo__sub_object() 0x0000d12d   Thumb Code    52  telephonyinfo_s60.o(.text)
    CTelephonyInfo::~CTelephonyInfo__deallocating() 0x0000d161   Thumb Code    22  telephonyinfo_s60.o(.text)
    CTelephonyInfo::addObserver(MTelephonyInfoObserver*) 0x0000d177   Thumb Code    16  telephonyinfo_s60.o(.text)
    CTelephonyInfo::removeObserver(MTelephonyInfoObserver*) 0x0000d187   Thumb Code    16  telephonyinfo_s60.o(.text)
    CTelephonyInfo::RunL()                   0x0000d197   Thumb Code    12  telephonyinfo_s60.o(.text)
    CTelephonyInfo::makeRequest()            0x0000d1a3   Thumb Code    48  telephonyinfo_s60.o(.text)
    CPhoneInfo::CPhoneInfo(CTelephony&)      0x0000d1d3   Thumb Code   314  telephonyinfo_s60.o(.text)
    CPhoneInfo::CPhoneInfo__sub_object(CTelephony&) 0x0000d1d3   Thumb Code     0  telephonyinfo_s60.o(.text)
    CPhoneInfo::DoCancel()                   0x0000d30d   Thumb Code    14  telephonyinfo_s60.o(.text)
    CPhoneInfo::imei() const                 0x0000d31b   Thumb Code    22  telephonyinfo_s60.o(.text)
    CPhoneInfo::manufacturer() const         0x0000d331   Thumb Code    22  telephonyinfo_s60.o(.text)
    CPhoneInfo::model() const                0x0000d347   Thumb Code    22  telephonyinfo_s60.o(.text)
    CSubscriberInfo::CSubscriberInfo(CTelephony&) 0x0000d35d   Thumb Code   152  telephonyinfo_s60.o(.text)
    CSubscriberInfo::CSubscriberInfo__sub_object(CTelephony&) 0x0000d35d   Thumb Code     0  telephonyinfo_s60.o(.text)
    CSubscriberInfo::DoCancel()              0x0000d3f5   Thumb Code    14  telephonyinfo_s60.o(.text)
    CSubscriberInfo::imsi() const            0x0000d403   Thumb Code    20  telephonyinfo_s60.o(.text)
    CBatteryInfo::startMonitoring()          0x0000d417   Thumb Code    44  telephonyinfo_s60.o(.text)
    CBatteryInfo::CBatteryInfo(CTelephony&)  0x0000d443   Thumb Code   122  telephonyinfo_s60.o(.text)
    CBatteryInfo::CBatteryInfo__sub_object(CTelephony&) 0x0000d443   Thumb Code     0  telephonyinfo_s60.o(.text)
    CBatteryInfo::RunL()                     0x0000d4bd   Thumb Code   154  telephonyinfo_s60.o(.text)
    CBatteryInfo::DoCancel()                 0x0000d557   Thumb Code    32  telephonyinfo_s60.o(.text)
    CBatteryInfo::batteryLevel() const       0x0000d577   Thumb Code     6  telephonyinfo_s60.o(.text)
    CCellNetworkInfo::startMonitoring()      0x0000d57d   Thumb Code    30  telephonyinfo_s60.o(.text)
    CCellNetworkInfo::CCellNetworkInfo(CTelephony&) 0x0000d59b   Thumb Code   516  telephonyinfo_s60.o(.text)
    CCellNetworkInfo::CCellNetworkInfo__sub_object(CTelephony&) 0x0000d59b   Thumb Code     0  telephonyinfo_s60.o(.text)
    CCellNetworkInfo::RunL()                 0x0000d79f   Thumb Code   574  telephonyinfo_s60.o(.text)
    CCellNetworkInfo::DoCancel()             0x0000d9dd   Thumb Code    32  telephonyinfo_s60.o(.text)
    CCellNetworkInfo::cellId() const         0x0000d9fd   Thumb Code    10  telephonyinfo_s60.o(.text)
    CCellNetworkInfo::locationAreaCode() const 0x0000da07   Thumb Code    10  telephonyinfo_s60.o(.text)
    CCellNetworkInfo::countryCode() const    0x0000da11   Thumb Code    22  telephonyinfo_s60.o(.text)
    CCellNetworkInfo::networkCode() const    0x0000da27   Thumb Code    22  telephonyinfo_s60.o(.text)
    CCellNetworkInfo::networkName() const    0x0000da3d   Thumb Code    22  telephonyinfo_s60.o(.text)
    CCellNetworkInfo::homeNetworkCode()      0x0000da53   Thumb Code   300  telephonyinfo_s60.o(.text)
    CCellNetworkInfo::networkMode() const    0x0000db7f   Thumb Code    10  telephonyinfo_s60.o(.text)
    CCellNetworkRegistrationInfo::startMonitoring() 0x0000db89   Thumb Code    30  telephonyinfo_s60.o(.text)
    CCellNetworkRegistrationInfo::CCellNetworkRegistrationInfo(CTelephony&) 0x0000dba7   Thumb Code   106  telephonyinfo_s60.o(.text)
    CCellNetworkRegistrationInfo::CCellNetworkRegistrationInfo__sub_object(CTelephony&) 0x0000dba7   Thumb Code     0  telephonyinfo_s60.o(.text)
    CCellNetworkRegistrationInfo::RunL()     0x0000dc11   Thumb Code   174  telephonyinfo_s60.o(.text)
    CCellNetworkRegistrationInfo::DoCancel() 0x0000dcbf   Thumb Code    32  telephonyinfo_s60.o(.text)
    CCellNetworkRegistrationInfo::cellNetworkStatus() const 0x0000dcdf   Thumb Code     6  telephonyinfo_s60.o(.text)
    CCellSignalStrengthInfo::startMonitoring() 0x0000dce5   Thumb Code    30  telephonyinfo_s60.o(.text)
    CCellSignalStrengthInfo::CCellSignalStrengthInfo(CTelephony&) 0x0000dd03   Thumb Code   116  telephonyinfo_s60.o(.text)
    CCellSignalStrengthInfo::CCellSignalStrengthInfo__sub_object(CTelephony&) 0x0000dd03   Thumb Code     0  telephonyinfo_s60.o(.text)
    CCellSignalStrengthInfo::RunL()          0x0000dd77   Thumb Code   186  telephonyinfo_s60.o(.text)
    CCellSignalStrengthInfo::DoCancel()      0x0000de31   Thumb Code    32  telephonyinfo_s60.o(.text)
    CCellSignalStrengthInfo::cellNetworkSignalStrength() const 0x0000de51   Thumb Code    66  telephonyinfo_s60.o(.text)
    CChargingStatus::startMonitoring()       0x0000dead   Thumb Code    22  chargingstatus_s60.o(.text)
    CChargingStatus::CChargingStatus()       0x0000dec3   Thumb Code   110  chargingstatus_s60.o(.text)
    CChargingStatus::CChargingStatus__sub_object() 0x0000dec3   Thumb Code     0  chargingstatus_s60.o(.text)
    CChargingStatus::~CChargingStatus()      0x0000df31   Thumb Code    44  chargingstatus_s60.o(.text)
    CChargingStatus::~CChargingStatus__sub_object() 0x0000df31   Thumb Code     0  chargingstatus_s60.o(.text)
    CChargingStatus::~CChargingStatus__deallocating() 0x0000df5d   Thumb Code    22  chargingstatus_s60.o(.text)
    CChargingStatus::chargingStatus() const  0x0000df73   Thumb Code     6  chargingstatus_s60.o(.text)
    CChargingStatus::addObserver(MChargingStatusObserver*) 0x0000df79   Thumb Code    16  chargingstatus_s60.o(.text)
    CChargingStatus::removeObserver(MChargingStatusObserver*) 0x0000df89   Thumb Code    16  chargingstatus_s60.o(.text)
    CChargingStatus::DoCancel()              0x0000df99   Thumb Code    14  chargingstatus_s60.o(.text)
    CChargingStatus::RunL()                  0x0000dfa7   Thumb Code   286  chargingstatus_s60.o(.text)
    CWlanInfo::CWlanInfo(QObject*)           0x0000e0d1   Thumb Code   208  wlaninfo_s60.o(.text)
    CWlanInfo::CWlanInfo__sub_object(QObject*) 0x0000e0d1   Thumb Code     0  wlaninfo_s60.o(.text)
    CWlanInfo::~CWlanInfo()                  0x0000e1a1   Thumb Code    34  wlaninfo_s60.o(.text)
    CWlanInfo::~CWlanInfo__sub_object()      0x0000e1a1   Thumb Code     0  wlaninfo_s60.o(.text)
    CWlanInfo::~CWlanInfo__deallocating()    0x0000e1c3   Thumb Code    22  wlaninfo_s60.o(.text)
    CWlanInfo::wlanNetworkName() const       0x0000e1d9   Thumb Code    26  wlaninfo_s60.o(.text)
    CWlanInfo::wlanNetworkSignalStrength() const 0x0000e1f3   Thumb Code     6  wlaninfo_s60.o(.text)
    CWlanInfo::wlanNetworkConnectionStatus() const 0x0000e1f9   Thumb Code     6  wlaninfo_s60.o(.text)
    CWlanInfo::FreeResources()               0x0000e1ff   Thumb Code    38  wlaninfo_s60.o(.text)
    CWlanInfo::stopPolling()                 0x0000e225   Thumb Code    78  wlaninfo_s60.o(.text)
    CWlanInfo::checkWlanInfo()               0x0000e273   Thumb Code    94  wlaninfo_s60.o(.text)
    CWlanInfo::ConnectionStateChanged(TWlanConnectionMode) 0x0000e2d1   Thumb Code   220  wlaninfo_s60.o(.text)
    thunk{-8} to CWlanInfo::ConnectionStateChanged(TWlanConnectionMode) 0x0000e3ad   Thumb Code    18  wlaninfo_s60.o(.text)
    CMMCStorageStatus::startMonitoring()     0x0000e3f5   Thumb Code    24  storagestatus_s60.o(.text)
    CMMCStorageStatus::PopulateDriveList()   0x0000e40d   Thumb Code   182  storagestatus_s60.o(.text)
    CMMCStorageStatus::CMMCStorageStatus()   0x0000e4c3   Thumb Code   146  storagestatus_s60.o(.text)
    CMMCStorageStatus::CMMCStorageStatus__sub_object() 0x0000e4c3   Thumb Code     0  storagestatus_s60.o(.text)
    CMMCStorageStatus::~CMMCStorageStatus()  0x0000e555   Thumb Code    44  storagestatus_s60.o(.text)
    CMMCStorageStatus::~CMMCStorageStatus__sub_object() 0x0000e555   Thumb Code     0  storagestatus_s60.o(.text)
    CMMCStorageStatus::~CMMCStorageStatus__deallocating() 0x0000e581   Thumb Code    22  storagestatus_s60.o(.text)
    CMMCStorageStatus::addObserver(MStorageStatusObserver*) 0x0000e597   Thumb Code    16  storagestatus_s60.o(.text)
    CMMCStorageStatus::removeObserver(MStorageStatusObserver*) 0x0000e5a7   Thumb Code    16  storagestatus_s60.o(.text)
    CMMCStorageStatus::DoCancel()            0x0000e5b7   Thumb Code    14  storagestatus_s60.o(.text)
    CMMCStorageStatus::CompareDriveLists(const TBuf8<(int)26>&) 0x0000e5c5   Thumb Code   544  storagestatus_s60.o(.text)
    CMMCStorageStatus::RunL()                0x0000e7e5   Thumb Code    32  storagestatus_s60.o(.text)
    __ARM_switch8                            0x0000e804   ARM Code      24  switch8.o(.text)
    __rt_switch8                             0x0000e804   ARM Code       0  switch8.o(.text)
    _E32Dll_Body                             0x0000e81c   ARM Code      76  uc_dll.o(.text)
    __aeabi_atexit                           0x0000e86c   ARM Code      40  ucppfini.o(.text)
    __cxa_atexit                             0x0000e894   ARM Code      64  ucppfini.o(.text)
    __cxa_finalize                           0x0000e8d4   ARM Code      48  ucppfini.o(.text)
    run_static_dtors                         0x0000e904   ARM Code      16  ucppfini.o(.text)
    __DLL_Export_Table__                     0x0000e920   ARM Code       4  dllexp.o(.text)
    CPhoneInfo::~CPhoneInfo__deallocating()  0x0000efc5   Thumb Code    22  telephonyinfo_s60.o(i._ZN10CPhoneInfoD0Ev)
    CPhoneInfo::~CPhoneInfo()                0x0000efdd   Thumb Code    66  telephonyinfo_s60.o(i._ZN10CPhoneInfoD1Ev)
    CPhoneInfo::~CPhoneInfo__sub_object()    0x0000efdd   Thumb Code     0  telephonyinfo_s60.o(i._ZN10CPhoneInfoD1Ev)
    QByteArray::~QByteArray()                0x0000f04f   Thumb Code    24  qsystemgeneralinfo.o(i._ZN10QByteArrayD1Ev)
    QByteArray::~QByteArray__sub_object()    0x0000f04f   Thumb Code     0  qsystemgeneralinfo.o(i._ZN10QByteArrayD1Ev)
    QtMobility::DeviceInfo::batteryInfo()    0x0000f067   Thumb Code    50  qsysteminfo_s60.o(i._ZN10QtMobility10DeviceInfo11batteryInfoEv)
    QtMobility::DeviceInfo::chargingStatus() 0x0000f0a7   Thumb Code    48  qsysteminfo_s60.o(i._ZN10QtMobility10DeviceInfo14chargingStatusEv)
    QtMobility::DeviceInfo::subscriberInfo() 0x0000f0e5   Thumb Code    50  qsysteminfo_s60.o(i._ZN10QtMobility10DeviceInfo14subscriberInfoEv)
    QtMobility::DeviceInfo::cellNetworkInfo() 0x0000f125   Thumb Code    52  qsysteminfo_s60.o(i._ZN10QtMobility10DeviceInfo15cellNetworkInfoEv)
    QtMobility::DeviceInfo::mmcStorageStatus() 0x0000f167   Thumb Code    48  qsysteminfo_s60.o(i._ZN10QtMobility10DeviceInfo16mmcStorageStatusEv)
    QtMobility::DeviceInfo::cellSignalStrenghtInfo() 0x0000f1a5   Thumb Code    50  qsysteminfo_s60.o(i._ZN10QtMobility10DeviceInfo22cellSignalStrenghtInfoEv)
    QtMobility::DeviceInfo::cellNetworkRegistrationInfo() 0x0000f1e5   Thumb Code    50  qsysteminfo_s60.o(i._ZN10QtMobility10DeviceInfo27cellNetworkRegistrationInfoEv)
    QtMobility::DeviceInfo::instance()       0x0000f225   Thumb Code    64  qsysteminfo_s60.o(i._ZN10QtMobility10DeviceInfo8instanceEv)
    QtMobility::DeviceInfo::wlanInfo()       0x0000f277   Thumb Code    42  qsysteminfo_s60.o(i._ZN10QtMobility10DeviceInfo8wlanInfoEv)
    QtMobility::DeviceInfo::phoneInfo()      0x0000f2af   Thumb Code    52  qsysteminfo_s60.o(i._ZN10QtMobility10DeviceInfo9phoneInfoEv)
    QtMobility::QSystemDeviceInfoPrivate::countryCodeChanged() 0x0000f2f1   Thumb Code     2  qsysteminfo_s60.o(i._ZN10QtMobility24QSystemDeviceInfoPrivate18countryCodeChangedEv)
    QtMobility::QSystemDeviceInfoPrivate::networkCodeChanged() 0x0000f2f3   Thumb Code     2  qsysteminfo_s60.o(i._ZN10QtMobility24QSystemDeviceInfoPrivate18networkCodeChangedEv)
    QtMobility::QSystemDeviceInfoPrivate::networkModeChanged() 0x0000f2f5   Thumb Code     2  qsysteminfo_s60.o(i._ZN10QtMobility24QSystemDeviceInfoPrivate18networkModeChangedEv)
    QtMobility::QSystemDeviceInfoPrivate::networkNameChanged() 0x0000f2f7   Thumb Code     2  qsysteminfo_s60.o(i._ZN10QtMobility24QSystemDeviceInfoPrivate18networkNameChangedEv)
    QtMobility::QSystemDeviceInfoPrivate::cellNetworkStatusChanged() 0x0000f2f9   Thumb Code     2  qsysteminfo_s60.o(i._ZN10QtMobility24QSystemDeviceInfoPrivate24cellNetworkStatusChangedEv)
    QtMobility::QSystemDeviceInfoPrivate::cellNetworkSignalStrengthChanged() 0x0000f2fb   Thumb Code     2  qsysteminfo_s60.o(i._ZN10QtMobility24QSystemDeviceInfoPrivate32cellNetworkSignalStrengthChangedEv)
    QtMobility::QSystemNetworkInfoPrivate::batteryLevelChanged() 0x0000f2fd   Thumb Code     2  qsysteminfo_s60.o(i._ZN10QtMobility25QSystemNetworkInfoPrivate19batteryLevelChangedEv)
    QtMobility::QSystemScreenSaverPrivate::~QSystemScreenSaverPrivate__deallocating() 0x0000f2ff   Thumb Code    24  qsysteminfo_s60.o(i._ZN10QtMobility25QSystemScreenSaverPrivateD0Ev)
    QtMobility::QSystemScreenSaverPrivate::~QSystemScreenSaverPrivate() 0x0000f317   Thumb Code    14  qsysteminfo_s60.o(i._ZN10QtMobility25QSystemScreenSaverPrivateD1Ev)
    QtMobility::QSystemScreenSaverPrivate::~QSystemScreenSaverPrivate__sub_object() 0x0000f317   Thumb Code     0  qsysteminfo_s60.o(i._ZN10QtMobility25QSystemScreenSaverPrivateD1Ev)
    QStringList::QStringList()               0x0000f325   Thumb Code    14  qsysteminfo_s60.o(i._ZN11QStringListC1Ev)
    QStringList::QStringList__sub_object()   0x0000f325   Thumb Code     0  qsysteminfo_s60.o(i._ZN11QStringListC1Ev)
    QStringList::~QStringList()              0x0000f333   Thumb Code    14  qsystemgeneralinfo.o(i._ZN11QStringListD1Ev)
    QStringList::~QStringList__sub_object()  0x0000f333   Thumb Code     0  qsystemgeneralinfo.o(i._ZN11QStringListD1Ev)
    CBatteryInfo::~CBatteryInfo__deallocating() 0x0000f341   Thumb Code    24  telephonyinfo_s60.o(i._ZN12CBatteryInfoD0Ev)
    CBatteryInfo::~CBatteryInfo()            0x0000f359   Thumb Code    14  telephonyinfo_s60.o(i._ZN12CBatteryInfoD1Ev)
    CBatteryInfo::~CBatteryInfo__sub_object() 0x0000f359   Thumb Code     0  telephonyinfo_s60.o(i._ZN12CBatteryInfoD1Ev)
    CleanupStack::PopAndDestroy(void*)       0x0000f367   Thumb Code    16  qsysteminfo_s60.o(i._ZN12CleanupStack13PopAndDestroyEPv)
    CleanupStack::PopAndDestroy(int, void*)  0x0000f377   Thumb Code    30  qsysteminfo_s60.o(i._ZN12CleanupStack13PopAndDestroyEiPv)
    CWlanScanInfo::~CWlanScanInfo__deallocating() 0x0000f395   Thumb Code    22  moc_wlaninfo_s60.o(i._ZN13CWlanScanInfoD0Ev)
    CWlanScanInfo::~CWlanScanInfo()          0x0000f3ad   Thumb Code     0  moc_wlaninfo_s60.o(i._ZN13CWlanScanInfoD2Ev)
    CWlanScanInfo::~CWlanScanInfo__sub_object() 0x0000f3ad   Thumb Code    32  moc_wlaninfo_s60.o(i._ZN13CWlanScanInfoD2Ev)
    CSubscriberInfo::~CSubscriberInfo__deallocating() 0x0000f3db   Thumb Code    22  telephonyinfo_s60.o(i._ZN15CSubscriberInfoD0Ev)
    CSubscriberInfo::~CSubscriberInfo()      0x0000f3f1   Thumb Code    30  telephonyinfo_s60.o(i._ZN15CSubscriberInfoD1Ev)
    CSubscriberInfo::~CSubscriberInfo__sub_object() 0x0000f3f1   Thumb Code     0  telephonyinfo_s60.o(i._ZN15CSubscriberInfoD1Ev)
    CWlanMgmtClient::~CWlanMgmtClient__deallocating() 0x0000f41f   Thumb Code    22  moc_wlaninfo_s60.o(i._ZN15CWlanMgmtClientD0Ev)
    CWlanMgmtClient::~CWlanMgmtClient()      0x0000f435   Thumb Code     0  moc_wlaninfo_s60.o(i._ZN15CWlanMgmtClientD2Ev)
    CWlanMgmtClient::~CWlanMgmtClient__sub_object() 0x0000f435   Thumb Code    28  moc_wlaninfo_s60.o(i._ZN15CWlanMgmtClientD2Ev)
    QBasicAtomicInt::ref()                   0x0000f45f   Thumb Code    24  qsystemgeneralinfo.o(i._ZN15QBasicAtomicInt3refEv)
    QBasicAtomicInt::deref()                 0x0000f477   Thumb Code    24  qsystemgeneralinfo.o(i._ZN15QBasicAtomicInt5derefEv)
    CCellNetworkInfo::~CCellNetworkInfo__deallocating() 0x0000f48f   Thumb Code    22  telephonyinfo_s60.o(i._ZN16CCellNetworkInfoD0Ev)
    CCellNetworkInfo::~CCellNetworkInfo()    0x0000f4a5   Thumb Code   114  telephonyinfo_s60.o(i._ZN16CCellNetworkInfoD1Ev)
    CCellNetworkInfo::~CCellNetworkInfo__sub_object() 0x0000f4a5   Thumb Code     0  telephonyinfo_s60.o(i._ZN16CCellNetworkInfoD1Ev)
    QForeachContainer<QList<MStorageStatusObserver*>>::~QForeachContainer() 0x0000f577   Thumb Code    14  storagestatus_s60.o(i._ZN17QForeachContainerI5QListIP22MStorageStatusObserverEED1Ev)
    QForeachContainer<QList<MStorageStatusObserver*>>::~QForeachContainer__sub_object() 0x0000f577   Thumb Code     0  storagestatus_s60.o(i._ZN17QForeachContainerI5QListIP22MStorageStatusObserverEED1Ev)
    QForeachContainer<QList<MTelephonyInfoObserver*>>::~QForeachContainer() 0x0000f585   Thumb Code    14  telephonyinfo_s60.o(i._ZN17QForeachContainerI5QListIP22MTelephonyInfoObserverEED1Ev)
    QForeachContainer<QList<MTelephonyInfoObserver*>>::~QForeachContainer__sub_object() 0x0000f585   Thumb Code     0  telephonyinfo_s60.o(i._ZN17QForeachContainerI5QListIP22MTelephonyInfoObserverEED1Ev)
    QForeachContainer<QList<MChargingStatusObserver*>>::~QForeachContainer() 0x0000f593   Thumb Code    14  chargingstatus_s60.o(i._ZN17QForeachContainerI5QListIP23MChargingStatusObserverEED1Ev)
    QForeachContainer<QList<MChargingStatusObserver*>>::~QForeachContainer__sub_object() 0x0000f593   Thumb Code     0  chargingstatus_s60.o(i._ZN17QForeachContainerI5QListIP23MChargingStatusObserverEED1Ev)
    MWlanMgmtNotifications::RssChanged(TWlanRssClass, unsigned) 0x0000f5a1   Thumb Code     2  wlaninfo_s60.o(i._ZN22MWlanMgmtNotifications10RssChangedE13TWlanRssClassj)
    MWlanMgmtNotifications::BssRegained()    0x0000f5a3   Thumb Code     2  wlaninfo_s60.o(i._ZN22MWlanMgmtNotifications11BssRegainedEv)
    MWlanMgmtNotifications::BssidChanged(TBuf8<(int)6>&) 0x0000f5a5   Thumb Code     2  wlaninfo_s60.o(i._ZN22MWlanMgmtNotifications12BssidChangedER5TBuf8ILi6EE)
    MWlanMgmtNotifications::OldNetworksLost() 0x0000f5a7   Thumb Code     2  wlaninfo_s60.o(i._ZN22MWlanMgmtNotifications15OldNetworksLostEv)
    MWlanMgmtNotifications::NewNetworksDetected() 0x0000f5a9   Thumb Code     2  wlaninfo_s60.o(i._ZN22MWlanMgmtNotifications19NewNetworksDetectedEv)
    MWlanMgmtNotifications::TransmitPowerChanged(unsigned) 0x0000f5ab   Thumb Code     2  wlaninfo_s60.o(i._ZN22MWlanMgmtNotifications20TransmitPowerChangedEj)
    MWlanMgmtNotifications::ConnectionStateChanged(TWlanConnectionMode) 0x0000f5ad   Thumb Code     2  wlaninfo_s60.o(i._ZN22MWlanMgmtNotifications22ConnectionStateChangedE19TWlanConnectionMode)
    MWlanMgmtNotifications::TrafficStreamStatusChanged(unsigned, TWlanTrafficStreamStatus) 0x0000f5af   Thumb Code     2  moc_wlaninfo_s60.o(i._ZN22MWlanMgmtNotifications26TrafficStreamStatusChangedEj24TWlanTrafficStreamStatus)
    MWlanMgmtNotifications::BssLost()        0x0000f5b1   Thumb Code     2  wlaninfo_s60.o(i._ZN22MWlanMgmtNotifications7BssLostEv)
    CCellSignalStrengthInfo::~CCellSignalStrengthInfo__deallocating() 0x0000f5b3   Thumb Code    24  telephonyinfo_s60.o(i._ZN23CCellSignalStrengthInfoD0Ev)
    CCellSignalStrengthInfo::~CCellSignalStrengthInfo() 0x0000f5cb   Thumb Code    14  telephonyinfo_s60.o(i._ZN23CCellSignalStrengthInfoD1Ev)
    CCellSignalStrengthInfo::~CCellSignalStrengthInfo__sub_object() 0x0000f5cb   Thumb Code     0  telephonyinfo_s60.o(i._ZN23CCellSignalStrengthInfoD1Ev)
    CCellNetworkRegistrationInfo::~CCellNetworkRegistrationInfo__deallocating() 0x0000f5d9   Thumb Code    24  telephonyinfo_s60.o(i._ZN28CCellNetworkRegistrationInfoD0Ev)
    CCellNetworkRegistrationInfo::~CCellNetworkRegistrationInfo() 0x0000f5f1   Thumb Code    14  telephonyinfo_s60.o(i._ZN28CCellNetworkRegistrationInfoD1Ev)
    CCellNetworkRegistrationInfo::~CCellNetworkRegistrationInfo__sub_object() 0x0000f5f1   Thumb Code     0  telephonyinfo_s60.o(i._ZN28CCellNetworkRegistrationInfoD1Ev)
    MProEngProfileActivationObserver::HandleProfileActivationNotificationError(int) 0x0000f5ff   Thumb Code     2  qsysteminfo_s60.o(i._ZN32MProEngProfileActivationObserver40HandleProfileActivationNotificationErrorEi)
    MProEngProfileActivationObserver::Extension() 0x0000f601   Thumb Code     6  qsysteminfo_s60.o(i._ZN32MProEngProfileActivationObserver9ExtensionEv)
    MProEngProfileActivationObserver::~MProEngProfileActivationObserver__deallocating() 0x0000f607   Thumb Code    18  qsysteminfo_s60.o(i._ZN32MProEngProfileActivationObserverD0Ev)
    MProEngProfileActivationObserver::~MProEngProfileActivationObserver() 0x0000f619   Thumb Code     0  qsysteminfo_s60.o(i._ZN32MProEngProfileActivationObserverD2Ev)
    MProEngProfileActivationObserver::~MProEngProfileActivationObserver__sub_object() 0x0000f619   Thumb Code     2  qsysteminfo_s60.o(i._ZN32MProEngProfileActivationObserverD2Ev)
    CBase::operator new(unsigned)            0x0000f61b   Thumb Code    16  qsysteminfo_s60.o(i._ZN5CBasenwEj)
    TDes8::operator [](int)                  0x0000f62b   Thumb Code    16  storagestatus_s60.o(i._ZN5TDes8ixEi)
    QString::QString(const char*)            0x0000f63b   Thumb Code    22  qsysteminfo_s60.o(i._ZN7QStringC1EPKc)
    QString::QString__sub_object(const char*) 0x0000f63b   Thumb Code     0  qsysteminfo_s60.o(i._ZN7QStringC1EPKc)
    QString::QString(const QByteArray&)      0x0000f651   Thumb Code    70  qsysteminfo_s60.o(i._ZN7QStringC1ERK10QByteArray)
    QString::QString__sub_object(const QByteArray&) 0x0000f651   Thumb Code     0  qsysteminfo_s60.o(i._ZN7QStringC1ERK10QByteArray)
    QString::QString(const QString&)         0x0000f697   Thumb Code    22  qsystemgeneralinfo.o(i._ZN7QStringC1ERKS_)
    QString::QString__sub_object(const QString&) 0x0000f697   Thumb Code     0  qsystemgeneralinfo.o(i._ZN7QStringC1ERKS_)
    QString::QString()                       0x0000f6ad   Thumb Code    18  qsysteminfo_s60.o(i._ZN7QStringC1Ev)
    QString::QString__sub_object()           0x0000f6ad   Thumb Code     0  qsysteminfo_s60.o(i._ZN7QStringC1Ev)
    QString::~QString()                      0x0000f6c5   Thumb Code    24  qsystemgeneralinfo.o(i._ZN7QStringD1Ev)
    QString::~QString__sub_object()          0x0000f6c5   Thumb Code     0  qsystemgeneralinfo.o(i._ZN7QStringD1Ev)
    QString::operator =(char)                0x0000f6dd   Thumb Code    24  storagestatus_s60.o(i._ZN7QStringaSEc)
    CWlanInfo::RssChanged(TWlanRssClass, unsigned) 0x0000f6f5   Thumb Code     2  moc_wlaninfo_s60.o(i._ZN9CWlanInfo10RssChangedE13TWlanRssClassj)
    CWlanInfo::BssRegained()                 0x0000f6f7   Thumb Code     2  moc_wlaninfo_s60.o(i._ZN9CWlanInfo11BssRegainedEv)
    CWlanInfo::BssidChanged(TBuf8<(int)6>&)  0x0000f6f9   Thumb Code     2  moc_wlaninfo_s60.o(i._ZN9CWlanInfo12BssidChangedER5TBuf8ILi6EE)
    CWlanInfo::OldNetworksLost()             0x0000f6fb   Thumb Code     2  moc_wlaninfo_s60.o(i._ZN9CWlanInfo15OldNetworksLostEv)
    CWlanInfo::NewNetworksDetected()         0x0000f6fd   Thumb Code     2  moc_wlaninfo_s60.o(i._ZN9CWlanInfo19NewNetworksDetectedEv)
    CWlanInfo::TransmitPowerChanged(unsigned) 0x0000f6ff   Thumb Code     2  moc_wlaninfo_s60.o(i._ZN9CWlanInfo20TransmitPowerChangedEj)
    CWlanInfo::BssLost()                     0x0000f701   Thumb Code     2  moc_wlaninfo_s60.o(i._ZN9CWlanInfo7BssLostEv)
    QLatin1String::operator ==(const char*) const 0x0000f703   Thumb Code    40  qsysteminfo_s60.o(i._ZNK13QLatin1StringeqEPKc)
    QDesktopWidget::screenCount() const      0x0000f735   Thumb Code    12  qsystemdisplayinfo.o(i._ZNK14QDesktopWidget11screenCountEv)
    QBasicAtomicInt::operator !=(int) const  0x0000f741   Thumb Code    16  qsysteminfo_s60.o(i._ZNK15QBasicAtomicIntneEi)
    TDes8::operator [](int) const            0x0000f751   Thumb Code    16  storagestatus_s60.o(i._ZNK5TDes8ixEi)
    QString::operator !=(const QString&) const 0x0000f761   Thumb Code    20  telephonyinfo_s60.o(i._ZNK7QStringneERKS_)
    QListData::at(int) const                 0x0000f775   Thumb Code    20  qsysteminfo_s60.o(i._ZNK9QListData2atEi)
    QListData::end() const                   0x0000f789   Thumb Code    16  qsysteminfo_s60.o(i._ZNK9QListData3endEv)
    QListData::begin() const                 0x0000f799   Thumb Code    16  qsystemgeneralinfo.o(i._ZNK9QListData5beginEv)
    thunk{-8} to QtMobility::QSystemDeviceInfoPrivate::countryCodeChanged() 0x0000f7a9   Thumb Code     4  qsysteminfo_s60.o(i._ZThn8_N10QtMobility24QSystemDeviceInfoPrivate18countryCodeChangedEv)
    thunk{-8} to QtMobility::QSystemDeviceInfoPrivate::networkCodeChanged() 0x0000f7ad   Thumb Code     4  qsysteminfo_s60.o(i._ZThn8_N10QtMobility24QSystemDeviceInfoPrivate18networkCodeChangedEv)
    thunk{-8} to QtMobility::QSystemDeviceInfoPrivate::networkModeChanged() 0x0000f7b1   Thumb Code     4  qsysteminfo_s60.o(i._ZThn8_N10QtMobility24QSystemDeviceInfoPrivate18networkModeChangedEv)
    thunk{-8} to QtMobility::QSystemDeviceInfoPrivate::networkNameChanged() 0x0000f7b5   Thumb Code     4  qsysteminfo_s60.o(i._ZThn8_N10QtMobility24QSystemDeviceInfoPrivate18networkNameChangedEv)
    thunk{-8} to QtMobility::QSystemDeviceInfoPrivate::cellNetworkStatusChanged() 0x0000f7b9   Thumb Code     4  qsysteminfo_s60.o(i._ZThn8_N10QtMobility24QSystemDeviceInfoPrivate24cellNetworkStatusChangedEv)
    thunk{-8} to QtMobility::QSystemDeviceInfoPrivate::cellNetworkSignalStrengthChanged() 0x0000f7bd   Thumb Code     4  qsysteminfo_s60.o(i._ZThn8_N10QtMobility24QSystemDeviceInfoPrivate32cellNetworkSignalStrengthChangedEv)
    thunk{-8} to QtMobility::QSystemNetworkInfoPrivate::batteryLevelChanged() 0x0000f7c1   Thumb Code     4  qsysteminfo_s60.o(i._ZThn8_N10QtMobility25QSystemNetworkInfoPrivate19batteryLevelChangedEv)
    thunk{-8} to CWlanInfo::RssChanged(TWlanRssClass, unsigned) 0x0000f7c5   Thumb Code     4  moc_wlaninfo_s60.o(i._ZThn8_N9CWlanInfo10RssChangedE13TWlanRssClassj)
    thunk{-8} to CWlanInfo::BssRegained()    0x0000f7c9   Thumb Code     4  moc_wlaninfo_s60.o(i._ZThn8_N9CWlanInfo11BssRegainedEv)
    thunk{-8} to CWlanInfo::BssidChanged(TBuf8<(int)6>&) 0x0000f7cd   Thumb Code     4  moc_wlaninfo_s60.o(i._ZThn8_N9CWlanInfo12BssidChangedER5TBuf8ILi6EE)
    thunk{-8} to CWlanInfo::OldNetworksLost() 0x0000f7d1   Thumb Code     4  moc_wlaninfo_s60.o(i._ZThn8_N9CWlanInfo15OldNetworksLostEv)
    thunk{-8} to CWlanInfo::NewNetworksDetected() 0x0000f7d5   Thumb Code     4  moc_wlaninfo_s60.o(i._ZThn8_N9CWlanInfo19NewNetworksDetectedEv)
    thunk{-8} to CWlanInfo::TransmitPowerChanged(unsigned) 0x0000f7d9   Thumb Code     4  moc_wlaninfo_s60.o(i._ZThn8_N9CWlanInfo20TransmitPowerChangedEj)
    thunk{-8} to CWlanInfo::BssLost()        0x0000f7dd   Thumb Code     4  moc_wlaninfo_s60.o(i._ZThn8_N9CWlanInfo7BssLostEv)
    operator delete (void*, void*)           0x0000f7e1   Thumb Code     2  qsystemgeneralinfo.o(i._ZdlPvS_)
    operator ==(const QLatin1String&, const QLatin1String&) 0x0000f7e3   Thumb Code    34  qsystemgeneralinfo.o(i._ZeqRK13QLatin1StringS1_)
    operator new(unsigned, void*)            0x0000f805   Thumb Code     6  qsystemgeneralinfo.o(i._ZnwjPv)
    qRegisterMetaType<QFlags<QtMobility::QSystemDeviceInfo::InputMethod>>(const char*, T1*) 0x0000f80d   Thumb Code    56  qsystemdeviceinfo.o(t._Z17qRegisterMetaTypeI6QFlagsIN10QtMobility17QSystemDeviceInfo11InputMethodEEEiPKcPT_)
    qRegisterMetaType<QtMobility::QSystemInfo::Feature>(const char*, T1*) 0x0000f84d   Thumb Code    56  qsystemgeneralinfo.o(t._Z17qRegisterMetaTypeIN10QtMobility11QSystemInfo7FeatureEEiPKcPT_)
    qRegisterMetaType<QtMobility::QSystemInfo::Version>(const char*, T1*) 0x0000f88d   Thumb Code    56  qsystemgeneralinfo.o(t._Z17qRegisterMetaTypeIN10QtMobility11QSystemInfo7VersionEEiPKcPT_)
    qRegisterMetaType<QtMobility::QSystemDeviceInfo::PowerState>(const char*, T1*) 0x0000f8cd   Thumb Code    56  qsystemdeviceinfo.o(t._Z17qRegisterMetaTypeIN10QtMobility17QSystemDeviceInfo10PowerStateEEiPKcPT_)
    qRegisterMetaType<QtMobility::QSystemDeviceInfo::BatteryStatus>(const char*, T1*) 0x0000f90d   Thumb Code    56  qsystemdeviceinfo.o(t._Z17qRegisterMetaTypeIN10QtMobility17QSystemDeviceInfo13BatteryStatusEEiPKcPT_)
    qRegisterMetaType<QtMobility::QSystemDeviceInfo::Profile>(const char*, T1*) 0x0000f94d   Thumb Code    56  qsystemdeviceinfo.o(t._Z17qRegisterMetaTypeIN10QtMobility17QSystemDeviceInfo7ProfileEEiPKcPT_)
    qRegisterMetaType<QtMobility::QSystemDeviceInfo::SimStatus>(const char*, T1*) 0x0000f98d   Thumb Code    56  qsystemdeviceinfo.o(t._Z17qRegisterMetaTypeIN10QtMobility17QSystemDeviceInfo9SimStatusEEiPKcPT_)
    qRegisterMetaType<QtMobility::QSystemNetworkInfo::NetworkMode>(const char*, T1*) 0x0000f9cd   Thumb Code    56  qsystemnetworkinfo.o(t._Z17qRegisterMetaTypeIN10QtMobility18QSystemNetworkInfo11NetworkModeEEiPKcPT_)
    qRegisterMetaType<QtMobility::QSystemNetworkInfo::NetworkStatus>(const char*, T1*) 0x0000fa0d   Thumb Code    56  qsystemnetworkinfo.o(t._Z17qRegisterMetaTypeIN10QtMobility18QSystemNetworkInfo13NetworkStatusEEiPKcPT_)
    qRegisterMetaType<QtMobility::QSystemStorageInfo::DriveType>(const char*, T1*) 0x0000fa4d   Thumb Code    56  qsystemstorageinfo.o(t._Z17qRegisterMetaTypeIN10QtMobility18QSystemStorageInfo9DriveTypeEEiPKcPT_)
    qForeachContainerNew<QList<MStorageStatusObserver*>>(const T1&) 0x0000fa8d   Thumb Code   126  storagestatus_s60.o(t._Z20qForeachContainerNewI5QListIP22MStorageStatusObserverEE17QForeachContainerIT_ERKS5_)
    qForeachContainerNew<QList<MTelephonyInfoObserver*>>(const T1&) 0x0000fb15   Thumb Code   126  telephonyinfo_s60.o(t._Z20qForeachContainerNewI5QListIP22MTelephonyInfoObserverEE17QForeachContainerIT_ERKS5_)
    qMetaTypeDeleteHelper<QFlags<QtMobility::QSystemDeviceInfo::InputMethod>>(T1*) 0x0000fb9d   Thumb Code    12  qsystemdeviceinfo.o(t._Z21qMetaTypeDeleteHelperI6QFlagsIN10QtMobility17QSystemDeviceInfo11InputMethodEEEvPT_)
    qMetaTypeDeleteHelper<QtMobility::QSystemInfo::Feature>(T1*) 0x0000fba9   Thumb Code    12  qsystemgeneralinfo.o(t._Z21qMetaTypeDeleteHelperIN10QtMobility11QSystemInfo7FeatureEEvPT_)
    qMetaTypeDeleteHelper<QtMobility::QSystemInfo::Version>(T1*) 0x0000fbb5   Thumb Code    12  qsystemgeneralinfo.o(t._Z21qMetaTypeDeleteHelperIN10QtMobility11QSystemInfo7VersionEEvPT_)
    qMetaTypeDeleteHelper<QtMobility::QSystemDeviceInfo::PowerState>(T1*) 0x0000fbc1   Thumb Code    12  qsystemdeviceinfo.o(t._Z21qMetaTypeDeleteHelperIN10QtMobility17QSystemDeviceInfo10PowerStateEEvPT_)
    qMetaTypeDeleteHelper<QtMobility::QSystemDeviceInfo::BatteryStatus>(T1*) 0x0000fbcd   Thumb Code    12  qsystemdeviceinfo.o(t._Z21qMetaTypeDeleteHelperIN10QtMobility17QSystemDeviceInfo13BatteryStatusEEvPT_)
    qMetaTypeDeleteHelper<QtMobility::QSystemDeviceInfo::Profile>(T1*) 0x0000fbd9   Thumb Code    12  qsystemdeviceinfo.o(t._Z21qMetaTypeDeleteHelperIN10QtMobility17QSystemDeviceInfo7ProfileEEvPT_)
    qMetaTypeDeleteHelper<QtMobility::QSystemDeviceInfo::SimStatus>(T1*) 0x0000fbe5   Thumb Code    12  qsystemdeviceinfo.o(t._Z21qMetaTypeDeleteHelperIN10QtMobility17QSystemDeviceInfo9SimStatusEEvPT_)
    qMetaTypeDeleteHelper<QtMobility::QSystemNetworkInfo::NetworkMode>(T1*) 0x0000fbf1   Thumb Code    12  qsystemnetworkinfo.o(t._Z21qMetaTypeDeleteHelperIN10QtMobility18QSystemNetworkInfo11NetworkModeEEvPT_)
    qMetaTypeDeleteHelper<QtMobility::QSystemNetworkInfo::NetworkStatus>(T1*) 0x0000fbfd   Thumb Code    12  qsystemnetworkinfo.o(t._Z21qMetaTypeDeleteHelperIN10QtMobility18QSystemNetworkInfo13NetworkStatusEEvPT_)
    qMetaTypeDeleteHelper<QtMobility::QSystemStorageInfo::DriveType>(T1*) 0x0000fc09   Thumb Code    12  qsystemstorageinfo.o(t._Z21qMetaTypeDeleteHelperIN10QtMobility18QSystemStorageInfo9DriveTypeEEvPT_)
    qMetaTypeConstructHelper<QFlags<QtMobility::QSystemDeviceInfo::InputMethod>>(const T1*) 0x0000fc15   Thumb Code    80  qsystemdeviceinfo.o(t._Z24qMetaTypeConstructHelperI6QFlagsIN10QtMobility17QSystemDeviceInfo11InputMethodEEEPvPKT_)
    qMetaTypeConstructHelper<QtMobility::QSystemInfo::Feature>(const T1*) 0x0000fc69   Thumb Code    50  qsystemgeneralinfo.o(t._Z24qMetaTypeConstructHelperIN10QtMobility11QSystemInfo7FeatureEEPvPKT_)
    qMetaTypeConstructHelper<QtMobility::QSystemInfo::Version>(const T1*) 0x0000fc9b   Thumb Code    50  qsystemgeneralinfo.o(t._Z24qMetaTypeConstructHelperIN10QtMobility11QSystemInfo7VersionEEPvPKT_)
    qMetaTypeConstructHelper<QtMobility::QSystemDeviceInfo::PowerState>(const T1*) 0x0000fccd   Thumb Code    50  qsystemdeviceinfo.o(t._Z24qMetaTypeConstructHelperIN10QtMobility17QSystemDeviceInfo10PowerStateEEPvPKT_)
    qMetaTypeConstructHelper<QtMobility::QSystemDeviceInfo::BatteryStatus>(const T1*) 0x0000fcff   Thumb Code    50  qsystemdeviceinfo.o(t._Z24qMetaTypeConstructHelperIN10QtMobility17QSystemDeviceInfo13BatteryStatusEEPvPKT_)
    qMetaTypeConstructHelper<QtMobility::QSystemDeviceInfo::Profile>(const T1*) 0x0000fd31   Thumb Code    50  qsystemdeviceinfo.o(t._Z24qMetaTypeConstructHelperIN10QtMobility17QSystemDeviceInfo7ProfileEEPvPKT_)
    qMetaTypeConstructHelper<QtMobility::QSystemDeviceInfo::SimStatus>(const T1*) 0x0000fd63   Thumb Code    50  qsystemdeviceinfo.o(t._Z24qMetaTypeConstructHelperIN10QtMobility17QSystemDeviceInfo9SimStatusEEPvPKT_)
    qMetaTypeConstructHelper<QtMobility::QSystemNetworkInfo::NetworkMode>(const T1*) 0x0000fd95   Thumb Code    50  qsystemnetworkinfo.o(t._Z24qMetaTypeConstructHelperIN10QtMobility18QSystemNetworkInfo11NetworkModeEEPvPKT_)
    qMetaTypeConstructHelper<QtMobility::QSystemNetworkInfo::NetworkStatus>(const T1*) 0x0000fdc7   Thumb Code    50  qsystemnetworkinfo.o(t._Z24qMetaTypeConstructHelperIN10QtMobility18QSystemNetworkInfo13NetworkStatusEEPvPKT_)
    qMetaTypeConstructHelper<QtMobility::QSystemStorageInfo::DriveType>(const T1*) 0x0000fdf9   Thumb Code    50  qsystemstorageinfo.o(t._Z24qMetaTypeConstructHelperIN10QtMobility18QSystemStorageInfo9DriveTypeEEPvPKT_)
    CleanupClose<RWsSession>::Close(void*)   0x0000fe2b   Thumb Code    12  qsysteminfo_s60.o(t._ZN12CleanupCloseI10RWsSessionE5CloseEPv)
    CleanupClose<RFs>::Close(void*)          0x0000fe37   Thumb Code    12  qsysteminfo_s60.o(t._ZN12CleanupCloseI3RFsE5CloseEPv)
    CleanupClose<RArray<int>>::Close(void*)  0x0000fe43   Thumb Code    14  qsysteminfo_s60.o(t._ZN12CleanupCloseI6RArrayIiEE5CloseEPv)
    QGlobalStaticDeleter<QtMobility::QSystemInfoPrivate>::~QGlobalStaticDeleter() 0x0000fe51   Thumb Code    38  qsystemgeneralinfo.o(t._ZN20QGlobalStaticDeleterIN10QtMobility18QSystemInfoPrivateEED1Ev)
    QGlobalStaticDeleter<QtMobility::QSystemInfoPrivate>::~QGlobalStaticDeleter__sub_object() 0x0000fe51   Thumb Code     0  qsystemgeneralinfo.o(t._ZN20QGlobalStaticDeleterIN10QtMobility18QSystemInfoPrivateEED1Ev)
    QGlobalStaticDeleter<QtMobility::QSystemDeviceInfoPrivate>::~QGlobalStaticDeleter() 0x0000fe77   Thumb Code    38  qsystemdeviceinfo.o(t._ZN20QGlobalStaticDeleterIN10QtMobility24QSystemDeviceInfoPrivateEED1Ev)
    QGlobalStaticDeleter<QtMobility::QSystemDeviceInfoPrivate>::~QGlobalStaticDeleter__sub_object() 0x0000fe77   Thumb Code     0  qsystemdeviceinfo.o(t._ZN20QGlobalStaticDeleterIN10QtMobility24QSystemDeviceInfoPrivateEED1Ev)
    QGlobalStaticDeleter<QtMobility::QSystemDisplayInfoPrivate>::~QGlobalStaticDeleter() 0x0000fe9d   Thumb Code    38  qsystemdisplayinfo.o(t._ZN20QGlobalStaticDeleterIN10QtMobility25QSystemDisplayInfoPrivateEED1Ev)
    QGlobalStaticDeleter<QtMobility::QSystemDisplayInfoPrivate>::~QGlobalStaticDeleter__sub_object() 0x0000fe9d   Thumb Code     0  qsystemdisplayinfo.o(t._ZN20QGlobalStaticDeleterIN10QtMobility25QSystemDisplayInfoPrivateEED1Ev)
    QGlobalStaticDeleter<QtMobility::QSystemNetworkInfoPrivate>::~QGlobalStaticDeleter() 0x0000fec3   Thumb Code    38  qsystemnetworkinfo.o(t._ZN20QGlobalStaticDeleterIN10QtMobility25QSystemNetworkInfoPrivateEED1Ev)
    QGlobalStaticDeleter<QtMobility::QSystemNetworkInfoPrivate>::~QGlobalStaticDeleter__sub_object() 0x0000fec3   Thumb Code     0  qsystemnetworkinfo.o(t._ZN20QGlobalStaticDeleterIN10QtMobility25QSystemNetworkInfoPrivateEED1Ev)
    QGlobalStaticDeleter<QtMobility::QSystemStorageInfoPrivate>::~QGlobalStaticDeleter() 0x0000fee9   Thumb Code    38  qsystemstorageinfo.o(t._ZN20QGlobalStaticDeleterIN10QtMobility25QSystemStorageInfoPrivateEED1Ev)
    QGlobalStaticDeleter<QtMobility::QSystemStorageInfoPrivate>::~QGlobalStaticDeleter__sub_object() 0x0000fee9   Thumb Code     0  qsystemstorageinfo.o(t._ZN20QGlobalStaticDeleterIN10QtMobility25QSystemStorageInfoPrivateEED1Ev)
    QList<QString>::detach_helper(int)       0x0000ff0f   Thumb Code    94  qsysteminfo_s60.o(t._ZN5QListI7QStringE13detach_helperEi)
    QList<QString>::detach_helper()          0x0000ff75   Thumb Code    16  qsystemgeneralinfo.o(t._ZN5QListI7QStringE13detach_helperEv)
    QList<QString>::node_destruct(QList<QString>::Node*, QList<QString>::Node*) 0x0000ff85   Thumb Code    26  qsysteminfo_s60.o(t._ZN5QListI7QStringE13node_destructEPNS1_4NodeES3_)
    QList<QString>::node_construct(QList<QString>::Node*, const QString&) 0x0000ff9f   Thumb Code    36  qsysteminfo_s60.o(t._ZN5QListI7QStringE14node_constructEPNS1_4NodeERKS0_)
    QList<QString>::detach_helper_grow(int, int) 0x0000ffd1   Thumb Code   208  qsysteminfo_s60.o(t._ZN5QListI7QStringE18detach_helper_growEii)
    QList<QString>::free(QListData::Data*)   0x000100b1   Thumb Code    58  qsysteminfo_s60.o(t._ZN5QListI7QStringE4freeEPN9QListData4DataE)
    QList<QString>::append(const QString&)   0x000100ed   Thumb Code   114  qsysteminfo_s60.o(t._ZN5QListI7QStringE6appendERKS0_)
    QList<QString>::node_copy(QList<QString>::Node*, QList<QString>::Node*, QList<QString>::Node*) 0x00010173   Thumb Code    82  qsysteminfo_s60.o(t._ZN5QListI7QStringE9node_copyEPNS1_4NodeES3_S3_)
    QList<QString>::QList()                  0x000101dd   Thumb Code    18  qsysteminfo_s60.o(t._ZN5QListI7QStringEC1Ev)
    QList<QString>::QList__sub_object()      0x000101dd   Thumb Code     0  qsysteminfo_s60.o(t._ZN5QListI7QStringEC1Ev)
    QList<QString>::~QList()                 0x000101f5   Thumb Code    32  qsystemgeneralinfo.o(t._ZN5QListI7QStringED1Ev)
    QList<QString>::~QList__sub_object()     0x000101f5   Thumb Code     0  qsystemgeneralinfo.o(t._ZN5QListI7QStringED1Ev)
    QList<MStorageStatusObserver*>::detach_helper(int) 0x00010215   Thumb Code    94  storagestatus_s60.o(t._ZN5QListIP22MStorageStatusObserverE13detach_helperEi)
    QList<MStorageStatusObserver*>::detach_helper() 0x0001027b   Thumb Code    16  storagestatus_s60.o(t._ZN5QListIP22MStorageStatusObserverE13detach_helperEv)
    QList<MStorageStatusObserver*>::detach_helper_grow(int, int) 0x0001028b   Thumb Code   204  storagestatus_s60.o(t._ZN5QListIP22MStorageStatusObserverE18detach_helper_growEii)
    QList<MStorageStatusObserver*>::free(QListData::Data*) 0x00010367   Thumb Code    58  storagestatus_s60.o(t._ZN5QListIP22MStorageStatusObserverE4freeEPN9QListData4DataE)
    QList<MStorageStatusObserver*>::append(MStorageStatusObserver*const &) 0x000103a1   Thumb Code    94  storagestatus_s60.o(t._ZN5QListIP22MStorageStatusObserverE6appendERKS1_)
    QList<MStorageStatusObserver*>::node_copy(QList<MStorageStatusObserver*>::Node*, QList<MStorageStatusObserver*>::Node*, QList<MStorageStatusObserver*>::Node*) 0x0001040f   Thumb Code    46  storagestatus_s60.o(t._ZN5QListIP22MStorageStatusObserverE9node_copyEPNS2_4NodeES4_S4_)
    QList<MStorageStatusObserver*>::removeOne(MStorageStatusObserver*const &) 0x0001043d   Thumb Code   124  storagestatus_s60.o(t._ZN5QListIP22MStorageStatusObserverE9removeOneERKS1_)
    QList<MStorageStatusObserver*>::~QList() 0x000104bd   Thumb Code    32  storagestatus_s60.o(t._ZN5QListIP22MStorageStatusObserverED1Ev)
    QList<MStorageStatusObserver*>::~QList__sub_object() 0x000104bd   Thumb Code     0  storagestatus_s60.o(t._ZN5QListIP22MStorageStatusObserverED1Ev)
    QList<MTelephonyInfoObserver*>::detach_helper(int) 0x000104dd   Thumb Code    94  telephonyinfo_s60.o(t._ZN5QListIP22MTelephonyInfoObserverE13detach_helperEi)
    QList<MTelephonyInfoObserver*>::detach_helper() 0x00010543   Thumb Code    16  telephonyinfo_s60.o(t._ZN5QListIP22MTelephonyInfoObserverE13detach_helperEv)
    QList<MTelephonyInfoObserver*>::detach_helper_grow(int, int) 0x00010553   Thumb Code   204  telephonyinfo_s60.o(t._ZN5QListIP22MTelephonyInfoObserverE18detach_helper_growEii)
    QList<MTelephonyInfoObserver*>::free(QListData::Data*) 0x0001062f   Thumb Code    58  telephonyinfo_s60.o(t._ZN5QListIP22MTelephonyInfoObserverE4freeEPN9QListData4DataE)
    QList<MTelephonyInfoObserver*>::append(MTelephonyInfoObserver*const &) 0x00010669   Thumb Code    94  telephonyinfo_s60.o(t._ZN5QListIP22MTelephonyInfoObserverE6appendERKS1_)
    QList<MTelephonyInfoObserver*>::node_copy(QList<MTelephonyInfoObserver*>::Node*, QList<MTelephonyInfoObserver*>::Node*, QList<MTelephonyInfoObserver*>::Node*) 0x000106d7   Thumb Code    46  telephonyinfo_s60.o(t._ZN5QListIP22MTelephonyInfoObserverE9node_copyEPNS2_4NodeES4_S4_)
    QList<MTelephonyInfoObserver*>::removeOne(MTelephonyInfoObserver*const &) 0x00010705   Thumb Code   124  telephonyinfo_s60.o(t._ZN5QListIP22MTelephonyInfoObserverE9removeOneERKS1_)
    QList<MTelephonyInfoObserver*>::~QList() 0x00010785   Thumb Code    32  telephonyinfo_s60.o(t._ZN5QListIP22MTelephonyInfoObserverED1Ev)
    QList<MTelephonyInfoObserver*>::~QList__sub_object() 0x00010785   Thumb Code     0  telephonyinfo_s60.o(t._ZN5QListIP22MTelephonyInfoObserverED1Ev)
    QList<MChargingStatusObserver*>::detach_helper(int) 0x000107a5   Thumb Code    94  chargingstatus_s60.o(t._ZN5QListIP23MChargingStatusObserverE13detach_helperEi)
    QList<MChargingStatusObserver*>::detach_helper() 0x0001080b   Thumb Code    16  chargingstatus_s60.o(t._ZN5QListIP23MChargingStatusObserverE13detach_helperEv)
    QList<MChargingStatusObserver*>::detach_helper_grow(int, int) 0x0001081b   Thumb Code   204  chargingstatus_s60.o(t._ZN5QListIP23MChargingStatusObserverE18detach_helper_growEii)
    QList<MChargingStatusObserver*>::free(QListData::Data*) 0x000108f7   Thumb Code    58  chargingstatus_s60.o(t._ZN5QListIP23MChargingStatusObserverE4freeEPN9QListData4DataE)
    QList<MChargingStatusObserver*>::append(MChargingStatusObserver*const &) 0x00010931   Thumb Code    94  chargingstatus_s60.o(t._ZN5QListIP23MChargingStatusObserverE6appendERKS1_)
    QList<MChargingStatusObserver*>::node_copy(QList<MChargingStatusObserver*>::Node*, QList<MChargingStatusObserver*>::Node*, QList<MChargingStatusObserver*>::Node*) 0x0001099f   Thumb Code    46  chargingstatus_s60.o(t._ZN5QListIP23MChargingStatusObserverE9node_copyEPNS2_4NodeES4_S4_)
    QList<MChargingStatusObserver*>::removeOne(MChargingStatusObserver*const &) 0x000109cd   Thumb Code   124  chargingstatus_s60.o(t._ZN5QListIP23MChargingStatusObserverE9removeOneERKS1_)
    QList<MChargingStatusObserver*>::~QList() 0x00010a4d   Thumb Code    32  chargingstatus_s60.o(t._ZN5QListIP23MChargingStatusObserverED1Ev)
    QList<MChargingStatusObserver*>::~QList__sub_object() 0x00010a4d   Thumb Code     0  chargingstatus_s60.o(t._ZN5QListIP23MChargingStatusObserverED1Ev)
    TBuf8<(int)26>::TBuf8()                  0x00010a6d   Thumb Code    16  storagestatus_s60.o(t._ZN5TBuf8ILi26EEC1Ev)
    TBuf8<(int)26>::TBuf8__sub_object()      0x00010a6d   Thumb Code     0  storagestatus_s60.o(t._ZN5TBuf8ILi26EEC1Ev)
    QForeachContainer<QList<MStorageStatusObserver*>>::condition() const 0x00010a7d   Thumb Code    40  storagestatus_s60.o(t._ZNK17QForeachContainerI5QListIP22MStorageStatusObserverEE9conditionEv)
    QForeachContainer<QList<MTelephonyInfoObserver*>>::condition() const 0x00010aa5   Thumb Code    40  telephonyinfo_s60.o(t._ZNK17QForeachContainerI5QListIP22MTelephonyInfoObserverEE9conditionEv)
    QList<MStorageStatusObserver*>::indexOf(MStorageStatusObserver*const &, int) const 0x00010acd   Thumb Code   132  storagestatus_s60.o(t._ZNK5QListIP22MStorageStatusObserverE7indexOfERKS1_i)
    QList<MTelephonyInfoObserver*>::indexOf(MTelephonyInfoObserver*const &, int) const 0x00010b51   Thumb Code   132  telephonyinfo_s60.o(t._ZNK5QListIP22MTelephonyInfoObserverE7indexOfERKS1_i)
    QList<MChargingStatusObserver*>::indexOf(MChargingStatusObserver*const &, int) const 0x00010bd5   Thumb Code   132  chargingstatus_s60.o(t._ZNK5QListIP23MChargingStatusObserverE7indexOfERKS1_i)
    CWlanInfo::staticMetaObject              0x00011b40   Data          16  moc_wlaninfo_s60.o(.constdata)
    QtMobility::QSystemInfo::staticMetaObject 0x00011b50   Data          16  qsystemgeneralinfo.o(.constdata)
    QtMobility::QSystemDeviceInfo::staticMetaObject 0x00011ddc   Data          16  qsystemdeviceinfo.o(.constdata)
    QtMobility::QSystemDisplayInfo::staticMetaObject 0x00012464   Data          16  qsystemdisplayinfo.o(.constdata)
    QtMobility::QSystemNetworkInfo::staticMetaObject 0x000124c4   Data          16  qsystemnetworkinfo.o(.constdata)
    QtMobility::QSystemScreenSaver::staticMetaObject 0x00012b90   Data          16  qsystemscreensaver.o(.constdata)
    QtMobility::QSystemStorageInfo::staticMetaObject 0x00012c44   Data          16  qsystemstorageinfo.o(.constdata)
    QtMobility::QSystemInfoPrivate::staticMetaObject 0x00012e5c   Data          16  qsysteminfo_s60.o(.constdata)
    QtMobility::QSystemNetworkInfoPrivate::staticMetaObject 0x00012e6c   Data          16  qsysteminfo_s60.o(.constdata)
    QtMobility::QSystemDisplayInfoPrivate::staticMetaObject 0x00012e7c   Data          16  qsysteminfo_s60.o(.constdata)
    QtMobility::QSystemStorageInfoPrivate::staticMetaObject 0x00012e8c   Data          16  qsysteminfo_s60.o(.constdata)
    QtMobility::QSystemDeviceInfoPrivate::staticMetaObject 0x00012e9c   Data          16  qsysteminfo_s60.o(.constdata)
    QtMobility::QSystemScreenSaverPrivate::staticMetaObject 0x00012eac   Data          16  qsysteminfo_s60.o(.constdata)
    stlp_priv::_Integer_limits<signed char, (signed char)-128, (signed char)127, (int)-1, (bool)1>::digits 0x00013524   Data           4  moc_wlaninfo_s60.o(.constdata__ZN9stlp_priv15_Integer_limitsIaLan128ELa127ELin1ELb1EE6digitsE)
    stlp_priv::_Integer_limits<bool, (bool)0, (bool)1, (int)1, (bool)0>::digits 0x00013528   Data           4  moc_wlaninfo_s60.o(.constdata__ZN9stlp_priv15_Integer_limitsIbLb0ELb1ELi1ELb0EE6digitsE)
    stlp_priv::_Integer_limits<char, (char)128, (char)127, (int)-1, (bool)1>::digits 0x0001352c   Data           4  moc_wlaninfo_s60.o(.constdata__ZN9stlp_priv15_Integer_limitsIcLc128ELc127ELin1ELb1EE6digitsE)
    stlp_priv::_Integer_limits<unsigned char, (unsigned char)0, (unsigned char)255, (int)-1, (bool)1>::digits 0x00013530   Data           4  moc_wlaninfo_s60.o(.constdata__ZN9stlp_priv15_Integer_limitsIhLh0ELh255ELin1ELb1EE6digitsE)
    stlp_priv::_Integer_limits<int, (int)-2147483648, (int)2147483647, (int)-1, (bool)1>::digits 0x00013534   Data           4  moc_wlaninfo_s60.o(.constdata__ZN9stlp_priv15_Integer_limitsIiLin2147483648ELi2147483647ELin1ELb1EE6digitsE)
    stlp_priv::_Integer_limits<int, (int)-2147483648, (int)2147483647, (int)-1, (bool)1>::is_signed 0x00013538   Data           1  moc_wlaninfo_s60.o(.constdata__ZN9stlp_priv15_Integer_limitsIiLin2147483648ELi2147483647ELin1ELb1EE9is_signedE)
    stlp_priv::_Integer_limits<unsigned, (unsigned)0, (unsigned)4294967295, (int)-1, (bool)1>::digits 0x0001353c   Data           4  moc_wlaninfo_s60.o(.constdata__ZN9stlp_priv15_Integer_limitsIjLj0ELj4294967295ELin1ELb1EE6digitsE)
    stlp_priv::_Integer_limits<long, (long)-2147483648, (long)2147483647, (int)-1, (bool)1>::digits 0x00013540   Data           4  moc_wlaninfo_s60.o(.constdata__ZN9stlp_priv15_Integer_limitsIlLln2147483648ELl2147483647ELin1ELb1EE6digitsE)
    stlp_priv::_Integer_limits<unsigned long, (unsigned long)0, (unsigned long)4294967295, (int)-1, (bool)1>::digits 0x00013544   Data           4  moc_wlaninfo_s60.o(.constdata__ZN9stlp_priv15_Integer_limitsImLm0ELm4294967295ELin1ELb1EE6digitsE)
    stlp_priv::_Integer_limits<short, (short)-32768, (short)32767, (int)-1, (bool)1>::digits 0x00013548   Data           4  moc_wlaninfo_s60.o(.constdata__ZN9stlp_priv15_Integer_limitsIsLsn32768ELs32767ELin1ELb1EE6digitsE)
    stlp_priv::_Integer_limits<unsigned short, (unsigned short)0, (unsigned short)65535, (int)-1, (bool)1>::digits 0x0001354c   Data           4  moc_wlaninfo_s60.o(.constdata__ZN9stlp_priv15_Integer_limitsItLt0ELt65535ELin1ELb1EE6digitsE)
    stlp_priv::_Integer_limits<wchar_t, (wchar_t)0, (wchar_t)65535, (int)-1, (bool)1>::digits 0x00013550   Data           4  moc_wlaninfo_s60.o(.constdata__ZN9stlp_priv15_Integer_limitsIwLw0ELw65535ELin1ELb1EE6digitsE)
    stlp_priv::_Integer_limits<long long, (long long)-9223372036854775808, (long long)9223372036854775807, (int)-1, (bool)1>::digits 0x00013554   Data           4  moc_wlaninfo_s60.o(.constdata__ZN9stlp_priv15_Integer_limitsIxLxn9223372036854775808ELx9223372036854775807ELin1ELb1EE6digitsE)
    stlp_priv::_Integer_limits<unsigned long long, (unsigned long long)0, (unsigned long long)18446744073709551615, (int)-1, (bool)1>::digits 0x00013558   Data           4  moc_wlaninfo_s60.o(.constdata__ZN9stlp_priv15_Integer_limitsIyLy0ELy18446744073709551615ELin1ELb1EE6digitsE)
    typeinfo for CPhoneInfo                  0x0001355c   Data          12  telephonyinfo_s60.o(.constdata__ZTI10CPhoneInfo)
    typeinfo for CBatteryInfo                0x00013568   Data          12  telephonyinfo_s60.o(.constdata__ZTI12CBatteryInfo)
    typeinfo for CWlanScanInfo               0x00013574   Data          40  moc_wlaninfo_s60.o(.constdata__ZTI13CWlanScanInfo)
    typeinfo for CTelephonyInfo              0x0001359c   Data          12  telephonyinfo_s60.o(.constdata__ZTI14CTelephonyInfo)
    typeinfo for CChargingStatus             0x000135a8   Data          12  chargingstatus_s60.o(.constdata__ZTI15CChargingStatus)
    typeinfo for CSubscriberInfo             0x000135b4   Data          12  telephonyinfo_s60.o(.constdata__ZTI15CSubscriberInfo)
    typeinfo for CWlanMgmtClient             0x000135c0   Data          32  moc_wlaninfo_s60.o(.constdata__ZTI15CWlanMgmtClient)
    typeinfo for CCellNetworkInfo            0x000135e0   Data          12  telephonyinfo_s60.o(.constdata__ZTI16CCellNetworkInfo)
    typeinfo for CMMCStorageStatus           0x000135ec   Data          12  storagestatus_s60.o(.constdata__ZTI17CMMCStorageStatus)
    typeinfo for MWlanScanInfoBase           0x000135f8   Data           8  moc_wlaninfo_s60.o(.constdata__ZTI17MWlanScanInfoBase)
    typeinfo for MWlanMgmtInterface          0x00013600   Data           8  moc_wlaninfo_s60.o(.constdata__ZTI18MWlanMgmtInterface)
    typeinfo for MStorageStatusObserver      0x00013608   Data           8  qsysteminfo_s60.o(.constdata__ZTI22MStorageStatusObserver)
    typeinfo for MTelephonyInfoObserver      0x00013610   Data           8  qsysteminfo_s60.o(.constdata__ZTI22MTelephonyInfoObserver)
    typeinfo for MWlanMgmtNotifications      0x00013618   Data           8  moc_wlaninfo_s60.o(.constdata__ZTI22MWlanMgmtNotifications)
    typeinfo for CCellSignalStrengthInfo     0x00013620   Data          12  telephonyinfo_s60.o(.constdata__ZTI23CCellSignalStrengthInfo)
    typeinfo for MChargingStatusObserver     0x0001362c   Data           8  qsysteminfo_s60.o(.constdata__ZTI23MChargingStatusObserver)
    typeinfo for MWlanScanInfoIteratorBase   0x00013634   Data           8  moc_wlaninfo_s60.o(.constdata__ZTI25MWlanScanInfoIteratorBase)
    typeinfo for CCellNetworkRegistrationInfo 0x0001363c   Data          12  telephonyinfo_s60.o(.constdata__ZTI28CCellNetworkRegistrationInfo)
    typeinfo for MProEngProfileActivationObserver 0x00013648   Data           8  qsysteminfo_s60.o(.constdata__ZTI32MProEngProfileActivationObserver)
    typeinfo for CWlanInfo                   0x00013650   Data          32  moc_wlaninfo_s60.o(.constdata__ZTI9CWlanInfo)
    typeinfo for QtMobility::QSystemInfo     0x00013670   Data          12  qsystemgeneralinfo.o(.constdata__ZTIN10QtMobility11QSystemInfoE)
    typeinfo for QtMobility::QSystemDeviceInfo 0x0001367c   Data          12  qsystemdeviceinfo.o(.constdata__ZTIN10QtMobility17QSystemDeviceInfoE)
    typeinfo for QtMobility::QSystemDisplayInfo 0x00013688   Data          12  qsystemdisplayinfo.o(.constdata__ZTIN10QtMobility18QSystemDisplayInfoE)
    typeinfo for QtMobility::QSystemInfoPrivate 0x00013694   Data          12  qsysteminfo_s60.o(.constdata__ZTIN10QtMobility18QSystemInfoPrivateE)
    typeinfo for QtMobility::QSystemNetworkInfo 0x000136a0   Data          12  qsystemnetworkinfo.o(.constdata__ZTIN10QtMobility18QSystemNetworkInfoE)
    typeinfo for QtMobility::QSystemScreenSaver 0x000136ac   Data          12  qsystemscreensaver.o(.constdata__ZTIN10QtMobility18QSystemScreenSaverE)
    typeinfo for QtMobility::QSystemStorageInfo 0x000136b8   Data          12  qsystemstorageinfo.o(.constdata__ZTIN10QtMobility18QSystemStorageInfoE)
    typeinfo for QtMobility::QSystemDeviceInfoPrivate 0x000136c4   Data          56  qsysteminfo_s60.o(.constdata__ZTIN10QtMobility24QSystemDeviceInfoPrivateE)
    typeinfo for QtMobility::QSystemDisplayInfoPrivate 0x000136fc   Data          12  qsysteminfo_s60.o(.constdata__ZTIN10QtMobility25QSystemDisplayInfoPrivateE)
    typeinfo for QtMobility::QSystemNetworkInfoPrivate 0x00013708   Data          32  qsysteminfo_s60.o(.constdata__ZTIN10QtMobility25QSystemNetworkInfoPrivateE)
    typeinfo for QtMobility::QSystemScreenSaverPrivate 0x00013728   Data          12  qsysteminfo_s60.o(.constdata__ZTIN10QtMobility25QSystemScreenSaverPrivateE)
    typeinfo for QtMobility::QSystemStorageInfoPrivate 0x00013734   Data          32  qsysteminfo_s60.o(.constdata__ZTIN10QtMobility25QSystemStorageInfoPrivateE)
    typeinfo name for CPhoneInfo             0x00013754   Data          13  telephonyinfo_s60.o(.constdata__ZTS10CPhoneInfo)
    typeinfo name for CBatteryInfo           0x00013761   Data          15  telephonyinfo_s60.o(.constdata__ZTS12CBatteryInfo)
    typeinfo name for CWlanScanInfo          0x00013770   Data          16  moc_wlaninfo_s60.o(.constdata__ZTS13CWlanScanInfo)
    typeinfo name for CTelephonyInfo         0x00013780   Data          17  telephonyinfo_s60.o(.constdata__ZTS14CTelephonyInfo)
    typeinfo name for CChargingStatus        0x00013791   Data          18  chargingstatus_s60.o(.constdata__ZTS15CChargingStatus)
    typeinfo name for CSubscriberInfo        0x000137a3   Data          18  telephonyinfo_s60.o(.constdata__ZTS15CSubscriberInfo)
    typeinfo name for CWlanMgmtClient        0x000137b5   Data          18  moc_wlaninfo_s60.o(.constdata__ZTS15CWlanMgmtClient)
    typeinfo name for CCellNetworkInfo       0x000137c7   Data          19  telephonyinfo_s60.o(.constdata__ZTS16CCellNetworkInfo)
    typeinfo name for CMMCStorageStatus      0x000137da   Data          20  storagestatus_s60.o(.constdata__ZTS17CMMCStorageStatus)
    typeinfo name for MWlanScanInfoBase      0x000137ee   Data          20  moc_wlaninfo_s60.o(.constdata__ZTS17MWlanScanInfoBase)
    typeinfo name for MWlanMgmtInterface     0x00013802   Data          21  moc_wlaninfo_s60.o(.constdata__ZTS18MWlanMgmtInterface)
    typeinfo name for MStorageStatusObserver 0x00013817   Data          25  qsysteminfo_s60.o(.constdata__ZTS22MStorageStatusObserver)
    typeinfo name for MTelephonyInfoObserver 0x00013830   Data          25  qsysteminfo_s60.o(.constdata__ZTS22MTelephonyInfoObserver)
    typeinfo name for MWlanMgmtNotifications 0x00013849   Data          25  moc_wlaninfo_s60.o(.constdata__ZTS22MWlanMgmtNotifications)
    typeinfo name for CCellSignalStrengthInfo 0x00013862   Data          26  telephonyinfo_s60.o(.constdata__ZTS23CCellSignalStrengthInfo)
    typeinfo name for MChargingStatusObserver 0x0001387c   Data          26  qsysteminfo_s60.o(.constdata__ZTS23MChargingStatusObserver)
    typeinfo name for MWlanScanInfoIteratorBase 0x00013896   Data          28  moc_wlaninfo_s60.o(.constdata__ZTS25MWlanScanInfoIteratorBase)
    typeinfo name for CCellNetworkRegistrationInfo 0x000138b2   Data          31  telephonyinfo_s60.o(.constdata__ZTS28CCellNetworkRegistrationInfo)
    typeinfo name for MProEngProfileActivationObserver 0x000138d1   Data          35  qsysteminfo_s60.o(.constdata__ZTS32MProEngProfileActivationObserver)
    typeinfo name for CWlanInfo              0x000138f4   Data          11  moc_wlaninfo_s60.o(.constdata__ZTS9CWlanInfo)
    typeinfo name for QtMobility::QSystemInfo 0x000138ff   Data          28  qsystemgeneralinfo.o(.constdata__ZTSN10QtMobility11QSystemInfoE)
    typeinfo name for QtMobility::QSystemDeviceInfo 0x0001391b   Data          34  qsystemdeviceinfo.o(.constdata__ZTSN10QtMobility17QSystemDeviceInfoE)
    typeinfo name for QtMobility::QSystemDisplayInfo 0x0001393d   Data          35  qsystemdisplayinfo.o(.constdata__ZTSN10QtMobility18QSystemDisplayInfoE)
    typeinfo name for QtMobility::QSystemInfoPrivate 0x00013960   Data          35  qsysteminfo_s60.o(.constdata__ZTSN10QtMobility18QSystemInfoPrivateE)
    typeinfo name for QtMobility::QSystemNetworkInfo 0x00013983   Data          35  qsystemnetworkinfo.o(.constdata__ZTSN10QtMobility18QSystemNetworkInfoE)
    typeinfo name for QtMobility::QSystemScreenSaver 0x000139a6   Data          35  qsystemscreensaver.o(.constdata__ZTSN10QtMobility18QSystemScreenSaverE)
    typeinfo name for QtMobility::QSystemStorageInfo 0x000139c9   Data          35  qsystemstorageinfo.o(.constdata__ZTSN10QtMobility18QSystemStorageInfoE)
    typeinfo name for QtMobility::QSystemDeviceInfoPrivate 0x000139ec   Data          41  qsysteminfo_s60.o(.constdata__ZTSN10QtMobility24QSystemDeviceInfoPrivateE)
    typeinfo name for QtMobility::QSystemDisplayInfoPrivate 0x00013a15   Data          42  qsysteminfo_s60.o(.constdata__ZTSN10QtMobility25QSystemDisplayInfoPrivateE)
    typeinfo name for QtMobility::QSystemNetworkInfoPrivate 0x00013a3f   Data          42  qsysteminfo_s60.o(.constdata__ZTSN10QtMobility25QSystemNetworkInfoPrivateE)
    typeinfo name for QtMobility::QSystemScreenSaverPrivate 0x00013a69   Data          42  qsysteminfo_s60.o(.constdata__ZTSN10QtMobility25QSystemScreenSaverPrivateE)
    typeinfo name for QtMobility::QSystemStorageInfoPrivate 0x00013a93   Data          42  qsysteminfo_s60.o(.constdata__ZTSN10QtMobility25QSystemStorageInfoPrivateE)
    vtable for CPhoneInfo                    0x00013ac0   Data          32  telephonyinfo_s60.o(.constdata__ZTV10CPhoneInfo)
    vtable for CBatteryInfo                  0x00013ae0   Data          32  telephonyinfo_s60.o(.constdata__ZTV12CBatteryInfo)
    vtable for CWlanScanInfo                 0x00013b00   Data         100  moc_wlaninfo_s60.o(.constdata__ZTV13CWlanScanInfo)
    vtable for CTelephonyInfo                0x00013b64   Data          32  telephonyinfo_s60.o(.constdata__ZTV14CTelephonyInfo)
    vtable for CChargingStatus               0x00013b84   Data          32  chargingstatus_s60.o(.constdata__ZTV15CChargingStatus)
    vtable for CSubscriberInfo               0x00013ba4   Data          32  telephonyinfo_s60.o(.constdata__ZTV15CSubscriberInfo)
    vtable for CWlanMgmtClient               0x00013bc4   Data         160  moc_wlaninfo_s60.o(.constdata__ZTV15CWlanMgmtClient)
    vtable for CCellNetworkInfo              0x00013c64   Data          32  telephonyinfo_s60.o(.constdata__ZTV16CCellNetworkInfo)
    vtable for CMMCStorageStatus             0x00013c84   Data          32  storagestatus_s60.o(.constdata__ZTV17CMMCStorageStatus)
    vtable for MStorageStatusObserver        0x00013ca4   Data          12  qsysteminfo_s60.o(.constdata__ZTV22MStorageStatusObserver)
    vtable for MTelephonyInfoObserver        0x00013cb0   Data          36  qsysteminfo_s60.o(.constdata__ZTV22MTelephonyInfoObserver)
    vtable for MWlanMgmtNotifications        0x00013cd4   Data          44  wlaninfo_s60.o(.constdata__ZTV22MWlanMgmtNotifications)
    vtable for CCellSignalStrengthInfo       0x00013d00   Data          32  telephonyinfo_s60.o(.constdata__ZTV23CCellSignalStrengthInfo)
    vtable for MChargingStatusObserver       0x00013d20   Data          12  qsysteminfo_s60.o(.constdata__ZTV23MChargingStatusObserver)
    vtable for CCellNetworkRegistrationInfo  0x00013d2c   Data          32  telephonyinfo_s60.o(.constdata__ZTV28CCellNetworkRegistrationInfo)
    vtable for MProEngProfileActivationObserver 0x00013d4c   Data          28  qsysteminfo_s60.o(.constdata__ZTV32MProEngProfileActivationObserver)
    vtable for CWlanInfo                     0x00013d68   Data         132  moc_wlaninfo_s60.o(.constdata__ZTV9CWlanInfo)
    vtable for QtMobility::QSystemInfo       0x00013dec   Data          56  qsystemgeneralinfo.o(.constdata__ZTVN10QtMobility11QSystemInfoE)
    vtable for QtMobility::QSystemDeviceInfo 0x00013e24   Data          56  qsystemdeviceinfo.o(.constdata__ZTVN10QtMobility17QSystemDeviceInfoE)
    vtable for QtMobility::QSystemDisplayInfo 0x00013e5c   Data          56  qsystemdisplayinfo.o(.constdata__ZTVN10QtMobility18QSystemDisplayInfoE)
    vtable for QtMobility::QSystemInfoPrivate 0x00013e94   Data          56  qsysteminfo_s60.o(.constdata__ZTVN10QtMobility18QSystemInfoPrivateE)
    vtable for QtMobility::QSystemNetworkInfo 0x00013ecc   Data          56  qsystemnetworkinfo.o(.constdata__ZTVN10QtMobility18QSystemNetworkInfoE)
    vtable for QtMobility::QSystemScreenSaver 0x00013f04   Data          56  qsystemscreensaver.o(.constdata__ZTVN10QtMobility18QSystemScreenSaverE)
    vtable for QtMobility::QSystemStorageInfo 0x00013f3c   Data          56  qsystemstorageinfo.o(.constdata__ZTVN10QtMobility18QSystemStorageInfoE)
    vtable for QtMobility::QSystemDeviceInfoPrivate 0x00013f74   Data         204  qsysteminfo_s60.o(.constdata__ZTVN10QtMobility24QSystemDeviceInfoPrivateE)
    vtable for QtMobility::QSystemDisplayInfoPrivate 0x00014040   Data          56  qsysteminfo_s60.o(.constdata__ZTVN10QtMobility25QSystemDisplayInfoPrivateE)
    vtable for QtMobility::QSystemNetworkInfoPrivate 0x00014078   Data         120  qsysteminfo_s60.o(.constdata__ZTVN10QtMobility25QSystemNetworkInfoPrivateE)
    vtable for QtMobility::QSystemScreenSaverPrivate 0x000140f0   Data          56  qsysteminfo_s60.o(.constdata__ZTVN10QtMobility25QSystemScreenSaverPrivateE)
    vtable for QtMobility::QSystemStorageInfoPrivate 0x00014128   Data          72  qsysteminfo_s60.o(.constdata__ZTVN10QtMobility25QSystemStorageInfoPrivateE)
    __ARM__ZN15CWlanMgmtClient4NewLEv_anon0  0x00014170   Data           4  wlaninfo_s60.o(.constdata___ARM__ZN15CWlanMgmtClient4NewLEv_anon0)
    .ARM.exidx$$Base                         0x00014174   Number         0  ucppinit.o(.ARM.exidx)
    .ARM.exidx$$Limit                        0x00014b9c   Number         0  storagestatus_s60.o(.ARM.exidx)
    Image$$ER_RO$$Limit                      0x00014b9c   Number         0  anon$$obj.o(linker$$defined$$symbols)
    QtMobility::DeviceInfo::m_instance       0x00400050   Data           4  qsysteminfo_s60.o(.data)
    __dso_handle                             0x00400054   Data           4  ucppfini.o(.data)
    std::_Atomic_swap_struct<(int)1>::_S_swap_lock 0x00400058   Data          12  moc_wlaninfo_s60.o(.data__ZNSt19_Atomic_swap_structILi1EE12_S_swap_lockE)
    dtor_rec                                 0x00400064   Data        2048  ucppfini.o(.bss)

